; Listing generated by Microsoft (R) Optimizing Compiler Version 15.00.30729.01 

	TITLE	i:\svnroot\client\sdk\ozcollide\aabbtreeaabb_builder.cpp
	.686P
	.XMM
	include listing.inc
	.model	flat

INCLUDELIB MSVCRT
INCLUDELIB OLDNAMES

CONST	SEGMENT
$SG7152	DB	'Building the root node', 00H
	ORG $+1
$SG7189	DB	'Building the final clean tree', 00H
	ORG $+2
$SG7230	DB	'Freeing temporary buffer', 00H
	ORG $+3
$SG7235	DB	'Done.', 00H
CONST	ENDS
PUBLIC	??1?$Vector@PAVWorkingItem@AABBTreeAABB_Builder@ozcollide@@@ozcollide@@QAE@XZ ; ozcollide::Vector<ozcollide::AABBTreeAABB_Builder::WorkingItem *>::~Vector<ozcollide::AABBTreeAABB_Builder::WorkingItem *>
PUBLIC	??0?$Vector@PAVWorkingItem@AABBTreeAABB_Builder@ozcollide@@@ozcollide@@QAE@XZ ; ozcollide::Vector<ozcollide::AABBTreeAABB_Builder::WorkingItem *>::Vector<ozcollide::AABBTreeAABB_Builder::WorkingItem *>
PUBLIC	??0AABBTreeAABB_Builder@ozcollide@@QAE@XZ	; ozcollide::AABBTreeAABB_Builder::AABBTreeAABB_Builder
EXTRN	___security_cookie:DWORD
EXTRN	___CxxFrameHandler3:PROC
EXTRN	@__security_check_cookie@4:PROC
xdata$x	SEGMENT
__unwindtable$??0AABBTreeAABB_Builder@ozcollide@@QAE@XZ DD 0ffffffffH
	DD	FLAT:__unwindfunclet$??0AABBTreeAABB_Builder@ozcollide@@QAE@XZ$0
__ehfuncinfo$??0AABBTreeAABB_Builder@ozcollide@@QAE@XZ DD 019930522H
	DD	01H
	DD	FLAT:__unwindtable$??0AABBTreeAABB_Builder@ozcollide@@QAE@XZ
	DD	2 DUP(00H)
	DD	2 DUP(00H)
	DD	00H
	DD	00H
; Function compile flags: /Odtp
; File i:\svnroot\client\sdk\ozcollide\aabbtreeaabb_builder.cpp
xdata$x	ENDS
_TEXT	SEGMENT
_this$ = -16						; size = 4
__$EHRec$ = -12						; size = 12
??0AABBTreeAABB_Builder@ozcollide@@QAE@XZ PROC		; ozcollide::AABBTreeAABB_Builder::AABBTreeAABB_Builder
; _this$ = ecx

; 33   : {

	push	ebp
	mov	ebp, esp
	push	-1
	push	__ehhandler$??0AABBTreeAABB_Builder@ozcollide@@QAE@XZ
	mov	eax, DWORD PTR fs:0
	push	eax
	push	ecx
	mov	eax, DWORD PTR ___security_cookie
	xor	eax, ebp
	push	eax
	lea	eax, DWORD PTR __$EHRec$[ebp]
	mov	DWORD PTR fs:0, eax
	mov	DWORD PTR _this$[ebp], ecx
	mov	ecx, DWORD PTR _this$[ebp]
	call	??0?$Vector@PAVWorkingItem@AABBTreeAABB_Builder@ozcollide@@@ozcollide@@QAE@XZ ; ozcollide::Vector<ozcollide::AABBTreeAABB_Builder::WorkingItem *>::Vector<ozcollide::AABBTreeAABB_Builder::WorkingItem *>
	mov	DWORD PTR __$EHRec$[ebp+8], 0

; 34   : }

	mov	DWORD PTR __$EHRec$[ebp+8], -1
	mov	eax, DWORD PTR _this$[ebp]
	mov	ecx, DWORD PTR __$EHRec$[ebp]
	mov	DWORD PTR fs:0, ecx
	pop	ecx
	mov	esp, ebp
	pop	ebp
	ret	0
_TEXT	ENDS
text$x	SEGMENT
__unwindfunclet$??0AABBTreeAABB_Builder@ozcollide@@QAE@XZ$0:
	mov	ecx, DWORD PTR _this$[ebp]
	jmp	??1?$Vector@PAVWorkingItem@AABBTreeAABB_Builder@ozcollide@@@ozcollide@@QAE@XZ ; ozcollide::Vector<ozcollide::AABBTreeAABB_Builder::WorkingItem *>::~Vector<ozcollide::AABBTreeAABB_Builder::WorkingItem *>
__ehhandler$??0AABBTreeAABB_Builder@ozcollide@@QAE@XZ:
	mov	edx, DWORD PTR [esp+8]
	lea	eax, DWORD PTR [edx+12]
	mov	ecx, DWORD PTR [edx-8]
	xor	ecx, eax
	call	@__security_check_cookie@4
	mov	eax, OFFSET __ehfuncinfo$??0AABBTreeAABB_Builder@ozcollide@@QAE@XZ
	jmp	___CxxFrameHandler3
text$x	ENDS
??0AABBTreeAABB_Builder@ozcollide@@QAE@XZ ENDP		; ozcollide::AABBTreeAABB_Builder::AABBTreeAABB_Builder
PUBLIC	??1AABBTreeAABB_Builder@ozcollide@@QAE@XZ	; ozcollide::AABBTreeAABB_Builder::~AABBTreeAABB_Builder
xdata$x	SEGMENT
__unwindtable$??1AABBTreeAABB_Builder@ozcollide@@QAE@XZ DD 0ffffffffH
	DD	FLAT:__unwindfunclet$??1AABBTreeAABB_Builder@ozcollide@@QAE@XZ$0
__ehfuncinfo$??1AABBTreeAABB_Builder@ozcollide@@QAE@XZ DD 019930522H
	DD	01H
	DD	FLAT:__unwindtable$??1AABBTreeAABB_Builder@ozcollide@@QAE@XZ
	DD	2 DUP(00H)
	DD	2 DUP(00H)
	DD	00H
	DD	00H
; Function compile flags: /Odtp
xdata$x	ENDS
_TEXT	SEGMENT
_this$ = -16						; size = 4
__$EHRec$ = -12						; size = 12
??1AABBTreeAABB_Builder@ozcollide@@QAE@XZ PROC		; ozcollide::AABBTreeAABB_Builder::~AABBTreeAABB_Builder
; _this$ = ecx

; 37   : {

	push	ebp
	mov	ebp, esp
	push	-1
	push	__ehhandler$??1AABBTreeAABB_Builder@ozcollide@@QAE@XZ
	mov	eax, DWORD PTR fs:0
	push	eax
	push	ecx
	mov	eax, DWORD PTR ___security_cookie
	xor	eax, ebp
	push	eax
	lea	eax, DWORD PTR __$EHRec$[ebp]
	mov	DWORD PTR fs:0, eax
	mov	DWORD PTR _this$[ebp], ecx
	mov	DWORD PTR __$EHRec$[ebp+8], 0

; 38   : }

	mov	DWORD PTR __$EHRec$[ebp+8], -1
	mov	ecx, DWORD PTR _this$[ebp]
	call	??1?$Vector@PAVWorkingItem@AABBTreeAABB_Builder@ozcollide@@@ozcollide@@QAE@XZ ; ozcollide::Vector<ozcollide::AABBTreeAABB_Builder::WorkingItem *>::~Vector<ozcollide::AABBTreeAABB_Builder::WorkingItem *>
	mov	ecx, DWORD PTR __$EHRec$[ebp]
	mov	DWORD PTR fs:0, ecx
	pop	ecx
	mov	esp, ebp
	pop	ebp
	ret	0
_TEXT	ENDS
text$x	SEGMENT
__unwindfunclet$??1AABBTreeAABB_Builder@ozcollide@@QAE@XZ$0:
	mov	ecx, DWORD PTR _this$[ebp]
	jmp	??1?$Vector@PAVWorkingItem@AABBTreeAABB_Builder@ozcollide@@@ozcollide@@QAE@XZ ; ozcollide::Vector<ozcollide::AABBTreeAABB_Builder::WorkingItem *>::~Vector<ozcollide::AABBTreeAABB_Builder::WorkingItem *>
__ehhandler$??1AABBTreeAABB_Builder@ozcollide@@QAE@XZ:
	mov	edx, DWORD PTR [esp+8]
	lea	eax, DWORD PTR [edx+12]
	mov	ecx, DWORD PTR [edx-8]
	xor	ecx, eax
	call	@__security_check_cookie@4
	mov	eax, OFFSET __ehfuncinfo$??1AABBTreeAABB_Builder@ozcollide@@QAE@XZ
	jmp	___CxxFrameHandler3
text$x	ENDS
??1AABBTreeAABB_Builder@ozcollide@@QAE@XZ ENDP		; ozcollide::AABBTreeAABB_Builder::~AABBTreeAABB_Builder
PUBLIC	?clear@?$Vector@PAVWorkingItem@AABBTreeAABB_Builder@ozcollide@@@ozcollide@@QAEXXZ ; ozcollide::Vector<ozcollide::AABBTreeAABB_Builder::WorkingItem *>::clear
PUBLIC	??_GWorkingItem@AABBTreeAABB_Builder@ozcollide@@QAEPAXI@Z ; ozcollide::AABBTreeAABB_Builder::WorkingItem::`scalar deleting destructor'
PUBLIC	??A?$Vector@VBox@ozcollide@@@ozcollide@@QBEAAVBox@1@H@Z ; ozcollide::Vector<ozcollide::Box>::operator[]
PUBLIC	??0Box@ozcollide@@QAE@XZ			; ozcollide::Box::Box
PUBLIC	??1Box@ozcollide@@QAE@XZ			; ozcollide::Box::~Box
PUBLIC	?size@?$Vector@VBox@ozcollide@@@ozcollide@@QBEHXZ ; ozcollide::Vector<ozcollide::Box>::size
PUBLIC	??1AABBTreeAABBLeaf@ozcollide@@QAE@XZ		; ozcollide::AABBTreeAABBLeaf::~AABBTreeAABBLeaf
PUBLIC	??0AABBTreeNode@ozcollide@@QAE@XZ		; ozcollide::AABBTreeNode::AABBTreeNode
PUBLIC	??1AABBTreeNode@ozcollide@@QAE@XZ		; ozcollide::AABBTreeNode::~AABBTreeNode
PUBLIC	?size@?$Vector@PAVWorkingItem@AABBTreeAABB_Builder@ozcollide@@@ozcollide@@QBEHXZ ; ozcollide::Vector<ozcollide::AABBTreeAABB_Builder::WorkingItem *>::size
PUBLIC	?workOnItem@AABBTreeAABB_Builder@ozcollide@@AAEXAAVWorkingItem@12@H@Z ; ozcollide::AABBTreeAABB_Builder::workOnItem
PUBLIC	??A?$Vector@PAVWorkingItem@AABBTreeAABB_Builder@ozcollide@@@ozcollide@@QBEAAPAVWorkingItem@AABBTreeAABB_Builder@1@H@Z ; ozcollide::Vector<ozcollide::AABBTreeAABB_Builder::WorkingItem *>::operator[]
PUBLIC	?add@?$Vector@PAVWorkingItem@AABBTreeAABB_Builder@ozcollide@@@ozcollide@@QAEXABQAVWorkingItem@AABBTreeAABB_Builder@2@@Z ; ozcollide::Vector<ozcollide::AABBTreeAABB_Builder::WorkingItem *>::add
PUBLIC	?add@?$Vector@VBox@ozcollide@@@ozcollide@@QAEXABVBox@2@@Z ; ozcollide::Vector<ozcollide::Box>::add
PUBLIC	??0WorkingItem@AABBTreeAABB_Builder@ozcollide@@QAE@XZ ; ozcollide::AABBTreeAABB_Builder::WorkingItem::WorkingItem
PUBLIC	?buildFromList@AABBTreeAABB_Builder@ozcollide@@QAEPAVAABBTreeAABB@2@HPBVBox@2@HPAVMonitor@2@@Z ; ozcollide::AABBTreeAABB_Builder::buildFromList
EXTRN	??3@YAXPAX@Z:PROC				; operator delete
EXTRN	??0AABBTreeAABBLeaf@ozcollide@@QAE@XZ:PROC	; ozcollide::AABBTreeAABBLeaf::AABBTreeAABBLeaf
EXTRN	??_L@YGXPAXIHP6EX0@Z1@Z:PROC			; `eh vector constructor iterator'
EXTRN	??0AABBTreeAABB@ozcollide@@AAE@H@Z:PROC		; ozcollide::AABBTreeAABB::AABBTreeAABB
EXTRN	??2@YAPAXI@Z:PROC				; operator new
xdata$x	SEGMENT
__ehfuncinfo$?buildFromList@AABBTreeAABB_Builder@ozcollide@@QAEPAVAABBTreeAABB@2@HPBVBox@2@HPAVMonitor@2@@Z DD 019930522H
	DD	05H
	DD	FLAT:__unwindtable$?buildFromList@AABBTreeAABB_Builder@ozcollide@@QAEPAVAABBTreeAABB@2@HPBVBox@2@HPAVMonitor@2@@Z
	DD	2 DUP(00H)
	DD	2 DUP(00H)
	DD	00H
	DD	00H
__unwindtable$?buildFromList@AABBTreeAABB_Builder@ozcollide@@QAEPAVAABBTreeAABB@2@HPBVBox@2@HPAVMonitor@2@@Z DD 0ffffffffH
	DD	FLAT:__unwindfunclet$?buildFromList@AABBTreeAABB_Builder@ozcollide@@QAEPAVAABBTreeAABB@2@HPBVBox@2@HPAVMonitor@2@@Z$0
	DD	0ffffffffH
	DD	FLAT:__unwindfunclet$?buildFromList@AABBTreeAABB_Builder@ozcollide@@QAEPAVAABBTreeAABB@2@HPBVBox@2@HPAVMonitor@2@@Z$1
	DD	0ffffffffH
	DD	FLAT:__unwindfunclet$?buildFromList@AABBTreeAABB_Builder@ozcollide@@QAEPAVAABBTreeAABB@2@HPBVBox@2@HPAVMonitor@2@@Z$2
	DD	0ffffffffH
	DD	FLAT:__unwindfunclet$?buildFromList@AABBTreeAABB_Builder@ozcollide@@QAEPAVAABBTreeAABB@2@HPBVBox@2@HPAVMonitor@2@@Z$3
	DD	0ffffffffH
	DD	FLAT:__unwindfunclet$?buildFromList@AABBTreeAABB_Builder@ozcollide@@QAEPAVAABBTreeAABB@2@HPBVBox@2@HPAVMonitor@2@@Z$4
; Function compile flags: /Odtp
xdata$x	ENDS
_TEXT	SEGMENT
tv435 = -192						; size = 4
tv334 = -188						; size = 4
tv217 = -184						; size = 4
tv193 = -180						; size = 4
tv80 = -176						; size = 4
tv73 = -172						; size = 4
_this$ = -168						; size = 4
$T7679 = -164						; size = 4
$T7678 = -160						; size = 4
$T7677 = -156						; size = 4
$T7674 = -152						; size = 4
$T7673 = -148						; size = 4
$T7672 = -144						; size = 4
$T7669 = -140						; size = 4
$T7668 = -136						; size = 4
$T7667 = -132						; size = 4
$T7664 = -128						; size = 4
$T7663 = -124						; size = 4
$T7662 = -120						; size = 4
$T7661 = -116						; size = 4
$T7658 = -112						; size = 4
$T7657 = -108						; size = 4
$T7654 = -104						; size = 4
$T7653 = -100						; size = 4
_leaf$7225 = -96					; size = 4
_item$7223 = -92					; size = 4
_leaf$7218 = -88					; size = 4
_item$7216 = -84					; size = 4
_node$7214 = -80					; size = 4
_nodeIndex$7213 = -76					; size = 4
_b$7210 = -72						; size = 4
_bl$7197 = -68						; size = 4
_indexLeaf$7196 = -64					; size = 4
_nbBoxes$7199 = -60					; size = 4
_it$7194 = -56						; size = 4
_it$7171 = -52						; size = 4
_size$7161 = -48					; size = 4
_it$7160 = -44						; size = 4
_j$ = -40						; size = 4
_item$ = -36						; size = 4
_ln$ = -32						; size = 4
_nbNodes$ = -28						; size = 4
_off$ = -24						; size = 4
_i$ = -20						; size = 4
_nbLeafs$ = -16						; size = 4
__$EHRec$ = -12						; size = 12
__nbBoxes$ = 8						; size = 4
__boxes$ = 12						; size = 4
__leafDepth$ = 16					; size = 4
__moni$ = 20						; size = 4
?buildFromList@AABBTreeAABB_Builder@ozcollide@@QAEPAVAABBTreeAABB@2@HPBVBox@2@HPAVMonitor@2@@Z PROC ; ozcollide::AABBTreeAABB_Builder::buildFromList
; _this$ = ecx

; 44   : {

	push	ebp
	mov	ebp, esp
	push	-1
	push	__ehhandler$?buildFromList@AABBTreeAABB_Builder@ozcollide@@QAEPAVAABBTreeAABB@2@HPBVBox@2@HPAVMonitor@2@@Z
	mov	eax, DWORD PTR fs:0
	push	eax
	sub	esp, 180				; 000000b4H
	mov	eax, DWORD PTR ___security_cookie
	xor	eax, ebp
	push	eax
	lea	eax, DWORD PTR __$EHRec$[ebp]
	mov	DWORD PTR fs:0, eax
	mov	DWORD PTR _this$[ebp], ecx

; 45   : 	int i, j;
; 46   : 
; 47   : 	tree_ = new AABBTreeAABB(_leafDepth);

	push	120					; 00000078H
	call	??2@YAPAXI@Z				; operator new
	add	esp, 4
	mov	DWORD PTR $T7654[ebp], eax
	mov	DWORD PTR __$EHRec$[ebp+8], 0
	cmp	DWORD PTR $T7654[ebp], 0
	je	SHORT $LN35@buildFromL
	mov	eax, DWORD PTR __leafDepth$[ebp]
	push	eax
	mov	ecx, DWORD PTR $T7654[ebp]
	call	??0AABBTreeAABB@ozcollide@@AAE@H@Z	; ozcollide::AABBTreeAABB::AABBTreeAABB
	mov	DWORD PTR tv73[ebp], eax
	jmp	SHORT $LN36@buildFromL
$LN35@buildFromL:
	mov	DWORD PTR tv73[ebp], 0
$LN36@buildFromL:
	mov	ecx, DWORD PTR tv73[ebp]
	mov	DWORD PTR $T7653[ebp], ecx
	mov	DWORD PTR __$EHRec$[ebp+8], -1
	mov	edx, DWORD PTR _this$[ebp]
	mov	eax, DWORD PTR $T7653[ebp]
	mov	DWORD PTR [edx+12], eax

; 48   : 
; 49   : 	// Build the root node
; 50   : 
; 51   : 	WorkingItem *item = new WorkingItem();

	push	44					; 0000002cH
	call	??2@YAPAXI@Z				; operator new
	add	esp, 4
	mov	DWORD PTR $T7658[ebp], eax
	mov	DWORD PTR __$EHRec$[ebp+8], 1
	cmp	DWORD PTR $T7658[ebp], 0
	je	SHORT $LN37@buildFromL
	mov	ecx, DWORD PTR $T7658[ebp]
	call	??0WorkingItem@AABBTreeAABB_Builder@ozcollide@@QAE@XZ
	mov	DWORD PTR tv80[ebp], eax
	jmp	SHORT $LN38@buildFromL
$LN37@buildFromL:
	mov	DWORD PTR tv80[ebp], 0
$LN38@buildFromL:
	mov	ecx, DWORD PTR tv80[ebp]
	mov	DWORD PTR $T7657[ebp], ecx
	mov	DWORD PTR __$EHRec$[ebp+8], -1
	mov	edx, DWORD PTR $T7657[ebp]
	mov	DWORD PTR _item$[ebp], edx

; 52   : 
; 53   : 	if (_moni)

	cmp	DWORD PTR __moni$[ebp], 0
	je	SHORT $LN32@buildFromL

; 54   : 		_moni->write("Building the root node");

	push	OFFSET $SG7152
	mov	eax, DWORD PTR __moni$[ebp]
	mov	edx, DWORD PTR [eax]
	mov	ecx, DWORD PTR __moni$[ebp]
	mov	eax, DWORD PTR [edx]
	call	eax
$LN32@buildFromL:

; 55   : 
; 56   : 	for (i = 0; i < _nbBoxes; i++)

	mov	DWORD PTR _i$[ebp], 0
	jmp	SHORT $LN31@buildFromL
$LN30@buildFromL:
	mov	ecx, DWORD PTR _i$[ebp]
	add	ecx, 1
	mov	DWORD PTR _i$[ebp], ecx
$LN31@buildFromL:
	mov	edx, DWORD PTR _i$[ebp]
	cmp	edx, DWORD PTR __nbBoxes$[ebp]
	jge	SHORT $LN29@buildFromL

; 57   : 		item->boxes.add(_boxes[i]);

	mov	eax, DWORD PTR _i$[ebp]
	imul	eax, 24					; 00000018H
	add	eax, DWORD PTR __boxes$[ebp]
	push	eax
	mov	ecx, DWORD PTR _item$[ebp]
	add	ecx, 32					; 00000020H
	call	?add@?$Vector@VBox@ozcollide@@@ozcollide@@QAEXABVBox@2@@Z ; ozcollide::Vector<ozcollide::Box>::add
	jmp	SHORT $LN30@buildFromL
$LN29@buildFromL:

; 58   : 
; 59   : 	item->left = -1;

	mov	ecx, DWORD PTR _item$[ebp]
	mov	DWORD PTR [ecx+24], -1

; 60   : 	item->right = -1;

	mov	edx, DWORD PTR _item$[ebp]
	mov	DWORD PTR [edx+28], -1

; 61   : 
; 62   : 	items_.add(item);

	lea	eax, DWORD PTR _item$[ebp]
	push	eax
	mov	ecx, DWORD PTR _this$[ebp]
	call	?add@?$Vector@PAVWorkingItem@AABBTreeAABB_Builder@ozcollide@@@ozcollide@@QAEXABQAVWorkingItem@AABBTreeAABB_Builder@2@@Z ; ozcollide::Vector<ozcollide::AABBTreeAABB_Builder::WorkingItem *>::add

; 63   : 
; 64   : 	int off = 0;

	mov	DWORD PTR _off$[ebp], 0
$LN28@buildFromL:

; 65   : 	while(true) {

	mov	ecx, 1
	test	ecx, ecx
	je	SHORT $LN27@buildFromL

; 66   : 		WorkingItem &it = *items_[off];

	mov	edx, DWORD PTR _off$[ebp]
	push	edx
	mov	ecx, DWORD PTR _this$[ebp]
	call	??A?$Vector@PAVWorkingItem@AABBTreeAABB_Builder@ozcollide@@@ozcollide@@QBEAAPAVWorkingItem@AABBTreeAABB_Builder@1@H@Z ; ozcollide::Vector<ozcollide::AABBTreeAABB_Builder::WorkingItem *>::operator[]
	mov	eax, DWORD PTR [eax]
	mov	DWORD PTR _it$7160[ebp], eax

; 67   : 		workOnItem(it, _leafDepth);

	mov	ecx, DWORD PTR __leafDepth$[ebp]
	push	ecx
	mov	edx, DWORD PTR _it$7160[ebp]
	push	edx
	mov	ecx, DWORD PTR _this$[ebp]
	call	?workOnItem@AABBTreeAABB_Builder@ozcollide@@AAEXAAVWorkingItem@12@H@Z ; ozcollide::AABBTreeAABB_Builder::workOnItem

; 68   : 		off++;

	mov	eax, DWORD PTR _off$[ebp]
	add	eax, 1
	mov	DWORD PTR _off$[ebp], eax

; 69   : 		int size = items_.size();

	mov	ecx, DWORD PTR _this$[ebp]
	call	?size@?$Vector@PAVWorkingItem@AABBTreeAABB_Builder@ozcollide@@@ozcollide@@QBEHXZ ; ozcollide::Vector<ozcollide::AABBTreeAABB_Builder::WorkingItem *>::size
	mov	DWORD PTR _size$7161[ebp], eax

; 70   : 		if (off == size)

	mov	ecx, DWORD PTR _off$[ebp]
	cmp	ecx, DWORD PTR _size$7161[ebp]
	jne	SHORT $LN26@buildFromL

; 71   : 			break;

	jmp	SHORT $LN27@buildFromL
$LN26@buildFromL:

; 72   : 	}

	jmp	SHORT $LN28@buildFromL
$LN27@buildFromL:

; 73   : 
; 74   : 	// Now we have a bastard working tree, let's build the final clean one...
; 75   : 
; 76   : 	int *ln = new int[items_.size()];

	mov	ecx, DWORD PTR _this$[ebp]
	call	?size@?$Vector@PAVWorkingItem@AABBTreeAABB_Builder@ozcollide@@@ozcollide@@QBEHXZ ; ozcollide::Vector<ozcollide::AABBTreeAABB_Builder::WorkingItem *>::size
	xor	ecx, ecx
	mov	edx, 4
	mul	edx
	seto	cl
	neg	ecx
	or	ecx, eax
	push	ecx
	call	??2@YAPAXI@Z				; operator new
	add	esp, 4
	mov	DWORD PTR $T7661[ebp], eax
	mov	eax, DWORD PTR $T7661[ebp]
	mov	DWORD PTR _ln$[ebp], eax

; 77   : 	int nbNodes = 0;

	mov	DWORD PTR _nbNodes$[ebp], 0

; 78   : 	int nbLeafs = 0;

	mov	DWORD PTR _nbLeafs$[ebp], 0

; 79   : 	for (i = 0; i < items_.size(); i++) {

	mov	DWORD PTR _i$[ebp], 0
	jmp	SHORT $LN25@buildFromL
$LN24@buildFromL:
	mov	ecx, DWORD PTR _i$[ebp]
	add	ecx, 1
	mov	DWORD PTR _i$[ebp], ecx
$LN25@buildFromL:
	mov	ecx, DWORD PTR _this$[ebp]
	call	?size@?$Vector@PAVWorkingItem@AABBTreeAABB_Builder@ozcollide@@@ozcollide@@QBEHXZ ; ozcollide::Vector<ozcollide::AABBTreeAABB_Builder::WorkingItem *>::size
	cmp	DWORD PTR _i$[ebp], eax
	jge	SHORT $LN23@buildFromL

; 80   : 		WorkingItem &it = *items_[i];

	mov	edx, DWORD PTR _i$[ebp]
	push	edx
	mov	ecx, DWORD PTR _this$[ebp]
	call	??A?$Vector@PAVWorkingItem@AABBTreeAABB_Builder@ozcollide@@@ozcollide@@QBEAAPAVWorkingItem@AABBTreeAABB_Builder@1@H@Z ; ozcollide::Vector<ozcollide::AABBTreeAABB_Builder::WorkingItem *>::operator[]
	mov	eax, DWORD PTR [eax]
	mov	DWORD PTR _it$7171[ebp], eax

; 81   : 		if (it.left == -1 && it.right == -1)

	mov	ecx, DWORD PTR _it$7171[ebp]
	cmp	DWORD PTR [ecx+24], -1
	jne	SHORT $LN22@buildFromL
	mov	edx, DWORD PTR _it$7171[ebp]
	cmp	DWORD PTR [edx+28], -1
	jne	SHORT $LN22@buildFromL

; 82   : 			ln[i] = nbLeafs++;

	mov	eax, DWORD PTR _i$[ebp]
	mov	ecx, DWORD PTR _ln$[ebp]
	mov	edx, DWORD PTR _nbLeafs$[ebp]
	mov	DWORD PTR [ecx+eax*4], edx
	mov	eax, DWORD PTR _nbLeafs$[ebp]
	add	eax, 1
	mov	DWORD PTR _nbLeafs$[ebp], eax

; 83   : 		else

	jmp	SHORT $LN21@buildFromL
$LN22@buildFromL:

; 84   : 			ln[i] = nbNodes++;

	mov	ecx, DWORD PTR _i$[ebp]
	mov	edx, DWORD PTR _ln$[ebp]
	mov	eax, DWORD PTR _nbNodes$[ebp]
	mov	DWORD PTR [edx+ecx*4], eax
	mov	ecx, DWORD PTR _nbNodes$[ebp]
	add	ecx, 1
	mov	DWORD PTR _nbNodes$[ebp], ecx
$LN21@buildFromL:

; 85   : 	}

	jmp	SHORT $LN24@buildFromL
$LN23@buildFromL:

; 86   : 	tree_->root_ = new AABBTreeNode[nbNodes];

	mov	edx, DWORD PTR _nbNodes$[ebp]
	mov	DWORD PTR $T7662[ebp], edx
	xor	ecx, ecx
	mov	eax, DWORD PTR $T7662[ebp]
	mov	edx, 32					; 00000020H
	mul	edx
	seto	cl
	neg	ecx
	or	ecx, eax
	xor	eax, eax
	add	ecx, 4
	setb	al
	neg	eax
	or	eax, ecx
	push	eax
	call	??2@YAPAXI@Z				; operator new
	add	esp, 4
	mov	DWORD PTR $T7664[ebp], eax
	mov	DWORD PTR __$EHRec$[ebp+8], 2
	cmp	DWORD PTR $T7664[ebp], 0
	je	SHORT $LN39@buildFromL
	mov	ecx, DWORD PTR $T7664[ebp]
	mov	edx, DWORD PTR $T7662[ebp]
	mov	DWORD PTR [ecx], edx
	push	OFFSET ??1AABBTreeNode@ozcollide@@QAE@XZ
	push	OFFSET ??0AABBTreeNode@ozcollide@@QAE@XZ
	mov	eax, DWORD PTR $T7662[ebp]
	push	eax
	push	32					; 00000020H
	mov	ecx, DWORD PTR $T7664[ebp]
	add	ecx, 4
	push	ecx
	call	??_L@YGXPAXIHP6EX0@Z1@Z
	mov	edx, DWORD PTR $T7664[ebp]
	add	edx, 4
	mov	DWORD PTR tv193[ebp], edx
	jmp	SHORT $LN40@buildFromL
$LN39@buildFromL:
	mov	DWORD PTR tv193[ebp], 0
$LN40@buildFromL:
	mov	eax, DWORD PTR tv193[ebp]
	mov	DWORD PTR $T7663[ebp], eax
	mov	DWORD PTR __$EHRec$[ebp+8], -1
	mov	ecx, DWORD PTR _this$[ebp]
	mov	edx, DWORD PTR [ecx+12]
	mov	eax, DWORD PTR $T7663[ebp]
	mov	DWORD PTR [edx+8], eax

; 87   : 	tree_->leafs_ = new AABBTreeAABBLeaf[nbLeafs];

	mov	ecx, DWORD PTR _nbLeafs$[ebp]
	mov	DWORD PTR $T7667[ebp], ecx
	xor	ecx, ecx
	mov	eax, DWORD PTR $T7667[ebp]
	mov	edx, 44					; 0000002cH
	mul	edx
	seto	cl
	neg	ecx
	or	ecx, eax
	xor	eax, eax
	add	ecx, 4
	setb	al
	neg	eax
	or	eax, ecx
	push	eax
	call	??2@YAPAXI@Z				; operator new
	add	esp, 4
	mov	DWORD PTR $T7669[ebp], eax
	mov	DWORD PTR __$EHRec$[ebp+8], 3
	cmp	DWORD PTR $T7669[ebp], 0
	je	SHORT $LN41@buildFromL
	mov	ecx, DWORD PTR $T7669[ebp]
	mov	edx, DWORD PTR $T7667[ebp]
	mov	DWORD PTR [ecx], edx
	push	OFFSET ??1AABBTreeAABBLeaf@ozcollide@@QAE@XZ
	push	OFFSET ??0AABBTreeAABBLeaf@ozcollide@@QAE@XZ ; ozcollide::AABBTreeAABBLeaf::AABBTreeAABBLeaf
	mov	eax, DWORD PTR $T7667[ebp]
	push	eax
	push	44					; 0000002cH
	mov	ecx, DWORD PTR $T7669[ebp]
	add	ecx, 4
	push	ecx
	call	??_L@YGXPAXIHP6EX0@Z1@Z
	mov	edx, DWORD PTR $T7669[ebp]
	add	edx, 4
	mov	DWORD PTR tv217[ebp], edx
	jmp	SHORT $LN42@buildFromL
$LN41@buildFromL:
	mov	DWORD PTR tv217[ebp], 0
$LN42@buildFromL:
	mov	eax, DWORD PTR tv217[ebp]
	mov	DWORD PTR $T7668[ebp], eax
	mov	DWORD PTR __$EHRec$[ebp+8], -1
	mov	ecx, DWORD PTR _this$[ebp]
	mov	edx, DWORD PTR [ecx+12]
	mov	eax, DWORD PTR $T7668[ebp]
	mov	DWORD PTR [edx+36], eax

; 88   : 	tree_->nbNodes_ = nbNodes;

	mov	ecx, DWORD PTR _this$[ebp]
	mov	edx, DWORD PTR [ecx+12]
	mov	eax, DWORD PTR _nbNodes$[ebp]
	mov	DWORD PTR [edx+4], eax

; 89   : 	tree_->nbLeafs_ = nbLeafs;

	mov	ecx, DWORD PTR _this$[ebp]
	mov	edx, DWORD PTR [ecx+12]
	mov	eax, DWORD PTR _nbLeafs$[ebp]
	mov	DWORD PTR [edx+12], eax

; 90   : 
; 91   : 	if (_moni)

	cmp	DWORD PTR __moni$[ebp], 0
	je	SHORT $LN20@buildFromL

; 92   : 		_moni->write("Building the final clean tree");

	push	OFFSET $SG7189
	mov	ecx, DWORD PTR __moni$[ebp]
	mov	edx, DWORD PTR [ecx]
	mov	ecx, DWORD PTR __moni$[ebp]
	mov	eax, DWORD PTR [edx]
	call	eax
$LN20@buildFromL:

; 93   : 
; 94   : 	for (i = 0; i < items_.size(); i++) {

	mov	DWORD PTR _i$[ebp], 0
	jmp	SHORT $LN19@buildFromL
$LN18@buildFromL:
	mov	ecx, DWORD PTR _i$[ebp]
	add	ecx, 1
	mov	DWORD PTR _i$[ebp], ecx
$LN19@buildFromL:
	mov	ecx, DWORD PTR _this$[ebp]
	call	?size@?$Vector@PAVWorkingItem@AABBTreeAABB_Builder@ozcollide@@@ozcollide@@QBEHXZ ; ozcollide::Vector<ozcollide::AABBTreeAABB_Builder::WorkingItem *>::size
	cmp	DWORD PTR _i$[ebp], eax
	jge	$LN17@buildFromL

; 95   : 		if (_moni)

	cmp	DWORD PTR __moni$[ebp], 0
	je	SHORT $LN16@buildFromL

; 96   : 			_moni->setProgress(i, items_.size());

	mov	ecx, DWORD PTR _this$[ebp]
	call	?size@?$Vector@PAVWorkingItem@AABBTreeAABB_Builder@ozcollide@@@ozcollide@@QBEHXZ ; ozcollide::Vector<ozcollide::AABBTreeAABB_Builder::WorkingItem *>::size
	push	eax
	mov	edx, DWORD PTR _i$[ebp]
	push	edx
	mov	eax, DWORD PTR __moni$[ebp]
	mov	edx, DWORD PTR [eax]
	mov	ecx, DWORD PTR __moni$[ebp]
	mov	eax, DWORD PTR [edx+4]
	call	eax
$LN16@buildFromL:

; 97   : 
; 98   : 		WorkingItem &it = *items_[i];

	mov	ecx, DWORD PTR _i$[ebp]
	push	ecx
	mov	ecx, DWORD PTR _this$[ebp]
	call	??A?$Vector@PAVWorkingItem@AABBTreeAABB_Builder@ozcollide@@@ozcollide@@QBEAAPAVWorkingItem@AABBTreeAABB_Builder@1@H@Z ; ozcollide::Vector<ozcollide::AABBTreeAABB_Builder::WorkingItem *>::operator[]
	mov	edx, DWORD PTR [eax]
	mov	DWORD PTR _it$7194[ebp], edx

; 99   : 		if (it.left == -1 && it.right == -1) {

	mov	eax, DWORD PTR _it$7194[ebp]
	cmp	DWORD PTR [eax+24], -1
	jne	$LN15@buildFromL
	mov	ecx, DWORD PTR _it$7194[ebp]
	cmp	DWORD PTR [ecx+28], -1
	jne	$LN15@buildFromL

; 100  : 			int indexLeaf = ln[i];

	mov	edx, DWORD PTR _i$[ebp]
	mov	eax, DWORD PTR _ln$[ebp]
	mov	ecx, DWORD PTR [eax+edx*4]
	mov	DWORD PTR _indexLeaf$7196[ebp], ecx

; 101  : 			AABBTreeAABBLeaf *bl = (AABBTreeAABBLeaf*) tree_->leafs_;

	mov	edx, DWORD PTR _this$[ebp]
	mov	eax, DWORD PTR [edx+12]
	mov	ecx, DWORD PTR [eax+36]
	mov	DWORD PTR _bl$7197[ebp], ecx

; 102  : 			bl += indexLeaf;

	mov	edx, DWORD PTR _indexLeaf$7196[ebp]
	imul	edx, 44					; 0000002cH
	add	edx, DWORD PTR _bl$7197[ebp]
	mov	DWORD PTR _bl$7197[ebp], edx

; 103  : 			bl->aabb = it.aabb;

	mov	eax, DWORD PTR _it$7194[ebp]
	mov	ecx, DWORD PTR _bl$7197[ebp]
	mov	edx, DWORD PTR [eax]
	mov	DWORD PTR [ecx], edx
	mov	edx, DWORD PTR [eax+4]
	mov	DWORD PTR [ecx+4], edx
	mov	edx, DWORD PTR [eax+8]
	mov	DWORD PTR [ecx+8], edx
	mov	edx, DWORD PTR [eax+12]
	mov	DWORD PTR [ecx+12], edx
	mov	edx, DWORD PTR [eax+16]
	mov	DWORD PTR [ecx+16], edx
	mov	eax, DWORD PTR [eax+20]
	mov	DWORD PTR [ecx+20], eax

; 104  : 			bl->left = NULL;

	mov	ecx, DWORD PTR _bl$7197[ebp]
	mov	DWORD PTR [ecx+24], 0

; 105  : 			bl->right = NULL;

	mov	edx, DWORD PTR _bl$7197[ebp]
	mov	DWORD PTR [edx+28], 0

; 106  : 			int nbBoxes = it.boxes.size();

	mov	ecx, DWORD PTR _it$7194[ebp]
	add	ecx, 32					; 00000020H
	call	?size@?$Vector@VBox@ozcollide@@@ozcollide@@QBEHXZ ; ozcollide::Vector<ozcollide::Box>::size
	mov	DWORD PTR _nbBoxes$7199[ebp], eax

; 107  : 			bl->nbBoxes = nbBoxes;

	mov	eax, DWORD PTR _bl$7197[ebp]
	mov	ecx, DWORD PTR _nbBoxes$7199[ebp]
	mov	DWORD PTR [eax+32], ecx

; 108  : 			bl->boxes = new Box[nbBoxes];

	mov	edx, DWORD PTR _nbBoxes$7199[ebp]
	mov	DWORD PTR $T7672[ebp], edx
	xor	ecx, ecx
	mov	eax, DWORD PTR $T7672[ebp]
	mov	edx, 24					; 00000018H
	mul	edx
	seto	cl
	neg	ecx
	or	ecx, eax
	xor	eax, eax
	add	ecx, 4
	setb	al
	neg	eax
	or	eax, ecx
	push	eax
	call	??2@YAPAXI@Z				; operator new
	add	esp, 4
	mov	DWORD PTR $T7674[ebp], eax
	mov	DWORD PTR __$EHRec$[ebp+8], 4
	cmp	DWORD PTR $T7674[ebp], 0
	je	SHORT $LN43@buildFromL
	mov	ecx, DWORD PTR $T7674[ebp]
	mov	edx, DWORD PTR $T7672[ebp]
	mov	DWORD PTR [ecx], edx
	push	OFFSET ??1Box@ozcollide@@QAE@XZ		; ozcollide::Box::~Box
	push	OFFSET ??0Box@ozcollide@@QAE@XZ		; ozcollide::Box::Box
	mov	eax, DWORD PTR $T7672[ebp]
	push	eax
	push	24					; 00000018H
	mov	ecx, DWORD PTR $T7674[ebp]
	add	ecx, 4
	push	ecx
	call	??_L@YGXPAXIHP6EX0@Z1@Z
	mov	edx, DWORD PTR $T7674[ebp]
	add	edx, 4
	mov	DWORD PTR tv334[ebp], edx
	jmp	SHORT $LN44@buildFromL
$LN43@buildFromL:
	mov	DWORD PTR tv334[ebp], 0
$LN44@buildFromL:
	mov	eax, DWORD PTR tv334[ebp]
	mov	DWORD PTR $T7673[ebp], eax
	mov	DWORD PTR __$EHRec$[ebp+8], -1
	mov	ecx, DWORD PTR _bl$7197[ebp]
	mov	edx, DWORD PTR $T7673[ebp]
	mov	DWORD PTR [ecx+36], edx

; 109  : 			for (j = 0; j < nbBoxes; j++) {

	mov	DWORD PTR _j$[ebp], 0
	jmp	SHORT $LN14@buildFromL
$LN13@buildFromL:
	mov	eax, DWORD PTR _j$[ebp]
	add	eax, 1
	mov	DWORD PTR _j$[ebp], eax
$LN14@buildFromL:
	mov	ecx, DWORD PTR _j$[ebp]
	cmp	ecx, DWORD PTR _nbBoxes$7199[ebp]
	jge	SHORT $LN12@buildFromL

; 110  : 				Box *b = (Box*) &bl->boxes[j];

	mov	edx, DWORD PTR _j$[ebp]
	imul	edx, 24					; 00000018H
	mov	eax, DWORD PTR _bl$7197[ebp]
	add	edx, DWORD PTR [eax+36]
	mov	DWORD PTR _b$7210[ebp], edx

; 111  : 				*b = it.boxes[j];

	mov	ecx, DWORD PTR _j$[ebp]
	push	ecx
	mov	ecx, DWORD PTR _it$7194[ebp]
	add	ecx, 32					; 00000020H
	call	??A?$Vector@VBox@ozcollide@@@ozcollide@@QBEAAVBox@1@H@Z ; ozcollide::Vector<ozcollide::Box>::operator[]
	mov	edx, DWORD PTR _b$7210[ebp]
	mov	ecx, DWORD PTR [eax]
	mov	DWORD PTR [edx], ecx
	mov	ecx, DWORD PTR [eax+4]
	mov	DWORD PTR [edx+4], ecx
	mov	ecx, DWORD PTR [eax+8]
	mov	DWORD PTR [edx+8], ecx
	mov	ecx, DWORD PTR [eax+12]
	mov	DWORD PTR [edx+12], ecx
	mov	ecx, DWORD PTR [eax+16]
	mov	DWORD PTR [edx+16], ecx
	mov	eax, DWORD PTR [eax+20]
	mov	DWORD PTR [edx+20], eax

; 112  : 			}

	jmp	SHORT $LN13@buildFromL
$LN12@buildFromL:

; 113  : 		}
; 114  : 		else {

	jmp	$LN11@buildFromL
$LN15@buildFromL:

; 115  : 			int nodeIndex = ln[i];

	mov	ecx, DWORD PTR _i$[ebp]
	mov	edx, DWORD PTR _ln$[ebp]
	mov	eax, DWORD PTR [edx+ecx*4]
	mov	DWORD PTR _nodeIndex$7213[ebp], eax

; 116  : 			AABBTreeNode *node = &tree_->root_[nodeIndex];

	mov	ecx, DWORD PTR _this$[ebp]
	mov	edx, DWORD PTR [ecx+12]
	mov	eax, DWORD PTR _nodeIndex$7213[ebp]
	shl	eax, 5
	add	eax, DWORD PTR [edx+8]
	mov	DWORD PTR _node$7214[ebp], eax

; 117  : 			node->aabb = it.aabb;

	mov	ecx, DWORD PTR _it$7194[ebp]
	mov	edx, DWORD PTR _node$7214[ebp]
	mov	eax, DWORD PTR [ecx]
	mov	DWORD PTR [edx], eax
	mov	eax, DWORD PTR [ecx+4]
	mov	DWORD PTR [edx+4], eax
	mov	eax, DWORD PTR [ecx+8]
	mov	DWORD PTR [edx+8], eax
	mov	eax, DWORD PTR [ecx+12]
	mov	DWORD PTR [edx+12], eax
	mov	eax, DWORD PTR [ecx+16]
	mov	DWORD PTR [edx+16], eax
	mov	ecx, DWORD PTR [ecx+20]
	mov	DWORD PTR [edx+20], ecx

; 118  : 
; 119  : 			if (it.left != -1) {

	mov	edx, DWORD PTR _it$7194[ebp]
	cmp	DWORD PTR [edx+24], -1
	je	SHORT $LN10@buildFromL

; 120  : 				WorkingItem *item = items_[it.left];

	mov	eax, DWORD PTR _it$7194[ebp]
	mov	ecx, DWORD PTR [eax+24]
	push	ecx
	mov	ecx, DWORD PTR _this$[ebp]
	call	??A?$Vector@PAVWorkingItem@AABBTreeAABB_Builder@ozcollide@@@ozcollide@@QBEAAPAVWorkingItem@AABBTreeAABB_Builder@1@H@Z ; ozcollide::Vector<ozcollide::AABBTreeAABB_Builder::WorkingItem *>::operator[]
	mov	edx, DWORD PTR [eax]
	mov	DWORD PTR _item$7216[ebp], edx

; 121  : 				if (item->left == -1 && item->right == -1) {

	mov	eax, DWORD PTR _item$7216[ebp]
	cmp	DWORD PTR [eax+24], -1
	jne	SHORT $LN9@buildFromL
	mov	ecx, DWORD PTR _item$7216[ebp]
	cmp	DWORD PTR [ecx+28], -1
	jne	SHORT $LN9@buildFromL

; 122  : 					AABBTreeAABBLeaf *leaf = (AABBTreeAABBLeaf*) tree_->leafs_;

	mov	edx, DWORD PTR _this$[ebp]
	mov	eax, DWORD PTR [edx+12]
	mov	ecx, DWORD PTR [eax+36]
	mov	DWORD PTR _leaf$7218[ebp], ecx

; 123  : 					node->left = leaf + ln[it.left];

	mov	edx, DWORD PTR _it$7194[ebp]
	mov	eax, DWORD PTR [edx+24]
	mov	ecx, DWORD PTR _ln$[ebp]
	mov	edx, DWORD PTR [ecx+eax*4]
	imul	edx, 44					; 0000002cH
	add	edx, DWORD PTR _leaf$7218[ebp]
	mov	eax, DWORD PTR _node$7214[ebp]
	mov	DWORD PTR [eax+24], edx

; 124  : 				}
; 125  : 				else {

	jmp	SHORT $LN8@buildFromL
$LN9@buildFromL:

; 126  : 					node->left = tree_->root_ + ln[it.left];

	mov	ecx, DWORD PTR _this$[ebp]
	mov	edx, DWORD PTR [ecx+12]
	mov	eax, DWORD PTR _it$7194[ebp]
	mov	ecx, DWORD PTR [eax+24]
	mov	eax, DWORD PTR _ln$[ebp]
	mov	ecx, DWORD PTR [eax+ecx*4]
	shl	ecx, 5
	add	ecx, DWORD PTR [edx+8]
	mov	edx, DWORD PTR _node$7214[ebp]
	mov	DWORD PTR [edx+24], ecx
$LN8@buildFromL:

; 127  : 				}
; 128  : 			}
; 129  : 			else

	jmp	SHORT $LN7@buildFromL
$LN10@buildFromL:

; 130  : 				node->left = NULL;

	mov	eax, DWORD PTR _node$7214[ebp]
	mov	DWORD PTR [eax+24], 0
$LN7@buildFromL:

; 131  : 
; 132  : 			if (it.right != -1) {

	mov	ecx, DWORD PTR _it$7194[ebp]
	cmp	DWORD PTR [ecx+28], -1
	je	SHORT $LN6@buildFromL

; 133  : 				WorkingItem *item = items_[it.right];

	mov	edx, DWORD PTR _it$7194[ebp]
	mov	eax, DWORD PTR [edx+28]
	push	eax
	mov	ecx, DWORD PTR _this$[ebp]
	call	??A?$Vector@PAVWorkingItem@AABBTreeAABB_Builder@ozcollide@@@ozcollide@@QBEAAPAVWorkingItem@AABBTreeAABB_Builder@1@H@Z ; ozcollide::Vector<ozcollide::AABBTreeAABB_Builder::WorkingItem *>::operator[]
	mov	ecx, DWORD PTR [eax]
	mov	DWORD PTR _item$7223[ebp], ecx

; 134  : 				if (item->left == -1 && item->right == -1) {

	mov	edx, DWORD PTR _item$7223[ebp]
	cmp	DWORD PTR [edx+24], -1
	jne	SHORT $LN5@buildFromL
	mov	eax, DWORD PTR _item$7223[ebp]
	cmp	DWORD PTR [eax+28], -1
	jne	SHORT $LN5@buildFromL

; 135  : 					AABBTreeAABBLeaf *leaf = (AABBTreeAABBLeaf*) tree_->leafs_;

	mov	ecx, DWORD PTR _this$[ebp]
	mov	edx, DWORD PTR [ecx+12]
	mov	eax, DWORD PTR [edx+36]
	mov	DWORD PTR _leaf$7225[ebp], eax

; 136  : 					node->right = leaf + ln[it.right];

	mov	ecx, DWORD PTR _it$7194[ebp]
	mov	edx, DWORD PTR [ecx+28]
	mov	eax, DWORD PTR _ln$[ebp]
	mov	ecx, DWORD PTR [eax+edx*4]
	imul	ecx, 44					; 0000002cH
	add	ecx, DWORD PTR _leaf$7225[ebp]
	mov	edx, DWORD PTR _node$7214[ebp]
	mov	DWORD PTR [edx+28], ecx

; 137  : 				}
; 138  : 				else {

	jmp	SHORT $LN4@buildFromL
$LN5@buildFromL:

; 139  : 					node->right = tree_->root_ + ln[it.right];

	mov	eax, DWORD PTR _this$[ebp]
	mov	ecx, DWORD PTR [eax+12]
	mov	edx, DWORD PTR _it$7194[ebp]
	mov	eax, DWORD PTR [edx+28]
	mov	edx, DWORD PTR _ln$[ebp]
	mov	eax, DWORD PTR [edx+eax*4]
	shl	eax, 5
	add	eax, DWORD PTR [ecx+8]
	mov	ecx, DWORD PTR _node$7214[ebp]
	mov	DWORD PTR [ecx+28], eax
$LN4@buildFromL:

; 140  : 				}
; 141  : 			}
; 142  : 			else

	jmp	SHORT $LN11@buildFromL
$LN6@buildFromL:

; 143  : 				node->right = NULL;

	mov	edx, DWORD PTR _node$7214[ebp]
	mov	DWORD PTR [edx+28], 0
$LN11@buildFromL:

; 144  : 		}
; 145  : 	}

	jmp	$LN18@buildFromL
$LN17@buildFromL:

; 146  : 
; 147  : 	if (_moni)

	cmp	DWORD PTR __moni$[ebp], 0
	je	SHORT $LN2@buildFromL

; 148  : 		_moni->write("Freeing temporary buffer");

	push	OFFSET $SG7230
	mov	eax, DWORD PTR __moni$[ebp]
	mov	edx, DWORD PTR [eax]
	mov	ecx, DWORD PTR __moni$[ebp]
	mov	eax, DWORD PTR [edx]
	call	eax
$LN2@buildFromL:

; 149  : 
; 150  : 	delete [] ln;

	mov	ecx, DWORD PTR _ln$[ebp]
	mov	DWORD PTR $T7677[ebp], ecx
	mov	edx, DWORD PTR $T7677[ebp]
	push	edx
	call	??3@YAXPAX@Z				; operator delete
	add	esp, 4

; 151  : 
; 152  : 	delete item;

	mov	eax, DWORD PTR _item$[ebp]
	mov	DWORD PTR $T7679[ebp], eax
	mov	ecx, DWORD PTR $T7679[ebp]
	mov	DWORD PTR $T7678[ebp], ecx
	cmp	DWORD PTR $T7678[ebp], 0
	je	SHORT $LN45@buildFromL
	push	1
	mov	ecx, DWORD PTR $T7678[ebp]
	call	??_GWorkingItem@AABBTreeAABB_Builder@ozcollide@@QAEPAXI@Z
	mov	DWORD PTR tv435[ebp], eax
	jmp	SHORT $LN46@buildFromL
$LN45@buildFromL:
	mov	DWORD PTR tv435[ebp], 0
$LN46@buildFromL:

; 153  : 	items_.clear();

	mov	ecx, DWORD PTR _this$[ebp]
	call	?clear@?$Vector@PAVWorkingItem@AABBTreeAABB_Builder@ozcollide@@@ozcollide@@QAEXXZ ; ozcollide::Vector<ozcollide::AABBTreeAABB_Builder::WorkingItem *>::clear

; 154  : 
; 155  : 	if (_moni)

	cmp	DWORD PTR __moni$[ebp], 0
	je	SHORT $LN1@buildFromL

; 156  : 		_moni->write("Done.");

	push	OFFSET $SG7235
	mov	edx, DWORD PTR __moni$[ebp]
	mov	eax, DWORD PTR [edx]
	mov	ecx, DWORD PTR __moni$[ebp]
	mov	edx, DWORD PTR [eax]
	call	edx
$LN1@buildFromL:

; 157  : 
; 158  : 	return tree_;

	mov	eax, DWORD PTR _this$[ebp]
	mov	eax, DWORD PTR [eax+12]

; 159  : }

	mov	ecx, DWORD PTR __$EHRec$[ebp]
	mov	DWORD PTR fs:0, ecx
	pop	ecx
	mov	esp, ebp
	pop	ebp
	ret	16					; 00000010H
_TEXT	ENDS
text$x	SEGMENT
__unwindfunclet$?buildFromList@AABBTreeAABB_Builder@ozcollide@@QAEPAVAABBTreeAABB@2@HPBVBox@2@HPAVMonitor@2@@Z$0:
	mov	eax, DWORD PTR $T7654[ebp]
	push	eax
	call	??3@YAXPAX@Z				; operator delete
	pop	ecx
	ret	0
__unwindfunclet$?buildFromList@AABBTreeAABB_Builder@ozcollide@@QAEPAVAABBTreeAABB@2@HPBVBox@2@HPAVMonitor@2@@Z$1:
	mov	eax, DWORD PTR $T7658[ebp]
	push	eax
	call	??3@YAXPAX@Z				; operator delete
	pop	ecx
	ret	0
__unwindfunclet$?buildFromList@AABBTreeAABB_Builder@ozcollide@@QAEPAVAABBTreeAABB@2@HPBVBox@2@HPAVMonitor@2@@Z$2:
	mov	eax, DWORD PTR $T7664[ebp]
	push	eax
	call	??3@YAXPAX@Z				; operator delete
	pop	ecx
	ret	0
__unwindfunclet$?buildFromList@AABBTreeAABB_Builder@ozcollide@@QAEPAVAABBTreeAABB@2@HPBVBox@2@HPAVMonitor@2@@Z$3:
	mov	eax, DWORD PTR $T7669[ebp]
	push	eax
	call	??3@YAXPAX@Z				; operator delete
	pop	ecx
	ret	0
__unwindfunclet$?buildFromList@AABBTreeAABB_Builder@ozcollide@@QAEPAVAABBTreeAABB@2@HPBVBox@2@HPAVMonitor@2@@Z$4:
	mov	eax, DWORD PTR $T7674[ebp]
	push	eax
	call	??3@YAXPAX@Z				; operator delete
	pop	ecx
	ret	0
__ehhandler$?buildFromList@AABBTreeAABB_Builder@ozcollide@@QAEPAVAABBTreeAABB@2@HPBVBox@2@HPAVMonitor@2@@Z:
	mov	edx, DWORD PTR [esp+8]
	lea	eax, DWORD PTR [edx+12]
	mov	ecx, DWORD PTR [edx-184]
	xor	ecx, eax
	call	@__security_check_cookie@4
	mov	eax, OFFSET __ehfuncinfo$?buildFromList@AABBTreeAABB_Builder@ozcollide@@QAEPAVAABBTreeAABB@2@HPBVBox@2@HPAVMonitor@2@@Z
	jmp	___CxxFrameHandler3
text$x	ENDS
?buildFromList@AABBTreeAABB_Builder@ozcollide@@QAEPAVAABBTreeAABB@2@HPBVBox@2@HPAVMonitor@2@@Z ENDP ; ozcollide::AABBTreeAABB_Builder::buildFromList
PUBLIC	??0Vec3f@ozcollide@@QAE@XZ			; ozcollide::Vec3f::Vec3f
; Function compile flags: /Odtp
; File i:\svnroot\client\sdk\ozcollide\box.h
;	COMDAT ??0Box@ozcollide@@QAE@XZ
_TEXT	SEGMENT
_this$ = -4						; size = 4
??0Box@ozcollide@@QAE@XZ PROC				; ozcollide::Box::Box, COMDAT
; _this$ = ecx

; 44   : 	ozinline Box()

	push	ebp
	mov	ebp, esp
	push	ecx
	mov	DWORD PTR _this$[ebp], ecx
	mov	ecx, DWORD PTR _this$[ebp]
	call	??0Vec3f@ozcollide@@QAE@XZ		; ozcollide::Vec3f::Vec3f
	mov	ecx, DWORD PTR _this$[ebp]
	add	ecx, 12					; 0000000cH
	call	??0Vec3f@ozcollide@@QAE@XZ		; ozcollide::Vec3f::Vec3f

; 45   : 	{
; 46   : 	}

	mov	eax, DWORD PTR _this$[ebp]
	mov	esp, ebp
	pop	ebp
	ret	0
??0Box@ozcollide@@QAE@XZ ENDP				; ozcollide::Box::Box
; Function compile flags: /Odtp
; File i:\svnroot\client\sdk\ozcollide\vec3f.h
_TEXT	ENDS
;	COMDAT ??0Vec3f@ozcollide@@QAE@XZ
_TEXT	SEGMENT
_this$ = -4						; size = 4
??0Vec3f@ozcollide@@QAE@XZ PROC				; ozcollide::Vec3f::Vec3f, COMDAT
; _this$ = ecx

; 37   : 	ozinline Vec3f()

	push	ebp
	mov	ebp, esp
	push	ecx
	mov	DWORD PTR _this$[ebp], ecx

; 38   : 	{
; 39   : 	}

	mov	eax, DWORD PTR _this$[ebp]
	mov	esp, ebp
	pop	ebp
	ret	0
??0Vec3f@ozcollide@@QAE@XZ ENDP				; ozcollide::Vec3f::Vec3f
; Function compile flags: /Odtp
; File i:\svnroot\client\sdk\ozcollide\box.h
_TEXT	ENDS
;	COMDAT ??1Box@ozcollide@@QAE@XZ
_TEXT	SEGMENT
_this$ = -4						; size = 4
??1Box@ozcollide@@QAE@XZ PROC				; ozcollide::Box::~Box, COMDAT
; _this$ = ecx

; 53   : 	{

	push	ebp
	mov	ebp, esp
	push	ecx
	mov	DWORD PTR _this$[ebp], ecx

; 54   : 	}

	mov	esp, ebp
	pop	ebp
	ret	0
??1Box@ozcollide@@QAE@XZ ENDP				; ozcollide::Box::~Box
_TEXT	ENDS
PUBLIC	??1?$Vector@VBox@ozcollide@@@ozcollide@@QAE@XZ	; ozcollide::Vector<ozcollide::Box>::~Vector<ozcollide::Box>
PUBLIC	??0?$Vector@VBox@ozcollide@@@ozcollide@@QAE@XZ	; ozcollide::Vector<ozcollide::Box>::Vector<ozcollide::Box>
;	COMDAT xdata$x
xdata$x	SEGMENT
__unwindtable$??0WorkingItem@AABBTreeAABB_Builder@ozcollide@@QAE@XZ DD 0ffffffffH
	DD	FLAT:__unwindfunclet$??0WorkingItem@AABBTreeAABB_Builder@ozcollide@@QAE@XZ$0
	DD	00H
	DD	FLAT:__unwindfunclet$??0WorkingItem@AABBTreeAABB_Builder@ozcollide@@QAE@XZ$1
__ehfuncinfo$??0WorkingItem@AABBTreeAABB_Builder@ozcollide@@QAE@XZ DD 019930522H
	DD	02H
	DD	FLAT:__unwindtable$??0WorkingItem@AABBTreeAABB_Builder@ozcollide@@QAE@XZ
	DD	2 DUP(00H)
	DD	2 DUP(00H)
	DD	00H
	DD	00H
; Function compile flags: /Odtp
xdata$x	ENDS
;	COMDAT ??0WorkingItem@AABBTreeAABB_Builder@ozcollide@@QAE@XZ
_TEXT	SEGMENT
_this$ = -16						; size = 4
__$EHRec$ = -12						; size = 12
??0WorkingItem@AABBTreeAABB_Builder@ozcollide@@QAE@XZ PROC ; ozcollide::AABBTreeAABB_Builder::WorkingItem::WorkingItem, COMDAT
; _this$ = ecx
	push	ebp
	mov	ebp, esp
	push	-1
	push	__ehhandler$??0WorkingItem@AABBTreeAABB_Builder@ozcollide@@QAE@XZ
	mov	eax, DWORD PTR fs:0
	push	eax
	push	ecx
	mov	eax, DWORD PTR ___security_cookie
	xor	eax, ebp
	push	eax
	lea	eax, DWORD PTR __$EHRec$[ebp]
	mov	DWORD PTR fs:0, eax
	mov	DWORD PTR _this$[ebp], ecx
	mov	ecx, DWORD PTR _this$[ebp]
	call	??0Box@ozcollide@@QAE@XZ		; ozcollide::Box::Box
	mov	DWORD PTR __$EHRec$[ebp+8], 0
	mov	ecx, DWORD PTR _this$[ebp]
	add	ecx, 32					; 00000020H
	call	??0?$Vector@VBox@ozcollide@@@ozcollide@@QAE@XZ ; ozcollide::Vector<ozcollide::Box>::Vector<ozcollide::Box>
	mov	BYTE PTR __$EHRec$[ebp+8], 1
	mov	DWORD PTR __$EHRec$[ebp+8], -1
	mov	eax, DWORD PTR _this$[ebp]
	mov	ecx, DWORD PTR __$EHRec$[ebp]
	mov	DWORD PTR fs:0, ecx
	pop	ecx
	mov	esp, ebp
	pop	ebp
	ret	0
_TEXT	ENDS
;	COMDAT text$x
text$x	SEGMENT
__unwindfunclet$??0WorkingItem@AABBTreeAABB_Builder@ozcollide@@QAE@XZ$0:
	mov	ecx, DWORD PTR _this$[ebp]
	jmp	??1Box@ozcollide@@QAE@XZ		; ozcollide::Box::~Box
__unwindfunclet$??0WorkingItem@AABBTreeAABB_Builder@ozcollide@@QAE@XZ$1:
	mov	ecx, DWORD PTR _this$[ebp]
	add	ecx, 32					; 00000020H
	jmp	??1?$Vector@VBox@ozcollide@@@ozcollide@@QAE@XZ ; ozcollide::Vector<ozcollide::Box>::~Vector<ozcollide::Box>
__ehhandler$??0WorkingItem@AABBTreeAABB_Builder@ozcollide@@QAE@XZ:
	mov	edx, DWORD PTR [esp+8]
	lea	eax, DWORD PTR [edx+12]
	mov	ecx, DWORD PTR [edx-8]
	xor	ecx, eax
	call	@__security_check_cookie@4
	mov	eax, OFFSET __ehfuncinfo$??0WorkingItem@AABBTreeAABB_Builder@ozcollide@@QAE@XZ
	jmp	___CxxFrameHandler3
text$x	ENDS
??0WorkingItem@AABBTreeAABB_Builder@ozcollide@@QAE@XZ ENDP ; ozcollide::AABBTreeAABB_Builder::WorkingItem::WorkingItem
PUBLIC	??_EAABBTreeNode@ozcollide@@QAEPAXI@Z		; ozcollide::AABBTreeNode::`vector deleting destructor'
EXTRN	??_M@YGXPAXIHP6EX0@Z@Z:PROC			; `eh vector destructor iterator'
; Function compile flags: /Odtp
;	COMDAT ??_EAABBTreeNode@ozcollide@@QAEPAXI@Z
_TEXT	SEGMENT
_this$ = -4						; size = 4
___flags$ = 8						; size = 4
??_EAABBTreeNode@ozcollide@@QAEPAXI@Z PROC		; ozcollide::AABBTreeNode::`vector deleting destructor', COMDAT
; _this$ = ecx
	push	ebp
	mov	ebp, esp
	push	ecx
	mov	DWORD PTR _this$[ebp], ecx
	mov	eax, DWORD PTR ___flags$[ebp]
	and	eax, 2
	je	SHORT $LN3@vector
	push	OFFSET ??1AABBTreeNode@ozcollide@@QAE@XZ
	mov	ecx, DWORD PTR _this$[ebp]
	mov	edx, DWORD PTR [ecx-4]
	push	edx
	push	32					; 00000020H
	mov	eax, DWORD PTR _this$[ebp]
	push	eax
	call	??_M@YGXPAXIHP6EX0@Z@Z
	mov	ecx, DWORD PTR ___flags$[ebp]
	and	ecx, 1
	je	SHORT $LN2@vector
	mov	edx, DWORD PTR _this$[ebp]
	sub	edx, 4
	push	edx
	call	??3@YAXPAX@Z				; operator delete
	add	esp, 4
$LN2@vector:
	mov	eax, DWORD PTR _this$[ebp]
	sub	eax, 4
	jmp	SHORT $LN4@vector
$LN3@vector:
	mov	ecx, DWORD PTR _this$[ebp]
	call	??1AABBTreeNode@ozcollide@@QAE@XZ
	mov	eax, DWORD PTR ___flags$[ebp]
	and	eax, 1
	je	SHORT $LN1@vector
	mov	ecx, DWORD PTR _this$[ebp]
	push	ecx
	call	??3@YAXPAX@Z				; operator delete
	add	esp, 4
$LN1@vector:
	mov	eax, DWORD PTR _this$[ebp]
$LN4@vector:
	mov	esp, ebp
	pop	ebp
	ret	4
??_EAABBTreeNode@ozcollide@@QAEPAXI@Z ENDP		; ozcollide::AABBTreeNode::`vector deleting destructor'
_TEXT	ENDS
;	COMDAT xdata$x
xdata$x	SEGMENT
__unwindtable$??0AABBTreeNode@ozcollide@@QAE@XZ DD 0ffffffffH
	DD	FLAT:__unwindfunclet$??0AABBTreeNode@ozcollide@@QAE@XZ$0
__ehfuncinfo$??0AABBTreeNode@ozcollide@@QAE@XZ DD 019930522H
	DD	01H
	DD	FLAT:__unwindtable$??0AABBTreeNode@ozcollide@@QAE@XZ
	DD	2 DUP(00H)
	DD	2 DUP(00H)
	DD	00H
	DD	00H
; Function compile flags: /Odtp
xdata$x	ENDS
;	COMDAT ??0AABBTreeNode@ozcollide@@QAE@XZ
_TEXT	SEGMENT
_this$ = -16						; size = 4
__$EHRec$ = -12						; size = 12
??0AABBTreeNode@ozcollide@@QAE@XZ PROC			; ozcollide::AABBTreeNode::AABBTreeNode, COMDAT
; _this$ = ecx
	push	ebp
	mov	ebp, esp
	push	-1
	push	__ehhandler$??0AABBTreeNode@ozcollide@@QAE@XZ
	mov	eax, DWORD PTR fs:0
	push	eax
	push	ecx
	mov	eax, DWORD PTR ___security_cookie
	xor	eax, ebp
	push	eax
	lea	eax, DWORD PTR __$EHRec$[ebp]
	mov	DWORD PTR fs:0, eax
	mov	DWORD PTR _this$[ebp], ecx
	mov	ecx, DWORD PTR _this$[ebp]
	call	??0Box@ozcollide@@QAE@XZ		; ozcollide::Box::Box
	mov	DWORD PTR __$EHRec$[ebp+8], 0
	mov	DWORD PTR __$EHRec$[ebp+8], -1
	mov	eax, DWORD PTR _this$[ebp]
	mov	ecx, DWORD PTR __$EHRec$[ebp]
	mov	DWORD PTR fs:0, ecx
	pop	ecx
	mov	esp, ebp
	pop	ebp
	ret	0
_TEXT	ENDS
;	COMDAT text$x
text$x	SEGMENT
__unwindfunclet$??0AABBTreeNode@ozcollide@@QAE@XZ$0:
	mov	ecx, DWORD PTR _this$[ebp]
	jmp	??1Box@ozcollide@@QAE@XZ		; ozcollide::Box::~Box
__ehhandler$??0AABBTreeNode@ozcollide@@QAE@XZ:
	mov	edx, DWORD PTR [esp+8]
	lea	eax, DWORD PTR [edx+12]
	mov	ecx, DWORD PTR [edx-8]
	xor	ecx, eax
	call	@__security_check_cookie@4
	mov	eax, OFFSET __ehfuncinfo$??0AABBTreeNode@ozcollide@@QAE@XZ
	jmp	___CxxFrameHandler3
text$x	ENDS
??0AABBTreeNode@ozcollide@@QAE@XZ ENDP			; ozcollide::AABBTreeNode::AABBTreeNode
;	COMDAT xdata$x
xdata$x	SEGMENT
__unwindtable$??1AABBTreeNode@ozcollide@@QAE@XZ DD 0ffffffffH
	DD	FLAT:__unwindfunclet$??1AABBTreeNode@ozcollide@@QAE@XZ$0
__ehfuncinfo$??1AABBTreeNode@ozcollide@@QAE@XZ DD 019930522H
	DD	01H
	DD	FLAT:__unwindtable$??1AABBTreeNode@ozcollide@@QAE@XZ
	DD	2 DUP(00H)
	DD	2 DUP(00H)
	DD	00H
	DD	00H
; Function compile flags: /Odtp
xdata$x	ENDS
;	COMDAT ??1AABBTreeNode@ozcollide@@QAE@XZ
_TEXT	SEGMENT
_this$ = -16						; size = 4
__$EHRec$ = -12						; size = 12
??1AABBTreeNode@ozcollide@@QAE@XZ PROC			; ozcollide::AABBTreeNode::~AABBTreeNode, COMDAT
; _this$ = ecx
	push	ebp
	mov	ebp, esp
	push	-1
	push	__ehhandler$??1AABBTreeNode@ozcollide@@QAE@XZ
	mov	eax, DWORD PTR fs:0
	push	eax
	push	ecx
	mov	eax, DWORD PTR ___security_cookie
	xor	eax, ebp
	push	eax
	lea	eax, DWORD PTR __$EHRec$[ebp]
	mov	DWORD PTR fs:0, eax
	mov	DWORD PTR _this$[ebp], ecx
	mov	DWORD PTR __$EHRec$[ebp+8], 0
	mov	DWORD PTR __$EHRec$[ebp+8], -1
	mov	ecx, DWORD PTR _this$[ebp]
	call	??1Box@ozcollide@@QAE@XZ		; ozcollide::Box::~Box
	mov	ecx, DWORD PTR __$EHRec$[ebp]
	mov	DWORD PTR fs:0, ecx
	pop	ecx
	mov	esp, ebp
	pop	ebp
	ret	0
_TEXT	ENDS
;	COMDAT text$x
text$x	SEGMENT
__unwindfunclet$??1AABBTreeNode@ozcollide@@QAE@XZ$0:
	mov	ecx, DWORD PTR _this$[ebp]
	jmp	??1Box@ozcollide@@QAE@XZ		; ozcollide::Box::~Box
__ehhandler$??1AABBTreeNode@ozcollide@@QAE@XZ:
	mov	edx, DWORD PTR [esp+8]
	lea	eax, DWORD PTR [edx+12]
	mov	ecx, DWORD PTR [edx-8]
	xor	ecx, eax
	call	@__security_check_cookie@4
	mov	eax, OFFSET __ehfuncinfo$??1AABBTreeNode@ozcollide@@QAE@XZ
	jmp	___CxxFrameHandler3
text$x	ENDS
??1AABBTreeNode@ozcollide@@QAE@XZ ENDP			; ozcollide::AABBTreeNode::~AABBTreeNode
PUBLIC	??_EAABBTreeAABBLeaf@ozcollide@@QAEPAXI@Z	; ozcollide::AABBTreeAABBLeaf::`vector deleting destructor'
; Function compile flags: /Odtp
;	COMDAT ??_EAABBTreeAABBLeaf@ozcollide@@QAEPAXI@Z
_TEXT	SEGMENT
_this$ = -4						; size = 4
___flags$ = 8						; size = 4
??_EAABBTreeAABBLeaf@ozcollide@@QAEPAXI@Z PROC		; ozcollide::AABBTreeAABBLeaf::`vector deleting destructor', COMDAT
; _this$ = ecx
	push	ebp
	mov	ebp, esp
	push	ecx
	mov	DWORD PTR _this$[ebp], ecx
	mov	eax, DWORD PTR ___flags$[ebp]
	and	eax, 2
	je	SHORT $LN3@vector@2
	push	OFFSET ??1AABBTreeAABBLeaf@ozcollide@@QAE@XZ
	mov	ecx, DWORD PTR _this$[ebp]
	mov	edx, DWORD PTR [ecx-4]
	push	edx
	push	44					; 0000002cH
	mov	eax, DWORD PTR _this$[ebp]
	push	eax
	call	??_M@YGXPAXIHP6EX0@Z@Z
	mov	ecx, DWORD PTR ___flags$[ebp]
	and	ecx, 1
	je	SHORT $LN2@vector@2
	mov	edx, DWORD PTR _this$[ebp]
	sub	edx, 4
	push	edx
	call	??3@YAXPAX@Z				; operator delete
	add	esp, 4
$LN2@vector@2:
	mov	eax, DWORD PTR _this$[ebp]
	sub	eax, 4
	jmp	SHORT $LN4@vector@2
$LN3@vector@2:
	mov	ecx, DWORD PTR _this$[ebp]
	call	??1AABBTreeAABBLeaf@ozcollide@@QAE@XZ
	mov	eax, DWORD PTR ___flags$[ebp]
	and	eax, 1
	je	SHORT $LN1@vector@2
	mov	ecx, DWORD PTR _this$[ebp]
	push	ecx
	call	??3@YAXPAX@Z				; operator delete
	add	esp, 4
$LN1@vector@2:
	mov	eax, DWORD PTR _this$[ebp]
$LN4@vector@2:
	mov	esp, ebp
	pop	ebp
	ret	4
??_EAABBTreeAABBLeaf@ozcollide@@QAEPAXI@Z ENDP		; ozcollide::AABBTreeAABBLeaf::`vector deleting destructor'
_TEXT	ENDS
;	COMDAT xdata$x
xdata$x	SEGMENT
__unwindtable$??1AABBTreeAABBLeaf@ozcollide@@QAE@XZ DD 0ffffffffH
	DD	FLAT:__unwindfunclet$??1AABBTreeAABBLeaf@ozcollide@@QAE@XZ$0
__ehfuncinfo$??1AABBTreeAABBLeaf@ozcollide@@QAE@XZ DD 019930522H
	DD	01H
	DD	FLAT:__unwindtable$??1AABBTreeAABBLeaf@ozcollide@@QAE@XZ
	DD	2 DUP(00H)
	DD	2 DUP(00H)
	DD	00H
	DD	00H
; Function compile flags: /Odtp
xdata$x	ENDS
;	COMDAT ??1AABBTreeAABBLeaf@ozcollide@@QAE@XZ
_TEXT	SEGMENT
_this$ = -16						; size = 4
__$EHRec$ = -12						; size = 12
??1AABBTreeAABBLeaf@ozcollide@@QAE@XZ PROC		; ozcollide::AABBTreeAABBLeaf::~AABBTreeAABBLeaf, COMDAT
; _this$ = ecx
	push	ebp
	mov	ebp, esp
	push	-1
	push	__ehhandler$??1AABBTreeAABBLeaf@ozcollide@@QAE@XZ
	mov	eax, DWORD PTR fs:0
	push	eax
	push	ecx
	mov	eax, DWORD PTR ___security_cookie
	xor	eax, ebp
	push	eax
	lea	eax, DWORD PTR __$EHRec$[ebp]
	mov	DWORD PTR fs:0, eax
	mov	DWORD PTR _this$[ebp], ecx
	mov	DWORD PTR __$EHRec$[ebp+8], 0
	mov	DWORD PTR __$EHRec$[ebp+8], -1
	mov	ecx, DWORD PTR _this$[ebp]
	call	??1AABBTreeNode@ozcollide@@QAE@XZ
	mov	ecx, DWORD PTR __$EHRec$[ebp]
	mov	DWORD PTR fs:0, ecx
	pop	ecx
	mov	esp, ebp
	pop	ebp
	ret	0
_TEXT	ENDS
;	COMDAT text$x
text$x	SEGMENT
__unwindfunclet$??1AABBTreeAABBLeaf@ozcollide@@QAE@XZ$0:
	mov	ecx, DWORD PTR _this$[ebp]
	jmp	??1AABBTreeNode@ozcollide@@QAE@XZ
__ehhandler$??1AABBTreeAABBLeaf@ozcollide@@QAE@XZ:
	mov	edx, DWORD PTR [esp+8]
	lea	eax, DWORD PTR [edx+12]
	mov	ecx, DWORD PTR [edx-8]
	xor	ecx, eax
	call	@__security_check_cookie@4
	mov	eax, OFFSET __ehfuncinfo$??1AABBTreeAABBLeaf@ozcollide@@QAE@XZ
	jmp	___CxxFrameHandler3
text$x	ENDS
??1AABBTreeAABBLeaf@ozcollide@@QAE@XZ ENDP		; ozcollide::AABBTreeAABBLeaf::~AABBTreeAABBLeaf
PUBLIC	??_EBox@ozcollide@@QAEPAXI@Z			; ozcollide::Box::`vector deleting destructor'
; Function compile flags: /Odtp
;	COMDAT ??_EBox@ozcollide@@QAEPAXI@Z
_TEXT	SEGMENT
_this$ = -4						; size = 4
___flags$ = 8						; size = 4
??_EBox@ozcollide@@QAEPAXI@Z PROC			; ozcollide::Box::`vector deleting destructor', COMDAT
; _this$ = ecx
	push	ebp
	mov	ebp, esp
	push	ecx
	mov	DWORD PTR _this$[ebp], ecx
	mov	eax, DWORD PTR ___flags$[ebp]
	and	eax, 2
	je	SHORT $LN3@vector@3
	push	OFFSET ??1Box@ozcollide@@QAE@XZ		; ozcollide::Box::~Box
	mov	ecx, DWORD PTR _this$[ebp]
	mov	edx, DWORD PTR [ecx-4]
	push	edx
	push	24					; 00000018H
	mov	eax, DWORD PTR _this$[ebp]
	push	eax
	call	??_M@YGXPAXIHP6EX0@Z@Z
	mov	ecx, DWORD PTR ___flags$[ebp]
	and	ecx, 1
	je	SHORT $LN2@vector@3
	mov	edx, DWORD PTR _this$[ebp]
	sub	edx, 4
	push	edx
	call	??3@YAXPAX@Z				; operator delete
	add	esp, 4
$LN2@vector@3:
	mov	eax, DWORD PTR _this$[ebp]
	sub	eax, 4
	jmp	SHORT $LN4@vector@3
$LN3@vector@3:
	mov	ecx, DWORD PTR _this$[ebp]
	call	??1Box@ozcollide@@QAE@XZ		; ozcollide::Box::~Box
	mov	eax, DWORD PTR ___flags$[ebp]
	and	eax, 1
	je	SHORT $LN1@vector@3
	mov	ecx, DWORD PTR _this$[ebp]
	push	ecx
	call	??3@YAXPAX@Z				; operator delete
	add	esp, 4
$LN1@vector@3:
	mov	eax, DWORD PTR _this$[ebp]
$LN4@vector@3:
	mov	esp, ebp
	pop	ebp
	ret	4
??_EBox@ozcollide@@QAEPAXI@Z ENDP			; ozcollide::Box::`vector deleting destructor'
_TEXT	ENDS
PUBLIC	??1WorkingItem@AABBTreeAABB_Builder@ozcollide@@QAE@XZ ; ozcollide::AABBTreeAABB_Builder::WorkingItem::~WorkingItem
; Function compile flags: /Odtp
;	COMDAT ??_GWorkingItem@AABBTreeAABB_Builder@ozcollide@@QAEPAXI@Z
_TEXT	SEGMENT
_this$ = -4						; size = 4
___flags$ = 8						; size = 4
??_GWorkingItem@AABBTreeAABB_Builder@ozcollide@@QAEPAXI@Z PROC ; ozcollide::AABBTreeAABB_Builder::WorkingItem::`scalar deleting destructor', COMDAT
; _this$ = ecx
	push	ebp
	mov	ebp, esp
	push	ecx
	mov	DWORD PTR _this$[ebp], ecx
	mov	ecx, DWORD PTR _this$[ebp]
	call	??1WorkingItem@AABBTreeAABB_Builder@ozcollide@@QAE@XZ
	mov	eax, DWORD PTR ___flags$[ebp]
	and	eax, 1
	je	SHORT $LN1@scalar
	mov	ecx, DWORD PTR _this$[ebp]
	push	ecx
	call	??3@YAXPAX@Z				; operator delete
	add	esp, 4
$LN1@scalar:
	mov	eax, DWORD PTR _this$[ebp]
	mov	esp, ebp
	pop	ebp
	ret	4
??_GWorkingItem@AABBTreeAABB_Builder@ozcollide@@QAEPAXI@Z ENDP ; ozcollide::AABBTreeAABB_Builder::WorkingItem::`scalar deleting destructor'
_TEXT	ENDS
;	COMDAT xdata$x
xdata$x	SEGMENT
__unwindtable$??1WorkingItem@AABBTreeAABB_Builder@ozcollide@@QAE@XZ DD 0ffffffffH
	DD	FLAT:__unwindfunclet$??1WorkingItem@AABBTreeAABB_Builder@ozcollide@@QAE@XZ$0
	DD	00H
	DD	FLAT:__unwindfunclet$??1WorkingItem@AABBTreeAABB_Builder@ozcollide@@QAE@XZ$1
__ehfuncinfo$??1WorkingItem@AABBTreeAABB_Builder@ozcollide@@QAE@XZ DD 019930522H
	DD	02H
	DD	FLAT:__unwindtable$??1WorkingItem@AABBTreeAABB_Builder@ozcollide@@QAE@XZ
	DD	2 DUP(00H)
	DD	2 DUP(00H)
	DD	00H
	DD	00H
; Function compile flags: /Odtp
xdata$x	ENDS
;	COMDAT ??1WorkingItem@AABBTreeAABB_Builder@ozcollide@@QAE@XZ
_TEXT	SEGMENT
_this$ = -16						; size = 4
__$EHRec$ = -12						; size = 12
??1WorkingItem@AABBTreeAABB_Builder@ozcollide@@QAE@XZ PROC ; ozcollide::AABBTreeAABB_Builder::WorkingItem::~WorkingItem, COMDAT
; _this$ = ecx
	push	ebp
	mov	ebp, esp
	push	-1
	push	__ehhandler$??1WorkingItem@AABBTreeAABB_Builder@ozcollide@@QAE@XZ
	mov	eax, DWORD PTR fs:0
	push	eax
	push	ecx
	mov	eax, DWORD PTR ___security_cookie
	xor	eax, ebp
	push	eax
	lea	eax, DWORD PTR __$EHRec$[ebp]
	mov	DWORD PTR fs:0, eax
	mov	DWORD PTR _this$[ebp], ecx
	mov	DWORD PTR __$EHRec$[ebp+8], 1
	mov	BYTE PTR __$EHRec$[ebp+8], 0
	mov	ecx, DWORD PTR _this$[ebp]
	add	ecx, 32					; 00000020H
	call	??1?$Vector@VBox@ozcollide@@@ozcollide@@QAE@XZ ; ozcollide::Vector<ozcollide::Box>::~Vector<ozcollide::Box>
	mov	DWORD PTR __$EHRec$[ebp+8], -1
	mov	ecx, DWORD PTR _this$[ebp]
	call	??1Box@ozcollide@@QAE@XZ		; ozcollide::Box::~Box
	mov	ecx, DWORD PTR __$EHRec$[ebp]
	mov	DWORD PTR fs:0, ecx
	pop	ecx
	mov	esp, ebp
	pop	ebp
	ret	0
_TEXT	ENDS
;	COMDAT text$x
text$x	SEGMENT
__unwindfunclet$??1WorkingItem@AABBTreeAABB_Builder@ozcollide@@QAE@XZ$0:
	mov	ecx, DWORD PTR _this$[ebp]
	jmp	??1Box@ozcollide@@QAE@XZ		; ozcollide::Box::~Box
__unwindfunclet$??1WorkingItem@AABBTreeAABB_Builder@ozcollide@@QAE@XZ$1:
	mov	ecx, DWORD PTR _this$[ebp]
	add	ecx, 32					; 00000020H
	jmp	??1?$Vector@VBox@ozcollide@@@ozcollide@@QAE@XZ ; ozcollide::Vector<ozcollide::Box>::~Vector<ozcollide::Box>
__ehhandler$??1WorkingItem@AABBTreeAABB_Builder@ozcollide@@QAE@XZ:
	mov	edx, DWORD PTR [esp+8]
	lea	eax, DWORD PTR [edx+12]
	mov	ecx, DWORD PTR [edx-8]
	xor	ecx, eax
	call	@__security_check_cookie@4
	mov	eax, OFFSET __ehfuncinfo$??1WorkingItem@AABBTreeAABB_Builder@ozcollide@@QAE@XZ
	jmp	___CxxFrameHandler3
text$x	ENDS
??1WorkingItem@AABBTreeAABB_Builder@ozcollide@@QAE@XZ ENDP ; ozcollide::AABBTreeAABB_Builder::WorkingItem::~WorkingItem
PUBLIC	?grow@?$Vector@VBox@ozcollide@@@ozcollide@@QAEXH@Z ; ozcollide::Vector<ozcollide::Box>::grow
PUBLIC	?setFromPoints@Box@ozcollide@@QAEXABVVec3f@2@0@Z ; ozcollide::Box::setFromPoints
PUBLIC	__real@4000000000000000
PUBLIC	?classifyAABB@AABBTreeAABB_Builder@ozcollide@@AAEHABVBox@2@HM@Z ; ozcollide::AABBTreeAABB_Builder::classifyAABB
PUBLIC	??KVec3f@ozcollide@@QBE?AV01@M@Z		; ozcollide::Vec3f::operator/
PUBLIC	__real@40000000
PUBLIC	??HVec3f@ozcollide@@QBE?AV01@ABV01@@Z		; ozcollide::Vec3f::operator+
PUBLIC	??GVec3f@ozcollide@@QBE?AV01@ABV01@@Z		; ozcollide::Vec3f::operator-
PUBLIC	??GVec3f@ozcollide@@QBE?AV01@XZ			; ozcollide::Vec3f::operator-
PUBLIC	??0Vec3f@ozcollide@@QAE@MMM@Z			; ozcollide::Vec3f::Vec3f
PUBLIC	__real@7f7fffff
EXTRN	__fltused:DWORD
;	COMDAT __real@4000000000000000
; File i:\svnroot\client\sdk\ozcollide\aabbtreeaabb_builder.cpp
CONST	SEGMENT
__real@4000000000000000 DQ 04000000000000000r	; 2
CONST	ENDS
;	COMDAT __real@40000000
CONST	SEGMENT
__real@40000000 DD 040000000r			; 2
CONST	ENDS
;	COMDAT __real@7f7fffff
CONST	SEGMENT
__real@7f7fffff DD 07f7fffffr			; 3.40282e+038
CONST	ENDS
xdata$x	SEGMENT
__ehfuncinfo$?workOnItem@AABBTreeAABB_Builder@ozcollide@@AAEXAAVWorkingItem@12@H@Z DD 019930522H
	DD	06H
	DD	FLAT:__unwindtable$?workOnItem@AABBTreeAABB_Builder@ozcollide@@AAEXAAVWorkingItem@12@H@Z
	DD	2 DUP(00H)
	DD	2 DUP(00H)
	DD	00H
	DD	00H
__unwindtable$?workOnItem@AABBTreeAABB_Builder@ozcollide@@AAEXAAVWorkingItem@12@H@Z DD 0ffffffffH
	DD	FLAT:__unwindfunclet$?workOnItem@AABBTreeAABB_Builder@ozcollide@@AAEXAAVWorkingItem@12@H@Z$0
	DD	0ffffffffH
	DD	FLAT:__unwindfunclet$?workOnItem@AABBTreeAABB_Builder@ozcollide@@AAEXAAVWorkingItem@12@H@Z$1
	DD	0ffffffffH
	DD	FLAT:__unwindfunclet$?workOnItem@AABBTreeAABB_Builder@ozcollide@@AAEXAAVWorkingItem@12@H@Z$2
	DD	0ffffffffH
	DD	FLAT:__unwindfunclet$?workOnItem@AABBTreeAABB_Builder@ozcollide@@AAEXAAVWorkingItem@12@H@Z$3
	DD	0ffffffffH
	DD	FLAT:__unwindfunclet$?workOnItem@AABBTreeAABB_Builder@ozcollide@@AAEXAAVWorkingItem@12@H@Z$4
	DD	0ffffffffH
	DD	FLAT:__unwindfunclet$?workOnItem@AABBTreeAABB_Builder@ozcollide@@AAEXAAVWorkingItem@12@H@Z$5
; Function compile flags: /Odtp
xdata$x	ENDS
_TEXT	SEGMENT
tv569 = -520						; size = 4
tv539 = -516						; size = 4
tv907 = -512						; size = 4
tv897 = -508						; size = 4
tv887 = -504						; size = 4
tv425 = -500						; size = 4
tv827 = -496						; size = 4
tv817 = -492						; size = 4
tv807 = -488						; size = 4
tv284 = -484						; size = 4
_this$ = -480						; size = 4
$T7784 = -476						; size = 4
$T7783 = -472						; size = 4
$T7780 = -468						; size = 4
$T7779 = -464						; size = 4
$T7778 = -460						; size = 12
$T7777 = -448						; size = 12
$T7776 = -436						; size = 12
$T7775 = -424						; size = 12
$T7774 = -412						; size = 12
$T7773 = -400						; size = 12
$T7770 = -388						; size = 4
$T7769 = -384						; size = 4
$T7768 = -380						; size = 12
$T7767 = -368						; size = 12
$T7766 = -356						; size = 12
$T7765 = -344						; size = 12
$T7764 = -332						; size = 12
$T7763 = -320						; size = 12
$T7760 = -308						; size = 4
$T7759 = -304						; size = 4
$T7758 = -300						; size = 12
$T7757 = -288						; size = 12
$T7756 = -276						; size = 12
$T7755 = -264						; size = 12
$T7754 = -252						; size = 12
$T7753 = -240						; size = 12
_b$7402 = -228						; size = 24
_start$7398 = -204					; size = 4
_nbBoxes$7396 = -200					; size = 4
_le$7397 = -196						; size = 4
_b$7389 = -192						; size = 24
_start$7385 = -168					; size = 4
_nbBoxes$7383 = -164					; size = 4
_le$7384 = -160						; size = 4
_box$7357 = -156					; size = 4
_box$7366 = -152					; size = 4
_box$7333 = -148					; size = 4
_box$7342 = -144					; size = 4
_max$7321 = -140					; size = 4
_bx$7319 = -136						; size = 4
_min$7320 = -132					; size = 4
_res$7322 = -128					; size = 4
_box$7289 = -124					; size = 4
_bLeft$7290 = -120					; size = 12
_tRight$7292 = -108					; size = 12
_max$ = -96						; size = 12
_middle$ = -84						; size = 4
_bboxMax$ = -80						; size = 12
_bboxMin$ = -68						; size = 12
_right$ = -56						; size = 4
_ext$ = -52						; size = 4
_size$ = -48						; size = 4
_left$ = -44						; size = 4
_nbBoxes$ = -40						; size = 4
_min$ = -36						; size = 12
_i$ = -24						; size = 4
_axis$ = -20						; size = 4
_center$ = -16						; size = 4
__$EHRec$ = -12						; size = 12
__item$ = 8						; size = 4
__leafDepth$ = 12					; size = 4
?workOnItem@AABBTreeAABB_Builder@ozcollide@@AAEXAAVWorkingItem@12@H@Z PROC ; ozcollide::AABBTreeAABB_Builder::workOnItem
; _this$ = ecx

; 162  : {

	push	ebp
	mov	ebp, esp
	push	-1
	push	__ehhandler$?workOnItem@AABBTreeAABB_Builder@ozcollide@@AAEXAAVWorkingItem@12@H@Z
	mov	eax, DWORD PTR fs:0
	push	eax
	sub	esp, 508				; 000001fcH
	mov	eax, DWORD PTR ___security_cookie
	xor	eax, ebp
	push	eax
	lea	eax, DWORD PTR __$EHRec$[ebp]
	mov	DWORD PTR fs:0, eax
	mov	DWORD PTR _this$[ebp], ecx

; 163  : 	int i;
; 164  : 
; 165  : 	int size = _item.boxes.size();

	mov	ecx, DWORD PTR __item$[ebp]
	add	ecx, 32					; 00000020H
	call	?size@?$Vector@VBox@ozcollide@@@ozcollide@@QBEHXZ ; ozcollide::Vector<ozcollide::Box>::size
	mov	DWORD PTR _size$[ebp], eax

; 166  : 	if (size <= _leafDepth) {

	mov	eax, DWORD PTR _size$[ebp]
	cmp	eax, DWORD PTR __leafDepth$[ebp]
	jg	SHORT $LN61@workOnItem

; 167  : 		_item.left = -1;

	mov	ecx, DWORD PTR __item$[ebp]
	mov	DWORD PTR [ecx+24], -1

; 168  : 		_item.right = -1;

	mov	edx, DWORD PTR __item$[ebp]
	mov	DWORD PTR [edx+28], -1

; 169  : 		return;

	jmp	$LN62@workOnItem
$LN61@workOnItem:

; 170  : 	}
; 171  : 
; 172  : 	int axis;
; 173  : 	float middle;
; 174  : 
; 175  : 	int nbBoxes = _item.boxes.size();

	mov	ecx, DWORD PTR __item$[ebp]
	add	ecx, 32					; 00000020H
	call	?size@?$Vector@VBox@ozcollide@@@ozcollide@@QBEHXZ ; ozcollide::Vector<ozcollide::Box>::size
	mov	DWORD PTR _nbBoxes$[ebp], eax

; 176  : 
; 177  : 	Vec3f min, max;

	lea	ecx, DWORD PTR _min$[ebp]
	call	??0Vec3f@ozcollide@@QAE@XZ		; ozcollide::Vec3f::Vec3f
	lea	ecx, DWORD PTR _max$[ebp]
	call	??0Vec3f@ozcollide@@QAE@XZ		; ozcollide::Vec3f::Vec3f

; 178  : 	min = Vec3f(FLT_MAX, FLT_MAX, FLT_MAX);

	push	ecx
	fld	DWORD PTR __real@7f7fffff
	fstp	DWORD PTR [esp]
	push	ecx
	fld	DWORD PTR __real@7f7fffff
	fstp	DWORD PTR [esp]
	push	ecx
	fld	DWORD PTR __real@7f7fffff
	fstp	DWORD PTR [esp]
	lea	ecx, DWORD PTR $T7753[ebp]
	call	??0Vec3f@ozcollide@@QAE@MMM@Z		; ozcollide::Vec3f::Vec3f
	mov	ecx, DWORD PTR [eax]
	mov	DWORD PTR _min$[ebp], ecx
	mov	edx, DWORD PTR [eax+4]
	mov	DWORD PTR _min$[ebp+4], edx
	mov	eax, DWORD PTR [eax+8]
	mov	DWORD PTR _min$[ebp+8], eax

; 179  : 	max = -min;

	lea	ecx, DWORD PTR $T7754[ebp]
	push	ecx
	lea	ecx, DWORD PTR _min$[ebp]
	call	??GVec3f@ozcollide@@QBE?AV01@XZ		; ozcollide::Vec3f::operator-
	mov	edx, DWORD PTR [eax]
	mov	DWORD PTR _max$[ebp], edx
	mov	ecx, DWORD PTR [eax+4]
	mov	DWORD PTR _max$[ebp+4], ecx
	mov	edx, DWORD PTR [eax+8]
	mov	DWORD PTR _max$[ebp+8], edx

; 180  : 
; 181  : 	for (i = 0; i < nbBoxes; i++) {

	mov	DWORD PTR _i$[ebp], 0
	jmp	SHORT $LN60@workOnItem
$LN59@workOnItem:
	mov	eax, DWORD PTR _i$[ebp]
	add	eax, 1
	mov	DWORD PTR _i$[ebp], eax
$LN60@workOnItem:
	mov	ecx, DWORD PTR _i$[ebp]
	cmp	ecx, DWORD PTR _nbBoxes$[ebp]
	jge	$LN58@workOnItem

; 182  : 		const Box &box = _item.boxes[i];

	mov	edx, DWORD PTR _i$[ebp]
	push	edx
	mov	ecx, DWORD PTR __item$[ebp]
	add	ecx, 32					; 00000020H
	call	??A?$Vector@VBox@ozcollide@@@ozcollide@@QBEAAVBox@1@H@Z ; ozcollide::Vector<ozcollide::Box>::operator[]
	mov	DWORD PTR _box$7289[ebp], eax

; 183  : 		Vec3f bLeft = box.center - box.extent;

	mov	eax, DWORD PTR _box$7289[ebp]
	add	eax, 12					; 0000000cH
	push	eax
	lea	ecx, DWORD PTR _bLeft$7290[ebp]
	push	ecx
	mov	ecx, DWORD PTR _box$7289[ebp]
	call	??GVec3f@ozcollide@@QBE?AV01@ABV01@@Z	; ozcollide::Vec3f::operator-

; 184  : 		Vec3f tRight = box.center + box.extent;

	mov	edx, DWORD PTR _box$7289[ebp]
	add	edx, 12					; 0000000cH
	push	edx
	lea	eax, DWORD PTR _tRight$7292[ebp]
	push	eax
	mov	ecx, DWORD PTR _box$7289[ebp]
	call	??HVec3f@ozcollide@@QBE?AV01@ABV01@@Z	; ozcollide::Vec3f::operator+

; 185  : 		if (bLeft.x < min.x) min.x = bLeft.x;

	fld	DWORD PTR _bLeft$7290[ebp]
	fld	DWORD PTR _min$[ebp]
	fcompp
	fnstsw	ax
	test	ah, 65					; 00000041H
	jne	SHORT $LN57@workOnItem
	fld	DWORD PTR _bLeft$7290[ebp]
	fstp	DWORD PTR _min$[ebp]
$LN57@workOnItem:

; 186  : 		if (bLeft.y < min.y) min.y = bLeft.y;

	fld	DWORD PTR _bLeft$7290[ebp+4]
	fld	DWORD PTR _min$[ebp+4]
	fcompp
	fnstsw	ax
	test	ah, 65					; 00000041H
	jne	SHORT $LN56@workOnItem
	fld	DWORD PTR _bLeft$7290[ebp+4]
	fstp	DWORD PTR _min$[ebp+4]
$LN56@workOnItem:

; 187  : 		if (bLeft.z < min.z) min.z = bLeft.z;

	fld	DWORD PTR _bLeft$7290[ebp+8]
	fld	DWORD PTR _min$[ebp+8]
	fcompp
	fnstsw	ax
	test	ah, 65					; 00000041H
	jne	SHORT $LN55@workOnItem
	fld	DWORD PTR _bLeft$7290[ebp+8]
	fstp	DWORD PTR _min$[ebp+8]
$LN55@workOnItem:

; 188  : 
; 189  : 		if (tRight.x > max.x) max.x = tRight.x;

	fld	DWORD PTR _tRight$7292[ebp]
	fld	DWORD PTR _max$[ebp]
	fcompp
	fnstsw	ax
	test	ah, 5
	jp	SHORT $LN54@workOnItem
	fld	DWORD PTR _tRight$7292[ebp]
	fstp	DWORD PTR _max$[ebp]
$LN54@workOnItem:

; 190  : 		if (tRight.y > max.y) max.y = tRight.y;

	fld	DWORD PTR _tRight$7292[ebp+4]
	fld	DWORD PTR _max$[ebp+4]
	fcompp
	fnstsw	ax
	test	ah, 5
	jp	SHORT $LN53@workOnItem
	fld	DWORD PTR _tRight$7292[ebp+4]
	fstp	DWORD PTR _max$[ebp+4]
$LN53@workOnItem:

; 191  : 		if (tRight.z > max.z) max.z = tRight.z;

	fld	DWORD PTR _tRight$7292[ebp+8]
	fld	DWORD PTR _max$[ebp+8]
	fcompp
	fnstsw	ax
	test	ah, 5
	jp	SHORT $LN52@workOnItem
	fld	DWORD PTR _tRight$7292[ebp+8]
	fstp	DWORD PTR _max$[ebp+8]
$LN52@workOnItem:

; 192  : 	}

	jmp	$LN59@workOnItem
$LN58@workOnItem:

; 193  : 
; 194  : 	_item.aabb.center = (min + max) / 2;

	push	ecx
	fld	DWORD PTR __real@40000000
	fstp	DWORD PTR [esp]
	lea	ecx, DWORD PTR $T7756[ebp]
	push	ecx
	lea	edx, DWORD PTR _max$[ebp]
	push	edx
	lea	eax, DWORD PTR $T7755[ebp]
	push	eax
	lea	ecx, DWORD PTR _min$[ebp]
	call	??HVec3f@ozcollide@@QBE?AV01@ABV01@@Z	; ozcollide::Vec3f::operator+
	mov	ecx, eax
	call	??KVec3f@ozcollide@@QBE?AV01@M@Z	; ozcollide::Vec3f::operator/
	mov	ecx, DWORD PTR __item$[ebp]
	mov	edx, DWORD PTR [eax]
	mov	DWORD PTR [ecx], edx
	mov	edx, DWORD PTR [eax+4]
	mov	DWORD PTR [ecx+4], edx
	mov	eax, DWORD PTR [eax+8]
	mov	DWORD PTR [ecx+8], eax

; 195  : 	_item.aabb.extent = (max - min) / 2;

	push	ecx
	fld	DWORD PTR __real@40000000
	fstp	DWORD PTR [esp]
	lea	ecx, DWORD PTR $T7758[ebp]
	push	ecx
	lea	edx, DWORD PTR _min$[ebp]
	push	edx
	lea	eax, DWORD PTR $T7757[ebp]
	push	eax
	lea	ecx, DWORD PTR _max$[ebp]
	call	??GVec3f@ozcollide@@QBE?AV01@ABV01@@Z	; ozcollide::Vec3f::operator-
	mov	ecx, eax
	call	??KVec3f@ozcollide@@QBE?AV01@M@Z	; ozcollide::Vec3f::operator/
	mov	ecx, DWORD PTR __item$[ebp]
	add	ecx, 12					; 0000000cH
	mov	edx, DWORD PTR [eax]
	mov	DWORD PTR [ecx], edx
	mov	edx, DWORD PTR [eax+4]
	mov	DWORD PTR [ecx+4], edx
	mov	eax, DWORD PTR [eax+8]
	mov	DWORD PTR [ecx+8], eax

; 196  : 
; 197  : 	const Vec3f &center = _item.aabb.center;

	mov	ecx, DWORD PTR __item$[ebp]
	mov	DWORD PTR _center$[ebp], ecx

; 198  : 	const Vec3f &ext = _item.aabb.extent;

	mov	edx, DWORD PTR __item$[ebp]
	add	edx, 12					; 0000000cH
	mov	DWORD PTR _ext$[ebp], edx

; 199  : 
; 200  : 	if (ext.x > ext.y && ext.x > ext.z) {

	mov	eax, DWORD PTR _ext$[ebp]
	fld	DWORD PTR [eax]
	mov	ecx, DWORD PTR _ext$[ebp]
	fld	DWORD PTR [ecx+4]
	fcompp
	fnstsw	ax
	test	ah, 5
	jp	SHORT $LN51@workOnItem
	mov	edx, DWORD PTR _ext$[ebp]
	fld	DWORD PTR [edx]
	mov	eax, DWORD PTR _ext$[ebp]
	fld	DWORD PTR [eax+8]
	fcompp
	fnstsw	ax
	test	ah, 5
	jp	SHORT $LN51@workOnItem

; 201  : 		axis = 0;

	mov	DWORD PTR _axis$[ebp], 0

; 202  : 		middle = center.x;

	mov	ecx, DWORD PTR _center$[ebp]
	fld	DWORD PTR [ecx]
	fstp	DWORD PTR _middle$[ebp]

; 203  : 	}
; 204  : 	else {

	jmp	SHORT $LN48@workOnItem
$LN51@workOnItem:

; 205  : 		if (ext.y > ext.z) {

	mov	edx, DWORD PTR _ext$[ebp]
	fld	DWORD PTR [edx+4]
	mov	eax, DWORD PTR _ext$[ebp]
	fld	DWORD PTR [eax+8]
	fcompp
	fnstsw	ax
	test	ah, 5
	jp	SHORT $LN49@workOnItem

; 206  : 			axis = 1;

	mov	DWORD PTR _axis$[ebp], 1

; 207  : 			middle = center.y;

	mov	ecx, DWORD PTR _center$[ebp]
	fld	DWORD PTR [ecx+4]
	fstp	DWORD PTR _middle$[ebp]

; 208  : 		}
; 209  : 		else {

	jmp	SHORT $LN48@workOnItem
$LN49@workOnItem:

; 210  : 			axis = 2;

	mov	DWORD PTR _axis$[ebp], 2

; 211  : 			middle = center.z;

	mov	edx, DWORD PTR _center$[ebp]
	fld	DWORD PTR [edx+8]
	fstp	DWORD PTR _middle$[ebp]
$LN48@workOnItem:

; 212  : 		}
; 213  : 	}
; 214  : 
; 215  : 	Vec3f bboxMin = center - ext;

	mov	eax, DWORD PTR _ext$[ebp]
	push	eax
	lea	ecx, DWORD PTR _bboxMin$[ebp]
	push	ecx
	mov	ecx, DWORD PTR _center$[ebp]
	call	??GVec3f@ozcollide@@QBE?AV01@ABV01@@Z	; ozcollide::Vec3f::operator-

; 216  : 	Vec3f bboxMax = center + ext;

	mov	edx, DWORD PTR _ext$[ebp]
	push	edx
	lea	eax, DWORD PTR _bboxMax$[ebp]
	push	eax
	mov	ecx, DWORD PTR _center$[ebp]
	call	??HVec3f@ozcollide@@QBE?AV01@ABV01@@Z	; ozcollide::Vec3f::operator+

; 217  : 
; 218  : 	WorkingItem *left = NULL;

	mov	DWORD PTR _left$[ebp], 0

; 219  : 	WorkingItem *right = NULL;

	mov	DWORD PTR _right$[ebp], 0

; 220  : 
; 221  : 	for (i = 0; i < nbBoxes; i++) {

	mov	DWORD PTR _i$[ebp], 0
	jmp	SHORT $LN47@workOnItem
$LN46@workOnItem:
	mov	ecx, DWORD PTR _i$[ebp]
	add	ecx, 1
	mov	DWORD PTR _i$[ebp], ecx
$LN47@workOnItem:
	mov	edx, DWORD PTR _i$[ebp]
	cmp	edx, DWORD PTR _nbBoxes$[ebp]
	jge	$LN45@workOnItem

; 222  : 		const Box &bx = _item.boxes[i];

	mov	eax, DWORD PTR _i$[ebp]
	push	eax
	mov	ecx, DWORD PTR __item$[ebp]
	add	ecx, 32					; 00000020H
	call	??A?$Vector@VBox@ozcollide@@@ozcollide@@QBEAAVBox@1@H@Z ; ozcollide::Vector<ozcollide::Box>::operator[]
	mov	DWORD PTR _bx$7319[ebp], eax

; 223  : 
; 224  : 		float min, max;
; 225  : 		int res = classifyAABB(bx, axis, middle);

	push	ecx
	fld	DWORD PTR _middle$[ebp]
	fstp	DWORD PTR [esp]
	mov	ecx, DWORD PTR _axis$[ebp]
	push	ecx
	mov	edx, DWORD PTR _bx$7319[ebp]
	push	edx
	mov	ecx, DWORD PTR _this$[ebp]
	call	?classifyAABB@AABBTreeAABB_Builder@ozcollide@@AAEHABVBox@2@HM@Z ; ozcollide::AABBTreeAABB_Builder::classifyAABB
	mov	DWORD PTR _res$7322[ebp], eax

; 226  : 		if (axis == 0) {

	cmp	DWORD PTR _axis$[ebp], 0
	jne	SHORT $LN44@workOnItem

; 227  : 			min = bx.center.x - bx.extent.x;

	mov	eax, DWORD PTR _bx$7319[ebp]
	fld	DWORD PTR [eax]
	mov	ecx, DWORD PTR _bx$7319[ebp]
	fsub	DWORD PTR [ecx+12]
	fstp	DWORD PTR _min$7320[ebp]

; 228  : 			max = bx.center.x + bx.extent.x;

	mov	edx, DWORD PTR _bx$7319[ebp]
	fld	DWORD PTR [edx]
	mov	eax, DWORD PTR _bx$7319[ebp]
	fadd	DWORD PTR [eax+12]
	fstp	DWORD PTR _max$7321[ebp]
	jmp	SHORT $LN41@workOnItem
$LN44@workOnItem:

; 229  : 		}
; 230  : 		else if (axis == 1) {

	cmp	DWORD PTR _axis$[ebp], 1
	jne	SHORT $LN42@workOnItem

; 231  : 			min = bx.center.y - bx.extent.y;

	mov	ecx, DWORD PTR _bx$7319[ebp]
	fld	DWORD PTR [ecx+4]
	mov	edx, DWORD PTR _bx$7319[ebp]
	fsub	DWORD PTR [edx+16]
	fstp	DWORD PTR _min$7320[ebp]

; 232  : 			max = bx.center.y + bx.extent.y;

	mov	eax, DWORD PTR _bx$7319[ebp]
	fld	DWORD PTR [eax+4]
	mov	ecx, DWORD PTR _bx$7319[ebp]
	fadd	DWORD PTR [ecx+16]
	fstp	DWORD PTR _max$7321[ebp]

; 233  : 		}
; 234  : 		else {

	jmp	SHORT $LN41@workOnItem
$LN42@workOnItem:

; 235  : 			min = bx.center.z - bx.extent.z;

	mov	edx, DWORD PTR _bx$7319[ebp]
	fld	DWORD PTR [edx+8]
	mov	eax, DWORD PTR _bx$7319[ebp]
	fsub	DWORD PTR [eax+20]
	fstp	DWORD PTR _min$7320[ebp]

; 236  : 			max = bx.center.z + bx.extent.z;

	mov	ecx, DWORD PTR _bx$7319[ebp]
	fld	DWORD PTR [ecx+8]
	mov	edx, DWORD PTR _bx$7319[ebp]
	fadd	DWORD PTR [edx+20]
	fstp	DWORD PTR _max$7321[ebp]
$LN41@workOnItem:

; 237  : 		}
; 238  : 
; 239  : 		if (res == 0) {

	cmp	DWORD PTR _res$7322[ebp], 0
	jne	$LN40@workOnItem

; 240  : 			if (!left) {

	cmp	DWORD PTR _left$[ebp], 0
	jne	$LN34@workOnItem

; 241  : 				left = new WorkingItem();

	push	44					; 0000002cH
	call	??2@YAPAXI@Z				; operator new
	add	esp, 4
	mov	DWORD PTR $T7760[ebp], eax
	mov	DWORD PTR __$EHRec$[ebp+8], 0
	cmp	DWORD PTR $T7760[ebp], 0
	je	SHORT $LN64@workOnItem
	mov	ecx, DWORD PTR $T7760[ebp]
	call	??0WorkingItem@AABBTreeAABB_Builder@ozcollide@@QAE@XZ
	mov	DWORD PTR tv284[ebp], eax
	jmp	SHORT $LN65@workOnItem
$LN64@workOnItem:
	mov	DWORD PTR tv284[ebp], 0
$LN65@workOnItem:
	mov	eax, DWORD PTR tv284[ebp]
	mov	DWORD PTR $T7759[ebp], eax
	mov	DWORD PTR __$EHRec$[ebp+8], -1
	mov	ecx, DWORD PTR $T7759[ebp]
	mov	DWORD PTR _left$[ebp], ecx

; 242  : 				Box &box = left->aabb;

	mov	edx, DWORD PTR _left$[ebp]
	mov	DWORD PTR _box$7333[ebp], edx

; 243  : 				if (axis == 0)

	cmp	DWORD PTR _axis$[ebp], 0
	jne	SHORT $LN38@workOnItem

; 244  : 					box.setFromPoints(bboxMin, Vec3f((bboxMin.x + bboxMax.x) / 2.0f, bboxMax.y, bboxMax.z));

	push	ecx
	fld	DWORD PTR _bboxMax$[ebp+8]
	fstp	DWORD PTR [esp]
	push	ecx
	fld	DWORD PTR _bboxMax$[ebp+4]
	fstp	DWORD PTR [esp]
	fld	DWORD PTR _bboxMin$[ebp]
	fadd	DWORD PTR _bboxMax$[ebp]
	fdiv	QWORD PTR __real@4000000000000000
	fstp	DWORD PTR tv807[ebp]
	fld	DWORD PTR tv807[ebp]
	push	ecx
	fstp	DWORD PTR [esp]
	lea	ecx, DWORD PTR $T7763[ebp]
	call	??0Vec3f@ozcollide@@QAE@MMM@Z		; ozcollide::Vec3f::Vec3f
	push	eax
	lea	eax, DWORD PTR _bboxMin$[ebp]
	push	eax
	mov	ecx, DWORD PTR _box$7333[ebp]
	call	?setFromPoints@Box@ozcollide@@QAEXABVVec3f@2@0@Z ; ozcollide::Box::setFromPoints
	jmp	$LN34@workOnItem
$LN38@workOnItem:

; 245  : 				else if (axis == 1)

	cmp	DWORD PTR _axis$[ebp], 1
	jne	SHORT $LN36@workOnItem

; 246  : 					box.setFromPoints(bboxMin, Vec3f(bboxMax.x, (bboxMin.y + bboxMax.y) / 2.0f, bboxMax.z));

	push	ecx
	fld	DWORD PTR _bboxMax$[ebp+8]
	fstp	DWORD PTR [esp]
	fld	DWORD PTR _bboxMin$[ebp+4]
	fadd	DWORD PTR _bboxMax$[ebp+4]
	fdiv	QWORD PTR __real@4000000000000000
	fstp	DWORD PTR tv817[ebp]
	fld	DWORD PTR tv817[ebp]
	push	ecx
	fstp	DWORD PTR [esp]
	push	ecx
	fld	DWORD PTR _bboxMax$[ebp]
	fstp	DWORD PTR [esp]
	lea	ecx, DWORD PTR $T7764[ebp]
	call	??0Vec3f@ozcollide@@QAE@MMM@Z		; ozcollide::Vec3f::Vec3f
	push	eax
	lea	ecx, DWORD PTR _bboxMin$[ebp]
	push	ecx
	mov	ecx, DWORD PTR _box$7333[ebp]
	call	?setFromPoints@Box@ozcollide@@QAEXABVVec3f@2@0@Z ; ozcollide::Box::setFromPoints
	jmp	SHORT $LN34@workOnItem
$LN36@workOnItem:

; 247  : 				else if (axis == 2)

	cmp	DWORD PTR _axis$[ebp], 2
	jne	SHORT $LN34@workOnItem

; 248  : 					box.setFromPoints(bboxMin, Vec3f(bboxMax.x, bboxMax.y, (bboxMin.z + bboxMax.z) / 2.0f));

	fld	DWORD PTR _bboxMin$[ebp+8]
	fadd	DWORD PTR _bboxMax$[ebp+8]
	fdiv	QWORD PTR __real@4000000000000000
	fstp	DWORD PTR tv827[ebp]
	fld	DWORD PTR tv827[ebp]
	push	ecx
	fstp	DWORD PTR [esp]
	push	ecx
	fld	DWORD PTR _bboxMax$[ebp+4]
	fstp	DWORD PTR [esp]
	push	ecx
	fld	DWORD PTR _bboxMax$[ebp]
	fstp	DWORD PTR [esp]
	lea	ecx, DWORD PTR $T7765[ebp]
	call	??0Vec3f@ozcollide@@QAE@MMM@Z		; ozcollide::Vec3f::Vec3f
	push	eax
	lea	edx, DWORD PTR _bboxMin$[ebp]
	push	edx
	mov	ecx, DWORD PTR _box$7333[ebp]
	call	?setFromPoints@Box@ozcollide@@QAEXABVVec3f@2@0@Z ; ozcollide::Box::setFromPoints
$LN34@workOnItem:

; 249  : 			}
; 250  : 			Box &box = left->aabb;

	mov	eax, DWORD PTR _left$[ebp]
	mov	DWORD PTR _box$7342[ebp], eax

; 251  : 			if (axis == 0 && max > (box.center.x + box.extent.x) )

	cmp	DWORD PTR _axis$[ebp], 0
	jne	SHORT $LN33@workOnItem
	mov	ecx, DWORD PTR _box$7342[ebp]
	fld	DWORD PTR [ecx]
	mov	edx, DWORD PTR _box$7342[ebp]
	fadd	DWORD PTR [edx+12]
	fld	DWORD PTR _max$7321[ebp]
	fcompp
	fnstsw	ax
	test	ah, 65					; 00000041H
	jne	SHORT $LN33@workOnItem

; 252  : 				box.setFromPoints(bboxMin, Vec3f(max, bboxMax.y, bboxMax.z));

	push	ecx
	fld	DWORD PTR _bboxMax$[ebp+8]
	fstp	DWORD PTR [esp]
	push	ecx
	fld	DWORD PTR _bboxMax$[ebp+4]
	fstp	DWORD PTR [esp]
	push	ecx
	fld	DWORD PTR _max$7321[ebp]
	fstp	DWORD PTR [esp]
	lea	ecx, DWORD PTR $T7766[ebp]
	call	??0Vec3f@ozcollide@@QAE@MMM@Z		; ozcollide::Vec3f::Vec3f
	push	eax
	lea	eax, DWORD PTR _bboxMin$[ebp]
	push	eax
	mov	ecx, DWORD PTR _box$7342[ebp]
	call	?setFromPoints@Box@ozcollide@@QAEXABVVec3f@2@0@Z ; ozcollide::Box::setFromPoints
	jmp	$LN29@workOnItem
$LN33@workOnItem:

; 253  : 			else if (axis == 1 && max > (box.center.y + box.extent.y) )

	cmp	DWORD PTR _axis$[ebp], 1
	jne	SHORT $LN31@workOnItem
	mov	ecx, DWORD PTR _box$7342[ebp]
	fld	DWORD PTR [ecx+4]
	mov	edx, DWORD PTR _box$7342[ebp]
	fadd	DWORD PTR [edx+16]
	fld	DWORD PTR _max$7321[ebp]
	fcompp
	fnstsw	ax
	test	ah, 65					; 00000041H
	jne	SHORT $LN31@workOnItem

; 254  : 				box.setFromPoints(bboxMin, Vec3f(bboxMax.x, max, bboxMax.z));

	push	ecx
	fld	DWORD PTR _bboxMax$[ebp+8]
	fstp	DWORD PTR [esp]
	push	ecx
	fld	DWORD PTR _max$7321[ebp]
	fstp	DWORD PTR [esp]
	push	ecx
	fld	DWORD PTR _bboxMax$[ebp]
	fstp	DWORD PTR [esp]
	lea	ecx, DWORD PTR $T7767[ebp]
	call	??0Vec3f@ozcollide@@QAE@MMM@Z		; ozcollide::Vec3f::Vec3f
	push	eax
	lea	eax, DWORD PTR _bboxMin$[ebp]
	push	eax
	mov	ecx, DWORD PTR _box$7342[ebp]
	call	?setFromPoints@Box@ozcollide@@QAEXABVVec3f@2@0@Z ; ozcollide::Box::setFromPoints
	jmp	SHORT $LN29@workOnItem
$LN31@workOnItem:

; 255  : 			else if (axis == 2 && max > (box.center.z + box.extent.z) )

	cmp	DWORD PTR _axis$[ebp], 2
	jne	SHORT $LN29@workOnItem
	mov	ecx, DWORD PTR _box$7342[ebp]
	fld	DWORD PTR [ecx+8]
	mov	edx, DWORD PTR _box$7342[ebp]
	fadd	DWORD PTR [edx+20]
	fld	DWORD PTR _max$7321[ebp]
	fcompp
	fnstsw	ax
	test	ah, 65					; 00000041H
	jne	SHORT $LN29@workOnItem

; 256  : 				box.setFromPoints(bboxMin, Vec3f(bboxMax.x, bboxMax.y, max));

	push	ecx
	fld	DWORD PTR _max$7321[ebp]
	fstp	DWORD PTR [esp]
	push	ecx
	fld	DWORD PTR _bboxMax$[ebp+4]
	fstp	DWORD PTR [esp]
	push	ecx
	fld	DWORD PTR _bboxMax$[ebp]
	fstp	DWORD PTR [esp]
	lea	ecx, DWORD PTR $T7768[ebp]
	call	??0Vec3f@ozcollide@@QAE@MMM@Z		; ozcollide::Vec3f::Vec3f
	push	eax
	lea	eax, DWORD PTR _bboxMin$[ebp]
	push	eax
	mov	ecx, DWORD PTR _box$7342[ebp]
	call	?setFromPoints@Box@ozcollide@@QAEXABVVec3f@2@0@Z ; ozcollide::Box::setFromPoints
$LN29@workOnItem:

; 257  : 			left->boxes.add(bx);

	mov	ecx, DWORD PTR _bx$7319[ebp]
	push	ecx
	mov	ecx, DWORD PTR _left$[ebp]
	add	ecx, 32					; 00000020H
	call	?add@?$Vector@VBox@ozcollide@@@ozcollide@@QAEXABVBox@2@@Z ; ozcollide::Vector<ozcollide::Box>::add

; 258  : 		}
; 259  : 		else {

	jmp	$LN28@workOnItem
$LN40@workOnItem:

; 260  : 			// res = 1
; 261  : 			if (!right) {

	cmp	DWORD PTR _right$[ebp], 0
	jne	$LN22@workOnItem

; 262  : 				right = new WorkingItem();

	push	44					; 0000002cH
	call	??2@YAPAXI@Z				; operator new
	add	esp, 4
	mov	DWORD PTR $T7770[ebp], eax
	mov	DWORD PTR __$EHRec$[ebp+8], 1
	cmp	DWORD PTR $T7770[ebp], 0
	je	SHORT $LN66@workOnItem
	mov	ecx, DWORD PTR $T7770[ebp]
	call	??0WorkingItem@AABBTreeAABB_Builder@ozcollide@@QAE@XZ
	mov	DWORD PTR tv425[ebp], eax
	jmp	SHORT $LN67@workOnItem
$LN66@workOnItem:
	mov	DWORD PTR tv425[ebp], 0
$LN67@workOnItem:
	mov	edx, DWORD PTR tv425[ebp]
	mov	DWORD PTR $T7769[ebp], edx
	mov	DWORD PTR __$EHRec$[ebp+8], -1
	mov	eax, DWORD PTR $T7769[ebp]
	mov	DWORD PTR _right$[ebp], eax

; 263  : 				Box &box = right->aabb;

	mov	ecx, DWORD PTR _right$[ebp]
	mov	DWORD PTR _box$7357[ebp], ecx

; 264  : 				if (axis == 0)

	cmp	DWORD PTR _axis$[ebp], 0
	jne	SHORT $LN26@workOnItem

; 265  : 					box.setFromPoints(Vec3f((bboxMin.x + bboxMax.x) / 2.0f, bboxMin.y, bboxMin.z), bboxMax);

	lea	edx, DWORD PTR _bboxMax$[ebp]
	push	edx
	push	ecx
	fld	DWORD PTR _bboxMin$[ebp+8]
	fstp	DWORD PTR [esp]
	push	ecx
	fld	DWORD PTR _bboxMin$[ebp+4]
	fstp	DWORD PTR [esp]
	fld	DWORD PTR _bboxMin$[ebp]
	fadd	DWORD PTR _bboxMax$[ebp]
	fdiv	QWORD PTR __real@4000000000000000
	fstp	DWORD PTR tv887[ebp]
	fld	DWORD PTR tv887[ebp]
	push	ecx
	fstp	DWORD PTR [esp]
	lea	ecx, DWORD PTR $T7773[ebp]
	call	??0Vec3f@ozcollide@@QAE@MMM@Z		; ozcollide::Vec3f::Vec3f
	push	eax
	mov	ecx, DWORD PTR _box$7357[ebp]
	call	?setFromPoints@Box@ozcollide@@QAEXABVVec3f@2@0@Z ; ozcollide::Box::setFromPoints
	jmp	$LN22@workOnItem
$LN26@workOnItem:

; 266  : 				else if (axis == 1)

	cmp	DWORD PTR _axis$[ebp], 1
	jne	SHORT $LN24@workOnItem

; 267  : 					box.setFromPoints(Vec3f(bboxMin.x, (bboxMin.y + bboxMax.y) / 2.0f, bboxMin.z), bboxMax);

	lea	eax, DWORD PTR _bboxMax$[ebp]
	push	eax
	push	ecx
	fld	DWORD PTR _bboxMin$[ebp+8]
	fstp	DWORD PTR [esp]
	fld	DWORD PTR _bboxMin$[ebp+4]
	fadd	DWORD PTR _bboxMax$[ebp+4]
	fdiv	QWORD PTR __real@4000000000000000
	fstp	DWORD PTR tv897[ebp]
	fld	DWORD PTR tv897[ebp]
	push	ecx
	fstp	DWORD PTR [esp]
	push	ecx
	fld	DWORD PTR _bboxMin$[ebp]
	fstp	DWORD PTR [esp]
	lea	ecx, DWORD PTR $T7774[ebp]
	call	??0Vec3f@ozcollide@@QAE@MMM@Z		; ozcollide::Vec3f::Vec3f
	push	eax
	mov	ecx, DWORD PTR _box$7357[ebp]
	call	?setFromPoints@Box@ozcollide@@QAEXABVVec3f@2@0@Z ; ozcollide::Box::setFromPoints
	jmp	SHORT $LN22@workOnItem
$LN24@workOnItem:

; 268  : 				else if (axis == 2)

	cmp	DWORD PTR _axis$[ebp], 2
	jne	SHORT $LN22@workOnItem

; 269  : 					box.setFromPoints(Vec3f(bboxMin.x, bboxMin.y, (bboxMin.z + bboxMax.z) / 2.0f), bboxMax);

	lea	ecx, DWORD PTR _bboxMax$[ebp]
	push	ecx
	fld	DWORD PTR _bboxMin$[ebp+8]
	fadd	DWORD PTR _bboxMax$[ebp+8]
	fdiv	QWORD PTR __real@4000000000000000
	fstp	DWORD PTR tv907[ebp]
	fld	DWORD PTR tv907[ebp]
	push	ecx
	fstp	DWORD PTR [esp]
	push	ecx
	fld	DWORD PTR _bboxMin$[ebp+4]
	fstp	DWORD PTR [esp]
	push	ecx
	fld	DWORD PTR _bboxMin$[ebp]
	fstp	DWORD PTR [esp]
	lea	ecx, DWORD PTR $T7775[ebp]
	call	??0Vec3f@ozcollide@@QAE@MMM@Z		; ozcollide::Vec3f::Vec3f
	push	eax
	mov	ecx, DWORD PTR _box$7357[ebp]
	call	?setFromPoints@Box@ozcollide@@QAEXABVVec3f@2@0@Z ; ozcollide::Box::setFromPoints
$LN22@workOnItem:

; 270  : 			}
; 271  : 			Box &box = right->aabb;

	mov	edx, DWORD PTR _right$[ebp]
	mov	DWORD PTR _box$7366[ebp], edx

; 272  : 			if (axis == 0 && min < (box.center.x - box.extent.x) )

	cmp	DWORD PTR _axis$[ebp], 0
	jne	SHORT $LN21@workOnItem
	mov	eax, DWORD PTR _box$7366[ebp]
	fld	DWORD PTR [eax]
	mov	ecx, DWORD PTR _box$7366[ebp]
	fsub	DWORD PTR [ecx+12]
	fld	DWORD PTR _min$7320[ebp]
	fcompp
	fnstsw	ax
	test	ah, 5
	jp	SHORT $LN21@workOnItem

; 273  : 				box.setFromPoints(Vec3f(min, bboxMin.y, bboxMin.z), bboxMax);

	lea	edx, DWORD PTR _bboxMax$[ebp]
	push	edx
	push	ecx
	fld	DWORD PTR _bboxMin$[ebp+8]
	fstp	DWORD PTR [esp]
	push	ecx
	fld	DWORD PTR _bboxMin$[ebp+4]
	fstp	DWORD PTR [esp]
	push	ecx
	fld	DWORD PTR _min$7320[ebp]
	fstp	DWORD PTR [esp]
	lea	ecx, DWORD PTR $T7776[ebp]
	call	??0Vec3f@ozcollide@@QAE@MMM@Z		; ozcollide::Vec3f::Vec3f
	push	eax
	mov	ecx, DWORD PTR _box$7366[ebp]
	call	?setFromPoints@Box@ozcollide@@QAEXABVVec3f@2@0@Z ; ozcollide::Box::setFromPoints
	jmp	$LN17@workOnItem
$LN21@workOnItem:

; 274  : 			else if (axis == 1 && min < (box.center.y - box.extent.y) )

	cmp	DWORD PTR _axis$[ebp], 1
	jne	SHORT $LN19@workOnItem
	mov	eax, DWORD PTR _box$7366[ebp]
	fld	DWORD PTR [eax+4]
	mov	ecx, DWORD PTR _box$7366[ebp]
	fsub	DWORD PTR [ecx+16]
	fld	DWORD PTR _min$7320[ebp]
	fcompp
	fnstsw	ax
	test	ah, 5
	jp	SHORT $LN19@workOnItem

; 275  : 				box.setFromPoints(Vec3f(bboxMin.x, min, bboxMin.z), bboxMax);

	lea	edx, DWORD PTR _bboxMax$[ebp]
	push	edx
	push	ecx
	fld	DWORD PTR _bboxMin$[ebp+8]
	fstp	DWORD PTR [esp]
	push	ecx
	fld	DWORD PTR _min$7320[ebp]
	fstp	DWORD PTR [esp]
	push	ecx
	fld	DWORD PTR _bboxMin$[ebp]
	fstp	DWORD PTR [esp]
	lea	ecx, DWORD PTR $T7777[ebp]
	call	??0Vec3f@ozcollide@@QAE@MMM@Z		; ozcollide::Vec3f::Vec3f
	push	eax
	mov	ecx, DWORD PTR _box$7366[ebp]
	call	?setFromPoints@Box@ozcollide@@QAEXABVVec3f@2@0@Z ; ozcollide::Box::setFromPoints
	jmp	SHORT $LN17@workOnItem
$LN19@workOnItem:

; 276  : 			else if (axis == 2 && min < (box.center.z - box.extent.z) )

	cmp	DWORD PTR _axis$[ebp], 2
	jne	SHORT $LN17@workOnItem
	mov	eax, DWORD PTR _box$7366[ebp]
	fld	DWORD PTR [eax+8]
	mov	ecx, DWORD PTR _box$7366[ebp]
	fsub	DWORD PTR [ecx+20]
	fld	DWORD PTR _min$7320[ebp]
	fcompp
	fnstsw	ax
	test	ah, 5
	jp	SHORT $LN17@workOnItem

; 277  : 				box.setFromPoints(Vec3f(bboxMin.x, bboxMin.y, min), bboxMax);

	lea	edx, DWORD PTR _bboxMax$[ebp]
	push	edx
	push	ecx
	fld	DWORD PTR _min$7320[ebp]
	fstp	DWORD PTR [esp]
	push	ecx
	fld	DWORD PTR _bboxMin$[ebp+4]
	fstp	DWORD PTR [esp]
	push	ecx
	fld	DWORD PTR _bboxMin$[ebp]
	fstp	DWORD PTR [esp]
	lea	ecx, DWORD PTR $T7778[ebp]
	call	??0Vec3f@ozcollide@@QAE@MMM@Z		; ozcollide::Vec3f::Vec3f
	push	eax
	mov	ecx, DWORD PTR _box$7366[ebp]
	call	?setFromPoints@Box@ozcollide@@QAEXABVVec3f@2@0@Z ; ozcollide::Box::setFromPoints
$LN17@workOnItem:

; 278  : 			right->boxes.add(bx);

	mov	eax, DWORD PTR _bx$7319[ebp]
	push	eax
	mov	ecx, DWORD PTR _right$[ebp]
	add	ecx, 32					; 00000020H
	call	?add@?$Vector@VBox@ozcollide@@@ozcollide@@QAEXABVBox@2@@Z ; ozcollide::Vector<ozcollide::Box>::add
$LN28@workOnItem:

; 279  : 		}
; 280  : 	}

	jmp	$LN46@workOnItem
$LN45@workOnItem:

; 281  : 
; 282  : 	if ((left && !right) || (!left && right)) {

	cmp	DWORD PTR _left$[ebp], 0
	je	SHORT $LN14@workOnItem
	cmp	DWORD PTR _right$[ebp], 0
	je	SHORT $LN15@workOnItem
$LN14@workOnItem:
	cmp	DWORD PTR _left$[ebp], 0
	jne	$LN8@workOnItem
	cmp	DWORD PTR _right$[ebp], 0
	je	$LN8@workOnItem
$LN15@workOnItem:

; 283  : 		if (left && !right) {

	cmp	DWORD PTR _left$[ebp], 0
	je	$LN13@workOnItem
	cmp	DWORD PTR _right$[ebp], 0
	jne	$LN13@workOnItem

; 284  : 			right = new WorkingItem();

	push	44					; 0000002cH
	call	??2@YAPAXI@Z				; operator new
	add	esp, 4
	mov	DWORD PTR $T7780[ebp], eax
	mov	DWORD PTR __$EHRec$[ebp+8], 2
	cmp	DWORD PTR $T7780[ebp], 0
	je	SHORT $LN68@workOnItem
	mov	ecx, DWORD PTR $T7780[ebp]
	call	??0WorkingItem@AABBTreeAABB_Builder@ozcollide@@QAE@XZ
	mov	DWORD PTR tv539[ebp], eax
	jmp	SHORT $LN69@workOnItem
$LN68@workOnItem:
	mov	DWORD PTR tv539[ebp], 0
$LN69@workOnItem:
	mov	ecx, DWORD PTR tv539[ebp]
	mov	DWORD PTR $T7779[ebp], ecx
	mov	DWORD PTR __$EHRec$[ebp+8], -1
	mov	edx, DWORD PTR $T7779[ebp]
	mov	DWORD PTR _right$[ebp], edx

; 285  : 			right->aabb = left->aabb;

	mov	eax, DWORD PTR _left$[ebp]
	mov	ecx, DWORD PTR _right$[ebp]
	mov	edx, DWORD PTR [eax]
	mov	DWORD PTR [ecx], edx
	mov	edx, DWORD PTR [eax+4]
	mov	DWORD PTR [ecx+4], edx
	mov	edx, DWORD PTR [eax+8]
	mov	DWORD PTR [ecx+8], edx
	mov	edx, DWORD PTR [eax+12]
	mov	DWORD PTR [ecx+12], edx
	mov	edx, DWORD PTR [eax+16]
	mov	DWORD PTR [ecx+16], edx
	mov	eax, DWORD PTR [eax+20]
	mov	DWORD PTR [ecx+20], eax

; 286  : 			int nbBoxes = left->boxes.size();

	mov	ecx, DWORD PTR _left$[ebp]
	add	ecx, 32					; 00000020H
	call	?size@?$Vector@VBox@ozcollide@@@ozcollide@@QBEHXZ ; ozcollide::Vector<ozcollide::Box>::size
	mov	DWORD PTR _nbBoxes$7383[ebp], eax

; 287  : 			int le = nbBoxes / 2;

	mov	eax, DWORD PTR _nbBoxes$7383[ebp]
	cdq
	sub	eax, edx
	sar	eax, 1
	mov	DWORD PTR _le$7384[ebp], eax

; 288  : 			int start = nbBoxes - le;

	mov	ecx, DWORD PTR _nbBoxes$7383[ebp]
	sub	ecx, DWORD PTR _le$7384[ebp]
	mov	DWORD PTR _start$7385[ebp], ecx

; 289  : 			for (i = start; i < nbBoxes; i++) {

	mov	edx, DWORD PTR _start$7385[ebp]
	mov	DWORD PTR _i$[ebp], edx
	jmp	SHORT $LN12@workOnItem
$LN11@workOnItem:
	mov	eax, DWORD PTR _i$[ebp]
	add	eax, 1
	mov	DWORD PTR _i$[ebp], eax
$LN12@workOnItem:
	mov	ecx, DWORD PTR _i$[ebp]
	cmp	ecx, DWORD PTR _nbBoxes$7383[ebp]
	jge	SHORT $LN10@workOnItem

; 290  : 				Box b = left->boxes[i];

	mov	edx, DWORD PTR _i$[ebp]
	push	edx
	mov	ecx, DWORD PTR _left$[ebp]
	add	ecx, 32					; 00000020H
	call	??A?$Vector@VBox@ozcollide@@@ozcollide@@QBEAAVBox@1@H@Z ; ozcollide::Vector<ozcollide::Box>::operator[]
	mov	ecx, DWORD PTR [eax]
	mov	DWORD PTR _b$7389[ebp], ecx
	mov	edx, DWORD PTR [eax+4]
	mov	DWORD PTR _b$7389[ebp+4], edx
	mov	ecx, DWORD PTR [eax+8]
	mov	DWORD PTR _b$7389[ebp+8], ecx
	mov	edx, DWORD PTR [eax+12]
	mov	DWORD PTR _b$7389[ebp+12], edx
	mov	ecx, DWORD PTR [eax+16]
	mov	DWORD PTR _b$7389[ebp+16], ecx
	mov	edx, DWORD PTR [eax+20]
	mov	DWORD PTR _b$7389[ebp+20], edx
	mov	DWORD PTR __$EHRec$[ebp+8], 3

; 291  : 				right->boxes.add(b);

	lea	eax, DWORD PTR _b$7389[ebp]
	push	eax
	mov	ecx, DWORD PTR _right$[ebp]
	add	ecx, 32					; 00000020H
	call	?add@?$Vector@VBox@ozcollide@@@ozcollide@@QAEXABVBox@2@@Z ; ozcollide::Vector<ozcollide::Box>::add

; 292  : 			}

	mov	DWORD PTR __$EHRec$[ebp+8], -1
	lea	ecx, DWORD PTR _b$7389[ebp]
	call	??1Box@ozcollide@@QAE@XZ		; ozcollide::Box::~Box
	jmp	$LN11@workOnItem
$LN10@workOnItem:

; 293  : 			left->boxes.grow(-le);

	mov	ecx, DWORD PTR _le$7384[ebp]
	neg	ecx
	push	ecx
	mov	ecx, DWORD PTR _left$[ebp]
	add	ecx, 32					; 00000020H
	call	?grow@?$Vector@VBox@ozcollide@@@ozcollide@@QAEXH@Z ; ozcollide::Vector<ozcollide::Box>::grow
	jmp	$LN8@workOnItem
$LN13@workOnItem:

; 294  : 		}
; 295  : 		else if (!left && right) {

	cmp	DWORD PTR _left$[ebp], 0
	jne	$LN8@workOnItem
	cmp	DWORD PTR _right$[ebp], 0
	je	$LN8@workOnItem

; 296  : 			left = new WorkingItem();

	push	44					; 0000002cH
	call	??2@YAPAXI@Z				; operator new
	add	esp, 4
	mov	DWORD PTR $T7784[ebp], eax
	mov	DWORD PTR __$EHRec$[ebp+8], 4
	cmp	DWORD PTR $T7784[ebp], 0
	je	SHORT $LN70@workOnItem
	mov	ecx, DWORD PTR $T7784[ebp]
	call	??0WorkingItem@AABBTreeAABB_Builder@ozcollide@@QAE@XZ
	mov	DWORD PTR tv569[ebp], eax
	jmp	SHORT $LN71@workOnItem
$LN70@workOnItem:
	mov	DWORD PTR tv569[ebp], 0
$LN71@workOnItem:
	mov	edx, DWORD PTR tv569[ebp]
	mov	DWORD PTR $T7783[ebp], edx
	mov	DWORD PTR __$EHRec$[ebp+8], -1
	mov	eax, DWORD PTR $T7783[ebp]
	mov	DWORD PTR _left$[ebp], eax

; 297  : 			left->aabb = right->aabb;

	mov	ecx, DWORD PTR _right$[ebp]
	mov	edx, DWORD PTR _left$[ebp]
	mov	eax, DWORD PTR [ecx]
	mov	DWORD PTR [edx], eax
	mov	eax, DWORD PTR [ecx+4]
	mov	DWORD PTR [edx+4], eax
	mov	eax, DWORD PTR [ecx+8]
	mov	DWORD PTR [edx+8], eax
	mov	eax, DWORD PTR [ecx+12]
	mov	DWORD PTR [edx+12], eax
	mov	eax, DWORD PTR [ecx+16]
	mov	DWORD PTR [edx+16], eax
	mov	ecx, DWORD PTR [ecx+20]
	mov	DWORD PTR [edx+20], ecx

; 298  : 			int nbBoxes = right->boxes.size();

	mov	ecx, DWORD PTR _right$[ebp]
	add	ecx, 32					; 00000020H
	call	?size@?$Vector@VBox@ozcollide@@@ozcollide@@QBEHXZ ; ozcollide::Vector<ozcollide::Box>::size
	mov	DWORD PTR _nbBoxes$7396[ebp], eax

; 299  : 			int le = nbBoxes / 2;

	mov	eax, DWORD PTR _nbBoxes$7396[ebp]
	cdq
	sub	eax, edx
	sar	eax, 1
	mov	DWORD PTR _le$7397[ebp], eax

; 300  : 			int start = nbBoxes - le;

	mov	edx, DWORD PTR _nbBoxes$7396[ebp]
	sub	edx, DWORD PTR _le$7397[ebp]
	mov	DWORD PTR _start$7398[ebp], edx

; 301  : 			for (i = start; i < nbBoxes; i++) {

	mov	eax, DWORD PTR _start$7398[ebp]
	mov	DWORD PTR _i$[ebp], eax
	jmp	SHORT $LN7@workOnItem
$LN6@workOnItem:
	mov	ecx, DWORD PTR _i$[ebp]
	add	ecx, 1
	mov	DWORD PTR _i$[ebp], ecx
$LN7@workOnItem:
	mov	edx, DWORD PTR _i$[ebp]
	cmp	edx, DWORD PTR _nbBoxes$7396[ebp]
	jge	SHORT $LN5@workOnItem

; 302  : 				Box b = right->boxes[i];

	mov	eax, DWORD PTR _i$[ebp]
	push	eax
	mov	ecx, DWORD PTR _right$[ebp]
	add	ecx, 32					; 00000020H
	call	??A?$Vector@VBox@ozcollide@@@ozcollide@@QBEAAVBox@1@H@Z ; ozcollide::Vector<ozcollide::Box>::operator[]
	mov	ecx, DWORD PTR [eax]
	mov	DWORD PTR _b$7402[ebp], ecx
	mov	edx, DWORD PTR [eax+4]
	mov	DWORD PTR _b$7402[ebp+4], edx
	mov	ecx, DWORD PTR [eax+8]
	mov	DWORD PTR _b$7402[ebp+8], ecx
	mov	edx, DWORD PTR [eax+12]
	mov	DWORD PTR _b$7402[ebp+12], edx
	mov	ecx, DWORD PTR [eax+16]
	mov	DWORD PTR _b$7402[ebp+16], ecx
	mov	edx, DWORD PTR [eax+20]
	mov	DWORD PTR _b$7402[ebp+20], edx
	mov	DWORD PTR __$EHRec$[ebp+8], 5

; 303  : 				left->boxes.add(b);

	lea	eax, DWORD PTR _b$7402[ebp]
	push	eax
	mov	ecx, DWORD PTR _left$[ebp]
	add	ecx, 32					; 00000020H
	call	?add@?$Vector@VBox@ozcollide@@@ozcollide@@QAEXABVBox@2@@Z ; ozcollide::Vector<ozcollide::Box>::add

; 304  : 			}

	mov	DWORD PTR __$EHRec$[ebp+8], -1
	lea	ecx, DWORD PTR _b$7402[ebp]
	call	??1Box@ozcollide@@QAE@XZ		; ozcollide::Box::~Box
	jmp	$LN6@workOnItem
$LN5@workOnItem:

; 305  : 			right->boxes.grow(-le);

	mov	ecx, DWORD PTR _le$7397[ebp]
	neg	ecx
	push	ecx
	mov	ecx, DWORD PTR _right$[ebp]
	add	ecx, 32					; 00000020H
	call	?grow@?$Vector@VBox@ozcollide@@@ozcollide@@QAEXH@Z ; ozcollide::Vector<ozcollide::Box>::grow
$LN8@workOnItem:

; 306  : 		}
; 307  : 	}
; 308  : 
; 309  : 	if (left) {

	cmp	DWORD PTR _left$[ebp], 0
	je	SHORT $LN4@workOnItem

; 310  : 		_item.left = items_.size();

	mov	ecx, DWORD PTR _this$[ebp]
	call	?size@?$Vector@PAVWorkingItem@AABBTreeAABB_Builder@ozcollide@@@ozcollide@@QBEHXZ ; ozcollide::Vector<ozcollide::AABBTreeAABB_Builder::WorkingItem *>::size
	mov	edx, DWORD PTR __item$[ebp]
	mov	DWORD PTR [edx+24], eax

; 311  : 		items_.add(left);

	lea	eax, DWORD PTR _left$[ebp]
	push	eax
	mov	ecx, DWORD PTR _this$[ebp]
	call	?add@?$Vector@PAVWorkingItem@AABBTreeAABB_Builder@ozcollide@@@ozcollide@@QAEXABQAVWorkingItem@AABBTreeAABB_Builder@2@@Z ; ozcollide::Vector<ozcollide::AABBTreeAABB_Builder::WorkingItem *>::add

; 312  : 	}
; 313  : 	else

	jmp	SHORT $LN3@workOnItem
$LN4@workOnItem:

; 314  : 		_item.left = -1;

	mov	ecx, DWORD PTR __item$[ebp]
	mov	DWORD PTR [ecx+24], -1
$LN3@workOnItem:

; 315  : 
; 316  : 	if (right) {

	cmp	DWORD PTR _right$[ebp], 0
	je	SHORT $LN2@workOnItem

; 317  : 		_item.right = items_.size();

	mov	ecx, DWORD PTR _this$[ebp]
	call	?size@?$Vector@PAVWorkingItem@AABBTreeAABB_Builder@ozcollide@@@ozcollide@@QBEHXZ ; ozcollide::Vector<ozcollide::AABBTreeAABB_Builder::WorkingItem *>::size
	mov	edx, DWORD PTR __item$[ebp]
	mov	DWORD PTR [edx+28], eax

; 318  : 		items_.add(right);

	lea	eax, DWORD PTR _right$[ebp]
	push	eax
	mov	ecx, DWORD PTR _this$[ebp]
	call	?add@?$Vector@PAVWorkingItem@AABBTreeAABB_Builder@ozcollide@@@ozcollide@@QAEXABQAVWorkingItem@AABBTreeAABB_Builder@2@@Z ; ozcollide::Vector<ozcollide::AABBTreeAABB_Builder::WorkingItem *>::add

; 319  : 	}
; 320  : 	else

	jmp	SHORT $LN1@workOnItem
$LN2@workOnItem:

; 321  : 		_item.right = -1;

	mov	ecx, DWORD PTR __item$[ebp]
	mov	DWORD PTR [ecx+28], -1
$LN1@workOnItem:
$LN62@workOnItem:

; 322  : }

	mov	ecx, DWORD PTR __$EHRec$[ebp]
	mov	DWORD PTR fs:0, ecx
	pop	ecx
	mov	esp, ebp
	pop	ebp
	ret	8
_TEXT	ENDS
text$x	SEGMENT
__unwindfunclet$?workOnItem@AABBTreeAABB_Builder@ozcollide@@AAEXAAVWorkingItem@12@H@Z$0:
	mov	eax, DWORD PTR $T7760[ebp]
	push	eax
	call	??3@YAXPAX@Z				; operator delete
	pop	ecx
	ret	0
__unwindfunclet$?workOnItem@AABBTreeAABB_Builder@ozcollide@@AAEXAAVWorkingItem@12@H@Z$1:
	mov	eax, DWORD PTR $T7770[ebp]
	push	eax
	call	??3@YAXPAX@Z				; operator delete
	pop	ecx
	ret	0
__unwindfunclet$?workOnItem@AABBTreeAABB_Builder@ozcollide@@AAEXAAVWorkingItem@12@H@Z$2:
	mov	eax, DWORD PTR $T7780[ebp]
	push	eax
	call	??3@YAXPAX@Z				; operator delete
	pop	ecx
	ret	0
__unwindfunclet$?workOnItem@AABBTreeAABB_Builder@ozcollide@@AAEXAAVWorkingItem@12@H@Z$3:
	lea	ecx, DWORD PTR _b$7389[ebp]
	jmp	??1Box@ozcollide@@QAE@XZ		; ozcollide::Box::~Box
__unwindfunclet$?workOnItem@AABBTreeAABB_Builder@ozcollide@@AAEXAAVWorkingItem@12@H@Z$4:
	mov	eax, DWORD PTR $T7784[ebp]
	push	eax
	call	??3@YAXPAX@Z				; operator delete
	pop	ecx
	ret	0
__unwindfunclet$?workOnItem@AABBTreeAABB_Builder@ozcollide@@AAEXAAVWorkingItem@12@H@Z$5:
	lea	ecx, DWORD PTR _b$7402[ebp]
	jmp	??1Box@ozcollide@@QAE@XZ		; ozcollide::Box::~Box
__ehhandler$?workOnItem@AABBTreeAABB_Builder@ozcollide@@AAEXAAVWorkingItem@12@H@Z:
	mov	edx, DWORD PTR [esp+8]
	lea	eax, DWORD PTR [edx+12]
	mov	ecx, DWORD PTR [edx-512]
	xor	ecx, eax
	call	@__security_check_cookie@4
	mov	eax, OFFSET __ehfuncinfo$?workOnItem@AABBTreeAABB_Builder@ozcollide@@AAEXAAVWorkingItem@12@H@Z
	jmp	___CxxFrameHandler3
text$x	ENDS
?workOnItem@AABBTreeAABB_Builder@ozcollide@@AAEXAAVWorkingItem@12@H@Z ENDP ; ozcollide::AABBTreeAABB_Builder::workOnItem
; Function compile flags: /Odtp
; File i:\svnroot\client\sdk\ozcollide\vec3f.h
;	COMDAT ??0Vec3f@ozcollide@@QAE@MMM@Z
_TEXT	SEGMENT
_this$ = -4						; size = 4
__x$ = 8						; size = 4
__y$ = 12						; size = 4
__z$ = 16						; size = 4
??0Vec3f@ozcollide@@QAE@MMM@Z PROC			; ozcollide::Vec3f::Vec3f, COMDAT
; _this$ = ecx

; 42   : 	{

	push	ebp
	mov	ebp, esp
	push	ecx
	mov	DWORD PTR _this$[ebp], ecx
	mov	eax, DWORD PTR _this$[ebp]
	fld	DWORD PTR __x$[ebp]
	fstp	DWORD PTR [eax]
	mov	ecx, DWORD PTR _this$[ebp]
	fld	DWORD PTR __y$[ebp]
	fstp	DWORD PTR [ecx+4]
	mov	edx, DWORD PTR _this$[ebp]
	fld	DWORD PTR __z$[ebp]
	fstp	DWORD PTR [edx+8]

; 43   : 	}

	mov	eax, DWORD PTR _this$[ebp]
	mov	esp, ebp
	pop	ebp
	ret	12					; 0000000cH
??0Vec3f@ozcollide@@QAE@MMM@Z ENDP			; ozcollide::Vec3f::Vec3f
; Function compile flags: /Odtp
_TEXT	ENDS
;	COMDAT ??GVec3f@ozcollide@@QBE?AV01@XZ
_TEXT	SEGMENT
_this$ = -4						; size = 4
___$ReturnUdt$ = 8					; size = 4
??GVec3f@ozcollide@@QBE?AV01@XZ PROC			; ozcollide::Vec3f::operator-, COMDAT
; _this$ = ecx

; 53   : 	{

	push	ebp
	mov	ebp, esp
	push	ecx
	mov	DWORD PTR _this$[ebp], ecx

; 54   : 		return Vec3f(-x, -y, -z);

	mov	eax, DWORD PTR _this$[ebp]
	fld	DWORD PTR [eax+8]
	fchs
	push	ecx
	fstp	DWORD PTR [esp]
	mov	ecx, DWORD PTR _this$[ebp]
	fld	DWORD PTR [ecx+4]
	fchs
	push	ecx
	fstp	DWORD PTR [esp]
	mov	edx, DWORD PTR _this$[ebp]
	fld	DWORD PTR [edx]
	fchs
	push	ecx
	fstp	DWORD PTR [esp]
	mov	ecx, DWORD PTR ___$ReturnUdt$[ebp]
	call	??0Vec3f@ozcollide@@QAE@MMM@Z		; ozcollide::Vec3f::Vec3f
	mov	eax, DWORD PTR ___$ReturnUdt$[ebp]

; 55   : 	}

	mov	esp, ebp
	pop	ebp
	ret	4
??GVec3f@ozcollide@@QBE?AV01@XZ ENDP			; ozcollide::Vec3f::operator-
; Function compile flags: /Odtp
_TEXT	ENDS
;	COMDAT ??GVec3f@ozcollide@@QBE?AV01@ABV01@@Z
_TEXT	SEGMENT
tv92 = -16						; size = 4
tv89 = -12						; size = 4
tv86 = -8						; size = 4
_this$ = -4						; size = 4
___$ReturnUdt$ = 8					; size = 4
__v$ = 12						; size = 4
??GVec3f@ozcollide@@QBE?AV01@ABV01@@Z PROC		; ozcollide::Vec3f::operator-, COMDAT
; _this$ = ecx

; 94   : 	{

	push	ebp
	mov	ebp, esp
	sub	esp, 16					; 00000010H
	mov	DWORD PTR _this$[ebp], ecx

; 95   : 		return Vec3f(x - _v.x, y - _v.y, z - _v.z);

	mov	eax, DWORD PTR _this$[ebp]
	fld	DWORD PTR [eax+8]
	mov	ecx, DWORD PTR __v$[ebp]
	fsub	DWORD PTR [ecx+8]
	fstp	DWORD PTR tv86[ebp]
	fld	DWORD PTR tv86[ebp]
	push	ecx
	fstp	DWORD PTR [esp]
	mov	edx, DWORD PTR _this$[ebp]
	fld	DWORD PTR [edx+4]
	mov	eax, DWORD PTR __v$[ebp]
	fsub	DWORD PTR [eax+4]
	fstp	DWORD PTR tv89[ebp]
	fld	DWORD PTR tv89[ebp]
	push	ecx
	fstp	DWORD PTR [esp]
	mov	ecx, DWORD PTR _this$[ebp]
	fld	DWORD PTR [ecx]
	mov	edx, DWORD PTR __v$[ebp]
	fsub	DWORD PTR [edx]
	fstp	DWORD PTR tv92[ebp]
	fld	DWORD PTR tv92[ebp]
	push	ecx
	fstp	DWORD PTR [esp]
	mov	ecx, DWORD PTR ___$ReturnUdt$[ebp]
	call	??0Vec3f@ozcollide@@QAE@MMM@Z		; ozcollide::Vec3f::Vec3f
	mov	eax, DWORD PTR ___$ReturnUdt$[ebp]

; 96   : 	}

	mov	esp, ebp
	pop	ebp
	ret	8
??GVec3f@ozcollide@@QBE?AV01@ABV01@@Z ENDP		; ozcollide::Vec3f::operator-
; Function compile flags: /Odtp
_TEXT	ENDS
;	COMDAT ??HVec3f@ozcollide@@QBE?AV01@ABV01@@Z
_TEXT	SEGMENT
tv92 = -16						; size = 4
tv89 = -12						; size = 4
tv86 = -8						; size = 4
_this$ = -4						; size = 4
___$ReturnUdt$ = 8					; size = 4
__v$ = 12						; size = 4
??HVec3f@ozcollide@@QBE?AV01@ABV01@@Z PROC		; ozcollide::Vec3f::operator+, COMDAT
; _this$ = ecx

; 99   : 	{

	push	ebp
	mov	ebp, esp
	sub	esp, 16					; 00000010H
	mov	DWORD PTR _this$[ebp], ecx

; 100  : 		return Vec3f(x + _v.x, y + _v.y, z + _v.z);

	mov	eax, DWORD PTR _this$[ebp]
	fld	DWORD PTR [eax+8]
	mov	ecx, DWORD PTR __v$[ebp]
	fadd	DWORD PTR [ecx+8]
	fstp	DWORD PTR tv86[ebp]
	fld	DWORD PTR tv86[ebp]
	push	ecx
	fstp	DWORD PTR [esp]
	mov	edx, DWORD PTR _this$[ebp]
	fld	DWORD PTR [edx+4]
	mov	eax, DWORD PTR __v$[ebp]
	fadd	DWORD PTR [eax+4]
	fstp	DWORD PTR tv89[ebp]
	fld	DWORD PTR tv89[ebp]
	push	ecx
	fstp	DWORD PTR [esp]
	mov	ecx, DWORD PTR _this$[ebp]
	fld	DWORD PTR [ecx]
	mov	edx, DWORD PTR __v$[ebp]
	fadd	DWORD PTR [edx]
	fstp	DWORD PTR tv92[ebp]
	fld	DWORD PTR tv92[ebp]
	push	ecx
	fstp	DWORD PTR [esp]
	mov	ecx, DWORD PTR ___$ReturnUdt$[ebp]
	call	??0Vec3f@ozcollide@@QAE@MMM@Z		; ozcollide::Vec3f::Vec3f
	mov	eax, DWORD PTR ___$ReturnUdt$[ebp]

; 101  : 	}

	mov	esp, ebp
	pop	ebp
	ret	8
??HVec3f@ozcollide@@QBE?AV01@ABV01@@Z ENDP		; ozcollide::Vec3f::operator+
_TEXT	ENDS
PUBLIC	__real@3ff0000000000000
;	COMDAT __real@3ff0000000000000
CONST	SEGMENT
__real@3ff0000000000000 DQ 03ff0000000000000r	; 1
; Function compile flags: /Odtp
CONST	ENDS
;	COMDAT ??KVec3f@ozcollide@@QBE?AV01@M@Z
_TEXT	SEGMENT
tv92 = -20						; size = 4
tv90 = -16						; size = 4
tv88 = -12						; size = 4
_this$ = -8						; size = 4
_m$ = -4						; size = 4
___$ReturnUdt$ = 8					; size = 4
__d$ = 12						; size = 4
??KVec3f@ozcollide@@QBE?AV01@M@Z PROC			; ozcollide::Vec3f::operator/, COMDAT
; _this$ = ecx

; 119  : 	{

	push	ebp
	mov	ebp, esp
	sub	esp, 20					; 00000014H
	mov	DWORD PTR _this$[ebp], ecx

; 120  : 		float m = 1.0f / _d;

	fld	DWORD PTR __d$[ebp]
	fld1
	fdivrp	ST(1), ST(0)
	fstp	DWORD PTR _m$[ebp]

; 121  : 		return Vec3f(x * m, y * m, z * m);

	mov	eax, DWORD PTR _this$[ebp]
	fld	DWORD PTR [eax+8]
	fmul	DWORD PTR _m$[ebp]
	fstp	DWORD PTR tv88[ebp]
	fld	DWORD PTR tv88[ebp]
	push	ecx
	fstp	DWORD PTR [esp]
	mov	ecx, DWORD PTR _this$[ebp]
	fld	DWORD PTR [ecx+4]
	fmul	DWORD PTR _m$[ebp]
	fstp	DWORD PTR tv90[ebp]
	fld	DWORD PTR tv90[ebp]
	push	ecx
	fstp	DWORD PTR [esp]
	mov	edx, DWORD PTR _this$[ebp]
	fld	DWORD PTR [edx]
	fmul	DWORD PTR _m$[ebp]
	fstp	DWORD PTR tv92[ebp]
	fld	DWORD PTR tv92[ebp]
	push	ecx
	fstp	DWORD PTR [esp]
	mov	ecx, DWORD PTR ___$ReturnUdt$[ebp]
	call	??0Vec3f@ozcollide@@QAE@MMM@Z		; ozcollide::Vec3f::Vec3f
	mov	eax, DWORD PTR ___$ReturnUdt$[ebp]

; 122  : 	}

	mov	esp, ebp
	pop	ebp
	ret	8
??KVec3f@ozcollide@@QBE?AV01@M@Z ENDP			; ozcollide::Vec3f::operator/
_TEXT	ENDS
PUBLIC	?positive@Vec3f@ozcollide@@QAEXXZ		; ozcollide::Vec3f::positive
PUBLIC	??DVec3f@ozcollide@@QBE?AV01@M@Z		; ozcollide::Vec3f::operator*
PUBLIC	__real@3f000000
;	COMDAT __real@3f000000
; File i:\svnroot\client\sdk\ozcollide\box.h
CONST	SEGMENT
__real@3f000000 DD 03f000000r			; 0.5
; Function compile flags: /Odtp
CONST	ENDS
;	COMDAT ?setFromPoints@Box@ozcollide@@QAEXABVVec3f@2@0@Z
_TEXT	SEGMENT
_this$ = -52						; size = 4
$T7820 = -48						; size = 12
$T7819 = -36						; size = 12
$T7818 = -24						; size = 12
$T7817 = -12						; size = 12
__pt0$ = 8						; size = 4
__pt1$ = 12						; size = 4
?setFromPoints@Box@ozcollide@@QAEXABVVec3f@2@0@Z PROC	; ozcollide::Box::setFromPoints, COMDAT
; _this$ = ecx

; 58   : 	{

	push	ebp
	mov	ebp, esp
	sub	esp, 52					; 00000034H
	mov	DWORD PTR _this$[ebp], ecx

; 59   : 		center = (_pt1 + _pt0) * 0.5f;

	push	ecx
	fld	DWORD PTR __real@3f000000
	fstp	DWORD PTR [esp]
	lea	eax, DWORD PTR $T7818[ebp]
	push	eax
	mov	ecx, DWORD PTR __pt0$[ebp]
	push	ecx
	lea	edx, DWORD PTR $T7817[ebp]
	push	edx
	mov	ecx, DWORD PTR __pt1$[ebp]
	call	??HVec3f@ozcollide@@QBE?AV01@ABV01@@Z	; ozcollide::Vec3f::operator+
	mov	ecx, eax
	call	??DVec3f@ozcollide@@QBE?AV01@M@Z	; ozcollide::Vec3f::operator*
	mov	ecx, DWORD PTR _this$[ebp]
	mov	edx, DWORD PTR [eax]
	mov	DWORD PTR [ecx], edx
	mov	edx, DWORD PTR [eax+4]
	mov	DWORD PTR [ecx+4], edx
	mov	eax, DWORD PTR [eax+8]
	mov	DWORD PTR [ecx+8], eax

; 60   : 		extent = (_pt1 - _pt0) * 0.5f;

	push	ecx
	fld	DWORD PTR __real@3f000000
	fstp	DWORD PTR [esp]
	lea	ecx, DWORD PTR $T7820[ebp]
	push	ecx
	mov	edx, DWORD PTR __pt0$[ebp]
	push	edx
	lea	eax, DWORD PTR $T7819[ebp]
	push	eax
	mov	ecx, DWORD PTR __pt1$[ebp]
	call	??GVec3f@ozcollide@@QBE?AV01@ABV01@@Z	; ozcollide::Vec3f::operator-
	mov	ecx, eax
	call	??DVec3f@ozcollide@@QBE?AV01@M@Z	; ozcollide::Vec3f::operator*
	mov	ecx, DWORD PTR _this$[ebp]
	add	ecx, 12					; 0000000cH
	mov	edx, DWORD PTR [eax]
	mov	DWORD PTR [ecx], edx
	mov	edx, DWORD PTR [eax+4]
	mov	DWORD PTR [ecx+4], edx
	mov	eax, DWORD PTR [eax+8]
	mov	DWORD PTR [ecx+8], eax

; 61   : 		extent.positive();

	mov	ecx, DWORD PTR _this$[ebp]
	add	ecx, 12					; 0000000cH
	call	?positive@Vec3f@ozcollide@@QAEXXZ	; ozcollide::Vec3f::positive

; 62   : 	}

	mov	esp, ebp
	pop	ebp
	ret	8
?setFromPoints@Box@ozcollide@@QAEXABVVec3f@2@0@Z ENDP	; ozcollide::Box::setFromPoints
; Function compile flags: /Odtp
; File i:\svnroot\client\sdk\ozcollide\vec3f.h
_TEXT	ENDS
;	COMDAT ??DVec3f@ozcollide@@QBE?AV01@M@Z
_TEXT	SEGMENT
tv87 = -16						; size = 4
tv85 = -12						; size = 4
tv83 = -8						; size = 4
_this$ = -4						; size = 4
___$ReturnUdt$ = 8					; size = 4
__m$ = 12						; size = 4
??DVec3f@ozcollide@@QBE?AV01@M@Z PROC			; ozcollide::Vec3f::operator*, COMDAT
; _this$ = ecx

; 109  : 	{

	push	ebp
	mov	ebp, esp
	sub	esp, 16					; 00000010H
	mov	DWORD PTR _this$[ebp], ecx

; 110  : 		return Vec3f(x * _m, y * _m, z * _m);

	mov	eax, DWORD PTR _this$[ebp]
	fld	DWORD PTR [eax+8]
	fmul	DWORD PTR __m$[ebp]
	fstp	DWORD PTR tv83[ebp]
	fld	DWORD PTR tv83[ebp]
	push	ecx
	fstp	DWORD PTR [esp]
	mov	ecx, DWORD PTR _this$[ebp]
	fld	DWORD PTR [ecx+4]
	fmul	DWORD PTR __m$[ebp]
	fstp	DWORD PTR tv85[ebp]
	fld	DWORD PTR tv85[ebp]
	push	ecx
	fstp	DWORD PTR [esp]
	mov	edx, DWORD PTR _this$[ebp]
	fld	DWORD PTR [edx]
	fmul	DWORD PTR __m$[ebp]
	fstp	DWORD PTR tv87[ebp]
	fld	DWORD PTR tv87[ebp]
	push	ecx
	fstp	DWORD PTR [esp]
	mov	ecx, DWORD PTR ___$ReturnUdt$[ebp]
	call	??0Vec3f@ozcollide@@QAE@MMM@Z		; ozcollide::Vec3f::Vec3f
	mov	eax, DWORD PTR ___$ReturnUdt$[ebp]

; 111  : 	}

	mov	esp, ebp
	pop	ebp
	ret	8
??DVec3f@ozcollide@@QBE?AV01@M@Z ENDP			; ozcollide::Vec3f::operator*
_TEXT	ENDS
PUBLIC	__real@0000000000000000
;	COMDAT __real@0000000000000000
CONST	SEGMENT
__real@0000000000000000 DQ 00000000000000000r	; 0
; Function compile flags: /Odtp
CONST	ENDS
;	COMDAT ?positive@Vec3f@ozcollide@@QAEXXZ
_TEXT	SEGMENT
_this$ = -4						; size = 4
?positive@Vec3f@ozcollide@@QAEXXZ PROC			; ozcollide::Vec3f::positive, COMDAT
; _this$ = ecx

; 179  : 	{

	push	ebp
	mov	ebp, esp
	push	ecx
	mov	DWORD PTR _this$[ebp], ecx

; 180  : 		if (x < 0) x = -x;

	mov	eax, DWORD PTR _this$[ebp]
	fld	DWORD PTR [eax]
	fcomp	QWORD PTR __real@0000000000000000
	fnstsw	ax
	test	ah, 5
	jp	SHORT $LN3@positive
	mov	ecx, DWORD PTR _this$[ebp]
	fld	DWORD PTR [ecx]
	fchs
	mov	edx, DWORD PTR _this$[ebp]
	fstp	DWORD PTR [edx]
$LN3@positive:

; 181  : 		if (y < 0) y = -y;

	mov	eax, DWORD PTR _this$[ebp]
	fld	DWORD PTR [eax+4]
	fcomp	QWORD PTR __real@0000000000000000
	fnstsw	ax
	test	ah, 5
	jp	SHORT $LN2@positive
	mov	ecx, DWORD PTR _this$[ebp]
	fld	DWORD PTR [ecx+4]
	fchs
	mov	edx, DWORD PTR _this$[ebp]
	fstp	DWORD PTR [edx+4]
$LN2@positive:

; 182  : 		if (z < 0) z = -z;

	mov	eax, DWORD PTR _this$[ebp]
	fld	DWORD PTR [eax+8]
	fcomp	QWORD PTR __real@0000000000000000
	fnstsw	ax
	test	ah, 5
	jp	SHORT $LN1@positive
	mov	ecx, DWORD PTR _this$[ebp]
	fld	DWORD PTR [ecx+8]
	fchs
	mov	edx, DWORD PTR _this$[ebp]
	fstp	DWORD PTR [edx+8]
$LN1@positive:

; 183  : 	}

	mov	esp, ebp
	pop	ebp
	ret	0
?positive@Vec3f@ozcollide@@QAEXXZ ENDP			; ozcollide::Vec3f::positive
; Function compile flags: /Odtp
; File i:\svnroot\client\sdk\ozcollide\aabbtreeaabb_builder.cpp
_TEXT	ENDS
_TEXT	SEGMENT
_this$ = -4						; size = 4
__box$ = 8						; size = 4
__axis$ = 12						; size = 4
__middle$ = 16						; size = 4
?classifyAABB@AABBTreeAABB_Builder@ozcollide@@AAEHABVBox@2@HM@Z PROC ; ozcollide::AABBTreeAABB_Builder::classifyAABB
; _this$ = ecx

; 325  : {

	push	ebp
	mov	ebp, esp
	push	ecx
	mov	DWORD PTR _this$[ebp], ecx

; 326  : 	if ((_box.center.x <= _middle && _axis == 0) ||
; 327  : 		(_box.center.y <= _middle && _axis == 1) ||
; 328  : 		(_box.center.z <= _middle && _axis == 2) )

	mov	eax, DWORD PTR __box$[ebp]
	fld	DWORD PTR [eax]
	fld	DWORD PTR __middle$[ebp]
	fcompp
	fnstsw	ax
	test	ah, 1
	jne	SHORT $LN3@classifyAA
	cmp	DWORD PTR __axis$[ebp], 0
	je	SHORT $LN4@classifyAA
$LN3@classifyAA:
	mov	ecx, DWORD PTR __box$[ebp]
	fld	DWORD PTR [ecx+4]
	fld	DWORD PTR __middle$[ebp]
	fcompp
	fnstsw	ax
	test	ah, 1
	jne	SHORT $LN2@classifyAA
	cmp	DWORD PTR __axis$[ebp], 1
	je	SHORT $LN4@classifyAA
$LN2@classifyAA:
	mov	edx, DWORD PTR __box$[ebp]
	fld	DWORD PTR [edx+8]
	fld	DWORD PTR __middle$[ebp]
	fcompp
	fnstsw	ax
	test	ah, 1
	jne	SHORT $LN5@classifyAA
	cmp	DWORD PTR __axis$[ebp], 2
	jne	SHORT $LN5@classifyAA
$LN4@classifyAA:

; 329  : 		return 0;

	xor	eax, eax
	jmp	SHORT $LN1@classifyAA

; 330  : 	else

	jmp	SHORT $LN1@classifyAA
$LN5@classifyAA:

; 331  : 		return 1;

	mov	eax, 1
$LN1@classifyAA:

; 332  : }

	mov	esp, ebp
	pop	ebp
	ret	12					; 0000000cH
?classifyAABB@AABBTreeAABB_Builder@ozcollide@@AAEHABVBox@2@HM@Z ENDP ; ozcollide::AABBTreeAABB_Builder::classifyAABB
; Function compile flags: /Odtp
; File i:\svnroot\client\sdk\ozcollide\vector.h
_TEXT	ENDS
;	COMDAT ??0?$Vector@VBox@ozcollide@@@ozcollide@@QAE@XZ
_TEXT	SEGMENT
_this$ = -4						; size = 4
??0?$Vector@VBox@ozcollide@@@ozcollide@@QAE@XZ PROC	; ozcollide::Vector<ozcollide::Box>::Vector<ozcollide::Box>, COMDAT
; _this$ = ecx

; 35   : 	Vector()

	push	ebp
	mov	ebp, esp
	push	ecx
	mov	DWORD PTR _this$[ebp], ecx

; 36   : 	{
; 37   : 		mem_ = NULL;

	mov	eax, DWORD PTR _this$[ebp]
	mov	DWORD PTR [eax], 0

; 38   : 		size_ = 0;

	mov	ecx, DWORD PTR _this$[ebp]
	mov	DWORD PTR [ecx+4], 0

; 39   : 		capacity_ = 0;

	mov	edx, DWORD PTR _this$[ebp]
	mov	DWORD PTR [edx+8], 0

; 40   : 	}

	mov	eax, DWORD PTR _this$[ebp]
	mov	esp, ebp
	pop	ebp
	ret	0
??0?$Vector@VBox@ozcollide@@@ozcollide@@QAE@XZ ENDP	; ozcollide::Vector<ozcollide::Box>::Vector<ozcollide::Box>
_TEXT	ENDS
PUBLIC	?clear@?$Vector@VBox@ozcollide@@@ozcollide@@QAEXXZ ; ozcollide::Vector<ozcollide::Box>::clear
; Function compile flags: /Odtp
;	COMDAT ??1?$Vector@VBox@ozcollide@@@ozcollide@@QAE@XZ
_TEXT	SEGMENT
_this$ = -4						; size = 4
??1?$Vector@VBox@ozcollide@@@ozcollide@@QAE@XZ PROC	; ozcollide::Vector<ozcollide::Box>::~Vector<ozcollide::Box>, COMDAT
; _this$ = ecx

; 43   : 	{

	push	ebp
	mov	ebp, esp
	push	ecx
	mov	DWORD PTR _this$[ebp], ecx

; 44   : 		clear();

	mov	ecx, DWORD PTR _this$[ebp]
	call	?clear@?$Vector@VBox@ozcollide@@@ozcollide@@QAEXXZ ; ozcollide::Vector<ozcollide::Box>::clear

; 45   : 	}

	mov	esp, ebp
	pop	ebp
	ret	0
??1?$Vector@VBox@ozcollide@@@ozcollide@@QAE@XZ ENDP	; ozcollide::Vector<ozcollide::Box>::~Vector<ozcollide::Box>
_TEXT	ENDS
PUBLIC	?resize@?$Vector@VBox@ozcollide@@@ozcollide@@QAEXH@Z ; ozcollide::Vector<ozcollide::Box>::resize
; Function compile flags: /Odtp
;	COMDAT ?add@?$Vector@VBox@ozcollide@@@ozcollide@@QAEXABVBox@2@@Z
_TEXT	SEGMENT
_this$ = -4						; size = 4
__t$ = 8						; size = 4
?add@?$Vector@VBox@ozcollide@@@ozcollide@@QAEXABVBox@2@@Z PROC ; ozcollide::Vector<ozcollide::Box>::add, COMDAT
; _this$ = ecx

; 48   : 	{

	push	ebp
	mov	ebp, esp
	push	ecx
	mov	DWORD PTR _this$[ebp], ecx

; 49   : 		if (size_ < capacity_) {

	mov	eax, DWORD PTR _this$[ebp]
	mov	ecx, DWORD PTR _this$[ebp]
	mov	edx, DWORD PTR [eax+4]
	cmp	edx, DWORD PTR [ecx+8]
	jge	SHORT $LN1@add

; 50   : 			mem_[size_] = _t;

	mov	eax, DWORD PTR __t$[ebp]
	mov	ecx, DWORD PTR _this$[ebp]
	mov	edx, DWORD PTR [ecx+4]
	imul	edx, 24					; 00000018H
	mov	ecx, DWORD PTR _this$[ebp]
	mov	ecx, DWORD PTR [ecx]
	add	ecx, edx
	mov	edx, DWORD PTR [eax]
	mov	DWORD PTR [ecx], edx
	mov	edx, DWORD PTR [eax+4]
	mov	DWORD PTR [ecx+4], edx
	mov	edx, DWORD PTR [eax+8]
	mov	DWORD PTR [ecx+8], edx
	mov	edx, DWORD PTR [eax+12]
	mov	DWORD PTR [ecx+12], edx
	mov	edx, DWORD PTR [eax+16]
	mov	DWORD PTR [ecx+16], edx
	mov	eax, DWORD PTR [eax+20]
	mov	DWORD PTR [ecx+20], eax

; 51   : 			size_++;

	mov	ecx, DWORD PTR _this$[ebp]
	mov	edx, DWORD PTR [ecx+4]
	add	edx, 1
	mov	eax, DWORD PTR _this$[ebp]
	mov	DWORD PTR [eax+4], edx

; 52   : 			return;

	jmp	SHORT $LN2@add
$LN1@add:

; 53   : 		}
; 54   : 
; 55   : 		resize(size_ + 1);

	mov	ecx, DWORD PTR _this$[ebp]
	mov	edx, DWORD PTR [ecx+4]
	add	edx, 1
	push	edx
	mov	ecx, DWORD PTR _this$[ebp]
	call	?resize@?$Vector@VBox@ozcollide@@@ozcollide@@QAEXH@Z ; ozcollide::Vector<ozcollide::Box>::resize

; 56   : 		mem_[size_ - 1] = _t;

	mov	eax, DWORD PTR __t$[ebp]
	mov	ecx, DWORD PTR _this$[ebp]
	mov	edx, DWORD PTR [ecx+4]
	sub	edx, 1
	imul	edx, 24					; 00000018H
	mov	ecx, DWORD PTR _this$[ebp]
	mov	ecx, DWORD PTR [ecx]
	add	ecx, edx
	mov	edx, DWORD PTR [eax]
	mov	DWORD PTR [ecx], edx
	mov	edx, DWORD PTR [eax+4]
	mov	DWORD PTR [ecx+4], edx
	mov	edx, DWORD PTR [eax+8]
	mov	DWORD PTR [ecx+8], edx
	mov	edx, DWORD PTR [eax+12]
	mov	DWORD PTR [ecx+12], edx
	mov	edx, DWORD PTR [eax+16]
	mov	DWORD PTR [ecx+16], edx
	mov	eax, DWORD PTR [eax+20]
	mov	DWORD PTR [ecx+20], eax
$LN2@add:

; 57   : 	}

	mov	esp, ebp
	pop	ebp
	ret	4
?add@?$Vector@VBox@ozcollide@@@ozcollide@@QAEXABVBox@2@@Z ENDP ; ozcollide::Vector<ozcollide::Box>::add
; Function compile flags: /Odtp
_TEXT	ENDS
;	COMDAT ?grow@?$Vector@VBox@ozcollide@@@ozcollide@@QAEXH@Z
_TEXT	SEGMENT
_this$ = -4						; size = 4
__size$ = 8						; size = 4
?grow@?$Vector@VBox@ozcollide@@@ozcollide@@QAEXH@Z PROC	; ozcollide::Vector<ozcollide::Box>::grow, COMDAT
; _this$ = ecx

; 140  : 	{

	push	ebp
	mov	ebp, esp
	push	ecx
	mov	DWORD PTR _this$[ebp], ecx

; 141  : 		resize(size_ + _size);

	mov	eax, DWORD PTR _this$[ebp]
	mov	ecx, DWORD PTR [eax+4]
	add	ecx, DWORD PTR __size$[ebp]
	push	ecx
	mov	ecx, DWORD PTR _this$[ebp]
	call	?resize@?$Vector@VBox@ozcollide@@@ozcollide@@QAEXH@Z ; ozcollide::Vector<ozcollide::Box>::resize

; 142  : 	}

	mov	esp, ebp
	pop	ebp
	ret	4
?grow@?$Vector@VBox@ozcollide@@@ozcollide@@QAEXH@Z ENDP	; ozcollide::Vector<ozcollide::Box>::grow
; Function compile flags: /Odtp
_TEXT	ENDS
;	COMDAT ?size@?$Vector@VBox@ozcollide@@@ozcollide@@QBEHXZ
_TEXT	SEGMENT
_this$ = -4						; size = 4
?size@?$Vector@VBox@ozcollide@@@ozcollide@@QBEHXZ PROC	; ozcollide::Vector<ozcollide::Box>::size, COMDAT
; _this$ = ecx

; 160  : 	{

	push	ebp
	mov	ebp, esp
	push	ecx
	mov	DWORD PTR _this$[ebp], ecx

; 161  : 		return size_;

	mov	eax, DWORD PTR _this$[ebp]
	mov	eax, DWORD PTR [eax+4]

; 162  : 	}

	mov	esp, ebp
	pop	ebp
	ret	0
?size@?$Vector@VBox@ozcollide@@@ozcollide@@QBEHXZ ENDP	; ozcollide::Vector<ozcollide::Box>::size
; Function compile flags: /Odtp
_TEXT	ENDS
;	COMDAT ??A?$Vector@VBox@ozcollide@@@ozcollide@@QBEAAVBox@1@H@Z
_TEXT	SEGMENT
_this$ = -4						; size = 4
_index$ = 8						; size = 4
??A?$Vector@VBox@ozcollide@@@ozcollide@@QBEAAVBox@1@H@Z PROC ; ozcollide::Vector<ozcollide::Box>::operator[], COMDAT
; _this$ = ecx

; 198  : 	{

	push	ebp
	mov	ebp, esp
	push	ecx
	mov	DWORD PTR _this$[ebp], ecx

; 199  : 		return mem_[index];

	mov	eax, DWORD PTR _index$[ebp]
	imul	eax, 24					; 00000018H
	mov	ecx, DWORD PTR _this$[ebp]
	add	eax, DWORD PTR [ecx]

; 200  : 	}

	mov	esp, ebp
	pop	ebp
	ret	4
??A?$Vector@VBox@ozcollide@@@ozcollide@@QBEAAVBox@1@H@Z ENDP ; ozcollide::Vector<ozcollide::Box>::operator[]
; Function compile flags: /Odtp
_TEXT	ENDS
;	COMDAT ??0?$Vector@PAVWorkingItem@AABBTreeAABB_Builder@ozcollide@@@ozcollide@@QAE@XZ
_TEXT	SEGMENT
_this$ = -4						; size = 4
??0?$Vector@PAVWorkingItem@AABBTreeAABB_Builder@ozcollide@@@ozcollide@@QAE@XZ PROC ; ozcollide::Vector<ozcollide::AABBTreeAABB_Builder::WorkingItem *>::Vector<ozcollide::AABBTreeAABB_Builder::WorkingItem *>, COMDAT
; _this$ = ecx

; 35   : 	Vector()

	push	ebp
	mov	ebp, esp
	push	ecx
	mov	DWORD PTR _this$[ebp], ecx

; 36   : 	{
; 37   : 		mem_ = NULL;

	mov	eax, DWORD PTR _this$[ebp]
	mov	DWORD PTR [eax], 0

; 38   : 		size_ = 0;

	mov	ecx, DWORD PTR _this$[ebp]
	mov	DWORD PTR [ecx+4], 0

; 39   : 		capacity_ = 0;

	mov	edx, DWORD PTR _this$[ebp]
	mov	DWORD PTR [edx+8], 0

; 40   : 	}

	mov	eax, DWORD PTR _this$[ebp]
	mov	esp, ebp
	pop	ebp
	ret	0
??0?$Vector@PAVWorkingItem@AABBTreeAABB_Builder@ozcollide@@@ozcollide@@QAE@XZ ENDP ; ozcollide::Vector<ozcollide::AABBTreeAABB_Builder::WorkingItem *>::Vector<ozcollide::AABBTreeAABB_Builder::WorkingItem *>
; Function compile flags: /Odtp
_TEXT	ENDS
;	COMDAT ??1?$Vector@PAVWorkingItem@AABBTreeAABB_Builder@ozcollide@@@ozcollide@@QAE@XZ
_TEXT	SEGMENT
_this$ = -4						; size = 4
??1?$Vector@PAVWorkingItem@AABBTreeAABB_Builder@ozcollide@@@ozcollide@@QAE@XZ PROC ; ozcollide::Vector<ozcollide::AABBTreeAABB_Builder::WorkingItem *>::~Vector<ozcollide::AABBTreeAABB_Builder::WorkingItem *>, COMDAT
; _this$ = ecx

; 43   : 	{

	push	ebp
	mov	ebp, esp
	push	ecx
	mov	DWORD PTR _this$[ebp], ecx

; 44   : 		clear();

	mov	ecx, DWORD PTR _this$[ebp]
	call	?clear@?$Vector@PAVWorkingItem@AABBTreeAABB_Builder@ozcollide@@@ozcollide@@QAEXXZ ; ozcollide::Vector<ozcollide::AABBTreeAABB_Builder::WorkingItem *>::clear

; 45   : 	}

	mov	esp, ebp
	pop	ebp
	ret	0
??1?$Vector@PAVWorkingItem@AABBTreeAABB_Builder@ozcollide@@@ozcollide@@QAE@XZ ENDP ; ozcollide::Vector<ozcollide::AABBTreeAABB_Builder::WorkingItem *>::~Vector<ozcollide::AABBTreeAABB_Builder::WorkingItem *>
_TEXT	ENDS
PUBLIC	?resize@?$Vector@PAVWorkingItem@AABBTreeAABB_Builder@ozcollide@@@ozcollide@@QAEXH@Z ; ozcollide::Vector<ozcollide::AABBTreeAABB_Builder::WorkingItem *>::resize
; Function compile flags: /Odtp
;	COMDAT ?add@?$Vector@PAVWorkingItem@AABBTreeAABB_Builder@ozcollide@@@ozcollide@@QAEXABQAVWorkingItem@AABBTreeAABB_Builder@2@@Z
_TEXT	SEGMENT
_this$ = -4						; size = 4
__t$ = 8						; size = 4
?add@?$Vector@PAVWorkingItem@AABBTreeAABB_Builder@ozcollide@@@ozcollide@@QAEXABQAVWorkingItem@AABBTreeAABB_Builder@2@@Z PROC ; ozcollide::Vector<ozcollide::AABBTreeAABB_Builder::WorkingItem *>::add, COMDAT
; _this$ = ecx

; 48   : 	{

	push	ebp
	mov	ebp, esp
	push	ecx
	mov	DWORD PTR _this$[ebp], ecx

; 49   : 		if (size_ < capacity_) {

	mov	eax, DWORD PTR _this$[ebp]
	mov	ecx, DWORD PTR _this$[ebp]
	mov	edx, DWORD PTR [eax+4]
	cmp	edx, DWORD PTR [ecx+8]
	jge	SHORT $LN1@add@2

; 50   : 			mem_[size_] = _t;

	mov	eax, DWORD PTR _this$[ebp]
	mov	ecx, DWORD PTR [eax+4]
	mov	edx, DWORD PTR _this$[ebp]
	mov	eax, DWORD PTR [edx]
	mov	edx, DWORD PTR __t$[ebp]
	mov	edx, DWORD PTR [edx]
	mov	DWORD PTR [eax+ecx*4], edx

; 51   : 			size_++;

	mov	eax, DWORD PTR _this$[ebp]
	mov	ecx, DWORD PTR [eax+4]
	add	ecx, 1
	mov	edx, DWORD PTR _this$[ebp]
	mov	DWORD PTR [edx+4], ecx

; 52   : 			return;

	jmp	SHORT $LN2@add@2
$LN1@add@2:

; 53   : 		}
; 54   : 
; 55   : 		resize(size_ + 1);

	mov	eax, DWORD PTR _this$[ebp]
	mov	ecx, DWORD PTR [eax+4]
	add	ecx, 1
	push	ecx
	mov	ecx, DWORD PTR _this$[ebp]
	call	?resize@?$Vector@PAVWorkingItem@AABBTreeAABB_Builder@ozcollide@@@ozcollide@@QAEXH@Z ; ozcollide::Vector<ozcollide::AABBTreeAABB_Builder::WorkingItem *>::resize

; 56   : 		mem_[size_ - 1] = _t;

	mov	edx, DWORD PTR _this$[ebp]
	mov	eax, DWORD PTR [edx+4]
	mov	ecx, DWORD PTR _this$[ebp]
	mov	edx, DWORD PTR [ecx]
	mov	ecx, DWORD PTR __t$[ebp]
	mov	ecx, DWORD PTR [ecx]
	mov	DWORD PTR [edx+eax*4-4], ecx
$LN2@add@2:

; 57   : 	}

	mov	esp, ebp
	pop	ebp
	ret	4
?add@?$Vector@PAVWorkingItem@AABBTreeAABB_Builder@ozcollide@@@ozcollide@@QAEXABQAVWorkingItem@AABBTreeAABB_Builder@2@@Z ENDP ; ozcollide::Vector<ozcollide::AABBTreeAABB_Builder::WorkingItem *>::add
_TEXT	ENDS
EXTRN	__imp__free:PROC
; Function compile flags: /Odtp
;	COMDAT ?clear@?$Vector@PAVWorkingItem@AABBTreeAABB_Builder@ozcollide@@@ozcollide@@QAEXXZ
_TEXT	SEGMENT
_this$ = -4						; size = 4
?clear@?$Vector@PAVWorkingItem@AABBTreeAABB_Builder@ozcollide@@@ozcollide@@QAEXXZ PROC ; ozcollide::Vector<ozcollide::AABBTreeAABB_Builder::WorkingItem *>::clear, COMDAT
; _this$ = ecx

; 151  : 	{

	push	ebp
	mov	ebp, esp
	push	ecx
	mov	DWORD PTR _this$[ebp], ecx

; 152  : 		if (mem_)

	mov	eax, DWORD PTR _this$[ebp]
	cmp	DWORD PTR [eax], 0
	je	SHORT $LN1@clear

; 153  : 			free(mem_);

	mov	ecx, DWORD PTR _this$[ebp]
	mov	edx, DWORD PTR [ecx]
	push	edx
	call	DWORD PTR __imp__free
	add	esp, 4
$LN1@clear:

; 154  : 		mem_ = NULL;

	mov	eax, DWORD PTR _this$[ebp]
	mov	DWORD PTR [eax], 0

; 155  : 		size_ = 0;

	mov	ecx, DWORD PTR _this$[ebp]
	mov	DWORD PTR [ecx+4], 0

; 156  : 		capacity_ = 0;

	mov	edx, DWORD PTR _this$[ebp]
	mov	DWORD PTR [edx+8], 0

; 157  : 	}

	mov	esp, ebp
	pop	ebp
	ret	0
?clear@?$Vector@PAVWorkingItem@AABBTreeAABB_Builder@ozcollide@@@ozcollide@@QAEXXZ ENDP ; ozcollide::Vector<ozcollide::AABBTreeAABB_Builder::WorkingItem *>::clear
; Function compile flags: /Odtp
_TEXT	ENDS
;	COMDAT ?size@?$Vector@PAVWorkingItem@AABBTreeAABB_Builder@ozcollide@@@ozcollide@@QBEHXZ
_TEXT	SEGMENT
_this$ = -4						; size = 4
?size@?$Vector@PAVWorkingItem@AABBTreeAABB_Builder@ozcollide@@@ozcollide@@QBEHXZ PROC ; ozcollide::Vector<ozcollide::AABBTreeAABB_Builder::WorkingItem *>::size, COMDAT
; _this$ = ecx

; 160  : 	{

	push	ebp
	mov	ebp, esp
	push	ecx
	mov	DWORD PTR _this$[ebp], ecx

; 161  : 		return size_;

	mov	eax, DWORD PTR _this$[ebp]
	mov	eax, DWORD PTR [eax+4]

; 162  : 	}

	mov	esp, ebp
	pop	ebp
	ret	0
?size@?$Vector@PAVWorkingItem@AABBTreeAABB_Builder@ozcollide@@@ozcollide@@QBEHXZ ENDP ; ozcollide::Vector<ozcollide::AABBTreeAABB_Builder::WorkingItem *>::size
; Function compile flags: /Odtp
_TEXT	ENDS
;	COMDAT ??A?$Vector@PAVWorkingItem@AABBTreeAABB_Builder@ozcollide@@@ozcollide@@QBEAAPAVWorkingItem@AABBTreeAABB_Builder@1@H@Z
_TEXT	SEGMENT
_this$ = -4						; size = 4
_index$ = 8						; size = 4
??A?$Vector@PAVWorkingItem@AABBTreeAABB_Builder@ozcollide@@@ozcollide@@QBEAAPAVWorkingItem@AABBTreeAABB_Builder@1@H@Z PROC ; ozcollide::Vector<ozcollide::AABBTreeAABB_Builder::WorkingItem *>::operator[], COMDAT
; _this$ = ecx

; 198  : 	{

	push	ebp
	mov	ebp, esp
	push	ecx
	mov	DWORD PTR _this$[ebp], ecx

; 199  : 		return mem_[index];

	mov	eax, DWORD PTR _this$[ebp]
	mov	ecx, DWORD PTR [eax]
	mov	edx, DWORD PTR _index$[ebp]
	lea	eax, DWORD PTR [ecx+edx*4]

; 200  : 	}

	mov	esp, ebp
	pop	ebp
	ret	4
??A?$Vector@PAVWorkingItem@AABBTreeAABB_Builder@ozcollide@@@ozcollide@@QBEAAPAVWorkingItem@AABBTreeAABB_Builder@1@H@Z ENDP ; ozcollide::Vector<ozcollide::AABBTreeAABB_Builder::WorkingItem *>::operator[]
_TEXT	ENDS
PUBLIC	?reserve@?$Vector@VBox@ozcollide@@@ozcollide@@QAEXH@Z ; ozcollide::Vector<ozcollide::Box>::reserve
; Function compile flags: /Odtp
;	COMDAT ?resize@?$Vector@VBox@ozcollide@@@ozcollide@@QAEXH@Z
_TEXT	SEGMENT
_this$ = -4						; size = 4
__size$ = 8						; size = 4
?resize@?$Vector@VBox@ozcollide@@@ozcollide@@QAEXH@Z PROC ; ozcollide::Vector<ozcollide::Box>::resize, COMDAT
; _this$ = ecx

; 122  : 	{

	push	ebp
	mov	ebp, esp
	push	ecx
	mov	DWORD PTR _this$[ebp], ecx

; 123  : 		if (_size > capacity_)

	mov	eax, DWORD PTR _this$[ebp]
	mov	ecx, DWORD PTR __size$[ebp]
	cmp	ecx, DWORD PTR [eax+8]
	jle	SHORT $LN1@resize

; 124  : 			reserve(_size * 2);

	mov	edx, DWORD PTR __size$[ebp]
	shl	edx, 1
	push	edx
	mov	ecx, DWORD PTR _this$[ebp]
	call	?reserve@?$Vector@VBox@ozcollide@@@ozcollide@@QAEXH@Z ; ozcollide::Vector<ozcollide::Box>::reserve
$LN1@resize:

; 125  : 		size_ = _size;

	mov	eax, DWORD PTR _this$[ebp]
	mov	ecx, DWORD PTR __size$[ebp]
	mov	DWORD PTR [eax+4], ecx

; 126  : 	}

	mov	esp, ebp
	pop	ebp
	ret	4
?resize@?$Vector@VBox@ozcollide@@@ozcollide@@QAEXH@Z ENDP ; ozcollide::Vector<ozcollide::Box>::resize
; Function compile flags: /Odtp
_TEXT	ENDS
;	COMDAT ?clear@?$Vector@VBox@ozcollide@@@ozcollide@@QAEXXZ
_TEXT	SEGMENT
_this$ = -4						; size = 4
?clear@?$Vector@VBox@ozcollide@@@ozcollide@@QAEXXZ PROC	; ozcollide::Vector<ozcollide::Box>::clear, COMDAT
; _this$ = ecx

; 151  : 	{

	push	ebp
	mov	ebp, esp
	push	ecx
	mov	DWORD PTR _this$[ebp], ecx

; 152  : 		if (mem_)

	mov	eax, DWORD PTR _this$[ebp]
	cmp	DWORD PTR [eax], 0
	je	SHORT $LN1@clear@2

; 153  : 			free(mem_);

	mov	ecx, DWORD PTR _this$[ebp]
	mov	edx, DWORD PTR [ecx]
	push	edx
	call	DWORD PTR __imp__free
	add	esp, 4
$LN1@clear@2:

; 154  : 		mem_ = NULL;

	mov	eax, DWORD PTR _this$[ebp]
	mov	DWORD PTR [eax], 0

; 155  : 		size_ = 0;

	mov	ecx, DWORD PTR _this$[ebp]
	mov	DWORD PTR [ecx+4], 0

; 156  : 		capacity_ = 0;

	mov	edx, DWORD PTR _this$[ebp]
	mov	DWORD PTR [edx+8], 0

; 157  : 	}

	mov	esp, ebp
	pop	ebp
	ret	0
?clear@?$Vector@VBox@ozcollide@@@ozcollide@@QAEXXZ ENDP	; ozcollide::Vector<ozcollide::Box>::clear
_TEXT	ENDS
PUBLIC	?reserve@?$Vector@PAVWorkingItem@AABBTreeAABB_Builder@ozcollide@@@ozcollide@@QAEXH@Z ; ozcollide::Vector<ozcollide::AABBTreeAABB_Builder::WorkingItem *>::reserve
; Function compile flags: /Odtp
;	COMDAT ?resize@?$Vector@PAVWorkingItem@AABBTreeAABB_Builder@ozcollide@@@ozcollide@@QAEXH@Z
_TEXT	SEGMENT
_this$ = -4						; size = 4
__size$ = 8						; size = 4
?resize@?$Vector@PAVWorkingItem@AABBTreeAABB_Builder@ozcollide@@@ozcollide@@QAEXH@Z PROC ; ozcollide::Vector<ozcollide::AABBTreeAABB_Builder::WorkingItem *>::resize, COMDAT
; _this$ = ecx

; 122  : 	{

	push	ebp
	mov	ebp, esp
	push	ecx
	mov	DWORD PTR _this$[ebp], ecx

; 123  : 		if (_size > capacity_)

	mov	eax, DWORD PTR _this$[ebp]
	mov	ecx, DWORD PTR __size$[ebp]
	cmp	ecx, DWORD PTR [eax+8]
	jle	SHORT $LN1@resize@2

; 124  : 			reserve(_size * 2);

	mov	edx, DWORD PTR __size$[ebp]
	shl	edx, 1
	push	edx
	mov	ecx, DWORD PTR _this$[ebp]
	call	?reserve@?$Vector@PAVWorkingItem@AABBTreeAABB_Builder@ozcollide@@@ozcollide@@QAEXH@Z ; ozcollide::Vector<ozcollide::AABBTreeAABB_Builder::WorkingItem *>::reserve
$LN1@resize@2:

; 125  : 		size_ = _size;

	mov	eax, DWORD PTR _this$[ebp]
	mov	ecx, DWORD PTR __size$[ebp]
	mov	DWORD PTR [eax+4], ecx

; 126  : 	}

	mov	esp, ebp
	pop	ebp
	ret	4
?resize@?$Vector@PAVWorkingItem@AABBTreeAABB_Builder@ozcollide@@@ozcollide@@QAEXH@Z ENDP ; ozcollide::Vector<ozcollide::AABBTreeAABB_Builder::WorkingItem *>::resize
_TEXT	ENDS
EXTRN	_memcpy:PROC
EXTRN	__imp__malloc:PROC
; Function compile flags: /Odtp
;	COMDAT ?reserve@?$Vector@VBox@ozcollide@@@ozcollide@@QAEXH@Z
_TEXT	SEGMENT
tv70 = -16						; size = 4
_this$ = -12						; size = 4
_toCopy$ = -8						; size = 4
_old$ = -4						; size = 4
__capacity$ = 8						; size = 4
?reserve@?$Vector@VBox@ozcollide@@@ozcollide@@QAEXH@Z PROC ; ozcollide::Vector<ozcollide::Box>::reserve, COMDAT
; _this$ = ecx

; 129  : 	{

	push	ebp
	mov	ebp, esp
	sub	esp, 16					; 00000010H
	mov	DWORD PTR _this$[ebp], ecx

; 130  : 		T *old = mem_;

	mov	eax, DWORD PTR _this$[ebp]
	mov	ecx, DWORD PTR [eax]
	mov	DWORD PTR _old$[ebp], ecx

; 131  : 		mem_ = (T*) malloc(_capacity * sizeof(T));

	mov	edx, DWORD PTR __capacity$[ebp]
	imul	edx, 24					; 00000018H
	push	edx
	call	DWORD PTR __imp__malloc
	add	esp, 4
	mov	ecx, DWORD PTR _this$[ebp]
	mov	DWORD PTR [ecx], eax

; 132  : 		int toCopy = _capacity > capacity_ ? capacity_ : _capacity;

	mov	edx, DWORD PTR _this$[ebp]
	mov	eax, DWORD PTR __capacity$[ebp]
	cmp	eax, DWORD PTR [edx+8]
	jle	SHORT $LN4@reserve
	mov	ecx, DWORD PTR _this$[ebp]
	mov	edx, DWORD PTR [ecx+8]
	mov	DWORD PTR tv70[ebp], edx
	jmp	SHORT $LN5@reserve
$LN4@reserve:
	mov	eax, DWORD PTR __capacity$[ebp]
	mov	DWORD PTR tv70[ebp], eax
$LN5@reserve:
	mov	ecx, DWORD PTR tv70[ebp]
	mov	DWORD PTR _toCopy$[ebp], ecx

; 133  : 		memcpy(mem_, old, toCopy * sizeof(T));

	mov	edx, DWORD PTR _toCopy$[ebp]
	imul	edx, 24					; 00000018H
	push	edx
	mov	eax, DWORD PTR _old$[ebp]
	push	eax
	mov	ecx, DWORD PTR _this$[ebp]
	mov	edx, DWORD PTR [ecx]
	push	edx
	call	_memcpy
	add	esp, 12					; 0000000cH

; 134  : 		if (old)

	cmp	DWORD PTR _old$[ebp], 0
	je	SHORT $LN1@reserve

; 135  : 			free(old);

	mov	eax, DWORD PTR _old$[ebp]
	push	eax
	call	DWORD PTR __imp__free
	add	esp, 4
$LN1@reserve:

; 136  : 		capacity_ = _capacity;

	mov	ecx, DWORD PTR _this$[ebp]
	mov	edx, DWORD PTR __capacity$[ebp]
	mov	DWORD PTR [ecx+8], edx

; 137  : 	}

	mov	esp, ebp
	pop	ebp
	ret	4
?reserve@?$Vector@VBox@ozcollide@@@ozcollide@@QAEXH@Z ENDP ; ozcollide::Vector<ozcollide::Box>::reserve
; Function compile flags: /Odtp
_TEXT	ENDS
;	COMDAT ?reserve@?$Vector@PAVWorkingItem@AABBTreeAABB_Builder@ozcollide@@@ozcollide@@QAEXH@Z
_TEXT	SEGMENT
tv70 = -16						; size = 4
_this$ = -12						; size = 4
_toCopy$ = -8						; size = 4
_old$ = -4						; size = 4
__capacity$ = 8						; size = 4
?reserve@?$Vector@PAVWorkingItem@AABBTreeAABB_Builder@ozcollide@@@ozcollide@@QAEXH@Z PROC ; ozcollide::Vector<ozcollide::AABBTreeAABB_Builder::WorkingItem *>::reserve, COMDAT
; _this$ = ecx

; 129  : 	{

	push	ebp
	mov	ebp, esp
	sub	esp, 16					; 00000010H
	mov	DWORD PTR _this$[ebp], ecx

; 130  : 		T *old = mem_;

	mov	eax, DWORD PTR _this$[ebp]
	mov	ecx, DWORD PTR [eax]
	mov	DWORD PTR _old$[ebp], ecx

; 131  : 		mem_ = (T*) malloc(_capacity * sizeof(T));

	mov	edx, DWORD PTR __capacity$[ebp]
	shl	edx, 2
	push	edx
	call	DWORD PTR __imp__malloc
	add	esp, 4
	mov	ecx, DWORD PTR _this$[ebp]
	mov	DWORD PTR [ecx], eax

; 132  : 		int toCopy = _capacity > capacity_ ? capacity_ : _capacity;

	mov	edx, DWORD PTR _this$[ebp]
	mov	eax, DWORD PTR __capacity$[ebp]
	cmp	eax, DWORD PTR [edx+8]
	jle	SHORT $LN4@reserve@2
	mov	ecx, DWORD PTR _this$[ebp]
	mov	edx, DWORD PTR [ecx+8]
	mov	DWORD PTR tv70[ebp], edx
	jmp	SHORT $LN5@reserve@2
$LN4@reserve@2:
	mov	eax, DWORD PTR __capacity$[ebp]
	mov	DWORD PTR tv70[ebp], eax
$LN5@reserve@2:
	mov	ecx, DWORD PTR tv70[ebp]
	mov	DWORD PTR _toCopy$[ebp], ecx

; 133  : 		memcpy(mem_, old, toCopy * sizeof(T));

	mov	edx, DWORD PTR _toCopy$[ebp]
	shl	edx, 2
	push	edx
	mov	eax, DWORD PTR _old$[ebp]
	push	eax
	mov	ecx, DWORD PTR _this$[ebp]
	mov	edx, DWORD PTR [ecx]
	push	edx
	call	_memcpy
	add	esp, 12					; 0000000cH

; 134  : 		if (old)

	cmp	DWORD PTR _old$[ebp], 0
	je	SHORT $LN1@reserve@2

; 135  : 			free(old);

	mov	eax, DWORD PTR _old$[ebp]
	push	eax
	call	DWORD PTR __imp__free
	add	esp, 4
$LN1@reserve@2:

; 136  : 		capacity_ = _capacity;

	mov	ecx, DWORD PTR _this$[ebp]
	mov	edx, DWORD PTR __capacity$[ebp]
	mov	DWORD PTR [ecx+8], edx

; 137  : 	}

	mov	esp, ebp
	pop	ebp
	ret	4
?reserve@?$Vector@PAVWorkingItem@AABBTreeAABB_Builder@ozcollide@@@ozcollide@@QAEXH@Z ENDP ; ozcollide::Vector<ozcollide::AABBTreeAABB_Builder::WorkingItem *>::reserve
_TEXT	ENDS
END
