; Listing generated by Microsoft (R) Optimizing Compiler Version 15.00.30729.01 

	TITLE	i:\svnroot\client\OgreMain\OgreMorphAnimData.cpp
	.686P
	.XMM
	include listing.inc
	.model	flat

INCLUDELIB MSVCRT
INCLUDELIB OLDNAMES

PUBLIC	?_Value@?$_Is_swap_move@U_Swap_move_tag@std@@@std@@2_NB ; std::_Is_swap_move<std::_Swap_move_tag>::_Value
PUBLIC	?collate@?$_Locbase@H@std@@2HB			; std::_Locbase<int>::collate
PUBLIC	?ctype@?$_Locbase@H@std@@2HB			; std::_Locbase<int>::ctype
PUBLIC	?monetary@?$_Locbase@H@std@@2HB			; std::_Locbase<int>::monetary
PUBLIC	?numeric@?$_Locbase@H@std@@2HB			; std::_Locbase<int>::numeric
PUBLIC	?time@?$_Locbase@H@std@@2HB			; std::_Locbase<int>::time
PUBLIC	?messages@?$_Locbase@H@std@@2HB			; std::_Locbase<int>::messages
PUBLIC	?all@?$_Locbase@H@std@@2HB			; std::_Locbase<int>::all
PUBLIC	?none@?$_Locbase@H@std@@2HB			; std::_Locbase<int>::none
PUBLIC	?skipws@?$_Iosb@H@std@@2W4_Fmtflags@12@B	; std::_Iosb<int>::skipws
PUBLIC	?unitbuf@?$_Iosb@H@std@@2W4_Fmtflags@12@B	; std::_Iosb<int>::unitbuf
PUBLIC	?uppercase@?$_Iosb@H@std@@2W4_Fmtflags@12@B	; std::_Iosb<int>::uppercase
PUBLIC	?showbase@?$_Iosb@H@std@@2W4_Fmtflags@12@B	; std::_Iosb<int>::showbase
PUBLIC	?showpoint@?$_Iosb@H@std@@2W4_Fmtflags@12@B	; std::_Iosb<int>::showpoint
PUBLIC	?showpos@?$_Iosb@H@std@@2W4_Fmtflags@12@B	; std::_Iosb<int>::showpos
PUBLIC	?left@?$_Iosb@H@std@@2W4_Fmtflags@12@B		; std::_Iosb<int>::left
PUBLIC	?right@?$_Iosb@H@std@@2W4_Fmtflags@12@B		; std::_Iosb<int>::right
PUBLIC	?internal@?$_Iosb@H@std@@2W4_Fmtflags@12@B	; std::_Iosb<int>::internal
PUBLIC	?dec@?$_Iosb@H@std@@2W4_Fmtflags@12@B		; std::_Iosb<int>::dec
PUBLIC	?oct@?$_Iosb@H@std@@2W4_Fmtflags@12@B		; std::_Iosb<int>::oct
PUBLIC	?hex@?$_Iosb@H@std@@2W4_Fmtflags@12@B		; std::_Iosb<int>::hex
PUBLIC	?scientific@?$_Iosb@H@std@@2W4_Fmtflags@12@B	; std::_Iosb<int>::scientific
PUBLIC	?fixed@?$_Iosb@H@std@@2W4_Fmtflags@12@B		; std::_Iosb<int>::fixed
PUBLIC	?hexfloat@?$_Iosb@H@std@@2W4_Fmtflags@12@B	; std::_Iosb<int>::hexfloat
PUBLIC	?boolalpha@?$_Iosb@H@std@@2W4_Fmtflags@12@B	; std::_Iosb<int>::boolalpha
PUBLIC	?_Stdio@?$_Iosb@H@std@@2W4_Fmtflags@12@B	; std::_Iosb<int>::_Stdio
PUBLIC	?adjustfield@?$_Iosb@H@std@@2W4_Fmtflags@12@B	; std::_Iosb<int>::adjustfield
PUBLIC	?basefield@?$_Iosb@H@std@@2W4_Fmtflags@12@B	; std::_Iosb<int>::basefield
PUBLIC	?floatfield@?$_Iosb@H@std@@2W4_Fmtflags@12@B	; std::_Iosb<int>::floatfield
PUBLIC	?goodbit@?$_Iosb@H@std@@2W4_Iostate@12@B	; std::_Iosb<int>::goodbit
PUBLIC	?eofbit@?$_Iosb@H@std@@2W4_Iostate@12@B		; std::_Iosb<int>::eofbit
PUBLIC	?failbit@?$_Iosb@H@std@@2W4_Iostate@12@B	; std::_Iosb<int>::failbit
PUBLIC	?badbit@?$_Iosb@H@std@@2W4_Iostate@12@B		; std::_Iosb<int>::badbit
PUBLIC	?_Hardfail@?$_Iosb@H@std@@2W4_Iostate@12@B	; std::_Iosb<int>::_Hardfail
PUBLIC	?in@?$_Iosb@H@std@@2W4_Openmode@12@B		; std::_Iosb<int>::in
PUBLIC	?out@?$_Iosb@H@std@@2W4_Openmode@12@B		; std::_Iosb<int>::out
PUBLIC	?ate@?$_Iosb@H@std@@2W4_Openmode@12@B		; std::_Iosb<int>::ate
PUBLIC	?app@?$_Iosb@H@std@@2W4_Openmode@12@B		; std::_Iosb<int>::app
PUBLIC	?trunc@?$_Iosb@H@std@@2W4_Openmode@12@B		; std::_Iosb<int>::trunc
PUBLIC	?_Nocreate@?$_Iosb@H@std@@2W4_Openmode@12@B	; std::_Iosb<int>::_Nocreate
PUBLIC	?_Noreplace@?$_Iosb@H@std@@2W4_Openmode@12@B	; std::_Iosb<int>::_Noreplace
PUBLIC	?binary@?$_Iosb@H@std@@2W4_Openmode@12@B	; std::_Iosb<int>::binary
PUBLIC	?beg@?$_Iosb@H@std@@2W4_Seekdir@12@B		; std::_Iosb<int>::beg
PUBLIC	?cur@?$_Iosb@H@std@@2W4_Seekdir@12@B		; std::_Iosb<int>::cur
PUBLIC	?end@?$_Iosb@H@std@@2W4_Seekdir@12@B		; std::_Iosb<int>::end
PUBLIC	?value@?$integral_constant@_N$0A@@tr1@std@@2_NB	; std::tr1::integral_constant<bool,0>::value
PUBLIC	?value@?$integral_constant@_N$00@tr1@std@@2_NB	; std::tr1::integral_constant<bool,1>::value
;	COMDAT ?value@?$integral_constant@_N$00@tr1@std@@2_NB
CONST	SEGMENT
?value@?$integral_constant@_N$00@tr1@std@@2_NB DB 01H	; std::tr1::integral_constant<bool,1>::value
CONST	ENDS
;	COMDAT ?value@?$integral_constant@_N$0A@@tr1@std@@2_NB
CONST	SEGMENT
?value@?$integral_constant@_N$0A@@tr1@std@@2_NB DB 00H	; std::tr1::integral_constant<bool,0>::value
CONST	ENDS
;	COMDAT ?end@?$_Iosb@H@std@@2W4_Seekdir@12@B
CONST	SEGMENT
?end@?$_Iosb@H@std@@2W4_Seekdir@12@B DD 02H		; std::_Iosb<int>::end
CONST	ENDS
;	COMDAT ?cur@?$_Iosb@H@std@@2W4_Seekdir@12@B
CONST	SEGMENT
?cur@?$_Iosb@H@std@@2W4_Seekdir@12@B DD 01H		; std::_Iosb<int>::cur
CONST	ENDS
;	COMDAT ?beg@?$_Iosb@H@std@@2W4_Seekdir@12@B
CONST	SEGMENT
?beg@?$_Iosb@H@std@@2W4_Seekdir@12@B DD 00H		; std::_Iosb<int>::beg
CONST	ENDS
;	COMDAT ?binary@?$_Iosb@H@std@@2W4_Openmode@12@B
CONST	SEGMENT
?binary@?$_Iosb@H@std@@2W4_Openmode@12@B DD 020H	; std::_Iosb<int>::binary
CONST	ENDS
;	COMDAT ?_Noreplace@?$_Iosb@H@std@@2W4_Openmode@12@B
CONST	SEGMENT
?_Noreplace@?$_Iosb@H@std@@2W4_Openmode@12@B DD 080H	; std::_Iosb<int>::_Noreplace
CONST	ENDS
;	COMDAT ?_Nocreate@?$_Iosb@H@std@@2W4_Openmode@12@B
CONST	SEGMENT
?_Nocreate@?$_Iosb@H@std@@2W4_Openmode@12@B DD 040H	; std::_Iosb<int>::_Nocreate
CONST	ENDS
;	COMDAT ?trunc@?$_Iosb@H@std@@2W4_Openmode@12@B
CONST	SEGMENT
?trunc@?$_Iosb@H@std@@2W4_Openmode@12@B DD 010H		; std::_Iosb<int>::trunc
CONST	ENDS
;	COMDAT ?app@?$_Iosb@H@std@@2W4_Openmode@12@B
CONST	SEGMENT
?app@?$_Iosb@H@std@@2W4_Openmode@12@B DD 08H		; std::_Iosb<int>::app
CONST	ENDS
;	COMDAT ?ate@?$_Iosb@H@std@@2W4_Openmode@12@B
CONST	SEGMENT
?ate@?$_Iosb@H@std@@2W4_Openmode@12@B DD 04H		; std::_Iosb<int>::ate
CONST	ENDS
;	COMDAT ?out@?$_Iosb@H@std@@2W4_Openmode@12@B
CONST	SEGMENT
?out@?$_Iosb@H@std@@2W4_Openmode@12@B DD 02H		; std::_Iosb<int>::out
CONST	ENDS
;	COMDAT ?in@?$_Iosb@H@std@@2W4_Openmode@12@B
CONST	SEGMENT
?in@?$_Iosb@H@std@@2W4_Openmode@12@B DD 01H		; std::_Iosb<int>::in
CONST	ENDS
;	COMDAT ?_Hardfail@?$_Iosb@H@std@@2W4_Iostate@12@B
CONST	SEGMENT
?_Hardfail@?$_Iosb@H@std@@2W4_Iostate@12@B DD 010H	; std::_Iosb<int>::_Hardfail
CONST	ENDS
;	COMDAT ?badbit@?$_Iosb@H@std@@2W4_Iostate@12@B
CONST	SEGMENT
?badbit@?$_Iosb@H@std@@2W4_Iostate@12@B DD 04H		; std::_Iosb<int>::badbit
CONST	ENDS
;	COMDAT ?failbit@?$_Iosb@H@std@@2W4_Iostate@12@B
CONST	SEGMENT
?failbit@?$_Iosb@H@std@@2W4_Iostate@12@B DD 02H		; std::_Iosb<int>::failbit
CONST	ENDS
;	COMDAT ?eofbit@?$_Iosb@H@std@@2W4_Iostate@12@B
CONST	SEGMENT
?eofbit@?$_Iosb@H@std@@2W4_Iostate@12@B DD 01H		; std::_Iosb<int>::eofbit
CONST	ENDS
;	COMDAT ?goodbit@?$_Iosb@H@std@@2W4_Iostate@12@B
CONST	SEGMENT
?goodbit@?$_Iosb@H@std@@2W4_Iostate@12@B DD 00H		; std::_Iosb<int>::goodbit
CONST	ENDS
;	COMDAT ?floatfield@?$_Iosb@H@std@@2W4_Fmtflags@12@B
CONST	SEGMENT
?floatfield@?$_Iosb@H@std@@2W4_Fmtflags@12@B DD 03000H	; std::_Iosb<int>::floatfield
CONST	ENDS
;	COMDAT ?basefield@?$_Iosb@H@std@@2W4_Fmtflags@12@B
CONST	SEGMENT
?basefield@?$_Iosb@H@std@@2W4_Fmtflags@12@B DD 0e00H	; std::_Iosb<int>::basefield
CONST	ENDS
;	COMDAT ?adjustfield@?$_Iosb@H@std@@2W4_Fmtflags@12@B
CONST	SEGMENT
?adjustfield@?$_Iosb@H@std@@2W4_Fmtflags@12@B DD 01c0H	; std::_Iosb<int>::adjustfield
CONST	ENDS
;	COMDAT ?_Stdio@?$_Iosb@H@std@@2W4_Fmtflags@12@B
CONST	SEGMENT
?_Stdio@?$_Iosb@H@std@@2W4_Fmtflags@12@B DD 08000H	; std::_Iosb<int>::_Stdio
CONST	ENDS
;	COMDAT ?boolalpha@?$_Iosb@H@std@@2W4_Fmtflags@12@B
CONST	SEGMENT
?boolalpha@?$_Iosb@H@std@@2W4_Fmtflags@12@B DD 04000H	; std::_Iosb<int>::boolalpha
CONST	ENDS
;	COMDAT ?hexfloat@?$_Iosb@H@std@@2W4_Fmtflags@12@B
CONST	SEGMENT
?hexfloat@?$_Iosb@H@std@@2W4_Fmtflags@12@B DD 03000H	; std::_Iosb<int>::hexfloat
CONST	ENDS
;	COMDAT ?fixed@?$_Iosb@H@std@@2W4_Fmtflags@12@B
CONST	SEGMENT
?fixed@?$_Iosb@H@std@@2W4_Fmtflags@12@B DD 02000H	; std::_Iosb<int>::fixed
CONST	ENDS
;	COMDAT ?scientific@?$_Iosb@H@std@@2W4_Fmtflags@12@B
CONST	SEGMENT
?scientific@?$_Iosb@H@std@@2W4_Fmtflags@12@B DD 01000H	; std::_Iosb<int>::scientific
CONST	ENDS
;	COMDAT ?hex@?$_Iosb@H@std@@2W4_Fmtflags@12@B
CONST	SEGMENT
?hex@?$_Iosb@H@std@@2W4_Fmtflags@12@B DD 0800H		; std::_Iosb<int>::hex
CONST	ENDS
;	COMDAT ?oct@?$_Iosb@H@std@@2W4_Fmtflags@12@B
CONST	SEGMENT
?oct@?$_Iosb@H@std@@2W4_Fmtflags@12@B DD 0400H		; std::_Iosb<int>::oct
CONST	ENDS
;	COMDAT ?dec@?$_Iosb@H@std@@2W4_Fmtflags@12@B
CONST	SEGMENT
?dec@?$_Iosb@H@std@@2W4_Fmtflags@12@B DD 0200H		; std::_Iosb<int>::dec
CONST	ENDS
;	COMDAT ?internal@?$_Iosb@H@std@@2W4_Fmtflags@12@B
CONST	SEGMENT
?internal@?$_Iosb@H@std@@2W4_Fmtflags@12@B DD 0100H	; std::_Iosb<int>::internal
CONST	ENDS
;	COMDAT ?right@?$_Iosb@H@std@@2W4_Fmtflags@12@B
CONST	SEGMENT
?right@?$_Iosb@H@std@@2W4_Fmtflags@12@B DD 080H		; std::_Iosb<int>::right
CONST	ENDS
;	COMDAT ?left@?$_Iosb@H@std@@2W4_Fmtflags@12@B
CONST	SEGMENT
?left@?$_Iosb@H@std@@2W4_Fmtflags@12@B DD 040H		; std::_Iosb<int>::left
CONST	ENDS
;	COMDAT ?showpos@?$_Iosb@H@std@@2W4_Fmtflags@12@B
CONST	SEGMENT
?showpos@?$_Iosb@H@std@@2W4_Fmtflags@12@B DD 020H	; std::_Iosb<int>::showpos
CONST	ENDS
;	COMDAT ?showpoint@?$_Iosb@H@std@@2W4_Fmtflags@12@B
CONST	SEGMENT
?showpoint@?$_Iosb@H@std@@2W4_Fmtflags@12@B DD 010H	; std::_Iosb<int>::showpoint
CONST	ENDS
;	COMDAT ?showbase@?$_Iosb@H@std@@2W4_Fmtflags@12@B
CONST	SEGMENT
?showbase@?$_Iosb@H@std@@2W4_Fmtflags@12@B DD 08H	; std::_Iosb<int>::showbase
CONST	ENDS
;	COMDAT ?uppercase@?$_Iosb@H@std@@2W4_Fmtflags@12@B
CONST	SEGMENT
?uppercase@?$_Iosb@H@std@@2W4_Fmtflags@12@B DD 04H	; std::_Iosb<int>::uppercase
CONST	ENDS
;	COMDAT ?unitbuf@?$_Iosb@H@std@@2W4_Fmtflags@12@B
CONST	SEGMENT
?unitbuf@?$_Iosb@H@std@@2W4_Fmtflags@12@B DD 02H	; std::_Iosb<int>::unitbuf
CONST	ENDS
;	COMDAT ?skipws@?$_Iosb@H@std@@2W4_Fmtflags@12@B
CONST	SEGMENT
?skipws@?$_Iosb@H@std@@2W4_Fmtflags@12@B DD 01H		; std::_Iosb<int>::skipws
CONST	ENDS
;	COMDAT ?none@?$_Locbase@H@std@@2HB
CONST	SEGMENT
?none@?$_Locbase@H@std@@2HB DD 00H			; std::_Locbase<int>::none
CONST	ENDS
;	COMDAT ?all@?$_Locbase@H@std@@2HB
CONST	SEGMENT
?all@?$_Locbase@H@std@@2HB DD 03fH			; std::_Locbase<int>::all
CONST	ENDS
;	COMDAT ?messages@?$_Locbase@H@std@@2HB
CONST	SEGMENT
?messages@?$_Locbase@H@std@@2HB DD 020H			; std::_Locbase<int>::messages
CONST	ENDS
;	COMDAT ?time@?$_Locbase@H@std@@2HB
CONST	SEGMENT
?time@?$_Locbase@H@std@@2HB DD 010H			; std::_Locbase<int>::time
CONST	ENDS
;	COMDAT ?numeric@?$_Locbase@H@std@@2HB
CONST	SEGMENT
?numeric@?$_Locbase@H@std@@2HB DD 08H			; std::_Locbase<int>::numeric
CONST	ENDS
;	COMDAT ?monetary@?$_Locbase@H@std@@2HB
CONST	SEGMENT
?monetary@?$_Locbase@H@std@@2HB DD 04H			; std::_Locbase<int>::monetary
CONST	ENDS
;	COMDAT ?ctype@?$_Locbase@H@std@@2HB
CONST	SEGMENT
?ctype@?$_Locbase@H@std@@2HB DD 02H			; std::_Locbase<int>::ctype
CONST	ENDS
;	COMDAT ?collate@?$_Locbase@H@std@@2HB
CONST	SEGMENT
?collate@?$_Locbase@H@std@@2HB DD 01H			; std::_Locbase<int>::collate
CONST	ENDS
;	COMDAT ?_Value@?$_Is_swap_move@U_Swap_move_tag@std@@@std@@2_NB
CONST	SEGMENT
?_Value@?$_Is_swap_move@U_Swap_move_tag@std@@@std@@2_NB DB 01H ; std::_Is_swap_move<std::_Swap_move_tag>::_Value
CONST	ENDS
_DATA	SEGMENT
__bad_alloc_Message DD FLAT:$SG5716
_DATA	ENDS
CONST	SEGMENT
$SG5716	DB	'bad allocation', 00H
	ORG $+1
_MAX_FLOAT DD	07f7fffffr			; 3.40282e+038
_ONE_PI	DD	040490fd0r			; 3.14159
_EPSILON DD	03727c5acr			; 1e-005
_RADS_PER_DEG DD 03c8efa35r			; 0.0174533
_DEGS_PER_RAD DD 042652ee1r			; 57.2958
$SG62277 DB	'MorphAnimData', 00H
CONST	ENDS
PUBLIC	??4MemoryDelegation@Ogre@@QAEAAV01@ABV01@@Z	; Ogre::MemoryDelegation::operator=
; Function compile flags: /Odtp
;	COMDAT ??4MemoryDelegation@Ogre@@QAEAAV01@ABV01@@Z
_TEXT	SEGMENT
_this$ = -4						; size = 4
___that$ = 8						; size = 4
??4MemoryDelegation@Ogre@@QAEAAV01@ABV01@@Z PROC	; Ogre::MemoryDelegation::operator=, COMDAT
; _this$ = ecx
	push	ebp
	mov	ebp, esp
	push	ecx
	mov	DWORD PTR _this$[ebp], ecx
	mov	eax, DWORD PTR _this$[ebp]
	mov	esp, ebp
	pop	ebp
	ret	4
??4MemoryDelegation@Ogre@@QAEAAV01@ABV01@@Z ENDP	; Ogre::MemoryDelegation::operator=
_TEXT	ENDS
PUBLIC	?getBaseClass@RuntimeClass@Ogre@@QBEPBV12@XZ	; Ogre::RuntimeClass::getBaseClass
; Function compile flags: /Odtp
; File i:\svnroot\client\ogremain\ogrebaseobject.h
;	COMDAT ?getBaseClass@RuntimeClass@Ogre@@QBEPBV12@XZ
_TEXT	SEGMENT
_this$ = -4						; size = 4
?getBaseClass@RuntimeClass@Ogre@@QBEPBV12@XZ PROC	; Ogre::RuntimeClass::getBaseClass, COMDAT
; _this$ = ecx

; 20   : 		{

	push	ebp
	mov	ebp, esp
	push	ecx
	mov	DWORD PTR _this$[ebp], ecx

; 21   : 			return m_pBaseClass;

	mov	eax, DWORD PTR _this$[ebp]
	mov	eax, DWORD PTR [eax+4]

; 22   : 		}

	mov	esp, ebp
	pop	ebp
	ret	0
?getBaseClass@RuntimeClass@Ogre@@QBEPBV12@XZ ENDP	; Ogre::RuntimeClass::getBaseClass
_TEXT	ENDS
PUBLIC	?getClassName@RuntimeClass@Ogre@@QBEPBDXZ	; Ogre::RuntimeClass::getClassName
; Function compile flags: /Odtp
;	COMDAT ?getClassName@RuntimeClass@Ogre@@QBEPBDXZ
_TEXT	SEGMENT
_this$ = -4						; size = 4
?getClassName@RuntimeClass@Ogre@@QBEPBDXZ PROC		; Ogre::RuntimeClass::getClassName, COMDAT
; _this$ = ecx

; 25   : 		{

	push	ebp
	mov	ebp, esp
	push	ecx
	mov	DWORD PTR _this$[ebp], ecx

; 26   : 			return m_pClassName; 

	mov	eax, DWORD PTR _this$[ebp]
	mov	eax, DWORD PTR [eax]

; 27   : 		}

	mov	esp, ebp
	pop	ebp
	ret	0
?getClassName@RuntimeClass@Ogre@@QBEPBDXZ ENDP		; Ogre::RuntimeClass::getClassName
_TEXT	ENDS
PUBLIC	?getVersion@RuntimeClass@Ogre@@QBEHXZ		; Ogre::RuntimeClass::getVersion
; Function compile flags: /Odtp
;	COMDAT ?getVersion@RuntimeClass@Ogre@@QBEHXZ
_TEXT	SEGMENT
_this$ = -4						; size = 4
?getVersion@RuntimeClass@Ogre@@QBEHXZ PROC		; Ogre::RuntimeClass::getVersion, COMDAT
; _this$ = ecx

; 30   : 		{

	push	ebp
	mov	ebp, esp
	push	ecx
	mov	DWORD PTR _this$[ebp], ecx

; 31   : 			return m_Version;

	mov	eax, DWORD PTR _this$[ebp]
	mov	eax, DWORD PTR [eax+8]

; 32   : 		}

	mov	esp, ebp
	pop	ebp
	ret	0
?getVersion@RuntimeClass@Ogre@@QBEHXZ ENDP		; Ogre::RuntimeClass::getVersion
_TEXT	ENDS
PUBLIC	?newObject@RuntimeClass@Ogre@@QAEPAVBaseObject@2@XZ ; Ogre::RuntimeClass::newObject
; Function compile flags: /Odtp
;	COMDAT ?newObject@RuntimeClass@Ogre@@QAEPAVBaseObject@2@XZ
_TEXT	SEGMENT
_this$ = -4						; size = 4
?newObject@RuntimeClass@Ogre@@QAEPAVBaseObject@2@XZ PROC ; Ogre::RuntimeClass::newObject, COMDAT
; _this$ = ecx

; 35   : 		{

	push	ebp
	mov	ebp, esp
	push	ecx
	mov	DWORD PTR _this$[ebp], ecx

; 36   : 			return (*m_pNewFunc)();

	mov	eax, DWORD PTR _this$[ebp]
	mov	ecx, DWORD PTR [eax+12]
	call	ecx

; 37   : 		}

	mov	esp, ebp
	pop	ebp
	ret	0
?newObject@RuntimeClass@Ogre@@QAEPAVBaseObject@2@XZ ENDP ; Ogre::RuntimeClass::newObject
_TEXT	ENDS
PUBLIC	??4RuntimeClass@Ogre@@QAEAAV01@ABV01@@Z		; Ogre::RuntimeClass::operator=
; Function compile flags: /Odtp
;	COMDAT ??4RuntimeClass@Ogre@@QAEAAV01@ABV01@@Z
_TEXT	SEGMENT
_this$ = -4						; size = 4
___that$ = 8						; size = 4
??4RuntimeClass@Ogre@@QAEAAV01@ABV01@@Z PROC		; Ogre::RuntimeClass::operator=, COMDAT
; _this$ = ecx
	push	ebp
	mov	ebp, esp
	push	ecx
	mov	DWORD PTR _this$[ebp], ecx
	mov	eax, DWORD PTR ___that$[ebp]
	mov	ecx, DWORD PTR _this$[ebp]
	mov	edx, DWORD PTR [eax]
	mov	DWORD PTR [ecx], edx
	mov	edx, DWORD PTR [eax+4]
	mov	DWORD PTR [ecx+4], edx
	mov	edx, DWORD PTR [eax+8]
	mov	DWORD PTR [ecx+8], edx
	mov	edx, DWORD PTR [eax+12]
	mov	DWORD PTR [ecx+12], edx
	mov	eax, DWORD PTR [eax+16]
	mov	DWORD PTR [ecx+16], eax
	mov	eax, DWORD PTR _this$[ebp]
	mov	esp, ebp
	pop	ebp
	ret	4
??4RuntimeClass@Ogre@@QAEAAV01@ABV01@@Z ENDP		; Ogre::RuntimeClass::operator=
_TEXT	ENDS
PUBLIC	?getRTTI@BaseObject@Ogre@@UBEPBVRuntimeClass@2@XZ ; Ogre::BaseObject::getRTTI
EXTRN	?m_RTTI@BaseObject@Ogre@@2VRuntimeClass@2@B:BYTE ; Ogre::BaseObject::m_RTTI
; Function compile flags: /Odtp
;	COMDAT ?getRTTI@BaseObject@Ogre@@UBEPBVRuntimeClass@2@XZ
_TEXT	SEGMENT
_this$ = -4						; size = 4
?getRTTI@BaseObject@Ogre@@UBEPBVRuntimeClass@2@XZ PROC	; Ogre::BaseObject::getRTTI, COMDAT
; _this$ = ecx

; 56   : 		{

	push	ebp
	mov	ebp, esp
	push	ecx
	mov	DWORD PTR _this$[ebp], ecx

; 57   : 			return &m_RTTI;

	mov	eax, OFFSET ?m_RTTI@BaseObject@Ogre@@2VRuntimeClass@2@B ; Ogre::BaseObject::m_RTTI

; 58   : 		}

	mov	esp, ebp
	pop	ebp
	ret	0
?getRTTI@BaseObject@Ogre@@UBEPBVRuntimeClass@2@XZ ENDP	; Ogre::BaseObject::getRTTI
_TEXT	ENDS
PUBLIC	?isExactKindOf@BaseObject@Ogre@@QBE_NPBVRuntimeClass@2@@Z ; Ogre::BaseObject::isExactKindOf
; Function compile flags: /Odtp
;	COMDAT ?isExactKindOf@BaseObject@Ogre@@QBE_NPBVRuntimeClass@2@@Z
_TEXT	SEGMENT
_this$ = -4						; size = 4
_prtti$ = 8						; size = 4
?isExactKindOf@BaseObject@Ogre@@QBE_NPBVRuntimeClass@2@@Z PROC ; Ogre::BaseObject::isExactKindOf, COMDAT
; _this$ = ecx

; 61   : 		{

	push	ebp
	mov	ebp, esp
	push	ecx
	mov	DWORD PTR _this$[ebp], ecx

; 62   : 			return (getRTTI() == prtti);

	mov	eax, DWORD PTR _this$[ebp]
	mov	edx, DWORD PTR [eax]
	mov	ecx, DWORD PTR _this$[ebp]
	mov	eax, DWORD PTR [edx]
	call	eax
	xor	ecx, ecx
	cmp	eax, DWORD PTR _prtti$[ebp]
	sete	cl
	mov	al, cl

; 63   : 		}

	mov	esp, ebp
	pop	ebp
	ret	4
?isExactKindOf@BaseObject@Ogre@@QBE_NPBVRuntimeClass@2@@Z ENDP ; Ogre::BaseObject::isExactKindOf
_TEXT	ENDS
PUBLIC	?release@BaseObject@Ogre@@UAEXXZ		; Ogre::BaseObject::release
; Function compile flags: /Odtp
;	COMDAT ?release@BaseObject@Ogre@@UAEXXZ
_TEXT	SEGMENT
_this$ = -4						; size = 4
?release@BaseObject@Ogre@@UAEXXZ PROC			; Ogre::BaseObject::release, COMDAT
; _this$ = ecx

; 68   : 		{

	push	ebp
	mov	ebp, esp
	push	ecx
	mov	DWORD PTR _this$[ebp], ecx

; 69   : 			m_RefCount--;

	mov	eax, DWORD PTR _this$[ebp]
	mov	ecx, DWORD PTR [eax+4]
	sub	ecx, 1
	mov	edx, DWORD PTR _this$[ebp]
	mov	DWORD PTR [edx+4], ecx

; 70   : 			if(m_RefCount <= 0 )

	mov	eax, DWORD PTR _this$[ebp]
	cmp	DWORD PTR [eax+4], 0
	jg	SHORT $LN2@release

; 71   : 			{
; 72   : 				deleteThis();

	mov	ecx, DWORD PTR _this$[ebp]
	mov	edx, DWORD PTR [ecx]
	mov	ecx, DWORD PTR _this$[ebp]
	mov	eax, DWORD PTR [edx+24]
	call	eax
$LN2@release:

; 73   : 			}
; 74   : 		}

	mov	esp, ebp
	pop	ebp
	ret	0
?release@BaseObject@Ogre@@UAEXXZ ENDP			; Ogre::BaseObject::release
_TEXT	ENDS
PUBLIC	?addRef@BaseObject@Ogre@@UAEXXZ			; Ogre::BaseObject::addRef
; Function compile flags: /Odtp
;	COMDAT ?addRef@BaseObject@Ogre@@UAEXXZ
_TEXT	SEGMENT
_this$ = -4						; size = 4
?addRef@BaseObject@Ogre@@UAEXXZ PROC			; Ogre::BaseObject::addRef, COMDAT
; _this$ = ecx

; 77   : 		{

	push	ebp
	mov	ebp, esp
	push	ecx
	mov	DWORD PTR _this$[ebp], ecx

; 78   : 			m_RefCount++;

	mov	eax, DWORD PTR _this$[ebp]
	mov	ecx, DWORD PTR [eax+4]
	add	ecx, 1
	mov	edx, DWORD PTR _this$[ebp]
	mov	DWORD PTR [edx+4], ecx

; 79   : 		}

	mov	esp, ebp
	pop	ebp
	ret	0
?addRef@BaseObject@Ogre@@UAEXXZ ENDP			; Ogre::BaseObject::addRef
_TEXT	ENDS
PUBLIC	?getRefCount@BaseObject@Ogre@@UAEHXZ		; Ogre::BaseObject::getRefCount
; Function compile flags: /Odtp
;	COMDAT ?getRefCount@BaseObject@Ogre@@UAEHXZ
_TEXT	SEGMENT
_this$ = -4						; size = 4
?getRefCount@BaseObject@Ogre@@UAEHXZ PROC		; Ogre::BaseObject::getRefCount, COMDAT
; _this$ = ecx

; 82   : 		{

	push	ebp
	mov	ebp, esp
	push	ecx
	mov	DWORD PTR _this$[ebp], ecx

; 83   : 			return m_RefCount;

	mov	eax, DWORD PTR _this$[ebp]
	mov	eax, DWORD PTR [eax+4]

; 84   : 		}

	mov	esp, ebp
	pop	ebp
	ret	0
?getRefCount@BaseObject@Ogre@@UAEHXZ ENDP		; Ogre::BaseObject::getRefCount
_TEXT	ENDS
PUBLIC	?_serialize@BaseObject@Ogre@@UAEXAAVArchive@2@H@Z ; Ogre::BaseObject::_serialize
; Function compile flags: /Odtp
;	COMDAT ?_serialize@BaseObject@Ogre@@UAEXAAVArchive@2@H@Z
_TEXT	SEGMENT
_this$ = -4						; size = 4
_ar$ = 8						; size = 4
_version$ = 12						; size = 4
?_serialize@BaseObject@Ogre@@UAEXAAVArchive@2@H@Z PROC	; Ogre::BaseObject::_serialize, COMDAT
; _this$ = ecx

; 87   : 		{

	push	ebp
	mov	ebp, esp
	push	ecx
	mov	DWORD PTR _this$[ebp], ecx

; 88   : 		}

	mov	esp, ebp
	pop	ebp
	ret	8
?_serialize@BaseObject@Ogre@@UAEXAAVArchive@2@H@Z ENDP	; Ogre::BaseObject::_serialize
_TEXT	ENDS
PUBLIC	??_7BaseObject@Ogre@@6B@			; Ogre::BaseObject::`vftable'
PUBLIC	??0BaseObject@Ogre@@IAE@XZ			; Ogre::BaseObject::BaseObject
PUBLIC	??_R4BaseObject@Ogre@@6B@			; Ogre::BaseObject::`RTTI Complete Object Locator'
PUBLIC	??_R0?AVBaseObject@Ogre@@@8			; Ogre::BaseObject `RTTI Type Descriptor'
PUBLIC	??_R3BaseObject@Ogre@@8				; Ogre::BaseObject::`RTTI Class Hierarchy Descriptor'
PUBLIC	??_R2BaseObject@Ogre@@8				; Ogre::BaseObject::`RTTI Base Class Array'
PUBLIC	??_R1A@?0A@EA@BaseObject@Ogre@@8		; Ogre::BaseObject::`RTTI Base Class Descriptor at (0,-1,0,64)'
PUBLIC	??_R13?0A@EA@MemoryDelegation@Ogre@@8		; Ogre::MemoryDelegation::`RTTI Base Class Descriptor at (4,-1,0,64)'
PUBLIC	??_R0?AVMemoryDelegation@Ogre@@@8		; Ogre::MemoryDelegation `RTTI Type Descriptor'
PUBLIC	??_R3MemoryDelegation@Ogre@@8			; Ogre::MemoryDelegation::`RTTI Class Hierarchy Descriptor'
PUBLIC	??_R2MemoryDelegation@Ogre@@8			; Ogre::MemoryDelegation::`RTTI Base Class Array'
PUBLIC	??_R1A@?0A@EA@MemoryDelegation@Ogre@@8		; Ogre::MemoryDelegation::`RTTI Base Class Descriptor at (0,-1,0,64)'
PUBLIC	??_EBaseObject@Ogre@@MAEPAXI@Z			; Ogre::BaseObject::`vector deleting destructor'
PUBLIC	?deleteThis@BaseObject@Ogre@@MAEXXZ		; Ogre::BaseObject::deleteThis
EXTRN	??_7type_info@@6B@:QWORD			; type_info::`vftable'
;	COMDAT ??_R1A@?0A@EA@MemoryDelegation@Ogre@@8
rdata$r	SEGMENT
??_R1A@?0A@EA@MemoryDelegation@Ogre@@8 DD FLAT:??_R0?AVMemoryDelegation@Ogre@@@8 ; Ogre::MemoryDelegation::`RTTI Base Class Descriptor at (0,-1,0,64)'
	DD	00H
	DD	00H
	DD	0ffffffffH
	DD	00H
	DD	040H
	DD	FLAT:??_R3MemoryDelegation@Ogre@@8
rdata$r	ENDS
;	COMDAT ??_R2MemoryDelegation@Ogre@@8
rdata$r	SEGMENT
??_R2MemoryDelegation@Ogre@@8 DD FLAT:??_R1A@?0A@EA@MemoryDelegation@Ogre@@8 ; Ogre::MemoryDelegation::`RTTI Base Class Array'
rdata$r	ENDS
;	COMDAT ??_R3MemoryDelegation@Ogre@@8
rdata$r	SEGMENT
??_R3MemoryDelegation@Ogre@@8 DD 00H			; Ogre::MemoryDelegation::`RTTI Class Hierarchy Descriptor'
	DD	00H
	DD	01H
	DD	FLAT:??_R2MemoryDelegation@Ogre@@8
rdata$r	ENDS
;	COMDAT ??_R0?AVMemoryDelegation@Ogre@@@8
_DATA	SEGMENT
??_R0?AVMemoryDelegation@Ogre@@@8 DD FLAT:??_7type_info@@6B@ ; Ogre::MemoryDelegation `RTTI Type Descriptor'
	DD	00H
	DB	'.?AVMemoryDelegation@Ogre@@', 00H
_DATA	ENDS
;	COMDAT ??_R13?0A@EA@MemoryDelegation@Ogre@@8
rdata$r	SEGMENT
??_R13?0A@EA@MemoryDelegation@Ogre@@8 DD FLAT:??_R0?AVMemoryDelegation@Ogre@@@8 ; Ogre::MemoryDelegation::`RTTI Base Class Descriptor at (4,-1,0,64)'
	DD	00H
	DD	04H
	DD	0ffffffffH
	DD	00H
	DD	040H
	DD	FLAT:??_R3MemoryDelegation@Ogre@@8
rdata$r	ENDS
;	COMDAT ??_R1A@?0A@EA@BaseObject@Ogre@@8
rdata$r	SEGMENT
??_R1A@?0A@EA@BaseObject@Ogre@@8 DD FLAT:??_R0?AVBaseObject@Ogre@@@8 ; Ogre::BaseObject::`RTTI Base Class Descriptor at (0,-1,0,64)'
	DD	01H
	DD	00H
	DD	0ffffffffH
	DD	00H
	DD	040H
	DD	FLAT:??_R3BaseObject@Ogre@@8
rdata$r	ENDS
;	COMDAT ??_R2BaseObject@Ogre@@8
rdata$r	SEGMENT
??_R2BaseObject@Ogre@@8 DD FLAT:??_R1A@?0A@EA@BaseObject@Ogre@@8 ; Ogre::BaseObject::`RTTI Base Class Array'
	DD	FLAT:??_R13?0A@EA@MemoryDelegation@Ogre@@8
rdata$r	ENDS
;	COMDAT ??_R3BaseObject@Ogre@@8
rdata$r	SEGMENT
??_R3BaseObject@Ogre@@8 DD 00H				; Ogre::BaseObject::`RTTI Class Hierarchy Descriptor'
	DD	00H
	DD	02H
	DD	FLAT:??_R2BaseObject@Ogre@@8
rdata$r	ENDS
;	COMDAT ??_R0?AVBaseObject@Ogre@@@8
_DATA	SEGMENT
??_R0?AVBaseObject@Ogre@@@8 DD FLAT:??_7type_info@@6B@	; Ogre::BaseObject `RTTI Type Descriptor'
	DD	00H
	DB	'.?AVBaseObject@Ogre@@', 00H
_DATA	ENDS
;	COMDAT ??_R4BaseObject@Ogre@@6B@
rdata$r	SEGMENT
??_R4BaseObject@Ogre@@6B@ DD 00H			; Ogre::BaseObject::`RTTI Complete Object Locator'
	DD	00H
	DD	00H
	DD	FLAT:??_R0?AVBaseObject@Ogre@@@8
	DD	FLAT:??_R3BaseObject@Ogre@@8
rdata$r	ENDS
;	COMDAT ??_7BaseObject@Ogre@@6B@
CONST	SEGMENT
??_7BaseObject@Ogre@@6B@ DD FLAT:??_R4BaseObject@Ogre@@6B@ ; Ogre::BaseObject::`vftable'
	DD	FLAT:?getRTTI@BaseObject@Ogre@@UBEPBVRuntimeClass@2@XZ
	DD	FLAT:?release@BaseObject@Ogre@@UAEXXZ
	DD	FLAT:?addRef@BaseObject@Ogre@@UAEXXZ
	DD	FLAT:?getRefCount@BaseObject@Ogre@@UAEHXZ
	DD	FLAT:?_serialize@BaseObject@Ogre@@UAEXAAVArchive@2@H@Z
	DD	FLAT:??_EBaseObject@Ogre@@MAEPAXI@Z
	DD	FLAT:?deleteThis@BaseObject@Ogre@@MAEXXZ
; Function compile flags: /Odtp
CONST	ENDS
;	COMDAT ??0BaseObject@Ogre@@IAE@XZ
_TEXT	SEGMENT
_this$ = -4						; size = 4
??0BaseObject@Ogre@@IAE@XZ PROC				; Ogre::BaseObject::BaseObject, COMDAT
; _this$ = ecx

; 92   : 		{

	push	ebp
	mov	ebp, esp
	push	ecx
	mov	DWORD PTR _this$[ebp], ecx
	mov	eax, DWORD PTR _this$[ebp]
	mov	DWORD PTR [eax], OFFSET ??_7BaseObject@Ogre@@6B@
	mov	ecx, DWORD PTR _this$[ebp]
	mov	DWORD PTR [ecx+4], 1

; 93   : 		}

	mov	eax, DWORD PTR _this$[ebp]
	mov	esp, ebp
	pop	ebp
	ret	0
??0BaseObject@Ogre@@IAE@XZ ENDP				; Ogre::BaseObject::BaseObject
_TEXT	ENDS
PUBLIC	??1BaseObject@Ogre@@MAE@XZ			; Ogre::BaseObject::~BaseObject
; Function compile flags: /Odtp
;	COMDAT ??1BaseObject@Ogre@@MAE@XZ
_TEXT	SEGMENT
_this$ = -4						; size = 4
??1BaseObject@Ogre@@MAE@XZ PROC				; Ogre::BaseObject::~BaseObject, COMDAT
; _this$ = ecx

; 96   : 		{

	push	ebp
	mov	ebp, esp
	push	ecx
	mov	DWORD PTR _this$[ebp], ecx
	mov	eax, DWORD PTR _this$[ebp]
	mov	DWORD PTR [eax], OFFSET ??_7BaseObject@Ogre@@6B@

; 97   : 		}

	mov	esp, ebp
	pop	ebp
	ret	0
??1BaseObject@Ogre@@MAE@XZ ENDP				; Ogre::BaseObject::~BaseObject
; Function compile flags: /Odtp
_TEXT	ENDS
;	COMDAT ?deleteThis@BaseObject@Ogre@@MAEXXZ
_TEXT	SEGMENT
tv70 = -16						; size = 4
_this$ = -12						; size = 4
$T73975 = -8						; size = 4
$T73974 = -4						; size = 4
?deleteThis@BaseObject@Ogre@@MAEXXZ PROC		; Ogre::BaseObject::deleteThis, COMDAT
; _this$ = ecx

; 100  : 		{

	push	ebp
	mov	ebp, esp
	sub	esp, 16					; 00000010H
	mov	DWORD PTR _this$[ebp], ecx

; 101  : 			delete this;

	mov	eax, DWORD PTR _this$[ebp]
	mov	DWORD PTR $T73975[ebp], eax
	mov	ecx, DWORD PTR $T73975[ebp]
	mov	DWORD PTR $T73974[ebp], ecx
	cmp	DWORD PTR $T73974[ebp], 0
	je	SHORT $LN3@deleteThis
	push	1
	mov	edx, DWORD PTR $T73974[ebp]
	mov	eax, DWORD PTR [edx]
	mov	ecx, DWORD PTR $T73974[ebp]
	mov	edx, DWORD PTR [eax+20]
	call	edx
	mov	DWORD PTR tv70[ebp], eax
	jmp	SHORT $LN1@deleteThis
$LN3@deleteThis:
	mov	DWORD PTR tv70[ebp], 0
$LN1@deleteThis:

; 102  : 		}

	mov	esp, ebp
	pop	ebp
	ret	0
?deleteThis@BaseObject@Ogre@@MAEXXZ ENDP		; Ogre::BaseObject::deleteThis
_TEXT	ENDS
PUBLIC	??0BaseObject@Ogre@@QAE@ABV01@@Z		; Ogre::BaseObject::BaseObject
; Function compile flags: /Odtp
;	COMDAT ??0BaseObject@Ogre@@QAE@ABV01@@Z
_TEXT	SEGMENT
tv68 = -8						; size = 4
_this$ = -4						; size = 4
___that$ = 8						; size = 4
??0BaseObject@Ogre@@QAE@ABV01@@Z PROC			; Ogre::BaseObject::BaseObject, COMDAT
; _this$ = ecx
	push	ebp
	mov	ebp, esp
	sub	esp, 8
	mov	DWORD PTR _this$[ebp], ecx
	cmp	DWORD PTR ___that$[ebp], 0
	je	SHORT $LN3@BaseObject
	mov	eax, DWORD PTR ___that$[ebp]
	add	eax, 4
	mov	DWORD PTR tv68[ebp], eax
	jmp	SHORT $LN4@BaseObject
$LN3@BaseObject:
	mov	DWORD PTR tv68[ebp], 0
$LN4@BaseObject:
	mov	ecx, DWORD PTR _this$[ebp]
	mov	DWORD PTR [ecx], OFFSET ??_7BaseObject@Ogre@@6B@
	mov	edx, DWORD PTR _this$[ebp]
	mov	eax, DWORD PTR ___that$[ebp]
	mov	ecx, DWORD PTR [eax+4]
	mov	DWORD PTR [edx+4], ecx
	mov	eax, DWORD PTR _this$[ebp]
	mov	esp, ebp
	pop	ebp
	ret	4
??0BaseObject@Ogre@@QAE@ABV01@@Z ENDP			; Ogre::BaseObject::BaseObject
_TEXT	ENDS
PUBLIC	??4BaseObject@Ogre@@QAEAAV01@ABV01@@Z		; Ogre::BaseObject::operator=
; Function compile flags: /Odtp
;	COMDAT ??4BaseObject@Ogre@@QAEAAV01@ABV01@@Z
_TEXT	SEGMENT
_this$ = -4						; size = 4
___that$ = 8						; size = 4
??4BaseObject@Ogre@@QAEAAV01@ABV01@@Z PROC		; Ogre::BaseObject::operator=, COMDAT
; _this$ = ecx
	push	ebp
	mov	ebp, esp
	push	ecx
	mov	DWORD PTR _this$[ebp], ecx
	mov	eax, DWORD PTR _this$[ebp]
	mov	ecx, DWORD PTR ___that$[ebp]
	mov	edx, DWORD PTR [ecx+4]
	mov	DWORD PTR [eax+4], edx
	mov	eax, DWORD PTR _this$[ebp]
	mov	esp, ebp
	pop	ebp
	ret	4
??4BaseObject@Ogre@@QAEAAV01@ABV01@@Z ENDP		; Ogre::BaseObject::operator=
_TEXT	ENDS
PUBLIC	??_GBaseObject@Ogre@@MAEPAXI@Z			; Ogre::BaseObject::`scalar deleting destructor'
EXTRN	??3MemoryDelegation@Ogre@@SAXPAXI@Z:PROC	; Ogre::MemoryDelegation::operator delete
; Function compile flags: /Odtp
;	COMDAT ??_GBaseObject@Ogre@@MAEPAXI@Z
_TEXT	SEGMENT
_this$ = -4						; size = 4
___flags$ = 8						; size = 4
??_GBaseObject@Ogre@@MAEPAXI@Z PROC			; Ogre::BaseObject::`scalar deleting destructor', COMDAT
; _this$ = ecx
	push	ebp
	mov	ebp, esp
	push	ecx
	mov	DWORD PTR _this$[ebp], ecx
	mov	ecx, DWORD PTR _this$[ebp]
	call	??1BaseObject@Ogre@@MAE@XZ		; Ogre::BaseObject::~BaseObject
	mov	eax, DWORD PTR ___flags$[ebp]
	and	eax, 1
	je	SHORT $LN1@scalar
	push	8
	mov	ecx, DWORD PTR _this$[ebp]
	push	ecx
	call	??3MemoryDelegation@Ogre@@SAXPAXI@Z	; Ogre::MemoryDelegation::operator delete
	add	esp, 8
$LN1@scalar:
	mov	eax, DWORD PTR _this$[ebp]
	mov	esp, ebp
	pop	ebp
	ret	4
??_GBaseObject@Ogre@@MAEPAXI@Z ENDP			; Ogre::BaseObject::`scalar deleting destructor'
_TEXT	ENDS
EXTRN	??_VMemoryDelegation@Ogre@@SAXPAXI@Z:PROC	; Ogre::MemoryDelegation::operator delete[]
EXTRN	??_M@YGXPAXIHP6EX0@Z@Z:PROC			; `eh vector destructor iterator'
; Function compile flags: /Odtp
;	COMDAT ??_EBaseObject@Ogre@@MAEPAXI@Z
_TEXT	SEGMENT
_this$ = -4						; size = 4
___flags$ = 8						; size = 4
??_EBaseObject@Ogre@@MAEPAXI@Z PROC			; Ogre::BaseObject::`vector deleting destructor', COMDAT
; _this$ = ecx
	push	ebp
	mov	ebp, esp
	push	ecx
	mov	DWORD PTR _this$[ebp], ecx
	mov	eax, DWORD PTR ___flags$[ebp]
	and	eax, 2
	je	SHORT $LN3@vector
	push	OFFSET ??1BaseObject@Ogre@@MAE@XZ	; Ogre::BaseObject::~BaseObject
	mov	ecx, DWORD PTR _this$[ebp]
	mov	edx, DWORD PTR [ecx-4]
	push	edx
	push	8
	mov	eax, DWORD PTR _this$[ebp]
	push	eax
	call	??_M@YGXPAXIHP6EX0@Z@Z
	mov	ecx, DWORD PTR ___flags$[ebp]
	and	ecx, 1
	je	SHORT $LN2@vector
	push	8
	mov	edx, DWORD PTR _this$[ebp]
	sub	edx, 4
	push	edx
	call	??_VMemoryDelegation@Ogre@@SAXPAXI@Z	; Ogre::MemoryDelegation::operator delete[]
	add	esp, 8
$LN2@vector:
	mov	eax, DWORD PTR _this$[ebp]
	sub	eax, 4
	jmp	SHORT $LN4@vector
$LN3@vector:
	mov	ecx, DWORD PTR _this$[ebp]
	call	??1BaseObject@Ogre@@MAE@XZ		; Ogre::BaseObject::~BaseObject
	mov	eax, DWORD PTR ___flags$[ebp]
	and	eax, 1
	je	SHORT $LN1@vector
	push	8
	mov	ecx, DWORD PTR _this$[ebp]
	push	ecx
	call	??3MemoryDelegation@Ogre@@SAXPAXI@Z	; Ogre::MemoryDelegation::operator delete
	add	esp, 8
$LN1@vector:
	mov	eax, DWORD PTR _this$[ebp]
$LN4@vector:
	mov	esp, ebp
	pop	ebp
	ret	4
??_EBaseObject@Ogre@@MAEPAXI@Z ENDP			; Ogre::BaseObject::`vector deleting destructor'
_TEXT	ENDS
PUBLIC	?handle2Ptr@FixedString@Ogre@@SAPBDPAX@Z	; Ogre::FixedString::handle2Ptr
; Function compile flags: /Odtp
; File i:\svnroot\client\ogremain\ogrefixedstring.h
;	COMDAT ?handle2Ptr@FixedString@Ogre@@SAPBDPAX@Z
_TEXT	SEGMENT
_h$ = 8							; size = 4
?handle2Ptr@FixedString@Ogre@@SAPBDPAX@Z PROC		; Ogre::FixedString::handle2Ptr, COMDAT

; 22   : 		{

	push	ebp
	mov	ebp, esp

; 23   : 			return (const char *)h;

	mov	eax, DWORD PTR _h$[ebp]

; 24   : 		}

	pop	ebp
	ret	0
?handle2Ptr@FixedString@Ogre@@SAPBDPAX@Z ENDP		; Ogre::FixedString::handle2Ptr
_TEXT	ENDS
PUBLIC	??0FixedString@Ogre@@QAE@XZ			; Ogre::FixedString::FixedString
; Function compile flags: /Odtp
;	COMDAT ??0FixedString@Ogre@@QAE@XZ
_TEXT	SEGMENT
_this$ = -4						; size = 4
??0FixedString@Ogre@@QAE@XZ PROC			; Ogre::FixedString::FixedString, COMDAT
; _this$ = ecx

; 27   : 		FixedString() : m_StrHandle(NULL){}

	push	ebp
	mov	ebp, esp
	push	ecx
	mov	DWORD PTR _this$[ebp], ecx
	mov	eax, DWORD PTR _this$[ebp]
	mov	DWORD PTR [eax], 0
	mov	eax, DWORD PTR _this$[ebp]
	mov	esp, ebp
	pop	ebp
	ret	0
??0FixedString@Ogre@@QAE@XZ ENDP			; Ogre::FixedString::FixedString
_TEXT	ENDS
PUBLIC	??0FixedString@Ogre@@QAE@PAX@Z			; Ogre::FixedString::FixedString
EXTRN	?addRef@FixedString@Ogre@@SAXPAX@Z:PROC		; Ogre::FixedString::addRef
; Function compile flags: /Odtp
;	COMDAT ??0FixedString@Ogre@@QAE@PAX@Z
_TEXT	SEGMENT
_this$ = -4						; size = 4
_h$ = 8							; size = 4
??0FixedString@Ogre@@QAE@PAX@Z PROC			; Ogre::FixedString::FixedString, COMDAT
; _this$ = ecx

; 29   : 		{

	push	ebp
	mov	ebp, esp
	push	ecx
	mov	DWORD PTR _this$[ebp], ecx
	mov	eax, DWORD PTR _this$[ebp]
	mov	ecx, DWORD PTR _h$[ebp]
	mov	DWORD PTR [eax], ecx

; 30   : 			addRef(h);

	mov	edx, DWORD PTR _h$[ebp]
	push	edx
	call	?addRef@FixedString@Ogre@@SAXPAX@Z	; Ogre::FixedString::addRef
	add	esp, 4

; 31   : 		}

	mov	eax, DWORD PTR _this$[ebp]
	mov	esp, ebp
	pop	ebp
	ret	4
??0FixedString@Ogre@@QAE@PAX@Z ENDP			; Ogre::FixedString::FixedString
_TEXT	ENDS
PUBLIC	??0FixedString@Ogre@@QAE@ABV01@@Z		; Ogre::FixedString::FixedString
; Function compile flags: /Odtp
;	COMDAT ??0FixedString@Ogre@@QAE@ABV01@@Z
_TEXT	SEGMENT
_this$ = -4						; size = 4
_rhs$ = 8						; size = 4
??0FixedString@Ogre@@QAE@ABV01@@Z PROC			; Ogre::FixedString::FixedString, COMDAT
; _this$ = ecx

; 34   : 		{

	push	ebp
	mov	ebp, esp
	push	ecx
	mov	DWORD PTR _this$[ebp], ecx
	mov	eax, DWORD PTR _this$[ebp]
	mov	ecx, DWORD PTR _rhs$[ebp]
	mov	edx, DWORD PTR [ecx]
	mov	DWORD PTR [eax], edx

; 35   : 			addRef(m_StrHandle);

	mov	eax, DWORD PTR _this$[ebp]
	mov	ecx, DWORD PTR [eax]
	push	ecx
	call	?addRef@FixedString@Ogre@@SAXPAX@Z	; Ogre::FixedString::addRef
	add	esp, 4

; 36   : 		}

	mov	eax, DWORD PTR _this$[ebp]
	mov	esp, ebp
	pop	ebp
	ret	4
??0FixedString@Ogre@@QAE@ABV01@@Z ENDP			; Ogre::FixedString::FixedString
_TEXT	ENDS
PUBLIC	??0FixedString@Ogre@@QAE@PBD@Z			; Ogre::FixedString::FixedString
EXTRN	?insert@FixedString@Ogre@@SAPAXPBDH@Z:PROC	; Ogre::FixedString::insert
; Function compile flags: /Odtp
;	COMDAT ??0FixedString@Ogre@@QAE@PBD@Z
_TEXT	SEGMENT
_this$ = -4						; size = 4
_pstr$ = 8						; size = 4
??0FixedString@Ogre@@QAE@PBD@Z PROC			; Ogre::FixedString::FixedString, COMDAT
; _this$ = ecx

; 38   : 		FixedString(const char *pstr)

	push	ebp
	mov	ebp, esp
	push	ecx
	mov	DWORD PTR _this$[ebp], ecx

; 39   : 		{
; 40   : 			m_StrHandle = insert(pstr); 

	push	-1
	mov	eax, DWORD PTR _pstr$[ebp]
	push	eax
	call	?insert@FixedString@Ogre@@SAPAXPBDH@Z	; Ogre::FixedString::insert
	add	esp, 8
	mov	ecx, DWORD PTR _this$[ebp]
	mov	DWORD PTR [ecx], eax

; 41   : 		}

	mov	eax, DWORD PTR _this$[ebp]
	mov	esp, ebp
	pop	ebp
	ret	4
??0FixedString@Ogre@@QAE@PBD@Z ENDP			; Ogre::FixedString::FixedString
_TEXT	ENDS
PUBLIC	??0FixedString@Ogre@@QAE@PBDI@Z			; Ogre::FixedString::FixedString
; Function compile flags: /Odtp
;	COMDAT ??0FixedString@Ogre@@QAE@PBDI@Z
_TEXT	SEGMENT
_this$ = -4						; size = 4
_pstr$ = 8						; size = 4
_len$ = 12						; size = 4
??0FixedString@Ogre@@QAE@PBDI@Z PROC			; Ogre::FixedString::FixedString, COMDAT
; _this$ = ecx

; 43   : 		FixedString(const char *pstr, size_t len)

	push	ebp
	mov	ebp, esp
	push	ecx
	mov	DWORD PTR _this$[ebp], ecx

; 44   : 		{
; 45   : 			m_StrHandle = insert(pstr, (int)len); 

	mov	eax, DWORD PTR _len$[ebp]
	push	eax
	mov	ecx, DWORD PTR _pstr$[ebp]
	push	ecx
	call	?insert@FixedString@Ogre@@SAPAXPBDH@Z	; Ogre::FixedString::insert
	add	esp, 8
	mov	edx, DWORD PTR _this$[ebp]
	mov	DWORD PTR [edx], eax

; 46   : 		}

	mov	eax, DWORD PTR _this$[ebp]
	mov	esp, ebp
	pop	ebp
	ret	8
??0FixedString@Ogre@@QAE@PBDI@Z ENDP			; Ogre::FixedString::FixedString
_TEXT	ENDS
PUBLIC	??1FixedString@Ogre@@QAE@XZ			; Ogre::FixedString::~FixedString
EXTRN	?release@FixedString@Ogre@@SAXPAX@Z:PROC	; Ogre::FixedString::release
; Function compile flags: /Odtp
;	COMDAT ??1FixedString@Ogre@@QAE@XZ
_TEXT	SEGMENT
_this$ = -4						; size = 4
??1FixedString@Ogre@@QAE@XZ PROC			; Ogre::FixedString::~FixedString, COMDAT
; _this$ = ecx

; 49   : 		{

	push	ebp
	mov	ebp, esp
	push	ecx
	mov	DWORD PTR _this$[ebp], ecx

; 50   : 			release(m_StrHandle); 

	mov	eax, DWORD PTR _this$[ebp]
	mov	ecx, DWORD PTR [eax]
	push	ecx
	call	?release@FixedString@Ogre@@SAXPAX@Z	; Ogre::FixedString::release
	add	esp, 4

; 51   : 		}

	mov	esp, ebp
	pop	ebp
	ret	0
??1FixedString@Ogre@@QAE@XZ ENDP			; Ogre::FixedString::~FixedString
_TEXT	ENDS
PUBLIC	??BFixedString@Ogre@@QBEPBDXZ			; Ogre::FixedString::operator char const *
; Function compile flags: /Odtp
;	COMDAT ??BFixedString@Ogre@@QBEPBDXZ
_TEXT	SEGMENT
_this$ = -4						; size = 4
??BFixedString@Ogre@@QBEPBDXZ PROC			; Ogre::FixedString::operator char const *, COMDAT
; _this$ = ecx

; 54   : 		{

	push	ebp
	mov	ebp, esp
	push	ecx
	mov	DWORD PTR _this$[ebp], ecx

; 55   : 			return handle2Ptr(m_StrHandle);

	mov	eax, DWORD PTR _this$[ebp]
	mov	ecx, DWORD PTR [eax]
	push	ecx
	call	?handle2Ptr@FixedString@Ogre@@SAPBDPAX@Z ; Ogre::FixedString::handle2Ptr
	add	esp, 4

; 56   : 		}

	mov	esp, ebp
	pop	ebp
	ret	0
??BFixedString@Ogre@@QBEPBDXZ ENDP			; Ogre::FixedString::operator char const *
_TEXT	ENDS
PUBLIC	?getHandle@FixedString@Ogre@@QBEPAXXZ		; Ogre::FixedString::getHandle
; Function compile flags: /Odtp
;	COMDAT ?getHandle@FixedString@Ogre@@QBEPAXXZ
_TEXT	SEGMENT
_this$ = -4						; size = 4
?getHandle@FixedString@Ogre@@QBEPAXXZ PROC		; Ogre::FixedString::getHandle, COMDAT
; _this$ = ecx

; 59   : 		{

	push	ebp
	mov	ebp, esp
	push	ecx
	mov	DWORD PTR _this$[ebp], ecx

; 60   : 			return m_StrHandle;

	mov	eax, DWORD PTR _this$[ebp]
	mov	eax, DWORD PTR [eax]

; 61   : 		}

	mov	esp, ebp
	pop	ebp
	ret	0
?getHandle@FixedString@Ogre@@QBEPAXXZ ENDP		; Ogre::FixedString::getHandle
_TEXT	ENDS
PUBLIC	?getRTTI@Resource@Ogre@@UBEPBVRuntimeClass@2@XZ	; Ogre::Resource::getRTTI
EXTRN	?m_RTTI@Resource@Ogre@@2VRuntimeClass@2@B:BYTE	; Ogre::Resource::m_RTTI
; Function compile flags: /Odtp
; File i:\svnroot\client\ogremain\ogreresource.h
;	COMDAT ?getRTTI@Resource@Ogre@@UBEPBVRuntimeClass@2@XZ
_TEXT	SEGMENT
_this$ = -4						; size = 4
?getRTTI@Resource@Ogre@@UBEPBVRuntimeClass@2@XZ PROC	; Ogre::Resource::getRTTI, COMDAT
; _this$ = ecx

; 39   : 		DECLARE_RTTI_VIRTUAL(Resource)

	push	ebp
	mov	ebp, esp
	push	ecx
	mov	DWORD PTR _this$[ebp], ecx
	mov	eax, OFFSET ?m_RTTI@Resource@Ogre@@2VRuntimeClass@2@B ; Ogre::Resource::m_RTTI
	mov	esp, ebp
	pop	ebp
	ret	0
?getRTTI@Resource@Ogre@@UBEPBVRuntimeClass@2@XZ ENDP	; Ogre::Resource::getRTTI
_TEXT	ENDS
PUBLIC	?getResPath@Resource@Ogre@@QAEABVFixedString@2@XZ ; Ogre::Resource::getResPath
; Function compile flags: /Odtp
;	COMDAT ?getResPath@Resource@Ogre@@QAEABVFixedString@2@XZ
_TEXT	SEGMENT
_this$ = -4						; size = 4
?getResPath@Resource@Ogre@@QAEABVFixedString@2@XZ PROC	; Ogre::Resource::getResPath, COMDAT
; _this$ = ecx

; 44   : 		{

	push	ebp
	mov	ebp, esp
	push	ecx
	mov	DWORD PTR _this$[ebp], ecx

; 45   : 			return m_ResPath;

	mov	eax, DWORD PTR _this$[ebp]
	add	eax, 8

; 46   : 		}

	mov	esp, ebp
	pop	ebp
	ret	0
?getResPath@Resource@Ogre@@QAEABVFixedString@2@XZ ENDP	; Ogre::Resource::getResPath
_TEXT	ENDS
PUBLIC	?setResPath@Resource@Ogre@@QAEXABVFixedString@2@@Z ; Ogre::Resource::setResPath
EXTRN	??4FixedString@Ogre@@QAEAAV01@ABV01@@Z:PROC	; Ogre::FixedString::operator=
; Function compile flags: /Odtp
;	COMDAT ?setResPath@Resource@Ogre@@QAEXABVFixedString@2@@Z
_TEXT	SEGMENT
_this$ = -4						; size = 4
_path$ = 8						; size = 4
?setResPath@Resource@Ogre@@QAEXABVFixedString@2@@Z PROC	; Ogre::Resource::setResPath, COMDAT
; _this$ = ecx

; 48   : 		{

	push	ebp
	mov	ebp, esp
	push	ecx
	mov	DWORD PTR _this$[ebp], ecx

; 49   : 			m_ResPath = path;

	mov	eax, DWORD PTR _path$[ebp]
	push	eax
	mov	ecx, DWORD PTR _this$[ebp]
	add	ecx, 8
	call	??4FixedString@Ogre@@QAEAAV01@ABV01@@Z	; Ogre::FixedString::operator=

; 50   : 		}

	mov	esp, ebp
	pop	ebp
	ret	4
?setResPath@Resource@Ogre@@QAEXABVFixedString@2@@Z ENDP	; Ogre::Resource::setResPath
_TEXT	ENDS
PUBLIC	??_7Resource@Ogre@@6B@				; Ogre::Resource::`vftable'
PUBLIC	??0Resource@Ogre@@IAE@XZ			; Ogre::Resource::Resource
PUBLIC	??_R4Resource@Ogre@@6B@				; Ogre::Resource::`RTTI Complete Object Locator'
PUBLIC	??_R0?AVResource@Ogre@@@8			; Ogre::Resource `RTTI Type Descriptor'
PUBLIC	??_R3Resource@Ogre@@8				; Ogre::Resource::`RTTI Class Hierarchy Descriptor'
PUBLIC	??_R2Resource@Ogre@@8				; Ogre::Resource::`RTTI Base Class Array'
PUBLIC	??_R1A@?0A@EA@Resource@Ogre@@8			; Ogre::Resource::`RTTI Base Class Descriptor at (0,-1,0,64)'
PUBLIC	??_EResource@Ogre@@MAEPAXI@Z			; Ogre::Resource::`vector deleting destructor'
EXTRN	___security_cookie:DWORD
EXTRN	___CxxFrameHandler3:PROC
EXTRN	@__security_check_cookie@4:PROC
EXTRN	?release@Resource@Ogre@@UAEXXZ:PROC		; Ogre::Resource::release
EXTRN	?addRef@Resource@Ogre@@UAEXXZ:PROC		; Ogre::Resource::addRef
EXTRN	?getRefCount@Resource@Ogre@@UAEHXZ:PROC		; Ogre::Resource::getRefCount
;	COMDAT ??_R1A@?0A@EA@Resource@Ogre@@8
rdata$r	SEGMENT
??_R1A@?0A@EA@Resource@Ogre@@8 DD FLAT:??_R0?AVResource@Ogre@@@8 ; Ogre::Resource::`RTTI Base Class Descriptor at (0,-1,0,64)'
	DD	02H
	DD	00H
	DD	0ffffffffH
	DD	00H
	DD	040H
	DD	FLAT:??_R3Resource@Ogre@@8
rdata$r	ENDS
;	COMDAT ??_R2Resource@Ogre@@8
rdata$r	SEGMENT
??_R2Resource@Ogre@@8 DD FLAT:??_R1A@?0A@EA@Resource@Ogre@@8 ; Ogre::Resource::`RTTI Base Class Array'
	DD	FLAT:??_R1A@?0A@EA@BaseObject@Ogre@@8
	DD	FLAT:??_R13?0A@EA@MemoryDelegation@Ogre@@8
rdata$r	ENDS
;	COMDAT ??_R3Resource@Ogre@@8
rdata$r	SEGMENT
??_R3Resource@Ogre@@8 DD 00H				; Ogre::Resource::`RTTI Class Hierarchy Descriptor'
	DD	00H
	DD	03H
	DD	FLAT:??_R2Resource@Ogre@@8
rdata$r	ENDS
;	COMDAT ??_R0?AVResource@Ogre@@@8
_DATA	SEGMENT
??_R0?AVResource@Ogre@@@8 DD FLAT:??_7type_info@@6B@	; Ogre::Resource `RTTI Type Descriptor'
	DD	00H
	DB	'.?AVResource@Ogre@@', 00H
_DATA	ENDS
;	COMDAT ??_R4Resource@Ogre@@6B@
rdata$r	SEGMENT
??_R4Resource@Ogre@@6B@ DD 00H				; Ogre::Resource::`RTTI Complete Object Locator'
	DD	00H
	DD	00H
	DD	FLAT:??_R0?AVResource@Ogre@@@8
	DD	FLAT:??_R3Resource@Ogre@@8
rdata$r	ENDS
;	COMDAT ??_7Resource@Ogre@@6B@
CONST	SEGMENT
??_7Resource@Ogre@@6B@ DD FLAT:??_R4Resource@Ogre@@6B@	; Ogre::Resource::`vftable'
	DD	FLAT:?getRTTI@Resource@Ogre@@UBEPBVRuntimeClass@2@XZ
	DD	FLAT:?release@Resource@Ogre@@UAEXXZ
	DD	FLAT:?addRef@Resource@Ogre@@UAEXXZ
	DD	FLAT:?getRefCount@Resource@Ogre@@UAEHXZ
	DD	FLAT:?_serialize@BaseObject@Ogre@@UAEXAAVArchive@2@H@Z
	DD	FLAT:??_EResource@Ogre@@MAEPAXI@Z
	DD	FLAT:?deleteThis@BaseObject@Ogre@@MAEXXZ
CONST	ENDS
;	COMDAT xdata$x
xdata$x	SEGMENT
__unwindtable$??0Resource@Ogre@@IAE@XZ DD 0ffffffffH
	DD	FLAT:__unwindfunclet$??0Resource@Ogre@@IAE@XZ$0
	DD	00H
	DD	FLAT:__unwindfunclet$??0Resource@Ogre@@IAE@XZ$1
__ehfuncinfo$??0Resource@Ogre@@IAE@XZ DD 019930522H
	DD	02H
	DD	FLAT:__unwindtable$??0Resource@Ogre@@IAE@XZ
	DD	2 DUP(00H)
	DD	2 DUP(00H)
	DD	00H
	DD	00H
; Function compile flags: /Odtp
xdata$x	ENDS
;	COMDAT ??0Resource@Ogre@@IAE@XZ
_TEXT	SEGMENT
_this$ = -16						; size = 4
__$EHRec$ = -12						; size = 12
??0Resource@Ogre@@IAE@XZ PROC				; Ogre::Resource::Resource, COMDAT
; _this$ = ecx

; 72   : 		{

	push	ebp
	mov	ebp, esp
	push	-1
	push	__ehhandler$??0Resource@Ogre@@IAE@XZ
	mov	eax, DWORD PTR fs:0
	push	eax
	push	ecx
	mov	eax, DWORD PTR ___security_cookie
	xor	eax, ebp
	push	eax
	lea	eax, DWORD PTR __$EHRec$[ebp]
	mov	DWORD PTR fs:0, eax
	mov	DWORD PTR _this$[ebp], ecx
	mov	ecx, DWORD PTR _this$[ebp]
	call	??0BaseObject@Ogre@@IAE@XZ		; Ogre::BaseObject::BaseObject
	mov	DWORD PTR __$EHRec$[ebp+8], 0
	mov	eax, DWORD PTR _this$[ebp]
	mov	DWORD PTR [eax], OFFSET ??_7Resource@Ogre@@6B@
	mov	ecx, DWORD PTR _this$[ebp]
	add	ecx, 8
	call	??0FixedString@Ogre@@QAE@XZ		; Ogre::FixedString::FixedString
	mov	BYTE PTR __$EHRec$[ebp+8], 1
	mov	ecx, DWORD PTR _this$[ebp]
	mov	DWORD PTR [ecx+12], 1

; 73   : 		}

	mov	DWORD PTR __$EHRec$[ebp+8], -1
	mov	eax, DWORD PTR _this$[ebp]
	mov	ecx, DWORD PTR __$EHRec$[ebp]
	mov	DWORD PTR fs:0, ecx
	pop	ecx
	mov	esp, ebp
	pop	ebp
	ret	0
_TEXT	ENDS
;	COMDAT text$x
text$x	SEGMENT
__unwindfunclet$??0Resource@Ogre@@IAE@XZ$0:
	mov	ecx, DWORD PTR _this$[ebp]
	jmp	??1BaseObject@Ogre@@MAE@XZ		; Ogre::BaseObject::~BaseObject
__unwindfunclet$??0Resource@Ogre@@IAE@XZ$1:
	mov	ecx, DWORD PTR _this$[ebp]
	add	ecx, 8
	jmp	??1FixedString@Ogre@@QAE@XZ		; Ogre::FixedString::~FixedString
__ehhandler$??0Resource@Ogre@@IAE@XZ:
	mov	edx, DWORD PTR [esp+8]
	lea	eax, DWORD PTR [edx+12]
	mov	ecx, DWORD PTR [edx-8]
	xor	ecx, eax
	call	@__security_check_cookie@4
	mov	eax, OFFSET __ehfuncinfo$??0Resource@Ogre@@IAE@XZ
	jmp	___CxxFrameHandler3
text$x	ENDS
??0Resource@Ogre@@IAE@XZ ENDP				; Ogre::Resource::Resource
PUBLIC	??1Resource@Ogre@@MAE@XZ			; Ogre::Resource::~Resource
;	COMDAT xdata$x
xdata$x	SEGMENT
__unwindtable$??1Resource@Ogre@@MAE@XZ DD 0ffffffffH
	DD	FLAT:__unwindfunclet$??1Resource@Ogre@@MAE@XZ$0
	DD	00H
	DD	FLAT:__unwindfunclet$??1Resource@Ogre@@MAE@XZ$1
__ehfuncinfo$??1Resource@Ogre@@MAE@XZ DD 019930522H
	DD	02H
	DD	FLAT:__unwindtable$??1Resource@Ogre@@MAE@XZ
	DD	2 DUP(00H)
	DD	2 DUP(00H)
	DD	00H
	DD	00H
; Function compile flags: /Odtp
xdata$x	ENDS
;	COMDAT ??1Resource@Ogre@@MAE@XZ
_TEXT	SEGMENT
_this$ = -16						; size = 4
__$EHRec$ = -12						; size = 12
??1Resource@Ogre@@MAE@XZ PROC				; Ogre::Resource::~Resource, COMDAT
; _this$ = ecx

; 76   : 		{

	push	ebp
	mov	ebp, esp
	push	-1
	push	__ehhandler$??1Resource@Ogre@@MAE@XZ
	mov	eax, DWORD PTR fs:0
	push	eax
	push	ecx
	mov	eax, DWORD PTR ___security_cookie
	xor	eax, ebp
	push	eax
	lea	eax, DWORD PTR __$EHRec$[ebp]
	mov	DWORD PTR fs:0, eax
	mov	DWORD PTR _this$[ebp], ecx
	mov	eax, DWORD PTR _this$[ebp]
	mov	DWORD PTR [eax], OFFSET ??_7Resource@Ogre@@6B@
	mov	DWORD PTR __$EHRec$[ebp+8], 1

; 77   : 		}

	mov	BYTE PTR __$EHRec$[ebp+8], 0
	mov	ecx, DWORD PTR _this$[ebp]
	add	ecx, 8
	call	??1FixedString@Ogre@@QAE@XZ		; Ogre::FixedString::~FixedString
	mov	DWORD PTR __$EHRec$[ebp+8], -1
	mov	ecx, DWORD PTR _this$[ebp]
	call	??1BaseObject@Ogre@@MAE@XZ		; Ogre::BaseObject::~BaseObject
	mov	ecx, DWORD PTR __$EHRec$[ebp]
	mov	DWORD PTR fs:0, ecx
	pop	ecx
	mov	esp, ebp
	pop	ebp
	ret	0
_TEXT	ENDS
;	COMDAT text$x
text$x	SEGMENT
__unwindfunclet$??1Resource@Ogre@@MAE@XZ$0:
	mov	ecx, DWORD PTR _this$[ebp]
	jmp	??1BaseObject@Ogre@@MAE@XZ		; Ogre::BaseObject::~BaseObject
__unwindfunclet$??1Resource@Ogre@@MAE@XZ$1:
	mov	ecx, DWORD PTR _this$[ebp]
	add	ecx, 8
	jmp	??1FixedString@Ogre@@QAE@XZ		; Ogre::FixedString::~FixedString
__ehhandler$??1Resource@Ogre@@MAE@XZ:
	mov	edx, DWORD PTR [esp+8]
	lea	eax, DWORD PTR [edx+12]
	mov	ecx, DWORD PTR [edx-8]
	xor	ecx, eax
	call	@__security_check_cookie@4
	mov	eax, OFFSET __ehfuncinfo$??1Resource@Ogre@@MAE@XZ
	jmp	___CxxFrameHandler3
text$x	ENDS
??1Resource@Ogre@@MAE@XZ ENDP				; Ogre::Resource::~Resource
PUBLIC	??0Resource@Ogre@@QAE@ABV01@@Z			; Ogre::Resource::Resource
;	COMDAT xdata$x
xdata$x	SEGMENT
__unwindtable$??0Resource@Ogre@@QAE@ABV01@@Z DD 0ffffffffH
	DD	FLAT:__unwindfunclet$??0Resource@Ogre@@QAE@ABV01@@Z$0
	DD	00H
	DD	FLAT:__unwindfunclet$??0Resource@Ogre@@QAE@ABV01@@Z$1
__ehfuncinfo$??0Resource@Ogre@@QAE@ABV01@@Z DD 019930522H
	DD	02H
	DD	FLAT:__unwindtable$??0Resource@Ogre@@QAE@ABV01@@Z
	DD	2 DUP(00H)
	DD	2 DUP(00H)
	DD	00H
	DD	00H
; Function compile flags: /Odtp
xdata$x	ENDS
;	COMDAT ??0Resource@Ogre@@QAE@ABV01@@Z
_TEXT	SEGMENT
_this$ = -16						; size = 4
__$EHRec$ = -12						; size = 12
___that$ = 8						; size = 4
??0Resource@Ogre@@QAE@ABV01@@Z PROC			; Ogre::Resource::Resource, COMDAT
; _this$ = ecx
	push	ebp
	mov	ebp, esp
	push	-1
	push	__ehhandler$??0Resource@Ogre@@QAE@ABV01@@Z
	mov	eax, DWORD PTR fs:0
	push	eax
	push	ecx
	mov	eax, DWORD PTR ___security_cookie
	xor	eax, ebp
	push	eax
	lea	eax, DWORD PTR __$EHRec$[ebp]
	mov	DWORD PTR fs:0, eax
	mov	DWORD PTR _this$[ebp], ecx
	mov	eax, DWORD PTR ___that$[ebp]
	push	eax
	mov	ecx, DWORD PTR _this$[ebp]
	call	??0BaseObject@Ogre@@QAE@ABV01@@Z
	mov	DWORD PTR __$EHRec$[ebp+8], 0
	mov	ecx, DWORD PTR _this$[ebp]
	mov	DWORD PTR [ecx], OFFSET ??_7Resource@Ogre@@6B@
	mov	edx, DWORD PTR ___that$[ebp]
	add	edx, 8
	push	edx
	mov	ecx, DWORD PTR _this$[ebp]
	add	ecx, 8
	call	??0FixedString@Ogre@@QAE@ABV01@@Z	; Ogre::FixedString::FixedString
	mov	BYTE PTR __$EHRec$[ebp+8], 1
	mov	eax, DWORD PTR ___that$[ebp]
	mov	ecx, DWORD PTR [eax+12]
	mov	edx, DWORD PTR _this$[ebp]
	mov	DWORD PTR [edx+12], ecx
	mov	DWORD PTR __$EHRec$[ebp+8], -1
	mov	eax, DWORD PTR _this$[ebp]
	mov	ecx, DWORD PTR __$EHRec$[ebp]
	mov	DWORD PTR fs:0, ecx
	pop	ecx
	mov	esp, ebp
	pop	ebp
	ret	4
_TEXT	ENDS
;	COMDAT text$x
text$x	SEGMENT
__unwindfunclet$??0Resource@Ogre@@QAE@ABV01@@Z$0:
	mov	ecx, DWORD PTR _this$[ebp]
	jmp	??1BaseObject@Ogre@@MAE@XZ		; Ogre::BaseObject::~BaseObject
__unwindfunclet$??0Resource@Ogre@@QAE@ABV01@@Z$1:
	mov	ecx, DWORD PTR _this$[ebp]
	add	ecx, 8
	jmp	??1FixedString@Ogre@@QAE@XZ		; Ogre::FixedString::~FixedString
__ehhandler$??0Resource@Ogre@@QAE@ABV01@@Z:
	mov	edx, DWORD PTR [esp+8]
	lea	eax, DWORD PTR [edx+12]
	mov	ecx, DWORD PTR [edx-8]
	xor	ecx, eax
	call	@__security_check_cookie@4
	mov	eax, OFFSET __ehfuncinfo$??0Resource@Ogre@@QAE@ABV01@@Z
	jmp	___CxxFrameHandler3
text$x	ENDS
??0Resource@Ogre@@QAE@ABV01@@Z ENDP			; Ogre::Resource::Resource
PUBLIC	??4Resource@Ogre@@QAEAAV01@ABV01@@Z		; Ogre::Resource::operator=
; Function compile flags: /Odtp
;	COMDAT ??4Resource@Ogre@@QAEAAV01@ABV01@@Z
_TEXT	SEGMENT
_this$ = -4						; size = 4
___that$ = 8						; size = 4
??4Resource@Ogre@@QAEAAV01@ABV01@@Z PROC		; Ogre::Resource::operator=, COMDAT
; _this$ = ecx
	push	ebp
	mov	ebp, esp
	push	ecx
	mov	DWORD PTR _this$[ebp], ecx
	mov	eax, DWORD PTR ___that$[ebp]
	push	eax
	mov	ecx, DWORD PTR _this$[ebp]
	call	??4BaseObject@Ogre@@QAEAAV01@ABV01@@Z
	mov	ecx, DWORD PTR ___that$[ebp]
	add	ecx, 8
	push	ecx
	mov	ecx, DWORD PTR _this$[ebp]
	add	ecx, 8
	call	??4FixedString@Ogre@@QAEAAV01@ABV01@@Z	; Ogre::FixedString::operator=
	mov	edx, DWORD PTR ___that$[ebp]
	mov	eax, DWORD PTR [edx+12]
	mov	ecx, DWORD PTR _this$[ebp]
	mov	DWORD PTR [ecx+12], eax
	mov	eax, DWORD PTR _this$[ebp]
	mov	esp, ebp
	pop	ebp
	ret	4
??4Resource@Ogre@@QAEAAV01@ABV01@@Z ENDP		; Ogre::Resource::operator=
_TEXT	ENDS
PUBLIC	??_GResource@Ogre@@MAEPAXI@Z			; Ogre::Resource::`scalar deleting destructor'
; Function compile flags: /Odtp
;	COMDAT ??_GResource@Ogre@@MAEPAXI@Z
_TEXT	SEGMENT
_this$ = -4						; size = 4
___flags$ = 8						; size = 4
??_GResource@Ogre@@MAEPAXI@Z PROC			; Ogre::Resource::`scalar deleting destructor', COMDAT
; _this$ = ecx
	push	ebp
	mov	ebp, esp
	push	ecx
	mov	DWORD PTR _this$[ebp], ecx
	mov	ecx, DWORD PTR _this$[ebp]
	call	??1Resource@Ogre@@MAE@XZ		; Ogre::Resource::~Resource
	mov	eax, DWORD PTR ___flags$[ebp]
	and	eax, 1
	je	SHORT $LN1@scalar@2
	push	16					; 00000010H
	mov	ecx, DWORD PTR _this$[ebp]
	push	ecx
	call	??3MemoryDelegation@Ogre@@SAXPAXI@Z	; Ogre::MemoryDelegation::operator delete
	add	esp, 8
$LN1@scalar@2:
	mov	eax, DWORD PTR _this$[ebp]
	mov	esp, ebp
	pop	ebp
	ret	4
??_GResource@Ogre@@MAEPAXI@Z ENDP			; Ogre::Resource::`scalar deleting destructor'
; Function compile flags: /Odtp
_TEXT	ENDS
;	COMDAT ??_EResource@Ogre@@MAEPAXI@Z
_TEXT	SEGMENT
_this$ = -4						; size = 4
___flags$ = 8						; size = 4
??_EResource@Ogre@@MAEPAXI@Z PROC			; Ogre::Resource::`vector deleting destructor', COMDAT
; _this$ = ecx
	push	ebp
	mov	ebp, esp
	push	ecx
	mov	DWORD PTR _this$[ebp], ecx
	mov	eax, DWORD PTR ___flags$[ebp]
	and	eax, 2
	je	SHORT $LN3@vector@2
	push	OFFSET ??1Resource@Ogre@@MAE@XZ		; Ogre::Resource::~Resource
	mov	ecx, DWORD PTR _this$[ebp]
	mov	edx, DWORD PTR [ecx-4]
	push	edx
	push	16					; 00000010H
	mov	eax, DWORD PTR _this$[ebp]
	push	eax
	call	??_M@YGXPAXIHP6EX0@Z@Z
	mov	ecx, DWORD PTR ___flags$[ebp]
	and	ecx, 1
	je	SHORT $LN2@vector@2
	push	16					; 00000010H
	mov	edx, DWORD PTR _this$[ebp]
	sub	edx, 4
	push	edx
	call	??_VMemoryDelegation@Ogre@@SAXPAXI@Z	; Ogre::MemoryDelegation::operator delete[]
	add	esp, 8
$LN2@vector@2:
	mov	eax, DWORD PTR _this$[ebp]
	sub	eax, 4
	jmp	SHORT $LN4@vector@2
$LN3@vector@2:
	mov	ecx, DWORD PTR _this$[ebp]
	call	??1Resource@Ogre@@MAE@XZ		; Ogre::Resource::~Resource
	mov	eax, DWORD PTR ___flags$[ebp]
	and	eax, 1
	je	SHORT $LN1@vector@2
	push	16					; 00000010H
	mov	ecx, DWORD PTR _this$[ebp]
	push	ecx
	call	??3MemoryDelegation@Ogre@@SAXPAXI@Z	; Ogre::MemoryDelegation::operator delete
	add	esp, 8
$LN1@vector@2:
	mov	eax, DWORD PTR _this$[ebp]
$LN4@vector@2:
	mov	esp, ebp
	pop	ebp
	ret	4
??_EResource@Ogre@@MAEPAXI@Z ENDP			; Ogre::Resource::`vector deleting destructor'
_TEXT	ENDS
PUBLIC	?getRTTI@BaseAnimationData@Ogre@@UBEPBVRuntimeClass@2@XZ ; Ogre::BaseAnimationData::getRTTI
EXTRN	?m_RTTI@BaseAnimationData@Ogre@@2VRuntimeClass@2@B:BYTE ; Ogre::BaseAnimationData::m_RTTI
; Function compile flags: /Odtp
; File i:\svnroot\client\ogremain\ogreanimationdata.h
;	COMDAT ?getRTTI@BaseAnimationData@Ogre@@UBEPBVRuntimeClass@2@XZ
_TEXT	SEGMENT
_this$ = -4						; size = 4
?getRTTI@BaseAnimationData@Ogre@@UBEPBVRuntimeClass@2@XZ PROC ; Ogre::BaseAnimationData::getRTTI, COMDAT
; _this$ = ecx

; 41   : 		DECLARE_RTTI_VIRTUAL(BaseAnimationData)

	push	ebp
	mov	ebp, esp
	push	ecx
	mov	DWORD PTR _this$[ebp], ecx
	mov	eax, OFFSET ?m_RTTI@BaseAnimationData@Ogre@@2VRuntimeClass@2@B ; Ogre::BaseAnimationData::m_RTTI
	mov	esp, ebp
	pop	ebp
	ret	0
?getRTTI@BaseAnimationData@Ogre@@UBEPBVRuntimeClass@2@XZ ENDP ; Ogre::BaseAnimationData::getRTTI
_TEXT	ENDS
PUBLIC	??1?$vector@USequenceDesc@Ogre@@V?$allocator@USequenceDesc@Ogre@@@std@@@std@@QAE@XZ ; std::vector<Ogre::SequenceDesc,std::allocator<Ogre::SequenceDesc> >::~vector<Ogre::SequenceDesc,std::allocator<Ogre::SequenceDesc> >
PUBLIC	??1?$vector@UTriggerDesc@Ogre@@V?$allocator@UTriggerDesc@Ogre@@@std@@@std@@QAE@XZ ; std::vector<Ogre::TriggerDesc,std::allocator<Ogre::TriggerDesc> >::~vector<Ogre::TriggerDesc,std::allocator<Ogre::TriggerDesc> >
PUBLIC	??0?$vector@USequenceDesc@Ogre@@V?$allocator@USequenceDesc@Ogre@@@std@@@std@@QAE@XZ ; std::vector<Ogre::SequenceDesc,std::allocator<Ogre::SequenceDesc> >::vector<Ogre::SequenceDesc,std::allocator<Ogre::SequenceDesc> >
PUBLIC	??0?$vector@UTriggerDesc@Ogre@@V?$allocator@UTriggerDesc@Ogre@@@std@@@std@@QAE@XZ ; std::vector<Ogre::TriggerDesc,std::allocator<Ogre::TriggerDesc> >::vector<Ogre::TriggerDesc,std::allocator<Ogre::TriggerDesc> >
PUBLIC	??_7BaseAnimationData@Ogre@@6B@			; Ogre::BaseAnimationData::`vftable'
PUBLIC	??0BaseAnimationData@Ogre@@QAE@XZ		; Ogre::BaseAnimationData::BaseAnimationData
PUBLIC	??_R4BaseAnimationData@Ogre@@6B@		; Ogre::BaseAnimationData::`RTTI Complete Object Locator'
PUBLIC	??_R0?AVBaseAnimationData@Ogre@@@8		; Ogre::BaseAnimationData `RTTI Type Descriptor'
PUBLIC	??_R3BaseAnimationData@Ogre@@8			; Ogre::BaseAnimationData::`RTTI Class Hierarchy Descriptor'
PUBLIC	??_R2BaseAnimationData@Ogre@@8			; Ogre::BaseAnimationData::`RTTI Base Class Array'
PUBLIC	??_R1A@?0A@EA@BaseAnimationData@Ogre@@8		; Ogre::BaseAnimationData::`RTTI Base Class Descriptor at (0,-1,0,64)'
PUBLIC	??_EBaseAnimationData@Ogre@@UAEPAXI@Z		; Ogre::BaseAnimationData::`vector deleting destructor'
EXTRN	?_serialize@BaseAnimationData@Ogre@@UAEXAAVArchive@2@H@Z:PROC ; Ogre::BaseAnimationData::_serialize
EXTRN	__purecall:PROC
;	COMDAT ??_R1A@?0A@EA@BaseAnimationData@Ogre@@8
rdata$r	SEGMENT
??_R1A@?0A@EA@BaseAnimationData@Ogre@@8 DD FLAT:??_R0?AVBaseAnimationData@Ogre@@@8 ; Ogre::BaseAnimationData::`RTTI Base Class Descriptor at (0,-1,0,64)'
	DD	03H
	DD	00H
	DD	0ffffffffH
	DD	00H
	DD	040H
	DD	FLAT:??_R3BaseAnimationData@Ogre@@8
rdata$r	ENDS
;	COMDAT ??_R2BaseAnimationData@Ogre@@8
rdata$r	SEGMENT
??_R2BaseAnimationData@Ogre@@8 DD FLAT:??_R1A@?0A@EA@BaseAnimationData@Ogre@@8 ; Ogre::BaseAnimationData::`RTTI Base Class Array'
	DD	FLAT:??_R1A@?0A@EA@Resource@Ogre@@8
	DD	FLAT:??_R1A@?0A@EA@BaseObject@Ogre@@8
	DD	FLAT:??_R13?0A@EA@MemoryDelegation@Ogre@@8
rdata$r	ENDS
;	COMDAT ??_R3BaseAnimationData@Ogre@@8
rdata$r	SEGMENT
??_R3BaseAnimationData@Ogre@@8 DD 00H			; Ogre::BaseAnimationData::`RTTI Class Hierarchy Descriptor'
	DD	00H
	DD	04H
	DD	FLAT:??_R2BaseAnimationData@Ogre@@8
rdata$r	ENDS
;	COMDAT ??_R0?AVBaseAnimationData@Ogre@@@8
_DATA	SEGMENT
??_R0?AVBaseAnimationData@Ogre@@@8 DD FLAT:??_7type_info@@6B@ ; Ogre::BaseAnimationData `RTTI Type Descriptor'
	DD	00H
	DB	'.?AVBaseAnimationData@Ogre@@', 00H
_DATA	ENDS
;	COMDAT ??_R4BaseAnimationData@Ogre@@6B@
rdata$r	SEGMENT
??_R4BaseAnimationData@Ogre@@6B@ DD 00H			; Ogre::BaseAnimationData::`RTTI Complete Object Locator'
	DD	00H
	DD	00H
	DD	FLAT:??_R0?AVBaseAnimationData@Ogre@@@8
	DD	FLAT:??_R3BaseAnimationData@Ogre@@8
rdata$r	ENDS
;	COMDAT ??_7BaseAnimationData@Ogre@@6B@
CONST	SEGMENT
??_7BaseAnimationData@Ogre@@6B@ DD FLAT:??_R4BaseAnimationData@Ogre@@6B@ ; Ogre::BaseAnimationData::`vftable'
	DD	FLAT:?getRTTI@BaseAnimationData@Ogre@@UBEPBVRuntimeClass@2@XZ
	DD	FLAT:?release@Resource@Ogre@@UAEXXZ
	DD	FLAT:?addRef@Resource@Ogre@@UAEXXZ
	DD	FLAT:?getRefCount@Resource@Ogre@@UAEHXZ
	DD	FLAT:?_serialize@BaseAnimationData@Ogre@@UAEXAAVArchive@2@H@Z
	DD	FLAT:??_EBaseAnimationData@Ogre@@UAEPAXI@Z
	DD	FLAT:?deleteThis@BaseObject@Ogre@@MAEXXZ
	DD	FLAT:__purecall
CONST	ENDS
;	COMDAT xdata$x
xdata$x	SEGMENT
__unwindtable$??0BaseAnimationData@Ogre@@QAE@XZ DD 0ffffffffH
	DD	FLAT:__unwindfunclet$??0BaseAnimationData@Ogre@@QAE@XZ$0
	DD	00H
	DD	FLAT:__unwindfunclet$??0BaseAnimationData@Ogre@@QAE@XZ$1
	DD	01H
	DD	FLAT:__unwindfunclet$??0BaseAnimationData@Ogre@@QAE@XZ$2
__ehfuncinfo$??0BaseAnimationData@Ogre@@QAE@XZ DD 019930522H
	DD	03H
	DD	FLAT:__unwindtable$??0BaseAnimationData@Ogre@@QAE@XZ
	DD	2 DUP(00H)
	DD	2 DUP(00H)
	DD	00H
	DD	00H
; Function compile flags: /Odtp
xdata$x	ENDS
;	COMDAT ??0BaseAnimationData@Ogre@@QAE@XZ
_TEXT	SEGMENT
_this$ = -16						; size = 4
__$EHRec$ = -12						; size = 12
??0BaseAnimationData@Ogre@@QAE@XZ PROC			; Ogre::BaseAnimationData::BaseAnimationData, COMDAT
; _this$ = ecx
	push	ebp
	mov	ebp, esp
	push	-1
	push	__ehhandler$??0BaseAnimationData@Ogre@@QAE@XZ
	mov	eax, DWORD PTR fs:0
	push	eax
	push	ecx
	mov	eax, DWORD PTR ___security_cookie
	xor	eax, ebp
	push	eax
	lea	eax, DWORD PTR __$EHRec$[ebp]
	mov	DWORD PTR fs:0, eax
	mov	DWORD PTR _this$[ebp], ecx
	mov	ecx, DWORD PTR _this$[ebp]
	call	??0Resource@Ogre@@IAE@XZ		; Ogre::Resource::Resource
	mov	DWORD PTR __$EHRec$[ebp+8], 0
	mov	eax, DWORD PTR _this$[ebp]
	mov	DWORD PTR [eax], OFFSET ??_7BaseAnimationData@Ogre@@6B@
	mov	ecx, DWORD PTR _this$[ebp]
	add	ecx, 16					; 00000010H
	call	??0?$vector@UTriggerDesc@Ogre@@V?$allocator@UTriggerDesc@Ogre@@@std@@@std@@QAE@XZ ; std::vector<Ogre::TriggerDesc,std::allocator<Ogre::TriggerDesc> >::vector<Ogre::TriggerDesc,std::allocator<Ogre::TriggerDesc> >
	mov	BYTE PTR __$EHRec$[ebp+8], 1
	mov	ecx, DWORD PTR _this$[ebp]
	add	ecx, 40					; 00000028H
	call	??0?$vector@USequenceDesc@Ogre@@V?$allocator@USequenceDesc@Ogre@@@std@@@std@@QAE@XZ ; std::vector<Ogre::SequenceDesc,std::allocator<Ogre::SequenceDesc> >::vector<Ogre::SequenceDesc,std::allocator<Ogre::SequenceDesc> >
	mov	BYTE PTR __$EHRec$[ebp+8], 2
	mov	DWORD PTR __$EHRec$[ebp+8], -1
	mov	eax, DWORD PTR _this$[ebp]
	mov	ecx, DWORD PTR __$EHRec$[ebp]
	mov	DWORD PTR fs:0, ecx
	pop	ecx
	mov	esp, ebp
	pop	ebp
	ret	0
_TEXT	ENDS
;	COMDAT text$x
text$x	SEGMENT
__unwindfunclet$??0BaseAnimationData@Ogre@@QAE@XZ$0:
	mov	ecx, DWORD PTR _this$[ebp]
	jmp	??1Resource@Ogre@@MAE@XZ		; Ogre::Resource::~Resource
__unwindfunclet$??0BaseAnimationData@Ogre@@QAE@XZ$1:
	mov	ecx, DWORD PTR _this$[ebp]
	add	ecx, 16					; 00000010H
	jmp	??1?$vector@UTriggerDesc@Ogre@@V?$allocator@UTriggerDesc@Ogre@@@std@@@std@@QAE@XZ ; std::vector<Ogre::TriggerDesc,std::allocator<Ogre::TriggerDesc> >::~vector<Ogre::TriggerDesc,std::allocator<Ogre::TriggerDesc> >
__unwindfunclet$??0BaseAnimationData@Ogre@@QAE@XZ$2:
	mov	ecx, DWORD PTR _this$[ebp]
	add	ecx, 40					; 00000028H
	jmp	??1?$vector@USequenceDesc@Ogre@@V?$allocator@USequenceDesc@Ogre@@@std@@@std@@QAE@XZ ; std::vector<Ogre::SequenceDesc,std::allocator<Ogre::SequenceDesc> >::~vector<Ogre::SequenceDesc,std::allocator<Ogre::SequenceDesc> >
__ehhandler$??0BaseAnimationData@Ogre@@QAE@XZ:
	mov	edx, DWORD PTR [esp+8]
	lea	eax, DWORD PTR [edx+12]
	mov	ecx, DWORD PTR [edx-8]
	xor	ecx, eax
	call	@__security_check_cookie@4
	mov	eax, OFFSET __ehfuncinfo$??0BaseAnimationData@Ogre@@QAE@XZ
	jmp	___CxxFrameHandler3
text$x	ENDS
??0BaseAnimationData@Ogre@@QAE@XZ ENDP			; Ogre::BaseAnimationData::BaseAnimationData
PUBLIC	??1BaseAnimationData@Ogre@@UAE@XZ		; Ogre::BaseAnimationData::~BaseAnimationData
;	COMDAT xdata$x
xdata$x	SEGMENT
__unwindtable$??1BaseAnimationData@Ogre@@UAE@XZ DD 0ffffffffH
	DD	FLAT:__unwindfunclet$??1BaseAnimationData@Ogre@@UAE@XZ$0
	DD	00H
	DD	FLAT:__unwindfunclet$??1BaseAnimationData@Ogre@@UAE@XZ$1
	DD	01H
	DD	FLAT:__unwindfunclet$??1BaseAnimationData@Ogre@@UAE@XZ$2
__ehfuncinfo$??1BaseAnimationData@Ogre@@UAE@XZ DD 019930522H
	DD	03H
	DD	FLAT:__unwindtable$??1BaseAnimationData@Ogre@@UAE@XZ
	DD	2 DUP(00H)
	DD	2 DUP(00H)
	DD	00H
	DD	00H
; Function compile flags: /Odtp
xdata$x	ENDS
;	COMDAT ??1BaseAnimationData@Ogre@@UAE@XZ
_TEXT	SEGMENT
_this$ = -16						; size = 4
__$EHRec$ = -12						; size = 12
??1BaseAnimationData@Ogre@@UAE@XZ PROC			; Ogre::BaseAnimationData::~BaseAnimationData, COMDAT
; _this$ = ecx
	push	ebp
	mov	ebp, esp
	push	-1
	push	__ehhandler$??1BaseAnimationData@Ogre@@UAE@XZ
	mov	eax, DWORD PTR fs:0
	push	eax
	push	ecx
	mov	eax, DWORD PTR ___security_cookie
	xor	eax, ebp
	push	eax
	lea	eax, DWORD PTR __$EHRec$[ebp]
	mov	DWORD PTR fs:0, eax
	mov	DWORD PTR _this$[ebp], ecx
	mov	DWORD PTR __$EHRec$[ebp+8], 2
	mov	BYTE PTR __$EHRec$[ebp+8], 1
	mov	ecx, DWORD PTR _this$[ebp]
	add	ecx, 40					; 00000028H
	call	??1?$vector@USequenceDesc@Ogre@@V?$allocator@USequenceDesc@Ogre@@@std@@@std@@QAE@XZ ; std::vector<Ogre::SequenceDesc,std::allocator<Ogre::SequenceDesc> >::~vector<Ogre::SequenceDesc,std::allocator<Ogre::SequenceDesc> >
	mov	BYTE PTR __$EHRec$[ebp+8], 0
	mov	ecx, DWORD PTR _this$[ebp]
	add	ecx, 16					; 00000010H
	call	??1?$vector@UTriggerDesc@Ogre@@V?$allocator@UTriggerDesc@Ogre@@@std@@@std@@QAE@XZ ; std::vector<Ogre::TriggerDesc,std::allocator<Ogre::TriggerDesc> >::~vector<Ogre::TriggerDesc,std::allocator<Ogre::TriggerDesc> >
	mov	DWORD PTR __$EHRec$[ebp+8], -1
	mov	ecx, DWORD PTR _this$[ebp]
	call	??1Resource@Ogre@@MAE@XZ		; Ogre::Resource::~Resource
	mov	ecx, DWORD PTR __$EHRec$[ebp]
	mov	DWORD PTR fs:0, ecx
	pop	ecx
	mov	esp, ebp
	pop	ebp
	ret	0
_TEXT	ENDS
;	COMDAT text$x
text$x	SEGMENT
__unwindfunclet$??1BaseAnimationData@Ogre@@UAE@XZ$0:
	mov	ecx, DWORD PTR _this$[ebp]
	jmp	??1Resource@Ogre@@MAE@XZ		; Ogre::Resource::~Resource
__unwindfunclet$??1BaseAnimationData@Ogre@@UAE@XZ$1:
	mov	ecx, DWORD PTR _this$[ebp]
	add	ecx, 16					; 00000010H
	jmp	??1?$vector@UTriggerDesc@Ogre@@V?$allocator@UTriggerDesc@Ogre@@@std@@@std@@QAE@XZ ; std::vector<Ogre::TriggerDesc,std::allocator<Ogre::TriggerDesc> >::~vector<Ogre::TriggerDesc,std::allocator<Ogre::TriggerDesc> >
__unwindfunclet$??1BaseAnimationData@Ogre@@UAE@XZ$2:
	mov	ecx, DWORD PTR _this$[ebp]
	add	ecx, 40					; 00000028H
	jmp	??1?$vector@USequenceDesc@Ogre@@V?$allocator@USequenceDesc@Ogre@@@std@@@std@@QAE@XZ ; std::vector<Ogre::SequenceDesc,std::allocator<Ogre::SequenceDesc> >::~vector<Ogre::SequenceDesc,std::allocator<Ogre::SequenceDesc> >
__ehhandler$??1BaseAnimationData@Ogre@@UAE@XZ:
	mov	edx, DWORD PTR [esp+8]
	lea	eax, DWORD PTR [edx+12]
	mov	ecx, DWORD PTR [edx-8]
	xor	ecx, eax
	call	@__security_check_cookie@4
	mov	eax, OFFSET __ehfuncinfo$??1BaseAnimationData@Ogre@@UAE@XZ
	jmp	___CxxFrameHandler3
text$x	ENDS
??1BaseAnimationData@Ogre@@UAE@XZ ENDP			; Ogre::BaseAnimationData::~BaseAnimationData
PUBLIC	??0?$vector@USequenceDesc@Ogre@@V?$allocator@USequenceDesc@Ogre@@@std@@@std@@QAE@ABV01@@Z ; std::vector<Ogre::SequenceDesc,std::allocator<Ogre::SequenceDesc> >::vector<Ogre::SequenceDesc,std::allocator<Ogre::SequenceDesc> >
PUBLIC	??0?$vector@UTriggerDesc@Ogre@@V?$allocator@UTriggerDesc@Ogre@@@std@@@std@@QAE@ABV01@@Z ; std::vector<Ogre::TriggerDesc,std::allocator<Ogre::TriggerDesc> >::vector<Ogre::TriggerDesc,std::allocator<Ogre::TriggerDesc> >
PUBLIC	??0BaseAnimationData@Ogre@@QAE@ABV01@@Z		; Ogre::BaseAnimationData::BaseAnimationData
;	COMDAT xdata$x
xdata$x	SEGMENT
__unwindtable$??0BaseAnimationData@Ogre@@QAE@ABV01@@Z DD 0ffffffffH
	DD	FLAT:__unwindfunclet$??0BaseAnimationData@Ogre@@QAE@ABV01@@Z$0
	DD	00H
	DD	FLAT:__unwindfunclet$??0BaseAnimationData@Ogre@@QAE@ABV01@@Z$1
	DD	01H
	DD	FLAT:__unwindfunclet$??0BaseAnimationData@Ogre@@QAE@ABV01@@Z$2
__ehfuncinfo$??0BaseAnimationData@Ogre@@QAE@ABV01@@Z DD 019930522H
	DD	03H
	DD	FLAT:__unwindtable$??0BaseAnimationData@Ogre@@QAE@ABV01@@Z
	DD	2 DUP(00H)
	DD	2 DUP(00H)
	DD	00H
	DD	00H
; Function compile flags: /Odtp
xdata$x	ENDS
;	COMDAT ??0BaseAnimationData@Ogre@@QAE@ABV01@@Z
_TEXT	SEGMENT
_this$ = -16						; size = 4
__$EHRec$ = -12						; size = 12
___that$ = 8						; size = 4
??0BaseAnimationData@Ogre@@QAE@ABV01@@Z PROC		; Ogre::BaseAnimationData::BaseAnimationData, COMDAT
; _this$ = ecx
	push	ebp
	mov	ebp, esp
	push	-1
	push	__ehhandler$??0BaseAnimationData@Ogre@@QAE@ABV01@@Z
	mov	eax, DWORD PTR fs:0
	push	eax
	push	ecx
	mov	eax, DWORD PTR ___security_cookie
	xor	eax, ebp
	push	eax
	lea	eax, DWORD PTR __$EHRec$[ebp]
	mov	DWORD PTR fs:0, eax
	mov	DWORD PTR _this$[ebp], ecx
	mov	eax, DWORD PTR ___that$[ebp]
	push	eax
	mov	ecx, DWORD PTR _this$[ebp]
	call	??0Resource@Ogre@@QAE@ABV01@@Z
	mov	DWORD PTR __$EHRec$[ebp+8], 0
	mov	ecx, DWORD PTR _this$[ebp]
	mov	DWORD PTR [ecx], OFFSET ??_7BaseAnimationData@Ogre@@6B@
	mov	edx, DWORD PTR ___that$[ebp]
	add	edx, 16					; 00000010H
	push	edx
	mov	ecx, DWORD PTR _this$[ebp]
	add	ecx, 16					; 00000010H
	call	??0?$vector@UTriggerDesc@Ogre@@V?$allocator@UTriggerDesc@Ogre@@@std@@@std@@QAE@ABV01@@Z ; std::vector<Ogre::TriggerDesc,std::allocator<Ogre::TriggerDesc> >::vector<Ogre::TriggerDesc,std::allocator<Ogre::TriggerDesc> >
	mov	BYTE PTR __$EHRec$[ebp+8], 1
	mov	eax, DWORD PTR ___that$[ebp]
	add	eax, 40					; 00000028H
	push	eax
	mov	ecx, DWORD PTR _this$[ebp]
	add	ecx, 40					; 00000028H
	call	??0?$vector@USequenceDesc@Ogre@@V?$allocator@USequenceDesc@Ogre@@@std@@@std@@QAE@ABV01@@Z ; std::vector<Ogre::SequenceDesc,std::allocator<Ogre::SequenceDesc> >::vector<Ogre::SequenceDesc,std::allocator<Ogre::SequenceDesc> >
	mov	BYTE PTR __$EHRec$[ebp+8], 2
	mov	DWORD PTR __$EHRec$[ebp+8], -1
	mov	eax, DWORD PTR _this$[ebp]
	mov	ecx, DWORD PTR __$EHRec$[ebp]
	mov	DWORD PTR fs:0, ecx
	pop	ecx
	mov	esp, ebp
	pop	ebp
	ret	4
_TEXT	ENDS
;	COMDAT text$x
text$x	SEGMENT
__unwindfunclet$??0BaseAnimationData@Ogre@@QAE@ABV01@@Z$0:
	mov	ecx, DWORD PTR _this$[ebp]
	jmp	??1Resource@Ogre@@MAE@XZ		; Ogre::Resource::~Resource
__unwindfunclet$??0BaseAnimationData@Ogre@@QAE@ABV01@@Z$1:
	mov	ecx, DWORD PTR _this$[ebp]
	add	ecx, 16					; 00000010H
	jmp	??1?$vector@UTriggerDesc@Ogre@@V?$allocator@UTriggerDesc@Ogre@@@std@@@std@@QAE@XZ ; std::vector<Ogre::TriggerDesc,std::allocator<Ogre::TriggerDesc> >::~vector<Ogre::TriggerDesc,std::allocator<Ogre::TriggerDesc> >
__unwindfunclet$??0BaseAnimationData@Ogre@@QAE@ABV01@@Z$2:
	mov	ecx, DWORD PTR _this$[ebp]
	add	ecx, 40					; 00000028H
	jmp	??1?$vector@USequenceDesc@Ogre@@V?$allocator@USequenceDesc@Ogre@@@std@@@std@@QAE@XZ ; std::vector<Ogre::SequenceDesc,std::allocator<Ogre::SequenceDesc> >::~vector<Ogre::SequenceDesc,std::allocator<Ogre::SequenceDesc> >
__ehhandler$??0BaseAnimationData@Ogre@@QAE@ABV01@@Z:
	mov	edx, DWORD PTR [esp+8]
	lea	eax, DWORD PTR [edx+12]
	mov	ecx, DWORD PTR [edx-8]
	xor	ecx, eax
	call	@__security_check_cookie@4
	mov	eax, OFFSET __ehfuncinfo$??0BaseAnimationData@Ogre@@QAE@ABV01@@Z
	jmp	___CxxFrameHandler3
text$x	ENDS
??0BaseAnimationData@Ogre@@QAE@ABV01@@Z ENDP		; Ogre::BaseAnimationData::BaseAnimationData
PUBLIC	??4?$vector@USequenceDesc@Ogre@@V?$allocator@USequenceDesc@Ogre@@@std@@@std@@QAEAAV01@ABV01@@Z ; std::vector<Ogre::SequenceDesc,std::allocator<Ogre::SequenceDesc> >::operator=
PUBLIC	??4?$vector@UTriggerDesc@Ogre@@V?$allocator@UTriggerDesc@Ogre@@@std@@@std@@QAEAAV01@ABV01@@Z ; std::vector<Ogre::TriggerDesc,std::allocator<Ogre::TriggerDesc> >::operator=
PUBLIC	??4BaseAnimationData@Ogre@@QAEAAV01@ABV01@@Z	; Ogre::BaseAnimationData::operator=
; Function compile flags: /Odtp
;	COMDAT ??4BaseAnimationData@Ogre@@QAEAAV01@ABV01@@Z
_TEXT	SEGMENT
_this$ = -4						; size = 4
___that$ = 8						; size = 4
??4BaseAnimationData@Ogre@@QAEAAV01@ABV01@@Z PROC	; Ogre::BaseAnimationData::operator=, COMDAT
; _this$ = ecx
	push	ebp
	mov	ebp, esp
	push	ecx
	mov	DWORD PTR _this$[ebp], ecx
	mov	eax, DWORD PTR ___that$[ebp]
	push	eax
	mov	ecx, DWORD PTR _this$[ebp]
	call	??4Resource@Ogre@@QAEAAV01@ABV01@@Z
	mov	ecx, DWORD PTR ___that$[ebp]
	add	ecx, 16					; 00000010H
	push	ecx
	mov	ecx, DWORD PTR _this$[ebp]
	add	ecx, 16					; 00000010H
	call	??4?$vector@UTriggerDesc@Ogre@@V?$allocator@UTriggerDesc@Ogre@@@std@@@std@@QAEAAV01@ABV01@@Z ; std::vector<Ogre::TriggerDesc,std::allocator<Ogre::TriggerDesc> >::operator=
	mov	edx, DWORD PTR ___that$[ebp]
	add	edx, 40					; 00000028H
	push	edx
	mov	ecx, DWORD PTR _this$[ebp]
	add	ecx, 40					; 00000028H
	call	??4?$vector@USequenceDesc@Ogre@@V?$allocator@USequenceDesc@Ogre@@@std@@@std@@QAEAAV01@ABV01@@Z ; std::vector<Ogre::SequenceDesc,std::allocator<Ogre::SequenceDesc> >::operator=
	mov	eax, DWORD PTR _this$[ebp]
	mov	esp, ebp
	pop	ebp
	ret	4
??4BaseAnimationData@Ogre@@QAEAAV01@ABV01@@Z ENDP	; Ogre::BaseAnimationData::operator=
_TEXT	ENDS
PUBLIC	??_GBaseAnimationData@Ogre@@UAEPAXI@Z		; Ogre::BaseAnimationData::`scalar deleting destructor'
; Function compile flags: /Odtp
;	COMDAT ??_GBaseAnimationData@Ogre@@UAEPAXI@Z
_TEXT	SEGMENT
_this$ = -4						; size = 4
___flags$ = 8						; size = 4
??_GBaseAnimationData@Ogre@@UAEPAXI@Z PROC		; Ogre::BaseAnimationData::`scalar deleting destructor', COMDAT
; _this$ = ecx
	push	ebp
	mov	ebp, esp
	push	ecx
	mov	DWORD PTR _this$[ebp], ecx
	mov	ecx, DWORD PTR _this$[ebp]
	call	??1BaseAnimationData@Ogre@@UAE@XZ
	mov	eax, DWORD PTR ___flags$[ebp]
	and	eax, 1
	je	SHORT $LN1@scalar@3
	push	64					; 00000040H
	mov	ecx, DWORD PTR _this$[ebp]
	push	ecx
	call	??3MemoryDelegation@Ogre@@SAXPAXI@Z	; Ogre::MemoryDelegation::operator delete
	add	esp, 8
$LN1@scalar@3:
	mov	eax, DWORD PTR _this$[ebp]
	mov	esp, ebp
	pop	ebp
	ret	4
??_GBaseAnimationData@Ogre@@UAEPAXI@Z ENDP		; Ogre::BaseAnimationData::`scalar deleting destructor'
; Function compile flags: /Odtp
_TEXT	ENDS
;	COMDAT ??_EBaseAnimationData@Ogre@@UAEPAXI@Z
_TEXT	SEGMENT
_this$ = -4						; size = 4
___flags$ = 8						; size = 4
??_EBaseAnimationData@Ogre@@UAEPAXI@Z PROC		; Ogre::BaseAnimationData::`vector deleting destructor', COMDAT
; _this$ = ecx
	push	ebp
	mov	ebp, esp
	push	ecx
	mov	DWORD PTR _this$[ebp], ecx
	mov	eax, DWORD PTR ___flags$[ebp]
	and	eax, 2
	je	SHORT $LN3@vector@3
	push	OFFSET ??1BaseAnimationData@Ogre@@UAE@XZ
	mov	ecx, DWORD PTR _this$[ebp]
	mov	edx, DWORD PTR [ecx-4]
	push	edx
	push	64					; 00000040H
	mov	eax, DWORD PTR _this$[ebp]
	push	eax
	call	??_M@YGXPAXIHP6EX0@Z@Z
	mov	ecx, DWORD PTR ___flags$[ebp]
	and	ecx, 1
	je	SHORT $LN2@vector@3
	push	64					; 00000040H
	mov	edx, DWORD PTR _this$[ebp]
	sub	edx, 4
	push	edx
	call	??_VMemoryDelegation@Ogre@@SAXPAXI@Z	; Ogre::MemoryDelegation::operator delete[]
	add	esp, 8
$LN2@vector@3:
	mov	eax, DWORD PTR _this$[ebp]
	sub	eax, 4
	jmp	SHORT $LN4@vector@3
$LN3@vector@3:
	mov	ecx, DWORD PTR _this$[ebp]
	call	??1BaseAnimationData@Ogre@@UAE@XZ
	mov	eax, DWORD PTR ___flags$[ebp]
	and	eax, 1
	je	SHORT $LN1@vector@3
	push	64					; 00000040H
	mov	ecx, DWORD PTR _this$[ebp]
	push	ecx
	call	??3MemoryDelegation@Ogre@@SAXPAXI@Z	; Ogre::MemoryDelegation::operator delete
	add	esp, 8
$LN1@vector@3:
	mov	eax, DWORD PTR _this$[ebp]
$LN4@vector@3:
	mov	esp, ebp
	pop	ebp
	ret	4
??_EBaseAnimationData@Ogre@@UAEPAXI@Z ENDP		; Ogre::BaseAnimationData::`vector deleting destructor'
_TEXT	ENDS
PUBLIC	?getRTTI@AnimationData@Ogre@@UBEPBVRuntimeClass@2@XZ ; Ogre::AnimationData::getRTTI
EXTRN	?m_RTTI@AnimationData@Ogre@@2VRuntimeClass@2@B:BYTE ; Ogre::AnimationData::m_RTTI
; Function compile flags: /Odtp
;	COMDAT ?getRTTI@AnimationData@Ogre@@UBEPBVRuntimeClass@2@XZ
_TEXT	SEGMENT
_this$ = -4						; size = 4
?getRTTI@AnimationData@Ogre@@UBEPBVRuntimeClass@2@XZ PROC ; Ogre::AnimationData::getRTTI, COMDAT
; _this$ = ecx

; 60   : 		DECLARE_RTTI(AnimationData)

	push	ebp
	mov	ebp, esp
	push	ecx
	mov	DWORD PTR _this$[ebp], ecx
	mov	eax, OFFSET ?m_RTTI@AnimationData@Ogre@@2VRuntimeClass@2@B ; Ogre::AnimationData::m_RTTI
	mov	esp, ebp
	pop	ebp
	ret	0
?getRTTI@AnimationData@Ogre@@UBEPBVRuntimeClass@2@XZ ENDP ; Ogre::AnimationData::getRTTI
_TEXT	ENDS
PUBLIC	?newObject@AnimationData@Ogre@@SAPAVBaseObject@2@XZ ; Ogre::AnimationData::newObject
EXTRN	??0AnimationData@Ogre@@QAE@XZ:PROC		; Ogre::AnimationData::AnimationData
EXTRN	??2MemoryDelegation@Ogre@@SAPAXI@Z:PROC		; Ogre::MemoryDelegation::operator new
;	COMDAT xdata$x
xdata$x	SEGMENT
__unwindtable$?newObject@AnimationData@Ogre@@SAPAVBaseObject@2@XZ DD 0ffffffffH
	DD	FLAT:__unwindfunclet$?newObject@AnimationData@Ogre@@SAPAVBaseObject@2@XZ$0
__ehfuncinfo$?newObject@AnimationData@Ogre@@SAPAVBaseObject@2@XZ DD 019930522H
	DD	01H
	DD	FLAT:__unwindtable$?newObject@AnimationData@Ogre@@SAPAVBaseObject@2@XZ
	DD	2 DUP(00H)
	DD	2 DUP(00H)
	DD	00H
	DD	00H
; Function compile flags: /Odtp
xdata$x	ENDS
;	COMDAT ?newObject@AnimationData@Ogre@@SAPAVBaseObject@2@XZ
_TEXT	SEGMENT
tv75 = -24						; size = 4
$T74099 = -20						; size = 4
$T74098 = -16						; size = 4
__$EHRec$ = -12						; size = 12
?newObject@AnimationData@Ogre@@SAPAVBaseObject@2@XZ PROC ; Ogre::AnimationData::newObject, COMDAT

; 60   : 		DECLARE_RTTI(AnimationData)

	push	ebp
	mov	ebp, esp
	push	-1
	push	__ehhandler$?newObject@AnimationData@Ogre@@SAPAVBaseObject@2@XZ
	mov	eax, DWORD PTR fs:0
	push	eax
	sub	esp, 12					; 0000000cH
	mov	eax, DWORD PTR ___security_cookie
	xor	eax, ebp
	push	eax
	lea	eax, DWORD PTR __$EHRec$[ebp]
	mov	DWORD PTR fs:0, eax
	push	112					; 00000070H
	call	??2MemoryDelegation@Ogre@@SAPAXI@Z	; Ogre::MemoryDelegation::operator new
	add	esp, 4
	mov	DWORD PTR $T74099[ebp], eax
	mov	DWORD PTR __$EHRec$[ebp+8], 0
	cmp	DWORD PTR $T74099[ebp], 0
	je	SHORT $LN3@newObject
	mov	ecx, DWORD PTR $T74099[ebp]
	call	??0AnimationData@Ogre@@QAE@XZ		; Ogre::AnimationData::AnimationData
	mov	DWORD PTR tv75[ebp], eax
	jmp	SHORT $LN4@newObject
$LN3@newObject:
	mov	DWORD PTR tv75[ebp], 0
$LN4@newObject:
	mov	eax, DWORD PTR tv75[ebp]
	mov	DWORD PTR $T74098[ebp], eax
	mov	DWORD PTR __$EHRec$[ebp+8], -1
	mov	eax, DWORD PTR $T74098[ebp]
	mov	ecx, DWORD PTR __$EHRec$[ebp]
	mov	DWORD PTR fs:0, ecx
	pop	ecx
	mov	esp, ebp
	pop	ebp
	ret	0
_TEXT	ENDS
;	COMDAT text$x
text$x	SEGMENT
__unwindfunclet$?newObject@AnimationData@Ogre@@SAPAVBaseObject@2@XZ$0:
	push	112					; 00000070H
	mov	eax, DWORD PTR $T74099[ebp]
	push	eax
	call	??3MemoryDelegation@Ogre@@SAXPAXI@Z	; Ogre::MemoryDelegation::operator delete
	add	esp, 8
	ret	0
__ehhandler$?newObject@AnimationData@Ogre@@SAPAVBaseObject@2@XZ:
	mov	edx, DWORD PTR [esp+8]
	lea	eax, DWORD PTR [edx+12]
	mov	ecx, DWORD PTR [edx-16]
	xor	ecx, eax
	call	@__security_check_cookie@4
	mov	eax, OFFSET __ehfuncinfo$?newObject@AnimationData@Ogre@@SAPAVBaseObject@2@XZ
	jmp	___CxxFrameHandler3
text$x	ENDS
?newObject@AnimationData@Ogre@@SAPAVBaseObject@2@XZ ENDP ; Ogre::AnimationData::newObject
PUBLIC	??1?$vector@PAVMaterialParamTrack@Ogre@@V?$allocator@PAVMaterialParamTrack@Ogre@@@std@@@std@@QAE@XZ ; std::vector<Ogre::MaterialParamTrack *,std::allocator<Ogre::MaterialParamTrack *> >::~vector<Ogre::MaterialParamTrack *,std::allocator<Ogre::MaterialParamTrack *> >
PUBLIC	??1?$vector@PAVBoneTrack@Ogre@@V?$allocator@PAVBoneTrack@Ogre@@@std@@@std@@QAE@XZ ; std::vector<Ogre::BoneTrack *,std::allocator<Ogre::BoneTrack *> >::~vector<Ogre::BoneTrack *,std::allocator<Ogre::BoneTrack *> >
PUBLIC	??0?$vector@PAVMaterialParamTrack@Ogre@@V?$allocator@PAVMaterialParamTrack@Ogre@@@std@@@std@@QAE@ABV01@@Z ; std::vector<Ogre::MaterialParamTrack *,std::allocator<Ogre::MaterialParamTrack *> >::vector<Ogre::MaterialParamTrack *,std::allocator<Ogre::MaterialParamTrack *> >
PUBLIC	??0?$vector@PAVBoneTrack@Ogre@@V?$allocator@PAVBoneTrack@Ogre@@@std@@@std@@QAE@ABV01@@Z ; std::vector<Ogre::BoneTrack *,std::allocator<Ogre::BoneTrack *> >::vector<Ogre::BoneTrack *,std::allocator<Ogre::BoneTrack *> >
PUBLIC	??_7AnimationData@Ogre@@6B@			; Ogre::AnimationData::`vftable'
PUBLIC	??0AnimationData@Ogre@@QAE@ABV01@@Z		; Ogre::AnimationData::AnimationData
PUBLIC	??_R4AnimationData@Ogre@@6B@			; Ogre::AnimationData::`RTTI Complete Object Locator'
PUBLIC	??_R0?AVAnimationData@Ogre@@@8			; Ogre::AnimationData `RTTI Type Descriptor'
PUBLIC	??_R3AnimationData@Ogre@@8			; Ogre::AnimationData::`RTTI Class Hierarchy Descriptor'
PUBLIC	??_R2AnimationData@Ogre@@8			; Ogre::AnimationData::`RTTI Base Class Array'
PUBLIC	??_R1A@?0A@EA@AnimationData@Ogre@@8		; Ogre::AnimationData::`RTTI Base Class Descriptor at (0,-1,0,64)'
PUBLIC	??_EAnimationData@Ogre@@UAEPAXI@Z		; Ogre::AnimationData::`vector deleting destructor'
EXTRN	?_serialize@AnimationData@Ogre@@UAEXAAVArchive@2@H@Z:PROC ; Ogre::AnimationData::_serialize
EXTRN	?getType@AnimationData@Ogre@@UAE?AW4AnimationType@2@XZ:PROC ; Ogre::AnimationData::getType
;	COMDAT ??_R1A@?0A@EA@AnimationData@Ogre@@8
rdata$r	SEGMENT
??_R1A@?0A@EA@AnimationData@Ogre@@8 DD FLAT:??_R0?AVAnimationData@Ogre@@@8 ; Ogre::AnimationData::`RTTI Base Class Descriptor at (0,-1,0,64)'
	DD	04H
	DD	00H
	DD	0ffffffffH
	DD	00H
	DD	040H
	DD	FLAT:??_R3AnimationData@Ogre@@8
rdata$r	ENDS
;	COMDAT ??_R2AnimationData@Ogre@@8
rdata$r	SEGMENT
??_R2AnimationData@Ogre@@8 DD FLAT:??_R1A@?0A@EA@AnimationData@Ogre@@8 ; Ogre::AnimationData::`RTTI Base Class Array'
	DD	FLAT:??_R1A@?0A@EA@BaseAnimationData@Ogre@@8
	DD	FLAT:??_R1A@?0A@EA@Resource@Ogre@@8
	DD	FLAT:??_R1A@?0A@EA@BaseObject@Ogre@@8
	DD	FLAT:??_R13?0A@EA@MemoryDelegation@Ogre@@8
rdata$r	ENDS
;	COMDAT ??_R3AnimationData@Ogre@@8
rdata$r	SEGMENT
??_R3AnimationData@Ogre@@8 DD 00H			; Ogre::AnimationData::`RTTI Class Hierarchy Descriptor'
	DD	00H
	DD	05H
	DD	FLAT:??_R2AnimationData@Ogre@@8
rdata$r	ENDS
;	COMDAT ??_R0?AVAnimationData@Ogre@@@8
_DATA	SEGMENT
??_R0?AVAnimationData@Ogre@@@8 DD FLAT:??_7type_info@@6B@ ; Ogre::AnimationData `RTTI Type Descriptor'
	DD	00H
	DB	'.?AVAnimationData@Ogre@@', 00H
_DATA	ENDS
;	COMDAT ??_R4AnimationData@Ogre@@6B@
rdata$r	SEGMENT
??_R4AnimationData@Ogre@@6B@ DD 00H			; Ogre::AnimationData::`RTTI Complete Object Locator'
	DD	00H
	DD	00H
	DD	FLAT:??_R0?AVAnimationData@Ogre@@@8
	DD	FLAT:??_R3AnimationData@Ogre@@8
rdata$r	ENDS
;	COMDAT ??_7AnimationData@Ogre@@6B@
CONST	SEGMENT
??_7AnimationData@Ogre@@6B@ DD FLAT:??_R4AnimationData@Ogre@@6B@ ; Ogre::AnimationData::`vftable'
	DD	FLAT:?getRTTI@AnimationData@Ogre@@UBEPBVRuntimeClass@2@XZ
	DD	FLAT:?release@Resource@Ogre@@UAEXXZ
	DD	FLAT:?addRef@Resource@Ogre@@UAEXXZ
	DD	FLAT:?getRefCount@Resource@Ogre@@UAEHXZ
	DD	FLAT:?_serialize@AnimationData@Ogre@@UAEXAAVArchive@2@H@Z
	DD	FLAT:??_EAnimationData@Ogre@@UAEPAXI@Z
	DD	FLAT:?deleteThis@BaseObject@Ogre@@MAEXXZ
	DD	FLAT:?getType@AnimationData@Ogre@@UAE?AW4AnimationType@2@XZ
CONST	ENDS
;	COMDAT xdata$x
xdata$x	SEGMENT
__unwindtable$??0AnimationData@Ogre@@QAE@ABV01@@Z DD 0ffffffffH
	DD	FLAT:__unwindfunclet$??0AnimationData@Ogre@@QAE@ABV01@@Z$0
	DD	00H
	DD	FLAT:__unwindfunclet$??0AnimationData@Ogre@@QAE@ABV01@@Z$1
	DD	01H
	DD	FLAT:__unwindfunclet$??0AnimationData@Ogre@@QAE@ABV01@@Z$2
__ehfuncinfo$??0AnimationData@Ogre@@QAE@ABV01@@Z DD 019930522H
	DD	03H
	DD	FLAT:__unwindtable$??0AnimationData@Ogre@@QAE@ABV01@@Z
	DD	2 DUP(00H)
	DD	2 DUP(00H)
	DD	00H
	DD	00H
; Function compile flags: /Odtp
xdata$x	ENDS
;	COMDAT ??0AnimationData@Ogre@@QAE@ABV01@@Z
_TEXT	SEGMENT
_this$ = -16						; size = 4
__$EHRec$ = -12						; size = 12
___that$ = 8						; size = 4
??0AnimationData@Ogre@@QAE@ABV01@@Z PROC		; Ogre::AnimationData::AnimationData, COMDAT
; _this$ = ecx
	push	ebp
	mov	ebp, esp
	push	-1
	push	__ehhandler$??0AnimationData@Ogre@@QAE@ABV01@@Z
	mov	eax, DWORD PTR fs:0
	push	eax
	push	ecx
	mov	eax, DWORD PTR ___security_cookie
	xor	eax, ebp
	push	eax
	lea	eax, DWORD PTR __$EHRec$[ebp]
	mov	DWORD PTR fs:0, eax
	mov	DWORD PTR _this$[ebp], ecx
	mov	eax, DWORD PTR ___that$[ebp]
	push	eax
	mov	ecx, DWORD PTR _this$[ebp]
	call	??0BaseAnimationData@Ogre@@QAE@ABV01@@Z
	mov	DWORD PTR __$EHRec$[ebp+8], 0
	mov	ecx, DWORD PTR _this$[ebp]
	mov	DWORD PTR [ecx], OFFSET ??_7AnimationData@Ogre@@6B@
	mov	edx, DWORD PTR ___that$[ebp]
	add	edx, 64					; 00000040H
	push	edx
	mov	ecx, DWORD PTR _this$[ebp]
	add	ecx, 64					; 00000040H
	call	??0?$vector@PAVBoneTrack@Ogre@@V?$allocator@PAVBoneTrack@Ogre@@@std@@@std@@QAE@ABV01@@Z ; std::vector<Ogre::BoneTrack *,std::allocator<Ogre::BoneTrack *> >::vector<Ogre::BoneTrack *,std::allocator<Ogre::BoneTrack *> >
	mov	BYTE PTR __$EHRec$[ebp+8], 1
	mov	eax, DWORD PTR ___that$[ebp]
	add	eax, 88					; 00000058H
	push	eax
	mov	ecx, DWORD PTR _this$[ebp]
	add	ecx, 88					; 00000058H
	call	??0?$vector@PAVMaterialParamTrack@Ogre@@V?$allocator@PAVMaterialParamTrack@Ogre@@@std@@@std@@QAE@ABV01@@Z ; std::vector<Ogre::MaterialParamTrack *,std::allocator<Ogre::MaterialParamTrack *> >::vector<Ogre::MaterialParamTrack *,std::allocator<Ogre::MaterialParamTrack *> >
	mov	BYTE PTR __$EHRec$[ebp+8], 2
	mov	DWORD PTR __$EHRec$[ebp+8], -1
	mov	eax, DWORD PTR _this$[ebp]
	mov	ecx, DWORD PTR __$EHRec$[ebp]
	mov	DWORD PTR fs:0, ecx
	pop	ecx
	mov	esp, ebp
	pop	ebp
	ret	4
_TEXT	ENDS
;	COMDAT text$x
text$x	SEGMENT
__unwindfunclet$??0AnimationData@Ogre@@QAE@ABV01@@Z$0:
	mov	ecx, DWORD PTR _this$[ebp]
	jmp	??1BaseAnimationData@Ogre@@UAE@XZ
__unwindfunclet$??0AnimationData@Ogre@@QAE@ABV01@@Z$1:
	mov	ecx, DWORD PTR _this$[ebp]
	add	ecx, 64					; 00000040H
	jmp	??1?$vector@PAVBoneTrack@Ogre@@V?$allocator@PAVBoneTrack@Ogre@@@std@@@std@@QAE@XZ ; std::vector<Ogre::BoneTrack *,std::allocator<Ogre::BoneTrack *> >::~vector<Ogre::BoneTrack *,std::allocator<Ogre::BoneTrack *> >
__unwindfunclet$??0AnimationData@Ogre@@QAE@ABV01@@Z$2:
	mov	ecx, DWORD PTR _this$[ebp]
	add	ecx, 88					; 00000058H
	jmp	??1?$vector@PAVMaterialParamTrack@Ogre@@V?$allocator@PAVMaterialParamTrack@Ogre@@@std@@@std@@QAE@XZ ; std::vector<Ogre::MaterialParamTrack *,std::allocator<Ogre::MaterialParamTrack *> >::~vector<Ogre::MaterialParamTrack *,std::allocator<Ogre::MaterialParamTrack *> >
__ehhandler$??0AnimationData@Ogre@@QAE@ABV01@@Z:
	mov	edx, DWORD PTR [esp+8]
	lea	eax, DWORD PTR [edx+12]
	mov	ecx, DWORD PTR [edx-8]
	xor	ecx, eax
	call	@__security_check_cookie@4
	mov	eax, OFFSET __ehfuncinfo$??0AnimationData@Ogre@@QAE@ABV01@@Z
	jmp	___CxxFrameHandler3
text$x	ENDS
??0AnimationData@Ogre@@QAE@ABV01@@Z ENDP		; Ogre::AnimationData::AnimationData
PUBLIC	??4?$vector@PAVMaterialParamTrack@Ogre@@V?$allocator@PAVMaterialParamTrack@Ogre@@@std@@@std@@QAEAAV01@ABV01@@Z ; std::vector<Ogre::MaterialParamTrack *,std::allocator<Ogre::MaterialParamTrack *> >::operator=
PUBLIC	??4?$vector@PAVBoneTrack@Ogre@@V?$allocator@PAVBoneTrack@Ogre@@@std@@@std@@QAEAAV01@ABV01@@Z ; std::vector<Ogre::BoneTrack *,std::allocator<Ogre::BoneTrack *> >::operator=
PUBLIC	??4AnimationData@Ogre@@QAEAAV01@ABV01@@Z	; Ogre::AnimationData::operator=
; Function compile flags: /Odtp
;	COMDAT ??4AnimationData@Ogre@@QAEAAV01@ABV01@@Z
_TEXT	SEGMENT
_this$ = -4						; size = 4
___that$ = 8						; size = 4
??4AnimationData@Ogre@@QAEAAV01@ABV01@@Z PROC		; Ogre::AnimationData::operator=, COMDAT
; _this$ = ecx
	push	ebp
	mov	ebp, esp
	push	ecx
	mov	DWORD PTR _this$[ebp], ecx
	mov	eax, DWORD PTR ___that$[ebp]
	push	eax
	mov	ecx, DWORD PTR _this$[ebp]
	call	??4BaseAnimationData@Ogre@@QAEAAV01@ABV01@@Z
	mov	ecx, DWORD PTR ___that$[ebp]
	add	ecx, 64					; 00000040H
	push	ecx
	mov	ecx, DWORD PTR _this$[ebp]
	add	ecx, 64					; 00000040H
	call	??4?$vector@PAVBoneTrack@Ogre@@V?$allocator@PAVBoneTrack@Ogre@@@std@@@std@@QAEAAV01@ABV01@@Z ; std::vector<Ogre::BoneTrack *,std::allocator<Ogre::BoneTrack *> >::operator=
	mov	edx, DWORD PTR ___that$[ebp]
	add	edx, 88					; 00000058H
	push	edx
	mov	ecx, DWORD PTR _this$[ebp]
	add	ecx, 88					; 00000058H
	call	??4?$vector@PAVMaterialParamTrack@Ogre@@V?$allocator@PAVMaterialParamTrack@Ogre@@@std@@@std@@QAEAAV01@ABV01@@Z ; std::vector<Ogre::MaterialParamTrack *,std::allocator<Ogre::MaterialParamTrack *> >::operator=
	mov	eax, DWORD PTR _this$[ebp]
	mov	esp, ebp
	pop	ebp
	ret	4
??4AnimationData@Ogre@@QAEAAV01@ABV01@@Z ENDP		; Ogre::AnimationData::operator=
_TEXT	ENDS
PUBLIC	??_GAnimationData@Ogre@@UAEPAXI@Z		; Ogre::AnimationData::`scalar deleting destructor'
EXTRN	??1AnimationData@Ogre@@UAE@XZ:PROC		; Ogre::AnimationData::~AnimationData
; Function compile flags: /Odtp
;	COMDAT ??_GAnimationData@Ogre@@UAEPAXI@Z
_TEXT	SEGMENT
_this$ = -4						; size = 4
___flags$ = 8						; size = 4
??_GAnimationData@Ogre@@UAEPAXI@Z PROC			; Ogre::AnimationData::`scalar deleting destructor', COMDAT
; _this$ = ecx
	push	ebp
	mov	ebp, esp
	push	ecx
	mov	DWORD PTR _this$[ebp], ecx
	mov	ecx, DWORD PTR _this$[ebp]
	call	??1AnimationData@Ogre@@UAE@XZ		; Ogre::AnimationData::~AnimationData
	mov	eax, DWORD PTR ___flags$[ebp]
	and	eax, 1
	je	SHORT $LN1@scalar@4
	push	112					; 00000070H
	mov	ecx, DWORD PTR _this$[ebp]
	push	ecx
	call	??3MemoryDelegation@Ogre@@SAXPAXI@Z	; Ogre::MemoryDelegation::operator delete
	add	esp, 8
$LN1@scalar@4:
	mov	eax, DWORD PTR _this$[ebp]
	mov	esp, ebp
	pop	ebp
	ret	4
??_GAnimationData@Ogre@@UAEPAXI@Z ENDP			; Ogre::AnimationData::`scalar deleting destructor'
; Function compile flags: /Odtp
_TEXT	ENDS
;	COMDAT ??_EAnimationData@Ogre@@UAEPAXI@Z
_TEXT	SEGMENT
_this$ = -4						; size = 4
___flags$ = 8						; size = 4
??_EAnimationData@Ogre@@UAEPAXI@Z PROC			; Ogre::AnimationData::`vector deleting destructor', COMDAT
; _this$ = ecx
	push	ebp
	mov	ebp, esp
	push	ecx
	mov	DWORD PTR _this$[ebp], ecx
	mov	eax, DWORD PTR ___flags$[ebp]
	and	eax, 2
	je	SHORT $LN3@vector@4
	push	OFFSET ??1AnimationData@Ogre@@UAE@XZ	; Ogre::AnimationData::~AnimationData
	mov	ecx, DWORD PTR _this$[ebp]
	mov	edx, DWORD PTR [ecx-4]
	push	edx
	push	112					; 00000070H
	mov	eax, DWORD PTR _this$[ebp]
	push	eax
	call	??_M@YGXPAXIHP6EX0@Z@Z
	mov	ecx, DWORD PTR ___flags$[ebp]
	and	ecx, 1
	je	SHORT $LN2@vector@4
	push	112					; 00000070H
	mov	edx, DWORD PTR _this$[ebp]
	sub	edx, 4
	push	edx
	call	??_VMemoryDelegation@Ogre@@SAXPAXI@Z	; Ogre::MemoryDelegation::operator delete[]
	add	esp, 8
$LN2@vector@4:
	mov	eax, DWORD PTR _this$[ebp]
	sub	eax, 4
	jmp	SHORT $LN4@vector@4
$LN3@vector@4:
	mov	ecx, DWORD PTR _this$[ebp]
	call	??1AnimationData@Ogre@@UAE@XZ		; Ogre::AnimationData::~AnimationData
	mov	eax, DWORD PTR ___flags$[ebp]
	and	eax, 1
	je	SHORT $LN1@vector@4
	push	112					; 00000070H
	mov	ecx, DWORD PTR _this$[ebp]
	push	ecx
	call	??3MemoryDelegation@Ogre@@SAXPAXI@Z	; Ogre::MemoryDelegation::operator delete
	add	esp, 8
$LN1@vector@4:
	mov	eax, DWORD PTR _this$[ebp]
$LN4@vector@4:
	mov	esp, ebp
	pop	ebp
	ret	4
??_EAnimationData@Ogre@@UAEPAXI@Z ENDP			; Ogre::AnimationData::`vector deleting destructor'
_TEXT	ENDS
PUBLIC	?size@?$vector@VVertexElement@Ogre@@V?$allocator@VVertexElement@Ogre@@@std@@@std@@QBEIXZ ; std::vector<Ogre::VertexElement,std::allocator<Ogre::VertexElement> >::size
PUBLIC	?getNumElements@VertexFormat@Ogre@@QBEIXZ	; Ogre::VertexFormat::getNumElements
; Function compile flags: /Odtp
; File i:\svnroot\client\ogremain\ogrevertexformat.h
;	COMDAT ?getNumElements@VertexFormat@Ogre@@QBEIXZ
_TEXT	SEGMENT
_this$ = -4						; size = 4
?getNumElements@VertexFormat@Ogre@@QBEIXZ PROC		; Ogre::VertexFormat::getNumElements, COMDAT
; _this$ = ecx

; 82   : 		uint getNumElements() const{ return (uint)m_Elements.size(); }

	push	ebp
	mov	ebp, esp
	push	ecx
	mov	DWORD PTR _this$[ebp], ecx
	mov	ecx, DWORD PTR _this$[ebp]
	call	?size@?$vector@VVertexElement@Ogre@@V?$allocator@VVertexElement@Ogre@@@std@@@std@@QBEIXZ ; std::vector<Ogre::VertexElement,std::allocator<Ogre::VertexElement> >::size
	mov	esp, ebp
	pop	ebp
	ret	0
?getNumElements@VertexFormat@Ogre@@QBEIXZ ENDP		; Ogre::VertexFormat::getNumElements
_TEXT	ENDS
PUBLIC	??A?$vector@VVertexElement@Ogre@@V?$allocator@VVertexElement@Ogre@@@std@@@std@@QBEABVVertexElement@Ogre@@I@Z ; std::vector<Ogre::VertexElement,std::allocator<Ogre::VertexElement> >::operator[]
PUBLIC	?getElement@VertexFormat@Ogre@@QBEABVVertexElement@2@I@Z ; Ogre::VertexFormat::getElement
; Function compile flags: /Odtp
;	COMDAT ?getElement@VertexFormat@Ogre@@QBEABVVertexElement@2@I@Z
_TEXT	SEGMENT
_this$ = -4						; size = 4
_i$ = 8							; size = 4
?getElement@VertexFormat@Ogre@@QBEABVVertexElement@2@I@Z PROC ; Ogre::VertexFormat::getElement, COMDAT
; _this$ = ecx

; 83   : 		const VertexElement &getElement(uint i) const{ return m_Elements[i]; }

	push	ebp
	mov	ebp, esp
	push	ecx
	mov	DWORD PTR _this$[ebp], ecx
	mov	eax, DWORD PTR _i$[ebp]
	push	eax
	mov	ecx, DWORD PTR _this$[ebp]
	call	??A?$vector@VVertexElement@Ogre@@V?$allocator@VVertexElement@Ogre@@@std@@@std@@QBEABVVertexElement@Ogre@@I@Z ; std::vector<Ogre::VertexElement,std::allocator<Ogre::VertexElement> >::operator[]
	mov	esp, ebp
	pop	ebp
	ret	4
?getElement@VertexFormat@Ogre@@QBEABVVertexElement@2@I@Z ENDP ; Ogre::VertexFormat::getElement
_TEXT	ENDS
PUBLIC	?getRTTI@VertexBuffer@Ogre@@UBEPBVRuntimeClass@2@XZ ; Ogre::VertexBuffer::getRTTI
EXTRN	?m_RTTI@VertexBuffer@Ogre@@2VRuntimeClass@2@B:BYTE ; Ogre::VertexBuffer::m_RTTI
; Function compile flags: /Odtp
; File i:\svnroot\client\ogremain\ogrerendertypes.h
;	COMDAT ?getRTTI@VertexBuffer@Ogre@@UBEPBVRuntimeClass@2@XZ
_TEXT	SEGMENT
_this$ = -4						; size = 4
?getRTTI@VertexBuffer@Ogre@@UBEPBVRuntimeClass@2@XZ PROC ; Ogre::VertexBuffer::getRTTI, COMDAT
; _this$ = ecx

; 223  : 		DECLARE_RTTI_VIRTUAL(VertexBuffer)

	push	ebp
	mov	ebp, esp
	push	ecx
	mov	DWORD PTR _this$[ebp], ecx
	mov	eax, OFFSET ?m_RTTI@VertexBuffer@Ogre@@2VRuntimeClass@2@B ; Ogre::VertexBuffer::m_RTTI
	mov	esp, ebp
	pop	ebp
	ret	0
?getRTTI@VertexBuffer@Ogre@@UBEPBVRuntimeClass@2@XZ ENDP ; Ogre::VertexBuffer::getRTTI
_TEXT	ENDS
PUBLIC	??_7VertexBuffer@Ogre@@6B@			; Ogre::VertexBuffer::`vftable'
PUBLIC	??0VertexBuffer@Ogre@@QAE@XZ			; Ogre::VertexBuffer::VertexBuffer
PUBLIC	??_R4VertexBuffer@Ogre@@6B@			; Ogre::VertexBuffer::`RTTI Complete Object Locator'
PUBLIC	??_R0?AVVertexBuffer@Ogre@@@8			; Ogre::VertexBuffer `RTTI Type Descriptor'
PUBLIC	??_R3VertexBuffer@Ogre@@8			; Ogre::VertexBuffer::`RTTI Class Hierarchy Descriptor'
PUBLIC	??_R2VertexBuffer@Ogre@@8			; Ogre::VertexBuffer::`RTTI Base Class Array'
PUBLIC	??_R1A@?0A@EA@VertexBuffer@Ogre@@8		; Ogre::VertexBuffer::`RTTI Base Class Descriptor at (0,-1,0,64)'
PUBLIC	??_EVertexBuffer@Ogre@@UAEPAXI@Z		; Ogre::VertexBuffer::`vector deleting destructor'
;	COMDAT ??_R1A@?0A@EA@VertexBuffer@Ogre@@8
rdata$r	SEGMENT
??_R1A@?0A@EA@VertexBuffer@Ogre@@8 DD FLAT:??_R0?AVVertexBuffer@Ogre@@@8 ; Ogre::VertexBuffer::`RTTI Base Class Descriptor at (0,-1,0,64)'
	DD	03H
	DD	00H
	DD	0ffffffffH
	DD	00H
	DD	040H
	DD	FLAT:??_R3VertexBuffer@Ogre@@8
rdata$r	ENDS
;	COMDAT ??_R2VertexBuffer@Ogre@@8
rdata$r	SEGMENT
??_R2VertexBuffer@Ogre@@8 DD FLAT:??_R1A@?0A@EA@VertexBuffer@Ogre@@8 ; Ogre::VertexBuffer::`RTTI Base Class Array'
	DD	FLAT:??_R1A@?0A@EA@Resource@Ogre@@8
	DD	FLAT:??_R1A@?0A@EA@BaseObject@Ogre@@8
	DD	FLAT:??_R13?0A@EA@MemoryDelegation@Ogre@@8
rdata$r	ENDS
;	COMDAT ??_R3VertexBuffer@Ogre@@8
rdata$r	SEGMENT
??_R3VertexBuffer@Ogre@@8 DD 00H			; Ogre::VertexBuffer::`RTTI Class Hierarchy Descriptor'
	DD	00H
	DD	04H
	DD	FLAT:??_R2VertexBuffer@Ogre@@8
rdata$r	ENDS
;	COMDAT ??_R0?AVVertexBuffer@Ogre@@@8
_DATA	SEGMENT
??_R0?AVVertexBuffer@Ogre@@@8 DD FLAT:??_7type_info@@6B@ ; Ogre::VertexBuffer `RTTI Type Descriptor'
	DD	00H
	DB	'.?AVVertexBuffer@Ogre@@', 00H
_DATA	ENDS
;	COMDAT ??_R4VertexBuffer@Ogre@@6B@
rdata$r	SEGMENT
??_R4VertexBuffer@Ogre@@6B@ DD 00H			; Ogre::VertexBuffer::`RTTI Complete Object Locator'
	DD	00H
	DD	00H
	DD	FLAT:??_R0?AVVertexBuffer@Ogre@@@8
	DD	FLAT:??_R3VertexBuffer@Ogre@@8
rdata$r	ENDS
;	COMDAT ??_7VertexBuffer@Ogre@@6B@
CONST	SEGMENT
??_7VertexBuffer@Ogre@@6B@ DD FLAT:??_R4VertexBuffer@Ogre@@6B@ ; Ogre::VertexBuffer::`vftable'
	DD	FLAT:?getRTTI@VertexBuffer@Ogre@@UBEPBVRuntimeClass@2@XZ
	DD	FLAT:?release@Resource@Ogre@@UAEXXZ
	DD	FLAT:?addRef@Resource@Ogre@@UAEXXZ
	DD	FLAT:?getRefCount@Resource@Ogre@@UAEHXZ
	DD	FLAT:?_serialize@BaseObject@Ogre@@UAEXAAVArchive@2@H@Z
	DD	FLAT:??_EVertexBuffer@Ogre@@UAEPAXI@Z
	DD	FLAT:?deleteThis@BaseObject@Ogre@@MAEXXZ
	DD	FLAT:__purecall
CONST	ENDS
;	COMDAT xdata$x
xdata$x	SEGMENT
__unwindtable$??0VertexBuffer@Ogre@@QAE@XZ DD 0ffffffffH
	DD	FLAT:__unwindfunclet$??0VertexBuffer@Ogre@@QAE@XZ$0
__ehfuncinfo$??0VertexBuffer@Ogre@@QAE@XZ DD 019930522H
	DD	01H
	DD	FLAT:__unwindtable$??0VertexBuffer@Ogre@@QAE@XZ
	DD	2 DUP(00H)
	DD	2 DUP(00H)
	DD	00H
	DD	00H
; Function compile flags: /Odtp
xdata$x	ENDS
;	COMDAT ??0VertexBuffer@Ogre@@QAE@XZ
_TEXT	SEGMENT
_this$ = -16						; size = 4
__$EHRec$ = -12						; size = 12
??0VertexBuffer@Ogre@@QAE@XZ PROC			; Ogre::VertexBuffer::VertexBuffer, COMDAT
; _this$ = ecx
	push	ebp
	mov	ebp, esp
	push	-1
	push	__ehhandler$??0VertexBuffer@Ogre@@QAE@XZ
	mov	eax, DWORD PTR fs:0
	push	eax
	push	ecx
	mov	eax, DWORD PTR ___security_cookie
	xor	eax, ebp
	push	eax
	lea	eax, DWORD PTR __$EHRec$[ebp]
	mov	DWORD PTR fs:0, eax
	mov	DWORD PTR _this$[ebp], ecx
	mov	ecx, DWORD PTR _this$[ebp]
	call	??0Resource@Ogre@@IAE@XZ		; Ogre::Resource::Resource
	mov	DWORD PTR __$EHRec$[ebp+8], 0
	mov	eax, DWORD PTR _this$[ebp]
	mov	DWORD PTR [eax], OFFSET ??_7VertexBuffer@Ogre@@6B@
	mov	DWORD PTR __$EHRec$[ebp+8], -1
	mov	eax, DWORD PTR _this$[ebp]
	mov	ecx, DWORD PTR __$EHRec$[ebp]
	mov	DWORD PTR fs:0, ecx
	pop	ecx
	mov	esp, ebp
	pop	ebp
	ret	0
_TEXT	ENDS
;	COMDAT text$x
text$x	SEGMENT
__unwindfunclet$??0VertexBuffer@Ogre@@QAE@XZ$0:
	mov	ecx, DWORD PTR _this$[ebp]
	jmp	??1Resource@Ogre@@MAE@XZ		; Ogre::Resource::~Resource
__ehhandler$??0VertexBuffer@Ogre@@QAE@XZ:
	mov	edx, DWORD PTR [esp+8]
	lea	eax, DWORD PTR [edx+12]
	mov	ecx, DWORD PTR [edx-8]
	xor	ecx, eax
	call	@__security_check_cookie@4
	mov	eax, OFFSET __ehfuncinfo$??0VertexBuffer@Ogre@@QAE@XZ
	jmp	___CxxFrameHandler3
text$x	ENDS
??0VertexBuffer@Ogre@@QAE@XZ ENDP			; Ogre::VertexBuffer::VertexBuffer
PUBLIC	??1VertexBuffer@Ogre@@UAE@XZ			; Ogre::VertexBuffer::~VertexBuffer
;	COMDAT xdata$x
xdata$x	SEGMENT
__unwindtable$??1VertexBuffer@Ogre@@UAE@XZ DD 0ffffffffH
	DD	FLAT:__unwindfunclet$??1VertexBuffer@Ogre@@UAE@XZ$0
__ehfuncinfo$??1VertexBuffer@Ogre@@UAE@XZ DD 019930522H
	DD	01H
	DD	FLAT:__unwindtable$??1VertexBuffer@Ogre@@UAE@XZ
	DD	2 DUP(00H)
	DD	2 DUP(00H)
	DD	00H
	DD	00H
; Function compile flags: /Odtp
xdata$x	ENDS
;	COMDAT ??1VertexBuffer@Ogre@@UAE@XZ
_TEXT	SEGMENT
_this$ = -16						; size = 4
__$EHRec$ = -12						; size = 12
??1VertexBuffer@Ogre@@UAE@XZ PROC			; Ogre::VertexBuffer::~VertexBuffer, COMDAT
; _this$ = ecx
	push	ebp
	mov	ebp, esp
	push	-1
	push	__ehhandler$??1VertexBuffer@Ogre@@UAE@XZ
	mov	eax, DWORD PTR fs:0
	push	eax
	push	ecx
	mov	eax, DWORD PTR ___security_cookie
	xor	eax, ebp
	push	eax
	lea	eax, DWORD PTR __$EHRec$[ebp]
	mov	DWORD PTR fs:0, eax
	mov	DWORD PTR _this$[ebp], ecx
	mov	DWORD PTR __$EHRec$[ebp+8], 0
	mov	DWORD PTR __$EHRec$[ebp+8], -1
	mov	ecx, DWORD PTR _this$[ebp]
	call	??1Resource@Ogre@@MAE@XZ		; Ogre::Resource::~Resource
	mov	ecx, DWORD PTR __$EHRec$[ebp]
	mov	DWORD PTR fs:0, ecx
	pop	ecx
	mov	esp, ebp
	pop	ebp
	ret	0
_TEXT	ENDS
;	COMDAT text$x
text$x	SEGMENT
__unwindfunclet$??1VertexBuffer@Ogre@@UAE@XZ$0:
	mov	ecx, DWORD PTR _this$[ebp]
	jmp	??1Resource@Ogre@@MAE@XZ		; Ogre::Resource::~Resource
__ehhandler$??1VertexBuffer@Ogre@@UAE@XZ:
	mov	edx, DWORD PTR [esp+8]
	lea	eax, DWORD PTR [edx+12]
	mov	ecx, DWORD PTR [edx-8]
	xor	ecx, eax
	call	@__security_check_cookie@4
	mov	eax, OFFSET __ehfuncinfo$??1VertexBuffer@Ogre@@UAE@XZ
	jmp	___CxxFrameHandler3
text$x	ENDS
??1VertexBuffer@Ogre@@UAE@XZ ENDP			; Ogre::VertexBuffer::~VertexBuffer
PUBLIC	??0VertexBuffer@Ogre@@QAE@ABV01@@Z		; Ogre::VertexBuffer::VertexBuffer
;	COMDAT xdata$x
xdata$x	SEGMENT
__unwindtable$??0VertexBuffer@Ogre@@QAE@ABV01@@Z DD 0ffffffffH
	DD	FLAT:__unwindfunclet$??0VertexBuffer@Ogre@@QAE@ABV01@@Z$0
__ehfuncinfo$??0VertexBuffer@Ogre@@QAE@ABV01@@Z DD 019930522H
	DD	01H
	DD	FLAT:__unwindtable$??0VertexBuffer@Ogre@@QAE@ABV01@@Z
	DD	2 DUP(00H)
	DD	2 DUP(00H)
	DD	00H
	DD	00H
; Function compile flags: /Odtp
xdata$x	ENDS
;	COMDAT ??0VertexBuffer@Ogre@@QAE@ABV01@@Z
_TEXT	SEGMENT
_this$ = -16						; size = 4
__$EHRec$ = -12						; size = 12
___that$ = 8						; size = 4
??0VertexBuffer@Ogre@@QAE@ABV01@@Z PROC			; Ogre::VertexBuffer::VertexBuffer, COMDAT
; _this$ = ecx
	push	ebp
	mov	ebp, esp
	push	-1
	push	__ehhandler$??0VertexBuffer@Ogre@@QAE@ABV01@@Z
	mov	eax, DWORD PTR fs:0
	push	eax
	push	ecx
	mov	eax, DWORD PTR ___security_cookie
	xor	eax, ebp
	push	eax
	lea	eax, DWORD PTR __$EHRec$[ebp]
	mov	DWORD PTR fs:0, eax
	mov	DWORD PTR _this$[ebp], ecx
	mov	eax, DWORD PTR ___that$[ebp]
	push	eax
	mov	ecx, DWORD PTR _this$[ebp]
	call	??0Resource@Ogre@@QAE@ABV01@@Z
	mov	DWORD PTR __$EHRec$[ebp+8], 0
	mov	ecx, DWORD PTR _this$[ebp]
	mov	DWORD PTR [ecx], OFFSET ??_7VertexBuffer@Ogre@@6B@
	mov	DWORD PTR __$EHRec$[ebp+8], -1
	mov	eax, DWORD PTR _this$[ebp]
	mov	ecx, DWORD PTR __$EHRec$[ebp]
	mov	DWORD PTR fs:0, ecx
	pop	ecx
	mov	esp, ebp
	pop	ebp
	ret	4
_TEXT	ENDS
;	COMDAT text$x
text$x	SEGMENT
__unwindfunclet$??0VertexBuffer@Ogre@@QAE@ABV01@@Z$0:
	mov	ecx, DWORD PTR _this$[ebp]
	jmp	??1Resource@Ogre@@MAE@XZ		; Ogre::Resource::~Resource
__ehhandler$??0VertexBuffer@Ogre@@QAE@ABV01@@Z:
	mov	edx, DWORD PTR [esp+8]
	lea	eax, DWORD PTR [edx+12]
	mov	ecx, DWORD PTR [edx-8]
	xor	ecx, eax
	call	@__security_check_cookie@4
	mov	eax, OFFSET __ehfuncinfo$??0VertexBuffer@Ogre@@QAE@ABV01@@Z
	jmp	___CxxFrameHandler3
text$x	ENDS
??0VertexBuffer@Ogre@@QAE@ABV01@@Z ENDP			; Ogre::VertexBuffer::VertexBuffer
PUBLIC	??4VertexBuffer@Ogre@@QAEAAV01@ABV01@@Z		; Ogre::VertexBuffer::operator=
; Function compile flags: /Odtp
;	COMDAT ??4VertexBuffer@Ogre@@QAEAAV01@ABV01@@Z
_TEXT	SEGMENT
_this$ = -4						; size = 4
___that$ = 8						; size = 4
??4VertexBuffer@Ogre@@QAEAAV01@ABV01@@Z PROC		; Ogre::VertexBuffer::operator=, COMDAT
; _this$ = ecx
	push	ebp
	mov	ebp, esp
	push	ecx
	mov	DWORD PTR _this$[ebp], ecx
	mov	eax, DWORD PTR ___that$[ebp]
	push	eax
	mov	ecx, DWORD PTR _this$[ebp]
	call	??4Resource@Ogre@@QAEAAV01@ABV01@@Z
	mov	eax, DWORD PTR _this$[ebp]
	mov	esp, ebp
	pop	ebp
	ret	4
??4VertexBuffer@Ogre@@QAEAAV01@ABV01@@Z ENDP		; Ogre::VertexBuffer::operator=
_TEXT	ENDS
PUBLIC	??_GVertexBuffer@Ogre@@UAEPAXI@Z		; Ogre::VertexBuffer::`scalar deleting destructor'
; Function compile flags: /Odtp
;	COMDAT ??_GVertexBuffer@Ogre@@UAEPAXI@Z
_TEXT	SEGMENT
_this$ = -4						; size = 4
___flags$ = 8						; size = 4
??_GVertexBuffer@Ogre@@UAEPAXI@Z PROC			; Ogre::VertexBuffer::`scalar deleting destructor', COMDAT
; _this$ = ecx
	push	ebp
	mov	ebp, esp
	push	ecx
	mov	DWORD PTR _this$[ebp], ecx
	mov	ecx, DWORD PTR _this$[ebp]
	call	??1VertexBuffer@Ogre@@UAE@XZ
	mov	eax, DWORD PTR ___flags$[ebp]
	and	eax, 1
	je	SHORT $LN1@scalar@5
	push	16					; 00000010H
	mov	ecx, DWORD PTR _this$[ebp]
	push	ecx
	call	??3MemoryDelegation@Ogre@@SAXPAXI@Z	; Ogre::MemoryDelegation::operator delete
	add	esp, 8
$LN1@scalar@5:
	mov	eax, DWORD PTR _this$[ebp]
	mov	esp, ebp
	pop	ebp
	ret	4
??_GVertexBuffer@Ogre@@UAEPAXI@Z ENDP			; Ogre::VertexBuffer::`scalar deleting destructor'
; Function compile flags: /Odtp
_TEXT	ENDS
;	COMDAT ??_EVertexBuffer@Ogre@@UAEPAXI@Z
_TEXT	SEGMENT
_this$ = -4						; size = 4
___flags$ = 8						; size = 4
??_EVertexBuffer@Ogre@@UAEPAXI@Z PROC			; Ogre::VertexBuffer::`vector deleting destructor', COMDAT
; _this$ = ecx
	push	ebp
	mov	ebp, esp
	push	ecx
	mov	DWORD PTR _this$[ebp], ecx
	mov	eax, DWORD PTR ___flags$[ebp]
	and	eax, 2
	je	SHORT $LN3@vector@5
	push	OFFSET ??1VertexBuffer@Ogre@@UAE@XZ
	mov	ecx, DWORD PTR _this$[ebp]
	mov	edx, DWORD PTR [ecx-4]
	push	edx
	push	16					; 00000010H
	mov	eax, DWORD PTR _this$[ebp]
	push	eax
	call	??_M@YGXPAXIHP6EX0@Z@Z
	mov	ecx, DWORD PTR ___flags$[ebp]
	and	ecx, 1
	je	SHORT $LN2@vector@5
	push	16					; 00000010H
	mov	edx, DWORD PTR _this$[ebp]
	sub	edx, 4
	push	edx
	call	??_VMemoryDelegation@Ogre@@SAXPAXI@Z	; Ogre::MemoryDelegation::operator delete[]
	add	esp, 8
$LN2@vector@5:
	mov	eax, DWORD PTR _this$[ebp]
	sub	eax, 4
	jmp	SHORT $LN4@vector@5
$LN3@vector@5:
	mov	ecx, DWORD PTR _this$[ebp]
	call	??1VertexBuffer@Ogre@@UAE@XZ
	mov	eax, DWORD PTR ___flags$[ebp]
	and	eax, 1
	je	SHORT $LN1@vector@5
	push	16					; 00000010H
	mov	ecx, DWORD PTR _this$[ebp]
	push	ecx
	call	??3MemoryDelegation@Ogre@@SAXPAXI@Z	; Ogre::MemoryDelegation::operator delete
	add	esp, 8
$LN1@vector@5:
	mov	eax, DWORD PTR _this$[ebp]
$LN4@vector@5:
	mov	esp, ebp
	pop	ebp
	ret	4
??_EVertexBuffer@Ogre@@UAEPAXI@Z ENDP			; Ogre::VertexBuffer::`vector deleting destructor'
_TEXT	ENDS
PUBLIC	?getRTTI@IndexBuffer@Ogre@@UBEPBVRuntimeClass@2@XZ ; Ogre::IndexBuffer::getRTTI
EXTRN	?m_RTTI@IndexBuffer@Ogre@@2VRuntimeClass@2@B:BYTE ; Ogre::IndexBuffer::m_RTTI
; Function compile flags: /Odtp
;	COMDAT ?getRTTI@IndexBuffer@Ogre@@UBEPBVRuntimeClass@2@XZ
_TEXT	SEGMENT
_this$ = -4						; size = 4
?getRTTI@IndexBuffer@Ogre@@UBEPBVRuntimeClass@2@XZ PROC	; Ogre::IndexBuffer::getRTTI, COMDAT
; _this$ = ecx

; 230  : 		DECLARE_RTTI_VIRTUAL(IndexBuffer)

	push	ebp
	mov	ebp, esp
	push	ecx
	mov	DWORD PTR _this$[ebp], ecx
	mov	eax, OFFSET ?m_RTTI@IndexBuffer@Ogre@@2VRuntimeClass@2@B ; Ogre::IndexBuffer::m_RTTI
	mov	esp, ebp
	pop	ebp
	ret	0
?getRTTI@IndexBuffer@Ogre@@UBEPBVRuntimeClass@2@XZ ENDP	; Ogre::IndexBuffer::getRTTI
_TEXT	ENDS
PUBLIC	?setVertexRange@IndexBuffer@Ogre@@QAEXII@Z	; Ogre::IndexBuffer::setVertexRange
; Function compile flags: /Odtp
;	COMDAT ?setVertexRange@IndexBuffer@Ogre@@QAEXII@Z
_TEXT	SEGMENT
_this$ = -4						; size = 4
_start$ = 8						; size = 4
_num$ = 12						; size = 4
?setVertexRange@IndexBuffer@Ogre@@QAEXII@Z PROC		; Ogre::IndexBuffer::setVertexRange, COMDAT
; _this$ = ecx

; 235  : 		{

	push	ebp
	mov	ebp, esp
	push	ecx
	mov	DWORD PTR _this$[ebp], ecx

; 236  : 			m_RefVertStart = start;

	mov	eax, DWORD PTR _this$[ebp]
	mov	ecx, DWORD PTR _start$[ebp]
	mov	DWORD PTR [eax+16], ecx

; 237  : 			m_RefVertNum = num;

	mov	edx, DWORD PTR _this$[ebp]
	mov	eax, DWORD PTR _num$[ebp]
	mov	DWORD PTR [edx+20], eax

; 238  : 		}

	mov	esp, ebp
	pop	ebp
	ret	8
?setVertexRange@IndexBuffer@Ogre@@QAEXII@Z ENDP		; Ogre::IndexBuffer::setVertexRange
_TEXT	ENDS
PUBLIC	??_7IndexBuffer@Ogre@@6B@			; Ogre::IndexBuffer::`vftable'
PUBLIC	??0IndexBuffer@Ogre@@QAE@XZ			; Ogre::IndexBuffer::IndexBuffer
PUBLIC	??_R4IndexBuffer@Ogre@@6B@			; Ogre::IndexBuffer::`RTTI Complete Object Locator'
PUBLIC	??_R0?AVIndexBuffer@Ogre@@@8			; Ogre::IndexBuffer `RTTI Type Descriptor'
PUBLIC	??_R3IndexBuffer@Ogre@@8			; Ogre::IndexBuffer::`RTTI Class Hierarchy Descriptor'
PUBLIC	??_R2IndexBuffer@Ogre@@8			; Ogre::IndexBuffer::`RTTI Base Class Array'
PUBLIC	??_R1A@?0A@EA@IndexBuffer@Ogre@@8		; Ogre::IndexBuffer::`RTTI Base Class Descriptor at (0,-1,0,64)'
PUBLIC	??_EIndexBuffer@Ogre@@UAEPAXI@Z			; Ogre::IndexBuffer::`vector deleting destructor'
;	COMDAT ??_R1A@?0A@EA@IndexBuffer@Ogre@@8
rdata$r	SEGMENT
??_R1A@?0A@EA@IndexBuffer@Ogre@@8 DD FLAT:??_R0?AVIndexBuffer@Ogre@@@8 ; Ogre::IndexBuffer::`RTTI Base Class Descriptor at (0,-1,0,64)'
	DD	03H
	DD	00H
	DD	0ffffffffH
	DD	00H
	DD	040H
	DD	FLAT:??_R3IndexBuffer@Ogre@@8
rdata$r	ENDS
;	COMDAT ??_R2IndexBuffer@Ogre@@8
rdata$r	SEGMENT
??_R2IndexBuffer@Ogre@@8 DD FLAT:??_R1A@?0A@EA@IndexBuffer@Ogre@@8 ; Ogre::IndexBuffer::`RTTI Base Class Array'
	DD	FLAT:??_R1A@?0A@EA@Resource@Ogre@@8
	DD	FLAT:??_R1A@?0A@EA@BaseObject@Ogre@@8
	DD	FLAT:??_R13?0A@EA@MemoryDelegation@Ogre@@8
rdata$r	ENDS
;	COMDAT ??_R3IndexBuffer@Ogre@@8
rdata$r	SEGMENT
??_R3IndexBuffer@Ogre@@8 DD 00H				; Ogre::IndexBuffer::`RTTI Class Hierarchy Descriptor'
	DD	00H
	DD	04H
	DD	FLAT:??_R2IndexBuffer@Ogre@@8
rdata$r	ENDS
;	COMDAT ??_R0?AVIndexBuffer@Ogre@@@8
_DATA	SEGMENT
??_R0?AVIndexBuffer@Ogre@@@8 DD FLAT:??_7type_info@@6B@	; Ogre::IndexBuffer `RTTI Type Descriptor'
	DD	00H
	DB	'.?AVIndexBuffer@Ogre@@', 00H
_DATA	ENDS
;	COMDAT ??_R4IndexBuffer@Ogre@@6B@
rdata$r	SEGMENT
??_R4IndexBuffer@Ogre@@6B@ DD 00H			; Ogre::IndexBuffer::`RTTI Complete Object Locator'
	DD	00H
	DD	00H
	DD	FLAT:??_R0?AVIndexBuffer@Ogre@@@8
	DD	FLAT:??_R3IndexBuffer@Ogre@@8
rdata$r	ENDS
;	COMDAT ??_7IndexBuffer@Ogre@@6B@
CONST	SEGMENT
??_7IndexBuffer@Ogre@@6B@ DD FLAT:??_R4IndexBuffer@Ogre@@6B@ ; Ogre::IndexBuffer::`vftable'
	DD	FLAT:?getRTTI@IndexBuffer@Ogre@@UBEPBVRuntimeClass@2@XZ
	DD	FLAT:?release@Resource@Ogre@@UAEXXZ
	DD	FLAT:?addRef@Resource@Ogre@@UAEXXZ
	DD	FLAT:?getRefCount@Resource@Ogre@@UAEHXZ
	DD	FLAT:?_serialize@BaseObject@Ogre@@UAEXAAVArchive@2@H@Z
	DD	FLAT:??_EIndexBuffer@Ogre@@UAEPAXI@Z
	DD	FLAT:?deleteThis@BaseObject@Ogre@@MAEXXZ
	DD	FLAT:__purecall
CONST	ENDS
;	COMDAT xdata$x
xdata$x	SEGMENT
__unwindtable$??0IndexBuffer@Ogre@@QAE@XZ DD 0ffffffffH
	DD	FLAT:__unwindfunclet$??0IndexBuffer@Ogre@@QAE@XZ$0
__ehfuncinfo$??0IndexBuffer@Ogre@@QAE@XZ DD 019930522H
	DD	01H
	DD	FLAT:__unwindtable$??0IndexBuffer@Ogre@@QAE@XZ
	DD	2 DUP(00H)
	DD	2 DUP(00H)
	DD	00H
	DD	00H
; Function compile flags: /Odtp
xdata$x	ENDS
;	COMDAT ??0IndexBuffer@Ogre@@QAE@XZ
_TEXT	SEGMENT
_this$ = -16						; size = 4
__$EHRec$ = -12						; size = 12
??0IndexBuffer@Ogre@@QAE@XZ PROC			; Ogre::IndexBuffer::IndexBuffer, COMDAT
; _this$ = ecx
	push	ebp
	mov	ebp, esp
	push	-1
	push	__ehhandler$??0IndexBuffer@Ogre@@QAE@XZ
	mov	eax, DWORD PTR fs:0
	push	eax
	push	ecx
	mov	eax, DWORD PTR ___security_cookie
	xor	eax, ebp
	push	eax
	lea	eax, DWORD PTR __$EHRec$[ebp]
	mov	DWORD PTR fs:0, eax
	mov	DWORD PTR _this$[ebp], ecx
	mov	ecx, DWORD PTR _this$[ebp]
	call	??0Resource@Ogre@@IAE@XZ		; Ogre::Resource::Resource
	mov	DWORD PTR __$EHRec$[ebp+8], 0
	mov	eax, DWORD PTR _this$[ebp]
	mov	DWORD PTR [eax], OFFSET ??_7IndexBuffer@Ogre@@6B@
	mov	DWORD PTR __$EHRec$[ebp+8], -1
	mov	eax, DWORD PTR _this$[ebp]
	mov	ecx, DWORD PTR __$EHRec$[ebp]
	mov	DWORD PTR fs:0, ecx
	pop	ecx
	mov	esp, ebp
	pop	ebp
	ret	0
_TEXT	ENDS
;	COMDAT text$x
text$x	SEGMENT
__unwindfunclet$??0IndexBuffer@Ogre@@QAE@XZ$0:
	mov	ecx, DWORD PTR _this$[ebp]
	jmp	??1Resource@Ogre@@MAE@XZ		; Ogre::Resource::~Resource
__ehhandler$??0IndexBuffer@Ogre@@QAE@XZ:
	mov	edx, DWORD PTR [esp+8]
	lea	eax, DWORD PTR [edx+12]
	mov	ecx, DWORD PTR [edx-8]
	xor	ecx, eax
	call	@__security_check_cookie@4
	mov	eax, OFFSET __ehfuncinfo$??0IndexBuffer@Ogre@@QAE@XZ
	jmp	___CxxFrameHandler3
text$x	ENDS
??0IndexBuffer@Ogre@@QAE@XZ ENDP			; Ogre::IndexBuffer::IndexBuffer
PUBLIC	??1IndexBuffer@Ogre@@UAE@XZ			; Ogre::IndexBuffer::~IndexBuffer
;	COMDAT xdata$x
xdata$x	SEGMENT
__unwindtable$??1IndexBuffer@Ogre@@UAE@XZ DD 0ffffffffH
	DD	FLAT:__unwindfunclet$??1IndexBuffer@Ogre@@UAE@XZ$0
__ehfuncinfo$??1IndexBuffer@Ogre@@UAE@XZ DD 019930522H
	DD	01H
	DD	FLAT:__unwindtable$??1IndexBuffer@Ogre@@UAE@XZ
	DD	2 DUP(00H)
	DD	2 DUP(00H)
	DD	00H
	DD	00H
; Function compile flags: /Odtp
xdata$x	ENDS
;	COMDAT ??1IndexBuffer@Ogre@@UAE@XZ
_TEXT	SEGMENT
_this$ = -16						; size = 4
__$EHRec$ = -12						; size = 12
??1IndexBuffer@Ogre@@UAE@XZ PROC			; Ogre::IndexBuffer::~IndexBuffer, COMDAT
; _this$ = ecx
	push	ebp
	mov	ebp, esp
	push	-1
	push	__ehhandler$??1IndexBuffer@Ogre@@UAE@XZ
	mov	eax, DWORD PTR fs:0
	push	eax
	push	ecx
	mov	eax, DWORD PTR ___security_cookie
	xor	eax, ebp
	push	eax
	lea	eax, DWORD PTR __$EHRec$[ebp]
	mov	DWORD PTR fs:0, eax
	mov	DWORD PTR _this$[ebp], ecx
	mov	DWORD PTR __$EHRec$[ebp+8], 0
	mov	DWORD PTR __$EHRec$[ebp+8], -1
	mov	ecx, DWORD PTR _this$[ebp]
	call	??1Resource@Ogre@@MAE@XZ		; Ogre::Resource::~Resource
	mov	ecx, DWORD PTR __$EHRec$[ebp]
	mov	DWORD PTR fs:0, ecx
	pop	ecx
	mov	esp, ebp
	pop	ebp
	ret	0
_TEXT	ENDS
;	COMDAT text$x
text$x	SEGMENT
__unwindfunclet$??1IndexBuffer@Ogre@@UAE@XZ$0:
	mov	ecx, DWORD PTR _this$[ebp]
	jmp	??1Resource@Ogre@@MAE@XZ		; Ogre::Resource::~Resource
__ehhandler$??1IndexBuffer@Ogre@@UAE@XZ:
	mov	edx, DWORD PTR [esp+8]
	lea	eax, DWORD PTR [edx+12]
	mov	ecx, DWORD PTR [edx-8]
	xor	ecx, eax
	call	@__security_check_cookie@4
	mov	eax, OFFSET __ehfuncinfo$??1IndexBuffer@Ogre@@UAE@XZ
	jmp	___CxxFrameHandler3
text$x	ENDS
??1IndexBuffer@Ogre@@UAE@XZ ENDP			; Ogre::IndexBuffer::~IndexBuffer
PUBLIC	??0IndexBuffer@Ogre@@QAE@ABV01@@Z		; Ogre::IndexBuffer::IndexBuffer
;	COMDAT xdata$x
xdata$x	SEGMENT
__unwindtable$??0IndexBuffer@Ogre@@QAE@ABV01@@Z DD 0ffffffffH
	DD	FLAT:__unwindfunclet$??0IndexBuffer@Ogre@@QAE@ABV01@@Z$0
__ehfuncinfo$??0IndexBuffer@Ogre@@QAE@ABV01@@Z DD 019930522H
	DD	01H
	DD	FLAT:__unwindtable$??0IndexBuffer@Ogre@@QAE@ABV01@@Z
	DD	2 DUP(00H)
	DD	2 DUP(00H)
	DD	00H
	DD	00H
; Function compile flags: /Odtp
xdata$x	ENDS
;	COMDAT ??0IndexBuffer@Ogre@@QAE@ABV01@@Z
_TEXT	SEGMENT
_this$ = -16						; size = 4
__$EHRec$ = -12						; size = 12
___that$ = 8						; size = 4
??0IndexBuffer@Ogre@@QAE@ABV01@@Z PROC			; Ogre::IndexBuffer::IndexBuffer, COMDAT
; _this$ = ecx
	push	ebp
	mov	ebp, esp
	push	-1
	push	__ehhandler$??0IndexBuffer@Ogre@@QAE@ABV01@@Z
	mov	eax, DWORD PTR fs:0
	push	eax
	push	ecx
	mov	eax, DWORD PTR ___security_cookie
	xor	eax, ebp
	push	eax
	lea	eax, DWORD PTR __$EHRec$[ebp]
	mov	DWORD PTR fs:0, eax
	mov	DWORD PTR _this$[ebp], ecx
	mov	eax, DWORD PTR ___that$[ebp]
	push	eax
	mov	ecx, DWORD PTR _this$[ebp]
	call	??0Resource@Ogre@@QAE@ABV01@@Z
	mov	DWORD PTR __$EHRec$[ebp+8], 0
	mov	ecx, DWORD PTR _this$[ebp]
	mov	DWORD PTR [ecx], OFFSET ??_7IndexBuffer@Ogre@@6B@
	mov	edx, DWORD PTR _this$[ebp]
	mov	eax, DWORD PTR ___that$[ebp]
	mov	ecx, DWORD PTR [eax+16]
	mov	DWORD PTR [edx+16], ecx
	mov	edx, DWORD PTR _this$[ebp]
	mov	eax, DWORD PTR ___that$[ebp]
	mov	ecx, DWORD PTR [eax+20]
	mov	DWORD PTR [edx+20], ecx
	mov	DWORD PTR __$EHRec$[ebp+8], -1
	mov	eax, DWORD PTR _this$[ebp]
	mov	ecx, DWORD PTR __$EHRec$[ebp]
	mov	DWORD PTR fs:0, ecx
	pop	ecx
	mov	esp, ebp
	pop	ebp
	ret	4
_TEXT	ENDS
;	COMDAT text$x
text$x	SEGMENT
__unwindfunclet$??0IndexBuffer@Ogre@@QAE@ABV01@@Z$0:
	mov	ecx, DWORD PTR _this$[ebp]
	jmp	??1Resource@Ogre@@MAE@XZ		; Ogre::Resource::~Resource
__ehhandler$??0IndexBuffer@Ogre@@QAE@ABV01@@Z:
	mov	edx, DWORD PTR [esp+8]
	lea	eax, DWORD PTR [edx+12]
	mov	ecx, DWORD PTR [edx-8]
	xor	ecx, eax
	call	@__security_check_cookie@4
	mov	eax, OFFSET __ehfuncinfo$??0IndexBuffer@Ogre@@QAE@ABV01@@Z
	jmp	___CxxFrameHandler3
text$x	ENDS
??0IndexBuffer@Ogre@@QAE@ABV01@@Z ENDP			; Ogre::IndexBuffer::IndexBuffer
PUBLIC	??4IndexBuffer@Ogre@@QAEAAV01@ABV01@@Z		; Ogre::IndexBuffer::operator=
; Function compile flags: /Odtp
;	COMDAT ??4IndexBuffer@Ogre@@QAEAAV01@ABV01@@Z
_TEXT	SEGMENT
_this$ = -4						; size = 4
___that$ = 8						; size = 4
??4IndexBuffer@Ogre@@QAEAAV01@ABV01@@Z PROC		; Ogre::IndexBuffer::operator=, COMDAT
; _this$ = ecx
	push	ebp
	mov	ebp, esp
	push	ecx
	mov	DWORD PTR _this$[ebp], ecx
	mov	eax, DWORD PTR ___that$[ebp]
	push	eax
	mov	ecx, DWORD PTR _this$[ebp]
	call	??4Resource@Ogre@@QAEAAV01@ABV01@@Z
	mov	ecx, DWORD PTR _this$[ebp]
	mov	edx, DWORD PTR ___that$[ebp]
	mov	eax, DWORD PTR [edx+16]
	mov	DWORD PTR [ecx+16], eax
	mov	ecx, DWORD PTR _this$[ebp]
	mov	edx, DWORD PTR ___that$[ebp]
	mov	eax, DWORD PTR [edx+20]
	mov	DWORD PTR [ecx+20], eax
	mov	eax, DWORD PTR _this$[ebp]
	mov	esp, ebp
	pop	ebp
	ret	4
??4IndexBuffer@Ogre@@QAEAAV01@ABV01@@Z ENDP		; Ogre::IndexBuffer::operator=
_TEXT	ENDS
PUBLIC	??_GIndexBuffer@Ogre@@UAEPAXI@Z			; Ogre::IndexBuffer::`scalar deleting destructor'
; Function compile flags: /Odtp
;	COMDAT ??_GIndexBuffer@Ogre@@UAEPAXI@Z
_TEXT	SEGMENT
_this$ = -4						; size = 4
___flags$ = 8						; size = 4
??_GIndexBuffer@Ogre@@UAEPAXI@Z PROC			; Ogre::IndexBuffer::`scalar deleting destructor', COMDAT
; _this$ = ecx
	push	ebp
	mov	ebp, esp
	push	ecx
	mov	DWORD PTR _this$[ebp], ecx
	mov	ecx, DWORD PTR _this$[ebp]
	call	??1IndexBuffer@Ogre@@UAE@XZ
	mov	eax, DWORD PTR ___flags$[ebp]
	and	eax, 1
	je	SHORT $LN1@scalar@6
	push	24					; 00000018H
	mov	ecx, DWORD PTR _this$[ebp]
	push	ecx
	call	??3MemoryDelegation@Ogre@@SAXPAXI@Z	; Ogre::MemoryDelegation::operator delete
	add	esp, 8
$LN1@scalar@6:
	mov	eax, DWORD PTR _this$[ebp]
	mov	esp, ebp
	pop	ebp
	ret	4
??_GIndexBuffer@Ogre@@UAEPAXI@Z ENDP			; Ogre::IndexBuffer::`scalar deleting destructor'
; Function compile flags: /Odtp
_TEXT	ENDS
;	COMDAT ??_EIndexBuffer@Ogre@@UAEPAXI@Z
_TEXT	SEGMENT
_this$ = -4						; size = 4
___flags$ = 8						; size = 4
??_EIndexBuffer@Ogre@@UAEPAXI@Z PROC			; Ogre::IndexBuffer::`vector deleting destructor', COMDAT
; _this$ = ecx
	push	ebp
	mov	ebp, esp
	push	ecx
	mov	DWORD PTR _this$[ebp], ecx
	mov	eax, DWORD PTR ___flags$[ebp]
	and	eax, 2
	je	SHORT $LN3@vector@6
	push	OFFSET ??1IndexBuffer@Ogre@@UAE@XZ
	mov	ecx, DWORD PTR _this$[ebp]
	mov	edx, DWORD PTR [ecx-4]
	push	edx
	push	24					; 00000018H
	mov	eax, DWORD PTR _this$[ebp]
	push	eax
	call	??_M@YGXPAXIHP6EX0@Z@Z
	mov	ecx, DWORD PTR ___flags$[ebp]
	and	ecx, 1
	je	SHORT $LN2@vector@6
	push	24					; 00000018H
	mov	edx, DWORD PTR _this$[ebp]
	sub	edx, 4
	push	edx
	call	??_VMemoryDelegation@Ogre@@SAXPAXI@Z	; Ogre::MemoryDelegation::operator delete[]
	add	esp, 8
$LN2@vector@6:
	mov	eax, DWORD PTR _this$[ebp]
	sub	eax, 4
	jmp	SHORT $LN4@vector@6
$LN3@vector@6:
	mov	ecx, DWORD PTR _this$[ebp]
	call	??1IndexBuffer@Ogre@@UAE@XZ
	mov	eax, DWORD PTR ___flags$[ebp]
	and	eax, 1
	je	SHORT $LN1@vector@6
	push	24					; 00000018H
	mov	ecx, DWORD PTR _this$[ebp]
	push	ecx
	call	??3MemoryDelegation@Ogre@@SAXPAXI@Z	; Ogre::MemoryDelegation::operator delete
	add	esp, 8
$LN1@vector@6:
	mov	eax, DWORD PTR _this$[ebp]
$LN4@vector@6:
	mov	esp, ebp
	pop	ebp
	ret	4
??_EIndexBuffer@Ogre@@UAEPAXI@Z ENDP			; Ogre::IndexBuffer::`vector deleting destructor'
_TEXT	ENDS
PUBLIC	?getRTTI@Texture@Ogre@@UBEPBVRuntimeClass@2@XZ	; Ogre::Texture::getRTTI
EXTRN	?m_RTTI@Texture@Ogre@@2VRuntimeClass@2@B:BYTE	; Ogre::Texture::m_RTTI
; Function compile flags: /Odtp
;	COMDAT ?getRTTI@Texture@Ogre@@UBEPBVRuntimeClass@2@XZ
_TEXT	SEGMENT
_this$ = -4						; size = 4
?getRTTI@Texture@Ogre@@UBEPBVRuntimeClass@2@XZ PROC	; Ogre::Texture::getRTTI, COMDAT
; _this$ = ecx

; 248  : 		DECLARE_RTTI_VIRTUAL(Texture)

	push	ebp
	mov	ebp, esp
	push	ecx
	mov	DWORD PTR _this$[ebp], ecx
	mov	eax, OFFSET ?m_RTTI@Texture@Ogre@@2VRuntimeClass@2@B ; Ogre::Texture::m_RTTI
	mov	esp, ebp
	pop	ebp
	ret	0
?getRTTI@Texture@Ogre@@UBEPBVRuntimeClass@2@XZ ENDP	; Ogre::Texture::getRTTI
_TEXT	ENDS
PUBLIC	??_7Texture@Ogre@@6B@				; Ogre::Texture::`vftable'
PUBLIC	??1Texture@Ogre@@MAE@XZ				; Ogre::Texture::~Texture
PUBLIC	??_R4Texture@Ogre@@6B@				; Ogre::Texture::`RTTI Complete Object Locator'
PUBLIC	??_R0?AVTexture@Ogre@@@8			; Ogre::Texture `RTTI Type Descriptor'
PUBLIC	??_R3Texture@Ogre@@8				; Ogre::Texture::`RTTI Class Hierarchy Descriptor'
PUBLIC	??_R2Texture@Ogre@@8				; Ogre::Texture::`RTTI Base Class Array'
PUBLIC	??_R1A@?0A@EA@Texture@Ogre@@8			; Ogre::Texture::`RTTI Base Class Descriptor at (0,-1,0,64)'
PUBLIC	??_ETexture@Ogre@@MAEPAXI@Z			; Ogre::Texture::`vector deleting destructor'
;	COMDAT ??_R1A@?0A@EA@Texture@Ogre@@8
rdata$r	SEGMENT
??_R1A@?0A@EA@Texture@Ogre@@8 DD FLAT:??_R0?AVTexture@Ogre@@@8 ; Ogre::Texture::`RTTI Base Class Descriptor at (0,-1,0,64)'
	DD	03H
	DD	00H
	DD	0ffffffffH
	DD	00H
	DD	040H
	DD	FLAT:??_R3Texture@Ogre@@8
rdata$r	ENDS
;	COMDAT ??_R2Texture@Ogre@@8
rdata$r	SEGMENT
??_R2Texture@Ogre@@8 DD FLAT:??_R1A@?0A@EA@Texture@Ogre@@8 ; Ogre::Texture::`RTTI Base Class Array'
	DD	FLAT:??_R1A@?0A@EA@Resource@Ogre@@8
	DD	FLAT:??_R1A@?0A@EA@BaseObject@Ogre@@8
	DD	FLAT:??_R13?0A@EA@MemoryDelegation@Ogre@@8
rdata$r	ENDS
;	COMDAT ??_R3Texture@Ogre@@8
rdata$r	SEGMENT
??_R3Texture@Ogre@@8 DD 00H				; Ogre::Texture::`RTTI Class Hierarchy Descriptor'
	DD	00H
	DD	04H
	DD	FLAT:??_R2Texture@Ogre@@8
rdata$r	ENDS
;	COMDAT ??_R0?AVTexture@Ogre@@@8
_DATA	SEGMENT
??_R0?AVTexture@Ogre@@@8 DD FLAT:??_7type_info@@6B@	; Ogre::Texture `RTTI Type Descriptor'
	DD	00H
	DB	'.?AVTexture@Ogre@@', 00H
_DATA	ENDS
;	COMDAT ??_R4Texture@Ogre@@6B@
rdata$r	SEGMENT
??_R4Texture@Ogre@@6B@ DD 00H				; Ogre::Texture::`RTTI Complete Object Locator'
	DD	00H
	DD	00H
	DD	FLAT:??_R0?AVTexture@Ogre@@@8
	DD	FLAT:??_R3Texture@Ogre@@8
rdata$r	ENDS
;	COMDAT ??_7Texture@Ogre@@6B@
CONST	SEGMENT
??_7Texture@Ogre@@6B@ DD FLAT:??_R4Texture@Ogre@@6B@	; Ogre::Texture::`vftable'
	DD	FLAT:?getRTTI@Texture@Ogre@@UBEPBVRuntimeClass@2@XZ
	DD	FLAT:?release@Resource@Ogre@@UAEXXZ
	DD	FLAT:?addRef@Resource@Ogre@@UAEXXZ
	DD	FLAT:?getRefCount@Resource@Ogre@@UAEHXZ
	DD	FLAT:?_serialize@BaseObject@Ogre@@UAEXAAVArchive@2@H@Z
	DD	FLAT:??_ETexture@Ogre@@MAEPAXI@Z
	DD	FLAT:?deleteThis@BaseObject@Ogre@@MAEXXZ
	DD	FLAT:__purecall
	DD	FLAT:__purecall
	DD	FLAT:__purecall
	DD	FLAT:__purecall
CONST	ENDS
;	COMDAT xdata$x
xdata$x	SEGMENT
__unwindtable$??1Texture@Ogre@@MAE@XZ DD 0ffffffffH
	DD	FLAT:__unwindfunclet$??1Texture@Ogre@@MAE@XZ$0
__ehfuncinfo$??1Texture@Ogre@@MAE@XZ DD 019930522H
	DD	01H
	DD	FLAT:__unwindtable$??1Texture@Ogre@@MAE@XZ
	DD	2 DUP(00H)
	DD	2 DUP(00H)
	DD	00H
	DD	00H
; Function compile flags: /Odtp
xdata$x	ENDS
;	COMDAT ??1Texture@Ogre@@MAE@XZ
_TEXT	SEGMENT
_this$ = -16						; size = 4
__$EHRec$ = -12						; size = 12
??1Texture@Ogre@@MAE@XZ PROC				; Ogre::Texture::~Texture, COMDAT
; _this$ = ecx

; 257  : 		{

	push	ebp
	mov	ebp, esp
	push	-1
	push	__ehhandler$??1Texture@Ogre@@MAE@XZ
	mov	eax, DWORD PTR fs:0
	push	eax
	push	ecx
	mov	eax, DWORD PTR ___security_cookie
	xor	eax, ebp
	push	eax
	lea	eax, DWORD PTR __$EHRec$[ebp]
	mov	DWORD PTR fs:0, eax
	mov	DWORD PTR _this$[ebp], ecx
	mov	eax, DWORD PTR _this$[ebp]
	mov	DWORD PTR [eax], OFFSET ??_7Texture@Ogre@@6B@
	mov	DWORD PTR __$EHRec$[ebp+8], 0

; 258  : 		}

	mov	DWORD PTR __$EHRec$[ebp+8], -1
	mov	ecx, DWORD PTR _this$[ebp]
	call	??1Resource@Ogre@@MAE@XZ		; Ogre::Resource::~Resource
	mov	ecx, DWORD PTR __$EHRec$[ebp]
	mov	DWORD PTR fs:0, ecx
	pop	ecx
	mov	esp, ebp
	pop	ebp
	ret	0
_TEXT	ENDS
;	COMDAT text$x
text$x	SEGMENT
__unwindfunclet$??1Texture@Ogre@@MAE@XZ$0:
	mov	ecx, DWORD PTR _this$[ebp]
	jmp	??1Resource@Ogre@@MAE@XZ		; Ogre::Resource::~Resource
__ehhandler$??1Texture@Ogre@@MAE@XZ:
	mov	edx, DWORD PTR [esp+8]
	lea	eax, DWORD PTR [edx+12]
	mov	ecx, DWORD PTR [edx-8]
	xor	ecx, eax
	call	@__security_check_cookie@4
	mov	eax, OFFSET __ehfuncinfo$??1Texture@Ogre@@MAE@XZ
	jmp	___CxxFrameHandler3
text$x	ENDS
??1Texture@Ogre@@MAE@XZ ENDP				; Ogre::Texture::~Texture
PUBLIC	??0Texture@Ogre@@QAE@XZ				; Ogre::Texture::Texture
;	COMDAT xdata$x
xdata$x	SEGMENT
__unwindtable$??0Texture@Ogre@@QAE@XZ DD 0ffffffffH
	DD	FLAT:__unwindfunclet$??0Texture@Ogre@@QAE@XZ$0
__ehfuncinfo$??0Texture@Ogre@@QAE@XZ DD 019930522H
	DD	01H
	DD	FLAT:__unwindtable$??0Texture@Ogre@@QAE@XZ
	DD	2 DUP(00H)
	DD	2 DUP(00H)
	DD	00H
	DD	00H
; Function compile flags: /Odtp
xdata$x	ENDS
;	COMDAT ??0Texture@Ogre@@QAE@XZ
_TEXT	SEGMENT
_this$ = -16						; size = 4
__$EHRec$ = -12						; size = 12
??0Texture@Ogre@@QAE@XZ PROC				; Ogre::Texture::Texture, COMDAT
; _this$ = ecx
	push	ebp
	mov	ebp, esp
	push	-1
	push	__ehhandler$??0Texture@Ogre@@QAE@XZ
	mov	eax, DWORD PTR fs:0
	push	eax
	push	ecx
	mov	eax, DWORD PTR ___security_cookie
	xor	eax, ebp
	push	eax
	lea	eax, DWORD PTR __$EHRec$[ebp]
	mov	DWORD PTR fs:0, eax
	mov	DWORD PTR _this$[ebp], ecx
	mov	ecx, DWORD PTR _this$[ebp]
	call	??0Resource@Ogre@@IAE@XZ		; Ogre::Resource::Resource
	mov	DWORD PTR __$EHRec$[ebp+8], 0
	mov	eax, DWORD PTR _this$[ebp]
	mov	DWORD PTR [eax], OFFSET ??_7Texture@Ogre@@6B@
	mov	DWORD PTR __$EHRec$[ebp+8], -1
	mov	eax, DWORD PTR _this$[ebp]
	mov	ecx, DWORD PTR __$EHRec$[ebp]
	mov	DWORD PTR fs:0, ecx
	pop	ecx
	mov	esp, ebp
	pop	ebp
	ret	0
_TEXT	ENDS
;	COMDAT text$x
text$x	SEGMENT
__unwindfunclet$??0Texture@Ogre@@QAE@XZ$0:
	mov	ecx, DWORD PTR _this$[ebp]
	jmp	??1Resource@Ogre@@MAE@XZ		; Ogre::Resource::~Resource
__ehhandler$??0Texture@Ogre@@QAE@XZ:
	mov	edx, DWORD PTR [esp+8]
	lea	eax, DWORD PTR [edx+12]
	mov	ecx, DWORD PTR [edx-8]
	xor	ecx, eax
	call	@__security_check_cookie@4
	mov	eax, OFFSET __ehfuncinfo$??0Texture@Ogre@@QAE@XZ
	jmp	___CxxFrameHandler3
text$x	ENDS
??0Texture@Ogre@@QAE@XZ ENDP				; Ogre::Texture::Texture
PUBLIC	??0Texture@Ogre@@QAE@ABV01@@Z			; Ogre::Texture::Texture
;	COMDAT xdata$x
xdata$x	SEGMENT
__unwindtable$??0Texture@Ogre@@QAE@ABV01@@Z DD 0ffffffffH
	DD	FLAT:__unwindfunclet$??0Texture@Ogre@@QAE@ABV01@@Z$0
__ehfuncinfo$??0Texture@Ogre@@QAE@ABV01@@Z DD 019930522H
	DD	01H
	DD	FLAT:__unwindtable$??0Texture@Ogre@@QAE@ABV01@@Z
	DD	2 DUP(00H)
	DD	2 DUP(00H)
	DD	00H
	DD	00H
; Function compile flags: /Odtp
xdata$x	ENDS
;	COMDAT ??0Texture@Ogre@@QAE@ABV01@@Z
_TEXT	SEGMENT
_this$ = -16						; size = 4
__$EHRec$ = -12						; size = 12
___that$ = 8						; size = 4
??0Texture@Ogre@@QAE@ABV01@@Z PROC			; Ogre::Texture::Texture, COMDAT
; _this$ = ecx
	push	ebp
	mov	ebp, esp
	push	-1
	push	__ehhandler$??0Texture@Ogre@@QAE@ABV01@@Z
	mov	eax, DWORD PTR fs:0
	push	eax
	push	ecx
	mov	eax, DWORD PTR ___security_cookie
	xor	eax, ebp
	push	eax
	lea	eax, DWORD PTR __$EHRec$[ebp]
	mov	DWORD PTR fs:0, eax
	mov	DWORD PTR _this$[ebp], ecx
	mov	eax, DWORD PTR ___that$[ebp]
	push	eax
	mov	ecx, DWORD PTR _this$[ebp]
	call	??0Resource@Ogre@@QAE@ABV01@@Z
	mov	DWORD PTR __$EHRec$[ebp+8], 0
	mov	ecx, DWORD PTR _this$[ebp]
	mov	DWORD PTR [ecx], OFFSET ??_7Texture@Ogre@@6B@
	mov	DWORD PTR __$EHRec$[ebp+8], -1
	mov	eax, DWORD PTR _this$[ebp]
	mov	ecx, DWORD PTR __$EHRec$[ebp]
	mov	DWORD PTR fs:0, ecx
	pop	ecx
	mov	esp, ebp
	pop	ebp
	ret	4
_TEXT	ENDS
;	COMDAT text$x
text$x	SEGMENT
__unwindfunclet$??0Texture@Ogre@@QAE@ABV01@@Z$0:
	mov	ecx, DWORD PTR _this$[ebp]
	jmp	??1Resource@Ogre@@MAE@XZ		; Ogre::Resource::~Resource
__ehhandler$??0Texture@Ogre@@QAE@ABV01@@Z:
	mov	edx, DWORD PTR [esp+8]
	lea	eax, DWORD PTR [edx+12]
	mov	ecx, DWORD PTR [edx-8]
	xor	ecx, eax
	call	@__security_check_cookie@4
	mov	eax, OFFSET __ehfuncinfo$??0Texture@Ogre@@QAE@ABV01@@Z
	jmp	___CxxFrameHandler3
text$x	ENDS
??0Texture@Ogre@@QAE@ABV01@@Z ENDP			; Ogre::Texture::Texture
PUBLIC	??4Texture@Ogre@@QAEAAV01@ABV01@@Z		; Ogre::Texture::operator=
; Function compile flags: /Odtp
;	COMDAT ??4Texture@Ogre@@QAEAAV01@ABV01@@Z
_TEXT	SEGMENT
_this$ = -4						; size = 4
___that$ = 8						; size = 4
??4Texture@Ogre@@QAEAAV01@ABV01@@Z PROC			; Ogre::Texture::operator=, COMDAT
; _this$ = ecx
	push	ebp
	mov	ebp, esp
	push	ecx
	mov	DWORD PTR _this$[ebp], ecx
	mov	eax, DWORD PTR ___that$[ebp]
	push	eax
	mov	ecx, DWORD PTR _this$[ebp]
	call	??4Resource@Ogre@@QAEAAV01@ABV01@@Z
	mov	eax, DWORD PTR _this$[ebp]
	mov	esp, ebp
	pop	ebp
	ret	4
??4Texture@Ogre@@QAEAAV01@ABV01@@Z ENDP			; Ogre::Texture::operator=
_TEXT	ENDS
PUBLIC	??_GTexture@Ogre@@MAEPAXI@Z			; Ogre::Texture::`scalar deleting destructor'
; Function compile flags: /Odtp
;	COMDAT ??_GTexture@Ogre@@MAEPAXI@Z
_TEXT	SEGMENT
_this$ = -4						; size = 4
___flags$ = 8						; size = 4
??_GTexture@Ogre@@MAEPAXI@Z PROC			; Ogre::Texture::`scalar deleting destructor', COMDAT
; _this$ = ecx
	push	ebp
	mov	ebp, esp
	push	ecx
	mov	DWORD PTR _this$[ebp], ecx
	mov	ecx, DWORD PTR _this$[ebp]
	call	??1Texture@Ogre@@MAE@XZ			; Ogre::Texture::~Texture
	mov	eax, DWORD PTR ___flags$[ebp]
	and	eax, 1
	je	SHORT $LN1@scalar@7
	push	16					; 00000010H
	mov	ecx, DWORD PTR _this$[ebp]
	push	ecx
	call	??3MemoryDelegation@Ogre@@SAXPAXI@Z	; Ogre::MemoryDelegation::operator delete
	add	esp, 8
$LN1@scalar@7:
	mov	eax, DWORD PTR _this$[ebp]
	mov	esp, ebp
	pop	ebp
	ret	4
??_GTexture@Ogre@@MAEPAXI@Z ENDP			; Ogre::Texture::`scalar deleting destructor'
; Function compile flags: /Odtp
_TEXT	ENDS
;	COMDAT ??_ETexture@Ogre@@MAEPAXI@Z
_TEXT	SEGMENT
_this$ = -4						; size = 4
___flags$ = 8						; size = 4
??_ETexture@Ogre@@MAEPAXI@Z PROC			; Ogre::Texture::`vector deleting destructor', COMDAT
; _this$ = ecx
	push	ebp
	mov	ebp, esp
	push	ecx
	mov	DWORD PTR _this$[ebp], ecx
	mov	eax, DWORD PTR ___flags$[ebp]
	and	eax, 2
	je	SHORT $LN3@vector@7
	push	OFFSET ??1Texture@Ogre@@MAE@XZ		; Ogre::Texture::~Texture
	mov	ecx, DWORD PTR _this$[ebp]
	mov	edx, DWORD PTR [ecx-4]
	push	edx
	push	16					; 00000010H
	mov	eax, DWORD PTR _this$[ebp]
	push	eax
	call	??_M@YGXPAXIHP6EX0@Z@Z
	mov	ecx, DWORD PTR ___flags$[ebp]
	and	ecx, 1
	je	SHORT $LN2@vector@7
	push	16					; 00000010H
	mov	edx, DWORD PTR _this$[ebp]
	sub	edx, 4
	push	edx
	call	??_VMemoryDelegation@Ogre@@SAXPAXI@Z	; Ogre::MemoryDelegation::operator delete[]
	add	esp, 8
$LN2@vector@7:
	mov	eax, DWORD PTR _this$[ebp]
	sub	eax, 4
	jmp	SHORT $LN4@vector@7
$LN3@vector@7:
	mov	ecx, DWORD PTR _this$[ebp]
	call	??1Texture@Ogre@@MAE@XZ			; Ogre::Texture::~Texture
	mov	eax, DWORD PTR ___flags$[ebp]
	and	eax, 1
	je	SHORT $LN1@vector@7
	push	16					; 00000010H
	mov	ecx, DWORD PTR _this$[ebp]
	push	ecx
	call	??3MemoryDelegation@Ogre@@SAXPAXI@Z	; Ogre::MemoryDelegation::operator delete
	add	esp, 8
$LN1@vector@7:
	mov	eax, DWORD PTR _this$[ebp]
$LN4@vector@7:
	mov	esp, ebp
	pop	ebp
	ret	4
??_ETexture@Ogre@@MAEPAXI@Z ENDP			; Ogre::Texture::`vector deleting destructor'
_TEXT	ENDS
PUBLIC	??_7DataStream@Ogre@@6B@			; Ogre::DataStream::`vftable'
PUBLIC	??0DataStream@Ogre@@QAE@XZ			; Ogre::DataStream::DataStream
PUBLIC	??_R4DataStream@Ogre@@6B@			; Ogre::DataStream::`RTTI Complete Object Locator'
PUBLIC	??_R0?AVDataStream@Ogre@@@8			; Ogre::DataStream `RTTI Type Descriptor'
PUBLIC	??_R3DataStream@Ogre@@8				; Ogre::DataStream::`RTTI Class Hierarchy Descriptor'
PUBLIC	??_R2DataStream@Ogre@@8				; Ogre::DataStream::`RTTI Base Class Array'
PUBLIC	??_R1A@?0A@EA@DataStream@Ogre@@8		; Ogre::DataStream::`RTTI Base Class Descriptor at (0,-1,0,64)'
PUBLIC	??_EDataStream@Ogre@@UAEPAXI@Z			; Ogre::DataStream::`vector deleting destructor'
PUBLIC	?size@DataStream@Ogre@@UBEIXZ			; Ogre::DataStream::size
EXTRN	__imp_??1?$basic_string@DU?$char_traits@D@std@@V?$allocator@D@2@@std@@QAE@XZ:PROC
EXTRN	__imp_??0?$basic_string@DU?$char_traits@D@std@@V?$allocator@D@2@@std@@QAE@XZ:PROC
EXTRN	?readLine@DataStream@Ogre@@UAEIPADIABV?$basic_string@DU?$char_traits@D@std@@V?$allocator@D@2@@std@@@Z:PROC ; Ogre::DataStream::readLine
EXTRN	?getLine@DataStream@Ogre@@UAE?AV?$basic_string@DU?$char_traits@D@std@@V?$allocator@D@2@@std@@_N@Z:PROC ; Ogre::DataStream::getLine
EXTRN	?getAsString@DataStream@Ogre@@UAE?AV?$basic_string@DU?$char_traits@D@std@@V?$allocator@D@2@@std@@XZ:PROC ; Ogre::DataStream::getAsString
EXTRN	?skipLine@DataStream@Ogre@@UAEIABV?$basic_string@DU?$char_traits@D@std@@V?$allocator@D@2@@std@@@Z:PROC ; Ogre::DataStream::skipLine
;	COMDAT ??_R1A@?0A@EA@DataStream@Ogre@@8
; File i:\svnroot\client\ogremain\ogredatastream.h
rdata$r	SEGMENT
??_R1A@?0A@EA@DataStream@Ogre@@8 DD FLAT:??_R0?AVDataStream@Ogre@@@8 ; Ogre::DataStream::`RTTI Base Class Descriptor at (0,-1,0,64)'
	DD	00H
	DD	00H
	DD	0ffffffffH
	DD	00H
	DD	040H
	DD	FLAT:??_R3DataStream@Ogre@@8
rdata$r	ENDS
;	COMDAT ??_R2DataStream@Ogre@@8
rdata$r	SEGMENT
??_R2DataStream@Ogre@@8 DD FLAT:??_R1A@?0A@EA@DataStream@Ogre@@8 ; Ogre::DataStream::`RTTI Base Class Array'
rdata$r	ENDS
;	COMDAT ??_R3DataStream@Ogre@@8
rdata$r	SEGMENT
??_R3DataStream@Ogre@@8 DD 00H				; Ogre::DataStream::`RTTI Class Hierarchy Descriptor'
	DD	00H
	DD	01H
	DD	FLAT:??_R2DataStream@Ogre@@8
rdata$r	ENDS
;	COMDAT ??_R0?AVDataStream@Ogre@@@8
_DATA	SEGMENT
??_R0?AVDataStream@Ogre@@@8 DD FLAT:??_7type_info@@6B@	; Ogre::DataStream `RTTI Type Descriptor'
	DD	00H
	DB	'.?AVDataStream@Ogre@@', 00H
_DATA	ENDS
;	COMDAT ??_R4DataStream@Ogre@@6B@
rdata$r	SEGMENT
??_R4DataStream@Ogre@@6B@ DD 00H			; Ogre::DataStream::`RTTI Complete Object Locator'
	DD	00H
	DD	00H
	DD	FLAT:??_R0?AVDataStream@Ogre@@@8
	DD	FLAT:??_R3DataStream@Ogre@@8
rdata$r	ENDS
;	COMDAT ??_7DataStream@Ogre@@6B@
CONST	SEGMENT
??_7DataStream@Ogre@@6B@ DD FLAT:??_R4DataStream@Ogre@@6B@ ; Ogre::DataStream::`vftable'
	DD	FLAT:??_EDataStream@Ogre@@UAEPAXI@Z
	DD	FLAT:__purecall
	DD	FLAT:__purecall
	DD	FLAT:?readLine@DataStream@Ogre@@UAEIPADIABV?$basic_string@DU?$char_traits@D@std@@V?$allocator@D@2@@std@@@Z
	DD	FLAT:?getLine@DataStream@Ogre@@UAE?AV?$basic_string@DU?$char_traits@D@std@@V?$allocator@D@2@@std@@_N@Z
	DD	FLAT:?getAsString@DataStream@Ogre@@UAE?AV?$basic_string@DU?$char_traits@D@std@@V?$allocator@D@2@@std@@XZ
	DD	FLAT:?skipLine@DataStream@Ogre@@UAEIABV?$basic_string@DU?$char_traits@D@std@@V?$allocator@D@2@@std@@@Z
	DD	FLAT:__purecall
	DD	FLAT:__purecall
	DD	FLAT:__purecall
	DD	FLAT:__purecall
	DD	FLAT:?size@DataStream@Ogre@@UBEIXZ
	DD	FLAT:__purecall
	DD	FLAT:__purecall
CONST	ENDS
;	COMDAT xdata$x
xdata$x	SEGMENT
__unwindtable$??0DataStream@Ogre@@QAE@XZ DD 0ffffffffH
	DD	FLAT:__unwindfunclet$??0DataStream@Ogre@@QAE@XZ$0
__ehfuncinfo$??0DataStream@Ogre@@QAE@XZ DD 019930522H
	DD	01H
	DD	FLAT:__unwindtable$??0DataStream@Ogre@@QAE@XZ
	DD	2 DUP(00H)
	DD	2 DUP(00H)
	DD	00H
	DD	00H
; Function compile flags: /Odtp
xdata$x	ENDS
;	COMDAT ??0DataStream@Ogre@@QAE@XZ
_TEXT	SEGMENT
_this$ = -16						; size = 4
__$EHRec$ = -12						; size = 12
??0DataStream@Ogre@@QAE@XZ PROC				; Ogre::DataStream::DataStream, COMDAT
; _this$ = ecx

; 68   : 		DataStream() : mSize(0) {}

	push	ebp
	mov	ebp, esp
	push	-1
	push	__ehhandler$??0DataStream@Ogre@@QAE@XZ
	mov	eax, DWORD PTR fs:0
	push	eax
	push	ecx
	mov	eax, DWORD PTR ___security_cookie
	xor	eax, ebp
	push	eax
	lea	eax, DWORD PTR __$EHRec$[ebp]
	mov	DWORD PTR fs:0, eax
	mov	DWORD PTR _this$[ebp], ecx
	mov	eax, DWORD PTR _this$[ebp]
	mov	DWORD PTR [eax], OFFSET ??_7DataStream@Ogre@@6B@
	mov	ecx, DWORD PTR _this$[ebp]
	add	ecx, 4
	call	DWORD PTR __imp_??0?$basic_string@DU?$char_traits@D@std@@V?$allocator@D@2@@std@@QAE@XZ
	mov	DWORD PTR __$EHRec$[ebp+8], 0
	mov	ecx, DWORD PTR _this$[ebp]
	mov	DWORD PTR [ecx+32], 0
	mov	DWORD PTR __$EHRec$[ebp+8], -1
	mov	eax, DWORD PTR _this$[ebp]
	mov	ecx, DWORD PTR __$EHRec$[ebp]
	mov	DWORD PTR fs:0, ecx
	pop	ecx
	mov	esp, ebp
	pop	ebp
	ret	0
_TEXT	ENDS
;	COMDAT text$x
text$x	SEGMENT
__unwindfunclet$??0DataStream@Ogre@@QAE@XZ$0:
	mov	ecx, DWORD PTR _this$[ebp]
	add	ecx, 4
	jmp	DWORD PTR __imp_??1?$basic_string@DU?$char_traits@D@std@@V?$allocator@D@2@@std@@QAE@XZ
__ehhandler$??0DataStream@Ogre@@QAE@XZ:
	mov	edx, DWORD PTR [esp+8]
	lea	eax, DWORD PTR [edx+12]
	mov	ecx, DWORD PTR [edx-8]
	xor	ecx, eax
	call	@__security_check_cookie@4
	mov	eax, OFFSET __ehfuncinfo$??0DataStream@Ogre@@QAE@XZ
	jmp	___CxxFrameHandler3
text$x	ENDS
??0DataStream@Ogre@@QAE@XZ ENDP				; Ogre::DataStream::DataStream
PUBLIC	??0DataStream@Ogre@@QAE@ABV?$basic_string@DU?$char_traits@D@std@@V?$allocator@D@2@@std@@@Z ; Ogre::DataStream::DataStream
EXTRN	__imp_??0?$basic_string@DU?$char_traits@D@std@@V?$allocator@D@2@@std@@QAE@ABV01@@Z:PROC
;	COMDAT xdata$x
xdata$x	SEGMENT
__unwindtable$??0DataStream@Ogre@@QAE@ABV?$basic_string@DU?$char_traits@D@std@@V?$allocator@D@2@@std@@@Z DD 0ffffffffH
	DD	FLAT:__unwindfunclet$??0DataStream@Ogre@@QAE@ABV?$basic_string@DU?$char_traits@D@std@@V?$allocator@D@2@@std@@@Z$0
__ehfuncinfo$??0DataStream@Ogre@@QAE@ABV?$basic_string@DU?$char_traits@D@std@@V?$allocator@D@2@@std@@@Z DD 019930522H
	DD	01H
	DD	FLAT:__unwindtable$??0DataStream@Ogre@@QAE@ABV?$basic_string@DU?$char_traits@D@std@@V?$allocator@D@2@@std@@@Z
	DD	2 DUP(00H)
	DD	2 DUP(00H)
	DD	00H
	DD	00H
; Function compile flags: /Odtp
xdata$x	ENDS
;	COMDAT ??0DataStream@Ogre@@QAE@ABV?$basic_string@DU?$char_traits@D@std@@V?$allocator@D@2@@std@@@Z
_TEXT	SEGMENT
_this$ = -16						; size = 4
__$EHRec$ = -12						; size = 12
_name$ = 8						; size = 4
??0DataStream@Ogre@@QAE@ABV?$basic_string@DU?$char_traits@D@std@@V?$allocator@D@2@@std@@@Z PROC ; Ogre::DataStream::DataStream, COMDAT
; _this$ = ecx

; 70   : 		DataStream(const String& name) : mName(name), mSize(0) {}

	push	ebp
	mov	ebp, esp
	push	-1
	push	__ehhandler$??0DataStream@Ogre@@QAE@ABV?$basic_string@DU?$char_traits@D@std@@V?$allocator@D@2@@std@@@Z
	mov	eax, DWORD PTR fs:0
	push	eax
	push	ecx
	mov	eax, DWORD PTR ___security_cookie
	xor	eax, ebp
	push	eax
	lea	eax, DWORD PTR __$EHRec$[ebp]
	mov	DWORD PTR fs:0, eax
	mov	DWORD PTR _this$[ebp], ecx
	mov	eax, DWORD PTR _this$[ebp]
	mov	DWORD PTR [eax], OFFSET ??_7DataStream@Ogre@@6B@
	mov	ecx, DWORD PTR _name$[ebp]
	push	ecx
	mov	ecx, DWORD PTR _this$[ebp]
	add	ecx, 4
	call	DWORD PTR __imp_??0?$basic_string@DU?$char_traits@D@std@@V?$allocator@D@2@@std@@QAE@ABV01@@Z
	mov	DWORD PTR __$EHRec$[ebp+8], 0
	mov	edx, DWORD PTR _this$[ebp]
	mov	DWORD PTR [edx+32], 0
	mov	DWORD PTR __$EHRec$[ebp+8], -1
	mov	eax, DWORD PTR _this$[ebp]
	mov	ecx, DWORD PTR __$EHRec$[ebp]
	mov	DWORD PTR fs:0, ecx
	pop	ecx
	mov	esp, ebp
	pop	ebp
	ret	4
_TEXT	ENDS
;	COMDAT text$x
text$x	SEGMENT
__unwindfunclet$??0DataStream@Ogre@@QAE@ABV?$basic_string@DU?$char_traits@D@std@@V?$allocator@D@2@@std@@@Z$0:
	mov	ecx, DWORD PTR _this$[ebp]
	add	ecx, 4
	jmp	DWORD PTR __imp_??1?$basic_string@DU?$char_traits@D@std@@V?$allocator@D@2@@std@@QAE@XZ
__ehhandler$??0DataStream@Ogre@@QAE@ABV?$basic_string@DU?$char_traits@D@std@@V?$allocator@D@2@@std@@@Z:
	mov	edx, DWORD PTR [esp+8]
	lea	eax, DWORD PTR [edx+12]
	mov	ecx, DWORD PTR [edx-8]
	xor	ecx, eax
	call	@__security_check_cookie@4
	mov	eax, OFFSET __ehfuncinfo$??0DataStream@Ogre@@QAE@ABV?$basic_string@DU?$char_traits@D@std@@V?$allocator@D@2@@std@@@Z
	jmp	___CxxFrameHandler3
text$x	ENDS
??0DataStream@Ogre@@QAE@ABV?$basic_string@DU?$char_traits@D@std@@V?$allocator@D@2@@std@@@Z ENDP ; Ogre::DataStream::DataStream
PUBLIC	?getName@DataStream@Ogre@@QAEABV?$basic_string@DU?$char_traits@D@std@@V?$allocator@D@2@@std@@XZ ; Ogre::DataStream::getName
; Function compile flags: /Odtp
;	COMDAT ?getName@DataStream@Ogre@@QAEABV?$basic_string@DU?$char_traits@D@std@@V?$allocator@D@2@@std@@XZ
_TEXT	SEGMENT
_this$ = -4						; size = 4
?getName@DataStream@Ogre@@QAEABV?$basic_string@DU?$char_traits@D@std@@V?$allocator@D@2@@std@@XZ PROC ; Ogre::DataStream::getName, COMDAT
; _this$ = ecx

; 72   : 		const String& getName(void) { return mName; }

	push	ebp
	mov	ebp, esp
	push	ecx
	mov	DWORD PTR _this$[ebp], ecx
	mov	eax, DWORD PTR _this$[ebp]
	add	eax, 4
	mov	esp, ebp
	pop	ebp
	ret	0
?getName@DataStream@Ogre@@QAEABV?$basic_string@DU?$char_traits@D@std@@V?$allocator@D@2@@std@@XZ ENDP ; Ogre::DataStream::getName
_TEXT	ENDS
PUBLIC	??1DataStream@Ogre@@UAE@XZ			; Ogre::DataStream::~DataStream
;	COMDAT xdata$x
xdata$x	SEGMENT
__unwindtable$??1DataStream@Ogre@@UAE@XZ DD 0ffffffffH
	DD	FLAT:__unwindfunclet$??1DataStream@Ogre@@UAE@XZ$0
__ehfuncinfo$??1DataStream@Ogre@@UAE@XZ DD 019930522H
	DD	01H
	DD	FLAT:__unwindtable$??1DataStream@Ogre@@UAE@XZ
	DD	2 DUP(00H)
	DD	2 DUP(00H)
	DD	00H
	DD	00H
; Function compile flags: /Odtp
xdata$x	ENDS
;	COMDAT ??1DataStream@Ogre@@UAE@XZ
_TEXT	SEGMENT
_this$ = -16						; size = 4
__$EHRec$ = -12						; size = 12
??1DataStream@Ogre@@UAE@XZ PROC				; Ogre::DataStream::~DataStream, COMDAT
; _this$ = ecx

; 73   : 		virtual ~DataStream() {}

	push	ebp
	mov	ebp, esp
	push	-1
	push	__ehhandler$??1DataStream@Ogre@@UAE@XZ
	mov	eax, DWORD PTR fs:0
	push	eax
	push	ecx
	mov	eax, DWORD PTR ___security_cookie
	xor	eax, ebp
	push	eax
	lea	eax, DWORD PTR __$EHRec$[ebp]
	mov	DWORD PTR fs:0, eax
	mov	DWORD PTR _this$[ebp], ecx
	mov	eax, DWORD PTR _this$[ebp]
	mov	DWORD PTR [eax], OFFSET ??_7DataStream@Ogre@@6B@
	mov	DWORD PTR __$EHRec$[ebp+8], 0
	mov	DWORD PTR __$EHRec$[ebp+8], -1
	mov	ecx, DWORD PTR _this$[ebp]
	add	ecx, 4
	call	DWORD PTR __imp_??1?$basic_string@DU?$char_traits@D@std@@V?$allocator@D@2@@std@@QAE@XZ
	mov	ecx, DWORD PTR __$EHRec$[ebp]
	mov	DWORD PTR fs:0, ecx
	pop	ecx
	mov	esp, ebp
	pop	ebp
	ret	0
_TEXT	ENDS
;	COMDAT text$x
text$x	SEGMENT
__unwindfunclet$??1DataStream@Ogre@@UAE@XZ$0:
	mov	ecx, DWORD PTR _this$[ebp]
	add	ecx, 4
	jmp	DWORD PTR __imp_??1?$basic_string@DU?$char_traits@D@std@@V?$allocator@D@2@@std@@QAE@XZ
__ehhandler$??1DataStream@Ogre@@UAE@XZ:
	mov	edx, DWORD PTR [esp+8]
	lea	eax, DWORD PTR [edx+12]
	mov	ecx, DWORD PTR [edx-8]
	xor	ecx, eax
	call	@__security_check_cookie@4
	mov	eax, OFFSET __ehfuncinfo$??1DataStream@Ogre@@UAE@XZ
	jmp	___CxxFrameHandler3
text$x	ENDS
??1DataStream@Ogre@@UAE@XZ ENDP				; Ogre::DataStream::~DataStream
; Function compile flags: /Odtp
;	COMDAT ?size@DataStream@Ogre@@UBEIXZ
_TEXT	SEGMENT
_this$ = -4						; size = 4
?size@DataStream@Ogre@@UBEIXZ PROC			; Ogre::DataStream::size, COMDAT
; _this$ = ecx

; 157  : 		virtual size_t size(void) const { return mSize; }

	push	ebp
	mov	ebp, esp
	push	ecx
	mov	DWORD PTR _this$[ebp], ecx
	mov	eax, DWORD PTR _this$[ebp]
	mov	eax, DWORD PTR [eax+32]
	mov	esp, ebp
	pop	ebp
	ret	0
?size@DataStream@Ogre@@UBEIXZ ENDP			; Ogre::DataStream::size
_TEXT	ENDS
PUBLIC	??0DataStream@Ogre@@QAE@ABV01@@Z		; Ogre::DataStream::DataStream
;	COMDAT xdata$x
xdata$x	SEGMENT
__unwindtable$??0DataStream@Ogre@@QAE@ABV01@@Z DD 0ffffffffH
	DD	FLAT:__unwindfunclet$??0DataStream@Ogre@@QAE@ABV01@@Z$0
__ehfuncinfo$??0DataStream@Ogre@@QAE@ABV01@@Z DD 019930522H
	DD	01H
	DD	FLAT:__unwindtable$??0DataStream@Ogre@@QAE@ABV01@@Z
	DD	2 DUP(00H)
	DD	2 DUP(00H)
	DD	00H
	DD	00H
; Function compile flags: /Odtp
xdata$x	ENDS
;	COMDAT ??0DataStream@Ogre@@QAE@ABV01@@Z
_TEXT	SEGMENT
_this$ = -16						; size = 4
__$EHRec$ = -12						; size = 12
___that$ = 8						; size = 4
??0DataStream@Ogre@@QAE@ABV01@@Z PROC			; Ogre::DataStream::DataStream, COMDAT
; _this$ = ecx
	push	ebp
	mov	ebp, esp
	push	-1
	push	__ehhandler$??0DataStream@Ogre@@QAE@ABV01@@Z
	mov	eax, DWORD PTR fs:0
	push	eax
	push	ecx
	mov	eax, DWORD PTR ___security_cookie
	xor	eax, ebp
	push	eax
	lea	eax, DWORD PTR __$EHRec$[ebp]
	mov	DWORD PTR fs:0, eax
	mov	DWORD PTR _this$[ebp], ecx
	mov	eax, DWORD PTR _this$[ebp]
	mov	DWORD PTR [eax], OFFSET ??_7DataStream@Ogre@@6B@
	mov	ecx, DWORD PTR ___that$[ebp]
	add	ecx, 4
	push	ecx
	mov	ecx, DWORD PTR _this$[ebp]
	add	ecx, 4
	call	DWORD PTR __imp_??0?$basic_string@DU?$char_traits@D@std@@V?$allocator@D@2@@std@@QAE@ABV01@@Z
	mov	DWORD PTR __$EHRec$[ebp+8], 0
	mov	edx, DWORD PTR _this$[ebp]
	mov	eax, DWORD PTR ___that$[ebp]
	mov	ecx, DWORD PTR [eax+32]
	mov	DWORD PTR [edx+32], ecx
	mov	DWORD PTR __$EHRec$[ebp+8], -1
	mov	eax, DWORD PTR _this$[ebp]
	mov	ecx, DWORD PTR __$EHRec$[ebp]
	mov	DWORD PTR fs:0, ecx
	pop	ecx
	mov	esp, ebp
	pop	ebp
	ret	4
_TEXT	ENDS
;	COMDAT text$x
text$x	SEGMENT
__unwindfunclet$??0DataStream@Ogre@@QAE@ABV01@@Z$0:
	mov	ecx, DWORD PTR _this$[ebp]
	add	ecx, 4
	jmp	DWORD PTR __imp_??1?$basic_string@DU?$char_traits@D@std@@V?$allocator@D@2@@std@@QAE@XZ
__ehhandler$??0DataStream@Ogre@@QAE@ABV01@@Z:
	mov	edx, DWORD PTR [esp+8]
	lea	eax, DWORD PTR [edx+12]
	mov	ecx, DWORD PTR [edx-8]
	xor	ecx, eax
	call	@__security_check_cookie@4
	mov	eax, OFFSET __ehfuncinfo$??0DataStream@Ogre@@QAE@ABV01@@Z
	jmp	___CxxFrameHandler3
text$x	ENDS
??0DataStream@Ogre@@QAE@ABV01@@Z ENDP			; Ogre::DataStream::DataStream
PUBLIC	??4DataStream@Ogre@@QAEAAV01@ABV01@@Z		; Ogre::DataStream::operator=
EXTRN	__imp_??4?$basic_string@DU?$char_traits@D@std@@V?$allocator@D@2@@std@@QAEAAV01@ABV01@@Z:PROC
; Function compile flags: /Odtp
;	COMDAT ??4DataStream@Ogre@@QAEAAV01@ABV01@@Z
_TEXT	SEGMENT
_this$ = -4						; size = 4
___that$ = 8						; size = 4
??4DataStream@Ogre@@QAEAAV01@ABV01@@Z PROC		; Ogre::DataStream::operator=, COMDAT
; _this$ = ecx
	push	ebp
	mov	ebp, esp
	push	ecx
	mov	DWORD PTR _this$[ebp], ecx
	mov	eax, DWORD PTR ___that$[ebp]
	add	eax, 4
	push	eax
	mov	ecx, DWORD PTR _this$[ebp]
	add	ecx, 4
	call	DWORD PTR __imp_??4?$basic_string@DU?$char_traits@D@std@@V?$allocator@D@2@@std@@QAEAAV01@ABV01@@Z
	mov	ecx, DWORD PTR _this$[ebp]
	mov	edx, DWORD PTR ___that$[ebp]
	mov	eax, DWORD PTR [edx+32]
	mov	DWORD PTR [ecx+32], eax
	mov	eax, DWORD PTR _this$[ebp]
	mov	esp, ebp
	pop	ebp
	ret	4
??4DataStream@Ogre@@QAEAAV01@ABV01@@Z ENDP		; Ogre::DataStream::operator=
_TEXT	ENDS
PUBLIC	??_GDataStream@Ogre@@UAEPAXI@Z			; Ogre::DataStream::`scalar deleting destructor'
EXTRN	??3@YAXPAX@Z:PROC				; operator delete
; Function compile flags: /Odtp
;	COMDAT ??_GDataStream@Ogre@@UAEPAXI@Z
_TEXT	SEGMENT
_this$ = -4						; size = 4
___flags$ = 8						; size = 4
??_GDataStream@Ogre@@UAEPAXI@Z PROC			; Ogre::DataStream::`scalar deleting destructor', COMDAT
; _this$ = ecx
	push	ebp
	mov	ebp, esp
	push	ecx
	mov	DWORD PTR _this$[ebp], ecx
	mov	ecx, DWORD PTR _this$[ebp]
	call	??1DataStream@Ogre@@UAE@XZ		; Ogre::DataStream::~DataStream
	mov	eax, DWORD PTR ___flags$[ebp]
	and	eax, 1
	je	SHORT $LN1@scalar@8
	mov	ecx, DWORD PTR _this$[ebp]
	push	ecx
	call	??3@YAXPAX@Z				; operator delete
	add	esp, 4
$LN1@scalar@8:
	mov	eax, DWORD PTR _this$[ebp]
	mov	esp, ebp
	pop	ebp
	ret	4
??_GDataStream@Ogre@@UAEPAXI@Z ENDP			; Ogre::DataStream::`scalar deleting destructor'
_TEXT	ENDS
EXTRN	??_V@YAXPAX@Z:PROC				; operator delete[]
; Function compile flags: /Odtp
;	COMDAT ??_EDataStream@Ogre@@UAEPAXI@Z
_TEXT	SEGMENT
_this$ = -4						; size = 4
___flags$ = 8						; size = 4
??_EDataStream@Ogre@@UAEPAXI@Z PROC			; Ogre::DataStream::`vector deleting destructor', COMDAT
; _this$ = ecx
	push	ebp
	mov	ebp, esp
	push	ecx
	mov	DWORD PTR _this$[ebp], ecx
	mov	eax, DWORD PTR ___flags$[ebp]
	and	eax, 2
	je	SHORT $LN3@vector@8
	push	OFFSET ??1DataStream@Ogre@@UAE@XZ	; Ogre::DataStream::~DataStream
	mov	ecx, DWORD PTR _this$[ebp]
	mov	edx, DWORD PTR [ecx-4]
	push	edx
	push	36					; 00000024H
	mov	eax, DWORD PTR _this$[ebp]
	push	eax
	call	??_M@YGXPAXIHP6EX0@Z@Z
	mov	ecx, DWORD PTR ___flags$[ebp]
	and	ecx, 1
	je	SHORT $LN2@vector@8
	mov	edx, DWORD PTR _this$[ebp]
	sub	edx, 4
	push	edx
	call	??_V@YAXPAX@Z				; operator delete[]
	add	esp, 4
$LN2@vector@8:
	mov	eax, DWORD PTR _this$[ebp]
	sub	eax, 4
	jmp	SHORT $LN4@vector@8
$LN3@vector@8:
	mov	ecx, DWORD PTR _this$[ebp]
	call	??1DataStream@Ogre@@UAE@XZ		; Ogre::DataStream::~DataStream
	mov	eax, DWORD PTR ___flags$[ebp]
	and	eax, 1
	je	SHORT $LN1@vector@8
	mov	ecx, DWORD PTR _this$[ebp]
	push	ecx
	call	??3@YAXPAX@Z				; operator delete
	add	esp, 4
$LN1@vector@8:
	mov	eax, DWORD PTR _this$[ebp]
$LN4@vector@8:
	mov	esp, ebp
	pop	ebp
	ret	4
??_EDataStream@Ogre@@UAEPAXI@Z ENDP			; Ogre::DataStream::`vector deleting destructor'
_TEXT	ENDS
PUBLIC	?getPtr@MemoryDataStream@Ogre@@QAEPAEXZ		; Ogre::MemoryDataStream::getPtr
; Function compile flags: /Odtp
;	COMDAT ?getPtr@MemoryDataStream@Ogre@@QAEPAEXZ
_TEXT	SEGMENT
_this$ = -4						; size = 4
?getPtr@MemoryDataStream@Ogre@@QAEPAEXZ PROC		; Ogre::MemoryDataStream::getPtr, COMDAT
; _this$ = ecx

; 267  : 		uchar* getPtr(void) { return mData; }

	push	ebp
	mov	ebp, esp
	push	ecx
	mov	DWORD PTR _this$[ebp], ecx
	mov	eax, DWORD PTR _this$[ebp]
	mov	eax, DWORD PTR [eax+36]
	mov	esp, ebp
	pop	ebp
	ret	0
?getPtr@MemoryDataStream@Ogre@@QAEPAEXZ ENDP		; Ogre::MemoryDataStream::getPtr
_TEXT	ENDS
PUBLIC	?getCurrentPtr@MemoryDataStream@Ogre@@QAEPAEXZ	; Ogre::MemoryDataStream::getCurrentPtr
; Function compile flags: /Odtp
;	COMDAT ?getCurrentPtr@MemoryDataStream@Ogre@@QAEPAEXZ
_TEXT	SEGMENT
_this$ = -4						; size = 4
?getCurrentPtr@MemoryDataStream@Ogre@@QAEPAEXZ PROC	; Ogre::MemoryDataStream::getCurrentPtr, COMDAT
; _this$ = ecx

; 270  : 		uchar* getCurrentPtr(void) { return mPos; }

	push	ebp
	mov	ebp, esp
	push	ecx
	mov	DWORD PTR _this$[ebp], ecx
	mov	eax, DWORD PTR _this$[ebp]
	mov	eax, DWORD PTR [eax+40]
	mov	esp, ebp
	pop	ebp
	ret	0
?getCurrentPtr@MemoryDataStream@Ogre@@QAEPAEXZ ENDP	; Ogre::MemoryDataStream::getCurrentPtr
_TEXT	ENDS
PUBLIC	?getMemoryImage@MemoryDataStream@Ogre@@UAEPAXXZ	; Ogre::MemoryDataStream::getMemoryImage
; Function compile flags: /Odtp
;	COMDAT ?getMemoryImage@MemoryDataStream@Ogre@@UAEPAXXZ
_TEXT	SEGMENT
_this$ = -4						; size = 4
?getMemoryImage@MemoryDataStream@Ogre@@UAEPAXXZ PROC	; Ogre::MemoryDataStream::getMemoryImage, COMDAT
; _this$ = ecx

; 307  : 		{

	push	ebp
	mov	ebp, esp
	push	ecx
	mov	DWORD PTR _this$[ebp], ecx

; 308  : 			return mData;

	mov	eax, DWORD PTR _this$[ebp]
	mov	eax, DWORD PTR [eax+36]

; 309  : 		}

	mov	esp, ebp
	pop	ebp
	ret	0
?getMemoryImage@MemoryDataStream@Ogre@@UAEPAXXZ ENDP	; Ogre::MemoryDataStream::getMemoryImage
_TEXT	ENDS
PUBLIC	?setFreeOnClose@MemoryDataStream@Ogre@@QAEXP6AXPAX@Z@Z ; Ogre::MemoryDataStream::setFreeOnClose
; Function compile flags: /Odtp
;	COMDAT ?setFreeOnClose@MemoryDataStream@Ogre@@QAEXP6AXPAX@Z@Z
_TEXT	SEGMENT
_this$ = -4						; size = 4
_freeOnClose$ = 8					; size = 4
?setFreeOnClose@MemoryDataStream@Ogre@@QAEXP6AXPAX@Z@Z PROC ; Ogre::MemoryDataStream::setFreeOnClose, COMDAT
; _this$ = ecx

; 313  : 		void setFreeOnClose(void (*freeOnClose)(void *)) { mFreeOnClose = freeOnClose; }

	push	ebp
	mov	ebp, esp
	push	ecx
	mov	DWORD PTR _this$[ebp], ecx
	mov	eax, DWORD PTR _this$[ebp]
	mov	ecx, DWORD PTR _freeOnClose$[ebp]
	mov	DWORD PTR [eax+48], ecx
	mov	esp, ebp
	pop	ebp
	ret	4
?setFreeOnClose@MemoryDataStream@Ogre@@QAEXP6AXPAX@Z@Z ENDP ; Ogre::MemoryDataStream::setFreeOnClose
_TEXT	ENDS
PUBLIC	??_7MemoryDataStream@Ogre@@6B@			; Ogre::MemoryDataStream::`vftable'
PUBLIC	??0MemoryDataStream@Ogre@@QAE@ABV01@@Z		; Ogre::MemoryDataStream::MemoryDataStream
PUBLIC	??_R4MemoryDataStream@Ogre@@6B@			; Ogre::MemoryDataStream::`RTTI Complete Object Locator'
PUBLIC	??_R0?AVMemoryDataStream@Ogre@@@8		; Ogre::MemoryDataStream `RTTI Type Descriptor'
PUBLIC	??_R3MemoryDataStream@Ogre@@8			; Ogre::MemoryDataStream::`RTTI Class Hierarchy Descriptor'
PUBLIC	??_R2MemoryDataStream@Ogre@@8			; Ogre::MemoryDataStream::`RTTI Base Class Array'
PUBLIC	??_R1A@?0A@EA@MemoryDataStream@Ogre@@8		; Ogre::MemoryDataStream::`RTTI Base Class Descriptor at (0,-1,0,64)'
PUBLIC	??_EMemoryDataStream@Ogre@@UAEPAXI@Z		; Ogre::MemoryDataStream::`vector deleting destructor'
EXTRN	?read@MemoryDataStream@Ogre@@UAEIPAXI@Z:PROC	; Ogre::MemoryDataStream::read
EXTRN	?write@MemoryDataStream@Ogre@@UAEIPBXI@Z:PROC	; Ogre::MemoryDataStream::write
EXTRN	?readLine@MemoryDataStream@Ogre@@UAEIPADIABV?$basic_string@DU?$char_traits@D@std@@V?$allocator@D@2@@std@@@Z:PROC ; Ogre::MemoryDataStream::readLine
EXTRN	?skipLine@MemoryDataStream@Ogre@@UAEIABV?$basic_string@DU?$char_traits@D@std@@V?$allocator@D@2@@std@@@Z:PROC ; Ogre::MemoryDataStream::skipLine
EXTRN	?skip@MemoryDataStream@Ogre@@UAEXJ@Z:PROC	; Ogre::MemoryDataStream::skip
EXTRN	?seek@MemoryDataStream@Ogre@@UAEXI@Z:PROC	; Ogre::MemoryDataStream::seek
EXTRN	?tell@MemoryDataStream@Ogre@@UBEIXZ:PROC	; Ogre::MemoryDataStream::tell
EXTRN	?eof@MemoryDataStream@Ogre@@UBE_NXZ:PROC	; Ogre::MemoryDataStream::eof
EXTRN	?close@MemoryDataStream@Ogre@@UAEXXZ:PROC	; Ogre::MemoryDataStream::close
;	COMDAT ??_R1A@?0A@EA@MemoryDataStream@Ogre@@8
rdata$r	SEGMENT
??_R1A@?0A@EA@MemoryDataStream@Ogre@@8 DD FLAT:??_R0?AVMemoryDataStream@Ogre@@@8 ; Ogre::MemoryDataStream::`RTTI Base Class Descriptor at (0,-1,0,64)'
	DD	01H
	DD	00H
	DD	0ffffffffH
	DD	00H
	DD	040H
	DD	FLAT:??_R3MemoryDataStream@Ogre@@8
rdata$r	ENDS
;	COMDAT ??_R2MemoryDataStream@Ogre@@8
rdata$r	SEGMENT
??_R2MemoryDataStream@Ogre@@8 DD FLAT:??_R1A@?0A@EA@MemoryDataStream@Ogre@@8 ; Ogre::MemoryDataStream::`RTTI Base Class Array'
	DD	FLAT:??_R1A@?0A@EA@DataStream@Ogre@@8
rdata$r	ENDS
;	COMDAT ??_R3MemoryDataStream@Ogre@@8
rdata$r	SEGMENT
??_R3MemoryDataStream@Ogre@@8 DD 00H			; Ogre::MemoryDataStream::`RTTI Class Hierarchy Descriptor'
	DD	00H
	DD	02H
	DD	FLAT:??_R2MemoryDataStream@Ogre@@8
rdata$r	ENDS
;	COMDAT ??_R0?AVMemoryDataStream@Ogre@@@8
_DATA	SEGMENT
??_R0?AVMemoryDataStream@Ogre@@@8 DD FLAT:??_7type_info@@6B@ ; Ogre::MemoryDataStream `RTTI Type Descriptor'
	DD	00H
	DB	'.?AVMemoryDataStream@Ogre@@', 00H
_DATA	ENDS
;	COMDAT ??_R4MemoryDataStream@Ogre@@6B@
rdata$r	SEGMENT
??_R4MemoryDataStream@Ogre@@6B@ DD 00H			; Ogre::MemoryDataStream::`RTTI Complete Object Locator'
	DD	00H
	DD	00H
	DD	FLAT:??_R0?AVMemoryDataStream@Ogre@@@8
	DD	FLAT:??_R3MemoryDataStream@Ogre@@8
rdata$r	ENDS
;	COMDAT ??_7MemoryDataStream@Ogre@@6B@
CONST	SEGMENT
??_7MemoryDataStream@Ogre@@6B@ DD FLAT:??_R4MemoryDataStream@Ogre@@6B@ ; Ogre::MemoryDataStream::`vftable'
	DD	FLAT:??_EMemoryDataStream@Ogre@@UAEPAXI@Z
	DD	FLAT:?read@MemoryDataStream@Ogre@@UAEIPAXI@Z
	DD	FLAT:?write@MemoryDataStream@Ogre@@UAEIPBXI@Z
	DD	FLAT:?readLine@MemoryDataStream@Ogre@@UAEIPADIABV?$basic_string@DU?$char_traits@D@std@@V?$allocator@D@2@@std@@@Z
	DD	FLAT:?getLine@DataStream@Ogre@@UAE?AV?$basic_string@DU?$char_traits@D@std@@V?$allocator@D@2@@std@@_N@Z
	DD	FLAT:?getAsString@DataStream@Ogre@@UAE?AV?$basic_string@DU?$char_traits@D@std@@V?$allocator@D@2@@std@@XZ
	DD	FLAT:?skipLine@MemoryDataStream@Ogre@@UAEIABV?$basic_string@DU?$char_traits@D@std@@V?$allocator@D@2@@std@@@Z
	DD	FLAT:?skip@MemoryDataStream@Ogre@@UAEXJ@Z
	DD	FLAT:?seek@MemoryDataStream@Ogre@@UAEXI@Z
	DD	FLAT:?tell@MemoryDataStream@Ogre@@UBEIXZ
	DD	FLAT:?eof@MemoryDataStream@Ogre@@UBE_NXZ
	DD	FLAT:?size@DataStream@Ogre@@UBEIXZ
	DD	FLAT:?close@MemoryDataStream@Ogre@@UAEXXZ
	DD	FLAT:?getMemoryImage@MemoryDataStream@Ogre@@UAEPAXXZ
CONST	ENDS
;	COMDAT xdata$x
xdata$x	SEGMENT
__unwindtable$??0MemoryDataStream@Ogre@@QAE@ABV01@@Z DD 0ffffffffH
	DD	FLAT:__unwindfunclet$??0MemoryDataStream@Ogre@@QAE@ABV01@@Z$0
__ehfuncinfo$??0MemoryDataStream@Ogre@@QAE@ABV01@@Z DD 019930522H
	DD	01H
	DD	FLAT:__unwindtable$??0MemoryDataStream@Ogre@@QAE@ABV01@@Z
	DD	2 DUP(00H)
	DD	2 DUP(00H)
	DD	00H
	DD	00H
; Function compile flags: /Odtp
xdata$x	ENDS
;	COMDAT ??0MemoryDataStream@Ogre@@QAE@ABV01@@Z
_TEXT	SEGMENT
_this$ = -16						; size = 4
__$EHRec$ = -12						; size = 12
___that$ = 8						; size = 4
??0MemoryDataStream@Ogre@@QAE@ABV01@@Z PROC		; Ogre::MemoryDataStream::MemoryDataStream, COMDAT
; _this$ = ecx
	push	ebp
	mov	ebp, esp
	push	-1
	push	__ehhandler$??0MemoryDataStream@Ogre@@QAE@ABV01@@Z
	mov	eax, DWORD PTR fs:0
	push	eax
	push	ecx
	mov	eax, DWORD PTR ___security_cookie
	xor	eax, ebp
	push	eax
	lea	eax, DWORD PTR __$EHRec$[ebp]
	mov	DWORD PTR fs:0, eax
	mov	DWORD PTR _this$[ebp], ecx
	mov	eax, DWORD PTR ___that$[ebp]
	push	eax
	mov	ecx, DWORD PTR _this$[ebp]
	call	??0DataStream@Ogre@@QAE@ABV01@@Z
	mov	DWORD PTR __$EHRec$[ebp+8], 0
	mov	ecx, DWORD PTR _this$[ebp]
	mov	DWORD PTR [ecx], OFFSET ??_7MemoryDataStream@Ogre@@6B@
	mov	edx, DWORD PTR _this$[ebp]
	mov	eax, DWORD PTR ___that$[ebp]
	mov	ecx, DWORD PTR [eax+36]
	mov	DWORD PTR [edx+36], ecx
	mov	edx, DWORD PTR _this$[ebp]
	mov	eax, DWORD PTR ___that$[ebp]
	mov	ecx, DWORD PTR [eax+40]
	mov	DWORD PTR [edx+40], ecx
	mov	edx, DWORD PTR _this$[ebp]
	mov	eax, DWORD PTR ___that$[ebp]
	mov	ecx, DWORD PTR [eax+44]
	mov	DWORD PTR [edx+44], ecx
	mov	edx, DWORD PTR _this$[ebp]
	mov	eax, DWORD PTR ___that$[ebp]
	mov	ecx, DWORD PTR [eax+48]
	mov	DWORD PTR [edx+48], ecx
	mov	DWORD PTR __$EHRec$[ebp+8], -1
	mov	eax, DWORD PTR _this$[ebp]
	mov	ecx, DWORD PTR __$EHRec$[ebp]
	mov	DWORD PTR fs:0, ecx
	pop	ecx
	mov	esp, ebp
	pop	ebp
	ret	4
_TEXT	ENDS
;	COMDAT text$x
text$x	SEGMENT
__unwindfunclet$??0MemoryDataStream@Ogre@@QAE@ABV01@@Z$0:
	mov	ecx, DWORD PTR _this$[ebp]
	jmp	??1DataStream@Ogre@@UAE@XZ		; Ogre::DataStream::~DataStream
__ehhandler$??0MemoryDataStream@Ogre@@QAE@ABV01@@Z:
	mov	edx, DWORD PTR [esp+8]
	lea	eax, DWORD PTR [edx+12]
	mov	ecx, DWORD PTR [edx-8]
	xor	ecx, eax
	call	@__security_check_cookie@4
	mov	eax, OFFSET __ehfuncinfo$??0MemoryDataStream@Ogre@@QAE@ABV01@@Z
	jmp	___CxxFrameHandler3
text$x	ENDS
??0MemoryDataStream@Ogre@@QAE@ABV01@@Z ENDP		; Ogre::MemoryDataStream::MemoryDataStream
PUBLIC	??4MemoryDataStream@Ogre@@QAEAAV01@ABV01@@Z	; Ogre::MemoryDataStream::operator=
; Function compile flags: /Odtp
;	COMDAT ??4MemoryDataStream@Ogre@@QAEAAV01@ABV01@@Z
_TEXT	SEGMENT
_this$ = -4						; size = 4
___that$ = 8						; size = 4
??4MemoryDataStream@Ogre@@QAEAAV01@ABV01@@Z PROC	; Ogre::MemoryDataStream::operator=, COMDAT
; _this$ = ecx
	push	ebp
	mov	ebp, esp
	push	ecx
	mov	DWORD PTR _this$[ebp], ecx
	mov	eax, DWORD PTR ___that$[ebp]
	push	eax
	mov	ecx, DWORD PTR _this$[ebp]
	call	??4DataStream@Ogre@@QAEAAV01@ABV01@@Z
	mov	ecx, DWORD PTR _this$[ebp]
	mov	edx, DWORD PTR ___that$[ebp]
	mov	eax, DWORD PTR [edx+36]
	mov	DWORD PTR [ecx+36], eax
	mov	ecx, DWORD PTR _this$[ebp]
	mov	edx, DWORD PTR ___that$[ebp]
	mov	eax, DWORD PTR [edx+40]
	mov	DWORD PTR [ecx+40], eax
	mov	ecx, DWORD PTR _this$[ebp]
	mov	edx, DWORD PTR ___that$[ebp]
	mov	eax, DWORD PTR [edx+44]
	mov	DWORD PTR [ecx+44], eax
	mov	ecx, DWORD PTR _this$[ebp]
	mov	edx, DWORD PTR ___that$[ebp]
	mov	eax, DWORD PTR [edx+48]
	mov	DWORD PTR [ecx+48], eax
	mov	eax, DWORD PTR _this$[ebp]
	mov	esp, ebp
	pop	ebp
	ret	4
??4MemoryDataStream@Ogre@@QAEAAV01@ABV01@@Z ENDP	; Ogre::MemoryDataStream::operator=
_TEXT	ENDS
PUBLIC	??_GMemoryDataStream@Ogre@@UAEPAXI@Z		; Ogre::MemoryDataStream::`scalar deleting destructor'
EXTRN	??1MemoryDataStream@Ogre@@UAE@XZ:PROC		; Ogre::MemoryDataStream::~MemoryDataStream
; Function compile flags: /Odtp
;	COMDAT ??_GMemoryDataStream@Ogre@@UAEPAXI@Z
_TEXT	SEGMENT
_this$ = -4						; size = 4
___flags$ = 8						; size = 4
??_GMemoryDataStream@Ogre@@UAEPAXI@Z PROC		; Ogre::MemoryDataStream::`scalar deleting destructor', COMDAT
; _this$ = ecx
	push	ebp
	mov	ebp, esp
	push	ecx
	mov	DWORD PTR _this$[ebp], ecx
	mov	ecx, DWORD PTR _this$[ebp]
	call	??1MemoryDataStream@Ogre@@UAE@XZ	; Ogre::MemoryDataStream::~MemoryDataStream
	mov	eax, DWORD PTR ___flags$[ebp]
	and	eax, 1
	je	SHORT $LN1@scalar@9
	mov	ecx, DWORD PTR _this$[ebp]
	push	ecx
	call	??3@YAXPAX@Z				; operator delete
	add	esp, 4
$LN1@scalar@9:
	mov	eax, DWORD PTR _this$[ebp]
	mov	esp, ebp
	pop	ebp
	ret	4
??_GMemoryDataStream@Ogre@@UAEPAXI@Z ENDP		; Ogre::MemoryDataStream::`scalar deleting destructor'
; Function compile flags: /Odtp
_TEXT	ENDS
;	COMDAT ??_EMemoryDataStream@Ogre@@UAEPAXI@Z
_TEXT	SEGMENT
_this$ = -4						; size = 4
___flags$ = 8						; size = 4
??_EMemoryDataStream@Ogre@@UAEPAXI@Z PROC		; Ogre::MemoryDataStream::`vector deleting destructor', COMDAT
; _this$ = ecx
	push	ebp
	mov	ebp, esp
	push	ecx
	mov	DWORD PTR _this$[ebp], ecx
	mov	eax, DWORD PTR ___flags$[ebp]
	and	eax, 2
	je	SHORT $LN3@vector@9
	push	OFFSET ??1MemoryDataStream@Ogre@@UAE@XZ	; Ogre::MemoryDataStream::~MemoryDataStream
	mov	ecx, DWORD PTR _this$[ebp]
	mov	edx, DWORD PTR [ecx-4]
	push	edx
	push	52					; 00000034H
	mov	eax, DWORD PTR _this$[ebp]
	push	eax
	call	??_M@YGXPAXIHP6EX0@Z@Z
	mov	ecx, DWORD PTR ___flags$[ebp]
	and	ecx, 1
	je	SHORT $LN2@vector@9
	mov	edx, DWORD PTR _this$[ebp]
	sub	edx, 4
	push	edx
	call	??_V@YAXPAX@Z				; operator delete[]
	add	esp, 4
$LN2@vector@9:
	mov	eax, DWORD PTR _this$[ebp]
	sub	eax, 4
	jmp	SHORT $LN4@vector@9
$LN3@vector@9:
	mov	ecx, DWORD PTR _this$[ebp]
	call	??1MemoryDataStream@Ogre@@UAE@XZ	; Ogre::MemoryDataStream::~MemoryDataStream
	mov	eax, DWORD PTR ___flags$[ebp]
	and	eax, 1
	je	SHORT $LN1@vector@9
	mov	ecx, DWORD PTR _this$[ebp]
	push	ecx
	call	??3@YAXPAX@Z				; operator delete
	add	esp, 4
$LN1@vector@9:
	mov	eax, DWORD PTR _this$[ebp]
$LN4@vector@9:
	mov	esp, ebp
	pop	ebp
	ret	4
??_EMemoryDataStream@Ogre@@UAEPAXI@Z ENDP		; Ogre::MemoryDataStream::`vector deleting destructor'
_TEXT	ENDS
PUBLIC	??_7FileStreamDataStream@Ogre@@6B@		; Ogre::FileStreamDataStream::`vftable'
PUBLIC	??0FileStreamDataStream@Ogre@@QAE@ABV01@@Z	; Ogre::FileStreamDataStream::FileStreamDataStream
PUBLIC	??_R4FileStreamDataStream@Ogre@@6B@		; Ogre::FileStreamDataStream::`RTTI Complete Object Locator'
PUBLIC	??_R0?AVFileStreamDataStream@Ogre@@@8		; Ogre::FileStreamDataStream `RTTI Type Descriptor'
PUBLIC	??_R3FileStreamDataStream@Ogre@@8		; Ogre::FileStreamDataStream::`RTTI Class Hierarchy Descriptor'
PUBLIC	??_R2FileStreamDataStream@Ogre@@8		; Ogre::FileStreamDataStream::`RTTI Base Class Array'
PUBLIC	??_R1A@?0A@EA@FileStreamDataStream@Ogre@@8	; Ogre::FileStreamDataStream::`RTTI Base Class Descriptor at (0,-1,0,64)'
PUBLIC	??_EFileStreamDataStream@Ogre@@UAEPAXI@Z	; Ogre::FileStreamDataStream::`vector deleting destructor'
EXTRN	?read@FileStreamDataStream@Ogre@@UAEIPAXI@Z:PROC ; Ogre::FileStreamDataStream::read
EXTRN	?write@FileStreamDataStream@Ogre@@UAEIPBXI@Z:PROC ; Ogre::FileStreamDataStream::write
EXTRN	?readLine@FileStreamDataStream@Ogre@@UAEIPADIABV?$basic_string@DU?$char_traits@D@std@@V?$allocator@D@2@@std@@@Z:PROC ; Ogre::FileStreamDataStream::readLine
EXTRN	?skip@FileStreamDataStream@Ogre@@UAEXJ@Z:PROC	; Ogre::FileStreamDataStream::skip
EXTRN	?seek@FileStreamDataStream@Ogre@@UAEXI@Z:PROC	; Ogre::FileStreamDataStream::seek
EXTRN	?tell@FileStreamDataStream@Ogre@@UBEIXZ:PROC	; Ogre::FileStreamDataStream::tell
EXTRN	?eof@FileStreamDataStream@Ogre@@UBE_NXZ:PROC	; Ogre::FileStreamDataStream::eof
EXTRN	?close@FileStreamDataStream@Ogre@@UAEXXZ:PROC	; Ogre::FileStreamDataStream::close
EXTRN	?getMemoryImage@FileStreamDataStream@Ogre@@UAEPAXXZ:PROC ; Ogre::FileStreamDataStream::getMemoryImage
;	COMDAT ??_R1A@?0A@EA@FileStreamDataStream@Ogre@@8
rdata$r	SEGMENT
??_R1A@?0A@EA@FileStreamDataStream@Ogre@@8 DD FLAT:??_R0?AVFileStreamDataStream@Ogre@@@8 ; Ogre::FileStreamDataStream::`RTTI Base Class Descriptor at (0,-1,0,64)'
	DD	01H
	DD	00H
	DD	0ffffffffH
	DD	00H
	DD	040H
	DD	FLAT:??_R3FileStreamDataStream@Ogre@@8
rdata$r	ENDS
;	COMDAT ??_R2FileStreamDataStream@Ogre@@8
rdata$r	SEGMENT
??_R2FileStreamDataStream@Ogre@@8 DD FLAT:??_R1A@?0A@EA@FileStreamDataStream@Ogre@@8 ; Ogre::FileStreamDataStream::`RTTI Base Class Array'
	DD	FLAT:??_R1A@?0A@EA@DataStream@Ogre@@8
rdata$r	ENDS
;	COMDAT ??_R3FileStreamDataStream@Ogre@@8
rdata$r	SEGMENT
??_R3FileStreamDataStream@Ogre@@8 DD 00H		; Ogre::FileStreamDataStream::`RTTI Class Hierarchy Descriptor'
	DD	00H
	DD	02H
	DD	FLAT:??_R2FileStreamDataStream@Ogre@@8
rdata$r	ENDS
;	COMDAT ??_R0?AVFileStreamDataStream@Ogre@@@8
_DATA	SEGMENT
??_R0?AVFileStreamDataStream@Ogre@@@8 DD FLAT:??_7type_info@@6B@ ; Ogre::FileStreamDataStream `RTTI Type Descriptor'
	DD	00H
	DB	'.?AVFileStreamDataStream@Ogre@@', 00H
_DATA	ENDS
;	COMDAT ??_R4FileStreamDataStream@Ogre@@6B@
rdata$r	SEGMENT
??_R4FileStreamDataStream@Ogre@@6B@ DD 00H		; Ogre::FileStreamDataStream::`RTTI Complete Object Locator'
	DD	00H
	DD	00H
	DD	FLAT:??_R0?AVFileStreamDataStream@Ogre@@@8
	DD	FLAT:??_R3FileStreamDataStream@Ogre@@8
rdata$r	ENDS
;	COMDAT ??_7FileStreamDataStream@Ogre@@6B@
CONST	SEGMENT
??_7FileStreamDataStream@Ogre@@6B@ DD FLAT:??_R4FileStreamDataStream@Ogre@@6B@ ; Ogre::FileStreamDataStream::`vftable'
	DD	FLAT:??_EFileStreamDataStream@Ogre@@UAEPAXI@Z
	DD	FLAT:?read@FileStreamDataStream@Ogre@@UAEIPAXI@Z
	DD	FLAT:?write@FileStreamDataStream@Ogre@@UAEIPBXI@Z
	DD	FLAT:?readLine@FileStreamDataStream@Ogre@@UAEIPADIABV?$basic_string@DU?$char_traits@D@std@@V?$allocator@D@2@@std@@@Z
	DD	FLAT:?getLine@DataStream@Ogre@@UAE?AV?$basic_string@DU?$char_traits@D@std@@V?$allocator@D@2@@std@@_N@Z
	DD	FLAT:?getAsString@DataStream@Ogre@@UAE?AV?$basic_string@DU?$char_traits@D@std@@V?$allocator@D@2@@std@@XZ
	DD	FLAT:?skipLine@DataStream@Ogre@@UAEIABV?$basic_string@DU?$char_traits@D@std@@V?$allocator@D@2@@std@@@Z
	DD	FLAT:?skip@FileStreamDataStream@Ogre@@UAEXJ@Z
	DD	FLAT:?seek@FileStreamDataStream@Ogre@@UAEXI@Z
	DD	FLAT:?tell@FileStreamDataStream@Ogre@@UBEIXZ
	DD	FLAT:?eof@FileStreamDataStream@Ogre@@UBE_NXZ
	DD	FLAT:?size@DataStream@Ogre@@UBEIXZ
	DD	FLAT:?close@FileStreamDataStream@Ogre@@UAEXXZ
	DD	FLAT:?getMemoryImage@FileStreamDataStream@Ogre@@UAEPAXXZ
CONST	ENDS
;	COMDAT xdata$x
xdata$x	SEGMENT
__unwindtable$??0FileStreamDataStream@Ogre@@QAE@ABV01@@Z DD 0ffffffffH
	DD	FLAT:__unwindfunclet$??0FileStreamDataStream@Ogre@@QAE@ABV01@@Z$0
__ehfuncinfo$??0FileStreamDataStream@Ogre@@QAE@ABV01@@Z DD 019930522H
	DD	01H
	DD	FLAT:__unwindtable$??0FileStreamDataStream@Ogre@@QAE@ABV01@@Z
	DD	2 DUP(00H)
	DD	2 DUP(00H)
	DD	00H
	DD	00H
; Function compile flags: /Odtp
xdata$x	ENDS
;	COMDAT ??0FileStreamDataStream@Ogre@@QAE@ABV01@@Z
_TEXT	SEGMENT
_this$ = -16						; size = 4
__$EHRec$ = -12						; size = 12
___that$ = 8						; size = 4
??0FileStreamDataStream@Ogre@@QAE@ABV01@@Z PROC		; Ogre::FileStreamDataStream::FileStreamDataStream, COMDAT
; _this$ = ecx
	push	ebp
	mov	ebp, esp
	push	-1
	push	__ehhandler$??0FileStreamDataStream@Ogre@@QAE@ABV01@@Z
	mov	eax, DWORD PTR fs:0
	push	eax
	push	ecx
	mov	eax, DWORD PTR ___security_cookie
	xor	eax, ebp
	push	eax
	lea	eax, DWORD PTR __$EHRec$[ebp]
	mov	DWORD PTR fs:0, eax
	mov	DWORD PTR _this$[ebp], ecx
	mov	eax, DWORD PTR ___that$[ebp]
	push	eax
	mov	ecx, DWORD PTR _this$[ebp]
	call	??0DataStream@Ogre@@QAE@ABV01@@Z
	mov	DWORD PTR __$EHRec$[ebp+8], 0
	mov	ecx, DWORD PTR _this$[ebp]
	mov	DWORD PTR [ecx], OFFSET ??_7FileStreamDataStream@Ogre@@6B@
	mov	edx, DWORD PTR _this$[ebp]
	mov	eax, DWORD PTR ___that$[ebp]
	mov	ecx, DWORD PTR [eax+36]
	mov	DWORD PTR [edx+36], ecx
	mov	edx, DWORD PTR _this$[ebp]
	mov	eax, DWORD PTR ___that$[ebp]
	mov	cl, BYTE PTR [eax+40]
	mov	BYTE PTR [edx+40], cl
	mov	DWORD PTR __$EHRec$[ebp+8], -1
	mov	eax, DWORD PTR _this$[ebp]
	mov	ecx, DWORD PTR __$EHRec$[ebp]
	mov	DWORD PTR fs:0, ecx
	pop	ecx
	mov	esp, ebp
	pop	ebp
	ret	4
_TEXT	ENDS
;	COMDAT text$x
text$x	SEGMENT
__unwindfunclet$??0FileStreamDataStream@Ogre@@QAE@ABV01@@Z$0:
	mov	ecx, DWORD PTR _this$[ebp]
	jmp	??1DataStream@Ogre@@UAE@XZ		; Ogre::DataStream::~DataStream
__ehhandler$??0FileStreamDataStream@Ogre@@QAE@ABV01@@Z:
	mov	edx, DWORD PTR [esp+8]
	lea	eax, DWORD PTR [edx+12]
	mov	ecx, DWORD PTR [edx-8]
	xor	ecx, eax
	call	@__security_check_cookie@4
	mov	eax, OFFSET __ehfuncinfo$??0FileStreamDataStream@Ogre@@QAE@ABV01@@Z
	jmp	___CxxFrameHandler3
text$x	ENDS
??0FileStreamDataStream@Ogre@@QAE@ABV01@@Z ENDP		; Ogre::FileStreamDataStream::FileStreamDataStream
PUBLIC	??4FileStreamDataStream@Ogre@@QAEAAV01@ABV01@@Z	; Ogre::FileStreamDataStream::operator=
; Function compile flags: /Odtp
;	COMDAT ??4FileStreamDataStream@Ogre@@QAEAAV01@ABV01@@Z
_TEXT	SEGMENT
_this$ = -4						; size = 4
___that$ = 8						; size = 4
??4FileStreamDataStream@Ogre@@QAEAAV01@ABV01@@Z PROC	; Ogre::FileStreamDataStream::operator=, COMDAT
; _this$ = ecx
	push	ebp
	mov	ebp, esp
	push	ecx
	mov	DWORD PTR _this$[ebp], ecx
	mov	eax, DWORD PTR ___that$[ebp]
	push	eax
	mov	ecx, DWORD PTR _this$[ebp]
	call	??4DataStream@Ogre@@QAEAAV01@ABV01@@Z
	mov	ecx, DWORD PTR _this$[ebp]
	mov	edx, DWORD PTR ___that$[ebp]
	mov	eax, DWORD PTR [edx+36]
	mov	DWORD PTR [ecx+36], eax
	mov	ecx, DWORD PTR _this$[ebp]
	mov	edx, DWORD PTR ___that$[ebp]
	mov	al, BYTE PTR [edx+40]
	mov	BYTE PTR [ecx+40], al
	mov	eax, DWORD PTR _this$[ebp]
	mov	esp, ebp
	pop	ebp
	ret	4
??4FileStreamDataStream@Ogre@@QAEAAV01@ABV01@@Z ENDP	; Ogre::FileStreamDataStream::operator=
_TEXT	ENDS
PUBLIC	??_GFileStreamDataStream@Ogre@@UAEPAXI@Z	; Ogre::FileStreamDataStream::`scalar deleting destructor'
EXTRN	??1FileStreamDataStream@Ogre@@UAE@XZ:PROC	; Ogre::FileStreamDataStream::~FileStreamDataStream
; Function compile flags: /Odtp
;	COMDAT ??_GFileStreamDataStream@Ogre@@UAEPAXI@Z
_TEXT	SEGMENT
_this$ = -4						; size = 4
___flags$ = 8						; size = 4
??_GFileStreamDataStream@Ogre@@UAEPAXI@Z PROC		; Ogre::FileStreamDataStream::`scalar deleting destructor', COMDAT
; _this$ = ecx
	push	ebp
	mov	ebp, esp
	push	ecx
	mov	DWORD PTR _this$[ebp], ecx
	mov	ecx, DWORD PTR _this$[ebp]
	call	??1FileStreamDataStream@Ogre@@UAE@XZ	; Ogre::FileStreamDataStream::~FileStreamDataStream
	mov	eax, DWORD PTR ___flags$[ebp]
	and	eax, 1
	je	SHORT $LN1@scalar@10
	mov	ecx, DWORD PTR _this$[ebp]
	push	ecx
	call	??3@YAXPAX@Z				; operator delete
	add	esp, 4
$LN1@scalar@10:
	mov	eax, DWORD PTR _this$[ebp]
	mov	esp, ebp
	pop	ebp
	ret	4
??_GFileStreamDataStream@Ogre@@UAEPAXI@Z ENDP		; Ogre::FileStreamDataStream::`scalar deleting destructor'
; Function compile flags: /Odtp
_TEXT	ENDS
;	COMDAT ??_EFileStreamDataStream@Ogre@@UAEPAXI@Z
_TEXT	SEGMENT
_this$ = -4						; size = 4
___flags$ = 8						; size = 4
??_EFileStreamDataStream@Ogre@@UAEPAXI@Z PROC		; Ogre::FileStreamDataStream::`vector deleting destructor', COMDAT
; _this$ = ecx
	push	ebp
	mov	ebp, esp
	push	ecx
	mov	DWORD PTR _this$[ebp], ecx
	mov	eax, DWORD PTR ___flags$[ebp]
	and	eax, 2
	je	SHORT $LN3@vector@10
	push	OFFSET ??1FileStreamDataStream@Ogre@@UAE@XZ ; Ogre::FileStreamDataStream::~FileStreamDataStream
	mov	ecx, DWORD PTR _this$[ebp]
	mov	edx, DWORD PTR [ecx-4]
	push	edx
	push	44					; 0000002cH
	mov	eax, DWORD PTR _this$[ebp]
	push	eax
	call	??_M@YGXPAXIHP6EX0@Z@Z
	mov	ecx, DWORD PTR ___flags$[ebp]
	and	ecx, 1
	je	SHORT $LN2@vector@10
	mov	edx, DWORD PTR _this$[ebp]
	sub	edx, 4
	push	edx
	call	??_V@YAXPAX@Z				; operator delete[]
	add	esp, 4
$LN2@vector@10:
	mov	eax, DWORD PTR _this$[ebp]
	sub	eax, 4
	jmp	SHORT $LN4@vector@10
$LN3@vector@10:
	mov	ecx, DWORD PTR _this$[ebp]
	call	??1FileStreamDataStream@Ogre@@UAE@XZ	; Ogre::FileStreamDataStream::~FileStreamDataStream
	mov	eax, DWORD PTR ___flags$[ebp]
	and	eax, 1
	je	SHORT $LN1@vector@10
	mov	ecx, DWORD PTR _this$[ebp]
	push	ecx
	call	??3@YAXPAX@Z				; operator delete
	add	esp, 4
$LN1@vector@10:
	mov	eax, DWORD PTR _this$[ebp]
$LN4@vector@10:
	mov	esp, ebp
	pop	ebp
	ret	4
??_EFileStreamDataStream@Ogre@@UAEPAXI@Z ENDP		; Ogre::FileStreamDataStream::`vector deleting destructor'
_TEXT	ENDS
PUBLIC	??_7FileHandleDataStream@Ogre@@6B@		; Ogre::FileHandleDataStream::`vftable'
PUBLIC	??0FileHandleDataStream@Ogre@@QAE@ABV01@@Z	; Ogre::FileHandleDataStream::FileHandleDataStream
PUBLIC	??_R4FileHandleDataStream@Ogre@@6B@		; Ogre::FileHandleDataStream::`RTTI Complete Object Locator'
PUBLIC	??_R0?AVFileHandleDataStream@Ogre@@@8		; Ogre::FileHandleDataStream `RTTI Type Descriptor'
PUBLIC	??_R3FileHandleDataStream@Ogre@@8		; Ogre::FileHandleDataStream::`RTTI Class Hierarchy Descriptor'
PUBLIC	??_R2FileHandleDataStream@Ogre@@8		; Ogre::FileHandleDataStream::`RTTI Base Class Array'
PUBLIC	??_R1A@?0A@EA@FileHandleDataStream@Ogre@@8	; Ogre::FileHandleDataStream::`RTTI Base Class Descriptor at (0,-1,0,64)'
PUBLIC	??_EFileHandleDataStream@Ogre@@UAEPAXI@Z	; Ogre::FileHandleDataStream::`vector deleting destructor'
EXTRN	?read@FileHandleDataStream@Ogre@@UAEIPAXI@Z:PROC ; Ogre::FileHandleDataStream::read
EXTRN	?write@FileHandleDataStream@Ogre@@UAEIPBXI@Z:PROC ; Ogre::FileHandleDataStream::write
EXTRN	?skip@FileHandleDataStream@Ogre@@UAEXJ@Z:PROC	; Ogre::FileHandleDataStream::skip
EXTRN	?seek@FileHandleDataStream@Ogre@@UAEXI@Z:PROC	; Ogre::FileHandleDataStream::seek
EXTRN	?tell@FileHandleDataStream@Ogre@@UBEIXZ:PROC	; Ogre::FileHandleDataStream::tell
EXTRN	?eof@FileHandleDataStream@Ogre@@UBE_NXZ:PROC	; Ogre::FileHandleDataStream::eof
EXTRN	?close@FileHandleDataStream@Ogre@@UAEXXZ:PROC	; Ogre::FileHandleDataStream::close
EXTRN	?getMemoryImage@FileHandleDataStream@Ogre@@UAEPAXXZ:PROC ; Ogre::FileHandleDataStream::getMemoryImage
;	COMDAT ??_R1A@?0A@EA@FileHandleDataStream@Ogre@@8
rdata$r	SEGMENT
??_R1A@?0A@EA@FileHandleDataStream@Ogre@@8 DD FLAT:??_R0?AVFileHandleDataStream@Ogre@@@8 ; Ogre::FileHandleDataStream::`RTTI Base Class Descriptor at (0,-1,0,64)'
	DD	01H
	DD	00H
	DD	0ffffffffH
	DD	00H
	DD	040H
	DD	FLAT:??_R3FileHandleDataStream@Ogre@@8
rdata$r	ENDS
;	COMDAT ??_R2FileHandleDataStream@Ogre@@8
rdata$r	SEGMENT
??_R2FileHandleDataStream@Ogre@@8 DD FLAT:??_R1A@?0A@EA@FileHandleDataStream@Ogre@@8 ; Ogre::FileHandleDataStream::`RTTI Base Class Array'
	DD	FLAT:??_R1A@?0A@EA@DataStream@Ogre@@8
rdata$r	ENDS
;	COMDAT ??_R3FileHandleDataStream@Ogre@@8
rdata$r	SEGMENT
??_R3FileHandleDataStream@Ogre@@8 DD 00H		; Ogre::FileHandleDataStream::`RTTI Class Hierarchy Descriptor'
	DD	00H
	DD	02H
	DD	FLAT:??_R2FileHandleDataStream@Ogre@@8
rdata$r	ENDS
;	COMDAT ??_R0?AVFileHandleDataStream@Ogre@@@8
_DATA	SEGMENT
??_R0?AVFileHandleDataStream@Ogre@@@8 DD FLAT:??_7type_info@@6B@ ; Ogre::FileHandleDataStream `RTTI Type Descriptor'
	DD	00H
	DB	'.?AVFileHandleDataStream@Ogre@@', 00H
_DATA	ENDS
;	COMDAT ??_R4FileHandleDataStream@Ogre@@6B@
rdata$r	SEGMENT
??_R4FileHandleDataStream@Ogre@@6B@ DD 00H		; Ogre::FileHandleDataStream::`RTTI Complete Object Locator'
	DD	00H
	DD	00H
	DD	FLAT:??_R0?AVFileHandleDataStream@Ogre@@@8
	DD	FLAT:??_R3FileHandleDataStream@Ogre@@8
rdata$r	ENDS
;	COMDAT ??_7FileHandleDataStream@Ogre@@6B@
CONST	SEGMENT
??_7FileHandleDataStream@Ogre@@6B@ DD FLAT:??_R4FileHandleDataStream@Ogre@@6B@ ; Ogre::FileHandleDataStream::`vftable'
	DD	FLAT:??_EFileHandleDataStream@Ogre@@UAEPAXI@Z
	DD	FLAT:?read@FileHandleDataStream@Ogre@@UAEIPAXI@Z
	DD	FLAT:?write@FileHandleDataStream@Ogre@@UAEIPBXI@Z
	DD	FLAT:?readLine@DataStream@Ogre@@UAEIPADIABV?$basic_string@DU?$char_traits@D@std@@V?$allocator@D@2@@std@@@Z
	DD	FLAT:?getLine@DataStream@Ogre@@UAE?AV?$basic_string@DU?$char_traits@D@std@@V?$allocator@D@2@@std@@_N@Z
	DD	FLAT:?getAsString@DataStream@Ogre@@UAE?AV?$basic_string@DU?$char_traits@D@std@@V?$allocator@D@2@@std@@XZ
	DD	FLAT:?skipLine@DataStream@Ogre@@UAEIABV?$basic_string@DU?$char_traits@D@std@@V?$allocator@D@2@@std@@@Z
	DD	FLAT:?skip@FileHandleDataStream@Ogre@@UAEXJ@Z
	DD	FLAT:?seek@FileHandleDataStream@Ogre@@UAEXI@Z
	DD	FLAT:?tell@FileHandleDataStream@Ogre@@UBEIXZ
	DD	FLAT:?eof@FileHandleDataStream@Ogre@@UBE_NXZ
	DD	FLAT:?size@DataStream@Ogre@@UBEIXZ
	DD	FLAT:?close@FileHandleDataStream@Ogre@@UAEXXZ
	DD	FLAT:?getMemoryImage@FileHandleDataStream@Ogre@@UAEPAXXZ
CONST	ENDS
;	COMDAT xdata$x
xdata$x	SEGMENT
__unwindtable$??0FileHandleDataStream@Ogre@@QAE@ABV01@@Z DD 0ffffffffH
	DD	FLAT:__unwindfunclet$??0FileHandleDataStream@Ogre@@QAE@ABV01@@Z$0
__ehfuncinfo$??0FileHandleDataStream@Ogre@@QAE@ABV01@@Z DD 019930522H
	DD	01H
	DD	FLAT:__unwindtable$??0FileHandleDataStream@Ogre@@QAE@ABV01@@Z
	DD	2 DUP(00H)
	DD	2 DUP(00H)
	DD	00H
	DD	00H
; Function compile flags: /Odtp
xdata$x	ENDS
;	COMDAT ??0FileHandleDataStream@Ogre@@QAE@ABV01@@Z
_TEXT	SEGMENT
_this$ = -16						; size = 4
__$EHRec$ = -12						; size = 12
___that$ = 8						; size = 4
??0FileHandleDataStream@Ogre@@QAE@ABV01@@Z PROC		; Ogre::FileHandleDataStream::FileHandleDataStream, COMDAT
; _this$ = ecx
	push	ebp
	mov	ebp, esp
	push	-1
	push	__ehhandler$??0FileHandleDataStream@Ogre@@QAE@ABV01@@Z
	mov	eax, DWORD PTR fs:0
	push	eax
	push	ecx
	mov	eax, DWORD PTR ___security_cookie
	xor	eax, ebp
	push	eax
	lea	eax, DWORD PTR __$EHRec$[ebp]
	mov	DWORD PTR fs:0, eax
	mov	DWORD PTR _this$[ebp], ecx
	mov	eax, DWORD PTR ___that$[ebp]
	push	eax
	mov	ecx, DWORD PTR _this$[ebp]
	call	??0DataStream@Ogre@@QAE@ABV01@@Z
	mov	DWORD PTR __$EHRec$[ebp+8], 0
	mov	ecx, DWORD PTR _this$[ebp]
	mov	DWORD PTR [ecx], OFFSET ??_7FileHandleDataStream@Ogre@@6B@
	mov	edx, DWORD PTR _this$[ebp]
	mov	eax, DWORD PTR ___that$[ebp]
	mov	ecx, DWORD PTR [eax+36]
	mov	DWORD PTR [edx+36], ecx
	mov	edx, DWORD PTR _this$[ebp]
	mov	eax, DWORD PTR ___that$[ebp]
	mov	ecx, DWORD PTR [eax+40]
	mov	DWORD PTR [edx+40], ecx
	mov	DWORD PTR __$EHRec$[ebp+8], -1
	mov	eax, DWORD PTR _this$[ebp]
	mov	ecx, DWORD PTR __$EHRec$[ebp]
	mov	DWORD PTR fs:0, ecx
	pop	ecx
	mov	esp, ebp
	pop	ebp
	ret	4
_TEXT	ENDS
;	COMDAT text$x
text$x	SEGMENT
__unwindfunclet$??0FileHandleDataStream@Ogre@@QAE@ABV01@@Z$0:
	mov	ecx, DWORD PTR _this$[ebp]
	jmp	??1DataStream@Ogre@@UAE@XZ		; Ogre::DataStream::~DataStream
__ehhandler$??0FileHandleDataStream@Ogre@@QAE@ABV01@@Z:
	mov	edx, DWORD PTR [esp+8]
	lea	eax, DWORD PTR [edx+12]
	mov	ecx, DWORD PTR [edx-8]
	xor	ecx, eax
	call	@__security_check_cookie@4
	mov	eax, OFFSET __ehfuncinfo$??0FileHandleDataStream@Ogre@@QAE@ABV01@@Z
	jmp	___CxxFrameHandler3
text$x	ENDS
??0FileHandleDataStream@Ogre@@QAE@ABV01@@Z ENDP		; Ogre::FileHandleDataStream::FileHandleDataStream
PUBLIC	??4FileHandleDataStream@Ogre@@QAEAAV01@ABV01@@Z	; Ogre::FileHandleDataStream::operator=
; Function compile flags: /Odtp
;	COMDAT ??4FileHandleDataStream@Ogre@@QAEAAV01@ABV01@@Z
_TEXT	SEGMENT
_this$ = -4						; size = 4
___that$ = 8						; size = 4
??4FileHandleDataStream@Ogre@@QAEAAV01@ABV01@@Z PROC	; Ogre::FileHandleDataStream::operator=, COMDAT
; _this$ = ecx
	push	ebp
	mov	ebp, esp
	push	ecx
	mov	DWORD PTR _this$[ebp], ecx
	mov	eax, DWORD PTR ___that$[ebp]
	push	eax
	mov	ecx, DWORD PTR _this$[ebp]
	call	??4DataStream@Ogre@@QAEAAV01@ABV01@@Z
	mov	ecx, DWORD PTR _this$[ebp]
	mov	edx, DWORD PTR ___that$[ebp]
	mov	eax, DWORD PTR [edx+36]
	mov	DWORD PTR [ecx+36], eax
	mov	ecx, DWORD PTR _this$[ebp]
	mov	edx, DWORD PTR ___that$[ebp]
	mov	eax, DWORD PTR [edx+40]
	mov	DWORD PTR [ecx+40], eax
	mov	eax, DWORD PTR _this$[ebp]
	mov	esp, ebp
	pop	ebp
	ret	4
??4FileHandleDataStream@Ogre@@QAEAAV01@ABV01@@Z ENDP	; Ogre::FileHandleDataStream::operator=
_TEXT	ENDS
PUBLIC	??_GFileHandleDataStream@Ogre@@UAEPAXI@Z	; Ogre::FileHandleDataStream::`scalar deleting destructor'
EXTRN	??1FileHandleDataStream@Ogre@@UAE@XZ:PROC	; Ogre::FileHandleDataStream::~FileHandleDataStream
; Function compile flags: /Odtp
;	COMDAT ??_GFileHandleDataStream@Ogre@@UAEPAXI@Z
_TEXT	SEGMENT
_this$ = -4						; size = 4
___flags$ = 8						; size = 4
??_GFileHandleDataStream@Ogre@@UAEPAXI@Z PROC		; Ogre::FileHandleDataStream::`scalar deleting destructor', COMDAT
; _this$ = ecx
	push	ebp
	mov	ebp, esp
	push	ecx
	mov	DWORD PTR _this$[ebp], ecx
	mov	ecx, DWORD PTR _this$[ebp]
	call	??1FileHandleDataStream@Ogre@@UAE@XZ	; Ogre::FileHandleDataStream::~FileHandleDataStream
	mov	eax, DWORD PTR ___flags$[ebp]
	and	eax, 1
	je	SHORT $LN1@scalar@11
	mov	ecx, DWORD PTR _this$[ebp]
	push	ecx
	call	??3@YAXPAX@Z				; operator delete
	add	esp, 4
$LN1@scalar@11:
	mov	eax, DWORD PTR _this$[ebp]
	mov	esp, ebp
	pop	ebp
	ret	4
??_GFileHandleDataStream@Ogre@@UAEPAXI@Z ENDP		; Ogre::FileHandleDataStream::`scalar deleting destructor'
; Function compile flags: /Odtp
_TEXT	ENDS
;	COMDAT ??_EFileHandleDataStream@Ogre@@UAEPAXI@Z
_TEXT	SEGMENT
_this$ = -4						; size = 4
___flags$ = 8						; size = 4
??_EFileHandleDataStream@Ogre@@UAEPAXI@Z PROC		; Ogre::FileHandleDataStream::`vector deleting destructor', COMDAT
; _this$ = ecx
	push	ebp
	mov	ebp, esp
	push	ecx
	mov	DWORD PTR _this$[ebp], ecx
	mov	eax, DWORD PTR ___flags$[ebp]
	and	eax, 2
	je	SHORT $LN3@vector@11
	push	OFFSET ??1FileHandleDataStream@Ogre@@UAE@XZ ; Ogre::FileHandleDataStream::~FileHandleDataStream
	mov	ecx, DWORD PTR _this$[ebp]
	mov	edx, DWORD PTR [ecx-4]
	push	edx
	push	44					; 0000002cH
	mov	eax, DWORD PTR _this$[ebp]
	push	eax
	call	??_M@YGXPAXIHP6EX0@Z@Z
	mov	ecx, DWORD PTR ___flags$[ebp]
	and	ecx, 1
	je	SHORT $LN2@vector@11
	mov	edx, DWORD PTR _this$[ebp]
	sub	edx, 4
	push	edx
	call	??_V@YAXPAX@Z				; operator delete[]
	add	esp, 4
$LN2@vector@11:
	mov	eax, DWORD PTR _this$[ebp]
	sub	eax, 4
	jmp	SHORT $LN4@vector@11
$LN3@vector@11:
	mov	ecx, DWORD PTR _this$[ebp]
	call	??1FileHandleDataStream@Ogre@@UAE@XZ	; Ogre::FileHandleDataStream::~FileHandleDataStream
	mov	eax, DWORD PTR ___flags$[ebp]
	and	eax, 1
	je	SHORT $LN1@vector@11
	mov	ecx, DWORD PTR _this$[ebp]
	push	ecx
	call	??3@YAXPAX@Z				; operator delete
	add	esp, 4
$LN1@vector@11:
	mov	eax, DWORD PTR _this$[ebp]
$LN4@vector@11:
	mov	esp, ebp
	pop	ebp
	ret	4
??_EFileHandleDataStream@Ogre@@UAEPAXI@Z ENDP		; Ogre::FileHandleDataStream::`vector deleting destructor'
_TEXT	ENDS
PUBLIC	??_7DataStreamObject@Ogre@@6B@			; Ogre::DataStreamObject::`vftable'
PUBLIC	??1DataStreamObject@Ogre@@MAE@XZ		; Ogre::DataStreamObject::~DataStreamObject
PUBLIC	??_R4DataStreamObject@Ogre@@6B@			; Ogre::DataStreamObject::`RTTI Complete Object Locator'
PUBLIC	??_R0?AVDataStreamObject@Ogre@@@8		; Ogre::DataStreamObject `RTTI Type Descriptor'
PUBLIC	??_R3DataStreamObject@Ogre@@8			; Ogre::DataStreamObject::`RTTI Class Hierarchy Descriptor'
PUBLIC	??_R2DataStreamObject@Ogre@@8			; Ogre::DataStreamObject::`RTTI Base Class Array'
PUBLIC	??_R1A@?0A@EA@DataStreamObject@Ogre@@8		; Ogre::DataStreamObject::`RTTI Base Class Descriptor at (0,-1,0,64)'
PUBLIC	??_EDataStreamObject@Ogre@@MAEPAXI@Z		; Ogre::DataStreamObject::`vector deleting destructor'
;	COMDAT ??_R1A@?0A@EA@DataStreamObject@Ogre@@8
rdata$r	SEGMENT
??_R1A@?0A@EA@DataStreamObject@Ogre@@8 DD FLAT:??_R0?AVDataStreamObject@Ogre@@@8 ; Ogre::DataStreamObject::`RTTI Base Class Descriptor at (0,-1,0,64)'
	DD	00H
	DD	00H
	DD	0ffffffffH
	DD	00H
	DD	040H
	DD	FLAT:??_R3DataStreamObject@Ogre@@8
rdata$r	ENDS
;	COMDAT ??_R2DataStreamObject@Ogre@@8
rdata$r	SEGMENT
??_R2DataStreamObject@Ogre@@8 DD FLAT:??_R1A@?0A@EA@DataStreamObject@Ogre@@8 ; Ogre::DataStreamObject::`RTTI Base Class Array'
rdata$r	ENDS
;	COMDAT ??_R3DataStreamObject@Ogre@@8
rdata$r	SEGMENT
??_R3DataStreamObject@Ogre@@8 DD 00H			; Ogre::DataStreamObject::`RTTI Class Hierarchy Descriptor'
	DD	00H
	DD	01H
	DD	FLAT:??_R2DataStreamObject@Ogre@@8
rdata$r	ENDS
;	COMDAT ??_R0?AVDataStreamObject@Ogre@@@8
_DATA	SEGMENT
??_R0?AVDataStreamObject@Ogre@@@8 DD FLAT:??_7type_info@@6B@ ; Ogre::DataStreamObject `RTTI Type Descriptor'
	DD	00H
	DB	'.?AVDataStreamObject@Ogre@@', 00H
_DATA	ENDS
;	COMDAT ??_R4DataStreamObject@Ogre@@6B@
rdata$r	SEGMENT
??_R4DataStreamObject@Ogre@@6B@ DD 00H			; Ogre::DataStreamObject::`RTTI Complete Object Locator'
	DD	00H
	DD	00H
	DD	FLAT:??_R0?AVDataStreamObject@Ogre@@@8
	DD	FLAT:??_R3DataStreamObject@Ogre@@8
rdata$r	ENDS
;	COMDAT ??_7DataStreamObject@Ogre@@6B@
CONST	SEGMENT
??_7DataStreamObject@Ogre@@6B@ DD FLAT:??_R4DataStreamObject@Ogre@@6B@ ; Ogre::DataStreamObject::`vftable'
	DD	FLAT:??_EDataStreamObject@Ogre@@MAEPAXI@Z
	DD	FLAT:__purecall
	DD	FLAT:__purecall
	DD	FLAT:__purecall
	DD	FLAT:__purecall
	DD	FLAT:__purecall
	DD	FLAT:__purecall
; Function compile flags: /Odtp
CONST	ENDS
;	COMDAT ??1DataStreamObject@Ogre@@MAE@XZ
_TEXT	SEGMENT
_this$ = -4						; size = 4
??1DataStreamObject@Ogre@@MAE@XZ PROC			; Ogre::DataStreamObject::~DataStreamObject, COMDAT
; _this$ = ecx

; 445  : 		virtual ~DataStreamObject(){}

	push	ebp
	mov	ebp, esp
	push	ecx
	mov	DWORD PTR _this$[ebp], ecx
	mov	eax, DWORD PTR _this$[ebp]
	mov	DWORD PTR [eax], OFFSET ??_7DataStreamObject@Ogre@@6B@
	mov	esp, ebp
	pop	ebp
	ret	0
??1DataStreamObject@Ogre@@MAE@XZ ENDP			; Ogre::DataStreamObject::~DataStreamObject
_TEXT	ENDS
PUBLIC	??0DataStreamObject@Ogre@@QAE@XZ		; Ogre::DataStreamObject::DataStreamObject
; Function compile flags: /Odtp
;	COMDAT ??0DataStreamObject@Ogre@@QAE@XZ
_TEXT	SEGMENT
_this$ = -4						; size = 4
??0DataStreamObject@Ogre@@QAE@XZ PROC			; Ogre::DataStreamObject::DataStreamObject, COMDAT
; _this$ = ecx
	push	ebp
	mov	ebp, esp
	push	ecx
	mov	DWORD PTR _this$[ebp], ecx
	mov	eax, DWORD PTR _this$[ebp]
	mov	DWORD PTR [eax], OFFSET ??_7DataStreamObject@Ogre@@6B@
	mov	eax, DWORD PTR _this$[ebp]
	mov	esp, ebp
	pop	ebp
	ret	0
??0DataStreamObject@Ogre@@QAE@XZ ENDP			; Ogre::DataStreamObject::DataStreamObject
_TEXT	ENDS
PUBLIC	??0DataStreamObject@Ogre@@QAE@ABV01@@Z		; Ogre::DataStreamObject::DataStreamObject
; Function compile flags: /Odtp
;	COMDAT ??0DataStreamObject@Ogre@@QAE@ABV01@@Z
_TEXT	SEGMENT
_this$ = -4						; size = 4
___that$ = 8						; size = 4
??0DataStreamObject@Ogre@@QAE@ABV01@@Z PROC		; Ogre::DataStreamObject::DataStreamObject, COMDAT
; _this$ = ecx
	push	ebp
	mov	ebp, esp
	push	ecx
	mov	DWORD PTR _this$[ebp], ecx
	mov	eax, DWORD PTR _this$[ebp]
	mov	DWORD PTR [eax], OFFSET ??_7DataStreamObject@Ogre@@6B@
	mov	eax, DWORD PTR _this$[ebp]
	mov	esp, ebp
	pop	ebp
	ret	4
??0DataStreamObject@Ogre@@QAE@ABV01@@Z ENDP		; Ogre::DataStreamObject::DataStreamObject
_TEXT	ENDS
PUBLIC	??4DataStreamObject@Ogre@@QAEAAV01@ABV01@@Z	; Ogre::DataStreamObject::operator=
; Function compile flags: /Odtp
;	COMDAT ??4DataStreamObject@Ogre@@QAEAAV01@ABV01@@Z
_TEXT	SEGMENT
_this$ = -4						; size = 4
___that$ = 8						; size = 4
??4DataStreamObject@Ogre@@QAEAAV01@ABV01@@Z PROC	; Ogre::DataStreamObject::operator=, COMDAT
; _this$ = ecx
	push	ebp
	mov	ebp, esp
	push	ecx
	mov	DWORD PTR _this$[ebp], ecx
	mov	eax, DWORD PTR _this$[ebp]
	mov	esp, ebp
	pop	ebp
	ret	4
??4DataStreamObject@Ogre@@QAEAAV01@ABV01@@Z ENDP	; Ogre::DataStreamObject::operator=
_TEXT	ENDS
PUBLIC	??_GDataStreamObject@Ogre@@MAEPAXI@Z		; Ogre::DataStreamObject::`scalar deleting destructor'
; Function compile flags: /Odtp
;	COMDAT ??_GDataStreamObject@Ogre@@MAEPAXI@Z
_TEXT	SEGMENT
_this$ = -4						; size = 4
___flags$ = 8						; size = 4
??_GDataStreamObject@Ogre@@MAEPAXI@Z PROC		; Ogre::DataStreamObject::`scalar deleting destructor', COMDAT
; _this$ = ecx
	push	ebp
	mov	ebp, esp
	push	ecx
	mov	DWORD PTR _this$[ebp], ecx
	mov	ecx, DWORD PTR _this$[ebp]
	call	??1DataStreamObject@Ogre@@MAE@XZ	; Ogre::DataStreamObject::~DataStreamObject
	mov	eax, DWORD PTR ___flags$[ebp]
	and	eax, 1
	je	SHORT $LN1@scalar@12
	mov	ecx, DWORD PTR _this$[ebp]
	push	ecx
	call	??3@YAXPAX@Z				; operator delete
	add	esp, 4
$LN1@scalar@12:
	mov	eax, DWORD PTR _this$[ebp]
	mov	esp, ebp
	pop	ebp
	ret	4
??_GDataStreamObject@Ogre@@MAEPAXI@Z ENDP		; Ogre::DataStreamObject::`scalar deleting destructor'
; Function compile flags: /Odtp
_TEXT	ENDS
;	COMDAT ??_EDataStreamObject@Ogre@@MAEPAXI@Z
_TEXT	SEGMENT
_this$ = -4						; size = 4
___flags$ = 8						; size = 4
??_EDataStreamObject@Ogre@@MAEPAXI@Z PROC		; Ogre::DataStreamObject::`vector deleting destructor', COMDAT
; _this$ = ecx
	push	ebp
	mov	ebp, esp
	push	ecx
	mov	DWORD PTR _this$[ebp], ecx
	mov	eax, DWORD PTR ___flags$[ebp]
	and	eax, 2
	je	SHORT $LN3@vector@12
	push	OFFSET ??1DataStreamObject@Ogre@@MAE@XZ	; Ogre::DataStreamObject::~DataStreamObject
	mov	ecx, DWORD PTR _this$[ebp]
	mov	edx, DWORD PTR [ecx-4]
	push	edx
	push	4
	mov	eax, DWORD PTR _this$[ebp]
	push	eax
	call	??_M@YGXPAXIHP6EX0@Z@Z
	mov	ecx, DWORD PTR ___flags$[ebp]
	and	ecx, 1
	je	SHORT $LN2@vector@12
	mov	edx, DWORD PTR _this$[ebp]
	sub	edx, 4
	push	edx
	call	??_V@YAXPAX@Z				; operator delete[]
	add	esp, 4
$LN2@vector@12:
	mov	eax, DWORD PTR _this$[ebp]
	sub	eax, 4
	jmp	SHORT $LN4@vector@12
$LN3@vector@12:
	mov	ecx, DWORD PTR _this$[ebp]
	call	??1DataStreamObject@Ogre@@MAE@XZ	; Ogre::DataStreamObject::~DataStreamObject
	mov	eax, DWORD PTR ___flags$[ebp]
	and	eax, 1
	je	SHORT $LN1@vector@12
	mov	ecx, DWORD PTR _this$[ebp]
	push	ecx
	call	??3@YAXPAX@Z				; operator delete
	add	esp, 4
$LN1@vector@12:
	mov	eax, DWORD PTR _this$[ebp]
$LN4@vector@12:
	mov	esp, ebp
	pop	ebp
	ret	4
??_EDataStreamObject@Ogre@@MAEPAXI@Z ENDP		; Ogre::DataStreamObject::`vector deleting destructor'
_TEXT	ENDS
PUBLIC	??_7ObjectDataStream@Ogre@@6B@			; Ogre::ObjectDataStream::`vftable'
PUBLIC	??0ObjectDataStream@Ogre@@QAE@ABV01@@Z		; Ogre::ObjectDataStream::ObjectDataStream
PUBLIC	??_R4ObjectDataStream@Ogre@@6B@			; Ogre::ObjectDataStream::`RTTI Complete Object Locator'
PUBLIC	??_R0?AVObjectDataStream@Ogre@@@8		; Ogre::ObjectDataStream `RTTI Type Descriptor'
PUBLIC	??_R3ObjectDataStream@Ogre@@8			; Ogre::ObjectDataStream::`RTTI Class Hierarchy Descriptor'
PUBLIC	??_R2ObjectDataStream@Ogre@@8			; Ogre::ObjectDataStream::`RTTI Base Class Array'
PUBLIC	??_R1A@?0A@EA@ObjectDataStream@Ogre@@8		; Ogre::ObjectDataStream::`RTTI Base Class Descriptor at (0,-1,0,64)'
PUBLIC	??_EObjectDataStream@Ogre@@UAEPAXI@Z		; Ogre::ObjectDataStream::`vector deleting destructor'
EXTRN	?read@ObjectDataStream@Ogre@@UAEIPAXI@Z:PROC	; Ogre::ObjectDataStream::read
EXTRN	?write@ObjectDataStream@Ogre@@UAEIPBXI@Z:PROC	; Ogre::ObjectDataStream::write
EXTRN	?skip@ObjectDataStream@Ogre@@UAEXJ@Z:PROC	; Ogre::ObjectDataStream::skip
EXTRN	?seek@ObjectDataStream@Ogre@@UAEXI@Z:PROC	; Ogre::ObjectDataStream::seek
EXTRN	?tell@ObjectDataStream@Ogre@@UBEIXZ:PROC	; Ogre::ObjectDataStream::tell
EXTRN	?eof@ObjectDataStream@Ogre@@UBE_NXZ:PROC	; Ogre::ObjectDataStream::eof
EXTRN	?size@ObjectDataStream@Ogre@@UBEIXZ:PROC	; Ogre::ObjectDataStream::size
EXTRN	?close@ObjectDataStream@Ogre@@UAEXXZ:PROC	; Ogre::ObjectDataStream::close
EXTRN	?getMemoryImage@ObjectDataStream@Ogre@@UAEPAXXZ:PROC ; Ogre::ObjectDataStream::getMemoryImage
;	COMDAT ??_R1A@?0A@EA@ObjectDataStream@Ogre@@8
rdata$r	SEGMENT
??_R1A@?0A@EA@ObjectDataStream@Ogre@@8 DD FLAT:??_R0?AVObjectDataStream@Ogre@@@8 ; Ogre::ObjectDataStream::`RTTI Base Class Descriptor at (0,-1,0,64)'
	DD	01H
	DD	00H
	DD	0ffffffffH
	DD	00H
	DD	040H
	DD	FLAT:??_R3ObjectDataStream@Ogre@@8
rdata$r	ENDS
;	COMDAT ??_R2ObjectDataStream@Ogre@@8
rdata$r	SEGMENT
??_R2ObjectDataStream@Ogre@@8 DD FLAT:??_R1A@?0A@EA@ObjectDataStream@Ogre@@8 ; Ogre::ObjectDataStream::`RTTI Base Class Array'
	DD	FLAT:??_R1A@?0A@EA@DataStream@Ogre@@8
rdata$r	ENDS
;	COMDAT ??_R3ObjectDataStream@Ogre@@8
rdata$r	SEGMENT
??_R3ObjectDataStream@Ogre@@8 DD 00H			; Ogre::ObjectDataStream::`RTTI Class Hierarchy Descriptor'
	DD	00H
	DD	02H
	DD	FLAT:??_R2ObjectDataStream@Ogre@@8
rdata$r	ENDS
;	COMDAT ??_R0?AVObjectDataStream@Ogre@@@8
_DATA	SEGMENT
??_R0?AVObjectDataStream@Ogre@@@8 DD FLAT:??_7type_info@@6B@ ; Ogre::ObjectDataStream `RTTI Type Descriptor'
	DD	00H
	DB	'.?AVObjectDataStream@Ogre@@', 00H
_DATA	ENDS
;	COMDAT ??_R4ObjectDataStream@Ogre@@6B@
rdata$r	SEGMENT
??_R4ObjectDataStream@Ogre@@6B@ DD 00H			; Ogre::ObjectDataStream::`RTTI Complete Object Locator'
	DD	00H
	DD	00H
	DD	FLAT:??_R0?AVObjectDataStream@Ogre@@@8
	DD	FLAT:??_R3ObjectDataStream@Ogre@@8
rdata$r	ENDS
;	COMDAT ??_7ObjectDataStream@Ogre@@6B@
CONST	SEGMENT
??_7ObjectDataStream@Ogre@@6B@ DD FLAT:??_R4ObjectDataStream@Ogre@@6B@ ; Ogre::ObjectDataStream::`vftable'
	DD	FLAT:??_EObjectDataStream@Ogre@@UAEPAXI@Z
	DD	FLAT:?read@ObjectDataStream@Ogre@@UAEIPAXI@Z
	DD	FLAT:?write@ObjectDataStream@Ogre@@UAEIPBXI@Z
	DD	FLAT:?readLine@DataStream@Ogre@@UAEIPADIABV?$basic_string@DU?$char_traits@D@std@@V?$allocator@D@2@@std@@@Z
	DD	FLAT:?getLine@DataStream@Ogre@@UAE?AV?$basic_string@DU?$char_traits@D@std@@V?$allocator@D@2@@std@@_N@Z
	DD	FLAT:?getAsString@DataStream@Ogre@@UAE?AV?$basic_string@DU?$char_traits@D@std@@V?$allocator@D@2@@std@@XZ
	DD	FLAT:?skipLine@DataStream@Ogre@@UAEIABV?$basic_string@DU?$char_traits@D@std@@V?$allocator@D@2@@std@@@Z
	DD	FLAT:?skip@ObjectDataStream@Ogre@@UAEXJ@Z
	DD	FLAT:?seek@ObjectDataStream@Ogre@@UAEXI@Z
	DD	FLAT:?tell@ObjectDataStream@Ogre@@UBEIXZ
	DD	FLAT:?eof@ObjectDataStream@Ogre@@UBE_NXZ
	DD	FLAT:?size@ObjectDataStream@Ogre@@UBEIXZ
	DD	FLAT:?close@ObjectDataStream@Ogre@@UAEXXZ
	DD	FLAT:?getMemoryImage@ObjectDataStream@Ogre@@UAEPAXXZ
CONST	ENDS
;	COMDAT xdata$x
xdata$x	SEGMENT
__unwindtable$??0ObjectDataStream@Ogre@@QAE@ABV01@@Z DD 0ffffffffH
	DD	FLAT:__unwindfunclet$??0ObjectDataStream@Ogre@@QAE@ABV01@@Z$0
__ehfuncinfo$??0ObjectDataStream@Ogre@@QAE@ABV01@@Z DD 019930522H
	DD	01H
	DD	FLAT:__unwindtable$??0ObjectDataStream@Ogre@@QAE@ABV01@@Z
	DD	2 DUP(00H)
	DD	2 DUP(00H)
	DD	00H
	DD	00H
; Function compile flags: /Odtp
xdata$x	ENDS
;	COMDAT ??0ObjectDataStream@Ogre@@QAE@ABV01@@Z
_TEXT	SEGMENT
_this$ = -16						; size = 4
__$EHRec$ = -12						; size = 12
___that$ = 8						; size = 4
??0ObjectDataStream@Ogre@@QAE@ABV01@@Z PROC		; Ogre::ObjectDataStream::ObjectDataStream, COMDAT
; _this$ = ecx
	push	ebp
	mov	ebp, esp
	push	-1
	push	__ehhandler$??0ObjectDataStream@Ogre@@QAE@ABV01@@Z
	mov	eax, DWORD PTR fs:0
	push	eax
	push	ecx
	mov	eax, DWORD PTR ___security_cookie
	xor	eax, ebp
	push	eax
	lea	eax, DWORD PTR __$EHRec$[ebp]
	mov	DWORD PTR fs:0, eax
	mov	DWORD PTR _this$[ebp], ecx
	mov	eax, DWORD PTR ___that$[ebp]
	push	eax
	mov	ecx, DWORD PTR _this$[ebp]
	call	??0DataStream@Ogre@@QAE@ABV01@@Z
	mov	DWORD PTR __$EHRec$[ebp+8], 0
	mov	ecx, DWORD PTR _this$[ebp]
	mov	DWORD PTR [ecx], OFFSET ??_7ObjectDataStream@Ogre@@6B@
	mov	edx, DWORD PTR _this$[ebp]
	mov	eax, DWORD PTR ___that$[ebp]
	mov	ecx, DWORD PTR [eax+36]
	mov	DWORD PTR [edx+36], ecx
	mov	edx, DWORD PTR _this$[ebp]
	mov	eax, DWORD PTR ___that$[ebp]
	mov	ecx, DWORD PTR [eax+40]
	mov	DWORD PTR [edx+40], ecx
	mov	DWORD PTR __$EHRec$[ebp+8], -1
	mov	eax, DWORD PTR _this$[ebp]
	mov	ecx, DWORD PTR __$EHRec$[ebp]
	mov	DWORD PTR fs:0, ecx
	pop	ecx
	mov	esp, ebp
	pop	ebp
	ret	4
_TEXT	ENDS
;	COMDAT text$x
text$x	SEGMENT
__unwindfunclet$??0ObjectDataStream@Ogre@@QAE@ABV01@@Z$0:
	mov	ecx, DWORD PTR _this$[ebp]
	jmp	??1DataStream@Ogre@@UAE@XZ		; Ogre::DataStream::~DataStream
__ehhandler$??0ObjectDataStream@Ogre@@QAE@ABV01@@Z:
	mov	edx, DWORD PTR [esp+8]
	lea	eax, DWORD PTR [edx+12]
	mov	ecx, DWORD PTR [edx-8]
	xor	ecx, eax
	call	@__security_check_cookie@4
	mov	eax, OFFSET __ehfuncinfo$??0ObjectDataStream@Ogre@@QAE@ABV01@@Z
	jmp	___CxxFrameHandler3
text$x	ENDS
??0ObjectDataStream@Ogre@@QAE@ABV01@@Z ENDP		; Ogre::ObjectDataStream::ObjectDataStream
PUBLIC	??4ObjectDataStream@Ogre@@QAEAAV01@ABV01@@Z	; Ogre::ObjectDataStream::operator=
; Function compile flags: /Odtp
;	COMDAT ??4ObjectDataStream@Ogre@@QAEAAV01@ABV01@@Z
_TEXT	SEGMENT
_this$ = -4						; size = 4
___that$ = 8						; size = 4
??4ObjectDataStream@Ogre@@QAEAAV01@ABV01@@Z PROC	; Ogre::ObjectDataStream::operator=, COMDAT
; _this$ = ecx
	push	ebp
	mov	ebp, esp
	push	ecx
	mov	DWORD PTR _this$[ebp], ecx
	mov	eax, DWORD PTR ___that$[ebp]
	push	eax
	mov	ecx, DWORD PTR _this$[ebp]
	call	??4DataStream@Ogre@@QAEAAV01@ABV01@@Z
	mov	ecx, DWORD PTR _this$[ebp]
	mov	edx, DWORD PTR ___that$[ebp]
	mov	eax, DWORD PTR [edx+36]
	mov	DWORD PTR [ecx+36], eax
	mov	ecx, DWORD PTR _this$[ebp]
	mov	edx, DWORD PTR ___that$[ebp]
	mov	eax, DWORD PTR [edx+40]
	mov	DWORD PTR [ecx+40], eax
	mov	eax, DWORD PTR _this$[ebp]
	mov	esp, ebp
	pop	ebp
	ret	4
??4ObjectDataStream@Ogre@@QAEAAV01@ABV01@@Z ENDP	; Ogre::ObjectDataStream::operator=
_TEXT	ENDS
PUBLIC	??_GObjectDataStream@Ogre@@UAEPAXI@Z		; Ogre::ObjectDataStream::`scalar deleting destructor'
EXTRN	??1ObjectDataStream@Ogre@@UAE@XZ:PROC		; Ogre::ObjectDataStream::~ObjectDataStream
; Function compile flags: /Odtp
;	COMDAT ??_GObjectDataStream@Ogre@@UAEPAXI@Z
_TEXT	SEGMENT
_this$ = -4						; size = 4
___flags$ = 8						; size = 4
??_GObjectDataStream@Ogre@@UAEPAXI@Z PROC		; Ogre::ObjectDataStream::`scalar deleting destructor', COMDAT
; _this$ = ecx
	push	ebp
	mov	ebp, esp
	push	ecx
	mov	DWORD PTR _this$[ebp], ecx
	mov	ecx, DWORD PTR _this$[ebp]
	call	??1ObjectDataStream@Ogre@@UAE@XZ	; Ogre::ObjectDataStream::~ObjectDataStream
	mov	eax, DWORD PTR ___flags$[ebp]
	and	eax, 1
	je	SHORT $LN1@scalar@13
	mov	ecx, DWORD PTR _this$[ebp]
	push	ecx
	call	??3@YAXPAX@Z				; operator delete
	add	esp, 4
$LN1@scalar@13:
	mov	eax, DWORD PTR _this$[ebp]
	mov	esp, ebp
	pop	ebp
	ret	4
??_GObjectDataStream@Ogre@@UAEPAXI@Z ENDP		; Ogre::ObjectDataStream::`scalar deleting destructor'
; Function compile flags: /Odtp
_TEXT	ENDS
;	COMDAT ??_EObjectDataStream@Ogre@@UAEPAXI@Z
_TEXT	SEGMENT
_this$ = -4						; size = 4
___flags$ = 8						; size = 4
??_EObjectDataStream@Ogre@@UAEPAXI@Z PROC		; Ogre::ObjectDataStream::`vector deleting destructor', COMDAT
; _this$ = ecx
	push	ebp
	mov	ebp, esp
	push	ecx
	mov	DWORD PTR _this$[ebp], ecx
	mov	eax, DWORD PTR ___flags$[ebp]
	and	eax, 2
	je	SHORT $LN3@vector@13
	push	OFFSET ??1ObjectDataStream@Ogre@@UAE@XZ	; Ogre::ObjectDataStream::~ObjectDataStream
	mov	ecx, DWORD PTR _this$[ebp]
	mov	edx, DWORD PTR [ecx-4]
	push	edx
	push	44					; 0000002cH
	mov	eax, DWORD PTR _this$[ebp]
	push	eax
	call	??_M@YGXPAXIHP6EX0@Z@Z
	mov	ecx, DWORD PTR ___flags$[ebp]
	and	ecx, 1
	je	SHORT $LN2@vector@13
	mov	edx, DWORD PTR _this$[ebp]
	sub	edx, 4
	push	edx
	call	??_V@YAXPAX@Z				; operator delete[]
	add	esp, 4
$LN2@vector@13:
	mov	eax, DWORD PTR _this$[ebp]
	sub	eax, 4
	jmp	SHORT $LN4@vector@13
$LN3@vector@13:
	mov	ecx, DWORD PTR _this$[ebp]
	call	??1ObjectDataStream@Ogre@@UAE@XZ	; Ogre::ObjectDataStream::~ObjectDataStream
	mov	eax, DWORD PTR ___flags$[ebp]
	and	eax, 1
	je	SHORT $LN1@vector@13
	mov	ecx, DWORD PTR _this$[ebp]
	push	ecx
	call	??3@YAXPAX@Z				; operator delete
	add	esp, 4
$LN1@vector@13:
	mov	eax, DWORD PTR _this$[ebp]
$LN4@vector@13:
	mov	esp, ebp
	pop	ebp
	ret	4
??_EObjectDataStream@Ogre@@UAEPAXI@Z ENDP		; Ogre::ObjectDataStream::`vector deleting destructor'
_TEXT	ENDS
PUBLIC	??_7Archive@Ogre@@6B@				; Ogre::Archive::`vftable'
PUBLIC	??0Archive@Ogre@@QAE@PAVDataStream@1@H@Z	; Ogre::Archive::Archive
PUBLIC	??_R4Archive@Ogre@@6B@				; Ogre::Archive::`RTTI Complete Object Locator'
PUBLIC	??_R0?AVArchive@Ogre@@@8			; Ogre::Archive `RTTI Type Descriptor'
PUBLIC	??_R3Archive@Ogre@@8				; Ogre::Archive::`RTTI Class Hierarchy Descriptor'
PUBLIC	??_R2Archive@Ogre@@8				; Ogre::Archive::`RTTI Base Class Array'
PUBLIC	??_R1A@?0A@EA@Archive@Ogre@@8			; Ogre::Archive::`RTTI Base Class Descriptor at (0,-1,0,64)'
PUBLIC	??_EArchive@Ogre@@UAEPAXI@Z			; Ogre::Archive::`vector deleting destructor'
;	COMDAT ??_R1A@?0A@EA@Archive@Ogre@@8
; File i:\svnroot\client\ogremain\ogrearchive.h
rdata$r	SEGMENT
??_R1A@?0A@EA@Archive@Ogre@@8 DD FLAT:??_R0?AVArchive@Ogre@@@8 ; Ogre::Archive::`RTTI Base Class Descriptor at (0,-1,0,64)'
	DD	00H
	DD	00H
	DD	0ffffffffH
	DD	00H
	DD	040H
	DD	FLAT:??_R3Archive@Ogre@@8
rdata$r	ENDS
;	COMDAT ??_R2Archive@Ogre@@8
rdata$r	SEGMENT
??_R2Archive@Ogre@@8 DD FLAT:??_R1A@?0A@EA@Archive@Ogre@@8 ; Ogre::Archive::`RTTI Base Class Array'
rdata$r	ENDS
;	COMDAT ??_R3Archive@Ogre@@8
rdata$r	SEGMENT
??_R3Archive@Ogre@@8 DD 00H				; Ogre::Archive::`RTTI Class Hierarchy Descriptor'
	DD	00H
	DD	01H
	DD	FLAT:??_R2Archive@Ogre@@8
rdata$r	ENDS
;	COMDAT ??_R0?AVArchive@Ogre@@@8
_DATA	SEGMENT
??_R0?AVArchive@Ogre@@@8 DD FLAT:??_7type_info@@6B@	; Ogre::Archive `RTTI Type Descriptor'
	DD	00H
	DB	'.?AVArchive@Ogre@@', 00H
_DATA	ENDS
;	COMDAT ??_R4Archive@Ogre@@6B@
rdata$r	SEGMENT
??_R4Archive@Ogre@@6B@ DD 00H				; Ogre::Archive::`RTTI Complete Object Locator'
	DD	00H
	DD	00H
	DD	FLAT:??_R0?AVArchive@Ogre@@@8
	DD	FLAT:??_R3Archive@Ogre@@8
rdata$r	ENDS
;	COMDAT ??_7Archive@Ogre@@6B@
CONST	SEGMENT
??_7Archive@Ogre@@6B@ DD FLAT:??_R4Archive@Ogre@@6B@	; Ogre::Archive::`vftable'
	DD	FLAT:??_EArchive@Ogre@@UAEPAXI@Z
; Function compile flags: /Odtp
CONST	ENDS
;	COMDAT ??0Archive@Ogre@@QAE@PAVDataStream@1@H@Z
_TEXT	SEGMENT
_this$ = -4						; size = 4
_pstream$ = 8						; size = 4
_mode$ = 12						; size = 4
??0Archive@Ogre@@QAE@PAVDataStream@1@H@Z PROC		; Ogre::Archive::Archive, COMDAT
; _this$ = ecx

; 22   : 		{

	push	ebp
	mov	ebp, esp
	push	ecx
	mov	DWORD PTR _this$[ebp], ecx
	mov	eax, DWORD PTR _this$[ebp]
	mov	DWORD PTR [eax], OFFSET ??_7Archive@Ogre@@6B@
	mov	ecx, DWORD PTR _this$[ebp]
	mov	edx, DWORD PTR _pstream$[ebp]
	mov	DWORD PTR [ecx+4], edx
	mov	eax, DWORD PTR _this$[ebp]
	mov	ecx, DWORD PTR _mode$[ebp]
	mov	DWORD PTR [eax+8], ecx

; 23   : 		}

	mov	eax, DWORD PTR _this$[ebp]
	mov	esp, ebp
	pop	ebp
	ret	8
??0Archive@Ogre@@QAE@PAVDataStream@1@H@Z ENDP		; Ogre::Archive::Archive
_TEXT	ENDS
PUBLIC	??1Archive@Ogre@@UAE@XZ				; Ogre::Archive::~Archive
; Function compile flags: /Odtp
;	COMDAT ??1Archive@Ogre@@UAE@XZ
_TEXT	SEGMENT
_this$ = -4						; size = 4
??1Archive@Ogre@@UAE@XZ PROC				; Ogre::Archive::~Archive, COMDAT
; _this$ = ecx

; 26   : 		{

	push	ebp
	mov	ebp, esp
	push	ecx
	mov	DWORD PTR _this$[ebp], ecx
	mov	eax, DWORD PTR _this$[ebp]
	mov	DWORD PTR [eax], OFFSET ??_7Archive@Ogre@@6B@

; 27   : 		}

	mov	esp, ebp
	pop	ebp
	ret	0
??1Archive@Ogre@@UAE@XZ ENDP				; Ogre::Archive::~Archive
_TEXT	ENDS
PUBLIC	?isLoading@Archive@Ogre@@QAE_NXZ		; Ogre::Archive::isLoading
; Function compile flags: /Odtp
;	COMDAT ?isLoading@Archive@Ogre@@QAE_NXZ
_TEXT	SEGMENT
_this$ = -4						; size = 4
?isLoading@Archive@Ogre@@QAE_NXZ PROC			; Ogre::Archive::isLoading, COMDAT
; _this$ = ecx

; 30   : 		{

	push	ebp
	mov	ebp, esp
	push	ecx
	mov	DWORD PTR _this$[ebp], ecx

; 31   : 			return m_Mode==MODE_LOAD;

	mov	eax, DWORD PTR _this$[ebp]
	xor	ecx, ecx
	cmp	DWORD PTR [eax+8], 1
	sete	cl
	mov	al, cl

; 32   : 		}

	mov	esp, ebp
	pop	ebp
	ret	0
?isLoading@Archive@Ogre@@QAE_NXZ ENDP			; Ogre::Archive::isLoading
_TEXT	ENDS
PUBLIC	?serialize@Archive@Ogre@@QAEAAV12@PAXI@Z	; Ogre::Archive::serialize
PUBLIC	??6Archive@Ogre@@QAEAAV01@AAD@Z			; Ogre::Archive::operator<<
; Function compile flags: /Odtp
;	COMDAT ??6Archive@Ogre@@QAEAAV01@AAD@Z
_TEXT	SEGMENT
_this$ = -4						; size = 4
_value$ = 8						; size = 4
??6Archive@Ogre@@QAEAAV01@AAD@Z PROC			; Ogre::Archive::operator<<, COMDAT
; _this$ = ecx

; 108  : 		SERIALIZE_PRIMITIVE_FUNC(char)

	push	ebp
	mov	ebp, esp
	push	ecx
	mov	DWORD PTR _this$[ebp], ecx
	push	1
	mov	eax, DWORD PTR _value$[ebp]
	push	eax
	mov	ecx, DWORD PTR _this$[ebp]
	call	?serialize@Archive@Ogre@@QAEAAV12@PAXI@Z ; Ogre::Archive::serialize
	mov	eax, DWORD PTR _this$[ebp]
	mov	esp, ebp
	pop	ebp
	ret	4
??6Archive@Ogre@@QAEAAV01@AAD@Z ENDP			; Ogre::Archive::operator<<
_TEXT	ENDS
PUBLIC	??6Archive@Ogre@@QAEAAV01@AAF@Z			; Ogre::Archive::operator<<
; Function compile flags: /Odtp
;	COMDAT ??6Archive@Ogre@@QAEAAV01@AAF@Z
_TEXT	SEGMENT
_this$ = -4						; size = 4
_value$ = 8						; size = 4
??6Archive@Ogre@@QAEAAV01@AAF@Z PROC			; Ogre::Archive::operator<<, COMDAT
; _this$ = ecx

; 109  : 		SERIALIZE_PRIMITIVE_FUNC(short)

	push	ebp
	mov	ebp, esp
	push	ecx
	mov	DWORD PTR _this$[ebp], ecx
	push	2
	mov	eax, DWORD PTR _value$[ebp]
	push	eax
	mov	ecx, DWORD PTR _this$[ebp]
	call	?serialize@Archive@Ogre@@QAEAAV12@PAXI@Z ; Ogre::Archive::serialize
	mov	eax, DWORD PTR _this$[ebp]
	mov	esp, ebp
	pop	ebp
	ret	4
??6Archive@Ogre@@QAEAAV01@AAF@Z ENDP			; Ogre::Archive::operator<<
_TEXT	ENDS
PUBLIC	??6Archive@Ogre@@QAEAAV01@AAH@Z			; Ogre::Archive::operator<<
; Function compile flags: /Odtp
;	COMDAT ??6Archive@Ogre@@QAEAAV01@AAH@Z
_TEXT	SEGMENT
_this$ = -4						; size = 4
_value$ = 8						; size = 4
??6Archive@Ogre@@QAEAAV01@AAH@Z PROC			; Ogre::Archive::operator<<, COMDAT
; _this$ = ecx

; 110  : 		SERIALIZE_PRIMITIVE_FUNC(int)

	push	ebp
	mov	ebp, esp
	push	ecx
	mov	DWORD PTR _this$[ebp], ecx
	push	4
	mov	eax, DWORD PTR _value$[ebp]
	push	eax
	mov	ecx, DWORD PTR _this$[ebp]
	call	?serialize@Archive@Ogre@@QAEAAV12@PAXI@Z ; Ogre::Archive::serialize
	mov	eax, DWORD PTR _this$[ebp]
	mov	esp, ebp
	pop	ebp
	ret	4
??6Archive@Ogre@@QAEAAV01@AAH@Z ENDP			; Ogre::Archive::operator<<
_TEXT	ENDS
PUBLIC	??6Archive@Ogre@@QAEAAV01@AA_J@Z		; Ogre::Archive::operator<<
; Function compile flags: /Odtp
;	COMDAT ??6Archive@Ogre@@QAEAAV01@AA_J@Z
_TEXT	SEGMENT
_this$ = -4						; size = 4
_value$ = 8						; size = 4
??6Archive@Ogre@@QAEAAV01@AA_J@Z PROC			; Ogre::Archive::operator<<, COMDAT
; _this$ = ecx

; 111  : 		SERIALIZE_PRIMITIVE_FUNC(int64)

	push	ebp
	mov	ebp, esp
	push	ecx
	mov	DWORD PTR _this$[ebp], ecx
	push	8
	mov	eax, DWORD PTR _value$[ebp]
	push	eax
	mov	ecx, DWORD PTR _this$[ebp]
	call	?serialize@Archive@Ogre@@QAEAAV12@PAXI@Z ; Ogre::Archive::serialize
	mov	eax, DWORD PTR _this$[ebp]
	mov	esp, ebp
	pop	ebp
	ret	4
??6Archive@Ogre@@QAEAAV01@AA_J@Z ENDP			; Ogre::Archive::operator<<
_TEXT	ENDS
PUBLIC	??6Archive@Ogre@@QAEAAV01@AAE@Z			; Ogre::Archive::operator<<
; Function compile flags: /Odtp
;	COMDAT ??6Archive@Ogre@@QAEAAV01@AAE@Z
_TEXT	SEGMENT
_this$ = -4						; size = 4
_value$ = 8						; size = 4
??6Archive@Ogre@@QAEAAV01@AAE@Z PROC			; Ogre::Archive::operator<<, COMDAT
; _this$ = ecx

; 112  : 		SERIALIZE_PRIMITIVE_FUNC(uchar)

	push	ebp
	mov	ebp, esp
	push	ecx
	mov	DWORD PTR _this$[ebp], ecx
	push	1
	mov	eax, DWORD PTR _value$[ebp]
	push	eax
	mov	ecx, DWORD PTR _this$[ebp]
	call	?serialize@Archive@Ogre@@QAEAAV12@PAXI@Z ; Ogre::Archive::serialize
	mov	eax, DWORD PTR _this$[ebp]
	mov	esp, ebp
	pop	ebp
	ret	4
??6Archive@Ogre@@QAEAAV01@AAE@Z ENDP			; Ogre::Archive::operator<<
_TEXT	ENDS
PUBLIC	??6Archive@Ogre@@QAEAAV01@AAG@Z			; Ogre::Archive::operator<<
; Function compile flags: /Odtp
;	COMDAT ??6Archive@Ogre@@QAEAAV01@AAG@Z
_TEXT	SEGMENT
_this$ = -4						; size = 4
_value$ = 8						; size = 4
??6Archive@Ogre@@QAEAAV01@AAG@Z PROC			; Ogre::Archive::operator<<, COMDAT
; _this$ = ecx

; 113  : 		SERIALIZE_PRIMITIVE_FUNC(ushort)

	push	ebp
	mov	ebp, esp
	push	ecx
	mov	DWORD PTR _this$[ebp], ecx
	push	2
	mov	eax, DWORD PTR _value$[ebp]
	push	eax
	mov	ecx, DWORD PTR _this$[ebp]
	call	?serialize@Archive@Ogre@@QAEAAV12@PAXI@Z ; Ogre::Archive::serialize
	mov	eax, DWORD PTR _this$[ebp]
	mov	esp, ebp
	pop	ebp
	ret	4
??6Archive@Ogre@@QAEAAV01@AAG@Z ENDP			; Ogre::Archive::operator<<
_TEXT	ENDS
PUBLIC	??6Archive@Ogre@@QAEAAV01@AAI@Z			; Ogre::Archive::operator<<
; Function compile flags: /Odtp
;	COMDAT ??6Archive@Ogre@@QAEAAV01@AAI@Z
_TEXT	SEGMENT
_this$ = -4						; size = 4
_value$ = 8						; size = 4
??6Archive@Ogre@@QAEAAV01@AAI@Z PROC			; Ogre::Archive::operator<<, COMDAT
; _this$ = ecx

; 114  : 		SERIALIZE_PRIMITIVE_FUNC(uint)

	push	ebp
	mov	ebp, esp
	push	ecx
	mov	DWORD PTR _this$[ebp], ecx
	push	4
	mov	eax, DWORD PTR _value$[ebp]
	push	eax
	mov	ecx, DWORD PTR _this$[ebp]
	call	?serialize@Archive@Ogre@@QAEAAV12@PAXI@Z ; Ogre::Archive::serialize
	mov	eax, DWORD PTR _this$[ebp]
	mov	esp, ebp
	pop	ebp
	ret	4
??6Archive@Ogre@@QAEAAV01@AAI@Z ENDP			; Ogre::Archive::operator<<
_TEXT	ENDS
PUBLIC	??6Archive@Ogre@@QAEAAV01@AA_K@Z		; Ogre::Archive::operator<<
; Function compile flags: /Odtp
;	COMDAT ??6Archive@Ogre@@QAEAAV01@AA_K@Z
_TEXT	SEGMENT
_this$ = -4						; size = 4
_value$ = 8						; size = 4
??6Archive@Ogre@@QAEAAV01@AA_K@Z PROC			; Ogre::Archive::operator<<, COMDAT
; _this$ = ecx

; 115  : 		SERIALIZE_PRIMITIVE_FUNC(uint64)

	push	ebp
	mov	ebp, esp
	push	ecx
	mov	DWORD PTR _this$[ebp], ecx
	push	8
	mov	eax, DWORD PTR _value$[ebp]
	push	eax
	mov	ecx, DWORD PTR _this$[ebp]
	call	?serialize@Archive@Ogre@@QAEAAV12@PAXI@Z ; Ogre::Archive::serialize
	mov	eax, DWORD PTR _this$[ebp]
	mov	esp, ebp
	pop	ebp
	ret	4
??6Archive@Ogre@@QAEAAV01@AA_K@Z ENDP			; Ogre::Archive::operator<<
_TEXT	ENDS
PUBLIC	??6Archive@Ogre@@QAEAAV01@AA_N@Z		; Ogre::Archive::operator<<
; Function compile flags: /Odtp
;	COMDAT ??6Archive@Ogre@@QAEAAV01@AA_N@Z
_TEXT	SEGMENT
_this$ = -4						; size = 4
_value$ = 8						; size = 4
??6Archive@Ogre@@QAEAAV01@AA_N@Z PROC			; Ogre::Archive::operator<<, COMDAT
; _this$ = ecx

; 116  : 		SERIALIZE_PRIMITIVE_FUNC(bool)

	push	ebp
	mov	ebp, esp
	push	ecx
	mov	DWORD PTR _this$[ebp], ecx
	push	1
	mov	eax, DWORD PTR _value$[ebp]
	push	eax
	mov	ecx, DWORD PTR _this$[ebp]
	call	?serialize@Archive@Ogre@@QAEAAV12@PAXI@Z ; Ogre::Archive::serialize
	mov	eax, DWORD PTR _this$[ebp]
	mov	esp, ebp
	pop	ebp
	ret	4
??6Archive@Ogre@@QAEAAV01@AA_N@Z ENDP			; Ogre::Archive::operator<<
_TEXT	ENDS
PUBLIC	??6Archive@Ogre@@QAEAAV01@AAM@Z			; Ogre::Archive::operator<<
; Function compile flags: /Odtp
;	COMDAT ??6Archive@Ogre@@QAEAAV01@AAM@Z
_TEXT	SEGMENT
_this$ = -4						; size = 4
_value$ = 8						; size = 4
??6Archive@Ogre@@QAEAAV01@AAM@Z PROC			; Ogre::Archive::operator<<, COMDAT
; _this$ = ecx

; 117  : 		SERIALIZE_PRIMITIVE_FUNC(float)

	push	ebp
	mov	ebp, esp
	push	ecx
	mov	DWORD PTR _this$[ebp], ecx
	push	4
	mov	eax, DWORD PTR _value$[ebp]
	push	eax
	mov	ecx, DWORD PTR _this$[ebp]
	call	?serialize@Archive@Ogre@@QAEAAV12@PAXI@Z ; Ogre::Archive::serialize
	mov	eax, DWORD PTR _this$[ebp]
	mov	esp, ebp
	pop	ebp
	ret	4
??6Archive@Ogre@@QAEAAV01@AAM@Z ENDP			; Ogre::Archive::operator<<
; Function compile flags: /Odtp
_TEXT	ENDS
;	COMDAT ?serialize@Archive@Ogre@@QAEAAV12@PAXI@Z
_TEXT	SEGMENT
_this$ = -4						; size = 4
_pbuf$ = 8						; size = 4
_len$ = 12						; size = 4
?serialize@Archive@Ogre@@QAEAAV12@PAXI@Z PROC		; Ogre::Archive::serialize, COMDAT
; _this$ = ecx

; 155  : 		{

	push	ebp
	mov	ebp, esp
	push	ecx
	mov	DWORD PTR _this$[ebp], ecx

; 156  : 			if(isLoading()) m_pStream->read(pbuf, len);

	mov	ecx, DWORD PTR _this$[ebp]
	call	?isLoading@Archive@Ogre@@QAE_NXZ	; Ogre::Archive::isLoading
	movzx	eax, al
	test	eax, eax
	je	SHORT $LN2@serialize
	mov	ecx, DWORD PTR _len$[ebp]
	push	ecx
	mov	edx, DWORD PTR _pbuf$[ebp]
	push	edx
	mov	eax, DWORD PTR _this$[ebp]
	mov	ecx, DWORD PTR [eax+4]
	mov	edx, DWORD PTR _this$[ebp]
	mov	eax, DWORD PTR [edx+4]
	mov	edx, DWORD PTR [ecx]
	mov	ecx, eax
	mov	eax, DWORD PTR [edx+4]
	call	eax
	jmp	SHORT $LN1@serialize
$LN2@serialize:

; 157  : 			else m_pStream->write(pbuf, len);

	mov	ecx, DWORD PTR _len$[ebp]
	push	ecx
	mov	edx, DWORD PTR _pbuf$[ebp]
	push	edx
	mov	eax, DWORD PTR _this$[ebp]
	mov	ecx, DWORD PTR [eax+4]
	mov	edx, DWORD PTR _this$[ebp]
	mov	eax, DWORD PTR [edx+4]
	mov	edx, DWORD PTR [ecx]
	mov	ecx, eax
	mov	eax, DWORD PTR [edx+8]
	call	eax
$LN1@serialize:

; 158  : 
; 159  : 			return *this;

	mov	eax, DWORD PTR _this$[ebp]

; 160  : 		}

	mov	esp, ebp
	pop	ebp
	ret	8
?serialize@Archive@Ogre@@QAEAAV12@PAXI@Z ENDP		; Ogre::Archive::serialize
_TEXT	ENDS
PUBLIC	?read@Archive@Ogre@@QAEXPAXI@Z			; Ogre::Archive::read
; Function compile flags: /Odtp
;	COMDAT ?read@Archive@Ogre@@QAEXPAXI@Z
_TEXT	SEGMENT
_this$ = -4						; size = 4
_pbuf$ = 8						; size = 4
_len$ = 12						; size = 4
?read@Archive@Ogre@@QAEXPAXI@Z PROC			; Ogre::Archive::read, COMDAT
; _this$ = ecx

; 163  : 		{

	push	ebp
	mov	ebp, esp
	push	ecx
	mov	DWORD PTR _this$[ebp], ecx

; 164  : 			m_pStream->read(pbuf, len);

	mov	eax, DWORD PTR _len$[ebp]
	push	eax
	mov	ecx, DWORD PTR _pbuf$[ebp]
	push	ecx
	mov	edx, DWORD PTR _this$[ebp]
	mov	eax, DWORD PTR [edx+4]
	mov	ecx, DWORD PTR _this$[ebp]
	mov	ecx, DWORD PTR [ecx+4]
	mov	edx, DWORD PTR [eax]
	mov	eax, DWORD PTR [edx+4]
	call	eax

; 165  : 		}

	mov	esp, ebp
	pop	ebp
	ret	8
?read@Archive@Ogre@@QAEXPAXI@Z ENDP			; Ogre::Archive::read
_TEXT	ENDS
PUBLIC	?write@Archive@Ogre@@QAEXPBXI@Z			; Ogre::Archive::write
; Function compile flags: /Odtp
;	COMDAT ?write@Archive@Ogre@@QAEXPBXI@Z
_TEXT	SEGMENT
_this$ = -4						; size = 4
_pbuf$ = 8						; size = 4
_len$ = 12						; size = 4
?write@Archive@Ogre@@QAEXPBXI@Z PROC			; Ogre::Archive::write, COMDAT
; _this$ = ecx

; 168  : 		{

	push	ebp
	mov	ebp, esp
	push	ecx
	mov	DWORD PTR _this$[ebp], ecx

; 169  : 			m_pStream->write(pbuf, len);

	mov	eax, DWORD PTR _len$[ebp]
	push	eax
	mov	ecx, DWORD PTR _pbuf$[ebp]
	push	ecx
	mov	edx, DWORD PTR _this$[ebp]
	mov	eax, DWORD PTR [edx+4]
	mov	ecx, DWORD PTR _this$[ebp]
	mov	ecx, DWORD PTR [ecx+4]
	mov	edx, DWORD PTR [eax]
	mov	eax, DWORD PTR [edx+8]
	call	eax

; 170  : 		}

	mov	esp, ebp
	pop	ebp
	ret	8
?write@Archive@Ogre@@QAEXPBXI@Z ENDP			; Ogre::Archive::write
_TEXT	ENDS
PUBLIC	??0Archive@Ogre@@QAE@ABV01@@Z			; Ogre::Archive::Archive
; Function compile flags: /Odtp
;	COMDAT ??0Archive@Ogre@@QAE@ABV01@@Z
_TEXT	SEGMENT
_this$ = -4						; size = 4
___that$ = 8						; size = 4
??0Archive@Ogre@@QAE@ABV01@@Z PROC			; Ogre::Archive::Archive, COMDAT
; _this$ = ecx
	push	ebp
	mov	ebp, esp
	push	ecx
	mov	DWORD PTR _this$[ebp], ecx
	mov	eax, DWORD PTR _this$[ebp]
	mov	DWORD PTR [eax], OFFSET ??_7Archive@Ogre@@6B@
	mov	ecx, DWORD PTR _this$[ebp]
	mov	edx, DWORD PTR ___that$[ebp]
	mov	eax, DWORD PTR [edx+4]
	mov	DWORD PTR [ecx+4], eax
	mov	ecx, DWORD PTR _this$[ebp]
	mov	edx, DWORD PTR ___that$[ebp]
	mov	eax, DWORD PTR [edx+8]
	mov	DWORD PTR [ecx+8], eax
	mov	eax, DWORD PTR _this$[ebp]
	mov	esp, ebp
	pop	ebp
	ret	4
??0Archive@Ogre@@QAE@ABV01@@Z ENDP			; Ogre::Archive::Archive
_TEXT	ENDS
PUBLIC	??4Archive@Ogre@@QAEAAV01@ABV01@@Z		; Ogre::Archive::operator=
; Function compile flags: /Odtp
;	COMDAT ??4Archive@Ogre@@QAEAAV01@ABV01@@Z
_TEXT	SEGMENT
_this$ = -4						; size = 4
___that$ = 8						; size = 4
??4Archive@Ogre@@QAEAAV01@ABV01@@Z PROC			; Ogre::Archive::operator=, COMDAT
; _this$ = ecx
	push	ebp
	mov	ebp, esp
	push	ecx
	mov	DWORD PTR _this$[ebp], ecx
	mov	eax, DWORD PTR _this$[ebp]
	mov	ecx, DWORD PTR ___that$[ebp]
	mov	edx, DWORD PTR [ecx+4]
	mov	DWORD PTR [eax+4], edx
	mov	eax, DWORD PTR _this$[ebp]
	mov	ecx, DWORD PTR ___that$[ebp]
	mov	edx, DWORD PTR [ecx+8]
	mov	DWORD PTR [eax+8], edx
	mov	eax, DWORD PTR _this$[ebp]
	mov	esp, ebp
	pop	ebp
	ret	4
??4Archive@Ogre@@QAEAAV01@ABV01@@Z ENDP			; Ogre::Archive::operator=
_TEXT	ENDS
PUBLIC	??_GArchive@Ogre@@UAEPAXI@Z			; Ogre::Archive::`scalar deleting destructor'
; Function compile flags: /Odtp
;	COMDAT ??_GArchive@Ogre@@UAEPAXI@Z
_TEXT	SEGMENT
_this$ = -4						; size = 4
___flags$ = 8						; size = 4
??_GArchive@Ogre@@UAEPAXI@Z PROC			; Ogre::Archive::`scalar deleting destructor', COMDAT
; _this$ = ecx
	push	ebp
	mov	ebp, esp
	push	ecx
	mov	DWORD PTR _this$[ebp], ecx
	mov	ecx, DWORD PTR _this$[ebp]
	call	??1Archive@Ogre@@UAE@XZ			; Ogre::Archive::~Archive
	mov	eax, DWORD PTR ___flags$[ebp]
	and	eax, 1
	je	SHORT $LN1@scalar@14
	mov	ecx, DWORD PTR _this$[ebp]
	push	ecx
	call	??3@YAXPAX@Z				; operator delete
	add	esp, 4
$LN1@scalar@14:
	mov	eax, DWORD PTR _this$[ebp]
	mov	esp, ebp
	pop	ebp
	ret	4
??_GArchive@Ogre@@UAEPAXI@Z ENDP			; Ogre::Archive::`scalar deleting destructor'
; Function compile flags: /Odtp
_TEXT	ENDS
;	COMDAT ??_EArchive@Ogre@@UAEPAXI@Z
_TEXT	SEGMENT
_this$ = -4						; size = 4
___flags$ = 8						; size = 4
??_EArchive@Ogre@@UAEPAXI@Z PROC			; Ogre::Archive::`vector deleting destructor', COMDAT
; _this$ = ecx
	push	ebp
	mov	ebp, esp
	push	ecx
	mov	DWORD PTR _this$[ebp], ecx
	mov	eax, DWORD PTR ___flags$[ebp]
	and	eax, 2
	je	SHORT $LN3@vector@14
	push	OFFSET ??1Archive@Ogre@@UAE@XZ		; Ogre::Archive::~Archive
	mov	ecx, DWORD PTR _this$[ebp]
	mov	edx, DWORD PTR [ecx-4]
	push	edx
	push	12					; 0000000cH
	mov	eax, DWORD PTR _this$[ebp]
	push	eax
	call	??_M@YGXPAXIHP6EX0@Z@Z
	mov	ecx, DWORD PTR ___flags$[ebp]
	and	ecx, 1
	je	SHORT $LN2@vector@14
	mov	edx, DWORD PTR _this$[ebp]
	sub	edx, 4
	push	edx
	call	??_V@YAXPAX@Z				; operator delete[]
	add	esp, 4
$LN2@vector@14:
	mov	eax, DWORD PTR _this$[ebp]
	sub	eax, 4
	jmp	SHORT $LN4@vector@14
$LN3@vector@14:
	mov	ecx, DWORD PTR _this$[ebp]
	call	??1Archive@Ogre@@UAE@XZ			; Ogre::Archive::~Archive
	mov	eax, DWORD PTR ___flags$[ebp]
	and	eax, 1
	je	SHORT $LN1@vector@14
	mov	ecx, DWORD PTR _this$[ebp]
	push	ecx
	call	??3@YAXPAX@Z				; operator delete
	add	esp, 4
$LN1@vector@14:
	mov	eax, DWORD PTR _this$[ebp]
$LN4@vector@14:
	mov	esp, ebp
	pop	ebp
	ret	4
??_EArchive@Ogre@@UAEPAXI@Z ENDP			; Ogre::Archive::`vector deleting destructor'
_TEXT	ENDS
PUBLIC	??0Vector3@Ogre@@QAE@XZ				; Ogre::Vector3::Vector3
; Function compile flags: /Odtp
; File i:\svnroot\client\ogremain\ogrevector3.h
;	COMDAT ??0Vector3@Ogre@@QAE@XZ
_TEXT	SEGMENT
_this$ = -4						; size = 4
??0Vector3@Ogre@@QAE@XZ PROC				; Ogre::Vector3::Vector3, COMDAT
; _this$ = ecx

; 49   : 		Vector3(){}

	push	ebp
	mov	ebp, esp
	push	ecx
	mov	DWORD PTR _this$[ebp], ecx
	mov	eax, DWORD PTR _this$[ebp]
	mov	esp, ebp
	pop	ebp
	ret	0
??0Vector3@Ogre@@QAE@XZ ENDP				; Ogre::Vector3::Vector3
_TEXT	ENDS
PUBLIC	??0Vector3@Ogre@@QAE@ABV01@@Z			; Ogre::Vector3::Vector3
EXTRN	__fltused:DWORD
; Function compile flags: /Odtp
;	COMDAT ??0Vector3@Ogre@@QAE@ABV01@@Z
_TEXT	SEGMENT
_this$ = -4						; size = 4
_rhs$ = 8						; size = 4
??0Vector3@Ogre@@QAE@ABV01@@Z PROC			; Ogre::Vector3::Vector3, COMDAT
; _this$ = ecx

; 50   : 		Vector3(const Vector3 &rhs)

	push	ebp
	mov	ebp, esp
	push	ecx
	mov	DWORD PTR _this$[ebp], ecx

; 51   : 		{
; 52   : 			x = rhs.x;

	mov	eax, DWORD PTR _this$[ebp]
	mov	ecx, DWORD PTR _rhs$[ebp]
	fld	DWORD PTR [ecx]
	fstp	DWORD PTR [eax]

; 53   : 			y = rhs.y;

	mov	edx, DWORD PTR _this$[ebp]
	mov	eax, DWORD PTR _rhs$[ebp]
	fld	DWORD PTR [eax+4]
	fstp	DWORD PTR [edx+4]

; 54   : 			z = rhs.z;

	mov	ecx, DWORD PTR _this$[ebp]
	mov	edx, DWORD PTR _rhs$[ebp]
	fld	DWORD PTR [edx+8]
	fstp	DWORD PTR [ecx+8]

; 55   : 		}

	mov	eax, DWORD PTR _this$[ebp]
	mov	esp, ebp
	pop	ebp
	ret	4
??0Vector3@Ogre@@QAE@ABV01@@Z ENDP			; Ogre::Vector3::Vector3
_TEXT	ENDS
PUBLIC	??0Vector3@Ogre@@QAE@MMM@Z			; Ogre::Vector3::Vector3
; Function compile flags: /Odtp
;	COMDAT ??0Vector3@Ogre@@QAE@MMM@Z
_TEXT	SEGMENT
_this$ = -4						; size = 4
_x1$ = 8						; size = 4
_y1$ = 12						; size = 4
_z1$ = 16						; size = 4
??0Vector3@Ogre@@QAE@MMM@Z PROC				; Ogre::Vector3::Vector3, COMDAT
; _this$ = ecx

; 56   : 		Vector3( float x1, float y1, float z1 ) : x(x1), y(y1), z(z1){}

	push	ebp
	mov	ebp, esp
	push	ecx
	mov	DWORD PTR _this$[ebp], ecx
	mov	eax, DWORD PTR _this$[ebp]
	fld	DWORD PTR _x1$[ebp]
	fstp	DWORD PTR [eax]
	mov	ecx, DWORD PTR _this$[ebp]
	fld	DWORD PTR _y1$[ebp]
	fstp	DWORD PTR [ecx+4]
	mov	edx, DWORD PTR _this$[ebp]
	fld	DWORD PTR _z1$[ebp]
	fstp	DWORD PTR [edx+8]
	mov	eax, DWORD PTR _this$[ebp]
	mov	esp, ebp
	pop	ebp
	ret	12					; 0000000cH
??0Vector3@Ogre@@QAE@MMM@Z ENDP				; Ogre::Vector3::Vector3
_TEXT	ENDS
PUBLIC	??0Vector3@Ogre@@QAE@M@Z			; Ogre::Vector3::Vector3
; Function compile flags: /Odtp
;	COMDAT ??0Vector3@Ogre@@QAE@M@Z
_TEXT	SEGMENT
_this$ = -4						; size = 4
_v$ = 8							; size = 4
??0Vector3@Ogre@@QAE@M@Z PROC				; Ogre::Vector3::Vector3, COMDAT
; _this$ = ecx

; 57   : 		Vector3(float v) : x(v), y(v), z(v){}

	push	ebp
	mov	ebp, esp
	push	ecx
	mov	DWORD PTR _this$[ebp], ecx
	mov	eax, DWORD PTR _this$[ebp]
	fld	DWORD PTR _v$[ebp]
	fstp	DWORD PTR [eax]
	mov	ecx, DWORD PTR _this$[ebp]
	fld	DWORD PTR _v$[ebp]
	fstp	DWORD PTR [ecx+4]
	mov	edx, DWORD PTR _this$[ebp]
	fld	DWORD PTR _v$[ebp]
	fstp	DWORD PTR [edx+8]
	mov	eax, DWORD PTR _this$[ebp]
	mov	esp, ebp
	pop	ebp
	ret	4
??0Vector3@Ogre@@QAE@M@Z ENDP				; Ogre::Vector3::Vector3
_TEXT	ENDS
PUBLIC	??0Vector3@Ogre@@QAE@PAM@Z			; Ogre::Vector3::Vector3
; Function compile flags: /Odtp
;	COMDAT ??0Vector3@Ogre@@QAE@PAM@Z
_TEXT	SEGMENT
_this$ = -4						; size = 4
_v$ = 8							; size = 4
??0Vector3@Ogre@@QAE@PAM@Z PROC				; Ogre::Vector3::Vector3, COMDAT
; _this$ = ecx

; 58   : 		Vector3(float* v) : x(v[0]), y(v[1]), z(v[2]){}

	push	ebp
	mov	ebp, esp
	push	ecx
	mov	DWORD PTR _this$[ebp], ecx
	mov	eax, DWORD PTR _this$[ebp]
	mov	ecx, DWORD PTR _v$[ebp]
	fld	DWORD PTR [ecx]
	fstp	DWORD PTR [eax]
	mov	edx, DWORD PTR _this$[ebp]
	mov	eax, DWORD PTR _v$[ebp]
	fld	DWORD PTR [eax+4]
	fstp	DWORD PTR [edx+4]
	mov	ecx, DWORD PTR _this$[ebp]
	mov	edx, DWORD PTR _v$[ebp]
	fld	DWORD PTR [edx+8]
	fstp	DWORD PTR [ecx+8]
	mov	eax, DWORD PTR _this$[ebp]
	mov	esp, ebp
	pop	ebp
	ret	4
??0Vector3@Ogre@@QAE@PAM@Z ENDP				; Ogre::Vector3::Vector3
_TEXT	ENDS
PUBLIC	??4Vector3@Ogre@@QAEABV01@ABV01@@Z		; Ogre::Vector3::operator=
; Function compile flags: /Odtp
;	COMDAT ??4Vector3@Ogre@@QAEABV01@ABV01@@Z
_TEXT	SEGMENT
_this$ = -4						; size = 4
_vec$ = 8						; size = 4
??4Vector3@Ogre@@QAEABV01@ABV01@@Z PROC			; Ogre::Vector3::operator=, COMDAT
; _this$ = ecx

; 61   : 		{

	push	ebp
	mov	ebp, esp
	push	ecx
	mov	DWORD PTR _this$[ebp], ecx

; 62   : 			x = vec.x;

	mov	eax, DWORD PTR _this$[ebp]
	mov	ecx, DWORD PTR _vec$[ebp]
	fld	DWORD PTR [ecx]
	fstp	DWORD PTR [eax]

; 63   : 			y = vec.y;

	mov	edx, DWORD PTR _this$[ebp]
	mov	eax, DWORD PTR _vec$[ebp]
	fld	DWORD PTR [eax+4]
	fstp	DWORD PTR [edx+4]

; 64   : 			z = vec.z;

	mov	ecx, DWORD PTR _this$[ebp]
	mov	edx, DWORD PTR _vec$[ebp]
	fld	DWORD PTR [edx+8]
	fstp	DWORD PTR [ecx+8]

; 65   : 			return *this;

	mov	eax, DWORD PTR _this$[ebp]

; 66   : 		}

	mov	esp, ebp
	pop	ebp
	ret	4
??4Vector3@Ogre@@QAEABV01@ABV01@@Z ENDP			; Ogre::Vector3::operator=
_TEXT	ENDS
PUBLIC	??YVector3@Ogre@@QAEXABV01@@Z			; Ogre::Vector3::operator+=
; Function compile flags: /Odtp
;	COMDAT ??YVector3@Ogre@@QAEXABV01@@Z
_TEXT	SEGMENT
_this$ = -4						; size = 4
_vec$ = 8						; size = 4
??YVector3@Ogre@@QAEXABV01@@Z PROC			; Ogre::Vector3::operator+=, COMDAT
; _this$ = ecx

; 68   : 		{

	push	ebp
	mov	ebp, esp
	push	ecx
	mov	DWORD PTR _this$[ebp], ecx

; 69   : 			x += vec.x;

	mov	eax, DWORD PTR _this$[ebp]
	fld	DWORD PTR [eax]
	mov	ecx, DWORD PTR _vec$[ebp]
	fadd	DWORD PTR [ecx]
	mov	edx, DWORD PTR _this$[ebp]
	fstp	DWORD PTR [edx]

; 70   : 			y += vec.y;

	mov	eax, DWORD PTR _this$[ebp]
	fld	DWORD PTR [eax+4]
	mov	ecx, DWORD PTR _vec$[ebp]
	fadd	DWORD PTR [ecx+4]
	mov	edx, DWORD PTR _this$[ebp]
	fstp	DWORD PTR [edx+4]

; 71   : 			z += vec.z;

	mov	eax, DWORD PTR _this$[ebp]
	fld	DWORD PTR [eax+8]
	mov	ecx, DWORD PTR _vec$[ebp]
	fadd	DWORD PTR [ecx+8]
	mov	edx, DWORD PTR _this$[ebp]
	fstp	DWORD PTR [edx+8]

; 72   : 		}

	mov	esp, ebp
	pop	ebp
	ret	4
??YVector3@Ogre@@QAEXABV01@@Z ENDP			; Ogre::Vector3::operator+=
_TEXT	ENDS
PUBLIC	??ZVector3@Ogre@@QAEXABV01@@Z			; Ogre::Vector3::operator-=
; Function compile flags: /Odtp
;	COMDAT ??ZVector3@Ogre@@QAEXABV01@@Z
_TEXT	SEGMENT
_this$ = -4						; size = 4
_vec$ = 8						; size = 4
??ZVector3@Ogre@@QAEXABV01@@Z PROC			; Ogre::Vector3::operator-=, COMDAT
; _this$ = ecx

; 74   : 		{

	push	ebp
	mov	ebp, esp
	push	ecx
	mov	DWORD PTR _this$[ebp], ecx

; 75   : 			x -= vec.x;

	mov	eax, DWORD PTR _this$[ebp]
	fld	DWORD PTR [eax]
	mov	ecx, DWORD PTR _vec$[ebp]
	fsub	DWORD PTR [ecx]
	mov	edx, DWORD PTR _this$[ebp]
	fstp	DWORD PTR [edx]

; 76   : 			y -= vec.y;

	mov	eax, DWORD PTR _this$[ebp]
	fld	DWORD PTR [eax+4]
	mov	ecx, DWORD PTR _vec$[ebp]
	fsub	DWORD PTR [ecx+4]
	mov	edx, DWORD PTR _this$[ebp]
	fstp	DWORD PTR [edx+4]

; 77   : 			z -= vec.z;

	mov	eax, DWORD PTR _this$[ebp]
	fld	DWORD PTR [eax+8]
	mov	ecx, DWORD PTR _vec$[ebp]
	fsub	DWORD PTR [ecx+8]
	mov	edx, DWORD PTR _this$[ebp]
	fstp	DWORD PTR [edx+8]

; 78   : 		}

	mov	esp, ebp
	pop	ebp
	ret	4
??ZVector3@Ogre@@QAEXABV01@@Z ENDP			; Ogre::Vector3::operator-=
_TEXT	ENDS
PUBLIC	??XVector3@Ogre@@QAEXM@Z			; Ogre::Vector3::operator*=
; Function compile flags: /Odtp
;	COMDAT ??XVector3@Ogre@@QAEXM@Z
_TEXT	SEGMENT
_this$ = -4						; size = 4
_s$ = 8							; size = 4
??XVector3@Ogre@@QAEXM@Z PROC				; Ogre::Vector3::operator*=, COMDAT
; _this$ = ecx

; 81   : 		{

	push	ebp
	mov	ebp, esp
	push	ecx
	mov	DWORD PTR _this$[ebp], ecx

; 82   : 			x *= s;

	mov	eax, DWORD PTR _this$[ebp]
	fld	DWORD PTR [eax]
	fmul	DWORD PTR _s$[ebp]
	mov	ecx, DWORD PTR _this$[ebp]
	fstp	DWORD PTR [ecx]

; 83   : 			y *= s;

	mov	edx, DWORD PTR _this$[ebp]
	fld	DWORD PTR [edx+4]
	fmul	DWORD PTR _s$[ebp]
	mov	eax, DWORD PTR _this$[ebp]
	fstp	DWORD PTR [eax+4]

; 84   : 			z *= s;

	mov	ecx, DWORD PTR _this$[ebp]
	fld	DWORD PTR [ecx+8]
	fmul	DWORD PTR _s$[ebp]
	mov	edx, DWORD PTR _this$[ebp]
	fstp	DWORD PTR [edx+8]

; 85   : 		}

	mov	esp, ebp
	pop	ebp
	ret	4
??XVector3@Ogre@@QAEXM@Z ENDP				; Ogre::Vector3::operator*=
_TEXT	ENDS
PUBLIC	??XVector3@Ogre@@QAEXABV01@@Z			; Ogre::Vector3::operator*=
; Function compile flags: /Odtp
;	COMDAT ??XVector3@Ogre@@QAEXABV01@@Z
_TEXT	SEGMENT
_this$ = -4						; size = 4
_vec$ = 8						; size = 4
??XVector3@Ogre@@QAEXABV01@@Z PROC			; Ogre::Vector3::operator*=, COMDAT
; _this$ = ecx

; 88   : 		{

	push	ebp
	mov	ebp, esp
	push	ecx
	mov	DWORD PTR _this$[ebp], ecx

; 89   : 			x *= vec.x;

	mov	eax, DWORD PTR _this$[ebp]
	fld	DWORD PTR [eax]
	mov	ecx, DWORD PTR _vec$[ebp]
	fmul	DWORD PTR [ecx]
	mov	edx, DWORD PTR _this$[ebp]
	fstp	DWORD PTR [edx]

; 90   : 			y *= vec.y;

	mov	eax, DWORD PTR _this$[ebp]
	fld	DWORD PTR [eax+4]
	mov	ecx, DWORD PTR _vec$[ebp]
	fmul	DWORD PTR [ecx+4]
	mov	edx, DWORD PTR _this$[ebp]
	fstp	DWORD PTR [edx+4]

; 91   : 			z *= vec.z;

	mov	eax, DWORD PTR _this$[ebp]
	fld	DWORD PTR [eax+8]
	mov	ecx, DWORD PTR _vec$[ebp]
	fmul	DWORD PTR [ecx+8]
	mov	edx, DWORD PTR _this$[ebp]
	fstp	DWORD PTR [edx+8]

; 92   : 		}

	mov	esp, ebp
	pop	ebp
	ret	4
??XVector3@Ogre@@QAEXABV01@@Z ENDP			; Ogre::Vector3::operator*=
_TEXT	ENDS
PUBLIC	??_0Vector3@Ogre@@QAEXM@Z			; Ogre::Vector3::operator/=
; Function compile flags: /Odtp
;	COMDAT ??_0Vector3@Ogre@@QAEXM@Z
_TEXT	SEGMENT
_this$ = -4						; size = 4
_s$ = 8							; size = 4
??_0Vector3@Ogre@@QAEXM@Z PROC				; Ogre::Vector3::operator/=, COMDAT
; _this$ = ecx

; 95   : 		{

	push	ebp
	mov	ebp, esp
	push	ecx
	mov	DWORD PTR _this$[ebp], ecx

; 96   : 			x /= s;

	mov	eax, DWORD PTR _this$[ebp]
	fld	DWORD PTR [eax]
	fdiv	DWORD PTR _s$[ebp]
	mov	ecx, DWORD PTR _this$[ebp]
	fstp	DWORD PTR [ecx]

; 97   : 			y /= s;

	mov	edx, DWORD PTR _this$[ebp]
	fld	DWORD PTR [edx+4]
	fdiv	DWORD PTR _s$[ebp]
	mov	eax, DWORD PTR _this$[ebp]
	fstp	DWORD PTR [eax+4]

; 98   : 			z /= s;

	mov	ecx, DWORD PTR _this$[ebp]
	fld	DWORD PTR [ecx+8]
	fdiv	DWORD PTR _s$[ebp]
	mov	edx, DWORD PTR _this$[ebp]
	fstp	DWORD PTR [edx+8]

; 99   : 		}

	mov	esp, ebp
	pop	ebp
	ret	4
??_0Vector3@Ogre@@QAEXM@Z ENDP				; Ogre::Vector3::operator/=
_TEXT	ENDS
PUBLIC	??BVector3@Ogre@@QAEPAMXZ			; Ogre::Vector3::operator float *
; Function compile flags: /Odtp
;	COMDAT ??BVector3@Ogre@@QAEPAMXZ
_TEXT	SEGMENT
_this$ = -4						; size = 4
??BVector3@Ogre@@QAEPAMXZ PROC				; Ogre::Vector3::operator float *, COMDAT
; _this$ = ecx

; 101  : 		{

	push	ebp
	mov	ebp, esp
	push	ecx
	mov	DWORD PTR _this$[ebp], ecx

; 102  : 			return &x;

	mov	eax, DWORD PTR _this$[ebp]

; 103  : 		}

	mov	esp, ebp
	pop	ebp
	ret	0
??BVector3@Ogre@@QAEPAMXZ ENDP				; Ogre::Vector3::operator float *
_TEXT	ENDS
PUBLIC	??BVector3@Ogre@@QBEPBMXZ			; Ogre::Vector3::operator float const *
; Function compile flags: /Odtp
;	COMDAT ??BVector3@Ogre@@QBEPBMXZ
_TEXT	SEGMENT
_this$ = -4						; size = 4
??BVector3@Ogre@@QBEPBMXZ PROC				; Ogre::Vector3::operator float const *, COMDAT
; _this$ = ecx

; 105  : 		{

	push	ebp
	mov	ebp, esp
	push	ecx
	mov	DWORD PTR _this$[ebp], ecx

; 106  : 			return &x;

	mov	eax, DWORD PTR _this$[ebp]

; 107  : 		}

	mov	esp, ebp
	pop	ebp
	ret	0
??BVector3@Ogre@@QBEPBMXZ ENDP				; Ogre::Vector3::operator float const *
_TEXT	ENDS
PUBLIC	??HVector3@Ogre@@QBE?AV01@XZ			; Ogre::Vector3::operator+
; Function compile flags: /Odtp
;	COMDAT ??HVector3@Ogre@@QBE?AV01@XZ
_TEXT	SEGMENT
_this$ = -4						; size = 4
___$ReturnUdt$ = 8					; size = 4
??HVector3@Ogre@@QBE?AV01@XZ PROC			; Ogre::Vector3::operator+, COMDAT
; _this$ = ecx

; 109  : 		{

	push	ebp
	mov	ebp, esp
	push	ecx
	mov	DWORD PTR _this$[ebp], ecx

; 110  : 			return *this;

	mov	eax, DWORD PTR _this$[ebp]
	push	eax
	mov	ecx, DWORD PTR ___$ReturnUdt$[ebp]
	call	??0Vector3@Ogre@@QAE@ABV01@@Z		; Ogre::Vector3::Vector3
	mov	eax, DWORD PTR ___$ReturnUdt$[ebp]

; 111  : 		}

	mov	esp, ebp
	pop	ebp
	ret	4
??HVector3@Ogre@@QBE?AV01@XZ ENDP			; Ogre::Vector3::operator+
_TEXT	ENDS
PUBLIC	??GVector3@Ogre@@QBE?AV01@XZ			; Ogre::Vector3::operator-
; Function compile flags: /Odtp
;	COMDAT ??GVector3@Ogre@@QBE?AV01@XZ
_TEXT	SEGMENT
_this$ = -4						; size = 4
___$ReturnUdt$ = 8					; size = 4
??GVector3@Ogre@@QBE?AV01@XZ PROC			; Ogre::Vector3::operator-, COMDAT
; _this$ = ecx

; 113  : 		{

	push	ebp
	mov	ebp, esp
	push	ecx
	mov	DWORD PTR _this$[ebp], ecx

; 114  : 			return Vector3(-x, -y, -z);

	mov	eax, DWORD PTR _this$[ebp]
	fld	DWORD PTR [eax+8]
	fchs
	push	ecx
	fstp	DWORD PTR [esp]
	mov	ecx, DWORD PTR _this$[ebp]
	fld	DWORD PTR [ecx+4]
	fchs
	push	ecx
	fstp	DWORD PTR [esp]
	mov	edx, DWORD PTR _this$[ebp]
	fld	DWORD PTR [edx]
	fchs
	push	ecx
	fstp	DWORD PTR [esp]
	mov	ecx, DWORD PTR ___$ReturnUdt$[ebp]
	call	??0Vector3@Ogre@@QAE@MMM@Z		; Ogre::Vector3::Vector3
	mov	eax, DWORD PTR ___$ReturnUdt$[ebp]

; 115  : 		}

	mov	esp, ebp
	pop	ebp
	ret	4
??GVector3@Ogre@@QBE?AV01@XZ ENDP			; Ogre::Vector3::operator-
_TEXT	ENDS
PUBLIC	??8Vector3@Ogre@@QBE_NABV01@@Z			; Ogre::Vector3::operator==
; Function compile flags: /Odtp
;	COMDAT ??8Vector3@Ogre@@QBE_NABV01@@Z
_TEXT	SEGMENT
tv77 = -8						; size = 4
_this$ = -4						; size = 4
_vec$ = 8						; size = 4
??8Vector3@Ogre@@QBE_NABV01@@Z PROC			; Ogre::Vector3::operator==, COMDAT
; _this$ = ecx

; 117  : 		{

	push	ebp
	mov	ebp, esp
	sub	esp, 8
	mov	DWORD PTR _this$[ebp], ecx

; 118  : 			return (x==vec.x && y==vec.y && z==vec.z);

	mov	eax, DWORD PTR _this$[ebp]
	fld	DWORD PTR [eax]
	mov	ecx, DWORD PTR _vec$[ebp]
	fld	DWORD PTR [ecx]
	fucompp
	fnstsw	ax
	test	ah, 68					; 00000044H
	jp	SHORT $LN3@operator
	mov	edx, DWORD PTR _this$[ebp]
	fld	DWORD PTR [edx+4]
	mov	eax, DWORD PTR _vec$[ebp]
	fld	DWORD PTR [eax+4]
	fucompp
	fnstsw	ax
	test	ah, 68					; 00000044H
	jp	SHORT $LN3@operator
	mov	ecx, DWORD PTR _this$[ebp]
	fld	DWORD PTR [ecx+8]
	mov	edx, DWORD PTR _vec$[ebp]
	fld	DWORD PTR [edx+8]
	fucompp
	fnstsw	ax
	test	ah, 68					; 00000044H
	jp	SHORT $LN3@operator
	mov	DWORD PTR tv77[ebp], 1
	jmp	SHORT $LN4@operator
$LN3@operator:
	mov	DWORD PTR tv77[ebp], 0
$LN4@operator:
	mov	al, BYTE PTR tv77[ebp]

; 119  : 		}

	mov	esp, ebp
	pop	ebp
	ret	4
??8Vector3@Ogre@@QBE_NABV01@@Z ENDP			; Ogre::Vector3::operator==
_TEXT	ENDS
PUBLIC	?setElement@Vector3@Ogre@@QAEXMMM@Z		; Ogre::Vector3::setElement
; Function compile flags: /Odtp
;	COMDAT ?setElement@Vector3@Ogre@@QAEXMMM@Z
_TEXT	SEGMENT
_this$ = -4						; size = 4
_x1$ = 8						; size = 4
_y1$ = 12						; size = 4
_z1$ = 16						; size = 4
?setElement@Vector3@Ogre@@QAEXMMM@Z PROC		; Ogre::Vector3::setElement, COMDAT
; _this$ = ecx

; 121  : 		{

	push	ebp
	mov	ebp, esp
	push	ecx
	mov	DWORD PTR _this$[ebp], ecx

; 122  : 			x = x1;

	mov	eax, DWORD PTR _this$[ebp]
	fld	DWORD PTR _x1$[ebp]
	fstp	DWORD PTR [eax]

; 123  : 			y = y1;

	mov	ecx, DWORD PTR _this$[ebp]
	fld	DWORD PTR _y1$[ebp]
	fstp	DWORD PTR [ecx+4]

; 124  : 			z = z1;

	mov	edx, DWORD PTR _this$[ebp]
	fld	DWORD PTR _z1$[ebp]
	fstp	DWORD PTR [edx+8]

; 125  : 		}

	mov	esp, ebp
	pop	ebp
	ret	12					; 0000000cH
?setElement@Vector3@Ogre@@QAEXMMM@Z ENDP		; Ogre::Vector3::setElement
_TEXT	ENDS
PUBLIC	?setElement@Vector3@Ogre@@QAEXPAM@Z		; Ogre::Vector3::setElement
; Function compile flags: /Odtp
;	COMDAT ?setElement@Vector3@Ogre@@QAEXPAM@Z
_TEXT	SEGMENT
_this$ = -4						; size = 4
_p$ = 8							; size = 4
?setElement@Vector3@Ogre@@QAEXPAM@Z PROC		; Ogre::Vector3::setElement, COMDAT
; _this$ = ecx

; 127  : 		{

	push	ebp
	mov	ebp, esp
	push	ecx
	mov	DWORD PTR _this$[ebp], ecx

; 128  : 			x = p[0];

	mov	eax, DWORD PTR _this$[ebp]
	mov	ecx, DWORD PTR _p$[ebp]
	fld	DWORD PTR [ecx]
	fstp	DWORD PTR [eax]

; 129  : 			y = p[1];

	mov	edx, DWORD PTR _this$[ebp]
	mov	eax, DWORD PTR _p$[ebp]
	fld	DWORD PTR [eax+4]
	fstp	DWORD PTR [edx+4]

; 130  : 			z = p[2];

	mov	ecx, DWORD PTR _this$[ebp]
	mov	edx, DWORD PTR _p$[ebp]
	fld	DWORD PTR [edx+8]
	fstp	DWORD PTR [ecx+8]

; 131  : 		}

	mov	esp, ebp
	pop	ebp
	ret	4
?setElement@Vector3@Ogre@@QAEXPAM@Z ENDP		; Ogre::Vector3::setElement
_TEXT	ENDS
PUBLIC	?Sqrt@Ogre@@YAMM@Z				; Ogre::Sqrt
PUBLIC	?length@Vector3@Ogre@@QBEMXZ			; Ogre::Vector3::length
; Function compile flags: /Odtp
;	COMDAT ?length@Vector3@Ogre@@QBEMXZ
_TEXT	SEGMENT
tv88 = -8						; size = 4
_this$ = -4						; size = 4
?length@Vector3@Ogre@@QBEMXZ PROC			; Ogre::Vector3::length, COMDAT
; _this$ = ecx

; 133  : 		{

	push	ebp
	mov	ebp, esp
	sub	esp, 8
	mov	DWORD PTR _this$[ebp], ecx

; 134  : 			return (float)Sqrt(x*x+y*y+z*z);

	mov	eax, DWORD PTR _this$[ebp]
	fld	DWORD PTR [eax]
	mov	ecx, DWORD PTR _this$[ebp]
	fmul	DWORD PTR [ecx]
	mov	edx, DWORD PTR _this$[ebp]
	fld	DWORD PTR [edx+4]
	mov	eax, DWORD PTR _this$[ebp]
	fmul	DWORD PTR [eax+4]
	faddp	ST(1), ST(0)
	mov	ecx, DWORD PTR _this$[ebp]
	fld	DWORD PTR [ecx+8]
	mov	edx, DWORD PTR _this$[ebp]
	fmul	DWORD PTR [edx+8]
	faddp	ST(1), ST(0)
	fstp	DWORD PTR tv88[ebp]
	fld	DWORD PTR tv88[ebp]
	push	ecx
	fstp	DWORD PTR [esp]
	call	?Sqrt@Ogre@@YAMM@Z			; Ogre::Sqrt
	add	esp, 4

; 135  : 		}

	mov	esp, ebp
	pop	ebp
	ret	0
?length@Vector3@Ogre@@QBEMXZ ENDP			; Ogre::Vector3::length
_TEXT	ENDS
PUBLIC	?sqrt@@YAMM@Z					; sqrt
; Function compile flags: /Odtp
; File i:\svnroot\client\ogremain\ogremath.h
;	COMDAT ?Sqrt@Ogre@@YAMM@Z
_TEXT	SEGMENT
_x$ = 8							; size = 4
?Sqrt@Ogre@@YAMM@Z PROC					; Ogre::Sqrt, COMDAT

; 59   : 	{

	push	ebp
	mov	ebp, esp

; 60   : 		return (float)sqrt(x);

	push	ecx
	fld	DWORD PTR _x$[ebp]
	fstp	DWORD PTR [esp]
	call	?sqrt@@YAMM@Z				; sqrt
	add	esp, 4

; 61   : 	}

	pop	ebp
	ret	0
?Sqrt@Ogre@@YAMM@Z ENDP					; Ogre::Sqrt
_TEXT	ENDS
PUBLIC	_sqrtf
; Function compile flags: /Odtp
; File d:\program files (x86)\microsoft visual studio 9.0\vc\include\math.h
;	COMDAT ?sqrt@@YAMM@Z
_TEXT	SEGMENT
__X$ = 8						; size = 4
?sqrt@@YAMM@Z PROC					; sqrt, COMDAT

; 534  :         {return (sqrtf(_X)); }

	push	ebp
	mov	ebp, esp
	push	ecx
	fld	DWORD PTR __X$[ebp]
	fstp	DWORD PTR [esp]
	call	_sqrtf
	add	esp, 4
	pop	ebp
	ret	0
?sqrt@@YAMM@Z ENDP					; sqrt
_TEXT	ENDS
EXTRN	_sqrt:PROC
; Function compile flags: /Odtp
;	COMDAT _sqrtf
_TEXT	SEGMENT
tv73 = -4						; size = 4
__X$ = 8						; size = 4
_sqrtf	PROC						; COMDAT

; 423  :         {return ((float)sqrt((double)_X)); }

	push	ebp
	mov	ebp, esp
	push	ecx
	fld	DWORD PTR __X$[ebp]
	sub	esp, 8
	fstp	QWORD PTR [esp]
	call	_sqrt
	add	esp, 8
	fstp	DWORD PTR tv73[ebp]
	fld	DWORD PTR tv73[ebp]
	mov	esp, ebp
	pop	ebp
	ret	0
_sqrtf	ENDP
_TEXT	ENDS
PUBLIC	?lengthSqr@Vector3@Ogre@@QBEMXZ			; Ogre::Vector3::lengthSqr
; Function compile flags: /Odtp
; File i:\svnroot\client\ogremain\ogrevector3.h
;	COMDAT ?lengthSqr@Vector3@Ogre@@QBEMXZ
_TEXT	SEGMENT
tv88 = -8						; size = 4
_this$ = -4						; size = 4
?lengthSqr@Vector3@Ogre@@QBEMXZ PROC			; Ogre::Vector3::lengthSqr, COMDAT
; _this$ = ecx

; 137  : 		{

	push	ebp
	mov	ebp, esp
	sub	esp, 8
	mov	DWORD PTR _this$[ebp], ecx

; 138  : 			return (x*x+y*y+z*z);

	mov	eax, DWORD PTR _this$[ebp]
	fld	DWORD PTR [eax]
	mov	ecx, DWORD PTR _this$[ebp]
	fmul	DWORD PTR [ecx]
	mov	edx, DWORD PTR _this$[ebp]
	fld	DWORD PTR [edx+4]
	mov	eax, DWORD PTR _this$[ebp]
	fmul	DWORD PTR [eax+4]
	faddp	ST(1), ST(0)
	mov	ecx, DWORD PTR _this$[ebp]
	fld	DWORD PTR [ecx+8]
	mov	edx, DWORD PTR _this$[ebp]
	fmul	DWORD PTR [edx+8]
	faddp	ST(1), ST(0)
	fstp	DWORD PTR tv88[ebp]
	fld	DWORD PTR tv88[ebp]

; 139  : 		}

	mov	esp, ebp
	pop	ebp
	ret	0
?lengthSqr@Vector3@Ogre@@QBEMXZ ENDP			; Ogre::Vector3::lengthSqr
_TEXT	ENDS
PUBLIC	?getRTTI@VertexData@Ogre@@UBEPBVRuntimeClass@2@XZ ; Ogre::VertexData::getRTTI
EXTRN	?m_RTTI@VertexData@Ogre@@2VRuntimeClass@2@B:BYTE ; Ogre::VertexData::m_RTTI
; Function compile flags: /Odtp
; File i:\svnroot\client\ogremain\ogrevertexindexdata.h
;	COMDAT ?getRTTI@VertexData@Ogre@@UBEPBVRuntimeClass@2@XZ
_TEXT	SEGMENT
_this$ = -4						; size = 4
?getRTTI@VertexData@Ogre@@UBEPBVRuntimeClass@2@XZ PROC	; Ogre::VertexData::getRTTI, COMDAT
; _this$ = ecx

; 15   : 		DECLARE_RTTI(VertexData);

	push	ebp
	mov	ebp, esp
	push	ecx
	mov	DWORD PTR _this$[ebp], ecx
	mov	eax, OFFSET ?m_RTTI@VertexData@Ogre@@2VRuntimeClass@2@B ; Ogre::VertexData::m_RTTI
	mov	esp, ebp
	pop	ebp
	ret	0
?getRTTI@VertexData@Ogre@@UBEPBVRuntimeClass@2@XZ ENDP	; Ogre::VertexData::getRTTI
_TEXT	ENDS
PUBLIC	?newObject@VertexData@Ogre@@SAPAVBaseObject@2@XZ ; Ogre::VertexData::newObject
EXTRN	??0VertexData@Ogre@@QAE@XZ:PROC			; Ogre::VertexData::VertexData
;	COMDAT xdata$x
xdata$x	SEGMENT
__unwindtable$?newObject@VertexData@Ogre@@SAPAVBaseObject@2@XZ DD 0ffffffffH
	DD	FLAT:__unwindfunclet$?newObject@VertexData@Ogre@@SAPAVBaseObject@2@XZ$0
__ehfuncinfo$?newObject@VertexData@Ogre@@SAPAVBaseObject@2@XZ DD 019930522H
	DD	01H
	DD	FLAT:__unwindtable$?newObject@VertexData@Ogre@@SAPAVBaseObject@2@XZ
	DD	2 DUP(00H)
	DD	2 DUP(00H)
	DD	00H
	DD	00H
; Function compile flags: /Odtp
xdata$x	ENDS
;	COMDAT ?newObject@VertexData@Ogre@@SAPAVBaseObject@2@XZ
_TEXT	SEGMENT
tv75 = -24						; size = 4
$T74457 = -20						; size = 4
$T74456 = -16						; size = 4
__$EHRec$ = -12						; size = 12
?newObject@VertexData@Ogre@@SAPAVBaseObject@2@XZ PROC	; Ogre::VertexData::newObject, COMDAT

; 15   : 		DECLARE_RTTI(VertexData);

	push	ebp
	mov	ebp, esp
	push	-1
	push	__ehhandler$?newObject@VertexData@Ogre@@SAPAVBaseObject@2@XZ
	mov	eax, DWORD PTR fs:0
	push	eax
	sub	esp, 12					; 0000000cH
	mov	eax, DWORD PTR ___security_cookie
	xor	eax, ebp
	push	eax
	lea	eax, DWORD PTR __$EHRec$[ebp]
	mov	DWORD PTR fs:0, eax
	push	104					; 00000068H
	call	??2MemoryDelegation@Ogre@@SAPAXI@Z	; Ogre::MemoryDelegation::operator new
	add	esp, 4
	mov	DWORD PTR $T74457[ebp], eax
	mov	DWORD PTR __$EHRec$[ebp+8], 0
	cmp	DWORD PTR $T74457[ebp], 0
	je	SHORT $LN3@newObject@2
	mov	ecx, DWORD PTR $T74457[ebp]
	call	??0VertexData@Ogre@@QAE@XZ		; Ogre::VertexData::VertexData
	mov	DWORD PTR tv75[ebp], eax
	jmp	SHORT $LN4@newObject@2
$LN3@newObject@2:
	mov	DWORD PTR tv75[ebp], 0
$LN4@newObject@2:
	mov	eax, DWORD PTR tv75[ebp]
	mov	DWORD PTR $T74456[ebp], eax
	mov	DWORD PTR __$EHRec$[ebp+8], -1
	mov	eax, DWORD PTR $T74456[ebp]
	mov	ecx, DWORD PTR __$EHRec$[ebp]
	mov	DWORD PTR fs:0, ecx
	pop	ecx
	mov	esp, ebp
	pop	ebp
	ret	0
_TEXT	ENDS
;	COMDAT text$x
text$x	SEGMENT
__unwindfunclet$?newObject@VertexData@Ogre@@SAPAVBaseObject@2@XZ$0:
	push	104					; 00000068H
	mov	eax, DWORD PTR $T74457[ebp]
	push	eax
	call	??3MemoryDelegation@Ogre@@SAXPAXI@Z	; Ogre::MemoryDelegation::operator delete
	add	esp, 8
	ret	0
__ehhandler$?newObject@VertexData@Ogre@@SAPAVBaseObject@2@XZ:
	mov	edx, DWORD PTR [esp+8]
	lea	eax, DWORD PTR [edx+12]
	mov	ecx, DWORD PTR [edx-16]
	xor	ecx, eax
	call	@__security_check_cookie@4
	mov	eax, OFFSET __ehfuncinfo$?newObject@VertexData@Ogre@@SAPAVBaseObject@2@XZ
	jmp	___CxxFrameHandler3
text$x	ENDS
?newObject@VertexData@Ogre@@SAPAVBaseObject@2@XZ ENDP	; Ogre::VertexData::newObject
PUBLIC	?getNumVertex@VertexData@Ogre@@QAEIXZ		; Ogre::VertexData::getNumVertex
; Function compile flags: /Odtp
;	COMDAT ?getNumVertex@VertexData@Ogre@@QAEIXZ
_TEXT	SEGMENT
_this$ = -4						; size = 4
?getNumVertex@VertexData@Ogre@@QAEIXZ PROC		; Ogre::VertexData::getNumVertex, COMDAT
; _this$ = ecx

; 28   : 		{

	push	ebp
	mov	ebp, esp
	push	ecx
	mov	DWORD PTR _this$[ebp], ecx

; 29   : 			return m_nVertex;

	mov	eax, DWORD PTR _this$[ebp]
	mov	eax, DWORD PTR [eax+64]

; 30   : 		}

	mov	esp, ebp
	pop	ebp
	ret	0
?getNumVertex@VertexData@Ogre@@QAEIXZ ENDP		; Ogre::VertexData::getNumVertex
_TEXT	ENDS
PUBLIC	??A?$vector@DV?$allocator@D@std@@@std@@QAEAADI@Z ; std::vector<char,std::allocator<char> >::operator[]
PUBLIC	?getVertexElement@VertexData@Ogre@@QAEPADIW4VertexElementSemantic@2@@Z ; Ogre::VertexData::getVertexElement
EXTRN	?getElementBySemantic@VertexFormat@Ogre@@QBEPBVVertexElement@2@W4VertexElementSemantic@2@H@Z:PROC ; Ogre::VertexFormat::getElementBySemantic
; Function compile flags: /Odtp
;	COMDAT ?getVertexElement@VertexData@Ogre@@QAEPADIW4VertexElementSemantic@2@@Z
_TEXT	SEGMENT
_this$ = -12						; size = 4
_offset$ = -8						; size = 4
_pelement$ = -4						; size = 4
_ivert$ = 8						; size = 4
_ves$ = 12						; size = 4
?getVertexElement@VertexData@Ogre@@QAEPADIW4VertexElementSemantic@2@@Z PROC ; Ogre::VertexData::getVertexElement, COMDAT
; _this$ = ecx

; 33   : 		{

	push	ebp
	mov	ebp, esp
	sub	esp, 12					; 0000000cH
	mov	DWORD PTR _this$[ebp], ecx

; 34   : 			const VertexElement *pelement = m_VertFormat.getElementBySemantic(ves);

	push	-1
	mov	eax, DWORD PTR _ves$[ebp]
	push	eax
	mov	ecx, DWORD PTR _this$[ebp]
	add	ecx, 16					; 00000010H
	call	?getElementBySemantic@VertexFormat@Ogre@@QBEPBVVertexElement@2@W4VertexElementSemantic@2@H@Z ; Ogre::VertexFormat::getElementBySemantic
	mov	DWORD PTR _pelement$[ebp], eax

; 35   : 			if(pelement == NULL) return NULL;

	cmp	DWORD PTR _pelement$[ebp], 0
	jne	SHORT $LN1@getVertexE
	xor	eax, eax
	jmp	SHORT $LN2@getVertexE
$LN1@getVertexE:

; 36   : 
; 37   : 			uint offset = (uint)ivert*m_Stride + pelement->m_Offset;

	mov	ecx, DWORD PTR _this$[ebp]
	mov	edx, DWORD PTR _ivert$[ebp]
	imul	edx, DWORD PTR [ecx+68]
	mov	eax, DWORD PTR _pelement$[ebp]
	mov	ecx, DWORD PTR [eax]
	shr	ecx, 4
	and	ecx, 255				; 000000ffH
	add	edx, ecx
	mov	DWORD PTR _offset$[ebp], edx

; 38   : 			return &m_VertData[0] + offset;

	push	0
	mov	ecx, DWORD PTR _this$[ebp]
	add	ecx, 72					; 00000048H
	call	??A?$vector@DV?$allocator@D@std@@@std@@QAEAADI@Z ; std::vector<char,std::allocator<char> >::operator[]
	add	eax, DWORD PTR _offset$[ebp]
$LN2@getVertexE:

; 39   : 		}

	mov	esp, ebp
	pop	ebp
	ret	8
?getVertexElement@VertexData@Ogre@@QAEPADIW4VertexElementSemantic@2@@Z ENDP ; Ogre::VertexData::getVertexElement
_TEXT	ENDS
PUBLIC	?getPosition@VertexData@Ogre@@QAEPADI@Z		; Ogre::VertexData::getPosition
; Function compile flags: /Odtp
;	COMDAT ?getPosition@VertexData@Ogre@@QAEPADI@Z
_TEXT	SEGMENT
_this$ = -4						; size = 4
_ivert$ = 8						; size = 4
?getPosition@VertexData@Ogre@@QAEPADI@Z PROC		; Ogre::VertexData::getPosition, COMDAT
; _this$ = ecx

; 42   : 		{

	push	ebp
	mov	ebp, esp
	push	ecx
	mov	DWORD PTR _this$[ebp], ecx

; 43   : 			return getVertexElement(ivert, VES_POSITION);

	push	1
	mov	eax, DWORD PTR _ivert$[ebp]
	push	eax
	mov	ecx, DWORD PTR _this$[ebp]
	call	?getVertexElement@VertexData@Ogre@@QAEPADIW4VertexElementSemantic@2@@Z ; Ogre::VertexData::getVertexElement

; 44   : 		}

	mov	esp, ebp
	pop	ebp
	ret	4
?getPosition@VertexData@Ogre@@QAEPADI@Z ENDP		; Ogre::VertexData::getPosition
_TEXT	ENDS
PUBLIC	?getNormal@VertexData@Ogre@@QAEPADI@Z		; Ogre::VertexData::getNormal
; Function compile flags: /Odtp
;	COMDAT ?getNormal@VertexData@Ogre@@QAEPADI@Z
_TEXT	SEGMENT
_this$ = -4						; size = 4
_ivert$ = 8						; size = 4
?getNormal@VertexData@Ogre@@QAEPADI@Z PROC		; Ogre::VertexData::getNormal, COMDAT
; _this$ = ecx

; 47   : 		{

	push	ebp
	mov	ebp, esp
	push	ecx
	mov	DWORD PTR _this$[ebp], ecx

; 48   : 			return getVertexElement(ivert, VES_NORMAL);

	push	4
	mov	eax, DWORD PTR _ivert$[ebp]
	push	eax
	mov	ecx, DWORD PTR _this$[ebp]
	call	?getVertexElement@VertexData@Ogre@@QAEPADIW4VertexElementSemantic@2@@Z ; Ogre::VertexData::getVertexElement

; 49   : 		}

	mov	esp, ebp
	pop	ebp
	ret	4
?getNormal@VertexData@Ogre@@QAEPADI@Z ENDP		; Ogre::VertexData::getNormal
_TEXT	ENDS
PUBLIC	?getColor@VertexData@Ogre@@QAEPADI@Z		; Ogre::VertexData::getColor
; Function compile flags: /Odtp
;	COMDAT ?getColor@VertexData@Ogre@@QAEPADI@Z
_TEXT	SEGMENT
_this$ = -4						; size = 4
_ivert$ = 8						; size = 4
?getColor@VertexData@Ogre@@QAEPADI@Z PROC		; Ogre::VertexData::getColor, COMDAT
; _this$ = ecx

; 52   : 		{

	push	ebp
	mov	ebp, esp
	push	ecx
	mov	DWORD PTR _this$[ebp], ecx

; 53   : 			return getVertexElement(ivert, VES_COLOR);

	push	5
	mov	eax, DWORD PTR _ivert$[ebp]
	push	eax
	mov	ecx, DWORD PTR _this$[ebp]
	call	?getVertexElement@VertexData@Ogre@@QAEPADIW4VertexElementSemantic@2@@Z ; Ogre::VertexData::getVertexElement

; 54   : 		}

	mov	esp, ebp
	pop	ebp
	ret	4
?getColor@VertexData@Ogre@@QAEPADI@Z ENDP		; Ogre::VertexData::getColor
_TEXT	ENDS
PUBLIC	??4?$vector@DV?$allocator@D@std@@@std@@QAEAAV01@ABV01@@Z ; std::vector<char,std::allocator<char> >::operator=
PUBLIC	??4VertexData@Ogre@@QAEAAV01@ABV01@@Z		; Ogre::VertexData::operator=
EXTRN	??4VertexFormat@Ogre@@QAEAAV01@ABV01@@Z:PROC	; Ogre::VertexFormat::operator=
; Function compile flags: /Odtp
;	COMDAT ??4VertexData@Ogre@@QAEAAV01@ABV01@@Z
_TEXT	SEGMENT
_this$ = -4						; size = 4
___that$ = 8						; size = 4
??4VertexData@Ogre@@QAEAAV01@ABV01@@Z PROC		; Ogre::VertexData::operator=, COMDAT
; _this$ = ecx
	push	ebp
	mov	ebp, esp
	push	ecx
	mov	DWORD PTR _this$[ebp], ecx
	mov	eax, DWORD PTR ___that$[ebp]
	push	eax
	mov	ecx, DWORD PTR _this$[ebp]
	call	??4VertexBuffer@Ogre@@QAEAAV01@ABV01@@Z
	mov	ecx, DWORD PTR ___that$[ebp]
	add	ecx, 16					; 00000010H
	push	ecx
	mov	ecx, DWORD PTR _this$[ebp]
	add	ecx, 16					; 00000010H
	call	??4VertexFormat@Ogre@@QAEAAV01@ABV01@@Z	; Ogre::VertexFormat::operator=
	mov	edx, DWORD PTR ___that$[ebp]
	add	edx, 40					; 00000028H
	push	edx
	mov	ecx, DWORD PTR _this$[ebp]
	add	ecx, 40					; 00000028H
	call	??4Vector3@Ogre@@QAEABV01@ABV01@@Z	; Ogre::Vector3::operator=
	mov	eax, DWORD PTR ___that$[ebp]
	add	eax, 52					; 00000034H
	push	eax
	mov	ecx, DWORD PTR _this$[ebp]
	add	ecx, 52					; 00000034H
	call	??4Vector3@Ogre@@QAEABV01@ABV01@@Z	; Ogre::Vector3::operator=
	mov	ecx, DWORD PTR _this$[ebp]
	mov	edx, DWORD PTR ___that$[ebp]
	mov	eax, DWORD PTR [edx+64]
	mov	DWORD PTR [ecx+64], eax
	mov	ecx, DWORD PTR _this$[ebp]
	mov	edx, DWORD PTR ___that$[ebp]
	mov	eax, DWORD PTR [edx+68]
	mov	DWORD PTR [ecx+68], eax
	mov	ecx, DWORD PTR ___that$[ebp]
	add	ecx, 72					; 00000048H
	push	ecx
	mov	ecx, DWORD PTR _this$[ebp]
	add	ecx, 72					; 00000048H
	call	??4?$vector@DV?$allocator@D@std@@@std@@QAEAAV01@ABV01@@Z ; std::vector<char,std::allocator<char> >::operator=
	mov	edx, DWORD PTR _this$[ebp]
	mov	eax, DWORD PTR ___that$[ebp]
	mov	ecx, DWORD PTR [eax+96]
	mov	DWORD PTR [edx+96], ecx
	mov	edx, DWORD PTR _this$[ebp]
	mov	eax, DWORD PTR ___that$[ebp]
	mov	ecx, DWORD PTR [eax+100]
	mov	DWORD PTR [edx+100], ecx
	mov	eax, DWORD PTR _this$[ebp]
	mov	esp, ebp
	pop	ebp
	ret	4
??4VertexData@Ogre@@QAEAAV01@ABV01@@Z ENDP		; Ogre::VertexData::operator=
_TEXT	ENDS
PUBLIC	?getRTTI@IndexData@Ogre@@UBEPBVRuntimeClass@2@XZ ; Ogre::IndexData::getRTTI
EXTRN	?m_RTTI@IndexData@Ogre@@2VRuntimeClass@2@B:BYTE	; Ogre::IndexData::m_RTTI
; Function compile flags: /Odtp
;	COMDAT ?getRTTI@IndexData@Ogre@@UBEPBVRuntimeClass@2@XZ
_TEXT	SEGMENT
_this$ = -4						; size = 4
?getRTTI@IndexData@Ogre@@UBEPBVRuntimeClass@2@XZ PROC	; Ogre::IndexData::getRTTI, COMDAT
; _this$ = ecx

; 91   : 		DECLARE_RTTI(IndexData)

	push	ebp
	mov	ebp, esp
	push	ecx
	mov	DWORD PTR _this$[ebp], ecx
	mov	eax, OFFSET ?m_RTTI@IndexData@Ogre@@2VRuntimeClass@2@B ; Ogre::IndexData::m_RTTI
	mov	esp, ebp
	pop	ebp
	ret	0
?getRTTI@IndexData@Ogre@@UBEPBVRuntimeClass@2@XZ ENDP	; Ogre::IndexData::getRTTI
_TEXT	ENDS
PUBLIC	?newObject@IndexData@Ogre@@SAPAVBaseObject@2@XZ	; Ogre::IndexData::newObject
EXTRN	??0IndexData@Ogre@@QAE@XZ:PROC			; Ogre::IndexData::IndexData
;	COMDAT xdata$x
xdata$x	SEGMENT
__unwindtable$?newObject@IndexData@Ogre@@SAPAVBaseObject@2@XZ DD 0ffffffffH
	DD	FLAT:__unwindfunclet$?newObject@IndexData@Ogre@@SAPAVBaseObject@2@XZ$0
__ehfuncinfo$?newObject@IndexData@Ogre@@SAPAVBaseObject@2@XZ DD 019930522H
	DD	01H
	DD	FLAT:__unwindtable$?newObject@IndexData@Ogre@@SAPAVBaseObject@2@XZ
	DD	2 DUP(00H)
	DD	2 DUP(00H)
	DD	00H
	DD	00H
; Function compile flags: /Odtp
xdata$x	ENDS
;	COMDAT ?newObject@IndexData@Ogre@@SAPAVBaseObject@2@XZ
_TEXT	SEGMENT
tv75 = -24						; size = 4
$T74484 = -20						; size = 4
$T74483 = -16						; size = 4
__$EHRec$ = -12						; size = 12
?newObject@IndexData@Ogre@@SAPAVBaseObject@2@XZ PROC	; Ogre::IndexData::newObject, COMDAT

; 91   : 		DECLARE_RTTI(IndexData)

	push	ebp
	mov	ebp, esp
	push	-1
	push	__ehhandler$?newObject@IndexData@Ogre@@SAPAVBaseObject@2@XZ
	mov	eax, DWORD PTR fs:0
	push	eax
	sub	esp, 12					; 0000000cH
	mov	eax, DWORD PTR ___security_cookie
	xor	eax, ebp
	push	eax
	lea	eax, DWORD PTR __$EHRec$[ebp]
	mov	DWORD PTR fs:0, eax
	push	52					; 00000034H
	call	??2MemoryDelegation@Ogre@@SAPAXI@Z	; Ogre::MemoryDelegation::operator new
	add	esp, 4
	mov	DWORD PTR $T74484[ebp], eax
	mov	DWORD PTR __$EHRec$[ebp+8], 0
	cmp	DWORD PTR $T74484[ebp], 0
	je	SHORT $LN3@newObject@3
	mov	ecx, DWORD PTR $T74484[ebp]
	call	??0IndexData@Ogre@@QAE@XZ		; Ogre::IndexData::IndexData
	mov	DWORD PTR tv75[ebp], eax
	jmp	SHORT $LN4@newObject@3
$LN3@newObject@3:
	mov	DWORD PTR tv75[ebp], 0
$LN4@newObject@3:
	mov	eax, DWORD PTR tv75[ebp]
	mov	DWORD PTR $T74483[ebp], eax
	mov	DWORD PTR __$EHRec$[ebp+8], -1
	mov	eax, DWORD PTR $T74483[ebp]
	mov	ecx, DWORD PTR __$EHRec$[ebp]
	mov	DWORD PTR fs:0, ecx
	pop	ecx
	mov	esp, ebp
	pop	ebp
	ret	0
_TEXT	ENDS
;	COMDAT text$x
text$x	SEGMENT
__unwindfunclet$?newObject@IndexData@Ogre@@SAPAVBaseObject@2@XZ$0:
	push	52					; 00000034H
	mov	eax, DWORD PTR $T74484[ebp]
	push	eax
	call	??3MemoryDelegation@Ogre@@SAXPAXI@Z	; Ogre::MemoryDelegation::operator delete
	add	esp, 8
	ret	0
__ehhandler$?newObject@IndexData@Ogre@@SAPAVBaseObject@2@XZ:
	mov	edx, DWORD PTR [esp+8]
	lea	eax, DWORD PTR [edx+12]
	mov	ecx, DWORD PTR [edx-16]
	xor	ecx, eax
	call	@__security_check_cookie@4
	mov	eax, OFFSET __ehfuncinfo$?newObject@IndexData@Ogre@@SAPAVBaseObject@2@XZ
	jmp	___CxxFrameHandler3
text$x	ENDS
?newObject@IndexData@Ogre@@SAPAVBaseObject@2@XZ ENDP	; Ogre::IndexData::newObject
PUBLIC	?size@?$vector@GV?$allocator@G@std@@@std@@QBEIXZ ; std::vector<unsigned short,std::allocator<unsigned short> >::size
PUBLIC	?isUsed@IndexData@Ogre@@QAE_NXZ			; Ogre::IndexData::isUsed
; Function compile flags: /Odtp
;	COMDAT ?isUsed@IndexData@Ogre@@QAE_NXZ
_TEXT	SEGMENT
_this$ = -4						; size = 4
?isUsed@IndexData@Ogre@@QAE_NXZ PROC			; Ogre::IndexData::isUsed, COMDAT
; _this$ = ecx

; 101  : 		{

	push	ebp
	mov	ebp, esp
	push	ecx
	mov	DWORD PTR _this$[ebp], ecx

; 102  : 			return m_IndexData.size() > 0;

	mov	ecx, DWORD PTR _this$[ebp]
	add	ecx, 24					; 00000018H
	call	?size@?$vector@GV?$allocator@G@std@@@std@@QBEIXZ ; std::vector<unsigned short,std::allocator<unsigned short> >::size
	xor	ecx, ecx
	cmp	ecx, eax
	sbb	eax, eax
	neg	eax

; 103  : 		}

	mov	esp, ebp
	pop	ebp
	ret	0
?isUsed@IndexData@Ogre@@QAE_NXZ ENDP			; Ogre::IndexData::isUsed
_TEXT	ENDS
PUBLIC	?getNumIndex@IndexData@Ogre@@QAEIXZ		; Ogre::IndexData::getNumIndex
; Function compile flags: /Odtp
;	COMDAT ?getNumIndex@IndexData@Ogre@@QAEIXZ
_TEXT	SEGMENT
_this$ = -4						; size = 4
?getNumIndex@IndexData@Ogre@@QAEIXZ PROC		; Ogre::IndexData::getNumIndex, COMDAT
; _this$ = ecx

; 106  : 		{

	push	ebp
	mov	ebp, esp
	push	ecx
	mov	DWORD PTR _this$[ebp], ecx

; 107  : 			return m_IndexData.size();

	mov	ecx, DWORD PTR _this$[ebp]
	add	ecx, 24					; 00000018H
	call	?size@?$vector@GV?$allocator@G@std@@@std@@QBEIXZ ; std::vector<unsigned short,std::allocator<unsigned short> >::size

; 108  : 		}

	mov	esp, ebp
	pop	ebp
	ret	0
?getNumIndex@IndexData@Ogre@@QAEIXZ ENDP		; Ogre::IndexData::getNumIndex
_TEXT	ENDS
PUBLIC	??4?$vector@GV?$allocator@G@std@@@std@@QAEAAV01@ABV01@@Z ; std::vector<unsigned short,std::allocator<unsigned short> >::operator=
PUBLIC	??4IndexData@Ogre@@QAEAAV01@ABV01@@Z		; Ogre::IndexData::operator=
; Function compile flags: /Odtp
;	COMDAT ??4IndexData@Ogre@@QAEAAV01@ABV01@@Z
_TEXT	SEGMENT
_this$ = -4						; size = 4
___that$ = 8						; size = 4
??4IndexData@Ogre@@QAEAAV01@ABV01@@Z PROC		; Ogre::IndexData::operator=, COMDAT
; _this$ = ecx
	push	ebp
	mov	ebp, esp
	push	ecx
	mov	DWORD PTR _this$[ebp], ecx
	mov	eax, DWORD PTR ___that$[ebp]
	push	eax
	mov	ecx, DWORD PTR _this$[ebp]
	call	??4IndexBuffer@Ogre@@QAEAAV01@ABV01@@Z
	mov	ecx, DWORD PTR ___that$[ebp]
	add	ecx, 24					; 00000018H
	push	ecx
	mov	ecx, DWORD PTR _this$[ebp]
	add	ecx, 24					; 00000018H
	call	??4?$vector@GV?$allocator@G@std@@@std@@QAEAAV01@ABV01@@Z ; std::vector<unsigned short,std::allocator<unsigned short> >::operator=
	mov	edx, DWORD PTR _this$[ebp]
	mov	eax, DWORD PTR ___that$[ebp]
	mov	ecx, DWORD PTR [eax+48]
	mov	DWORD PTR [edx+48], ecx
	mov	eax, DWORD PTR _this$[ebp]
	mov	esp, ebp
	pop	ebp
	ret	4
??4IndexData@Ogre@@QAEAAV01@ABV01@@Z ENDP		; Ogre::IndexData::operator=
_TEXT	ENDS
PUBLIC	?getRTTI@DynamicVertexBuffer@Ogre@@UBEPBVRuntimeClass@2@XZ ; Ogre::DynamicVertexBuffer::getRTTI
EXTRN	?m_RTTI@DynamicVertexBuffer@Ogre@@2VRuntimeClass@2@B:BYTE ; Ogre::DynamicVertexBuffer::m_RTTI
; Function compile flags: /Odtp
;	COMDAT ?getRTTI@DynamicVertexBuffer@Ogre@@UBEPBVRuntimeClass@2@XZ
_TEXT	SEGMENT
_this$ = -4						; size = 4
?getRTTI@DynamicVertexBuffer@Ogre@@UBEPBVRuntimeClass@2@XZ PROC ; Ogre::DynamicVertexBuffer::getRTTI, COMDAT
; _this$ = ecx

; 126  : 		DECLARE_RTTI(DynamicVertexBuffer)

	push	ebp
	mov	ebp, esp
	push	ecx
	mov	DWORD PTR _this$[ebp], ecx
	mov	eax, OFFSET ?m_RTTI@DynamicVertexBuffer@Ogre@@2VRuntimeClass@2@B ; Ogre::DynamicVertexBuffer::m_RTTI
	mov	esp, ebp
	pop	ebp
	ret	0
?getRTTI@DynamicVertexBuffer@Ogre@@UBEPBVRuntimeClass@2@XZ ENDP ; Ogre::DynamicVertexBuffer::getRTTI
_TEXT	ENDS
PUBLIC	??0DynamicVertexBuffer@Ogre@@QAE@XZ		; Ogre::DynamicVertexBuffer::DynamicVertexBuffer
PUBLIC	?newObject@DynamicVertexBuffer@Ogre@@SAPAVBaseObject@2@XZ ; Ogre::DynamicVertexBuffer::newObject
;	COMDAT xdata$x
xdata$x	SEGMENT
__unwindtable$?newObject@DynamicVertexBuffer@Ogre@@SAPAVBaseObject@2@XZ DD 0ffffffffH
	DD	FLAT:__unwindfunclet$?newObject@DynamicVertexBuffer@Ogre@@SAPAVBaseObject@2@XZ$0
__ehfuncinfo$?newObject@DynamicVertexBuffer@Ogre@@SAPAVBaseObject@2@XZ DD 019930522H
	DD	01H
	DD	FLAT:__unwindtable$?newObject@DynamicVertexBuffer@Ogre@@SAPAVBaseObject@2@XZ
	DD	2 DUP(00H)
	DD	2 DUP(00H)
	DD	00H
	DD	00H
; Function compile flags: /Odtp
xdata$x	ENDS
;	COMDAT ?newObject@DynamicVertexBuffer@Ogre@@SAPAVBaseObject@2@XZ
_TEXT	SEGMENT
tv75 = -24						; size = 4
$T74505 = -20						; size = 4
$T74504 = -16						; size = 4
__$EHRec$ = -12						; size = 12
?newObject@DynamicVertexBuffer@Ogre@@SAPAVBaseObject@2@XZ PROC ; Ogre::DynamicVertexBuffer::newObject, COMDAT

; 126  : 		DECLARE_RTTI(DynamicVertexBuffer)

	push	ebp
	mov	ebp, esp
	push	-1
	push	__ehhandler$?newObject@DynamicVertexBuffer@Ogre@@SAPAVBaseObject@2@XZ
	mov	eax, DWORD PTR fs:0
	push	eax
	sub	esp, 12					; 0000000cH
	mov	eax, DWORD PTR ___security_cookie
	xor	eax, ebp
	push	eax
	lea	eax, DWORD PTR __$EHRec$[ebp]
	mov	DWORD PTR fs:0, eax
	push	56					; 00000038H
	call	??2MemoryDelegation@Ogre@@SAPAXI@Z	; Ogre::MemoryDelegation::operator new
	add	esp, 4
	mov	DWORD PTR $T74505[ebp], eax
	mov	DWORD PTR __$EHRec$[ebp+8], 0
	cmp	DWORD PTR $T74505[ebp], 0
	je	SHORT $LN3@newObject@4
	mov	ecx, DWORD PTR $T74505[ebp]
	call	??0DynamicVertexBuffer@Ogre@@QAE@XZ	; Ogre::DynamicVertexBuffer::DynamicVertexBuffer
	mov	DWORD PTR tv75[ebp], eax
	jmp	SHORT $LN4@newObject@4
$LN3@newObject@4:
	mov	DWORD PTR tv75[ebp], 0
$LN4@newObject@4:
	mov	eax, DWORD PTR tv75[ebp]
	mov	DWORD PTR $T74504[ebp], eax
	mov	DWORD PTR __$EHRec$[ebp+8], -1
	mov	eax, DWORD PTR $T74504[ebp]
	mov	ecx, DWORD PTR __$EHRec$[ebp]
	mov	DWORD PTR fs:0, ecx
	pop	ecx
	mov	esp, ebp
	pop	ebp
	ret	0
_TEXT	ENDS
;	COMDAT text$x
text$x	SEGMENT
__unwindfunclet$?newObject@DynamicVertexBuffer@Ogre@@SAPAVBaseObject@2@XZ$0:
	push	56					; 00000038H
	mov	eax, DWORD PTR $T74505[ebp]
	push	eax
	call	??3MemoryDelegation@Ogre@@SAXPAXI@Z	; Ogre::MemoryDelegation::operator delete
	add	esp, 8
	ret	0
__ehhandler$?newObject@DynamicVertexBuffer@Ogre@@SAPAVBaseObject@2@XZ:
	mov	edx, DWORD PTR [esp+8]
	lea	eax, DWORD PTR [edx+12]
	mov	ecx, DWORD PTR [edx-16]
	xor	ecx, eax
	call	@__security_check_cookie@4
	mov	eax, OFFSET __ehfuncinfo$?newObject@DynamicVertexBuffer@Ogre@@SAPAVBaseObject@2@XZ
	jmp	___CxxFrameHandler3
text$x	ENDS
?newObject@DynamicVertexBuffer@Ogre@@SAPAVBaseObject@2@XZ ENDP ; Ogre::DynamicVertexBuffer::newObject
PUBLIC	??_7DynamicVertexBuffer@Ogre@@6B@		; Ogre::DynamicVertexBuffer::`vftable'
PUBLIC	??_R4DynamicVertexBuffer@Ogre@@6B@		; Ogre::DynamicVertexBuffer::`RTTI Complete Object Locator'
PUBLIC	??_R0?AVDynamicVertexBuffer@Ogre@@@8		; Ogre::DynamicVertexBuffer `RTTI Type Descriptor'
PUBLIC	??_R3DynamicVertexBuffer@Ogre@@8		; Ogre::DynamicVertexBuffer::`RTTI Class Hierarchy Descriptor'
PUBLIC	??_R2DynamicVertexBuffer@Ogre@@8		; Ogre::DynamicVertexBuffer::`RTTI Base Class Array'
PUBLIC	??_R1A@?0A@EA@DynamicVertexBuffer@Ogre@@8	; Ogre::DynamicVertexBuffer::`RTTI Base Class Descriptor at (0,-1,0,64)'
PUBLIC	??_EDynamicVertexBuffer@Ogre@@EAEPAXI@Z		; Ogre::DynamicVertexBuffer::`vector deleting destructor'
EXTRN	??1VertexFormat@Ogre@@QAE@XZ:PROC		; Ogre::VertexFormat::~VertexFormat
EXTRN	??0VertexFormat@Ogre@@QAE@XZ:PROC		; Ogre::VertexFormat::VertexFormat
EXTRN	?getHBuf@DynamicVertexBuffer@Ogre@@UAEPAVHardwareVertexBuffer@2@XZ:PROC ; Ogre::DynamicVertexBuffer::getHBuf
;	COMDAT ??_R1A@?0A@EA@DynamicVertexBuffer@Ogre@@8
rdata$r	SEGMENT
??_R1A@?0A@EA@DynamicVertexBuffer@Ogre@@8 DD FLAT:??_R0?AVDynamicVertexBuffer@Ogre@@@8 ; Ogre::DynamicVertexBuffer::`RTTI Base Class Descriptor at (0,-1,0,64)'
	DD	04H
	DD	00H
	DD	0ffffffffH
	DD	00H
	DD	040H
	DD	FLAT:??_R3DynamicVertexBuffer@Ogre@@8
rdata$r	ENDS
;	COMDAT ??_R2DynamicVertexBuffer@Ogre@@8
rdata$r	SEGMENT
??_R2DynamicVertexBuffer@Ogre@@8 DD FLAT:??_R1A@?0A@EA@DynamicVertexBuffer@Ogre@@8 ; Ogre::DynamicVertexBuffer::`RTTI Base Class Array'
	DD	FLAT:??_R1A@?0A@EA@VertexBuffer@Ogre@@8
	DD	FLAT:??_R1A@?0A@EA@Resource@Ogre@@8
	DD	FLAT:??_R1A@?0A@EA@BaseObject@Ogre@@8
	DD	FLAT:??_R13?0A@EA@MemoryDelegation@Ogre@@8
rdata$r	ENDS
;	COMDAT ??_R3DynamicVertexBuffer@Ogre@@8
rdata$r	SEGMENT
??_R3DynamicVertexBuffer@Ogre@@8 DD 00H			; Ogre::DynamicVertexBuffer::`RTTI Class Hierarchy Descriptor'
	DD	00H
	DD	05H
	DD	FLAT:??_R2DynamicVertexBuffer@Ogre@@8
rdata$r	ENDS
;	COMDAT ??_R0?AVDynamicVertexBuffer@Ogre@@@8
_DATA	SEGMENT
??_R0?AVDynamicVertexBuffer@Ogre@@@8 DD FLAT:??_7type_info@@6B@ ; Ogre::DynamicVertexBuffer `RTTI Type Descriptor'
	DD	00H
	DB	'.?AVDynamicVertexBuffer@Ogre@@', 00H
_DATA	ENDS
;	COMDAT ??_R4DynamicVertexBuffer@Ogre@@6B@
rdata$r	SEGMENT
??_R4DynamicVertexBuffer@Ogre@@6B@ DD 00H		; Ogre::DynamicVertexBuffer::`RTTI Complete Object Locator'
	DD	00H
	DD	00H
	DD	FLAT:??_R0?AVDynamicVertexBuffer@Ogre@@@8
	DD	FLAT:??_R3DynamicVertexBuffer@Ogre@@8
rdata$r	ENDS
;	COMDAT ??_7DynamicVertexBuffer@Ogre@@6B@
CONST	SEGMENT
??_7DynamicVertexBuffer@Ogre@@6B@ DD FLAT:??_R4DynamicVertexBuffer@Ogre@@6B@ ; Ogre::DynamicVertexBuffer::`vftable'
	DD	FLAT:?getRTTI@DynamicVertexBuffer@Ogre@@UBEPBVRuntimeClass@2@XZ
	DD	FLAT:?release@Resource@Ogre@@UAEXXZ
	DD	FLAT:?addRef@Resource@Ogre@@UAEXXZ
	DD	FLAT:?getRefCount@Resource@Ogre@@UAEHXZ
	DD	FLAT:?_serialize@BaseObject@Ogre@@UAEXAAVArchive@2@H@Z
