; Listing generated by Microsoft (R) Optimizing Compiler Version 15.00.30729.01 

	TITLE	i:\svnroot\client\OgreMain\OgreArchive.cpp
	.686P
	.XMM
	include listing.inc
	.model	flat

INCLUDELIB MSVCRT
INCLUDELIB OLDNAMES

PUBLIC	?_Value@?$_Is_swap_move@U_Swap_move_tag@std@@@std@@2_NB ; std::_Is_swap_move<std::_Swap_move_tag>::_Value
PUBLIC	?collate@?$_Locbase@H@std@@2HB			; std::_Locbase<int>::collate
PUBLIC	?ctype@?$_Locbase@H@std@@2HB			; std::_Locbase<int>::ctype
PUBLIC	?monetary@?$_Locbase@H@std@@2HB			; std::_Locbase<int>::monetary
PUBLIC	?numeric@?$_Locbase@H@std@@2HB			; std::_Locbase<int>::numeric
PUBLIC	?time@?$_Locbase@H@std@@2HB			; std::_Locbase<int>::time
PUBLIC	?messages@?$_Locbase@H@std@@2HB			; std::_Locbase<int>::messages
PUBLIC	?all@?$_Locbase@H@std@@2HB			; std::_Locbase<int>::all
PUBLIC	?none@?$_Locbase@H@std@@2HB			; std::_Locbase<int>::none
PUBLIC	?skipws@?$_Iosb@H@std@@2W4_Fmtflags@12@B	; std::_Iosb<int>::skipws
PUBLIC	?unitbuf@?$_Iosb@H@std@@2W4_Fmtflags@12@B	; std::_Iosb<int>::unitbuf
PUBLIC	?uppercase@?$_Iosb@H@std@@2W4_Fmtflags@12@B	; std::_Iosb<int>::uppercase
PUBLIC	?showbase@?$_Iosb@H@std@@2W4_Fmtflags@12@B	; std::_Iosb<int>::showbase
PUBLIC	?showpoint@?$_Iosb@H@std@@2W4_Fmtflags@12@B	; std::_Iosb<int>::showpoint
PUBLIC	?showpos@?$_Iosb@H@std@@2W4_Fmtflags@12@B	; std::_Iosb<int>::showpos
PUBLIC	?left@?$_Iosb@H@std@@2W4_Fmtflags@12@B		; std::_Iosb<int>::left
PUBLIC	?right@?$_Iosb@H@std@@2W4_Fmtflags@12@B		; std::_Iosb<int>::right
PUBLIC	?internal@?$_Iosb@H@std@@2W4_Fmtflags@12@B	; std::_Iosb<int>::internal
PUBLIC	?dec@?$_Iosb@H@std@@2W4_Fmtflags@12@B		; std::_Iosb<int>::dec
PUBLIC	?oct@?$_Iosb@H@std@@2W4_Fmtflags@12@B		; std::_Iosb<int>::oct
PUBLIC	?hex@?$_Iosb@H@std@@2W4_Fmtflags@12@B		; std::_Iosb<int>::hex
PUBLIC	?scientific@?$_Iosb@H@std@@2W4_Fmtflags@12@B	; std::_Iosb<int>::scientific
PUBLIC	?fixed@?$_Iosb@H@std@@2W4_Fmtflags@12@B		; std::_Iosb<int>::fixed
PUBLIC	?hexfloat@?$_Iosb@H@std@@2W4_Fmtflags@12@B	; std::_Iosb<int>::hexfloat
PUBLIC	?boolalpha@?$_Iosb@H@std@@2W4_Fmtflags@12@B	; std::_Iosb<int>::boolalpha
PUBLIC	?_Stdio@?$_Iosb@H@std@@2W4_Fmtflags@12@B	; std::_Iosb<int>::_Stdio
PUBLIC	?adjustfield@?$_Iosb@H@std@@2W4_Fmtflags@12@B	; std::_Iosb<int>::adjustfield
PUBLIC	?basefield@?$_Iosb@H@std@@2W4_Fmtflags@12@B	; std::_Iosb<int>::basefield
PUBLIC	?floatfield@?$_Iosb@H@std@@2W4_Fmtflags@12@B	; std::_Iosb<int>::floatfield
PUBLIC	?goodbit@?$_Iosb@H@std@@2W4_Iostate@12@B	; std::_Iosb<int>::goodbit
PUBLIC	?eofbit@?$_Iosb@H@std@@2W4_Iostate@12@B		; std::_Iosb<int>::eofbit
PUBLIC	?failbit@?$_Iosb@H@std@@2W4_Iostate@12@B	; std::_Iosb<int>::failbit
PUBLIC	?badbit@?$_Iosb@H@std@@2W4_Iostate@12@B		; std::_Iosb<int>::badbit
PUBLIC	?_Hardfail@?$_Iosb@H@std@@2W4_Iostate@12@B	; std::_Iosb<int>::_Hardfail
PUBLIC	?in@?$_Iosb@H@std@@2W4_Openmode@12@B		; std::_Iosb<int>::in
PUBLIC	?out@?$_Iosb@H@std@@2W4_Openmode@12@B		; std::_Iosb<int>::out
PUBLIC	?ate@?$_Iosb@H@std@@2W4_Openmode@12@B		; std::_Iosb<int>::ate
PUBLIC	?app@?$_Iosb@H@std@@2W4_Openmode@12@B		; std::_Iosb<int>::app
PUBLIC	?trunc@?$_Iosb@H@std@@2W4_Openmode@12@B		; std::_Iosb<int>::trunc
PUBLIC	?_Nocreate@?$_Iosb@H@std@@2W4_Openmode@12@B	; std::_Iosb<int>::_Nocreate
PUBLIC	?_Noreplace@?$_Iosb@H@std@@2W4_Openmode@12@B	; std::_Iosb<int>::_Noreplace
PUBLIC	?binary@?$_Iosb@H@std@@2W4_Openmode@12@B	; std::_Iosb<int>::binary
PUBLIC	?beg@?$_Iosb@H@std@@2W4_Seekdir@12@B		; std::_Iosb<int>::beg
PUBLIC	?cur@?$_Iosb@H@std@@2W4_Seekdir@12@B		; std::_Iosb<int>::cur
PUBLIC	?end@?$_Iosb@H@std@@2W4_Seekdir@12@B		; std::_Iosb<int>::end
PUBLIC	?value@?$integral_constant@_N$0A@@tr1@std@@2_NB	; std::tr1::integral_constant<bool,0>::value
PUBLIC	?value@?$integral_constant@_N$00@tr1@std@@2_NB	; std::tr1::integral_constant<bool,1>::value
;	COMDAT ?value@?$integral_constant@_N$00@tr1@std@@2_NB
CONST	SEGMENT
?value@?$integral_constant@_N$00@tr1@std@@2_NB DB 01H	; std::tr1::integral_constant<bool,1>::value
CONST	ENDS
;	COMDAT ?value@?$integral_constant@_N$0A@@tr1@std@@2_NB
CONST	SEGMENT
?value@?$integral_constant@_N$0A@@tr1@std@@2_NB DB 00H	; std::tr1::integral_constant<bool,0>::value
CONST	ENDS
;	COMDAT ?end@?$_Iosb@H@std@@2W4_Seekdir@12@B
CONST	SEGMENT
?end@?$_Iosb@H@std@@2W4_Seekdir@12@B DD 02H		; std::_Iosb<int>::end
CONST	ENDS
;	COMDAT ?cur@?$_Iosb@H@std@@2W4_Seekdir@12@B
CONST	SEGMENT
?cur@?$_Iosb@H@std@@2W4_Seekdir@12@B DD 01H		; std::_Iosb<int>::cur
CONST	ENDS
;	COMDAT ?beg@?$_Iosb@H@std@@2W4_Seekdir@12@B
CONST	SEGMENT
?beg@?$_Iosb@H@std@@2W4_Seekdir@12@B DD 00H		; std::_Iosb<int>::beg
CONST	ENDS
;	COMDAT ?binary@?$_Iosb@H@std@@2W4_Openmode@12@B
CONST	SEGMENT
?binary@?$_Iosb@H@std@@2W4_Openmode@12@B DD 020H	; std::_Iosb<int>::binary
CONST	ENDS
;	COMDAT ?_Noreplace@?$_Iosb@H@std@@2W4_Openmode@12@B
CONST	SEGMENT
?_Noreplace@?$_Iosb@H@std@@2W4_Openmode@12@B DD 080H	; std::_Iosb<int>::_Noreplace
CONST	ENDS
;	COMDAT ?_Nocreate@?$_Iosb@H@std@@2W4_Openmode@12@B
CONST	SEGMENT
?_Nocreate@?$_Iosb@H@std@@2W4_Openmode@12@B DD 040H	; std::_Iosb<int>::_Nocreate
CONST	ENDS
;	COMDAT ?trunc@?$_Iosb@H@std@@2W4_Openmode@12@B
CONST	SEGMENT
?trunc@?$_Iosb@H@std@@2W4_Openmode@12@B DD 010H		; std::_Iosb<int>::trunc
CONST	ENDS
;	COMDAT ?app@?$_Iosb@H@std@@2W4_Openmode@12@B
CONST	SEGMENT
?app@?$_Iosb@H@std@@2W4_Openmode@12@B DD 08H		; std::_Iosb<int>::app
CONST	ENDS
;	COMDAT ?ate@?$_Iosb@H@std@@2W4_Openmode@12@B
CONST	SEGMENT
?ate@?$_Iosb@H@std@@2W4_Openmode@12@B DD 04H		; std::_Iosb<int>::ate
CONST	ENDS
;	COMDAT ?out@?$_Iosb@H@std@@2W4_Openmode@12@B
CONST	SEGMENT
?out@?$_Iosb@H@std@@2W4_Openmode@12@B DD 02H		; std::_Iosb<int>::out
CONST	ENDS
;	COMDAT ?in@?$_Iosb@H@std@@2W4_Openmode@12@B
CONST	SEGMENT
?in@?$_Iosb@H@std@@2W4_Openmode@12@B DD 01H		; std::_Iosb<int>::in
CONST	ENDS
;	COMDAT ?_Hardfail@?$_Iosb@H@std@@2W4_Iostate@12@B
CONST	SEGMENT
?_Hardfail@?$_Iosb@H@std@@2W4_Iostate@12@B DD 010H	; std::_Iosb<int>::_Hardfail
CONST	ENDS
;	COMDAT ?badbit@?$_Iosb@H@std@@2W4_Iostate@12@B
CONST	SEGMENT
?badbit@?$_Iosb@H@std@@2W4_Iostate@12@B DD 04H		; std::_Iosb<int>::badbit
CONST	ENDS
;	COMDAT ?failbit@?$_Iosb@H@std@@2W4_Iostate@12@B
CONST	SEGMENT
?failbit@?$_Iosb@H@std@@2W4_Iostate@12@B DD 02H		; std::_Iosb<int>::failbit
CONST	ENDS
;	COMDAT ?eofbit@?$_Iosb@H@std@@2W4_Iostate@12@B
CONST	SEGMENT
?eofbit@?$_Iosb@H@std@@2W4_Iostate@12@B DD 01H		; std::_Iosb<int>::eofbit
CONST	ENDS
;	COMDAT ?goodbit@?$_Iosb@H@std@@2W4_Iostate@12@B
CONST	SEGMENT
?goodbit@?$_Iosb@H@std@@2W4_Iostate@12@B DD 00H		; std::_Iosb<int>::goodbit
CONST	ENDS
;	COMDAT ?floatfield@?$_Iosb@H@std@@2W4_Fmtflags@12@B
CONST	SEGMENT
?floatfield@?$_Iosb@H@std@@2W4_Fmtflags@12@B DD 03000H	; std::_Iosb<int>::floatfield
CONST	ENDS
;	COMDAT ?basefield@?$_Iosb@H@std@@2W4_Fmtflags@12@B
CONST	SEGMENT
?basefield@?$_Iosb@H@std@@2W4_Fmtflags@12@B DD 0e00H	; std::_Iosb<int>::basefield
CONST	ENDS
;	COMDAT ?adjustfield@?$_Iosb@H@std@@2W4_Fmtflags@12@B
CONST	SEGMENT
?adjustfield@?$_Iosb@H@std@@2W4_Fmtflags@12@B DD 01c0H	; std::_Iosb<int>::adjustfield
CONST	ENDS
;	COMDAT ?_Stdio@?$_Iosb@H@std@@2W4_Fmtflags@12@B
CONST	SEGMENT
?_Stdio@?$_Iosb@H@std@@2W4_Fmtflags@12@B DD 08000H	; std::_Iosb<int>::_Stdio
CONST	ENDS
;	COMDAT ?boolalpha@?$_Iosb@H@std@@2W4_Fmtflags@12@B
CONST	SEGMENT
?boolalpha@?$_Iosb@H@std@@2W4_Fmtflags@12@B DD 04000H	; std::_Iosb<int>::boolalpha
CONST	ENDS
;	COMDAT ?hexfloat@?$_Iosb@H@std@@2W4_Fmtflags@12@B
CONST	SEGMENT
?hexfloat@?$_Iosb@H@std@@2W4_Fmtflags@12@B DD 03000H	; std::_Iosb<int>::hexfloat
CONST	ENDS
;	COMDAT ?fixed@?$_Iosb@H@std@@2W4_Fmtflags@12@B
CONST	SEGMENT
?fixed@?$_Iosb@H@std@@2W4_Fmtflags@12@B DD 02000H	; std::_Iosb<int>::fixed
CONST	ENDS
;	COMDAT ?scientific@?$_Iosb@H@std@@2W4_Fmtflags@12@B
CONST	SEGMENT
?scientific@?$_Iosb@H@std@@2W4_Fmtflags@12@B DD 01000H	; std::_Iosb<int>::scientific
CONST	ENDS
;	COMDAT ?hex@?$_Iosb@H@std@@2W4_Fmtflags@12@B
CONST	SEGMENT
?hex@?$_Iosb@H@std@@2W4_Fmtflags@12@B DD 0800H		; std::_Iosb<int>::hex
CONST	ENDS
;	COMDAT ?oct@?$_Iosb@H@std@@2W4_Fmtflags@12@B
CONST	SEGMENT
?oct@?$_Iosb@H@std@@2W4_Fmtflags@12@B DD 0400H		; std::_Iosb<int>::oct
CONST	ENDS
;	COMDAT ?dec@?$_Iosb@H@std@@2W4_Fmtflags@12@B
CONST	SEGMENT
?dec@?$_Iosb@H@std@@2W4_Fmtflags@12@B DD 0200H		; std::_Iosb<int>::dec
CONST	ENDS
;	COMDAT ?internal@?$_Iosb@H@std@@2W4_Fmtflags@12@B
CONST	SEGMENT
?internal@?$_Iosb@H@std@@2W4_Fmtflags@12@B DD 0100H	; std::_Iosb<int>::internal
CONST	ENDS
;	COMDAT ?right@?$_Iosb@H@std@@2W4_Fmtflags@12@B
CONST	SEGMENT
?right@?$_Iosb@H@std@@2W4_Fmtflags@12@B DD 080H		; std::_Iosb<int>::right
CONST	ENDS
;	COMDAT ?left@?$_Iosb@H@std@@2W4_Fmtflags@12@B
CONST	SEGMENT
?left@?$_Iosb@H@std@@2W4_Fmtflags@12@B DD 040H		; std::_Iosb<int>::left
CONST	ENDS
;	COMDAT ?showpos@?$_Iosb@H@std@@2W4_Fmtflags@12@B
CONST	SEGMENT
?showpos@?$_Iosb@H@std@@2W4_Fmtflags@12@B DD 020H	; std::_Iosb<int>::showpos
CONST	ENDS
;	COMDAT ?showpoint@?$_Iosb@H@std@@2W4_Fmtflags@12@B
CONST	SEGMENT
?showpoint@?$_Iosb@H@std@@2W4_Fmtflags@12@B DD 010H	; std::_Iosb<int>::showpoint
CONST	ENDS
;	COMDAT ?showbase@?$_Iosb@H@std@@2W4_Fmtflags@12@B
CONST	SEGMENT
?showbase@?$_Iosb@H@std@@2W4_Fmtflags@12@B DD 08H	; std::_Iosb<int>::showbase
CONST	ENDS
;	COMDAT ?uppercase@?$_Iosb@H@std@@2W4_Fmtflags@12@B
CONST	SEGMENT
?uppercase@?$_Iosb@H@std@@2W4_Fmtflags@12@B DD 04H	; std::_Iosb<int>::uppercase
CONST	ENDS
;	COMDAT ?unitbuf@?$_Iosb@H@std@@2W4_Fmtflags@12@B
CONST	SEGMENT
?unitbuf@?$_Iosb@H@std@@2W4_Fmtflags@12@B DD 02H	; std::_Iosb<int>::unitbuf
CONST	ENDS
;	COMDAT ?skipws@?$_Iosb@H@std@@2W4_Fmtflags@12@B
CONST	SEGMENT
?skipws@?$_Iosb@H@std@@2W4_Fmtflags@12@B DD 01H		; std::_Iosb<int>::skipws
CONST	ENDS
;	COMDAT ?none@?$_Locbase@H@std@@2HB
CONST	SEGMENT
?none@?$_Locbase@H@std@@2HB DD 00H			; std::_Locbase<int>::none
CONST	ENDS
;	COMDAT ?all@?$_Locbase@H@std@@2HB
CONST	SEGMENT
?all@?$_Locbase@H@std@@2HB DD 03fH			; std::_Locbase<int>::all
CONST	ENDS
;	COMDAT ?messages@?$_Locbase@H@std@@2HB
CONST	SEGMENT
?messages@?$_Locbase@H@std@@2HB DD 020H			; std::_Locbase<int>::messages
CONST	ENDS
;	COMDAT ?time@?$_Locbase@H@std@@2HB
CONST	SEGMENT
?time@?$_Locbase@H@std@@2HB DD 010H			; std::_Locbase<int>::time
CONST	ENDS
;	COMDAT ?numeric@?$_Locbase@H@std@@2HB
CONST	SEGMENT
?numeric@?$_Locbase@H@std@@2HB DD 08H			; std::_Locbase<int>::numeric
CONST	ENDS
;	COMDAT ?monetary@?$_Locbase@H@std@@2HB
CONST	SEGMENT
?monetary@?$_Locbase@H@std@@2HB DD 04H			; std::_Locbase<int>::monetary
CONST	ENDS
;	COMDAT ?ctype@?$_Locbase@H@std@@2HB
CONST	SEGMENT
?ctype@?$_Locbase@H@std@@2HB DD 02H			; std::_Locbase<int>::ctype
CONST	ENDS
;	COMDAT ?collate@?$_Locbase@H@std@@2HB
CONST	SEGMENT
?collate@?$_Locbase@H@std@@2HB DD 01H			; std::_Locbase<int>::collate
CONST	ENDS
;	COMDAT ?_Value@?$_Is_swap_move@U_Swap_move_tag@std@@@std@@2_NB
CONST	SEGMENT
?_Value@?$_Is_swap_move@U_Swap_move_tag@std@@@std@@2_NB DB 01H ; std::_Is_swap_move<std::_Swap_move_tag>::_Value
CONST	ENDS
_DATA	SEGMENT
__bad_alloc_Message DD FLAT:$SG5713
_DATA	ENDS
CONST	SEGMENT
$SG5713	DB	'bad allocation', 00H
CONST	ENDS
PUBLIC	??_7DataStream@Ogre@@6B@			; Ogre::DataStream::`vftable'
PUBLIC	??0DataStream@Ogre@@QAE@XZ			; Ogre::DataStream::DataStream
PUBLIC	??_R4DataStream@Ogre@@6B@			; Ogre::DataStream::`RTTI Complete Object Locator'
PUBLIC	??_R0?AVDataStream@Ogre@@@8			; Ogre::DataStream `RTTI Type Descriptor'
PUBLIC	??_R3DataStream@Ogre@@8				; Ogre::DataStream::`RTTI Class Hierarchy Descriptor'
PUBLIC	??_R2DataStream@Ogre@@8				; Ogre::DataStream::`RTTI Base Class Array'
PUBLIC	??_R1A@?0A@EA@DataStream@Ogre@@8		; Ogre::DataStream::`RTTI Base Class Descriptor at (0,-1,0,64)'
PUBLIC	??_EDataStream@Ogre@@UAEPAXI@Z			; Ogre::DataStream::`vector deleting destructor'
PUBLIC	?size@DataStream@Ogre@@UBEIXZ			; Ogre::DataStream::size
EXTRN	__imp_??1?$basic_string@DU?$char_traits@D@std@@V?$allocator@D@2@@std@@QAE@XZ:PROC
EXTRN	__imp_??0?$basic_string@DU?$char_traits@D@std@@V?$allocator@D@2@@std@@QAE@XZ:PROC
EXTRN	___security_cookie:DWORD
EXTRN	___CxxFrameHandler3:PROC
EXTRN	@__security_check_cookie@4:PROC
EXTRN	??_7type_info@@6B@:QWORD			; type_info::`vftable'
EXTRN	__purecall:PROC
EXTRN	?readLine@DataStream@Ogre@@UAEIPADIABV?$basic_string@DU?$char_traits@D@std@@V?$allocator@D@2@@std@@@Z:PROC ; Ogre::DataStream::readLine
EXTRN	?getLine@DataStream@Ogre@@UAE?AV?$basic_string@DU?$char_traits@D@std@@V?$allocator@D@2@@std@@_N@Z:PROC ; Ogre::DataStream::getLine
EXTRN	?getAsString@DataStream@Ogre@@UAE?AV?$basic_string@DU?$char_traits@D@std@@V?$allocator@D@2@@std@@XZ:PROC ; Ogre::DataStream::getAsString
EXTRN	?skipLine@DataStream@Ogre@@UAEIABV?$basic_string@DU?$char_traits@D@std@@V?$allocator@D@2@@std@@@Z:PROC ; Ogre::DataStream::skipLine
;	COMDAT ??_R1A@?0A@EA@DataStream@Ogre@@8
; File i:\svnroot\client\ogremain\ogredatastream.h
rdata$r	SEGMENT
??_R1A@?0A@EA@DataStream@Ogre@@8 DD FLAT:??_R0?AVDataStream@Ogre@@@8 ; Ogre::DataStream::`RTTI Base Class Descriptor at (0,-1,0,64)'
	DD	00H
	DD	00H
	DD	0ffffffffH
	DD	00H
	DD	040H
	DD	FLAT:??_R3DataStream@Ogre@@8
rdata$r	ENDS
;	COMDAT ??_R2DataStream@Ogre@@8
rdata$r	SEGMENT
??_R2DataStream@Ogre@@8 DD FLAT:??_R1A@?0A@EA@DataStream@Ogre@@8 ; Ogre::DataStream::`RTTI Base Class Array'
rdata$r	ENDS
;	COMDAT ??_R3DataStream@Ogre@@8
rdata$r	SEGMENT
??_R3DataStream@Ogre@@8 DD 00H				; Ogre::DataStream::`RTTI Class Hierarchy Descriptor'
	DD	00H
	DD	01H
	DD	FLAT:??_R2DataStream@Ogre@@8
rdata$r	ENDS
;	COMDAT ??_R0?AVDataStream@Ogre@@@8
_DATA	SEGMENT
??_R0?AVDataStream@Ogre@@@8 DD FLAT:??_7type_info@@6B@	; Ogre::DataStream `RTTI Type Descriptor'
	DD	00H
	DB	'.?AVDataStream@Ogre@@', 00H
_DATA	ENDS
;	COMDAT ??_R4DataStream@Ogre@@6B@
rdata$r	SEGMENT
??_R4DataStream@Ogre@@6B@ DD 00H			; Ogre::DataStream::`RTTI Complete Object Locator'
	DD	00H
	DD	00H
	DD	FLAT:??_R0?AVDataStream@Ogre@@@8
	DD	FLAT:??_R3DataStream@Ogre@@8
rdata$r	ENDS
;	COMDAT ??_7DataStream@Ogre@@6B@
CONST	SEGMENT
??_7DataStream@Ogre@@6B@ DD FLAT:??_R4DataStream@Ogre@@6B@ ; Ogre::DataStream::`vftable'
	DD	FLAT:??_EDataStream@Ogre@@UAEPAXI@Z
	DD	FLAT:__purecall
	DD	FLAT:__purecall
	DD	FLAT:?readLine@DataStream@Ogre@@UAEIPADIABV?$basic_string@DU?$char_traits@D@std@@V?$allocator@D@2@@std@@@Z
	DD	FLAT:?getLine@DataStream@Ogre@@UAE?AV?$basic_string@DU?$char_traits@D@std@@V?$allocator@D@2@@std@@_N@Z
	DD	FLAT:?getAsString@DataStream@Ogre@@UAE?AV?$basic_string@DU?$char_traits@D@std@@V?$allocator@D@2@@std@@XZ
	DD	FLAT:?skipLine@DataStream@Ogre@@UAEIABV?$basic_string@DU?$char_traits@D@std@@V?$allocator@D@2@@std@@@Z
	DD	FLAT:__purecall
	DD	FLAT:__purecall
	DD	FLAT:__purecall
	DD	FLAT:__purecall
	DD	FLAT:?size@DataStream@Ogre@@UBEIXZ
	DD	FLAT:__purecall
	DD	FLAT:__purecall
CONST	ENDS
;	COMDAT xdata$x
xdata$x	SEGMENT
__unwindtable$??0DataStream@Ogre@@QAE@XZ DD 0ffffffffH
	DD	FLAT:__unwindfunclet$??0DataStream@Ogre@@QAE@XZ$0
__ehfuncinfo$??0DataStream@Ogre@@QAE@XZ DD 019930522H
	DD	01H
	DD	FLAT:__unwindtable$??0DataStream@Ogre@@QAE@XZ
	DD	2 DUP(00H)
	DD	2 DUP(00H)
	DD	00H
	DD	00H
; Function compile flags: /Odtp
xdata$x	ENDS
;	COMDAT ??0DataStream@Ogre@@QAE@XZ
_TEXT	SEGMENT
_this$ = -16						; size = 4
__$EHRec$ = -12						; size = 12
??0DataStream@Ogre@@QAE@XZ PROC				; Ogre::DataStream::DataStream, COMDAT
; _this$ = ecx

; 68   : 		DataStream() : mSize(0) {}

	push	ebp
	mov	ebp, esp
	push	-1
	push	__ehhandler$??0DataStream@Ogre@@QAE@XZ
	mov	eax, DWORD PTR fs:0
	push	eax
	push	ecx
	mov	eax, DWORD PTR ___security_cookie
	xor	eax, ebp
	push	eax
	lea	eax, DWORD PTR __$EHRec$[ebp]
	mov	DWORD PTR fs:0, eax
	mov	DWORD PTR _this$[ebp], ecx
	mov	eax, DWORD PTR _this$[ebp]
	mov	DWORD PTR [eax], OFFSET ??_7DataStream@Ogre@@6B@
	mov	ecx, DWORD PTR _this$[ebp]
	add	ecx, 4
	call	DWORD PTR __imp_??0?$basic_string@DU?$char_traits@D@std@@V?$allocator@D@2@@std@@QAE@XZ
	mov	DWORD PTR __$EHRec$[ebp+8], 0
	mov	ecx, DWORD PTR _this$[ebp]
	mov	DWORD PTR [ecx+32], 0
	mov	DWORD PTR __$EHRec$[ebp+8], -1
	mov	eax, DWORD PTR _this$[ebp]
	mov	ecx, DWORD PTR __$EHRec$[ebp]
	mov	DWORD PTR fs:0, ecx
	pop	ecx
	mov	esp, ebp
	pop	ebp
	ret	0
_TEXT	ENDS
;	COMDAT text$x
text$x	SEGMENT
__unwindfunclet$??0DataStream@Ogre@@QAE@XZ$0:
	mov	ecx, DWORD PTR _this$[ebp]
	add	ecx, 4
	jmp	DWORD PTR __imp_??1?$basic_string@DU?$char_traits@D@std@@V?$allocator@D@2@@std@@QAE@XZ
__ehhandler$??0DataStream@Ogre@@QAE@XZ:
	mov	edx, DWORD PTR [esp+8]
	lea	eax, DWORD PTR [edx+12]
	mov	ecx, DWORD PTR [edx-8]
	xor	ecx, eax
	call	@__security_check_cookie@4
	mov	eax, OFFSET __ehfuncinfo$??0DataStream@Ogre@@QAE@XZ
	jmp	___CxxFrameHandler3
text$x	ENDS
??0DataStream@Ogre@@QAE@XZ ENDP				; Ogre::DataStream::DataStream
PUBLIC	??0DataStream@Ogre@@QAE@ABV?$basic_string@DU?$char_traits@D@std@@V?$allocator@D@2@@std@@@Z ; Ogre::DataStream::DataStream
EXTRN	__imp_??0?$basic_string@DU?$char_traits@D@std@@V?$allocator@D@2@@std@@QAE@ABV01@@Z:PROC
;	COMDAT xdata$x
xdata$x	SEGMENT
__unwindtable$??0DataStream@Ogre@@QAE@ABV?$basic_string@DU?$char_traits@D@std@@V?$allocator@D@2@@std@@@Z DD 0ffffffffH
	DD	FLAT:__unwindfunclet$??0DataStream@Ogre@@QAE@ABV?$basic_string@DU?$char_traits@D@std@@V?$allocator@D@2@@std@@@Z$0
__ehfuncinfo$??0DataStream@Ogre@@QAE@ABV?$basic_string@DU?$char_traits@D@std@@V?$allocator@D@2@@std@@@Z DD 019930522H
	DD	01H
	DD	FLAT:__unwindtable$??0DataStream@Ogre@@QAE@ABV?$basic_string@DU?$char_traits@D@std@@V?$allocator@D@2@@std@@@Z
	DD	2 DUP(00H)
	DD	2 DUP(00H)
	DD	00H
	DD	00H
; Function compile flags: /Odtp
xdata$x	ENDS
;	COMDAT ??0DataStream@Ogre@@QAE@ABV?$basic_string@DU?$char_traits@D@std@@V?$allocator@D@2@@std@@@Z
_TEXT	SEGMENT
_this$ = -16						; size = 4
__$EHRec$ = -12						; size = 12
_name$ = 8						; size = 4
??0DataStream@Ogre@@QAE@ABV?$basic_string@DU?$char_traits@D@std@@V?$allocator@D@2@@std@@@Z PROC ; Ogre::DataStream::DataStream, COMDAT
; _this$ = ecx

; 70   : 		DataStream(const String& name) : mName(name), mSize(0) {}

	push	ebp
	mov	ebp, esp
	push	-1
	push	__ehhandler$??0DataStream@Ogre@@QAE@ABV?$basic_string@DU?$char_traits@D@std@@V?$allocator@D@2@@std@@@Z
	mov	eax, DWORD PTR fs:0
	push	eax
	push	ecx
	mov	eax, DWORD PTR ___security_cookie
	xor	eax, ebp
	push	eax
	lea	eax, DWORD PTR __$EHRec$[ebp]
	mov	DWORD PTR fs:0, eax
	mov	DWORD PTR _this$[ebp], ecx
	mov	eax, DWORD PTR _this$[ebp]
	mov	DWORD PTR [eax], OFFSET ??_7DataStream@Ogre@@6B@
	mov	ecx, DWORD PTR _name$[ebp]
	push	ecx
	mov	ecx, DWORD PTR _this$[ebp]
	add	ecx, 4
	call	DWORD PTR __imp_??0?$basic_string@DU?$char_traits@D@std@@V?$allocator@D@2@@std@@QAE@ABV01@@Z
	mov	DWORD PTR __$EHRec$[ebp+8], 0
	mov	edx, DWORD PTR _this$[ebp]
	mov	DWORD PTR [edx+32], 0
	mov	DWORD PTR __$EHRec$[ebp+8], -1
	mov	eax, DWORD PTR _this$[ebp]
	mov	ecx, DWORD PTR __$EHRec$[ebp]
	mov	DWORD PTR fs:0, ecx
	pop	ecx
	mov	esp, ebp
	pop	ebp
	ret	4
_TEXT	ENDS
;	COMDAT text$x
text$x	SEGMENT
__unwindfunclet$??0DataStream@Ogre@@QAE@ABV?$basic_string@DU?$char_traits@D@std@@V?$allocator@D@2@@std@@@Z$0:
	mov	ecx, DWORD PTR _this$[ebp]
	add	ecx, 4
	jmp	DWORD PTR __imp_??1?$basic_string@DU?$char_traits@D@std@@V?$allocator@D@2@@std@@QAE@XZ
__ehhandler$??0DataStream@Ogre@@QAE@ABV?$basic_string@DU?$char_traits@D@std@@V?$allocator@D@2@@std@@@Z:
	mov	edx, DWORD PTR [esp+8]
	lea	eax, DWORD PTR [edx+12]
	mov	ecx, DWORD PTR [edx-8]
	xor	ecx, eax
	call	@__security_check_cookie@4
	mov	eax, OFFSET __ehfuncinfo$??0DataStream@Ogre@@QAE@ABV?$basic_string@DU?$char_traits@D@std@@V?$allocator@D@2@@std@@@Z
	jmp	___CxxFrameHandler3
text$x	ENDS
??0DataStream@Ogre@@QAE@ABV?$basic_string@DU?$char_traits@D@std@@V?$allocator@D@2@@std@@@Z ENDP ; Ogre::DataStream::DataStream
PUBLIC	?getName@DataStream@Ogre@@QAEABV?$basic_string@DU?$char_traits@D@std@@V?$allocator@D@2@@std@@XZ ; Ogre::DataStream::getName
; Function compile flags: /Odtp
;	COMDAT ?getName@DataStream@Ogre@@QAEABV?$basic_string@DU?$char_traits@D@std@@V?$allocator@D@2@@std@@XZ
_TEXT	SEGMENT
_this$ = -4						; size = 4
?getName@DataStream@Ogre@@QAEABV?$basic_string@DU?$char_traits@D@std@@V?$allocator@D@2@@std@@XZ PROC ; Ogre::DataStream::getName, COMDAT
; _this$ = ecx

; 72   : 		const String& getName(void) { return mName; }

	push	ebp
	mov	ebp, esp
	push	ecx
	mov	DWORD PTR _this$[ebp], ecx
	mov	eax, DWORD PTR _this$[ebp]
	add	eax, 4
	mov	esp, ebp
	pop	ebp
	ret	0
?getName@DataStream@Ogre@@QAEABV?$basic_string@DU?$char_traits@D@std@@V?$allocator@D@2@@std@@XZ ENDP ; Ogre::DataStream::getName
_TEXT	ENDS
PUBLIC	??1DataStream@Ogre@@UAE@XZ			; Ogre::DataStream::~DataStream
;	COMDAT xdata$x
xdata$x	SEGMENT
__unwindtable$??1DataStream@Ogre@@UAE@XZ DD 0ffffffffH
	DD	FLAT:__unwindfunclet$??1DataStream@Ogre@@UAE@XZ$0
__ehfuncinfo$??1DataStream@Ogre@@UAE@XZ DD 019930522H
	DD	01H
	DD	FLAT:__unwindtable$??1DataStream@Ogre@@UAE@XZ
	DD	2 DUP(00H)
	DD	2 DUP(00H)
	DD	00H
	DD	00H
; Function compile flags: /Odtp
xdata$x	ENDS
;	COMDAT ??1DataStream@Ogre@@UAE@XZ
_TEXT	SEGMENT
_this$ = -16						; size = 4
__$EHRec$ = -12						; size = 12
??1DataStream@Ogre@@UAE@XZ PROC				; Ogre::DataStream::~DataStream, COMDAT
; _this$ = ecx

; 73   : 		virtual ~DataStream() {}

	push	ebp
	mov	ebp, esp
	push	-1
	push	__ehhandler$??1DataStream@Ogre@@UAE@XZ
	mov	eax, DWORD PTR fs:0
	push	eax
	push	ecx
	mov	eax, DWORD PTR ___security_cookie
	xor	eax, ebp
	push	eax
	lea	eax, DWORD PTR __$EHRec$[ebp]
	mov	DWORD PTR fs:0, eax
	mov	DWORD PTR _this$[ebp], ecx
	mov	eax, DWORD PTR _this$[ebp]
	mov	DWORD PTR [eax], OFFSET ??_7DataStream@Ogre@@6B@
	mov	DWORD PTR __$EHRec$[ebp+8], 0
	mov	DWORD PTR __$EHRec$[ebp+8], -1
	mov	ecx, DWORD PTR _this$[ebp]
	add	ecx, 4
	call	DWORD PTR __imp_??1?$basic_string@DU?$char_traits@D@std@@V?$allocator@D@2@@std@@QAE@XZ
	mov	ecx, DWORD PTR __$EHRec$[ebp]
	mov	DWORD PTR fs:0, ecx
	pop	ecx
	mov	esp, ebp
	pop	ebp
	ret	0
_TEXT	ENDS
;	COMDAT text$x
text$x	SEGMENT
__unwindfunclet$??1DataStream@Ogre@@UAE@XZ$0:
	mov	ecx, DWORD PTR _this$[ebp]
	add	ecx, 4
	jmp	DWORD PTR __imp_??1?$basic_string@DU?$char_traits@D@std@@V?$allocator@D@2@@std@@QAE@XZ
__ehhandler$??1DataStream@Ogre@@UAE@XZ:
	mov	edx, DWORD PTR [esp+8]
	lea	eax, DWORD PTR [edx+12]
	mov	ecx, DWORD PTR [edx-8]
	xor	ecx, eax
	call	@__security_check_cookie@4
	mov	eax, OFFSET __ehfuncinfo$??1DataStream@Ogre@@UAE@XZ
	jmp	___CxxFrameHandler3
text$x	ENDS
??1DataStream@Ogre@@UAE@XZ ENDP				; Ogre::DataStream::~DataStream
; Function compile flags: /Odtp
;	COMDAT ?size@DataStream@Ogre@@UBEIXZ
_TEXT	SEGMENT
_this$ = -4						; size = 4
?size@DataStream@Ogre@@UBEIXZ PROC			; Ogre::DataStream::size, COMDAT
; _this$ = ecx

; 157  : 		virtual size_t size(void) const { return mSize; }

	push	ebp
	mov	ebp, esp
	push	ecx
	mov	DWORD PTR _this$[ebp], ecx
	mov	eax, DWORD PTR _this$[ebp]
	mov	eax, DWORD PTR [eax+32]
	mov	esp, ebp
	pop	ebp
	ret	0
?size@DataStream@Ogre@@UBEIXZ ENDP			; Ogre::DataStream::size
_TEXT	ENDS
PUBLIC	??0DataStream@Ogre@@QAE@ABV01@@Z		; Ogre::DataStream::DataStream
;	COMDAT xdata$x
xdata$x	SEGMENT
__unwindtable$??0DataStream@Ogre@@QAE@ABV01@@Z DD 0ffffffffH
	DD	FLAT:__unwindfunclet$??0DataStream@Ogre@@QAE@ABV01@@Z$0
__ehfuncinfo$??0DataStream@Ogre@@QAE@ABV01@@Z DD 019930522H
	DD	01H
	DD	FLAT:__unwindtable$??0DataStream@Ogre@@QAE@ABV01@@Z
	DD	2 DUP(00H)
	DD	2 DUP(00H)
	DD	00H
	DD	00H
; Function compile flags: /Odtp
xdata$x	ENDS
;	COMDAT ??0DataStream@Ogre@@QAE@ABV01@@Z
_TEXT	SEGMENT
_this$ = -16						; size = 4
__$EHRec$ = -12						; size = 12
___that$ = 8						; size = 4
??0DataStream@Ogre@@QAE@ABV01@@Z PROC			; Ogre::DataStream::DataStream, COMDAT
; _this$ = ecx
	push	ebp
	mov	ebp, esp
	push	-1
	push	__ehhandler$??0DataStream@Ogre@@QAE@ABV01@@Z
	mov	eax, DWORD PTR fs:0
	push	eax
	push	ecx
	mov	eax, DWORD PTR ___security_cookie
	xor	eax, ebp
	push	eax
	lea	eax, DWORD PTR __$EHRec$[ebp]
	mov	DWORD PTR fs:0, eax
	mov	DWORD PTR _this$[ebp], ecx
	mov	eax, DWORD PTR _this$[ebp]
	mov	DWORD PTR [eax], OFFSET ??_7DataStream@Ogre@@6B@
	mov	ecx, DWORD PTR ___that$[ebp]
	add	ecx, 4
	push	ecx
	mov	ecx, DWORD PTR _this$[ebp]
	add	ecx, 4
	call	DWORD PTR __imp_??0?$basic_string@DU?$char_traits@D@std@@V?$allocator@D@2@@std@@QAE@ABV01@@Z
	mov	DWORD PTR __$EHRec$[ebp+8], 0
	mov	edx, DWORD PTR _this$[ebp]
	mov	eax, DWORD PTR ___that$[ebp]
	mov	ecx, DWORD PTR [eax+32]
	mov	DWORD PTR [edx+32], ecx
	mov	DWORD PTR __$EHRec$[ebp+8], -1
	mov	eax, DWORD PTR _this$[ebp]
	mov	ecx, DWORD PTR __$EHRec$[ebp]
	mov	DWORD PTR fs:0, ecx
	pop	ecx
	mov	esp, ebp
	pop	ebp
	ret	4
_TEXT	ENDS
;	COMDAT text$x
text$x	SEGMENT
__unwindfunclet$??0DataStream@Ogre@@QAE@ABV01@@Z$0:
	mov	ecx, DWORD PTR _this$[ebp]
	add	ecx, 4
	jmp	DWORD PTR __imp_??1?$basic_string@DU?$char_traits@D@std@@V?$allocator@D@2@@std@@QAE@XZ
__ehhandler$??0DataStream@Ogre@@QAE@ABV01@@Z:
	mov	edx, DWORD PTR [esp+8]
	lea	eax, DWORD PTR [edx+12]
	mov	ecx, DWORD PTR [edx-8]
	xor	ecx, eax
	call	@__security_check_cookie@4
	mov	eax, OFFSET __ehfuncinfo$??0DataStream@Ogre@@QAE@ABV01@@Z
	jmp	___CxxFrameHandler3
text$x	ENDS
??0DataStream@Ogre@@QAE@ABV01@@Z ENDP			; Ogre::DataStream::DataStream
PUBLIC	??4DataStream@Ogre@@QAEAAV01@ABV01@@Z		; Ogre::DataStream::operator=
EXTRN	__imp_??4?$basic_string@DU?$char_traits@D@std@@V?$allocator@D@2@@std@@QAEAAV01@ABV01@@Z:PROC
; Function compile flags: /Odtp
;	COMDAT ??4DataStream@Ogre@@QAEAAV01@ABV01@@Z
_TEXT	SEGMENT
_this$ = -4						; size = 4
___that$ = 8						; size = 4
??4DataStream@Ogre@@QAEAAV01@ABV01@@Z PROC		; Ogre::DataStream::operator=, COMDAT
; _this$ = ecx
	push	ebp
	mov	ebp, esp
	push	ecx
	mov	DWORD PTR _this$[ebp], ecx
	mov	eax, DWORD PTR ___that$[ebp]
	add	eax, 4
	push	eax
	mov	ecx, DWORD PTR _this$[ebp]
	add	ecx, 4
	call	DWORD PTR __imp_??4?$basic_string@DU?$char_traits@D@std@@V?$allocator@D@2@@std@@QAEAAV01@ABV01@@Z
	mov	ecx, DWORD PTR _this$[ebp]
	mov	edx, DWORD PTR ___that$[ebp]
	mov	eax, DWORD PTR [edx+32]
	mov	DWORD PTR [ecx+32], eax
	mov	eax, DWORD PTR _this$[ebp]
	mov	esp, ebp
	pop	ebp
	ret	4
??4DataStream@Ogre@@QAEAAV01@ABV01@@Z ENDP		; Ogre::DataStream::operator=
_TEXT	ENDS
PUBLIC	??_GDataStream@Ogre@@UAEPAXI@Z			; Ogre::DataStream::`scalar deleting destructor'
EXTRN	??3@YAXPAX@Z:PROC				; operator delete
; Function compile flags: /Odtp
;	COMDAT ??_GDataStream@Ogre@@UAEPAXI@Z
_TEXT	SEGMENT
_this$ = -4						; size = 4
___flags$ = 8						; size = 4
??_GDataStream@Ogre@@UAEPAXI@Z PROC			; Ogre::DataStream::`scalar deleting destructor', COMDAT
; _this$ = ecx
	push	ebp
	mov	ebp, esp
	push	ecx
	mov	DWORD PTR _this$[ebp], ecx
	mov	ecx, DWORD PTR _this$[ebp]
	call	??1DataStream@Ogre@@UAE@XZ		; Ogre::DataStream::~DataStream
	mov	eax, DWORD PTR ___flags$[ebp]
	and	eax, 1
	je	SHORT $LN1@scalar
	mov	ecx, DWORD PTR _this$[ebp]
	push	ecx
	call	??3@YAXPAX@Z				; operator delete
	add	esp, 4
$LN1@scalar:
	mov	eax, DWORD PTR _this$[ebp]
	mov	esp, ebp
	pop	ebp
	ret	4
??_GDataStream@Ogre@@UAEPAXI@Z ENDP			; Ogre::DataStream::`scalar deleting destructor'
_TEXT	ENDS
EXTRN	??_V@YAXPAX@Z:PROC				; operator delete[]
EXTRN	??_M@YGXPAXIHP6EX0@Z@Z:PROC			; `eh vector destructor iterator'
; Function compile flags: /Odtp
;	COMDAT ??_EDataStream@Ogre@@UAEPAXI@Z
_TEXT	SEGMENT
_this$ = -4						; size = 4
___flags$ = 8						; size = 4
??_EDataStream@Ogre@@UAEPAXI@Z PROC			; Ogre::DataStream::`vector deleting destructor', COMDAT
; _this$ = ecx
	push	ebp
	mov	ebp, esp
	push	ecx
	mov	DWORD PTR _this$[ebp], ecx
	mov	eax, DWORD PTR ___flags$[ebp]
	and	eax, 2
	je	SHORT $LN3@vector
	push	OFFSET ??1DataStream@Ogre@@UAE@XZ	; Ogre::DataStream::~DataStream
	mov	ecx, DWORD PTR _this$[ebp]
	mov	edx, DWORD PTR [ecx-4]
	push	edx
	push	36					; 00000024H
	mov	eax, DWORD PTR _this$[ebp]
	push	eax
	call	??_M@YGXPAXIHP6EX0@Z@Z
	mov	ecx, DWORD PTR ___flags$[ebp]
	and	ecx, 1
	je	SHORT $LN2@vector
	mov	edx, DWORD PTR _this$[ebp]
	sub	edx, 4
	push	edx
	call	??_V@YAXPAX@Z				; operator delete[]
	add	esp, 4
$LN2@vector:
	mov	eax, DWORD PTR _this$[ebp]
	sub	eax, 4
	jmp	SHORT $LN4@vector
$LN3@vector:
	mov	ecx, DWORD PTR _this$[ebp]
	call	??1DataStream@Ogre@@UAE@XZ		; Ogre::DataStream::~DataStream
	mov	eax, DWORD PTR ___flags$[ebp]
	and	eax, 1
	je	SHORT $LN1@vector
	mov	ecx, DWORD PTR _this$[ebp]
	push	ecx
	call	??3@YAXPAX@Z				; operator delete
	add	esp, 4
$LN1@vector:
	mov	eax, DWORD PTR _this$[ebp]
$LN4@vector:
	mov	esp, ebp
	pop	ebp
	ret	4
??_EDataStream@Ogre@@UAEPAXI@Z ENDP			; Ogre::DataStream::`vector deleting destructor'
_TEXT	ENDS
PUBLIC	?getPtr@MemoryDataStream@Ogre@@QAEPAEXZ		; Ogre::MemoryDataStream::getPtr
; Function compile flags: /Odtp
;	COMDAT ?getPtr@MemoryDataStream@Ogre@@QAEPAEXZ
_TEXT	SEGMENT
_this$ = -4						; size = 4
?getPtr@MemoryDataStream@Ogre@@QAEPAEXZ PROC		; Ogre::MemoryDataStream::getPtr, COMDAT
; _this$ = ecx

; 267  : 		uchar* getPtr(void) { return mData; }

	push	ebp
	mov	ebp, esp
	push	ecx
	mov	DWORD PTR _this$[ebp], ecx
	mov	eax, DWORD PTR _this$[ebp]
	mov	eax, DWORD PTR [eax+36]
	mov	esp, ebp
	pop	ebp
	ret	0
?getPtr@MemoryDataStream@Ogre@@QAEPAEXZ ENDP		; Ogre::MemoryDataStream::getPtr
_TEXT	ENDS
PUBLIC	?getCurrentPtr@MemoryDataStream@Ogre@@QAEPAEXZ	; Ogre::MemoryDataStream::getCurrentPtr
; Function compile flags: /Odtp
;	COMDAT ?getCurrentPtr@MemoryDataStream@Ogre@@QAEPAEXZ
_TEXT	SEGMENT
_this$ = -4						; size = 4
?getCurrentPtr@MemoryDataStream@Ogre@@QAEPAEXZ PROC	; Ogre::MemoryDataStream::getCurrentPtr, COMDAT
; _this$ = ecx

; 270  : 		uchar* getCurrentPtr(void) { return mPos; }

	push	ebp
	mov	ebp, esp
	push	ecx
	mov	DWORD PTR _this$[ebp], ecx
	mov	eax, DWORD PTR _this$[ebp]
	mov	eax, DWORD PTR [eax+40]
	mov	esp, ebp
	pop	ebp
	ret	0
?getCurrentPtr@MemoryDataStream@Ogre@@QAEPAEXZ ENDP	; Ogre::MemoryDataStream::getCurrentPtr
_TEXT	ENDS
PUBLIC	?getMemoryImage@MemoryDataStream@Ogre@@UAEPAXXZ	; Ogre::MemoryDataStream::getMemoryImage
; Function compile flags: /Odtp
;	COMDAT ?getMemoryImage@MemoryDataStream@Ogre@@UAEPAXXZ
_TEXT	SEGMENT
_this$ = -4						; size = 4
?getMemoryImage@MemoryDataStream@Ogre@@UAEPAXXZ PROC	; Ogre::MemoryDataStream::getMemoryImage, COMDAT
; _this$ = ecx

; 307  : 		{

	push	ebp
	mov	ebp, esp
	push	ecx
	mov	DWORD PTR _this$[ebp], ecx

; 308  : 			return mData;

	mov	eax, DWORD PTR _this$[ebp]
	mov	eax, DWORD PTR [eax+36]

; 309  : 		}

	mov	esp, ebp
	pop	ebp
	ret	0
?getMemoryImage@MemoryDataStream@Ogre@@UAEPAXXZ ENDP	; Ogre::MemoryDataStream::getMemoryImage
_TEXT	ENDS
PUBLIC	?setFreeOnClose@MemoryDataStream@Ogre@@QAEXP6AXPAX@Z@Z ; Ogre::MemoryDataStream::setFreeOnClose
; Function compile flags: /Odtp
;	COMDAT ?setFreeOnClose@MemoryDataStream@Ogre@@QAEXP6AXPAX@Z@Z
_TEXT	SEGMENT
_this$ = -4						; size = 4
_freeOnClose$ = 8					; size = 4
?setFreeOnClose@MemoryDataStream@Ogre@@QAEXP6AXPAX@Z@Z PROC ; Ogre::MemoryDataStream::setFreeOnClose, COMDAT
; _this$ = ecx

; 313  : 		void setFreeOnClose(void (*freeOnClose)(void *)) { mFreeOnClose = freeOnClose; }

	push	ebp
	mov	ebp, esp
	push	ecx
	mov	DWORD PTR _this$[ebp], ecx
	mov	eax, DWORD PTR _this$[ebp]
	mov	ecx, DWORD PTR _freeOnClose$[ebp]
	mov	DWORD PTR [eax+48], ecx
	mov	esp, ebp
	pop	ebp
	ret	4
?setFreeOnClose@MemoryDataStream@Ogre@@QAEXP6AXPAX@Z@Z ENDP ; Ogre::MemoryDataStream::setFreeOnClose
_TEXT	ENDS
PUBLIC	??_7MemoryDataStream@Ogre@@6B@			; Ogre::MemoryDataStream::`vftable'
PUBLIC	??0MemoryDataStream@Ogre@@QAE@ABV01@@Z		; Ogre::MemoryDataStream::MemoryDataStream
PUBLIC	??_R4MemoryDataStream@Ogre@@6B@			; Ogre::MemoryDataStream::`RTTI Complete Object Locator'
PUBLIC	??_R0?AVMemoryDataStream@Ogre@@@8		; Ogre::MemoryDataStream `RTTI Type Descriptor'
PUBLIC	??_R3MemoryDataStream@Ogre@@8			; Ogre::MemoryDataStream::`RTTI Class Hierarchy Descriptor'
PUBLIC	??_R2MemoryDataStream@Ogre@@8			; Ogre::MemoryDataStream::`RTTI Base Class Array'
PUBLIC	??_R1A@?0A@EA@MemoryDataStream@Ogre@@8		; Ogre::MemoryDataStream::`RTTI Base Class Descriptor at (0,-1,0,64)'
PUBLIC	??_EMemoryDataStream@Ogre@@UAEPAXI@Z		; Ogre::MemoryDataStream::`vector deleting destructor'
EXTRN	?read@MemoryDataStream@Ogre@@UAEIPAXI@Z:PROC	; Ogre::MemoryDataStream::read
EXTRN	?write@MemoryDataStream@Ogre@@UAEIPBXI@Z:PROC	; Ogre::MemoryDataStream::write
EXTRN	?readLine@MemoryDataStream@Ogre@@UAEIPADIABV?$basic_string@DU?$char_traits@D@std@@V?$allocator@D@2@@std@@@Z:PROC ; Ogre::MemoryDataStream::readLine
EXTRN	?skipLine@MemoryDataStream@Ogre@@UAEIABV?$basic_string@DU?$char_traits@D@std@@V?$allocator@D@2@@std@@@Z:PROC ; Ogre::MemoryDataStream::skipLine
EXTRN	?skip@MemoryDataStream@Ogre@@UAEXJ@Z:PROC	; Ogre::MemoryDataStream::skip
EXTRN	?seek@MemoryDataStream@Ogre@@UAEXI@Z:PROC	; Ogre::MemoryDataStream::seek
EXTRN	?tell@MemoryDataStream@Ogre@@UBEIXZ:PROC	; Ogre::MemoryDataStream::tell
EXTRN	?eof@MemoryDataStream@Ogre@@UBE_NXZ:PROC	; Ogre::MemoryDataStream::eof
EXTRN	?close@MemoryDataStream@Ogre@@UAEXXZ:PROC	; Ogre::MemoryDataStream::close
;	COMDAT ??_R1A@?0A@EA@MemoryDataStream@Ogre@@8
rdata$r	SEGMENT
??_R1A@?0A@EA@MemoryDataStream@Ogre@@8 DD FLAT:??_R0?AVMemoryDataStream@Ogre@@@8 ; Ogre::MemoryDataStream::`RTTI Base Class Descriptor at (0,-1,0,64)'
	DD	01H
	DD	00H
	DD	0ffffffffH
	DD	00H
	DD	040H
	DD	FLAT:??_R3MemoryDataStream@Ogre@@8
rdata$r	ENDS
;	COMDAT ??_R2MemoryDataStream@Ogre@@8
rdata$r	SEGMENT
??_R2MemoryDataStream@Ogre@@8 DD FLAT:??_R1A@?0A@EA@MemoryDataStream@Ogre@@8 ; Ogre::MemoryDataStream::`RTTI Base Class Array'
	DD	FLAT:??_R1A@?0A@EA@DataStream@Ogre@@8
rdata$r	ENDS
;	COMDAT ??_R3MemoryDataStream@Ogre@@8
rdata$r	SEGMENT
??_R3MemoryDataStream@Ogre@@8 DD 00H			; Ogre::MemoryDataStream::`RTTI Class Hierarchy Descriptor'
	DD	00H
	DD	02H
	DD	FLAT:??_R2MemoryDataStream@Ogre@@8
rdata$r	ENDS
;	COMDAT ??_R0?AVMemoryDataStream@Ogre@@@8
_DATA	SEGMENT
??_R0?AVMemoryDataStream@Ogre@@@8 DD FLAT:??_7type_info@@6B@ ; Ogre::MemoryDataStream `RTTI Type Descriptor'
	DD	00H
	DB	'.?AVMemoryDataStream@Ogre@@', 00H
_DATA	ENDS
;	COMDAT ??_R4MemoryDataStream@Ogre@@6B@
rdata$r	SEGMENT
??_R4MemoryDataStream@Ogre@@6B@ DD 00H			; Ogre::MemoryDataStream::`RTTI Complete Object Locator'
	DD	00H
	DD	00H
	DD	FLAT:??_R0?AVMemoryDataStream@Ogre@@@8
	DD	FLAT:??_R3MemoryDataStream@Ogre@@8
rdata$r	ENDS
;	COMDAT ??_7MemoryDataStream@Ogre@@6B@
CONST	SEGMENT
??_7MemoryDataStream@Ogre@@6B@ DD FLAT:??_R4MemoryDataStream@Ogre@@6B@ ; Ogre::MemoryDataStream::`vftable'
	DD	FLAT:??_EMemoryDataStream@Ogre@@UAEPAXI@Z
	DD	FLAT:?read@MemoryDataStream@Ogre@@UAEIPAXI@Z
	DD	FLAT:?write@MemoryDataStream@Ogre@@UAEIPBXI@Z
	DD	FLAT:?readLine@MemoryDataStream@Ogre@@UAEIPADIABV?$basic_string@DU?$char_traits@D@std@@V?$allocator@D@2@@std@@@Z
	DD	FLAT:?getLine@DataStream@Ogre@@UAE?AV?$basic_string@DU?$char_traits@D@std@@V?$allocator@D@2@@std@@_N@Z
	DD	FLAT:?getAsString@DataStream@Ogre@@UAE?AV?$basic_string@DU?$char_traits@D@std@@V?$allocator@D@2@@std@@XZ
	DD	FLAT:?skipLine@MemoryDataStream@Ogre@@UAEIABV?$basic_string@DU?$char_traits@D@std@@V?$allocator@D@2@@std@@@Z
	DD	FLAT:?skip@MemoryDataStream@Ogre@@UAEXJ@Z
	DD	FLAT:?seek@MemoryDataStream@Ogre@@UAEXI@Z
	DD	FLAT:?tell@MemoryDataStream@Ogre@@UBEIXZ
	DD	FLAT:?eof@MemoryDataStream@Ogre@@UBE_NXZ
	DD	FLAT:?size@DataStream@Ogre@@UBEIXZ
	DD	FLAT:?close@MemoryDataStream@Ogre@@UAEXXZ
	DD	FLAT:?getMemoryImage@MemoryDataStream@Ogre@@UAEPAXXZ
CONST	ENDS
;	COMDAT xdata$x
xdata$x	SEGMENT
__unwindtable$??0MemoryDataStream@Ogre@@QAE@ABV01@@Z DD 0ffffffffH
	DD	FLAT:__unwindfunclet$??0MemoryDataStream@Ogre@@QAE@ABV01@@Z$0
__ehfuncinfo$??0MemoryDataStream@Ogre@@QAE@ABV01@@Z DD 019930522H
	DD	01H
	DD	FLAT:__unwindtable$??0MemoryDataStream@Ogre@@QAE@ABV01@@Z
	DD	2 DUP(00H)
	DD	2 DUP(00H)
	DD	00H
	DD	00H
; Function compile flags: /Odtp
xdata$x	ENDS
;	COMDAT ??0MemoryDataStream@Ogre@@QAE@ABV01@@Z
_TEXT	SEGMENT
_this$ = -16						; size = 4
__$EHRec$ = -12						; size = 12
___that$ = 8						; size = 4
??0MemoryDataStream@Ogre@@QAE@ABV01@@Z PROC		; Ogre::MemoryDataStream::MemoryDataStream, COMDAT
; _this$ = ecx
	push	ebp
	mov	ebp, esp
	push	-1
	push	__ehhandler$??0MemoryDataStream@Ogre@@QAE@ABV01@@Z
	mov	eax, DWORD PTR fs:0
	push	eax
	push	ecx
	mov	eax, DWORD PTR ___security_cookie
	xor	eax, ebp
	push	eax
	lea	eax, DWORD PTR __$EHRec$[ebp]
	mov	DWORD PTR fs:0, eax
	mov	DWORD PTR _this$[ebp], ecx
	mov	eax, DWORD PTR ___that$[ebp]
	push	eax
	mov	ecx, DWORD PTR _this$[ebp]
	call	??0DataStream@Ogre@@QAE@ABV01@@Z
	mov	DWORD PTR __$EHRec$[ebp+8], 0
	mov	ecx, DWORD PTR _this$[ebp]
	mov	DWORD PTR [ecx], OFFSET ??_7MemoryDataStream@Ogre@@6B@
	mov	edx, DWORD PTR _this$[ebp]
	mov	eax, DWORD PTR ___that$[ebp]
	mov	ecx, DWORD PTR [eax+36]
	mov	DWORD PTR [edx+36], ecx
	mov	edx, DWORD PTR _this$[ebp]
	mov	eax, DWORD PTR ___that$[ebp]
	mov	ecx, DWORD PTR [eax+40]
	mov	DWORD PTR [edx+40], ecx
	mov	edx, DWORD PTR _this$[ebp]
	mov	eax, DWORD PTR ___that$[ebp]
	mov	ecx, DWORD PTR [eax+44]
	mov	DWORD PTR [edx+44], ecx
	mov	edx, DWORD PTR _this$[ebp]
	mov	eax, DWORD PTR ___that$[ebp]
	mov	ecx, DWORD PTR [eax+48]
	mov	DWORD PTR [edx+48], ecx
	mov	DWORD PTR __$EHRec$[ebp+8], -1
	mov	eax, DWORD PTR _this$[ebp]
	mov	ecx, DWORD PTR __$EHRec$[ebp]
	mov	DWORD PTR fs:0, ecx
	pop	ecx
	mov	esp, ebp
	pop	ebp
	ret	4
_TEXT	ENDS
;	COMDAT text$x
text$x	SEGMENT
__unwindfunclet$??0MemoryDataStream@Ogre@@QAE@ABV01@@Z$0:
	mov	ecx, DWORD PTR _this$[ebp]
	jmp	??1DataStream@Ogre@@UAE@XZ		; Ogre::DataStream::~DataStream
__ehhandler$??0MemoryDataStream@Ogre@@QAE@ABV01@@Z:
	mov	edx, DWORD PTR [esp+8]
	lea	eax, DWORD PTR [edx+12]
	mov	ecx, DWORD PTR [edx-8]
	xor	ecx, eax
	call	@__security_check_cookie@4
	mov	eax, OFFSET __ehfuncinfo$??0MemoryDataStream@Ogre@@QAE@ABV01@@Z
	jmp	___CxxFrameHandler3
text$x	ENDS
??0MemoryDataStream@Ogre@@QAE@ABV01@@Z ENDP		; Ogre::MemoryDataStream::MemoryDataStream
PUBLIC	??4MemoryDataStream@Ogre@@QAEAAV01@ABV01@@Z	; Ogre::MemoryDataStream::operator=
; Function compile flags: /Odtp
;	COMDAT ??4MemoryDataStream@Ogre@@QAEAAV01@ABV01@@Z
_TEXT	SEGMENT
_this$ = -4						; size = 4
___that$ = 8						; size = 4
??4MemoryDataStream@Ogre@@QAEAAV01@ABV01@@Z PROC	; Ogre::MemoryDataStream::operator=, COMDAT
; _this$ = ecx
	push	ebp
	mov	ebp, esp
	push	ecx
	mov	DWORD PTR _this$[ebp], ecx
	mov	eax, DWORD PTR ___that$[ebp]
	push	eax
	mov	ecx, DWORD PTR _this$[ebp]
	call	??4DataStream@Ogre@@QAEAAV01@ABV01@@Z
	mov	ecx, DWORD PTR _this$[ebp]
	mov	edx, DWORD PTR ___that$[ebp]
	mov	eax, DWORD PTR [edx+36]
	mov	DWORD PTR [ecx+36], eax
	mov	ecx, DWORD PTR _this$[ebp]
	mov	edx, DWORD PTR ___that$[ebp]
	mov	eax, DWORD PTR [edx+40]
	mov	DWORD PTR [ecx+40], eax
	mov	ecx, DWORD PTR _this$[ebp]
	mov	edx, DWORD PTR ___that$[ebp]
	mov	eax, DWORD PTR [edx+44]
	mov	DWORD PTR [ecx+44], eax
	mov	ecx, DWORD PTR _this$[ebp]
	mov	edx, DWORD PTR ___that$[ebp]
	mov	eax, DWORD PTR [edx+48]
	mov	DWORD PTR [ecx+48], eax
	mov	eax, DWORD PTR _this$[ebp]
	mov	esp, ebp
	pop	ebp
	ret	4
??4MemoryDataStream@Ogre@@QAEAAV01@ABV01@@Z ENDP	; Ogre::MemoryDataStream::operator=
_TEXT	ENDS
PUBLIC	??_GMemoryDataStream@Ogre@@UAEPAXI@Z		; Ogre::MemoryDataStream::`scalar deleting destructor'
EXTRN	??1MemoryDataStream@Ogre@@UAE@XZ:PROC		; Ogre::MemoryDataStream::~MemoryDataStream
; Function compile flags: /Odtp
;	COMDAT ??_GMemoryDataStream@Ogre@@UAEPAXI@Z
_TEXT	SEGMENT
_this$ = -4						; size = 4
___flags$ = 8						; size = 4
??_GMemoryDataStream@Ogre@@UAEPAXI@Z PROC		; Ogre::MemoryDataStream::`scalar deleting destructor', COMDAT
; _this$ = ecx
	push	ebp
	mov	ebp, esp
	push	ecx
	mov	DWORD PTR _this$[ebp], ecx
	mov	ecx, DWORD PTR _this$[ebp]
	call	??1MemoryDataStream@Ogre@@UAE@XZ	; Ogre::MemoryDataStream::~MemoryDataStream
	mov	eax, DWORD PTR ___flags$[ebp]
	and	eax, 1
	je	SHORT $LN1@scalar@2
	mov	ecx, DWORD PTR _this$[ebp]
	push	ecx
	call	??3@YAXPAX@Z				; operator delete
	add	esp, 4
$LN1@scalar@2:
	mov	eax, DWORD PTR _this$[ebp]
	mov	esp, ebp
	pop	ebp
	ret	4
??_GMemoryDataStream@Ogre@@UAEPAXI@Z ENDP		; Ogre::MemoryDataStream::`scalar deleting destructor'
; Function compile flags: /Odtp
_TEXT	ENDS
;	COMDAT ??_EMemoryDataStream@Ogre@@UAEPAXI@Z
_TEXT	SEGMENT
_this$ = -4						; size = 4
___flags$ = 8						; size = 4
??_EMemoryDataStream@Ogre@@UAEPAXI@Z PROC		; Ogre::MemoryDataStream::`vector deleting destructor', COMDAT
; _this$ = ecx
	push	ebp
	mov	ebp, esp
	push	ecx
	mov	DWORD PTR _this$[ebp], ecx
	mov	eax, DWORD PTR ___flags$[ebp]
	and	eax, 2
	je	SHORT $LN3@vector@2
	push	OFFSET ??1MemoryDataStream@Ogre@@UAE@XZ	; Ogre::MemoryDataStream::~MemoryDataStream
	mov	ecx, DWORD PTR _this$[ebp]
	mov	edx, DWORD PTR [ecx-4]
	push	edx
	push	52					; 00000034H
	mov	eax, DWORD PTR _this$[ebp]
	push	eax
	call	??_M@YGXPAXIHP6EX0@Z@Z
	mov	ecx, DWORD PTR ___flags$[ebp]
	and	ecx, 1
	je	SHORT $LN2@vector@2
	mov	edx, DWORD PTR _this$[ebp]
	sub	edx, 4
	push	edx
	call	??_V@YAXPAX@Z				; operator delete[]
	add	esp, 4
$LN2@vector@2:
	mov	eax, DWORD PTR _this$[ebp]
	sub	eax, 4
	jmp	SHORT $LN4@vector@2
$LN3@vector@2:
	mov	ecx, DWORD PTR _this$[ebp]
	call	??1MemoryDataStream@Ogre@@UAE@XZ	; Ogre::MemoryDataStream::~MemoryDataStream
	mov	eax, DWORD PTR ___flags$[ebp]
	and	eax, 1
	je	SHORT $LN1@vector@2
	mov	ecx, DWORD PTR _this$[ebp]
	push	ecx
	call	??3@YAXPAX@Z				; operator delete
	add	esp, 4
$LN1@vector@2:
	mov	eax, DWORD PTR _this$[ebp]
$LN4@vector@2:
	mov	esp, ebp
	pop	ebp
	ret	4
??_EMemoryDataStream@Ogre@@UAEPAXI@Z ENDP		; Ogre::MemoryDataStream::`vector deleting destructor'
_TEXT	ENDS
PUBLIC	??_7FileStreamDataStream@Ogre@@6B@		; Ogre::FileStreamDataStream::`vftable'
PUBLIC	??0FileStreamDataStream@Ogre@@QAE@ABV01@@Z	; Ogre::FileStreamDataStream::FileStreamDataStream
PUBLIC	??_R4FileStreamDataStream@Ogre@@6B@		; Ogre::FileStreamDataStream::`RTTI Complete Object Locator'
PUBLIC	??_R0?AVFileStreamDataStream@Ogre@@@8		; Ogre::FileStreamDataStream `RTTI Type Descriptor'
PUBLIC	??_R3FileStreamDataStream@Ogre@@8		; Ogre::FileStreamDataStream::`RTTI Class Hierarchy Descriptor'
PUBLIC	??_R2FileStreamDataStream@Ogre@@8		; Ogre::FileStreamDataStream::`RTTI Base Class Array'
PUBLIC	??_R1A@?0A@EA@FileStreamDataStream@Ogre@@8	; Ogre::FileStreamDataStream::`RTTI Base Class Descriptor at (0,-1,0,64)'
PUBLIC	??_EFileStreamDataStream@Ogre@@UAEPAXI@Z	; Ogre::FileStreamDataStream::`vector deleting destructor'
EXTRN	?read@FileStreamDataStream@Ogre@@UAEIPAXI@Z:PROC ; Ogre::FileStreamDataStream::read
EXTRN	?write@FileStreamDataStream@Ogre@@UAEIPBXI@Z:PROC ; Ogre::FileStreamDataStream::write
EXTRN	?readLine@FileStreamDataStream@Ogre@@UAEIPADIABV?$basic_string@DU?$char_traits@D@std@@V?$allocator@D@2@@std@@@Z:PROC ; Ogre::FileStreamDataStream::readLine
EXTRN	?skip@FileStreamDataStream@Ogre@@UAEXJ@Z:PROC	; Ogre::FileStreamDataStream::skip
EXTRN	?seek@FileStreamDataStream@Ogre@@UAEXI@Z:PROC	; Ogre::FileStreamDataStream::seek
EXTRN	?tell@FileStreamDataStream@Ogre@@UBEIXZ:PROC	; Ogre::FileStreamDataStream::tell
EXTRN	?eof@FileStreamDataStream@Ogre@@UBE_NXZ:PROC	; Ogre::FileStreamDataStream::eof
EXTRN	?close@FileStreamDataStream@Ogre@@UAEXXZ:PROC	; Ogre::FileStreamDataStream::close
EXTRN	?getMemoryImage@FileStreamDataStream@Ogre@@UAEPAXXZ:PROC ; Ogre::FileStreamDataStream::getMemoryImage
;	COMDAT ??_R1A@?0A@EA@FileStreamDataStream@Ogre@@8
rdata$r	SEGMENT
??_R1A@?0A@EA@FileStreamDataStream@Ogre@@8 DD FLAT:??_R0?AVFileStreamDataStream@Ogre@@@8 ; Ogre::FileStreamDataStream::`RTTI Base Class Descriptor at (0,-1,0,64)'
	DD	01H
	DD	00H
	DD	0ffffffffH
	DD	00H
	DD	040H
	DD	FLAT:??_R3FileStreamDataStream@Ogre@@8
rdata$r	ENDS
;	COMDAT ??_R2FileStreamDataStream@Ogre@@8
rdata$r	SEGMENT
??_R2FileStreamDataStream@Ogre@@8 DD FLAT:??_R1A@?0A@EA@FileStreamDataStream@Ogre@@8 ; Ogre::FileStreamDataStream::`RTTI Base Class Array'
	DD	FLAT:??_R1A@?0A@EA@DataStream@Ogre@@8
rdata$r	ENDS
;	COMDAT ??_R3FileStreamDataStream@Ogre@@8
rdata$r	SEGMENT
??_R3FileStreamDataStream@Ogre@@8 DD 00H		; Ogre::FileStreamDataStream::`RTTI Class Hierarchy Descriptor'
	DD	00H
	DD	02H
	DD	FLAT:??_R2FileStreamDataStream@Ogre@@8
rdata$r	ENDS
;	COMDAT ??_R0?AVFileStreamDataStream@Ogre@@@8
_DATA	SEGMENT
??_R0?AVFileStreamDataStream@Ogre@@@8 DD FLAT:??_7type_info@@6B@ ; Ogre::FileStreamDataStream `RTTI Type Descriptor'
	DD	00H
	DB	'.?AVFileStreamDataStream@Ogre@@', 00H
_DATA	ENDS
;	COMDAT ??_R4FileStreamDataStream@Ogre@@6B@
rdata$r	SEGMENT
??_R4FileStreamDataStream@Ogre@@6B@ DD 00H		; Ogre::FileStreamDataStream::`RTTI Complete Object Locator'
	DD	00H
	DD	00H
	DD	FLAT:??_R0?AVFileStreamDataStream@Ogre@@@8
	DD	FLAT:??_R3FileStreamDataStream@Ogre@@8
rdata$r	ENDS
;	COMDAT ??_7FileStreamDataStream@Ogre@@6B@
CONST	SEGMENT
??_7FileStreamDataStream@Ogre@@6B@ DD FLAT:??_R4FileStreamDataStream@Ogre@@6B@ ; Ogre::FileStreamDataStream::`vftable'
	DD	FLAT:??_EFileStreamDataStream@Ogre@@UAEPAXI@Z
	DD	FLAT:?read@FileStreamDataStream@Ogre@@UAEIPAXI@Z
	DD	FLAT:?write@FileStreamDataStream@Ogre@@UAEIPBXI@Z
	DD	FLAT:?readLine@FileStreamDataStream@Ogre@@UAEIPADIABV?$basic_string@DU?$char_traits@D@std@@V?$allocator@D@2@@std@@@Z
	DD	FLAT:?getLine@DataStream@Ogre@@UAE?AV?$basic_string@DU?$char_traits@D@std@@V?$allocator@D@2@@std@@_N@Z
	DD	FLAT:?getAsString@DataStream@Ogre@@UAE?AV?$basic_string@DU?$char_traits@D@std@@V?$allocator@D@2@@std@@XZ
	DD	FLAT:?skipLine@DataStream@Ogre@@UAEIABV?$basic_string@DU?$char_traits@D@std@@V?$allocator@D@2@@std@@@Z
	DD	FLAT:?skip@FileStreamDataStream@Ogre@@UAEXJ@Z
	DD	FLAT:?seek@FileStreamDataStream@Ogre@@UAEXI@Z
	DD	FLAT:?tell@FileStreamDataStream@Ogre@@UBEIXZ
	DD	FLAT:?eof@FileStreamDataStream@Ogre@@UBE_NXZ
	DD	FLAT:?size@DataStream@Ogre@@UBEIXZ
	DD	FLAT:?close@FileStreamDataStream@Ogre@@UAEXXZ
	DD	FLAT:?getMemoryImage@FileStreamDataStream@Ogre@@UAEPAXXZ
CONST	ENDS
;	COMDAT xdata$x
xdata$x	SEGMENT
__unwindtable$??0FileStreamDataStream@Ogre@@QAE@ABV01@@Z DD 0ffffffffH
	DD	FLAT:__unwindfunclet$??0FileStreamDataStream@Ogre@@QAE@ABV01@@Z$0
__ehfuncinfo$??0FileStreamDataStream@Ogre@@QAE@ABV01@@Z DD 019930522H
	DD	01H
	DD	FLAT:__unwindtable$??0FileStreamDataStream@Ogre@@QAE@ABV01@@Z
	DD	2 DUP(00H)
	DD	2 DUP(00H)
	DD	00H
	DD	00H
; Function compile flags: /Odtp
xdata$x	ENDS
;	COMDAT ??0FileStreamDataStream@Ogre@@QAE@ABV01@@Z
_TEXT	SEGMENT
_this$ = -16						; size = 4
__$EHRec$ = -12						; size = 12
___that$ = 8						; size = 4
??0FileStreamDataStream@Ogre@@QAE@ABV01@@Z PROC		; Ogre::FileStreamDataStream::FileStreamDataStream, COMDAT
; _this$ = ecx
	push	ebp
	mov	ebp, esp
	push	-1
	push	__ehhandler$??0FileStreamDataStream@Ogre@@QAE@ABV01@@Z
	mov	eax, DWORD PTR fs:0
	push	eax
	push	ecx
	mov	eax, DWORD PTR ___security_cookie
	xor	eax, ebp
	push	eax
	lea	eax, DWORD PTR __$EHRec$[ebp]
	mov	DWORD PTR fs:0, eax
	mov	DWORD PTR _this$[ebp], ecx
	mov	eax, DWORD PTR ___that$[ebp]
	push	eax
	mov	ecx, DWORD PTR _this$[ebp]
	call	??0DataStream@Ogre@@QAE@ABV01@@Z
	mov	DWORD PTR __$EHRec$[ebp+8], 0
	mov	ecx, DWORD PTR _this$[ebp]
	mov	DWORD PTR [ecx], OFFSET ??_7FileStreamDataStream@Ogre@@6B@
	mov	edx, DWORD PTR _this$[ebp]
	mov	eax, DWORD PTR ___that$[ebp]
	mov	ecx, DWORD PTR [eax+36]
	mov	DWORD PTR [edx+36], ecx
	mov	edx, DWORD PTR _this$[ebp]
	mov	eax, DWORD PTR ___that$[ebp]
	mov	cl, BYTE PTR [eax+40]
	mov	BYTE PTR [edx+40], cl
	mov	DWORD PTR __$EHRec$[ebp+8], -1
	mov	eax, DWORD PTR _this$[ebp]
	mov	ecx, DWORD PTR __$EHRec$[ebp]
	mov	DWORD PTR fs:0, ecx
	pop	ecx
	mov	esp, ebp
	pop	ebp
	ret	4
_TEXT	ENDS
;	COMDAT text$x
text$x	SEGMENT
__unwindfunclet$??0FileStreamDataStream@Ogre@@QAE@ABV01@@Z$0:
	mov	ecx, DWORD PTR _this$[ebp]
	jmp	??1DataStream@Ogre@@UAE@XZ		; Ogre::DataStream::~DataStream
__ehhandler$??0FileStreamDataStream@Ogre@@QAE@ABV01@@Z:
	mov	edx, DWORD PTR [esp+8]
	lea	eax, DWORD PTR [edx+12]
	mov	ecx, DWORD PTR [edx-8]
	xor	ecx, eax
	call	@__security_check_cookie@4
	mov	eax, OFFSET __ehfuncinfo$??0FileStreamDataStream@Ogre@@QAE@ABV01@@Z
	jmp	___CxxFrameHandler3
text$x	ENDS
??0FileStreamDataStream@Ogre@@QAE@ABV01@@Z ENDP		; Ogre::FileStreamDataStream::FileStreamDataStream
PUBLIC	??4FileStreamDataStream@Ogre@@QAEAAV01@ABV01@@Z	; Ogre::FileStreamDataStream::operator=
; Function compile flags: /Odtp
;	COMDAT ??4FileStreamDataStream@Ogre@@QAEAAV01@ABV01@@Z
_TEXT	SEGMENT
_this$ = -4						; size = 4
___that$ = 8						; size = 4
??4FileStreamDataStream@Ogre@@QAEAAV01@ABV01@@Z PROC	; Ogre::FileStreamDataStream::operator=, COMDAT
; _this$ = ecx
	push	ebp
	mov	ebp, esp
	push	ecx
	mov	DWORD PTR _this$[ebp], ecx
	mov	eax, DWORD PTR ___that$[ebp]
	push	eax
	mov	ecx, DWORD PTR _this$[ebp]
	call	??4DataStream@Ogre@@QAEAAV01@ABV01@@Z
	mov	ecx, DWORD PTR _this$[ebp]
	mov	edx, DWORD PTR ___that$[ebp]
	mov	eax, DWORD PTR [edx+36]
	mov	DWORD PTR [ecx+36], eax
	mov	ecx, DWORD PTR _this$[ebp]
	mov	edx, DWORD PTR ___that$[ebp]
	mov	al, BYTE PTR [edx+40]
	mov	BYTE PTR [ecx+40], al
	mov	eax, DWORD PTR _this$[ebp]
	mov	esp, ebp
	pop	ebp
	ret	4
??4FileStreamDataStream@Ogre@@QAEAAV01@ABV01@@Z ENDP	; Ogre::FileStreamDataStream::operator=
_TEXT	ENDS
PUBLIC	??_GFileStreamDataStream@Ogre@@UAEPAXI@Z	; Ogre::FileStreamDataStream::`scalar deleting destructor'
EXTRN	??1FileStreamDataStream@Ogre@@UAE@XZ:PROC	; Ogre::FileStreamDataStream::~FileStreamDataStream
; Function compile flags: /Odtp
;	COMDAT ??_GFileStreamDataStream@Ogre@@UAEPAXI@Z
_TEXT	SEGMENT
_this$ = -4						; size = 4
___flags$ = 8						; size = 4
??_GFileStreamDataStream@Ogre@@UAEPAXI@Z PROC		; Ogre::FileStreamDataStream::`scalar deleting destructor', COMDAT
; _this$ = ecx
	push	ebp
	mov	ebp, esp
	push	ecx
	mov	DWORD PTR _this$[ebp], ecx
	mov	ecx, DWORD PTR _this$[ebp]
	call	??1FileStreamDataStream@Ogre@@UAE@XZ	; Ogre::FileStreamDataStream::~FileStreamDataStream
	mov	eax, DWORD PTR ___flags$[ebp]
	and	eax, 1
	je	SHORT $LN1@scalar@3
	mov	ecx, DWORD PTR _this$[ebp]
	push	ecx
	call	??3@YAXPAX@Z				; operator delete
	add	esp, 4
$LN1@scalar@3:
	mov	eax, DWORD PTR _this$[ebp]
	mov	esp, ebp
	pop	ebp
	ret	4
??_GFileStreamDataStream@Ogre@@UAEPAXI@Z ENDP		; Ogre::FileStreamDataStream::`scalar deleting destructor'
; Function compile flags: /Odtp
_TEXT	ENDS
;	COMDAT ??_EFileStreamDataStream@Ogre@@UAEPAXI@Z
_TEXT	SEGMENT
_this$ = -4						; size = 4
___flags$ = 8						; size = 4
??_EFileStreamDataStream@Ogre@@UAEPAXI@Z PROC		; Ogre::FileStreamDataStream::`vector deleting destructor', COMDAT
; _this$ = ecx
	push	ebp
	mov	ebp, esp
	push	ecx
	mov	DWORD PTR _this$[ebp], ecx
	mov	eax, DWORD PTR ___flags$[ebp]
	and	eax, 2
	je	SHORT $LN3@vector@3
	push	OFFSET ??1FileStreamDataStream@Ogre@@UAE@XZ ; Ogre::FileStreamDataStream::~FileStreamDataStream
	mov	ecx, DWORD PTR _this$[ebp]
	mov	edx, DWORD PTR [ecx-4]
	push	edx
	push	44					; 0000002cH
	mov	eax, DWORD PTR _this$[ebp]
	push	eax
	call	??_M@YGXPAXIHP6EX0@Z@Z
	mov	ecx, DWORD PTR ___flags$[ebp]
	and	ecx, 1
	je	SHORT $LN2@vector@3
	mov	edx, DWORD PTR _this$[ebp]
	sub	edx, 4
	push	edx
	call	??_V@YAXPAX@Z				; operator delete[]
	add	esp, 4
$LN2@vector@3:
	mov	eax, DWORD PTR _this$[ebp]
	sub	eax, 4
	jmp	SHORT $LN4@vector@3
$LN3@vector@3:
	mov	ecx, DWORD PTR _this$[ebp]
	call	??1FileStreamDataStream@Ogre@@UAE@XZ	; Ogre::FileStreamDataStream::~FileStreamDataStream
	mov	eax, DWORD PTR ___flags$[ebp]
	and	eax, 1
	je	SHORT $LN1@vector@3
	mov	ecx, DWORD PTR _this$[ebp]
	push	ecx
	call	??3@YAXPAX@Z				; operator delete
	add	esp, 4
$LN1@vector@3:
	mov	eax, DWORD PTR _this$[ebp]
$LN4@vector@3:
	mov	esp, ebp
	pop	ebp
	ret	4
??_EFileStreamDataStream@Ogre@@UAEPAXI@Z ENDP		; Ogre::FileStreamDataStream::`vector deleting destructor'
_TEXT	ENDS
PUBLIC	??_7FileHandleDataStream@Ogre@@6B@		; Ogre::FileHandleDataStream::`vftable'
PUBLIC	??0FileHandleDataStream@Ogre@@QAE@ABV01@@Z	; Ogre::FileHandleDataStream::FileHandleDataStream
PUBLIC	??_R4FileHandleDataStream@Ogre@@6B@		; Ogre::FileHandleDataStream::`RTTI Complete Object Locator'
PUBLIC	??_R0?AVFileHandleDataStream@Ogre@@@8		; Ogre::FileHandleDataStream `RTTI Type Descriptor'
PUBLIC	??_R3FileHandleDataStream@Ogre@@8		; Ogre::FileHandleDataStream::`RTTI Class Hierarchy Descriptor'
PUBLIC	??_R2FileHandleDataStream@Ogre@@8		; Ogre::FileHandleDataStream::`RTTI Base Class Array'
PUBLIC	??_R1A@?0A@EA@FileHandleDataStream@Ogre@@8	; Ogre::FileHandleDataStream::`RTTI Base Class Descriptor at (0,-1,0,64)'
PUBLIC	??_EFileHandleDataStream@Ogre@@UAEPAXI@Z	; Ogre::FileHandleDataStream::`vector deleting destructor'
EXTRN	?read@FileHandleDataStream@Ogre@@UAEIPAXI@Z:PROC ; Ogre::FileHandleDataStream::read
EXTRN	?write@FileHandleDataStream@Ogre@@UAEIPBXI@Z:PROC ; Ogre::FileHandleDataStream::write
EXTRN	?skip@FileHandleDataStream@Ogre@@UAEXJ@Z:PROC	; Ogre::FileHandleDataStream::skip
EXTRN	?seek@FileHandleDataStream@Ogre@@UAEXI@Z:PROC	; Ogre::FileHandleDataStream::seek
EXTRN	?tell@FileHandleDataStream@Ogre@@UBEIXZ:PROC	; Ogre::FileHandleDataStream::tell
EXTRN	?eof@FileHandleDataStream@Ogre@@UBE_NXZ:PROC	; Ogre::FileHandleDataStream::eof
EXTRN	?close@FileHandleDataStream@Ogre@@UAEXXZ:PROC	; Ogre::FileHandleDataStream::close
EXTRN	?getMemoryImage@FileHandleDataStream@Ogre@@UAEPAXXZ:PROC ; Ogre::FileHandleDataStream::getMemoryImage
;	COMDAT ??_R1A@?0A@EA@FileHandleDataStream@Ogre@@8
rdata$r	SEGMENT
??_R1A@?0A@EA@FileHandleDataStream@Ogre@@8 DD FLAT:??_R0?AVFileHandleDataStream@Ogre@@@8 ; Ogre::FileHandleDataStream::`RTTI Base Class Descriptor at (0,-1,0,64)'
	DD	01H
	DD	00H
	DD	0ffffffffH
	DD	00H
	DD	040H
	DD	FLAT:??_R3FileHandleDataStream@Ogre@@8
rdata$r	ENDS
;	COMDAT ??_R2FileHandleDataStream@Ogre@@8
rdata$r	SEGMENT
??_R2FileHandleDataStream@Ogre@@8 DD FLAT:??_R1A@?0A@EA@FileHandleDataStream@Ogre@@8 ; Ogre::FileHandleDataStream::`RTTI Base Class Array'
	DD	FLAT:??_R1A@?0A@EA@DataStream@Ogre@@8
rdata$r	ENDS
;	COMDAT ??_R3FileHandleDataStream@Ogre@@8
rdata$r	SEGMENT
??_R3FileHandleDataStream@Ogre@@8 DD 00H		; Ogre::FileHandleDataStream::`RTTI Class Hierarchy Descriptor'
	DD	00H
	DD	02H
	DD	FLAT:??_R2FileHandleDataStream@Ogre@@8
rdata$r	ENDS
;	COMDAT ??_R0?AVFileHandleDataStream@Ogre@@@8
_DATA	SEGMENT
??_R0?AVFileHandleDataStream@Ogre@@@8 DD FLAT:??_7type_info@@6B@ ; Ogre::FileHandleDataStream `RTTI Type Descriptor'
	DD	00H
	DB	'.?AVFileHandleDataStream@Ogre@@', 00H
_DATA	ENDS
;	COMDAT ??_R4FileHandleDataStream@Ogre@@6B@
rdata$r	SEGMENT
??_R4FileHandleDataStream@Ogre@@6B@ DD 00H		; Ogre::FileHandleDataStream::`RTTI Complete Object Locator'
	DD	00H
	DD	00H
	DD	FLAT:??_R0?AVFileHandleDataStream@Ogre@@@8
	DD	FLAT:??_R3FileHandleDataStream@Ogre@@8
rdata$r	ENDS
;	COMDAT ??_7FileHandleDataStream@Ogre@@6B@
CONST	SEGMENT
??_7FileHandleDataStream@Ogre@@6B@ DD FLAT:??_R4FileHandleDataStream@Ogre@@6B@ ; Ogre::FileHandleDataStream::`vftable'
	DD	FLAT:??_EFileHandleDataStream@Ogre@@UAEPAXI@Z
	DD	FLAT:?read@FileHandleDataStream@Ogre@@UAEIPAXI@Z
	DD	FLAT:?write@FileHandleDataStream@Ogre@@UAEIPBXI@Z
	DD	FLAT:?readLine@DataStream@Ogre@@UAEIPADIABV?$basic_string@DU?$char_traits@D@std@@V?$allocator@D@2@@std@@@Z
	DD	FLAT:?getLine@DataStream@Ogre@@UAE?AV?$basic_string@DU?$char_traits@D@std@@V?$allocator@D@2@@std@@_N@Z
	DD	FLAT:?getAsString@DataStream@Ogre@@UAE?AV?$basic_string@DU?$char_traits@D@std@@V?$allocator@D@2@@std@@XZ
	DD	FLAT:?skipLine@DataStream@Ogre@@UAEIABV?$basic_string@DU?$char_traits@D@std@@V?$allocator@D@2@@std@@@Z
	DD	FLAT:?skip@FileHandleDataStream@Ogre@@UAEXJ@Z
	DD	FLAT:?seek@FileHandleDataStream@Ogre@@UAEXI@Z
	DD	FLAT:?tell@FileHandleDataStream@Ogre@@UBEIXZ
	DD	FLAT:?eof@FileHandleDataStream@Ogre@@UBE_NXZ
	DD	FLAT:?size@DataStream@Ogre@@UBEIXZ
	DD	FLAT:?close@FileHandleDataStream@Ogre@@UAEXXZ
	DD	FLAT:?getMemoryImage@FileHandleDataStream@Ogre@@UAEPAXXZ
CONST	ENDS
;	COMDAT xdata$x
xdata$x	SEGMENT
__unwindtable$??0FileHandleDataStream@Ogre@@QAE@ABV01@@Z DD 0ffffffffH
	DD	FLAT:__unwindfunclet$??0FileHandleDataStream@Ogre@@QAE@ABV01@@Z$0
__ehfuncinfo$??0FileHandleDataStream@Ogre@@QAE@ABV01@@Z DD 019930522H
	DD	01H
	DD	FLAT:__unwindtable$??0FileHandleDataStream@Ogre@@QAE@ABV01@@Z
	DD	2 DUP(00H)
	DD	2 DUP(00H)
	DD	00H
	DD	00H
; Function compile flags: /Odtp
xdata$x	ENDS
;	COMDAT ??0FileHandleDataStream@Ogre@@QAE@ABV01@@Z
_TEXT	SEGMENT
_this$ = -16						; size = 4
__$EHRec$ = -12						; size = 12
___that$ = 8						; size = 4
??0FileHandleDataStream@Ogre@@QAE@ABV01@@Z PROC		; Ogre::FileHandleDataStream::FileHandleDataStream, COMDAT
; _this$ = ecx
	push	ebp
	mov	ebp, esp
	push	-1
	push	__ehhandler$??0FileHandleDataStream@Ogre@@QAE@ABV01@@Z
	mov	eax, DWORD PTR fs:0
	push	eax
	push	ecx
	mov	eax, DWORD PTR ___security_cookie
	xor	eax, ebp
	push	eax
	lea	eax, DWORD PTR __$EHRec$[ebp]
	mov	DWORD PTR fs:0, eax
	mov	DWORD PTR _this$[ebp], ecx
	mov	eax, DWORD PTR ___that$[ebp]
	push	eax
	mov	ecx, DWORD PTR _this$[ebp]
	call	??0DataStream@Ogre@@QAE@ABV01@@Z
	mov	DWORD PTR __$EHRec$[ebp+8], 0
	mov	ecx, DWORD PTR _this$[ebp]
	mov	DWORD PTR [ecx], OFFSET ??_7FileHandleDataStream@Ogre@@6B@
	mov	edx, DWORD PTR _this$[ebp]
	mov	eax, DWORD PTR ___that$[ebp]
	mov	ecx, DWORD PTR [eax+36]
	mov	DWORD PTR [edx+36], ecx
	mov	edx, DWORD PTR _this$[ebp]
	mov	eax, DWORD PTR ___that$[ebp]
	mov	ecx, DWORD PTR [eax+40]
	mov	DWORD PTR [edx+40], ecx
	mov	DWORD PTR __$EHRec$[ebp+8], -1
	mov	eax, DWORD PTR _this$[ebp]
	mov	ecx, DWORD PTR __$EHRec$[ebp]
	mov	DWORD PTR fs:0, ecx
	pop	ecx
	mov	esp, ebp
	pop	ebp
	ret	4
_TEXT	ENDS
;	COMDAT text$x
text$x	SEGMENT
__unwindfunclet$??0FileHandleDataStream@Ogre@@QAE@ABV01@@Z$0:
	mov	ecx, DWORD PTR _this$[ebp]
	jmp	??1DataStream@Ogre@@UAE@XZ		; Ogre::DataStream::~DataStream
__ehhandler$??0FileHandleDataStream@Ogre@@QAE@ABV01@@Z:
	mov	edx, DWORD PTR [esp+8]
	lea	eax, DWORD PTR [edx+12]
	mov	ecx, DWORD PTR [edx-8]
	xor	ecx, eax
	call	@__security_check_cookie@4
	mov	eax, OFFSET __ehfuncinfo$??0FileHandleDataStream@Ogre@@QAE@ABV01@@Z
	jmp	___CxxFrameHandler3
text$x	ENDS
??0FileHandleDataStream@Ogre@@QAE@ABV01@@Z ENDP		; Ogre::FileHandleDataStream::FileHandleDataStream
PUBLIC	??4FileHandleDataStream@Ogre@@QAEAAV01@ABV01@@Z	; Ogre::FileHandleDataStream::operator=
; Function compile flags: /Odtp
;	COMDAT ??4FileHandleDataStream@Ogre@@QAEAAV01@ABV01@@Z
_TEXT	SEGMENT
_this$ = -4						; size = 4
___that$ = 8						; size = 4
??4FileHandleDataStream@Ogre@@QAEAAV01@ABV01@@Z PROC	; Ogre::FileHandleDataStream::operator=, COMDAT
; _this$ = ecx
	push	ebp
	mov	ebp, esp
	push	ecx
	mov	DWORD PTR _this$[ebp], ecx
	mov	eax, DWORD PTR ___that$[ebp]
	push	eax
	mov	ecx, DWORD PTR _this$[ebp]
	call	??4DataStream@Ogre@@QAEAAV01@ABV01@@Z
	mov	ecx, DWORD PTR _this$[ebp]
	mov	edx, DWORD PTR ___that$[ebp]
	mov	eax, DWORD PTR [edx+36]
	mov	DWORD PTR [ecx+36], eax
	mov	ecx, DWORD PTR _this$[ebp]
	mov	edx, DWORD PTR ___that$[ebp]
	mov	eax, DWORD PTR [edx+40]
	mov	DWORD PTR [ecx+40], eax
	mov	eax, DWORD PTR _this$[ebp]
	mov	esp, ebp
	pop	ebp
	ret	4
??4FileHandleDataStream@Ogre@@QAEAAV01@ABV01@@Z ENDP	; Ogre::FileHandleDataStream::operator=
_TEXT	ENDS
PUBLIC	??_GFileHandleDataStream@Ogre@@UAEPAXI@Z	; Ogre::FileHandleDataStream::`scalar deleting destructor'
EXTRN	??1FileHandleDataStream@Ogre@@UAE@XZ:PROC	; Ogre::FileHandleDataStream::~FileHandleDataStream
; Function compile flags: /Odtp
;	COMDAT ??_GFileHandleDataStream@Ogre@@UAEPAXI@Z
_TEXT	SEGMENT
_this$ = -4						; size = 4
___flags$ = 8						; size = 4
??_GFileHandleDataStream@Ogre@@UAEPAXI@Z PROC		; Ogre::FileHandleDataStream::`scalar deleting destructor', COMDAT
; _this$ = ecx
	push	ebp
	mov	ebp, esp
	push	ecx
	mov	DWORD PTR _this$[ebp], ecx
	mov	ecx, DWORD PTR _this$[ebp]
	call	??1FileHandleDataStream@Ogre@@UAE@XZ	; Ogre::FileHandleDataStream::~FileHandleDataStream
	mov	eax, DWORD PTR ___flags$[ebp]
	and	eax, 1
	je	SHORT $LN1@scalar@4
	mov	ecx, DWORD PTR _this$[ebp]
	push	ecx
	call	??3@YAXPAX@Z				; operator delete
	add	esp, 4
$LN1@scalar@4:
	mov	eax, DWORD PTR _this$[ebp]
	mov	esp, ebp
	pop	ebp
	ret	4
??_GFileHandleDataStream@Ogre@@UAEPAXI@Z ENDP		; Ogre::FileHandleDataStream::`scalar deleting destructor'
; Function compile flags: /Odtp
_TEXT	ENDS
;	COMDAT ??_EFileHandleDataStream@Ogre@@UAEPAXI@Z
_TEXT	SEGMENT
_this$ = -4						; size = 4
___flags$ = 8						; size = 4
??_EFileHandleDataStream@Ogre@@UAEPAXI@Z PROC		; Ogre::FileHandleDataStream::`vector deleting destructor', COMDAT
; _this$ = ecx
	push	ebp
	mov	ebp, esp
	push	ecx
	mov	DWORD PTR _this$[ebp], ecx
	mov	eax, DWORD PTR ___flags$[ebp]
	and	eax, 2
	je	SHORT $LN3@vector@4
	push	OFFSET ??1FileHandleDataStream@Ogre@@UAE@XZ ; Ogre::FileHandleDataStream::~FileHandleDataStream
	mov	ecx, DWORD PTR _this$[ebp]
	mov	edx, DWORD PTR [ecx-4]
	push	edx
	push	44					; 0000002cH
	mov	eax, DWORD PTR _this$[ebp]
	push	eax
	call	??_M@YGXPAXIHP6EX0@Z@Z
	mov	ecx, DWORD PTR ___flags$[ebp]
	and	ecx, 1
	je	SHORT $LN2@vector@4
	mov	edx, DWORD PTR _this$[ebp]
	sub	edx, 4
	push	edx
	call	??_V@YAXPAX@Z				; operator delete[]
	add	esp, 4
$LN2@vector@4:
	mov	eax, DWORD PTR _this$[ebp]
	sub	eax, 4
	jmp	SHORT $LN4@vector@4
$LN3@vector@4:
	mov	ecx, DWORD PTR _this$[ebp]
	call	??1FileHandleDataStream@Ogre@@UAE@XZ	; Ogre::FileHandleDataStream::~FileHandleDataStream
	mov	eax, DWORD PTR ___flags$[ebp]
	and	eax, 1
	je	SHORT $LN1@vector@4
	mov	ecx, DWORD PTR _this$[ebp]
	push	ecx
	call	??3@YAXPAX@Z				; operator delete
	add	esp, 4
$LN1@vector@4:
	mov	eax, DWORD PTR _this$[ebp]
$LN4@vector@4:
	mov	esp, ebp
	pop	ebp
	ret	4
??_EFileHandleDataStream@Ogre@@UAEPAXI@Z ENDP		; Ogre::FileHandleDataStream::`vector deleting destructor'
_TEXT	ENDS
PUBLIC	??_7DataStreamObject@Ogre@@6B@			; Ogre::DataStreamObject::`vftable'
PUBLIC	??1DataStreamObject@Ogre@@MAE@XZ		; Ogre::DataStreamObject::~DataStreamObject
PUBLIC	??_R4DataStreamObject@Ogre@@6B@			; Ogre::DataStreamObject::`RTTI Complete Object Locator'
PUBLIC	??_R0?AVDataStreamObject@Ogre@@@8		; Ogre::DataStreamObject `RTTI Type Descriptor'
PUBLIC	??_R3DataStreamObject@Ogre@@8			; Ogre::DataStreamObject::`RTTI Class Hierarchy Descriptor'
PUBLIC	??_R2DataStreamObject@Ogre@@8			; Ogre::DataStreamObject::`RTTI Base Class Array'
PUBLIC	??_R1A@?0A@EA@DataStreamObject@Ogre@@8		; Ogre::DataStreamObject::`RTTI Base Class Descriptor at (0,-1,0,64)'
PUBLIC	??_EDataStreamObject@Ogre@@MAEPAXI@Z		; Ogre::DataStreamObject::`vector deleting destructor'
;	COMDAT ??_R1A@?0A@EA@DataStreamObject@Ogre@@8
rdata$r	SEGMENT
??_R1A@?0A@EA@DataStreamObject@Ogre@@8 DD FLAT:??_R0?AVDataStreamObject@Ogre@@@8 ; Ogre::DataStreamObject::`RTTI Base Class Descriptor at (0,-1,0,64)'
	DD	00H
	DD	00H
	DD	0ffffffffH
	DD	00H
	DD	040H
	DD	FLAT:??_R3DataStreamObject@Ogre@@8
rdata$r	ENDS
;	COMDAT ??_R2DataStreamObject@Ogre@@8
rdata$r	SEGMENT
??_R2DataStreamObject@Ogre@@8 DD FLAT:??_R1A@?0A@EA@DataStreamObject@Ogre@@8 ; Ogre::DataStreamObject::`RTTI Base Class Array'
rdata$r	ENDS
;	COMDAT ??_R3DataStreamObject@Ogre@@8
rdata$r	SEGMENT
??_R3DataStreamObject@Ogre@@8 DD 00H			; Ogre::DataStreamObject::`RTTI Class Hierarchy Descriptor'
	DD	00H
	DD	01H
	DD	FLAT:??_R2DataStreamObject@Ogre@@8
rdata$r	ENDS
;	COMDAT ??_R0?AVDataStreamObject@Ogre@@@8
_DATA	SEGMENT
??_R0?AVDataStreamObject@Ogre@@@8 DD FLAT:??_7type_info@@6B@ ; Ogre::DataStreamObject `RTTI Type Descriptor'
	DD	00H
	DB	'.?AVDataStreamObject@Ogre@@', 00H
_DATA	ENDS
;	COMDAT ??_R4DataStreamObject@Ogre@@6B@
rdata$r	SEGMENT
??_R4DataStreamObject@Ogre@@6B@ DD 00H			; Ogre::DataStreamObject::`RTTI Complete Object Locator'
	DD	00H
	DD	00H
	DD	FLAT:??_R0?AVDataStreamObject@Ogre@@@8
	DD	FLAT:??_R3DataStreamObject@Ogre@@8
rdata$r	ENDS
;	COMDAT ??_7DataStreamObject@Ogre@@6B@
CONST	SEGMENT
??_7DataStreamObject@Ogre@@6B@ DD FLAT:??_R4DataStreamObject@Ogre@@6B@ ; Ogre::DataStreamObject::`vftable'
	DD	FLAT:??_EDataStreamObject@Ogre@@MAEPAXI@Z
	DD	FLAT:__purecall
	DD	FLAT:__purecall
	DD	FLAT:__purecall
	DD	FLAT:__purecall
	DD	FLAT:__purecall
	DD	FLAT:__purecall
; Function compile flags: /Odtp
CONST	ENDS
;	COMDAT ??1DataStreamObject@Ogre@@MAE@XZ
_TEXT	SEGMENT
_this$ = -4						; size = 4
??1DataStreamObject@Ogre@@MAE@XZ PROC			; Ogre::DataStreamObject::~DataStreamObject, COMDAT
; _this$ = ecx

; 445  : 		virtual ~DataStreamObject(){}

	push	ebp
	mov	ebp, esp
	push	ecx
	mov	DWORD PTR _this$[ebp], ecx
	mov	eax, DWORD PTR _this$[ebp]
	mov	DWORD PTR [eax], OFFSET ??_7DataStreamObject@Ogre@@6B@
	mov	esp, ebp
	pop	ebp
	ret	0
??1DataStreamObject@Ogre@@MAE@XZ ENDP			; Ogre::DataStreamObject::~DataStreamObject
_TEXT	ENDS
PUBLIC	??0DataStreamObject@Ogre@@QAE@XZ		; Ogre::DataStreamObject::DataStreamObject
; Function compile flags: /Odtp
;	COMDAT ??0DataStreamObject@Ogre@@QAE@XZ
_TEXT	SEGMENT
_this$ = -4						; size = 4
??0DataStreamObject@Ogre@@QAE@XZ PROC			; Ogre::DataStreamObject::DataStreamObject, COMDAT
; _this$ = ecx
	push	ebp
	mov	ebp, esp
	push	ecx
	mov	DWORD PTR _this$[ebp], ecx
	mov	eax, DWORD PTR _this$[ebp]
	mov	DWORD PTR [eax], OFFSET ??_7DataStreamObject@Ogre@@6B@
	mov	eax, DWORD PTR _this$[ebp]
	mov	esp, ebp
	pop	ebp
	ret	0
??0DataStreamObject@Ogre@@QAE@XZ ENDP			; Ogre::DataStreamObject::DataStreamObject
_TEXT	ENDS
PUBLIC	??0DataStreamObject@Ogre@@QAE@ABV01@@Z		; Ogre::DataStreamObject::DataStreamObject
; Function compile flags: /Odtp
;	COMDAT ??0DataStreamObject@Ogre@@QAE@ABV01@@Z
_TEXT	SEGMENT
_this$ = -4						; size = 4
___that$ = 8						; size = 4
??0DataStreamObject@Ogre@@QAE@ABV01@@Z PROC		; Ogre::DataStreamObject::DataStreamObject, COMDAT
; _this$ = ecx
	push	ebp
	mov	ebp, esp
	push	ecx
	mov	DWORD PTR _this$[ebp], ecx
	mov	eax, DWORD PTR _this$[ebp]
	mov	DWORD PTR [eax], OFFSET ??_7DataStreamObject@Ogre@@6B@
	mov	eax, DWORD PTR _this$[ebp]
	mov	esp, ebp
	pop	ebp
	ret	4
??0DataStreamObject@Ogre@@QAE@ABV01@@Z ENDP		; Ogre::DataStreamObject::DataStreamObject
_TEXT	ENDS
PUBLIC	??4DataStreamObject@Ogre@@QAEAAV01@ABV01@@Z	; Ogre::DataStreamObject::operator=
; Function compile flags: /Odtp
;	COMDAT ??4DataStreamObject@Ogre@@QAEAAV01@ABV01@@Z
_TEXT	SEGMENT
_this$ = -4						; size = 4
___that$ = 8						; size = 4
??4DataStreamObject@Ogre@@QAEAAV01@ABV01@@Z PROC	; Ogre::DataStreamObject::operator=, COMDAT
; _this$ = ecx
	push	ebp
	mov	ebp, esp
	push	ecx
	mov	DWORD PTR _this$[ebp], ecx
	mov	eax, DWORD PTR _this$[ebp]
	mov	esp, ebp
	pop	ebp
	ret	4
??4DataStreamObject@Ogre@@QAEAAV01@ABV01@@Z ENDP	; Ogre::DataStreamObject::operator=
_TEXT	ENDS
PUBLIC	??_GDataStreamObject@Ogre@@MAEPAXI@Z		; Ogre::DataStreamObject::`scalar deleting destructor'
; Function compile flags: /Odtp
;	COMDAT ??_GDataStreamObject@Ogre@@MAEPAXI@Z
_TEXT	SEGMENT
_this$ = -4						; size = 4
___flags$ = 8						; size = 4
??_GDataStreamObject@Ogre@@MAEPAXI@Z PROC		; Ogre::DataStreamObject::`scalar deleting destructor', COMDAT
; _this$ = ecx
	push	ebp
	mov	ebp, esp
	push	ecx
	mov	DWORD PTR _this$[ebp], ecx
	mov	ecx, DWORD PTR _this$[ebp]
	call	??1DataStreamObject@Ogre@@MAE@XZ	; Ogre::DataStreamObject::~DataStreamObject
	mov	eax, DWORD PTR ___flags$[ebp]
	and	eax, 1
	je	SHORT $LN1@scalar@5
	mov	ecx, DWORD PTR _this$[ebp]
	push	ecx
	call	??3@YAXPAX@Z				; operator delete
	add	esp, 4
$LN1@scalar@5:
	mov	eax, DWORD PTR _this$[ebp]
	mov	esp, ebp
	pop	ebp
	ret	4
??_GDataStreamObject@Ogre@@MAEPAXI@Z ENDP		; Ogre::DataStreamObject::`scalar deleting destructor'
; Function compile flags: /Odtp
_TEXT	ENDS
;	COMDAT ??_EDataStreamObject@Ogre@@MAEPAXI@Z
_TEXT	SEGMENT
_this$ = -4						; size = 4
___flags$ = 8						; size = 4
??_EDataStreamObject@Ogre@@MAEPAXI@Z PROC		; Ogre::DataStreamObject::`vector deleting destructor', COMDAT
; _this$ = ecx
	push	ebp
	mov	ebp, esp
	push	ecx
	mov	DWORD PTR _this$[ebp], ecx
	mov	eax, DWORD PTR ___flags$[ebp]
	and	eax, 2
	je	SHORT $LN3@vector@5
	push	OFFSET ??1DataStreamObject@Ogre@@MAE@XZ	; Ogre::DataStreamObject::~DataStreamObject
	mov	ecx, DWORD PTR _this$[ebp]
	mov	edx, DWORD PTR [ecx-4]
	push	edx
	push	4
	mov	eax, DWORD PTR _this$[ebp]
	push	eax
	call	??_M@YGXPAXIHP6EX0@Z@Z
	mov	ecx, DWORD PTR ___flags$[ebp]
	and	ecx, 1
	je	SHORT $LN2@vector@5
	mov	edx, DWORD PTR _this$[ebp]
	sub	edx, 4
	push	edx
	call	??_V@YAXPAX@Z				; operator delete[]
	add	esp, 4
$LN2@vector@5:
	mov	eax, DWORD PTR _this$[ebp]
	sub	eax, 4
	jmp	SHORT $LN4@vector@5
$LN3@vector@5:
	mov	ecx, DWORD PTR _this$[ebp]
	call	??1DataStreamObject@Ogre@@MAE@XZ	; Ogre::DataStreamObject::~DataStreamObject
	mov	eax, DWORD PTR ___flags$[ebp]
	and	eax, 1
	je	SHORT $LN1@vector@5
	mov	ecx, DWORD PTR _this$[ebp]
	push	ecx
	call	??3@YAXPAX@Z				; operator delete
	add	esp, 4
$LN1@vector@5:
	mov	eax, DWORD PTR _this$[ebp]
$LN4@vector@5:
	mov	esp, ebp
	pop	ebp
	ret	4
??_EDataStreamObject@Ogre@@MAEPAXI@Z ENDP		; Ogre::DataStreamObject::`vector deleting destructor'
_TEXT	ENDS
PUBLIC	??_7ObjectDataStream@Ogre@@6B@			; Ogre::ObjectDataStream::`vftable'
PUBLIC	??0ObjectDataStream@Ogre@@QAE@ABV01@@Z		; Ogre::ObjectDataStream::ObjectDataStream
PUBLIC	??_R4ObjectDataStream@Ogre@@6B@			; Ogre::ObjectDataStream::`RTTI Complete Object Locator'
PUBLIC	??_R0?AVObjectDataStream@Ogre@@@8		; Ogre::ObjectDataStream `RTTI Type Descriptor'
PUBLIC	??_R3ObjectDataStream@Ogre@@8			; Ogre::ObjectDataStream::`RTTI Class Hierarchy Descriptor'
PUBLIC	??_R2ObjectDataStream@Ogre@@8			; Ogre::ObjectDataStream::`RTTI Base Class Array'
PUBLIC	??_R1A@?0A@EA@ObjectDataStream@Ogre@@8		; Ogre::ObjectDataStream::`RTTI Base Class Descriptor at (0,-1,0,64)'
PUBLIC	??_EObjectDataStream@Ogre@@UAEPAXI@Z		; Ogre::ObjectDataStream::`vector deleting destructor'
EXTRN	?read@ObjectDataStream@Ogre@@UAEIPAXI@Z:PROC	; Ogre::ObjectDataStream::read
EXTRN	?write@ObjectDataStream@Ogre@@UAEIPBXI@Z:PROC	; Ogre::ObjectDataStream::write
EXTRN	?skip@ObjectDataStream@Ogre@@UAEXJ@Z:PROC	; Ogre::ObjectDataStream::skip
EXTRN	?seek@ObjectDataStream@Ogre@@UAEXI@Z:PROC	; Ogre::ObjectDataStream::seek
EXTRN	?tell@ObjectDataStream@Ogre@@UBEIXZ:PROC	; Ogre::ObjectDataStream::tell
EXTRN	?eof@ObjectDataStream@Ogre@@UBE_NXZ:PROC	; Ogre::ObjectDataStream::eof
EXTRN	?size@ObjectDataStream@Ogre@@UBEIXZ:PROC	; Ogre::ObjectDataStream::size
EXTRN	?close@ObjectDataStream@Ogre@@UAEXXZ:PROC	; Ogre::ObjectDataStream::close
EXTRN	?getMemoryImage@ObjectDataStream@Ogre@@UAEPAXXZ:PROC ; Ogre::ObjectDataStream::getMemoryImage
;	COMDAT ??_R1A@?0A@EA@ObjectDataStream@Ogre@@8
rdata$r	SEGMENT
??_R1A@?0A@EA@ObjectDataStream@Ogre@@8 DD FLAT:??_R0?AVObjectDataStream@Ogre@@@8 ; Ogre::ObjectDataStream::`RTTI Base Class Descriptor at (0,-1,0,64)'
	DD	01H
	DD	00H
	DD	0ffffffffH
	DD	00H
	DD	040H
	DD	FLAT:??_R3ObjectDataStream@Ogre@@8
rdata$r	ENDS
;	COMDAT ??_R2ObjectDataStream@Ogre@@8
rdata$r	SEGMENT
??_R2ObjectDataStream@Ogre@@8 DD FLAT:??_R1A@?0A@EA@ObjectDataStream@Ogre@@8 ; Ogre::ObjectDataStream::`RTTI Base Class Array'
	DD	FLAT:??_R1A@?0A@EA@DataStream@Ogre@@8
rdata$r	ENDS
;	COMDAT ??_R3ObjectDataStream@Ogre@@8
rdata$r	SEGMENT
??_R3ObjectDataStream@Ogre@@8 DD 00H			; Ogre::ObjectDataStream::`RTTI Class Hierarchy Descriptor'
	DD	00H
	DD	02H
	DD	FLAT:??_R2ObjectDataStream@Ogre@@8
rdata$r	ENDS
;	COMDAT ??_R0?AVObjectDataStream@Ogre@@@8
_DATA	SEGMENT
??_R0?AVObjectDataStream@Ogre@@@8 DD FLAT:??_7type_info@@6B@ ; Ogre::ObjectDataStream `RTTI Type Descriptor'
	DD	00H
	DB	'.?AVObjectDataStream@Ogre@@', 00H
_DATA	ENDS
;	COMDAT ??_R4ObjectDataStream@Ogre@@6B@
rdata$r	SEGMENT
??_R4ObjectDataStream@Ogre@@6B@ DD 00H			; Ogre::ObjectDataStream::`RTTI Complete Object Locator'
	DD	00H
	DD	00H
	DD	FLAT:??_R0?AVObjectDataStream@Ogre@@@8
	DD	FLAT:??_R3ObjectDataStream@Ogre@@8
rdata$r	ENDS
;	COMDAT ??_7ObjectDataStream@Ogre@@6B@
CONST	SEGMENT
??_7ObjectDataStream@Ogre@@6B@ DD FLAT:??_R4ObjectDataStream@Ogre@@6B@ ; Ogre::ObjectDataStream::`vftable'
	DD	FLAT:??_EObjectDataStream@Ogre@@UAEPAXI@Z
	DD	FLAT:?read@ObjectDataStream@Ogre@@UAEIPAXI@Z
	DD	FLAT:?write@ObjectDataStream@Ogre@@UAEIPBXI@Z
	DD	FLAT:?readLine@DataStream@Ogre@@UAEIPADIABV?$basic_string@DU?$char_traits@D@std@@V?$allocator@D@2@@std@@@Z
	DD	FLAT:?getLine@DataStream@Ogre@@UAE?AV?$basic_string@DU?$char_traits@D@std@@V?$allocator@D@2@@std@@_N@Z
	DD	FLAT:?getAsString@DataStream@Ogre@@UAE?AV?$basic_string@DU?$char_traits@D@std@@V?$allocator@D@2@@std@@XZ
	DD	FLAT:?skipLine@DataStream@Ogre@@UAEIABV?$basic_string@DU?$char_traits@D@std@@V?$allocator@D@2@@std@@@Z
	DD	FLAT:?skip@ObjectDataStream@Ogre@@UAEXJ@Z
	DD	FLAT:?seek@ObjectDataStream@Ogre@@UAEXI@Z
	DD	FLAT:?tell@ObjectDataStream@Ogre@@UBEIXZ
	DD	FLAT:?eof@ObjectDataStream@Ogre@@UBE_NXZ
	DD	FLAT:?size@ObjectDataStream@Ogre@@UBEIXZ
	DD	FLAT:?close@ObjectDataStream@Ogre@@UAEXXZ
	DD	FLAT:?getMemoryImage@ObjectDataStream@Ogre@@UAEPAXXZ
CONST	ENDS
;	COMDAT xdata$x
xdata$x	SEGMENT
__unwindtable$??0ObjectDataStream@Ogre@@QAE@ABV01@@Z DD 0ffffffffH
	DD	FLAT:__unwindfunclet$??0ObjectDataStream@Ogre@@QAE@ABV01@@Z$0
__ehfuncinfo$??0ObjectDataStream@Ogre@@QAE@ABV01@@Z DD 019930522H
	DD	01H
	DD	FLAT:__unwindtable$??0ObjectDataStream@Ogre@@QAE@ABV01@@Z
	DD	2 DUP(00H)
	DD	2 DUP(00H)
	DD	00H
	DD	00H
; Function compile flags: /Odtp
xdata$x	ENDS
;	COMDAT ??0ObjectDataStream@Ogre@@QAE@ABV01@@Z
_TEXT	SEGMENT
_this$ = -16						; size = 4
__$EHRec$ = -12						; size = 12
___that$ = 8						; size = 4
??0ObjectDataStream@Ogre@@QAE@ABV01@@Z PROC		; Ogre::ObjectDataStream::ObjectDataStream, COMDAT
; _this$ = ecx
	push	ebp
	mov	ebp, esp
	push	-1
	push	__ehhandler$??0ObjectDataStream@Ogre@@QAE@ABV01@@Z
	mov	eax, DWORD PTR fs:0
	push	eax
	push	ecx
	mov	eax, DWORD PTR ___security_cookie
	xor	eax, ebp
	push	eax
	lea	eax, DWORD PTR __$EHRec$[ebp]
	mov	DWORD PTR fs:0, eax
	mov	DWORD PTR _this$[ebp], ecx
	mov	eax, DWORD PTR ___that$[ebp]
	push	eax
	mov	ecx, DWORD PTR _this$[ebp]
	call	??0DataStream@Ogre@@QAE@ABV01@@Z
	mov	DWORD PTR __$EHRec$[ebp+8], 0
	mov	ecx, DWORD PTR _this$[ebp]
	mov	DWORD PTR [ecx], OFFSET ??_7ObjectDataStream@Ogre@@6B@
	mov	edx, DWORD PTR _this$[ebp]
	mov	eax, DWORD PTR ___that$[ebp]
	mov	ecx, DWORD PTR [eax+36]
	mov	DWORD PTR [edx+36], ecx
	mov	edx, DWORD PTR _this$[ebp]
	mov	eax, DWORD PTR ___that$[ebp]
	mov	ecx, DWORD PTR [eax+40]
	mov	DWORD PTR [edx+40], ecx
	mov	DWORD PTR __$EHRec$[ebp+8], -1
	mov	eax, DWORD PTR _this$[ebp]
	mov	ecx, DWORD PTR __$EHRec$[ebp]
	mov	DWORD PTR fs:0, ecx
	pop	ecx
	mov	esp, ebp
	pop	ebp
	ret	4
_TEXT	ENDS
;	COMDAT text$x
text$x	SEGMENT
__unwindfunclet$??0ObjectDataStream@Ogre@@QAE@ABV01@@Z$0:
	mov	ecx, DWORD PTR _this$[ebp]
	jmp	??1DataStream@Ogre@@UAE@XZ		; Ogre::DataStream::~DataStream
__ehhandler$??0ObjectDataStream@Ogre@@QAE@ABV01@@Z:
	mov	edx, DWORD PTR [esp+8]
	lea	eax, DWORD PTR [edx+12]
	mov	ecx, DWORD PTR [edx-8]
	xor	ecx, eax
	call	@__security_check_cookie@4
	mov	eax, OFFSET __ehfuncinfo$??0ObjectDataStream@Ogre@@QAE@ABV01@@Z
	jmp	___CxxFrameHandler3
text$x	ENDS
??0ObjectDataStream@Ogre@@QAE@ABV01@@Z ENDP		; Ogre::ObjectDataStream::ObjectDataStream
PUBLIC	??4ObjectDataStream@Ogre@@QAEAAV01@ABV01@@Z	; Ogre::ObjectDataStream::operator=
; Function compile flags: /Odtp
;	COMDAT ??4ObjectDataStream@Ogre@@QAEAAV01@ABV01@@Z
_TEXT	SEGMENT
_this$ = -4						; size = 4
___that$ = 8						; size = 4
??4ObjectDataStream@Ogre@@QAEAAV01@ABV01@@Z PROC	; Ogre::ObjectDataStream::operator=, COMDAT
; _this$ = ecx
	push	ebp
	mov	ebp, esp
	push	ecx
	mov	DWORD PTR _this$[ebp], ecx
	mov	eax, DWORD PTR ___that$[ebp]
	push	eax
	mov	ecx, DWORD PTR _this$[ebp]
	call	??4DataStream@Ogre@@QAEAAV01@ABV01@@Z
	mov	ecx, DWORD PTR _this$[ebp]
	mov	edx, DWORD PTR ___that$[ebp]
	mov	eax, DWORD PTR [edx+36]
	mov	DWORD PTR [ecx+36], eax
	mov	ecx, DWORD PTR _this$[ebp]
	mov	edx, DWORD PTR ___that$[ebp]
	mov	eax, DWORD PTR [edx+40]
	mov	DWORD PTR [ecx+40], eax
	mov	eax, DWORD PTR _this$[ebp]
	mov	esp, ebp
	pop	ebp
	ret	4
??4ObjectDataStream@Ogre@@QAEAAV01@ABV01@@Z ENDP	; Ogre::ObjectDataStream::operator=
_TEXT	ENDS
PUBLIC	??_GObjectDataStream@Ogre@@UAEPAXI@Z		; Ogre::ObjectDataStream::`scalar deleting destructor'
EXTRN	??1ObjectDataStream@Ogre@@UAE@XZ:PROC		; Ogre::ObjectDataStream::~ObjectDataStream
; Function compile flags: /Odtp
;	COMDAT ??_GObjectDataStream@Ogre@@UAEPAXI@Z
_TEXT	SEGMENT
_this$ = -4						; size = 4
___flags$ = 8						; size = 4
??_GObjectDataStream@Ogre@@UAEPAXI@Z PROC		; Ogre::ObjectDataStream::`scalar deleting destructor', COMDAT
; _this$ = ecx
	push	ebp
	mov	ebp, esp
	push	ecx
	mov	DWORD PTR _this$[ebp], ecx
	mov	ecx, DWORD PTR _this$[ebp]
	call	??1ObjectDataStream@Ogre@@UAE@XZ	; Ogre::ObjectDataStream::~ObjectDataStream
	mov	eax, DWORD PTR ___flags$[ebp]
	and	eax, 1
	je	SHORT $LN1@scalar@6
	mov	ecx, DWORD PTR _this$[ebp]
	push	ecx
	call	??3@YAXPAX@Z				; operator delete
	add	esp, 4
$LN1@scalar@6:
	mov	eax, DWORD PTR _this$[ebp]
	mov	esp, ebp
	pop	ebp
	ret	4
??_GObjectDataStream@Ogre@@UAEPAXI@Z ENDP		; Ogre::ObjectDataStream::`scalar deleting destructor'
; Function compile flags: /Odtp
_TEXT	ENDS
;	COMDAT ??_EObjectDataStream@Ogre@@UAEPAXI@Z
_TEXT	SEGMENT
_this$ = -4						; size = 4
___flags$ = 8						; size = 4
??_EObjectDataStream@Ogre@@UAEPAXI@Z PROC		; Ogre::ObjectDataStream::`vector deleting destructor', COMDAT
; _this$ = ecx
	push	ebp
	mov	ebp, esp
	push	ecx
	mov	DWORD PTR _this$[ebp], ecx
	mov	eax, DWORD PTR ___flags$[ebp]
	and	eax, 2
	je	SHORT $LN3@vector@6
	push	OFFSET ??1ObjectDataStream@Ogre@@UAE@XZ	; Ogre::ObjectDataStream::~ObjectDataStream
	mov	ecx, DWORD PTR _this$[ebp]
	mov	edx, DWORD PTR [ecx-4]
	push	edx
	push	44					; 0000002cH
	mov	eax, DWORD PTR _this$[ebp]
	push	eax
	call	??_M@YGXPAXIHP6EX0@Z@Z
	mov	ecx, DWORD PTR ___flags$[ebp]
	and	ecx, 1
	je	SHORT $LN2@vector@6
	mov	edx, DWORD PTR _this$[ebp]
	sub	edx, 4
	push	edx
	call	??_V@YAXPAX@Z				; operator delete[]
	add	esp, 4
$LN2@vector@6:
	mov	eax, DWORD PTR _this$[ebp]
	sub	eax, 4
	jmp	SHORT $LN4@vector@6
$LN3@vector@6:
	mov	ecx, DWORD PTR _this$[ebp]
	call	??1ObjectDataStream@Ogre@@UAE@XZ	; Ogre::ObjectDataStream::~ObjectDataStream
	mov	eax, DWORD PTR ___flags$[ebp]
	and	eax, 1
	je	SHORT $LN1@vector@6
	mov	ecx, DWORD PTR _this$[ebp]
	push	ecx
	call	??3@YAXPAX@Z				; operator delete
	add	esp, 4
$LN1@vector@6:
	mov	eax, DWORD PTR _this$[ebp]
$LN4@vector@6:
	mov	esp, ebp
	pop	ebp
	ret	4
??_EObjectDataStream@Ogre@@UAEPAXI@Z ENDP		; Ogre::ObjectDataStream::`vector deleting destructor'
_TEXT	ENDS
PUBLIC	??4MemoryDelegation@Ogre@@QAEAAV01@ABV01@@Z	; Ogre::MemoryDelegation::operator=
; Function compile flags: /Odtp
;	COMDAT ??4MemoryDelegation@Ogre@@QAEAAV01@ABV01@@Z
_TEXT	SEGMENT
_this$ = -4						; size = 4
___that$ = 8						; size = 4
??4MemoryDelegation@Ogre@@QAEAAV01@ABV01@@Z PROC	; Ogre::MemoryDelegation::operator=, COMDAT
; _this$ = ecx
	push	ebp
	mov	ebp, esp
	push	ecx
	mov	DWORD PTR _this$[ebp], ecx
	mov	eax, DWORD PTR _this$[ebp]
	mov	esp, ebp
	pop	ebp
	ret	4
??4MemoryDelegation@Ogre@@QAEAAV01@ABV01@@Z ENDP	; Ogre::MemoryDelegation::operator=
_TEXT	ENDS
PUBLIC	?getBaseClass@RuntimeClass@Ogre@@QBEPBV12@XZ	; Ogre::RuntimeClass::getBaseClass
; Function compile flags: /Odtp
; File i:\svnroot\client\ogremain\ogrebaseobject.h
;	COMDAT ?getBaseClass@RuntimeClass@Ogre@@QBEPBV12@XZ
_TEXT	SEGMENT
_this$ = -4						; size = 4
?getBaseClass@RuntimeClass@Ogre@@QBEPBV12@XZ PROC	; Ogre::RuntimeClass::getBaseClass, COMDAT
; _this$ = ecx

; 20   : 		{

	push	ebp
	mov	ebp, esp
	push	ecx
	mov	DWORD PTR _this$[ebp], ecx

; 21   : 			return m_pBaseClass;

	mov	eax, DWORD PTR _this$[ebp]
	mov	eax, DWORD PTR [eax+4]

; 22   : 		}

	mov	esp, ebp
	pop	ebp
	ret	0
?getBaseClass@RuntimeClass@Ogre@@QBEPBV12@XZ ENDP	; Ogre::RuntimeClass::getBaseClass
_TEXT	ENDS
PUBLIC	?getClassName@RuntimeClass@Ogre@@QBEPBDXZ	; Ogre::RuntimeClass::getClassName
; Function compile flags: /Odtp
;	COMDAT ?getClassName@RuntimeClass@Ogre@@QBEPBDXZ
_TEXT	SEGMENT
_this$ = -4						; size = 4
?getClassName@RuntimeClass@Ogre@@QBEPBDXZ PROC		; Ogre::RuntimeClass::getClassName, COMDAT
; _this$ = ecx

; 25   : 		{

	push	ebp
	mov	ebp, esp
	push	ecx
	mov	DWORD PTR _this$[ebp], ecx

; 26   : 			return m_pClassName; 

	mov	eax, DWORD PTR _this$[ebp]
	mov	eax, DWORD PTR [eax]

; 27   : 		}

	mov	esp, ebp
	pop	ebp
	ret	0
?getClassName@RuntimeClass@Ogre@@QBEPBDXZ ENDP		; Ogre::RuntimeClass::getClassName
_TEXT	ENDS
PUBLIC	?getVersion@RuntimeClass@Ogre@@QBEHXZ		; Ogre::RuntimeClass::getVersion
; Function compile flags: /Odtp
;	COMDAT ?getVersion@RuntimeClass@Ogre@@QBEHXZ
_TEXT	SEGMENT
_this$ = -4						; size = 4
?getVersion@RuntimeClass@Ogre@@QBEHXZ PROC		; Ogre::RuntimeClass::getVersion, COMDAT
; _this$ = ecx

; 30   : 		{

	push	ebp
	mov	ebp, esp
	push	ecx
	mov	DWORD PTR _this$[ebp], ecx

; 31   : 			return m_Version;

	mov	eax, DWORD PTR _this$[ebp]
	mov	eax, DWORD PTR [eax+8]

; 32   : 		}

	mov	esp, ebp
	pop	ebp
	ret	0
?getVersion@RuntimeClass@Ogre@@QBEHXZ ENDP		; Ogre::RuntimeClass::getVersion
_TEXT	ENDS
PUBLIC	?newObject@RuntimeClass@Ogre@@QAEPAVBaseObject@2@XZ ; Ogre::RuntimeClass::newObject
; Function compile flags: /Odtp
;	COMDAT ?newObject@RuntimeClass@Ogre@@QAEPAVBaseObject@2@XZ
_TEXT	SEGMENT
_this$ = -4						; size = 4
?newObject@RuntimeClass@Ogre@@QAEPAVBaseObject@2@XZ PROC ; Ogre::RuntimeClass::newObject, COMDAT
; _this$ = ecx

; 35   : 		{

	push	ebp
	mov	ebp, esp
	push	ecx
	mov	DWORD PTR _this$[ebp], ecx

; 36   : 			return (*m_pNewFunc)();

	mov	eax, DWORD PTR _this$[ebp]
	mov	ecx, DWORD PTR [eax+12]
	call	ecx

; 37   : 		}

	mov	esp, ebp
	pop	ebp
	ret	0
?newObject@RuntimeClass@Ogre@@QAEPAVBaseObject@2@XZ ENDP ; Ogre::RuntimeClass::newObject
_TEXT	ENDS
PUBLIC	??4RuntimeClass@Ogre@@QAEAAV01@ABV01@@Z		; Ogre::RuntimeClass::operator=
; Function compile flags: /Odtp
;	COMDAT ??4RuntimeClass@Ogre@@QAEAAV01@ABV01@@Z
_TEXT	SEGMENT
_this$ = -4						; size = 4
___that$ = 8						; size = 4
??4RuntimeClass@Ogre@@QAEAAV01@ABV01@@Z PROC		; Ogre::RuntimeClass::operator=, COMDAT
; _this$ = ecx
	push	ebp
	mov	ebp, esp
	push	ecx
	mov	DWORD PTR _this$[ebp], ecx
	mov	eax, DWORD PTR ___that$[ebp]
	mov	ecx, DWORD PTR _this$[ebp]
	mov	edx, DWORD PTR [eax]
	mov	DWORD PTR [ecx], edx
	mov	edx, DWORD PTR [eax+4]
	mov	DWORD PTR [ecx+4], edx
	mov	edx, DWORD PTR [eax+8]
	mov	DWORD PTR [ecx+8], edx
	mov	edx, DWORD PTR [eax+12]
	mov	DWORD PTR [ecx+12], edx
	mov	eax, DWORD PTR [eax+16]
	mov	DWORD PTR [ecx+16], eax
	mov	eax, DWORD PTR _this$[ebp]
	mov	esp, ebp
	pop	ebp
	ret	4
??4RuntimeClass@Ogre@@QAEAAV01@ABV01@@Z ENDP		; Ogre::RuntimeClass::operator=
_TEXT	ENDS
PUBLIC	?getRTTI@BaseObject@Ogre@@UBEPBVRuntimeClass@2@XZ ; Ogre::BaseObject::getRTTI
EXTRN	?m_RTTI@BaseObject@Ogre@@2VRuntimeClass@2@B:BYTE ; Ogre::BaseObject::m_RTTI
; Function compile flags: /Odtp
;	COMDAT ?getRTTI@BaseObject@Ogre@@UBEPBVRuntimeClass@2@XZ
_TEXT	SEGMENT
_this$ = -4						; size = 4
?getRTTI@BaseObject@Ogre@@UBEPBVRuntimeClass@2@XZ PROC	; Ogre::BaseObject::getRTTI, COMDAT
; _this$ = ecx

; 56   : 		{

	push	ebp
	mov	ebp, esp
	push	ecx
	mov	DWORD PTR _this$[ebp], ecx

; 57   : 			return &m_RTTI;

	mov	eax, OFFSET ?m_RTTI@BaseObject@Ogre@@2VRuntimeClass@2@B ; Ogre::BaseObject::m_RTTI

; 58   : 		}

	mov	esp, ebp
	pop	ebp
	ret	0
?getRTTI@BaseObject@Ogre@@UBEPBVRuntimeClass@2@XZ ENDP	; Ogre::BaseObject::getRTTI
_TEXT	ENDS
PUBLIC	?isExactKindOf@BaseObject@Ogre@@QBE_NPBVRuntimeClass@2@@Z ; Ogre::BaseObject::isExactKindOf
; Function compile flags: /Odtp
;	COMDAT ?isExactKindOf@BaseObject@Ogre@@QBE_NPBVRuntimeClass@2@@Z
_TEXT	SEGMENT
_this$ = -4						; size = 4
_prtti$ = 8						; size = 4
?isExactKindOf@BaseObject@Ogre@@QBE_NPBVRuntimeClass@2@@Z PROC ; Ogre::BaseObject::isExactKindOf, COMDAT
; _this$ = ecx

; 61   : 		{

	push	ebp
	mov	ebp, esp
	push	ecx
	mov	DWORD PTR _this$[ebp], ecx

; 62   : 			return (getRTTI() == prtti);

	mov	eax, DWORD PTR _this$[ebp]
	mov	edx, DWORD PTR [eax]
	mov	ecx, DWORD PTR _this$[ebp]
	mov	eax, DWORD PTR [edx]
	call	eax
	xor	ecx, ecx
	cmp	eax, DWORD PTR _prtti$[ebp]
	sete	cl
	mov	al, cl

; 63   : 		}

	mov	esp, ebp
	pop	ebp
	ret	4
?isExactKindOf@BaseObject@Ogre@@QBE_NPBVRuntimeClass@2@@Z ENDP ; Ogre::BaseObject::isExactKindOf
_TEXT	ENDS
PUBLIC	?release@BaseObject@Ogre@@UAEXXZ		; Ogre::BaseObject::release
; Function compile flags: /Odtp
;	COMDAT ?release@BaseObject@Ogre@@UAEXXZ
_TEXT	SEGMENT
_this$ = -4						; size = 4
?release@BaseObject@Ogre@@UAEXXZ PROC			; Ogre::BaseObject::release, COMDAT
; _this$ = ecx

; 68   : 		{

	push	ebp
	mov	ebp, esp
	push	ecx
	mov	DWORD PTR _this$[ebp], ecx

; 69   : 			m_RefCount--;

	mov	eax, DWORD PTR _this$[ebp]
	mov	ecx, DWORD PTR [eax+4]
	sub	ecx, 1
	mov	edx, DWORD PTR _this$[ebp]
	mov	DWORD PTR [edx+4], ecx

; 70   : 			if(m_RefCount <= 0 )

	mov	eax, DWORD PTR _this$[ebp]
	cmp	DWORD PTR [eax+4], 0
	jg	SHORT $LN2@release

; 71   : 			{
; 72   : 				deleteThis();

	mov	ecx, DWORD PTR _this$[ebp]
	mov	edx, DWORD PTR [ecx]
	mov	ecx, DWORD PTR _this$[ebp]
	mov	eax, DWORD PTR [edx+24]
	call	eax
$LN2@release:

; 73   : 			}
; 74   : 		}

	mov	esp, ebp
	pop	ebp
	ret	0
?release@BaseObject@Ogre@@UAEXXZ ENDP			; Ogre::BaseObject::release
_TEXT	ENDS
PUBLIC	?addRef@BaseObject@Ogre@@UAEXXZ			; Ogre::BaseObject::addRef
; Function compile flags: /Odtp
;	COMDAT ?addRef@BaseObject@Ogre@@UAEXXZ
_TEXT	SEGMENT
_this$ = -4						; size = 4
?addRef@BaseObject@Ogre@@UAEXXZ PROC			; Ogre::BaseObject::addRef, COMDAT
; _this$ = ecx

; 77   : 		{

	push	ebp
	mov	ebp, esp
	push	ecx
	mov	DWORD PTR _this$[ebp], ecx

; 78   : 			m_RefCount++;

	mov	eax, DWORD PTR _this$[ebp]
	mov	ecx, DWORD PTR [eax+4]
	add	ecx, 1
	mov	edx, DWORD PTR _this$[ebp]
	mov	DWORD PTR [edx+4], ecx

; 79   : 		}

	mov	esp, ebp
	pop	ebp
	ret	0
?addRef@BaseObject@Ogre@@UAEXXZ ENDP			; Ogre::BaseObject::addRef
_TEXT	ENDS
PUBLIC	?getRefCount@BaseObject@Ogre@@UAEHXZ		; Ogre::BaseObject::getRefCount
; Function compile flags: /Odtp
;	COMDAT ?getRefCount@BaseObject@Ogre@@UAEHXZ
_TEXT	SEGMENT
_this$ = -4						; size = 4
?getRefCount@BaseObject@Ogre@@UAEHXZ PROC		; Ogre::BaseObject::getRefCount, COMDAT
; _this$ = ecx

; 82   : 		{

	push	ebp
	mov	ebp, esp
	push	ecx
	mov	DWORD PTR _this$[ebp], ecx

; 83   : 			return m_RefCount;

	mov	eax, DWORD PTR _this$[ebp]
	mov	eax, DWORD PTR [eax+4]

; 84   : 		}

	mov	esp, ebp
	pop	ebp
	ret	0
?getRefCount@BaseObject@Ogre@@UAEHXZ ENDP		; Ogre::BaseObject::getRefCount
_TEXT	ENDS
PUBLIC	?_serialize@BaseObject@Ogre@@UAEXAAVArchive@2@H@Z ; Ogre::BaseObject::_serialize
; Function compile flags: /Odtp
;	COMDAT ?_serialize@BaseObject@Ogre@@UAEXAAVArchive@2@H@Z
_TEXT	SEGMENT
_this$ = -4						; size = 4
_ar$ = 8						; size = 4
_version$ = 12						; size = 4
?_serialize@BaseObject@Ogre@@UAEXAAVArchive@2@H@Z PROC	; Ogre::BaseObject::_serialize, COMDAT
; _this$ = ecx

; 87   : 		{

	push	ebp
	mov	ebp, esp
	push	ecx
	mov	DWORD PTR _this$[ebp], ecx

; 88   : 		}

	mov	esp, ebp
	pop	ebp
	ret	8
?_serialize@BaseObject@Ogre@@UAEXAAVArchive@2@H@Z ENDP	; Ogre::BaseObject::_serialize
_TEXT	ENDS
PUBLIC	??_7BaseObject@Ogre@@6B@			; Ogre::BaseObject::`vftable'
PUBLIC	??0BaseObject@Ogre@@IAE@XZ			; Ogre::BaseObject::BaseObject
PUBLIC	??_R4BaseObject@Ogre@@6B@			; Ogre::BaseObject::`RTTI Complete Object Locator'
PUBLIC	??_R0?AVBaseObject@Ogre@@@8			; Ogre::BaseObject `RTTI Type Descriptor'
PUBLIC	??_R3BaseObject@Ogre@@8				; Ogre::BaseObject::`RTTI Class Hierarchy Descriptor'
PUBLIC	??_R2BaseObject@Ogre@@8				; Ogre::BaseObject::`RTTI Base Class Array'
PUBLIC	??_R1A@?0A@EA@BaseObject@Ogre@@8		; Ogre::BaseObject::`RTTI Base Class Descriptor at (0,-1,0,64)'
PUBLIC	??_R13?0A@EA@MemoryDelegation@Ogre@@8		; Ogre::MemoryDelegation::`RTTI Base Class Descriptor at (4,-1,0,64)'
PUBLIC	??_R0?AVMemoryDelegation@Ogre@@@8		; Ogre::MemoryDelegation `RTTI Type Descriptor'
PUBLIC	??_R3MemoryDelegation@Ogre@@8			; Ogre::MemoryDelegation::`RTTI Class Hierarchy Descriptor'
PUBLIC	??_R2MemoryDelegation@Ogre@@8			; Ogre::MemoryDelegation::`RTTI Base Class Array'
PUBLIC	??_R1A@?0A@EA@MemoryDelegation@Ogre@@8		; Ogre::MemoryDelegation::`RTTI Base Class Descriptor at (0,-1,0,64)'
PUBLIC	??_EBaseObject@Ogre@@MAEPAXI@Z			; Ogre::BaseObject::`vector deleting destructor'
PUBLIC	?deleteThis@BaseObject@Ogre@@MAEXXZ		; Ogre::BaseObject::deleteThis
;	COMDAT ??_R1A@?0A@EA@MemoryDelegation@Ogre@@8
rdata$r	SEGMENT
??_R1A@?0A@EA@MemoryDelegation@Ogre@@8 DD FLAT:??_R0?AVMemoryDelegation@Ogre@@@8 ; Ogre::MemoryDelegation::`RTTI Base Class Descriptor at (0,-1,0,64)'
	DD	00H
	DD	00H
	DD	0ffffffffH
	DD	00H
	DD	040H
	DD	FLAT:??_R3MemoryDelegation@Ogre@@8
rdata$r	ENDS
;	COMDAT ??_R2MemoryDelegation@Ogre@@8
rdata$r	SEGMENT
??_R2MemoryDelegation@Ogre@@8 DD FLAT:??_R1A@?0A@EA@MemoryDelegation@Ogre@@8 ; Ogre::MemoryDelegation::`RTTI Base Class Array'
rdata$r	ENDS
;	COMDAT ??_R3MemoryDelegation@Ogre@@8
rdata$r	SEGMENT
??_R3MemoryDelegation@Ogre@@8 DD 00H			; Ogre::MemoryDelegation::`RTTI Class Hierarchy Descriptor'
	DD	00H
	DD	01H
	DD	FLAT:??_R2MemoryDelegation@Ogre@@8
rdata$r	ENDS
;	COMDAT ??_R0?AVMemoryDelegation@Ogre@@@8
_DATA	SEGMENT
??_R0?AVMemoryDelegation@Ogre@@@8 DD FLAT:??_7type_info@@6B@ ; Ogre::MemoryDelegation `RTTI Type Descriptor'
	DD	00H
	DB	'.?AVMemoryDelegation@Ogre@@', 00H
_DATA	ENDS
;	COMDAT ??_R13?0A@EA@MemoryDelegation@Ogre@@8
rdata$r	SEGMENT
??_R13?0A@EA@MemoryDelegation@Ogre@@8 DD FLAT:??_R0?AVMemoryDelegation@Ogre@@@8 ; Ogre::MemoryDelegation::`RTTI Base Class Descriptor at (4,-1,0,64)'
	DD	00H
	DD	04H
	DD	0ffffffffH
	DD	00H
	DD	040H
	DD	FLAT:??_R3MemoryDelegation@Ogre@@8
rdata$r	ENDS
;	COMDAT ??_R1A@?0A@EA@BaseObject@Ogre@@8
rdata$r	SEGMENT
??_R1A@?0A@EA@BaseObject@Ogre@@8 DD FLAT:??_R0?AVBaseObject@Ogre@@@8 ; Ogre::BaseObject::`RTTI Base Class Descriptor at (0,-1,0,64)'
	DD	01H
	DD	00H
	DD	0ffffffffH
	DD	00H
	DD	040H
	DD	FLAT:??_R3BaseObject@Ogre@@8
rdata$r	ENDS
;	COMDAT ??_R2BaseObject@Ogre@@8
rdata$r	SEGMENT
??_R2BaseObject@Ogre@@8 DD FLAT:??_R1A@?0A@EA@BaseObject@Ogre@@8 ; Ogre::BaseObject::`RTTI Base Class Array'
	DD	FLAT:??_R13?0A@EA@MemoryDelegation@Ogre@@8
rdata$r	ENDS
;	COMDAT ??_R3BaseObject@Ogre@@8
rdata$r	SEGMENT
??_R3BaseObject@Ogre@@8 DD 00H				; Ogre::BaseObject::`RTTI Class Hierarchy Descriptor'
	DD	00H
	DD	02H
	DD	FLAT:??_R2BaseObject@Ogre@@8
rdata$r	ENDS
;	COMDAT ??_R0?AVBaseObject@Ogre@@@8
_DATA	SEGMENT
??_R0?AVBaseObject@Ogre@@@8 DD FLAT:??_7type_info@@6B@	; Ogre::BaseObject `RTTI Type Descriptor'
	DD	00H
	DB	'.?AVBaseObject@Ogre@@', 00H
_DATA	ENDS
;	COMDAT ??_R4BaseObject@Ogre@@6B@
rdata$r	SEGMENT
??_R4BaseObject@Ogre@@6B@ DD 00H			; Ogre::BaseObject::`RTTI Complete Object Locator'
	DD	00H
	DD	00H
	DD	FLAT:??_R0?AVBaseObject@Ogre@@@8
	DD	FLAT:??_R3BaseObject@Ogre@@8
rdata$r	ENDS
;	COMDAT ??_7BaseObject@Ogre@@6B@
CONST	SEGMENT
??_7BaseObject@Ogre@@6B@ DD FLAT:??_R4BaseObject@Ogre@@6B@ ; Ogre::BaseObject::`vftable'
	DD	FLAT:?getRTTI@BaseObject@Ogre@@UBEPBVRuntimeClass@2@XZ
	DD	FLAT:?release@BaseObject@Ogre@@UAEXXZ
	DD	FLAT:?addRef@BaseObject@Ogre@@UAEXXZ
	DD	FLAT:?getRefCount@BaseObject@Ogre@@UAEHXZ
	DD	FLAT:?_serialize@BaseObject@Ogre@@UAEXAAVArchive@2@H@Z
	DD	FLAT:??_EBaseObject@Ogre@@MAEPAXI@Z
	DD	FLAT:?deleteThis@BaseObject@Ogre@@MAEXXZ
; Function compile flags: /Odtp
CONST	ENDS
;	COMDAT ??0BaseObject@Ogre@@IAE@XZ
_TEXT	SEGMENT
_this$ = -4						; size = 4
??0BaseObject@Ogre@@IAE@XZ PROC				; Ogre::BaseObject::BaseObject, COMDAT
; _this$ = ecx

; 92   : 		{

	push	ebp
	mov	ebp, esp
	push	ecx
	mov	DWORD PTR _this$[ebp], ecx
	mov	eax, DWORD PTR _this$[ebp]
	mov	DWORD PTR [eax], OFFSET ??_7BaseObject@Ogre@@6B@
	mov	ecx, DWORD PTR _this$[ebp]
	mov	DWORD PTR [ecx+4], 1

; 93   : 		}

	mov	eax, DWORD PTR _this$[ebp]
	mov	esp, ebp
	pop	ebp
	ret	0
??0BaseObject@Ogre@@IAE@XZ ENDP				; Ogre::BaseObject::BaseObject
_TEXT	ENDS
PUBLIC	??1BaseObject@Ogre@@MAE@XZ			; Ogre::BaseObject::~BaseObject
; Function compile flags: /Odtp
;	COMDAT ??1BaseObject@Ogre@@MAE@XZ
_TEXT	SEGMENT
_this$ = -4						; size = 4
??1BaseObject@Ogre@@MAE@XZ PROC				; Ogre::BaseObject::~BaseObject, COMDAT
; _this$ = ecx

; 96   : 		{

	push	ebp
	mov	ebp, esp
	push	ecx
	mov	DWORD PTR _this$[ebp], ecx
	mov	eax, DWORD PTR _this$[ebp]
	mov	DWORD PTR [eax], OFFSET ??_7BaseObject@Ogre@@6B@

; 97   : 		}

	mov	esp, ebp
	pop	ebp
	ret	0
??1BaseObject@Ogre@@MAE@XZ ENDP				; Ogre::BaseObject::~BaseObject
; Function compile flags: /Odtp
_TEXT	ENDS
;	COMDAT ?deleteThis@BaseObject@Ogre@@MAEXXZ
_TEXT	SEGMENT
tv70 = -16						; size = 4
_this$ = -12						; size = 4
$T62431 = -8						; size = 4
$T62430 = -4						; size = 4
?deleteThis@BaseObject@Ogre@@MAEXXZ PROC		; Ogre::BaseObject::deleteThis, COMDAT
; _this$ = ecx

; 100  : 		{

	push	ebp
	mov	ebp, esp
	sub	esp, 16					; 00000010H
	mov	DWORD PTR _this$[ebp], ecx

; 101  : 			delete this;

	mov	eax, DWORD PTR _this$[ebp]
	mov	DWORD PTR $T62431[ebp], eax
	mov	ecx, DWORD PTR $T62431[ebp]
	mov	DWORD PTR $T62430[ebp], ecx
	cmp	DWORD PTR $T62430[ebp], 0
	je	SHORT $LN3@deleteThis
	push	1
	mov	edx, DWORD PTR $T62430[ebp]
	mov	eax, DWORD PTR [edx]
	mov	ecx, DWORD PTR $T62430[ebp]
	mov	edx, DWORD PTR [eax+20]
	call	edx
	mov	DWORD PTR tv70[ebp], eax
	jmp	SHORT $LN1@deleteThis
$LN3@deleteThis:
	mov	DWORD PTR tv70[ebp], 0
$LN1@deleteThis:

; 102  : 		}

	mov	esp, ebp
	pop	ebp
	ret	0
?deleteThis@BaseObject@Ogre@@MAEXXZ ENDP		; Ogre::BaseObject::deleteThis
_TEXT	ENDS
PUBLIC	??0BaseObject@Ogre@@QAE@ABV01@@Z		; Ogre::BaseObject::BaseObject
; Function compile flags: /Odtp
;	COMDAT ??0BaseObject@Ogre@@QAE@ABV01@@Z
_TEXT	SEGMENT
tv68 = -8						; size = 4
_this$ = -4						; size = 4
___that$ = 8						; size = 4
??0BaseObject@Ogre@@QAE@ABV01@@Z PROC			; Ogre::BaseObject::BaseObject, COMDAT
; _this$ = ecx
	push	ebp
	mov	ebp, esp
	sub	esp, 8
	mov	DWORD PTR _this$[ebp], ecx
	cmp	DWORD PTR ___that$[ebp], 0
	je	SHORT $LN3@BaseObject
	mov	eax, DWORD PTR ___that$[ebp]
	add	eax, 4
	mov	DWORD PTR tv68[ebp], eax
	jmp	SHORT $LN4@BaseObject
$LN3@BaseObject:
	mov	DWORD PTR tv68[ebp], 0
$LN4@BaseObject:
	mov	ecx, DWORD PTR _this$[ebp]
	mov	DWORD PTR [ecx], OFFSET ??_7BaseObject@Ogre@@6B@
	mov	edx, DWORD PTR _this$[ebp]
	mov	eax, DWORD PTR ___that$[ebp]
	mov	ecx, DWORD PTR [eax+4]
	mov	DWORD PTR [edx+4], ecx
	mov	eax, DWORD PTR _this$[ebp]
	mov	esp, ebp
	pop	ebp
	ret	4
??0BaseObject@Ogre@@QAE@ABV01@@Z ENDP			; Ogre::BaseObject::BaseObject
_TEXT	ENDS
PUBLIC	??4BaseObject@Ogre@@QAEAAV01@ABV01@@Z		; Ogre::BaseObject::operator=
; Function compile flags: /Odtp
;	COMDAT ??4BaseObject@Ogre@@QAEAAV01@ABV01@@Z
_TEXT	SEGMENT
_this$ = -4						; size = 4
___that$ = 8						; size = 4
??4BaseObject@Ogre@@QAEAAV01@ABV01@@Z PROC		; Ogre::BaseObject::operator=, COMDAT
; _this$ = ecx
	push	ebp
	mov	ebp, esp
	push	ecx
	mov	DWORD PTR _this$[ebp], ecx
	mov	eax, DWORD PTR _this$[ebp]
	mov	ecx, DWORD PTR ___that$[ebp]
	mov	edx, DWORD PTR [ecx+4]
	mov	DWORD PTR [eax+4], edx
	mov	eax, DWORD PTR _this$[ebp]
	mov	esp, ebp
	pop	ebp
	ret	4
??4BaseObject@Ogre@@QAEAAV01@ABV01@@Z ENDP		; Ogre::BaseObject::operator=
_TEXT	ENDS
PUBLIC	??_GBaseObject@Ogre@@MAEPAXI@Z			; Ogre::BaseObject::`scalar deleting destructor'
EXTRN	??3MemoryDelegation@Ogre@@SAXPAXI@Z:PROC	; Ogre::MemoryDelegation::operator delete
; Function compile flags: /Odtp
;	COMDAT ??_GBaseObject@Ogre@@MAEPAXI@Z
_TEXT	SEGMENT
_this$ = -4						; size = 4
___flags$ = 8						; size = 4
??_GBaseObject@Ogre@@MAEPAXI@Z PROC			; Ogre::BaseObject::`scalar deleting destructor', COMDAT
; _this$ = ecx
	push	ebp
	mov	ebp, esp
	push	ecx
	mov	DWORD PTR _this$[ebp], ecx
	mov	ecx, DWORD PTR _this$[ebp]
	call	??1BaseObject@Ogre@@MAE@XZ		; Ogre::BaseObject::~BaseObject
	mov	eax, DWORD PTR ___flags$[ebp]
	and	eax, 1
	je	SHORT $LN1@scalar@7
	push	8
	mov	ecx, DWORD PTR _this$[ebp]
	push	ecx
	call	??3MemoryDelegation@Ogre@@SAXPAXI@Z	; Ogre::MemoryDelegation::operator delete
	add	esp, 8
$LN1@scalar@7:
	mov	eax, DWORD PTR _this$[ebp]
	mov	esp, ebp
	pop	ebp
	ret	4
??_GBaseObject@Ogre@@MAEPAXI@Z ENDP			; Ogre::BaseObject::`scalar deleting destructor'
_TEXT	ENDS
EXTRN	??_VMemoryDelegation@Ogre@@SAXPAXI@Z:PROC	; Ogre::MemoryDelegation::operator delete[]
; Function compile flags: /Odtp
;	COMDAT ??_EBaseObject@Ogre@@MAEPAXI@Z
_TEXT	SEGMENT
_this$ = -4						; size = 4
___flags$ = 8						; size = 4
??_EBaseObject@Ogre@@MAEPAXI@Z PROC			; Ogre::BaseObject::`vector deleting destructor', COMDAT
; _this$ = ecx
	push	ebp
	mov	ebp, esp
	push	ecx
	mov	DWORD PTR _this$[ebp], ecx
	mov	eax, DWORD PTR ___flags$[ebp]
	and	eax, 2
	je	SHORT $LN3@vector@7
	push	OFFSET ??1BaseObject@Ogre@@MAE@XZ	; Ogre::BaseObject::~BaseObject
	mov	ecx, DWORD PTR _this$[ebp]
	mov	edx, DWORD PTR [ecx-4]
	push	edx
	push	8
	mov	eax, DWORD PTR _this$[ebp]
	push	eax
	call	??_M@YGXPAXIHP6EX0@Z@Z
	mov	ecx, DWORD PTR ___flags$[ebp]
	and	ecx, 1
	je	SHORT $LN2@vector@7
	push	8
	mov	edx, DWORD PTR _this$[ebp]
	sub	edx, 4
	push	edx
	call	??_VMemoryDelegation@Ogre@@SAXPAXI@Z	; Ogre::MemoryDelegation::operator delete[]
	add	esp, 8
$LN2@vector@7:
	mov	eax, DWORD PTR _this$[ebp]
	sub	eax, 4
	jmp	SHORT $LN4@vector@7
$LN3@vector@7:
	mov	ecx, DWORD PTR _this$[ebp]
	call	??1BaseObject@Ogre@@MAE@XZ		; Ogre::BaseObject::~BaseObject
	mov	eax, DWORD PTR ___flags$[ebp]
	and	eax, 1
	je	SHORT $LN1@vector@7
	push	8
	mov	ecx, DWORD PTR _this$[ebp]
	push	ecx
	call	??3MemoryDelegation@Ogre@@SAXPAXI@Z	; Ogre::MemoryDelegation::operator delete
	add	esp, 8
$LN1@vector@7:
	mov	eax, DWORD PTR _this$[ebp]
$LN4@vector@7:
	mov	esp, ebp
	pop	ebp
	ret	4
??_EBaseObject@Ogre@@MAEPAXI@Z ENDP			; Ogre::BaseObject::`vector deleting destructor'
_TEXT	ENDS
PUBLIC	??_7Archive@Ogre@@6B@				; Ogre::Archive::`vftable'
PUBLIC	??0Archive@Ogre@@QAE@PAVDataStream@1@H@Z	; Ogre::Archive::Archive
PUBLIC	??_R4Archive@Ogre@@6B@				; Ogre::Archive::`RTTI Complete Object Locator'
PUBLIC	??_R0?AVArchive@Ogre@@@8			; Ogre::Archive `RTTI Type Descriptor'
PUBLIC	??_R3Archive@Ogre@@8				; Ogre::Archive::`RTTI Class Hierarchy Descriptor'
PUBLIC	??_R2Archive@Ogre@@8				; Ogre::Archive::`RTTI Base Class Array'
PUBLIC	??_R1A@?0A@EA@Archive@Ogre@@8			; Ogre::Archive::`RTTI Base Class Descriptor at (0,-1,0,64)'
PUBLIC	??_EArchive@Ogre@@UAEPAXI@Z			; Ogre::Archive::`vector deleting destructor'
;	COMDAT ??_R1A@?0A@EA@Archive@Ogre@@8
; File i:\svnroot\client\ogremain\ogrearchive.h
rdata$r	SEGMENT
??_R1A@?0A@EA@Archive@Ogre@@8 DD FLAT:??_R0?AVArchive@Ogre@@@8 ; Ogre::Archive::`RTTI Base Class Descriptor at (0,-1,0,64)'
	DD	00H
	DD	00H
	DD	0ffffffffH
	DD	00H
	DD	040H
	DD	FLAT:??_R3Archive@Ogre@@8
rdata$r	ENDS
;	COMDAT ??_R2Archive@Ogre@@8
rdata$r	SEGMENT
??_R2Archive@Ogre@@8 DD FLAT:??_R1A@?0A@EA@Archive@Ogre@@8 ; Ogre::Archive::`RTTI Base Class Array'
rdata$r	ENDS
;	COMDAT ??_R3Archive@Ogre@@8
rdata$r	SEGMENT
??_R3Archive@Ogre@@8 DD 00H				; Ogre::Archive::`RTTI Class Hierarchy Descriptor'
	DD	00H
	DD	01H
	DD	FLAT:??_R2Archive@Ogre@@8
rdata$r	ENDS
;	COMDAT ??_R0?AVArchive@Ogre@@@8
_DATA	SEGMENT
??_R0?AVArchive@Ogre@@@8 DD FLAT:??_7type_info@@6B@	; Ogre::Archive `RTTI Type Descriptor'
	DD	00H
	DB	'.?AVArchive@Ogre@@', 00H
_DATA	ENDS
;	COMDAT ??_R4Archive@Ogre@@6B@
rdata$r	SEGMENT
??_R4Archive@Ogre@@6B@ DD 00H				; Ogre::Archive::`RTTI Complete Object Locator'
	DD	00H
	DD	00H
	DD	FLAT:??_R0?AVArchive@Ogre@@@8
	DD	FLAT:??_R3Archive@Ogre@@8
rdata$r	ENDS
;	COMDAT ??_7Archive@Ogre@@6B@
CONST	SEGMENT
??_7Archive@Ogre@@6B@ DD FLAT:??_R4Archive@Ogre@@6B@	; Ogre::Archive::`vftable'
	DD	FLAT:??_EArchive@Ogre@@UAEPAXI@Z
; Function compile flags: /Odtp
CONST	ENDS
;	COMDAT ??0Archive@Ogre@@QAE@PAVDataStream@1@H@Z
_TEXT	SEGMENT
_this$ = -4						; size = 4
_pstream$ = 8						; size = 4
_mode$ = 12						; size = 4
??0Archive@Ogre@@QAE@PAVDataStream@1@H@Z PROC		; Ogre::Archive::Archive, COMDAT
; _this$ = ecx

; 22   : 		{

	push	ebp
	mov	ebp, esp
	push	ecx
	mov	DWORD PTR _this$[ebp], ecx
	mov	eax, DWORD PTR _this$[ebp]
	mov	DWORD PTR [eax], OFFSET ??_7Archive@Ogre@@6B@
	mov	ecx, DWORD PTR _this$[ebp]
	mov	edx, DWORD PTR _pstream$[ebp]
	mov	DWORD PTR [ecx+4], edx
	mov	eax, DWORD PTR _this$[ebp]
	mov	ecx, DWORD PTR _mode$[ebp]
	mov	DWORD PTR [eax+8], ecx

; 23   : 		}

	mov	eax, DWORD PTR _this$[ebp]
	mov	esp, ebp
	pop	ebp
	ret	8
??0Archive@Ogre@@QAE@PAVDataStream@1@H@Z ENDP		; Ogre::Archive::Archive
_TEXT	ENDS
PUBLIC	??1Archive@Ogre@@UAE@XZ				; Ogre::Archive::~Archive
; Function compile flags: /Odtp
;	COMDAT ??1Archive@Ogre@@UAE@XZ
_TEXT	SEGMENT
_this$ = -4						; size = 4
??1Archive@Ogre@@UAE@XZ PROC				; Ogre::Archive::~Archive, COMDAT
; _this$ = ecx

; 26   : 		{

	push	ebp
	mov	ebp, esp
	push	ecx
	mov	DWORD PTR _this$[ebp], ecx
	mov	eax, DWORD PTR _this$[ebp]
	mov	DWORD PTR [eax], OFFSET ??_7Archive@Ogre@@6B@

; 27   : 		}

	mov	esp, ebp
	pop	ebp
	ret	0
??1Archive@Ogre@@UAE@XZ ENDP				; Ogre::Archive::~Archive
_TEXT	ENDS
PUBLIC	?isLoading@Archive@Ogre@@QAE_NXZ		; Ogre::Archive::isLoading
; Function compile flags: /Odtp
;	COMDAT ?isLoading@Archive@Ogre@@QAE_NXZ
_TEXT	SEGMENT
_this$ = -4						; size = 4
?isLoading@Archive@Ogre@@QAE_NXZ PROC			; Ogre::Archive::isLoading, COMDAT
; _this$ = ecx

; 30   : 		{

	push	ebp
	mov	ebp, esp
	push	ecx
	mov	DWORD PTR _this$[ebp], ecx

; 31   : 			return m_Mode==MODE_LOAD;

	mov	eax, DWORD PTR _this$[ebp]
	xor	ecx, ecx
	cmp	DWORD PTR [eax+8], 1
	sete	cl
	mov	al, cl

; 32   : 		}

	mov	esp, ebp
	pop	ebp
	ret	0
?isLoading@Archive@Ogre@@QAE_NXZ ENDP			; Ogre::Archive::isLoading
_TEXT	ENDS
PUBLIC	?serialize@Archive@Ogre@@QAEAAV12@PAXI@Z	; Ogre::Archive::serialize
PUBLIC	??6Archive@Ogre@@QAEAAV01@AAD@Z			; Ogre::Archive::operator<<
; Function compile flags: /Odtp
;	COMDAT ??6Archive@Ogre@@QAEAAV01@AAD@Z
_TEXT	SEGMENT
_this$ = -4						; size = 4
_value$ = 8						; size = 4
??6Archive@Ogre@@QAEAAV01@AAD@Z PROC			; Ogre::Archive::operator<<, COMDAT
; _this$ = ecx

; 108  : 		SERIALIZE_PRIMITIVE_FUNC(char)

	push	ebp
	mov	ebp, esp
	push	ecx
	mov	DWORD PTR _this$[ebp], ecx
	push	1
	mov	eax, DWORD PTR _value$[ebp]
	push	eax
	mov	ecx, DWORD PTR _this$[ebp]
	call	?serialize@Archive@Ogre@@QAEAAV12@PAXI@Z ; Ogre::Archive::serialize
	mov	eax, DWORD PTR _this$[ebp]
	mov	esp, ebp
	pop	ebp
	ret	4
??6Archive@Ogre@@QAEAAV01@AAD@Z ENDP			; Ogre::Archive::operator<<
_TEXT	ENDS
PUBLIC	??6Archive@Ogre@@QAEAAV01@AAF@Z			; Ogre::Archive::operator<<
; Function compile flags: /Odtp
;	COMDAT ??6Archive@Ogre@@QAEAAV01@AAF@Z
_TEXT	SEGMENT
_this$ = -4						; size = 4
_value$ = 8						; size = 4
??6Archive@Ogre@@QAEAAV01@AAF@Z PROC			; Ogre::Archive::operator<<, COMDAT
; _this$ = ecx

; 109  : 		SERIALIZE_PRIMITIVE_FUNC(short)

	push	ebp
	mov	ebp, esp
	push	ecx
	mov	DWORD PTR _this$[ebp], ecx
	push	2
	mov	eax, DWORD PTR _value$[ebp]
	push	eax
	mov	ecx, DWORD PTR _this$[ebp]
	call	?serialize@Archive@Ogre@@QAEAAV12@PAXI@Z ; Ogre::Archive::serialize
	mov	eax, DWORD PTR _this$[ebp]
	mov	esp, ebp
	pop	ebp
	ret	4
??6Archive@Ogre@@QAEAAV01@AAF@Z ENDP			; Ogre::Archive::operator<<
_TEXT	ENDS
PUBLIC	??6Archive@Ogre@@QAEAAV01@AAH@Z			; Ogre::Archive::operator<<
; Function compile flags: /Odtp
;	COMDAT ??6Archive@Ogre@@QAEAAV01@AAH@Z
_TEXT	SEGMENT
_this$ = -4						; size = 4
_value$ = 8						; size = 4
??6Archive@Ogre@@QAEAAV01@AAH@Z PROC			; Ogre::Archive::operator<<, COMDAT
; _this$ = ecx

; 110  : 		SERIALIZE_PRIMITIVE_FUNC(int)

	push	ebp
	mov	ebp, esp
	push	ecx
	mov	DWORD PTR _this$[ebp], ecx
	push	4
	mov	eax, DWORD PTR _value$[ebp]
	push	eax
	mov	ecx, DWORD PTR _this$[ebp]
	call	?serialize@Archive@Ogre@@QAEAAV12@PAXI@Z ; Ogre::Archive::serialize
	mov	eax, DWORD PTR _this$[ebp]
	mov	esp, ebp
	pop	ebp
	ret	4
??6Archive@Ogre@@QAEAAV01@AAH@Z ENDP			; Ogre::Archive::operator<<
_TEXT	ENDS
PUBLIC	??6Archive@Ogre@@QAEAAV01@AA_J@Z		; Ogre::Archive::operator<<
; Function compile flags: /Odtp
;	COMDAT ??6Archive@Ogre@@QAEAAV01@AA_J@Z
_TEXT	SEGMENT
_this$ = -4						; size = 4
_value$ = 8						; size = 4
??6Archive@Ogre@@QAEAAV01@AA_J@Z PROC			; Ogre::Archive::operator<<, COMDAT
; _this$ = ecx

; 111  : 		SERIALIZE_PRIMITIVE_FUNC(int64)

	push	ebp
	mov	ebp, esp
	push	ecx
	mov	DWORD PTR _this$[ebp], ecx
	push	8
	mov	eax, DWORD PTR _value$[ebp]
	push	eax
	mov	ecx, DWORD PTR _this$[ebp]
	call	?serialize@Archive@Ogre@@QAEAAV12@PAXI@Z ; Ogre::Archive::serialize
	mov	eax, DWORD PTR _this$[ebp]
	mov	esp, ebp
	pop	ebp
	ret	4
??6Archive@Ogre@@QAEAAV01@AA_J@Z ENDP			; Ogre::Archive::operator<<
_TEXT	ENDS
PUBLIC	??6Archive@Ogre@@QAEAAV01@AAE@Z			; Ogre::Archive::operator<<
; Function compile flags: /Odtp
;	COMDAT ??6Archive@Ogre@@QAEAAV01@AAE@Z
_TEXT	SEGMENT
_this$ = -4						; size = 4
_value$ = 8						; size = 4
??6Archive@Ogre@@QAEAAV01@AAE@Z PROC			; Ogre::Archive::operator<<, COMDAT
; _this$ = ecx

; 112  : 		SERIALIZE_PRIMITIVE_FUNC(uchar)

	push	ebp
	mov	ebp, esp
	push	ecx
	mov	DWORD PTR _this$[ebp], ecx
	push	1
	mov	eax, DWORD PTR _value$[ebp]
	push	eax
	mov	ecx, DWORD PTR _this$[ebp]
	call	?serialize@Archive@Ogre@@QAEAAV12@PAXI@Z ; Ogre::Archive::serialize
	mov	eax, DWORD PTR _this$[ebp]
	mov	esp, ebp
	pop	ebp
	ret	4
??6Archive@Ogre@@QAEAAV01@AAE@Z ENDP			; Ogre::Archive::operator<<
_TEXT	ENDS
PUBLIC	??6Archive@Ogre@@QAEAAV01@AAG@Z			; Ogre::Archive::operator<<
; Function compile flags: /Odtp
;	COMDAT ??6Archive@Ogre@@QAEAAV01@AAG@Z
_TEXT	SEGMENT
_this$ = -4						; size = 4
_value$ = 8						; size = 4
??6Archive@Ogre@@QAEAAV01@AAG@Z PROC			; Ogre::Archive::operator<<, COMDAT
; _this$ = ecx

; 113  : 		SERIALIZE_PRIMITIVE_FUNC(ushort)

	push	ebp
	mov	ebp, esp
	push	ecx
	mov	DWORD PTR _this$[ebp], ecx
	push	2
	mov	eax, DWORD PTR _value$[ebp]
	push	eax
	mov	ecx, DWORD PTR _this$[ebp]
	call	?serialize@Archive@Ogre@@QAEAAV12@PAXI@Z ; Ogre::Archive::serialize
	mov	eax, DWORD PTR _this$[ebp]
	mov	esp, ebp
	pop	ebp
	ret	4
??6Archive@Ogre@@QAEAAV01@AAG@Z ENDP			; Ogre::Archive::operator<<
_TEXT	ENDS
PUBLIC	??6Archive@Ogre@@QAEAAV01@AAI@Z			; Ogre::Archive::operator<<
; Function compile flags: /Odtp
;	COMDAT ??6Archive@Ogre@@QAEAAV01@AAI@Z
_TEXT	SEGMENT
_this$ = -4						; size = 4
_value$ = 8						; size = 4
??6Archive@Ogre@@QAEAAV01@AAI@Z PROC			; Ogre::Archive::operator<<, COMDAT
; _this$ = ecx

; 114  : 		SERIALIZE_PRIMITIVE_FUNC(uint)

	push	ebp
	mov	ebp, esp
	push	ecx
	mov	DWORD PTR _this$[ebp], ecx
	push	4
	mov	eax, DWORD PTR _value$[ebp]
	push	eax
	mov	ecx, DWORD PTR _this$[ebp]
	call	?serialize@Archive@Ogre@@QAEAAV12@PAXI@Z ; Ogre::Archive::serialize
	mov	eax, DWORD PTR _this$[ebp]
	mov	esp, ebp
	pop	ebp
	ret	4
??6Archive@Ogre@@QAEAAV01@AAI@Z ENDP			; Ogre::Archive::operator<<
_TEXT	ENDS
PUBLIC	??6Archive@Ogre@@QAEAAV01@AA_K@Z		; Ogre::Archive::operator<<
; Function compile flags: /Odtp
;	COMDAT ??6Archive@Ogre@@QAEAAV01@AA_K@Z
_TEXT	SEGMENT
_this$ = -4						; size = 4
_value$ = 8						; size = 4
??6Archive@Ogre@@QAEAAV01@AA_K@Z PROC			; Ogre::Archive::operator<<, COMDAT
; _this$ = ecx

; 115  : 		SERIALIZE_PRIMITIVE_FUNC(uint64)

	push	ebp
	mov	ebp, esp
	push	ecx
	mov	DWORD PTR _this$[ebp], ecx
	push	8
	mov	eax, DWORD PTR _value$[ebp]
	push	eax
	mov	ecx, DWORD PTR _this$[ebp]
	call	?serialize@Archive@Ogre@@QAEAAV12@PAXI@Z ; Ogre::Archive::serialize
	mov	eax, DWORD PTR _this$[ebp]
	mov	esp, ebp
	pop	ebp
	ret	4
??6Archive@Ogre@@QAEAAV01@AA_K@Z ENDP			; Ogre::Archive::operator<<
_TEXT	ENDS
PUBLIC	??6Archive@Ogre@@QAEAAV01@AA_N@Z		; Ogre::Archive::operator<<
; Function compile flags: /Odtp
;	COMDAT ??6Archive@Ogre@@QAEAAV01@AA_N@Z
_TEXT	SEGMENT
_this$ = -4						; size = 4
_value$ = 8						; size = 4
??6Archive@Ogre@@QAEAAV01@AA_N@Z PROC			; Ogre::Archive::operator<<, COMDAT
; _this$ = ecx

; 116  : 		SERIALIZE_PRIMITIVE_FUNC(bool)

	push	ebp
	mov	ebp, esp
	push	ecx
	mov	DWORD PTR _this$[ebp], ecx
	push	1
	mov	eax, DWORD PTR _value$[ebp]
	push	eax
	mov	ecx, DWORD PTR _this$[ebp]
	call	?serialize@Archive@Ogre@@QAEAAV12@PAXI@Z ; Ogre::Archive::serialize
	mov	eax, DWORD PTR _this$[ebp]
	mov	esp, ebp
	pop	ebp
	ret	4
??6Archive@Ogre@@QAEAAV01@AA_N@Z ENDP			; Ogre::Archive::operator<<
_TEXT	ENDS
PUBLIC	??6Archive@Ogre@@QAEAAV01@AAM@Z			; Ogre::Archive::operator<<
; Function compile flags: /Odtp
;	COMDAT ??6Archive@Ogre@@QAEAAV01@AAM@Z
_TEXT	SEGMENT
_this$ = -4						; size = 4
_value$ = 8						; size = 4
??6Archive@Ogre@@QAEAAV01@AAM@Z PROC			; Ogre::Archive::operator<<, COMDAT
; _this$ = ecx

; 117  : 		SERIALIZE_PRIMITIVE_FUNC(float)

	push	ebp
	mov	ebp, esp
	push	ecx
	mov	DWORD PTR _this$[ebp], ecx
	push	4
	mov	eax, DWORD PTR _value$[ebp]
	push	eax
	mov	ecx, DWORD PTR _this$[ebp]
	call	?serialize@Archive@Ogre@@QAEAAV12@PAXI@Z ; Ogre::Archive::serialize
	mov	eax, DWORD PTR _this$[ebp]
	mov	esp, ebp
	pop	ebp
	ret	4
??6Archive@Ogre@@QAEAAV01@AAM@Z ENDP			; Ogre::Archive::operator<<
; Function compile flags: /Odtp
_TEXT	ENDS
;	COMDAT ?serialize@Archive@Ogre@@QAEAAV12@PAXI@Z
_TEXT	SEGMENT
_this$ = -4						; size = 4
_pbuf$ = 8						; size = 4
_len$ = 12						; size = 4
?serialize@Archive@Ogre@@QAEAAV12@PAXI@Z PROC		; Ogre::Archive::serialize, COMDAT
; _this$ = ecx

; 155  : 		{

	push	ebp
	mov	ebp, esp
	push	ecx
	mov	DWORD PTR _this$[ebp], ecx

; 156  : 			if(isLoading()) m_pStream->read(pbuf, len);

	mov	ecx, DWORD PTR _this$[ebp]
	call	?isLoading@Archive@Ogre@@QAE_NXZ	; Ogre::Archive::isLoading
	movzx	eax, al
	test	eax, eax
	je	SHORT $LN2@serialize
	mov	ecx, DWORD PTR _len$[ebp]
	push	ecx
	mov	edx, DWORD PTR _pbuf$[ebp]
	push	edx
	mov	eax, DWORD PTR _this$[ebp]
	mov	ecx, DWORD PTR [eax+4]
	mov	edx, DWORD PTR _this$[ebp]
	mov	eax, DWORD PTR [edx+4]
	mov	edx, DWORD PTR [ecx]
	mov	ecx, eax
	mov	eax, DWORD PTR [edx+4]
	call	eax
	jmp	SHORT $LN1@serialize
$LN2@serialize:

; 157  : 			else m_pStream->write(pbuf, len);

	mov	ecx, DWORD PTR _len$[ebp]
	push	ecx
	mov	edx, DWORD PTR _pbuf$[ebp]
	push	edx
	mov	eax, DWORD PTR _this$[ebp]
	mov	ecx, DWORD PTR [eax+4]
	mov	edx, DWORD PTR _this$[ebp]
	mov	eax, DWORD PTR [edx+4]
	mov	edx, DWORD PTR [ecx]
	mov	ecx, eax
	mov	eax, DWORD PTR [edx+8]
	call	eax
$LN1@serialize:

; 158  : 
; 159  : 			return *this;

	mov	eax, DWORD PTR _this$[ebp]

; 160  : 		}

	mov	esp, ebp
	pop	ebp
	ret	8
?serialize@Archive@Ogre@@QAEAAV12@PAXI@Z ENDP		; Ogre::Archive::serialize
_TEXT	ENDS
PUBLIC	?read@Archive@Ogre@@QAEXPAXI@Z			; Ogre::Archive::read
; Function compile flags: /Odtp
;	COMDAT ?read@Archive@Ogre@@QAEXPAXI@Z
_TEXT	SEGMENT
_this$ = -4						; size = 4
_pbuf$ = 8						; size = 4
_len$ = 12						; size = 4
?read@Archive@Ogre@@QAEXPAXI@Z PROC			; Ogre::Archive::read, COMDAT
; _this$ = ecx

; 163  : 		{

	push	ebp
	mov	ebp, esp
	push	ecx
	mov	DWORD PTR _this$[ebp], ecx

; 164  : 			m_pStream->read(pbuf, len);

	mov	eax, DWORD PTR _len$[ebp]
	push	eax
	mov	ecx, DWORD PTR _pbuf$[ebp]
	push	ecx
	mov	edx, DWORD PTR _this$[ebp]
	mov	eax, DWORD PTR [edx+4]
	mov	ecx, DWORD PTR _this$[ebp]
	mov	ecx, DWORD PTR [ecx+4]
	mov	edx, DWORD PTR [eax]
	mov	eax, DWORD PTR [edx+4]
	call	eax

; 165  : 		}

	mov	esp, ebp
	pop	ebp
	ret	8
?read@Archive@Ogre@@QAEXPAXI@Z ENDP			; Ogre::Archive::read
_TEXT	ENDS
PUBLIC	?write@Archive@Ogre@@QAEXPBXI@Z			; Ogre::Archive::write
; Function compile flags: /Odtp
;	COMDAT ?write@Archive@Ogre@@QAEXPBXI@Z
_TEXT	SEGMENT
_this$ = -4						; size = 4
_pbuf$ = 8						; size = 4
_len$ = 12						; size = 4
?write@Archive@Ogre@@QAEXPBXI@Z PROC			; Ogre::Archive::write, COMDAT
; _this$ = ecx

; 168  : 		{

	push	ebp
	mov	ebp, esp
	push	ecx
	mov	DWORD PTR _this$[ebp], ecx

; 169  : 			m_pStream->write(pbuf, len);

	mov	eax, DWORD PTR _len$[ebp]
	push	eax
	mov	ecx, DWORD PTR _pbuf$[ebp]
	push	ecx
	mov	edx, DWORD PTR _this$[ebp]
	mov	eax, DWORD PTR [edx+4]
	mov	ecx, DWORD PTR _this$[ebp]
	mov	ecx, DWORD PTR [ecx+4]
	mov	edx, DWORD PTR [eax]
	mov	eax, DWORD PTR [edx+8]
	call	eax

; 170  : 		}

	mov	esp, ebp
	pop	ebp
	ret	8
?write@Archive@Ogre@@QAEXPBXI@Z ENDP			; Ogre::Archive::write
_TEXT	ENDS
PUBLIC	??0Archive@Ogre@@QAE@ABV01@@Z			; Ogre::Archive::Archive
; Function compile flags: /Odtp
;	COMDAT ??0Archive@Ogre@@QAE@ABV01@@Z
_TEXT	SEGMENT
_this$ = -4						; size = 4
___that$ = 8						; size = 4
??0Archive@Ogre@@QAE@ABV01@@Z PROC			; Ogre::Archive::Archive, COMDAT
; _this$ = ecx
	push	ebp
	mov	ebp, esp
	push	ecx
	mov	DWORD PTR _this$[ebp], ecx
	mov	eax, DWORD PTR _this$[ebp]
	mov	DWORD PTR [eax], OFFSET ??_7Archive@Ogre@@6B@
	mov	ecx, DWORD PTR _this$[ebp]
	mov	edx, DWORD PTR ___that$[ebp]
	mov	eax, DWORD PTR [edx+4]
	mov	DWORD PTR [ecx+4], eax
	mov	ecx, DWORD PTR _this$[ebp]
	mov	edx, DWORD PTR ___that$[ebp]
	mov	eax, DWORD PTR [edx+8]
	mov	DWORD PTR [ecx+8], eax
	mov	eax, DWORD PTR _this$[ebp]
	mov	esp, ebp
	pop	ebp
	ret	4
??0Archive@Ogre@@QAE@ABV01@@Z ENDP			; Ogre::Archive::Archive
_TEXT	ENDS
PUBLIC	??4Archive@Ogre@@QAEAAV01@ABV01@@Z		; Ogre::Archive::operator=
; Function compile flags: /Odtp
;	COMDAT ??4Archive@Ogre@@QAEAAV01@ABV01@@Z
_TEXT	SEGMENT
_this$ = -4						; size = 4
___that$ = 8						; size = 4
??4Archive@Ogre@@QAEAAV01@ABV01@@Z PROC			; Ogre::Archive::operator=, COMDAT
; _this$ = ecx
	push	ebp
	mov	ebp, esp
	push	ecx
	mov	DWORD PTR _this$[ebp], ecx
	mov	eax, DWORD PTR _this$[ebp]
	mov	ecx, DWORD PTR ___that$[ebp]
	mov	edx, DWORD PTR [ecx+4]
	mov	DWORD PTR [eax+4], edx
	mov	eax, DWORD PTR _this$[ebp]
	mov	ecx, DWORD PTR ___that$[ebp]
	mov	edx, DWORD PTR [ecx+8]
	mov	DWORD PTR [eax+8], edx
	mov	eax, DWORD PTR _this$[ebp]
	mov	esp, ebp
	pop	ebp
	ret	4
??4Archive@Ogre@@QAEAAV01@ABV01@@Z ENDP			; Ogre::Archive::operator=
_TEXT	ENDS
PUBLIC	??_GArchive@Ogre@@UAEPAXI@Z			; Ogre::Archive::`scalar deleting destructor'
; Function compile flags: /Odtp
;	COMDAT ??_GArchive@Ogre@@UAEPAXI@Z
_TEXT	SEGMENT
_this$ = -4						; size = 4
___flags$ = 8						; size = 4
??_GArchive@Ogre@@UAEPAXI@Z PROC			; Ogre::Archive::`scalar deleting destructor', COMDAT
; _this$ = ecx
	push	ebp
	mov	ebp, esp
	push	ecx
	mov	DWORD PTR _this$[ebp], ecx
	mov	ecx, DWORD PTR _this$[ebp]
	call	??1Archive@Ogre@@UAE@XZ			; Ogre::Archive::~Archive
	mov	eax, DWORD PTR ___flags$[ebp]
	and	eax, 1
	je	SHORT $LN1@scalar@8
	mov	ecx, DWORD PTR _this$[ebp]
	push	ecx
	call	??3@YAXPAX@Z				; operator delete
	add	esp, 4
$LN1@scalar@8:
	mov	eax, DWORD PTR _this$[ebp]
	mov	esp, ebp
	pop	ebp
	ret	4
??_GArchive@Ogre@@UAEPAXI@Z ENDP			; Ogre::Archive::`scalar deleting destructor'
; Function compile flags: /Odtp
_TEXT	ENDS
;	COMDAT ??_EArchive@Ogre@@UAEPAXI@Z
_TEXT	SEGMENT
_this$ = -4						; size = 4
___flags$ = 8						; size = 4
??_EArchive@Ogre@@UAEPAXI@Z PROC			; Ogre::Archive::`vector deleting destructor', COMDAT
; _this$ = ecx
	push	ebp
	mov	ebp, esp
	push	ecx
	mov	DWORD PTR _this$[ebp], ecx
	mov	eax, DWORD PTR ___flags$[ebp]
	and	eax, 2
	je	SHORT $LN3@vector@8
	push	OFFSET ??1Archive@Ogre@@UAE@XZ		; Ogre::Archive::~Archive
	mov	ecx, DWORD PTR _this$[ebp]
	mov	edx, DWORD PTR [ecx-4]
	push	edx
	push	12					; 0000000cH
	mov	eax, DWORD PTR _this$[ebp]
	push	eax
	call	??_M@YGXPAXIHP6EX0@Z@Z
	mov	ecx, DWORD PTR ___flags$[ebp]
	and	ecx, 1
	je	SHORT $LN2@vector@8
	mov	edx, DWORD PTR _this$[ebp]
	sub	edx, 4
	push	edx
	call	??_V@YAXPAX@Z				; operator delete[]
	add	esp, 4
$LN2@vector@8:
	mov	eax, DWORD PTR _this$[ebp]
	sub	eax, 4
	jmp	SHORT $LN4@vector@8
$LN3@vector@8:
	mov	ecx, DWORD PTR _this$[ebp]
	call	??1Archive@Ogre@@UAE@XZ			; Ogre::Archive::~Archive
	mov	eax, DWORD PTR ___flags$[ebp]
	and	eax, 1
	je	SHORT $LN1@vector@8
	mov	ecx, DWORD PTR _this$[ebp]
	push	ecx
	call	??3@YAXPAX@Z				; operator delete
	add	esp, 4
$LN1@vector@8:
	mov	eax, DWORD PTR _this$[ebp]
$LN4@vector@8:
	mov	esp, ebp
	pop	ebp
	ret	4
??_EArchive@Ogre@@UAEPAXI@Z ENDP			; Ogre::Archive::`vector deleting destructor'
_TEXT	ENDS
PUBLIC	?handle2Ptr@FixedString@Ogre@@SAPBDPAX@Z	; Ogre::FixedString::handle2Ptr
; Function compile flags: /Odtp
; File i:\svnroot\client\ogremain\ogrefixedstring.h
;	COMDAT ?handle2Ptr@FixedString@Ogre@@SAPBDPAX@Z
_TEXT	SEGMENT
_h$ = 8							; size = 4
?handle2Ptr@FixedString@Ogre@@SAPBDPAX@Z PROC		; Ogre::FixedString::handle2Ptr, COMDAT

; 22   : 		{

	push	ebp
	mov	ebp, esp

; 23   : 			return (const char *)h;

	mov	eax, DWORD PTR _h$[ebp]

; 24   : 		}

	pop	ebp
	ret	0
?handle2Ptr@FixedString@Ogre@@SAPBDPAX@Z ENDP		; Ogre::FixedString::handle2Ptr
_TEXT	ENDS
PUBLIC	??0FixedString@Ogre@@QAE@XZ			; Ogre::FixedString::FixedString
; Function compile flags: /Odtp
;	COMDAT ??0FixedString@Ogre@@QAE@XZ
_TEXT	SEGMENT
_this$ = -4						; size = 4
??0FixedString@Ogre@@QAE@XZ PROC			; Ogre::FixedString::FixedString, COMDAT
; _this$ = ecx

; 27   : 		FixedString() : m_StrHandle(NULL){}

	push	ebp
	mov	ebp, esp
	push	ecx
	mov	DWORD PTR _this$[ebp], ecx
	mov	eax, DWORD PTR _this$[ebp]
	mov	DWORD PTR [eax], 0
	mov	eax, DWORD PTR _this$[ebp]
	mov	esp, ebp
	pop	ebp
	ret	0
??0FixedString@Ogre@@QAE@XZ ENDP			; Ogre::FixedString::FixedString
_TEXT	ENDS
PUBLIC	??0FixedString@Ogre@@QAE@PAX@Z			; Ogre::FixedString::FixedString
EXTRN	?addRef@FixedString@Ogre@@SAXPAX@Z:PROC		; Ogre::FixedString::addRef
; Function compile flags: /Odtp
;	COMDAT ??0FixedString@Ogre@@QAE@PAX@Z
_TEXT	SEGMENT
_this$ = -4						; size = 4
_h$ = 8							; size = 4
??0FixedString@Ogre@@QAE@PAX@Z PROC			; Ogre::FixedString::FixedString, COMDAT
; _this$ = ecx

; 29   : 		{

	push	ebp
	mov	ebp, esp
	push	ecx
	mov	DWORD PTR _this$[ebp], ecx
	mov	eax, DWORD PTR _this$[ebp]
	mov	ecx, DWORD PTR _h$[ebp]
	mov	DWORD PTR [eax], ecx

; 30   : 			addRef(h);

	mov	edx, DWORD PTR _h$[ebp]
	push	edx
	call	?addRef@FixedString@Ogre@@SAXPAX@Z	; Ogre::FixedString::addRef
	add	esp, 4

; 31   : 		}

	mov	eax, DWORD PTR _this$[ebp]
	mov	esp, ebp
	pop	ebp
	ret	4
??0FixedString@Ogre@@QAE@PAX@Z ENDP			; Ogre::FixedString::FixedString
_TEXT	ENDS
PUBLIC	??0FixedString@Ogre@@QAE@ABV01@@Z		; Ogre::FixedString::FixedString
; Function compile flags: /Odtp
;	COMDAT ??0FixedString@Ogre@@QAE@ABV01@@Z
_TEXT	SEGMENT
_this$ = -4						; size = 4
_rhs$ = 8						; size = 4
??0FixedString@Ogre@@QAE@ABV01@@Z PROC			; Ogre::FixedString::FixedString, COMDAT
; _this$ = ecx

; 34   : 		{

	push	ebp
	mov	ebp, esp
	push	ecx
	mov	DWORD PTR _this$[ebp], ecx
	mov	eax, DWORD PTR _this$[ebp]
	mov	ecx, DWORD PTR _rhs$[ebp]
	mov	edx, DWORD PTR [ecx]
	mov	DWORD PTR [eax], edx

; 35   : 			addRef(m_StrHandle);

	mov	eax, DWORD PTR _this$[ebp]
	mov	ecx, DWORD PTR [eax]
	push	ecx
	call	?addRef@FixedString@Ogre@@SAXPAX@Z	; Ogre::FixedString::addRef
	add	esp, 4

; 36   : 		}

	mov	eax, DWORD PTR _this$[ebp]
	mov	esp, ebp
	pop	ebp
	ret	4
??0FixedString@Ogre@@QAE@ABV01@@Z ENDP			; Ogre::FixedString::FixedString
_TEXT	ENDS
PUBLIC	??0FixedString@Ogre@@QAE@PBD@Z			; Ogre::FixedString::FixedString
EXTRN	?insert@FixedString@Ogre@@SAPAXPBDH@Z:PROC	; Ogre::FixedString::insert
; Function compile flags: /Odtp
;	COMDAT ??0FixedString@Ogre@@QAE@PBD@Z
_TEXT	SEGMENT
_this$ = -4						; size = 4
_pstr$ = 8						; size = 4
??0FixedString@Ogre@@QAE@PBD@Z PROC			; Ogre::FixedString::FixedString, COMDAT
; _this$ = ecx

; 38   : 		FixedString(const char *pstr)

	push	ebp
	mov	ebp, esp
	push	ecx
	mov	DWORD PTR _this$[ebp], ecx

; 39   : 		{
; 40   : 			m_StrHandle = insert(pstr); 

	push	-1
	mov	eax, DWORD PTR _pstr$[ebp]
	push	eax
	call	?insert@FixedString@Ogre@@SAPAXPBDH@Z	; Ogre::FixedString::insert
	add	esp, 8
	mov	ecx, DWORD PTR _this$[ebp]
	mov	DWORD PTR [ecx], eax

; 41   : 		}

	mov	eax, DWORD PTR _this$[ebp]
	mov	esp, ebp
	pop	ebp
	ret	4
??0FixedString@Ogre@@QAE@PBD@Z ENDP			; Ogre::FixedString::FixedString
_TEXT	ENDS
PUBLIC	??0FixedString@Ogre@@QAE@PBDI@Z			; Ogre::FixedString::FixedString
; Function compile flags: /Odtp
;	COMDAT ??0FixedString@Ogre@@QAE@PBDI@Z
_TEXT	SEGMENT
_this$ = -4						; size = 4
_pstr$ = 8						; size = 4
_len$ = 12						; size = 4
??0FixedString@Ogre@@QAE@PBDI@Z PROC			; Ogre::FixedString::FixedString, COMDAT
; _this$ = ecx

; 43   : 		FixedString(const char *pstr, size_t len)

	push	ebp
	mov	ebp, esp
	push	ecx
	mov	DWORD PTR _this$[ebp], ecx

; 44   : 		{
; 45   : 			m_StrHandle = insert(pstr, (int)len); 

	mov	eax, DWORD PTR _len$[ebp]
	push	eax
	mov	ecx, DWORD PTR _pstr$[ebp]
	push	ecx
	call	?insert@FixedString@Ogre@@SAPAXPBDH@Z	; Ogre::FixedString::insert
	add	esp, 8
	mov	edx, DWORD PTR _this$[ebp]
	mov	DWORD PTR [edx], eax

; 46   : 		}

	mov	eax, DWORD PTR _this$[ebp]
	mov	esp, ebp
	pop	ebp
	ret	8
??0FixedString@Ogre@@QAE@PBDI@Z ENDP			; Ogre::FixedString::FixedString
_TEXT	ENDS
PUBLIC	??1FixedString@Ogre@@QAE@XZ			; Ogre::FixedString::~FixedString
EXTRN	?release@FixedString@Ogre@@SAXPAX@Z:PROC	; Ogre::FixedString::release
; Function compile flags: /Odtp
;	COMDAT ??1FixedString@Ogre@@QAE@XZ
_TEXT	SEGMENT
_this$ = -4						; size = 4
??1FixedString@Ogre@@QAE@XZ PROC			; Ogre::FixedString::~FixedString, COMDAT
; _this$ = ecx

; 49   : 		{

	push	ebp
	mov	ebp, esp
	push	ecx
	mov	DWORD PTR _this$[ebp], ecx

; 50   : 			release(m_StrHandle); 

	mov	eax, DWORD PTR _this$[ebp]
	mov	ecx, DWORD PTR [eax]
	push	ecx
	call	?release@FixedString@Ogre@@SAXPAX@Z	; Ogre::FixedString::release
	add	esp, 4

; 51   : 		}

	mov	esp, ebp
	pop	ebp
	ret	0
??1FixedString@Ogre@@QAE@XZ ENDP			; Ogre::FixedString::~FixedString
_TEXT	ENDS
PUBLIC	??BFixedString@Ogre@@QBEPBDXZ			; Ogre::FixedString::operator char const *
; Function compile flags: /Odtp
;	COMDAT ??BFixedString@Ogre@@QBEPBDXZ
_TEXT	SEGMENT
_this$ = -4						; size = 4
??BFixedString@Ogre@@QBEPBDXZ PROC			; Ogre::FixedString::operator char const *, COMDAT
; _this$ = ecx

; 54   : 		{

	push	ebp
	mov	ebp, esp
	push	ecx
	mov	DWORD PTR _this$[ebp], ecx

; 55   : 			return handle2Ptr(m_StrHandle);

	mov	eax, DWORD PTR _this$[ebp]
	mov	ecx, DWORD PTR [eax]
	push	ecx
	call	?handle2Ptr@FixedString@Ogre@@SAPBDPAX@Z ; Ogre::FixedString::handle2Ptr
	add	esp, 4

; 56   : 		}

	mov	esp, ebp
	pop	ebp
	ret	0
??BFixedString@Ogre@@QBEPBDXZ ENDP			; Ogre::FixedString::operator char const *
_TEXT	ENDS
PUBLIC	?getHandle@FixedString@Ogre@@QBEPAXXZ		; Ogre::FixedString::getHandle
; Function compile flags: /Odtp
;	COMDAT ?getHandle@FixedString@Ogre@@QBEPAXXZ
_TEXT	SEGMENT
_this$ = -4						; size = 4
?getHandle@FixedString@Ogre@@QBEPAXXZ PROC		; Ogre::FixedString::getHandle, COMDAT
; _this$ = ecx

; 59   : 		{

	push	ebp
	mov	ebp, esp
	push	ecx
	mov	DWORD PTR _this$[ebp], ecx

; 60   : 			return m_StrHandle;

	mov	eax, DWORD PTR _this$[ebp]
	mov	eax, DWORD PTR [eax]

; 61   : 		}

	mov	esp, ebp
	pop	ebp
	ret	0
?getHandle@FixedString@Ogre@@QBEPAXXZ ENDP		; Ogre::FixedString::getHandle
_TEXT	ENDS
PUBLIC	__$ArrayPad$
PUBLIC	?readObject@Archive@Ogre@@QAEPAVBaseObject@2@XZ	; Ogre::Archive::readObject
EXTRN	?fromName@RuntimeClass@Ogre@@SAPAV12@PBD@Z:PROC	; Ogre::RuntimeClass::fromName
; Function compile flags: /Odtp
; File i:\svnroot\client\ogremain\ogrearchive.cpp
_TEXT	SEGMENT
_this$ = -276						; size = 4
_buffer$ = -272						; size = 256
__$ArrayPad$ = -16					; size = 4
_version$ = -12						; size = 2
_len$ = -5						; size = 1
_pobj$ = -4						; size = 4
?readObject@Archive@Ogre@@QAEPAVBaseObject@2@XZ PROC	; Ogre::Archive::readObject
; _this$ = ecx

; 9    : 	{

	push	ebp
	mov	ebp, esp
	sub	esp, 276				; 00000114H
	mov	eax, DWORD PTR ___security_cookie
	xor	eax, ebp
	mov	DWORD PTR __$ArrayPad$[ebp], eax
	mov	DWORD PTR _this$[ebp], ecx

; 10   : 		ushort version;
; 11   : 		read(&version, sizeof(ushort));

	push	2
	lea	eax, DWORD PTR _version$[ebp]
	push	eax
	mov	ecx, DWORD PTR _this$[ebp]
	call	?read@Archive@Ogre@@QAEXPAXI@Z		; Ogre::Archive::read

; 12   : 		if(version == 0) return NULL;

	movzx	ecx, WORD PTR _version$[ebp]
	test	ecx, ecx
	jne	SHORT $LN1@readObject
	xor	eax, eax
	jmp	SHORT $LN2@readObject
$LN1@readObject:

; 13   : 
; 14   : 		char buffer[256];
; 15   : 		uchar len;
; 16   : 
; 17   : 		read(&len, sizeof(uchar));

	push	1
	lea	edx, DWORD PTR _len$[ebp]
	push	edx
	mov	ecx, DWORD PTR _this$[ebp]
	call	?read@Archive@Ogre@@QAEXPAXI@Z		; Ogre::Archive::read

; 18   : 		read(buffer, len);

	movzx	eax, BYTE PTR _len$[ebp]
	push	eax
	lea	ecx, DWORD PTR _buffer$[ebp]
	push	ecx
	mov	ecx, DWORD PTR _this$[ebp]
	call	?read@Archive@Ogre@@QAEXPAXI@Z		; Ogre::Archive::read

; 19   : 		buffer[len] = 0;

	movzx	edx, BYTE PTR _len$[ebp]
	mov	BYTE PTR _buffer$[ebp+edx], 0

; 20   : 
; 21   : 		BaseObject *pobj = RuntimeClass::fromName(buffer)->newObject();

	lea	eax, DWORD PTR _buffer$[ebp]
	push	eax
	call	?fromName@RuntimeClass@Ogre@@SAPAV12@PBD@Z ; Ogre::RuntimeClass::fromName
	add	esp, 4
	mov	ecx, eax
	call	?newObject@RuntimeClass@Ogre@@QAEPAVBaseObject@2@XZ ; Ogre::RuntimeClass::newObject
	mov	DWORD PTR _pobj$[ebp], eax

; 22   : 		pobj->_serialize(*this, version);

	movzx	ecx, WORD PTR _version$[ebp]
	push	ecx
	mov	edx, DWORD PTR _this$[ebp]
	push	edx
	mov	eax, DWORD PTR _pobj$[ebp]
	mov	edx, DWORD PTR [eax]
	mov	ecx, DWORD PTR _pobj$[ebp]
	mov	eax, DWORD PTR [edx+16]
	call	eax

; 23   : 
; 24   : 		return pobj;

	mov	eax, DWORD PTR _pobj$[ebp]
$LN2@readObject:

; 25   : 	}

	mov	ecx, DWORD PTR __$ArrayPad$[ebp]
	xor	ecx, ebp
	call	@__security_check_cookie@4
	mov	esp, ebp
	pop	ebp
	ret	0
?readObject@Archive@Ogre@@QAEPAVBaseObject@2@XZ ENDP	; Ogre::Archive::readObject
_TEXT	ENDS
PUBLIC	?writeObject@Archive@Ogre@@QAEXPAVBaseObject@2@@Z ; Ogre::Archive::writeObject
EXTRN	_strlen:PROC
; Function compile flags: /Odtp
_TEXT	SEGMENT
tv73 = -20						; size = 4
_this$ = -16						; size = 4
_pclassname$ = -12					; size = 4
_version$ = -8						; size = 2
_len$ = -1						; size = 1
_pobj$ = 8						; size = 4
?writeObject@Archive@Ogre@@QAEXPAVBaseObject@2@@Z PROC	; Ogre::Archive::writeObject
; _this$ = ecx

; 28   : 	{

	push	ebp
	mov	ebp, esp
	sub	esp, 20					; 00000014H
	mov	DWORD PTR _this$[ebp], ecx

; 29   : 		ushort version = pobj==NULL?0:(ushort)pobj->getRTTI()->getVersion();

	cmp	DWORD PTR _pobj$[ebp], 0
	jne	SHORT $LN4@writeObjec
	mov	DWORD PTR tv73[ebp], 0
	jmp	SHORT $LN5@writeObjec
$LN4@writeObjec:
	mov	eax, DWORD PTR _pobj$[ebp]
	mov	edx, DWORD PTR [eax]
	mov	ecx, DWORD PTR _pobj$[ebp]
	mov	eax, DWORD PTR [edx]
	call	eax
	mov	ecx, eax
	call	?getVersion@RuntimeClass@Ogre@@QBEHXZ	; Ogre::RuntimeClass::getVersion
	movzx	ecx, ax
	mov	DWORD PTR tv73[ebp], ecx
$LN5@writeObjec:
	mov	dx, WORD PTR tv73[ebp]
	mov	WORD PTR _version$[ebp], dx

; 30   : 		write(&version, sizeof(ushort));

	push	2
	lea	eax, DWORD PTR _version$[ebp]
	push	eax
	mov	ecx, DWORD PTR _this$[ebp]
	call	?write@Archive@Ogre@@QAEXPBXI@Z		; Ogre::Archive::write

; 31   : 
; 32   : 		if(pobj == NULL)

	cmp	DWORD PTR _pobj$[ebp], 0
	jne	SHORT $LN1@writeObjec

; 33   : 		{
; 34   : 			return;

	jmp	SHORT $LN2@writeObjec
$LN1@writeObjec:

; 35   : 		}
; 36   : 
; 37   : 		const char *pclassname = pobj->getRTTI()->getClassName();

	mov	ecx, DWORD PTR _pobj$[ebp]
	mov	edx, DWORD PTR [ecx]
	mov	ecx, DWORD PTR _pobj$[ebp]
	mov	eax, DWORD PTR [edx]
	call	eax
	mov	ecx, eax
	call	?getClassName@RuntimeClass@Ogre@@QBEPBDXZ ; Ogre::RuntimeClass::getClassName
	mov	DWORD PTR _pclassname$[ebp], eax

; 38   : 		uchar len = (uchar)strlen(pclassname);

	mov	ecx, DWORD PTR _pclassname$[ebp]
	push	ecx
	call	_strlen
	add	esp, 4
	mov	BYTE PTR _len$[ebp], al

; 39   : 		write(&len, sizeof(uchar));

	push	1
	lea	edx, DWORD PTR _len$[ebp]
	push	edx
	mov	ecx, DWORD PTR _this$[ebp]
	call	?write@Archive@Ogre@@QAEXPBXI@Z		; Ogre::Archive::write

; 40   : 		write(pclassname, len);

	movzx	eax, BYTE PTR _len$[ebp]
	push	eax
	mov	ecx, DWORD PTR _pclassname$[ebp]
	push	ecx
	mov	ecx, DWORD PTR _this$[ebp]
	call	?write@Archive@Ogre@@QAEXPBXI@Z		; Ogre::Archive::write

; 41   : 
; 42   : 		pobj->_serialize(*this, version);

	movzx	edx, WORD PTR _version$[ebp]
	push	edx
	mov	eax, DWORD PTR _this$[ebp]
	push	eax
	mov	ecx, DWORD PTR _pobj$[ebp]
	mov	edx, DWORD PTR [ecx]
	mov	ecx, DWORD PTR _pobj$[ebp]
	mov	eax, DWORD PTR [edx+16]
	call	eax
$LN2@writeObjec:

; 43   : 	}

	mov	esp, ebp
	pop	ebp
	ret	4
?writeObject@Archive@Ogre@@QAEXPAVBaseObject@2@@Z ENDP	; Ogre::Archive::writeObject
_TEXT	ENDS
PUBLIC	??6Archive@Ogre@@QAEAAV01@AAV?$basic_string@DU?$char_traits@D@std@@V?$allocator@D@2@@std@@@Z ; Ogre::Archive::operator<<
EXTRN	__imp_?length@?$basic_string@DU?$char_traits@D@std@@V?$allocator@D@2@@std@@QBEIXZ:PROC
EXTRN	__imp_??A?$basic_string@DU?$char_traits@D@std@@V?$allocator@D@2@@std@@QAEAADI@Z:PROC
EXTRN	__imp_?resize@?$basic_string@DU?$char_traits@D@std@@V?$allocator@D@2@@std@@QAEXI@Z:PROC
; Function compile flags: /Odtp
_TEXT	SEGMENT
_this$ = -12						; size = 4
_len$56546 = -8						; size = 2
_len$56544 = -4						; size = 2
_str$ = 8						; size = 4
??6Archive@Ogre@@QAEAAV01@AAV?$basic_string@DU?$char_traits@D@std@@V?$allocator@D@2@@std@@@Z PROC ; Ogre::Archive::operator<<
; _this$ = ecx

; 46   : 	{

	push	ebp
	mov	ebp, esp
	sub	esp, 12					; 0000000cH
	mov	DWORD PTR _this$[ebp], ecx

; 47   : 		if(isLoading())

	mov	ecx, DWORD PTR _this$[ebp]
	call	?isLoading@Archive@Ogre@@QAE_NXZ	; Ogre::Archive::isLoading
	movzx	eax, al
	test	eax, eax
	je	SHORT $LN2@operator

; 48   : 		{
; 49   : 			ushort len;
; 50   : 			read(&len, sizeof(len));

	push	2
	lea	ecx, DWORD PTR _len$56544[ebp]
	push	ecx
	mov	ecx, DWORD PTR _this$[ebp]
	call	?read@Archive@Ogre@@QAEXPAXI@Z		; Ogre::Archive::read

; 51   : 
; 52   : 			str.resize(len);

	movzx	edx, WORD PTR _len$56544[ebp]
	push	edx
	mov	ecx, DWORD PTR _str$[ebp]
	call	DWORD PTR __imp_?resize@?$basic_string@DU?$char_traits@D@std@@V?$allocator@D@2@@std@@QAEXI@Z

; 53   : 			read(&str[0], len);

	movzx	eax, WORD PTR _len$56544[ebp]
	push	eax
	push	0
	mov	ecx, DWORD PTR _str$[ebp]
	call	DWORD PTR __imp_??A?$basic_string@DU?$char_traits@D@std@@V?$allocator@D@2@@std@@QAEAADI@Z
	push	eax
	mov	ecx, DWORD PTR _this$[ebp]
	call	?read@Archive@Ogre@@QAEXPAXI@Z		; Ogre::Archive::read

; 54   : 		}
; 55   : 		else

	jmp	SHORT $LN1@operator
$LN2@operator:

; 56   : 		{
; 57   : 			ushort len = (ushort)str.length();

	mov	ecx, DWORD PTR _str$[ebp]
	call	DWORD PTR __imp_?length@?$basic_string@DU?$char_traits@D@std@@V?$allocator@D@2@@std@@QBEIXZ
	mov	WORD PTR _len$56546[ebp], ax

; 58   : 			write(&len, sizeof(len));

	push	2
	lea	ecx, DWORD PTR _len$56546[ebp]
	push	ecx
	mov	ecx, DWORD PTR _this$[ebp]
	call	?write@Archive@Ogre@@QAEXPBXI@Z		; Ogre::Archive::write

; 59   : 			write(&str[0], len);

	movzx	edx, WORD PTR _len$56546[ebp]
	push	edx
	push	0
	mov	ecx, DWORD PTR _str$[ebp]
	call	DWORD PTR __imp_??A?$basic_string@DU?$char_traits@D@std@@V?$allocator@D@2@@std@@QAEAADI@Z
	push	eax
	mov	ecx, DWORD PTR _this$[ebp]
	call	?write@Archive@Ogre@@QAEXPBXI@Z		; Ogre::Archive::write
$LN1@operator:

; 60   : 		}
; 61   : 
; 62   : 		return *this;

	mov	eax, DWORD PTR _this$[ebp]

; 63   : 	}

	mov	esp, ebp
	pop	ebp
	ret	4
??6Archive@Ogre@@QAEAAV01@AAV?$basic_string@DU?$char_traits@D@std@@V?$allocator@D@2@@std@@@Z ENDP ; Ogre::Archive::operator<<
_TEXT	ENDS
PUBLIC	??A?$vector@V?$basic_string@DU?$char_traits@D@std@@V?$allocator@D@2@@std@@V?$allocator@V?$basic_string@DU?$char_traits@D@std@@V?$allocator@D@2@@std@@@2@@std@@QAEAAV?$basic_string@DU?$char_traits@D@std@@V?$allocator@D@2@@1@I@Z ; std::vector<std::basic_string<char,std::char_traits<char>,std::allocator<char> >,std::allocator<std::basic_string<char,std::char_traits<char>,std::allocator<char> > > >::operator[]
PUBLIC	?size@?$vector@V?$basic_string@DU?$char_traits@D@std@@V?$allocator@D@2@@std@@V?$allocator@V?$basic_string@DU?$char_traits@D@std@@V?$allocator@D@2@@std@@@2@@std@@QBEIXZ ; std::vector<std::basic_string<char,std::char_traits<char>,std::allocator<char> >,std::allocator<std::basic_string<char,std::char_traits<char>,std::allocator<char> > > >::size
PUBLIC	?resize@?$vector@V?$basic_string@DU?$char_traits@D@std@@V?$allocator@D@2@@std@@V?$allocator@V?$basic_string@DU?$char_traits@D@std@@V?$allocator@D@2@@std@@@2@@std@@QAEXI@Z ; std::vector<std::basic_string<char,std::char_traits<char>,std::allocator<char> >,std::allocator<std::basic_string<char,std::char_traits<char>,std::allocator<char> > > >::resize
PUBLIC	??6Archive@Ogre@@QAEAAV01@AAV?$vector@V?$basic_string@DU?$char_traits@D@std@@V?$allocator@D@2@@std@@V?$allocator@V?$basic_string@DU?$char_traits@D@std@@V?$allocator@D@2@@std@@@2@@std@@@Z ; Ogre::Archive::operator<<
; Function compile flags: /Odtp
_TEXT	SEGMENT
_this$ = -12						; size = 4
_i$56924 = -8						; size = 4
_num$ = -4						; size = 4
_strarray$ = 8						; size = 4
??6Archive@Ogre@@QAEAAV01@AAV?$vector@V?$basic_string@DU?$char_traits@D@std@@V?$allocator@D@2@@std@@V?$allocator@V?$basic_string@DU?$char_traits@D@std@@V?$allocator@D@2@@std@@@2@@std@@@Z PROC ; Ogre::Archive::operator<<
; _this$ = ecx

; 66   : 	{

	push	ebp
	mov	ebp, esp
	sub	esp, 12					; 0000000cH
	mov	DWORD PTR _this$[ebp], ecx

; 67   : 		uint num;
; 68   : 		
; 69   : 		if(isLoading())

	mov	ecx, DWORD PTR _this$[ebp]
	call	?isLoading@Archive@Ogre@@QAE_NXZ	; Ogre::Archive::isLoading
	movzx	eax, al
	test	eax, eax
	je	SHORT $LN5@operator@2

; 70   : 		{
; 71   : 			*this << num;

	lea	ecx, DWORD PTR _num$[ebp]
	push	ecx
	mov	ecx, DWORD PTR _this$[ebp]
	call	??6Archive@Ogre@@QAEAAV01@AAI@Z		; Ogre::Archive::operator<<

; 72   : 			strarray.resize(num);

	mov	edx, DWORD PTR _num$[ebp]
	push	edx
	mov	ecx, DWORD PTR _strarray$[ebp]
	call	?resize@?$vector@V?$basic_string@DU?$char_traits@D@std@@V?$allocator@D@2@@std@@V?$allocator@V?$basic_string@DU?$char_traits@D@std@@V?$allocator@D@2@@std@@@2@@std@@QAEXI@Z ; std::vector<std::basic_string<char,std::char_traits<char>,std::allocator<char> >,std::allocator<std::basic_string<char,std::char_traits<char>,std::allocator<char> > > >::resize

; 73   : 		}
; 74   : 		else

	jmp	SHORT $LN4@operator@2
$LN5@operator@2:

; 75   : 		{
; 76   : 			num = (uint)strarray.size();

	mov	ecx, DWORD PTR _strarray$[ebp]
	call	?size@?$vector@V?$basic_string@DU?$char_traits@D@std@@V?$allocator@D@2@@std@@V?$allocator@V?$basic_string@DU?$char_traits@D@std@@V?$allocator@D@2@@std@@@2@@std@@QBEIXZ ; std::vector<std::basic_string<char,std::char_traits<char>,std::allocator<char> >,std::allocator<std::basic_string<char,std::char_traits<char>,std::allocator<char> > > >::size
	mov	DWORD PTR _num$[ebp], eax

; 77   : 			*this << num;

	lea	eax, DWORD PTR _num$[ebp]
	push	eax
	mov	ecx, DWORD PTR _this$[ebp]
	call	??6Archive@Ogre@@QAEAAV01@AAI@Z		; Ogre::Archive::operator<<
$LN4@operator@2:

; 78   : 		}
; 79   : 
; 80   : 		for(uint i=0; i<num; i++)

	mov	DWORD PTR _i$56924[ebp], 0
	jmp	SHORT $LN3@operator@2
$LN2@operator@2:
	mov	ecx, DWORD PTR _i$56924[ebp]
	add	ecx, 1
	mov	DWORD PTR _i$56924[ebp], ecx
$LN3@operator@2:
	mov	edx, DWORD PTR _i$56924[ebp]
	cmp	edx, DWORD PTR _num$[ebp]
	jae	SHORT $LN1@operator@2

; 81   : 		{
; 82   : 			*this << strarray[i];

	mov	eax, DWORD PTR _i$56924[ebp]
	push	eax
	mov	ecx, DWORD PTR _strarray$[ebp]
	call	??A?$vector@V?$basic_string@DU?$char_traits@D@std@@V?$allocator@D@2@@std@@V?$allocator@V?$basic_string@DU?$char_traits@D@std@@V?$allocator@D@2@@std@@@2@@std@@QAEAAV?$basic_string@DU?$char_traits@D@std@@V?$allocator@D@2@@1@I@Z ; std::vector<std::basic_string<char,std::char_traits<char>,std::allocator<char> >,std::allocator<std::basic_string<char,std::char_traits<char>,std::allocator<char> > > >::operator[]
	push	eax
	mov	ecx, DWORD PTR _this$[ebp]
	call	??6Archive@Ogre@@QAEAAV01@AAV?$basic_string@DU?$char_traits@D@std@@V?$allocator@D@2@@std@@@Z ; Ogre::Archive::operator<<

; 83   : 		}

	jmp	SHORT $LN2@operator@2
$LN1@operator@2:

; 84   : 
; 85   : 		return *this;

	mov	eax, DWORD PTR _this$[ebp]

; 86   : 	}

	mov	esp, ebp
	pop	ebp
	ret	4
??6Archive@Ogre@@QAEAAV01@AAV?$vector@V?$basic_string@DU?$char_traits@D@std@@V?$allocator@D@2@@std@@V?$allocator@V?$basic_string@DU?$char_traits@D@std@@V?$allocator@D@2@@std@@@2@@std@@@Z ENDP ; Ogre::Archive::operator<<
_TEXT	ENDS
PUBLIC	__$ArrayPad$
PUBLIC	??6Archive@Ogre@@QAEAAV01@AAVFixedString@1@@Z	; Ogre::Archive::operator<<
EXTRN	?length@FixedString@Ogre@@QBEIXZ:PROC		; Ogre::FixedString::length
EXTRN	??4FixedString@Ogre@@QAEAAV01@PBD@Z:PROC	; Ogre::FixedString::operator=
EXTRN	??_U@YAPAXI@Z:PROC				; operator new[]
; Function compile flags: /Odtp
_TEXT	SEGMENT
_this$ = -284						; size = 4
$T62513 = -280						; size = 4
$T62512 = -276						; size = 4
_len$56943 = -272					; size = 2
_len$56933 = -268					; size = 2
_tmpbuf$56935 = -264					; size = 256
__$ArrayPad$ = -8					; size = 4
_pbuf$56934 = -4					; size = 4
_str$ = 8						; size = 4
??6Archive@Ogre@@QAEAAV01@AAVFixedString@1@@Z PROC	; Ogre::Archive::operator<<
; _this$ = ecx

; 89   : 	{

	push	ebp
	mov	ebp, esp
	sub	esp, 284				; 0000011cH
	mov	eax, DWORD PTR ___security_cookie
	xor	eax, ebp
	mov	DWORD PTR __$ArrayPad$[ebp], eax
	mov	DWORD PTR _this$[ebp], ecx

; 90   : 		if(isLoading())

	mov	ecx, DWORD PTR _this$[ebp]
	call	?isLoading@Archive@Ogre@@QAE_NXZ	; Ogre::Archive::isLoading
	movzx	eax, al
	test	eax, eax
	je	$LN5@operator@3

; 91   : 		{
; 92   : 			ushort len;
; 93   : 			read(&len, sizeof(len));

	push	2
	lea	ecx, DWORD PTR _len$56933[ebp]
	push	ecx
	mov	ecx, DWORD PTR _this$[ebp]
	call	?read@Archive@Ogre@@QAEXPAXI@Z		; Ogre::Archive::read

; 94   : 
; 95   : 			char *pbuf;
; 96   : 			char tmpbuf[256];
; 97   : 			
; 98   : 			if(len < 256) pbuf = tmpbuf;

	movzx	edx, WORD PTR _len$56933[ebp]
	cmp	edx, 256				; 00000100H
	jge	SHORT $LN4@operator@3
	lea	eax, DWORD PTR _tmpbuf$56935[ebp]
	mov	DWORD PTR _pbuf$56934[ebp], eax
	jmp	SHORT $LN3@operator@3
$LN4@operator@3:

; 99   : 			else pbuf = new char[len+1];

	movzx	ecx, WORD PTR _len$56933[ebp]
	add	ecx, 1
	push	ecx
	call	??_U@YAPAXI@Z				; operator new[]
	add	esp, 4
	mov	DWORD PTR $T62512[ebp], eax
	mov	edx, DWORD PTR $T62512[ebp]
	mov	DWORD PTR _pbuf$56934[ebp], edx
$LN3@operator@3:

; 100  : 
; 101  : 			read(pbuf, len);

	movzx	eax, WORD PTR _len$56933[ebp]
	push	eax
	mov	ecx, DWORD PTR _pbuf$56934[ebp]
	push	ecx
	mov	ecx, DWORD PTR _this$[ebp]
	call	?read@Archive@Ogre@@QAEXPAXI@Z		; Ogre::Archive::read

; 102  : 			pbuf[len] = 0;

	movzx	edx, WORD PTR _len$56933[ebp]
	mov	eax, DWORD PTR _pbuf$56934[ebp]
	mov	BYTE PTR [eax+edx], 0

; 103  : 
; 104  : 			str = pbuf;

	mov	ecx, DWORD PTR _pbuf$56934[ebp]
	push	ecx
	mov	ecx, DWORD PTR _str$[ebp]
	call	??4FixedString@Ogre@@QAEAAV01@PBD@Z	; Ogre::FixedString::operator=

; 105  : 
; 106  : 			if(pbuf != tmpbuf) delete[] pbuf;

	mov	edx, DWORD PTR _pbuf$56934[ebp]
	lea	eax, DWORD PTR _tmpbuf$56935[ebp]
	cmp	edx, eax
	je	SHORT $LN2@operator@3
	mov	ecx, DWORD PTR _pbuf$56934[ebp]
	mov	DWORD PTR $T62513[ebp], ecx
	mov	edx, DWORD PTR $T62513[ebp]
	push	edx
	call	??_V@YAXPAX@Z				; operator delete[]
	add	esp, 4
$LN2@operator@3:

; 107  : 		}
; 108  : 		else

	jmp	SHORT $LN1@operator@3
$LN5@operator@3:

; 109  : 		{
; 110  : 			ushort len = (ushort)str.length();

	mov	ecx, DWORD PTR _str$[ebp]
	call	?length@FixedString@Ogre@@QBEIXZ	; Ogre::FixedString::length
	mov	WORD PTR _len$56943[ebp], ax

; 111  : 			write(&len, sizeof(len));

	push	2
	lea	eax, DWORD PTR _len$56943[ebp]
	push	eax
	mov	ecx, DWORD PTR _this$[ebp]
	call	?write@Archive@Ogre@@QAEXPBXI@Z		; Ogre::Archive::write

; 112  : 			write((const char *)str, len);

	movzx	ecx, WORD PTR _len$56943[ebp]
	push	ecx
	mov	ecx, DWORD PTR _str$[ebp]
	call	??BFixedString@Ogre@@QBEPBDXZ		; Ogre::FixedString::operator char const *
	push	eax
	mov	ecx, DWORD PTR _this$[ebp]
	call	?write@Archive@Ogre@@QAEXPBXI@Z		; Ogre::Archive::write
$LN1@operator@3:

; 113  : 		}
; 114  : 
; 115  : 		return *this;

	mov	eax, DWORD PTR _this$[ebp]

; 116  : 	}

	mov	ecx, DWORD PTR __$ArrayPad$[ebp]
	xor	ecx, ebp
	call	@__security_check_cookie@4
	mov	esp, ebp
	pop	ebp
	ret	4
??6Archive@Ogre@@QAEAAV01@AAVFixedString@1@@Z ENDP	; Ogre::Archive::operator<<
_TEXT	ENDS
PUBLIC	?resize@?$vector@V?$basic_string@DU?$char_traits@D@std@@V?$allocator@D@2@@std@@V?$allocator@V?$basic_string@DU?$char_traits@D@std@@V?$allocator@D@2@@std@@@2@@std@@QAEXIV?$basic_string@DU?$char_traits@D@std@@V?$allocator@D@2@@2@@Z ; std::vector<std::basic_string<char,std::char_traits<char>,std::allocator<char> >,std::allocator<std::basic_string<char,std::char_traits<char>,std::allocator<char> > > >::resize
;	COMDAT xdata$x
; File d:\program files (x86)\microsoft visual studio 9.0\vc\include\vector
xdata$x	SEGMENT
__unwindtable$?resize@?$vector@V?$basic_string@DU?$char_traits@D@std@@V?$allocator@D@2@@std@@V?$allocator@V?$basic_string@DU?$char_traits@D@std@@V?$allocator@D@2@@std@@@2@@std@@QAEXI@Z DD 0ffffffffH
	DD	FLAT:__unwindfunclet$?resize@?$vector@V?$basic_string@DU?$char_traits@D@std@@V?$allocator@D@2@@std@@V?$allocator@V?$basic_string@DU?$char_traits@D@std@@V?$allocator@D@2@@std@@@2@@std@@QAEXI@Z$0
__ehfuncinfo$?resize@?$vector@V?$basic_string@DU?$char_traits@D@std@@V?$allocator@D@2@@std@@V?$allocator@V?$basic_string@DU?$char_traits@D@std@@V?$allocator@D@2@@std@@@2@@std@@QAEXI@Z DD 019930522H
	DD	01H
	DD	FLAT:__unwindtable$?resize@?$vector@V?$basic_string@DU?$char_traits@D@std@@V?$allocator@D@2@@std@@V?$allocator@V?$basic_string@DU?$char_traits@D@std@@V?$allocator@D@2@@std@@@2@@std@@QAEXI@Z
	DD	2 DUP(00H)
	DD	2 DUP(00H)
	DD	00H
	DD	00H
; Function compile flags: /Odtp
xdata$x	ENDS
;	COMDAT ?resize@?$vector@V?$basic_string@DU?$char_traits@D@std@@V?$allocator@D@2@@std@@V?$allocator@V?$basic_string@DU?$char_traits@D@std@@V?$allocator@D@2@@std@@@2@@std@@QAEXI@Z
_TEXT	SEGMENT
tv80 = -28						; size = 4
tv81 = -24						; size = 4
_this$ = -20						; size = 4
$T62515 = -16						; size = 4
__$EHRec$ = -12						; size = 12
__Newsize$ = 8						; size = 4
?resize@?$vector@V?$basic_string@DU?$char_traits@D@std@@V?$allocator@D@2@@std@@V?$allocator@V?$basic_string@DU?$char_traits@D@std@@V?$allocator@D@2@@std@@@2@@std@@QAEXI@Z PROC ; std::vector<std::basic_string<char,std::char_traits<char>,std::allocator<char> >,std::allocator<std::basic_string<char,std::char_traits<char>,std::allocator<char> > > >::resize, COMDAT
; _this$ = ecx

; 712  : 		{	// determine new length, padding with _Ty() elements as needed

	push	ebp
	mov	ebp, esp
	push	-1
	push	__ehhandler$?resize@?$vector@V?$basic_string@DU?$char_traits@D@std@@V?$allocator@D@2@@std@@V?$allocator@V?$basic_string@DU?$char_traits@D@std@@V?$allocator@D@2@@std@@@2@@std@@QAEXI@Z
	mov	eax, DWORD PTR fs:0
	push	eax
	sub	esp, 16					; 00000010H
	mov	eax, DWORD PTR ___security_cookie
	xor	eax, ebp
	push	eax
	lea	eax, DWORD PTR __$EHRec$[ebp]
	mov	DWORD PTR fs:0, eax
	mov	DWORD PTR _this$[ebp], ecx

; 713  : 		resize(_Newsize, _Ty());

	sub	esp, 28					; 0000001cH
	mov	ecx, esp
	mov	DWORD PTR $T62515[ebp], esp
	call	DWORD PTR __imp_??0?$basic_string@DU?$char_traits@D@std@@V?$allocator@D@2@@std@@QAE@XZ
	mov	DWORD PTR tv81[ebp], eax
	mov	eax, DWORD PTR tv81[ebp]
	mov	DWORD PTR tv80[ebp], eax
	mov	DWORD PTR __$EHRec$[ebp+8], 0
	mov	ecx, DWORD PTR __Newsize$[ebp]
	push	ecx
	mov	DWORD PTR __$EHRec$[ebp+8], -1
	mov	ecx, DWORD PTR _this$[ebp]
	call	?resize@?$vector@V?$basic_string@DU?$char_traits@D@std@@V?$allocator@D@2@@std@@V?$allocator@V?$basic_string@DU?$char_traits@D@std@@V?$allocator@D@2@@std@@@2@@std@@QAEXIV?$basic_string@DU?$char_traits@D@std@@V?$allocator@D@2@@2@@Z ; std::vector<std::basic_string<char,std::char_traits<char>,std::allocator<char> >,std::allocator<std::basic_string<char,std::char_traits<char>,std::allocator<char> > > >::resize

; 714  : 		}

	mov	ecx, DWORD PTR __$EHRec$[ebp]
	mov	DWORD PTR fs:0, ecx
	pop	ecx
	mov	esp, ebp
	pop	ebp
	ret	4
_TEXT	ENDS
;	COMDAT text$x
text$x	SEGMENT
__unwindfunclet$?resize@?$vector@V?$basic_string@DU?$char_traits@D@std@@V?$allocator@D@2@@std@@V?$allocator@V?$basic_string@DU?$char_traits@D@std@@V?$allocator@D@2@@std@@@2@@std@@QAEXI@Z$0:
	mov	ecx, DWORD PTR $T62515[ebp]
	jmp	DWORD PTR __imp_??1?$basic_string@DU?$char_traits@D@std@@V?$allocator@D@2@@std@@QAE@XZ
__ehhandler$?resize@?$vector@V?$basic_string@DU?$char_traits@D@std@@V?$allocator@D@2@@std@@V?$allocator@V?$basic_string@DU?$char_traits@D@std@@V?$allocator@D@2@@std@@@2@@std@@QAEXI@Z:
	mov	edx, DWORD PTR [esp+8]
	lea	eax, DWORD PTR [edx+12]
	mov	ecx, DWORD PTR [edx-20]
	xor	ecx, eax
	call	@__security_check_cookie@4
	mov	eax, OFFSET __ehfuncinfo$?resize@?$vector@V?$basic_string@DU?$char_traits@D@std@@V?$allocator@D@2@@std@@V?$allocator@V?$basic_string@DU?$char_traits@D@std@@V?$allocator@D@2@@std@@@2@@std@@QAEXI@Z
	jmp	___CxxFrameHandler3
text$x	ENDS
?resize@?$vector@V?$basic_string@DU?$char_traits@D@std@@V?$allocator@D@2@@std@@V?$allocator@V?$basic_string@DU?$char_traits@D@std@@V?$allocator@D@2@@std@@@2@@std@@QAEXI@Z ENDP ; std::vector<std::basic_string<char,std::char_traits<char>,std::allocator<char> >,std::allocator<std::basic_string<char,std::char_traits<char>,std::allocator<char> > > >::resize
; Function compile flags: /Odtp
;	COMDAT ?size@?$vector@V?$basic_string@DU?$char_traits@D@std@@V?$allocator@D@2@@std@@V?$allocator@V?$basic_string@DU?$char_traits@D@std@@V?$allocator@D@2@@std@@@2@@std@@QBEIXZ
_TEXT	SEGMENT
_this$ = -4						; size = 4
?size@?$vector@V?$basic_string@DU?$char_traits@D@std@@V?$allocator@D@2@@std@@V?$allocator@V?$basic_string@DU?$char_traits@D@std@@V?$allocator@D@2@@std@@@2@@std@@QBEIXZ PROC ; std::vector<std::basic_string<char,std::char_traits<char>,std::allocator<char> >,std::allocator<std::basic_string<char,std::char_traits<char>,std::allocator<char> > > >::size, COMDAT
; _this$ = ecx

; 725  : 		{	// return length of sequence

	push	ebp
	mov	ebp, esp
	push	ecx
	mov	DWORD PTR _this$[ebp], ecx

; 726  : 		return (_Mylast - _Myfirst);

	mov	eax, DWORD PTR _this$[ebp]
	mov	ecx, DWORD PTR _this$[ebp]
	mov	eax, DWORD PTR [eax+16]
	sub	eax, DWORD PTR [ecx+12]
	cdq
	mov	ecx, 28					; 0000001cH
	idiv	ecx

; 727  : 		}

	mov	esp, ebp
	pop	ebp
	ret	0
?size@?$vector@V?$basic_string@DU?$char_traits@D@std@@V?$allocator@D@2@@std@@V?$allocator@V?$basic_string@DU?$char_traits@D@std@@V?$allocator@D@2@@std@@@2@@std@@QBEIXZ ENDP ; std::vector<std::basic_string<char,std::char_traits<char>,std::allocator<char> >,std::allocator<std::basic_string<char,std::char_traits<char>,std::allocator<char> > > >::size
_TEXT	ENDS
EXTRN	__imp___invalid_parameter_noinfo:PROC
; Function compile flags: /Odtp
;	COMDAT ??A?$vector@V?$basic_string@DU?$char_traits@D@std@@V?$allocator@D@2@@std@@V?$allocator@V?$basic_string@DU?$char_traits@D@std@@V?$allocator@D@2@@std@@@2@@std@@QAEAAV?$basic_string@DU?$char_traits@D@std@@V?$allocator@D@2@@1@I@Z
_TEXT	SEGMENT
_this$ = -4						; size = 4
__Pos$ = 8						; size = 4
??A?$vector@V?$basic_string@DU?$char_traits@D@std@@V?$allocator@D@2@@std@@V?$allocator@V?$basic_string@DU?$char_traits@D@std@@V?$allocator@D@2@@std@@@2@@std@@QAEAAV?$basic_string@DU?$char_traits@D@std@@V?$allocator@D@2@@1@I@Z PROC ; std::vector<std::basic_string<char,std::char_traits<char>,std::allocator<char> >,std::allocator<std::basic_string<char,std::char_traits<char>,std::allocator<char> > > >::operator[], COMDAT
; _this$ = ecx

; 774  : 		{	// subscript mutable sequence

	push	ebp
	mov	ebp, esp
	push	ecx
	mov	DWORD PTR _this$[ebp], ecx

; 775  : 
; 776  :  #if _HAS_ITERATOR_DEBUGGING
; 777  : 		if (size() <= _Pos)
; 778  : 			{
; 779  : 			_DEBUG_ERROR("vector subscript out of range");
; 780  : 			_SCL_SECURE_OUT_OF_RANGE;
; 781  : 			}
; 782  :  #endif /* _HAS_ITERATOR_DEBUGGING */
; 783  : 		_SCL_SECURE_VALIDATE_RANGE(_Pos < size());

	mov	ecx, DWORD PTR _this$[ebp]
	call	?size@?$vector@V?$basic_string@DU?$char_traits@D@std@@V?$allocator@D@2@@std@@V?$allocator@V?$basic_string@DU?$char_traits@D@std@@V?$allocator@D@2@@std@@@2@@std@@QBEIXZ ; std::vector<std::basic_string<char,std::char_traits<char>,std::allocator<char> >,std::allocator<std::basic_string<char,std::char_traits<char>,std::allocator<char> > > >::size
	cmp	DWORD PTR __Pos$[ebp], eax
	jb	SHORT $LN1@operator@4
	call	DWORD PTR __imp___invalid_parameter_noinfo
$LN1@operator@4:

; 784  : 
; 785  : 		return (*(_Myfirst + _Pos));

	mov	eax, DWORD PTR __Pos$[ebp]
	imul	eax, 28					; 0000001cH
	mov	ecx, DWORD PTR _this$[ebp]
	add	eax, DWORD PTR [ecx+12]

; 786  : 		}

	mov	esp, ebp
	pop	ebp
	ret	4
??A?$vector@V?$basic_string@DU?$char_traits@D@std@@V?$allocator@D@2@@std@@V?$allocator@V?$basic_string@DU?$char_traits@D@std@@V?$allocator@D@2@@std@@@2@@std@@QAEAAV?$basic_string@DU?$char_traits@D@std@@V?$allocator@D@2@@1@I@Z ENDP ; std::vector<std::basic_string<char,std::char_traits<char>,std::allocator<char> >,std::allocator<std::basic_string<char,std::char_traits<char>,std::allocator<char> > > >::operator[]
_TEXT	ENDS
PUBLIC	?erase@?$vector@V?$basic_string@DU?$char_traits@D@std@@V?$allocator@D@2@@std@@V?$allocator@V?$basic_string@DU?$char_traits@D@std@@V?$allocator@D@2@@std@@@2@@std@@QAE?AV?$_Vector_iterator@V?$basic_string@DU?$char_traits@D@std@@V?$allocator@D@2@@std@@V?$allocator@V?$basic_string@DU?$char_traits@D@std@@V?$allocator@D@2@@std@@@2@@2@V?$_Vector_const_iterator@V?$basic_string@DU?$char_traits@D@std@@V?$allocator@D@2@@std@@V?$allocator@V?$basic_string@DU?$char_traits@D@std@@V?$allocator@D@2@@std@@@2@@2@0@Z ; std::vector<std::basic_string<char,std::char_traits<char>,std::allocator<char> >,std::allocator<std::basic_string<char,std::char_traits<char>,std::allocator<char> > > >::erase
PUBLIC	??H?$_Vector_iterator@V?$basic_string@DU?$char_traits@D@std@@V?$allocator@D@2@@std@@V?$allocator@V?$basic_string@DU?$char_traits@D@std@@V?$allocator@D@2@@std@@@2@@std@@QBE?AV01@H@Z ; std::_Vector_iterator<std::basic_string<char,std::char_traits<char>,std::allocator<char> >,std::allocator<std::basic_string<char,std::char_traits<char>,std::allocator<char> > > >::operator+
PUBLIC	?begin@?$vector@V?$basic_string@DU?$char_traits@D@std@@V?$allocator@D@2@@std@@V?$allocator@V?$basic_string@DU?$char_traits@D@std@@V?$allocator@D@2@@std@@@2@@std@@QAE?AV?$_Vector_iterator@V?$basic_string@DU?$char_traits@D@std@@V?$allocator@D@2@@std@@V?$allocator@V?$basic_string@DU?$char_traits@D@std@@V?$allocator@D@2@@std@@@2@@2@XZ ; std::vector<std::basic_string<char,std::char_traits<char>,std::allocator<char> >,std::allocator<std::basic_string<char,std::char_traits<char>,std::allocator<char> > > >::begin
PUBLIC	?_Insert_n@?$vector@V?$basic_string@DU?$char_traits@D@std@@V?$allocator@D@2@@std@@V?$allocator@V?$basic_string@DU?$char_traits@D@std@@V?$allocator@D@2@@std@@@2@@std@@IAEXV?$_Vector_const_iterator@V?$basic_string@DU?$char_traits@D@std@@V?$allocator@D@2@@std@@V?$allocator@V?$basic_string@DU?$char_traits@D@std@@V?$allocator@D@2@@std@@@2@@2@IABV?$basic_string@DU?$char_traits@D@std@@V?$allocator@D@2@@2@@Z ; std::vector<std::basic_string<char,std::char_traits<char>,std::allocator<char> >,std::allocator<std::basic_string<char,std::char_traits<char>,std::allocator<char> > > >::_Insert_n
PUBLIC	?end@?$vector@V?$basic_string@DU?$char_traits@D@std@@V?$allocator@D@2@@std@@V?$allocator@V?$basic_string@DU?$char_traits@D@std@@V?$allocator@D@2@@std@@@2@@std@@QAE?AV?$_Vector_iterator@V?$basic_string@DU?$char_traits@D@std@@V?$allocator@D@2@@std@@V?$allocator@V?$basic_string@DU?$char_traits@D@std@@V?$allocator@D@2@@std@@@2@@2@XZ ; std::vector<std::basic_string<char,std::char_traits<char>,std::allocator<char> >,std::allocator<std::basic_string<char,std::char_traits<char>,std::allocator<char> > > >::end
;	COMDAT xdata$x
xdata$x	SEGMENT
__unwindtable$?resize@?$vector@V?$basic_string@DU?$char_traits@D@std@@V?$allocator@D@2@@std@@V?$allocator@V?$basic_string@DU?$char_traits@D@std@@V?$allocator@D@2@@std@@@2@@std@@QAEXIV?$basic_string@DU?$char_traits@D@std@@V?$allocator@D@2@@2@@Z DD 0ffffffffH
	DD	FLAT:__unwindfunclet$?resize@?$vector@V?$basic_string@DU?$char_traits@D@std@@V?$allocator@D@2@@std@@V?$allocator@V?$basic_string@DU?$char_traits@D@std@@V?$allocator@D@2@@std@@@2@@std@@QAEXIV?$basic_string@DU?$char_traits@D@std@@V?$allocator@D@2@@2@@Z$0
__ehfuncinfo$?resize@?$vector@V?$basic_string@DU?$char_traits@D@std@@V?$allocator@D@2@@std@@V?$allocator@V?$basic_string@DU?$char_traits@D@std@@V?$allocator@D@2@@std@@@2@@std@@QAEXIV?$basic_string@DU?$char_traits@D@std@@V?$allocator@D@2@@2@@Z DD 019930522H
	DD	01H
	DD	FLAT:__unwindtable$?resize@?$vector@V?$basic_string@DU?$char_traits@D@std@@V?$allocator@D@2@@std@@V?$allocator@V?$basic_string@DU?$char_traits@D@std@@V?$allocator@D@2@@std@@@2@@std@@QAEXIV?$basic_string@DU?$char_traits@D@std@@V?$allocator@D@2@@2@@Z
	DD	2 DUP(00H)
	DD	2 DUP(00H)
	DD	00H
	DD	00H
; Function compile flags: /Odtp
xdata$x	ENDS
;	COMDAT ?resize@?$vector@V?$basic_string@DU?$char_traits@D@std@@V?$allocator@D@2@@std@@V?$allocator@V?$basic_string@DU?$char_traits@D@std@@V?$allocator@D@2@@std@@@2@@std@@QAEXIV?$basic_string@DU?$char_traits@D@std@@V?$allocator@D@2@@2@@Z
_TEXT	SEGMENT
_this$ = -84						; size = 4
$T62537 = -80						; size = 8
$T62536 = -72						; size = 8
$T62535 = -64						; size = 8
$T62534 = -56						; size = 8
$T62533 = -48						; size = 8
$T62532 = -40						; size = 8
$T62531 = -32						; size = 8
$T62530 = -24						; size = 8
__$EHRec$ = -12						; size = 12
__Newsize$ = 8						; size = 4
__Val$ = 12						; size = 28
?resize@?$vector@V?$basic_string@DU?$char_traits@D@std@@V?$allocator@D@2@@std@@V?$allocator@V?$basic_string@DU?$char_traits@D@std@@V?$allocator@D@2@@std@@@2@@std@@QAEXIV?$basic_string@DU?$char_traits@D@std@@V?$allocator@D@2@@2@@Z PROC ; std::vector<std::basic_string<char,std::char_traits<char>,std::allocator<char> >,std::allocator<std::basic_string<char,std::char_traits<char>,std::allocator<char> > > >::resize, COMDAT
; _this$ = ecx

; 717  : 		{	// determine new length, padding with _Val elements as needed

	push	ebp
	mov	ebp, esp
	push	-1
	push	__ehhandler$?resize@?$vector@V?$basic_string@DU?$char_traits@D@std@@V?$allocator@D@2@@std@@V?$allocator@V?$basic_string@DU?$char_traits@D@std@@V?$allocator@D@2@@std@@@2@@std@@QAEXIV?$basic_string@DU?$char_traits@D@std@@V?$allocator@D@2@@2@@Z
	mov	eax, DWORD PTR fs:0
	push	eax
	sub	esp, 72					; 00000048H
	mov	eax, DWORD PTR ___security_cookie
	xor	eax, ebp
	push	eax
	lea	eax, DWORD PTR __$EHRec$[ebp]
	mov	DWORD PTR fs:0, eax
	mov	DWORD PTR _this$[ebp], ecx
	mov	DWORD PTR __$EHRec$[ebp+8], 0

; 718  : 		if (size() < _Newsize)

	mov	ecx, DWORD PTR _this$[ebp]
	call	?size@?$vector@V?$basic_string@DU?$char_traits@D@std@@V?$allocator@D@2@@std@@V?$allocator@V?$basic_string@DU?$char_traits@D@std@@V?$allocator@D@2@@std@@@2@@std@@QBEIXZ ; std::vector<std::basic_string<char,std::char_traits<char>,std::allocator<char> >,std::allocator<std::basic_string<char,std::char_traits<char>,std::allocator<char> > > >::size
	cmp	eax, DWORD PTR __Newsize$[ebp]
	jae	SHORT $LN3@resize

; 719  : 			_Insert_n(end(), _Newsize - size(), _Val);

	lea	eax, DWORD PTR $T62531[ebp]
	push	eax
	mov	ecx, DWORD PTR _this$[ebp]
	call	?end@?$vector@V?$basic_string@DU?$char_traits@D@std@@V?$allocator@D@2@@std@@V?$allocator@V?$basic_string@DU?$char_traits@D@std@@V?$allocator@D@2@@std@@@2@@std@@QAE?AV?$_Vector_iterator@V?$basic_string@DU?$char_traits@D@std@@V?$allocator@D@2@@std@@V?$allocator@V?$basic_string@DU?$char_traits@D@std@@V?$allocator@D@2@@std@@@2@@2@XZ ; std::vector<std::basic_string<char,std::char_traits<char>,std::allocator<char> >,std::allocator<std::basic_string<char,std::char_traits<char>,std::allocator<char> > > >::end
	mov	ecx, DWORD PTR [eax]
	mov	edx, DWORD PTR [eax+4]
	mov	DWORD PTR $T62530[ebp], ecx
	mov	DWORD PTR $T62530[ebp+4], edx
	lea	eax, DWORD PTR __Val$[ebp]
	push	eax
	mov	ecx, DWORD PTR _this$[ebp]
	call	?size@?$vector@V?$basic_string@DU?$char_traits@D@std@@V?$allocator@D@2@@std@@V?$allocator@V?$basic_string@DU?$char_traits@D@std@@V?$allocator@D@2@@std@@@2@@std@@QBEIXZ ; std::vector<std::basic_string<char,std::char_traits<char>,std::allocator<char> >,std::allocator<std::basic_string<char,std::char_traits<char>,std::allocator<char> > > >::size
	mov	ecx, DWORD PTR __Newsize$[ebp]
	sub	ecx, eax
	push	ecx
	mov	edx, DWORD PTR $T62530[ebp+4]
	push	edx
	mov	eax, DWORD PTR $T62530[ebp]
	push	eax
	mov	ecx, DWORD PTR _this$[ebp]
	call	?_Insert_n@?$vector@V?$basic_string@DU?$char_traits@D@std@@V?$allocator@D@2@@std@@V?$allocator@V?$basic_string@DU?$char_traits@D@std@@V?$allocator@D@2@@std@@@2@@std@@IAEXV?$_Vector_const_iterator@V?$basic_string@DU?$char_traits@D@std@@V?$allocator@D@2@@std@@V?$allocator@V?$basic_string@DU?$char_traits@D@std@@V?$allocator@D@2@@std@@@2@@2@IABV?$basic_string@DU?$char_traits@D@std@@V?$allocator@D@2@@2@@Z ; std::vector<std::basic_string<char,std::char_traits<char>,std::allocator<char> >,std::allocator<std::basic_string<char,std::char_traits<char>,std::allocator<char> > > >::_Insert_n
	jmp	SHORT $LN2@resize
$LN3@resize:

; 720  : 		else if (_Newsize < size())

	mov	ecx, DWORD PTR _this$[ebp]
	call	?size@?$vector@V?$basic_string@DU?$char_traits@D@std@@V?$allocator@D@2@@std@@V?$allocator@V?$basic_string@DU?$char_traits@D@std@@V?$allocator@D@2@@std@@@2@@std@@QBEIXZ ; std::vector<std::basic_string<char,std::char_traits<char>,std::allocator<char> >,std::allocator<std::basic_string<char,std::char_traits<char>,std::allocator<char> > > >::size
	cmp	DWORD PTR __Newsize$[ebp], eax
	jae	SHORT $LN2@resize

; 721  : 			erase(begin() + _Newsize, end());

	lea	ecx, DWORD PTR $T62533[ebp]
	push	ecx
	mov	ecx, DWORD PTR _this$[ebp]
	call	?end@?$vector@V?$basic_string@DU?$char_traits@D@std@@V?$allocator@D@2@@std@@V?$allocator@V?$basic_string@DU?$char_traits@D@std@@V?$allocator@D@2@@std@@@2@@std@@QAE?AV?$_Vector_iterator@V?$basic_string@DU?$char_traits@D@std@@V?$allocator@D@2@@std@@V?$allocator@V?$basic_string@DU?$char_traits@D@std@@V?$allocator@D@2@@std@@@2@@2@XZ ; std::vector<std::basic_string<char,std::char_traits<char>,std::allocator<char> >,std::allocator<std::basic_string<char,std::char_traits<char>,std::allocator<char> > > >::end
	mov	edx, DWORD PTR [eax]
	mov	eax, DWORD PTR [eax+4]
	mov	DWORD PTR $T62532[ebp], edx
	mov	DWORD PTR $T62532[ebp+4], eax
	mov	ecx, DWORD PTR __Newsize$[ebp]
	push	ecx
	lea	edx, DWORD PTR $T62536[ebp]
	push	edx
	lea	eax, DWORD PTR $T62535[ebp]
	push	eax
	mov	ecx, DWORD PTR _this$[ebp]
	call	?begin@?$vector@V?$basic_string@DU?$char_traits@D@std@@V?$allocator@D@2@@std@@V?$allocator@V?$basic_string@DU?$char_traits@D@std@@V?$allocator@D@2@@std@@@2@@std@@QAE?AV?$_Vector_iterator@V?$basic_string@DU?$char_traits@D@std@@V?$allocator@D@2@@std@@V?$allocator@V?$basic_string@DU?$char_traits@D@std@@V?$allocator@D@2@@std@@@2@@2@XZ ; std::vector<std::basic_string<char,std::char_traits<char>,std::allocator<char> >,std::allocator<std::basic_string<char,std::char_traits<char>,std::allocator<char> > > >::begin
	mov	ecx, eax
	call	??H?$_Vector_iterator@V?$basic_string@DU?$char_traits@D@std@@V?$allocator@D@2@@std@@V?$allocator@V?$basic_string@DU?$char_traits@D@std@@V?$allocator@D@2@@std@@@2@@std@@QBE?AV01@H@Z ; std::_Vector_iterator<std::basic_string<char,std::char_traits<char>,std::allocator<char> >,std::allocator<std::basic_string<char,std::char_traits<char>,std::allocator<char> > > >::operator+
	mov	ecx, DWORD PTR [eax]
	mov	edx, DWORD PTR [eax+4]
	mov	DWORD PTR $T62534[ebp], ecx
	mov	DWORD PTR $T62534[ebp+4], edx
	mov	eax, DWORD PTR $T62532[ebp+4]
	push	eax
	mov	ecx, DWORD PTR $T62532[ebp]
	push	ecx
	mov	edx, DWORD PTR $T62534[ebp+4]
	push	edx
	mov	eax, DWORD PTR $T62534[ebp]
	push	eax
	lea	ecx, DWORD PTR $T62537[ebp]
	push	ecx
	mov	ecx, DWORD PTR _this$[ebp]
	call	?erase@?$vector@V?$basic_string@DU?$char_traits@D@std@@V?$allocator@D@2@@std@@V?$allocator@V?$basic_string@DU?$char_traits@D@std@@V?$allocator@D@2@@std@@@2@@std@@QAE?AV?$_Vector_iterator@V?$basic_string@DU?$char_traits@D@std@@V?$allocator@D@2@@std@@V?$allocator@V?$basic_string@DU?$char_traits@D@std@@V?$allocator@D@2@@std@@@2@@2@V?$_Vector_const_iterator@V?$basic_string@DU?$char_traits@D@std@@V?$allocator@D@2@@std@@V?$allocator@V?$basic_string@DU?$char_traits@D@std@@V?$allocator@D@2@@std@@@2@@2@0@Z ; std::vector<std::basic_string<char,std::char_traits<char>,std::allocator<char> >,std::allocator<std::basic_string<char,std::char_traits<char>,std::allocator<char> > > >::erase
$LN2@resize:

; 722  : 		}

	mov	DWORD PTR __$EHRec$[ebp+8], -1
	lea	ecx, DWORD PTR __Val$[ebp]
	call	DWORD PTR __imp_??1?$basic_string@DU?$char_traits@D@std@@V?$allocator@D@2@@std@@QAE@XZ
	mov	ecx, DWORD PTR __$EHRec$[ebp]
	mov	DWORD PTR fs:0, ecx
	pop	ecx
	mov	esp, ebp
	pop	ebp
	ret	32					; 00000020H
_TEXT	ENDS
;	COMDAT text$x
text$x	SEGMENT
__unwindfunclet$?resize@?$vector@V?$basic_string@DU?$char_traits@D@std@@V?$allocator@D@2@@std@@V?$allocator@V?$basic_string@DU?$char_traits@D@std@@V?$allocator@D@2@@std@@@2@@std@@QAEXIV?$basic_string@DU?$char_traits@D@std@@V?$allocator@D@2@@2@@Z$0:
	lea	ecx, DWORD PTR __Val$[ebp]
	jmp	DWORD PTR __imp_??1?$basic_string@DU?$char_traits@D@std@@V?$allocator@D@2@@std@@QAE@XZ
__ehhandler$?resize@?$vector@V?$basic_string@DU?$char_traits@D@std@@V?$allocator@D@2@@std@@V?$allocator@V?$basic_string@DU?$char_traits@D@std@@V?$allocator@D@2@@std@@@2@@std@@QAEXIV?$basic_string@DU?$char_traits@D@std@@V?$allocator@D@2@@2@@Z:
	mov	edx, DWORD PTR [esp+8]
	lea	eax, DWORD PTR [edx+12]
	mov	ecx, DWORD PTR [edx-76]
	xor	ecx, eax
	call	@__security_check_cookie@4
	mov	eax, OFFSET __ehfuncinfo$?resize@?$vector@V?$basic_string@DU?$char_traits@D@std@@V?$allocator@D@2@@std@@V?$allocator@V?$basic_string@DU?$char_traits@D@std@@V?$allocator@D@2@@std@@@2@@std@@QAEXIV?$basic_string@DU?$char_traits@D@std@@V?$allocator@D@2@@2@@Z
	jmp	___CxxFrameHandler3
text$x	ENDS
?resize@?$vector@V?$basic_string@DU?$char_traits@D@std@@V?$allocator@D@2@@std@@V?$allocator@V?$basic_string@DU?$char_traits@D@std@@V?$allocator@D@2@@std@@@2@@std@@QAEXIV?$basic_string@DU?$char_traits@D@std@@V?$allocator@D@2@@2@@Z ENDP ; std::vector<std::basic_string<char,std::char_traits<char>,std::allocator<char> >,std::allocator<std::basic_string<char,std::char_traits<char>,std::allocator<char> > > >::resize
PUBLIC	??0?$_Vector_iterator@V?$basic_string@DU?$char_traits@D@std@@V?$allocator@D@2@@std@@V?$allocator@V?$basic_string@DU?$char_traits@D@std@@V?$allocator@D@2@@std@@@2@@std@@QAE@PAV?$basic_string@DU?$char_traits@D@std@@V?$allocator@D@2@@1@PBV_Container_base_aux@1@@Z ; std::_Vector_iterator<std::basic_string<char,std::char_traits<char>,std::allocator<char> >,std::allocator<std::basic_string<char,std::char_traits<char>,std::allocator<char> > > >::_Vector_iterator<std::basic_string<char,std::char_traits<char>,std::allocator<char> >,std::allocator<std::basic_string<char,std::char_traits<char>,std::allocator<char> > > >
; Function compile flags: /Odtp
;	COMDAT ?begin@?$vector@V?$basic_string@DU?$char_traits@D@std@@V?$allocator@D@2@@std@@V?$allocator@V?$basic_string@DU?$char_traits@D@std@@V?$allocator@D@2@@std@@@2@@std@@QAE?AV?$_Vector_iterator@V?$basic_string@DU?$char_traits@D@std@@V?$allocator@D@2@@std@@V?$allocator@V?$basic_string@DU?$char_traits@D@std@@V?$allocator@D@2@@std@@@2@@2@XZ
_TEXT	SEGMENT
_this$ = -4						; size = 4
___$ReturnUdt$ = 8					; size = 4
?begin@?$vector@V?$basic_string@DU?$char_traits@D@std@@V?$allocator@D@2@@std@@V?$allocator@V?$basic_string@DU?$char_traits@D@std@@V?$allocator@D@2@@std@@@2@@std@@QAE?AV?$_Vector_iterator@V?$basic_string@DU?$char_traits@D@std@@V?$allocator@D@2@@std@@V?$allocator@V?$basic_string@DU?$char_traits@D@std@@V?$allocator@D@2@@std@@@2@@2@XZ PROC ; std::vector<std::basic_string<char,std::char_traits<char>,std::allocator<char> >,std::allocator<std::basic_string<char,std::char_traits<char>,std::allocator<char> > > >::begin, COMDAT
; _this$ = ecx

; 640  : 		{	// return iterator for beginning of mutable sequence

	push	ebp
	mov	ebp, esp
	push	ecx
	mov	DWORD PTR _this$[ebp], ecx

; 641  : 		return (iterator(_Myfirst, this));

	mov	eax, DWORD PTR _this$[ebp]
	push	eax
	mov	ecx, DWORD PTR _this$[ebp]
	mov	edx, DWORD PTR [ecx+12]
	push	edx
	mov	ecx, DWORD PTR ___$ReturnUdt$[ebp]
	call	??0?$_Vector_iterator@V?$basic_string@DU?$char_traits@D@std@@V?$allocator@D@2@@std@@V?$allocator@V?$basic_string@DU?$char_traits@D@std@@V?$allocator@D@2@@std@@@2@@std@@QAE@PAV?$basic_string@DU?$char_traits@D@std@@V?$allocator@D@2@@1@PBV_Container_base_aux@1@@Z ; std::_Vector_iterator<std::basic_string<char,std::char_traits<char>,std::allocator<char> >,std::allocator<std::basic_string<char,std::char_traits<char>,std::allocator<char> > > >::_Vector_iterator<std::basic_string<char,std::char_traits<char>,std::allocator<char> >,std::allocator<std::basic_string<char,std::char_traits<char>,std::allocator<char> > > >
	mov	eax, DWORD PTR ___$ReturnUdt$[ebp]

; 642  : 		}

	mov	esp, ebp
	pop	ebp
	ret	4
?begin@?$vector@V?$basic_string@DU?$char_traits@D@std@@V?$allocator@D@2@@std@@V?$allocator@V?$basic_string@DU?$char_traits@D@std@@V?$allocator@D@2@@std@@@2@@std@@QAE?AV?$_Vector_iterator@V?$basic_string@DU?$char_traits@D@std@@V?$allocator@D@2@@std@@V?$allocator@V?$basic_string@DU?$char_traits@D@std@@V?$allocator@D@2@@std@@@2@@2@XZ ENDP ; std::vector<std::basic_string<char,std::char_traits<char>,std::allocator<char> >,std::allocator<std::basic_string<char,std::char_traits<char>,std::allocator<char> > > >::begin
; Function compile flags: /Odtp
_TEXT	ENDS
;	COMDAT ?end@?$vector@V?$basic_string@DU?$char_traits@D@std@@V?$allocator@D@2@@std@@V?$allocator@V?$basic_string@DU?$char_traits@D@std@@V?$allocator@D@2@@std@@@2@@std@@QAE?AV?$_Vector_iterator@V?$basic_string@DU?$char_traits@D@std@@V?$allocator@D@2@@std@@V?$allocator@V?$basic_string@DU?$char_traits@D@std@@V?$allocator@D@2@@std@@@2@@2@XZ
_TEXT	SEGMENT
_this$ = -4						; size = 4
___$ReturnUdt$ = 8					; size = 4
?end@?$vector@V?$basic_string@DU?$char_traits@D@std@@V?$allocator@D@2@@std@@V?$allocator@V?$basic_string@DU?$char_traits@D@std@@V?$allocator@D@2@@std@@@2@@std@@QAE?AV?$_Vector_iterator@V?$basic_string@DU?$char_traits@D@std@@V?$allocator@D@2@@std@@V?$allocator@V?$basic_string@DU?$char_traits@D@std@@V?$allocator@D@2@@std@@@2@@2@XZ PROC ; std::vector<std::basic_string<char,std::char_traits<char>,std::allocator<char> >,std::allocator<std::basic_string<char,std::char_traits<char>,std::allocator<char> > > >::end, COMDAT
; _this$ = ecx

; 650  : 		{	// return iterator for end of mutable sequence

	push	ebp
	mov	ebp, esp
	push	ecx
	mov	DWORD PTR _this$[ebp], ecx

; 651  : 		return (iterator(_Mylast, this));

	mov	eax, DWORD PTR _this$[ebp]
	push	eax
	mov	ecx, DWORD PTR _this$[ebp]
	mov	edx, DWORD PTR [ecx+16]
	push	edx
	mov	ecx, DWORD PTR ___$ReturnUdt$[ebp]
	call	??0?$_Vector_iterator@V?$basic_string@DU?$char_traits@D@std@@V?$allocator@D@2@@std@@V?$allocator@V?$basic_string@DU?$char_traits@D@std@@V?$allocator@D@2@@std@@@2@@std@@QAE@PAV?$basic_string@DU?$char_traits@D@std@@V?$allocator@D@2@@1@PBV_Container_base_aux@1@@Z ; std::_Vector_iterator<std::basic_string<char,std::char_traits<char>,std::allocator<char> >,std::allocator<std::basic_string<char,std::char_traits<char>,std::allocator<char> > > >::_Vector_iterator<std::basic_string<char,std::char_traits<char>,std::allocator<char> >,std::allocator<std::basic_string<char,std::char_traits<char>,std::allocator<char> > > >
	mov	eax, DWORD PTR ___$ReturnUdt$[ebp]

; 652  : 		}

	mov	esp, ebp
	pop	ebp
	ret	4
?end@?$vector@V?$basic_string@DU?$char_traits@D@std@@V?$allocator@D@2@@std@@V?$allocator@V?$basic_string@DU?$char_traits@D@std@@V?$allocator@D@2@@std@@@2@@std@@QAE?AV?$_Vector_iterator@V?$basic_string@DU?$char_traits@D@std@@V?$allocator@D@2@@std@@V?$allocator@V?$basic_string@DU?$char_traits@D@std@@V?$allocator@D@2@@std@@@2@@2@XZ ENDP ; std::vector<std::basic_string<char,std::char_traits<char>,std::allocator<char> >,std::allocator<std::basic_string<char,std::char_traits<char>,std::allocator<char> > > >::end
_TEXT	ENDS
PUBLIC	?_Destroy@?$vector@V?$basic_string@DU?$char_traits@D@std@@V?$allocator@D@2@@std@@V?$allocator@V?$basic_string@DU?$char_traits@D@std@@V?$allocator@D@2@@std@@@2@@std@@IAEXPAV?$basic_string@DU?$char_traits@D@std@@V?$allocator@D@2@@2@0@Z ; std::vector<std::basic_string<char,std::char_traits<char>,std::allocator<char> >,std::allocator<std::basic_string<char,std::char_traits<char>,std::allocator<char> > > >::_Destroy
PUBLIC	??$unchecked_copy@PAV?$basic_string@DU?$char_traits@D@std@@V?$allocator@D@2@@std@@PAV12@@stdext@@YAPAV?$basic_string@DU?$char_traits@D@std@@V?$allocator@D@2@@std@@PAV12@00@Z ; stdext::unchecked_copy<std::basic_string<char,std::char_traits<char>,std::allocator<char> > *,std::basic_string<char,std::char_traits<char>,std::allocator<char> > *>
PUBLIC	??9?$_Vector_const_iterator@V?$basic_string@DU?$char_traits@D@std@@V?$allocator@D@2@@std@@V?$allocator@V?$basic_string@DU?$char_traits@D@std@@V?$allocator@D@2@@std@@@2@@std@@QBE_NABV01@@Z ; std::_Vector_const_iterator<std::basic_string<char,std::char_traits<char>,std::allocator<char> >,std::allocator<std::basic_string<char,std::char_traits<char>,std::allocator<char> > > >::operator!=
PUBLIC	?_Make_iter@?$vector@V?$basic_string@DU?$char_traits@D@std@@V?$allocator@D@2@@std@@V?$allocator@V?$basic_string@DU?$char_traits@D@std@@V?$allocator@D@2@@std@@@2@@std@@QBE?AV?$_Vector_iterator@V?$basic_string@DU?$char_traits@D@std@@V?$allocator@D@2@@std@@V?$allocator@V?$basic_string@DU?$char_traits@D@std@@V?$allocator@D@2@@std@@@2@@2@V?$_Vector_const_iterator@V?$basic_string@DU?$char_traits@D@std@@V?$allocator@D@2@@std@@V?$allocator@V?$basic_string@DU?$char_traits@D@std@@V?$allocator@D@2@@std@@@2@@2@@Z ; std::vector<std::basic_string<char,std::char_traits<char>,std::allocator<char> >,std::allocator<std::basic_string<char,std::char_traits<char>,std::allocator<char> > > >::_Make_iter
; Function compile flags: /Odtp
;	COMDAT ?erase@?$vector@V?$basic_string@DU?$char_traits@D@std@@V?$allocator@D@2@@std@@V?$allocator@V?$basic_string@DU?$char_traits@D@std@@V?$allocator@D@2@@std@@@2@@std@@QAE?AV?$_Vector_iterator@V?$basic_string@DU?$char_traits@D@std@@V?$allocator@D@2@@std@@V?$allocator@V?$basic_string@DU?$char_traits@D@std@@V?$allocator@D@2@@std@@@2@@2@V?$_Vector_const_iterator@V?$basic_string@DU?$char_traits@D@std@@V?$allocator@D@2@@std@@V?$allocator@V?$basic_string@DU?$char_traits@D@std@@V?$allocator@D@2@@std@@@2@@2@0@Z
_TEXT	SEGMENT
_this$ = -24						; size = 4
__Ptr$59603 = -20					; size = 4
__Last$ = -16						; size = 8
__First$ = -8						; size = 8
___$ReturnUdt$ = 8					; size = 4
__First_arg$ = 12					; size = 8
__Last_arg$ = 20					; size = 8
?erase@?$vector@V?$basic_string@DU?$char_traits@D@std@@V?$allocator@D@2@@std@@V?$allocator@V?$basic_string@DU?$char_traits@D@std@@V?$allocator@D@2@@std@@@2@@std@@QAE?AV?$_Vector_iterator@V?$basic_string@DU?$char_traits@D@std@@V?$allocator@D@2@@std@@V?$allocator@V?$basic_string@DU?$char_traits@D@std@@V?$allocator@D@2@@std@@@2@@2@V?$_Vector_const_iterator@V?$basic_string@DU?$char_traits@D@std@@V?$allocator@D@2@@std@@V?$allocator@V?$basic_string@DU?$char_traits@D@std@@V?$allocator@D@2@@std@@@2@@2@0@Z PROC ; std::vector<std::basic_string<char,std::char_traits<char>,std::allocator<char> >,std::allocator<std::basic_string<char,std::char_traits<char>,std::allocator<char> > > >::erase, COMDAT
; _this$ = ecx

; 1028 : 		{	// erase [_First, _Last)

	push	ebp
	mov	ebp, esp
	sub	esp, 24					; 00000018H
	mov	DWORD PTR _this$[ebp], ecx

; 1029 : 		iterator _First = _Make_iter(_First_arg);

	mov	eax, DWORD PTR __First_arg$[ebp+4]
	push	eax
	mov	ecx, DWORD PTR __First_arg$[ebp]
	push	ecx
	lea	edx, DWORD PTR __First$[ebp]
	push	edx
	mov	ecx, DWORD PTR _this$[ebp]
	call	?_Make_iter@?$vector@V?$basic_string@DU?$char_traits@D@std@@V?$allocator@D@2@@std@@V?$allocator@V?$basic_string@DU?$char_traits@D@std@@V?$allocator@D@2@@std@@@2@@std@@QBE?AV?$_Vector_iterator@V?$basic_string@DU?$char_traits@D@std@@V?$allocator@D@2@@std@@V?$allocator@V?$basic_string@DU?$char_traits@D@std@@V?$allocator@D@2@@std@@@2@@2@V?$_Vector_const_iterator@V?$basic_string@DU?$char_traits@D@std@@V?$allocator@D@2@@std@@V?$allocator@V?$basic_string@DU?$char_traits@D@std@@V?$allocator@D@2@@std@@@2@@2@@Z ; std::vector<std::basic_string<char,std::char_traits<char>,std::allocator<char> >,std::allocator<std::basic_string<char,std::char_traits<char>,std::allocator<char> > > >::_Make_iter

; 1030 : 		iterator _Last = _Make_iter(_Last_arg);

	mov	eax, DWORD PTR __Last_arg$[ebp+4]
	push	eax
	mov	ecx, DWORD PTR __Last_arg$[ebp]
	push	ecx
	lea	edx, DWORD PTR __Last$[ebp]
	push	edx
	mov	ecx, DWORD PTR _this$[ebp]
	call	?_Make_iter@?$vector@V?$basic_string@DU?$char_traits@D@std@@V?$allocator@D@2@@std@@V?$allocator@V?$basic_string@DU?$char_traits@D@std@@V?$allocator@D@2@@std@@@2@@std@@QBE?AV?$_Vector_iterator@V?$basic_string@DU?$char_traits@D@std@@V?$allocator@D@2@@std@@V?$allocator@V?$basic_string@DU?$char_traits@D@std@@V?$allocator@D@2@@std@@@2@@2@V?$_Vector_const_iterator@V?$basic_string@DU?$char_traits@D@std@@V?$allocator@D@2@@std@@V?$allocator@V?$basic_string@DU?$char_traits@D@std@@V?$allocator@D@2@@std@@@2@@2@@Z ; std::vector<std::basic_string<char,std::char_traits<char>,std::allocator<char> >,std::allocator<std::basic_string<char,std::char_traits<char>,std::allocator<char> > > >::_Make_iter

; 1031 : 
; 1032 : 		if (_First != _Last)

	lea	eax, DWORD PTR __Last$[ebp]
	push	eax
	lea	ecx, DWORD PTR __First$[ebp]
	call	??9?$_Vector_const_iterator@V?$basic_string@DU?$char_traits@D@std@@V?$allocator@D@2@@std@@V?$allocator@V?$basic_string@DU?$char_traits@D@std@@V?$allocator@D@2@@std@@@2@@std@@QBE_NABV01@@Z ; std::_Vector_const_iterator<std::basic_string<char,std::char_traits<char>,std::allocator<char> >,std::allocator<std::basic_string<char,std::char_traits<char>,std::allocator<char> > > >::operator!=
	movzx	ecx, al
	test	ecx, ecx
	je	SHORT $LN1@erase

; 1033 : 			{	// worth doing, copy down over hole
; 1034 : 
; 1035 :  #if _HAS_ITERATOR_DEBUGGING
; 1036 : 			if (_Last < _First || _First._Mycont != this
; 1037 : 				|| _First._Myptr < _Myfirst || _Mylast < _Last._Myptr)
; 1038 : 				_DEBUG_ERROR("vector erase iterator outside range");
; 1039 : 			pointer _Ptr = _STDEXT unchecked_copy(_VEC_ITER_BASE(_Last), _Mylast,
; 1040 : 				_VEC_ITER_BASE(_First));
; 1041 : 			_Orphan_range(_First._Myptr, _Mylast);
; 1042 : 
; 1043 :  #else /* _HAS_ITERATOR_DEBUGGING */
; 1044 : 			pointer _Ptr = _STDEXT unchecked_copy(_VEC_ITER_BASE(_Last), _Mylast,
; 1045 : 				_VEC_ITER_BASE(_First));

	mov	edx, DWORD PTR __First$[ebp+4]
	push	edx
	mov	eax, DWORD PTR _this$[ebp]
	mov	ecx, DWORD PTR [eax+16]
	push	ecx
	mov	edx, DWORD PTR __Last$[ebp+4]
	push	edx
	call	??$unchecked_copy@PAV?$basic_string@DU?$char_traits@D@std@@V?$allocator@D@2@@std@@PAV12@@stdext@@YAPAV?$basic_string@DU?$char_traits@D@std@@V?$allocator@D@2@@std@@PAV12@00@Z ; stdext::unchecked_copy<std::basic_string<char,std::char_traits<char>,std::allocator<char> > *,std::basic_string<char,std::char_traits<char>,std::allocator<char> > *>
	add	esp, 12					; 0000000cH
	mov	DWORD PTR __Ptr$59603[ebp], eax

; 1046 :  #endif /* _HAS_ITERATOR_DEBUGGING */
; 1047 : 
; 1048 : 			_Destroy(_Ptr, _Mylast);

	mov	eax, DWORD PTR _this$[ebp]
	mov	ecx, DWORD PTR [eax+16]
	push	ecx
	mov	edx, DWORD PTR __Ptr$59603[ebp]
	push	edx
	mov	ecx, DWORD PTR _this$[ebp]
	call	?_Destroy@?$vector@V?$basic_string@DU?$char_traits@D@std@@V?$allocator@D@2@@std@@V?$allocator@V?$basic_string@DU?$char_traits@D@std@@V?$allocator@D@2@@std@@@2@@std@@IAEXPAV?$basic_string@DU?$char_traits@D@std@@V?$allocator@D@2@@2@0@Z ; std::vector<std::basic_string<char,std::char_traits<char>,std::allocator<char> >,std::allocator<std::basic_string<char,std::char_traits<char>,std::allocator<char> > > >::_Destroy

; 1049 : 			_Mylast = _Ptr;

	mov	eax, DWORD PTR _this$[ebp]
	mov	ecx, DWORD PTR __Ptr$59603[ebp]
	mov	DWORD PTR [eax+16], ecx
$LN1@erase:

; 1050 : 			}
; 1051 : #if _HAS_ITERATOR_DEBUGGING
; 1052 :         return (iterator(_First._Myptr, this));
; 1053 : #else
; 1054 : 		return (_First);

	mov	edx, DWORD PTR ___$ReturnUdt$[ebp]
	mov	eax, DWORD PTR __First$[ebp]
	mov	DWORD PTR [edx], eax
	mov	ecx, DWORD PTR __First$[ebp+4]
	mov	DWORD PTR [edx+4], ecx
	mov	eax, DWORD PTR ___$ReturnUdt$[ebp]

; 1055 : #endif
; 1056 : 		}

	mov	esp, ebp
	pop	ebp
	ret	20					; 00000014H
?erase@?$vector@V?$basic_string@DU?$char_traits@D@std@@V?$allocator@D@2@@std@@V?$allocator@V?$basic_string@DU?$char_traits@D@std@@V?$allocator@D@2@@std@@@2@@std@@QAE?AV?$_Vector_iterator@V?$basic_string@DU?$char_traits@D@std@@V?$allocator@D@2@@std@@V?$allocator@V?$basic_string@DU?$char_traits@D@std@@V?$allocator@D@2@@std@@@2@@2@V?$_Vector_const_iterator@V?$basic_string@DU?$char_traits@D@std@@V?$allocator@D@2@@std@@V?$allocator@V?$basic_string@DU?$char_traits@D@std@@V?$allocator@D@2@@std@@@2@@2@0@Z ENDP ; std::vector<std::basic_string<char,std::char_traits<char>,std::allocator<char> >,std::allocator<std::basic_string<char,std::char_traits<char>,std::allocator<char> > > >::erase
_TEXT	ENDS
PUBLIC	??$_Unchecked_move_backward@PAV?$basic_string@DU?$char_traits@D@std@@V?$allocator@D@2@@std@@PAV12@@stdext@@YAPAV?$basic_string@DU?$char_traits@D@std@@V?$allocator@D@2@@std@@PAV12@00@Z ; stdext::_Unchecked_move_backward<std::basic_string<char,std::char_traits<char>,std::allocator<char> > *,std::basic_string<char,std::char_traits<char>,std::allocator<char> > *>
PUBLIC	??$fill@PAV?$basic_string@DU?$char_traits@D@std@@V?$allocator@D@2@@std@@V12@@std@@YAXPAV?$basic_string@DU?$char_traits@D@std@@V?$allocator@D@2@@0@0ABV10@@Z ; std::fill<std::basic_string<char,std::char_traits<char>,std::allocator<char> > *,std::basic_string<char,std::char_traits<char>,std::allocator<char> > >
PUBLIC	?deallocate@?$allocator@V?$basic_string@DU?$char_traits@D@std@@V?$allocator@D@2@@std@@@std@@QAEXPAV?$basic_string@DU?$char_traits@D@std@@V?$allocator@D@2@@2@I@Z ; std::allocator<std::basic_string<char,std::char_traits<char>,std::allocator<char> > >::deallocate
PUBLIC	??$_Umove@PAV?$basic_string@DU?$char_traits@D@std@@V?$allocator@D@2@@std@@@?$vector@V?$basic_string@DU?$char_traits@D@std@@V?$allocator@D@2@@std@@V?$allocator@V?$basic_string@DU?$char_traits@D@std@@V?$allocator@D@2@@std@@@2@@std@@IAEPAV?$basic_string@DU?$char_traits@D@std@@V?$allocator@D@2@@1@PAV21@00@Z ; std::vector<std::basic_string<char,std::char_traits<char>,std::allocator<char> >,std::allocator<std::basic_string<char,std::char_traits<char>,std::allocator<char> > > >::_Umove<std::basic_string<char,std::char_traits<char>,std::allocator<char> > *>
PUBLIC	?_Ufill@?$vector@V?$basic_string@DU?$char_traits@D@std@@V?$allocator@D@2@@std@@V?$allocator@V?$basic_string@DU?$char_traits@D@std@@V?$allocator@D@2@@std@@@2@@std@@IAEPAV?$basic_string@DU?$char_traits@D@std@@V?$allocator@D@2@@2@PAV32@IABV32@@Z ; std::vector<std::basic_string<char,std::char_traits<char>,std::allocator<char> >,std::allocator<std::basic_string<char,std::char_traits<char>,std::allocator<char> > > >::_Ufill
PUBLIC	?allocate@?$allocator@V?$basic_string@DU?$char_traits@D@std@@V?$allocator@D@2@@std@@@std@@QAEPAV?$basic_string@DU?$char_traits@D@std@@V?$allocator@D@2@@2@I@Z ; std::allocator<std::basic_string<char,std::char_traits<char>,std::allocator<char> > >::allocate
PUBLIC	?_Xlen@?$vector@V?$basic_string@DU?$char_traits@D@std@@V?$allocator@D@2@@std@@V?$allocator@V?$basic_string@DU?$char_traits@D@std@@V?$allocator@D@2@@std@@@2@@std@@KAXXZ ; std::vector<std::basic_string<char,std::char_traits<char>,std::allocator<char> >,std::allocator<std::basic_string<char,std::char_traits<char>,std::allocator<char> > > >::_Xlen
PUBLIC	?max_size@?$vector@V?$basic_string@DU?$char_traits@D@std@@V?$allocator@D@2@@std@@V?$allocator@V?$basic_string@DU?$char_traits@D@std@@V?$allocator@D@2@@std@@@2@@std@@QBEIXZ ; std::vector<std::basic_string<char,std::char_traits<char>,std::allocator<char> >,std::allocator<std::basic_string<char,std::char_traits<char>,std::allocator<char> > > >::max_size
PUBLIC	?capacity@?$vector@V?$basic_string@DU?$char_traits@D@std@@V?$allocator@D@2@@std@@V?$allocator@V?$basic_string@DU?$char_traits@D@std@@V?$allocator@D@2@@std@@@2@@std@@QBEIXZ ; std::vector<std::basic_string<char,std::char_traits<char>,std::allocator<char> >,std::allocator<std::basic_string<char,std::char_traits<char>,std::allocator<char> > > >::capacity
PUBLIC	__$ArrayPad$
EXTRN	__CxxThrowException@8:PROC
;	COMDAT xdata$x
xdata$x	SEGMENT
__catchsym$?_Insert_n@?$vector@V?$basic_string@DU?$char_traits@D@std@@V?$allocator@D@2@@std@@V?$allocator@V?$basic_string@DU?$char_traits@D@std@@V?$allocator@D@2@@std@@@2@@std@@IAEXV?$_Vector_const_iterator@V?$basic_string@DU?$char_traits@D@std@@V?$allocator@D@2@@std@@V?$allocator@V?$basic_string@DU?$char_traits@D@std@@V?$allocator@D@2@@std@@@2@@2@IABV?$basic_string@DU?$char_traits@D@std@@V?$allocator@D@2@@2@@Z$7 DD 00H
	DD	00H
	DD	00H
	DD	FLAT:__catch$?_Insert_n@?$vector@V?$basic_string@DU?$char_traits@D@std@@V?$allocator@D@2@@std@@V?$allocator@V?$basic_string@DU?$char_traits@D@std@@V?$allocator@D@2@@std@@@2@@std@@IAEXV?$_Vector_const_iterator@V?$basic_string@DU?$char_traits@D@std@@V?$allocator@D@2@@std@@V?$allocator@V?$basic_string@DU?$char_traits@D@std@@V?$allocator@D@2@@std@@@2@@2@IABV?$basic_string@DU?$char_traits@D@std@@V?$allocator@D@2@@2@@Z$2
__catchsym$?_Insert_n@?$vector@V?$basic_string@DU?$char_traits@D@std@@V?$allocator@D@2@@std@@V?$allocator@V?$basic_string@DU?$char_traits@D@std@@V?$allocator@D@2@@std@@@2@@std@@IAEXV?$_Vector_const_iterator@V?$basic_string@DU?$char_traits@D@std@@V?$allocator@D@2@@std@@V?$allocator@V?$basic_string@DU?$char_traits@D@std@@V?$allocator@D@2@@std@@@2@@2@IABV?$basic_string@DU?$char_traits@D@std@@V?$allocator@D@2@@2@@Z$6 DD 00H
	DD	00H
	DD	00H
	DD	FLAT:__catch$?_Insert_n@?$vector@V?$basic_string@DU?$char_traits@D@std@@V?$allocator@D@2@@std@@V?$allocator@V?$basic_string@DU?$char_traits@D@std@@V?$allocator@D@2@@std@@@2@@std@@IAEXV?$_Vector_const_iterator@V?$basic_string@DU?$char_traits@D@std@@V?$allocator@D@2@@std@@V?$allocator@V?$basic_string@DU?$char_traits@D@std@@V?$allocator@D@2@@std@@@2@@2@IABV?$basic_string@DU?$char_traits@D@std@@V?$allocator@D@2@@2@@Z$0
__ehfuncinfo$?_Insert_n@?$vector@V?$basic_string@DU?$char_traits@D@std@@V?$allocator@D@2@@std@@V?$allocator@V?$basic_string@DU?$char_traits@D@std@@V?$allocator@D@2@@std@@@2@@std@@IAEXV?$_Vector_const_iterator@V?$basic_string@DU?$char_traits@D@std@@V?$allocator@D@2@@std@@V?$allocator@V?$basic_string@DU?$char_traits@D@std@@V?$allocator@D@2@@std@@@2@@2@IABV?$basic_string@DU?$char_traits@D@std@@V?$allocator@D@2@@2@@Z DD 019930522H
	DD	06H
	DD	FLAT:__unwindtable$?_Insert_n@?$vector@V?$basic_string@DU?$char_traits@D@std@@V?$allocator@D@2@@std@@V?$allocator@V?$basic_string@DU?$char_traits@D@std@@V?$allocator@D@2@@std@@@2@@std@@IAEXV?$_Vector_const_iterator@V?$basic_string@DU?$char_traits@D@std@@V?$allocator@D@2@@std@@V?$allocator@V?$basic_string@DU?$char_traits@D@std@@V?$allocator@D@2@@std@@@2@@2@IABV?$basic_string@DU?$char_traits@D@std@@V?$allocator@D@2@@2@@Z
	DD	02H
	DD	FLAT:__tryblocktable$?_Insert_n@?$vector@V?$basic_string@DU?$char_traits@D@std@@V?$allocator@D@2@@std@@V?$allocator@V?$basic_string@DU?$char_traits@D@std@@V?$allocator@D@2@@std@@@2@@std@@IAEXV?$_Vector_const_iterator@V?$basic_string@DU?$char_traits@D@std@@V?$allocator@D@2@@std@@V?$allocator@V?$basic_string@DU?$char_traits@D@std@@V?$allocator@D@2@@std@@@2@@2@IABV?$basic_string@DU?$char_traits@D@std@@V?$allocator@D@2@@2@@Z
	DD	2 DUP(00H)
	DD	00H
	DD	00H
__tryblocktable$?_Insert_n@?$vector@V?$basic_string@DU?$char_traits@D@std@@V?$allocator@D@2@@std@@V?$allocator@V?$basic_string@DU?$char_traits@D@std@@V?$allocator@D@2@@std@@@2@@std@@IAEXV?$_Vector_const_iterator@V?$basic_string@DU?$char_traits@D@std@@V?$allocator@D@2@@std@@V?$allocator@V?$basic_string@DU?$char_traits@D@std@@V?$allocator@D@2@@std@@@2@@2@IABV?$basic_string@DU?$char_traits@D@std@@V?$allocator@D@2@@2@@Z DD 00H
	DD	00H
	DD	01H
	DD	01H
	DD	FLAT:__catchsym$?_Insert_n@?$vector@V?$basic_string@DU?$char_traits@D@std@@V?$allocator@D@2@@std@@V?$allocator@V?$basic_string@DU?$char_traits@D@std@@V?$allocator@D@2@@std@@@2@@std@@IAEXV?$_Vector_const_iterator@V?$basic_string@DU?$char_traits@D@std@@V?$allocator@D@2@@std@@V?$allocator@V?$basic_string@DU?$char_traits@D@std@@V?$allocator@D@2@@std@@@2@@2@IABV?$basic_string@DU?$char_traits@D@std@@V?$allocator@D@2@@2@@Z$6
	DD	03H
	DD	03H
	DD	04H
	DD	01H
	DD	FLAT:__catchsym$?_Insert_n@?$vector@V?$basic_string@DU?$char_traits@D@std@@V?$allocator@D@2@@std@@V?$allocator@V?$basic_string@DU?$char_traits@D@std@@V?$allocator@D@2@@std@@@2@@std@@IAEXV?$_Vector_const_iterator@V?$basic_string@DU?$char_traits@D@std@@V?$allocator@D@2@@std@@V?$allocator@V?$basic_string@DU?$char_traits@D@std@@V?$allocator@D@2@@std@@@2@@2@IABV?$basic_string@DU?$char_traits@D@std@@V?$allocator@D@2@@2@@Z$7
__unwindtable$?_Insert_n@?$vector@V?$basic_string@DU?$char_traits@D@std@@V?$allocator@D@2@@std@@V?$allocator@V?$basic_string@DU?$char_traits@D@std@@V?$allocator@D@2@@std@@@2@@std@@IAEXV?$_Vector_const_iterator@V?$basic_string@DU?$char_traits@D@std@@V?$allocator@D@2@@std@@V?$allocator@V?$basic_string@DU?$char_traits@D@std@@V?$allocator@D@2@@std@@@2@@2@IABV?$basic_string@DU?$char_traits@D@std@@V?$allocator@D@2@@2@@Z DD 0ffffffffH
	DD	00H
	DD	0ffffffffH
	DD	00H
	DD	0ffffffffH
	DD	FLAT:__unwindfunclet$?_Insert_n@?$vector@V?$basic_string@DU?$char_traits@D@std@@V?$allocator@D@2@@std@@V?$allocator@V?$basic_string@DU?$char_traits@D@std@@V?$allocator@D@2@@std@@@2@@std@@IAEXV?$_Vector_const_iterator@V?$basic_string@DU?$char_traits@D@std@@V?$allocator@D@2@@std@@V?$allocator@V?$basic_string@DU?$char_traits@D@std@@V?$allocator@D@2@@std@@@2@@2@IABV?$basic_string@DU?$char_traits@D@std@@V?$allocator@D@2@@2@@Z$4
	DD	02H
	DD	00H
	DD	02H
	DD	00H
	DD	0ffffffffH
	DD	FLAT:__unwindfunclet$?_Insert_n@?$vector@V?$basic_string@DU?$char_traits@D@std@@V?$allocator@D@2@@std@@V?$allocator@V?$basic_string@DU?$char_traits@D@std@@V?$allocator@D@2@@std@@@2@@std@@IAEXV?$_Vector_const_iterator@V?$basic_string@DU?$char_traits@D@std@@V?$allocator@D@2@@std@@V?$allocator@V?$basic_string@DU?$char_traits@D@std@@V?$allocator@D@2@@std@@@2@@2@IABV?$basic_string@DU?$char_traits@D@std@@V?$allocator@D@2@@2@@Z$5
; Function compile flags: /Odtp
xdata$x	ENDS
;	COMDAT ?_Insert_n@?$vector@V?$basic_string@DU?$char_traits@D@std@@V?$allocator@D@2@@std@@V?$allocator@V?$basic_string@DU?$char_traits@D@std@@V?$allocator@D@2@@std@@@2@@std@@IAEXV?$_Vector_const_iterator@V?$basic_string@DU?$char_traits@D@std@@V?$allocator@D@2@@std@@V?$allocator@V?$basic_string@DU?$char_traits@D@std@@V?$allocator@D@2@@std@@@2@@2@IABV?$basic_string@DU?$char_traits@D@std@@V?$allocator@D@2@@2@@Z
_TEXT	SEGMENT
tv84 = -104						; size = 4
_this$ = -100						; size = 4
__Tmp$59645 = -96					; size = 28
__Oldend$59646 = -68					; size = 4
__Tmp$59635 = -64					; size = 28
__$ArrayPad$ = -36					; size = 4
__Ncopied$59622 = -32					; size = 4
__Newvec$59620 = -28					; size = 4
__Whereoff$59621 = -24					; size = 4
__Capacity$ = -20					; size = 4
__$EHRec$ = -16						; size = 16
__Where$ = 8						; size = 8
__Count$ = 16						; size = 4
__Val$ = 20						; size = 4
?_Insert_n@?$vector@V?$basic_string@DU?$char_traits@D@std@@V?$allocator@D@2@@std@@V?$allocator@V?$basic_string@DU?$char_traits@D@std@@V?$allocator@D@2@@std@@@2@@std@@IAEXV?$_Vector_const_iterator@V?$basic_string@DU?$char_traits@D@std@@V?$allocator@D@2@@std@@V?$allocator@V?$basic_string@DU?$char_traits@D@std@@V?$allocator@D@2@@std@@@2@@2@IABV?$basic_string@DU?$char_traits@D@std@@V?$allocator@D@2@@2@@Z PROC ; std::vector<std::basic_string<char,std::char_traits<char>,std::allocator<char> >,std::allocator<std::basic_string<char,std::char_traits<char>,std::allocator<char> > > >::_Insert_n, COMDAT
; _this$ = ecx

; 1153 : 		{	// insert _Count * _Val at _Where

	push	ebp
	mov	ebp, esp
	push	-1
	push	__ehhandler$?_Insert_n@?$vector@V?$basic_string@DU?$char_traits@D@std@@V?$allocator@D@2@@std@@V?$allocator@V?$basic_string@DU?$char_traits@D@std@@V?$allocator@D@2@@std@@@2@@std@@IAEXV?$_Vector_const_iterator@V?$basic_string@DU?$char_traits@D@std@@V?$allocator@D@2@@std@@V?$allocator@V?$basic_string@DU?$char_traits@D@std@@V?$allocator@D@2@@std@@@2@@2@IABV?$basic_string@DU?$char_traits@D@std@@V?$allocator@D@2@@2@@Z
	mov	eax, DWORD PTR fs:0
	push	eax
	push	ecx
	sub	esp, 88					; 00000058H
	mov	eax, DWORD PTR ___security_cookie
	xor	eax, ebp
	mov	DWORD PTR __$ArrayPad$[ebp], eax
	push	ebx
	push	esi
	push	edi
	push	eax
	lea	eax, DWORD PTR __$EHRec$[ebp+4]
	mov	DWORD PTR fs:0, eax
	mov	DWORD PTR __$EHRec$[ebp], esp
	mov	DWORD PTR _this$[ebp], ecx

; 1154 : 
; 1155 :  #if _HAS_ITERATOR_DEBUGGING
; 1156 : 		if (_Where._Mycont != this
; 1157 : 			|| _Where._Myptr < _Myfirst || _Mylast < _Where._Myptr)
; 1158 : 			_DEBUG_ERROR("vector insert iterator outside range");
; 1159 :  #endif /* _HAS_ITERATOR_DEBUGGING */
; 1160 : 
; 1161 : 		size_type _Capacity = capacity();

	mov	ecx, DWORD PTR _this$[ebp]
	call	?capacity@?$vector@V?$basic_string@DU?$char_traits@D@std@@V?$allocator@D@2@@std@@V?$allocator@V?$basic_string@DU?$char_traits@D@std@@V?$allocator@D@2@@std@@@2@@std@@QBEIXZ ; std::vector<std::basic_string<char,std::char_traits<char>,std::allocator<char> >,std::allocator<std::basic_string<char,std::char_traits<char>,std::allocator<char> > > >::capacity
	mov	DWORD PTR __Capacity$[ebp], eax

; 1162 : 
; 1163 : 		if (_Count == 0)

	cmp	DWORD PTR __Count$[ebp], 0
	jne	SHORT $LN14@Insert_n
	jmp	$LN16@Insert_n
$LN14@Insert_n:

; 1164 : 			;
; 1165 : 		else if (max_size() - size() < _Count)

	mov	ecx, DWORD PTR _this$[ebp]
	call	?max_size@?$vector@V?$basic_string@DU?$char_traits@D@std@@V?$allocator@D@2@@std@@V?$allocator@V?$basic_string@DU?$char_traits@D@std@@V?$allocator@D@2@@std@@@2@@std@@QBEIXZ ; std::vector<std::basic_string<char,std::char_traits<char>,std::allocator<char> >,std::allocator<std::basic_string<char,std::char_traits<char>,std::allocator<char> > > >::max_size
	mov	esi, eax
	mov	ecx, DWORD PTR _this$[ebp]
	call	?size@?$vector@V?$basic_string@DU?$char_traits@D@std@@V?$allocator@D@2@@std@@V?$allocator@V?$basic_string@DU?$char_traits@D@std@@V?$allocator@D@2@@std@@@2@@std@@QBEIXZ ; std::vector<std::basic_string<char,std::char_traits<char>,std::allocator<char> >,std::allocator<std::basic_string<char,std::char_traits<char>,std::allocator<char> > > >::size
	sub	esi, eax
	cmp	esi, DWORD PTR __Count$[ebp]
	jae	SHORT $LN12@Insert_n

; 1166 : 			_Xlen();	// result too long

	call	?_Xlen@?$vector@V?$basic_string@DU?$char_traits@D@std@@V?$allocator@D@2@@std@@V?$allocator@V?$basic_string@DU?$char_traits@D@std@@V?$allocator@D@2@@std@@@2@@std@@KAXXZ ; std::vector<std::basic_string<char,std::char_traits<char>,std::allocator<char> >,std::allocator<std::basic_string<char,std::char_traits<char>,std::allocator<char> > > >::_Xlen
	jmp	$LN16@Insert_n
$LN12@Insert_n:

; 1167 : 		else if (_Capacity < size() + _Count)

	mov	ecx, DWORD PTR _this$[ebp]
	call	?size@?$vector@V?$basic_string@DU?$char_traits@D@std@@V?$allocator@D@2@@std@@V?$allocator@V?$basic_string@DU?$char_traits@D@std@@V?$allocator@D@2@@std@@@2@@std@@QBEIXZ ; std::vector<std::basic_string<char,std::char_traits<char>,std::allocator<char> >,std::allocator<std::basic_string<char,std::char_traits<char>,std::allocator<char> > > >::size
	add	eax, DWORD PTR __Count$[ebp]
	cmp	DWORD PTR __Capacity$[ebp], eax
	jae	$LN10@Insert_n

; 1168 : 			{	// not enough room, reallocate
; 1169 : 			_Capacity = max_size() - _Capacity / 2 < _Capacity
; 1170 : 				? 0 : _Capacity + _Capacity / 2;	// try to grow by 50%

	mov	ecx, DWORD PTR _this$[ebp]
	call	?max_size@?$vector@V?$basic_string@DU?$char_traits@D@std@@V?$allocator@D@2@@std@@V?$allocator@V?$basic_string@DU?$char_traits@D@std@@V?$allocator@D@2@@std@@@2@@std@@QBEIXZ ; std::vector<std::basic_string<char,std::char_traits<char>,std::allocator<char> >,std::allocator<std::basic_string<char,std::char_traits<char>,std::allocator<char> > > >::max_size
	mov	ecx, DWORD PTR __Capacity$[ebp]
	shr	ecx, 1
	sub	eax, ecx
	cmp	eax, DWORD PTR __Capacity$[ebp]
	jae	SHORT $LN17@Insert_n
	mov	DWORD PTR tv84[ebp], 0
	jmp	SHORT $LN18@Insert_n
$LN17@Insert_n:
	mov	edx, DWORD PTR __Capacity$[ebp]
	shr	edx, 1
	add	edx, DWORD PTR __Capacity$[ebp]
	mov	DWORD PTR tv84[ebp], edx
$LN18@Insert_n:
	mov	eax, DWORD PTR tv84[ebp]
	mov	DWORD PTR __Capacity$[ebp], eax

; 1171 : 			if (_Capacity < size() + _Count)

	mov	ecx, DWORD PTR _this$[ebp]
	call	?size@?$vector@V?$basic_string@DU?$char_traits@D@std@@V?$allocator@D@2@@std@@V?$allocator@V?$basic_string@DU?$char_traits@D@std@@V?$allocator@D@2@@std@@@2@@std@@QBEIXZ ; std::vector<std::basic_string<char,std::char_traits<char>,std::allocator<char> >,std::allocator<std::basic_string<char,std::char_traits<char>,std::allocator<char> > > >::size
	add	eax, DWORD PTR __Count$[ebp]
	cmp	DWORD PTR __Capacity$[ebp], eax
	jae	SHORT $LN9@Insert_n

; 1172 : 				_Capacity = size() + _Count;

	mov	ecx, DWORD PTR _this$[ebp]
	call	?size@?$vector@V?$basic_string@DU?$char_traits@D@std@@V?$allocator@D@2@@std@@V?$allocator@V?$basic_string@DU?$char_traits@D@std@@V?$allocator@D@2@@std@@@2@@std@@QBEIXZ ; std::vector<std::basic_string<char,std::char_traits<char>,std::allocator<char> >,std::allocator<std::basic_string<char,std::char_traits<char>,std::allocator<char> > > >::size
	add	eax, DWORD PTR __Count$[ebp]
	mov	DWORD PTR __Capacity$[ebp], eax
$LN9@Insert_n:

; 1173 : 			pointer _Newvec = this->_Alval.allocate(_Capacity);

	mov	ecx, DWORD PTR __Capacity$[ebp]
	push	ecx
	mov	ecx, DWORD PTR _this$[ebp]
	add	ecx, 8
	call	?allocate@?$allocator@V?$basic_string@DU?$char_traits@D@std@@V?$allocator@D@2@@std@@@std@@QAEPAV?$basic_string@DU?$char_traits@D@std@@V?$allocator@D@2@@2@I@Z ; std::allocator<std::basic_string<char,std::char_traits<char>,std::allocator<char> > >::allocate
	mov	DWORD PTR __Newvec$59620[ebp], eax

; 1174 : 			size_type _Whereoff = _VEC_ITER_BASE(_Where) - _Myfirst;

	mov	edx, DWORD PTR _this$[ebp]
	mov	eax, DWORD PTR __Where$[ebp+4]
	sub	eax, DWORD PTR [edx+12]
	cdq
	mov	ecx, 28					; 0000001cH
	idiv	ecx
	mov	DWORD PTR __Whereoff$59621[ebp], eax

; 1175 : 			int _Ncopied = 0;

	mov	DWORD PTR __Ncopied$59622[ebp], 0

; 1176 : 
; 1177 : 			_TRY_BEGIN

	mov	DWORD PTR __$EHRec$[ebp+12], 0

; 1178 : 			_Ufill(_Newvec + _Whereoff, _Count, _Val);	// add new stuff

	mov	edx, DWORD PTR __Val$[ebp]
	push	edx
	mov	eax, DWORD PTR __Count$[ebp]
	push	eax
	mov	ecx, DWORD PTR __Whereoff$59621[ebp]
	imul	ecx, 28					; 0000001cH
	add	ecx, DWORD PTR __Newvec$59620[ebp]
	push	ecx
	mov	ecx, DWORD PTR _this$[ebp]
	call	?_Ufill@?$vector@V?$basic_string@DU?$char_traits@D@std@@V?$allocator@D@2@@std@@V?$allocator@V?$basic_string@DU?$char_traits@D@std@@V?$allocator@D@2@@std@@@2@@std@@IAEPAV?$basic_string@DU?$char_traits@D@std@@V?$allocator@D@2@@2@PAV32@IABV32@@Z ; std::vector<std::basic_string<char,std::char_traits<char>,std::allocator<char> >,std::allocator<std::basic_string<char,std::char_traits<char>,std::allocator<char> > > >::_Ufill

; 1179 : 			++_Ncopied;

	mov	edx, DWORD PTR __Ncopied$59622[ebp]
	add	edx, 1
	mov	DWORD PTR __Ncopied$59622[ebp], edx

; 1180 : 			_Umove(this->_Myfirst, _VEC_ITER_BASE(_Where),
; 1181 : 				_Newvec);	// move prefix

	mov	eax, DWORD PTR __Newvec$59620[ebp]
	push	eax
	mov	ecx, DWORD PTR __Where$[ebp+4]
	push	ecx
	mov	edx, DWORD PTR _this$[ebp]
	mov	eax, DWORD PTR [edx+12]
	push	eax
	mov	ecx, DWORD PTR _this$[ebp]
	call	??$_Umove@PAV?$basic_string@DU?$char_traits@D@std@@V?$allocator@D@2@@std@@@?$vector@V?$basic_string@DU?$char_traits@D@std@@V?$allocator@D@2@@std@@V?$allocator@V?$basic_string@DU?$char_traits@D@std@@V?$allocator@D@2@@std@@@2@@std@@IAEPAV?$basic_string@DU?$char_traits@D@std@@V?$allocator@D@2@@1@PAV21@00@Z ; std::vector<std::basic_string<char,std::char_traits<char>,std::allocator<char> >,std::allocator<std::basic_string<char,std::char_traits<char>,std::allocator<char> > > >::_Umove<std::basic_string<char,std::char_traits<char>,std::allocator<char> > *>

; 1182 : 			++_Ncopied;

	mov	ecx, DWORD PTR __Ncopied$59622[ebp]
	add	ecx, 1
	mov	DWORD PTR __Ncopied$59622[ebp], ecx

; 1183 : 			_Umove(_VEC_ITER_BASE(_Where), this->_Mylast,
; 1184 : 				_Newvec + (_Whereoff + _Count));	// move suffix

	mov	edx, DWORD PTR __Whereoff$59621[ebp]
	add	edx, DWORD PTR __Count$[ebp]
	imul	edx, 28					; 0000001cH
	add	edx, DWORD PTR __Newvec$59620[ebp]
	push	edx
	mov	eax, DWORD PTR _this$[ebp]
	mov	ecx, DWORD PTR [eax+16]
	push	ecx
	mov	edx, DWORD PTR __Where$[ebp+4]
	push	edx
	mov	ecx, DWORD PTR _this$[ebp]
	call	??$_Umove@PAV?$basic_string@DU?$char_traits@D@std@@V?$allocator@D@2@@std@@@?$vector@V?$basic_string@DU?$char_traits@D@std@@V?$allocator@D@2@@std@@V?$allocator@V?$basic_string@DU?$char_traits@D@std@@V?$allocator@D@2@@std@@@2@@std@@IAEPAV?$basic_string@DU?$char_traits@D@std@@V?$allocator@D@2@@1@PAV21@00@Z ; std::vector<std::basic_string<char,std::char_traits<char>,std::allocator<char> >,std::allocator<std::basic_string<char,std::char_traits<char>,std::allocator<char> > > >::_Umove<std::basic_string<char,std::char_traits<char>,std::allocator<char> > *>
	jmp	SHORT $LN19@Insert_n
__catch$?_Insert_n@?$vector@V?$basic_string@DU?$char_traits@D@std@@V?$allocator@D@2@@std@@V?$allocator@V?$basic_string@DU?$char_traits@D@std@@V?$allocator@D@2@@std@@@2@@std@@IAEXV?$_Vector_const_iterator@V?$basic_string@DU?$char_traits@D@std@@V?$allocator@D@2@@std@@V?$allocator@V?$basic_string@DU?$char_traits@D@std@@V?$allocator@D@2@@std@@@2@@2@IABV?$basic_string@DU?$char_traits@D@std@@V?$allocator@D@2@@2@@Z$0:

; 1185 : 			_CATCH_ALL
; 1186 : 			if (1 < _Ncopied)

	cmp	DWORD PTR __Ncopied$59622[ebp], 1
	jle	SHORT $LN7@Insert_n

; 1187 : 				_Destroy(_Newvec, _Newvec + _Whereoff);

	mov	eax, DWORD PTR __Whereoff$59621[ebp]
	imul	eax, 28					; 0000001cH
	add	eax, DWORD PTR __Newvec$59620[ebp]
	push	eax
	mov	ecx, DWORD PTR __Newvec$59620[ebp]
	push	ecx
	mov	ecx, DWORD PTR _this$[ebp]
	call	?_Destroy@?$vector@V?$basic_string@DU?$char_traits@D@std@@V?$allocator@D@2@@std@@V?$allocator@V?$basic_string@DU?$char_traits@D@std@@V?$allocator@D@2@@std@@@2@@std@@IAEXPAV?$basic_string@DU?$char_traits@D@std@@V?$allocator@D@2@@2@0@Z ; std::vector<std::basic_string<char,std::char_traits<char>,std::allocator<char> >,std::allocator<std::basic_string<char,std::char_traits<char>,std::allocator<char> > > >::_Destroy
$LN7@Insert_n:

; 1188 : 			if (0 < _Ncopied)

	cmp	DWORD PTR __Ncopied$59622[ebp], 0
	jle	SHORT $LN6@Insert_n

; 1189 : 				_Destroy(_Newvec + _Whereoff, _Newvec + _Whereoff + _Count);

	mov	edx, DWORD PTR __Whereoff$59621[ebp]
	imul	edx, 28					; 0000001cH
	add	edx, DWORD PTR __Newvec$59620[ebp]
	mov	eax, DWORD PTR __Count$[ebp]
	imul	eax, 28					; 0000001cH
	add	edx, eax
	push	edx
	mov	ecx, DWORD PTR __Whereoff$59621[ebp]
	imul	ecx, 28					; 0000001cH
	add	ecx, DWORD PTR __Newvec$59620[ebp]
	push	ecx
	mov	ecx, DWORD PTR _this$[ebp]
	call	?_Destroy@?$vector@V?$basic_string@DU?$char_traits@D@std@@V?$allocator@D@2@@std@@V?$allocator@V?$basic_string@DU?$char_traits@D@std@@V?$allocator@D@2@@std@@@2@@std@@IAEXPAV?$basic_string@DU?$char_traits@D@std@@V?$allocator@D@2@@2@0@Z ; std::vector<std::basic_string<char,std::char_traits<char>,std::allocator<char> >,std::allocator<std::basic_string<char,std::char_traits<char>,std::allocator<char> > > >::_Destroy
$LN6@Insert_n:

; 1190 : 			this->_Alval.deallocate(_Newvec, _Capacity);

	mov	edx, DWORD PTR __Capacity$[ebp]
	push	edx
	mov	eax, DWORD PTR __Newvec$59620[ebp]
	push	eax
	mov	ecx, DWORD PTR _this$[ebp]
	add	ecx, 8
	call	?deallocate@?$allocator@V?$basic_string@DU?$char_traits@D@std@@V?$allocator@D@2@@std@@@std@@QAEXPAV?$basic_string@DU?$char_traits@D@std@@V?$allocator@D@2@@2@I@Z ; std::allocator<std::basic_string<char,std::char_traits<char>,std::allocator<char> > >::deallocate

; 1191 : 			_RERAISE;

	push	0
	push	0
	call	__CxxThrowException@8

; 1192 : 			_CATCH_END

	mov	DWORD PTR __$EHRec$[ebp+12], -1
	mov	eax, __tryend$?_Insert_n@?$vector@V?$basic_string@DU?$char_traits@D@std@@V?$allocator@D@2@@std@@V?$allocator@V?$basic_string@DU?$char_traits@D@std@@V?$allocator@D@2@@std@@@2@@std@@IAEXV?$_Vector_const_iterator@V?$basic_string@DU?$char_traits@D@std@@V?$allocator@D@2@@std@@V?$allocator@V?$basic_string@DU?$char_traits@D@std@@V?$allocator@D@2@@std@@@2@@2@IABV?$basic_string@DU?$char_traits@D@std@@V?$allocator@D@2@@2@@Z$1
	ret	0
$LN19@Insert_n:
	mov	DWORD PTR __$EHRec$[ebp+12], -1
__tryend$?_Insert_n@?$vector@V?$basic_string@DU?$char_traits@D@std@@V?$allocator@D@2@@std@@V?$allocator@V?$basic_string@DU?$char_traits@D@std@@V?$allocator@D@2@@std@@@2@@std@@IAEXV?$_Vector_const_iterator@V?$basic_string@DU?$char_traits@D@std@@V?$allocator@D@2@@std@@V?$allocator@V?$basic_string@DU?$char_traits@D@std@@V?$allocator@D@2@@std@@@2@@2@IABV?$basic_string@DU?$char_traits@D@std@@V?$allocator@D@2@@2@@Z$1:

; 1193 : 
; 1194 : 			_Count += size();

	mov	ecx, DWORD PTR _this$[ebp]
	call	?size@?$vector@V?$basic_string@DU?$char_traits@D@std@@V?$allocator@D@2@@std@@V?$allocator@V?$basic_string@DU?$char_traits@D@std@@V?$allocator@D@2@@std@@@2@@std@@QBEIXZ ; std::vector<std::basic_string<char,std::char_traits<char>,std::allocator<char> >,std::allocator<std::basic_string<char,std::char_traits<char>,std::allocator<char> > > >::size
	add	eax, DWORD PTR __Count$[ebp]
	mov	DWORD PTR __Count$[ebp], eax

; 1195 : 			if (_Myfirst != 0)

	mov	ecx, DWORD PTR _this$[ebp]
	cmp	DWORD PTR [ecx+12], 0
	je	SHORT $LN5@Insert_n

; 1196 : 				{	// destroy and deallocate old array
; 1197 : 				_Destroy(_Myfirst, _Mylast);

	mov	edx, DWORD PTR _this$[ebp]
	mov	eax, DWORD PTR [edx+16]
	push	eax
	mov	ecx, DWORD PTR _this$[ebp]
	mov	edx, DWORD PTR [ecx+12]
	push	edx
	mov	ecx, DWORD PTR _this$[ebp]
	call	?_Destroy@?$vector@V?$basic_string@DU?$char_traits@D@std@@V?$allocator@D@2@@std@@V?$allocator@V?$basic_string@DU?$char_traits@D@std@@V?$allocator@D@2@@std@@@2@@std@@IAEXPAV?$basic_string@DU?$char_traits@D@std@@V?$allocator@D@2@@2@0@Z ; std::vector<std::basic_string<char,std::char_traits<char>,std::allocator<char> >,std::allocator<std::basic_string<char,std::char_traits<char>,std::allocator<char> > > >::_Destroy

; 1198 : 				this->_Alval.deallocate(_Myfirst, _Myend - _Myfirst);

	mov	eax, DWORD PTR _this$[ebp]
	mov	ecx, DWORD PTR _this$[ebp]
	mov	eax, DWORD PTR [eax+20]
	sub	eax, DWORD PTR [ecx+12]
	cdq
	mov	ecx, 28					; 0000001cH
	idiv	ecx
	push	eax
	mov	edx, DWORD PTR _this$[ebp]
	mov	eax, DWORD PTR [edx+12]
	push	eax
	mov	ecx, DWORD PTR _this$[ebp]
	add	ecx, 8
	call	?deallocate@?$allocator@V?$basic_string@DU?$char_traits@D@std@@V?$allocator@D@2@@std@@@std@@QAEXPAV?$basic_string@DU?$char_traits@D@std@@V?$allocator@D@2@@2@I@Z ; std::allocator<std::basic_string<char,std::char_traits<char>,std::allocator<char> > >::deallocate
$LN5@Insert_n:

; 1199 : 				}
; 1200 : 
; 1201 :  #if _HAS_ITERATOR_DEBUGGING
; 1202 : 			this->_Orphan_all();
; 1203 :  #endif /* _HAS_ITERATOR_DEBUGGING */
; 1204 : 
; 1205 : 			_Myend = _Newvec + _Capacity;

	mov	ecx, DWORD PTR __Capacity$[ebp]
	imul	ecx, 28					; 0000001cH
	add	ecx, DWORD PTR __Newvec$59620[ebp]
	mov	edx, DWORD PTR _this$[ebp]
	mov	DWORD PTR [edx+20], ecx

; 1206 : 			_Mylast = _Newvec + _Count;

	mov	eax, DWORD PTR __Count$[ebp]
	imul	eax, 28					; 0000001cH
	add	eax, DWORD PTR __Newvec$59620[ebp]
	mov	ecx, DWORD PTR _this$[ebp]
	mov	DWORD PTR [ecx+16], eax

; 1207 : 			_Myfirst = _Newvec;

	mov	edx, DWORD PTR _this$[ebp]
	mov	eax, DWORD PTR __Newvec$59620[ebp]
	mov	DWORD PTR [edx+12], eax
	jmp	$LN16@Insert_n
$LN10@Insert_n:

; 1208 : 			}
; 1209 : 		else if ((size_type)(_Mylast - _VEC_ITER_BASE(_Where)) < _Count)

	mov	ecx, DWORD PTR _this$[ebp]
	mov	eax, DWORD PTR [ecx+16]
	sub	eax, DWORD PTR __Where$[ebp+4]
	cdq
	mov	ecx, 28					; 0000001cH
	idiv	ecx
	cmp	eax, DWORD PTR __Count$[ebp]
	jae	$LN3@Insert_n

; 1210 : 			{	// new stuff spills off end
; 1211 : 			_Ty _Tmp = _Val;	// in case _Val is in sequence

	mov	edx, DWORD PTR __Val$[ebp]
	push	edx
	lea	ecx, DWORD PTR __Tmp$59635[ebp]
	call	DWORD PTR __imp_??0?$basic_string@DU?$char_traits@D@std@@V?$allocator@D@2@@std@@QAE@ABV01@@Z
	mov	DWORD PTR __$EHRec$[ebp+12], 2

; 1212 : 
; 1213 : 			_Umove(_VEC_ITER_BASE(_Where), _Mylast,
; 1214 : 				_VEC_ITER_BASE(_Where) + _Count);	// copy suffix

	mov	eax, DWORD PTR __Count$[ebp]
	imul	eax, 28					; 0000001cH
	add	eax, DWORD PTR __Where$[ebp+4]
	push	eax
	mov	ecx, DWORD PTR _this$[ebp]
	mov	edx, DWORD PTR [ecx+16]
	push	edx
	mov	eax, DWORD PTR __Where$[ebp+4]
	push	eax
	mov	ecx, DWORD PTR _this$[ebp]
	call	??$_Umove@PAV?$basic_string@DU?$char_traits@D@std@@V?$allocator@D@2@@std@@@?$vector@V?$basic_string@DU?$char_traits@D@std@@V?$allocator@D@2@@std@@V?$allocator@V?$basic_string@DU?$char_traits@D@std@@V?$allocator@D@2@@std@@@2@@std@@IAEPAV?$basic_string@DU?$char_traits@D@std@@V?$allocator@D@2@@1@PAV21@00@Z ; std::vector<std::basic_string<char,std::char_traits<char>,std::allocator<char> >,std::allocator<std::basic_string<char,std::char_traits<char>,std::allocator<char> > > >::_Umove<std::basic_string<char,std::char_traits<char>,std::allocator<char> > *>

; 1215 : 
; 1216 : 			_TRY_BEGIN

	mov	BYTE PTR __$EHRec$[ebp+12], 3

; 1217 : 			_Ufill(_Mylast, _Count - (_Mylast - _VEC_ITER_BASE(_Where)),
; 1218 : 				_Tmp);	// insert new stuff off end

	lea	ecx, DWORD PTR __Tmp$59635[ebp]
	push	ecx
	mov	edx, DWORD PTR _this$[ebp]
	mov	eax, DWORD PTR [edx+16]
	sub	eax, DWORD PTR __Where$[ebp+4]
	cdq
	mov	ecx, 28					; 0000001cH
	idiv	ecx
	mov	edx, DWORD PTR __Count$[ebp]
	sub	edx, eax
	push	edx
	mov	eax, DWORD PTR _this$[ebp]
	mov	ecx, DWORD PTR [eax+16]
	push	ecx
	mov	ecx, DWORD PTR _this$[ebp]
	call	?_Ufill@?$vector@V?$basic_string@DU?$char_traits@D@std@@V?$allocator@D@2@@std@@V?$allocator@V?$basic_string@DU?$char_traits@D@std@@V?$allocator@D@2@@std@@@2@@std@@IAEPAV?$basic_string@DU?$char_traits@D@std@@V?$allocator@D@2@@2@PAV32@IABV32@@Z ; std::vector<std::basic_string<char,std::char_traits<char>,std::allocator<char> >,std::allocator<std::basic_string<char,std::char_traits<char>,std::allocator<char> > > >::_Ufill
	jmp	SHORT $LN21@Insert_n
__catch$?_Insert_n@?$vector@V?$basic_string@DU?$char_traits@D@std@@V?$allocator@D@2@@std@@V?$allocator@V?$basic_string@DU?$char_traits@D@std@@V?$allocator@D@2@@std@@@2@@std@@IAEXV?$_Vector_const_iterator@V?$basic_string@DU?$char_traits@D@std@@V?$allocator@D@2@@std@@V?$allocator@V?$basic_string@DU?$char_traits@D@std@@V?$allocator@D@2@@std@@@2@@2@IABV?$basic_string@DU?$char_traits@D@std@@V?$allocator@D@2@@2@@Z$2:

; 1219 : 			_CATCH_ALL
; 1220 : 			_Destroy(_VEC_ITER_BASE(_Where) + _Count, _Mylast + _Count);

	mov	edx, DWORD PTR __Count$[ebp]
	imul	edx, 28					; 0000001cH
	mov	eax, DWORD PTR _this$[ebp]
	add	edx, DWORD PTR [eax+16]
	push	edx
	mov	ecx, DWORD PTR __Count$[ebp]
	imul	ecx, 28					; 0000001cH
	add	ecx, DWORD PTR __Where$[ebp+4]
	push	ecx
	mov	ecx, DWORD PTR _this$[ebp]
	call	?_Destroy@?$vector@V?$basic_string@DU?$char_traits@D@std@@V?$allocator@D@2@@std@@V?$allocator@V?$basic_string@DU?$char_traits@D@std@@V?$allocator@D@2@@std@@@2@@std@@IAEXPAV?$basic_string@DU?$char_traits@D@std@@V?$allocator@D@2@@2@0@Z ; std::vector<std::basic_string<char,std::char_traits<char>,std::allocator<char> >,std::allocator<std::basic_string<char,std::char_traits<char>,std::allocator<char> > > >::_Destroy

; 1221 : 			_RERAISE;

	push	0
	push	0
	call	__CxxThrowException@8

; 1222 : 			_CATCH_END

	mov	DWORD PTR __$EHRec$[ebp+12], 2
	mov	eax, __tryend$?_Insert_n@?$vector@V?$basic_string@DU?$char_traits@D@std@@V?$allocator@D@2@@std@@V?$allocator@V?$basic_string@DU?$char_traits@D@std@@V?$allocator@D@2@@std@@@2@@std@@IAEXV?$_Vector_const_iterator@V?$basic_string@DU?$char_traits@D@std@@V?$allocator@D@2@@std@@V?$allocator@V?$basic_string@DU?$char_traits@D@std@@V?$allocator@D@2@@std@@@2@@2@IABV?$basic_string@DU?$char_traits@D@std@@V?$allocator@D@2@@2@@Z$3
	ret	0
$LN21@Insert_n:
	mov	DWORD PTR __$EHRec$[ebp+12], 2
__tryend$?_Insert_n@?$vector@V?$basic_string@DU?$char_traits@D@std@@V?$allocator@D@2@@std@@V?$allocator@V?$basic_string@DU?$char_traits@D@std@@V?$allocator@D@2@@std@@@2@@std@@IAEXV?$_Vector_const_iterator@V?$basic_string@DU?$char_traits@D@std@@V?$allocator@D@2@@std@@V?$allocator@V?$basic_string@DU?$char_traits@D@std@@V?$allocator@D@2@@std@@@2@@2@IABV?$basic_string@DU?$char_traits@D@std@@V?$allocator@D@2@@2@@Z$3:

; 1223 : 
; 1224 : 			_Mylast += _Count;

	mov	edx, DWORD PTR __Count$[ebp]
	imul	edx, 28					; 0000001cH
	mov	eax, DWORD PTR _this$[ebp]
	add	edx, DWORD PTR [eax+16]
	mov	ecx, DWORD PTR _this$[ebp]
	mov	DWORD PTR [ecx+16], edx

; 1225 : 
; 1226 :  #if _HAS_ITERATOR_DEBUGGING
; 1227 : 			_Orphan_range(_Where._Myptr, _Mylast);
; 1228 :  #endif /* _HAS_ITERATOR_DEBUGGING */
; 1229 : 
; 1230 : 			std::fill(_VEC_ITER_BASE(_Where), _Mylast - _Count,
; 1231 : 				_Tmp);	// insert up to old end

	lea	edx, DWORD PTR __Tmp$59635[ebp]
	push	edx
	mov	eax, DWORD PTR __Count$[ebp]
	imul	eax, 28					; 0000001cH
	mov	ecx, DWORD PTR _this$[ebp]
	mov	edx, DWORD PTR [ecx+16]
	sub	edx, eax
	push	edx
	mov	eax, DWORD PTR __Where$[ebp+4]
	push	eax
	call	??$fill@PAV?$basic_string@DU?$char_traits@D@std@@V?$allocator@D@2@@std@@V12@@std@@YAXPAV?$basic_string@DU?$char_traits@D@std@@V?$allocator@D@2@@0@0ABV10@@Z ; std::fill<std::basic_string<char,std::char_traits<char>,std::allocator<char> > *,std::basic_string<char,std::char_traits<char>,std::allocator<char> > >
	add	esp, 12					; 0000000cH

; 1232 : 			}

	mov	DWORD PTR __$EHRec$[ebp+12], -1
	lea	ecx, DWORD PTR __Tmp$59635[ebp]
	call	DWORD PTR __imp_??1?$basic_string@DU?$char_traits@D@std@@V?$allocator@D@2@@std@@QAE@XZ

; 1233 : 		else

	jmp	$LN16@Insert_n
$LN3@Insert_n:

; 1234 : 			{	// new stuff can all be assigned
; 1235 : 			_Ty _Tmp = _Val;	// in case _Val is in sequence

	mov	ecx, DWORD PTR __Val$[ebp]
	push	ecx
	lea	ecx, DWORD PTR __Tmp$59645[ebp]
	call	DWORD PTR __imp_??0?$basic_string@DU?$char_traits@D@std@@V?$allocator@D@2@@std@@QAE@ABV01@@Z
	mov	DWORD PTR __$EHRec$[ebp+12], 5

; 1236 : 
; 1237 : 			pointer _Oldend = _Mylast;

	mov	edx, DWORD PTR _this$[ebp]
	mov	eax, DWORD PTR [edx+16]
	mov	DWORD PTR __Oldend$59646[ebp], eax

; 1238 : 			_Mylast = _Umove(_Oldend - _Count, _Oldend,
; 1239 : 				_Mylast);	// copy suffix

	mov	ecx, DWORD PTR _this$[ebp]
	mov	edx, DWORD PTR [ecx+16]
	push	edx
	mov	eax, DWORD PTR __Oldend$59646[ebp]
	push	eax
	mov	ecx, DWORD PTR __Count$[ebp]
	imul	ecx, 28					; 0000001cH
	mov	edx, DWORD PTR __Oldend$59646[ebp]
	sub	edx, ecx
	push	edx
	mov	ecx, DWORD PTR _this$[ebp]
	call	??$_Umove@PAV?$basic_string@DU?$char_traits@D@std@@V?$allocator@D@2@@std@@@?$vector@V?$basic_string@DU?$char_traits@D@std@@V?$allocator@D@2@@std@@V?$allocator@V?$basic_string@DU?$char_traits@D@std@@V?$allocator@D@2@@std@@@2@@std@@IAEPAV?$basic_string@DU?$char_traits@D@std@@V?$allocator@D@2@@1@PAV21@00@Z ; std::vector<std::basic_string<char,std::char_traits<char>,std::allocator<char> >,std::allocator<std::basic_string<char,std::char_traits<char>,std::allocator<char> > > >::_Umove<std::basic_string<char,std::char_traits<char>,std::allocator<char> > *>
	mov	ecx, DWORD PTR _this$[ebp]
	mov	DWORD PTR [ecx+16], eax

; 1240 : 
; 1241 :  #if _HAS_ITERATOR_DEBUGGING
; 1242 : 			_Orphan_range(_Where._Myptr, _Mylast);
; 1243 :  #endif /* _HAS_ITERATOR_DEBUGGING */
; 1244 : 
; 1245 : 			_STDEXT _Unchecked_move_backward(_VEC_ITER_BASE(_Where), _Oldend - _Count,
; 1246 : 				_Oldend);	// copy hole

	mov	edx, DWORD PTR __Oldend$59646[ebp]
	push	edx
	mov	eax, DWORD PTR __Count$[ebp]
	imul	eax, 28					; 0000001cH
	mov	ecx, DWORD PTR __Oldend$59646[ebp]
	sub	ecx, eax
	push	ecx
	mov	edx, DWORD PTR __Where$[ebp+4]
	push	edx
	call	??$_Unchecked_move_backward@PAV?$basic_string@DU?$char_traits@D@std@@V?$allocator@D@2@@std@@PAV12@@stdext@@YAPAV?$basic_string@DU?$char_traits@D@std@@V?$allocator@D@2@@std@@PAV12@00@Z ; stdext::_Unchecked_move_backward<std::basic_string<char,std::char_traits<char>,std::allocator<char> > *,std::basic_string<char,std::char_traits<char>,std::allocator<char> > *>
	add	esp, 12					; 0000000cH

; 1247 : 			std::fill(_VEC_ITER_BASE(_Where), _VEC_ITER_BASE(_Where) + _Count,
; 1248 : 				_Tmp);	// insert into hole

	lea	eax, DWORD PTR __Tmp$59645[ebp]
	push	eax
	mov	ecx, DWORD PTR __Count$[ebp]
	imul	ecx, 28					; 0000001cH
	add	ecx, DWORD PTR __Where$[ebp+4]
	push	ecx
	mov	edx, DWORD PTR __Where$[ebp+4]
	push	edx
	call	??$fill@PAV?$basic_string@DU?$char_traits@D@std@@V?$allocator@D@2@@std@@V12@@std@@YAXPAV?$basic_string@DU?$char_traits@D@std@@V?$allocator@D@2@@0@0ABV10@@Z ; std::fill<std::basic_string<char,std::char_traits<char>,std::allocator<char> > *,std::basic_string<char,std::char_traits<char>,std::allocator<char> > >
	add	esp, 12					; 0000000cH

; 1249 : 			}

	mov	DWORD PTR __$EHRec$[ebp+12], -1
	lea	ecx, DWORD PTR __Tmp$59645[ebp]
	call	DWORD PTR __imp_??1?$basic_string@DU?$char_traits@D@std@@V?$allocator@D@2@@std@@QAE@XZ
$LN16@Insert_n:

; 1250 : 		}

	mov	ecx, DWORD PTR __$EHRec$[ebp+4]
	mov	DWORD PTR fs:0, ecx
	pop	ecx
	pop	edi
	pop	esi
	pop	ebx
	mov	ecx, DWORD PTR __$ArrayPad$[ebp]
	xor	ecx, ebp
	call	@__security_check_cookie@4
	mov	esp, ebp
	pop	ebp
	ret	16					; 00000010H
_TEXT	ENDS
;	COMDAT text$x
text$x	SEGMENT
__unwindfunclet$?_Insert_n@?$vector@V?$basic_string@DU?$char_traits@D@std@@V?$allocator@D@2@@std@@V?$allocator@V?$basic_string@DU?$char_traits@D@std@@V?$allocator@D@2@@std@@@2@@std@@IAEXV?$_Vector_const_iterator@V?$basic_string@DU?$char_traits@D@std@@V?$allocator@D@2@@std@@V?$allocator@V?$basic_string@DU?$char_traits@D@std@@V?$allocator@D@2@@std@@@2@@2@IABV?$basic_string@DU?$char_traits@D@std@@V?$allocator@D@2@@2@@Z$4:
	lea	ecx, DWORD PTR __Tmp$59635[ebp]
	jmp	DWORD PTR __imp_??1?$basic_string@DU?$char_traits@D@std@@V?$allocator@D@2@@std@@QAE@XZ
__unwindfunclet$?_Insert_n@?$vector@V?$basic_string@DU?$char_traits@D@std@@V?$allocator@D@2@@std@@V?$allocator@V?$basic_string@DU?$char_traits@D@std@@V?$allocator@D@2@@std@@@2@@std@@IAEXV?$_Vector_const_iterator@V?$basic_string@DU?$char_traits@D@std@@V?$allocator@D@2@@std@@V?$allocator@V?$basic_string@DU?$char_traits@D@std@@V?$allocator@D@2@@std@@@2@@2@IABV?$basic_string@DU?$char_traits@D@std@@V?$allocator@D@2@@2@@Z$5:
	lea	ecx, DWORD PTR __Tmp$59645[ebp]
	jmp	DWORD PTR __imp_??1?$basic_string@DU?$char_traits@D@std@@V?$allocator@D@2@@std@@QAE@XZ
__ehhandler$?_Insert_n@?$vector@V?$basic_string@DU?$char_traits@D@std@@V?$allocator@D@2@@std@@V?$allocator@V?$basic_string@DU?$char_traits@D@std@@V?$allocator@D@2@@std@@@2@@std@@IAEXV?$_Vector_const_iterator@V?$basic_string@DU?$char_traits@D@std@@V?$allocator@D@2@@std@@V?$allocator@V?$basic_string@DU?$char_traits@D@std@@V?$allocator@D@2@@std@@@2@@2@IABV?$basic_string@DU?$char_traits@D@std@@V?$allocator@D@2@@2@@Z:
	mov	edx, DWORD PTR [esp+8]
	lea	eax, DWORD PTR [edx+12]
	mov	ecx, DWORD PTR [edx-108]
	xor	ecx, eax
	call	@__security_check_cookie@4
	mov	ecx, DWORD PTR [edx-24]
	xor	ecx, eax
	call	@__security_check_cookie@4
	mov	eax, OFFSET __ehfuncinfo$?_Insert_n@?$vector@V?$basic_string@DU?$char_traits@D@std@@V?$allocator@D@2@@std@@V?$allocator@V?$basic_string@DU?$char_traits@D@std@@V?$allocator@D@2@@std@@@2@@std@@IAEXV?$_Vector_const_iterator@V?$basic_string@DU?$char_traits@D@std@@V?$allocator@D@2@@std@@V?$allocator@V?$basic_string@DU?$char_traits@D@std@@V?$allocator@D@2@@std@@@2@@2@IABV?$basic_string@DU?$char_traits@D@std@@V?$allocator@D@2@@2@@Z
	jmp	___CxxFrameHandler3
text$x	ENDS
?_Insert_n@?$vector@V?$basic_string@DU?$char_traits@D@std@@V?$allocator@D@2@@std@@V?$allocator@V?$basic_string@DU?$char_traits@D@std@@V?$allocator@D@2@@std@@@2@@std@@IAEXV?$_Vector_const_iterator@V?$basic_string@DU?$char_traits@D@std@@V?$allocator@D@2@@std@@V?$allocator@V?$basic_string@DU?$char_traits@D@std@@V?$allocator@D@2@@std@@@2@@2@IABV?$basic_string@DU?$char_traits@D@std@@V?$allocator@D@2@@2@@Z ENDP ; std::vector<std::basic_string<char,std::char_traits<char>,std::allocator<char> >,std::allocator<std::basic_string<char,std::char_traits<char>,std::allocator<char> > > >::_Insert_n
PUBLIC	??Y?$_Vector_iterator@V?$basic_string@DU?$char_traits@D@std@@V?$allocator@D@2@@std@@V?$allocator@V?$basic_string@DU?$char_traits@D@std@@V?$allocator@D@2@@std@@@2@@std@@QAEAAV01@H@Z ; std::_Vector_iterator<std::basic_string<char,std::char_traits<char>,std::allocator<char> >,std::allocator<std::basic_string<char,std::char_traits<char>,std::allocator<char> > > >::operator+=
; Function compile flags: /Odtp
;	COMDAT ??H?$_Vector_iterator@V?$basic_string@DU?$char_traits@D@std@@V?$allocator@D@2@@std@@V?$allocator@V?$basic_string@DU?$char_traits@D@std@@V?$allocator@D@2@@std@@@2@@std@@QBE?AV01@H@Z
_TEXT	SEGMENT
_this$ = -12						; size = 4
__Tmp$ = -8						; size = 8
___$ReturnUdt$ = 8					; size = 4
__Off$ = 12						; size = 4
??H?$_Vector_iterator@V?$basic_string@DU?$char_traits@D@std@@V?$allocator@D@2@@std@@V?$allocator@V?$basic_string@DU?$char_traits@D@std@@V?$allocator@D@2@@std@@@2@@std@@QBE?AV01@H@Z PROC ; std::_Vector_iterator<std::basic_string<char,std::char_traits<char>,std::allocator<char> >,std::allocator<std::basic_string<char,std::char_traits<char>,std::allocator<char> > > >::operator+, COMDAT
; _this$ = ecx

; 380  : 		{	// return this + integer

	push	ebp
	mov	ebp, esp
	sub	esp, 12					; 0000000cH
	mov	DWORD PTR _this$[ebp], ecx

; 381  : 		_Myt _Tmp = *this;

	mov	eax, DWORD PTR _this$[ebp]
	mov	ecx, DWORD PTR [eax]
	mov	edx, DWORD PTR [eax+4]
	mov	DWORD PTR __Tmp$[ebp], ecx
	mov	DWORD PTR __Tmp$[ebp+4], edx

; 382  : 		return (_Tmp += _Off);

	mov	eax, DWORD PTR __Off$[ebp]
	push	eax
	lea	ecx, DWORD PTR __Tmp$[ebp]
	call	??Y?$_Vector_iterator@V?$basic_string@DU?$char_traits@D@std@@V?$allocator@D@2@@std@@V?$allocator@V?$basic_string@DU?$char_traits@D@std@@V?$allocator@D@2@@std@@@2@@std@@QAEAAV01@H@Z ; std::_Vector_iterator<std::basic_string<char,std::char_traits<char>,std::allocator<char> >,std::allocator<std::basic_string<char,std::char_traits<char>,std::allocator<char> > > >::operator+=
	mov	ecx, DWORD PTR [eax]
	mov	edx, DWORD PTR [eax+4]
	mov	eax, DWORD PTR ___$ReturnUdt$[ebp]
	mov	DWORD PTR [eax], ecx
	mov	DWORD PTR [eax+4], edx
	mov	eax, DWORD PTR ___$ReturnUdt$[ebp]

; 383  : 		}

	mov	esp, ebp
	pop	ebp
	ret	8
??H?$_Vector_iterator@V?$basic_string@DU?$char_traits@D@std@@V?$allocator@D@2@@std@@V?$allocator@V?$basic_string@DU?$char_traits@D@std@@V?$allocator@D@2@@std@@@2@@std@@QBE?AV01@H@Z ENDP ; std::_Vector_iterator<std::basic_string<char,std::char_traits<char>,std::allocator<char> >,std::allocator<std::basic_string<char,std::char_traits<char>,std::allocator<char> > > >::operator+
; Function compile flags: /Odtp
_TEXT	ENDS
;	COMDAT ?capacity@?$vector@V?$basic_string@DU?$char_traits@D@std@@V?$allocator@D@2@@std@@V?$allocator@V?$basic_string@DU?$char_traits@D@std@@V?$allocator@D@2@@std@@@2@@std@@QBEIXZ
_TEXT	SEGMENT
tv70 = -8						; size = 4
_this$ = -4						; size = 4
?capacity@?$vector@V?$basic_string@DU?$char_traits@D@std@@V?$allocator@D@2@@std@@V?$allocator@V?$basic_string@DU?$char_traits@D@std@@V?$allocator@D@2@@std@@@2@@std@@QBEIXZ PROC ; std::vector<std::basic_string<char,std::char_traits<char>,std::allocator<char> >,std::allocator<std::basic_string<char,std::char_traits<char>,std::allocator<char> > > >::capacity, COMDAT
; _this$ = ecx

; 634  : 		{	// return current length of allocated storage

	push	ebp
	mov	ebp, esp
	sub	esp, 8
	mov	DWORD PTR _this$[ebp], ecx

; 635  : 		return (_Myfirst == 0 ? 0 : _Myend - _Myfirst);

	mov	eax, DWORD PTR _this$[ebp]
	cmp	DWORD PTR [eax+12], 0
	jne	SHORT $LN3@capacity
	mov	DWORD PTR tv70[ebp], 0
	jmp	SHORT $LN4@capacity
$LN3@capacity:
	mov	ecx, DWORD PTR _this$[ebp]
	mov	edx, DWORD PTR _this$[ebp]
	mov	eax, DWORD PTR [ecx+20]
	sub	eax, DWORD PTR [edx+12]
	cdq
	mov	ecx, 28					; 0000001cH
	idiv	ecx
	mov	DWORD PTR tv70[ebp], eax
$LN4@capacity:
	mov	eax, DWORD PTR tv70[ebp]

; 636  : 		}

	mov	esp, ebp
	pop	ebp
	ret	0
?capacity@?$vector@V?$basic_string@DU?$char_traits@D@std@@V?$allocator@D@2@@std@@V?$allocator@V?$basic_string@DU?$char_traits@D@std@@V?$allocator@D@2@@std@@@2@@std@@QBEIXZ ENDP ; std::vector<std::basic_string<char,std::char_traits<char>,std::allocator<char> >,std::allocator<std::basic_string<char,std::char_traits<char>,std::allocator<char> > > >::capacity
; Function compile flags: /Odtp
_TEXT	ENDS
;	COMDAT ?_Make_iter@?$vector@V?$basic_string@DU?$char_traits@D@std@@V?$allocator@D@2@@std@@V?$allocator@V?$basic_string@DU?$char_traits@D@std@@V?$allocator@D@2@@std@@@2@@std@@QBE?AV?$_Vector_iterator@V?$basic_string@DU?$char_traits@D@std@@V?$allocator@D@2@@std@@V?$allocator@V?$basic_string@DU?$char_traits@D@std@@V?$allocator@D@2@@std@@@2@@2@V?$_Vector_const_iterator@V?$basic_string@DU?$char_traits@D@std@@V?$allocator@D@2@@std@@V?$allocator@V?$basic_string@DU?$char_traits@D@std@@V?$allocator@D@2@@std@@@2@@2@@Z
_TEXT	SEGMENT
_this$ = -4						; size = 4
___$ReturnUdt$ = 8					; size = 4
__Where$ = 12						; size = 8
?_Make_iter@?$vector@V?$basic_string@DU?$char_traits@D@std@@V?$allocator@D@2@@std@@V?$allocator@V?$basic_string@DU?$char_traits@D@std@@V?$allocator@D@2@@std@@@2@@std@@QBE?AV?$_Vector_iterator@V?$basic_string@DU?$char_traits@D@std@@V?$allocator@D@2@@std@@V?$allocator@V?$basic_string@DU?$char_traits@D@std@@V?$allocator@D@2@@std@@@2@@2@V?$_Vector_const_iterator@V?$basic_string@DU?$char_traits@D@std@@V?$allocator@D@2@@std@@V?$allocator@V?$basic_string@DU?$char_traits@D@std@@V?$allocator@D@2@@std@@@2@@2@@Z PROC ; std::vector<std::basic_string<char,std::char_traits<char>,std::allocator<char> >,std::allocator<std::basic_string<char,std::char_traits<char>,std::allocator<char> > > >::_Make_iter, COMDAT
; _this$ = ecx

; 660  : 		{	// make iterator from const_iterator

	push	ebp
	mov	ebp, esp
	push	ecx
	mov	DWORD PTR _this$[ebp], ecx

; 661  : 		return (iterator(_Where._Myptr, this));

	mov	eax, DWORD PTR _this$[ebp]
	push	eax
	mov	ecx, DWORD PTR __Where$[ebp+4]
	push	ecx
	mov	ecx, DWORD PTR ___$ReturnUdt$[ebp]
	call	??0?$_Vector_iterator@V?$basic_string@DU?$char_traits@D@std@@V?$allocator@D@2@@std@@V?$allocator@V?$basic_string@DU?$char_traits@D@std@@V?$allocator@D@2@@std@@@2@@std@@QAE@PAV?$basic_string@DU?$char_traits@D@std@@V?$allocator@D@2@@1@PBV_Container_base_aux@1@@Z ; std::_Vector_iterator<std::basic_string<char,std::char_traits<char>,std::allocator<char> >,std::allocator<std::basic_string<char,std::char_traits<char>,std::allocator<char> > > >::_Vector_iterator<std::basic_string<char,std::char_traits<char>,std::allocator<char> >,std::allocator<std::basic_string<char,std::char_traits<char>,std::allocator<char> > > >
	mov	eax, DWORD PTR ___$ReturnUdt$[ebp]

; 662  : 		}

	mov	esp, ebp
	pop	ebp
	ret	12					; 0000000cH
?_Make_iter@?$vector@V?$basic_string@DU?$char_traits@D@std@@V?$allocator@D@2@@std@@V?$allocator@V?$basic_string@DU?$char_traits@D@std@@V?$allocator@D@2@@std@@@2@@std@@QBE?AV?$_Vector_iterator@V?$basic_string@DU?$char_traits@D@std@@V?$allocator@D@2@@std@@V?$allocator@V?$basic_string@DU?$char_traits@D@std@@V?$allocator@D@2@@std@@@2@@2@V?$_Vector_const_iterator@V?$basic_string@DU?$char_traits@D@std@@V?$allocator@D@2@@std@@V?$allocator@V?$basic_string@DU?$char_traits@D@std@@V?$allocator@D@2@@std@@@2@@2@@Z ENDP ; std::vector<std::basic_string<char,std::char_traits<char>,std::allocator<char> >,std::allocator<std::basic_string<char,std::char_traits<char>,std::allocator<char> > > >::_Make_iter
_TEXT	ENDS
PUBLIC	?max_size@?$allocator@V?$basic_string@DU?$char_traits@D@std@@V?$allocator@D@2@@std@@@std@@QBEIXZ ; std::allocator<std::basic_string<char,std::char_traits<char>,std::allocator<char> > >::max_size
; Function compile flags: /Odtp
;	COMDAT ?max_size@?$vector@V?$basic_string@DU?$char_traits@D@std@@V?$allocator@D@2@@std@@V?$allocator@V?$basic_string@DU?$char_traits@D@std@@V?$allocator@D@2@@std@@@2@@std@@QBEIXZ
_TEXT	SEGMENT
_this$ = -4						; size = 4
?max_size@?$vector@V?$basic_string@DU?$char_traits@D@std@@V?$allocator@D@2@@std@@V?$allocator@V?$basic_string@DU?$char_traits@D@std@@V?$allocator@D@2@@std@@@2@@std@@QBEIXZ PROC ; std::vector<std::basic_string<char,std::char_traits<char>,std::allocator<char> >,std::allocator<std::basic_string<char,std::char_traits<char>,std::allocator<char> > > >::max_size, COMDAT
; _this$ = ecx

; 730  : 		{	// return maximum possible length of sequence

	push	ebp
	mov	ebp, esp
	push	ecx
	mov	DWORD PTR _this$[ebp], ecx

; 731  : 		return (this->_Alval.max_size());

	mov	ecx, DWORD PTR _this$[ebp]
	add	ecx, 8
	call	?max_size@?$allocator@V?$basic_string@DU?$char_traits@D@std@@V?$allocator@D@2@@std@@@std@@QBEIXZ ; std::allocator<std::basic_string<char,std::char_traits<char>,std::allocator<char> > >::max_size

; 732  : 		}

	mov	esp, ebp
	pop	ebp
	ret	0
?max_size@?$vector@V?$basic_string@DU?$char_traits@D@std@@V?$allocator@D@2@@std@@V?$allocator@V?$basic_string@DU?$char_traits@D@std@@V?$allocator@D@2@@std@@@2@@std@@QBEIXZ ENDP ; std::vector<std::basic_string<char,std::char_traits<char>,std::allocator<char> >,std::allocator<std::basic_string<char,std::char_traits<char>,std::allocator<char> > > >::max_size
_TEXT	ENDS
PUBLIC	??$_Destroy_range@V?$allocator@V?$basic_string@DU?$char_traits@D@std@@V?$allocator@D@2@@std@@@std@@@std@@YAXPAV?$basic_string@DU?$char_traits@D@std@@V?$allocator@D@2@@0@0AAV?$allocator@V?$basic_string@DU?$char_traits@D@std@@V?$allocator@D@2@@std@@@0@@Z ; std::_Destroy_range<std::allocator<std::basic_string<char,std::char_traits<char>,std::allocator<char> > > >
; Function compile flags: /Odtp
;	COMDAT ?_Destroy@?$vector@V?$basic_string@DU?$char_traits@D@std@@V?$allocator@D@2@@std@@V?$allocator@V?$basic_string@DU?$char_traits@D@std@@V?$allocator@D@2@@std@@@2@@std@@IAEXPAV?$basic_string@DU?$char_traits@D@std@@V?$allocator@D@2@@2@0@Z
_TEXT	SEGMENT
_this$ = -4						; size = 4
__First$ = 8						; size = 4
__Last$ = 12						; size = 4
?_Destroy@?$vector@V?$basic_string@DU?$char_traits@D@std@@V?$allocator@D@2@@std@@V?$allocator@V?$basic_string@DU?$char_traits@D@std@@V?$allocator@D@2@@std@@@2@@std@@IAEXPAV?$basic_string@DU?$char_traits@D@std@@V?$allocator@D@2@@2@0@Z PROC ; std::vector<std::basic_string<char,std::char_traits<char>,std::allocator<char> >,std::allocator<std::basic_string<char,std::char_traits<char>,std::allocator<char> > > >::_Destroy, COMDAT
; _this$ = ecx

; 1118 : 		{	// destroy [_First, _Last) using allocator

	push	ebp
	mov	ebp, esp
	push	ecx
	mov	DWORD PTR _this$[ebp], ecx

; 1119 : 		_Destroy_range(_First, _Last, this->_Alval);

	mov	eax, DWORD PTR _this$[ebp]
	add	eax, 8
	push	eax
	mov	ecx, DWORD PTR __Last$[ebp]
	push	ecx
	mov	edx, DWORD PTR __First$[ebp]
	push	edx
	call	??$_Destroy_range@V?$allocator@V?$basic_string@DU?$char_traits@D@std@@V?$allocator@D@2@@std@@@std@@@std@@YAXPAV?$basic_string@DU?$char_traits@D@std@@V?$allocator@D@2@@0@0AAV?$allocator@V?$basic_string@DU?$char_traits@D@std@@V?$allocator@D@2@@std@@@0@@Z ; std::_Destroy_range<std::allocator<std::basic_string<char,std::char_traits<char>,std::allocator<char> > > >
	add	esp, 12					; 0000000cH

; 1120 : 		}

	mov	esp, ebp
	pop	ebp
	ret	8
?_Destroy@?$vector@V?$basic_string@DU?$char_traits@D@std@@V?$allocator@D@2@@std@@V?$allocator@V?$basic_string@DU?$char_traits@D@std@@V?$allocator@D@2@@std@@@2@@std@@IAEXPAV?$basic_string@DU?$char_traits@D@std@@V?$allocator@D@2@@2@0@Z ENDP ; std::vector<std::basic_string<char,std::char_traits<char>,std::allocator<char> >,std::allocator<std::basic_string<char,std::char_traits<char>,std::allocator<char> > > >::_Destroy
_TEXT	ENDS
PUBLIC	??$unchecked_uninitialized_fill_n@PAV?$basic_string@DU?$char_traits@D@std@@V?$allocator@D@2@@std@@IV12@V?$allocator@V?$basic_string@DU?$char_traits@D@std@@V?$allocator@D@2@@std@@@2@@stdext@@YAXPAV?$basic_string@DU?$char_traits@D@std@@V?$allocator@D@2@@std@@IABV12@AAV?$allocator@V?$basic_string@DU?$char_traits@D@std@@V?$allocator@D@2@@std@@@2@@Z ; stdext::unchecked_uninitialized_fill_n<std::basic_string<char,std::char_traits<char>,std::allocator<char> > *,unsigned int,std::basic_string<char,std::char_traits<char>,std::allocator<char> >,std::allocator<std::basic_string<char,std::char_traits<char>,std::allocator<char> > > >
; Function compile flags: /Odtp
;	COMDAT ?_Ufill@?$vector@V?$basic_string@DU?$char_traits@D@std@@V?$allocator@D@2@@std@@V?$allocator@V?$basic_string@DU?$char_traits@D@std@@V?$allocator@D@2@@std@@@2@@std@@IAEPAV?$basic_string@DU?$char_traits@D@std@@V?$allocator@D@2@@2@PAV32@IABV32@@Z
_TEXT	SEGMENT
_this$ = -4						; size = 4
__Ptr$ = 8						; size = 4
__Count$ = 12						; size = 4
__Val$ = 16						; size = 4
?_Ufill@?$vector@V?$basic_string@DU?$char_traits@D@std@@V?$allocator@D@2@@std@@V?$allocator@V?$basic_string@DU?$char_traits@D@std@@V?$allocator@D@2@@std@@@2@@std@@IAEPAV?$basic_string@DU?$char_traits@D@std@@V?$allocator@D@2@@2@PAV32@IABV32@@Z PROC ; std::vector<std::basic_string<char,std::char_traits<char>,std::allocator<char> >,std::allocator<std::basic_string<char,std::char_traits<char>,std::allocator<char> > > >::_Ufill, COMDAT
; _this$ = ecx

; 1253 : 		{	// copy initializing _Count * _Val, using allocator

	push	ebp
	mov	ebp, esp
	push	ecx
	mov	DWORD PTR _this$[ebp], ecx

; 1254 : 		_STDEXT unchecked_uninitialized_fill_n(_Ptr, _Count, _Val, this->_Alval);

	mov	eax, DWORD PTR _this$[ebp]
	add	eax, 8
	push	eax
	mov	ecx, DWORD PTR __Val$[ebp]
	push	ecx
	mov	edx, DWORD PTR __Count$[ebp]
	push	edx
	mov	eax, DWORD PTR __Ptr$[ebp]
	push	eax
	call	??$unchecked_uninitialized_fill_n@PAV?$basic_string@DU?$char_traits@D@std@@V?$allocator@D@2@@std@@IV12@V?$allocator@V?$basic_string@DU?$char_traits@D@std@@V?$allocator@D@2@@std@@@2@@stdext@@YAXPAV?$basic_string@DU?$char_traits@D@std@@V?$allocator@D@2@@std@@IABV12@AAV?$allocator@V?$basic_string@DU?$char_traits@D@std@@V?$allocator@D@2@@std@@@2@@Z ; stdext::unchecked_uninitialized_fill_n<std::basic_string<char,std::char_traits<char>,std::allocator<char> > *,unsigned int,std::basic_string<char,std::char_traits<char>,std::allocator<char> >,std::allocator<std::basic_string<char,std::char_traits<char>,std::allocator<char> > > >
	add	esp, 16					; 00000010H

; 1255 : 		return (_Ptr + _Count);

	mov	eax, DWORD PTR __Count$[ebp]
	imul	eax, 28					; 0000001cH
	add	eax, DWORD PTR __Ptr$[ebp]

; 1256 : 		}

	mov	esp, ebp
	pop	ebp
	ret	12					; 0000000cH
?_Ufill@?$vector@V?$basic_string@DU?$char_traits@D@std@@V?$allocator@D@2@@std@@V?$allocator@V?$basic_string@DU?$char_traits@D@std@@V?$allocator@D@2@@std@@@2@@std@@IAEPAV?$basic_string@DU?$char_traits@D@std@@V?$allocator@D@2@@2@PAV32@IABV32@@Z ENDP ; std::vector<std::basic_string<char,std::char_traits<char>,std::allocator<char> >,std::allocator<std::basic_string<char,std::char_traits<char>,std::allocator<char> > > >::_Ufill
_TEXT	ENDS
PUBLIC	__TI3?AVlength_error@std@@
PUBLIC	??0length_error@std@@QAE@ABV?$basic_string@DU?$char_traits@D@std@@V?$allocator@D@2@@1@@Z ; std::length_error::length_error
PUBLIC	??_C@_0BD@OLBABOEK@vector?$DMT?$DO?5too?5long?$AA@ ; `string'
PUBLIC	??1length_error@std@@UAE@XZ			; std::length_error::~length_error
PUBLIC	__CTA3?AVlength_error@std@@
PUBLIC	__CT??_R0?AVlength_error@std@@@8??0length_error@std@@QAE@ABV01@@Z40
PUBLIC	??_R0?AVlength_error@std@@@8			; std::length_error `RTTI Type Descriptor'
PUBLIC	??0length_error@std@@QAE@ABV01@@Z		; std::length_error::length_error
PUBLIC	__CT??_R0?AVlogic_error@std@@@8??0logic_error@std@@QAE@ABV01@@Z40
PUBLIC	??_R0?AVlogic_error@std@@@8			; std::logic_error `RTTI Type Descriptor'
PUBLIC	??0logic_error@std@@QAE@ABV01@@Z		; std::logic_error::logic_error
PUBLIC	__CT??_R0?AVexception@std@@@8??0exception@std@@QAE@ABV01@@Z12
PUBLIC	??_R0?AVexception@std@@@8			; std::exception `RTTI Type Descriptor'
EXTRN	__imp_??0?$basic_string@DU?$char_traits@D@std@@V?$allocator@D@2@@std@@QAE@PBD@Z:PROC
EXTRN	??0exception@std@@QAE@ABV01@@Z:PROC		; std::exception::exception
;	COMDAT ??_R0?AVexception@std@@@8
_DATA	SEGMENT
??_R0?AVexception@std@@@8 DD FLAT:??_7type_info@@6B@	; std::exception `RTTI Type Descriptor'
	DD	00H
	DB	'.?AVexception@std@@', 00H
_DATA	ENDS
;	COMDAT __CT??_R0?AVexception@std@@@8??0exception@std@@QAE@ABV01@@Z12
xdata$x	SEGMENT
__CT??_R0?AVexception@std@@@8??0exception@std@@QAE@ABV01@@Z12 DD 00H
	DD	FLAT:??_R0?AVexception@std@@@8
	DD	00H
	DD	0ffffffffH
	ORG $+4
	DD	0cH
	DD	FLAT:??0exception@std@@QAE@ABV01@@Z
xdata$x	ENDS
;	COMDAT ??_R0?AVlogic_error@std@@@8
_DATA	SEGMENT
??_R0?AVlogic_error@std@@@8 DD FLAT:??_7type_info@@6B@	; std::logic_error `RTTI Type Descriptor'
	DD	00H
	DB	'.?AVlogic_error@std@@', 00H
_DATA	ENDS
;	COMDAT __CT??_R0?AVlogic_error@std@@@8??0logic_error@std@@QAE@ABV01@@Z40
xdata$x	SEGMENT
__CT??_R0?AVlogic_error@std@@@8??0logic_error@std@@QAE@ABV01@@Z40 DD 00H
	DD	FLAT:??_R0?AVlogic_error@std@@@8
	DD	00H
	DD	0ffffffffH
	ORG $+4
	DD	028H
	DD	FLAT:??0logic_error@std@@QAE@ABV01@@Z
xdata$x	ENDS
;	COMDAT ??_R0?AVlength_error@std@@@8
_DATA	SEGMENT
??_R0?AVlength_error@std@@@8 DD FLAT:??_7type_info@@6B@	; std::length_error `RTTI Type Descriptor'
	DD	00H
	DB	'.?AVlength_error@std@@', 00H
_DATA	ENDS
;	COMDAT __CT??_R0?AVlength_error@std@@@8??0length_error@std@@QAE@ABV01@@Z40
xdata$x	SEGMENT
__CT??_R0?AVlength_error@std@@@8??0length_error@std@@QAE@ABV01@@Z40 DD 00H
	DD	FLAT:??_R0?AVlength_error@std@@@8
	DD	00H
	DD	0ffffffffH
	ORG $+4
	DD	028H
	DD	FLAT:??0length_error@std@@QAE@ABV01@@Z
xdata$x	ENDS
;	COMDAT __CTA3?AVlength_error@std@@
xdata$x	SEGMENT
__CTA3?AVlength_error@std@@ DD 03H
	DD	FLAT:__CT??_R0?AVlength_error@std@@@8??0length_error@std@@QAE@ABV01@@Z40
	DD	FLAT:__CT??_R0?AVlogic_error@std@@@8??0logic_error@std@@QAE@ABV01@@Z40
	DD	FLAT:__CT??_R0?AVexception@std@@@8??0exception@std@@QAE@ABV01@@Z12
xdata$x	ENDS
;	COMDAT __TI3?AVlength_error@std@@
xdata$x	SEGMENT
__TI3?AVlength_error@std@@ DD 00H
	DD	FLAT:??1length_error@std@@UAE@XZ
	DD	00H
	DD	FLAT:__CTA3?AVlength_error@std@@
xdata$x	ENDS
;	COMDAT ??_C@_0BD@OLBABOEK@vector?$DMT?$DO?5too?5long?$AA@
CONST	SEGMENT
??_C@_0BD@OLBABOEK@vector?$DMT?$DO?5too?5long?$AA@ DB 'vector<T> too long'
	DB	00H						; `string'
CONST	ENDS
;	COMDAT xdata$x
xdata$x	SEGMENT
__unwindtable$?_Xlen@?$vector@V?$basic_string@DU?$char_traits@D@std@@V?$allocator@D@2@@std@@V?$allocator@V?$basic_string@DU?$char_traits@D@std@@V?$allocator@D@2@@std@@@2@@std@@KAXXZ DD 0ffffffffH
	DD	FLAT:__unwindfunclet$?_Xlen@?$vector@V?$basic_string@DU?$char_traits@D@std@@V?$allocator@D@2@@std@@V?$allocator@V?$basic_string@DU?$char_traits@D@std@@V?$allocator@D@2@@std@@@2@@std@@KAXXZ$0
__ehfuncinfo$?_Xlen@?$vector@V?$basic_string@DU?$char_traits@D@std@@V?$allocator@D@2@@std@@V?$allocator@V?$basic_string@DU?$char_traits@D@std@@V?$allocator@D@2@@std@@@2@@std@@KAXXZ DD 019930522H
	DD	01H
	DD	FLAT:__unwindtable$?_Xlen@?$vector@V?$basic_string@DU?$char_traits@D@std@@V?$allocator@D@2@@std@@V?$allocator@V?$basic_string@DU?$char_traits@D@std@@V?$allocator@D@2@@std@@@2@@std@@KAXXZ
	DD	2 DUP(00H)
	DD	2 DUP(00H)
	DD	00H
	DD	00H
; Function compile flags: /Odtp
xdata$x	ENDS
;	COMDAT ?_Xlen@?$vector@V?$basic_string@DU?$char_traits@D@std@@V?$allocator@D@2@@std@@V?$allocator@V?$basic_string@DU?$char_traits@D@std@@V?$allocator@D@2@@std@@@2@@std@@KAXXZ
_TEXT	SEGMENT
$T62595 = -80						; size = 28
$T62594 = -52						; size = 40
__$EHRec$ = -12						; size = 12
?_Xlen@?$vector@V?$basic_string@DU?$char_traits@D@std@@V?$allocator@D@2@@std@@V?$allocator@V?$basic_string@DU?$char_traits@D@std@@V?$allocator@D@2@@std@@@2@@std@@KAXXZ PROC ; std::vector<std::basic_string<char,std::char_traits<char>,std::allocator<char> >,std::allocator<std::basic_string<char,std::char_traits<char>,std::allocator<char> > > >::_Xlen, COMDAT

; 1259 : 		{	// report a length_error

	push	ebp
	mov	ebp, esp
	push	-1
	push	__ehhandler$?_Xlen@?$vector@V?$basic_string@DU?$char_traits@D@std@@V?$allocator@D@2@@std@@V?$allocator@V?$basic_string@DU?$char_traits@D@std@@V?$allocator@D@2@@std@@@2@@std@@KAXXZ
	mov	eax, DWORD PTR fs:0
	push	eax
	sub	esp, 68					; 00000044H
	mov	eax, DWORD PTR ___security_cookie
	xor	eax, ebp
	push	eax
	lea	eax, DWORD PTR __$EHRec$[ebp]
	mov	DWORD PTR fs:0, eax

; 1260 : 		_THROW(length_error, "vector<T> too long");

	push	OFFSET ??_C@_0BD@OLBABOEK@vector?$DMT?$DO?5too?5long?$AA@
	lea	ecx, DWORD PTR $T62595[ebp]
	call	DWORD PTR __imp_??0?$basic_string@DU?$char_traits@D@std@@V?$allocator@D@2@@std@@QAE@PBD@Z
	mov	DWORD PTR __$EHRec$[ebp+8], 0
	lea	eax, DWORD PTR $T62595[ebp]
	push	eax
	lea	ecx, DWORD PTR $T62594[ebp]
	call	??0length_error@std@@QAE@ABV?$basic_string@DU?$char_traits@D@std@@V?$allocator@D@2@@1@@Z ; std::length_error::length_error
	push	OFFSET __TI3?AVlength_error@std@@
	lea	ecx, DWORD PTR $T62594[ebp]
	push	ecx
	call	__CxxThrowException@8
	mov	DWORD PTR __$EHRec$[ebp+8], -1
	lea	ecx, DWORD PTR $T62595[ebp]
	call	DWORD PTR __imp_??1?$basic_string@DU?$char_traits@D@std@@V?$allocator@D@2@@std@@QAE@XZ
$LN2@Xlen:

; 1261 : 		}

	mov	ecx, DWORD PTR __$EHRec$[ebp]
	mov	DWORD PTR fs:0, ecx
	pop	ecx
	mov	esp, ebp
	pop	ebp
	ret	0
_TEXT	ENDS
;	COMDAT text$x
text$x	SEGMENT
__unwindfunclet$?_Xlen@?$vector@V?$basic_string@DU?$char_traits@D@std@@V?$allocator@D@2@@std@@V?$allocator@V?$basic_string@DU?$char_traits@D@std@@V?$allocator@D@2@@std@@@2@@std@@KAXXZ$0:
	lea	ecx, DWORD PTR $T62595[ebp]
	jmp	DWORD PTR __imp_??1?$basic_string@DU?$char_traits@D@std@@V?$allocator@D@2@@std@@QAE@XZ
__ehhandler$?_Xlen@?$vector@V?$basic_string@DU?$char_traits@D@std@@V?$allocator@D@2@@std@@V?$allocator@V?$basic_string@DU?$char_traits@D@std@@V?$allocator@D@2@@std@@@2@@std@@KAXXZ:
	mov	edx, DWORD PTR [esp+8]
	lea	eax, DWORD PTR [edx+12]
	mov	ecx, DWORD PTR [edx-72]
	xor	ecx, eax
	call	@__security_check_cookie@4
	mov	eax, OFFSET __ehfuncinfo$?_Xlen@?$vector@V?$basic_string@DU?$char_traits@D@std@@V?$allocator@D@2@@std@@V?$allocator@V?$basic_string@DU?$char_traits@D@std@@V?$allocator@D@2@@std@@@2@@std@@KAXXZ
	jmp	___CxxFrameHandler3
text$x	ENDS
?_Xlen@?$vector@V?$basic_string@DU?$char_traits@D@std@@V?$allocator@D@2@@std@@V?$allocator@V?$basic_string@DU?$char_traits@D@std@@V?$allocator@D@2@@std@@@2@@std@@KAXXZ ENDP ; std::vector<std::basic_string<char,std::char_traits<char>,std::allocator<char> >,std::allocator<std::basic_string<char,std::char_traits<char>,std::allocator<char> > > >::_Xlen
PUBLIC	??1logic_error@std@@UAE@XZ			; std::logic_error::~logic_error
PUBLIC	??_7length_error@std@@6B@			; std::length_error::`vftable'
PUBLIC	??0logic_error@std@@QAE@ABV?$basic_string@DU?$char_traits@D@std@@V?$allocator@D@2@@1@@Z ; std::logic_error::logic_error
PUBLIC	??_R4length_error@std@@6B@			; std::length_error::`RTTI Complete Object Locator'
PUBLIC	??_R3length_error@std@@8			; std::length_error::`RTTI Class Hierarchy Descriptor'
PUBLIC	??_R2length_error@std@@8			; std::length_error::`RTTI Base Class Array'
PUBLIC	??_R1A@?0A@EA@length_error@std@@8		; std::length_error::`RTTI Base Class Descriptor at (0,-1,0,64)'
PUBLIC	??_R1A@?0A@EA@logic_error@std@@8		; std::logic_error::`RTTI Base Class Descriptor at (0,-1,0,64)'
PUBLIC	??_R3logic_error@std@@8				; std::logic_error::`RTTI Class Hierarchy Descriptor'
PUBLIC	??_R2logic_error@std@@8				; std::logic_error::`RTTI Base Class Array'
PUBLIC	??_R1A@?0A@EA@exception@std@@8			; std::exception::`RTTI Base Class Descriptor at (0,-1,0,64)'
PUBLIC	??_R3exception@std@@8				; std::exception::`RTTI Class Hierarchy Descriptor'
PUBLIC	??_R2exception@std@@8				; std::exception::`RTTI Base Class Array'
PUBLIC	?what@logic_error@std@@UBEPBDXZ			; std::logic_error::what
EXTRN	??_Elength_error@std@@UAEPAXI@Z:PROC		; std::length_error::`vector deleting destructor'
;	COMDAT ??_R2exception@std@@8
; File d:\program files (x86)\microsoft visual studio 9.0\vc\include\stdexcept
rdata$r	SEGMENT
??_R2exception@std@@8 DD FLAT:??_R1A@?0A@EA@exception@std@@8 ; std::exception::`RTTI Base Class Array'
rdata$r	ENDS
;	COMDAT ??_R3exception@std@@8
rdata$r	SEGMENT
??_R3exception@std@@8 DD 00H				; std::exception::`RTTI Class Hierarchy Descriptor'
	DD	00H
	DD	01H
	DD	FLAT:??_R2exception@std@@8
rdata$r	ENDS
;	COMDAT ??_R1A@?0A@EA@exception@std@@8
rdata$r	SEGMENT
??_R1A@?0A@EA@exception@std@@8 DD FLAT:??_R0?AVexception@std@@@8 ; std::exception::`RTTI Base Class Descriptor at (0,-1,0,64)'
	DD	00H
	DD	00H
	DD	0ffffffffH
	DD	00H
	DD	040H
	DD	FLAT:??_R3exception@std@@8
rdata$r	ENDS
;	COMDAT ??_R2logic_error@std@@8
rdata$r	SEGMENT
??_R2logic_error@std@@8 DD FLAT:??_R1A@?0A@EA@logic_error@std@@8 ; std::logic_error::`RTTI Base Class Array'
	DD	FLAT:??_R1A@?0A@EA@exception@std@@8
rdata$r	ENDS
;	COMDAT ??_R3logic_error@std@@8
rdata$r	SEGMENT
??_R3logic_error@std@@8 DD 00H				; std::logic_error::`RTTI Class Hierarchy Descriptor'
	DD	00H
	DD	02H
	DD	FLAT:??_R2logic_error@std@@8
rdata$r	ENDS
;	COMDAT ??_R1A@?0A@EA@logic_error@std@@8
rdata$r	SEGMENT
??_R1A@?0A@EA@logic_error@std@@8 DD FLAT:??_R0?AVlogic_error@std@@@8 ; std::logic_error::`RTTI Base Class Descriptor at (0,-1,0,64)'
	DD	01H
	DD	00H
	DD	0ffffffffH
	DD	00H
	DD	040H
	DD	FLAT:??_R3logic_error@std@@8
rdata$r	ENDS
;	COMDAT ??_R1A@?0A@EA@length_error@std@@8
rdata$r	SEGMENT
??_R1A@?0A@EA@length_error@std@@8 DD FLAT:??_R0?AVlength_error@std@@@8 ; std::length_error::`RTTI Base Class Descriptor at (0,-1,0,64)'
	DD	02H
	DD	00H
	DD	0ffffffffH
	DD	00H
	DD	040H
	DD	FLAT:??_R3length_error@std@@8
rdata$r	ENDS
;	COMDAT ??_R2length_error@std@@8
rdata$r	SEGMENT
??_R2length_error@std@@8 DD FLAT:??_R1A@?0A@EA@length_error@std@@8 ; std::length_error::`RTTI Base Class Array'
	DD	FLAT:??_R1A@?0A@EA@logic_error@std@@8
	DD	FLAT:??_R1A@?0A@EA@exception@std@@8
rdata$r	ENDS
;	COMDAT ??_R3length_error@std@@8
rdata$r	SEGMENT
??_R3length_error@std@@8 DD 00H				; std::length_error::`RTTI Class Hierarchy Descriptor'
	DD	00H
	DD	03H
	DD	FLAT:??_R2length_error@std@@8
rdata$r	ENDS
;	COMDAT ??_R4length_error@std@@6B@
rdata$r	SEGMENT
??_R4length_error@std@@6B@ DD 00H			; std::length_error::`RTTI Complete Object Locator'
	DD	00H
	DD	00H
	DD	FLAT:??_R0?AVlength_error@std@@@8
	DD	FLAT:??_R3length_error@std@@8
rdata$r	ENDS
;	COMDAT ??_7length_error@std@@6B@
CONST	SEGMENT
??_7length_error@std@@6B@ DD FLAT:??_R4length_error@std@@6B@ ; std::length_error::`vftable'
	DD	FLAT:??_Elength_error@std@@UAEPAXI@Z
	DD	FLAT:?what@logic_error@std@@UBEPBDXZ
CONST	ENDS
;	COMDAT xdata$x
xdata$x	SEGMENT
__unwindtable$??0length_error@std@@QAE@ABV?$basic_string@DU?$char_traits@D@std@@V?$allocator@D@2@@1@@Z DD 0ffffffffH
	DD	FLAT:__unwindfunclet$??0length_error@std@@QAE@ABV?$basic_string@DU?$char_traits@D@std@@V?$allocator@D@2@@1@@Z$0
__ehfuncinfo$??0length_error@std@@QAE@ABV?$basic_string@DU?$char_traits@D@std@@V?$allocator@D@2@@1@@Z DD 019930522H
	DD	01H
	DD	FLAT:__unwindtable$??0length_error@std@@QAE@ABV?$basic_string@DU?$char_traits@D@std@@V?$allocator@D@2@@1@@Z
	DD	2 DUP(00H)
	DD	2 DUP(00H)
	DD	00H
	DD	00H
; Function compile flags: /Odtp
xdata$x	ENDS
;	COMDAT ??0length_error@std@@QAE@ABV?$basic_string@DU?$char_traits@D@std@@V?$allocator@D@2@@1@@Z
_TEXT	SEGMENT
_this$ = -16						; size = 4
__$EHRec$ = -12						; size = 12
__Message$ = 8						; size = 4
??0length_error@std@@QAE@ABV?$basic_string@DU?$char_traits@D@std@@V?$allocator@D@2@@1@@Z PROC ; std::length_error::length_error, COMDAT
; _this$ = ecx

; 105  : 		{	// construct from message string

	push	ebp
	mov	ebp, esp
	push	-1
	push	__ehhandler$??0length_error@std@@QAE@ABV?$basic_string@DU?$char_traits@D@std@@V?$allocator@D@2@@1@@Z
	mov	eax, DWORD PTR fs:0
	push	eax
	push	ecx
	mov	eax, DWORD PTR ___security_cookie
	xor	eax, ebp
	push	eax
	lea	eax, DWORD PTR __$EHRec$[ebp]
	mov	DWORD PTR fs:0, eax
	mov	DWORD PTR _this$[ebp], ecx
	mov	eax, DWORD PTR __Message$[ebp]
	push	eax
	mov	ecx, DWORD PTR _this$[ebp]
	call	??0logic_error@std@@QAE@ABV?$basic_string@DU?$char_traits@D@std@@V?$allocator@D@2@@1@@Z ; std::logic_error::logic_error
	mov	DWORD PTR __$EHRec$[ebp+8], 0
	mov	ecx, DWORD PTR _this$[ebp]
	mov	DWORD PTR [ecx], OFFSET ??_7length_error@std@@6B@

; 106  : 		}

	mov	DWORD PTR __$EHRec$[ebp+8], -1
	mov	eax, DWORD PTR _this$[ebp]
	mov	ecx, DWORD PTR __$EHRec$[ebp]
	mov	DWORD PTR fs:0, ecx
	pop	ecx
	mov	esp, ebp
	pop	ebp
	ret	4
_TEXT	ENDS
;	COMDAT text$x
text$x	SEGMENT
__unwindfunclet$??0length_error@std@@QAE@ABV?$basic_string@DU?$char_traits@D@std@@V?$allocator@D@2@@1@@Z$0:
	mov	ecx, DWORD PTR _this$[ebp]
	jmp	??1logic_error@std@@UAE@XZ		; std::logic_error::~logic_error
__ehhandler$??0length_error@std@@QAE@ABV?$basic_string@DU?$char_traits@D@std@@V?$allocator@D@2@@1@@Z:
	mov	edx, DWORD PTR [esp+8]
	lea	eax, DWORD PTR [edx+12]
	mov	ecx, DWORD PTR [edx-8]
	xor	ecx, eax
	call	@__security_check_cookie@4
	mov	eax, OFFSET __ehfuncinfo$??0length_error@std@@QAE@ABV?$basic_string@DU?$char_traits@D@std@@V?$allocator@D@2@@1@@Z
	jmp	___CxxFrameHandler3
text$x	ENDS
??0length_error@std@@QAE@ABV?$basic_string@DU?$char_traits@D@std@@V?$allocator@D@2@@1@@Z ENDP ; std::length_error::length_error
PUBLIC	??_7logic_error@std@@6B@			; std::logic_error::`vftable'
PUBLIC	??_R4logic_error@std@@6B@			; std::logic_error::`RTTI Complete Object Locator'
EXTRN	__imp_??1exception@std@@UAE@XZ:PROC
EXTRN	__imp_??0exception@std@@QAE@XZ:PROC
EXTRN	??_Elogic_error@std@@UAEPAXI@Z:PROC		; std::logic_error::`vector deleting destructor'
;	COMDAT ??_R4logic_error@std@@6B@
rdata$r	SEGMENT
??_R4logic_error@std@@6B@ DD 00H			; std::logic_error::`RTTI Complete Object Locator'
	DD	00H
	DD	00H
	DD	FLAT:??_R0?AVlogic_error@std@@@8
	DD	FLAT:??_R3logic_error@std@@8
rdata$r	ENDS
;	COMDAT ??_7logic_error@std@@6B@
CONST	SEGMENT
??_7logic_error@std@@6B@ DD FLAT:??_R4logic_error@std@@6B@ ; std::logic_error::`vftable'
	DD	FLAT:??_Elogic_error@std@@UAEPAXI@Z
	DD	FLAT:?what@logic_error@std@@UBEPBDXZ
CONST	ENDS
;	COMDAT xdata$x
xdata$x	SEGMENT
__unwindtable$??0logic_error@std@@QAE@ABV?$basic_string@DU?$char_traits@D@std@@V?$allocator@D@2@@1@@Z DD 0ffffffffH
	DD	FLAT:__unwindfunclet$??0logic_error@std@@QAE@ABV?$basic_string@DU?$char_traits@D@std@@V?$allocator@D@2@@1@@Z$0
	DD	00H
	DD	FLAT:__unwindfunclet$??0logic_error@std@@QAE@ABV?$basic_string@DU?$char_traits@D@std@@V?$allocator@D@2@@1@@Z$1
__ehfuncinfo$??0logic_error@std@@QAE@ABV?$basic_string@DU?$char_traits@D@std@@V?$allocator@D@2@@1@@Z DD 019930522H
	DD	02H
	DD	FLAT:__unwindtable$??0logic_error@std@@QAE@ABV?$basic_string@DU?$char_traits@D@std@@V?$allocator@D@2@@1@@Z
	DD	2 DUP(00H)
	DD	2 DUP(00H)
	DD	00H
	DD	00H
; Function compile flags: /Odtp
xdata$x	ENDS
;	COMDAT ??0logic_error@std@@QAE@ABV?$basic_string@DU?$char_traits@D@std@@V?$allocator@D@2@@1@@Z
_TEXT	SEGMENT
_this$ = -16						; size = 4
__$EHRec$ = -12						; size = 12
__Message$ = 8						; size = 4
??0logic_error@std@@QAE@ABV?$basic_string@DU?$char_traits@D@std@@V?$allocator@D@2@@1@@Z PROC ; std::logic_error::logic_error, COMDAT
; _this$ = ecx

; 26   : 		{	// construct from message string

	push	ebp
	mov	ebp, esp
	push	-1
	push	__ehhandler$??0logic_error@std@@QAE@ABV?$basic_string@DU?$char_traits@D@std@@V?$allocator@D@2@@1@@Z
	mov	eax, DWORD PTR fs:0
	push	eax
	push	ecx
	mov	eax, DWORD PTR ___security_cookie
	xor	eax, ebp
	push	eax
	lea	eax, DWORD PTR __$EHRec$[ebp]
	mov	DWORD PTR fs:0, eax
	mov	DWORD PTR _this$[ebp], ecx
	mov	ecx, DWORD PTR _this$[ebp]
	call	DWORD PTR __imp_??0exception@std@@QAE@XZ
	mov	DWORD PTR __$EHRec$[ebp+8], 0
	mov	eax, DWORD PTR _this$[ebp]
	mov	DWORD PTR [eax], OFFSET ??_7logic_error@std@@6B@
	mov	ecx, DWORD PTR __Message$[ebp]
	push	ecx
	mov	ecx, DWORD PTR _this$[ebp]
	add	ecx, 12					; 0000000cH
	call	DWORD PTR __imp_??0?$basic_string@DU?$char_traits@D@std@@V?$allocator@D@2@@std@@QAE@ABV01@@Z
	mov	BYTE PTR __$EHRec$[ebp+8], 1

; 27   : 		}

	mov	DWORD PTR __$EHRec$[ebp+8], -1
	mov	eax, DWORD PTR _this$[ebp]
	mov	ecx, DWORD PTR __$EHRec$[ebp]
	mov	DWORD PTR fs:0, ecx
	pop	ecx
	mov	esp, ebp
	pop	ebp
	ret	4
_TEXT	ENDS
;	COMDAT text$x
text$x	SEGMENT
__unwindfunclet$??0logic_error@std@@QAE@ABV?$basic_string@DU?$char_traits@D@std@@V?$allocator@D@2@@1@@Z$0:
	mov	ecx, DWORD PTR _this$[ebp]
	jmp	DWORD PTR __imp_??1exception@std@@UAE@XZ
__unwindfunclet$??0logic_error@std@@QAE@ABV?$basic_string@DU?$char_traits@D@std@@V?$allocator@D@2@@1@@Z$1:
	mov	ecx, DWORD PTR _this$[ebp]
	add	ecx, 12					; 0000000cH
	jmp	DWORD PTR __imp_??1?$basic_string@DU?$char_traits@D@std@@V?$allocator@D@2@@std@@QAE@XZ
__ehhandler$??0logic_error@std@@QAE@ABV?$basic_string@DU?$char_traits@D@std@@V?$allocator@D@2@@1@@Z:
	mov	edx, DWORD PTR [esp+8]
	lea	eax, DWORD PTR [edx+12]
	mov	ecx, DWORD PTR [edx-8]
	xor	ecx, eax
	call	@__security_check_cookie@4
	mov	eax, OFFSET __ehfuncinfo$??0logic_error@std@@QAE@ABV?$basic_string@DU?$char_traits@D@std@@V?$allocator@D@2@@1@@Z
	jmp	___CxxFrameHandler3
text$x	ENDS
??0logic_error@std@@QAE@ABV?$basic_string@DU?$char_traits@D@std@@V?$allocator@D@2@@1@@Z ENDP ; std::logic_error::logic_error
;	COMDAT xdata$x
xdata$x	SEGMENT
__unwindtable$??1logic_error@std@@UAE@XZ DD 0ffffffffH
	DD	FLAT:__unwindfunclet$??1logic_error@std@@UAE@XZ$0
	DD	00H
	DD	FLAT:__unwindfunclet$??1logic_error@std@@UAE@XZ$1
__ehfuncinfo$??1logic_error@std@@UAE@XZ DD 019930522H
	DD	02H
	DD	FLAT:__unwindtable$??1logic_error@std@@UAE@XZ
	DD	2 DUP(00H)
	DD	2 DUP(00H)
	DD	00H
	DD	00H
; Function compile flags: /Odtp
xdata$x	ENDS
;	COMDAT ??1logic_error@std@@UAE@XZ
_TEXT	SEGMENT
_this$ = -16						; size = 4
__$EHRec$ = -12						; size = 12
??1logic_error@std@@UAE@XZ PROC				; std::logic_error::~logic_error, COMDAT
; _this$ = ecx

; 30   : 		{	// destroy the object

	push	ebp
	mov	ebp, esp
	push	-1
	push	__ehhandler$??1logic_error@std@@UAE@XZ
	mov	eax, DWORD PTR fs:0
	push	eax
	push	ecx
	mov	eax, DWORD PTR ___security_cookie
	xor	eax, ebp
	push	eax
	lea	eax, DWORD PTR __$EHRec$[ebp]
	mov	DWORD PTR fs:0, eax
	mov	DWORD PTR _this$[ebp], ecx
	mov	eax, DWORD PTR _this$[ebp]
	mov	DWORD PTR [eax], OFFSET ??_7logic_error@std@@6B@
	mov	DWORD PTR __$EHRec$[ebp+8], 1

; 31   : 		}

	mov	BYTE PTR __$EHRec$[ebp+8], 0
	mov	ecx, DWORD PTR _this$[ebp]
	add	ecx, 12					; 0000000cH
	call	DWORD PTR __imp_??1?$basic_string@DU?$char_traits@D@std@@V?$allocator@D@2@@std@@QAE@XZ
	mov	DWORD PTR __$EHRec$[ebp+8], -1
	mov	ecx, DWORD PTR _this$[ebp]
	call	DWORD PTR __imp_??1exception@std@@UAE@XZ
	mov	ecx, DWORD PTR __$EHRec$[ebp]
	mov	DWORD PTR fs:0, ecx
	pop	ecx
	mov	esp, ebp
	pop	ebp
	ret	0
_TEXT	ENDS
;	COMDAT text$x
text$x	SEGMENT
__unwindfunclet$??1logic_error@std@@UAE@XZ$0:
	mov	ecx, DWORD PTR _this$[ebp]
	jmp	DWORD PTR __imp_??1exception@std@@UAE@XZ
__unwindfunclet$??1logic_error@std@@UAE@XZ$1:
	mov	ecx, DWORD PTR _this$[ebp]
	add	ecx, 12					; 0000000cH
	jmp	DWORD PTR __imp_??1?$basic_string@DU?$char_traits@D@std@@V?$allocator@D@2@@std@@QAE@XZ
__ehhandler$??1logic_error@std@@UAE@XZ:
	mov	edx, DWORD PTR [esp+8]
	lea	eax, DWORD PTR [edx+12]
	mov	ecx, DWORD PTR [edx-8]
	xor	ecx, eax
	call	@__security_check_cookie@4
	mov	eax, OFFSET __ehfuncinfo$??1logic_error@std@@UAE@XZ
	jmp	___CxxFrameHandler3
text$x	ENDS
??1logic_error@std@@UAE@XZ ENDP				; std::logic_error::~logic_error
EXTRN	__imp_?c_str@?$basic_string@DU?$char_traits@D@std@@V?$allocator@D@2@@std@@QBEPBDXZ:PROC
; Function compile flags: /Odtp
;	COMDAT ?what@logic_error@std@@UBEPBDXZ
_TEXT	SEGMENT
_this$ = -4						; size = 4
?what@logic_error@std@@UBEPBDXZ PROC			; std::logic_error::what, COMDAT
; _this$ = ecx

; 34   : 		{	// return pointer to message string

	push	ebp
	mov	ebp, esp
	push	ecx
	mov	DWORD PTR _this$[ebp], ecx

; 35   : 		return (_Str.c_str());

	mov	ecx, DWORD PTR _this$[ebp]
	add	ecx, 12					; 0000000cH
	call	DWORD PTR __imp_?c_str@?$basic_string@DU?$char_traits@D@std@@V?$allocator@D@2@@std@@QBEPBDXZ

; 36   : 		}

	mov	esp, ebp
	pop	ebp
	ret	0
?what@logic_error@std@@UBEPBDXZ ENDP			; std::logic_error::what
; Function compile flags: /Odtp
_TEXT	ENDS
;	COMDAT ??_Glogic_error@std@@UAEPAXI@Z
_TEXT	SEGMENT
_this$ = -4						; size = 4
___flags$ = 8						; size = 4
??_Glogic_error@std@@UAEPAXI@Z PROC			; std::logic_error::`scalar deleting destructor', COMDAT
; _this$ = ecx
	push	ebp
	mov	ebp, esp
	push	ecx
	mov	DWORD PTR _this$[ebp], ecx
	mov	ecx, DWORD PTR _this$[ebp]
	call	??1logic_error@std@@UAE@XZ		; std::logic_error::~logic_error
	mov	eax, DWORD PTR ___flags$[ebp]
	and	eax, 1
	je	SHORT $LN1@scalar@9
	mov	ecx, DWORD PTR _this$[ebp]
	push	ecx
	call	??3@YAXPAX@Z				; operator delete
	add	esp, 4
$LN1@scalar@9:
	mov	eax, DWORD PTR _this$[ebp]
	mov	esp, ebp
	pop	ebp
	ret	4
??_Glogic_error@std@@UAEPAXI@Z ENDP			; std::logic_error::`scalar deleting destructor'
_TEXT	ENDS
;	COMDAT xdata$x
xdata$x	SEGMENT
__unwindtable$??1length_error@std@@UAE@XZ DD 0ffffffffH
	DD	FLAT:__unwindfunclet$??1length_error@std@@UAE@XZ$0
__ehfuncinfo$??1length_error@std@@UAE@XZ DD 019930522H
	DD	01H
	DD	FLAT:__unwindtable$??1length_error@std@@UAE@XZ
	DD	2 DUP(00H)
	DD	2 DUP(00H)
	DD	00H
	DD	00H
; Function compile flags: /Odtp
xdata$x	ENDS
;	COMDAT ??1length_error@std@@UAE@XZ
_TEXT	SEGMENT
_this$ = -16						; size = 4
__$EHRec$ = -12						; size = 12
??1length_error@std@@UAE@XZ PROC			; std::length_error::~length_error, COMDAT
; _this$ = ecx

; 109  : 		{	// destroy the object

	push	ebp
	mov	ebp, esp
	push	-1
	push	__ehhandler$??1length_error@std@@UAE@XZ
	mov	eax, DWORD PTR fs:0
	push	eax
	push	ecx
	mov	eax, DWORD PTR ___security_cookie
	xor	eax, ebp
	push	eax
	lea	eax, DWORD PTR __$EHRec$[ebp]
	mov	DWORD PTR fs:0, eax
	mov	DWORD PTR _this$[ebp], ecx
	mov	eax, DWORD PTR _this$[ebp]
	mov	DWORD PTR [eax], OFFSET ??_7length_error@std@@6B@
	mov	DWORD PTR __$EHRec$[ebp+8], 0

; 110  : 		}

	mov	DWORD PTR __$EHRec$[ebp+8], -1
	mov	ecx, DWORD PTR _this$[ebp]
	call	??1logic_error@std@@UAE@XZ		; std::logic_error::~logic_error
	mov	ecx, DWORD PTR __$EHRec$[ebp]
	mov	DWORD PTR fs:0, ecx
	pop	ecx
	mov	esp, ebp
	pop	ebp
	ret	0
_TEXT	ENDS
;	COMDAT text$x
text$x	SEGMENT
__unwindfunclet$??1length_error@std@@UAE@XZ$0:
	mov	ecx, DWORD PTR _this$[ebp]
	jmp	??1logic_error@std@@UAE@XZ		; std::logic_error::~logic_error
__ehhandler$??1length_error@std@@UAE@XZ:
	mov	edx, DWORD PTR [esp+8]
	lea	eax, DWORD PTR [edx+12]
	mov	ecx, DWORD PTR [edx-8]
	xor	ecx, eax
	call	@__security_check_cookie@4
	mov	eax, OFFSET __ehfuncinfo$??1length_error@std@@UAE@XZ
	jmp	___CxxFrameHandler3
text$x	ENDS
??1length_error@std@@UAE@XZ ENDP			; std::length_error::~length_error
; Function compile flags: /Odtp
;	COMDAT ??_Glength_error@std@@UAEPAXI@Z
_TEXT	SEGMENT
_this$ = -4						; size = 4
___flags$ = 8						; size = 4
??_Glength_error@std@@UAEPAXI@Z PROC			; std::length_error::`scalar deleting destructor', COMDAT
; _this$ = ecx
	push	ebp
	mov	ebp, esp
	push	ecx
	mov	DWORD PTR _this$[ebp], ecx
	mov	ecx, DWORD PTR _this$[ebp]
	call	??1length_error@std@@UAE@XZ		; std::length_error::~length_error
	mov	eax, DWORD PTR ___flags$[ebp]
	and	eax, 1
	je	SHORT $LN1@scalar@10
	mov	ecx, DWORD PTR _this$[ebp]
	push	ecx
	call	??3@YAXPAX@Z				; operator delete
	add	esp, 4
$LN1@scalar@10:
	mov	eax, DWORD PTR _this$[ebp]
	mov	esp, ebp
	pop	ebp
	ret	4
??_Glength_error@std@@UAEPAXI@Z ENDP			; std::length_error::`scalar deleting destructor'
_TEXT	ENDS
EXTRN	__imp_??0exception@std@@QAE@ABV01@@Z:PROC
;	COMDAT xdata$x
xdata$x	SEGMENT
__unwindtable$??0logic_error@std@@QAE@ABV01@@Z DD 0ffffffffH
	DD	FLAT:__unwindfunclet$??0logic_error@std@@QAE@ABV01@@Z$0
	DD	00H
	DD	FLAT:__unwindfunclet$??0logic_error@std@@QAE@ABV01@@Z$1
__ehfuncinfo$??0logic_error@std@@QAE@ABV01@@Z DD 019930522H
	DD	02H
	DD	FLAT:__unwindtable$??0logic_error@std@@QAE@ABV01@@Z
	DD	2 DUP(00H)
	DD	2 DUP(00H)
	DD	00H
	DD	00H
; Function compile flags: /Odtp
xdata$x	ENDS
;	COMDAT ??0logic_error@std@@QAE@ABV01@@Z
_TEXT	SEGMENT
_this$ = -16						; size = 4
__$EHRec$ = -12						; size = 12
___that$ = 8						; size = 4
??0logic_error@std@@QAE@ABV01@@Z PROC			; std::logic_error::logic_error, COMDAT
; _this$ = ecx
	push	ebp
	mov	ebp, esp
	push	-1
	push	__ehhandler$??0logic_error@std@@QAE@ABV01@@Z
	mov	eax, DWORD PTR fs:0
	push	eax
	push	ecx
	mov	eax, DWORD PTR ___security_cookie
	xor	eax, ebp
	push	eax
	lea	eax, DWORD PTR __$EHRec$[ebp]
	mov	DWORD PTR fs:0, eax
	mov	DWORD PTR _this$[ebp], ecx
	mov	eax, DWORD PTR ___that$[ebp]
	push	eax
	mov	ecx, DWORD PTR _this$[ebp]
	call	DWORD PTR __imp_??0exception@std@@QAE@ABV01@@Z
	mov	DWORD PTR __$EHRec$[ebp+8], 0
	mov	ecx, DWORD PTR _this$[ebp]
	mov	DWORD PTR [ecx], OFFSET ??_7logic_error@std@@6B@
	mov	edx, DWORD PTR ___that$[ebp]
	add	edx, 12					; 0000000cH
	push	edx
	mov	ecx, DWORD PTR _this$[ebp]
	add	ecx, 12					; 0000000cH
	call	DWORD PTR __imp_??0?$basic_string@DU?$char_traits@D@std@@V?$allocator@D@2@@std@@QAE@ABV01@@Z
	mov	BYTE PTR __$EHRec$[ebp+8], 1
	mov	DWORD PTR __$EHRec$[ebp+8], -1
	mov	eax, DWORD PTR _this$[ebp]
	mov	ecx, DWORD PTR __$EHRec$[ebp]
	mov	DWORD PTR fs:0, ecx
	pop	ecx
	mov	esp, ebp
	pop	ebp
	ret	4
_TEXT	ENDS
;	COMDAT text$x
text$x	SEGMENT
__unwindfunclet$??0logic_error@std@@QAE@ABV01@@Z$0:
	mov	ecx, DWORD PTR _this$[ebp]
	jmp	DWORD PTR __imp_??1exception@std@@UAE@XZ
__unwindfunclet$??0logic_error@std@@QAE@ABV01@@Z$1:
	mov	ecx, DWORD PTR _this$[ebp]
	add	ecx, 12					; 0000000cH
	jmp	DWORD PTR __imp_??1?$basic_string@DU?$char_traits@D@std@@V?$allocator@D@2@@std@@QAE@XZ
__ehhandler$??0logic_error@std@@QAE@ABV01@@Z:
	mov	edx, DWORD PTR [esp+8]
	lea	eax, DWORD PTR [edx+12]
	mov	ecx, DWORD PTR [edx-8]
	xor	ecx, eax
	call	@__security_check_cookie@4
	mov	eax, OFFSET __ehfuncinfo$??0logic_error@std@@QAE@ABV01@@Z
	jmp	___CxxFrameHandler3
text$x	ENDS
??0logic_error@std@@QAE@ABV01@@Z ENDP			; std::logic_error::logic_error
; Function compile flags: /Odtp
; File d:\program files (x86)\microsoft visual studio 9.0\vc\include\xmemory
;	COMDAT ?deallocate@?$allocator@V?$basic_string@DU?$char_traits@D@std@@V?$allocator@D@2@@std@@@std@@QAEXPAV?$basic_string@DU?$char_traits@D@std@@V?$allocator@D@2@@2@I@Z
_TEXT	SEGMENT
_this$ = -4						; size = 4
__Ptr$ = 8						; size = 4
___formal$ = 12						; size = 4
?deallocate@?$allocator@V?$basic_string@DU?$char_traits@D@std@@V?$allocator@D@2@@std@@@std@@QAEXPAV?$basic_string@DU?$char_traits@D@std@@V?$allocator@D@2@@2@I@Z PROC ; std::allocator<std::basic_string<char,std::char_traits<char>,std::allocator<char> > >::deallocate, COMDAT
; _this$ = ecx

; 139  : 		{	// deallocate object at _Ptr, ignore size

	push	ebp
	mov	ebp, esp
	push	ecx
	mov	DWORD PTR _this$[ebp], ecx

; 140  : 		::operator delete(_Ptr);

	mov	eax, DWORD PTR __Ptr$[ebp]
	push	eax
	call	??3@YAXPAX@Z				; operator delete
	add	esp, 4

; 141  : 		}

	mov	esp, ebp
	pop	ebp
	ret	8
?deallocate@?$allocator@V?$basic_string@DU?$char_traits@D@std@@V?$allocator@D@2@@std@@@std@@QAEXPAV?$basic_string@DU?$char_traits@D@std@@V?$allocator@D@2@@2@I@Z ENDP ; std::allocator<std::basic_string<char,std::char_traits<char>,std::allocator<char> > >::deallocate
_TEXT	ENDS
PUBLIC	??$_Allocate@V?$basic_string@DU?$char_traits@D@std@@V?$allocator@D@2@@std@@@std@@YAPAV?$basic_string@DU?$char_traits@D@std@@V?$allocator@D@2@@0@IPAV10@@Z ; std::_Allocate<std::basic_string<char,std::char_traits<char>,std::allocator<char> > >
; Function compile flags: /Odtp
;	COMDAT ?allocate@?$allocator@V?$basic_string@DU?$char_traits@D@std@@V?$allocator@D@2@@std@@@std@@QAEPAV?$basic_string@DU?$char_traits@D@std@@V?$allocator@D@2@@2@I@Z
_TEXT	SEGMENT
_this$ = -4						; size = 4
__Count$ = 8						; size = 4
?allocate@?$allocator@V?$basic_string@DU?$char_traits@D@std@@V?$allocator@D@2@@std@@@std@@QAEPAV?$basic_string@DU?$char_traits@D@std@@V?$allocator@D@2@@2@I@Z PROC ; std::allocator<std::basic_string<char,std::char_traits<char>,std::allocator<char> > >::allocate, COMDAT
; _this$ = ecx

; 144  : 		{	// allocate array of _Count elements

	push	ebp
	mov	ebp, esp
	push	ecx
	mov	DWORD PTR _this$[ebp], ecx

; 145  : 		return (_Allocate(_Count, (pointer)0));

	push	0
	mov	eax, DWORD PTR __Count$[ebp]
	push	eax
	call	??$_Allocate@V?$basic_string@DU?$char_traits@D@std@@V?$allocator@D@2@@std@@@std@@YAPAV?$basic_string@DU?$char_traits@D@std@@V?$allocator@D@2@@0@IPAV10@@Z ; std::_Allocate<std::basic_string<char,std::char_traits<char>,std::allocator<char> > >
	add	esp, 8

; 146  : 		}

	mov	esp, ebp
	pop	ebp
	ret	4
?allocate@?$allocator@V?$basic_string@DU?$char_traits@D@std@@V?$allocator@D@2@@std@@@std@@QAEPAV?$basic_string@DU?$char_traits@D@std@@V?$allocator@D@2@@2@I@Z ENDP ; std::allocator<std::basic_string<char,std::char_traits<char>,std::allocator<char> > >::allocate
_TEXT	ENDS
PUBLIC	??0?$_Vector_const_iterator@V?$basic_string@DU?$char_traits@D@std@@V?$allocator@D@2@@std@@V?$allocator@V?$basic_string@DU?$char_traits@D@std@@V?$allocator@D@2@@std@@@2@@std@@QAE@PAV?$basic_string@DU?$char_traits@D@std@@V?$allocator@D@2@@1@PBV_Container_base_aux@1@@Z ; std::_Vector_const_iterator<std::basic_string<char,std::char_traits<char>,std::allocator<char> >,std::allocator<std::basic_string<char,std::char_traits<char>,std::allocator<char> > > >::_Vector_const_iterator<std::basic_string<char,std::char_traits<char>,std::allocator<char> >,std::allocator<std::basic_string<char,std::char_traits<char>,std::allocator<char> > > >
; Function compile flags: /Odtp
; File d:\program files (x86)\microsoft visual studio 9.0\vc\include\vector
;	COMDAT ??0?$_Vector_iterator@V?$basic_string@DU?$char_traits@D@std@@V?$allocator@D@2@@std@@V?$allocator@V?$basic_string@DU?$char_traits@D@std@@V?$allocator@D@2@@std@@@2@@std@@QAE@PAV?$basic_string@DU?$char_traits@D@std@@V?$allocator@D@2@@1@PBV_Container_base_aux@1@@Z
_TEXT	SEGMENT
_this$ = -4						; size = 4
__Ptr$ = 8						; size = 4
__Pvector$ = 12						; size = 4
??0?$_Vector_iterator@V?$basic_string@DU?$char_traits@D@std@@V?$allocator@D@2@@std@@V?$allocator@V?$basic_string@DU?$char_traits@D@std@@V?$allocator@D@2@@std@@@2@@std@@QAE@PAV?$basic_string@DU?$char_traits@D@std@@V?$allocator@D@2@@1@PBV_Container_base_aux@1@@Z PROC ; std::_Vector_iterator<std::basic_string<char,std::char_traits<char>,std::allocator<char> >,std::allocator<std::basic_string<char,std::char_traits<char>,std::allocator<char> > > >::_Vector_iterator<std::basic_string<char,std::char_traits<char>,std::allocator<char> >,std::allocator<std::basic_string<char,std::char_traits<char>,std::allocator<char> > > >, COMDAT
; _this$ = ecx

; 327  : 		{	// construct with pointer _Ptr

	push	ebp
	mov	ebp, esp
	push	ecx
	mov	DWORD PTR _this$[ebp], ecx
	mov	eax, DWORD PTR __Pvector$[ebp]
	push	eax
	mov	ecx, DWORD PTR __Ptr$[ebp]
	push	ecx
	mov	ecx, DWORD PTR _this$[ebp]
	call	??0?$_Vector_const_iterator@V?$basic_string@DU?$char_traits@D@std@@V?$allocator@D@2@@std@@V?$allocator@V?$basic_string@DU?$char_traits@D@std@@V?$allocator@D@2@@std@@@2@@std@@QAE@PAV?$basic_string@DU?$char_traits@D@std@@V?$allocator@D@2@@1@PBV_Container_base_aux@1@@Z ; std::_Vector_const_iterator<std::basic_string<char,std::char_traits<char>,std::allocator<char> >,std::allocator<std::basic_string<char,std::char_traits<char>,std::allocator<char> > > >::_Vector_const_iterator<std::basic_string<char,std::char_traits<char>,std::allocator<char> >,std::allocator<std::basic_string<char,std::char_traits<char>,std::allocator<char> > > >

; 328  : 		}

	mov	eax, DWORD PTR _this$[ebp]
	mov	esp, ebp
	pop	ebp
	ret	8
??0?$_Vector_iterator@V?$basic_string@DU?$char_traits@D@std@@V?$allocator@D@2@@std@@V?$allocator@V?$basic_string@DU?$char_traits@D@std@@V?$allocator@D@2@@std@@@2@@std@@QAE@PAV?$basic_string@DU?$char_traits@D@std@@V?$allocator@D@2@@1@PBV_Container_base_aux@1@@Z ENDP ; std::_Vector_iterator<std::basic_string<char,std::char_traits<char>,std::allocator<char> >,std::allocator<std::basic_string<char,std::char_traits<char>,std::allocator<char> > > >::_Vector_iterator<std::basic_string<char,std::char_traits<char>,std::allocator<char> >,std::allocator<std::basic_string<char,std::char_traits<char>,std::allocator<char> > > >
_TEXT	ENDS
PUBLIC	??Y?$_Vector_const_iterator@V?$basic_string@DU?$char_traits@D@std@@V?$allocator@D@2@@std@@V?$allocator@V?$basic_string@DU?$char_traits@D@std@@V?$allocator@D@2@@std@@@2@@std@@QAEAAV01@H@Z ; std::_Vector_const_iterator<std::basic_string<char,std::char_traits<char>,std::allocator<char> >,std::allocator<std::basic_string<char,std::char_traits<char>,std::allocator<char> > > >::operator+=
; Function compile flags: /Odtp
;	COMDAT ??Y?$_Vector_iterator@V?$basic_string@DU?$char_traits@D@std@@V?$allocator@D@2@@std@@V?$allocator@V?$basic_string@DU?$char_traits@D@std@@V?$allocator@D@2@@std@@@2@@std@@QAEAAV01@H@Z
_TEXT	SEGMENT
_this$ = -4						; size = 4
__Off$ = 8						; size = 4
??Y?$_Vector_iterator@V?$basic_string@DU?$char_traits@D@std@@V?$allocator@D@2@@std@@V?$allocator@V?$basic_string@DU?$char_traits@D@std@@V?$allocator@D@2@@std@@@2@@std@@QAEAAV01@H@Z PROC ; std::_Vector_iterator<std::basic_string<char,std::char_traits<char>,std::allocator<char> >,std::allocator<std::basic_string<char,std::char_traits<char>,std::allocator<char> > > >::operator+=, COMDAT
; _this$ = ecx

; 374  : 		{	// increment by integer

	push	ebp
	mov	ebp, esp
	push	ecx
	mov	DWORD PTR _this$[ebp], ecx

; 375  : 		(*(_Mybase *)this) += _Off;

	mov	eax, DWORD PTR __Off$[ebp]
	push	eax
	mov	ecx, DWORD PTR _this$[ebp]
	call	??Y?$_Vector_const_iterator@V?$basic_string@DU?$char_traits@D@std@@V?$allocator@D@2@@std@@V?$allocator@V?$basic_string@DU?$char_traits@D@std@@V?$allocator@D@2@@std@@@2@@std@@QAEAAV01@H@Z ; std::_Vector_const_iterator<std::basic_string<char,std::char_traits<char>,std::allocator<char> >,std::allocator<std::basic_string<char,std::char_traits<char>,std::allocator<char> > > >::operator+=

; 376  : 		return (*this);

	mov	eax, DWORD PTR _this$[ebp]

; 377  : 		}

	mov	esp, ebp
	pop	ebp
	ret	4
??Y?$_Vector_iterator@V?$basic_string@DU?$char_traits@D@std@@V?$allocator@D@2@@std@@V?$allocator@V?$basic_string@DU?$char_traits@D@std@@V?$allocator@D@2@@std@@@2@@std@@QAEAAV01@H@Z ENDP ; std::_Vector_iterator<std::basic_string<char,std::char_traits<char>,std::allocator<char> >,std::allocator<std::basic_string<char,std::char_traits<char>,std::allocator<char> > > >::operator+=
_TEXT	ENDS
PUBLIC	??8?$_Vector_const_iterator@V?$basic_string@DU?$char_traits@D@std@@V?$allocator@D@2@@std@@V?$allocator@V?$basic_string@DU?$char_traits@D@std@@V?$allocator@D@2@@std@@@2@@std@@QBE_NABV01@@Z ; std::_Vector_const_iterator<std::basic_string<char,std::char_traits<char>,std::allocator<char> >,std::allocator<std::basic_string<char,std::char_traits<char>,std::allocator<char> > > >::operator==
; Function compile flags: /Odtp
;	COMDAT ??9?$_Vector_const_iterator@V?$basic_string@DU?$char_traits@D@std@@V?$allocator@D@2@@std@@V?$allocator@V?$basic_string@DU?$char_traits@D@std@@V?$allocator@D@2@@std@@@2@@std@@QBE_NABV01@@Z
_TEXT	SEGMENT
_this$ = -4						; size = 4
__Right$ = 8						; size = 4
??9?$_Vector_const_iterator@V?$basic_string@DU?$char_traits@D@std@@V?$allocator@D@2@@std@@V?$allocator@V?$basic_string@DU?$char_traits@D@std@@V?$allocator@D@2@@std@@@2@@std@@QBE_NABV01@@Z PROC ; std::_Vector_const_iterator<std::basic_string<char,std::char_traits<char>,std::allocator<char> >,std::allocator<std::basic_string<char,std::char_traits<char>,std::allocator<char> > > >::operator!=, COMDAT
; _this$ = ecx

; 215  : 		{	// test for iterator inequality

	push	ebp
	mov	ebp, esp
	push	ecx
	mov	DWORD PTR _this$[ebp], ecx

; 216  : 		return (!(*this == _Right));

	mov	eax, DWORD PTR __Right$[ebp]
	push	eax
	mov	ecx, DWORD PTR _this$[ebp]
	call	??8?$_Vector_const_iterator@V?$basic_string@DU?$char_traits@D@std@@V?$allocator@D@2@@std@@V?$allocator@V?$basic_string@DU?$char_traits@D@std@@V?$allocator@D@2@@std@@@2@@std@@QBE_NABV01@@Z ; std::_Vector_const_iterator<std::basic_string<char,std::char_traits<char>,std::allocator<char> >,std::allocator<std::basic_string<char,std::char_traits<char>,std::allocator<char> > > >::operator==
	movzx	eax, al
	neg	eax
	sbb	eax, eax
	add	eax, 1

; 217  : 		}

	mov	esp, ebp
	pop	ebp
	ret	4
??9?$_Vector_const_iterator@V?$basic_string@DU?$char_traits@D@std@@V?$allocator@D@2@@std@@V?$allocator@V?$basic_string@DU?$char_traits@D@std@@V?$allocator@D@2@@std@@@2@@std@@QBE_NABV01@@Z ENDP ; std::_Vector_const_iterator<std::basic_string<char,std::char_traits<char>,std::allocator<char> >,std::allocator<std::basic_string<char,std::char_traits<char>,std::allocator<char> > > >::operator!=
_TEXT	ENDS
;	COMDAT xdata$x
xdata$x	SEGMENT
__unwindtable$??0length_error@std@@QAE@ABV01@@Z DD 0ffffffffH
	DD	FLAT:__unwindfunclet$??0length_error@std@@QAE@ABV01@@Z$0
__ehfuncinfo$??0length_error@std@@QAE@ABV01@@Z DD 019930522H
	DD	01H
	DD	FLAT:__unwindtable$??0length_error@std@@QAE@ABV01@@Z
	DD	2 DUP(00H)
	DD	2 DUP(00H)
	DD	00H
	DD	00H
; Function compile flags: /Odtp
xdata$x	ENDS
;	COMDAT ??0length_error@std@@QAE@ABV01@@Z
_TEXT	SEGMENT
_this$ = -16						; size = 4
__$EHRec$ = -12						; size = 12
___that$ = 8						; size = 4
??0length_error@std@@QAE@ABV01@@Z PROC			; std::length_error::length_error, COMDAT
; _this$ = ecx
	push	ebp
	mov	ebp, esp
	push	-1
	push	__ehhandler$??0length_error@std@@QAE@ABV01@@Z
	mov	eax, DWORD PTR fs:0
	push	eax
	push	ecx
	mov	eax, DWORD PTR ___security_cookie
	xor	eax, ebp
	push	eax
	lea	eax, DWORD PTR __$EHRec$[ebp]
	mov	DWORD PTR fs:0, eax
	mov	DWORD PTR _this$[ebp], ecx
	mov	eax, DWORD PTR ___that$[ebp]
	push	eax
	mov	ecx, DWORD PTR _this$[ebp]
	call	??0logic_error@std@@QAE@ABV01@@Z
	mov	DWORD PTR __$EHRec$[ebp+8], 0
	mov	ecx, DWORD PTR _this$[ebp]
	mov	DWORD PTR [ecx], OFFSET ??_7length_error@std@@6B@
	mov	DWORD PTR __$EHRec$[ebp+8], -1
	mov	eax, DWORD PTR _this$[ebp]
	mov	ecx, DWORD PTR __$EHRec$[ebp]
	mov	DWORD PTR fs:0, ecx
	pop	ecx
	mov	esp, ebp
	pop	ebp
	ret	4
_TEXT	ENDS
;	COMDAT text$x
text$x	SEGMENT
__unwindfunclet$??0length_error@std@@QAE@ABV01@@Z$0:
	mov	ecx, DWORD PTR _this$[ebp]
	jmp	??1logic_error@std@@UAE@XZ		; std::logic_error::~logic_error
__ehhandler$??0length_error@std@@QAE@ABV01@@Z:
	mov	edx, DWORD PTR [esp+8]
	lea	eax, DWORD PTR [edx+12]
	mov	ecx, DWORD PTR [edx-8]
	xor	ecx, eax
	call	@__security_check_cookie@4
	mov	eax, OFFSET __ehfuncinfo$??0length_error@std@@QAE@ABV01@@Z
	jmp	___CxxFrameHandler3
text$x	ENDS
??0length_error@std@@QAE@ABV01@@Z ENDP			; std::length_error::length_error
; Function compile flags: /Odtp
; File d:\program files (x86)\microsoft visual studio 9.0\vc\include\xmemory
;	COMDAT ?max_size@?$allocator@V?$basic_string@DU?$char_traits@D@std@@V?$allocator@D@2@@std@@@std@@QBEIXZ
_TEXT	SEGMENT
tv65 = -12						; size = 4
_this$ = -8						; size = 4
__Count$ = -4						; size = 4
?max_size@?$allocator@V?$basic_string@DU?$char_traits@D@std@@V?$allocator@D@2@@std@@@std@@QBEIXZ PROC ; std::allocator<std::basic_string<char,std::char_traits<char>,std::allocator<char> > >::max_size, COMDAT
; _this$ = ecx

; 164  : 		{	// estimate maximum array size

	push	ebp
	mov	ebp, esp
	sub	esp, 12					; 0000000cH
	mov	DWORD PTR _this$[ebp], ecx

; 165  : 		_SIZT _Count = (_SIZT)(-1) / sizeof (_Ty);

	mov	DWORD PTR __Count$[ebp], 153391689	; 09249249H

; 166  : 		return (0 < _Count ? _Count : 1);

	cmp	DWORD PTR __Count$[ebp], 0
	jbe	SHORT $LN3@max_size
	mov	eax, DWORD PTR __Count$[ebp]
	mov	DWORD PTR tv65[ebp], eax
	jmp	SHORT $LN4@max_size
$LN3@max_size:
	mov	DWORD PTR tv65[ebp], 1
$LN4@max_size:
	mov	eax, DWORD PTR tv65[ebp]

; 167  : 		}

	mov	esp, ebp
	pop	ebp
	ret	0
?max_size@?$allocator@V?$basic_string@DU?$char_traits@D@std@@V?$allocator@D@2@@std@@@std@@QBEIXZ ENDP ; std::allocator<std::basic_string<char,std::char_traits<char>,std::allocator<char> > >::max_size
_TEXT	ENDS
PUBLIC	?_Set_container@_Iterator_base_aux@std@@QAEXQBV_Container_base_aux@2@@Z ; std::_Iterator_base_aux::_Set_container
PUBLIC	??0?$_Ranit@V?$basic_string@DU?$char_traits@D@std@@V?$allocator@D@2@@std@@HPBV12@ABV12@@std@@QAE@XZ ; std::_Ranit<std::basic_string<char,std::char_traits<char>,std::allocator<char> >,int,std::basic_string<char,std::char_traits<char>,std::allocator<char> > const *,std::basic_string<char,std::char_traits<char>,std::allocator<char> > const &>::_Ranit<std::basic_string<char,std::char_traits<char>,std::allocator<char> >,int,std::basic_string<char,std::char_traits<char>,std::allocator<char> > const *,std::basic_string<char,std::char_traits<char>,std::allocator<char> > const &>
; Function compile flags: /Odtp
; File d:\program files (x86)\microsoft visual studio 9.0\vc\include\vector
;	COMDAT ??0?$_Vector_const_iterator@V?$basic_string@DU?$char_traits@D@std@@V?$allocator@D@2@@std@@V?$allocator@V?$basic_string@DU?$char_traits@D@std@@V?$allocator@D@2@@std@@@2@@std@@QAE@PAV?$basic_string@DU?$char_traits@D@std@@V?$allocator@D@2@@1@PBV_Container_base_aux@1@@Z
_TEXT	SEGMENT
_this$ = -4						; size = 4
__Ptr$ = 8						; size = 4
__Pvector$ = 12						; size = 4
??0?$_Vector_const_iterator@V?$basic_string@DU?$char_traits@D@std@@V?$allocator@D@2@@std@@V?$allocator@V?$basic_string@DU?$char_traits@D@std@@V?$allocator@D@2@@std@@@2@@std@@QAE@PAV?$basic_string@DU?$char_traits@D@std@@V?$allocator@D@2@@1@PBV_Container_base_aux@1@@Z PROC ; std::_Vector_const_iterator<std::basic_string<char,std::char_traits<char>,std::allocator<char> >,std::allocator<std::basic_string<char,std::char_traits<char>,std::allocator<char> > > >::_Vector_const_iterator<std::basic_string<char,std::char_traits<char>,std::allocator<char> >,std::allocator<std::basic_string<char,std::char_traits<char>,std::allocator<char> > > >, COMDAT
; _this$ = ecx

; 76   : 	_Vector_const_iterator(_Tptr _Ptr, const _Container_base *_Pvector)

	push	ebp
	mov	ebp, esp
	push	ecx
	mov	DWORD PTR _this$[ebp], ecx
	mov	ecx, DWORD PTR _this$[ebp]
	call	??0?$_Ranit@V?$basic_string@DU?$char_traits@D@std@@V?$allocator@D@2@@std@@HPBV12@ABV12@@std@@QAE@XZ

; 77   : 		{	// construct with pointer _Ptr
; 78   : 		_SCL_SECURE_VALIDATE(_Pvector != NULL && ((_Myvec *)_Pvector)->_Myfirst <= _Ptr && _Ptr <= ((_Myvec *)_Pvector)->_Mylast);

	cmp	DWORD PTR __Pvector$[ebp], 0
	je	SHORT $LN1@Vector_con
	mov	eax, DWORD PTR __Pvector$[ebp]
	mov	ecx, DWORD PTR [eax+12]
	cmp	ecx, DWORD PTR __Ptr$[ebp]
	ja	SHORT $LN1@Vector_con
	mov	edx, DWORD PTR __Pvector$[ebp]
	mov	eax, DWORD PTR __Ptr$[ebp]
	cmp	eax, DWORD PTR [edx+16]
	jbe	SHORT $LN2@Vector_con
$LN1@Vector_con:
	call	DWORD PTR __imp___invalid_parameter_noinfo
$LN2@Vector_con:

; 79   : 		this->_Set_container(_Pvector);

	mov	ecx, DWORD PTR __Pvector$[ebp]
	push	ecx
	mov	ecx, DWORD PTR _this$[ebp]
	call	?_Set_container@_Iterator_base_aux@std@@QAEXQBV_Container_base_aux@2@@Z ; std::_Iterator_base_aux::_Set_container

; 80   : 		_Myptr = _Ptr;

	mov	edx, DWORD PTR _this$[ebp]
	mov	eax, DWORD PTR __Ptr$[ebp]
	mov	DWORD PTR [edx+4], eax

; 81   : 		}

	mov	eax, DWORD PTR _this$[ebp]
	mov	esp, ebp
	pop	ebp
	ret	8
??0?$_Vector_const_iterator@V?$basic_string@DU?$char_traits@D@std@@V?$allocator@D@2@@std@@V?$allocator@V?$basic_string@DU?$char_traits@D@std@@V?$allocator@D@2@@std@@@2@@std@@QAE@PAV?$basic_string@DU?$char_traits@D@std@@V?$allocator@D@2@@1@PBV_Container_base_aux@1@@Z ENDP ; std::_Vector_const_iterator<std::basic_string<char,std::char_traits<char>,std::allocator<char> >,std::allocator<std::basic_string<char,std::char_traits<char>,std::allocator<char> > > >::_Vector_const_iterator<std::basic_string<char,std::char_traits<char>,std::allocator<char> >,std::allocator<std::basic_string<char,std::char_traits<char>,std::allocator<char> > > >
; Function compile flags: /Odtp
; File d:\program files (x86)\microsoft visual studio 9.0\vc\include\xutility
_TEXT	ENDS
;	COMDAT ?_Set_container@_Iterator_base_aux@std@@QAEXQBV_Container_base_aux@2@@Z
_TEXT	SEGMENT
_this$ = -4						; size = 4
__Pcont$ = 8						; size = 4
?_Set_container@_Iterator_base_aux@std@@QAEXQBV_Container_base_aux@2@@Z PROC ; std::_Iterator_base_aux::_Set_container, COMDAT
; _this$ = ecx

; 452  : 		{

	push	ebp
	mov	ebp, esp
	push	ecx
	mov	DWORD PTR _this$[ebp], ecx

; 453  : 		_Myaux = _Pcont->_Myownedaux;

	mov	eax, DWORD PTR _this$[ebp]
	mov	ecx, DWORD PTR __Pcont$[ebp]
	mov	edx, DWORD PTR [ecx]
	mov	DWORD PTR [eax], edx

; 454  : 		}

	mov	esp, ebp
	pop	ebp
	ret	4
?_Set_container@_Iterator_base_aux@std@@QAEXQBV_Container_base_aux@2@@Z ENDP ; std::_Iterator_base_aux::_Set_container
_TEXT	ENDS
PUBLIC	?_Getmycont@_Iterator_base_aux@std@@QBEPBV_Container_base_aux@2@XZ ; std::_Iterator_base_aux::_Getmycont
PUBLIC	?_Has_container@_Iterator_base_aux@std@@QBE_NXZ	; std::_Iterator_base_aux::_Has_container
; Function compile flags: /Odtp
; File d:\program files (x86)\microsoft visual studio 9.0\vc\include\vector
;	COMDAT ??Y?$_Vector_const_iterator@V?$basic_string@DU?$char_traits@D@std@@V?$allocator@D@2@@std@@V?$allocator@V?$basic_string@DU?$char_traits@D@std@@V?$allocator@D@2@@std@@@2@@std@@QAEAAV01@H@Z
_TEXT	SEGMENT
_this$ = -4						; size = 4
__Off$ = 8						; size = 4
??Y?$_Vector_const_iterator@V?$basic_string@DU?$char_traits@D@std@@V?$allocator@D@2@@std@@V?$allocator@V?$basic_string@DU?$char_traits@D@std@@V?$allocator@D@2@@std@@@2@@std@@QAEAAV01@H@Z PROC ; std::_Vector_const_iterator<std::basic_string<char,std::char_traits<char>,std::allocator<char> >,std::allocator<std::basic_string<char,std::char_traits<char>,std::allocator<char> > > >::operator+=, COMDAT
; _this$ = ecx

; 159  : 		{	// increment by integer

	push	ebp
	mov	ebp, esp
	push	ecx
	push	esi
	mov	DWORD PTR _this$[ebp], ecx

; 160  : 		_SCL_SECURE_VALIDATE(this->_Has_container());

	mov	ecx, DWORD PTR _this$[ebp]
	call	?_Has_container@_Iterator_base_aux@std@@QBE_NXZ ; std::_Iterator_base_aux::_Has_container
	movzx	eax, al
	test	eax, eax
	jne	SHORT $LN3@operator@5
	call	DWORD PTR __imp___invalid_parameter_noinfo
$LN3@operator@5:

; 161  : 		_SCL_SECURE_VALIDATE_RANGE(

	mov	esi, DWORD PTR __Off$[ebp]
	imul	esi, 28					; 0000001cH
	mov	ecx, DWORD PTR _this$[ebp]
	add	esi, DWORD PTR [ecx+4]
	mov	ecx, DWORD PTR _this$[ebp]
	call	?_Getmycont@_Iterator_base_aux@std@@QBEPBV_Container_base_aux@2@XZ ; std::_Iterator_base_aux::_Getmycont
	cmp	esi, DWORD PTR [eax+16]
	ja	SHORT $LN1@operator@5
	mov	esi, DWORD PTR __Off$[ebp]
	imul	esi, 28					; 0000001cH
	mov	edx, DWORD PTR _this$[ebp]
	add	esi, DWORD PTR [edx+4]
	mov	ecx, DWORD PTR _this$[ebp]
	call	?_Getmycont@_Iterator_base_aux@std@@QBEPBV_Container_base_aux@2@XZ ; std::_Iterator_base_aux::_Getmycont
	cmp	esi, DWORD PTR [eax+12]
	jae	SHORT $LN2@operator@5
$LN1@operator@5:

; 162  : 			_Myptr + _Off <= ((_Myvec *)(this->_Getmycont()))->_Mylast &&
; 163  : 			_Myptr + _Off >= ((_Myvec *)(this->_Getmycont()))->_Myfirst);

	call	DWORD PTR __imp___invalid_parameter_noinfo
$LN2@operator@5:

; 164  : 		_Myptr += _Off;

	mov	eax, DWORD PTR __Off$[ebp]
	imul	eax, 28					; 0000001cH
	mov	ecx, DWORD PTR _this$[ebp]
	add	eax, DWORD PTR [ecx+4]
	mov	edx, DWORD PTR _this$[ebp]
	mov	DWORD PTR [edx+4], eax

; 165  : 		return (*this);

	mov	eax, DWORD PTR _this$[ebp]

; 166  : 		}

	pop	esi
	mov	esp, ebp
	pop	ebp
	ret	4
??Y?$_Vector_const_iterator@V?$basic_string@DU?$char_traits@D@std@@V?$allocator@D@2@@std@@V?$allocator@V?$basic_string@DU?$char_traits@D@std@@V?$allocator@D@2@@std@@@2@@std@@QAEAAV01@H@Z ENDP ; std::_Vector_const_iterator<std::basic_string<char,std::char_traits<char>,std::allocator<char> >,std::allocator<std::basic_string<char,std::char_traits<char>,std::allocator<char> > > >::operator+=
_TEXT	ENDS
PUBLIC	?_Getcont@_Aux_cont@std@@QBEPBV_Container_base_aux@2@XZ ; std::_Aux_cont::_Getcont
; Function compile flags: /Odtp
; File d:\program files (x86)\microsoft visual studio 9.0\vc\include\xutility
;	COMDAT ?_Getmycont@_Iterator_base_aux@std@@QBEPBV_Container_base_aux@2@XZ
_TEXT	SEGMENT
tv67 = -8						; size = 4
_this$ = -4						; size = 4
?_Getmycont@_Iterator_base_aux@std@@QBEPBV_Container_base_aux@2@XZ PROC ; std::_Iterator_base_aux::_Getmycont, COMDAT
; _this$ = ecx

; 457  : 		{	// Go through the aux object to get the container

	push	ebp
	mov	ebp, esp
	sub	esp, 8
	mov	DWORD PTR _this$[ebp], ecx

; 458  : 		return _Myaux ? _Myaux->_Getcont() : 0;

	mov	eax, DWORD PTR _this$[ebp]
	cmp	DWORD PTR [eax], 0
	je	SHORT $LN3@Getmycont
	mov	ecx, DWORD PTR _this$[ebp]
	mov	ecx, DWORD PTR [ecx]
	call	?_Getcont@_Aux_cont@std@@QBEPBV_Container_base_aux@2@XZ ; std::_Aux_cont::_Getcont
	mov	DWORD PTR tv67[ebp], eax
	jmp	SHORT $LN4@Getmycont
$LN3@Getmycont:
	mov	DWORD PTR tv67[ebp], 0
$LN4@Getmycont:
	mov	eax, DWORD PTR tv67[ebp]

; 459  : 		}

	mov	esp, ebp
	pop	ebp
	ret	0
?_Getmycont@_Iterator_base_aux@std@@QBEPBV_Container_base_aux@2@XZ ENDP ; std::_Iterator_base_aux::_Getmycont
; Function compile flags: /Odtp
_TEXT	ENDS
;	COMDAT ?_Getcont@_Aux_cont@std@@QBEPBV_Container_base_aux@2@XZ
_TEXT	SEGMENT
_this$ = -4						; size = 4
?_Getcont@_Aux_cont@std@@QBEPBV_Container_base_aux@2@XZ PROC ; std::_Aux_cont::_Getcont, COMDAT
; _this$ = ecx

; 368  : 		{

	push	ebp
	mov	ebp, esp
	push	ecx
	mov	DWORD PTR _this$[ebp], ecx

; 369  : 		return _Mycontainer;

	mov	eax, DWORD PTR _this$[ebp]
	mov	eax, DWORD PTR [eax]

; 370  : 		}

	mov	esp, ebp
	pop	ebp
	ret	0
?_Getcont@_Aux_cont@std@@QBEPBV_Container_base_aux@2@XZ ENDP ; std::_Aux_cont::_Getcont
; Function compile flags: /Odtp
_TEXT	ENDS
;	COMDAT ?_Has_container@_Iterator_base_aux@std@@QBE_NXZ
_TEXT	SEGMENT
_this$ = -4						; size = 4
?_Has_container@_Iterator_base_aux@std@@QBE_NXZ PROC	; std::_Iterator_base_aux::_Has_container, COMDAT
; _this$ = ecx

; 467  : 		{	// Accelerate the comparison by not going through the aux object

	push	ebp
	mov	ebp, esp
	push	ecx
	mov	DWORD PTR _this$[ebp], ecx

; 468  : 		return _Myaux != 0;

	mov	eax, DWORD PTR _this$[ebp]
	xor	ecx, ecx
	cmp	DWORD PTR [eax], 0
	setne	cl
	mov	al, cl

; 469  : 		}

	mov	esp, ebp
	pop	ebp
	ret	0
?_Has_container@_Iterator_base_aux@std@@QBE_NXZ ENDP	; std::_Iterator_base_aux::_Has_container
_TEXT	ENDS
PUBLIC	?_Same_container@_Iterator_base_aux@std@@QBE_NABV12@@Z ; std::_Iterator_base_aux::_Same_container
; Function compile flags: /Odtp
; File d:\program files (x86)\microsoft visual studio 9.0\vc\include\vector
;	COMDAT ??8?$_Vector_const_iterator@V?$basic_string@DU?$char_traits@D@std@@V?$allocator@D@2@@std@@V?$allocator@V?$basic_string@DU?$char_traits@D@std@@V?$allocator@D@2@@std@@@2@@std@@QBE_NABV01@@Z
_TEXT	SEGMENT
_this$ = -4						; size = 4
__Right$ = 8						; size = 4
??8?$_Vector_const_iterator@V?$basic_string@DU?$char_traits@D@std@@V?$allocator@D@2@@std@@V?$allocator@V?$basic_string@DU?$char_traits@D@std@@V?$allocator@D@2@@std@@@2@@std@@QBE_NABV01@@Z PROC ; std::_Vector_const_iterator<std::basic_string<char,std::char_traits<char>,std::allocator<char> >,std::allocator<std::basic_string<char,std::char_traits<char>,std::allocator<char> > > >::operator==, COMDAT
; _this$ = ecx

; 203  : 		{	// test for iterator equality

	push	ebp
	mov	ebp, esp
	push	ecx
	mov	DWORD PTR _this$[ebp], ecx

; 204  : 
; 205  :  #if _HAS_ITERATOR_DEBUGGING
; 206  : 		_Compat(_Right);
; 207  :  #else
; 208  : 		_SCL_SECURE_VALIDATE(this->_Has_container() && this->_Same_container(_Right));

	mov	ecx, DWORD PTR _this$[ebp]
	call	?_Has_container@_Iterator_base_aux@std@@QBE_NXZ ; std::_Iterator_base_aux::_Has_container
	movzx	eax, al
	test	eax, eax
	je	SHORT $LN1@operator@6
	mov	ecx, DWORD PTR __Right$[ebp]
	push	ecx
	mov	ecx, DWORD PTR _this$[ebp]
	call	?_Same_container@_Iterator_base_aux@std@@QBE_NABV12@@Z ; std::_Iterator_base_aux::_Same_container
	movzx	edx, al
	test	edx, edx
	jne	SHORT $LN2@operator@6
$LN1@operator@6:
	call	DWORD PTR __imp___invalid_parameter_noinfo
$LN2@operator@6:

; 209  :  #endif /* _HAS_ITERATOR_DEBUGGING */
; 210  : 
; 211  : 		return (_Myptr == _Right._Myptr);

	mov	eax, DWORD PTR _this$[ebp]
	mov	ecx, DWORD PTR __Right$[ebp]
	mov	edx, DWORD PTR [eax+4]
	xor	eax, eax
	cmp	edx, DWORD PTR [ecx+4]
	sete	al

; 212  : 		}

	mov	esp, ebp
	pop	ebp
	ret	4
??8?$_Vector_const_iterator@V?$basic_string@DU?$char_traits@D@std@@V?$allocator@D@2@@std@@V?$allocator@V?$basic_string@DU?$char_traits@D@std@@V?$allocator@D@2@@std@@@2@@std@@QBE_NABV01@@Z ENDP ; std::_Vector_const_iterator<std::basic_string<char,std::char_traits<char>,std::allocator<char> >,std::allocator<std::basic_string<char,std::char_traits<char>,std::allocator<char> > > >::operator==
; Function compile flags: /Odtp
; File d:\program files (x86)\microsoft visual studio 9.0\vc\include\xutility
_TEXT	ENDS
;	COMDAT ?_Same_container@_Iterator_base_aux@std@@QBE_NABV12@@Z
_TEXT	SEGMENT
_this$ = -4						; size = 4
__Other$ = 8						; size = 4
?_Same_container@_Iterator_base_aux@std@@QBE_NABV12@@Z PROC ; std::_Iterator_base_aux::_Same_container, COMDAT
; _this$ = ecx

; 462  : 		{	// Accelerate the comparison by not going through the aux object

	push	ebp
	mov	ebp, esp
	push	ecx
	mov	DWORD PTR _this$[ebp], ecx

; 463  : 		return _Myaux == _Other._Myaux;

	mov	eax, DWORD PTR _this$[ebp]
	mov	ecx, DWORD PTR __Other$[ebp]
	mov	edx, DWORD PTR [eax]
	xor	eax, eax
	cmp	edx, DWORD PTR [ecx]
	sete	al

; 464  : 		}

	mov	esp, ebp
	pop	ebp
	ret	4
?_Same_container@_Iterator_base_aux@std@@QBE_NABV12@@Z ENDP ; std::_Iterator_base_aux::_Same_container
_TEXT	ENDS
PUBLIC	??0?$_Iterator_with_base@Urandom_access_iterator_tag@std@@V?$basic_string@DU?$char_traits@D@std@@V?$allocator@D@2@@2@HPBV32@ABV32@V_Iterator_base_aux@2@@std@@QAE@XZ ; std::_Iterator_with_base<std::random_access_iterator_tag,std::basic_string<char,std::char_traits<char>,std::allocator<char> >,int,std::basic_string<char,std::char_traits<char>,std::allocator<char> > const *,std::basic_string<char,std::char_traits<char>,std::allocator<char> > const &,std::_Iterator_base_aux>::_Iterator_with_base<std::random_access_iterator_tag,std::basic_string<char,std::char_traits<char>,std::allocator<char> >,int,std::basic_string<char,std::char_traits<char>,std::allocator<char> > const *,std::basic_string<char,std::char_traits<char>,std::allocator<char> > const &,std::_Iterator_base_aux>
; Function compile flags: /Odtp
;	COMDAT ??0?$_Ranit@V?$basic_string@DU?$char_traits@D@std@@V?$allocator@D@2@@std@@HPBV12@ABV12@@std@@QAE@XZ
_TEXT	SEGMENT
_this$ = -4						; size = 4
??0?$_Ranit@V?$basic_string@DU?$char_traits@D@std@@V?$allocator@D@2@@std@@HPBV12@ABV12@@std@@QAE@XZ PROC ; std::_Ranit<std::basic_string<char,std::char_traits<char>,std::allocator<char> >,int,std::basic_string<char,std::char_traits<char>,std::allocator<char> > const *,std::basic_string<char,std::char_traits<char>,std::allocator<char> > const &>::_Ranit<std::basic_string<char,std::char_traits<char>,std::allocator<char> >,int,std::basic_string<char,std::char_traits<char>,std::allocator<char> > const *,std::basic_string<char,std::char_traits<char>,std::allocator<char> > const &>, COMDAT
; _this$ = ecx
	push	ebp
	mov	ebp, esp
	push	ecx
	mov	DWORD PTR _this$[ebp], ecx
	mov	ecx, DWORD PTR _this$[ebp]
	call	??0?$_Iterator_with_base@Urandom_access_iterator_tag@std@@V?$basic_string@DU?$char_traits@D@std@@V?$allocator@D@2@@2@HPBV32@ABV32@V_Iterator_base_aux@2@@std@@QAE@XZ
	mov	eax, DWORD PTR _this$[ebp]
	mov	esp, ebp
	pop	ebp
	ret	0
??0?$_Ranit@V?$basic_string@DU?$char_traits@D@std@@V?$allocator@D@2@@std@@HPBV12@ABV12@@std@@QAE@XZ ENDP ; std::_Ranit<std::basic_string<char,std::char_traits<char>,std::allocator<char> >,int,std::basic_string<char,std::char_traits<char>,std::allocator<char> > const *,std::basic_string<char,std::char_traits<char>,std::allocator<char> > const &>::_Ranit<std::basic_string<char,std::char_traits<char>,std::allocator<char> >,int,std::basic_string<char,std::char_traits<char>,std::allocator<char> > const *,std::basic_string<char,std::char_traits<char>,std::allocator<char> > const &>
_TEXT	ENDS
PUBLIC	??0_Iterator_base_aux@std@@QAE@XZ		; std::_Iterator_base_aux::_Iterator_base_aux
; Function compile flags: /Odtp
;	COMDAT ??0?$_Iterator_with_base@Urandom_access_iterator_tag@std@@V?$basic_string@DU?$char_traits@D@std@@V?$allocator@D@2@@2@HPBV32@ABV32@V_Iterator_base_aux@2@@std@@QAE@XZ
_TEXT	SEGMENT
_this$ = -4						; size = 4
??0?$_Iterator_with_base@Urandom_access_iterator_tag@std@@V?$basic_string@DU?$char_traits@D@std@@V?$allocator@D@2@@2@HPBV32@ABV32@V_Iterator_base_aux@2@@std@@QAE@XZ PROC ; std::_Iterator_with_base<std::random_access_iterator_tag,std::basic_string<char,std::char_traits<char>,std::allocator<char> >,int,std::basic_string<char,std::char_traits<char>,std::allocator<char> > const *,std::basic_string<char,std::char_traits<char>,std::allocator<char> > const &,std::_Iterator_base_aux>::_Iterator_with_base<std::random_access_iterator_tag,std::basic_string<char,std::char_traits<char>,std::allocator<char> >,int,std::basic_string<char,std::char_traits<char>,std::allocator<char> > const *,std::basic_string<char,std::char_traits<char>,std::allocator<char> > const &,std::_Iterator_base_aux>, COMDAT
; _this$ = ecx
	push	ebp
	mov	ebp, esp
	push	ecx
	mov	DWORD PTR _this$[ebp], ecx
	mov	ecx, DWORD PTR _this$[ebp]
	call	??0_Iterator_base_aux@std@@QAE@XZ	; std::_Iterator_base_aux::_Iterator_base_aux
	mov	eax, DWORD PTR _this$[ebp]
	mov	esp, ebp
	pop	ebp
	ret	0
??0?$_Iterator_with_base@Urandom_access_iterator_tag@std@@V?$basic_string@DU?$char_traits@D@std@@V?$allocator@D@2@@2@HPBV32@ABV32@V_Iterator_base_aux@2@@std@@QAE@XZ ENDP ; std::_Iterator_with_base<std::random_access_iterator_tag,std::basic_string<char,std::char_traits<char>,std::allocator<char> >,int,std::basic_string<char,std::char_traits<char>,std::allocator<char> > const *,std::basic_string<char,std::char_traits<char>,std::allocator<char> > const &,std::_Iterator_base_aux>::_Iterator_with_base<std::random_access_iterator_tag,std::basic_string<char,std::char_traits<char>,std::allocator<char> >,int,std::basic_string<char,std::char_traits<char>,std::allocator<char> > const *,std::basic_string<char,std::char_traits<char>,std::allocator<char> > const &,std::_Iterator_base_aux>
; Function compile flags: /Odtp
_TEXT	ENDS
;	COMDAT ??0_Iterator_base_aux@std@@QAE@XZ
_TEXT	SEGMENT
_this$ = -4						; size = 4
??0_Iterator_base_aux@std@@QAE@XZ PROC			; std::_Iterator_base_aux::_Iterator_base_aux, COMDAT
; _this$ = ecx

; 448  : 	_Iterator_base_aux()

	push	ebp
	mov	ebp, esp
	push	ecx
	mov	DWORD PTR _this$[ebp], ecx
	mov	eax, DWORD PTR _this$[ebp]
	mov	DWORD PTR [eax], 0
	mov	eax, DWORD PTR _this$[ebp]
	mov	esp, ebp
	pop	ebp
	ret	0
??0_Iterator_base_aux@std@@QAE@XZ ENDP			; std::_Iterator_base_aux::_Iterator_base_aux
_TEXT	ENDS
PUBLIC	??$_Copy_opt@PAV?$basic_string@DU?$char_traits@D@std@@V?$allocator@D@2@@std@@PAV12@@std@@YAPAV?$basic_string@DU?$char_traits@D@std@@V?$allocator@D@2@@0@PAV10@00Urandom_access_iterator_tag@0@U_Nonscalar_ptr_iterator_tag@0@U_Range_checked_iterator_tag@0@@Z ; std::_Copy_opt<std::basic_string<char,std::char_traits<char>,std::allocator<char> > *,std::basic_string<char,std::char_traits<char>,std::allocator<char> > *>
PUBLIC	??$_Checked_base@PAV?$basic_string@DU?$char_traits@D@std@@V?$allocator@D@2@@std@@@std@@YAPAV?$basic_string@DU?$char_traits@D@std@@V?$allocator@D@2@@0@AAPAV10@@Z ; std::_Checked_base<std::basic_string<char,std::char_traits<char>,std::allocator<char> > *>
PUBLIC	??$_Iter_random@PAV?$basic_string@DU?$char_traits@D@std@@V?$allocator@D@2@@std@@PAV12@@std@@YA?AUrandom_access_iterator_tag@0@ABQAV?$basic_string@DU?$char_traits@D@std@@V?$allocator@D@2@@0@0@Z ; std::_Iter_random<std::basic_string<char,std::char_traits<char>,std::allocator<char> > *,std::basic_string<char,std::char_traits<char>,std::allocator<char> > *>
PUBLIC	??$_Ptr_cat@PAV?$basic_string@DU?$char_traits@D@std@@V?$allocator@D@2@@std@@PAV12@@std@@YA?AU_Nonscalar_ptr_iterator_tag@0@AAPAV?$basic_string@DU?$char_traits@D@std@@V?$allocator@D@2@@0@0@Z ; std::_Ptr_cat<std::basic_string<char,std::char_traits<char>,std::allocator<char> > *,std::basic_string<char,std::char_traits<char>,std::allocator<char> > *>
; Function compile flags: /Odtp
;	COMDAT ??$unchecked_copy@PAV?$basic_string@DU?$char_traits@D@std@@V?$allocator@D@2@@std@@PAV12@@stdext@@YAPAV?$basic_string@DU?$char_traits@D@std@@V?$allocator@D@2@@std@@PAV12@00@Z
_TEXT	SEGMENT
$T62708 = -3						; size = 1
$T62707 = -2						; size = 1
$T62706 = -1						; size = 1
__First$ = 8						; size = 4
__Last$ = 12						; size = 4
__Dest$ = 16						; size = 4
??$unchecked_copy@PAV?$basic_string@DU?$char_traits@D@std@@V?$allocator@D@2@@std@@PAV12@@stdext@@YAPAV?$basic_string@DU?$char_traits@D@std@@V?$allocator@D@2@@std@@PAV12@00@Z PROC ; stdext::unchecked_copy<std::basic_string<char,std::char_traits<char>,std::allocator<char> > *,std::basic_string<char,std::char_traits<char>,std::allocator<char> > *>, COMDAT

; 3604 : 	{	// copy [_First, _Last) to [_Dest, ...)

	push	ebp
	mov	ebp, esp
	push	ecx

; 3605 : 		return (_STD _Copy_opt(_CHECKED_BASE(_First), _CHECKED_BASE(_Last), _Dest,
; 3606 : 			_STD _Iter_random(_First, _Dest), _STD _Ptr_cat(_First, _Dest), _STD _Range_checked_iterator_tag()));

	xor	eax, eax
	mov	BYTE PTR $T62706[ebp], al
	lea	ecx, DWORD PTR __Dest$[ebp]
	push	ecx
	lea	edx, DWORD PTR __First$[ebp]
	push	edx
	call	??$_Ptr_cat@PAV?$basic_string@DU?$char_traits@D@std@@V?$allocator@D@2@@std@@PAV12@@std@@YA?AU_Nonscalar_ptr_iterator_tag@0@AAPAV?$basic_string@DU?$char_traits@D@std@@V?$allocator@D@2@@0@0@Z ; std::_Ptr_cat<std::basic_string<char,std::char_traits<char>,std::allocator<char> > *,std::basic_string<char,std::char_traits<char>,std::allocator<char> > *>
	add	esp, 8
	mov	BYTE PTR $T62707[ebp], al
	movzx	eax, BYTE PTR $T62706[ebp]
	push	eax
	movzx	ecx, BYTE PTR $T62707[ebp]
	push	ecx
	lea	edx, DWORD PTR __Dest$[ebp]
	push	edx
	lea	eax, DWORD PTR __First$[ebp]
	push	eax
	lea	ecx, DWORD PTR $T62708[ebp]
	push	ecx
	call	??$_Iter_random@PAV?$basic_string@DU?$char_traits@D@std@@V?$allocator@D@2@@std@@PAV12@@std@@YA?AUrandom_access_iterator_tag@0@ABQAV?$basic_string@DU?$char_traits@D@std@@V?$allocator@D@2@@0@0@Z ; std::_Iter_random<std::basic_string<char,std::char_traits<char>,std::allocator<char> > *,std::basic_string<char,std::char_traits<char>,std::allocator<char> > *>
	add	esp, 12					; 0000000cH
	movzx	edx, BYTE PTR [eax]
	push	edx
	mov	eax, DWORD PTR __Dest$[ebp]
	push	eax
	lea	ecx, DWORD PTR __Last$[ebp]
	push	ecx
	call	??$_Checked_base@PAV?$basic_string@DU?$char_traits@D@std@@V?$allocator@D@2@@std@@@std@@YAPAV?$basic_string@DU?$char_traits@D@std@@V?$allocator@D@2@@0@AAPAV10@@Z ; std::_Checked_base<std::basic_string<char,std::char_traits<char>,std::allocator<char> > *>
	add	esp, 4
	push	eax
	lea	edx, DWORD PTR __First$[ebp]
	push	edx
	call	??$_Checked_base@PAV?$basic_string@DU?$char_traits@D@std@@V?$allocator@D@2@@std@@@std@@YAPAV?$basic_string@DU?$char_traits@D@std@@V?$allocator@D@2@@0@AAPAV10@@Z ; std::_Checked_base<std::basic_string<char,std::char_traits<char>,std::allocator<char> > *>
	add	esp, 4
	push	eax
	call	??$_Copy_opt@PAV?$basic_string@DU?$char_traits@D@std@@V?$allocator@D@2@@std@@PAV12@@std@@YAPAV?$basic_string@DU?$char_traits@D@std@@V?$allocator@D@2@@0@PAV10@00Urandom_access_iterator_tag@0@U_Nonscalar_ptr_iterator_tag@0@U_Range_checked_iterator_tag@0@@Z ; std::_Copy_opt<std::basic_string<char,std::char_traits<char>,std::allocator<char> > *,std::basic_string<char,std::char_traits<char>,std::allocator<char> > *>
	add	esp, 24					; 00000018H

; 3607 : 	}

	mov	esp, ebp
	pop	ebp
	ret	0
??$unchecked_copy@PAV?$basic_string@DU?$char_traits@D@std@@V?$allocator@D@2@@std@@PAV12@@stdext@@YAPAV?$basic_string@DU?$char_traits@D@std@@V?$allocator@D@2@@std@@PAV12@00@Z ENDP ; stdext::unchecked_copy<std::basic_string<char,std::char_traits<char>,std::allocator<char> > *,std::basic_string<char,std::char_traits<char>,std::allocator<char> > *>
_TEXT	ENDS
PUBLIC	??$_Unchecked_uninitialized_move@PAV?$basic_string@DU?$char_traits@D@std@@V?$allocator@D@2@@std@@PAV12@V?$allocator@V?$basic_string@DU?$char_traits@D@std@@V?$allocator@D@2@@std@@@2@@stdext@@YAPAV?$basic_string@DU?$char_traits@D@std@@V?$allocator@D@2@@std@@PAV12@00AAV?$allocator@V?$basic_string@DU?$char_traits@D@std@@V?$allocator@D@2@@std@@@2@@Z ; stdext::_Unchecked_uninitialized_move<std::basic_string<char,std::char_traits<char>,std::allocator<char> > *,std::basic_string<char,std::char_traits<char>,std::allocator<char> > *,std::allocator<std::basic_string<char,std::char_traits<char>,std::allocator<char> > > >
; Function compile flags: /Odtp
; File d:\program files (x86)\microsoft visual studio 9.0\vc\include\vector
;	COMDAT ??$_Umove@PAV?$basic_string@DU?$char_traits@D@std@@V?$allocator@D@2@@std@@@?$vector@V?$basic_string@DU?$char_traits@D@std@@V?$allocator@D@2@@std@@V?$allocator@V?$basic_string@DU?$char_traits@D@std@@V?$allocator@D@2@@std@@@2@@std@@IAEPAV?$basic_string@DU?$char_traits@D@std@@V?$allocator@D@2@@1@PAV21@00@Z
_TEXT	SEGMENT
_this$ = -4						; size = 4
__First$ = 8						; size = 4
__Last$ = 12						; size = 4
__Ptr$ = 16						; size = 4
??$_Umove@PAV?$basic_string@DU?$char_traits@D@std@@V?$allocator@D@2@@std@@@?$vector@V?$basic_string@DU?$char_traits@D@std@@V?$allocator@D@2@@std@@V?$allocator@V?$basic_string@DU?$char_traits@D@std@@V?$allocator@D@2@@std@@@2@@std@@IAEPAV?$basic_string@DU?$char_traits@D@std@@V?$allocator@D@2@@1@PAV21@00@Z PROC ; std::vector<std::basic_string<char,std::char_traits<char>,std::allocator<char> >,std::allocator<std::basic_string<char,std::char_traits<char>,std::allocator<char> > > >::_Umove<std::basic_string<char,std::char_traits<char>,std::allocator<char> > *>, COMDAT
; _this$ = ecx

; 1145 : 		pointer _Umove(_Iter _First, _Iter _Last, pointer _Ptr)

	push	ebp
	mov	ebp, esp
	push	ecx
	mov	DWORD PTR _this$[ebp], ecx

; 1146 : 		{	// move initializing [_First, _Last), using allocator
; 1147 : 		return (_STDEXT _Unchecked_uninitialized_move(_First, _Last,
; 1148 : 			_Ptr, this->_Alval));

	mov	eax, DWORD PTR _this$[ebp]
	add	eax, 8
	push	eax
	mov	ecx, DWORD PTR __Ptr$[ebp]
	push	ecx
	mov	edx, DWORD PTR __Last$[ebp]
	push	edx
	mov	eax, DWORD PTR __First$[ebp]
	push	eax
	call	??$_Unchecked_uninitialized_move@PAV?$basic_string@DU?$char_traits@D@std@@V?$allocator@D@2@@std@@PAV12@V?$allocator@V?$basic_string@DU?$char_traits@D@std@@V?$allocator@D@2@@std@@@2@@stdext@@YAPAV?$basic_string@DU?$char_traits@D@std@@V?$allocator@D@2@@std@@PAV12@00AAV?$allocator@V?$basic_string@DU?$char_traits@D@std@@V?$allocator@D@2@@std@@@2@@Z ; stdext::_Unchecked_uninitialized_move<std::basic_string<char,std::char_traits<char>,std::allocator<char> > *,std::basic_string<char,std::char_traits<char>,std::allocator<char> > *,std::allocator<std::basic_string<char,std::char_traits<char>,std::allocator<char> > > >
	add	esp, 16					; 00000010H

; 1149 : 		}

	mov	esp, ebp
	pop	ebp
	ret	12					; 0000000cH
??$_Umove@PAV?$basic_string@DU?$char_traits@D@std@@V?$allocator@D@2@@std@@@?$vector@V?$basic_string@DU?$char_traits@D@std@@V?$allocator@D@2@@std@@V?$allocator@V?$basic_string@DU?$char_traits@D@std@@V?$allocator@D@2@@std@@@2@@std@@IAEPAV?$basic_string@DU?$char_traits@D@std@@V?$allocator@D@2@@1@PAV21@00@Z ENDP ; std::vector<std::basic_string<char,std::char_traits<char>,std::allocator<char> >,std::allocator<std::basic_string<char,std::char_traits<char>,std::allocator<char> > > >::_Umove<std::basic_string<char,std::char_traits<char>,std::allocator<char> > *>
_TEXT	ENDS
PUBLIC	??$_Fill@PAV?$basic_string@DU?$char_traits@D@std@@V?$allocator@D@2@@std@@V12@@std@@YAXPAV?$basic_string@DU?$char_traits@D@std@@V?$allocator@D@2@@0@0ABV10@@Z ; std::_Fill<std::basic_string<char,std::char_traits<char>,std::allocator<char> > *,std::basic_string<char,std::char_traits<char>,std::allocator<char> > >
; Function compile flags: /Odtp
; File d:\program files (x86)\microsoft visual studio 9.0\vc\include\xutility
;	COMDAT ??$fill@PAV?$basic_string@DU?$char_traits@D@std@@V?$allocator@D@2@@std@@V12@@std@@YAXPAV?$basic_string@DU?$char_traits@D@std@@V?$allocator@D@2@@0@0ABV10@@Z
_TEXT	SEGMENT
__First$ = 8						; size = 4
__Last$ = 12						; size = 4
__Val$ = 16						; size = 4
??$fill@PAV?$basic_string@DU?$char_traits@D@std@@V?$allocator@D@2@@std@@V12@@std@@YAXPAV?$basic_string@DU?$char_traits@D@std@@V?$allocator@D@2@@0@0ABV10@@Z PROC ; std::fill<std::basic_string<char,std::char_traits<char>,std::allocator<char> > *,std::basic_string<char,std::char_traits<char>,std::allocator<char> > >, COMDAT

; 3186 : 	{	// copy _Val through [_First, _Last)

	push	ebp
	mov	ebp, esp

; 3187 : 	_Fill(_CHECKED_BASE(_First), _CHECKED_BASE(_Last), _Val);

	mov	eax, DWORD PTR __Val$[ebp]
	push	eax
	lea	ecx, DWORD PTR __Last$[ebp]
	push	ecx
	call	??$_Checked_base@PAV?$basic_string@DU?$char_traits@D@std@@V?$allocator@D@2@@std@@@std@@YAPAV?$basic_string@DU?$char_traits@D@std@@V?$allocator@D@2@@0@AAPAV10@@Z ; std::_Checked_base<std::basic_string<char,std::char_traits<char>,std::allocator<char> > *>
	add	esp, 4
	push	eax
	lea	edx, DWORD PTR __First$[ebp]
	push	edx
	call	??$_Checked_base@PAV?$basic_string@DU?$char_traits@D@std@@V?$allocator@D@2@@std@@@std@@YAPAV?$basic_string@DU?$char_traits@D@std@@V?$allocator@D@2@@0@AAPAV10@@Z ; std::_Checked_base<std::basic_string<char,std::char_traits<char>,std::allocator<char> > *>
	add	esp, 4
	push	eax
	call	??$_Fill@PAV?$basic_string@DU?$char_traits@D@std@@V?$allocator@D@2@@std@@V12@@std@@YAXPAV?$basic_string@DU?$char_traits@D@std@@V?$allocator@D@2@@0@0ABV10@@Z ; std::_Fill<std::basic_string<char,std::char_traits<char>,std::allocator<char> > *,std::basic_string<char,std::char_traits<char>,std::allocator<char> > >
	add	esp, 12					; 0000000cH

; 3188 : 	}

	pop	ebp
	ret	0
??$fill@PAV?$basic_string@DU?$char_traits@D@std@@V?$allocator@D@2@@std@@V12@@std@@YAXPAV?$basic_string@DU?$char_traits@D@std@@V?$allocator@D@2@@0@0ABV10@@Z ENDP ; std::fill<std::basic_string<char,std::char_traits<char>,std::allocator<char> > *,std::basic_string<char,std::char_traits<char>,std::allocator<char> > >
_TEXT	ENDS
PUBLIC	??$_Move_backward_opt@PAV?$basic_string@DU?$char_traits@D@std@@V?$allocator@D@2@@std@@PAV12@@std@@YAPAV?$basic_string@DU?$char_traits@D@std@@V?$allocator@D@2@@0@PAV10@00Urandom_access_iterator_tag@0@U_Swap_move_tag@0@U_Range_checked_iterator_tag@0@@Z ; std::_Move_backward_opt<std::basic_string<char,std::char_traits<char>,std::allocator<char> > *,std::basic_string<char,std::char_traits<char>,std::allocator<char> > *>
PUBLIC	??$_Move_cat@PAV?$basic_string@DU?$char_traits@D@std@@V?$allocator@D@2@@std@@@std@@YA?AU_Swap_move_tag@0@ABQAV?$basic_string@DU?$char_traits@D@std@@V?$allocator@D@2@@0@@Z ; std::_Move_cat<std::basic_string<char,std::char_traits<char>,std::allocator<char> > *>
; Function compile flags: /Odtp
;	COMDAT ??$_Unchecked_move_backward@PAV?$basic_string@DU?$char_traits@D@std@@V?$allocator@D@2@@std@@PAV12@@stdext@@YAPAV?$basic_string@DU?$char_traits@D@std@@V?$allocator@D@2@@std@@PAV12@00@Z
_TEXT	SEGMENT
$T62717 = -3						; size = 1
$T62716 = -2						; size = 1
$T62715 = -1						; size = 1
__First$ = 8						; size = 4
__Last$ = 12						; size = 4
__Dest$ = 16						; size = 4
??$_Unchecked_move_backward@PAV?$basic_string@DU?$char_traits@D@std@@V?$allocator@D@2@@std@@PAV12@@stdext@@YAPAV?$basic_string@DU?$char_traits@D@std@@V?$allocator@D@2@@std@@PAV12@00@Z PROC ; stdext::_Unchecked_move_backward<std::basic_string<char,std::char_traits<char>,std::allocator<char> > *,std::basic_string<char,std::char_traits<char>,std::allocator<char> > *>, COMDAT

; 3694 : 	{	// move [_First, _Last) backwards to [..., _Dest)

	push	ebp
	mov	ebp, esp
	push	ecx

; 3695 : 		return (_STD _Move_backward_opt(_CHECKED_BASE(_First), _CHECKED_BASE(_Last), _Dest,
; 3696 : 			_STD _Iter_random(_First, _Dest), _STD _Move_cat(_Dest), _STD _Range_checked_iterator_tag()));

	xor	eax, eax
	mov	BYTE PTR $T62715[ebp], al
	lea	ecx, DWORD PTR __Dest$[ebp]
	push	ecx
	call	??$_Move_cat@PAV?$basic_string@DU?$char_traits@D@std@@V?$allocator@D@2@@std@@@std@@YA?AU_Swap_move_tag@0@ABQAV?$basic_string@DU?$char_traits@D@std@@V?$allocator@D@2@@0@@Z ; std::_Move_cat<std::basic_string<char,std::char_traits<char>,std::allocator<char> > *>
	add	esp, 4
	mov	BYTE PTR $T62716[ebp], al
	movzx	edx, BYTE PTR $T62715[ebp]
	push	edx
	movzx	eax, BYTE PTR $T62716[ebp]
	push	eax
	lea	ecx, DWORD PTR __Dest$[ebp]
	push	ecx
	lea	edx, DWORD PTR __First$[ebp]
	push	edx
	lea	eax, DWORD PTR $T62717[ebp]
	push	eax
	call	??$_Iter_random@PAV?$basic_string@DU?$char_traits@D@std@@V?$allocator@D@2@@std@@PAV12@@std@@YA?AUrandom_access_iterator_tag@0@ABQAV?$basic_string@DU?$char_traits@D@std@@V?$allocator@D@2@@0@0@Z ; std::_Iter_random<std::basic_string<char,std::char_traits<char>,std::allocator<char> > *,std::basic_string<char,std::char_traits<char>,std::allocator<char> > *>
	add	esp, 12					; 0000000cH
	movzx	ecx, BYTE PTR [eax]
	push	ecx
	mov	edx, DWORD PTR __Dest$[ebp]
	push	edx
	lea	eax, DWORD PTR __Last$[ebp]
	push	eax
	call	??$_Checked_base@PAV?$basic_string@DU?$char_traits@D@std@@V?$allocator@D@2@@std@@@std@@YAPAV?$basic_string@DU?$char_traits@D@std@@V?$allocator@D@2@@0@AAPAV10@@Z ; std::_Checked_base<std::basic_string<char,std::char_traits<char>,std::allocator<char> > *>
	add	esp, 4
	push	eax
	lea	ecx, DWORD PTR __First$[ebp]
	push	ecx
	call	??$_Checked_base@PAV?$basic_string@DU?$char_traits@D@std@@V?$allocator@D@2@@std@@@std@@YAPAV?$basic_string@DU?$char_traits@D@std@@V?$allocator@D@2@@0@AAPAV10@@Z ; std::_Checked_base<std::basic_string<char,std::char_traits<char>,std::allocator<char> > *>
	add	esp, 4
	push	eax
	call	??$_Move_backward_opt@PAV?$basic_string@DU?$char_traits@D@std@@V?$allocator@D@2@@std@@PAV12@@std@@YAPAV?$basic_string@DU?$char_traits@D@std@@V?$allocator@D@2@@0@PAV10@00Urandom_access_iterator_tag@0@U_Swap_move_tag@0@U_Range_checked_iterator_tag@0@@Z ; std::_Move_backward_opt<std::basic_string<char,std::char_traits<char>,std::allocator<char> > *,std::basic_string<char,std::char_traits<char>,std::allocator<char> > *>
	add	esp, 24					; 00000018H

; 3697 : 	}

	mov	esp, ebp
	pop	ebp
	ret	0
??$_Unchecked_move_backward@PAV?$basic_string@DU?$char_traits@D@std@@V?$allocator@D@2@@std@@PAV12@@stdext@@YAPAV?$basic_string@DU?$char_traits@D@std@@V?$allocator@D@2@@std@@PAV12@00@Z ENDP ; stdext::_Unchecked_move_backward<std::basic_string<char,std::char_traits<char>,std::allocator<char> > *,std::basic_string<char,std::char_traits<char>,std::allocator<char> > *>
_TEXT	ENDS
PUBLIC	??$_Destroy_range@V?$allocator@V?$basic_string@DU?$char_traits@D@std@@V?$allocator@D@2@@std@@@std@@@std@@YAXPAV?$basic_string@DU?$char_traits@D@std@@V?$allocator@D@2@@0@0AAV?$allocator@V?$basic_string@DU?$char_traits@D@std@@V?$allocator@D@2@@std@@@0@U_Nonscalar_ptr_iterator_tag@0@@Z ; std::_Destroy_range<std::allocator<std::basic_string<char,std::char_traits<char>,std::allocator<char> > > >
; Function compile flags: /Odtp
; File d:\program files (x86)\microsoft visual studio 9.0\vc\include\xmemory
;	COMDAT ??$_Destroy_range@V?$allocator@V?$basic_string@DU?$char_traits@D@std@@V?$allocator@D@2@@std@@@std@@@std@@YAXPAV?$basic_string@DU?$char_traits@D@std@@V?$allocator@D@2@@0@0AAV?$allocator@V?$basic_string@DU?$char_traits@D@std@@V?$allocator@D@2@@std@@@0@@Z
_TEXT	SEGMENT
$T62720 = -1						; size = 1
__First$ = 8						; size = 4
__Last$ = 12						; size = 4
__Al$ = 16						; size = 4
??$_Destroy_range@V?$allocator@V?$basic_string@DU?$char_traits@D@std@@V?$allocator@D@2@@std@@@std@@@std@@YAXPAV?$basic_string@DU?$char_traits@D@std@@V?$allocator@D@2@@0@0AAV?$allocator@V?$basic_string@DU?$char_traits@D@std@@V?$allocator@D@2@@std@@@0@@Z PROC ; std::_Destroy_range<std::allocator<std::basic_string<char,std::char_traits<char>,std::allocator<char> > > >, COMDAT

; 224  : 	{	// destroy [_First, _Last)

	push	ebp
	mov	ebp, esp
	push	ecx

; 225  : 	_Destroy_range(_First, _Last, _Al, _Ptr_cat(_First, _Last));

	lea	eax, DWORD PTR __Last$[ebp]
	push	eax
	lea	ecx, DWORD PTR __First$[ebp]
	push	ecx
	call	??$_Ptr_cat@PAV?$basic_string@DU?$char_traits@D@std@@V?$allocator@D@2@@std@@PAV12@@std@@YA?AU_Nonscalar_ptr_iterator_tag@0@AAPAV?$basic_string@DU?$char_traits@D@std@@V?$allocator@D@2@@0@0@Z ; std::_Ptr_cat<std::basic_string<char,std::char_traits<char>,std::allocator<char> > *,std::basic_string<char,std::char_traits<char>,std::allocator<char> > *>
	add	esp, 8
	mov	BYTE PTR $T62720[ebp], al
	movzx	edx, BYTE PTR $T62720[ebp]
	push	edx
	mov	eax, DWORD PTR __Al$[ebp]
	push	eax
	mov	ecx, DWORD PTR __Last$[ebp]
	push	ecx
	mov	edx, DWORD PTR __First$[ebp]
	push	edx
	call	??$_Destroy_range@V?$allocator@V?$basic_string@DU?$char_traits@D@std@@V?$allocator@D@2@@std@@@std@@@std@@YAXPAV?$basic_string@DU?$char_traits@D@std@@V?$allocator@D@2@@0@0AAV?$allocator@V?$basic_string@DU?$char_traits@D@std@@V?$allocator@D@2@@std@@@0@U_Nonscalar_ptr_iterator_tag@0@@Z ; std::_Destroy_range<std::allocator<std::basic_string<char,std::char_traits<char>,std::allocator<char> > > >
	add	esp, 16					; 00000010H

; 226  : 	}

	mov	esp, ebp
	pop	ebp
	ret	0
??$_Destroy_range@V?$allocator@V?$basic_string@DU?$char_traits@D@std@@V?$allocator@D@2@@std@@@std@@@std@@YAXPAV?$basic_string@DU?$char_traits@D@std@@V?$allocator@D@2@@0@0AAV?$allocator@V?$basic_string@DU?$char_traits@D@std@@V?$allocator@D@2@@std@@@0@@Z ENDP ; std::_Destroy_range<std::allocator<std::basic_string<char,std::char_traits<char>,std::allocator<char> > > >
_TEXT	ENDS
PUBLIC	??$_Uninit_fill_n@PAV?$basic_string@DU?$char_traits@D@std@@V?$allocator@D@2@@std@@IV12@V?$allocator@V?$basic_string@DU?$char_traits@D@std@@V?$allocator@D@2@@std@@@2@@std@@YAXPAV?$basic_string@DU?$char_traits@D@std@@V?$allocator@D@2@@0@IABV10@AAV?$allocator@V?$basic_string@DU?$char_traits@D@std@@V?$allocator@D@2@@std@@@0@U_Nonscalar_ptr_iterator_tag@0@U_Range_checked_iterator_tag@0@@Z ; std::_Uninit_fill_n<std::basic_string<char,std::char_traits<char>,std::allocator<char> > *,unsigned int,std::basic_string<char,std::char_traits<char>,std::allocator<char> >,std::allocator<std::basic_string<char,std::char_traits<char>,std::allocator<char> > > >
; Function compile flags: /Odtp
; File d:\program files (x86)\microsoft visual studio 9.0\vc\include\memory
;	COMDAT ??$unchecked_uninitialized_fill_n@PAV?$basic_string@DU?$char_traits@D@std@@V?$allocator@D@2@@std@@IV12@V?$allocator@V?$basic_string@DU?$char_traits@D@std@@V?$allocator@D@2@@std@@@2@@stdext@@YAXPAV?$basic_string@DU?$char_traits@D@std@@V?$allocator@D@2@@std@@IABV12@AAV?$allocator@V?$basic_string@DU?$char_traits@D@std@@V?$allocator@D@2@@std@@@2@@Z
_TEXT	SEGMENT
$T62724 = -2						; size = 1
$T62723 = -1						; size = 1
__First$ = 8						; size = 4
__Count$ = 12						; size = 4
__Val$ = 16						; size = 4
__Al$ = 20						; size = 4
??$unchecked_uninitialized_fill_n@PAV?$basic_string@DU?$char_traits@D@std@@V?$allocator@D@2@@std@@IV12@V?$allocator@V?$basic_string@DU?$char_traits@D@std@@V?$allocator@D@2@@std@@@2@@stdext@@YAXPAV?$basic_string@DU?$char_traits@D@std@@V?$allocator@D@2@@std@@IABV12@AAV?$allocator@V?$basic_string@DU?$char_traits@D@std@@V?$allocator@D@2@@std@@@2@@Z PROC ; stdext::unchecked_uninitialized_fill_n<std::basic_string<char,std::char_traits<char>,std::allocator<char> > *,unsigned int,std::basic_string<char,std::char_traits<char>,std::allocator<char> >,std::allocator<std::basic_string<char,std::char_traits<char>,std::allocator<char> > > >, COMDAT

; 940  : 	{	// copy _Count *_Val to raw _First, using _Al

	push	ebp
	mov	ebp, esp
	push	ecx

; 941  : 	_STD _Uninit_fill_n(_First, _Count, _Val, _Al,
; 942  : 		_STD _Ptr_cat(_First, _First), _STD _Range_checked_iterator_tag());

	xor	eax, eax
	mov	BYTE PTR $T62723[ebp], al
	lea	ecx, DWORD PTR __First$[ebp]
	push	ecx
	lea	edx, DWORD PTR __First$[ebp]
	push	edx
	call	??$_Ptr_cat@PAV?$basic_string@DU?$char_traits@D@std@@V?$allocator@D@2@@std@@PAV12@@std@@YA?AU_Nonscalar_ptr_iterator_tag@0@AAPAV?$basic_string@DU?$char_traits@D@std@@V?$allocator@D@2@@0@0@Z ; std::_Ptr_cat<std::basic_string<char,std::char_traits<char>,std::allocator<char> > *,std::basic_string<char,std::char_traits<char>,std::allocator<char> > *>
	add	esp, 8
	mov	BYTE PTR $T62724[ebp], al
	movzx	eax, BYTE PTR $T62723[ebp]
	push	eax
	movzx	ecx, BYTE PTR $T62724[ebp]
	push	ecx
	mov	edx, DWORD PTR __Al$[ebp]
	push	edx
	mov	eax, DWORD PTR __Val$[ebp]
	push	eax
	mov	ecx, DWORD PTR __Count$[ebp]
	push	ecx
	mov	edx, DWORD PTR __First$[ebp]
	push	edx
	call	??$_Uninit_fill_n@PAV?$basic_string@DU?$char_traits@D@std@@V?$allocator@D@2@@std@@IV12@V?$allocator@V?$basic_string@DU?$char_traits@D@std@@V?$allocator@D@2@@std@@@2@@std@@YAXPAV?$basic_string@DU?$char_traits@D@std@@V?$allocator@D@2@@0@IABV10@AAV?$allocator@V?$basic_string@DU?$char_traits@D@std@@V?$allocator@D@2@@std@@@0@U_Nonscalar_ptr_iterator_tag@0@U_Range_checked_iterator_tag@0@@Z ; std::_Uninit_fill_n<std::basic_string<char,std::char_traits<char>,std::allocator<char> > *,unsigned int,std::basic_string<char,std::char_traits<char>,std::allocator<char> >,std::allocator<std::basic_string<char,std::char_traits<char>,std::allocator<char> > > >
	add	esp, 24					; 00000018H

; 943  : 	}

	mov	esp, ebp
	pop	ebp
	ret	0
??$unchecked_uninitialized_fill_n@PAV?$basic_string@DU?$char_traits@D@std@@V?$allocator@D@2@@std@@IV12@V?$allocator@V?$basic_string@DU?$char_traits@D@std@@V?$allocator@D@2@@std@@@2@@stdext@@YAXPAV?$basic_string@DU?$char_traits@D@std@@V?$allocator@D@2@@std@@IABV12@AAV?$allocator@V?$basic_string@DU?$char_traits@D@std@@V?$allocator@D@2@@std@@@2@@Z ENDP ; stdext::unchecked_uninitialized_fill_n<std::basic_string<char,std::char_traits<char>,std::allocator<char> > *,unsigned int,std::basic_string<char,std::char_traits<char>,std::allocator<char> >,std::allocator<std::basic_string<char,std::char_traits<char>,std::allocator<char> > > >
_TEXT	ENDS
PUBLIC	__TI2?AVbad_alloc@std@@
PUBLIC	??0bad_alloc@std@@QAE@PBD@Z			; std::bad_alloc::bad_alloc
PUBLIC	??1bad_alloc@std@@UAE@XZ			; std::bad_alloc::~bad_alloc
PUBLIC	__CTA2?AVbad_alloc@std@@
PUBLIC	__CT??_R0?AVbad_alloc@std@@@8??0bad_alloc@std@@QAE@ABV01@@Z12
PUBLIC	??_R0?AVbad_alloc@std@@@8			; std::bad_alloc `RTTI Type Descriptor'
PUBLIC	??0bad_alloc@std@@QAE@ABV01@@Z			; std::bad_alloc::bad_alloc
EXTRN	??2@YAPAXI@Z:PROC				; operator new
;	COMDAT ??_R0?AVbad_alloc@std@@@8
; File d:\program files (x86)\microsoft visual studio 9.0\vc\include\xmemory
_DATA	SEGMENT
??_R0?AVbad_alloc@std@@@8 DD FLAT:??_7type_info@@6B@	; std::bad_alloc `RTTI Type Descriptor'
	DD	00H
	DB	'.?AVbad_alloc@std@@', 00H
_DATA	ENDS
;	COMDAT __CT??_R0?AVbad_alloc@std@@@8??0bad_alloc@std@@QAE@ABV01@@Z12
xdata$x	SEGMENT
__CT??_R0?AVbad_alloc@std@@@8??0bad_alloc@std@@QAE@ABV01@@Z12 DD 00H
	DD	FLAT:??_R0?AVbad_alloc@std@@@8
	DD	00H
	DD	0ffffffffH
	ORG $+4
	DD	0cH
	DD	FLAT:??0bad_alloc@std@@QAE@ABV01@@Z
xdata$x	ENDS
;	COMDAT __CTA2?AVbad_alloc@std@@
xdata$x	SEGMENT
__CTA2?AVbad_alloc@std@@ DD 02H
	DD	FLAT:__CT??_R0?AVbad_alloc@std@@@8??0bad_alloc@std@@QAE@ABV01@@Z12
	DD	FLAT:__CT??_R0?AVexception@std@@@8??0exception@std@@QAE@ABV01@@Z12
xdata$x	ENDS
;	COMDAT __TI2?AVbad_alloc@std@@
xdata$x	SEGMENT
__TI2?AVbad_alloc@std@@ DD 00H
	DD	FLAT:??1bad_alloc@std@@UAE@XZ
	DD	00H
	DD	FLAT:__CTA2?AVbad_alloc@std@@
; Function compile flags: /Odtp
xdata$x	ENDS
;	COMDAT ??$_Allocate@V?$basic_string@DU?$char_traits@D@std@@V?$allocator@D@2@@std@@@std@@YAPAV?$basic_string@DU?$char_traits@D@std@@V?$allocator@D@2@@0@IPAV10@@Z
_TEXT	SEGMENT
$T62727 = -12						; size = 12
__Count$ = 8						; size = 4
___formal$ = 12						; size = 4
??$_Allocate@V?$basic_string@DU?$char_traits@D@std@@V?$allocator@D@2@@std@@@std@@YAPAV?$basic_string@DU?$char_traits@D@std@@V?$allocator@D@2@@0@IPAV10@@Z PROC ; std::_Allocate<std::basic_string<char,std::char_traits<char>,std::allocator<char> > >, COMDAT

; 36   : 	{	// check for integer overflow

	push	ebp
	mov	ebp, esp
	sub	esp, 12					; 0000000cH

; 37   : 	if (_Count <= 0)

	cmp	DWORD PTR __Count$[ebp], 0
	ja	SHORT $LN3@Allocate

; 38   : 		_Count = 0;

	mov	DWORD PTR __Count$[ebp], 0
	jmp	SHORT $LN2@Allocate
$LN3@Allocate:

; 39   : 	else if (((_SIZT)(-1) / _Count) < sizeof (_Ty))

	or	eax, -1
	xor	edx, edx
	div	DWORD PTR __Count$[ebp]
	cmp	eax, 28					; 0000001cH
	jae	SHORT $LN2@Allocate

; 40   : 		_THROW_NCEE(std::bad_alloc, NULL);

	push	0
	lea	ecx, DWORD PTR $T62727[ebp]
	call	??0bad_alloc@std@@QAE@PBD@Z		; std::bad_alloc::bad_alloc
	push	OFFSET __TI2?AVbad_alloc@std@@
	lea	eax, DWORD PTR $T62727[ebp]
	push	eax
	call	__CxxThrowException@8
$LN2@Allocate:

; 41   : 
; 42   : 		// allocate storage for _Count elements of type _Ty
; 43   : 	return ((_Ty _FARQ *)::operator new(_Count * sizeof (_Ty)));

	mov	ecx, DWORD PTR __Count$[ebp]
	imul	ecx, 28					; 0000001cH
	push	ecx
	call	??2@YAPAXI@Z				; operator new
	add	esp, 4
$LN5@Allocate:

; 44   : 	}

	mov	esp, ebp
	pop	ebp
	ret	0
??$_Allocate@V?$basic_string@DU?$char_traits@D@std@@V?$allocator@D@2@@std@@@std@@YAPAV?$basic_string@DU?$char_traits@D@std@@V?$allocator@D@2@@0@IPAV10@@Z ENDP ; std::_Allocate<std::basic_string<char,std::char_traits<char>,std::allocator<char> > >
_TEXT	ENDS
PUBLIC	??_7bad_alloc@std@@6B@				; std::bad_alloc::`vftable'
PUBLIC	??_R4bad_alloc@std@@6B@				; std::bad_alloc::`RTTI Complete Object Locator'
PUBLIC	??_R3bad_alloc@std@@8				; std::bad_alloc::`RTTI Class Hierarchy Descriptor'
PUBLIC	??_R2bad_alloc@std@@8				; std::bad_alloc::`RTTI Base Class Array'
PUBLIC	??_R1A@?0A@EA@bad_alloc@std@@8			; std::bad_alloc::`RTTI Base Class Descriptor at (0,-1,0,64)'
EXTRN	__imp_??0exception@std@@QAE@ABQBD@Z:PROC
EXTRN	??_Ebad_alloc@std@@UAEPAXI@Z:PROC		; std::bad_alloc::`vector deleting destructor'
EXTRN	?what@exception@std@@UBEPBDXZ:PROC		; std::exception::what
;	COMDAT ??_R1A@?0A@EA@bad_alloc@std@@8
; File d:\program files (x86)\microsoft visual studio 9.0\vc\include\exception
rdata$r	SEGMENT
??_R1A@?0A@EA@bad_alloc@std@@8 DD FLAT:??_R0?AVbad_alloc@std@@@8 ; std::bad_alloc::`RTTI Base Class Descriptor at (0,-1,0,64)'
	DD	01H
	DD	00H
	DD	0ffffffffH
	DD	00H
	DD	040H
	DD	FLAT:??_R3bad_alloc@std@@8
rdata$r	ENDS
;	COMDAT ??_R2bad_alloc@std@@8
rdata$r	SEGMENT
??_R2bad_alloc@std@@8 DD FLAT:??_R1A@?0A@EA@bad_alloc@std@@8 ; std::bad_alloc::`RTTI Base Class Array'
	DD	FLAT:??_R1A@?0A@EA@exception@std@@8
rdata$r	ENDS
;	COMDAT ??_R3bad_alloc@std@@8
rdata$r	SEGMENT
??_R3bad_alloc@std@@8 DD 00H				; std::bad_alloc::`RTTI Class Hierarchy Descriptor'
	DD	00H
	DD	02H
	DD	FLAT:??_R2bad_alloc@std@@8
rdata$r	ENDS
;	COMDAT ??_R4bad_alloc@std@@6B@
rdata$r	SEGMENT
??_R4bad_alloc@std@@6B@ DD 00H				; std::bad_alloc::`RTTI Complete Object Locator'
	DD	00H
	DD	00H
	DD	FLAT:??_R0?AVbad_alloc@std@@@8
	DD	FLAT:??_R3bad_alloc@std@@8
rdata$r	ENDS
;	COMDAT ??_7bad_alloc@std@@6B@
CONST	SEGMENT
??_7bad_alloc@std@@6B@ DD FLAT:??_R4bad_alloc@std@@6B@	; std::bad_alloc::`vftable'
	DD	FLAT:??_Ebad_alloc@std@@UAEPAXI@Z
	DD	FLAT:?what@exception@std@@UBEPBDXZ
CONST	ENDS
;	COMDAT xdata$x
xdata$x	SEGMENT
__unwindtable$??0bad_alloc@std@@QAE@PBD@Z DD 0ffffffffH
	DD	FLAT:__unwindfunclet$??0bad_alloc@std@@QAE@PBD@Z$0
__ehfuncinfo$??0bad_alloc@std@@QAE@PBD@Z DD 019930522H
	DD	01H
	DD	FLAT:__unwindtable$??0bad_alloc@std@@QAE@PBD@Z
	DD	2 DUP(00H)
	DD	2 DUP(00H)
	DD	00H
	DD	00H
; Function compile flags: /Odtp
xdata$x	ENDS
;	COMDAT ??0bad_alloc@std@@QAE@PBD@Z
_TEXT	SEGMENT
_this$ = -16						; size = 4
__$EHRec$ = -12						; size = 12
__Message$ = 8						; size = 4
??0bad_alloc@std@@QAE@PBD@Z PROC			; std::bad_alloc::bad_alloc, COMDAT
; _this$ = ecx

; 371  : 		{	// construct from message string

	push	ebp
	mov	ebp, esp
	push	-1
	push	__ehhandler$??0bad_alloc@std@@QAE@PBD@Z
	mov	eax, DWORD PTR fs:0
	push	eax
	push	ecx
	mov	eax, DWORD PTR ___security_cookie
	xor	eax, ebp
	push	eax
	lea	eax, DWORD PTR __$EHRec$[ebp]
	mov	DWORD PTR fs:0, eax
	mov	DWORD PTR _this$[ebp], ecx
	lea	eax, DWORD PTR __Message$[ebp]
	push	eax
	mov	ecx, DWORD PTR _this$[ebp]
	call	DWORD PTR __imp_??0exception@std@@QAE@ABQBD@Z
	mov	DWORD PTR __$EHRec$[ebp+8], 0
	mov	ecx, DWORD PTR _this$[ebp]
	mov	DWORD PTR [ecx], OFFSET ??_7bad_alloc@std@@6B@

; 372  : 		}

	mov	DWORD PTR __$EHRec$[ebp+8], -1
	mov	eax, DWORD PTR _this$[ebp]
	mov	ecx, DWORD PTR __$EHRec$[ebp]
	mov	DWORD PTR fs:0, ecx
	pop	ecx
	mov	esp, ebp
	pop	ebp
	ret	4
_TEXT	ENDS
;	COMDAT text$x
text$x	SEGMENT
__unwindfunclet$??0bad_alloc@std@@QAE@PBD@Z$0:
	mov	ecx, DWORD PTR _this$[ebp]
	jmp	DWORD PTR __imp_??1exception@std@@UAE@XZ
__ehhandler$??0bad_alloc@std@@QAE@PBD@Z:
	mov	edx, DWORD PTR [esp+8]
	lea	eax, DWORD PTR [edx+12]
	mov	ecx, DWORD PTR [edx-8]
	xor	ecx, eax
	call	@__security_check_cookie@4
	mov	eax, OFFSET __ehfuncinfo$??0bad_alloc@std@@QAE@PBD@Z
	jmp	___CxxFrameHandler3
text$x	ENDS
??0bad_alloc@std@@QAE@PBD@Z ENDP			; std::bad_alloc::bad_alloc
;	COMDAT xdata$x
xdata$x	SEGMENT
__unwindtable$??1bad_alloc@std@@UAE@XZ DD 0ffffffffH
	DD	FLAT:__unwindfunclet$??1bad_alloc@std@@UAE@XZ$0
__ehfuncinfo$??1bad_alloc@std@@UAE@XZ DD 019930522H
	DD	01H
	DD	FLAT:__unwindtable$??1bad_alloc@std@@UAE@XZ
	DD	2 DUP(00H)
	DD	2 DUP(00H)
	DD	00H
	DD	00H
; Function compile flags: /Odtp
xdata$x	ENDS
;	COMDAT ??1bad_alloc@std@@UAE@XZ
_TEXT	SEGMENT
_this$ = -16						; size = 4
__$EHRec$ = -12						; size = 12
??1bad_alloc@std@@UAE@XZ PROC				; std::bad_alloc::~bad_alloc, COMDAT
; _this$ = ecx

; 380  : 		{	// destroy the object

	push	ebp
	mov	ebp, esp
	push	-1
	push	__ehhandler$??1bad_alloc@std@@UAE@XZ
	mov	eax, DWORD PTR fs:0
	push	eax
	push	ecx
	mov	eax, DWORD PTR ___security_cookie
	xor	eax, ebp
	push	eax
	lea	eax, DWORD PTR __$EHRec$[ebp]
	mov	DWORD PTR fs:0, eax
	mov	DWORD PTR _this$[ebp], ecx
	mov	eax, DWORD PTR _this$[ebp]
	mov	DWORD PTR [eax], OFFSET ??_7bad_alloc@std@@6B@
	mov	DWORD PTR __$EHRec$[ebp+8], 0

; 381  : 		}

	mov	DWORD PTR __$EHRec$[ebp+8], -1
	mov	ecx, DWORD PTR _this$[ebp]
	call	DWORD PTR __imp_??1exception@std@@UAE@XZ
	mov	ecx, DWORD PTR __$EHRec$[ebp]
	mov	DWORD PTR fs:0, ecx
	pop	ecx
	mov	esp, ebp
	pop	ebp
	ret	0
_TEXT	ENDS
;	COMDAT text$x
text$x	SEGMENT
__unwindfunclet$??1bad_alloc@std@@UAE@XZ$0:
	mov	ecx, DWORD PTR _this$[ebp]
	jmp	DWORD PTR __imp_??1exception@std@@UAE@XZ
__ehhandler$??1bad_alloc@std@@UAE@XZ:
	mov	edx, DWORD PTR [esp+8]
	lea	eax, DWORD PTR [edx+12]
	mov	ecx, DWORD PTR [edx-8]
	xor	ecx, eax
	call	@__security_check_cookie@4
	mov	eax, OFFSET __ehfuncinfo$??1bad_alloc@std@@UAE@XZ
	jmp	___CxxFrameHandler3
text$x	ENDS
??1bad_alloc@std@@UAE@XZ ENDP				; std::bad_alloc::~bad_alloc
; Function compile flags: /Odtp
;	COMDAT ??_Gbad_alloc@std@@UAEPAXI@Z
_TEXT	SEGMENT
_this$ = -4						; size = 4
___flags$ = 8						; size = 4
??_Gbad_alloc@std@@UAEPAXI@Z PROC			; std::bad_alloc::`scalar deleting destructor', COMDAT
; _this$ = ecx
	push	ebp
	mov	ebp, esp
	push	ecx
	mov	DWORD PTR _this$[ebp], ecx
	mov	ecx, DWORD PTR _this$[ebp]
	call	??1bad_alloc@std@@UAE@XZ		; std::bad_alloc::~bad_alloc
	mov	eax, DWORD PTR ___flags$[ebp]
	and	eax, 1
	je	SHORT $LN1@scalar@11
	mov	ecx, DWORD PTR _this$[ebp]
	push	ecx
	call	??3@YAXPAX@Z				; operator delete
	add	esp, 4
$LN1@scalar@11:
	mov	eax, DWORD PTR _this$[ebp]
	mov	esp, ebp
	pop	ebp
	ret	4
??_Gbad_alloc@std@@UAEPAXI@Z ENDP			; std::bad_alloc::`scalar deleting destructor'
_TEXT	ENDS
;	COMDAT xdata$x
xdata$x	SEGMENT
__unwindtable$??0bad_alloc@std@@QAE@ABV01@@Z DD 0ffffffffH
	DD	FLAT:__unwindfunclet$??0bad_alloc@std@@QAE@ABV01@@Z$0
__ehfuncinfo$??0bad_alloc@std@@QAE@ABV01@@Z DD 019930522H
	DD	01H
	DD	FLAT:__unwindtable$??0bad_alloc@std@@QAE@ABV01@@Z
	DD	2 DUP(00H)
	DD	2 DUP(00H)
	DD	00H
	DD	00H
; Function compile flags: /Odtp
xdata$x	ENDS
;	COMDAT ??0bad_alloc@std@@QAE@ABV01@@Z
_TEXT	SEGMENT
_this$ = -16						; size = 4
__$EHRec$ = -12						; size = 12
___that$ = 8						; size = 4
??0bad_alloc@std@@QAE@ABV01@@Z PROC			; std::bad_alloc::bad_alloc, COMDAT
; _this$ = ecx
	push	ebp
	mov	ebp, esp
	push	-1
	push	__ehhandler$??0bad_alloc@std@@QAE@ABV01@@Z
	mov	eax, DWORD PTR fs:0
	push	eax
	push	ecx
	mov	eax, DWORD PTR ___security_cookie
	xor	eax, ebp
	push	eax
	lea	eax, DWORD PTR __$EHRec$[ebp]
	mov	DWORD PTR fs:0, eax
	mov	DWORD PTR _this$[ebp], ecx
	mov	eax, DWORD PTR ___that$[ebp]
	push	eax
	mov	ecx, DWORD PTR _this$[ebp]
	call	DWORD PTR __imp_??0exception@std@@QAE@ABV01@@Z
	mov	DWORD PTR __$EHRec$[ebp+8], 0
	mov	ecx, DWORD PTR _this$[ebp]
	mov	DWORD PTR [ecx], OFFSET ??_7bad_alloc@std@@6B@
	mov	DWORD PTR __$EHRec$[ebp+8], -1
	mov	eax, DWORD PTR _this$[ebp]
	mov	ecx, DWORD PTR __$EHRec$[ebp]
	mov	DWORD PTR fs:0, ecx
	pop	ecx
	mov	esp, ebp
	pop	ebp
	ret	4
_TEXT	ENDS
;	COMDAT text$x
text$x	SEGMENT
__unwindfunclet$??0bad_alloc@std@@QAE@ABV01@@Z$0:
	mov	ecx, DWORD PTR _this$[ebp]
	jmp	DWORD PTR __imp_??1exception@std@@UAE@XZ
__ehhandler$??0bad_alloc@std@@QAE@ABV01@@Z:
	mov	edx, DWORD PTR [esp+8]
	lea	eax, DWORD PTR [edx+12]
	mov	ecx, DWORD PTR [edx-8]
	xor	ecx, eax
	call	@__security_check_cookie@4
	mov	eax, OFFSET __ehfuncinfo$??0bad_alloc@std@@QAE@ABV01@@Z
	jmp	___CxxFrameHandler3
text$x	ENDS
??0bad_alloc@std@@QAE@ABV01@@Z ENDP			; std::bad_alloc::bad_alloc
PUBLIC	??$_Checked_base@PAV?$basic_string@DU?$char_traits@D@std@@V?$allocator@D@2@@std@@@std@@YAPAV?$basic_string@DU?$char_traits@D@std@@V?$allocator@D@2@@0@AAPAV10@U_Unchanged_checked_iterator_base_type_tag@0@@Z ; std::_Checked_base<std::basic_string<char,std::char_traits<char>,std::allocator<char> > *>
; Function compile flags: /Odtp
; File d:\program files (x86)\microsoft visual studio 9.0\vc\include\xutility
;	COMDAT ??$_Checked_base@PAV?$basic_string@DU?$char_traits@D@std@@V?$allocator@D@2@@std@@@std@@YAPAV?$basic_string@DU?$char_traits@D@std@@V?$allocator@D@2@@0@AAPAV10@@Z
_TEXT	SEGMENT
__Base_tag$ = -1					; size = 1
__It$ = 8						; size = 4
??$_Checked_base@PAV?$basic_string@DU?$char_traits@D@std@@V?$allocator@D@2@@std@@@std@@YAPAV?$basic_string@DU?$char_traits@D@std@@V?$allocator@D@2@@0@AAPAV10@@Z PROC ; std::_Checked_base<std::basic_string<char,std::char_traits<char>,std::allocator<char> > *>, COMDAT

; 1163 : 	{

	push	ebp
	mov	ebp, esp
	push	ecx

; 1164 : 		typename _Checked_iterator_base_helper<_Iter>::_Checked_iterator_base_type_tag _Base_tag;
; 1165 : 		return _Checked_base(_It, _Base_tag);

	movzx	eax, BYTE PTR __Base_tag$[ebp]
	push	eax
	mov	ecx, DWORD PTR __It$[ebp]
	push	ecx
	call	??$_Checked_base@PAV?$basic_string@DU?$char_traits@D@std@@V?$allocator@D@2@@std@@@std@@YAPAV?$basic_string@DU?$char_traits@D@std@@V?$allocator@D@2@@0@AAPAV10@U_Unchanged_checked_iterator_base_type_tag@0@@Z ; std::_Checked_base<std::basic_string<char,std::char_traits<char>,std::allocator<char> > *>
	add	esp, 8

; 1166 : 	}

	mov	esp, ebp
	pop	ebp
	ret	0
??$_Checked_base@PAV?$basic_string@DU?$char_traits@D@std@@V?$allocator@D@2@@std@@@std@@YAPAV?$basic_string@DU?$char_traits@D@std@@V?$allocator@D@2@@0@AAPAV10@@Z ENDP ; std::_Checked_base<std::basic_string<char,std::char_traits<char>,std::allocator<char> > *>
; Function compile flags: /Odtp
_TEXT	ENDS
;	COMDAT ??$_Iter_random@PAV?$basic_string@DU?$char_traits@D@std@@V?$allocator@D@2@@std@@PAV12@@std@@YA?AUrandom_access_iterator_tag@0@ABQAV?$basic_string@DU?$char_traits@D@std@@V?$allocator@D@2@@0@0@Z
_TEXT	SEGMENT
___$ReturnUdt$ = 8					; size = 4
___formal$ = 12						; size = 4
___formal$ = 16						; size = 4
??$_Iter_random@PAV?$basic_string@DU?$char_traits@D@std@@V?$allocator@D@2@@std@@PAV12@@std@@YA?AUrandom_access_iterator_tag@0@ABQAV?$basic_string@DU?$char_traits@D@std@@V?$allocator@D@2@@0@0@Z PROC ; std::_Iter_random<std::basic_string<char,std::char_traits<char>,std::allocator<char> > *,std::basic_string<char,std::char_traits<char>,std::allocator<char> > *>, COMDAT

; 993  : 	{	// return category from iterator argument

	push	ebp
	mov	ebp, esp
	push	ecx

; 994  : 	typename _Iter_random_helper<
; 995  : 		iterator_traits<_Iter1>::iterator_category, 
; 996  : 		iterator_traits<_Iter2>::iterator_category>::_Iter_random_cat _Cat;
; 997  : 	return (_Cat);

	mov	eax, DWORD PTR ___$ReturnUdt$[ebp]

; 998  : 	}

	mov	esp, ebp
	pop	ebp
	ret	0
??$_Iter_random@PAV?$basic_string@DU?$char_traits@D@std@@V?$allocator@D@2@@std@@PAV12@@std@@YA?AUrandom_access_iterator_tag@0@ABQAV?$basic_string@DU?$char_traits@D@std@@V?$allocator@D@2@@0@0@Z ENDP ; std::_Iter_random<std::basic_string<char,std::char_traits<char>,std::allocator<char> > *,std::basic_string<char,std::char_traits<char>,std::allocator<char> > *>
; Function compile flags: /Odtp
_TEXT	ENDS
;	COMDAT ??$_Ptr_cat@PAV?$basic_string@DU?$char_traits@D@std@@V?$allocator@D@2@@std@@PAV12@@std@@YA?AU_Nonscalar_ptr_iterator_tag@0@AAPAV?$basic_string@DU?$char_traits@D@std@@V?$allocator@D@2@@0@0@Z
_TEXT	SEGMENT
__Cat$ = -1						; size = 1
___formal$ = 8						; size = 4
___formal$ = 12						; size = 4
??$_Ptr_cat@PAV?$basic_string@DU?$char_traits@D@std@@V?$allocator@D@2@@std@@PAV12@@std@@YA?AU_Nonscalar_ptr_iterator_tag@0@AAPAV?$basic_string@DU?$char_traits@D@std@@V?$allocator@D@2@@0@0@Z PROC ; std::_Ptr_cat<std::basic_string<char,std::char_traits<char>,std::allocator<char> > *,std::basic_string<char,std::char_traits<char>,std::allocator<char> > *>, COMDAT

; 1509 : 	{

	push	ebp
	mov	ebp, esp
	push	ecx

; 1510 : 	typename _Ptr_cat_helper<_T1, _T2>::_Ptr_cat _Cat;
; 1511 : 	return (_Cat);

	mov	al, BYTE PTR __Cat$[ebp]

; 1512 : 	}

	mov	esp, ebp
	pop	ebp
	ret	0
??$_Ptr_cat@PAV?$basic_string@DU?$char_traits@D@std@@V?$allocator@D@2@@std@@PAV12@@std@@YA?AU_Nonscalar_ptr_iterator_tag@0@AAPAV?$basic_string@DU?$char_traits@D@std@@V?$allocator@D@2@@0@0@Z ENDP ; std::_Ptr_cat<std::basic_string<char,std::char_traits<char>,std::allocator<char> > *,std::basic_string<char,std::char_traits<char>,std::allocator<char> > *>
_TEXT	ENDS
PUBLIC	??$_Copy_opt@PAV?$basic_string@DU?$char_traits@D@std@@V?$allocator@D@2@@std@@PAV12@Uforward_iterator_tag@2@@std@@YAPAV?$basic_string@DU?$char_traits@D@std@@V?$allocator@D@2@@0@PAV10@00Uforward_iterator_tag@0@U_Nonscalar_ptr_iterator_tag@0@U_Range_checked_iterator_tag@0@@Z ; std::_Copy_opt<std::basic_string<char,std::char_traits<char>,std::allocator<char> > *,std::basic_string<char,std::char_traits<char>,std::allocator<char> > *,std::forward_iterator_tag>
; Function compile flags: /Odtp
;	COMDAT ??$_Copy_opt@PAV?$basic_string@DU?$char_traits@D@std@@V?$allocator@D@2@@std@@PAV12@@std@@YAPAV?$basic_string@DU?$char_traits@D@std@@V?$allocator@D@2@@0@PAV10@00Urandom_access_iterator_tag@0@U_Nonscalar_ptr_iterator_tag@0@U_Range_checked_iterator_tag@0@@Z
_TEXT	SEGMENT
$T62767 = -7						; size = 1
$T62766 = -6						; size = 1
$T62765 = -5						; size = 1
__Result$ = -4						; size = 4
__First$ = 8						; size = 4
__Last$ = 12						; size = 4
__Dest$ = 16						; size = 4
___formal$ = 20						; size = 1
___formal$ = 24						; size = 1
___formal$ = 28						; size = 1
??$_Copy_opt@PAV?$basic_string@DU?$char_traits@D@std@@V?$allocator@D@2@@std@@PAV12@@std@@YAPAV?$basic_string@DU?$char_traits@D@std@@V?$allocator@D@2@@0@PAV10@00Urandom_access_iterator_tag@0@U_Nonscalar_ptr_iterator_tag@0@U_Range_checked_iterator_tag@0@@Z PROC ; std::_Copy_opt<std::basic_string<char,std::char_traits<char>,std::allocator<char> > *,std::basic_string<char,std::char_traits<char>,std::allocator<char> > *>, COMDAT

; 2481 : 	{	// copy [_First, _Last) to [_Dest, ...), random_access iterators

	push	ebp
	mov	ebp, esp
	sub	esp, 8

; 2482 : 	// if _OutIt is range checked, this will make sure there is enough space for the copy
; 2483 : 	_OutIt _Result = _Dest + (_Last - _First);

	mov	eax, DWORD PTR __Last$[ebp]
	sub	eax, DWORD PTR __First$[ebp]
	cdq
	mov	ecx, 28					; 0000001cH
	idiv	ecx
	imul	eax, 28					; 0000001cH
	add	eax, DWORD PTR __Dest$[ebp]
	mov	DWORD PTR __Result$[ebp], eax

; 2484 : 	_Copy_opt(_First, _Last, _CHECKED_BASE(_Dest), 
; 2485 : 		forward_iterator_tag(), _Nonscalar_ptr_iterator_tag(), _Range_checked_iterator_tag());

	xor	edx, edx
	mov	BYTE PTR $T62765[ebp], dl
	xor	eax, eax
	mov	BYTE PTR $T62766[ebp], al
	movzx	ecx, BYTE PTR $T62765[ebp]
	push	ecx
	movzx	edx, BYTE PTR $T62766[ebp]
	push	edx
	movzx	eax, BYTE PTR $T62767[ebp]
	push	eax
	lea	ecx, DWORD PTR __Dest$[ebp]
	push	ecx
	call	??$_Checked_base@PAV?$basic_string@DU?$char_traits@D@std@@V?$allocator@D@2@@std@@@std@@YAPAV?$basic_string@DU?$char_traits@D@std@@V?$allocator@D@2@@0@AAPAV10@@Z ; std::_Checked_base<std::basic_string<char,std::char_traits<char>,std::allocator<char> > *>
	add	esp, 4
	push	eax
	mov	edx, DWORD PTR __Last$[ebp]
	push	edx
	mov	eax, DWORD PTR __First$[ebp]
	push	eax
	call	??$_Copy_opt@PAV?$basic_string@DU?$char_traits@D@std@@V?$allocator@D@2@@std@@PAV12@Uforward_iterator_tag@2@@std@@YAPAV?$basic_string@DU?$char_traits@D@std@@V?$allocator@D@2@@0@PAV10@00Uforward_iterator_tag@0@U_Nonscalar_ptr_iterator_tag@0@U_Range_checked_iterator_tag@0@@Z ; std::_Copy_opt<std::basic_string<char,std::char_traits<char>,std::allocator<char> > *,std::basic_string<char,std::char_traits<char>,std::allocator<char> > *,std::forward_iterator_tag>
	add	esp, 24					; 00000018H

; 2486 : 	return _Result;

	mov	eax, DWORD PTR __Result$[ebp]

; 2487 : 	}

	mov	esp, ebp
	pop	ebp
	ret	0
??$_Copy_opt@PAV?$basic_string@DU?$char_traits@D@std@@V?$allocator@D@2@@std@@PAV12@@std@@YAPAV?$basic_string@DU?$char_traits@D@std@@V?$allocator@D@2@@0@PAV10@00Urandom_access_iterator_tag@0@U_Nonscalar_ptr_iterator_tag@0@U_Range_checked_iterator_tag@0@@Z ENDP ; std::_Copy_opt<std::basic_string<char,std::char_traits<char>,std::allocator<char> > *,std::basic_string<char,std::char_traits<char>,std::allocator<char> > *>
_TEXT	ENDS
PUBLIC	??$_Uninit_move@PAV?$basic_string@DU?$char_traits@D@std@@V?$allocator@D@2@@std@@PAV12@V?$allocator@V?$basic_string@DU?$char_traits@D@std@@V?$allocator@D@2@@std@@@2@@std@@YAPAV?$basic_string@DU?$char_traits@D@std@@V?$allocator@D@2@@0@PAV10@00AAV?$allocator@V?$basic_string@DU?$char_traits@D@std@@V?$allocator@D@2@@std@@@0@U_Swap_move_tag@0@U_Range_checked_iterator_tag@0@@Z ; std::_Uninit_move<std::basic_string<char,std::char_traits<char>,std::allocator<char> > *,std::basic_string<char,std::char_traits<char>,std::allocator<char> > *,std::allocator<std::basic_string<char,std::char_traits<char>,std::allocator<char> > > >
; Function compile flags: /Odtp
; File d:\program files (x86)\microsoft visual studio 9.0\vc\include\memory
;	COMDAT ??$_Unchecked_uninitialized_move@PAV?$basic_string@DU?$char_traits@D@std@@V?$allocator@D@2@@std@@PAV12@V?$allocator@V?$basic_string@DU?$char_traits@D@std@@V?$allocator@D@2@@std@@@2@@stdext@@YAPAV?$basic_string@DU?$char_traits@D@std@@V?$allocator@D@2@@std@@PAV12@00AAV?$allocator@V?$basic_string@DU?$char_traits@D@std@@V?$allocator@D@2@@std@@@2@@Z
_TEXT	SEGMENT
$T62771 = -2						; size = 1
$T62770 = -1						; size = 1
__First$ = 8						; size = 4
__Last$ = 12						; size = 4
__Dest$ = 16						; size = 4
__Al$ = 20						; size = 4
??$_Unchecked_uninitialized_move@PAV?$basic_string@DU?$char_traits@D@std@@V?$allocator@D@2@@std@@PAV12@V?$allocator@V?$basic_string@DU?$char_traits@D@std@@V?$allocator@D@2@@std@@@2@@stdext@@YAPAV?$basic_string@DU?$char_traits@D@std@@V?$allocator@D@2@@std@@PAV12@00AAV?$allocator@V?$basic_string@DU?$char_traits@D@std@@V?$allocator@D@2@@std@@@2@@Z PROC ; stdext::_Unchecked_uninitialized_move<std::basic_string<char,std::char_traits<char>,std::allocator<char> > *,std::basic_string<char,std::char_traits<char>,std::allocator<char> > *,std::allocator<std::basic_string<char,std::char_traits<char>,std::allocator<char> > > >, COMDAT

; 861  : 	{	// move [_First, _Last) to raw _Dest, using _Al

	push	ebp
	mov	ebp, esp
	push	ecx

; 862  : 	return (_STD _Uninit_move(_CHECKED_BASE(_First),
; 863  : 		_CHECKED_BASE(_Last), _Dest, _Al,
; 864  : 		_STD _Move_cat(_Dest), _STD _Range_checked_iterator_tag()));

	xor	eax, eax
	mov	BYTE PTR $T62770[ebp], al
	lea	ecx, DWORD PTR __Dest$[ebp]
	push	ecx
	call	??$_Move_cat@PAV?$basic_string@DU?$char_traits@D@std@@V?$allocator@D@2@@std@@@std@@YA?AU_Swap_move_tag@0@ABQAV?$basic_string@DU?$char_traits@D@std@@V?$allocator@D@2@@0@@Z ; std::_Move_cat<std::basic_string<char,std::char_traits<char>,std::allocator<char> > *>
	add	esp, 4
	mov	BYTE PTR $T62771[ebp], al
	movzx	edx, BYTE PTR $T62770[ebp]
	push	edx
	movzx	eax, BYTE PTR $T62771[ebp]
	push	eax
	mov	ecx, DWORD PTR __Al$[ebp]
	push	ecx
	mov	edx, DWORD PTR __Dest$[ebp]
	push	edx
	lea	eax, DWORD PTR __Last$[ebp]
	push	eax
	call	??$_Checked_base@PAV?$basic_string@DU?$char_traits@D@std@@V?$allocator@D@2@@std@@@std@@YAPAV?$basic_string@DU?$char_traits@D@std@@V?$allocator@D@2@@0@AAPAV10@@Z ; std::_Checked_base<std::basic_string<char,std::char_traits<char>,std::allocator<char> > *>
	add	esp, 4
	push	eax
	lea	ecx, DWORD PTR __First$[ebp]
	push	ecx
	call	??$_Checked_base@PAV?$basic_string@DU?$char_traits@D@std@@V?$allocator@D@2@@std@@@std@@YAPAV?$basic_string@DU?$char_traits@D@std@@V?$allocator@D@2@@0@AAPAV10@@Z ; std::_Checked_base<std::basic_string<char,std::char_traits<char>,std::allocator<char> > *>
	add	esp, 4
	push	eax
	call	??$_Uninit_move@PAV?$basic_string@DU?$char_traits@D@std@@V?$allocator@D@2@@std@@PAV12@V?$allocator@V?$basic_string@DU?$char_traits@D@std@@V?$allocator@D@2@@std@@@2@@std@@YAPAV?$basic_string@DU?$char_traits@D@std@@V?$allocator@D@2@@0@PAV10@00AAV?$allocator@V?$basic_string@DU?$char_traits@D@std@@V?$allocator@D@2@@std@@@0@U_Swap_move_tag@0@U_Range_checked_iterator_tag@0@@Z ; std::_Uninit_move<std::basic_string<char,std::char_traits<char>,std::allocator<char> > *,std::basic_string<char,std::char_traits<char>,std::allocator<char> > *,std::allocator<std::basic_string<char,std::char_traits<char>,std::allocator<char> > > >
	add	esp, 24					; 00000018H

; 865  : 	}

	mov	esp, ebp
	pop	ebp
	ret	0
??$_Unchecked_uninitialized_move@PAV?$basic_string@DU?$char_traits@D@std@@V?$allocator@D@2@@std@@PAV12@V?$allocator@V?$basic_string@DU?$char_traits@D@std@@V?$allocator@D@2@@std@@@2@@stdext@@YAPAV?$basic_string@DU?$char_traits@D@std@@V?$allocator@D@2@@std@@PAV12@00AAV?$allocator@V?$basic_string@DU?$char_traits@D@std@@V?$allocator@D@2@@std@@@2@@Z ENDP ; stdext::_Unchecked_uninitialized_move<std::basic_string<char,std::char_traits<char>,std::allocator<char> > *,std::basic_string<char,std::char_traits<char>,std::allocator<char> > *,std::allocator<std::basic_string<char,std::char_traits<char>,std::allocator<char> > > >
; Function compile flags: /Odtp
; File d:\program files (x86)\microsoft visual studio 9.0\vc\include\xutility
_TEXT	ENDS
;	COMDAT ??$_Fill@PAV?$basic_string@DU?$char_traits@D@std@@V?$allocator@D@2@@std@@V12@@std@@YAXPAV?$basic_string@DU?$char_traits@D@std@@V?$allocator@D@2@@0@0ABV10@@Z
_TEXT	SEGMENT
__First$ = 8						; size = 4
__Last$ = 12						; size = 4
__Val$ = 16						; size = 4
??$_Fill@PAV?$basic_string@DU?$char_traits@D@std@@V?$allocator@D@2@@std@@V12@@std@@YAXPAV?$basic_string@DU?$char_traits@D@std@@V?$allocator@D@2@@0@0ABV10@@Z PROC ; std::_Fill<std::basic_string<char,std::char_traits<char>,std::allocator<char> > *,std::basic_string<char,std::char_traits<char>,std::allocator<char> > >, COMDAT

; 3156 : 	{	// copy _Val through [_First, _Last)

	push	ebp
	mov	ebp, esp

; 3157 : 	_DEBUG_RANGE(_First, _Last);
; 3158 : 	for (; _First != _Last; ++_First)

	jmp	SHORT $LN3@Fill
$LN2@Fill:
	mov	eax, DWORD PTR __First$[ebp]
	add	eax, 28					; 0000001cH
	mov	DWORD PTR __First$[ebp], eax
$LN3@Fill:
	mov	ecx, DWORD PTR __First$[ebp]
	cmp	ecx, DWORD PTR __Last$[ebp]
	je	SHORT $LN4@Fill

; 3159 : 		*_First = _Val;

	mov	edx, DWORD PTR __Val$[ebp]
	push	edx
	mov	ecx, DWORD PTR __First$[ebp]
	call	DWORD PTR __imp_??4?$basic_string@DU?$char_traits@D@std@@V?$allocator@D@2@@std@@QAEAAV01@ABV01@@Z
	jmp	SHORT $LN2@Fill
$LN4@Fill:

; 3160 : 	}

	pop	ebp
	ret	0
??$_Fill@PAV?$basic_string@DU?$char_traits@D@std@@V?$allocator@D@2@@std@@V12@@std@@YAXPAV?$basic_string@DU?$char_traits@D@std@@V?$allocator@D@2@@0@0ABV10@@Z ENDP ; std::_Fill<std::basic_string<char,std::char_traits<char>,std::allocator<char> > *,std::basic_string<char,std::char_traits<char>,std::allocator<char> > >
; Function compile flags: /Odtp
_TEXT	ENDS
;	COMDAT ??$_Move_cat@PAV?$basic_string@DU?$char_traits@D@std@@V?$allocator@D@2@@std@@@std@@YA?AU_Swap_move_tag@0@ABQAV?$basic_string@DU?$char_traits@D@std@@V?$allocator@D@2@@0@@Z
_TEXT	SEGMENT
__Cat$ = -1						; size = 1
___formal$ = 8						; size = 4
??$_Move_cat@PAV?$basic_string@DU?$char_traits@D@std@@V?$allocator@D@2@@std@@@std@@YA?AU_Swap_move_tag@0@ABQAV?$basic_string@DU?$char_traits@D@std@@V?$allocator@D@2@@0@@Z PROC ; std::_Move_cat<std::basic_string<char,std::char_traits<char>,std::allocator<char> > *>, COMDAT

; 1200 : 	{

	push	ebp
	mov	ebp, esp
	push	ecx

; 1201 : 		typename _Move_operation_category<typename iterator_traits<_Iter>::value_type>::_Move_cat _Cat;
; 1202 : 		return (_Cat);

	mov	al, BYTE PTR __Cat$[ebp]

; 1203 : 	}

	mov	esp, ebp
	pop	ebp
	ret	0
??$_Move_cat@PAV?$basic_string@DU?$char_traits@D@std@@V?$allocator@D@2@@std@@@std@@YA?AU_Swap_move_tag@0@ABQAV?$basic_string@DU?$char_traits@D@std@@V?$allocator@D@2@@0@@Z ENDP ; std::_Move_cat<std::basic_string<char,std::char_traits<char>,std::allocator<char> > *>
_TEXT	ENDS
PUBLIC	??$_Move_backward_opt@PAV?$basic_string@DU?$char_traits@D@std@@V?$allocator@D@2@@std@@PAV12@Uforward_iterator_tag@2@@std@@YAPAV?$basic_string@DU?$char_traits@D@std@@V?$allocator@D@2@@0@PAV10@00Uforward_iterator_tag@0@U_Swap_move_tag@0@U_Range_checked_iterator_tag@0@@Z ; std::_Move_backward_opt<std::basic_string<char,std::char_traits<char>,std::allocator<char> > *,std::basic_string<char,std::char_traits<char>,std::allocator<char> > *,std::forward_iterator_tag>
; Function compile flags: /Odtp
;	COMDAT ??$_Move_backward_opt@PAV?$basic_string@DU?$char_traits@D@std@@V?$allocator@D@2@@std@@PAV12@@std@@YAPAV?$basic_string@DU?$char_traits@D@std@@V?$allocator@D@2@@0@PAV10@00Urandom_access_iterator_tag@0@U_Swap_move_tag@0@U_Range_checked_iterator_tag@0@@Z
_TEXT	SEGMENT
$T62779 = -6						; size = 1
$T62778 = -5						; size = 1
__Result$ = -4						; size = 4
__First$ = 8						; size = 4
__Last$ = 12						; size = 4
__Dest$ = 16						; size = 4
___formal$ = 20						; size = 1
__Move_cat$ = 24					; size = 1
___formal$ = 28						; size = 1
??$_Move_backward_opt@PAV?$basic_string@DU?$char_traits@D@std@@V?$allocator@D@2@@std@@PAV12@@std@@YAPAV?$basic_string@DU?$char_traits@D@std@@V?$allocator@D@2@@0@PAV10@00Urandom_access_iterator_tag@0@U_Swap_move_tag@0@U_Range_checked_iterator_tag@0@@Z PROC ; std::_Move_backward_opt<std::basic_string<char,std::char_traits<char>,std::allocator<char> > *,std::basic_string<char,std::char_traits<char>,std::allocator<char> > *>, COMDAT

; 2773 : 	{	// use swap to instead of the copy constructor

	push	ebp
	mov	ebp, esp
	sub	esp, 8

; 2774 : 	// if _OutIt is range checked, this will make sure there is enough space for the copy
; 2775 : 	_BidIt2 _Result = _Dest - (_Last - _First);

	mov	eax, DWORD PTR __Last$[ebp]
	sub	eax, DWORD PTR __First$[ebp]
	cdq
	mov	ecx, 28					; 0000001cH
	idiv	ecx
	imul	eax, 28					; 0000001cH
	mov	edx, DWORD PTR __Dest$[ebp]
	sub	edx, eax
	mov	DWORD PTR __Result$[ebp], edx

; 2776 : 	_Move_backward_opt(_First, _Last, _CHECKED_BASE(_Dest),
; 2777 : 		forward_iterator_tag(), _Move_cat, _Range_checked_iterator_tag());

	xor	eax, eax
	mov	BYTE PTR $T62778[ebp], al
	movzx	ecx, BYTE PTR $T62778[ebp]
	push	ecx
	movzx	edx, BYTE PTR __Move_cat$[ebp]
	push	edx
	movzx	eax, BYTE PTR $T62779[ebp]
	push	eax
	lea	ecx, DWORD PTR __Dest$[ebp]
	push	ecx
	call	??$_Checked_base@PAV?$basic_string@DU?$char_traits@D@std@@V?$allocator@D@2@@std@@@std@@YAPAV?$basic_string@DU?$char_traits@D@std@@V?$allocator@D@2@@0@AAPAV10@@Z ; std::_Checked_base<std::basic_string<char,std::char_traits<char>,std::allocator<char> > *>
	add	esp, 4
	push	eax
	mov	edx, DWORD PTR __Last$[ebp]
	push	edx
	mov	eax, DWORD PTR __First$[ebp]
	push	eax
	call	??$_Move_backward_opt@PAV?$basic_string@DU?$char_traits@D@std@@V?$allocator@D@2@@std@@PAV12@Uforward_iterator_tag@2@@std@@YAPAV?$basic_string@DU?$char_traits@D@std@@V?$allocator@D@2@@0@PAV10@00Uforward_iterator_tag@0@U_Swap_move_tag@0@U_Range_checked_iterator_tag@0@@Z ; std::_Move_backward_opt<std::basic_string<char,std::char_traits<char>,std::allocator<char> > *,std::basic_string<char,std::char_traits<char>,std::allocator<char> > *,std::forward_iterator_tag>
	add	esp, 24					; 00000018H

; 2778 : 	return _Result;

	mov	eax, DWORD PTR __Result$[ebp]

; 2779 : 	}

	mov	esp, ebp
	pop	ebp
	ret	0
??$_Move_backward_opt@PAV?$basic_string@DU?$char_traits@D@std@@V?$allocator@D@2@@std@@PAV12@@std@@YAPAV?$basic_string@DU?$char_traits@D@std@@V?$allocator@D@2@@0@PAV10@00Urandom_access_iterator_tag@0@U_Swap_move_tag@0@U_Range_checked_iterator_tag@0@@Z ENDP ; std::_Move_backward_opt<std::basic_string<char,std::char_traits<char>,std::allocator<char> > *,std::basic_string<char,std::char_traits<char>,std::allocator<char> > *>
_TEXT	ENDS
PUBLIC	?destroy@?$allocator@V?$basic_string@DU?$char_traits@D@std@@V?$allocator@D@2@@std@@@std@@QAEXPAV?$basic_string@DU?$char_traits@D@std@@V?$allocator@D@2@@2@@Z ; std::allocator<std::basic_string<char,std::char_traits<char>,std::allocator<char> > >::destroy
; Function compile flags: /Odtp
; File d:\program files (x86)\microsoft visual studio 9.0\vc\include\xmemory
;	COMDAT ??$_Destroy_range@V?$allocator@V?$basic_string@DU?$char_traits@D@std@@V?$allocator@D@2@@std@@@std@@@std@@YAXPAV?$basic_string@DU?$char_traits@D@std@@V?$allocator@D@2@@0@0AAV?$allocator@V?$basic_string@DU?$char_traits@D@std@@V?$allocator@D@2@@std@@@0@U_Nonscalar_ptr_iterator_tag@0@@Z
_TEXT	SEGMENT
__First$ = 8						; size = 4
__Last$ = 12						; size = 4
__Al$ = 16						; size = 4
___formal$ = 20						; size = 1
??$_Destroy_range@V?$allocator@V?$basic_string@DU?$char_traits@D@std@@V?$allocator@D@2@@std@@@std@@@std@@YAXPAV?$basic_string@DU?$char_traits@D@std@@V?$allocator@D@2@@0@0AAV?$allocator@V?$basic_string@DU?$char_traits@D@std@@V?$allocator@D@2@@std@@@0@U_Nonscalar_ptr_iterator_tag@0@@Z PROC ; std::_Destroy_range<std::allocator<std::basic_string<char,std::char_traits<char>,std::allocator<char> > > >, COMDAT

; 232  : 	{	// destroy [_First, _Last), arbitrary type

	push	ebp
	mov	ebp, esp

; 233  : 	for (; _First != _Last; ++_First)

	jmp	SHORT $LN3@Destroy_ra
$LN2@Destroy_ra:
	mov	eax, DWORD PTR __First$[ebp]
	add	eax, 28					; 0000001cH
	mov	DWORD PTR __First$[ebp], eax
$LN3@Destroy_ra:
	mov	ecx, DWORD PTR __First$[ebp]
	cmp	ecx, DWORD PTR __Last$[ebp]
	je	SHORT $LN4@Destroy_ra

; 234  : 		_Al.destroy(_First);

	mov	edx, DWORD PTR __First$[ebp]
	push	edx
	mov	ecx, DWORD PTR __Al$[ebp]
	call	?destroy@?$allocator@V?$basic_string@DU?$char_traits@D@std@@V?$allocator@D@2@@std@@@std@@QAEXPAV?$basic_string@DU?$char_traits@D@std@@V?$allocator@D@2@@2@@Z ; std::allocator<std::basic_string<char,std::char_traits<char>,std::allocator<char> > >::destroy
	jmp	SHORT $LN2@Destroy_ra
$LN4@Destroy_ra:

; 235  : 	}

	pop	ebp
	ret	0
??$_Destroy_range@V?$allocator@V?$basic_string@DU?$char_traits@D@std@@V?$allocator@D@2@@std@@@std@@@std@@YAXPAV?$basic_string@DU?$char_traits@D@std@@V?$allocator@D@2@@0@0AAV?$allocator@V?$basic_string@DU?$char_traits@D@std@@V?$allocator@D@2@@std@@@0@U_Nonscalar_ptr_iterator_tag@0@@Z ENDP ; std::_Destroy_range<std::allocator<std::basic_string<char,std::char_traits<char>,std::allocator<char> > > >
_TEXT	ENDS
PUBLIC	?construct@?$allocator@V?$basic_string@DU?$char_traits@D@std@@V?$allocator@D@2@@std@@@std@@QAEXPAV?$basic_string@DU?$char_traits@D@std@@V?$allocator@D@2@@2@ABV32@@Z ; std::allocator<std::basic_string<char,std::char_traits<char>,std::allocator<char> > >::construct
;	COMDAT xdata$x
; File d:\program files (x86)\microsoft visual studio 9.0\vc\include\memory
xdata$x	SEGMENT
__catchsym$??$_Uninit_fill_n@PAV?$basic_string@DU?$char_traits@D@std@@V?$allocator@D@2@@std@@IV12@V?$allocator@V?$basic_string@DU?$char_traits@D@std@@V?$allocator@D@2@@std@@@2@@std@@YAXPAV?$basic_string@DU?$char_traits@D@std@@V?$allocator@D@2@@0@IABV10@AAV?$allocator@V?$basic_string@DU?$char_traits@D@std@@V?$allocator@D@2@@std@@@0@U_Nonscalar_ptr_iterator_tag@0@U_Range_checked_iterator_tag@0@@Z$2 DD 00H
	DD	00H
	DD	00H
	DD	FLAT:__catch$??$_Uninit_fill_n@PAV?$basic_string@DU?$char_traits@D@std@@V?$allocator@D@2@@std@@IV12@V?$allocator@V?$basic_string@DU?$char_traits@D@std@@V?$allocator@D@2@@std@@@2@@std@@YAXPAV?$basic_string@DU?$char_traits@D@std@@V?$allocator@D@2@@0@IABV10@AAV?$allocator@V?$basic_string@DU?$char_traits@D@std@@V?$allocator@D@2@@std@@@0@U_Nonscalar_ptr_iterator_tag@0@U_Range_checked_iterator_tag@0@@Z$0
__unwindtable$??$_Uninit_fill_n@PAV?$basic_string@DU?$char_traits@D@std@@V?$allocator@D@2@@std@@IV12@V?$allocator@V?$basic_string@DU?$char_traits@D@std@@V?$allocator@D@2@@std@@@2@@std@@YAXPAV?$basic_string@DU?$char_traits@D@std@@V?$allocator@D@2@@0@IABV10@AAV?$allocator@V?$basic_string@DU?$char_traits@D@std@@V?$allocator@D@2@@std@@@0@U_Nonscalar_ptr_iterator_tag@0@U_Range_checked_iterator_tag@0@@Z DD 0ffffffffH
	DD	00H
	DD	0ffffffffH
	DD	00H
__tryblocktable$??$_Uninit_fill_n@PAV?$basic_string@DU?$char_traits@D@std@@V?$allocator@D@2@@std@@IV12@V?$allocator@V?$basic_string@DU?$char_traits@D@std@@V?$allocator@D@2@@std@@@2@@std@@YAXPAV?$basic_string@DU?$char_traits@D@std@@V?$allocator@D@2@@0@IABV10@AAV?$allocator@V?$basic_string@DU?$char_traits@D@std@@V?$allocator@D@2@@std@@@0@U_Nonscalar_ptr_iterator_tag@0@U_Range_checked_iterator_tag@0@@Z DD 00H
	DD	00H
	DD	01H
	DD	01H
	DD	FLAT:__catchsym$??$_Uninit_fill_n@PAV?$basic_string@DU?$char_traits@D@std@@V?$allocator@D@2@@std@@IV12@V?$allocator@V?$basic_string@DU?$char_traits@D@std@@V?$allocator@D@2@@std@@@2@@std@@YAXPAV?$basic_string@DU?$char_traits@D@std@@V?$allocator@D@2@@0@IABV10@AAV?$allocator@V?$basic_string@DU?$char_traits@D@std@@V?$allocator@D@2@@std@@@0@U_Nonscalar_ptr_iterator_tag@0@U_Range_checked_iterator_tag@0@@Z$2
__ehfuncinfo$??$_Uninit_fill_n@PAV?$basic_string@DU?$char_traits@D@std@@V?$allocator@D@2@@std@@IV12@V?$allocator@V?$basic_string@DU?$char_traits@D@std@@V?$allocator@D@2@@std@@@2@@std@@YAXPAV?$basic_string@DU?$char_traits@D@std@@V?$allocator@D@2@@0@IABV10@AAV?$allocator@V?$basic_string@DU?$char_traits@D@std@@V?$allocator@D@2@@std@@@0@U_Nonscalar_ptr_iterator_tag@0@U_Range_checked_iterator_tag@0@@Z DD 019930522H
	DD	02H
	DD	FLAT:__unwindtable$??$_Uninit_fill_n@PAV?$basic_string@DU?$char_traits@D@std@@V?$allocator@D@2@@std@@IV12@V?$allocator@V?$basic_string@DU?$char_traits@D@std@@V?$allocator@D@2@@std@@@2@@std@@YAXPAV?$basic_string@DU?$char_traits@D@std@@V?$allocator@D@2@@0@IABV10@AAV?$allocator@V?$basic_string@DU?$char_traits@D@std@@V?$allocator@D@2@@std@@@0@U_Nonscalar_ptr_iterator_tag@0@U_Range_checked_iterator_tag@0@@Z
	DD	01H
	DD	FLAT:__tryblocktable$??$_Uninit_fill_n@PAV?$basic_string@DU?$char_traits@D@std@@V?$allocator@D@2@@std@@IV12@V?$allocator@V?$basic_string@DU?$char_traits@D@std@@V?$allocator@D@2@@std@@@2@@std@@YAXPAV?$basic_string@DU?$char_traits@D@std@@V?$allocator@D@2@@0@IABV10@AAV?$allocator@V?$basic_string@DU?$char_traits@D@std@@V?$allocator@D@2@@std@@@0@U_Nonscalar_ptr_iterator_tag@0@U_Range_checked_iterator_tag@0@@Z
	DD	2 DUP(00H)
	DD	00H
	DD	00H
; Function compile flags: /Odtp
xdata$x	ENDS
;	COMDAT ??$_Uninit_fill_n@PAV?$basic_string@DU?$char_traits@D@std@@V?$allocator@D@2@@std@@IV12@V?$allocator@V?$basic_string@DU?$char_traits@D@std@@V?$allocator@D@2@@std@@@2@@std@@YAXPAV?$basic_string@DU?$char_traits@D@std@@V?$allocator@D@2@@0@IABV10@AAV?$allocator@V?$basic_string@DU?$char_traits@D@std@@V?$allocator@D@2@@std@@@0@U_Nonscalar_ptr_iterator_tag@0@U_Range_checked_iterator_tag@0@@Z
_TEXT	SEGMENT
__Next$ = -20						; size = 4
__$EHRec$ = -16						; size = 16
__First$ = 8						; size = 4
__Count$ = 12						; size = 4
__Val$ = 16						; size = 4
__Al$ = 20						; size = 4
___formal$ = 24						; size = 1
___formal$ = 28						; size = 1
??$_Uninit_fill_n@PAV?$basic_string@DU?$char_traits@D@std@@V?$allocator@D@2@@std@@IV12@V?$allocator@V?$basic_string@DU?$char_traits@D@std@@V?$allocator@D@2@@std@@@2@@std@@YAXPAV?$basic_string@DU?$char_traits@D@std@@V?$allocator@D@2@@0@IABV10@AAV?$allocator@V?$basic_string@DU?$char_traits@D@std@@V?$allocator@D@2@@std@@@0@U_Nonscalar_ptr_iterator_tag@0@U_Range_checked_iterator_tag@0@@Z PROC ; std::_Uninit_fill_n<std::basic_string<char,std::char_traits<char>,std::allocator<char> > *,unsigned int,std::basic_string<char,std::char_traits<char>,std::allocator<char> >,std::allocator<std::basic_string<char,std::char_traits<char>,std::allocator<char> > > >, COMDAT

; 393  : 	{	// copy _Count *_Val to raw _First, using _Al, arbitrary type

	push	ebp
	mov	ebp, esp
	push	-1
	push	__ehhandler$??$_Uninit_fill_n@PAV?$basic_string@DU?$char_traits@D@std@@V?$allocator@D@2@@std@@IV12@V?$allocator@V?$basic_string@DU?$char_traits@D@std@@V?$allocator@D@2@@std@@@2@@std@@YAXPAV?$basic_string@DU?$char_traits@D@std@@V?$allocator@D@2@@0@IABV10@AAV?$allocator@V?$basic_string@DU?$char_traits@D@std@@V?$allocator@D@2@@std@@@0@U_Nonscalar_ptr_iterator_tag@0@U_Range_checked_iterator_tag@0@@Z
	mov	eax, DWORD PTR fs:0
	push	eax
	push	ecx
	push	ecx
	push	ebx
	push	esi
	push	edi
	mov	eax, DWORD PTR ___security_cookie
	xor	eax, ebp
	push	eax
	lea	eax, DWORD PTR __$EHRec$[ebp+4]
	mov	DWORD PTR fs:0, eax
	mov	DWORD PTR __$EHRec$[ebp], esp

; 394  : 
; 395  :  #if _HAS_ITERATOR_DEBUGGING
; 396  : //	if (_Count < 0)
; 397  : //		_DEBUG_ERROR("negative count in uninitialized fill");
; 398  :  #endif /* _HAS_ITERATOR_DEBUGGING */
; 399  : 
; 400  : 	_FwdIt _Next = _First;

	mov	eax, DWORD PTR __First$[ebp]
	mov	DWORD PTR __Next$[ebp], eax

; 401  : 
; 402  : 	_TRY_BEGIN

	mov	DWORD PTR __$EHRec$[ebp+12], 0

; 403  : 	for (; 0 < _Count; --_Count, ++_First)

	jmp	SHORT $LN6@Uninit_fil
$LN5@Uninit_fil:
	mov	ecx, DWORD PTR __Count$[ebp]
	sub	ecx, 1
	mov	DWORD PTR __Count$[ebp], ecx
	mov	edx, DWORD PTR __First$[ebp]
	add	edx, 28					; 0000001cH
	mov	DWORD PTR __First$[ebp], edx
$LN6@Uninit_fil:
	cmp	DWORD PTR __Count$[ebp], 0
	jbe	SHORT $LN4@Uninit_fil

; 404  : 		_Al.construct(_First, _Val);

	mov	eax, DWORD PTR __Val$[ebp]
	push	eax
	mov	ecx, DWORD PTR __First$[ebp]
	push	ecx
	mov	ecx, DWORD PTR __Al$[ebp]
	call	?construct@?$allocator@V?$basic_string@DU?$char_traits@D@std@@V?$allocator@D@2@@std@@@std@@QAEXPAV?$basic_string@DU?$char_traits@D@std@@V?$allocator@D@2@@2@ABV32@@Z ; std::allocator<std::basic_string<char,std::char_traits<char>,std::allocator<char> > >::construct
	jmp	SHORT $LN5@Uninit_fil
$LN4@Uninit_fil:
	jmp	SHORT $LN10@Uninit_fil
__catch$??$_Uninit_fill_n@PAV?$basic_string@DU?$char_traits@D@std@@V?$allocator@D@2@@std@@IV12@V?$allocator@V?$basic_string@DU?$char_traits@D@std@@V?$allocator@D@2@@std@@@2@@std@@YAXPAV?$basic_string@DU?$char_traits@D@std@@V?$allocator@D@2@@0@IABV10@AAV?$allocator@V?$basic_string@DU?$char_traits@D@std@@V?$allocator@D@2@@std@@@0@U_Nonscalar_ptr_iterator_tag@0@U_Range_checked_iterator_tag@0@@Z$0:

; 405  : 	_CATCH_ALL
; 406  : 	for (; _Next != _First; ++_Next)

	jmp	SHORT $LN3@Uninit_fil
$LN2@Uninit_fil:
	mov	edx, DWORD PTR __Next$[ebp]
	add	edx, 28					; 0000001cH
	mov	DWORD PTR __Next$[ebp], edx
$LN3@Uninit_fil:
	mov	eax, DWORD PTR __Next$[ebp]
	cmp	eax, DWORD PTR __First$[ebp]
	je	SHORT $LN1@Uninit_fil

; 407  : 		_Al.destroy(_Next);

	mov	ecx, DWORD PTR __Next$[ebp]
	push	ecx
	mov	ecx, DWORD PTR __Al$[ebp]
	call	?destroy@?$allocator@V?$basic_string@DU?$char_traits@D@std@@V?$allocator@D@2@@std@@@std@@QAEXPAV?$basic_string@DU?$char_traits@D@std@@V?$allocator@D@2@@2@@Z ; std::allocator<std::basic_string<char,std::char_traits<char>,std::allocator<char> > >::destroy
	jmp	SHORT $LN2@Uninit_fil
$LN1@Uninit_fil:

; 408  : 	_RERAISE;

	push	0
	push	0
	call	__CxxThrowException@8

; 409  : 	_CATCH_END

	mov	DWORD PTR __$EHRec$[ebp+12], -1
	mov	eax, $LN9@Uninit_fil
	ret	0
$LN10@Uninit_fil:
	mov	DWORD PTR __$EHRec$[ebp+12], -1
$LN9@Uninit_fil:

; 410  : 	}

	mov	ecx, DWORD PTR __$EHRec$[ebp+4]
	mov	DWORD PTR fs:0, ecx
	pop	ecx
	pop	edi
	pop	esi
	pop	ebx
	mov	esp, ebp
	pop	ebp
	ret	0
_TEXT	ENDS
;	COMDAT text$x
text$x	SEGMENT
__ehhandler$??$_Uninit_fill_n@PAV?$basic_string@DU?$char_traits@D@std@@V?$allocator@D@2@@std@@IV12@V?$allocator@V?$basic_string@DU?$char_traits@D@std@@V?$allocator@D@2@@std@@@2@@std@@YAXPAV?$basic_string@DU?$char_traits@D@std@@V?$allocator@D@2@@0@IABV10@AAV?$allocator@V?$basic_string@DU?$char_traits@D@std@@V?$allocator@D@2@@std@@@0@U_Nonscalar_ptr_iterator_tag@0@U_Range_checked_iterator_tag@0@@Z:
	mov	edx, DWORD PTR [esp+8]
	lea	eax, DWORD PTR [edx+12]
	mov	ecx, DWORD PTR [edx-24]
	xor	ecx, eax
	call	@__security_check_cookie@4
	mov	eax, OFFSET __ehfuncinfo$??$_Uninit_fill_n@PAV?$basic_string@DU?$char_traits@D@std@@V?$allocator@D@2@@std@@IV12@V?$allocator@V?$basic_string@DU?$char_traits@D@std@@V?$allocator@D@2@@std@@@2@@std@@YAXPAV?$basic_string@DU?$char_traits@D@std@@V?$allocator@D@2@@0@IABV10@AAV?$allocator@V?$basic_string@DU?$char_traits@D@std@@V?$allocator@D@2@@std@@@0@U_Nonscalar_ptr_iterator_tag@0@U_Range_checked_iterator_tag@0@@Z
	jmp	___CxxFrameHandler3
text$x	ENDS
??$_Uninit_fill_n@PAV?$basic_string@DU?$char_traits@D@std@@V?$allocator@D@2@@std@@IV12@V?$allocator@V?$basic_string@DU?$char_traits@D@std@@V?$allocator@D@2@@std@@@2@@std@@YAXPAV?$basic_string@DU?$char_traits@D@std@@V?$allocator@D@2@@0@IABV10@AAV?$allocator@V?$basic_string@DU?$char_traits@D@std@@V?$allocator@D@2@@std@@@0@U_Nonscalar_ptr_iterator_tag@0@U_Range_checked_iterator_tag@0@@Z ENDP ; std::_Uninit_fill_n<std::basic_string<char,std::char_traits<char>,std::allocator<char> > *,unsigned int,std::basic_string<char,std::char_traits<char>,std::allocator<char> >,std::allocator<std::basic_string<char,std::char_traits<char>,std::allocator<char> > > >
PUBLIC	??$_Construct@V?$basic_string@DU?$char_traits@D@std@@V?$allocator@D@2@@std@@V12@@std@@YAXPAV?$basic_string@DU?$char_traits@D@std@@V?$allocator@D@2@@0@ABV10@@Z ; std::_Construct<std::basic_string<char,std::char_traits<char>,std::allocator<char> >,std::basic_string<char,std::char_traits<char>,std::allocator<char> > >
; Function compile flags: /Odtp
; File d:\program files (x86)\microsoft visual studio 9.0\vc\include\xmemory
;	COMDAT ?construct@?$allocator@V?$basic_string@DU?$char_traits@D@std@@V?$allocator@D@2@@std@@@std@@QAEXPAV?$basic_string@DU?$char_traits@D@std@@V?$allocator@D@2@@2@ABV32@@Z
_TEXT	SEGMENT
_this$ = -4						; size = 4
__Ptr$ = 8						; size = 4
__Val$ = 12						; size = 4
?construct@?$allocator@V?$basic_string@DU?$char_traits@D@std@@V?$allocator@D@2@@std@@@std@@QAEXPAV?$basic_string@DU?$char_traits@D@std@@V?$allocator@D@2@@2@ABV32@@Z PROC ; std::allocator<std::basic_string<char,std::char_traits<char>,std::allocator<char> > >::construct, COMDAT
; _this$ = ecx

; 154  : 		{	// construct object at _Ptr with value _Val

	push	ebp
	mov	ebp, esp
	push	ecx
	mov	DWORD PTR _this$[ebp], ecx

; 155  : 		_Construct(_Ptr, _Val);

	mov	eax, DWORD PTR __Val$[ebp]
	push	eax
	mov	ecx, DWORD PTR __Ptr$[ebp]
	push	ecx
	call	??$_Construct@V?$basic_string@DU?$char_traits@D@std@@V?$allocator@D@2@@std@@V12@@std@@YAXPAV?$basic_string@DU?$char_traits@D@std@@V?$allocator@D@2@@0@ABV10@@Z ; std::_Construct<std::basic_string<char,std::char_traits<char>,std::allocator<char> >,std::basic_string<char,std::char_traits<char>,std::allocator<char> > >
	add	esp, 8

; 156  : 		}

	mov	esp, ebp
	pop	ebp
	ret	8
?construct@?$allocator@V?$basic_string@DU?$char_traits@D@std@@V?$allocator@D@2@@std@@@std@@QAEXPAV?$basic_string@DU?$char_traits@D@std@@V?$allocator@D@2@@2@ABV32@@Z ENDP ; std::allocator<std::basic_string<char,std::char_traits<char>,std::allocator<char> > >::construct
_TEXT	ENDS
PUBLIC	??$_Destroy@V?$basic_string@DU?$char_traits@D@std@@V?$allocator@D@2@@std@@@std@@YAXPAV?$basic_string@DU?$char_traits@D@std@@V?$allocator@D@2@@0@@Z ; std::_Destroy<std::basic_string<char,std::char_traits<char>,std::allocator<char> > >
; Function compile flags: /Odtp
;	COMDAT ?destroy@?$allocator@V?$basic_string@DU?$char_traits@D@std@@V?$allocator@D@2@@std@@@std@@QAEXPAV?$basic_string@DU?$char_traits@D@std@@V?$allocator@D@2@@2@@Z
_TEXT	SEGMENT
_this$ = -4						; size = 4
__Ptr$ = 8						; size = 4
?destroy@?$allocator@V?$basic_string@DU?$char_traits@D@std@@V?$allocator@D@2@@std@@@std@@QAEXPAV?$basic_string@DU?$char_traits@D@std@@V?$allocator@D@2@@2@@Z PROC ; std::allocator<std::basic_string<char,std::char_traits<char>,std::allocator<char> > >::destroy, COMDAT
; _this$ = ecx

; 159  : 		{	// destroy object at _Ptr

	push	ebp
	mov	ebp, esp
	push	ecx
	mov	DWORD PTR _this$[ebp], ecx

; 160  : 		_Destroy(_Ptr);

	mov	eax, DWORD PTR __Ptr$[ebp]
	push	eax
	call	??$_Destroy@V?$basic_string@DU?$char_traits@D@std@@V?$allocator@D@2@@std@@@std@@YAXPAV?$basic_string@DU?$char_traits@D@std@@V?$allocator@D@2@@0@@Z ; std::_Destroy<std::basic_string<char,std::char_traits<char>,std::allocator<char> > >
	add	esp, 4

; 161  : 		}

	mov	esp, ebp
	pop	ebp
	ret	4
?destroy@?$allocator@V?$basic_string@DU?$char_traits@D@std@@V?$allocator@D@2@@std@@@std@@QAEXPAV?$basic_string@DU?$char_traits@D@std@@V?$allocator@D@2@@2@@Z ENDP ; std::allocator<std::basic_string<char,std::char_traits<char>,std::allocator<char> > >::destroy
; Function compile flags: /Odtp
; File d:\program files (x86)\microsoft visual studio 9.0\vc\include\xutility
_TEXT	ENDS
;	COMDAT ??$_Checked_base@PAV?$basic_string@DU?$char_traits@D@std@@V?$allocator@D@2@@std@@@std@@YAPAV?$basic_string@DU?$char_traits@D@std@@V?$allocator@D@2@@0@AAPAV10@U_Unchanged_checked_iterator_base_type_tag@0@@Z
_TEXT	SEGMENT
__It$ = 8						; size = 4
___formal$ = 12						; size = 1
??$_Checked_base@PAV?$basic_string@DU?$char_traits@D@std@@V?$allocator@D@2@@std@@@std@@YAPAV?$basic_string@DU?$char_traits@D@std@@V?$allocator@D@2@@0@AAPAV10@U_Unchanged_checked_iterator_base_type_tag@0@@Z PROC ; std::_Checked_base<std::basic_string<char,std::char_traits<char>,std::allocator<char> > *>, COMDAT

; 1146 : 	{

	push	ebp
	mov	ebp, esp

; 1147 : 		return _It;

	mov	eax, DWORD PTR __It$[ebp]
	mov	eax, DWORD PTR [eax]

; 1148 : 	}

	pop	ebp
	ret	0
??$_Checked_base@PAV?$basic_string@DU?$char_traits@D@std@@V?$allocator@D@2@@std@@@std@@YAPAV?$basic_string@DU?$char_traits@D@std@@V?$allocator@D@2@@0@AAPAV10@U_Unchanged_checked_iterator_base_type_tag@0@@Z ENDP ; std::_Checked_base<std::basic_string<char,std::char_traits<char>,std::allocator<char> > *>
; Function compile flags: /Odtp
_TEXT	ENDS
;	COMDAT ??$_Copy_opt@PAV?$basic_string@DU?$char_traits@D@std@@V?$allocator@D@2@@std@@PAV12@Uforward_iterator_tag@2@@std@@YAPAV?$basic_string@DU?$char_traits@D@std@@V?$allocator@D@2@@0@PAV10@00Uforward_iterator_tag@0@U_Nonscalar_ptr_iterator_tag@0@U_Range_checked_iterator_tag@0@@Z
_TEXT	SEGMENT
__First$ = 8						; size = 4
__Last$ = 12						; size = 4
__Dest$ = 16						; size = 4
___formal$ = 20						; size = 1
___formal$ = 24						; size = 1
___formal$ = 28						; size = 1
??$_Copy_opt@PAV?$basic_string@DU?$char_traits@D@std@@V?$allocator@D@2@@std@@PAV12@Uforward_iterator_tag@2@@std@@YAPAV?$basic_string@DU?$char_traits@D@std@@V?$allocator@D@2@@0@PAV10@00Uforward_iterator_tag@0@U_Nonscalar_ptr_iterator_tag@0@U_Range_checked_iterator_tag@0@@Z PROC ; std::_Copy_opt<std::basic_string<char,std::char_traits<char>,std::allocator<char> > *,std::basic_string<char,std::char_traits<char>,std::allocator<char> > *,std::forward_iterator_tag>, COMDAT

; 2469 : 	{	// copy [_First, _Last) to [_Dest, ...), arbitrary iterators

	push	ebp
	mov	ebp, esp

; 2470 : 	_DEBUG_RANGE(_First, _Last);
; 2471 : 	for (; _First != _Last; ++_Dest, ++_First)

	jmp	SHORT $LN3@Copy_opt
$LN2@Copy_opt:
	mov	eax, DWORD PTR __Dest$[ebp]
	add	eax, 28					; 0000001cH
	mov	DWORD PTR __Dest$[ebp], eax
	mov	ecx, DWORD PTR __First$[ebp]
	add	ecx, 28					; 0000001cH
	mov	DWORD PTR __First$[ebp], ecx
$LN3@Copy_opt:
	mov	edx, DWORD PTR __First$[ebp]
	cmp	edx, DWORD PTR __Last$[ebp]
	je	SHORT $LN1@Copy_opt

; 2472 : 		*_Dest = *_First;

	mov	eax, DWORD PTR __First$[ebp]
	push	eax
	mov	ecx, DWORD PTR __Dest$[ebp]
	call	DWORD PTR __imp_??4?$basic_string@DU?$char_traits@D@std@@V?$allocator@D@2@@std@@QAEAAV01@ABV01@@Z
	jmp	SHORT $LN2@Copy_opt
$LN1@Copy_opt:

; 2473 : 	return (_Dest);

	mov	eax, DWORD PTR __Dest$[ebp]

; 2474 : 	}

	pop	ebp
	ret	0
??$_Copy_opt@PAV?$basic_string@DU?$char_traits@D@std@@V?$allocator@D@2@@std@@PAV12@Uforward_iterator_tag@2@@std@@YAPAV?$basic_string@DU?$char_traits@D@std@@V?$allocator@D@2@@0@PAV10@00Uforward_iterator_tag@0@U_Nonscalar_ptr_iterator_tag@0@U_Range_checked_iterator_tag@0@@Z ENDP ; std::_Copy_opt<std::basic_string<char,std::char_traits<char>,std::allocator<char> > *,std::basic_string<char,std::char_traits<char>,std::allocator<char> > *,std::forward_iterator_tag>
_TEXT	ENDS
PUBLIC	??$_Swap_adl@V?$basic_string@DU?$char_traits@D@std@@V?$allocator@D@2@@std@@@std@@YAXAAV?$basic_string@DU?$char_traits@D@std@@V?$allocator@D@2@@0@0@Z ; std::_Swap_adl<std::basic_string<char,std::char_traits<char>,std::allocator<char> > >
PUBLIC	__$ArrayPad$
;	COMDAT xdata$x
; File d:\program files (x86)\microsoft visual studio 9.0\vc\include\memory
xdata$x	SEGMENT
__catchsym$??$_Uninit_move@PAV?$basic_string@DU?$char_traits@D@std@@V?$allocator@D@2@@std@@PAV12@V?$allocator@V?$basic_string@DU?$char_traits@D@std@@V?$allocator@D@2@@std@@@2@@std@@YAPAV?$basic_string@DU?$char_traits@D@std@@V?$allocator@D@2@@0@PAV10@00AAV?$allocator@V?$basic_string@DU?$char_traits@D@std@@V?$allocator@D@2@@std@@@0@U_Swap_move_tag@0@U_Range_checked_iterator_tag@0@@Z$3 DD 00H
	DD	00H
	DD	00H
	DD	FLAT:__catch$??$_Uninit_move@PAV?$basic_string@DU?$char_traits@D@std@@V?$allocator@D@2@@std@@PAV12@V?$allocator@V?$basic_string@DU?$char_traits@D@std@@V?$allocator@D@2@@std@@@2@@std@@YAPAV?$basic_string@DU?$char_traits@D@std@@V?$allocator@D@2@@0@PAV10@00AAV?$allocator@V?$basic_string@DU?$char_traits@D@std@@V?$allocator@D@2@@std@@@0@U_Swap_move_tag@0@U_Range_checked_iterator_tag@0@@Z$0
__tryblocktable$??$_Uninit_move@PAV?$basic_string@DU?$char_traits@D@std@@V?$allocator@D@2@@std@@PAV12@V?$allocator@V?$basic_string@DU?$char_traits@D@std@@V?$allocator@D@2@@std@@@2@@std@@YAPAV?$basic_string@DU?$char_traits@D@std@@V?$allocator@D@2@@0@PAV10@00AAV?$allocator@V?$basic_string@DU?$char_traits@D@std@@V?$allocator@D@2@@std@@@0@U_Swap_move_tag@0@U_Range_checked_iterator_tag@0@@Z DD 01H
	DD	01H
	DD	02H
	DD	01H
	DD	FLAT:__catchsym$??$_Uninit_move@PAV?$basic_string@DU?$char_traits@D@std@@V?$allocator@D@2@@std@@PAV12@V?$allocator@V?$basic_string@DU?$char_traits@D@std@@V?$allocator@D@2@@std@@@2@@std@@YAPAV?$basic_string@DU?$char_traits@D@std@@V?$allocator@D@2@@0@PAV10@00AAV?$allocator@V?$basic_string@DU?$char_traits@D@std@@V?$allocator@D@2@@std@@@0@U_Swap_move_tag@0@U_Range_checked_iterator_tag@0@@Z$3
__unwindtable$??$_Uninit_move@PAV?$basic_string@DU?$char_traits@D@std@@V?$allocator@D@2@@std@@PAV12@V?$allocator@V?$basic_string@DU?$char_traits@D@std@@V?$allocator@D@2@@std@@@2@@std@@YAPAV?$basic_string@DU?$char_traits@D@std@@V?$allocator@D@2@@0@PAV10@00AAV?$allocator@V?$basic_string@DU?$char_traits@D@std@@V?$allocator@D@2@@std@@@0@U_Swap_move_tag@0@U_Range_checked_iterator_tag@0@@Z DD 0ffffffffH
	DD	FLAT:__unwindfunclet$??$_Uninit_move@PAV?$basic_string@DU?$char_traits@D@std@@V?$allocator@D@2@@std@@PAV12@V?$allocator@V?$basic_string@DU?$char_traits@D@std@@V?$allocator@D@2@@std@@@2@@std@@YAPAV?$basic_string@DU?$char_traits@D@std@@V?$allocator@D@2@@0@PAV10@00AAV?$allocator@V?$basic_string@DU?$char_traits@D@std@@V?$allocator@D@2@@std@@@0@U_Swap_move_tag@0@U_Range_checked_iterator_tag@0@@Z$2
	DD	00H
	DD	00H
	DD	00H
	DD	00H
__ehfuncinfo$??$_Uninit_move@PAV?$basic_string@DU?$char_traits@D@std@@V?$allocator@D@2@@std@@PAV12@V?$allocator@V?$basic_string@DU?$char_traits@D@std@@V?$allocator@D@2@@std@@@2@@std@@YAPAV?$basic_string@DU?$char_traits@D@std@@V?$allocator@D@2@@0@PAV10@00AAV?$allocator@V?$basic_string@DU?$char_traits@D@std@@V?$allocator@D@2@@std@@@0@U_Swap_move_tag@0@U_Range_checked_iterator_tag@0@@Z DD 019930522H
	DD	03H
	DD	FLAT:__unwindtable$??$_Uninit_move@PAV?$basic_string@DU?$char_traits@D@std@@V?$allocator@D@2@@std@@PAV12@V?$allocator@V?$basic_string@DU?$char_traits@D@std@@V?$allocator@D@2@@std@@@2@@std@@YAPAV?$basic_string@DU?$char_traits@D@std@@V?$allocator@D@2@@0@PAV10@00AAV?$allocator@V?$basic_string@DU?$char_traits@D@std@@V?$allocator@D@2@@std@@@0@U_Swap_move_tag@0@U_Range_checked_iterator_tag@0@@Z
	DD	01H
	DD	FLAT:__tryblocktable$??$_Uninit_move@PAV?$basic_string@DU?$char_traits@D@std@@V?$allocator@D@2@@std@@PAV12@V?$allocator@V?$basic_string@DU?$char_traits@D@std@@V?$allocator@D@2@@std@@@2@@std@@YAPAV?$basic_string@DU?$char_traits@D@std@@V?$allocator@D@2@@0@PAV10@00AAV?$allocator@V?$basic_string@DU?$char_traits@D@std@@V?$allocator@D@2@@std@@@0@U_Swap_move_tag@0@U_Range_checked_iterator_tag@0@@Z
	DD	2 DUP(00H)
	DD	00H
	DD	00H
; Function compile flags: /Odtp
xdata$x	ENDS
;	COMDAT ??$_Uninit_move@PAV?$basic_string@DU?$char_traits@D@std@@V?$allocator@D@2@@std@@PAV12@V?$allocator@V?$basic_string@DU?$char_traits@D@std@@V?$allocator@D@2@@std@@@2@@std@@YAPAV?$basic_string@DU?$char_traits@D@std@@V?$allocator@D@2@@0@PAV10@00AAV?$allocator@V?$basic_string@DU?$char_traits@D@std@@V?$allocator@D@2@@std@@@0@U_Swap_move_tag@0@U_Range_checked_iterator_tag@0@@Z
_TEXT	SEGMENT
$T62808 = -56						; size = 4
__Val$ = -52						; size = 28
__$ArrayPad$ = -24					; size = 4
__Next$ = -20						; size = 4
__$EHRec$ = -16						; size = 16
__First$ = 8						; size = 4
__Last$ = 12						; size = 4
__Dest$ = 16						; size = 4
__Al$ = 20						; size = 4
___formal$ = 24						; size = 1
___formal$ = 28						; size = 1
??$_Uninit_move@PAV?$basic_string@DU?$char_traits@D@std@@V?$allocator@D@2@@std@@PAV12@V?$allocator@V?$basic_string@DU?$char_traits@D@std@@V?$allocator@D@2@@std@@@2@@std@@YAPAV?$basic_string@DU?$char_traits@D@std@@V?$allocator@D@2@@0@PAV10@00AAV?$allocator@V?$basic_string@DU?$char_traits@D@std@@V?$allocator@D@2@@std@@@0@U_Swap_move_tag@0@U_Range_checked_iterator_tag@0@@Z PROC ; std::_Uninit_move<std::basic_string<char,std::char_traits<char>,std::allocator<char> > *,std::basic_string<char,std::char_traits<char>,std::allocator<char> > *,std::allocator<std::basic_string<char,std::char_traits<char>,std::allocator<char> > > >, COMDAT

; 214  : 	{	// use swap to instead of the copy constructor

	push	ebp
	mov	ebp, esp
	push	-1
	push	__ehhandler$??$_Uninit_move@PAV?$basic_string@DU?$char_traits@D@std@@V?$allocator@D@2@@std@@PAV12@V?$allocator@V?$basic_string@DU?$char_traits@D@std@@V?$allocator@D@2@@std@@@2@@std@@YAPAV?$basic_string@DU?$char_traits@D@std@@V?$allocator@D@2@@0@PAV10@00AAV?$allocator@V?$basic_string@DU?$char_traits@D@std@@V?$allocator@D@2@@std@@@0@U_Swap_move_tag@0@U_Range_checked_iterator_tag@0@@Z
	mov	eax, DWORD PTR fs:0
	push	eax
	push	ecx
	sub	esp, 40					; 00000028H
	mov	eax, DWORD PTR ___security_cookie
	xor	eax, ebp
	mov	DWORD PTR __$ArrayPad$[ebp], eax
	push	ebx
	push	esi
	push	edi
	push	eax
	lea	eax, DWORD PTR __$EHRec$[ebp+4]
	mov	DWORD PTR fs:0, eax
	mov	DWORD PTR __$EHRec$[ebp], esp

; 215  : 	_DEBUG_RANGE(_First, _Last);
; 216  : 	_DEBUG_POINTER(_Dest);
; 217  : 	_FwdIt _Next = _Dest;

	mov	eax, DWORD PTR __Dest$[ebp]
	mov	DWORD PTR __Next$[ebp], eax

; 218  : 	// empty value used in the construction
; 219  : 	typename _Alloc::value_type _Val;

	lea	ecx, DWORD PTR __Val$[ebp]
	call	DWORD PTR __imp_??0?$basic_string@DU?$char_traits@D@std@@V?$allocator@D@2@@std@@QAE@XZ
	mov	DWORD PTR __$EHRec$[ebp+12], 0

; 220  : 
; 221  : 	_TRY_BEGIN

	mov	BYTE PTR __$EHRec$[ebp+12], 1

; 222  : 	for (; _First != _Last; ++_Dest, ++_First)

	jmp	SHORT $LN6@Uninit_mov
$LN5@Uninit_mov:
	mov	ecx, DWORD PTR __Dest$[ebp]
	add	ecx, 28					; 0000001cH
	mov	DWORD PTR __Dest$[ebp], ecx
	mov	edx, DWORD PTR __First$[ebp]
	add	edx, 28					; 0000001cH
	mov	DWORD PTR __First$[ebp], edx
$LN6@Uninit_mov:
	mov	eax, DWORD PTR __First$[ebp]
	cmp	eax, DWORD PTR __Last$[ebp]
	je	SHORT $LN4@Uninit_mov

; 223  : 		{
; 224  : 		_Al.construct(_Dest, _Val);

	lea	ecx, DWORD PTR __Val$[ebp]
	push	ecx
	mov	edx, DWORD PTR __Dest$[ebp]
	push	edx
	mov	ecx, DWORD PTR __Al$[ebp]
	call	?construct@?$allocator@V?$basic_string@DU?$char_traits@D@std@@V?$allocator@D@2@@std@@@std@@QAEXPAV?$basic_string@DU?$char_traits@D@std@@V?$allocator@D@2@@2@ABV32@@Z ; std::allocator<std::basic_string<char,std::char_traits<char>,std::allocator<char> > >::construct

; 225  : 		_STD _Swap_adl(*_Dest, *_First);

	mov	eax, DWORD PTR __First$[ebp]
	push	eax
	mov	ecx, DWORD PTR __Dest$[ebp]
	push	ecx
	call	??$_Swap_adl@V?$basic_string@DU?$char_traits@D@std@@V?$allocator@D@2@@std@@@std@@YAXAAV?$basic_string@DU?$char_traits@D@std@@V?$allocator@D@2@@0@0@Z ; std::_Swap_adl<std::basic_string<char,std::char_traits<char>,std::allocator<char> > >
	add	esp, 8

; 226  : 		}

	jmp	SHORT $LN5@Uninit_mov
$LN4@Uninit_mov:
	jmp	SHORT $LN10@Uninit_mov
__catch$??$_Uninit_move@PAV?$basic_string@DU?$char_traits@D@std@@V?$allocator@D@2@@std@@PAV12@V?$allocator@V?$basic_string@DU?$char_traits@D@std@@V?$allocator@D@2@@std@@@2@@std@@YAPAV?$basic_string@DU?$char_traits@D@std@@V?$allocator@D@2@@0@PAV10@00AAV?$allocator@V?$basic_string@DU?$char_traits@D@std@@V?$allocator@D@2@@std@@@0@U_Swap_move_tag@0@U_Range_checked_iterator_tag@0@@Z$0:

; 227  : 	_CATCH_ALL
; 228  : 	for (; _Next != _Dest; ++_Next)

	jmp	SHORT $LN3@Uninit_mov
$LN2@Uninit_mov:
	mov	edx, DWORD PTR __Next$[ebp]
	add	edx, 28					; 0000001cH
	mov	DWORD PTR __Next$[ebp], edx
$LN3@Uninit_mov:
	mov	eax, DWORD PTR __Next$[ebp]
	cmp	eax, DWORD PTR __Dest$[ebp]
	je	SHORT $LN1@Uninit_mov

; 229  : 		_Al.destroy(_Next);

	mov	ecx, DWORD PTR __Next$[ebp]
	push	ecx
	mov	ecx, DWORD PTR __Al$[ebp]
	call	?destroy@?$allocator@V?$basic_string@DU?$char_traits@D@std@@V?$allocator@D@2@@std@@@std@@QAEXPAV?$basic_string@DU?$char_traits@D@std@@V?$allocator@D@2@@2@@Z ; std::allocator<std::basic_string<char,std::char_traits<char>,std::allocator<char> > >::destroy
	jmp	SHORT $LN2@Uninit_mov
$LN1@Uninit_mov:

; 230  : 	_RERAISE;

	push	0
	push	0
	call	__CxxThrowException@8

; 231  : 	_CATCH_END

	mov	DWORD PTR __$EHRec$[ebp+12], 0
	mov	eax, __tryend$??$_Uninit_move@PAV?$basic_string@DU?$char_traits@D@std@@V?$allocator@D@2@@std@@PAV12@V?$allocator@V?$basic_string@DU?$char_traits@D@std@@V?$allocator@D@2@@std@@@2@@std@@YAPAV?$basic_string@DU?$char_traits@D@std@@V?$allocator@D@2@@0@PAV10@00AAV?$allocator@V?$basic_string@DU?$char_traits@D@std@@V?$allocator@D@2@@std@@@0@U_Swap_move_tag@0@U_Range_checked_iterator_tag@0@@Z$1
	ret	0
$LN10@Uninit_mov:
	mov	DWORD PTR __$EHRec$[ebp+12], 0
__tryend$??$_Uninit_move@PAV?$basic_string@DU?$char_traits@D@std@@V?$allocator@D@2@@std@@PAV12@V?$allocator@V?$basic_string@DU?$char_traits@D@std@@V?$allocator@D@2@@std@@@2@@std@@YAPAV?$basic_string@DU?$char_traits@D@std@@V?$allocator@D@2@@0@PAV10@00AAV?$allocator@V?$basic_string@DU?$char_traits@D@std@@V?$allocator@D@2@@std@@@0@U_Swap_move_tag@0@U_Range_checked_iterator_tag@0@@Z$1:

; 232  : 	return (_Dest);

	mov	edx, DWORD PTR __Dest$[ebp]
	mov	DWORD PTR $T62808[ebp], edx
	mov	DWORD PTR __$EHRec$[ebp+12], -1
	lea	ecx, DWORD PTR __Val$[ebp]
	call	DWORD PTR __imp_??1?$basic_string@DU?$char_traits@D@std@@V?$allocator@D@2@@std@@QAE@XZ
	mov	eax, DWORD PTR $T62808[ebp]
$LN9@Uninit_mov:

; 233  : 	}

	mov	ecx, DWORD PTR __$EHRec$[ebp+4]
	mov	DWORD PTR fs:0, ecx
	pop	ecx
	pop	edi
	pop	esi
	pop	ebx
	mov	ecx, DWORD PTR __$ArrayPad$[ebp]
	xor	ecx, ebp
	call	@__security_check_cookie@4
	mov	esp, ebp
	pop	ebp
	ret	0
_TEXT	ENDS
;	COMDAT text$x
text$x	SEGMENT
__unwindfunclet$??$_Uninit_move@PAV?$basic_string@DU?$char_traits@D@std@@V?$allocator@D@2@@std@@PAV12@V?$allocator@V?$basic_string@DU?$char_traits@D@std@@V?$allocator@D@2@@std@@@2@@std@@YAPAV?$basic_string@DU?$char_traits@D@std@@V?$allocator@D@2@@0@PAV10@00AAV?$allocator@V?$basic_string@DU?$char_traits@D@std@@V?$allocator@D@2@@std@@@0@U_Swap_move_tag@0@U_Range_checked_iterator_tag@0@@Z$2:
	lea	ecx, DWORD PTR __Val$[ebp]
	jmp	DWORD PTR __imp_??1?$basic_string@DU?$char_traits@D@std@@V?$allocator@D@2@@std@@QAE@XZ
__ehhandler$??$_Uninit_move@PAV?$basic_string@DU?$char_traits@D@std@@V?$allocator@D@2@@std@@PAV12@V?$allocator@V?$basic_string@DU?$char_traits@D@std@@V?$allocator@D@2@@std@@@2@@std@@YAPAV?$basic_string@DU?$char_traits@D@std@@V?$allocator@D@2@@0@PAV10@00AAV?$allocator@V?$basic_string@DU?$char_traits@D@std@@V?$allocator@D@2@@std@@@0@U_Swap_move_tag@0@U_Range_checked_iterator_tag@0@@Z:
	mov	edx, DWORD PTR [esp+8]
	lea	eax, DWORD PTR [edx+12]
	mov	ecx, DWORD PTR [edx-60]
	xor	ecx, eax
	call	@__security_check_cookie@4
	mov	ecx, DWORD PTR [edx-12]
	xor	ecx, eax
	call	@__security_check_cookie@4
	mov	eax, OFFSET __ehfuncinfo$??$_Uninit_move@PAV?$basic_string@DU?$char_traits@D@std@@V?$allocator@D@2@@std@@PAV12@V?$allocator@V?$basic_string@DU?$char_traits@D@std@@V?$allocator@D@2@@std@@@2@@std@@YAPAV?$basic_string@DU?$char_traits@D@std@@V?$allocator@D@2@@0@PAV10@00AAV?$allocator@V?$basic_string@DU?$char_traits@D@std@@V?$allocator@D@2@@std@@@0@U_Swap_move_tag@0@U_Range_checked_iterator_tag@0@@Z
	jmp	___CxxFrameHandler3
text$x	ENDS
??$_Uninit_move@PAV?$basic_string@DU?$char_traits@D@std@@V?$allocator@D@2@@std@@PAV12@V?$allocator@V?$basic_string@DU?$char_traits@D@std@@V?$allocator@D@2@@std@@@2@@std@@YAPAV?$basic_string@DU?$char_traits@D@std@@V?$allocator@D@2@@0@PAV10@00AAV?$allocator@V?$basic_string@DU?$char_traits@D@std@@V?$allocator@D@2@@std@@@0@U_Swap_move_tag@0@U_Range_checked_iterator_tag@0@@Z ENDP ; std::_Uninit_move<std::basic_string<char,std::char_traits<char>,std::allocator<char> > *,std::basic_string<char,std::char_traits<char>,std::allocator<char> > *,std::allocator<std::basic_string<char,std::char_traits<char>,std::allocator<char> > > >
; Function compile flags: /Odtp
; File d:\program files (x86)\microsoft visual studio 9.0\vc\include\xutility
;	COMDAT ??$_Move_backward_opt@PAV?$basic_string@DU?$char_traits@D@std@@V?$allocator@D@2@@std@@PAV12@Uforward_iterator_tag@2@@std@@YAPAV?$basic_string@DU?$char_traits@D@std@@V?$allocator@D@2@@0@PAV10@00Uforward_iterator_tag@0@U_Swap_move_tag@0@U_Range_checked_iterator_tag@0@@Z
_TEXT	SEGMENT
__First$ = 8						; size = 4
__Last$ = 12						; size = 4
__Dest$ = 16						; size = 4
___formal$ = 20						; size = 1
___formal$ = 24						; size = 1
___formal$ = 28						; size = 1
??$_Move_backward_opt@PAV?$basic_string@DU?$char_traits@D@std@@V?$allocator@D@2@@std@@PAV12@Uforward_iterator_tag@2@@std@@YAPAV?$basic_string@DU?$char_traits@D@std@@V?$allocator@D@2@@0@PAV10@00Uforward_iterator_tag@0@U_Swap_move_tag@0@U_Range_checked_iterator_tag@0@@Z PROC ; std::_Move_backward_opt<std::basic_string<char,std::char_traits<char>,std::allocator<char> > *,std::basic_string<char,std::char_traits<char>,std::allocator<char> > *,std::forward_iterator_tag>, COMDAT

; 2761 : 	{	// use swap instead of the copy constructor

	push	ebp
	mov	ebp, esp
$LN2@Move_backw:

; 2762 : 	_DEBUG_RANGE(_First, _Last);
; 2763 : 	while (_First != _Last)

	mov	eax, DWORD PTR __First$[ebp]
	cmp	eax, DWORD PTR __Last$[ebp]
	je	SHORT $LN1@Move_backw

; 2764 : 		_STD _Swap_adl(*--_Dest, *--_Last);

	mov	ecx, DWORD PTR __Last$[ebp]
	sub	ecx, 28					; 0000001cH
	mov	DWORD PTR __Last$[ebp], ecx
	mov	edx, DWORD PTR __Dest$[ebp]
	sub	edx, 28					; 0000001cH
	mov	DWORD PTR __Dest$[ebp], edx
	mov	eax, DWORD PTR __Last$[ebp]
	push	eax
	mov	ecx, DWORD PTR __Dest$[ebp]
	push	ecx
	call	??$_Swap_adl@V?$basic_string@DU?$char_traits@D@std@@V?$allocator@D@2@@std@@@std@@YAXAAV?$basic_string@DU?$char_traits@D@std@@V?$allocator@D@2@@0@0@Z ; std::_Swap_adl<std::basic_string<char,std::char_traits<char>,std::allocator<char> > >
	add	esp, 8
	jmp	SHORT $LN2@Move_backw
$LN1@Move_backw:

; 2765 : 	return (_Dest);

	mov	eax, DWORD PTR __Dest$[ebp]

; 2766 : 	}

	pop	ebp
	ret	0
??$_Move_backward_opt@PAV?$basic_string@DU?$char_traits@D@std@@V?$allocator@D@2@@std@@PAV12@Uforward_iterator_tag@2@@std@@YAPAV?$basic_string@DU?$char_traits@D@std@@V?$allocator@D@2@@0@PAV10@00Uforward_iterator_tag@0@U_Swap_move_tag@0@U_Range_checked_iterator_tag@0@@Z ENDP ; std::_Move_backward_opt<std::basic_string<char,std::char_traits<char>,std::allocator<char> > *,std::basic_string<char,std::char_traits<char>,std::allocator<char> > *,std::forward_iterator_tag>
_TEXT	ENDS
PUBLIC	??3@YAXPAX0@Z					; operator delete
PUBLIC	??2@YAPAXIPAX@Z					; operator new
;	COMDAT xdata$x
; File d:\program files (x86)\microsoft visual studio 9.0\vc\include\xmemory
xdata$x	SEGMENT
__unwindtable$??$_Construct@V?$basic_string@DU?$char_traits@D@std@@V?$allocator@D@2@@std@@V12@@std@@YAXPAV?$basic_string@DU?$char_traits@D@std@@V?$allocator@D@2@@0@ABV10@@Z DD 0ffffffffH
	DD	FLAT:__unwindfunclet$??$_Construct@V?$basic_string@DU?$char_traits@D@std@@V?$allocator@D@2@@std@@V12@@std@@YAXPAV?$basic_string@DU?$char_traits@D@std@@V?$allocator@D@2@@0@ABV10@@Z$0
__ehfuncinfo$??$_Construct@V?$basic_string@DU?$char_traits@D@std@@V?$allocator@D@2@@std@@V12@@std@@YAXPAV?$basic_string@DU?$char_traits@D@std@@V?$allocator@D@2@@0@ABV10@@Z DD 019930522H
	DD	01H
	DD	FLAT:__unwindtable$??$_Construct@V?$basic_string@DU?$char_traits@D@std@@V?$allocator@D@2@@std@@V12@@std@@YAXPAV?$basic_string@DU?$char_traits@D@std@@V?$allocator@D@2@@0@ABV10@@Z
	DD	2 DUP(00H)
	DD	2 DUP(00H)
	DD	00H
	DD	00H
; Function compile flags: /Odtp
xdata$x	ENDS
;	COMDAT ??$_Construct@V?$basic_string@DU?$char_traits@D@std@@V?$allocator@D@2@@std@@V12@@std@@YAXPAV?$basic_string@DU?$char_traits@D@std@@V?$allocator@D@2@@0@ABV10@@Z
_TEXT	SEGMENT
tv74 = -28						; size = 4
$T62828 = -24						; size = 4
$T62827 = -20						; size = 4
__Vptr$ = -16						; size = 4
__$EHRec$ = -12						; size = 12
__Ptr$ = 8						; size = 4
__Val$ = 12						; size = 4
??$_Construct@V?$basic_string@DU?$char_traits@D@std@@V?$allocator@D@2@@std@@V12@@std@@YAXPAV?$basic_string@DU?$char_traits@D@std@@V?$allocator@D@2@@0@ABV10@@Z PROC ; std::_Construct<std::basic_string<char,std::char_traits<char>,std::allocator<char> >,std::basic_string<char,std::char_traits<char>,std::allocator<char> > >, COMDAT

; 50   : 	{	// construct object at _Ptr with value _Val

	push	ebp
	mov	ebp, esp
	push	-1
	push	__ehhandler$??$_Construct@V?$basic_string@DU?$char_traits@D@std@@V?$allocator@D@2@@std@@V12@@std@@YAXPAV?$basic_string@DU?$char_traits@D@std@@V?$allocator@D@2@@0@ABV10@@Z
	mov	eax, DWORD PTR fs:0
	push	eax
	sub	esp, 16					; 00000010H
	mov	eax, DWORD PTR ___security_cookie
	xor	eax, ebp
	push	eax
	lea	eax, DWORD PTR __$EHRec$[ebp]
	mov	DWORD PTR fs:0, eax

; 51   : 	void _FARQ *_Vptr = _Ptr;

	mov	eax, DWORD PTR __Ptr$[ebp]
	mov	DWORD PTR __Vptr$[ebp], eax

; 52   : 	::new (_Vptr) _T1(_Val);

	mov	ecx, DWORD PTR __Vptr$[ebp]
	push	ecx
	push	28					; 0000001cH
	call	??2@YAPAXIPAX@Z				; operator new
	add	esp, 8
	mov	DWORD PTR $T62828[ebp], eax
	mov	DWORD PTR __$EHRec$[ebp+8], 0
	cmp	DWORD PTR $T62828[ebp], 0
	je	SHORT $LN3@Construct
	mov	edx, DWORD PTR __Val$[ebp]
	push	edx
	mov	ecx, DWORD PTR $T62828[ebp]
	call	DWORD PTR __imp_??0?$basic_string@DU?$char_traits@D@std@@V?$allocator@D@2@@std@@QAE@ABV01@@Z
	mov	DWORD PTR tv74[ebp], eax
	jmp	SHORT $LN4@Construct
$LN3@Construct:
	mov	DWORD PTR tv74[ebp], 0
$LN4@Construct:
	mov	eax, DWORD PTR tv74[ebp]
	mov	DWORD PTR $T62827[ebp], eax
	mov	DWORD PTR __$EHRec$[ebp+8], -1

; 53   : 	}

	mov	ecx, DWORD PTR __$EHRec$[ebp]
	mov	DWORD PTR fs:0, ecx
	pop	ecx
	mov	esp, ebp
	pop	ebp
	ret	0
_TEXT	ENDS
;	COMDAT text$x
text$x	SEGMENT
__unwindfunclet$??$_Construct@V?$basic_string@DU?$char_traits@D@std@@V?$allocator@D@2@@std@@V12@@std@@YAXPAV?$basic_string@DU?$char_traits@D@std@@V?$allocator@D@2@@0@ABV10@@Z$0:
	mov	eax, DWORD PTR __Vptr$[ebp]
	push	eax
	mov	ecx, DWORD PTR $T62828[ebp]
	push	ecx
	call	??3@YAXPAX0@Z				; operator delete
	add	esp, 8
	ret	0
__ehhandler$??$_Construct@V?$basic_string@DU?$char_traits@D@std@@V?$allocator@D@2@@std@@V12@@std@@YAXPAV?$basic_string@DU?$char_traits@D@std@@V?$allocator@D@2@@0@ABV10@@Z:
	mov	edx, DWORD PTR [esp+8]
	lea	eax, DWORD PTR [edx+12]
	mov	ecx, DWORD PTR [edx-20]
	xor	ecx, eax
	call	@__security_check_cookie@4
	mov	eax, OFFSET __ehfuncinfo$??$_Construct@V?$basic_string@DU?$char_traits@D@std@@V?$allocator@D@2@@std@@V12@@std@@YAXPAV?$basic_string@DU?$char_traits@D@std@@V?$allocator@D@2@@0@ABV10@@Z
	jmp	___CxxFrameHandler3
text$x	ENDS
??$_Construct@V?$basic_string@DU?$char_traits@D@std@@V?$allocator@D@2@@std@@V12@@std@@YAXPAV?$basic_string@DU?$char_traits@D@std@@V?$allocator@D@2@@0@ABV10@@Z ENDP ; std::_Construct<std::basic_string<char,std::char_traits<char>,std::allocator<char> >,std::basic_string<char,std::char_traits<char>,std::allocator<char> > >
; Function compile flags: /Odtp
; File d:\program files (x86)\microsoft visual studio 9.0\vc\include\new
;	COMDAT ??2@YAPAXIPAX@Z
_TEXT	SEGMENT
___formal$ = 8						; size = 4
__Where$ = 12						; size = 4
??2@YAPAXIPAX@Z PROC					; operator new, COMDAT

; 58   : 	{	// construct array with placement at _Where

	push	ebp
	mov	ebp, esp

; 59   : 	return (_Where);

	mov	eax, DWORD PTR __Where$[ebp]

; 60   : 	}

	pop	ebp
	ret	0
??2@YAPAXIPAX@Z ENDP					; operator new
; Function compile flags: /Odtp
_TEXT	ENDS
;	COMDAT ??3@YAXPAX0@Z
_TEXT	SEGMENT
___formal$ = 8						; size = 4
___formal$ = 12						; size = 4
??3@YAXPAX0@Z PROC					; operator delete, COMDAT

; 63   : 	{	// delete if placement new fails

	push	ebp
	mov	ebp, esp

; 64   : 	}

	pop	ebp
	ret	0
??3@YAXPAX0@Z ENDP					; operator delete
_TEXT	ENDS
PUBLIC	??_G?$basic_string@DU?$char_traits@D@std@@V?$allocator@D@2@@std@@QAEPAXI@Z ; std::basic_string<char,std::char_traits<char>,std::allocator<char> >::`scalar deleting destructor'
; Function compile flags: /Odtp
; File d:\program files (x86)\microsoft visual studio 9.0\vc\include\xmemory
;	COMDAT ??$_Destroy@V?$basic_string@DU?$char_traits@D@std@@V?$allocator@D@2@@std@@@std@@YAXPAV?$basic_string@DU?$char_traits@D@std@@V?$allocator@D@2@@0@@Z
_TEXT	SEGMENT
__Ptr$ = 8						; size = 4
??$_Destroy@V?$basic_string@DU?$char_traits@D@std@@V?$allocator@D@2@@std@@@std@@YAXPAV?$basic_string@DU?$char_traits@D@std@@V?$allocator@D@2@@0@@Z PROC ; std::_Destroy<std::basic_string<char,std::char_traits<char>,std::allocator<char> > >, COMDAT

; 58   : 	{	// destroy object at _Ptr

	push	ebp
	mov	ebp, esp

; 59   : 	_DESTRUCTOR(_Ty, _Ptr);

	push	0
	mov	ecx, DWORD PTR __Ptr$[ebp]
	call	??_G?$basic_string@DU?$char_traits@D@std@@V?$allocator@D@2@@std@@QAEPAXI@Z

; 60   : 	}

	pop	ebp
	ret	0
??$_Destroy@V?$basic_string@DU?$char_traits@D@std@@V?$allocator@D@2@@std@@@std@@YAXPAV?$basic_string@DU?$char_traits@D@std@@V?$allocator@D@2@@0@@Z ENDP ; std::_Destroy<std::basic_string<char,std::char_traits<char>,std::allocator<char> > >
; Function compile flags: /Odtp
_TEXT	ENDS
;	COMDAT ??_G?$basic_string@DU?$char_traits@D@std@@V?$allocator@D@2@@std@@QAEPAXI@Z
_TEXT	SEGMENT
_this$ = -4						; size = 4
___flags$ = 8						; size = 4
??_G?$basic_string@DU?$char_traits@D@std@@V?$allocator@D@2@@std@@QAEPAXI@Z PROC ; std::basic_string<char,std::char_traits<char>,std::allocator<char> >::`scalar deleting destructor', COMDAT
; _this$ = ecx
	push	ebp
	mov	ebp, esp
	push	ecx
	mov	DWORD PTR _this$[ebp], ecx
	mov	ecx, DWORD PTR _this$[ebp]
	call	DWORD PTR __imp_??1?$basic_string@DU?$char_traits@D@std@@V?$allocator@D@2@@std@@QAE@XZ
	mov	eax, DWORD PTR ___flags$[ebp]
	and	eax, 1
	je	SHORT $LN1@scalar@12
	mov	ecx, DWORD PTR _this$[ebp]
	push	ecx
	call	??3@YAXPAX@Z				; operator delete
	add	esp, 4
$LN1@scalar@12:
	mov	eax, DWORD PTR _this$[ebp]
	mov	esp, ebp
	pop	ebp
	ret	4
??_G?$basic_string@DU?$char_traits@D@std@@V?$allocator@D@2@@std@@QAEPAXI@Z ENDP ; std::basic_string<char,std::char_traits<char>,std::allocator<char> >::`scalar deleting destructor'
_TEXT	ENDS
PUBLIC	??$swap@DU?$char_traits@D@std@@V?$allocator@D@2@@std@@YAXAAV?$basic_string@DU?$char_traits@D@std@@V?$allocator@D@2@@0@0@Z ; std::swap<char,std::char_traits<char>,std::allocator<char> >
; Function compile flags: /Odtp
; File d:\program files (x86)\microsoft visual studio 9.0\vc\include\utility
;	COMDAT ??$_Swap_adl@V?$basic_string@DU?$char_traits@D@std@@V?$allocator@D@2@@std@@@std@@YAXAAV?$basic_string@DU?$char_traits@D@std@@V?$allocator@D@2@@0@0@Z
_TEXT	SEGMENT
__Left$ = 8						; size = 4
__Right$ = 12						; size = 4
??$_Swap_adl@V?$basic_string@DU?$char_traits@D@std@@V?$allocator@D@2@@std@@@std@@YAXAAV?$basic_string@DU?$char_traits@D@std@@V?$allocator@D@2@@0@0@Z PROC ; std::_Swap_adl<std::basic_string<char,std::char_traits<char>,std::allocator<char> > >, COMDAT

; 30   : 	{	// exchange values stored at _Left and _Right, using ADL

	push	ebp
	mov	ebp, esp

; 31   : 	swap(_Left, _Right);

	mov	eax, DWORD PTR __Right$[ebp]
	push	eax
	mov	ecx, DWORD PTR __Left$[ebp]
	push	ecx
	call	??$swap@DU?$char_traits@D@std@@V?$allocator@D@2@@std@@YAXAAV?$basic_string@DU?$char_traits@D@std@@V?$allocator@D@2@@0@0@Z ; std::swap<char,std::char_traits<char>,std::allocator<char> >
	add	esp, 8

; 32   : 	}

	pop	ebp
	ret	0
??$_Swap_adl@V?$basic_string@DU?$char_traits@D@std@@V?$allocator@D@2@@std@@@std@@YAXAAV?$basic_string@DU?$char_traits@D@std@@V?$allocator@D@2@@0@0@Z ENDP ; std::_Swap_adl<std::basic_string<char,std::char_traits<char>,std::allocator<char> > >
_TEXT	ENDS
EXTRN	__imp_?swap@?$basic_string@DU?$char_traits@D@std@@V?$allocator@D@2@@std@@QAEXAAV12@@Z:PROC
; Function compile flags: /Odtp
; File d:\program files (x86)\microsoft visual studio 9.0\vc\include\xstring
;	COMDAT ??$swap@DU?$char_traits@D@std@@V?$allocator@D@2@@std@@YAXAAV?$basic_string@DU?$char_traits@D@std@@V?$allocator@D@2@@0@0@Z
_TEXT	SEGMENT
__Left$ = 8						; size = 4
__Right$ = 12						; size = 4
??$swap@DU?$char_traits@D@std@@V?$allocator@D@2@@std@@YAXAAV?$basic_string@DU?$char_traits@D@std@@V?$allocator@D@2@@0@0@Z PROC ; std::swap<char,std::char_traits<char>,std::allocator<char> >, COMDAT

; 2205 : 	{	// swap _Left and _Right strings

	push	ebp
	mov	ebp, esp

; 2206 : 	_Left.swap(_Right);

	mov	eax, DWORD PTR __Right$[ebp]
	push	eax
	mov	ecx, DWORD PTR __Left$[ebp]
	call	DWORD PTR __imp_?swap@?$basic_string@DU?$char_traits@D@std@@V?$allocator@D@2@@std@@QAEXAAV12@@Z

; 2207 : 	}

	pop	ebp
	ret	0
??$swap@DU?$char_traits@D@std@@V?$allocator@D@2@@std@@YAXAAV?$basic_string@DU?$char_traits@D@std@@V?$allocator@D@2@@0@0@Z ENDP ; std::swap<char,std::char_traits<char>,std::allocator<char> >
_TEXT	ENDS
END
