; Listing generated by Microsoft (R) Optimizing Compiler Version 15.00.30729.01 

	TITLE	i:\svnroot\client\OgreMain\OgreInputManager.cpp
	.686P
	.XMM
	include listing.inc
	.model	flat

INCLUDELIB MSVCRT
INCLUDELIB OLDNAMES

PUBLIC	?_Value@?$_Is_swap_move@U_Swap_move_tag@std@@@std@@2_NB ; std::_Is_swap_move<std::_Swap_move_tag>::_Value
PUBLIC	?collate@?$_Locbase@H@std@@2HB			; std::_Locbase<int>::collate
PUBLIC	?ctype@?$_Locbase@H@std@@2HB			; std::_Locbase<int>::ctype
PUBLIC	?monetary@?$_Locbase@H@std@@2HB			; std::_Locbase<int>::monetary
PUBLIC	?numeric@?$_Locbase@H@std@@2HB			; std::_Locbase<int>::numeric
PUBLIC	?time@?$_Locbase@H@std@@2HB			; std::_Locbase<int>::time
PUBLIC	?messages@?$_Locbase@H@std@@2HB			; std::_Locbase<int>::messages
PUBLIC	?all@?$_Locbase@H@std@@2HB			; std::_Locbase<int>::all
PUBLIC	?none@?$_Locbase@H@std@@2HB			; std::_Locbase<int>::none
PUBLIC	?skipws@?$_Iosb@H@std@@2W4_Fmtflags@12@B	; std::_Iosb<int>::skipws
PUBLIC	?unitbuf@?$_Iosb@H@std@@2W4_Fmtflags@12@B	; std::_Iosb<int>::unitbuf
PUBLIC	?uppercase@?$_Iosb@H@std@@2W4_Fmtflags@12@B	; std::_Iosb<int>::uppercase
PUBLIC	?showbase@?$_Iosb@H@std@@2W4_Fmtflags@12@B	; std::_Iosb<int>::showbase
PUBLIC	?showpoint@?$_Iosb@H@std@@2W4_Fmtflags@12@B	; std::_Iosb<int>::showpoint
PUBLIC	?showpos@?$_Iosb@H@std@@2W4_Fmtflags@12@B	; std::_Iosb<int>::showpos
PUBLIC	?left@?$_Iosb@H@std@@2W4_Fmtflags@12@B		; std::_Iosb<int>::left
PUBLIC	?right@?$_Iosb@H@std@@2W4_Fmtflags@12@B		; std::_Iosb<int>::right
PUBLIC	?internal@?$_Iosb@H@std@@2W4_Fmtflags@12@B	; std::_Iosb<int>::internal
PUBLIC	?dec@?$_Iosb@H@std@@2W4_Fmtflags@12@B		; std::_Iosb<int>::dec
PUBLIC	?oct@?$_Iosb@H@std@@2W4_Fmtflags@12@B		; std::_Iosb<int>::oct
PUBLIC	?hex@?$_Iosb@H@std@@2W4_Fmtflags@12@B		; std::_Iosb<int>::hex
PUBLIC	?scientific@?$_Iosb@H@std@@2W4_Fmtflags@12@B	; std::_Iosb<int>::scientific
PUBLIC	?fixed@?$_Iosb@H@std@@2W4_Fmtflags@12@B		; std::_Iosb<int>::fixed
PUBLIC	?hexfloat@?$_Iosb@H@std@@2W4_Fmtflags@12@B	; std::_Iosb<int>::hexfloat
PUBLIC	?boolalpha@?$_Iosb@H@std@@2W4_Fmtflags@12@B	; std::_Iosb<int>::boolalpha
PUBLIC	?_Stdio@?$_Iosb@H@std@@2W4_Fmtflags@12@B	; std::_Iosb<int>::_Stdio
PUBLIC	?adjustfield@?$_Iosb@H@std@@2W4_Fmtflags@12@B	; std::_Iosb<int>::adjustfield
PUBLIC	?basefield@?$_Iosb@H@std@@2W4_Fmtflags@12@B	; std::_Iosb<int>::basefield
PUBLIC	?floatfield@?$_Iosb@H@std@@2W4_Fmtflags@12@B	; std::_Iosb<int>::floatfield
PUBLIC	?goodbit@?$_Iosb@H@std@@2W4_Iostate@12@B	; std::_Iosb<int>::goodbit
PUBLIC	?eofbit@?$_Iosb@H@std@@2W4_Iostate@12@B		; std::_Iosb<int>::eofbit
PUBLIC	?failbit@?$_Iosb@H@std@@2W4_Iostate@12@B	; std::_Iosb<int>::failbit
PUBLIC	?badbit@?$_Iosb@H@std@@2W4_Iostate@12@B		; std::_Iosb<int>::badbit
PUBLIC	?_Hardfail@?$_Iosb@H@std@@2W4_Iostate@12@B	; std::_Iosb<int>::_Hardfail
PUBLIC	?in@?$_Iosb@H@std@@2W4_Openmode@12@B		; std::_Iosb<int>::in
PUBLIC	?out@?$_Iosb@H@std@@2W4_Openmode@12@B		; std::_Iosb<int>::out
PUBLIC	?ate@?$_Iosb@H@std@@2W4_Openmode@12@B		; std::_Iosb<int>::ate
PUBLIC	?app@?$_Iosb@H@std@@2W4_Openmode@12@B		; std::_Iosb<int>::app
PUBLIC	?trunc@?$_Iosb@H@std@@2W4_Openmode@12@B		; std::_Iosb<int>::trunc
PUBLIC	?_Nocreate@?$_Iosb@H@std@@2W4_Openmode@12@B	; std::_Iosb<int>::_Nocreate
PUBLIC	?_Noreplace@?$_Iosb@H@std@@2W4_Openmode@12@B	; std::_Iosb<int>::_Noreplace
PUBLIC	?binary@?$_Iosb@H@std@@2W4_Openmode@12@B	; std::_Iosb<int>::binary
PUBLIC	?beg@?$_Iosb@H@std@@2W4_Seekdir@12@B		; std::_Iosb<int>::beg
PUBLIC	?cur@?$_Iosb@H@std@@2W4_Seekdir@12@B		; std::_Iosb<int>::cur
PUBLIC	?end@?$_Iosb@H@std@@2W4_Seekdir@12@B		; std::_Iosb<int>::end
PUBLIC	?value@?$integral_constant@_N$0A@@tr1@std@@2_NB	; std::tr1::integral_constant<bool,0>::value
PUBLIC	?value@?$integral_constant@_N$00@tr1@std@@2_NB	; std::tr1::integral_constant<bool,1>::value
PUBLIC	?_EEM_DS@?$deque@UInputEvent@Ogre@@V?$allocator@UInputEvent@Ogre@@@std@@@std@@2HB ; std::deque<Ogre::InputEvent,std::allocator<Ogre::InputEvent> >::_EEM_DS
PUBLIC	?ms_Singleton@?$Singleton@VInputManager@Ogre@@@Ogre@@1PAVInputManager@2@A ; Ogre::Singleton<Ogre::InputManager>::ms_Singleton
;	COMDAT ?ms_Singleton@?$Singleton@VInputManager@Ogre@@@Ogre@@1PAVInputManager@2@A
_BSS	SEGMENT
?ms_Singleton@?$Singleton@VInputManager@Ogre@@@Ogre@@1PAVInputManager@2@A DD 01H DUP (?) ; Ogre::Singleton<Ogre::InputManager>::ms_Singleton
_BSS	ENDS
;	COMDAT ?_EEM_DS@?$deque@UInputEvent@Ogre@@V?$allocator@UInputEvent@Ogre@@@std@@@std@@2HB
CONST	SEGMENT
?_EEM_DS@?$deque@UInputEvent@Ogre@@V?$allocator@UInputEvent@Ogre@@@std@@@std@@2HB DD 01H ; std::deque<Ogre::InputEvent,std::allocator<Ogre::InputEvent> >::_EEM_DS
CONST	ENDS
;	COMDAT ?value@?$integral_constant@_N$00@tr1@std@@2_NB
CONST	SEGMENT
?value@?$integral_constant@_N$00@tr1@std@@2_NB DB 01H	; std::tr1::integral_constant<bool,1>::value
CONST	ENDS
;	COMDAT ?value@?$integral_constant@_N$0A@@tr1@std@@2_NB
CONST	SEGMENT
?value@?$integral_constant@_N$0A@@tr1@std@@2_NB DB 00H	; std::tr1::integral_constant<bool,0>::value
CONST	ENDS
;	COMDAT ?end@?$_Iosb@H@std@@2W4_Seekdir@12@B
CONST	SEGMENT
?end@?$_Iosb@H@std@@2W4_Seekdir@12@B DD 02H		; std::_Iosb<int>::end
CONST	ENDS
;	COMDAT ?cur@?$_Iosb@H@std@@2W4_Seekdir@12@B
CONST	SEGMENT
?cur@?$_Iosb@H@std@@2W4_Seekdir@12@B DD 01H		; std::_Iosb<int>::cur
CONST	ENDS
;	COMDAT ?beg@?$_Iosb@H@std@@2W4_Seekdir@12@B
CONST	SEGMENT
?beg@?$_Iosb@H@std@@2W4_Seekdir@12@B DD 00H		; std::_Iosb<int>::beg
CONST	ENDS
;	COMDAT ?binary@?$_Iosb@H@std@@2W4_Openmode@12@B
CONST	SEGMENT
?binary@?$_Iosb@H@std@@2W4_Openmode@12@B DD 020H	; std::_Iosb<int>::binary
CONST	ENDS
;	COMDAT ?_Noreplace@?$_Iosb@H@std@@2W4_Openmode@12@B
CONST	SEGMENT
?_Noreplace@?$_Iosb@H@std@@2W4_Openmode@12@B DD 080H	; std::_Iosb<int>::_Noreplace
CONST	ENDS
;	COMDAT ?_Nocreate@?$_Iosb@H@std@@2W4_Openmode@12@B
CONST	SEGMENT
?_Nocreate@?$_Iosb@H@std@@2W4_Openmode@12@B DD 040H	; std::_Iosb<int>::_Nocreate
CONST	ENDS
;	COMDAT ?trunc@?$_Iosb@H@std@@2W4_Openmode@12@B
CONST	SEGMENT
?trunc@?$_Iosb@H@std@@2W4_Openmode@12@B DD 010H		; std::_Iosb<int>::trunc
CONST	ENDS
;	COMDAT ?app@?$_Iosb@H@std@@2W4_Openmode@12@B
CONST	SEGMENT
?app@?$_Iosb@H@std@@2W4_Openmode@12@B DD 08H		; std::_Iosb<int>::app
CONST	ENDS
;	COMDAT ?ate@?$_Iosb@H@std@@2W4_Openmode@12@B
CONST	SEGMENT
?ate@?$_Iosb@H@std@@2W4_Openmode@12@B DD 04H		; std::_Iosb<int>::ate
CONST	ENDS
;	COMDAT ?out@?$_Iosb@H@std@@2W4_Openmode@12@B
CONST	SEGMENT
?out@?$_Iosb@H@std@@2W4_Openmode@12@B DD 02H		; std::_Iosb<int>::out
CONST	ENDS
;	COMDAT ?in@?$_Iosb@H@std@@2W4_Openmode@12@B
CONST	SEGMENT
?in@?$_Iosb@H@std@@2W4_Openmode@12@B DD 01H		; std::_Iosb<int>::in
CONST	ENDS
;	COMDAT ?_Hardfail@?$_Iosb@H@std@@2W4_Iostate@12@B
CONST	SEGMENT
?_Hardfail@?$_Iosb@H@std@@2W4_Iostate@12@B DD 010H	; std::_Iosb<int>::_Hardfail
CONST	ENDS
;	COMDAT ?badbit@?$_Iosb@H@std@@2W4_Iostate@12@B
CONST	SEGMENT
?badbit@?$_Iosb@H@std@@2W4_Iostate@12@B DD 04H		; std::_Iosb<int>::badbit
CONST	ENDS
;	COMDAT ?failbit@?$_Iosb@H@std@@2W4_Iostate@12@B
CONST	SEGMENT
?failbit@?$_Iosb@H@std@@2W4_Iostate@12@B DD 02H		; std::_Iosb<int>::failbit
CONST	ENDS
;	COMDAT ?eofbit@?$_Iosb@H@std@@2W4_Iostate@12@B
CONST	SEGMENT
?eofbit@?$_Iosb@H@std@@2W4_Iostate@12@B DD 01H		; std::_Iosb<int>::eofbit
CONST	ENDS
;	COMDAT ?goodbit@?$_Iosb@H@std@@2W4_Iostate@12@B
CONST	SEGMENT
?goodbit@?$_Iosb@H@std@@2W4_Iostate@12@B DD 00H		; std::_Iosb<int>::goodbit
CONST	ENDS
;	COMDAT ?floatfield@?$_Iosb@H@std@@2W4_Fmtflags@12@B
CONST	SEGMENT
?floatfield@?$_Iosb@H@std@@2W4_Fmtflags@12@B DD 03000H	; std::_Iosb<int>::floatfield
CONST	ENDS
;	COMDAT ?basefield@?$_Iosb@H@std@@2W4_Fmtflags@12@B
CONST	SEGMENT
?basefield@?$_Iosb@H@std@@2W4_Fmtflags@12@B DD 0e00H	; std::_Iosb<int>::basefield
CONST	ENDS
;	COMDAT ?adjustfield@?$_Iosb@H@std@@2W4_Fmtflags@12@B
CONST	SEGMENT
?adjustfield@?$_Iosb@H@std@@2W4_Fmtflags@12@B DD 01c0H	; std::_Iosb<int>::adjustfield
CONST	ENDS
;	COMDAT ?_Stdio@?$_Iosb@H@std@@2W4_Fmtflags@12@B
CONST	SEGMENT
?_Stdio@?$_Iosb@H@std@@2W4_Fmtflags@12@B DD 08000H	; std::_Iosb<int>::_Stdio
CONST	ENDS
;	COMDAT ?boolalpha@?$_Iosb@H@std@@2W4_Fmtflags@12@B
CONST	SEGMENT
?boolalpha@?$_Iosb@H@std@@2W4_Fmtflags@12@B DD 04000H	; std::_Iosb<int>::boolalpha
CONST	ENDS
;	COMDAT ?hexfloat@?$_Iosb@H@std@@2W4_Fmtflags@12@B
CONST	SEGMENT
?hexfloat@?$_Iosb@H@std@@2W4_Fmtflags@12@B DD 03000H	; std::_Iosb<int>::hexfloat
CONST	ENDS
;	COMDAT ?fixed@?$_Iosb@H@std@@2W4_Fmtflags@12@B
CONST	SEGMENT
?fixed@?$_Iosb@H@std@@2W4_Fmtflags@12@B DD 02000H	; std::_Iosb<int>::fixed
CONST	ENDS
;	COMDAT ?scientific@?$_Iosb@H@std@@2W4_Fmtflags@12@B
CONST	SEGMENT
?scientific@?$_Iosb@H@std@@2W4_Fmtflags@12@B DD 01000H	; std::_Iosb<int>::scientific
CONST	ENDS
;	COMDAT ?hex@?$_Iosb@H@std@@2W4_Fmtflags@12@B
CONST	SEGMENT
?hex@?$_Iosb@H@std@@2W4_Fmtflags@12@B DD 0800H		; std::_Iosb<int>::hex
CONST	ENDS
;	COMDAT ?oct@?$_Iosb@H@std@@2W4_Fmtflags@12@B
CONST	SEGMENT
?oct@?$_Iosb@H@std@@2W4_Fmtflags@12@B DD 0400H		; std::_Iosb<int>::oct
CONST	ENDS
;	COMDAT ?dec@?$_Iosb@H@std@@2W4_Fmtflags@12@B
CONST	SEGMENT
?dec@?$_Iosb@H@std@@2W4_Fmtflags@12@B DD 0200H		; std::_Iosb<int>::dec
CONST	ENDS
;	COMDAT ?internal@?$_Iosb@H@std@@2W4_Fmtflags@12@B
CONST	SEGMENT
?internal@?$_Iosb@H@std@@2W4_Fmtflags@12@B DD 0100H	; std::_Iosb<int>::internal
CONST	ENDS
;	COMDAT ?right@?$_Iosb@H@std@@2W4_Fmtflags@12@B
CONST	SEGMENT
?right@?$_Iosb@H@std@@2W4_Fmtflags@12@B DD 080H		; std::_Iosb<int>::right
CONST	ENDS
;	COMDAT ?left@?$_Iosb@H@std@@2W4_Fmtflags@12@B
CONST	SEGMENT
?left@?$_Iosb@H@std@@2W4_Fmtflags@12@B DD 040H		; std::_Iosb<int>::left
CONST	ENDS
;	COMDAT ?showpos@?$_Iosb@H@std@@2W4_Fmtflags@12@B
CONST	SEGMENT
?showpos@?$_Iosb@H@std@@2W4_Fmtflags@12@B DD 020H	; std::_Iosb<int>::showpos
CONST	ENDS
;	COMDAT ?showpoint@?$_Iosb@H@std@@2W4_Fmtflags@12@B
CONST	SEGMENT
?showpoint@?$_Iosb@H@std@@2W4_Fmtflags@12@B DD 010H	; std::_Iosb<int>::showpoint
CONST	ENDS
;	COMDAT ?showbase@?$_Iosb@H@std@@2W4_Fmtflags@12@B
CONST	SEGMENT
?showbase@?$_Iosb@H@std@@2W4_Fmtflags@12@B DD 08H	; std::_Iosb<int>::showbase
CONST	ENDS
;	COMDAT ?uppercase@?$_Iosb@H@std@@2W4_Fmtflags@12@B
CONST	SEGMENT
?uppercase@?$_Iosb@H@std@@2W4_Fmtflags@12@B DD 04H	; std::_Iosb<int>::uppercase
CONST	ENDS
;	COMDAT ?unitbuf@?$_Iosb@H@std@@2W4_Fmtflags@12@B
CONST	SEGMENT
?unitbuf@?$_Iosb@H@std@@2W4_Fmtflags@12@B DD 02H	; std::_Iosb<int>::unitbuf
CONST	ENDS
;	COMDAT ?skipws@?$_Iosb@H@std@@2W4_Fmtflags@12@B
CONST	SEGMENT
?skipws@?$_Iosb@H@std@@2W4_Fmtflags@12@B DD 01H		; std::_Iosb<int>::skipws
CONST	ENDS
;	COMDAT ?none@?$_Locbase@H@std@@2HB
CONST	SEGMENT
?none@?$_Locbase@H@std@@2HB DD 00H			; std::_Locbase<int>::none
CONST	ENDS
;	COMDAT ?all@?$_Locbase@H@std@@2HB
CONST	SEGMENT
?all@?$_Locbase@H@std@@2HB DD 03fH			; std::_Locbase<int>::all
CONST	ENDS
;	COMDAT ?messages@?$_Locbase@H@std@@2HB
CONST	SEGMENT
?messages@?$_Locbase@H@std@@2HB DD 020H			; std::_Locbase<int>::messages
CONST	ENDS
;	COMDAT ?time@?$_Locbase@H@std@@2HB
CONST	SEGMENT
?time@?$_Locbase@H@std@@2HB DD 010H			; std::_Locbase<int>::time
CONST	ENDS
;	COMDAT ?numeric@?$_Locbase@H@std@@2HB
CONST	SEGMENT
?numeric@?$_Locbase@H@std@@2HB DD 08H			; std::_Locbase<int>::numeric
CONST	ENDS
;	COMDAT ?monetary@?$_Locbase@H@std@@2HB
CONST	SEGMENT
?monetary@?$_Locbase@H@std@@2HB DD 04H			; std::_Locbase<int>::monetary
CONST	ENDS
;	COMDAT ?ctype@?$_Locbase@H@std@@2HB
CONST	SEGMENT
?ctype@?$_Locbase@H@std@@2HB DD 02H			; std::_Locbase<int>::ctype
CONST	ENDS
;	COMDAT ?collate@?$_Locbase@H@std@@2HB
CONST	SEGMENT
?collate@?$_Locbase@H@std@@2HB DD 01H			; std::_Locbase<int>::collate
CONST	ENDS
_DATA	SEGMENT
__bad_alloc_Message DD FLAT:$SG68011
_DATA	ENDS
CONST	SEGMENT
$SG68011 DB	'bad allocation', 00H
CONST	ENDS
;	COMDAT ?_Value@?$_Is_swap_move@U_Swap_move_tag@std@@@std@@2_NB
CONST	SEGMENT
?_Value@?$_Is_swap_move@U_Swap_move_tag@std@@@std@@2_NB DB 01H ; std::_Is_swap_move<std::_Swap_move_tag>::_Value
CONST	ENDS
PUBLIC	?setSelfHandler@InputManager@Ogre@@QAEXPAVInputHandler@2@@Z ; Ogre::InputManager::setSelfHandler
; Function compile flags: /Odtp
; File i:\svnroot\client\ogremain\ogreinputmanager.h
;	COMDAT ?setSelfHandler@InputManager@Ogre@@QAEXPAVInputHandler@2@@Z
_TEXT	SEGMENT
_this$ = -4						; size = 4
_pHandler$ = 8						; size = 4
?setSelfHandler@InputManager@Ogre@@QAEXPAVInputHandler@2@@Z PROC ; Ogre::InputManager::setSelfHandler, COMDAT
; _this$ = ecx

; 23   : 		void setSelfHandler(InputHandler* pHandler) { m_pSelfHandler = pHandler; }

	push	ebp
	mov	ebp, esp
	push	ecx
	mov	DWORD PTR _this$[ebp], ecx
	mov	eax, DWORD PTR _this$[ebp]
	mov	ecx, DWORD PTR _pHandler$[ebp]
	mov	DWORD PTR [eax+68], ecx
	mov	esp, ebp
	pop	ebp
	ret	4
?setSelfHandler@InputManager@Ogre@@QAEXPAVInputHandler@2@@Z ENDP ; Ogre::InputManager::setSelfHandler
_TEXT	ENDS
PUBLIC	??4?$Singleton@VInputManager@Ogre@@@Ogre@@QAEAAV01@ABV01@@Z ; Ogre::Singleton<Ogre::InputManager>::operator=
; Function compile flags: /Odtp
;	COMDAT ??4?$Singleton@VInputManager@Ogre@@@Ogre@@QAEAAV01@ABV01@@Z
_TEXT	SEGMENT
_this$ = -4						; size = 4
___that$ = 8						; size = 4
??4?$Singleton@VInputManager@Ogre@@@Ogre@@QAEAAV01@ABV01@@Z PROC ; Ogre::Singleton<Ogre::InputManager>::operator=, COMDAT
; _this$ = ecx
	push	ebp
	mov	ebp, esp
	push	ecx
	mov	DWORD PTR _this$[ebp], ecx
	mov	eax, DWORD PTR _this$[ebp]
	mov	esp, ebp
	pop	ebp
	ret	4
??4?$Singleton@VInputManager@Ogre@@@Ogre@@QAEAAV01@ABV01@@Z ENDP ; Ogre::Singleton<Ogre::InputManager>::operator=
_TEXT	ENDS
PUBLIC	??1?$Singleton@VInputManager@Ogre@@@Ogre@@QAE@XZ ; Ogre::Singleton<Ogre::InputManager>::~Singleton<Ogre::InputManager>
PUBLIC	??1?$deque@UInputEvent@Ogre@@V?$allocator@UInputEvent@Ogre@@@std@@@std@@QAE@XZ ; std::deque<Ogre::InputEvent,std::allocator<Ogre::InputEvent> >::~deque<Ogre::InputEvent,std::allocator<Ogre::InputEvent> >
PUBLIC	??1?$vector@PAVInputHandler@Ogre@@V?$allocator@PAVInputHandler@Ogre@@@std@@@std@@QAE@XZ ; std::vector<Ogre::InputHandler *,std::allocator<Ogre::InputHandler *> >::~vector<Ogre::InputHandler *,std::allocator<Ogre::InputHandler *> >
PUBLIC	??1InputManager@Ogre@@QAE@XZ			; Ogre::InputManager::~InputManager
EXTRN	___security_cookie:DWORD
EXTRN	___CxxFrameHandler3:PROC
EXTRN	@__security_check_cookie@4:PROC
;	COMDAT xdata$x
xdata$x	SEGMENT
__unwindtable$??1InputManager@Ogre@@QAE@XZ DD 0ffffffffH
	DD	FLAT:__unwindfunclet$??1InputManager@Ogre@@QAE@XZ$0
	DD	00H
	DD	FLAT:__unwindfunclet$??1InputManager@Ogre@@QAE@XZ$1
	DD	01H
	DD	FLAT:__unwindfunclet$??1InputManager@Ogre@@QAE@XZ$2
__ehfuncinfo$??1InputManager@Ogre@@QAE@XZ DD 019930522H
	DD	03H
	DD	FLAT:__unwindtable$??1InputManager@Ogre@@QAE@XZ
	DD	2 DUP(00H)
	DD	2 DUP(00H)
	DD	00H
	DD	00H
; Function compile flags: /Odtp
xdata$x	ENDS
;	COMDAT ??1InputManager@Ogre@@QAE@XZ
_TEXT	SEGMENT
_this$ = -16						; size = 4
__$EHRec$ = -12						; size = 12
??1InputManager@Ogre@@QAE@XZ PROC			; Ogre::InputManager::~InputManager, COMDAT
; _this$ = ecx
	push	ebp
	mov	ebp, esp
	push	-1
	push	__ehhandler$??1InputManager@Ogre@@QAE@XZ
	mov	eax, DWORD PTR fs:0
	push	eax
	push	ecx
	mov	eax, DWORD PTR ___security_cookie
	xor	eax, ebp
	push	eax
	lea	eax, DWORD PTR __$EHRec$[ebp]
	mov	DWORD PTR fs:0, eax
	mov	DWORD PTR _this$[ebp], ecx
	mov	DWORD PTR __$EHRec$[ebp+8], 2
	mov	BYTE PTR __$EHRec$[ebp+8], 1
	mov	ecx, DWORD PTR _this$[ebp]
	add	ecx, 32					; 00000020H
	call	??1?$vector@PAVInputHandler@Ogre@@V?$allocator@PAVInputHandler@Ogre@@@std@@@std@@QAE@XZ ; std::vector<Ogre::InputHandler *,std::allocator<Ogre::InputHandler *> >::~vector<Ogre::InputHandler *,std::allocator<Ogre::InputHandler *> >
	mov	BYTE PTR __$EHRec$[ebp+8], 0
	mov	ecx, DWORD PTR _this$[ebp]
	call	??1?$deque@UInputEvent@Ogre@@V?$allocator@UInputEvent@Ogre@@@std@@@std@@QAE@XZ ; std::deque<Ogre::InputEvent,std::allocator<Ogre::InputEvent> >::~deque<Ogre::InputEvent,std::allocator<Ogre::InputEvent> >
	mov	DWORD PTR __$EHRec$[ebp+8], -1
	mov	ecx, DWORD PTR _this$[ebp]
	call	??1?$Singleton@VInputManager@Ogre@@@Ogre@@QAE@XZ ; Ogre::Singleton<Ogre::InputManager>::~Singleton<Ogre::InputManager>
	mov	ecx, DWORD PTR __$EHRec$[ebp]
	mov	DWORD PTR fs:0, ecx
	pop	ecx
	mov	esp, ebp
	pop	ebp
	ret	0
_TEXT	ENDS
;	COMDAT text$x
text$x	SEGMENT
__unwindfunclet$??1InputManager@Ogre@@QAE@XZ$0:
	mov	ecx, DWORD PTR _this$[ebp]
	jmp	??1?$Singleton@VInputManager@Ogre@@@Ogre@@QAE@XZ ; Ogre::Singleton<Ogre::InputManager>::~Singleton<Ogre::InputManager>
__unwindfunclet$??1InputManager@Ogre@@QAE@XZ$1:
	mov	ecx, DWORD PTR _this$[ebp]
	jmp	??1?$deque@UInputEvent@Ogre@@V?$allocator@UInputEvent@Ogre@@@std@@@std@@QAE@XZ ; std::deque<Ogre::InputEvent,std::allocator<Ogre::InputEvent> >::~deque<Ogre::InputEvent,std::allocator<Ogre::InputEvent> >
__unwindfunclet$??1InputManager@Ogre@@QAE@XZ$2:
	mov	ecx, DWORD PTR _this$[ebp]
	add	ecx, 32					; 00000020H
	jmp	??1?$vector@PAVInputHandler@Ogre@@V?$allocator@PAVInputHandler@Ogre@@@std@@@std@@QAE@XZ ; std::vector<Ogre::InputHandler *,std::allocator<Ogre::InputHandler *> >::~vector<Ogre::InputHandler *,std::allocator<Ogre::InputHandler *> >
__ehhandler$??1InputManager@Ogre@@QAE@XZ:
	mov	edx, DWORD PTR [esp+8]
	lea	eax, DWORD PTR [edx+12]
	mov	ecx, DWORD PTR [edx-8]
	xor	ecx, eax
	call	@__security_check_cookie@4
	mov	eax, OFFSET __ehfuncinfo$??1InputManager@Ogre@@QAE@XZ
	jmp	___CxxFrameHandler3
text$x	ENDS
??1InputManager@Ogre@@QAE@XZ ENDP			; Ogre::InputManager::~InputManager
PUBLIC	??0?$vector@PAVInputHandler@Ogre@@V?$allocator@PAVInputHandler@Ogre@@@std@@@std@@QAE@ABV01@@Z ; std::vector<Ogre::InputHandler *,std::allocator<Ogre::InputHandler *> >::vector<Ogre::InputHandler *,std::allocator<Ogre::InputHandler *> >
PUBLIC	??0?$deque@UInputEvent@Ogre@@V?$allocator@UInputEvent@Ogre@@@std@@@std@@QAE@ABV01@@Z ; std::deque<Ogre::InputEvent,std::allocator<Ogre::InputEvent> >::deque<Ogre::InputEvent,std::allocator<Ogre::InputEvent> >
PUBLIC	??0InputManager@Ogre@@QAE@ABV01@@Z		; Ogre::InputManager::InputManager
;	COMDAT xdata$x
xdata$x	SEGMENT
__unwindtable$??0InputManager@Ogre@@QAE@ABV01@@Z DD 0ffffffffH
	DD	FLAT:__unwindfunclet$??0InputManager@Ogre@@QAE@ABV01@@Z$0
	DD	00H
	DD	FLAT:__unwindfunclet$??0InputManager@Ogre@@QAE@ABV01@@Z$1
	DD	01H
	DD	FLAT:__unwindfunclet$??0InputManager@Ogre@@QAE@ABV01@@Z$2
__ehfuncinfo$??0InputManager@Ogre@@QAE@ABV01@@Z DD 019930522H
	DD	03H
	DD	FLAT:__unwindtable$??0InputManager@Ogre@@QAE@ABV01@@Z
	DD	2 DUP(00H)
	DD	2 DUP(00H)
	DD	00H
	DD	00H
; Function compile flags: /Odtp
xdata$x	ENDS
;	COMDAT ??0InputManager@Ogre@@QAE@ABV01@@Z
_TEXT	SEGMENT
_this$ = -16						; size = 4
__$EHRec$ = -12						; size = 12
___that$ = 8						; size = 4
??0InputManager@Ogre@@QAE@ABV01@@Z PROC			; Ogre::InputManager::InputManager, COMDAT
; _this$ = ecx
	push	ebp
	mov	ebp, esp
	push	-1
	push	__ehhandler$??0InputManager@Ogre@@QAE@ABV01@@Z
	mov	eax, DWORD PTR fs:0
	push	eax
	push	ecx
	mov	eax, DWORD PTR ___security_cookie
	xor	eax, ebp
	push	eax
	lea	eax, DWORD PTR __$EHRec$[ebp]
	mov	DWORD PTR fs:0, eax
	mov	DWORD PTR _this$[ebp], ecx
	mov	DWORD PTR __$EHRec$[ebp+8], 0
	mov	eax, DWORD PTR ___that$[ebp]
	push	eax
	mov	ecx, DWORD PTR _this$[ebp]
	call	??0?$deque@UInputEvent@Ogre@@V?$allocator@UInputEvent@Ogre@@@std@@@std@@QAE@ABV01@@Z ; std::deque<Ogre::InputEvent,std::allocator<Ogre::InputEvent> >::deque<Ogre::InputEvent,std::allocator<Ogre::InputEvent> >
	mov	BYTE PTR __$EHRec$[ebp+8], 1
	mov	ecx, DWORD PTR ___that$[ebp]
	add	ecx, 32					; 00000020H
	push	ecx
	mov	ecx, DWORD PTR _this$[ebp]
	add	ecx, 32					; 00000020H
	call	??0?$vector@PAVInputHandler@Ogre@@V?$allocator@PAVInputHandler@Ogre@@@std@@@std@@QAE@ABV01@@Z ; std::vector<Ogre::InputHandler *,std::allocator<Ogre::InputHandler *> >::vector<Ogre::InputHandler *,std::allocator<Ogre::InputHandler *> >
	mov	BYTE PTR __$EHRec$[ebp+8], 2
	mov	edx, DWORD PTR _this$[ebp]
	mov	eax, DWORD PTR ___that$[ebp]
	mov	ecx, DWORD PTR [eax+56]
	mov	DWORD PTR [edx+56], ecx
	mov	edx, DWORD PTR _this$[ebp]
	mov	eax, DWORD PTR ___that$[ebp]
	mov	ecx, DWORD PTR [eax+60]
	mov	DWORD PTR [edx+60], ecx
	mov	edx, DWORD PTR _this$[ebp]
	mov	eax, DWORD PTR ___that$[ebp]
	mov	cl, BYTE PTR [eax+64]
	mov	BYTE PTR [edx+64], cl
	mov	edx, DWORD PTR _this$[ebp]
	mov	eax, DWORD PTR ___that$[ebp]
	mov	cl, BYTE PTR [eax+65]
	mov	BYTE PTR [edx+65], cl
	mov	edx, DWORD PTR _this$[ebp]
	mov	eax, DWORD PTR ___that$[ebp]
	mov	ecx, DWORD PTR [eax+68]
	mov	DWORD PTR [edx+68], ecx
	mov	DWORD PTR __$EHRec$[ebp+8], -1
	mov	eax, DWORD PTR _this$[ebp]
	mov	ecx, DWORD PTR __$EHRec$[ebp]
	mov	DWORD PTR fs:0, ecx
	pop	ecx
	mov	esp, ebp
	pop	ebp
	ret	4
_TEXT	ENDS
;	COMDAT text$x
text$x	SEGMENT
__unwindfunclet$??0InputManager@Ogre@@QAE@ABV01@@Z$0:
	mov	ecx, DWORD PTR _this$[ebp]
	jmp	??1?$Singleton@VInputManager@Ogre@@@Ogre@@QAE@XZ ; Ogre::Singleton<Ogre::InputManager>::~Singleton<Ogre::InputManager>
__unwindfunclet$??0InputManager@Ogre@@QAE@ABV01@@Z$1:
	mov	ecx, DWORD PTR _this$[ebp]
	jmp	??1?$deque@UInputEvent@Ogre@@V?$allocator@UInputEvent@Ogre@@@std@@@std@@QAE@XZ ; std::deque<Ogre::InputEvent,std::allocator<Ogre::InputEvent> >::~deque<Ogre::InputEvent,std::allocator<Ogre::InputEvent> >
__unwindfunclet$??0InputManager@Ogre@@QAE@ABV01@@Z$2:
	mov	ecx, DWORD PTR _this$[ebp]
	add	ecx, 32					; 00000020H
	jmp	??1?$vector@PAVInputHandler@Ogre@@V?$allocator@PAVInputHandler@Ogre@@@std@@@std@@QAE@XZ ; std::vector<Ogre::InputHandler *,std::allocator<Ogre::InputHandler *> >::~vector<Ogre::InputHandler *,std::allocator<Ogre::InputHandler *> >
__ehhandler$??0InputManager@Ogre@@QAE@ABV01@@Z:
	mov	edx, DWORD PTR [esp+8]
	lea	eax, DWORD PTR [edx+12]
	mov	ecx, DWORD PTR [edx-8]
	xor	ecx, eax
	call	@__security_check_cookie@4
	mov	eax, OFFSET __ehfuncinfo$??0InputManager@Ogre@@QAE@ABV01@@Z
	jmp	___CxxFrameHandler3
text$x	ENDS
??0InputManager@Ogre@@QAE@ABV01@@Z ENDP			; Ogre::InputManager::InputManager
PUBLIC	??4?$vector@PAVInputHandler@Ogre@@V?$allocator@PAVInputHandler@Ogre@@@std@@@std@@QAEAAV01@ABV01@@Z ; std::vector<Ogre::InputHandler *,std::allocator<Ogre::InputHandler *> >::operator=
PUBLIC	??4?$deque@UInputEvent@Ogre@@V?$allocator@UInputEvent@Ogre@@@std@@@std@@QAEAAV01@ABV01@@Z ; std::deque<Ogre::InputEvent,std::allocator<Ogre::InputEvent> >::operator=
PUBLIC	??4InputManager@Ogre@@QAEAAV01@ABV01@@Z		; Ogre::InputManager::operator=
; Function compile flags: /Odtp
;	COMDAT ??4InputManager@Ogre@@QAEAAV01@ABV01@@Z
_TEXT	SEGMENT
_this$ = -4						; size = 4
___that$ = 8						; size = 4
??4InputManager@Ogre@@QAEAAV01@ABV01@@Z PROC		; Ogre::InputManager::operator=, COMDAT
; _this$ = ecx
	push	ebp
	mov	ebp, esp
	push	ecx
	mov	DWORD PTR _this$[ebp], ecx
	mov	eax, DWORD PTR ___that$[ebp]
	push	eax
	mov	ecx, DWORD PTR _this$[ebp]
	call	??4?$deque@UInputEvent@Ogre@@V?$allocator@UInputEvent@Ogre@@@std@@@std@@QAEAAV01@ABV01@@Z ; std::deque<Ogre::InputEvent,std::allocator<Ogre::InputEvent> >::operator=
	mov	ecx, DWORD PTR ___that$[ebp]
	add	ecx, 32					; 00000020H
	push	ecx
	mov	ecx, DWORD PTR _this$[ebp]
	add	ecx, 32					; 00000020H
	call	??4?$vector@PAVInputHandler@Ogre@@V?$allocator@PAVInputHandler@Ogre@@@std@@@std@@QAEAAV01@ABV01@@Z ; std::vector<Ogre::InputHandler *,std::allocator<Ogre::InputHandler *> >::operator=
	mov	edx, DWORD PTR _this$[ebp]
	mov	eax, DWORD PTR ___that$[ebp]
	mov	ecx, DWORD PTR [eax+56]
	mov	DWORD PTR [edx+56], ecx
	mov	edx, DWORD PTR _this$[ebp]
	mov	eax, DWORD PTR ___that$[ebp]
	mov	ecx, DWORD PTR [eax+60]
	mov	DWORD PTR [edx+60], ecx
	mov	edx, DWORD PTR _this$[ebp]
	mov	eax, DWORD PTR ___that$[ebp]
	mov	cl, BYTE PTR [eax+64]
	mov	BYTE PTR [edx+64], cl
	mov	edx, DWORD PTR _this$[ebp]
	mov	eax, DWORD PTR ___that$[ebp]
	mov	cl, BYTE PTR [eax+65]
	mov	BYTE PTR [edx+65], cl
	mov	edx, DWORD PTR _this$[ebp]
	mov	eax, DWORD PTR ___that$[ebp]
	mov	ecx, DWORD PTR [eax+68]
	mov	DWORD PTR [edx+68], ecx
	mov	eax, DWORD PTR _this$[ebp]
	mov	esp, ebp
	pop	ebp
	ret	4
??4InputManager@Ogre@@QAEAAV01@ABV01@@Z ENDP		; Ogre::InputManager::operator=
_TEXT	ENDS
PUBLIC	??0?$vector@PAVInputHandler@Ogre@@V?$allocator@PAVInputHandler@Ogre@@@std@@@std@@QAE@XZ ; std::vector<Ogre::InputHandler *,std::allocator<Ogre::InputHandler *> >::vector<Ogre::InputHandler *,std::allocator<Ogre::InputHandler *> >
PUBLIC	??0?$deque@UInputEvent@Ogre@@V?$allocator@UInputEvent@Ogre@@@std@@@std@@QAE@XZ ; std::deque<Ogre::InputEvent,std::allocator<Ogre::InputEvent> >::deque<Ogre::InputEvent,std::allocator<Ogre::InputEvent> >
PUBLIC	??0?$Singleton@VInputManager@Ogre@@@Ogre@@QAE@XZ ; Ogre::Singleton<Ogre::InputManager>::Singleton<Ogre::InputManager>
PUBLIC	??0InputManager@Ogre@@QAE@XZ			; Ogre::InputManager::InputManager
xdata$x	SEGMENT
__unwindtable$??0InputManager@Ogre@@QAE@XZ DD 0ffffffffH
	DD	FLAT:__unwindfunclet$??0InputManager@Ogre@@QAE@XZ$0
	DD	00H
	DD	FLAT:__unwindfunclet$??0InputManager@Ogre@@QAE@XZ$1
	DD	01H
	DD	FLAT:__unwindfunclet$??0InputManager@Ogre@@QAE@XZ$2
__ehfuncinfo$??0InputManager@Ogre@@QAE@XZ DD 019930522H
	DD	03H
	DD	FLAT:__unwindtable$??0InputManager@Ogre@@QAE@XZ
	DD	2 DUP(00H)
	DD	2 DUP(00H)
	DD	00H
	DD	00H
; Function compile flags: /Odtp
; File i:\svnroot\client\ogremain\ogreinputmanager.cpp
xdata$x	ENDS
_TEXT	SEGMENT
_this$ = -16						; size = 4
__$EHRec$ = -12						; size = 12
??0InputManager@Ogre@@QAE@XZ PROC			; Ogre::InputManager::InputManager
; _this$ = ecx

; 16   : 	{

	push	ebp
	mov	ebp, esp
	push	-1
	push	__ehhandler$??0InputManager@Ogre@@QAE@XZ
	mov	eax, DWORD PTR fs:0
	push	eax
	push	ecx
	mov	eax, DWORD PTR ___security_cookie
	xor	eax, ebp
	push	eax
	lea	eax, DWORD PTR __$EHRec$[ebp]
	mov	DWORD PTR fs:0, eax
	mov	DWORD PTR _this$[ebp], ecx
	mov	ecx, DWORD PTR _this$[ebp]
	call	??0?$Singleton@VInputManager@Ogre@@@Ogre@@QAE@XZ ; Ogre::Singleton<Ogre::InputManager>::Singleton<Ogre::InputManager>
	mov	DWORD PTR __$EHRec$[ebp+8], 0
	mov	ecx, DWORD PTR _this$[ebp]
	call	??0?$deque@UInputEvent@Ogre@@V?$allocator@UInputEvent@Ogre@@@std@@@std@@QAE@XZ ; std::deque<Ogre::InputEvent,std::allocator<Ogre::InputEvent> >::deque<Ogre::InputEvent,std::allocator<Ogre::InputEvent> >
	mov	BYTE PTR __$EHRec$[ebp+8], 1
	mov	ecx, DWORD PTR _this$[ebp]
	add	ecx, 32					; 00000020H
	call	??0?$vector@PAVInputHandler@Ogre@@V?$allocator@PAVInputHandler@Ogre@@@std@@@std@@QAE@XZ ; std::vector<Ogre::InputHandler *,std::allocator<Ogre::InputHandler *> >::vector<Ogre::InputHandler *,std::allocator<Ogre::InputHandler *> >
	mov	BYTE PTR __$EHRec$[ebp+8], 2
	mov	eax, DWORD PTR _this$[ebp]
	mov	DWORD PTR [eax+56], 0
	mov	ecx, DWORD PTR _this$[ebp]
	mov	DWORD PTR [ecx+60], 0
	mov	edx, DWORD PTR _this$[ebp]
	mov	BYTE PTR [edx+64], 0
	mov	eax, DWORD PTR _this$[ebp]
	mov	BYTE PTR [eax+65], 0
	mov	ecx, DWORD PTR _this$[ebp]
	mov	DWORD PTR [ecx+68], 0

; 17   : 	}

	mov	DWORD PTR __$EHRec$[ebp+8], -1
	mov	eax, DWORD PTR _this$[ebp]
	mov	ecx, DWORD PTR __$EHRec$[ebp]
	mov	DWORD PTR fs:0, ecx
	pop	ecx
	mov	esp, ebp
	pop	ebp
	ret	0
_TEXT	ENDS
text$x	SEGMENT
__unwindfunclet$??0InputManager@Ogre@@QAE@XZ$0:
	mov	ecx, DWORD PTR _this$[ebp]
	jmp	??1?$Singleton@VInputManager@Ogre@@@Ogre@@QAE@XZ ; Ogre::Singleton<Ogre::InputManager>::~Singleton<Ogre::InputManager>
__unwindfunclet$??0InputManager@Ogre@@QAE@XZ$1:
	mov	ecx, DWORD PTR _this$[ebp]
	jmp	??1?$deque@UInputEvent@Ogre@@V?$allocator@UInputEvent@Ogre@@@std@@@std@@QAE@XZ ; std::deque<Ogre::InputEvent,std::allocator<Ogre::InputEvent> >::~deque<Ogre::InputEvent,std::allocator<Ogre::InputEvent> >
__unwindfunclet$??0InputManager@Ogre@@QAE@XZ$2:
	mov	ecx, DWORD PTR _this$[ebp]
	add	ecx, 32					; 00000020H
	jmp	??1?$vector@PAVInputHandler@Ogre@@V?$allocator@PAVInputHandler@Ogre@@@std@@@std@@QAE@XZ ; std::vector<Ogre::InputHandler *,std::allocator<Ogre::InputHandler *> >::~vector<Ogre::InputHandler *,std::allocator<Ogre::InputHandler *> >
__ehhandler$??0InputManager@Ogre@@QAE@XZ:
	mov	edx, DWORD PTR [esp+8]
	lea	eax, DWORD PTR [edx+12]
	mov	ecx, DWORD PTR [edx-8]
	xor	ecx, eax
	call	@__security_check_cookie@4
	mov	eax, OFFSET __ehfuncinfo$??0InputManager@Ogre@@QAE@XZ
	jmp	___CxxFrameHandler3
text$x	ENDS
??0InputManager@Ogre@@QAE@XZ ENDP			; Ogre::InputManager::InputManager
PUBLIC	?push_back@?$vector@PAVInputHandler@Ogre@@V?$allocator@PAVInputHandler@Ogre@@@std@@@std@@QAEXABQAVInputHandler@Ogre@@@Z ; std::vector<Ogre::InputHandler *,std::allocator<Ogre::InputHandler *> >::push_back
PUBLIC	?RegisterInputHandler@InputManager@Ogre@@QAEXPAVInputHandler@2@@Z ; Ogre::InputManager::RegisterInputHandler
; Function compile flags: /Odtp
_TEXT	SEGMENT
_this$ = -4						; size = 4
_phandler$ = 8						; size = 4
?RegisterInputHandler@InputManager@Ogre@@QAEXPAVInputHandler@2@@Z PROC ; Ogre::InputManager::RegisterInputHandler
; _this$ = ecx

; 20   : 	{

	push	ebp
	mov	ebp, esp
	push	ecx
	mov	DWORD PTR _this$[ebp], ecx

; 21   : 		m_Handles.push_back(phandler);

	lea	eax, DWORD PTR _phandler$[ebp]
	push	eax
	mov	ecx, DWORD PTR _this$[ebp]
	add	ecx, 32					; 00000020H
	call	?push_back@?$vector@PAVInputHandler@Ogre@@V?$allocator@PAVInputHandler@Ogre@@@std@@@std@@QAEXABQAVInputHandler@Ogre@@@Z ; std::vector<Ogre::InputHandler *,std::allocator<Ogre::InputHandler *> >::push_back

; 22   : 	}

	mov	esp, ebp
	pop	ebp
	ret	4
?RegisterInputHandler@InputManager@Ogre@@QAEXPAVInputHandler@2@@Z ENDP ; Ogre::InputManager::RegisterInputHandler
_TEXT	ENDS
PUBLIC	?IsKeyDown@InputManager@Ogre@@QAE_NH@Z		; Ogre::InputManager::IsKeyDown
EXTRN	__imp__GetAsyncKeyState@4:PROC
; Function compile flags: /Odtp
_TEXT	SEGMENT
_this$ = -4						; size = 4
_vkey$ = 8						; size = 4
?IsKeyDown@InputManager@Ogre@@QAE_NH@Z PROC		; Ogre::InputManager::IsKeyDown
; _this$ = ecx

; 49   : 	{

	push	ebp
	mov	ebp, esp
	push	ecx
	mov	DWORD PTR _this$[ebp], ecx

; 50   : 		return (GetAsyncKeyState(vkey)&0xff00) != 0;

	mov	eax, DWORD PTR _vkey$[ebp]
	push	eax
	call	DWORD PTR __imp__GetAsyncKeyState@4
	cwde
	and	eax, 65280				; 0000ff00H
	neg	eax
	sbb	eax, eax
	neg	eax

; 51   : 	}

	mov	esp, ebp
	pop	ebp
	ret	4
?IsKeyDown@InputManager@Ogre@@QAE_NH@Z ENDP		; Ogre::InputManager::IsKeyDown
_TEXT	ENDS
PUBLIC	?ShowSystemCursor@InputManager@Ogre@@QAEX_N@Z	; Ogre::InputManager::ShowSystemCursor
EXTRN	__imp__ShowCursor@4:PROC
; Function compile flags: /Odtp
_TEXT	SEGMENT
_this$ = -4						; size = 4
_b$ = 8							; size = 1
?ShowSystemCursor@InputManager@Ogre@@QAEX_N@Z PROC	; Ogre::InputManager::ShowSystemCursor
; _this$ = ecx

; 54   : 	{

	push	ebp
	mov	ebp, esp
	push	ecx
	mov	DWORD PTR _this$[ebp], ecx

; 55   : 		if(b)

	movzx	eax, BYTE PTR _b$[ebp]
	test	eax, eax
	je	SHORT $LN2@ShowSystem
$LN5@ShowSystem:

; 56   : 		{
; 57   : 			while(ShowCursor(TRUE) < 0);

	push	1
	call	DWORD PTR __imp__ShowCursor@4
	test	eax, eax
	jge	SHORT $LN4@ShowSystem
	jmp	SHORT $LN5@ShowSystem
$LN4@ShowSystem:

; 58   : 		}
; 59   : 		else

	jmp	SHORT $LN7@ShowSystem
$LN2@ShowSystem:

; 60   : 		{
; 61   : 			while(ShowCursor(FALSE) >= 0);

	push	0
	call	DWORD PTR __imp__ShowCursor@4
	test	eax, eax
	jl	SHORT $LN7@ShowSystem
	jmp	SHORT $LN2@ShowSystem
$LN7@ShowSystem:

; 62   : 		}
; 63   : 	}

	mov	esp, ebp
	pop	ebp
	ret	4
?ShowSystemCursor@InputManager@Ogre@@QAEX_N@Z ENDP	; Ogre::InputManager::ShowSystemCursor
_TEXT	ENDS
PUBLIC	??A?$vector@PAVInputHandler@Ogre@@V?$allocator@PAVInputHandler@Ogre@@@std@@@std@@QAEAAPAVInputHandler@Ogre@@I@Z ; std::vector<Ogre::InputHandler *,std::allocator<Ogre::InputHandler *> >::operator[]
PUBLIC	?size@?$vector@PAVInputHandler@Ogre@@V?$allocator@PAVInputHandler@Ogre@@@std@@@std@@QBEIXZ ; std::vector<Ogre::InputHandler *,std::allocator<Ogre::InputHandler *> >::size
PUBLIC	__real@405e000000000000
PUBLIC	?push_back@?$deque@UInputEvent@Ogre@@V?$allocator@UInputEvent@Ogre@@@std@@@std@@QAEXABUInputEvent@Ogre@@@Z ; std::deque<Ogre::InputEvent,std::allocator<Ogre::InputEvent> >::push_back
PUBLIC	?IsPointIn@InputManager@Ogre@@QAE_NHH@Z		; Ogre::InputManager::IsPointIn
PUBLIC	??$find@PAHI@std@@YAPAHPAH0ABI@Z		; std::find<int *,unsigned int>
PUBLIC	?OnWindowMessage@InputManager@Ogre@@QAEXPAXIII@Z ; Ogre::InputManager::OnWindowMessage
EXTRN	__fltused:DWORD
;	COMDAT __real@405e000000000000
CONST	SEGMENT
__real@405e000000000000 DQ 0405e000000000000r	; 120
CONST	ENDS
;	COMDAT ?s_canKeepKeyDown@?4??OnWindowMessage@InputManager@Ogre@@QAEXPAXIII@Z@4PAHA
_DATA	SEGMENT
?s_canKeepKeyDown@?4??OnWindowMessage@InputManager@Ogre@@QAEXPAXIII@Z@4PAHA DD 025H ; `Ogre::InputManager::OnWindowMessage'::`5'::s_canKeepKeyDown
	DD	027H
; Function compile flags: /Odtp
_DATA	ENDS
_TEXT	SEGMENT
tv236 = -60						; size = 4
tv301 = -56						; size = 4
tv64 = -52						; size = 4
_this$ = -48						; size = 4
_i$117713 = -44						; size = 4
_ev2$117692 = -40					; size = 16
_new_mousein$117686 = -21				; size = 1
_pEnd$117664 = -20					; size = 4
_ev$ = -16						; size = 16
_hwnd$ = 8						; size = 4
_msgid$ = 12						; size = 4
_wparam$ = 16						; size = 4
_lparam$ = 20						; size = 4
?OnWindowMessage@InputManager@Ogre@@QAEXPAXIII@Z PROC	; Ogre::InputManager::OnWindowMessage
; _this$ = ecx

; 66   : 	{

	push	ebp
	mov	ebp, esp
	sub	esp, 60					; 0000003cH
	mov	DWORD PTR _this$[ebp], ecx

; 67   : 		InputEvent ev;
; 68   : 		ev.msg = MAX_INPUT_EVENT;

	mov	DWORD PTR _ev$[ebp], 16			; 00000010H

; 69   : 		switch(msgid)

	mov	eax, DWORD PTR _msgid$[ebp]
	mov	DWORD PTR tv64[ebp], eax
	cmp	DWORD PTR tv64[ebp], 512		; 00000200H
	ja	SHORT $LN33@OnWindowMe
	cmp	DWORD PTR tv64[ebp], 512		; 00000200H
	je	$LN14@OnWindowMe
	cmp	DWORD PTR tv64[ebp], 256		; 00000100H
	ja	SHORT $LN34@OnWindowMe
	cmp	DWORD PTR tv64[ebp], 256		; 00000100H
	je	SHORT $LN27@OnWindowMe
	cmp	DWORD PTR tv64[ebp], 5
	je	$LN10@OnWindowMe
	cmp	DWORD PTR tv64[ebp], 7
	je	$LN9@OnWindowMe
	cmp	DWORD PTR tv64[ebp], 8
	je	$LN8@OnWindowMe
	jmp	$LN7@OnWindowMe
$LN34@OnWindowMe:
	mov	ecx, DWORD PTR tv64[ebp]
	sub	ecx, 257				; 00000101H
	mov	DWORD PTR tv64[ebp], ecx
	cmp	DWORD PTR tv64[ebp], 4
	ja	$LN7@OnWindowMe
	mov	edx, DWORD PTR tv64[ebp]
	jmp	DWORD PTR $LN35@OnWindowMe[edx*4]
$LN33@OnWindowMe:
	mov	eax, DWORD PTR tv64[ebp]
	sub	eax, 513				; 00000201H
	mov	DWORD PTR tv64[ebp], eax
	cmp	DWORD PTR tv64[ebp], 9
	ja	$LN7@OnWindowMe
	mov	ecx, DWORD PTR tv64[ebp]
	jmp	DWORD PTR $LN36@OnWindowMe[ecx*4]
$LN28@OnWindowMe:

; 70   : 		{
; 71   : 		case WM_CHAR:
; 72   : 			ev.msg = GIE_CHAR;

	mov	DWORD PTR _ev$[ebp], 0

; 73   : 			ev.chars.str[0] = (char)wparam;

	mov	dl, BYTE PTR _wparam$[ebp]
	mov	BYTE PTR _ev$[ebp+4], dl

; 74   : 			ev.chars.str[1] = 0;

	mov	BYTE PTR _ev$[ebp+5], 0

; 75   : 			break;

	jmp	$LN29@OnWindowMe
$LN27@OnWindowMe:

; 76   : 
; 77   : 		case WM_SYSKEYDOWN:
; 78   : 		case WM_KEYDOWN:
; 79   : 			{
; 80   : 				static int s_canKeepKeyDown[] = { VK_LEFT, VK_RIGHT };
; 81   : 				int* pEnd = s_canKeepKeyDown + sizeof( s_canKeepKeyDown ) / sizeof( int );

	mov	DWORD PTR _pEnd$117664[ebp], OFFSET ?s_canKeepKeyDown@?4??OnWindowMessage@InputManager@Ogre@@QAEXPAXIII@Z@4PAHA+8

; 82   : 				if ( std::find( s_canKeepKeyDown, pEnd, wparam ) == pEnd &&
; 83   : 					( lparam & PREV_KEYDOWN ) != 0 )

	lea	eax, DWORD PTR _wparam$[ebp]
	push	eax
	mov	ecx, DWORD PTR _pEnd$117664[ebp]
	push	ecx
	push	OFFSET ?s_canKeepKeyDown@?4??OnWindowMessage@InputManager@Ogre@@QAEXPAXIII@Z@4PAHA
	call	??$find@PAHI@std@@YAPAHPAH0ABI@Z	; std::find<int *,unsigned int>
	add	esp, 12					; 0000000cH
	cmp	eax, DWORD PTR _pEnd$117664[ebp]
	jne	SHORT $LN26@OnWindowMe
	mov	edx, DWORD PTR _lparam$[ebp]
	and	edx, 1073741824				; 40000000H
	je	SHORT $LN26@OnWindowMe

; 84   : 				{
; 85   : 
; 86   : 					return;

	jmp	$LN31@OnWindowMe
$LN26@OnWindowMe:

; 87   : 				}
; 88   : 				
; 89   : 				ev.msg = GIE_KEYDOWN;

	mov	DWORD PTR _ev$[ebp], 1

; 90   : 				ev.key.vkey = wparam;

	mov	eax, DWORD PTR _wparam$[ebp]
	mov	DWORD PTR _ev$[ebp+4], eax

; 91   : 				ev.key.flags = GetKeyFlags();

	call	?GetKeyFlags@Ogre@@YAIXZ		; Ogre::GetKeyFlags
	mov	DWORD PTR _ev$[ebp+8], eax

; 92   : 				break;

	jmp	$LN29@OnWindowMe
$LN25@OnWindowMe:

; 93   : 			}
; 94   : 
; 95   : 		case WM_SYSKEYUP:
; 96   : 		case WM_KEYUP:
; 97   : 			ev.msg = GIE_KEYUP;

	mov	DWORD PTR _ev$[ebp], 2

; 98   : 			ev.key.vkey = wparam;

	mov	ecx, DWORD PTR _wparam$[ebp]
	mov	DWORD PTR _ev$[ebp+4], ecx

; 99   : 			ev.key.flags = GetKeyFlags();

	call	?GetKeyFlags@Ogre@@YAIXZ		; Ogre::GetKeyFlags
	mov	DWORD PTR _ev$[ebp+8], eax

; 100  : 			break;

	jmp	$LN29@OnWindowMe
$LN24@OnWindowMe:

; 101  : 
; 102  : 		case WM_LBUTTONDOWN:
; 103  : 			ev.msg = GIE_LBTNDOWN;

	mov	DWORD PTR _ev$[ebp], 3

; 104  : 			GetMouseEventData(ev, wparam, lparam);

	mov	edx, DWORD PTR _lparam$[ebp]
	push	edx
	mov	eax, DWORD PTR _wparam$[ebp]
	push	eax
	lea	ecx, DWORD PTR _ev$[ebp]
	push	ecx
	call	?GetMouseEventData@Ogre@@YAXAAUInputEvent@1@II@Z ; Ogre::GetMouseEventData
	add	esp, 12					; 0000000cH

; 105  : 			if(!IsPointIn(ev.mouse.x, ev.mouse.y)) return;

	movsx	edx, WORD PTR _ev$[ebp+6]
	push	edx
	movsx	eax, WORD PTR _ev$[ebp+4]
	push	eax
	mov	ecx, DWORD PTR _this$[ebp]
	call	?IsPointIn@InputManager@Ogre@@QAE_NHH@Z	; Ogre::InputManager::IsPointIn
	movzx	ecx, al
	test	ecx, ecx
	jne	SHORT $LN23@OnWindowMe
	jmp	$LN31@OnWindowMe
$LN23@OnWindowMe:

; 106  : 			break;

	jmp	$LN29@OnWindowMe
$LN22@OnWindowMe:

; 107  : 
; 108  : 		case WM_LBUTTONUP:
; 109  : 			ev.msg = GIE_LBTNUP;

	mov	DWORD PTR _ev$[ebp], 4

; 110  : 			GetMouseEventData(ev, wparam, lparam);

	mov	edx, DWORD PTR _lparam$[ebp]
	push	edx
	mov	eax, DWORD PTR _wparam$[ebp]
	push	eax
	lea	ecx, DWORD PTR _ev$[ebp]
	push	ecx
	call	?GetMouseEventData@Ogre@@YAXAAUInputEvent@1@II@Z ; Ogre::GetMouseEventData
	add	esp, 12					; 0000000cH

; 111  : 			break;

	jmp	$LN29@OnWindowMe
$LN21@OnWindowMe:

; 112  : 
; 113  : 		case WM_LBUTTONDBLCLK:
; 114  : 			ev.msg = GIE_LBTNDBLCLK;

	mov	DWORD PTR _ev$[ebp], 5

; 115  : 			GetMouseEventData(ev, wparam, lparam);

	mov	edx, DWORD PTR _lparam$[ebp]
	push	edx
	mov	eax, DWORD PTR _wparam$[ebp]
	push	eax
	lea	ecx, DWORD PTR _ev$[ebp]
	push	ecx
	call	?GetMouseEventData@Ogre@@YAXAAUInputEvent@1@II@Z ; Ogre::GetMouseEventData
	add	esp, 12					; 0000000cH

; 116  : 			if(!IsPointIn(ev.mouse.x, ev.mouse.y)) return;

	movsx	edx, WORD PTR _ev$[ebp+6]
	push	edx
	movsx	eax, WORD PTR _ev$[ebp+4]
	push	eax
	mov	ecx, DWORD PTR _this$[ebp]
	call	?IsPointIn@InputManager@Ogre@@QAE_NHH@Z	; Ogre::InputManager::IsPointIn
	movzx	ecx, al
	test	ecx, ecx
	jne	SHORT $LN20@OnWindowMe
	jmp	$LN31@OnWindowMe
$LN20@OnWindowMe:

; 117  : 			break;

	jmp	$LN29@OnWindowMe
$LN19@OnWindowMe:

; 118  : 
; 119  : 		case WM_RBUTTONDOWN:
; 120  : 			ev.msg = GIE_RBTNDOWN;

	mov	DWORD PTR _ev$[ebp], 6

; 121  : 			GetMouseEventData(ev, wparam, lparam);

	mov	edx, DWORD PTR _lparam$[ebp]
	push	edx
	mov	eax, DWORD PTR _wparam$[ebp]
	push	eax
	lea	ecx, DWORD PTR _ev$[ebp]
	push	ecx
	call	?GetMouseEventData@Ogre@@YAXAAUInputEvent@1@II@Z ; Ogre::GetMouseEventData
	add	esp, 12					; 0000000cH

; 122  : 			if(!IsPointIn(ev.mouse.x, ev.mouse.y)) return;

	movsx	edx, WORD PTR _ev$[ebp+6]
	push	edx
	movsx	eax, WORD PTR _ev$[ebp+4]
	push	eax
	mov	ecx, DWORD PTR _this$[ebp]
	call	?IsPointIn@InputManager@Ogre@@QAE_NHH@Z	; Ogre::InputManager::IsPointIn
	movzx	ecx, al
	test	ecx, ecx
	jne	SHORT $LN18@OnWindowMe
	jmp	$LN31@OnWindowMe
$LN18@OnWindowMe:

; 123  : 			break;

	jmp	$LN29@OnWindowMe
$LN17@OnWindowMe:

; 124  : 
; 125  : 		case WM_RBUTTONUP:
; 126  : 			ev.msg = GIE_RBTNUP;

	mov	DWORD PTR _ev$[ebp], 7

; 127  : 			GetMouseEventData(ev, wparam, lparam);

	mov	edx, DWORD PTR _lparam$[ebp]
	push	edx
	mov	eax, DWORD PTR _wparam$[ebp]
	push	eax
	lea	ecx, DWORD PTR _ev$[ebp]
	push	ecx
	call	?GetMouseEventData@Ogre@@YAXAAUInputEvent@1@II@Z ; Ogre::GetMouseEventData
	add	esp, 12					; 0000000cH

; 128  : 			break;

	jmp	$LN29@OnWindowMe
$LN16@OnWindowMe:

; 129  : 
; 130  : 		case WM_RBUTTONDBLCLK:
; 131  : 			ev.msg = GIE_RBTNDBLCLK;

	mov	DWORD PTR _ev$[ebp], 8

; 132  : 			GetMouseEventData(ev, wparam, lparam);

	mov	edx, DWORD PTR _lparam$[ebp]
	push	edx
	mov	eax, DWORD PTR _wparam$[ebp]
	push	eax
	lea	ecx, DWORD PTR _ev$[ebp]
	push	ecx
	call	?GetMouseEventData@Ogre@@YAXAAUInputEvent@1@II@Z ; Ogre::GetMouseEventData
	add	esp, 12					; 0000000cH

; 133  : 			if(!IsPointIn(ev.mouse.x, ev.mouse.y)) return;

	movsx	edx, WORD PTR _ev$[ebp+6]
	push	edx
	movsx	eax, WORD PTR _ev$[ebp+4]
	push	eax
	mov	ecx, DWORD PTR _this$[ebp]
	call	?IsPointIn@InputManager@Ogre@@QAE_NHH@Z	; Ogre::InputManager::IsPointIn
	movzx	ecx, al
	test	ecx, ecx
	jne	SHORT $LN15@OnWindowMe
	jmp	$LN31@OnWindowMe
$LN15@OnWindowMe:

; 134  : 			break;

	jmp	$LN29@OnWindowMe
$LN14@OnWindowMe:

; 135  : 
; 136  : 		case WM_MOUSEMOVE:
; 137  : 			{
; 138  : 				bool new_mousein = IsPointIn(LOWORD(lparam), HIWORD(lparam));

	mov	edx, DWORD PTR _lparam$[ebp]
	shr	edx, 16					; 00000010H
	and	edx, 65535				; 0000ffffH
	movzx	eax, dx
	push	eax
	mov	ecx, DWORD PTR _lparam$[ebp]
	and	ecx, 65535				; 0000ffffH
	movzx	edx, cx
	push	edx
	mov	ecx, DWORD PTR _this$[ebp]
	call	?IsPointIn@InputManager@Ogre@@QAE_NHH@Z	; Ogre::InputManager::IsPointIn
	mov	BYTE PTR _new_mousein$117686[ebp], al

; 139  : 				if(m_IsMouseIn != new_mousein)

	mov	eax, DWORD PTR _this$[ebp]
	movzx	ecx, BYTE PTR [eax+64]
	movzx	edx, BYTE PTR _new_mousein$117686[ebp]
	cmp	ecx, edx
	je	SHORT $LN12@OnWindowMe

; 140  : 				{
; 141  : 					//ShowSystemCursor(!new_mousein);
; 142  : 					//if(!new_mousein) ::ReleaseCapture();
; 143  : 					//else ::SetCapture((HWND)hwnd);
; 144  : 
; 145  : 					m_IsMouseIn = new_mousein;

	mov	eax, DWORD PTR _this$[ebp]
	mov	cl, BYTE PTR _new_mousein$117686[ebp]
	mov	BYTE PTR [eax+64], cl

; 146  : 
; 147  : 					InputEvent ev2;
; 148  : 					ev2.msg = new_mousein?GIE_MOUSEIN:GIE_MOUSEOUT;

	movzx	edx, BYTE PTR _new_mousein$117686[ebp]
	neg	edx
	sbb	edx, edx
	neg	edx
	add	edx, 11					; 0000000bH
	mov	DWORD PTR _ev2$117692[ebp], edx

; 149  : 					m_EventQue.push_back(ev2);

	lea	eax, DWORD PTR _ev2$117692[ebp]
	push	eax
	mov	ecx, DWORD PTR _this$[ebp]
	call	?push_back@?$deque@UInputEvent@Ogre@@V?$allocator@UInputEvent@Ogre@@@std@@@std@@QAEXABUInputEvent@Ogre@@@Z ; std::deque<Ogre::InputEvent,std::allocator<Ogre::InputEvent> >::push_back

; 150  : 					if(!new_mousein) return;

	movzx	ecx, BYTE PTR _new_mousein$117686[ebp]
	test	ecx, ecx
	jne	SHORT $LN12@OnWindowMe
	jmp	$LN31@OnWindowMe
$LN12@OnWindowMe:

; 151  : 				}
; 152  : 
; 153  : 				ev.msg = GIE_MOUSEMOVE;

	mov	DWORD PTR _ev$[ebp], 9

; 154  : 				GetMouseEventData(ev, wparam, lparam);

	mov	edx, DWORD PTR _lparam$[ebp]
	push	edx
	mov	eax, DWORD PTR _wparam$[ebp]
	push	eax
	lea	ecx, DWORD PTR _ev$[ebp]
	push	ecx
	call	?GetMouseEventData@Ogre@@YAXAAUInputEvent@1@II@Z ; Ogre::GetMouseEventData
	add	esp, 12					; 0000000cH

; 155  : 			}
; 156  : 			break;

	jmp	$LN29@OnWindowMe
$LN11@OnWindowMe:

; 157  : 
; 158  : 		case WM_MOUSEWHEEL:
; 159  : 			ev.msg = GIE_MOUSEWHEEL;

	mov	DWORD PTR _ev$[ebp], 10			; 0000000aH

; 160  : 			ev.wheel.flags = LOWORD(wparam);

	mov	edx, DWORD PTR _wparam$[ebp]
	and	edx, 65535				; 0000ffffH
	movzx	eax, dx
	mov	DWORD PTR _ev$[ebp+8], eax

; 161  : 			ev.wheel.dist = float(GET_WHEEL_DELTA_WPARAM(wparam)) / WHEEL_DELTA;

	mov	ecx, DWORD PTR _wparam$[ebp]
	shr	ecx, 16					; 00000010H
	and	ecx, 65535				; 0000ffffH
	movsx	edx, cx
	mov	DWORD PTR tv301[ebp], edx
	fild	DWORD PTR tv301[ebp]
	fdiv	QWORD PTR __real@405e000000000000
	fstp	DWORD PTR _ev$[ebp+4]

; 162  : 			ev.wheel.x = LOWORD(lparam);

	mov	eax, DWORD PTR _lparam$[ebp]
	and	eax, 65535				; 0000ffffH
	mov	WORD PTR _ev$[ebp+12], ax

; 163  : 			ev.wheel.y = HIWORD(lparam);

	mov	ecx, DWORD PTR _lparam$[ebp]
	shr	ecx, 16					; 00000010H
	and	ecx, 65535				; 0000ffffH
	mov	WORD PTR _ev$[ebp+14], cx

; 164  : 			break;

	jmp	SHORT $LN29@OnWindowMe
$LN10@OnWindowMe:

; 165  : 
; 166  : 		case WM_SIZE:
; 167  : 			ev.msg = GIE_WINSIZE;

	mov	DWORD PTR _ev$[ebp], 13			; 0000000dH

; 168  : 			ev.winsize.sizex = LOWORD(lparam);

	mov	edx, DWORD PTR _lparam$[ebp]
	and	edx, 65535				; 0000ffffH
	movzx	eax, dx
	mov	DWORD PTR _ev$[ebp+4], eax

; 169  : 			ev.winsize.sizey = HIWORD(lparam);

	mov	ecx, DWORD PTR _lparam$[ebp]
	shr	ecx, 16					; 00000010H
	and	ecx, 65535				; 0000ffffH
	movzx	edx, cx
	mov	DWORD PTR _ev$[ebp+8], edx

; 170  : 			m_ClientWidth = ev.winsize.sizex;

	mov	eax, DWORD PTR _this$[ebp]
	mov	ecx, DWORD PTR _ev$[ebp+4]
	mov	DWORD PTR [eax+56], ecx

; 171  : 			m_ClientHeight = ev.winsize.sizey;

	mov	edx, DWORD PTR _this$[ebp]
	mov	eax, DWORD PTR _ev$[ebp+8]
	mov	DWORD PTR [edx+60], eax

; 172  : 			break;

	jmp	SHORT $LN29@OnWindowMe
$LN9@OnWindowMe:

; 173  : 
; 174  : 		case WM_SETFOCUS:
; 175  : 			m_bIsFocus	= true;

	mov	ecx, DWORD PTR _this$[ebp]
	mov	BYTE PTR [ecx+65], 1

; 176  : 			//::SetCapture((HWND)hwnd);
; 177  : 			break;

	jmp	SHORT $LN29@OnWindowMe
$LN8@OnWindowMe:

; 178  : 
; 179  : 		case WM_KILLFOCUS:
; 180  : 			//::ReleaseCapture();
; 181  : 			m_bIsFocus	= false;

	mov	edx, DWORD PTR _this$[ebp]
	mov	BYTE PTR [edx+65], 0

; 182  : 			m_IsMouseIn = false;

	mov	eax, DWORD PTR _this$[ebp]
	mov	BYTE PTR [eax+64], 0

; 183  : 			//ShowSystemCursor(true);
; 184  : 			ev.msg = GIE_MOUSEOUT;

	mov	DWORD PTR _ev$[ebp], 11			; 0000000bH

; 185  : 			break;

	jmp	SHORT $LN29@OnWindowMe
$LN7@OnWindowMe:

; 186  : 
; 187  : 		default:
; 188  : 			return;

	jmp	SHORT $LN31@OnWindowMe
$LN29@OnWindowMe:

; 189  : 		}
; 190  : 		
; 191  : 		if( m_pSelfHandler == NULL )

	mov	ecx, DWORD PTR _this$[ebp]
	cmp	DWORD PTR [ecx+68], 0
	jne	SHORT $LN6@OnWindowMe

; 192  : 		{
; 193  : 			for(size_t i=0; i<m_Handles.size(); i++)

	mov	DWORD PTR _i$117713[ebp], 0
	jmp	SHORT $LN5@OnWindowMe
$LN4@OnWindowMe:
	mov	edx, DWORD PTR _i$117713[ebp]
	add	edx, 1
	mov	DWORD PTR _i$117713[ebp], edx
$LN5@OnWindowMe:
	mov	ecx, DWORD PTR _this$[ebp]
	add	ecx, 32					; 00000020H
	call	?size@?$vector@PAVInputHandler@Ogre@@V?$allocator@PAVInputHandler@Ogre@@@std@@@std@@QBEIXZ ; std::vector<Ogre::InputHandler *,std::allocator<Ogre::InputHandler *> >::size
	cmp	DWORD PTR _i$117713[ebp], eax
	jae	SHORT $LN3@OnWindowMe

; 194  : 			{
; 195  : 				if(m_Handles[i]->HandleInput(ev) != 0) break;//已经被前面的handler处理完了

	mov	eax, DWORD PTR _i$117713[ebp]
	push	eax
	mov	ecx, DWORD PTR _this$[ebp]
	add	ecx, 32					; 00000020H
	call	??A?$vector@PAVInputHandler@Ogre@@V?$allocator@PAVInputHandler@Ogre@@@std@@@std@@QAEAAPAVInputHandler@Ogre@@I@Z ; std::vector<Ogre::InputHandler *,std::allocator<Ogre::InputHandler *> >::operator[]
	mov	ecx, DWORD PTR [eax]
	mov	DWORD PTR tv236[ebp], ecx
	lea	edx, DWORD PTR _ev$[ebp]
	push	edx
	mov	eax, DWORD PTR tv236[ebp]
	mov	edx, DWORD PTR [eax]
	mov	ecx, DWORD PTR tv236[ebp]
	mov	eax, DWORD PTR [edx]
	call	eax
	test	eax, eax
	je	SHORT $LN2@OnWindowMe
	jmp	SHORT $LN3@OnWindowMe
$LN2@OnWindowMe:

; 196  : 			}

	jmp	SHORT $LN4@OnWindowMe
$LN3@OnWindowMe:
	jmp	SHORT $LN1@OnWindowMe
$LN6@OnWindowMe:

; 197  : 		}else{
; 198  : 			m_pSelfHandler->HandleInput(ev);

	lea	ecx, DWORD PTR _ev$[ebp]
	push	ecx
	mov	edx, DWORD PTR _this$[ebp]
	mov	eax, DWORD PTR [edx+68]
	mov	ecx, DWORD PTR _this$[ebp]
	mov	ecx, DWORD PTR [ecx+68]
	mov	edx, DWORD PTR [eax]
	mov	eax, DWORD PTR [edx]
	call	eax
$LN1@OnWindowMe:
$LN31@OnWindowMe:

; 199  : 		}
; 200  : 		
; 201  : 
; 202  : 		//m_EventQue.push_back(ev);
; 203  : 	}

	mov	esp, ebp
	pop	ebp
	ret	16					; 00000010H
	npad	3
$LN35@OnWindowMe:
	DD	$LN25@OnWindowMe
	DD	$LN28@OnWindowMe
	DD	$LN7@OnWindowMe
	DD	$LN27@OnWindowMe
	DD	$LN25@OnWindowMe
$LN36@OnWindowMe:
	DD	$LN24@OnWindowMe
	DD	$LN22@OnWindowMe
	DD	$LN21@OnWindowMe
	DD	$LN19@OnWindowMe
	DD	$LN17@OnWindowMe
	DD	$LN16@OnWindowMe
	DD	$LN7@OnWindowMe
	DD	$LN7@OnWindowMe
	DD	$LN7@OnWindowMe
	DD	$LN11@OnWindowMe
?OnWindowMessage@InputManager@Ogre@@QAEXPAXIII@Z ENDP	; Ogre::InputManager::OnWindowMessage
; Function compile flags: /Odtp
_ev$ = 8						; size = 4
_wparam$ = 12						; size = 4
_lparam$ = 16						; size = 4
?GetMouseEventData@Ogre@@YAXAAUInputEvent@1@II@Z PROC	; Ogre::GetMouseEventData

; 25   : 	{

	push	ebp
	mov	ebp, esp

; 26   : 		ev.mouse.x = LOWORD(lparam);

	mov	eax, DWORD PTR _lparam$[ebp]
	and	eax, 65535				; 0000ffffH
	mov	ecx, DWORD PTR _ev$[ebp]
	mov	WORD PTR [ecx+4], ax

; 27   : 		ev.mouse.y = HIWORD(lparam);

	mov	edx, DWORD PTR _lparam$[ebp]
	shr	edx, 16					; 00000010H
	and	edx, 65535				; 0000ffffH
	mov	eax, DWORD PTR _ev$[ebp]
	mov	WORD PTR [eax+6], dx

; 28   : 
; 29   : 		ev.mouse.flags = wparam;

	mov	ecx, DWORD PTR _ev$[ebp]
	mov	edx, DWORD PTR _wparam$[ebp]
	mov	DWORD PTR [ecx+8], edx

; 30   : 	}

	pop	ebp
	ret	0
?GetMouseEventData@Ogre@@YAXAAUInputEvent@1@II@Z ENDP	; Ogre::GetMouseEventData
; Function compile flags: /Odtp
_flags$ = -4						; size = 4
?GetKeyFlags@Ogre@@YAIXZ PROC				; Ogre::GetKeyFlags

; 38   : 	{

	push	ebp
	mov	ebp, esp
	push	ecx

; 39   : 		unsigned int flags = 0;

	mov	DWORD PTR _flags$[ebp], 0

; 40   : 		if(IsKeyDown(VK_CONTROL)) flags |= MK_CONTROL;

	push	17					; 00000011H
	call	?IsKeyDown@Ogre@@YA_NH@Z		; Ogre::IsKeyDown
	add	esp, 4
	movzx	eax, al
	test	eax, eax
	je	SHORT $LN4@GetKeyFlag
	mov	ecx, DWORD PTR _flags$[ebp]
	or	ecx, 8
	mov	DWORD PTR _flags$[ebp], ecx
$LN4@GetKeyFlag:

; 41   : 		if(IsKeyDown(VK_SHIFT)) flags |= MK_SHIFT;

	push	16					; 00000010H
	call	?IsKeyDown@Ogre@@YA_NH@Z		; Ogre::IsKeyDown
	add	esp, 4
	movzx	edx, al
	test	edx, edx
	je	SHORT $LN3@GetKeyFlag
	mov	eax, DWORD PTR _flags$[ebp]
	or	eax, 4
	mov	DWORD PTR _flags$[ebp], eax
$LN3@GetKeyFlag:

; 42   : 		if(IsKeyDown(VK_MBUTTON)) flags |= MK_MBUTTON;

	push	4
	call	?IsKeyDown@Ogre@@YA_NH@Z		; Ogre::IsKeyDown
	add	esp, 4
	movzx	ecx, al
	test	ecx, ecx
	je	SHORT $LN2@GetKeyFlag
	mov	edx, DWORD PTR _flags$[ebp]
	or	edx, 16					; 00000010H
	mov	DWORD PTR _flags$[ebp], edx
$LN2@GetKeyFlag:

; 43   : 		if(IsKeyDown(VK_MENU)) flags |= MK_ALT;

	push	18					; 00000012H
	call	?IsKeyDown@Ogre@@YA_NH@Z		; Ogre::IsKeyDown
	add	esp, 4
	movzx	eax, al
	test	eax, eax
	je	SHORT $LN1@GetKeyFlag
	mov	ecx, DWORD PTR _flags$[ebp]
	or	ecx, 32					; 00000020H
	mov	DWORD PTR _flags$[ebp], ecx
$LN1@GetKeyFlag:

; 44   : 
; 45   : 		return flags;

	mov	eax, DWORD PTR _flags$[ebp]

; 46   : 	}

	mov	esp, ebp
	pop	ebp
	ret	0
?GetKeyFlags@Ogre@@YAIXZ ENDP				; Ogre::GetKeyFlags
; Function compile flags: /Odtp
_vkey$ = 8						; size = 4
?IsKeyDown@Ogre@@YA_NH@Z PROC				; Ogre::IsKeyDown

; 33   : 	{

	push	ebp
	mov	ebp, esp

; 34   : 		return (GetAsyncKeyState(vkey)&0xff00) != 0;

	mov	eax, DWORD PTR _vkey$[ebp]
	push	eax
	call	DWORD PTR __imp__GetAsyncKeyState@4
	cwde
	and	eax, 65280				; 0000ff00H
	neg	eax
	sbb	eax, eax
	neg	eax

; 35   : 	}

	pop	ebp
	ret	0
?IsKeyDown@Ogre@@YA_NH@Z ENDP				; Ogre::IsKeyDown
_TEXT	ENDS
PUBLIC	?Dispatch@InputManager@Ogre@@QAEXXZ		; Ogre::InputManager::Dispatch
; Function compile flags: /Odtp
_TEXT	SEGMENT
_this$ = -4						; size = 4
?Dispatch@InputManager@Ogre@@QAEXXZ PROC		; Ogre::InputManager::Dispatch
; _this$ = ecx

; 206  : 	{

	push	ebp
	mov	ebp, esp
	push	ecx
	mov	DWORD PTR _this$[ebp], ecx

; 207  : 		//while(!m_EventQue.empty())
; 208  : 		//{
; 209  : 		//	InputEvent &ev = m_EventQue.front();
; 210  : 
; 211  : 		//	for(size_t i=0; i<m_Handles.size(); i++)
; 212  : 		//	{
; 213  : 		//		if(m_Handles[i]->HandleInput(ev) != 0) break;//已经被前面的handler处理完了
; 214  : 		//	}
; 215  : 
; 216  : 		//	m_EventQue.pop_front();
; 217  : 		//}
; 218  : 	}

	mov	esp, ebp
	pop	ebp
	ret	0
?Dispatch@InputManager@Ogre@@QAEXXZ ENDP		; Ogre::InputManager::Dispatch
; Function compile flags: /Odtp
tv70 = -8						; size = 4
_this$ = -4						; size = 4
_x$ = 8							; size = 4
_y$ = 12						; size = 4
?IsPointIn@InputManager@Ogre@@QAE_NHH@Z PROC		; Ogre::InputManager::IsPointIn
; _this$ = ecx

; 221  : 	{

	push	ebp
	mov	ebp, esp
	sub	esp, 8
	mov	DWORD PTR _this$[ebp], ecx

; 222  : 		return x>=0&&x<m_ClientWidth&&y>=0&&y<m_ClientHeight;

	cmp	DWORD PTR _x$[ebp], 0
	jl	SHORT $LN3@IsPointIn
	mov	eax, DWORD PTR _this$[ebp]
	mov	ecx, DWORD PTR _x$[ebp]
	cmp	ecx, DWORD PTR [eax+56]
	jge	SHORT $LN3@IsPointIn
	cmp	DWORD PTR _y$[ebp], 0
	jl	SHORT $LN3@IsPointIn
	mov	edx, DWORD PTR _this$[ebp]
	mov	eax, DWORD PTR _y$[ebp]
	cmp	eax, DWORD PTR [edx+60]
	jge	SHORT $LN3@IsPointIn
	mov	DWORD PTR tv70[ebp], 1
	jmp	SHORT $LN4@IsPointIn
$LN3@IsPointIn:
	mov	DWORD PTR tv70[ebp], 0
$LN4@IsPointIn:
	mov	al, BYTE PTR tv70[ebp]

; 223  : 	}

	mov	esp, ebp
	pop	ebp
	ret	8
?IsPointIn@InputManager@Ogre@@QAE_NHH@Z ENDP		; Ogre::InputManager::IsPointIn
_TEXT	ENDS
PUBLIC	?isFocus@InputManager@Ogre@@QAE_NXZ		; Ogre::InputManager::isFocus
; Function compile flags: /Odtp
_TEXT	SEGMENT
_this$ = -4						; size = 4
?isFocus@InputManager@Ogre@@QAE_NXZ PROC		; Ogre::InputManager::isFocus
; _this$ = ecx

; 226  : 	{

	push	ebp
	mov	ebp, esp
	push	ecx
	mov	DWORD PTR _this$[ebp], ecx

; 227  : 		return m_bIsFocus;

	mov	eax, DWORD PTR _this$[ebp]
	mov	al, BYTE PTR [eax+65]

; 228  : 	}

	mov	esp, ebp
	pop	ebp
	ret	0
?isFocus@InputManager@Ogre@@QAE_NXZ ENDP		; Ogre::InputManager::isFocus
; Function compile flags: /Odtp
; File i:\svnroot\client\ogremain\ogresingleton.h
_TEXT	ENDS
;	COMDAT ??0?$Singleton@VInputManager@Ogre@@@Ogre@@QAE@XZ
_TEXT	SEGMENT
_this$ = -4						; size = 4
??0?$Singleton@VInputManager@Ogre@@@Ogre@@QAE@XZ PROC	; Ogre::Singleton<Ogre::InputManager>::Singleton<Ogre::InputManager>, COMDAT
; _this$ = ecx

; 64   : 		Singleton( void )

	push	ebp
	mov	ebp, esp
	push	ecx
	mov	DWORD PTR _this$[ebp], ecx

; 65   : 		{
; 66   : 			assert( !ms_Singleton );
; 67   : #if defined( _MSC_VER ) && _MSC_VER < 1200	 
; 68   : 			int offset = (int)(T*)1 - (int)(Singleton <T>*)(T*)1;
; 69   : 			ms_Singleton = (T*)((int)this + offset);
; 70   : #else
; 71   : 			ms_Singleton = static_cast< T* >( this );

	mov	eax, DWORD PTR _this$[ebp]
	mov	DWORD PTR ?ms_Singleton@?$Singleton@VInputManager@Ogre@@@Ogre@@1PAVInputManager@2@A, eax ; Ogre::Singleton<Ogre::InputManager>::ms_Singleton

; 72   : #endif
; 73   : 		}

	mov	eax, DWORD PTR _this$[ebp]
	mov	esp, ebp
	pop	ebp
	ret	0
??0?$Singleton@VInputManager@Ogre@@@Ogre@@QAE@XZ ENDP	; Ogre::Singleton<Ogre::InputManager>::Singleton<Ogre::InputManager>
; Function compile flags: /Odtp
_TEXT	ENDS
;	COMDAT ??1?$Singleton@VInputManager@Ogre@@@Ogre@@QAE@XZ
_TEXT	SEGMENT
_this$ = -4						; size = 4
??1?$Singleton@VInputManager@Ogre@@@Ogre@@QAE@XZ PROC	; Ogre::Singleton<Ogre::InputManager>::~Singleton<Ogre::InputManager>, COMDAT
; _this$ = ecx

; 75   : 		{  assert( ms_Singleton );  ms_Singleton = 0;  }

	push	ebp
	mov	ebp, esp
	push	ecx
	mov	DWORD PTR _this$[ebp], ecx
	mov	DWORD PTR ?ms_Singleton@?$Singleton@VInputManager@Ogre@@@Ogre@@1PAVInputManager@2@A, 0 ; Ogre::Singleton<Ogre::InputManager>::ms_Singleton
	mov	esp, ebp
	pop	ebp
	ret	0
??1?$Singleton@VInputManager@Ogre@@@Ogre@@QAE@XZ ENDP	; Ogre::Singleton<Ogre::InputManager>::~Singleton<Ogre::InputManager>
_TEXT	ENDS
PUBLIC	?getSingleton@?$Singleton@VInputManager@Ogre@@@Ogre@@SAAAVInputManager@2@XZ ; Ogre::Singleton<Ogre::InputManager>::getSingleton
; Function compile flags: /Odtp
;	COMDAT ?getSingleton@?$Singleton@VInputManager@Ogre@@@Ogre@@SAAAVInputManager@2@XZ
_TEXT	SEGMENT
?getSingleton@?$Singleton@VInputManager@Ogre@@@Ogre@@SAAAVInputManager@2@XZ PROC ; Ogre::Singleton<Ogre::InputManager>::getSingleton, COMDAT

; 77   : 		{	assert( ms_Singleton );  return ( *ms_Singleton ); }

	push	ebp
	mov	ebp, esp
	mov	eax, DWORD PTR ?ms_Singleton@?$Singleton@VInputManager@Ogre@@@Ogre@@1PAVInputManager@2@A ; Ogre::Singleton<Ogre::InputManager>::ms_Singleton
	pop	ebp
	ret	0
?getSingleton@?$Singleton@VInputManager@Ogre@@@Ogre@@SAAAVInputManager@2@XZ ENDP ; Ogre::Singleton<Ogre::InputManager>::getSingleton
_TEXT	ENDS
PUBLIC	?getSingletonPtr@?$Singleton@VInputManager@Ogre@@@Ogre@@SAPAVInputManager@2@XZ ; Ogre::Singleton<Ogre::InputManager>::getSingletonPtr
; Function compile flags: /Odtp
;	COMDAT ?getSingletonPtr@?$Singleton@VInputManager@Ogre@@@Ogre@@SAPAVInputManager@2@XZ
_TEXT	SEGMENT
?getSingletonPtr@?$Singleton@VInputManager@Ogre@@@Ogre@@SAPAVInputManager@2@XZ PROC ; Ogre::Singleton<Ogre::InputManager>::getSingletonPtr, COMDAT

; 79   : 		{ return ms_Singleton; }

	push	ebp
	mov	ebp, esp
	mov	eax, DWORD PTR ?ms_Singleton@?$Singleton@VInputManager@Ogre@@@Ogre@@1PAVInputManager@2@A ; Ogre::Singleton<Ogre::InputManager>::ms_Singleton
	pop	ebp
	ret	0
?getSingletonPtr@?$Singleton@VInputManager@Ogre@@@Ogre@@SAPAVInputManager@2@XZ ENDP ; Ogre::Singleton<Ogre::InputManager>::getSingletonPtr
_TEXT	ENDS
PUBLIC	??1?$_Deque_val@UInputEvent@Ogre@@V?$allocator@UInputEvent@Ogre@@@std@@@std@@QAE@XZ ; std::_Deque_val<Ogre::InputEvent,std::allocator<Ogre::InputEvent> >::~_Deque_val<Ogre::InputEvent,std::allocator<Ogre::InputEvent> >
PUBLIC	??0?$_Deque_val@UInputEvent@Ogre@@V?$allocator@UInputEvent@Ogre@@@std@@@std@@IAE@V?$allocator@UInputEvent@Ogre@@@1@@Z ; std::_Deque_val<Ogre::InputEvent,std::allocator<Ogre::InputEvent> >::_Deque_val<Ogre::InputEvent,std::allocator<Ogre::InputEvent> >
PUBLIC	??0?$allocator@UInputEvent@Ogre@@@std@@QAE@XZ	; std::allocator<Ogre::InputEvent>::allocator<Ogre::InputEvent>
;	COMDAT xdata$x
; File d:\program files (x86)\microsoft visual studio 9.0\vc\include\deque
xdata$x	SEGMENT
__unwindtable$??0?$deque@UInputEvent@Ogre@@V?$allocator@UInputEvent@Ogre@@@std@@@std@@QAE@XZ DD 0ffffffffH
	DD	FLAT:__unwindfunclet$??0?$deque@UInputEvent@Ogre@@V?$allocator@UInputEvent@Ogre@@@std@@@std@@QAE@XZ$0
__ehfuncinfo$??0?$deque@UInputEvent@Ogre@@V?$allocator@UInputEvent@Ogre@@@std@@@std@@QAE@XZ DD 019930522H
	DD	01H
	DD	FLAT:__unwindtable$??0?$deque@UInputEvent@Ogre@@V?$allocator@UInputEvent@Ogre@@@std@@@std@@QAE@XZ
	DD	2 DUP(00H)
	DD	2 DUP(00H)
	DD	00H
	DD	00H
; Function compile flags: /Odtp
xdata$x	ENDS
;	COMDAT ??0?$deque@UInputEvent@Ogre@@V?$allocator@UInputEvent@Ogre@@@std@@@std@@QAE@XZ
_TEXT	SEGMENT
_this$ = -20						; size = 4
$T125501 = -16						; size = 4
__$EHRec$ = -12						; size = 12
??0?$deque@UInputEvent@Ogre@@V?$allocator@UInputEvent@Ogre@@@std@@@std@@QAE@XZ PROC ; std::deque<Ogre::InputEvent,std::allocator<Ogre::InputEvent> >::deque<Ogre::InputEvent,std::allocator<Ogre::InputEvent> >, COMDAT
; _this$ = ecx

; 554  : 		{	// construct empty deque

	push	ebp
	mov	ebp, esp
	push	-1
	push	__ehhandler$??0?$deque@UInputEvent@Ogre@@V?$allocator@UInputEvent@Ogre@@@std@@@std@@QAE@XZ
	mov	eax, DWORD PTR fs:0
	push	eax
	sub	esp, 8
	mov	eax, DWORD PTR ___security_cookie
	xor	eax, ebp
	push	eax
	lea	eax, DWORD PTR __$EHRec$[ebp]
	mov	DWORD PTR fs:0, eax
	mov	DWORD PTR _this$[ebp], ecx
	push	ecx
	mov	ecx, esp
	mov	DWORD PTR $T125501[ebp], esp
	call	??0?$allocator@UInputEvent@Ogre@@@std@@QAE@XZ ; std::allocator<Ogre::InputEvent>::allocator<Ogre::InputEvent>
	mov	ecx, DWORD PTR _this$[ebp]
	call	??0?$_Deque_val@UInputEvent@Ogre@@V?$allocator@UInputEvent@Ogre@@@std@@@std@@IAE@V?$allocator@UInputEvent@Ogre@@@1@@Z ; std::_Deque_val<Ogre::InputEvent,std::allocator<Ogre::InputEvent> >::_Deque_val<Ogre::InputEvent,std::allocator<Ogre::InputEvent> >
	mov	DWORD PTR __$EHRec$[ebp+8], 0
	mov	eax, DWORD PTR _this$[ebp]
	mov	DWORD PTR [eax+16], 0
	mov	ecx, DWORD PTR _this$[ebp]
	mov	DWORD PTR [ecx+20], 0
	mov	edx, DWORD PTR _this$[ebp]
	mov	DWORD PTR [edx+24], 0
	mov	eax, DWORD PTR _this$[ebp]
	mov	DWORD PTR [eax+28], 0

; 555  : 		}

	mov	DWORD PTR __$EHRec$[ebp+8], -1
	mov	eax, DWORD PTR _this$[ebp]
	mov	ecx, DWORD PTR __$EHRec$[ebp]
	mov	DWORD PTR fs:0, ecx
	pop	ecx
	mov	esp, ebp
	pop	ebp
	ret	0
_TEXT	ENDS
;	COMDAT text$x
text$x	SEGMENT
__unwindfunclet$??0?$deque@UInputEvent@Ogre@@V?$allocator@UInputEvent@Ogre@@@std@@@std@@QAE@XZ$0:
	mov	ecx, DWORD PTR _this$[ebp]
	jmp	??1?$_Deque_val@UInputEvent@Ogre@@V?$allocator@UInputEvent@Ogre@@@std@@@std@@QAE@XZ
__ehhandler$??0?$deque@UInputEvent@Ogre@@V?$allocator@UInputEvent@Ogre@@@std@@@std@@QAE@XZ:
	mov	edx, DWORD PTR [esp+8]
	lea	eax, DWORD PTR [edx+12]
	mov	ecx, DWORD PTR [edx-12]
	xor	ecx, eax
	call	@__security_check_cookie@4
	mov	eax, OFFSET __ehfuncinfo$??0?$deque@UInputEvent@Ogre@@V?$allocator@UInputEvent@Ogre@@@std@@@std@@QAE@XZ
	jmp	___CxxFrameHandler3
text$x	ENDS
??0?$deque@UInputEvent@Ogre@@V?$allocator@UInputEvent@Ogre@@@std@@@std@@QAE@XZ ENDP ; std::deque<Ogre::InputEvent,std::allocator<Ogre::InputEvent> >::deque<Ogre::InputEvent,std::allocator<Ogre::InputEvent> >
PUBLIC	?_Tidy@?$deque@UInputEvent@Ogre@@V?$allocator@UInputEvent@Ogre@@@std@@@std@@IAEXXZ ; std::deque<Ogre::InputEvent,std::allocator<Ogre::InputEvent> >::_Tidy
PUBLIC	??$insert@V?$_Deque_const_iterator@UInputEvent@Ogre@@V?$allocator@UInputEvent@Ogre@@@std@@$00@std@@@?$deque@UInputEvent@Ogre@@V?$allocator@UInputEvent@Ogre@@@std@@@std@@QAEXV?$_Deque_const_iterator@UInputEvent@Ogre@@V?$allocator@UInputEvent@Ogre@@@std@@$00@1@00@Z ; std::deque<Ogre::InputEvent,std::allocator<Ogre::InputEvent> >::insert<std::_Deque_const_iterator<Ogre::InputEvent,std::allocator<Ogre::InputEvent>,1> >
PUBLIC	?begin@?$deque@UInputEvent@Ogre@@V?$allocator@UInputEvent@Ogre@@@std@@@std@@QBE?AV?$_Deque_const_iterator@UInputEvent@Ogre@@V?$allocator@UInputEvent@Ogre@@@std@@$00@2@XZ ; std::deque<Ogre::InputEvent,std::allocator<Ogre::InputEvent> >::begin
PUBLIC	?end@?$deque@UInputEvent@Ogre@@V?$allocator@UInputEvent@Ogre@@@std@@@std@@QBE?AV?$_Deque_const_iterator@UInputEvent@Ogre@@V?$allocator@UInputEvent@Ogre@@@std@@$00@2@XZ ; std::deque<Ogre::InputEvent,std::allocator<Ogre::InputEvent> >::end
PUBLIC	?begin@?$deque@UInputEvent@Ogre@@V?$allocator@UInputEvent@Ogre@@@std@@@std@@QAE?AV?$_Deque_iterator@UInputEvent@Ogre@@V?$allocator@UInputEvent@Ogre@@@std@@$00@2@XZ ; std::deque<Ogre::InputEvent,std::allocator<Ogre::InputEvent> >::begin
PUBLIC	??0?$allocator@UInputEvent@Ogre@@@std@@QAE@ABV01@@Z ; std::allocator<Ogre::InputEvent>::allocator<Ogre::InputEvent>
EXTRN	__CxxThrowException@8:PROC
;	COMDAT xdata$x
xdata$x	SEGMENT
__catchsym$??0?$deque@UInputEvent@Ogre@@V?$allocator@UInputEvent@Ogre@@@std@@@std@@QAE@ABV01@@Z$3 DD 00H
	DD	00H
	DD	00H
	DD	FLAT:__catch$??0?$deque@UInputEvent@Ogre@@V?$allocator@UInputEvent@Ogre@@@std@@@std@@QAE@ABV01@@Z$0
__tryblocktable$??0?$deque@UInputEvent@Ogre@@V?$allocator@UInputEvent@Ogre@@@std@@@std@@QAE@ABV01@@Z DD 01H
	DD	01H
	DD	02H
	DD	01H
	DD	FLAT:__catchsym$??0?$deque@UInputEvent@Ogre@@V?$allocator@UInputEvent@Ogre@@@std@@@std@@QAE@ABV01@@Z$3
__unwindtable$??0?$deque@UInputEvent@Ogre@@V?$allocator@UInputEvent@Ogre@@@std@@@std@@QAE@ABV01@@Z DD 0ffffffffH
	DD	FLAT:__unwindfunclet$??0?$deque@UInputEvent@Ogre@@V?$allocator@UInputEvent@Ogre@@@std@@@std@@QAE@ABV01@@Z$2
	DD	00H
	DD	00H
	DD	00H
	DD	00H
__ehfuncinfo$??0?$deque@UInputEvent@Ogre@@V?$allocator@UInputEvent@Ogre@@@std@@@std@@QAE@ABV01@@Z DD 019930522H
	DD	03H
	DD	FLAT:__unwindtable$??0?$deque@UInputEvent@Ogre@@V?$allocator@UInputEvent@Ogre@@@std@@@std@@QAE@ABV01@@Z
	DD	01H
	DD	FLAT:__tryblocktable$??0?$deque@UInputEvent@Ogre@@V?$allocator@UInputEvent@Ogre@@@std@@@std@@QAE@ABV01@@Z
	DD	2 DUP(00H)
	DD	00H
	DD	00H
; Function compile flags: /Odtp
xdata$x	ENDS
;	COMDAT ??0?$deque@UInputEvent@Ogre@@V?$allocator@UInputEvent@Ogre@@@std@@@std@@QAE@ABV01@@Z
_TEXT	SEGMENT
_this$ = -56						; size = 4
$T125515 = -52						; size = 8
$T125514 = -44						; size = 8
$T125513 = -36						; size = 8
$T125512 = -28						; size = 8
$T125511 = -20						; size = 4
__$EHRec$ = -16						; size = 16
__Right$ = 8						; size = 4
??0?$deque@UInputEvent@Ogre@@V?$allocator@UInputEvent@Ogre@@@std@@@std@@QAE@ABV01@@Z PROC ; std::deque<Ogre::InputEvent,std::allocator<Ogre::InputEvent> >::deque<Ogre::InputEvent,std::allocator<Ogre::InputEvent> >, COMDAT
; _this$ = ecx

; 587  : 		{	// construct by copying _Right

	push	ebp
	mov	ebp, esp
	push	-1
	push	__ehhandler$??0?$deque@UInputEvent@Ogre@@V?$allocator@UInputEvent@Ogre@@@std@@@std@@QAE@ABV01@@Z
	mov	eax, DWORD PTR fs:0
	push	eax
	push	ecx
	sub	esp, 40					; 00000028H
	push	ebx
	push	esi
	push	edi
	mov	eax, DWORD PTR ___security_cookie
	xor	eax, ebp
	push	eax
	lea	eax, DWORD PTR __$EHRec$[ebp+4]
	mov	DWORD PTR fs:0, eax
	mov	DWORD PTR __$EHRec$[ebp], esp
	mov	DWORD PTR _this$[ebp], ecx
	mov	eax, DWORD PTR __Right$[ebp]
	add	eax, 12					; 0000000cH
	push	ecx
	mov	ecx, esp
	mov	DWORD PTR $T125511[ebp], esp
	push	eax
	call	??0?$allocator@UInputEvent@Ogre@@@std@@QAE@ABV01@@Z ; std::allocator<Ogre::InputEvent>::allocator<Ogre::InputEvent>
	mov	ecx, DWORD PTR _this$[ebp]
	call	??0?$_Deque_val@UInputEvent@Ogre@@V?$allocator@UInputEvent@Ogre@@@std@@@std@@IAE@V?$allocator@UInputEvent@Ogre@@@1@@Z ; std::_Deque_val<Ogre::InputEvent,std::allocator<Ogre::InputEvent> >::_Deque_val<Ogre::InputEvent,std::allocator<Ogre::InputEvent> >
	mov	DWORD PTR __$EHRec$[ebp+12], 0
	mov	ecx, DWORD PTR _this$[ebp]
	mov	DWORD PTR [ecx+16], 0
	mov	edx, DWORD PTR _this$[ebp]
	mov	DWORD PTR [edx+20], 0
	mov	eax, DWORD PTR _this$[ebp]
	mov	DWORD PTR [eax+24], 0
	mov	ecx, DWORD PTR _this$[ebp]
	mov	DWORD PTR [ecx+28], 0

; 588  : 		_TRY_BEGIN

	mov	BYTE PTR __$EHRec$[ebp+12], 1

; 589  : 		insert(begin(), _Right.begin(), _Right.end());

	lea	edx, DWORD PTR $T125515[ebp]
	push	edx
	mov	ecx, DWORD PTR _this$[ebp]
	call	?begin@?$deque@UInputEvent@Ogre@@V?$allocator@UInputEvent@Ogre@@@std@@@std@@QAE?AV?$_Deque_iterator@UInputEvent@Ogre@@V?$allocator@UInputEvent@Ogre@@@std@@$00@2@XZ ; std::deque<Ogre::InputEvent,std::allocator<Ogre::InputEvent> >::begin
	mov	ecx, DWORD PTR [eax]
	mov	edx, DWORD PTR [eax+4]
	mov	DWORD PTR $T125514[ebp], ecx
	mov	DWORD PTR $T125514[ebp+4], edx
	lea	eax, DWORD PTR $T125512[ebp]
	push	eax
	mov	ecx, DWORD PTR __Right$[ebp]
	call	?end@?$deque@UInputEvent@Ogre@@V?$allocator@UInputEvent@Ogre@@@std@@@std@@QBE?AV?$_Deque_const_iterator@UInputEvent@Ogre@@V?$allocator@UInputEvent@Ogre@@@std@@$00@2@XZ ; std::deque<Ogre::InputEvent,std::allocator<Ogre::InputEvent> >::end
	mov	ecx, DWORD PTR [eax+4]
	push	ecx
	mov	edx, DWORD PTR [eax]
	push	edx
	lea	eax, DWORD PTR $T125513[ebp]
	push	eax
	mov	ecx, DWORD PTR __Right$[ebp]
	call	?begin@?$deque@UInputEvent@Ogre@@V?$allocator@UInputEvent@Ogre@@@std@@@std@@QBE?AV?$_Deque_const_iterator@UInputEvent@Ogre@@V?$allocator@UInputEvent@Ogre@@@std@@$00@2@XZ ; std::deque<Ogre::InputEvent,std::allocator<Ogre::InputEvent> >::begin
	mov	ecx, DWORD PTR [eax+4]
	push	ecx
	mov	edx, DWORD PTR [eax]
	push	edx
	mov	eax, DWORD PTR $T125514[ebp+4]
	push	eax
	mov	ecx, DWORD PTR $T125514[ebp]
	push	ecx
	mov	ecx, DWORD PTR _this$[ebp]
	call	??$insert@V?$_Deque_const_iterator@UInputEvent@Ogre@@V?$allocator@UInputEvent@Ogre@@@std@@$00@std@@@?$deque@UInputEvent@Ogre@@V?$allocator@UInputEvent@Ogre@@@std@@@std@@QAEXV?$_Deque_const_iterator@UInputEvent@Ogre@@V?$allocator@UInputEvent@Ogre@@@std@@$00@1@00@Z ; std::deque<Ogre::InputEvent,std::allocator<Ogre::InputEvent> >::insert<std::_Deque_const_iterator<Ogre::InputEvent,std::allocator<Ogre::InputEvent>,1> >
	jmp	SHORT $LN4@deque
__catch$??0?$deque@UInputEvent@Ogre@@V?$allocator@UInputEvent@Ogre@@@std@@@std@@QAE@ABV01@@Z$0:

; 590  : 		_CATCH_ALL
; 591  : 		_Tidy();

	mov	ecx, DWORD PTR _this$[ebp]
	call	?_Tidy@?$deque@UInputEvent@Ogre@@V?$allocator@UInputEvent@Ogre@@@std@@@std@@IAEXXZ ; std::deque<Ogre::InputEvent,std::allocator<Ogre::InputEvent> >::_Tidy

; 592  : 		_RERAISE;

	push	0
	push	0
	call	__CxxThrowException@8

; 593  : 		_CATCH_END

	mov	DWORD PTR __$EHRec$[ebp+12], 0
	mov	eax, $LN2@deque
	ret	0
$LN4@deque:
	mov	DWORD PTR __$EHRec$[ebp+12], 0
$LN2@deque:

; 594  : 		}

	mov	DWORD PTR __$EHRec$[ebp+12], -1
	mov	eax, DWORD PTR _this$[ebp]
$LN3@deque:
	mov	ecx, DWORD PTR __$EHRec$[ebp+4]
	mov	DWORD PTR fs:0, ecx
	pop	ecx
	pop	edi
	pop	esi
	pop	ebx
	mov	esp, ebp
	pop	ebp
	ret	4
_TEXT	ENDS
;	COMDAT text$x
text$x	SEGMENT
__unwindfunclet$??0?$deque@UInputEvent@Ogre@@V?$allocator@UInputEvent@Ogre@@@std@@@std@@QAE@ABV01@@Z$2:
	mov	ecx, DWORD PTR _this$[ebp]
	jmp	??1?$_Deque_val@UInputEvent@Ogre@@V?$allocator@UInputEvent@Ogre@@@std@@@std@@QAE@XZ
__ehhandler$??0?$deque@UInputEvent@Ogre@@V?$allocator@UInputEvent@Ogre@@@std@@@std@@QAE@ABV01@@Z:
	mov	edx, DWORD PTR [esp+8]
	lea	eax, DWORD PTR [edx+12]
	mov	ecx, DWORD PTR [edx-60]
	xor	ecx, eax
	call	@__security_check_cookie@4
	mov	eax, OFFSET __ehfuncinfo$??0?$deque@UInputEvent@Ogre@@V?$allocator@UInputEvent@Ogre@@@std@@@std@@QAE@ABV01@@Z
	jmp	___CxxFrameHandler3
text$x	ENDS
??0?$deque@UInputEvent@Ogre@@V?$allocator@UInputEvent@Ogre@@@std@@@std@@QAE@ABV01@@Z ENDP ; std::deque<Ogre::InputEvent,std::allocator<Ogre::InputEvent> >::deque<Ogre::InputEvent,std::allocator<Ogre::InputEvent> >
;	COMDAT xdata$x
xdata$x	SEGMENT
__unwindtable$??1?$deque@UInputEvent@Ogre@@V?$allocator@UInputEvent@Ogre@@@std@@@std@@QAE@XZ DD 0ffffffffH
	DD	FLAT:__unwindfunclet$??1?$deque@UInputEvent@Ogre@@V?$allocator@UInputEvent@Ogre@@@std@@@std@@QAE@XZ$0
__ehfuncinfo$??1?$deque@UInputEvent@Ogre@@V?$allocator@UInputEvent@Ogre@@@std@@@std@@QAE@XZ DD 019930522H
	DD	01H
	DD	FLAT:__unwindtable$??1?$deque@UInputEvent@Ogre@@V?$allocator@UInputEvent@Ogre@@@std@@@std@@QAE@XZ
	DD	2 DUP(00H)
	DD	2 DUP(00H)
	DD	00H
	DD	00H
; Function compile flags: /Odtp
xdata$x	ENDS
;	COMDAT ??1?$deque@UInputEvent@Ogre@@V?$allocator@UInputEvent@Ogre@@@std@@@std@@QAE@XZ
_TEXT	SEGMENT
_this$ = -16						; size = 4
__$EHRec$ = -12						; size = 12
??1?$deque@UInputEvent@Ogre@@V?$allocator@UInputEvent@Ogre@@@std@@@std@@QAE@XZ PROC ; std::deque<Ogre::InputEvent,std::allocator<Ogre::InputEvent> >::~deque<Ogre::InputEvent,std::allocator<Ogre::InputEvent> >, COMDAT
; _this$ = ecx

; 640  : 		{	// destroy the deque

	push	ebp
	mov	ebp, esp
	push	-1
	push	__ehhandler$??1?$deque@UInputEvent@Ogre@@V?$allocator@UInputEvent@Ogre@@@std@@@std@@QAE@XZ
	mov	eax, DWORD PTR fs:0
	push	eax
	push	ecx
	mov	eax, DWORD PTR ___security_cookie
	xor	eax, ebp
	push	eax
	lea	eax, DWORD PTR __$EHRec$[ebp]
	mov	DWORD PTR fs:0, eax
	mov	DWORD PTR _this$[ebp], ecx
	mov	DWORD PTR __$EHRec$[ebp+8], 0

; 641  : 		_Tidy();

	mov	ecx, DWORD PTR _this$[ebp]
	call	?_Tidy@?$deque@UInputEvent@Ogre@@V?$allocator@UInputEvent@Ogre@@@std@@@std@@IAEXXZ ; std::deque<Ogre::InputEvent,std::allocator<Ogre::InputEvent> >::_Tidy

; 642  : 		}

	mov	DWORD PTR __$EHRec$[ebp+8], -1
	mov	ecx, DWORD PTR _this$[ebp]
	call	??1?$_Deque_val@UInputEvent@Ogre@@V?$allocator@UInputEvent@Ogre@@@std@@@std@@QAE@XZ
	mov	ecx, DWORD PTR __$EHRec$[ebp]
	mov	DWORD PTR fs:0, ecx
	pop	ecx
	mov	esp, ebp
	pop	ebp
	ret	0
_TEXT	ENDS
;	COMDAT text$x
text$x	SEGMENT
__unwindfunclet$??1?$deque@UInputEvent@Ogre@@V?$allocator@UInputEvent@Ogre@@@std@@@std@@QAE@XZ$0:
	mov	ecx, DWORD PTR _this$[ebp]
	jmp	??1?$_Deque_val@UInputEvent@Ogre@@V?$allocator@UInputEvent@Ogre@@@std@@@std@@QAE@XZ
__ehhandler$??1?$deque@UInputEvent@Ogre@@V?$allocator@UInputEvent@Ogre@@@std@@@std@@QAE@XZ:
	mov	edx, DWORD PTR [esp+8]
	lea	eax, DWORD PTR [edx+12]
	mov	ecx, DWORD PTR [edx-8]
	xor	ecx, eax
	call	@__security_check_cookie@4
	mov	eax, OFFSET __ehfuncinfo$??1?$deque@UInputEvent@Ogre@@V?$allocator@UInputEvent@Ogre@@@std@@@std@@QAE@XZ
	jmp	___CxxFrameHandler3
text$x	ENDS
??1?$deque@UInputEvent@Ogre@@V?$allocator@UInputEvent@Ogre@@@std@@@std@@QAE@XZ ENDP ; std::deque<Ogre::InputEvent,std::allocator<Ogre::InputEvent> >::~deque<Ogre::InputEvent,std::allocator<Ogre::InputEvent> >
PUBLIC	??H?$_Deque_const_iterator@UInputEvent@Ogre@@V?$allocator@UInputEvent@Ogre@@@std@@$00@std@@QBE?AV01@H@Z ; std::_Deque_const_iterator<Ogre::InputEvent,std::allocator<Ogre::InputEvent>,1>::operator+
PUBLIC	?erase@?$deque@UInputEvent@Ogre@@V?$allocator@UInputEvent@Ogre@@@std@@@std@@QAE?AV?$_Deque_iterator@UInputEvent@Ogre@@V?$allocator@UInputEvent@Ogre@@@std@@$00@2@V?$_Deque_const_iterator@UInputEvent@Ogre@@V?$allocator@UInputEvent@Ogre@@@std@@$00@2@0@Z ; std::deque<Ogre::InputEvent,std::allocator<Ogre::InputEvent> >::erase
PUBLIC	?end@?$deque@UInputEvent@Ogre@@V?$allocator@UInputEvent@Ogre@@@std@@@std@@QAE?AV?$_Deque_iterator@UInputEvent@Ogre@@V?$allocator@UInputEvent@Ogre@@@std@@$00@2@XZ ; std::deque<Ogre::InputEvent,std::allocator<Ogre::InputEvent> >::end
PUBLIC	??$copy@V?$_Deque_const_iterator@UInputEvent@Ogre@@V?$allocator@UInputEvent@Ogre@@@std@@$00@std@@V?$_Deque_iterator@UInputEvent@Ogre@@V?$allocator@UInputEvent@Ogre@@@std@@$00@2@@std@@YA?AV?$_Deque_iterator@UInputEvent@Ogre@@V?$allocator@UInputEvent@Ogre@@@std@@$00@0@V?$_Deque_const_iterator@UInputEvent@Ogre@@V?$allocator@UInputEvent@Ogre@@@std@@$00@0@0V10@@Z ; std::copy<std::_Deque_const_iterator<Ogre::InputEvent,std::allocator<Ogre::InputEvent>,1>,std::_Deque_iterator<Ogre::InputEvent,std::allocator<Ogre::InputEvent>,1> >
PUBLIC	?clear@?$deque@UInputEvent@Ogre@@V?$allocator@UInputEvent@Ogre@@@std@@@std@@QAEXXZ ; std::deque<Ogre::InputEvent,std::allocator<Ogre::InputEvent> >::clear
; Function compile flags: /Odtp
;	COMDAT ??4?$deque@UInputEvent@Ogre@@V?$allocator@UInputEvent@Ogre@@@std@@@std@@QAEAAV01@ABV01@@Z
_TEXT	SEGMENT
_this$ = -132						; size = 4
$T125555 = -128						; size = 8
$T125554 = -120						; size = 8
$T125553 = -112						; size = 8
$T125552 = -104						; size = 8
$T125551 = -96						; size = 8
$T125550 = -88						; size = 8
$T125549 = -80						; size = 8
$T125548 = -72						; size = 8
$T125547 = -64						; size = 8
$T125546 = -56						; size = 8
$T125545 = -48						; size = 8
$T125544 = -40						; size = 8
$T125543 = -32						; size = 8
$T125542 = -24						; size = 8
__Mid$119401 = -16					; size = 8
__Mid$119341 = -8					; size = 8
__Right$ = 8						; size = 4
??4?$deque@UInputEvent@Ogre@@V?$allocator@UInputEvent@Ogre@@@std@@@std@@QAEAAV01@ABV01@@Z PROC ; std::deque<Ogre::InputEvent,std::allocator<Ogre::InputEvent> >::operator=, COMDAT
; _this$ = ecx

; 645  : 		{	// assign _Right

	push	ebp
	mov	ebp, esp
	sub	esp, 132				; 00000084H
	mov	DWORD PTR _this$[ebp], ecx

; 646  : 		if (this == &_Right)

	mov	eax, DWORD PTR _this$[ebp]
	cmp	eax, DWORD PTR __Right$[ebp]
	jne	SHORT $LN6@operator
	jmp	$LN5@operator
$LN6@operator:

; 647  : 			;
; 648  : 		else if (_Right._Mysize == 0)

	mov	ecx, DWORD PTR __Right$[ebp]
	cmp	DWORD PTR [ecx+28], 0
	jne	SHORT $LN4@operator

; 649  : 			clear();

	mov	ecx, DWORD PTR _this$[ebp]
	call	?clear@?$deque@UInputEvent@Ogre@@V?$allocator@UInputEvent@Ogre@@@std@@@std@@QAEXXZ ; std::deque<Ogre::InputEvent,std::allocator<Ogre::InputEvent> >::clear
	jmp	$LN5@operator
$LN4@operator:

; 650  : 		else if (_Right._Mysize <= _Mysize)

	mov	edx, DWORD PTR __Right$[ebp]
	mov	eax, DWORD PTR _this$[ebp]
	mov	ecx, DWORD PTR [edx+28]
	cmp	ecx, DWORD PTR [eax+28]
	ja	$LN2@operator

; 651  : 			{	// new sequence not longer, assign elements and erase unused
; 652  : 			iterator _Mid = std::copy(_Right.begin(), _Right.end(), begin());

	lea	edx, DWORD PTR $T125542[ebp]
	push	edx
	mov	ecx, DWORD PTR _this$[ebp]
	call	?begin@?$deque@UInputEvent@Ogre@@V?$allocator@UInputEvent@Ogre@@@std@@@std@@QAE?AV?$_Deque_iterator@UInputEvent@Ogre@@V?$allocator@UInputEvent@Ogre@@@std@@$00@2@XZ ; std::deque<Ogre::InputEvent,std::allocator<Ogre::InputEvent> >::begin
	mov	ecx, DWORD PTR [eax+4]
	push	ecx
	mov	edx, DWORD PTR [eax]
	push	edx
	lea	eax, DWORD PTR $T125543[ebp]
	push	eax
	mov	ecx, DWORD PTR __Right$[ebp]
	call	?end@?$deque@UInputEvent@Ogre@@V?$allocator@UInputEvent@Ogre@@@std@@@std@@QBE?AV?$_Deque_const_iterator@UInputEvent@Ogre@@V?$allocator@UInputEvent@Ogre@@@std@@$00@2@XZ ; std::deque<Ogre::InputEvent,std::allocator<Ogre::InputEvent> >::end
	mov	ecx, DWORD PTR [eax+4]
	push	ecx
	mov	edx, DWORD PTR [eax]
	push	edx
	lea	eax, DWORD PTR $T125544[ebp]
	push	eax
	mov	ecx, DWORD PTR __Right$[ebp]
	call	?begin@?$deque@UInputEvent@Ogre@@V?$allocator@UInputEvent@Ogre@@@std@@@std@@QBE?AV?$_Deque_const_iterator@UInputEvent@Ogre@@V?$allocator@UInputEvent@Ogre@@@std@@$00@2@XZ ; std::deque<Ogre::InputEvent,std::allocator<Ogre::InputEvent> >::begin
	mov	ecx, DWORD PTR [eax+4]
	push	ecx
	mov	edx, DWORD PTR [eax]
	push	edx
	lea	eax, DWORD PTR __Mid$119341[ebp]
	push	eax
	call	??$copy@V?$_Deque_const_iterator@UInputEvent@Ogre@@V?$allocator@UInputEvent@Ogre@@@std@@$00@std@@V?$_Deque_iterator@UInputEvent@Ogre@@V?$allocator@UInputEvent@Ogre@@@std@@$00@2@@std@@YA?AV?$_Deque_iterator@UInputEvent@Ogre@@V?$allocator@UInputEvent@Ogre@@@std@@$00@0@V?$_Deque_const_iterator@UInputEvent@Ogre@@V?$allocator@UInputEvent@Ogre@@@std@@$00@0@0V10@@Z ; std::copy<std::_Deque_const_iterator<Ogre::InputEvent,std::allocator<Ogre::InputEvent>,1>,std::_Deque_iterator<Ogre::InputEvent,std::allocator<Ogre::InputEvent>,1> >
	add	esp, 28					; 0000001cH

; 653  : 			erase(_Mid, end());

	lea	ecx, DWORD PTR $T125546[ebp]
	push	ecx
	mov	ecx, DWORD PTR _this$[ebp]
	call	?end@?$deque@UInputEvent@Ogre@@V?$allocator@UInputEvent@Ogre@@@std@@@std@@QAE?AV?$_Deque_iterator@UInputEvent@Ogre@@V?$allocator@UInputEvent@Ogre@@@std@@$00@2@XZ ; std::deque<Ogre::InputEvent,std::allocator<Ogre::InputEvent> >::end
	mov	edx, DWORD PTR [eax]
	mov	eax, DWORD PTR [eax+4]
	mov	DWORD PTR $T125545[ebp], edx
	mov	DWORD PTR $T125545[ebp+4], eax
	mov	ecx, DWORD PTR __Mid$119341[ebp]
	mov	DWORD PTR $T125547[ebp], ecx
	mov	edx, DWORD PTR __Mid$119341[ebp+4]
	mov	DWORD PTR $T125547[ebp+4], edx
	mov	eax, DWORD PTR $T125545[ebp+4]
	push	eax
	mov	ecx, DWORD PTR $T125545[ebp]
	push	ecx
	mov	edx, DWORD PTR $T125547[ebp+4]
	push	edx
	mov	eax, DWORD PTR $T125547[ebp]
	push	eax
	lea	ecx, DWORD PTR $T125548[ebp]
	push	ecx
	mov	ecx, DWORD PTR _this$[ebp]
	call	?erase@?$deque@UInputEvent@Ogre@@V?$allocator@UInputEvent@Ogre@@@std@@@std@@QAE?AV?$_Deque_iterator@UInputEvent@Ogre@@V?$allocator@UInputEvent@Ogre@@@std@@$00@2@V?$_Deque_const_iterator@UInputEvent@Ogre@@V?$allocator@UInputEvent@Ogre@@@std@@$00@2@0@Z ; std::deque<Ogre::InputEvent,std::allocator<Ogre::InputEvent> >::erase

; 654  : 			}
; 655  : 		else

	jmp	$LN5@operator
$LN2@operator:

; 656  : 			{	// new sequence longer, assign elements and append rest
; 657  : 			const_iterator _Mid = _Right.begin() + _Mysize;

	mov	edx, DWORD PTR _this$[ebp]
	mov	eax, DWORD PTR [edx+28]
	push	eax
	lea	ecx, DWORD PTR __Mid$119401[ebp]
	push	ecx
	lea	edx, DWORD PTR $T125549[ebp]
	push	edx
	mov	ecx, DWORD PTR __Right$[ebp]
	call	?begin@?$deque@UInputEvent@Ogre@@V?$allocator@UInputEvent@Ogre@@@std@@@std@@QBE?AV?$_Deque_const_iterator@UInputEvent@Ogre@@V?$allocator@UInputEvent@Ogre@@@std@@$00@2@XZ ; std::deque<Ogre::InputEvent,std::allocator<Ogre::InputEvent> >::begin
	mov	ecx, eax
	call	??H?$_Deque_const_iterator@UInputEvent@Ogre@@V?$allocator@UInputEvent@Ogre@@@std@@$00@std@@QBE?AV01@H@Z ; std::_Deque_const_iterator<Ogre::InputEvent,std::allocator<Ogre::InputEvent>,1>::operator+

; 658  : 			std::copy(_Right.begin(), _Mid, begin());

	lea	eax, DWORD PTR $T125550[ebp]
	push	eax
	mov	ecx, DWORD PTR _this$[ebp]
	call	?begin@?$deque@UInputEvent@Ogre@@V?$allocator@UInputEvent@Ogre@@@std@@@std@@QAE?AV?$_Deque_iterator@UInputEvent@Ogre@@V?$allocator@UInputEvent@Ogre@@@std@@$00@2@XZ ; std::deque<Ogre::InputEvent,std::allocator<Ogre::InputEvent> >::begin
	mov	ecx, DWORD PTR [eax+4]
	push	ecx
	mov	edx, DWORD PTR [eax]
	push	edx
	mov	eax, DWORD PTR __Mid$119401[ebp+4]
	push	eax
	mov	ecx, DWORD PTR __Mid$119401[ebp]
	push	ecx
	lea	edx, DWORD PTR $T125551[ebp]
	push	edx
	mov	ecx, DWORD PTR __Right$[ebp]
	call	?begin@?$deque@UInputEvent@Ogre@@V?$allocator@UInputEvent@Ogre@@@std@@@std@@QBE?AV?$_Deque_const_iterator@UInputEvent@Ogre@@V?$allocator@UInputEvent@Ogre@@@std@@$00@2@XZ ; std::deque<Ogre::InputEvent,std::allocator<Ogre::InputEvent> >::begin
	mov	ecx, DWORD PTR [eax+4]
	push	ecx
	mov	edx, DWORD PTR [eax]
	push	edx
	lea	eax, DWORD PTR $T125552[ebp]
	push	eax
	call	??$copy@V?$_Deque_const_iterator@UInputEvent@Ogre@@V?$allocator@UInputEvent@Ogre@@@std@@$00@std@@V?$_Deque_iterator@UInputEvent@Ogre@@V?$allocator@UInputEvent@Ogre@@@std@@$00@2@@std@@YA?AV?$_Deque_iterator@UInputEvent@Ogre@@V?$allocator@UInputEvent@Ogre@@@std@@$00@0@V?$_Deque_const_iterator@UInputEvent@Ogre@@V?$allocator@UInputEvent@Ogre@@@std@@$00@0@0V10@@Z ; std::copy<std::_Deque_const_iterator<Ogre::InputEvent,std::allocator<Ogre::InputEvent>,1>,std::_Deque_iterator<Ogre::InputEvent,std::allocator<Ogre::InputEvent>,1> >
	add	esp, 28					; 0000001cH

; 659  : 			insert(end(), _Mid, _Right.end());

	lea	ecx, DWORD PTR $T125555[ebp]
	push	ecx
	mov	ecx, DWORD PTR _this$[ebp]
	call	?end@?$deque@UInputEvent@Ogre@@V?$allocator@UInputEvent@Ogre@@@std@@@std@@QAE?AV?$_Deque_iterator@UInputEvent@Ogre@@V?$allocator@UInputEvent@Ogre@@@std@@$00@2@XZ ; std::deque<Ogre::InputEvent,std::allocator<Ogre::InputEvent> >::end
	mov	edx, DWORD PTR [eax]
	mov	eax, DWORD PTR [eax+4]
	mov	DWORD PTR $T125554[ebp], edx
	mov	DWORD PTR $T125554[ebp+4], eax
	lea	ecx, DWORD PTR $T125553[ebp]
	push	ecx
	mov	ecx, DWORD PTR __Right$[ebp]
	call	?end@?$deque@UInputEvent@Ogre@@V?$allocator@UInputEvent@Ogre@@@std@@@std@@QBE?AV?$_Deque_const_iterator@UInputEvent@Ogre@@V?$allocator@UInputEvent@Ogre@@@std@@$00@2@XZ ; std::deque<Ogre::InputEvent,std::allocator<Ogre::InputEvent> >::end
	mov	edx, DWORD PTR [eax+4]
	push	edx
	mov	eax, DWORD PTR [eax]
	push	eax
	mov	ecx, DWORD PTR __Mid$119401[ebp+4]
	push	ecx
	mov	edx, DWORD PTR __Mid$119401[ebp]
	push	edx
	mov	eax, DWORD PTR $T125554[ebp+4]
	push	eax
	mov	ecx, DWORD PTR $T125554[ebp]
	push	ecx
	mov	ecx, DWORD PTR _this$[ebp]
	call	??$insert@V?$_Deque_const_iterator@UInputEvent@Ogre@@V?$allocator@UInputEvent@Ogre@@@std@@$00@std@@@?$deque@UInputEvent@Ogre@@V?$allocator@UInputEvent@Ogre@@@std@@@std@@QAEXV?$_Deque_const_iterator@UInputEvent@Ogre@@V?$allocator@UInputEvent@Ogre@@@std@@$00@1@00@Z ; std::deque<Ogre::InputEvent,std::allocator<Ogre::InputEvent> >::insert<std::_Deque_const_iterator<Ogre::InputEvent,std::allocator<Ogre::InputEvent>,1> >
$LN5@operator:

; 660  : 			}
; 661  : 		return (*this);

	mov	eax, DWORD PTR _this$[ebp]

; 662  : 		}

	mov	esp, ebp
	pop	ebp
	ret	4
??4?$deque@UInputEvent@Ogre@@V?$allocator@UInputEvent@Ogre@@@std@@@std@@QAEAAV01@ABV01@@Z ENDP ; std::deque<Ogre::InputEvent,std::allocator<Ogre::InputEvent> >::operator=
_TEXT	ENDS
PUBLIC	?construct@?$allocator@UInputEvent@Ogre@@@std@@QAEXPAUInputEvent@Ogre@@ABU34@@Z ; std::allocator<Ogre::InputEvent>::construct
PUBLIC	?allocate@?$allocator@UInputEvent@Ogre@@@std@@QAEPAUInputEvent@Ogre@@I@Z ; std::allocator<Ogre::InputEvent>::allocate
PUBLIC	?_Growmap@?$deque@UInputEvent@Ogre@@V?$allocator@UInputEvent@Ogre@@@std@@@std@@IAEXI@Z ; std::deque<Ogre::InputEvent,std::allocator<Ogre::InputEvent> >::_Growmap
; Function compile flags: /Odtp
;	COMDAT ?push_back@?$deque@UInputEvent@Ogre@@V?$allocator@UInputEvent@Ogre@@@std@@@std@@QAEXABUInputEvent@Ogre@@@Z
_TEXT	SEGMENT
_this$ = -12						; size = 4
__Block$ = -8						; size = 4
__Newoff$ = -4						; size = 4
__Val$ = 8						; size = 4
?push_back@?$deque@UInputEvent@Ogre@@V?$allocator@UInputEvent@Ogre@@@std@@@std@@QAEXABUInputEvent@Ogre@@@Z PROC ; std::deque<Ogre::InputEvent,std::allocator<Ogre::InputEvent> >::push_back, COMDAT
; _this$ = ecx

; 843  : 		{	// insert element at end

	push	ebp
	mov	ebp, esp
	sub	esp, 12					; 0000000cH
	push	esi
	mov	DWORD PTR _this$[ebp], ecx

; 844  : 
; 845  :  #if _HAS_ITERATOR_DEBUGGING
; 846  : 		this->_Orphan_all();
; 847  :  #endif /* _HAS_ITERATOR_DEBUGGING */
; 848  : 
; 849  : 		if ((_Myoff + _Mysize) % _DEQUESIZ == 0
; 850  : 			&& _Mapsize <= (_Mysize + _DEQUESIZ) / _DEQUESIZ)

	mov	eax, DWORD PTR _this$[ebp]
	mov	eax, DWORD PTR [eax+24]
	mov	ecx, DWORD PTR _this$[ebp]
	add	eax, DWORD PTR [ecx+28]
	xor	edx, edx
	mov	ecx, 1
	div	ecx
	test	edx, edx
	jne	SHORT $LN3@push_back
	mov	edx, DWORD PTR _this$[ebp]
	mov	eax, DWORD PTR [edx+28]
	add	eax, 1
	mov	ecx, DWORD PTR _this$[ebp]
	cmp	DWORD PTR [ecx+20], eax
	ja	SHORT $LN3@push_back

; 851  : 			_Growmap(1);

	push	1
	mov	ecx, DWORD PTR _this$[ebp]
	call	?_Growmap@?$deque@UInputEvent@Ogre@@V?$allocator@UInputEvent@Ogre@@@std@@@std@@IAEXI@Z ; std::deque<Ogre::InputEvent,std::allocator<Ogre::InputEvent> >::_Growmap
$LN3@push_back:

; 852  : 		size_type _Newoff = _Myoff + _Mysize;

	mov	edx, DWORD PTR _this$[ebp]
	mov	eax, DWORD PTR [edx+24]
	mov	ecx, DWORD PTR _this$[ebp]
	add	eax, DWORD PTR [ecx+28]
	mov	DWORD PTR __Newoff$[ebp], eax

; 853  : 		size_type _Block = _Newoff / _DEQUESIZ;

	mov	edx, DWORD PTR __Newoff$[ebp]
	mov	DWORD PTR __Block$[ebp], edx

; 854  : 		if (_Mapsize <= _Block)

	mov	eax, DWORD PTR _this$[ebp]
	mov	ecx, DWORD PTR [eax+20]
	cmp	ecx, DWORD PTR __Block$[ebp]
	ja	SHORT $LN2@push_back

; 855  : 			_Block -= _Mapsize;

	mov	edx, DWORD PTR _this$[ebp]
	mov	eax, DWORD PTR __Block$[ebp]
	sub	eax, DWORD PTR [edx+20]
	mov	DWORD PTR __Block$[ebp], eax
$LN2@push_back:

; 856  : 		if (_Map[_Block] == 0)

	mov	ecx, DWORD PTR _this$[ebp]
	mov	edx, DWORD PTR [ecx+16]
	mov	eax, DWORD PTR __Block$[ebp]
	cmp	DWORD PTR [edx+eax*4], 0
	jne	SHORT $LN1@push_back

; 857  : 			_Map[_Block] = this->_Alval.allocate(_DEQUESIZ);

	push	1
	mov	ecx, DWORD PTR _this$[ebp]
	add	ecx, 12					; 0000000cH
	call	?allocate@?$allocator@UInputEvent@Ogre@@@std@@QAEPAUInputEvent@Ogre@@I@Z ; std::allocator<Ogre::InputEvent>::allocate
	mov	ecx, DWORD PTR _this$[ebp]
	mov	edx, DWORD PTR [ecx+16]
	mov	ecx, DWORD PTR __Block$[ebp]
	mov	DWORD PTR [edx+ecx*4], eax
$LN1@push_back:

; 858  : 		this->_Alval.construct(_Map[_Block] + _Newoff % _DEQUESIZ, _Val);

	mov	edx, DWORD PTR __Val$[ebp]
	push	edx
	mov	eax, DWORD PTR _this$[ebp]
	mov	ecx, DWORD PTR [eax+16]
	mov	eax, DWORD PTR __Newoff$[ebp]
	xor	edx, edx
	mov	esi, 1
	div	esi
	shl	edx, 4
	mov	eax, DWORD PTR __Block$[ebp]
	add	edx, DWORD PTR [ecx+eax*4]
	push	edx
	mov	ecx, DWORD PTR _this$[ebp]
	add	ecx, 12					; 0000000cH
	call	?construct@?$allocator@UInputEvent@Ogre@@@std@@QAEXPAUInputEvent@Ogre@@ABU34@@Z ; std::allocator<Ogre::InputEvent>::construct

; 859  : 		++_Mysize;

	mov	ecx, DWORD PTR _this$[ebp]
	mov	edx, DWORD PTR [ecx+28]
	add	edx, 1
	mov	eax, DWORD PTR _this$[ebp]
	mov	DWORD PTR [eax+28], edx

; 860  : 		}

	pop	esi
	mov	esp, ebp
	pop	ebp
	ret	4
?push_back@?$deque@UInputEvent@Ogre@@V?$allocator@UInputEvent@Ogre@@@std@@@std@@QAEXABUInputEvent@Ogre@@@Z ENDP ; std::deque<Ogre::InputEvent,std::allocator<Ogre::InputEvent> >::push_back
_TEXT	ENDS
PUBLIC	??1?$_Vector_val@PAVInputHandler@Ogre@@V?$allocator@PAVInputHandler@Ogre@@@std@@@std@@QAE@XZ ; std::_Vector_val<Ogre::InputHandler *,std::allocator<Ogre::InputHandler *> >::~_Vector_val<Ogre::InputHandler *,std::allocator<Ogre::InputHandler *> >
PUBLIC	?_Buy@?$vector@PAVInputHandler@Ogre@@V?$allocator@PAVInputHandler@Ogre@@@std@@@std@@IAE_NI@Z ; std::vector<Ogre::InputHandler *,std::allocator<Ogre::InputHandler *> >::_Buy
PUBLIC	??0?$_Vector_val@PAVInputHandler@Ogre@@V?$allocator@PAVInputHandler@Ogre@@@std@@@std@@IAE@V?$allocator@PAVInputHandler@Ogre@@@1@@Z ; std::_Vector_val<Ogre::InputHandler *,std::allocator<Ogre::InputHandler *> >::_Vector_val<Ogre::InputHandler *,std::allocator<Ogre::InputHandler *> >
PUBLIC	??0?$allocator@PAVInputHandler@Ogre@@@std@@QAE@XZ ; std::allocator<Ogre::InputHandler *>::allocator<Ogre::InputHandler *>
;	COMDAT xdata$x
; File d:\program files (x86)\microsoft visual studio 9.0\vc\include\vector
xdata$x	SEGMENT
__unwindtable$??0?$vector@PAVInputHandler@Ogre@@V?$allocator@PAVInputHandler@Ogre@@@std@@@std@@QAE@XZ DD 0ffffffffH
	DD	FLAT:__unwindfunclet$??0?$vector@PAVInputHandler@Ogre@@V?$allocator@PAVInputHandler@Ogre@@@std@@@std@@QAE@XZ$0
__ehfuncinfo$??0?$vector@PAVInputHandler@Ogre@@V?$allocator@PAVInputHandler@Ogre@@@std@@@std@@QAE@XZ DD 019930522H
	DD	01H
	DD	FLAT:__unwindtable$??0?$vector@PAVInputHandler@Ogre@@V?$allocator@PAVInputHandler@Ogre@@@std@@@std@@QAE@XZ
	DD	2 DUP(00H)
	DD	2 DUP(00H)
	DD	00H
	DD	00H
; Function compile flags: /Odtp
xdata$x	ENDS
;	COMDAT ??0?$vector@PAVInputHandler@Ogre@@V?$allocator@PAVInputHandler@Ogre@@@std@@@std@@QAE@XZ
_TEXT	SEGMENT
_this$ = -20						; size = 4
$T125560 = -16						; size = 4
__$EHRec$ = -12						; size = 12
??0?$vector@PAVInputHandler@Ogre@@V?$allocator@PAVInputHandler@Ogre@@@std@@@std@@QAE@XZ PROC ; std::vector<Ogre::InputHandler *,std::allocator<Ogre::InputHandler *> >::vector<Ogre::InputHandler *,std::allocator<Ogre::InputHandler *> >, COMDAT
; _this$ = ecx

; 470  : 		{	// construct empty vector

	push	ebp
	mov	ebp, esp
	push	-1
	push	__ehhandler$??0?$vector@PAVInputHandler@Ogre@@V?$allocator@PAVInputHandler@Ogre@@@std@@@std@@QAE@XZ
	mov	eax, DWORD PTR fs:0
	push	eax
	sub	esp, 8
	mov	eax, DWORD PTR ___security_cookie
	xor	eax, ebp
	push	eax
	lea	eax, DWORD PTR __$EHRec$[ebp]
	mov	DWORD PTR fs:0, eax
	mov	DWORD PTR _this$[ebp], ecx
	push	ecx
	mov	ecx, esp
	mov	DWORD PTR $T125560[ebp], esp
	call	??0?$allocator@PAVInputHandler@Ogre@@@std@@QAE@XZ ; std::allocator<Ogre::InputHandler *>::allocator<Ogre::InputHandler *>
	mov	ecx, DWORD PTR _this$[ebp]
	call	??0?$_Vector_val@PAVInputHandler@Ogre@@V?$allocator@PAVInputHandler@Ogre@@@std@@@std@@IAE@V?$allocator@PAVInputHandler@Ogre@@@1@@Z ; std::_Vector_val<Ogre::InputHandler *,std::allocator<Ogre::InputHandler *> >::_Vector_val<Ogre::InputHandler *,std::allocator<Ogre::InputHandler *> >
	mov	DWORD PTR __$EHRec$[ebp+8], 0

; 471  : 		_Buy(0);

	push	0
	mov	ecx, DWORD PTR _this$[ebp]
	call	?_Buy@?$vector@PAVInputHandler@Ogre@@V?$allocator@PAVInputHandler@Ogre@@@std@@@std@@IAE_NI@Z ; std::vector<Ogre::InputHandler *,std::allocator<Ogre::InputHandler *> >::_Buy

; 472  : 		}

	mov	DWORD PTR __$EHRec$[ebp+8], -1
	mov	eax, DWORD PTR _this$[ebp]
	mov	ecx, DWORD PTR __$EHRec$[ebp]
	mov	DWORD PTR fs:0, ecx
	pop	ecx
	mov	esp, ebp
	pop	ebp
	ret	0
_TEXT	ENDS
;	COMDAT text$x
text$x	SEGMENT
__unwindfunclet$??0?$vector@PAVInputHandler@Ogre@@V?$allocator@PAVInputHandler@Ogre@@@std@@@std@@QAE@XZ$0:
	mov	ecx, DWORD PTR _this$[ebp]
	jmp	??1?$_Vector_val@PAVInputHandler@Ogre@@V?$allocator@PAVInputHandler@Ogre@@@std@@@std@@QAE@XZ
__ehhandler$??0?$vector@PAVInputHandler@Ogre@@V?$allocator@PAVInputHandler@Ogre@@@std@@@std@@QAE@XZ:
	mov	edx, DWORD PTR [esp+8]
	lea	eax, DWORD PTR [edx+12]
	mov	ecx, DWORD PTR [edx-12]
	xor	ecx, eax
	call	@__security_check_cookie@4
	mov	eax, OFFSET __ehfuncinfo$??0?$vector@PAVInputHandler@Ogre@@V?$allocator@PAVInputHandler@Ogre@@@std@@@std@@QAE@XZ
	jmp	___CxxFrameHandler3
text$x	ENDS
??0?$vector@PAVInputHandler@Ogre@@V?$allocator@PAVInputHandler@Ogre@@@std@@@std@@QAE@XZ ENDP ; std::vector<Ogre::InputHandler *,std::allocator<Ogre::InputHandler *> >::vector<Ogre::InputHandler *,std::allocator<Ogre::InputHandler *> >
PUBLIC	?_Tidy@?$vector@PAVInputHandler@Ogre@@V?$allocator@PAVInputHandler@Ogre@@@std@@@std@@IAEXXZ ; std::vector<Ogre::InputHandler *,std::allocator<Ogre::InputHandler *> >::_Tidy
PUBLIC	??$_Ucopy@V?$_Vector_const_iterator@PAVInputHandler@Ogre@@V?$allocator@PAVInputHandler@Ogre@@@std@@@std@@@?$vector@PAVInputHandler@Ogre@@V?$allocator@PAVInputHandler@Ogre@@@std@@@std@@IAEPAPAVInputHandler@Ogre@@V?$_Vector_const_iterator@PAVInputHandler@Ogre@@V?$allocator@PAVInputHandler@Ogre@@@std@@@1@0PAPAV23@@Z ; std::vector<Ogre::InputHandler *,std::allocator<Ogre::InputHandler *> >::_Ucopy<std::_Vector_const_iterator<Ogre::InputHandler *,std::allocator<Ogre::InputHandler *> > >
PUBLIC	?begin@?$vector@PAVInputHandler@Ogre@@V?$allocator@PAVInputHandler@Ogre@@@std@@@std@@QBE?AV?$_Vector_const_iterator@PAVInputHandler@Ogre@@V?$allocator@PAVInputHandler@Ogre@@@std@@@2@XZ ; std::vector<Ogre::InputHandler *,std::allocator<Ogre::InputHandler *> >::begin
PUBLIC	?end@?$vector@PAVInputHandler@Ogre@@V?$allocator@PAVInputHandler@Ogre@@@std@@@std@@QBE?AV?$_Vector_const_iterator@PAVInputHandler@Ogre@@V?$allocator@PAVInputHandler@Ogre@@@std@@@2@XZ ; std::vector<Ogre::InputHandler *,std::allocator<Ogre::InputHandler *> >::end
PUBLIC	??0?$allocator@PAVInputHandler@Ogre@@@std@@QAE@ABV01@@Z ; std::allocator<Ogre::InputHandler *>::allocator<Ogre::InputHandler *>
;	COMDAT xdata$x
xdata$x	SEGMENT
__catchsym$??0?$vector@PAVInputHandler@Ogre@@V?$allocator@PAVInputHandler@Ogre@@@std@@@std@@QAE@ABV01@@Z$3 DD 00H
	DD	00H
	DD	00H
	DD	FLAT:__catch$??0?$vector@PAVInputHandler@Ogre@@V?$allocator@PAVInputHandler@Ogre@@@std@@@std@@QAE@ABV01@@Z$0
__tryblocktable$??0?$vector@PAVInputHandler@Ogre@@V?$allocator@PAVInputHandler@Ogre@@@std@@@std@@QAE@ABV01@@Z DD 01H
	DD	01H
	DD	02H
	DD	01H
	DD	FLAT:__catchsym$??0?$vector@PAVInputHandler@Ogre@@V?$allocator@PAVInputHandler@Ogre@@@std@@@std@@QAE@ABV01@@Z$3
__unwindtable$??0?$vector@PAVInputHandler@Ogre@@V?$allocator@PAVInputHandler@Ogre@@@std@@@std@@QAE@ABV01@@Z DD 0ffffffffH
	DD	FLAT:__unwindfunclet$??0?$vector@PAVInputHandler@Ogre@@V?$allocator@PAVInputHandler@Ogre@@@std@@@std@@QAE@ABV01@@Z$2
	DD	00H
	DD	00H
	DD	00H
	DD	00H
__ehfuncinfo$??0?$vector@PAVInputHandler@Ogre@@V?$allocator@PAVInputHandler@Ogre@@@std@@@std@@QAE@ABV01@@Z DD 019930522H
	DD	03H
	DD	FLAT:__unwindtable$??0?$vector@PAVInputHandler@Ogre@@V?$allocator@PAVInputHandler@Ogre@@@std@@@std@@QAE@ABV01@@Z
	DD	01H
	DD	FLAT:__tryblocktable$??0?$vector@PAVInputHandler@Ogre@@V?$allocator@PAVInputHandler@Ogre@@@std@@@std@@QAE@ABV01@@Z
	DD	2 DUP(00H)
	DD	00H
	DD	00H
; Function compile flags: /Odtp
xdata$x	ENDS
;	COMDAT ??0?$vector@PAVInputHandler@Ogre@@V?$allocator@PAVInputHandler@Ogre@@@std@@@std@@QAE@ABV01@@Z
_TEXT	SEGMENT
_this$ = -40						; size = 4
$T125572 = -36						; size = 8
$T125571 = -28						; size = 8
$T125570 = -20						; size = 4
__$EHRec$ = -16						; size = 16
__Right$ = 8						; size = 4
??0?$vector@PAVInputHandler@Ogre@@V?$allocator@PAVInputHandler@Ogre@@@std@@@std@@QAE@ABV01@@Z PROC ; std::vector<Ogre::InputHandler *,std::allocator<Ogre::InputHandler *> >::vector<Ogre::InputHandler *,std::allocator<Ogre::InputHandler *> >, COMDAT
; _this$ = ecx

; 500  : 		{	// construct by copying _Right

	push	ebp
	mov	ebp, esp
	push	-1
	push	__ehhandler$??0?$vector@PAVInputHandler@Ogre@@V?$allocator@PAVInputHandler@Ogre@@@std@@@std@@QAE@ABV01@@Z
	mov	eax, DWORD PTR fs:0
	push	eax
	push	ecx
	sub	esp, 24					; 00000018H
	push	ebx
	push	esi
	push	edi
	mov	eax, DWORD PTR ___security_cookie
	xor	eax, ebp
	push	eax
	lea	eax, DWORD PTR __$EHRec$[ebp+4]
	mov	DWORD PTR fs:0, eax
	mov	DWORD PTR __$EHRec$[ebp], esp
	mov	DWORD PTR _this$[ebp], ecx
	mov	eax, DWORD PTR __Right$[ebp]
	add	eax, 8
	push	ecx
	mov	ecx, esp
	mov	DWORD PTR $T125570[ebp], esp
	push	eax
	call	??0?$allocator@PAVInputHandler@Ogre@@@std@@QAE@ABV01@@Z ; std::allocator<Ogre::InputHandler *>::allocator<Ogre::InputHandler *>
	mov	ecx, DWORD PTR _this$[ebp]
	call	??0?$_Vector_val@PAVInputHandler@Ogre@@V?$allocator@PAVInputHandler@Ogre@@@std@@@std@@IAE@V?$allocator@PAVInputHandler@Ogre@@@1@@Z ; std::_Vector_val<Ogre::InputHandler *,std::allocator<Ogre::InputHandler *> >::_Vector_val<Ogre::InputHandler *,std::allocator<Ogre::InputHandler *> >
	mov	DWORD PTR __$EHRec$[ebp+12], 0

; 501  : 		if (_Buy(_Right.size()))

	mov	ecx, DWORD PTR __Right$[ebp]
	call	?size@?$vector@PAVInputHandler@Ogre@@V?$allocator@PAVInputHandler@Ogre@@@std@@@std@@QBEIXZ ; std::vector<Ogre::InputHandler *,std::allocator<Ogre::InputHandler *> >::size
	push	eax
	mov	ecx, DWORD PTR _this$[ebp]
	call	?_Buy@?$vector@PAVInputHandler@Ogre@@V?$allocator@PAVInputHandler@Ogre@@@std@@@std@@IAE_NI@Z ; std::vector<Ogre::InputHandler *,std::allocator<Ogre::InputHandler *> >::_Buy
	movzx	ecx, al
	test	ecx, ecx
	je	SHORT $LN3@vector

; 502  : 			_TRY_BEGIN

	mov	BYTE PTR __$EHRec$[ebp+12], 1

; 503  : 			_Mylast = _Ucopy(_Right.begin(), _Right.end(), _Myfirst);

	mov	edx, DWORD PTR _this$[ebp]
	mov	eax, DWORD PTR [edx+12]
	push	eax
	lea	ecx, DWORD PTR $T125571[ebp]
	push	ecx
	mov	ecx, DWORD PTR __Right$[ebp]
	call	?end@?$vector@PAVInputHandler@Ogre@@V?$allocator@PAVInputHandler@Ogre@@@std@@@std@@QBE?AV?$_Vector_const_iterator@PAVInputHandler@Ogre@@V?$allocator@PAVInputHandler@Ogre@@@std@@@2@XZ ; std::vector<Ogre::InputHandler *,std::allocator<Ogre::InputHandler *> >::end
	mov	edx, DWORD PTR [eax+4]
	push	edx
	mov	eax, DWORD PTR [eax]
	push	eax
	lea	ecx, DWORD PTR $T125572[ebp]
	push	ecx
	mov	ecx, DWORD PTR __Right$[ebp]
	call	?begin@?$vector@PAVInputHandler@Ogre@@V?$allocator@PAVInputHandler@Ogre@@@std@@@std@@QBE?AV?$_Vector_const_iterator@PAVInputHandler@Ogre@@V?$allocator@PAVInputHandler@Ogre@@@std@@@2@XZ ; std::vector<Ogre::InputHandler *,std::allocator<Ogre::InputHandler *> >::begin
	mov	edx, DWORD PTR [eax+4]
	push	edx
	mov	eax, DWORD PTR [eax]
	push	eax
	mov	ecx, DWORD PTR _this$[ebp]
	call	??$_Ucopy@V?$_Vector_const_iterator@PAVInputHandler@Ogre@@V?$allocator@PAVInputHandler@Ogre@@@std@@@std@@@?$vector@PAVInputHandler@Ogre@@V?$allocator@PAVInputHandler@Ogre@@@std@@@std@@IAEPAPAVInputHandler@Ogre@@V?$_Vector_const_iterator@PAVInputHandler@Ogre@@V?$allocator@PAVInputHandler@Ogre@@@std@@@1@0PAPAV23@@Z ; std::vector<Ogre::InputHandler *,std::allocator<Ogre::InputHandler *> >::_Ucopy<std::_Vector_const_iterator<Ogre::InputHandler *,std::allocator<Ogre::InputHandler *> > >
	mov	ecx, DWORD PTR _this$[ebp]
	mov	DWORD PTR [ecx+16], eax
	jmp	SHORT $LN5@vector
__catch$??0?$vector@PAVInputHandler@Ogre@@V?$allocator@PAVInputHandler@Ogre@@@std@@@std@@QAE@ABV01@@Z$0:

; 504  : 			_CATCH_ALL
; 505  : 			_Tidy();

	mov	ecx, DWORD PTR _this$[ebp]
	call	?_Tidy@?$vector@PAVInputHandler@Ogre@@V?$allocator@PAVInputHandler@Ogre@@@std@@@std@@IAEXXZ ; std::vector<Ogre::InputHandler *,std::allocator<Ogre::InputHandler *> >::_Tidy

; 506  : 			_RERAISE;

	push	0
	push	0
	call	__CxxThrowException@8

; 507  : 			_CATCH_END

	mov	DWORD PTR __$EHRec$[ebp+12], 0
	mov	eax, $LN3@vector
	ret	0
$LN5@vector:
	mov	DWORD PTR __$EHRec$[ebp+12], 0
$LN3@vector:

; 508  : 		}

	mov	DWORD PTR __$EHRec$[ebp+12], -1
	mov	eax, DWORD PTR _this$[ebp]
$LN4@vector:
	mov	ecx, DWORD PTR __$EHRec$[ebp+4]
	mov	DWORD PTR fs:0, ecx
	pop	ecx
	pop	edi
	pop	esi
	pop	ebx
	mov	esp, ebp
	pop	ebp
	ret	4
_TEXT	ENDS
;	COMDAT text$x
text$x	SEGMENT
__unwindfunclet$??0?$vector@PAVInputHandler@Ogre@@V?$allocator@PAVInputHandler@Ogre@@@std@@@std@@QAE@ABV01@@Z$2:
	mov	ecx, DWORD PTR _this$[ebp]
	jmp	??1?$_Vector_val@PAVInputHandler@Ogre@@V?$allocator@PAVInputHandler@Ogre@@@std@@@std@@QAE@XZ
__ehhandler$??0?$vector@PAVInputHandler@Ogre@@V?$allocator@PAVInputHandler@Ogre@@@std@@@std@@QAE@ABV01@@Z:
	mov	edx, DWORD PTR [esp+8]
	lea	eax, DWORD PTR [edx+12]
	mov	ecx, DWORD PTR [edx-44]
	xor	ecx, eax
	call	@__security_check_cookie@4
	mov	eax, OFFSET __ehfuncinfo$??0?$vector@PAVInputHandler@Ogre@@V?$allocator@PAVInputHandler@Ogre@@@std@@@std@@QAE@ABV01@@Z
	jmp	___CxxFrameHandler3
text$x	ENDS
??0?$vector@PAVInputHandler@Ogre@@V?$allocator@PAVInputHandler@Ogre@@@std@@@std@@QAE@ABV01@@Z ENDP ; std::vector<Ogre::InputHandler *,std::allocator<Ogre::InputHandler *> >::vector<Ogre::InputHandler *,std::allocator<Ogre::InputHandler *> >
;	COMDAT xdata$x
xdata$x	SEGMENT
__unwindtable$??1?$vector@PAVInputHandler@Ogre@@V?$allocator@PAVInputHandler@Ogre@@@std@@@std@@QAE@XZ DD 0ffffffffH
	DD	FLAT:__unwindfunclet$??1?$vector@PAVInputHandler@Ogre@@V?$allocator@PAVInputHandler@Ogre@@@std@@@std@@QAE@XZ$0
__ehfuncinfo$??1?$vector@PAVInputHandler@Ogre@@V?$allocator@PAVInputHandler@Ogre@@@std@@@std@@QAE@XZ DD 019930522H
	DD	01H
	DD	FLAT:__unwindtable$??1?$vector@PAVInputHandler@Ogre@@V?$allocator@PAVInputHandler@Ogre@@@std@@@std@@QAE@XZ
	DD	2 DUP(00H)
	DD	2 DUP(00H)
	DD	00H
	DD	00H
; Function compile flags: /Odtp
xdata$x	ENDS
;	COMDAT ??1?$vector@PAVInputHandler@Ogre@@V?$allocator@PAVInputHandler@Ogre@@@std@@@std@@QAE@XZ
_TEXT	SEGMENT
_this$ = -16						; size = 4
__$EHRec$ = -12						; size = 12
??1?$vector@PAVInputHandler@Ogre@@V?$allocator@PAVInputHandler@Ogre@@@std@@@std@@QAE@XZ PROC ; std::vector<Ogre::InputHandler *,std::allocator<Ogre::InputHandler *> >::~vector<Ogre::InputHandler *,std::allocator<Ogre::InputHandler *> >, COMDAT
; _this$ = ecx

; 558  : 		{	// destroy the object

	push	ebp
	mov	ebp, esp
	push	-1
	push	__ehhandler$??1?$vector@PAVInputHandler@Ogre@@V?$allocator@PAVInputHandler@Ogre@@@std@@@std@@QAE@XZ
	mov	eax, DWORD PTR fs:0
	push	eax
	push	ecx
	mov	eax, DWORD PTR ___security_cookie
	xor	eax, ebp
	push	eax
	lea	eax, DWORD PTR __$EHRec$[ebp]
	mov	DWORD PTR fs:0, eax
	mov	DWORD PTR _this$[ebp], ecx
	mov	DWORD PTR __$EHRec$[ebp+8], 0

; 559  : 		_Tidy();

	mov	ecx, DWORD PTR _this$[ebp]
	call	?_Tidy@?$vector@PAVInputHandler@Ogre@@V?$allocator@PAVInputHandler@Ogre@@@std@@@std@@IAEXXZ ; std::vector<Ogre::InputHandler *,std::allocator<Ogre::InputHandler *> >::_Tidy

; 560  : 		}

	mov	DWORD PTR __$EHRec$[ebp+8], -1
	mov	ecx, DWORD PTR _this$[ebp]
	call	??1?$_Vector_val@PAVInputHandler@Ogre@@V?$allocator@PAVInputHandler@Ogre@@@std@@@std@@QAE@XZ
	mov	ecx, DWORD PTR __$EHRec$[ebp]
	mov	DWORD PTR fs:0, ecx
	pop	ecx
	mov	esp, ebp
	pop	ebp
	ret	0
_TEXT	ENDS
;	COMDAT text$x
text$x	SEGMENT
__unwindfunclet$??1?$vector@PAVInputHandler@Ogre@@V?$allocator@PAVInputHandler@Ogre@@@std@@@std@@QAE@XZ$0:
	mov	ecx, DWORD PTR _this$[ebp]
	jmp	??1?$_Vector_val@PAVInputHandler@Ogre@@V?$allocator@PAVInputHandler@Ogre@@@std@@@std@@QAE@XZ
__ehhandler$??1?$vector@PAVInputHandler@Ogre@@V?$allocator@PAVInputHandler@Ogre@@@std@@@std@@QAE@XZ:
	mov	edx, DWORD PTR [esp+8]
	lea	eax, DWORD PTR [edx+12]
	mov	ecx, DWORD PTR [edx-8]
	xor	ecx, eax
	call	@__security_check_cookie@4
	mov	eax, OFFSET __ehfuncinfo$??1?$vector@PAVInputHandler@Ogre@@V?$allocator@PAVInputHandler@Ogre@@@std@@@std@@QAE@XZ
	jmp	___CxxFrameHandler3
text$x	ENDS
??1?$vector@PAVInputHandler@Ogre@@V?$allocator@PAVInputHandler@Ogre@@@std@@@std@@QAE@XZ ENDP ; std::vector<Ogre::InputHandler *,std::allocator<Ogre::InputHandler *> >::~vector<Ogre::InputHandler *,std::allocator<Ogre::InputHandler *> >
PUBLIC	?deallocate@?$allocator@PAVInputHandler@Ogre@@@std@@QAEXPAPAVInputHandler@Ogre@@I@Z ; std::allocator<Ogre::InputHandler *>::deallocate
PUBLIC	??$_Ucopy@PAPAVInputHandler@Ogre@@@?$vector@PAVInputHandler@Ogre@@V?$allocator@PAVInputHandler@Ogre@@@std@@@std@@IAEPAPAVInputHandler@Ogre@@PAPAV23@00@Z ; std::vector<Ogre::InputHandler *,std::allocator<Ogre::InputHandler *> >::_Ucopy<Ogre::InputHandler * *>
PUBLIC	?capacity@?$vector@PAVInputHandler@Ogre@@V?$allocator@PAVInputHandler@Ogre@@@std@@@std@@QBEIXZ ; std::vector<Ogre::InputHandler *,std::allocator<Ogre::InputHandler *> >::capacity
PUBLIC	?_Destroy@?$vector@PAVInputHandler@Ogre@@V?$allocator@PAVInputHandler@Ogre@@@std@@@std@@IAEXPAPAVInputHandler@Ogre@@0@Z ; std::vector<Ogre::InputHandler *,std::allocator<Ogre::InputHandler *> >::_Destroy
PUBLIC	??$unchecked_copy@PAPAVInputHandler@Ogre@@PAPAV12@@stdext@@YAPAPAVInputHandler@Ogre@@PAPAV12@00@Z ; stdext::unchecked_copy<Ogre::InputHandler * *,Ogre::InputHandler * *>
PUBLIC	?clear@?$vector@PAVInputHandler@Ogre@@V?$allocator@PAVInputHandler@Ogre@@@std@@@std@@QAEXXZ ; std::vector<Ogre::InputHandler *,std::allocator<Ogre::InputHandler *> >::clear
; Function compile flags: /Odtp
;	COMDAT ??4?$vector@PAVInputHandler@Ogre@@V?$allocator@PAVInputHandler@Ogre@@@std@@@std@@QAEAAV01@ABV01@@Z
_TEXT	SEGMENT
_this$ = -12						; size = 4
__Ptr$119591 = -8					; size = 4
__Ptr$119581 = -4					; size = 4
__Right$ = 8						; size = 4
??4?$vector@PAVInputHandler@Ogre@@V?$allocator@PAVInputHandler@Ogre@@@std@@@std@@QAEAAV01@ABV01@@Z PROC ; std::vector<Ogre::InputHandler *,std::allocator<Ogre::InputHandler *> >::operator=, COMDAT
; _this$ = ecx

; 563  : 		{	// assign _Right

	push	ebp
	mov	ebp, esp
	sub	esp, 12					; 0000000cH
	push	esi
	mov	DWORD PTR _this$[ebp], ecx

; 564  : 		if (this != &_Right)

	mov	eax, DWORD PTR _this$[ebp]
	cmp	eax, DWORD PTR __Right$[ebp]
	je	$LN9@operator@2

; 565  : 			{	// worth doing
; 566  : 
; 567  :  #if _HAS_ITERATOR_DEBUGGING
; 568  : 			this->_Orphan_all();
; 569  :  #endif /* _HAS_ITERATOR_DEBUGGING */
; 570  : 
; 571  : 			if (_Right.size() == 0)

	mov	ecx, DWORD PTR __Right$[ebp]
	call	?size@?$vector@PAVInputHandler@Ogre@@V?$allocator@PAVInputHandler@Ogre@@@std@@@std@@QBEIXZ ; std::vector<Ogre::InputHandler *,std::allocator<Ogre::InputHandler *> >::size
	test	eax, eax
	jne	SHORT $LN8@operator@2

; 572  : 				clear();	// new sequence empty, erase existing sequence

	mov	ecx, DWORD PTR _this$[ebp]
	call	?clear@?$vector@PAVInputHandler@Ogre@@V?$allocator@PAVInputHandler@Ogre@@@std@@@std@@QAEXXZ ; std::vector<Ogre::InputHandler *,std::allocator<Ogre::InputHandler *> >::clear
	jmp	$LN9@operator@2
$LN8@operator@2:

; 573  : 			else if (_Right.size() <= size())

	mov	ecx, DWORD PTR __Right$[ebp]
	call	?size@?$vector@PAVInputHandler@Ogre@@V?$allocator@PAVInputHandler@Ogre@@@std@@@std@@QBEIXZ ; std::vector<Ogre::InputHandler *,std::allocator<Ogre::InputHandler *> >::size
	mov	esi, eax
	mov	ecx, DWORD PTR _this$[ebp]
	call	?size@?$vector@PAVInputHandler@Ogre@@V?$allocator@PAVInputHandler@Ogre@@@std@@@std@@QBEIXZ ; std::vector<Ogre::InputHandler *,std::allocator<Ogre::InputHandler *> >::size
	cmp	esi, eax
	ja	SHORT $LN6@operator@2

; 574  : 				{	// enough elements, copy new and destroy old
; 575  : 				pointer _Ptr = _STDEXT unchecked_copy(_Right._Myfirst, _Right._Mylast,
; 576  : 					_Myfirst);	// copy new

	mov	ecx, DWORD PTR _this$[ebp]
	mov	edx, DWORD PTR [ecx+12]
	push	edx
	mov	eax, DWORD PTR __Right$[ebp]
	mov	ecx, DWORD PTR [eax+16]
	push	ecx
	mov	edx, DWORD PTR __Right$[ebp]
	mov	eax, DWORD PTR [edx+12]
	push	eax
	call	??$unchecked_copy@PAPAVInputHandler@Ogre@@PAPAV12@@stdext@@YAPAPAVInputHandler@Ogre@@PAPAV12@00@Z ; stdext::unchecked_copy<Ogre::InputHandler * *,Ogre::InputHandler * *>
	add	esp, 12					; 0000000cH
	mov	DWORD PTR __Ptr$119581[ebp], eax

; 577  : 				_Destroy(_Ptr, _Mylast);	// destroy old

	mov	ecx, DWORD PTR _this$[ebp]
	mov	edx, DWORD PTR [ecx+16]
	push	edx
	mov	eax, DWORD PTR __Ptr$119581[ebp]
	push	eax
	mov	ecx, DWORD PTR _this$[ebp]
	call	?_Destroy@?$vector@PAVInputHandler@Ogre@@V?$allocator@PAVInputHandler@Ogre@@@std@@@std@@IAEXPAPAVInputHandler@Ogre@@0@Z ; std::vector<Ogre::InputHandler *,std::allocator<Ogre::InputHandler *> >::_Destroy

; 578  : 				_Mylast = _Myfirst + _Right.size();

	mov	ecx, DWORD PTR __Right$[ebp]
	call	?size@?$vector@PAVInputHandler@Ogre@@V?$allocator@PAVInputHandler@Ogre@@@std@@@std@@QBEIXZ ; std::vector<Ogre::InputHandler *,std::allocator<Ogre::InputHandler *> >::size
	mov	ecx, DWORD PTR _this$[ebp]
	mov	edx, DWORD PTR [ecx+12]
	lea	eax, DWORD PTR [edx+eax*4]
	mov	ecx, DWORD PTR _this$[ebp]
	mov	DWORD PTR [ecx+16], eax
	jmp	$LN9@operator@2
$LN6@operator@2:

; 579  : 				}
; 580  : 			else if (_Right.size() <= capacity())

	mov	ecx, DWORD PTR __Right$[ebp]
	call	?size@?$vector@PAVInputHandler@Ogre@@V?$allocator@PAVInputHandler@Ogre@@@std@@@std@@QBEIXZ ; std::vector<Ogre::InputHandler *,std::allocator<Ogre::InputHandler *> >::size
	mov	esi, eax
	mov	ecx, DWORD PTR _this$[ebp]
	call	?capacity@?$vector@PAVInputHandler@Ogre@@V?$allocator@PAVInputHandler@Ogre@@@std@@@std@@QBEIXZ ; std::vector<Ogre::InputHandler *,std::allocator<Ogre::InputHandler *> >::capacity
	cmp	esi, eax
	ja	SHORT $LN4@operator@2

; 581  : 				{	// enough room, copy and construct new
; 582  : 				pointer _Ptr = _Right._Myfirst + size();

	mov	ecx, DWORD PTR _this$[ebp]
	call	?size@?$vector@PAVInputHandler@Ogre@@V?$allocator@PAVInputHandler@Ogre@@@std@@@std@@QBEIXZ ; std::vector<Ogre::InputHandler *,std::allocator<Ogre::InputHandler *> >::size
	mov	edx, DWORD PTR __Right$[ebp]
	mov	ecx, DWORD PTR [edx+12]
	lea	edx, DWORD PTR [ecx+eax*4]
	mov	DWORD PTR __Ptr$119591[ebp], edx

; 583  : 				_STDEXT unchecked_copy(_Right._Myfirst, _Ptr, _Myfirst);

	mov	eax, DWORD PTR _this$[ebp]
	mov	ecx, DWORD PTR [eax+12]
	push	ecx
	mov	edx, DWORD PTR __Ptr$119591[ebp]
	push	edx
	mov	eax, DWORD PTR __Right$[ebp]
	mov	ecx, DWORD PTR [eax+12]
	push	ecx
	call	??$unchecked_copy@PAPAVInputHandler@Ogre@@PAPAV12@@stdext@@YAPAPAVInputHandler@Ogre@@PAPAV12@00@Z ; stdext::unchecked_copy<Ogre::InputHandler * *,Ogre::InputHandler * *>
	add	esp, 12					; 0000000cH

; 584  : 				_Mylast = _Ucopy(_Ptr, _Right._Mylast, _Mylast);

	mov	edx, DWORD PTR _this$[ebp]
	mov	eax, DWORD PTR [edx+16]
	push	eax
	mov	ecx, DWORD PTR __Right$[ebp]
	mov	edx, DWORD PTR [ecx+16]
	push	edx
	mov	eax, DWORD PTR __Ptr$119591[ebp]
	push	eax
	mov	ecx, DWORD PTR _this$[ebp]
	call	??$_Ucopy@PAPAVInputHandler@Ogre@@@?$vector@PAVInputHandler@Ogre@@V?$allocator@PAVInputHandler@Ogre@@@std@@@std@@IAEPAPAVInputHandler@Ogre@@PAPAV23@00@Z ; std::vector<Ogre::InputHandler *,std::allocator<Ogre::InputHandler *> >::_Ucopy<Ogre::InputHandler * *>
	mov	ecx, DWORD PTR _this$[ebp]
	mov	DWORD PTR [ecx+16], eax

; 585  : 				}
; 586  : 			else

	jmp	SHORT $LN9@operator@2
$LN4@operator@2:

; 587  : 				{	// not enough room, allocate new array and construct new
; 588  : 				if (_Myfirst != 0)

	mov	edx, DWORD PTR _this$[ebp]
	cmp	DWORD PTR [edx+12], 0
	je	SHORT $LN2@operator@2

; 589  : 					{	// discard old array
; 590  : 					_Destroy(_Myfirst, _Mylast);

	mov	eax, DWORD PTR _this$[ebp]
	mov	ecx, DWORD PTR [eax+16]
	push	ecx
	mov	edx, DWORD PTR _this$[ebp]
	mov	eax, DWORD PTR [edx+12]
	push	eax
	mov	ecx, DWORD PTR _this$[ebp]
	call	?_Destroy@?$vector@PAVInputHandler@Ogre@@V?$allocator@PAVInputHandler@Ogre@@@std@@@std@@IAEXPAPAVInputHandler@Ogre@@0@Z ; std::vector<Ogre::InputHandler *,std::allocator<Ogre::InputHandler *> >::_Destroy

; 591  : 					this->_Alval.deallocate(_Myfirst, _Myend - _Myfirst);

	mov	ecx, DWORD PTR _this$[ebp]
	mov	edx, DWORD PTR _this$[ebp]
	mov	eax, DWORD PTR [ecx+20]
	sub	eax, DWORD PTR [edx+12]
	sar	eax, 2
	push	eax
	mov	ecx, DWORD PTR _this$[ebp]
	mov	edx, DWORD PTR [ecx+12]
	push	edx
	mov	ecx, DWORD PTR _this$[ebp]
	add	ecx, 8
	call	?deallocate@?$allocator@PAVInputHandler@Ogre@@@std@@QAEXPAPAVInputHandler@Ogre@@I@Z ; std::allocator<Ogre::InputHandler *>::deallocate
$LN2@operator@2:

; 592  : 					}
; 593  : 				if (_Buy(_Right.size()))

	mov	ecx, DWORD PTR __Right$[ebp]
	call	?size@?$vector@PAVInputHandler@Ogre@@V?$allocator@PAVInputHandler@Ogre@@@std@@@std@@QBEIXZ ; std::vector<Ogre::InputHandler *,std::allocator<Ogre::InputHandler *> >::size
	push	eax
	mov	ecx, DWORD PTR _this$[ebp]
	call	?_Buy@?$vector@PAVInputHandler@Ogre@@V?$allocator@PAVInputHandler@Ogre@@@std@@@std@@IAE_NI@Z ; std::vector<Ogre::InputHandler *,std::allocator<Ogre::InputHandler *> >::_Buy
	movzx	eax, al
	test	eax, eax
	je	SHORT $LN9@operator@2

; 594  : 					_Mylast = _Ucopy(_Right._Myfirst, _Right._Mylast,
; 595  : 						_Myfirst);

	mov	ecx, DWORD PTR _this$[ebp]
	mov	edx, DWORD PTR [ecx+12]
	push	edx
	mov	eax, DWORD PTR __Right$[ebp]
	mov	ecx, DWORD PTR [eax+16]
	push	ecx
	mov	edx, DWORD PTR __Right$[ebp]
	mov	eax, DWORD PTR [edx+12]
	push	eax
	mov	ecx, DWORD PTR _this$[ebp]
	call	??$_Ucopy@PAPAVInputHandler@Ogre@@@?$vector@PAVInputHandler@Ogre@@V?$allocator@PAVInputHandler@Ogre@@@std@@@std@@IAEPAPAVInputHandler@Ogre@@PAPAV23@00@Z ; std::vector<Ogre::InputHandler *,std::allocator<Ogre::InputHandler *> >::_Ucopy<Ogre::InputHandler * *>
	mov	ecx, DWORD PTR _this$[ebp]
	mov	DWORD PTR [ecx+16], eax
$LN9@operator@2:

; 596  : 				}
; 597  : 			}
; 598  : 		return (*this);

	mov	eax, DWORD PTR _this$[ebp]

; 599  : 		}

	pop	esi
	mov	esp, ebp
	pop	ebp
	ret	4
??4?$vector@PAVInputHandler@Ogre@@V?$allocator@PAVInputHandler@Ogre@@@std@@@std@@QAEAAV01@ABV01@@Z ENDP ; std::vector<Ogre::InputHandler *,std::allocator<Ogre::InputHandler *> >::operator=
; Function compile flags: /Odtp
_TEXT	ENDS
;	COMDAT ?size@?$vector@PAVInputHandler@Ogre@@V?$allocator@PAVInputHandler@Ogre@@@std@@@std@@QBEIXZ
_TEXT	SEGMENT
_this$ = -4						; size = 4
?size@?$vector@PAVInputHandler@Ogre@@V?$allocator@PAVInputHandler@Ogre@@@std@@@std@@QBEIXZ PROC ; std::vector<Ogre::InputHandler *,std::allocator<Ogre::InputHandler *> >::size, COMDAT
; _this$ = ecx

; 725  : 		{	// return length of sequence

	push	ebp
	mov	ebp, esp
	push	ecx
	mov	DWORD PTR _this$[ebp], ecx

; 726  : 		return (_Mylast - _Myfirst);

	mov	eax, DWORD PTR _this$[ebp]
	mov	ecx, DWORD PTR _this$[ebp]
	mov	eax, DWORD PTR [eax+16]
	sub	eax, DWORD PTR [ecx+12]
	sar	eax, 2

; 727  : 		}

	mov	esp, ebp
	pop	ebp
	ret	0
?size@?$vector@PAVInputHandler@Ogre@@V?$allocator@PAVInputHandler@Ogre@@@std@@@std@@QBEIXZ ENDP ; std::vector<Ogre::InputHandler *,std::allocator<Ogre::InputHandler *> >::size
_TEXT	ENDS
EXTRN	__imp___invalid_parameter_noinfo:PROC
; Function compile flags: /Odtp
;	COMDAT ??A?$vector@PAVInputHandler@Ogre@@V?$allocator@PAVInputHandler@Ogre@@@std@@@std@@QAEAAPAVInputHandler@Ogre@@I@Z
_TEXT	SEGMENT
_this$ = -4						; size = 4
__Pos$ = 8						; size = 4
??A?$vector@PAVInputHandler@Ogre@@V?$allocator@PAVInputHandler@Ogre@@@std@@@std@@QAEAAPAVInputHandler@Ogre@@I@Z PROC ; std::vector<Ogre::InputHandler *,std::allocator<Ogre::InputHandler *> >::operator[], COMDAT
; _this$ = ecx

; 774  : 		{	// subscript mutable sequence

	push	ebp
	mov	ebp, esp
	push	ecx
	mov	DWORD PTR _this$[ebp], ecx

; 775  : 
; 776  :  #if _HAS_ITERATOR_DEBUGGING
; 777  : 		if (size() <= _Pos)
; 778  : 			{
; 779  : 			_DEBUG_ERROR("vector subscript out of range");
; 780  : 			_SCL_SECURE_OUT_OF_RANGE;
; 781  : 			}
; 782  :  #endif /* _HAS_ITERATOR_DEBUGGING */
; 783  : 		_SCL_SECURE_VALIDATE_RANGE(_Pos < size());

	mov	ecx, DWORD PTR _this$[ebp]
	call	?size@?$vector@PAVInputHandler@Ogre@@V?$allocator@PAVInputHandler@Ogre@@@std@@@std@@QBEIXZ ; std::vector<Ogre::InputHandler *,std::allocator<Ogre::InputHandler *> >::size
	cmp	DWORD PTR __Pos$[ebp], eax
	jb	SHORT $LN2@operator@3
	call	DWORD PTR __imp___invalid_parameter_noinfo
$LN2@operator@3:
	xor	eax, eax
	jne	SHORT $LN2@operator@3

; 784  : 
; 785  : 		return (*(_Myfirst + _Pos));

	mov	ecx, DWORD PTR _this$[ebp]
	mov	edx, DWORD PTR [ecx+12]
	mov	eax, DWORD PTR __Pos$[ebp]
	lea	eax, DWORD PTR [edx+eax*4]

; 786  : 		}

	mov	esp, ebp
	pop	ebp
	ret	4
??A?$vector@PAVInputHandler@Ogre@@V?$allocator@PAVInputHandler@Ogre@@@std@@@std@@QAEAAPAVInputHandler@Ogre@@I@Z ENDP ; std::vector<Ogre::InputHandler *,std::allocator<Ogre::InputHandler *> >::operator[]
_TEXT	ENDS
PUBLIC	?insert@?$vector@PAVInputHandler@Ogre@@V?$allocator@PAVInputHandler@Ogre@@@std@@@std@@QAE?AV?$_Vector_iterator@PAVInputHandler@Ogre@@V?$allocator@PAVInputHandler@Ogre@@@std@@@2@V?$_Vector_const_iterator@PAVInputHandler@Ogre@@V?$allocator@PAVInputHandler@Ogre@@@std@@@2@ABQAVInputHandler@Ogre@@@Z ; std::vector<Ogre::InputHandler *,std::allocator<Ogre::InputHandler *> >::insert
PUBLIC	?end@?$vector@PAVInputHandler@Ogre@@V?$allocator@PAVInputHandler@Ogre@@@std@@@std@@QAE?AV?$_Vector_iterator@PAVInputHandler@Ogre@@V?$allocator@PAVInputHandler@Ogre@@@std@@@2@XZ ; std::vector<Ogre::InputHandler *,std::allocator<Ogre::InputHandler *> >::end
PUBLIC	?_Ufill@?$vector@PAVInputHandler@Ogre@@V?$allocator@PAVInputHandler@Ogre@@@std@@@std@@IAEPAPAVInputHandler@Ogre@@PAPAV34@IABQAV34@@Z ; std::vector<Ogre::InputHandler *,std::allocator<Ogre::InputHandler *> >::_Ufill
; Function compile flags: /Odtp
;	COMDAT ?push_back@?$vector@PAVInputHandler@Ogre@@V?$allocator@PAVInputHandler@Ogre@@@std@@@std@@QAEXABQAVInputHandler@Ogre@@@Z
_TEXT	SEGMENT
_this$ = -28						; size = 4
$T125606 = -24						; size = 8
$T125605 = -16						; size = 8
$T125604 = -8						; size = 8
__Val$ = 8						; size = 4
?push_back@?$vector@PAVInputHandler@Ogre@@V?$allocator@PAVInputHandler@Ogre@@@std@@@std@@QAEXABQAVInputHandler@Ogre@@@Z PROC ; std::vector<Ogre::InputHandler *,std::allocator<Ogre::InputHandler *> >::push_back, COMDAT
; _this$ = ecx

; 809  : 		{	// insert element at end

	push	ebp
	mov	ebp, esp
	sub	esp, 28					; 0000001cH
	push	esi
	mov	DWORD PTR _this$[ebp], ecx

; 810  : 		if (size() < capacity())

	mov	ecx, DWORD PTR _this$[ebp]
	call	?size@?$vector@PAVInputHandler@Ogre@@V?$allocator@PAVInputHandler@Ogre@@@std@@@std@@QBEIXZ ; std::vector<Ogre::InputHandler *,std::allocator<Ogre::InputHandler *> >::size
	mov	esi, eax
	mov	ecx, DWORD PTR _this$[ebp]
	call	?capacity@?$vector@PAVInputHandler@Ogre@@V?$allocator@PAVInputHandler@Ogre@@@std@@@std@@QBEIXZ ; std::vector<Ogre::InputHandler *,std::allocator<Ogre::InputHandler *> >::capacity
	cmp	esi, eax
	jae	SHORT $LN2@push_back@2

; 811  : 
; 812  :  #if _HAS_ITERATOR_DEBUGGING
; 813  : 			{ // room at end, construct it there
; 814  : 			_Orphan_range(_Mylast, _Mylast);
; 815  : 			_Mylast = _Ufill(_Mylast, 1, _Val);
; 816  : 			}
; 817  : 
; 818  :  #else /* _HAS_ITERATOR_DEBUGGING */
; 819  : 			_Mylast = _Ufill(_Mylast, 1, _Val);

	mov	eax, DWORD PTR __Val$[ebp]
	push	eax
	push	1
	mov	ecx, DWORD PTR _this$[ebp]
	mov	edx, DWORD PTR [ecx+16]
	push	edx
	mov	ecx, DWORD PTR _this$[ebp]
	call	?_Ufill@?$vector@PAVInputHandler@Ogre@@V?$allocator@PAVInputHandler@Ogre@@@std@@@std@@IAEPAPAVInputHandler@Ogre@@PAPAV34@IABQAV34@@Z ; std::vector<Ogre::InputHandler *,std::allocator<Ogre::InputHandler *> >::_Ufill
	mov	ecx, DWORD PTR _this$[ebp]
	mov	DWORD PTR [ecx+16], eax

; 820  :  #endif /* _HAS_ITERATOR_DEBUGGING */
; 821  : 
; 822  : 		else

	jmp	SHORT $LN3@push_back@2
$LN2@push_back@2:

; 823  : 			insert(end(), _Val);

	lea	edx, DWORD PTR $T125605[ebp]
	push	edx
	mov	ecx, DWORD PTR _this$[ebp]
	call	?end@?$vector@PAVInputHandler@Ogre@@V?$allocator@PAVInputHandler@Ogre@@@std@@@std@@QAE?AV?$_Vector_iterator@PAVInputHandler@Ogre@@V?$allocator@PAVInputHandler@Ogre@@@std@@@2@XZ ; std::vector<Ogre::InputHandler *,std::allocator<Ogre::InputHandler *> >::end
	mov	ecx, DWORD PTR [eax]
	mov	edx, DWORD PTR [eax+4]
	mov	DWORD PTR $T125604[ebp], ecx
	mov	DWORD PTR $T125604[ebp+4], edx
	mov	eax, DWORD PTR __Val$[ebp]
	push	eax
	mov	ecx, DWORD PTR $T125604[ebp+4]
	push	ecx
	mov	edx, DWORD PTR $T125604[ebp]
	push	edx
	lea	eax, DWORD PTR $T125606[ebp]
	push	eax
	mov	ecx, DWORD PTR _this$[ebp]
	call	?insert@?$vector@PAVInputHandler@Ogre@@V?$allocator@PAVInputHandler@Ogre@@@std@@@std@@QAE?AV?$_Vector_iterator@PAVInputHandler@Ogre@@V?$allocator@PAVInputHandler@Ogre@@@std@@@2@V?$_Vector_const_iterator@PAVInputHandler@Ogre@@V?$allocator@PAVInputHandler@Ogre@@@std@@@2@ABQAVInputHandler@Ogre@@@Z ; std::vector<Ogre::InputHandler *,std::allocator<Ogre::InputHandler *> >::insert
$LN3@push_back@2:

; 824  : 		}

	pop	esi
	mov	esp, ebp
	pop	ebp
	ret	4
?push_back@?$vector@PAVInputHandler@Ogre@@V?$allocator@PAVInputHandler@Ogre@@@std@@@std@@QAEXABQAVInputHandler@Ogre@@@Z ENDP ; std::vector<Ogre::InputHandler *,std::allocator<Ogre::InputHandler *> >::push_back
_TEXT	ENDS
PUBLIC	??1?$_Deque_map@UInputEvent@Ogre@@V?$allocator@UInputEvent@Ogre@@@std@@@std@@QAE@XZ ; std::_Deque_map<Ogre::InputEvent,std::allocator<Ogre::InputEvent> >::~_Deque_map<Ogre::InputEvent,std::allocator<Ogre::InputEvent> >
;	COMDAT xdata$x
xdata$x	SEGMENT
__unwindtable$??1?$_Deque_val@UInputEvent@Ogre@@V?$allocator@UInputEvent@Ogre@@@std@@@std@@QAE@XZ DD 0ffffffffH
	DD	FLAT:__unwindfunclet$??1?$_Deque_val@UInputEvent@Ogre@@V?$allocator@UInputEvent@Ogre@@@std@@@std@@QAE@XZ$0
__ehfuncinfo$??1?$_Deque_val@UInputEvent@Ogre@@V?$allocator@UInputEvent@Ogre@@@std@@@std@@QAE@XZ DD 019930522H
	DD	01H
	DD	FLAT:__unwindtable$??1?$_Deque_val@UInputEvent@Ogre@@V?$allocator@UInputEvent@Ogre@@@std@@@std@@QAE@XZ
	DD	2 DUP(00H)
	DD	2 DUP(00H)
	DD	00H
	DD	00H
; Function compile flags: /Odtp
xdata$x	ENDS
;	COMDAT ??1?$_Deque_val@UInputEvent@Ogre@@V?$allocator@UInputEvent@Ogre@@@std@@@std@@QAE@XZ
_TEXT	SEGMENT
_this$ = -16						; size = 4
__$EHRec$ = -12						; size = 12
??1?$_Deque_val@UInputEvent@Ogre@@V?$allocator@UInputEvent@Ogre@@@std@@@std@@QAE@XZ PROC ; std::_Deque_val<Ogre::InputEvent,std::allocator<Ogre::InputEvent> >::~_Deque_val<Ogre::InputEvent,std::allocator<Ogre::InputEvent> >, COMDAT
; _this$ = ecx
	push	ebp
	mov	ebp, esp
	push	-1
	push	__ehhandler$??1?$_Deque_val@UInputEvent@Ogre@@V?$allocator@UInputEvent@Ogre@@@std@@@std@@QAE@XZ
	mov	eax, DWORD PTR fs:0
	push	eax
	push	ecx
	mov	eax, DWORD PTR ___security_cookie
	xor	eax, ebp
	push	eax
	lea	eax, DWORD PTR __$EHRec$[ebp]
	mov	DWORD PTR fs:0, eax
	mov	DWORD PTR _this$[ebp], ecx
	mov	DWORD PTR __$EHRec$[ebp+8], 0
	mov	DWORD PTR __$EHRec$[ebp+8], -1
	mov	ecx, DWORD PTR _this$[ebp]
	call	??1?$_Deque_map@UInputEvent@Ogre@@V?$allocator@UInputEvent@Ogre@@@std@@@std@@QAE@XZ
	mov	ecx, DWORD PTR __$EHRec$[ebp]
	mov	DWORD PTR fs:0, ecx
	pop	ecx
	mov	esp, ebp
	pop	ebp
	ret	0
_TEXT	ENDS
;	COMDAT text$x
text$x	SEGMENT
__unwindfunclet$??1?$_Deque_val@UInputEvent@Ogre@@V?$allocator@UInputEvent@Ogre@@@std@@@std@@QAE@XZ$0:
	mov	ecx, DWORD PTR _this$[ebp]
	jmp	??1?$_Deque_map@UInputEvent@Ogre@@V?$allocator@UInputEvent@Ogre@@@std@@@std@@QAE@XZ
__ehhandler$??1?$_Deque_val@UInputEvent@Ogre@@V?$allocator@UInputEvent@Ogre@@@std@@@std@@QAE@XZ:
	mov	edx, DWORD PTR [esp+8]
	lea	eax, DWORD PTR [edx+12]
	mov	ecx, DWORD PTR [edx-8]
	xor	ecx, eax
	call	@__security_check_cookie@4
	mov	eax, OFFSET __ehfuncinfo$??1?$_Deque_val@UInputEvent@Ogre@@V?$allocator@UInputEvent@Ogre@@@std@@@std@@QAE@XZ
	jmp	___CxxFrameHandler3
text$x	ENDS
??1?$_Deque_val@UInputEvent@Ogre@@V?$allocator@UInputEvent@Ogre@@@std@@@std@@QAE@XZ ENDP ; std::_Deque_val<Ogre::InputEvent,std::allocator<Ogre::InputEvent> >::~_Deque_val<Ogre::InputEvent,std::allocator<Ogre::InputEvent> >
PUBLIC	??1?$_Container_base_aux_alloc_real@V?$allocator@PAVInputHandler@Ogre@@@std@@@std@@IAE@XZ ; std::_Container_base_aux_alloc_real<std::allocator<Ogre::InputHandler *> >::~_Container_base_aux_alloc_real<std::allocator<Ogre::InputHandler *> >
;	COMDAT xdata$x
xdata$x	SEGMENT
__unwindtable$??1?$_Vector_val@PAVInputHandler@Ogre@@V?$allocator@PAVInputHandler@Ogre@@@std@@@std@@QAE@XZ DD 0ffffffffH
	DD	FLAT:__unwindfunclet$??1?$_Vector_val@PAVInputHandler@Ogre@@V?$allocator@PAVInputHandler@Ogre@@@std@@@std@@QAE@XZ$0
__ehfuncinfo$??1?$_Vector_val@PAVInputHandler@Ogre@@V?$allocator@PAVInputHandler@Ogre@@@std@@@std@@QAE@XZ DD 019930522H
	DD	01H
	DD	FLAT:__unwindtable$??1?$_Vector_val@PAVInputHandler@Ogre@@V?$allocator@PAVInputHandler@Ogre@@@std@@@std@@QAE@XZ
	DD	2 DUP(00H)
	DD	2 DUP(00H)
	DD	00H
	DD	00H
; Function compile flags: /Odtp
xdata$x	ENDS
;	COMDAT ??1?$_Vector_val@PAVInputHandler@Ogre@@V?$allocator@PAVInputHandler@Ogre@@@std@@@std@@QAE@XZ
_TEXT	SEGMENT
_this$ = -16						; size = 4
__$EHRec$ = -12						; size = 12
??1?$_Vector_val@PAVInputHandler@Ogre@@V?$allocator@PAVInputHandler@Ogre@@@std@@@std@@QAE@XZ PROC ; std::_Vector_val<Ogre::InputHandler *,std::allocator<Ogre::InputHandler *> >::~_Vector_val<Ogre::InputHandler *,std::allocator<Ogre::InputHandler *> >, COMDAT
; _this$ = ecx
	push	ebp
	mov	ebp, esp
	push	-1
	push	__ehhandler$??1?$_Vector_val@PAVInputHandler@Ogre@@V?$allocator@PAVInputHandler@Ogre@@@std@@@std@@QAE@XZ
	mov	eax, DWORD PTR fs:0
	push	eax
	push	ecx
	mov	eax, DWORD PTR ___security_cookie
	xor	eax, ebp
	push	eax
	lea	eax, DWORD PTR __$EHRec$[ebp]
	mov	DWORD PTR fs:0, eax
	mov	DWORD PTR _this$[ebp], ecx
	mov	DWORD PTR __$EHRec$[ebp+8], 0
	mov	DWORD PTR __$EHRec$[ebp+8], -1
	mov	ecx, DWORD PTR _this$[ebp]
	call	??1?$_Container_base_aux_alloc_real@V?$allocator@PAVInputHandler@Ogre@@@std@@@std@@IAE@XZ ; std::_Container_base_aux_alloc_real<std::allocator<Ogre::InputHandler *> >::~_Container_base_aux_alloc_real<std::allocator<Ogre::InputHandler *> >
	mov	ecx, DWORD PTR __$EHRec$[ebp]
	mov	DWORD PTR fs:0, ecx
	pop	ecx
	mov	esp, ebp
	pop	ebp
	ret	0
_TEXT	ENDS
;	COMDAT text$x
text$x	SEGMENT
__unwindfunclet$??1?$_Vector_val@PAVInputHandler@Ogre@@V?$allocator@PAVInputHandler@Ogre@@@std@@@std@@QAE@XZ$0:
	mov	ecx, DWORD PTR _this$[ebp]
	jmp	??1?$_Container_base_aux_alloc_real@V?$allocator@PAVInputHandler@Ogre@@@std@@@std@@IAE@XZ ; std::_Container_base_aux_alloc_real<std::allocator<Ogre::InputHandler *> >::~_Container_base_aux_alloc_real<std::allocator<Ogre::InputHandler *> >
__ehhandler$??1?$_Vector_val@PAVInputHandler@Ogre@@V?$allocator@PAVInputHandler@Ogre@@@std@@@std@@QAE@XZ:
	mov	edx, DWORD PTR [esp+8]
	lea	eax, DWORD PTR [edx+12]
	mov	ecx, DWORD PTR [edx-8]
	xor	ecx, eax
	call	@__security_check_cookie@4
	mov	eax, OFFSET __ehfuncinfo$??1?$_Vector_val@PAVInputHandler@Ogre@@V?$allocator@PAVInputHandler@Ogre@@@std@@@std@@QAE@XZ
	jmp	___CxxFrameHandler3
text$x	ENDS
??1?$_Vector_val@PAVInputHandler@Ogre@@V?$allocator@PAVInputHandler@Ogre@@@std@@@std@@QAE@XZ ENDP ; std::_Vector_val<Ogre::InputHandler *,std::allocator<Ogre::InputHandler *> >::~_Vector_val<Ogre::InputHandler *,std::allocator<Ogre::InputHandler *> >
PUBLIC	??1?$_Container_base_aux_alloc_real@V?$allocator@UInputEvent@Ogre@@@std@@@std@@IAE@XZ ; std::_Container_base_aux_alloc_real<std::allocator<Ogre::InputEvent> >::~_Container_base_aux_alloc_real<std::allocator<Ogre::InputEvent> >
;	COMDAT xdata$x
xdata$x	SEGMENT
__unwindtable$??1?$_Deque_map@UInputEvent@Ogre@@V?$allocator@UInputEvent@Ogre@@@std@@@std@@QAE@XZ DD 0ffffffffH
	DD	FLAT:__unwindfunclet$??1?$_Deque_map@UInputEvent@Ogre@@V?$allocator@UInputEvent@Ogre@@@std@@@std@@QAE@XZ$0
__ehfuncinfo$??1?$_Deque_map@UInputEvent@Ogre@@V?$allocator@UInputEvent@Ogre@@@std@@@std@@QAE@XZ DD 019930522H
	DD	01H
	DD	FLAT:__unwindtable$??1?$_Deque_map@UInputEvent@Ogre@@V?$allocator@UInputEvent@Ogre@@@std@@@std@@QAE@XZ
	DD	2 DUP(00H)
	DD	2 DUP(00H)
	DD	00H
	DD	00H
; Function compile flags: /Odtp
xdata$x	ENDS
;	COMDAT ??1?$_Deque_map@UInputEvent@Ogre@@V?$allocator@UInputEvent@Ogre@@@std@@@std@@QAE@XZ
_TEXT	SEGMENT
_this$ = -16						; size = 4
__$EHRec$ = -12						; size = 12
??1?$_Deque_map@UInputEvent@Ogre@@V?$allocator@UInputEvent@Ogre@@@std@@@std@@QAE@XZ PROC ; std::_Deque_map<Ogre::InputEvent,std::allocator<Ogre::InputEvent> >::~_Deque_map<Ogre::InputEvent,std::allocator<Ogre::InputEvent> >, COMDAT
; _this$ = ecx
	push	ebp
	mov	ebp, esp
	push	-1
	push	__ehhandler$??1?$_Deque_map@UInputEvent@Ogre@@V?$allocator@UInputEvent@Ogre@@@std@@@std@@QAE@XZ
	mov	eax, DWORD PTR fs:0
	push	eax
	push	ecx
	mov	eax, DWORD PTR ___security_cookie
	xor	eax, ebp
	push	eax
	lea	eax, DWORD PTR __$EHRec$[ebp]
	mov	DWORD PTR fs:0, eax
	mov	DWORD PTR _this$[ebp], ecx
	mov	DWORD PTR __$EHRec$[ebp+8], 0
	mov	DWORD PTR __$EHRec$[ebp+8], -1
	mov	ecx, DWORD PTR _this$[ebp]
	call	??1?$_Container_base_aux_alloc_real@V?$allocator@UInputEvent@Ogre@@@std@@@std@@IAE@XZ ; std::_Container_base_aux_alloc_real<std::allocator<Ogre::InputEvent> >::~_Container_base_aux_alloc_real<std::allocator<Ogre::InputEvent> >
	mov	ecx, DWORD PTR __$EHRec$[ebp]
	mov	DWORD PTR fs:0, ecx
	pop	ecx
	mov	esp, ebp
	pop	ebp
	ret	0
_TEXT	ENDS
;	COMDAT text$x
text$x	SEGMENT
__unwindfunclet$??1?$_Deque_map@UInputEvent@Ogre@@V?$allocator@UInputEvent@Ogre@@@std@@@std@@QAE@XZ$0:
	mov	ecx, DWORD PTR _this$[ebp]
	jmp	??1?$_Container_base_aux_alloc_real@V?$allocator@UInputEvent@Ogre@@@std@@@std@@IAE@XZ ; std::_Container_base_aux_alloc_real<std::allocator<Ogre::InputEvent> >::~_Container_base_aux_alloc_real<std::allocator<Ogre::InputEvent> >
__ehhandler$??1?$_Deque_map@UInputEvent@Ogre@@V?$allocator@UInputEvent@Ogre@@@std@@@std@@QAE@XZ:
	mov	edx, DWORD PTR [esp+8]
	lea	eax, DWORD PTR [edx+12]
	mov	ecx, DWORD PTR [edx-8]
	xor	ecx, eax
	call	@__security_check_cookie@4
	mov	eax, OFFSET __ehfuncinfo$??1?$_Deque_map@UInputEvent@Ogre@@V?$allocator@UInputEvent@Ogre@@@std@@@std@@QAE@XZ
	jmp	___CxxFrameHandler3
text$x	ENDS
??1?$_Deque_map@UInputEvent@Ogre@@V?$allocator@UInputEvent@Ogre@@@std@@@std@@QAE@XZ ENDP ; std::_Deque_map<Ogre::InputEvent,std::allocator<Ogre::InputEvent> >::~_Deque_map<Ogre::InputEvent,std::allocator<Ogre::InputEvent> >
PUBLIC	??0?$_Deque_iterator@UInputEvent@Ogre@@V?$allocator@UInputEvent@Ogre@@@std@@$00@std@@QAE@IPBV_Container_base_aux@1@@Z ; std::_Deque_iterator<Ogre::InputEvent,std::allocator<Ogre::InputEvent>,1>::_Deque_iterator<Ogre::InputEvent,std::allocator<Ogre::InputEvent>,1>
; Function compile flags: /Odtp
; File d:\program files (x86)\microsoft visual studio 9.0\vc\include\deque
;	COMDAT ?begin@?$deque@UInputEvent@Ogre@@V?$allocator@UInputEvent@Ogre@@@std@@@std@@QAE?AV?$_Deque_iterator@UInputEvent@Ogre@@V?$allocator@UInputEvent@Ogre@@@std@@$00@2@XZ
_TEXT	SEGMENT
_this$ = -4						; size = 4
___$ReturnUdt$ = 8					; size = 4
?begin@?$deque@UInputEvent@Ogre@@V?$allocator@UInputEvent@Ogre@@@std@@@std@@QAE?AV?$_Deque_iterator@UInputEvent@Ogre@@V?$allocator@UInputEvent@Ogre@@@std@@$00@2@XZ PROC ; std::deque<Ogre::InputEvent,std::allocator<Ogre::InputEvent> >::begin, COMDAT
; _this$ = ecx

; 665  : 		{	// return iterator for beginning of mutable sequence

	push	ebp
	mov	ebp, esp
	push	ecx
	mov	DWORD PTR _this$[ebp], ecx

; 666  : 		return (iterator(_Myoff, this));

	mov	eax, DWORD PTR _this$[ebp]
	push	eax
	mov	ecx, DWORD PTR _this$[ebp]
	mov	edx, DWORD PTR [ecx+24]
	push	edx
	mov	ecx, DWORD PTR ___$ReturnUdt$[ebp]
	call	??0?$_Deque_iterator@UInputEvent@Ogre@@V?$allocator@UInputEvent@Ogre@@@std@@$00@std@@QAE@IPBV_Container_base_aux@1@@Z ; std::_Deque_iterator<Ogre::InputEvent,std::allocator<Ogre::InputEvent>,1>::_Deque_iterator<Ogre::InputEvent,std::allocator<Ogre::InputEvent>,1>
	mov	eax, DWORD PTR ___$ReturnUdt$[ebp]

; 667  : 		}

	mov	esp, ebp
	pop	ebp
	ret	4
?begin@?$deque@UInputEvent@Ogre@@V?$allocator@UInputEvent@Ogre@@@std@@@std@@QAE?AV?$_Deque_iterator@UInputEvent@Ogre@@V?$allocator@UInputEvent@Ogre@@@std@@$00@2@XZ ENDP ; std::deque<Ogre::InputEvent,std::allocator<Ogre::InputEvent> >::begin
_TEXT	ENDS
PUBLIC	??0?$_Deque_const_iterator@UInputEvent@Ogre@@V?$allocator@UInputEvent@Ogre@@@std@@$00@std@@QAE@IPBV_Container_base_aux@1@@Z ; std::_Deque_const_iterator<Ogre::InputEvent,std::allocator<Ogre::InputEvent>,1>::_Deque_const_iterator<Ogre::InputEvent,std::allocator<Ogre::InputEvent>,1>
; Function compile flags: /Odtp
;	COMDAT ?begin@?$deque@UInputEvent@Ogre@@V?$allocator@UInputEvent@Ogre@@@std@@@std@@QBE?AV?$_Deque_const_iterator@UInputEvent@Ogre@@V?$allocator@UInputEvent@Ogre@@@std@@$00@2@XZ
_TEXT	SEGMENT
_this$ = -4						; size = 4
___$ReturnUdt$ = 8					; size = 4
?begin@?$deque@UInputEvent@Ogre@@V?$allocator@UInputEvent@Ogre@@@std@@@std@@QBE?AV?$_Deque_const_iterator@UInputEvent@Ogre@@V?$allocator@UInputEvent@Ogre@@@std@@$00@2@XZ PROC ; std::deque<Ogre::InputEvent,std::allocator<Ogre::InputEvent> >::begin, COMDAT
; _this$ = ecx

; 670  : 		{	// return iterator for beginning of nonmutable sequence

	push	ebp
	mov	ebp, esp
	push	ecx
	mov	DWORD PTR _this$[ebp], ecx

; 671  : 		return (const_iterator(_Myoff, this));

	mov	eax, DWORD PTR _this$[ebp]
	push	eax
	mov	ecx, DWORD PTR _this$[ebp]
	mov	edx, DWORD PTR [ecx+24]
	push	edx
	mov	ecx, DWORD PTR ___$ReturnUdt$[ebp]
	call	??0?$_Deque_const_iterator@UInputEvent@Ogre@@V?$allocator@UInputEvent@Ogre@@@std@@$00@std@@QAE@IPBV_Container_base_aux@1@@Z ; std::_Deque_const_iterator<Ogre::InputEvent,std::allocator<Ogre::InputEvent>,1>::_Deque_const_iterator<Ogre::InputEvent,std::allocator<Ogre::InputEvent>,1>
	mov	eax, DWORD PTR ___$ReturnUdt$[ebp]

; 672  : 		}

	mov	esp, ebp
	pop	ebp
	ret	4
?begin@?$deque@UInputEvent@Ogre@@V?$allocator@UInputEvent@Ogre@@@std@@@std@@QBE?AV?$_Deque_const_iterator@UInputEvent@Ogre@@V?$allocator@UInputEvent@Ogre@@@std@@$00@2@XZ ENDP ; std::deque<Ogre::InputEvent,std::allocator<Ogre::InputEvent> >::begin
; Function compile flags: /Odtp
_TEXT	ENDS
;	COMDAT ?end@?$deque@UInputEvent@Ogre@@V?$allocator@UInputEvent@Ogre@@@std@@@std@@QAE?AV?$_Deque_iterator@UInputEvent@Ogre@@V?$allocator@UInputEvent@Ogre@@@std@@$00@2@XZ
_TEXT	SEGMENT
_this$ = -4						; size = 4
___$ReturnUdt$ = 8					; size = 4
?end@?$deque@UInputEvent@Ogre@@V?$allocator@UInputEvent@Ogre@@@std@@@std@@QAE?AV?$_Deque_iterator@UInputEvent@Ogre@@V?$allocator@UInputEvent@Ogre@@@std@@$00@2@XZ PROC ; std::deque<Ogre::InputEvent,std::allocator<Ogre::InputEvent> >::end, COMDAT
; _this$ = ecx

; 675  : 		{	// return iterator for end of mutable sequence

	push	ebp
	mov	ebp, esp
	push	ecx
	mov	DWORD PTR _this$[ebp], ecx

; 676  : 		return (iterator(_Myoff + _Mysize, this));

	mov	eax, DWORD PTR _this$[ebp]
	push	eax
	mov	ecx, DWORD PTR _this$[ebp]
	mov	edx, DWORD PTR [ecx+24]
	mov	eax, DWORD PTR _this$[ebp]
	add	edx, DWORD PTR [eax+28]
	push	edx
	mov	ecx, DWORD PTR ___$ReturnUdt$[ebp]
	call	??0?$_Deque_iterator@UInputEvent@Ogre@@V?$allocator@UInputEvent@Ogre@@@std@@$00@std@@QAE@IPBV_Container_base_aux@1@@Z ; std::_Deque_iterator<Ogre::InputEvent,std::allocator<Ogre::InputEvent>,1>::_Deque_iterator<Ogre::InputEvent,std::allocator<Ogre::InputEvent>,1>
	mov	eax, DWORD PTR ___$ReturnUdt$[ebp]

; 677  : 		}

	mov	esp, ebp
	pop	ebp
	ret	4
?end@?$deque@UInputEvent@Ogre@@V?$allocator@UInputEvent@Ogre@@@std@@@std@@QAE?AV?$_Deque_iterator@UInputEvent@Ogre@@V?$allocator@UInputEvent@Ogre@@@std@@$00@2@XZ ENDP ; std::deque<Ogre::InputEvent,std::allocator<Ogre::InputEvent> >::end
; Function compile flags: /Odtp
_TEXT	ENDS
;	COMDAT ?end@?$deque@UInputEvent@Ogre@@V?$allocator@UInputEvent@Ogre@@@std@@@std@@QBE?AV?$_Deque_const_iterator@UInputEvent@Ogre@@V?$allocator@UInputEvent@Ogre@@@std@@$00@2@XZ
_TEXT	SEGMENT
_this$ = -4						; size = 4
___$ReturnUdt$ = 8					; size = 4
?end@?$deque@UInputEvent@Ogre@@V?$allocator@UInputEvent@Ogre@@@std@@@std@@QBE?AV?$_Deque_const_iterator@UInputEvent@Ogre@@V?$allocator@UInputEvent@Ogre@@@std@@$00@2@XZ PROC ; std::deque<Ogre::InputEvent,std::allocator<Ogre::InputEvent> >::end, COMDAT
; _this$ = ecx

; 680  : 		{	// return iterator for end of nonmutable sequence

	push	ebp
	mov	ebp, esp
	push	ecx
	mov	DWORD PTR _this$[ebp], ecx

; 681  : 		return (const_iterator(_Myoff + _Mysize, this));

	mov	eax, DWORD PTR _this$[ebp]
	push	eax
	mov	ecx, DWORD PTR _this$[ebp]
	mov	edx, DWORD PTR [ecx+24]
	mov	eax, DWORD PTR _this$[ebp]
	add	edx, DWORD PTR [eax+28]
	push	edx
	mov	ecx, DWORD PTR ___$ReturnUdt$[ebp]
	call	??0?$_Deque_const_iterator@UInputEvent@Ogre@@V?$allocator@UInputEvent@Ogre@@@std@@$00@std@@QAE@IPBV_Container_base_aux@1@@Z ; std::_Deque_const_iterator<Ogre::InputEvent,std::allocator<Ogre::InputEvent>,1>::_Deque_const_iterator<Ogre::InputEvent,std::allocator<Ogre::InputEvent>,1>
	mov	eax, DWORD PTR ___$ReturnUdt$[ebp]

; 682  : 		}

	mov	esp, ebp
	pop	ebp
	ret	4
?end@?$deque@UInputEvent@Ogre@@V?$allocator@UInputEvent@Ogre@@@std@@@std@@QBE?AV?$_Deque_const_iterator@UInputEvent@Ogre@@V?$allocator@UInputEvent@Ogre@@@std@@$00@2@XZ ENDP ; std::deque<Ogre::InputEvent,std::allocator<Ogre::InputEvent> >::end
_TEXT	ENDS
PUBLIC	??H?$_Deque_iterator@UInputEvent@Ogre@@V?$allocator@UInputEvent@Ogre@@@std@@$00@std@@QBE?AV01@H@Z ; std::_Deque_iterator<Ogre::InputEvent,std::allocator<Ogre::InputEvent>,1>::operator+
PUBLIC	?pop_back@?$deque@UInputEvent@Ogre@@V?$allocator@UInputEvent@Ogre@@@std@@@std@@QAEXXZ ; std::deque<Ogre::InputEvent,std::allocator<Ogre::InputEvent> >::pop_back
PUBLIC	??$copy@V?$_Deque_iterator@UInputEvent@Ogre@@V?$allocator@UInputEvent@Ogre@@@std@@$00@std@@V12@@std@@YA?AV?$_Deque_iterator@UInputEvent@Ogre@@V?$allocator@UInputEvent@Ogre@@@std@@$00@0@V10@00@Z ; std::copy<std::_Deque_iterator<Ogre::InputEvent,std::allocator<Ogre::InputEvent>,1>,std::_Deque_iterator<Ogre::InputEvent,std::allocator<Ogre::InputEvent>,1> >
PUBLIC	?pop_front@?$deque@UInputEvent@Ogre@@V?$allocator@UInputEvent@Ogre@@@std@@@std@@QAEXXZ ; std::deque<Ogre::InputEvent,std::allocator<Ogre::InputEvent> >::pop_front
PUBLIC	??$copy_backward@V?$_Deque_iterator@UInputEvent@Ogre@@V?$allocator@UInputEvent@Ogre@@@std@@$00@std@@V12@@std@@YA?AV?$_Deque_iterator@UInputEvent@Ogre@@V?$allocator@UInputEvent@Ogre@@@std@@$00@0@V10@00@Z ; std::copy_backward<std::_Deque_iterator<Ogre::InputEvent,std::allocator<Ogre::InputEvent>,1>,std::_Deque_iterator<Ogre::InputEvent,std::allocator<Ogre::InputEvent>,1> >
PUBLIC	??G?$_Deque_iterator@UInputEvent@Ogre@@V?$allocator@UInputEvent@Ogre@@@std@@$00@std@@QBEHABV?$_Deque_const_iterator@UInputEvent@Ogre@@V?$allocator@UInputEvent@Ogre@@@std@@$00@1@@Z ; std::_Deque_iterator<Ogre::InputEvent,std::allocator<Ogre::InputEvent>,1>::operator-
PUBLIC	?_Make_iter@?$deque@UInputEvent@Ogre@@V?$allocator@UInputEvent@Ogre@@@std@@@std@@QBE?AV?$_Deque_iterator@UInputEvent@Ogre@@V?$allocator@UInputEvent@Ogre@@@std@@$00@2@V?$_Deque_const_iterator@UInputEvent@Ogre@@V?$allocator@UInputEvent@Ogre@@@std@@$00@2@@Z ; std::deque<Ogre::InputEvent,std::allocator<Ogre::InputEvent> >::_Make_iter
; Function compile flags: /Odtp
;	COMDAT ?erase@?$deque@UInputEvent@Ogre@@V?$allocator@UInputEvent@Ogre@@@std@@@std@@QAE?AV?$_Deque_iterator@UInputEvent@Ogre@@V?$allocator@UInputEvent@Ogre@@@std@@$00@2@V?$_Deque_const_iterator@UInputEvent@Ogre@@V?$allocator@UInputEvent@Ogre@@@std@@$00@2@0@Z
_TEXT	SEGMENT
_this$ = -84						; size = 4
$T125650 = -80						; size = 8
$T125649 = -72						; size = 8
$T125648 = -64						; size = 8
$T125647 = -56						; size = 8
$T125646 = -48						; size = 8
$T125645 = -40						; size = 8
$T125644 = -32						; size = 8
__Off$ = -24						; size = 4
__Last$ = -20						; size = 8
__First$ = -12						; size = 8
__Count$ = -4						; size = 4
___$ReturnUdt$ = 8					; size = 4
__First_arg$ = 12					; size = 8
__Last_arg$ = 20					; size = 8
?erase@?$deque@UInputEvent@Ogre@@V?$allocator@UInputEvent@Ogre@@@std@@@std@@QAE?AV?$_Deque_iterator@UInputEvent@Ogre@@V?$allocator@UInputEvent@Ogre@@@std@@$00@2@V?$_Deque_const_iterator@UInputEvent@Ogre@@V?$allocator@UInputEvent@Ogre@@@std@@$00@2@0@Z PROC ; std::deque<Ogre::InputEvent,std::allocator<Ogre::InputEvent> >::erase, COMDAT
; _this$ = ecx

; 1044 : 		{	// erase [_First, _Last)

	push	ebp
	mov	ebp, esp
	sub	esp, 84					; 00000054H
	mov	DWORD PTR _this$[ebp], ecx

; 1045 : 		iterator _First = _Make_iter(_First_arg);

	mov	eax, DWORD PTR __First_arg$[ebp+4]
	push	eax
	mov	ecx, DWORD PTR __First_arg$[ebp]
	push	ecx
	lea	edx, DWORD PTR __First$[ebp]
	push	edx
	mov	ecx, DWORD PTR _this$[ebp]
	call	?_Make_iter@?$deque@UInputEvent@Ogre@@V?$allocator@UInputEvent@Ogre@@@std@@@std@@QBE?AV?$_Deque_iterator@UInputEvent@Ogre@@V?$allocator@UInputEvent@Ogre@@@std@@$00@2@V?$_Deque_const_iterator@UInputEvent@Ogre@@V?$allocator@UInputEvent@Ogre@@@std@@$00@2@@Z ; std::deque<Ogre::InputEvent,std::allocator<Ogre::InputEvent> >::_Make_iter

; 1046 : 		iterator _Last = _Make_iter(_Last_arg);

	mov	eax, DWORD PTR __Last_arg$[ebp+4]
	push	eax
	mov	ecx, DWORD PTR __Last_arg$[ebp]
	push	ecx
	lea	edx, DWORD PTR __Last$[ebp]
	push	edx
	mov	ecx, DWORD PTR _this$[ebp]
	call	?_Make_iter@?$deque@UInputEvent@Ogre@@V?$allocator@UInputEvent@Ogre@@@std@@@std@@QBE?AV?$_Deque_iterator@UInputEvent@Ogre@@V?$allocator@UInputEvent@Ogre@@@std@@$00@2@V?$_Deque_const_iterator@UInputEvent@Ogre@@V?$allocator@UInputEvent@Ogre@@@std@@$00@2@@Z ; std::deque<Ogre::InputEvent,std::allocator<Ogre::InputEvent> >::_Make_iter

; 1047 : 
; 1048 :  #if _HAS_ITERATOR_DEBUGGING
; 1049 : 		if (_Last < _First
; 1050 : 			|| _First < begin() || end() < _Last)
; 1051 : 			_DEBUG_ERROR("deque erase iterator outside range");
; 1052 : 		_DEBUG_RANGE(_First, _Last);
; 1053 : 
; 1054 : 		size_type _Off = _First - begin();
; 1055 : 		size_type _Count = _Last - _First;
; 1056 : 		bool _Moved = 0 < _Off && _Off + _Count < _Mysize;
; 1057 : 
; 1058 :  #else /* _HAS_ITERATOR_DEBUGGING */
; 1059 : 		size_type _Off = _First - begin();

	lea	eax, DWORD PTR $T125644[ebp]
	push	eax
	mov	ecx, DWORD PTR _this$[ebp]
	call	?begin@?$deque@UInputEvent@Ogre@@V?$allocator@UInputEvent@Ogre@@@std@@@std@@QAE?AV?$_Deque_iterator@UInputEvent@Ogre@@V?$allocator@UInputEvent@Ogre@@@std@@$00@2@XZ ; std::deque<Ogre::InputEvent,std::allocator<Ogre::InputEvent> >::begin
	push	eax
	lea	ecx, DWORD PTR __First$[ebp]
	call	??G?$_Deque_iterator@UInputEvent@Ogre@@V?$allocator@UInputEvent@Ogre@@@std@@$00@std@@QBEHABV?$_Deque_const_iterator@UInputEvent@Ogre@@V?$allocator@UInputEvent@Ogre@@@std@@$00@1@@Z ; std::_Deque_iterator<Ogre::InputEvent,std::allocator<Ogre::InputEvent>,1>::operator-
	mov	DWORD PTR __Off$[ebp], eax

; 1060 : 		size_type _Count = _Last - _First;

	lea	ecx, DWORD PTR __First$[ebp]
	push	ecx
	lea	ecx, DWORD PTR __Last$[ebp]
	call	??G?$_Deque_iterator@UInputEvent@Ogre@@V?$allocator@UInputEvent@Ogre@@@std@@$00@std@@QBEHABV?$_Deque_const_iterator@UInputEvent@Ogre@@V?$allocator@UInputEvent@Ogre@@@std@@$00@1@@Z ; std::_Deque_iterator<Ogre::InputEvent,std::allocator<Ogre::InputEvent>,1>::operator-
	mov	DWORD PTR __Count$[ebp], eax

; 1061 :  #endif /* _HAS_ITERATOR_DEBUGGING */
; 1062 : 
; 1063 : 		if (_Off < (size_type)(end() - _Last))

	lea	edx, DWORD PTR __Last$[ebp]
	push	edx
	lea	eax, DWORD PTR $T125645[ebp]
	push	eax
	mov	ecx, DWORD PTR _this$[ebp]
	call	?end@?$deque@UInputEvent@Ogre@@V?$allocator@UInputEvent@Ogre@@@std@@@std@@QAE?AV?$_Deque_iterator@UInputEvent@Ogre@@V?$allocator@UInputEvent@Ogre@@@std@@$00@2@XZ ; std::deque<Ogre::InputEvent,std::allocator<Ogre::InputEvent> >::end
	mov	ecx, eax
	call	??G?$_Deque_iterator@UInputEvent@Ogre@@V?$allocator@UInputEvent@Ogre@@@std@@$00@std@@QBEHABV?$_Deque_const_iterator@UInputEvent@Ogre@@V?$allocator@UInputEvent@Ogre@@@std@@$00@1@@Z ; std::_Deque_iterator<Ogre::InputEvent,std::allocator<Ogre::InputEvent>,1>::operator-
	cmp	DWORD PTR __Off$[ebp], eax
	jae	SHORT $LN8@erase

; 1064 : 			{	// closer to front
; 1065 : 			std::copy_backward(begin(), _First, _Last);	// copy over hole

	mov	ecx, DWORD PTR __Last$[ebp+4]
	push	ecx
	mov	edx, DWORD PTR __Last$[ebp]
	push	edx
	mov	eax, DWORD PTR __First$[ebp+4]
	push	eax
	mov	ecx, DWORD PTR __First$[ebp]
	push	ecx
	lea	edx, DWORD PTR $T125646[ebp]
	push	edx
	mov	ecx, DWORD PTR _this$[ebp]
	call	?begin@?$deque@UInputEvent@Ogre@@V?$allocator@UInputEvent@Ogre@@@std@@@std@@QAE?AV?$_Deque_iterator@UInputEvent@Ogre@@V?$allocator@UInputEvent@Ogre@@@std@@$00@2@XZ ; std::deque<Ogre::InputEvent,std::allocator<Ogre::InputEvent> >::begin
	mov	ecx, DWORD PTR [eax+4]
	push	ecx
	mov	edx, DWORD PTR [eax]
	push	edx
	lea	eax, DWORD PTR $T125647[ebp]
	push	eax
	call	??$copy_backward@V?$_Deque_iterator@UInputEvent@Ogre@@V?$allocator@UInputEvent@Ogre@@@std@@$00@std@@V12@@std@@YA?AV?$_Deque_iterator@UInputEvent@Ogre@@V?$allocator@UInputEvent@Ogre@@@std@@$00@0@V10@00@Z ; std::copy_backward<std::_Deque_iterator<Ogre::InputEvent,std::allocator<Ogre::InputEvent>,1>,std::_Deque_iterator<Ogre::InputEvent,std::allocator<Ogre::InputEvent>,1> >
	add	esp, 28					; 0000001cH

; 1066 : 			for (; 0 < _Count; --_Count)

	jmp	SHORT $LN7@erase
$LN6@erase:
	mov	ecx, DWORD PTR __Count$[ebp]
	sub	ecx, 1
	mov	DWORD PTR __Count$[ebp], ecx
$LN7@erase:
	cmp	DWORD PTR __Count$[ebp], 0
	jbe	SHORT $LN5@erase

; 1067 : 				pop_front();	// pop copied elements

	mov	ecx, DWORD PTR _this$[ebp]
	call	?pop_front@?$deque@UInputEvent@Ogre@@V?$allocator@UInputEvent@Ogre@@@std@@@std@@QAEXXZ ; std::deque<Ogre::InputEvent,std::allocator<Ogre::InputEvent> >::pop_front
	jmp	SHORT $LN6@erase
$LN5@erase:

; 1068 : 			}
; 1069 : 		else

	jmp	SHORT $LN4@erase
$LN8@erase:

; 1070 : 			{	// closer to back
; 1071 : 			std::copy(_Last, end(), _First);	// copy over hole

	mov	edx, DWORD PTR __First$[ebp+4]
	push	edx
	mov	eax, DWORD PTR __First$[ebp]
	push	eax
	lea	ecx, DWORD PTR $T125648[ebp]
	push	ecx
	mov	ecx, DWORD PTR _this$[ebp]
	call	?end@?$deque@UInputEvent@Ogre@@V?$allocator@UInputEvent@Ogre@@@std@@@std@@QAE?AV?$_Deque_iterator@UInputEvent@Ogre@@V?$allocator@UInputEvent@Ogre@@@std@@$00@2@XZ ; std::deque<Ogre::InputEvent,std::allocator<Ogre::InputEvent> >::end
	mov	edx, DWORD PTR [eax+4]
	push	edx
	mov	eax, DWORD PTR [eax]
	push	eax
	mov	ecx, DWORD PTR __Last$[ebp+4]
	push	ecx
	mov	edx, DWORD PTR __Last$[ebp]
	push	edx
	lea	eax, DWORD PTR $T125649[ebp]
	push	eax
	call	??$copy@V?$_Deque_iterator@UInputEvent@Ogre@@V?$allocator@UInputEvent@Ogre@@@std@@$00@std@@V12@@std@@YA?AV?$_Deque_iterator@UInputEvent@Ogre@@V?$allocator@UInputEvent@Ogre@@@std@@$00@0@V10@00@Z ; std::copy<std::_Deque_iterator<Ogre::InputEvent,std::allocator<Ogre::InputEvent>,1>,std::_Deque_iterator<Ogre::InputEvent,std::allocator<Ogre::InputEvent>,1> >
	add	esp, 28					; 0000001cH

; 1072 : 			for (; 0 < _Count; --_Count)

	jmp	SHORT $LN3@erase
$LN2@erase:
	mov	ecx, DWORD PTR __Count$[ebp]
	sub	ecx, 1
	mov	DWORD PTR __Count$[ebp], ecx
$LN3@erase:
	cmp	DWORD PTR __Count$[ebp], 0
	jbe	SHORT $LN4@erase

; 1073 : 				pop_back();	// pop copied elements

	mov	ecx, DWORD PTR _this$[ebp]
	call	?pop_back@?$deque@UInputEvent@Ogre@@V?$allocator@UInputEvent@Ogre@@@std@@@std@@QAEXXZ ; std::deque<Ogre::InputEvent,std::allocator<Ogre::InputEvent> >::pop_back
	jmp	SHORT $LN2@erase
$LN4@erase:

; 1074 : 			}
; 1075 : 
; 1076 :  #if _HAS_ITERATOR_DEBUGGING
; 1077 : 		if (_Moved)
; 1078 : 			this->_Orphan_all();
; 1079 :  #endif /* _HAS_ITERATOR_DEBUGGING */
; 1080 : 
; 1081 : 		return (begin() + _Off);

	mov	edx, DWORD PTR __Off$[ebp]
	push	edx
	mov	eax, DWORD PTR ___$ReturnUdt$[ebp]
	push	eax
	lea	ecx, DWORD PTR $T125650[ebp]
	push	ecx
	mov	ecx, DWORD PTR _this$[ebp]
	call	?begin@?$deque@UInputEvent@Ogre@@V?$allocator@UInputEvent@Ogre@@@std@@@std@@QAE?AV?$_Deque_iterator@UInputEvent@Ogre@@V?$allocator@UInputEvent@Ogre@@@std@@$00@2@XZ ; std::deque<Ogre::InputEvent,std::allocator<Ogre::InputEvent> >::begin
	mov	ecx, eax
	call	??H?$_Deque_iterator@UInputEvent@Ogre@@V?$allocator@UInputEvent@Ogre@@@std@@$00@std@@QBE?AV01@H@Z ; std::_Deque_iterator<Ogre::InputEvent,std::allocator<Ogre::InputEvent>,1>::operator+
	mov	eax, DWORD PTR ___$ReturnUdt$[ebp]

; 1082 : 		}

	mov	esp, ebp
	pop	ebp
	ret	20					; 00000014H
?erase@?$deque@UInputEvent@Ogre@@V?$allocator@UInputEvent@Ogre@@@std@@@std@@QAE?AV?$_Deque_iterator@UInputEvent@Ogre@@V?$allocator@UInputEvent@Ogre@@@std@@$00@2@V?$_Deque_const_iterator@UInputEvent@Ogre@@V?$allocator@UInputEvent@Ogre@@@std@@$00@2@0@Z ENDP ; std::deque<Ogre::InputEvent,std::allocator<Ogre::InputEvent> >::erase
; Function compile flags: /Odtp
_TEXT	ENDS
;	COMDAT ?clear@?$deque@UInputEvent@Ogre@@V?$allocator@UInputEvent@Ogre@@@std@@@std@@QAEXXZ
_TEXT	SEGMENT
_this$ = -4						; size = 4
?clear@?$deque@UInputEvent@Ogre@@V?$allocator@UInputEvent@Ogre@@@std@@@std@@QAEXXZ PROC ; std::deque<Ogre::InputEvent,std::allocator<Ogre::InputEvent> >::clear, COMDAT
; _this$ = ecx

; 1085 : 		{	// erase all

	push	ebp
	mov	ebp, esp
	push	ecx
	mov	DWORD PTR _this$[ebp], ecx

; 1086 : 		_Tidy();

	mov	ecx, DWORD PTR _this$[ebp]
	call	?_Tidy@?$deque@UInputEvent@Ogre@@V?$allocator@UInputEvent@Ogre@@@std@@@std@@IAEXXZ ; std::deque<Ogre::InputEvent,std::allocator<Ogre::InputEvent> >::_Tidy

; 1087 : 		}

	mov	esp, ebp
	pop	ebp
	ret	0
?clear@?$deque@UInputEvent@Ogre@@V?$allocator@UInputEvent@Ogre@@@std@@@std@@QAEXXZ ENDP ; std::deque<Ogre::InputEvent,std::allocator<Ogre::InputEvent> >::clear
_TEXT	ENDS
PUBLIC	?deallocate@?$allocator@PAUInputEvent@Ogre@@@std@@QAEXPAPAUInputEvent@Ogre@@I@Z ; std::allocator<Ogre::InputEvent *>::deallocate
PUBLIC	??$_Destroy_range@V?$allocator@PAUInputEvent@Ogre@@@std@@@std@@YAXPAPAUInputEvent@Ogre@@0AAV?$allocator@PAUInputEvent@Ogre@@@0@@Z ; std::_Destroy_range<std::allocator<Ogre::InputEvent *> >
PUBLIC	??$unchecked_uninitialized_fill_n@PAPAUInputEvent@Ogre@@IPAU12@V?$allocator@PAUInputEvent@Ogre@@@std@@@stdext@@YAXPAPAUInputEvent@Ogre@@IABQAU12@AAV?$allocator@PAUInputEvent@Ogre@@@std@@@Z ; stdext::unchecked_uninitialized_fill_n<Ogre::InputEvent * *,unsigned int,Ogre::InputEvent *,std::allocator<Ogre::InputEvent *> >
PUBLIC	??$unchecked_uninitialized_copy@PAPAUInputEvent@Ogre@@PAPAU12@V?$allocator@PAUInputEvent@Ogre@@@std@@@stdext@@YAPAPAUInputEvent@Ogre@@PAPAU12@00AAV?$allocator@PAUInputEvent@Ogre@@@std@@@Z ; stdext::unchecked_uninitialized_copy<Ogre::InputEvent * *,Ogre::InputEvent * *,std::allocator<Ogre::InputEvent *> >
PUBLIC	?allocate@?$allocator@PAUInputEvent@Ogre@@@std@@QAEPAPAUInputEvent@Ogre@@I@Z ; std::allocator<Ogre::InputEvent *>::allocate
PUBLIC	?_Xlen@?$deque@UInputEvent@Ogre@@V?$allocator@UInputEvent@Ogre@@@std@@@std@@KAXXZ ; std::deque<Ogre::InputEvent,std::allocator<Ogre::InputEvent> >::_Xlen
PUBLIC	?max_size@?$deque@UInputEvent@Ogre@@V?$allocator@UInputEvent@Ogre@@@std@@@std@@QBEIXZ ; std::deque<Ogre::InputEvent,std::allocator<Ogre::InputEvent> >::max_size
; Function compile flags: /Odtp
;	COMDAT ?_Growmap@?$deque@UInputEvent@Ogre@@V?$allocator@UInputEvent@Ogre@@@std@@@std@@IAEXI@Z
_TEXT	SEGMENT
_this$ = -32						; size = 4
$T125657 = -28						; size = 4
$T125656 = -24						; size = 4
$T125655 = -20						; size = 4
__Newmap$ = -16						; size = 4
__Myptr$ = -12						; size = 4
__Inc$ = -8						; size = 4
__Myboff$ = -4						; size = 4
__Count$ = 8						; size = 4
?_Growmap@?$deque@UInputEvent@Ogre@@V?$allocator@UInputEvent@Ogre@@@std@@@std@@IAEXI@Z PROC ; std::deque<Ogre::InputEvent,std::allocator<Ogre::InputEvent> >::_Growmap, COMDAT
; _this$ = ecx

; 1225 : 		{	// grow map by _Count pointers

	push	ebp
	mov	ebp, esp
	sub	esp, 32					; 00000020H
	mov	DWORD PTR _this$[ebp], ecx

; 1226 : 		if (max_size() / _DEQUESIZ - _Mapsize < _Count)

	mov	ecx, DWORD PTR _this$[ebp]
	call	?max_size@?$deque@UInputEvent@Ogre@@V?$allocator@UInputEvent@Ogre@@@std@@@std@@QBEIXZ ; std::deque<Ogre::InputEvent,std::allocator<Ogre::InputEvent> >::max_size
	mov	ecx, DWORD PTR _this$[ebp]
	sub	eax, DWORD PTR [ecx+20]
	cmp	eax, DWORD PTR __Count$[ebp]
	jae	SHORT $LN6@Growmap

; 1227 : 			_Xlen();	// result too long

	call	?_Xlen@?$deque@UInputEvent@Ogre@@V?$allocator@UInputEvent@Ogre@@@std@@@std@@KAXXZ ; std::deque<Ogre::InputEvent,std::allocator<Ogre::InputEvent> >::_Xlen
$LN6@Growmap:

; 1228 : 
; 1229 : 		size_type _Inc = _Mapsize / 2;	// try to grow by 50%

	mov	edx, DWORD PTR _this$[ebp]
	mov	eax, DWORD PTR [edx+20]
	shr	eax, 1
	mov	DWORD PTR __Inc$[ebp], eax

; 1230 : 		if (_Inc < _DEQUEMAPSIZ)

	cmp	DWORD PTR __Inc$[ebp], 8
	jae	SHORT $LN5@Growmap

; 1231 : 			_Inc = _DEQUEMAPSIZ;

	mov	DWORD PTR __Inc$[ebp], 8
$LN5@Growmap:

; 1232 : 		if (_Count < _Inc && _Mapsize <= max_size() / _DEQUESIZ - _Inc)

	mov	ecx, DWORD PTR __Count$[ebp]
	cmp	ecx, DWORD PTR __Inc$[ebp]
	jae	SHORT $LN4@Growmap
	mov	ecx, DWORD PTR _this$[ebp]
	call	?max_size@?$deque@UInputEvent@Ogre@@V?$allocator@UInputEvent@Ogre@@@std@@@std@@QBEIXZ ; std::deque<Ogre::InputEvent,std::allocator<Ogre::InputEvent> >::max_size
	sub	eax, DWORD PTR __Inc$[ebp]
	mov	edx, DWORD PTR _this$[ebp]
	cmp	DWORD PTR [edx+20], eax
	ja	SHORT $LN4@Growmap

; 1233 : 			_Count = _Inc;

	mov	eax, DWORD PTR __Inc$[ebp]
	mov	DWORD PTR __Count$[ebp], eax
$LN4@Growmap:

; 1234 : 		size_type _Myboff = _Myoff / _DEQUESIZ;

	mov	ecx, DWORD PTR _this$[ebp]
	mov	edx, DWORD PTR [ecx+24]
	mov	DWORD PTR __Myboff$[ebp], edx

; 1235 : 		_Mapptr _Newmap = this->_Almap.allocate(_Mapsize + _Count);

	mov	eax, DWORD PTR _this$[ebp]
	mov	ecx, DWORD PTR [eax+20]
	add	ecx, DWORD PTR __Count$[ebp]
	push	ecx
	mov	ecx, DWORD PTR _this$[ebp]
	add	ecx, 8
	call	?allocate@?$allocator@PAUInputEvent@Ogre@@@std@@QAEPAPAUInputEvent@Ogre@@I@Z ; std::allocator<Ogre::InputEvent *>::allocate
	mov	DWORD PTR __Newmap$[ebp], eax

; 1236 : 		_Mapptr _Myptr = _Newmap + _Myboff;

	mov	edx, DWORD PTR __Myboff$[ebp]
	mov	eax, DWORD PTR __Newmap$[ebp]
	lea	ecx, DWORD PTR [eax+edx*4]
	mov	DWORD PTR __Myptr$[ebp], ecx

; 1237 : 
; 1238 : 		_Myptr = _STDEXT unchecked_uninitialized_copy(_Map + _Myboff,
; 1239 : 			_Map + _Mapsize, _Myptr, this->_Almap);	// copy initial to end

	mov	edx, DWORD PTR _this$[ebp]
	add	edx, 8
	push	edx
	mov	eax, DWORD PTR __Myptr$[ebp]
	push	eax
	mov	ecx, DWORD PTR _this$[ebp]
	mov	edx, DWORD PTR [ecx+20]
	mov	eax, DWORD PTR _this$[ebp]
	mov	ecx, DWORD PTR [eax+16]
	lea	edx, DWORD PTR [ecx+edx*4]
	push	edx
	mov	eax, DWORD PTR _this$[ebp]
	mov	ecx, DWORD PTR [eax+16]
	mov	edx, DWORD PTR __Myboff$[ebp]
	lea	eax, DWORD PTR [ecx+edx*4]
	push	eax
	call	??$unchecked_uninitialized_copy@PAPAUInputEvent@Ogre@@PAPAU12@V?$allocator@PAUInputEvent@Ogre@@@std@@@stdext@@YAPAPAUInputEvent@Ogre@@PAPAU12@00AAV?$allocator@PAUInputEvent@Ogre@@@std@@@Z ; stdext::unchecked_uninitialized_copy<Ogre::InputEvent * *,Ogre::InputEvent * *,std::allocator<Ogre::InputEvent *> >
	add	esp, 16					; 00000010H
	mov	DWORD PTR __Myptr$[ebp], eax

; 1240 : 		if (_Myboff <= _Count)

	mov	ecx, DWORD PTR __Myboff$[ebp]
	cmp	ecx, DWORD PTR __Count$[ebp]
	ja	SHORT $LN3@Growmap

; 1241 : 			{	// increment greater than offset of initial block
; 1242 : 			_Myptr = _STDEXT unchecked_uninitialized_copy(_Map,
; 1243 : 				_Map + _Myboff, _Myptr, this->_Almap);	// copy rest of old

	mov	edx, DWORD PTR _this$[ebp]
	add	edx, 8
	push	edx
	mov	eax, DWORD PTR __Myptr$[ebp]
	push	eax
	mov	ecx, DWORD PTR _this$[ebp]
	mov	edx, DWORD PTR [ecx+16]
	mov	eax, DWORD PTR __Myboff$[ebp]
	lea	ecx, DWORD PTR [edx+eax*4]
	push	ecx
	mov	edx, DWORD PTR _this$[ebp]
	mov	eax, DWORD PTR [edx+16]
	push	eax
	call	??$unchecked_uninitialized_copy@PAPAUInputEvent@Ogre@@PAPAU12@V?$allocator@PAUInputEvent@Ogre@@@std@@@stdext@@YAPAPAUInputEvent@Ogre@@PAPAU12@00AAV?$allocator@PAUInputEvent@Ogre@@@std@@@Z ; stdext::unchecked_uninitialized_copy<Ogre::InputEvent * *,Ogre::InputEvent * *,std::allocator<Ogre::InputEvent *> >
	add	esp, 16					; 00000010H
	mov	DWORD PTR __Myptr$[ebp], eax

; 1244 : 			_STDEXT unchecked_uninitialized_fill_n(_Myptr, _Count - _Myboff,
; 1245 : 				(_Tptr)0, this->_Almap);	// clear suffix of new

	mov	DWORD PTR $T125655[ebp], 0
	mov	ecx, DWORD PTR _this$[ebp]
	add	ecx, 8
	push	ecx
	lea	edx, DWORD PTR $T125655[ebp]
	push	edx
	mov	eax, DWORD PTR __Count$[ebp]
	sub	eax, DWORD PTR __Myboff$[ebp]
	push	eax
	mov	ecx, DWORD PTR __Myptr$[ebp]
	push	ecx
	call	??$unchecked_uninitialized_fill_n@PAPAUInputEvent@Ogre@@IPAU12@V?$allocator@PAUInputEvent@Ogre@@@std@@@stdext@@YAXPAPAUInputEvent@Ogre@@IABQAU12@AAV?$allocator@PAUInputEvent@Ogre@@@std@@@Z ; stdext::unchecked_uninitialized_fill_n<Ogre::InputEvent * *,unsigned int,Ogre::InputEvent *,std::allocator<Ogre::InputEvent *> >
	add	esp, 16					; 00000010H

; 1246 : 			_STDEXT unchecked_uninitialized_fill_n(_Newmap, _Myboff,
; 1247 : 				(_Tptr)0, this->_Almap);	// clear prefix of new

	mov	DWORD PTR $T125656[ebp], 0
	mov	edx, DWORD PTR _this$[ebp]
	add	edx, 8
	push	edx
	lea	eax, DWORD PTR $T125656[ebp]
	push	eax
	mov	ecx, DWORD PTR __Myboff$[ebp]
	push	ecx
	mov	edx, DWORD PTR __Newmap$[ebp]
	push	edx
	call	??$unchecked_uninitialized_fill_n@PAPAUInputEvent@Ogre@@IPAU12@V?$allocator@PAUInputEvent@Ogre@@@std@@@stdext@@YAXPAPAUInputEvent@Ogre@@IABQAU12@AAV?$allocator@PAUInputEvent@Ogre@@@std@@@Z ; stdext::unchecked_uninitialized_fill_n<Ogre::InputEvent * *,unsigned int,Ogre::InputEvent *,std::allocator<Ogre::InputEvent *> >
	add	esp, 16					; 00000010H

; 1248 : 			}
; 1249 : 		else

	jmp	SHORT $LN2@Growmap
$LN3@Growmap:

; 1250 : 			{	// increment not greater than offset of initial block
; 1251 : 			_STDEXT unchecked_uninitialized_copy(_Map,
; 1252 : 				_Map + _Count, _Myptr, this->_Almap);	// copy more old

	mov	eax, DWORD PTR _this$[ebp]
	add	eax, 8
	push	eax
	mov	ecx, DWORD PTR __Myptr$[ebp]
	push	ecx
	mov	edx, DWORD PTR _this$[ebp]
	mov	eax, DWORD PTR [edx+16]
	mov	ecx, DWORD PTR __Count$[ebp]
	lea	edx, DWORD PTR [eax+ecx*4]
	push	edx
	mov	eax, DWORD PTR _this$[ebp]
	mov	ecx, DWORD PTR [eax+16]
	push	ecx
	call	??$unchecked_uninitialized_copy@PAPAUInputEvent@Ogre@@PAPAU12@V?$allocator@PAUInputEvent@Ogre@@@std@@@stdext@@YAPAPAUInputEvent@Ogre@@PAPAU12@00AAV?$allocator@PAUInputEvent@Ogre@@@std@@@Z ; stdext::unchecked_uninitialized_copy<Ogre::InputEvent * *,Ogre::InputEvent * *,std::allocator<Ogre::InputEvent *> >
	add	esp, 16					; 00000010H

; 1253 : 			_Myptr = _STDEXT unchecked_uninitialized_copy(_Map + _Count,
; 1254 : 				_Map + _Myboff, _Newmap, this->_Almap);	// copy rest of old

	mov	edx, DWORD PTR _this$[ebp]
	add	edx, 8
	push	edx
	mov	eax, DWORD PTR __Newmap$[ebp]
	push	eax
	mov	ecx, DWORD PTR _this$[ebp]
	mov	edx, DWORD PTR [ecx+16]
	mov	eax, DWORD PTR __Myboff$[ebp]
	lea	ecx, DWORD PTR [edx+eax*4]
	push	ecx
	mov	edx, DWORD PTR _this$[ebp]
	mov	eax, DWORD PTR [edx+16]
	mov	ecx, DWORD PTR __Count$[ebp]
	lea	edx, DWORD PTR [eax+ecx*4]
	push	edx
	call	??$unchecked_uninitialized_copy@PAPAUInputEvent@Ogre@@PAPAU12@V?$allocator@PAUInputEvent@Ogre@@@std@@@stdext@@YAPAPAUInputEvent@Ogre@@PAPAU12@00AAV?$allocator@PAUInputEvent@Ogre@@@std@@@Z ; stdext::unchecked_uninitialized_copy<Ogre::InputEvent * *,Ogre::InputEvent * *,std::allocator<Ogre::InputEvent *> >
	add	esp, 16					; 00000010H
	mov	DWORD PTR __Myptr$[ebp], eax

; 1255 : 			_STDEXT unchecked_uninitialized_fill_n(_Myptr, _Count,
; 1256 : 				(_Tptr)0, this->_Almap);	// clear rest to initial block

	mov	DWORD PTR $T125657[ebp], 0
	mov	eax, DWORD PTR _this$[ebp]
	add	eax, 8
	push	eax
	lea	ecx, DWORD PTR $T125657[ebp]
	push	ecx
	mov	edx, DWORD PTR __Count$[ebp]
	push	edx
	mov	eax, DWORD PTR __Myptr$[ebp]
	push	eax
	call	??$unchecked_uninitialized_fill_n@PAPAUInputEvent@Ogre@@IPAU12@V?$allocator@PAUInputEvent@Ogre@@@std@@@stdext@@YAXPAPAUInputEvent@Ogre@@IABQAU12@AAV?$allocator@PAUInputEvent@Ogre@@@std@@@Z ; stdext::unchecked_uninitialized_fill_n<Ogre::InputEvent * *,unsigned int,Ogre::InputEvent *,std::allocator<Ogre::InputEvent *> >
	add	esp, 16					; 00000010H
$LN2@Growmap:

; 1257 : 			}
; 1258 : 
; 1259 : 		_Destroy_range(_Map + _Myboff, _Map + _Mapsize, this->_Almap);

	mov	ecx, DWORD PTR _this$[ebp]
	add	ecx, 8
	push	ecx
	mov	edx, DWORD PTR _this$[ebp]
	mov	eax, DWORD PTR [edx+20]
	mov	ecx, DWORD PTR _this$[ebp]
	mov	edx, DWORD PTR [ecx+16]
	lea	eax, DWORD PTR [edx+eax*4]
	push	eax
	mov	ecx, DWORD PTR _this$[ebp]
	mov	edx, DWORD PTR [ecx+16]
	mov	eax, DWORD PTR __Myboff$[ebp]
	lea	ecx, DWORD PTR [edx+eax*4]
	push	ecx
	call	??$_Destroy_range@V?$allocator@PAUInputEvent@Ogre@@@std@@@std@@YAXPAPAUInputEvent@Ogre@@0AAV?$allocator@PAUInputEvent@Ogre@@@0@@Z ; std::_Destroy_range<std::allocator<Ogre::InputEvent *> >
	add	esp, 12					; 0000000cH

; 1260 : 		if (_Map)

	mov	edx, DWORD PTR _this$[ebp]
	cmp	DWORD PTR [edx+16], 0
	je	SHORT $LN1@Growmap

; 1261 : 			this->_Almap.deallocate(_Map, _Mapsize);	// free storage for old

	mov	eax, DWORD PTR _this$[ebp]
	mov	ecx, DWORD PTR [eax+20]
	push	ecx
	mov	edx, DWORD PTR _this$[ebp]
	mov	eax, DWORD PTR [edx+16]
	push	eax
	mov	ecx, DWORD PTR _this$[ebp]
	add	ecx, 8
	call	?deallocate@?$allocator@PAUInputEvent@Ogre@@@std@@QAEXPAPAUInputEvent@Ogre@@I@Z ; std::allocator<Ogre::InputEvent *>::deallocate
$LN1@Growmap:

; 1262 : 
; 1263 : 		_Map = _Newmap;	// point at new

	mov	ecx, DWORD PTR _this$[ebp]
	mov	edx, DWORD PTR __Newmap$[ebp]
	mov	DWORD PTR [ecx+16], edx

; 1264 : 		_Mapsize += _Count;

	mov	eax, DWORD PTR _this$[ebp]
	mov	ecx, DWORD PTR [eax+20]
	add	ecx, DWORD PTR __Count$[ebp]
	mov	edx, DWORD PTR _this$[ebp]
	mov	DWORD PTR [edx+20], ecx

; 1265 : 		}

	mov	esp, ebp
	pop	ebp
	ret	4
?_Growmap@?$deque@UInputEvent@Ogre@@V?$allocator@UInputEvent@Ogre@@@std@@@std@@IAEXI@Z ENDP ; std::deque<Ogre::InputEvent,std::allocator<Ogre::InputEvent> >::_Growmap
_TEXT	ENDS
PUBLIC	?destroy@?$allocator@PAUInputEvent@Ogre@@@std@@QAEXPAPAUInputEvent@Ogre@@@Z ; std::allocator<Ogre::InputEvent *>::destroy
PUBLIC	?deallocate@?$allocator@UInputEvent@Ogre@@@std@@QAEXPAUInputEvent@Ogre@@I@Z ; std::allocator<Ogre::InputEvent>::deallocate
PUBLIC	?empty@?$deque@UInputEvent@Ogre@@V?$allocator@UInputEvent@Ogre@@@std@@@std@@QBE_NXZ ; std::deque<Ogre::InputEvent,std::allocator<Ogre::InputEvent> >::empty
; Function compile flags: /Odtp
;	COMDAT ?_Tidy@?$deque@UInputEvent@Ogre@@V?$allocator@UInputEvent@Ogre@@@std@@@std@@IAEXXZ
_TEXT	SEGMENT
_this$ = -8						; size = 4
__Count$120693 = -4					; size = 4
?_Tidy@?$deque@UInputEvent@Ogre@@V?$allocator@UInputEvent@Ogre@@@std@@@std@@IAEXXZ PROC ; std::deque<Ogre::InputEvent,std::allocator<Ogre::InputEvent> >::_Tidy, COMDAT
; _this$ = ecx

; 1268 : 		{	// free all storage

	push	ebp
	mov	ebp, esp
	sub	esp, 8
	mov	DWORD PTR _this$[ebp], ecx
$LN6@Tidy:

; 1269 : 		while (!empty())

	mov	ecx, DWORD PTR _this$[ebp]
	call	?empty@?$deque@UInputEvent@Ogre@@V?$allocator@UInputEvent@Ogre@@@std@@@std@@QBE_NXZ ; std::deque<Ogre::InputEvent,std::allocator<Ogre::InputEvent> >::empty
	movzx	eax, al
	test	eax, eax
	jne	SHORT $LN5@Tidy

; 1270 : 			pop_back();

	mov	ecx, DWORD PTR _this$[ebp]
	call	?pop_back@?$deque@UInputEvent@Ogre@@V?$allocator@UInputEvent@Ogre@@@std@@@std@@QAEXXZ ; std::deque<Ogre::InputEvent,std::allocator<Ogre::InputEvent> >::pop_back
	jmp	SHORT $LN6@Tidy
$LN5@Tidy:

; 1271 : 		for (size_type _Count = _Mapsize; 0 < _Count; )

	mov	ecx, DWORD PTR _this$[ebp]
	mov	edx, DWORD PTR [ecx+20]
	mov	DWORD PTR __Count$120693[ebp], edx
$LN4@Tidy:
	cmp	DWORD PTR __Count$120693[ebp], 0
	jbe	SHORT $LN3@Tidy

; 1272 : 			{	// free storage for a block and destroy pointer
; 1273 : 			if (*(_Map + --_Count) != 0)

	mov	eax, DWORD PTR __Count$120693[ebp]
	sub	eax, 1
	mov	DWORD PTR __Count$120693[ebp], eax
	mov	ecx, DWORD PTR _this$[ebp]
	mov	edx, DWORD PTR [ecx+16]
	mov	eax, DWORD PTR __Count$120693[ebp]
	cmp	DWORD PTR [edx+eax*4], 0
	je	SHORT $LN2@Tidy

; 1274 : 				this->_Alval.deallocate(*(_Map + _Count), _DEQUESIZ);

	push	1
	mov	ecx, DWORD PTR _this$[ebp]
	mov	edx, DWORD PTR [ecx+16]
	mov	eax, DWORD PTR __Count$120693[ebp]
	mov	ecx, DWORD PTR [edx+eax*4]
	push	ecx
	mov	ecx, DWORD PTR _this$[ebp]
	add	ecx, 12					; 0000000cH
	call	?deallocate@?$allocator@UInputEvent@Ogre@@@std@@QAEXPAUInputEvent@Ogre@@I@Z ; std::allocator<Ogre::InputEvent>::deallocate
$LN2@Tidy:

; 1275 : 			this->_Almap.destroy(_Map + _Count);

	mov	edx, DWORD PTR _this$[ebp]
	mov	eax, DWORD PTR [edx+16]
	mov	ecx, DWORD PTR __Count$120693[ebp]
	lea	edx, DWORD PTR [eax+ecx*4]
	push	edx
	mov	ecx, DWORD PTR _this$[ebp]
	add	ecx, 8
	call	?destroy@?$allocator@PAUInputEvent@Ogre@@@std@@QAEXPAPAUInputEvent@Ogre@@@Z ; std::allocator<Ogre::InputEvent *>::destroy

; 1276 : 			}

	jmp	SHORT $LN4@Tidy
$LN3@Tidy:

; 1277 : 
; 1278 : 		if (_Map)

	mov	eax, DWORD PTR _this$[ebp]
	cmp	DWORD PTR [eax+16], 0
	je	SHORT $LN1@Tidy

; 1279 : 			this->_Almap.deallocate(_Map, _Mapsize);	// free storage for map

	mov	ecx, DWORD PTR _this$[ebp]
	mov	edx, DWORD PTR [ecx+20]
	push	edx
	mov	eax, DWORD PTR _this$[ebp]
	mov	ecx, DWORD PTR [eax+16]
	push	ecx
	mov	ecx, DWORD PTR _this$[ebp]
	add	ecx, 8
	call	?deallocate@?$allocator@PAUInputEvent@Ogre@@@std@@QAEXPAPAUInputEvent@Ogre@@I@Z ; std::allocator<Ogre::InputEvent *>::deallocate
$LN1@Tidy:

; 1280 : 		_Mapsize = 0;

	mov	edx, DWORD PTR _this$[ebp]
	mov	DWORD PTR [edx+20], 0

; 1281 : 		_Map = 0;

	mov	eax, DWORD PTR _this$[ebp]
	mov	DWORD PTR [eax+16], 0

; 1282 : 		}

	mov	esp, ebp
	pop	ebp
	ret	0
?_Tidy@?$deque@UInputEvent@Ogre@@V?$allocator@UInputEvent@Ogre@@@std@@@std@@IAEXXZ ENDP ; std::deque<Ogre::InputEvent,std::allocator<Ogre::InputEvent> >::_Tidy
_TEXT	ENDS
PUBLIC	??0?$_Deque_map@UInputEvent@Ogre@@V?$allocator@UInputEvent@Ogre@@@std@@@std@@IAE@V?$allocator@UInputEvent@Ogre@@@1@@Z ; std::_Deque_map<Ogre::InputEvent,std::allocator<Ogre::InputEvent> >::_Deque_map<Ogre::InputEvent,std::allocator<Ogre::InputEvent> >
;	COMDAT xdata$x
xdata$x	SEGMENT
__unwindtable$??0?$_Deque_val@UInputEvent@Ogre@@V?$allocator@UInputEvent@Ogre@@@std@@@std@@IAE@V?$allocator@UInputEvent@Ogre@@@1@@Z DD 0ffffffffH
	DD	FLAT:__unwindfunclet$??0?$_Deque_val@UInputEvent@Ogre@@V?$allocator@UInputEvent@Ogre@@@std@@@std@@IAE@V?$allocator@UInputEvent@Ogre@@@1@@Z$0
__ehfuncinfo$??0?$_Deque_val@UInputEvent@Ogre@@V?$allocator@UInputEvent@Ogre@@@std@@@std@@IAE@V?$allocator@UInputEvent@Ogre@@@1@@Z DD 019930522H
	DD	01H
	DD	FLAT:__unwindtable$??0?$_Deque_val@UInputEvent@Ogre@@V?$allocator@UInputEvent@Ogre@@@std@@@std@@IAE@V?$allocator@UInputEvent@Ogre@@@1@@Z
	DD	2 DUP(00H)
	DD	2 DUP(00H)
	DD	00H
	DD	00H
; Function compile flags: /Odtp
xdata$x	ENDS
;	COMDAT ??0?$_Deque_val@UInputEvent@Ogre@@V?$allocator@UInputEvent@Ogre@@@std@@@std@@IAE@V?$allocator@UInputEvent@Ogre@@@1@@Z
_TEXT	SEGMENT
_this$ = -20						; size = 4
$T125662 = -16						; size = 4
__$EHRec$ = -12						; size = 12
__Al$ = 8						; size = 1
??0?$_Deque_val@UInputEvent@Ogre@@V?$allocator@UInputEvent@Ogre@@@std@@@std@@IAE@V?$allocator@UInputEvent@Ogre@@@1@@Z PROC ; std::_Deque_val<Ogre::InputEvent,std::allocator<Ogre::InputEvent> >::_Deque_val<Ogre::InputEvent,std::allocator<Ogre::InputEvent> >, COMDAT
; _this$ = ecx

; 500  : 		{	// construct allocator and base from _Al

	push	ebp
	mov	ebp, esp
	push	-1
	push	__ehhandler$??0?$_Deque_val@UInputEvent@Ogre@@V?$allocator@UInputEvent@Ogre@@@std@@@std@@IAE@V?$allocator@UInputEvent@Ogre@@@1@@Z
	mov	eax, DWORD PTR fs:0
	push	eax
	sub	esp, 8
	mov	eax, DWORD PTR ___security_cookie
	xor	eax, ebp
	push	eax
	lea	eax, DWORD PTR __$EHRec$[ebp]
	mov	DWORD PTR fs:0, eax
	mov	DWORD PTR _this$[ebp], ecx
	push	ecx
	mov	ecx, esp
	mov	DWORD PTR $T125662[ebp], esp
	lea	eax, DWORD PTR __Al$[ebp]
	push	eax
	call	??0?$allocator@UInputEvent@Ogre@@@std@@QAE@ABV01@@Z ; std::allocator<Ogre::InputEvent>::allocator<Ogre::InputEvent>
	mov	ecx, DWORD PTR _this$[ebp]
	call	??0?$_Deque_map@UInputEvent@Ogre@@V?$allocator@UInputEvent@Ogre@@@std@@@std@@IAE@V?$allocator@UInputEvent@Ogre@@@1@@Z ; std::_Deque_map<Ogre::InputEvent,std::allocator<Ogre::InputEvent> >::_Deque_map<Ogre::InputEvent,std::allocator<Ogre::InputEvent> >
	mov	DWORD PTR __$EHRec$[ebp+8], 0
	lea	ecx, DWORD PTR __Al$[ebp]
	push	ecx
	mov	ecx, DWORD PTR _this$[ebp]
	add	ecx, 12					; 0000000cH
	call	??0?$allocator@UInputEvent@Ogre@@@std@@QAE@ABV01@@Z ; std::allocator<Ogre::InputEvent>::allocator<Ogre::InputEvent>

; 501  : 		}

	mov	DWORD PTR __$EHRec$[ebp+8], -1
	mov	eax, DWORD PTR _this$[ebp]
	mov	ecx, DWORD PTR __$EHRec$[ebp]
	mov	DWORD PTR fs:0, ecx
	pop	ecx
	mov	esp, ebp
	pop	ebp
	ret	4
_TEXT	ENDS
;	COMDAT text$x
text$x	SEGMENT
__unwindfunclet$??0?$_Deque_val@UInputEvent@Ogre@@V?$allocator@UInputEvent@Ogre@@@std@@@std@@IAE@V?$allocator@UInputEvent@Ogre@@@1@@Z$0:
	mov	ecx, DWORD PTR _this$[ebp]
	jmp	??1?$_Deque_map@UInputEvent@Ogre@@V?$allocator@UInputEvent@Ogre@@@std@@@std@@QAE@XZ
__ehhandler$??0?$_Deque_val@UInputEvent@Ogre@@V?$allocator@UInputEvent@Ogre@@@std@@@std@@IAE@V?$allocator@UInputEvent@Ogre@@@1@@Z:
	mov	edx, DWORD PTR [esp+8]
	lea	eax, DWORD PTR [edx+12]
	mov	ecx, DWORD PTR [edx-12]
	xor	ecx, eax
	call	@__security_check_cookie@4
	mov	eax, OFFSET __ehfuncinfo$??0?$_Deque_val@UInputEvent@Ogre@@V?$allocator@UInputEvent@Ogre@@@std@@@std@@IAE@V?$allocator@UInputEvent@Ogre@@@1@@Z
	jmp	___CxxFrameHandler3
text$x	ENDS
??0?$_Deque_val@UInputEvent@Ogre@@V?$allocator@UInputEvent@Ogre@@@std@@@std@@IAE@V?$allocator@UInputEvent@Ogre@@@1@@Z ENDP ; std::_Deque_val<Ogre::InputEvent,std::allocator<Ogre::InputEvent> >::_Deque_val<Ogre::InputEvent,std::allocator<Ogre::InputEvent> >
PUBLIC	??1_Container_base_aux@std@@QAE@XZ		; std::_Container_base_aux::~_Container_base_aux
PUBLIC	?deallocate@?$allocator@V_Aux_cont@std@@@std@@QAEXPAV_Aux_cont@2@I@Z ; std::allocator<std::_Aux_cont>::deallocate
;	COMDAT xdata$x
; File d:\program files (x86)\microsoft visual studio 9.0\vc\include\xutility
xdata$x	SEGMENT
__unwindtable$??1?$_Container_base_aux_alloc_real@V?$allocator@UInputEvent@Ogre@@@std@@@std@@IAE@XZ DD 0ffffffffH
	DD	FLAT:__unwindfunclet$??1?$_Container_base_aux_alloc_real@V?$allocator@UInputEvent@Ogre@@@std@@@std@@IAE@XZ$0
__ehfuncinfo$??1?$_Container_base_aux_alloc_real@V?$allocator@UInputEvent@Ogre@@@std@@@std@@IAE@XZ DD 019930522H
	DD	01H
	DD	FLAT:__unwindtable$??1?$_Container_base_aux_alloc_real@V?$allocator@UInputEvent@Ogre@@@std@@@std@@IAE@XZ
	DD	2 DUP(00H)
	DD	2 DUP(00H)
	DD	00H
	DD	00H
; Function compile flags: /Odtp
xdata$x	ENDS
;	COMDAT ??1?$_Container_base_aux_alloc_real@V?$allocator@UInputEvent@Ogre@@@std@@@std@@IAE@XZ
_TEXT	SEGMENT
_this$ = -16						; size = 4
__$EHRec$ = -12						; size = 12
??1?$_Container_base_aux_alloc_real@V?$allocator@UInputEvent@Ogre@@@std@@@std@@IAE@XZ PROC ; std::_Container_base_aux_alloc_real<std::allocator<Ogre::InputEvent> >::~_Container_base_aux_alloc_real<std::allocator<Ogre::InputEvent> >, COMDAT
; _this$ = ecx

; 436  : 		{

	push	ebp
	mov	ebp, esp
	push	-1
	push	__ehhandler$??1?$_Container_base_aux_alloc_real@V?$allocator@UInputEvent@Ogre@@@std@@@std@@IAE@XZ
	mov	eax, DWORD PTR fs:0
	push	eax
	push	ecx
	mov	eax, DWORD PTR ___security_cookie
	xor	eax, ebp
	push	eax
	lea	eax, DWORD PTR __$EHRec$[ebp]
	mov	DWORD PTR fs:0, eax
	mov	DWORD PTR _this$[ebp], ecx
	mov	DWORD PTR __$EHRec$[ebp+8], 0

; 437  : 		_Myownedaux->~_Aux_cont();
; 438  : 
; 439  : 		_Alaux.deallocate(_Myownedaux, 1);

	push	1
	mov	eax, DWORD PTR _this$[ebp]
	mov	ecx, DWORD PTR [eax]
	push	ecx
	mov	ecx, DWORD PTR _this$[ebp]
	add	ecx, 4
	call	?deallocate@?$allocator@V_Aux_cont@std@@@std@@QAEXPAV_Aux_cont@2@I@Z ; std::allocator<std::_Aux_cont>::deallocate

; 440  : 		}

	mov	DWORD PTR __$EHRec$[ebp+8], -1
	mov	ecx, DWORD PTR _this$[ebp]
	call	??1_Container_base_aux@std@@QAE@XZ	; std::_Container_base_aux::~_Container_base_aux
	mov	ecx, DWORD PTR __$EHRec$[ebp]
	mov	DWORD PTR fs:0, ecx
	pop	ecx
	mov	esp, ebp
	pop	ebp
	ret	0
_TEXT	ENDS
;	COMDAT text$x
text$x	SEGMENT
__unwindfunclet$??1?$_Container_base_aux_alloc_real@V?$allocator@UInputEvent@Ogre@@@std@@@std@@IAE@XZ$0:
	mov	ecx, DWORD PTR _this$[ebp]
	jmp	??1_Container_base_aux@std@@QAE@XZ	; std::_Container_base_aux::~_Container_base_aux
__ehhandler$??1?$_Container_base_aux_alloc_real@V?$allocator@UInputEvent@Ogre@@@std@@@std@@IAE@XZ:
	mov	edx, DWORD PTR [esp+8]
	lea	eax, DWORD PTR [edx+12]
	mov	ecx, DWORD PTR [edx-8]
	xor	ecx, eax
	call	@__security_check_cookie@4
	mov	eax, OFFSET __ehfuncinfo$??1?$_Container_base_aux_alloc_real@V?$allocator@UInputEvent@Ogre@@@std@@@std@@IAE@XZ
	jmp	___CxxFrameHandler3
text$x	ENDS
??1?$_Container_base_aux_alloc_real@V?$allocator@UInputEvent@Ogre@@@std@@@std@@IAE@XZ ENDP ; std::_Container_base_aux_alloc_real<std::allocator<Ogre::InputEvent> >::~_Container_base_aux_alloc_real<std::allocator<Ogre::InputEvent> >
; Function compile flags: /Odtp
;	COMDAT ??1_Container_base_aux@std@@QAE@XZ
_TEXT	SEGMENT
_this$ = -4						; size = 4
??1_Container_base_aux@std@@QAE@XZ PROC			; std::_Container_base_aux::~_Container_base_aux, COMDAT
; _this$ = ecx

; 402  : 		{

	push	ebp
	mov	ebp, esp
	push	ecx
	mov	DWORD PTR _this$[ebp], ecx

; 403  : 		// Do nothing: ~_Container_base_aux_alloc_real() previously destroyed the aux object.
; 404  : 		}

	mov	esp, ebp
	pop	ebp
	ret	0
??1_Container_base_aux@std@@QAE@XZ ENDP			; std::_Container_base_aux::~_Container_base_aux
; Function compile flags: /Odtp
; File d:\program files (x86)\microsoft visual studio 9.0\vc\include\xmemory
_TEXT	ENDS
;	COMDAT ??0?$allocator@UInputEvent@Ogre@@@std@@QAE@XZ
_TEXT	SEGMENT
_this$ = -4						; size = 4
??0?$allocator@UInputEvent@Ogre@@@std@@QAE@XZ PROC	; std::allocator<Ogre::InputEvent>::allocator<Ogre::InputEvent>, COMDAT
; _this$ = ecx

; 119  : 	allocator() _THROW0()

	push	ebp
	mov	ebp, esp
	push	ecx
	mov	DWORD PTR _this$[ebp], ecx

; 120  : 		{	// construct default allocator (do nothing)
; 121  : 		}

	mov	eax, DWORD PTR _this$[ebp]
	mov	esp, ebp
	pop	ebp
	ret	0
??0?$allocator@UInputEvent@Ogre@@@std@@QAE@XZ ENDP	; std::allocator<Ogre::InputEvent>::allocator<Ogre::InputEvent>
; Function compile flags: /Odtp
_TEXT	ENDS
;	COMDAT ??0?$allocator@UInputEvent@Ogre@@@std@@QAE@ABV01@@Z
_TEXT	SEGMENT
_this$ = -4						; size = 4
___formal$ = 8						; size = 4
??0?$allocator@UInputEvent@Ogre@@@std@@QAE@ABV01@@Z PROC ; std::allocator<Ogre::InputEvent>::allocator<Ogre::InputEvent>, COMDAT
; _this$ = ecx

; 123  : 	allocator(const allocator<_Ty>&) _THROW0()

	push	ebp
	mov	ebp, esp
	push	ecx
	mov	DWORD PTR _this$[ebp], ecx

; 124  : 		{	// construct by copying (do nothing)
; 125  : 		}

	mov	eax, DWORD PTR _this$[ebp]
	mov	esp, ebp
	pop	ebp
	ret	4
??0?$allocator@UInputEvent@Ogre@@@std@@QAE@ABV01@@Z ENDP ; std::allocator<Ogre::InputEvent>::allocator<Ogre::InputEvent>
_TEXT	ENDS
PUBLIC	??$_Allocate@UInputEvent@Ogre@@@std@@YAPAUInputEvent@Ogre@@IPAU12@@Z ; std::_Allocate<Ogre::InputEvent>
; Function compile flags: /Odtp
;	COMDAT ?allocate@?$allocator@UInputEvent@Ogre@@@std@@QAEPAUInputEvent@Ogre@@I@Z
_TEXT	SEGMENT
_this$ = -4						; size = 4
__Count$ = 8						; size = 4
?allocate@?$allocator@UInputEvent@Ogre@@@std@@QAEPAUInputEvent@Ogre@@I@Z PROC ; std::allocator<Ogre::InputEvent>::allocate, COMDAT
; _this$ = ecx

; 144  : 		{	// allocate array of _Count elements

	push	ebp
	mov	ebp, esp
	push	ecx
	mov	DWORD PTR _this$[ebp], ecx

; 145  : 		return (_Allocate(_Count, (pointer)0));

	push	0
	mov	eax, DWORD PTR __Count$[ebp]
	push	eax
	call	??$_Allocate@UInputEvent@Ogre@@@std@@YAPAUInputEvent@Ogre@@IPAU12@@Z ; std::_Allocate<Ogre::InputEvent>
	add	esp, 8

; 146  : 		}

	mov	esp, ebp
	pop	ebp
	ret	4
?allocate@?$allocator@UInputEvent@Ogre@@@std@@QAEPAUInputEvent@Ogre@@I@Z ENDP ; std::allocator<Ogre::InputEvent>::allocate
_TEXT	ENDS
PUBLIC	??$_Construct@UInputEvent@Ogre@@U12@@std@@YAXPAUInputEvent@Ogre@@ABU12@@Z ; std::_Construct<Ogre::InputEvent,Ogre::InputEvent>
; Function compile flags: /Odtp
;	COMDAT ?construct@?$allocator@UInputEvent@Ogre@@@std@@QAEXPAUInputEvent@Ogre@@ABU34@@Z
_TEXT	SEGMENT
_this$ = -4						; size = 4
__Ptr$ = 8						; size = 4
__Val$ = 12						; size = 4
?construct@?$allocator@UInputEvent@Ogre@@@std@@QAEXPAUInputEvent@Ogre@@ABU34@@Z PROC ; std::allocator<Ogre::InputEvent>::construct, COMDAT
; _this$ = ecx

; 154  : 		{	// construct object at _Ptr with value _Val

	push	ebp
	mov	ebp, esp
	push	ecx
	mov	DWORD PTR _this$[ebp], ecx

; 155  : 		_Construct(_Ptr, _Val);

	mov	eax, DWORD PTR __Val$[ebp]
	push	eax
	mov	ecx, DWORD PTR __Ptr$[ebp]
	push	ecx
	call	??$_Construct@UInputEvent@Ogre@@U12@@std@@YAXPAUInputEvent@Ogre@@ABU12@@Z ; std::_Construct<Ogre::InputEvent,Ogre::InputEvent>
	add	esp, 8

; 156  : 		}

	mov	esp, ebp
	pop	ebp
	ret	8
?construct@?$allocator@UInputEvent@Ogre@@@std@@QAEXPAUInputEvent@Ogre@@ABU34@@Z ENDP ; std::allocator<Ogre::InputEvent>::construct
; Function compile flags: /Odtp
; File d:\program files (x86)\microsoft visual studio 9.0\vc\include\vector
_TEXT	ENDS
;	COMDAT ?capacity@?$vector@PAVInputHandler@Ogre@@V?$allocator@PAVInputHandler@Ogre@@@std@@@std@@QBEIXZ
_TEXT	SEGMENT
tv70 = -8						; size = 4
_this$ = -4						; size = 4
?capacity@?$vector@PAVInputHandler@Ogre@@V?$allocator@PAVInputHandler@Ogre@@@std@@@std@@QBEIXZ PROC ; std::vector<Ogre::InputHandler *,std::allocator<Ogre::InputHandler *> >::capacity, COMDAT
; _this$ = ecx

; 634  : 		{	// return current length of allocated storage

	push	ebp
	mov	ebp, esp
	sub	esp, 8
	mov	DWORD PTR _this$[ebp], ecx

; 635  : 		return (_Myfirst == 0 ? 0 : _Myend - _Myfirst);

	mov	eax, DWORD PTR _this$[ebp]
	cmp	DWORD PTR [eax+12], 0
	jne	SHORT $LN3@capacity
	mov	DWORD PTR tv70[ebp], 0
	jmp	SHORT $LN4@capacity
$LN3@capacity:
	mov	ecx, DWORD PTR _this$[ebp]
	mov	edx, DWORD PTR _this$[ebp]
	mov	eax, DWORD PTR [ecx+20]
	sub	eax, DWORD PTR [edx+12]
	sar	eax, 2
	mov	DWORD PTR tv70[ebp], eax
$LN4@capacity:
	mov	eax, DWORD PTR tv70[ebp]

; 636  : 		}

	mov	esp, ebp
	pop	ebp
	ret	0
?capacity@?$vector@PAVInputHandler@Ogre@@V?$allocator@PAVInputHandler@Ogre@@@std@@@std@@QBEIXZ ENDP ; std::vector<Ogre::InputHandler *,std::allocator<Ogre::InputHandler *> >::capacity
_TEXT	ENDS
PUBLIC	??0?$_Vector_const_iterator@PAVInputHandler@Ogre@@V?$allocator@PAVInputHandler@Ogre@@@std@@@std@@QAE@PAPAVInputHandler@Ogre@@PBV_Container_base_aux@1@@Z ; std::_Vector_const_iterator<Ogre::InputHandler *,std::allocator<Ogre::InputHandler *> >::_Vector_const_iterator<Ogre::InputHandler *,std::allocator<Ogre::InputHandler *> >
; Function compile flags: /Odtp
;	COMDAT ?begin@?$vector@PAVInputHandler@Ogre@@V?$allocator@PAVInputHandler@Ogre@@@std@@@std@@QBE?AV?$_Vector_const_iterator@PAVInputHandler@Ogre@@V?$allocator@PAVInputHandler@Ogre@@@std@@@2@XZ
_TEXT	SEGMENT
_this$ = -4						; size = 4
___$ReturnUdt$ = 8					; size = 4
?begin@?$vector@PAVInputHandler@Ogre@@V?$allocator@PAVInputHandler@Ogre@@@std@@@std@@QBE?AV?$_Vector_const_iterator@PAVInputHandler@Ogre@@V?$allocator@PAVInputHandler@Ogre@@@std@@@2@XZ PROC ; std::vector<Ogre::InputHandler *,std::allocator<Ogre::InputHandler *> >::begin, COMDAT
; _this$ = ecx

; 645  : 		{	// return iterator for beginning of nonmutable sequence

	push	ebp
	mov	ebp, esp
	push	ecx
	mov	DWORD PTR _this$[ebp], ecx

; 646  : 		return (const_iterator(_Myfirst, this));

	mov	eax, DWORD PTR _this$[ebp]
	push	eax
	mov	ecx, DWORD PTR _this$[ebp]
	mov	edx, DWORD PTR [ecx+12]
	push	edx
	mov	ecx, DWORD PTR ___$ReturnUdt$[ebp]
	call	??0?$_Vector_const_iterator@PAVInputHandler@Ogre@@V?$allocator@PAVInputHandler@Ogre@@@std@@@std@@QAE@PAPAVInputHandler@Ogre@@PBV_Container_base_aux@1@@Z ; std::_Vector_const_iterator<Ogre::InputHandler *,std::allocator<Ogre::InputHandler *> >::_Vector_const_iterator<Ogre::InputHandler *,std::allocator<Ogre::InputHandler *> >
	mov	eax, DWORD PTR ___$ReturnUdt$[ebp]

; 647  : 		}

	mov	esp, ebp
	pop	ebp
	ret	4
?begin@?$vector@PAVInputHandler@Ogre@@V?$allocator@PAVInputHandler@Ogre@@@std@@@std@@QBE?AV?$_Vector_const_iterator@PAVInputHandler@Ogre@@V?$allocator@PAVInputHandler@Ogre@@@std@@@2@XZ ENDP ; std::vector<Ogre::InputHandler *,std::allocator<Ogre::InputHandler *> >::begin
_TEXT	ENDS
PUBLIC	??0?$_Vector_iterator@PAVInputHandler@Ogre@@V?$allocator@PAVInputHandler@Ogre@@@std@@@std@@QAE@PAPAVInputHandler@Ogre@@PBV_Container_base_aux@1@@Z ; std::_Vector_iterator<Ogre::InputHandler *,std::allocator<Ogre::InputHandler *> >::_Vector_iterator<Ogre::InputHandler *,std::allocator<Ogre::InputHandler *> >
; Function compile flags: /Odtp
;	COMDAT ?end@?$vector@PAVInputHandler@Ogre@@V?$allocator@PAVInputHandler@Ogre@@@std@@@std@@QAE?AV?$_Vector_iterator@PAVInputHandler@Ogre@@V?$allocator@PAVInputHandler@Ogre@@@std@@@2@XZ
_TEXT	SEGMENT
_this$ = -4						; size = 4
___$ReturnUdt$ = 8					; size = 4
?end@?$vector@PAVInputHandler@Ogre@@V?$allocator@PAVInputHandler@Ogre@@@std@@@std@@QAE?AV?$_Vector_iterator@PAVInputHandler@Ogre@@V?$allocator@PAVInputHandler@Ogre@@@std@@@2@XZ PROC ; std::vector<Ogre::InputHandler *,std::allocator<Ogre::InputHandler *> >::end, COMDAT
; _this$ = ecx

; 650  : 		{	// return iterator for end of mutable sequence

	push	ebp
	mov	ebp, esp
	push	ecx
	mov	DWORD PTR _this$[ebp], ecx

; 651  : 		return (iterator(_Mylast, this));

	mov	eax, DWORD PTR _this$[ebp]
	push	eax
	mov	ecx, DWORD PTR _this$[ebp]
	mov	edx, DWORD PTR [ecx+16]
	push	edx
	mov	ecx, DWORD PTR ___$ReturnUdt$[ebp]
	call	??0?$_Vector_iterator@PAVInputHandler@Ogre@@V?$allocator@PAVInputHandler@Ogre@@@std@@@std@@QAE@PAPAVInputHandler@Ogre@@PBV_Container_base_aux@1@@Z ; std::_Vector_iterator<Ogre::InputHandler *,std::allocator<Ogre::InputHandler *> >::_Vector_iterator<Ogre::InputHandler *,std::allocator<Ogre::InputHandler *> >
	mov	eax, DWORD PTR ___$ReturnUdt$[ebp]

; 652  : 		}

	mov	esp, ebp
	pop	ebp
	ret	4
?end@?$vector@PAVInputHandler@Ogre@@V?$allocator@PAVInputHandler@Ogre@@@std@@@std@@QAE?AV?$_Vector_iterator@PAVInputHandler@Ogre@@V?$allocator@PAVInputHandler@Ogre@@@std@@@2@XZ ENDP ; std::vector<Ogre::InputHandler *,std::allocator<Ogre::InputHandler *> >::end
; Function compile flags: /Odtp
_TEXT	ENDS
;	COMDAT ?end@?$vector@PAVInputHandler@Ogre@@V?$allocator@PAVInputHandler@Ogre@@@std@@@std@@QBE?AV?$_Vector_const_iterator@PAVInputHandler@Ogre@@V?$allocator@PAVInputHandler@Ogre@@@std@@@2@XZ
_TEXT	SEGMENT
_this$ = -4						; size = 4
___$ReturnUdt$ = 8					; size = 4
?end@?$vector@PAVInputHandler@Ogre@@V?$allocator@PAVInputHandler@Ogre@@@std@@@std@@QBE?AV?$_Vector_const_iterator@PAVInputHandler@Ogre@@V?$allocator@PAVInputHandler@Ogre@@@std@@@2@XZ PROC ; std::vector<Ogre::InputHandler *,std::allocator<Ogre::InputHandler *> >::end, COMDAT
; _this$ = ecx

; 655  : 		{	// return iterator for end of nonmutable sequence

	push	ebp
	mov	ebp, esp
	push	ecx
	mov	DWORD PTR _this$[ebp], ecx

; 656  : 		return (const_iterator(_Mylast, this));

	mov	eax, DWORD PTR _this$[ebp]
	push	eax
	mov	ecx, DWORD PTR _this$[ebp]
	mov	edx, DWORD PTR [ecx+16]
	push	edx
	mov	ecx, DWORD PTR ___$ReturnUdt$[ebp]
	call	??0?$_Vector_const_iterator@PAVInputHandler@Ogre@@V?$allocator@PAVInputHandler@Ogre@@@std@@@std@@QAE@PAPAVInputHandler@Ogre@@PBV_Container_base_aux@1@@Z ; std::_Vector_const_iterator<Ogre::InputHandler *,std::allocator<Ogre::InputHandler *> >::_Vector_const_iterator<Ogre::InputHandler *,std::allocator<Ogre::InputHandler *> >
	mov	eax, DWORD PTR ___$ReturnUdt$[ebp]

; 657  : 		}

	mov	esp, ebp
	pop	ebp
	ret	4
?end@?$vector@PAVInputHandler@Ogre@@V?$allocator@PAVInputHandler@Ogre@@@std@@@std@@QBE?AV?$_Vector_const_iterator@PAVInputHandler@Ogre@@V?$allocator@PAVInputHandler@Ogre@@@std@@@2@XZ ENDP ; std::vector<Ogre::InputHandler *,std::allocator<Ogre::InputHandler *> >::end
_TEXT	ENDS
PUBLIC	??H?$_Vector_iterator@PAVInputHandler@Ogre@@V?$allocator@PAVInputHandler@Ogre@@@std@@@std@@QBE?AV01@H@Z ; std::_Vector_iterator<Ogre::InputHandler *,std::allocator<Ogre::InputHandler *> >::operator+
PUBLIC	?_Insert_n@?$vector@PAVInputHandler@Ogre@@V?$allocator@PAVInputHandler@Ogre@@@std@@@std@@IAEXV?$_Vector_const_iterator@PAVInputHandler@Ogre@@V?$allocator@PAVInputHandler@Ogre@@@std@@@2@IABQAVInputHandler@Ogre@@@Z ; std::vector<Ogre::InputHandler *,std::allocator<Ogre::InputHandler *> >::_Insert_n
PUBLIC	??G?$_Vector_const_iterator@PAVInputHandler@Ogre@@V?$allocator@PAVInputHandler@Ogre@@@std@@@std@@QBEHABV01@@Z ; std::_Vector_const_iterator<Ogre::InputHandler *,std::allocator<Ogre::InputHandler *> >::operator-
PUBLIC	?begin@?$vector@PAVInputHandler@Ogre@@V?$allocator@PAVInputHandler@Ogre@@@std@@@std@@QAE?AV?$_Vector_iterator@PAVInputHandler@Ogre@@V?$allocator@PAVInputHandler@Ogre@@@std@@@2@XZ ; std::vector<Ogre::InputHandler *,std::allocator<Ogre::InputHandler *> >::begin
; Function compile flags: /Odtp
;	COMDAT ?insert@?$vector@PAVInputHandler@Ogre@@V?$allocator@PAVInputHandler@Ogre@@@std@@@std@@QAE?AV?$_Vector_iterator@PAVInputHandler@Ogre@@V?$allocator@PAVInputHandler@Ogre@@@std@@@2@V?$_Vector_const_iterator@PAVInputHandler@Ogre@@V?$allocator@PAVInputHandler@Ogre@@@std@@@2@ABQAVInputHandler@Ogre@@@Z
_TEXT	SEGMENT
tv77 = -28						; size = 4
_this$ = -24						; size = 4
$T125704 = -20						; size = 8
$T125701 = -12						; size = 8
__Off$ = -4						; size = 4
___$ReturnUdt$ = 8					; size = 4
__Where$ = 12						; size = 8
__Val$ = 20						; size = 4
?insert@?$vector@PAVInputHandler@Ogre@@V?$allocator@PAVInputHandler@Ogre@@@std@@@std@@QAE?AV?$_Vector_iterator@PAVInputHandler@Ogre@@V?$allocator@PAVInputHandler@Ogre@@@std@@@2@V?$_Vector_const_iterator@PAVInputHandler@Ogre@@V?$allocator@PAVInputHandler@Ogre@@@std@@@2@ABQAVInputHandler@Ogre@@@Z PROC ; std::vector<Ogre::InputHandler *,std::allocator<Ogre::InputHandler *> >::insert, COMDAT
; _this$ = ecx

; 875  : 		{	// insert _Val at _Where

	push	ebp
	mov	ebp, esp
	sub	esp, 28					; 0000001cH
	mov	DWORD PTR _this$[ebp], ecx

; 876  : 		size_type _Off = size() == 0 ? 0 : _Where - begin();

	mov	ecx, DWORD PTR _this$[ebp]
	call	?size@?$vector@PAVInputHandler@Ogre@@V?$allocator@PAVInputHandler@Ogre@@@std@@@std@@QBEIXZ ; std::vector<Ogre::InputHandler *,std::allocator<Ogre::InputHandler *> >::size
	test	eax, eax
	jne	SHORT $LN3@insert
	mov	DWORD PTR tv77[ebp], 0
	jmp	SHORT $LN4@insert
$LN3@insert:
	lea	eax, DWORD PTR $T125701[ebp]
	push	eax
	mov	ecx, DWORD PTR _this$[ebp]
	call	?begin@?$vector@PAVInputHandler@Ogre@@V?$allocator@PAVInputHandler@Ogre@@@std@@@std@@QAE?AV?$_Vector_iterator@PAVInputHandler@Ogre@@V?$allocator@PAVInputHandler@Ogre@@@std@@@2@XZ ; std::vector<Ogre::InputHandler *,std::allocator<Ogre::InputHandler *> >::begin
	push	eax
	lea	ecx, DWORD PTR __Where$[ebp]
	call	??G?$_Vector_const_iterator@PAVInputHandler@Ogre@@V?$allocator@PAVInputHandler@Ogre@@@std@@@std@@QBEHABV01@@Z ; std::_Vector_const_iterator<Ogre::InputHandler *,std::allocator<Ogre::InputHandler *> >::operator-
	mov	DWORD PTR tv77[ebp], eax
$LN4@insert:
	mov	ecx, DWORD PTR tv77[ebp]
	mov	DWORD PTR __Off$[ebp], ecx

; 877  : 		_Insert_n(_Where, (size_type)1, _Val);

	mov	edx, DWORD PTR __Val$[ebp]
	push	edx
	push	1
	mov	eax, DWORD PTR __Where$[ebp+4]
	push	eax
	mov	ecx, DWORD PTR __Where$[ebp]
	push	ecx
	mov	ecx, DWORD PTR _this$[ebp]
	call	?_Insert_n@?$vector@PAVInputHandler@Ogre@@V?$allocator@PAVInputHandler@Ogre@@@std@@@std@@IAEXV?$_Vector_const_iterator@PAVInputHandler@Ogre@@V?$allocator@PAVInputHandler@Ogre@@@std@@@2@IABQAVInputHandler@Ogre@@@Z ; std::vector<Ogre::InputHandler *,std::allocator<Ogre::InputHandler *> >::_Insert_n

; 878  : 		return (begin() + _Off);

	mov	edx, DWORD PTR __Off$[ebp]
	push	edx
	mov	eax, DWORD PTR ___$ReturnUdt$[ebp]
	push	eax
	lea	ecx, DWORD PTR $T125704[ebp]
	push	ecx
	mov	ecx, DWORD PTR _this$[ebp]
	call	?begin@?$vector@PAVInputHandler@Ogre@@V?$allocator@PAVInputHandler@Ogre@@@std@@@std@@QAE?AV?$_Vector_iterator@PAVInputHandler@Ogre@@V?$allocator@PAVInputHandler@Ogre@@@std@@@2@XZ ; std::vector<Ogre::InputHandler *,std::allocator<Ogre::InputHandler *> >::begin
	mov	ecx, eax
	call	??H?$_Vector_iterator@PAVInputHandler@Ogre@@V?$allocator@PAVInputHandler@Ogre@@@std@@@std@@QBE?AV01@H@Z ; std::_Vector_iterator<Ogre::InputHandler *,std::allocator<Ogre::InputHandler *> >::operator+
	mov	eax, DWORD PTR ___$ReturnUdt$[ebp]

; 879  : 		}

	mov	esp, ebp
	pop	ebp
	ret	16					; 00000010H
?insert@?$vector@PAVInputHandler@Ogre@@V?$allocator@PAVInputHandler@Ogre@@@std@@@std@@QAE?AV?$_Vector_iterator@PAVInputHandler@Ogre@@V?$allocator@PAVInputHandler@Ogre@@@std@@@2@V?$_Vector_const_iterator@PAVInputHandler@Ogre@@V?$allocator@PAVInputHandler@Ogre@@@std@@@2@ABQAVInputHandler@Ogre@@@Z ENDP ; std::vector<Ogre::InputHandler *,std::allocator<Ogre::InputHandler *> >::insert
_TEXT	ENDS
PUBLIC	?erase@?$vector@PAVInputHandler@Ogre@@V?$allocator@PAVInputHandler@Ogre@@@std@@@std@@QAE?AV?$_Vector_iterator@PAVInputHandler@Ogre@@V?$allocator@PAVInputHandler@Ogre@@@std@@@2@V?$_Vector_const_iterator@PAVInputHandler@Ogre@@V?$allocator@PAVInputHandler@Ogre@@@std@@@2@0@Z ; std::vector<Ogre::InputHandler *,std::allocator<Ogre::InputHandler *> >::erase
; Function compile flags: /Odtp
;	COMDAT ?clear@?$vector@PAVInputHandler@Ogre@@V?$allocator@PAVInputHandler@Ogre@@@std@@@std@@QAEXXZ
_TEXT	SEGMENT
_this$ = -44						; size = 4
$T125711 = -40						; size = 8
$T125710 = -32						; size = 8
$T125709 = -24						; size = 8
$T125708 = -16						; size = 8
$T125707 = -8						; size = 8
?clear@?$vector@PAVInputHandler@Ogre@@V?$allocator@PAVInputHandler@Ogre@@@std@@@std@@QAEXXZ PROC ; std::vector<Ogre::InputHandler *,std::allocator<Ogre::InputHandler *> >::clear, COMDAT
; _this$ = ecx

; 1059 : 		{	// erase all

	push	ebp
	mov	ebp, esp
	sub	esp, 44					; 0000002cH
	mov	DWORD PTR _this$[ebp], ecx

; 1060 : 		erase(begin(), end());

	lea	eax, DWORD PTR $T125708[ebp]
	push	eax
	mov	ecx, DWORD PTR _this$[ebp]
	call	?end@?$vector@PAVInputHandler@Ogre@@V?$allocator@PAVInputHandler@Ogre@@@std@@@std@@QAE?AV?$_Vector_iterator@PAVInputHandler@Ogre@@V?$allocator@PAVInputHandler@Ogre@@@std@@@2@XZ ; std::vector<Ogre::InputHandler *,std::allocator<Ogre::InputHandler *> >::end
	mov	ecx, DWORD PTR [eax]
	mov	edx, DWORD PTR [eax+4]
	mov	DWORD PTR $T125707[ebp], ecx
	mov	DWORD PTR $T125707[ebp+4], edx
	lea	eax, DWORD PTR $T125710[ebp]
	push	eax
	mov	ecx, DWORD PTR _this$[ebp]
	call	?begin@?$vector@PAVInputHandler@Ogre@@V?$allocator@PAVInputHandler@Ogre@@@std@@@std@@QAE?AV?$_Vector_iterator@PAVInputHandler@Ogre@@V?$allocator@PAVInputHandler@Ogre@@@std@@@2@XZ ; std::vector<Ogre::InputHandler *,std::allocator<Ogre::InputHandler *> >::begin
	mov	ecx, DWORD PTR [eax]
	mov	edx, DWORD PTR [eax+4]
	mov	DWORD PTR $T125709[ebp], ecx
	mov	DWORD PTR $T125709[ebp+4], edx
	mov	eax, DWORD PTR $T125707[ebp+4]
	push	eax
	mov	ecx, DWORD PTR $T125707[ebp]
	push	ecx
	mov	edx, DWORD PTR $T125709[ebp+4]
	push	edx
	mov	eax, DWORD PTR $T125709[ebp]
	push	eax
	lea	ecx, DWORD PTR $T125711[ebp]
	push	ecx
	mov	ecx, DWORD PTR _this$[ebp]
	call	?erase@?$vector@PAVInputHandler@Ogre@@V?$allocator@PAVInputHandler@Ogre@@@std@@@std@@QAE?AV?$_Vector_iterator@PAVInputHandler@Ogre@@V?$allocator@PAVInputHandler@Ogre@@@std@@@2@V?$_Vector_const_iterator@PAVInputHandler@Ogre@@V?$allocator@PAVInputHandler@Ogre@@@std@@@2@0@Z ; std::vector<Ogre::InputHandler *,std::allocator<Ogre::InputHandler *> >::erase

; 1061 : 		}

	mov	esp, ebp
	pop	ebp
	ret	0
?clear@?$vector@PAVInputHandler@Ogre@@V?$allocator@PAVInputHandler@Ogre@@@std@@@std@@QAEXXZ ENDP ; std::vector<Ogre::InputHandler *,std::allocator<Ogre::InputHandler *> >::clear
_TEXT	ENDS
PUBLIC	?allocate@?$allocator@PAVInputHandler@Ogre@@@std@@QAEPAPAVInputHandler@Ogre@@I@Z ; std::allocator<Ogre::InputHandler *>::allocate
PUBLIC	?_Xlen@?$vector@PAVInputHandler@Ogre@@V?$allocator@PAVInputHandler@Ogre@@@std@@@std@@KAXXZ ; std::vector<Ogre::InputHandler *,std::allocator<Ogre::InputHandler *> >::_Xlen
PUBLIC	?max_size@?$vector@PAVInputHandler@Ogre@@V?$allocator@PAVInputHandler@Ogre@@@std@@@std@@QBEIXZ ; std::vector<Ogre::InputHandler *,std::allocator<Ogre::InputHandler *> >::max_size
; Function compile flags: /Odtp
;	COMDAT ?_Buy@?$vector@PAVInputHandler@Ogre@@V?$allocator@PAVInputHandler@Ogre@@@std@@@std@@IAE_NI@Z
_TEXT	SEGMENT
_this$ = -4						; size = 4
__Capacity$ = 8						; size = 4
?_Buy@?$vector@PAVInputHandler@Ogre@@V?$allocator@PAVInputHandler@Ogre@@@std@@@std@@IAE_NI@Z PROC ; std::vector<Ogre::InputHandler *,std::allocator<Ogre::InputHandler *> >::_Buy, COMDAT
; _this$ = ecx

; 1102 : 		{	// allocate array with _Capacity elements

	push	ebp
	mov	ebp, esp
	push	ecx
	mov	DWORD PTR _this$[ebp], ecx

; 1103 : 		_Myfirst = 0, _Mylast = 0, _Myend = 0;

	mov	eax, DWORD PTR _this$[ebp]
	mov	DWORD PTR [eax+12], 0
	mov	ecx, DWORD PTR _this$[ebp]
	mov	DWORD PTR [ecx+16], 0
	mov	edx, DWORD PTR _this$[ebp]
	mov	DWORD PTR [edx+20], 0

; 1104 : 		if (_Capacity == 0)

	cmp	DWORD PTR __Capacity$[ebp], 0
	jne	SHORT $LN4@Buy

; 1105 : 			return (false);

	xor	al, al
	jmp	SHORT $LN5@Buy
	jmp	SHORT $LN3@Buy
$LN4@Buy:

; 1106 : 		else if (max_size() < _Capacity)

	mov	ecx, DWORD PTR _this$[ebp]
	call	?max_size@?$vector@PAVInputHandler@Ogre@@V?$allocator@PAVInputHandler@Ogre@@@std@@@std@@QBEIXZ ; std::vector<Ogre::InputHandler *,std::allocator<Ogre::InputHandler *> >::max_size
	cmp	eax, DWORD PTR __Capacity$[ebp]
	jae	SHORT $LN2@Buy

; 1107 : 			_Xlen();	// result too long

	call	?_Xlen@?$vector@PAVInputHandler@Ogre@@V?$allocator@PAVInputHandler@Ogre@@@std@@@std@@KAXXZ ; std::vector<Ogre::InputHandler *,std::allocator<Ogre::InputHandler *> >::_Xlen

; 1108 : 		else

	jmp	SHORT $LN3@Buy
$LN2@Buy:

; 1109 : 			{	// nonempty array, allocate storage
; 1110 : 			_Myfirst = this->_Alval.allocate(_Capacity);

	mov	eax, DWORD PTR __Capacity$[ebp]
	push	eax
	mov	ecx, DWORD PTR _this$[ebp]
	add	ecx, 8
	call	?allocate@?$allocator@PAVInputHandler@Ogre@@@std@@QAEPAPAVInputHandler@Ogre@@I@Z ; std::allocator<Ogre::InputHandler *>::allocate
	mov	ecx, DWORD PTR _this$[ebp]
	mov	DWORD PTR [ecx+12], eax

; 1111 : 			_Mylast = _Myfirst;

	mov	edx, DWORD PTR _this$[ebp]
	mov	eax, DWORD PTR _this$[ebp]
	mov	ecx, DWORD PTR [eax+12]
	mov	DWORD PTR [edx+16], ecx

; 1112 : 			_Myend = _Myfirst + _Capacity;

	mov	edx, DWORD PTR _this$[ebp]
	mov	eax, DWORD PTR [edx+12]
	mov	ecx, DWORD PTR __Capacity$[ebp]
	lea	edx, DWORD PTR [eax+ecx*4]
	mov	eax, DWORD PTR _this$[ebp]
	mov	DWORD PTR [eax+20], edx
$LN3@Buy:

; 1113 : 			}
; 1114 : 		return (true);

	mov	al, 1
$LN5@Buy:

; 1115 : 		}

	mov	esp, ebp
	pop	ebp
	ret	4
?_Buy@?$vector@PAVInputHandler@Ogre@@V?$allocator@PAVInputHandler@Ogre@@@std@@@std@@IAE_NI@Z ENDP ; std::vector<Ogre::InputHandler *,std::allocator<Ogre::InputHandler *> >::_Buy
_TEXT	ENDS
PUBLIC	??$_Destroy_range@V?$allocator@PAVInputHandler@Ogre@@@std@@@std@@YAXPAPAVInputHandler@Ogre@@0AAV?$allocator@PAVInputHandler@Ogre@@@0@@Z ; std::_Destroy_range<std::allocator<Ogre::InputHandler *> >
; Function compile flags: /Odtp
;	COMDAT ?_Destroy@?$vector@PAVInputHandler@Ogre@@V?$allocator@PAVInputHandler@Ogre@@@std@@@std@@IAEXPAPAVInputHandler@Ogre@@0@Z
_TEXT	SEGMENT
_this$ = -4						; size = 4
__First$ = 8						; size = 4
__Last$ = 12						; size = 4
?_Destroy@?$vector@PAVInputHandler@Ogre@@V?$allocator@PAVInputHandler@Ogre@@@std@@@std@@IAEXPAPAVInputHandler@Ogre@@0@Z PROC ; std::vector<Ogre::InputHandler *,std::allocator<Ogre::InputHandler *> >::_Destroy, COMDAT
; _this$ = ecx

; 1118 : 		{	// destroy [_First, _Last) using allocator

	push	ebp
	mov	ebp, esp
	push	ecx
	mov	DWORD PTR _this$[ebp], ecx

; 1119 : 		_Destroy_range(_First, _Last, this->_Alval);

	mov	eax, DWORD PTR _this$[ebp]
	add	eax, 8
	push	eax
	mov	ecx, DWORD PTR __Last$[ebp]
	push	ecx
	mov	edx, DWORD PTR __First$[ebp]
	push	edx
	call	??$_Destroy_range@V?$allocator@PAVInputHandler@Ogre@@@std@@@std@@YAXPAPAVInputHandler@Ogre@@0AAV?$allocator@PAVInputHandler@Ogre@@@0@@Z ; std::_Destroy_range<std::allocator<Ogre::InputHandler *> >
	add	esp, 12					; 0000000cH

; 1120 : 		}

	mov	esp, ebp
	pop	ebp
	ret	8
?_Destroy@?$vector@PAVInputHandler@Ogre@@V?$allocator@PAVInputHandler@Ogre@@@std@@@std@@IAEXPAPAVInputHandler@Ogre@@0@Z ENDP ; std::vector<Ogre::InputHandler *,std::allocator<Ogre::InputHandler *> >::_Destroy
; Function compile flags: /Odtp
_TEXT	ENDS
;	COMDAT ?_Tidy@?$vector@PAVInputHandler@Ogre@@V?$allocator@PAVInputHandler@Ogre@@@std@@@std@@IAEXXZ
_TEXT	SEGMENT
_this$ = -4						; size = 4
?_Tidy@?$vector@PAVInputHandler@Ogre@@V?$allocator@PAVInputHandler@Ogre@@@std@@@std@@IAEXXZ PROC ; std::vector<Ogre::InputHandler *,std::allocator<Ogre::InputHandler *> >::_Tidy, COMDAT
; _this$ = ecx

; 1123 : 		{	// free all storage

	push	ebp
	mov	ebp, esp
	push	ecx
	mov	DWORD PTR _this$[ebp], ecx

; 1124 : 		if (_Myfirst != 0)

	mov	eax, DWORD PTR _this$[ebp]
	cmp	DWORD PTR [eax+12], 0
	je	SHORT $LN1@Tidy@2

; 1125 : 			{	// something to free, destroy and deallocate it
; 1126 : 
; 1127 :  #if _HAS_ITERATOR_DEBUGGING
; 1128 : 			this->_Orphan_all();
; 1129 :  #endif /* _HAS_ITERATOR_DEBUGGING */
; 1130 : 
; 1131 : 			_Destroy(_Myfirst, _Mylast);

	mov	ecx, DWORD PTR _this$[ebp]
	mov	edx, DWORD PTR [ecx+16]
	push	edx
	mov	eax, DWORD PTR _this$[ebp]
	mov	ecx, DWORD PTR [eax+12]
	push	ecx
	mov	ecx, DWORD PTR _this$[ebp]
	call	?_Destroy@?$vector@PAVInputHandler@Ogre@@V?$allocator@PAVInputHandler@Ogre@@@std@@@std@@IAEXPAPAVInputHandler@Ogre@@0@Z ; std::vector<Ogre::InputHandler *,std::allocator<Ogre::InputHandler *> >::_Destroy

; 1132 : 			this->_Alval.deallocate(_Myfirst, _Myend - _Myfirst);

	mov	edx, DWORD PTR _this$[ebp]
	mov	eax, DWORD PTR _this$[ebp]
	mov	ecx, DWORD PTR [edx+20]
	sub	ecx, DWORD PTR [eax+12]
	sar	ecx, 2
	push	ecx
	mov	edx, DWORD PTR _this$[ebp]
	mov	eax, DWORD PTR [edx+12]
	push	eax
	mov	ecx, DWORD PTR _this$[ebp]
	add	ecx, 8
	call	?deallocate@?$allocator@PAVInputHandler@Ogre@@@std@@QAEXPAPAVInputHandler@Ogre@@I@Z ; std::allocator<Ogre::InputHandler *>::deallocate
$LN1@Tidy@2:

; 1133 : 			}
; 1134 : 		_Myfirst = 0, _Mylast = 0, _Myend = 0;

	mov	ecx, DWORD PTR _this$[ebp]
	mov	DWORD PTR [ecx+12], 0
	mov	edx, DWORD PTR _this$[ebp]
	mov	DWORD PTR [edx+16], 0
	mov	eax, DWORD PTR _this$[ebp]
	mov	DWORD PTR [eax+20], 0

; 1135 : 		}

	mov	esp, ebp
	pop	ebp
	ret	0
?_Tidy@?$vector@PAVInputHandler@Ogre@@V?$allocator@PAVInputHandler@Ogre@@@std@@@std@@IAEXXZ ENDP ; std::vector<Ogre::InputHandler *,std::allocator<Ogre::InputHandler *> >::_Tidy
_TEXT	ENDS
PUBLIC	??$unchecked_uninitialized_fill_n@PAPAVInputHandler@Ogre@@IPAV12@V?$allocator@PAVInputHandler@Ogre@@@std@@@stdext@@YAXPAPAVInputHandler@Ogre@@IABQAV12@AAV?$allocator@PAVInputHandler@Ogre@@@std@@@Z ; stdext::unchecked_uninitialized_fill_n<Ogre::InputHandler * *,unsigned int,Ogre::InputHandler *,std::allocator<Ogre::InputHandler *> >
; Function compile flags: /Odtp
;	COMDAT ?_Ufill@?$vector@PAVInputHandler@Ogre@@V?$allocator@PAVInputHandler@Ogre@@@std@@@std@@IAEPAPAVInputHandler@Ogre@@PAPAV34@IABQAV34@@Z
_TEXT	SEGMENT
_this$ = -4						; size = 4
__Ptr$ = 8						; size = 4
__Count$ = 12						; size = 4
__Val$ = 16						; size = 4
?_Ufill@?$vector@PAVInputHandler@Ogre@@V?$allocator@PAVInputHandler@Ogre@@@std@@@std@@IAEPAPAVInputHandler@Ogre@@PAPAV34@IABQAV34@@Z PROC ; std::vector<Ogre::InputHandler *,std::allocator<Ogre::InputHandler *> >::_Ufill, COMDAT
; _this$ = ecx

; 1253 : 		{	// copy initializing _Count * _Val, using allocator

	push	ebp
	mov	ebp, esp
	push	ecx
	mov	DWORD PTR _this$[ebp], ecx

; 1254 : 		_STDEXT unchecked_uninitialized_fill_n(_Ptr, _Count, _Val, this->_Alval);

	mov	eax, DWORD PTR _this$[ebp]
	add	eax, 8
	push	eax
	mov	ecx, DWORD PTR __Val$[ebp]
	push	ecx
	mov	edx, DWORD PTR __Count$[ebp]
	push	edx
	mov	eax, DWORD PTR __Ptr$[ebp]
	push	eax
	call	??$unchecked_uninitialized_fill_n@PAPAVInputHandler@Ogre@@IPAV12@V?$allocator@PAVInputHandler@Ogre@@@std@@@stdext@@YAXPAPAVInputHandler@Ogre@@IABQAV12@AAV?$allocator@PAVInputHandler@Ogre@@@std@@@Z ; stdext::unchecked_uninitialized_fill_n<Ogre::InputHandler * *,unsigned int,Ogre::InputHandler *,std::allocator<Ogre::InputHandler *> >
	add	esp, 16					; 00000010H

; 1255 : 		return (_Ptr + _Count);

	mov	ecx, DWORD PTR __Count$[ebp]
	mov	edx, DWORD PTR __Ptr$[ebp]
	lea	eax, DWORD PTR [edx+ecx*4]

; 1256 : 		}

	mov	esp, ebp
	pop	ebp
	ret	12					; 0000000cH
?_Ufill@?$vector@PAVInputHandler@Ogre@@V?$allocator@PAVInputHandler@Ogre@@@std@@@std@@IAEPAPAVInputHandler@Ogre@@PAPAV34@IABQAV34@@Z ENDP ; std::vector<Ogre::InputHandler *,std::allocator<Ogre::InputHandler *> >::_Ufill
_TEXT	ENDS
PUBLIC	??0?$_Container_base_aux_alloc_real@V?$allocator@PAVInputHandler@Ogre@@@std@@@std@@IAE@V?$allocator@PAVInputHandler@Ogre@@@1@@Z ; std::_Container_base_aux_alloc_real<std::allocator<Ogre::InputHandler *> >::_Container_base_aux_alloc_real<std::allocator<Ogre::InputHandler *> >
;	COMDAT xdata$x
xdata$x	SEGMENT
__unwindtable$??0?$_Vector_val@PAVInputHandler@Ogre@@V?$allocator@PAVInputHandler@Ogre@@@std@@@std@@IAE@V?$allocator@PAVInputHandler@Ogre@@@1@@Z DD 0ffffffffH
	DD	FLAT:__unwindfunclet$??0?$_Vector_val@PAVInputHandler@Ogre@@V?$allocator@PAVInputHandler@Ogre@@@std@@@std@@IAE@V?$allocator@PAVInputHandler@Ogre@@@1@@Z$0
__ehfuncinfo$??0?$_Vector_val@PAVInputHandler@Ogre@@V?$allocator@PAVInputHandler@Ogre@@@std@@@std@@IAE@V?$allocator@PAVInputHandler@Ogre@@@1@@Z DD 019930522H
	DD	01H
	DD	FLAT:__unwindtable$??0?$_Vector_val@PAVInputHandler@Ogre@@V?$allocator@PAVInputHandler@Ogre@@@std@@@std@@IAE@V?$allocator@PAVInputHandler@Ogre@@@1@@Z
	DD	2 DUP(00H)
	DD	2 DUP(00H)
	DD	00H
	DD	00H
; Function compile flags: /Odtp
xdata$x	ENDS
;	COMDAT ??0?$_Vector_val@PAVInputHandler@Ogre@@V?$allocator@PAVInputHandler@Ogre@@@std@@@std@@IAE@V?$allocator@PAVInputHandler@Ogre@@@1@@Z
_TEXT	SEGMENT
_this$ = -20						; size = 4
$T125722 = -16						; size = 4
__$EHRec$ = -12						; size = 12
__Al$ = 8						; size = 1
??0?$_Vector_val@PAVInputHandler@Ogre@@V?$allocator@PAVInputHandler@Ogre@@@std@@@std@@IAE@V?$allocator@PAVInputHandler@Ogre@@@1@@Z PROC ; std::_Vector_val<Ogre::InputHandler *,std::allocator<Ogre::InputHandler *> >::_Vector_val<Ogre::InputHandler *,std::allocator<Ogre::InputHandler *> >, COMDAT
; _this$ = ecx

; 425  : 		{	// construct allocator from _Al

	push	ebp
	mov	ebp, esp
	push	-1
	push	__ehhandler$??0?$_Vector_val@PAVInputHandler@Ogre@@V?$allocator@PAVInputHandler@Ogre@@@std@@@std@@IAE@V?$allocator@PAVInputHandler@Ogre@@@1@@Z
	mov	eax, DWORD PTR fs:0
	push	eax
	sub	esp, 8
	mov	eax, DWORD PTR ___security_cookie
	xor	eax, ebp
	push	eax
	lea	eax, DWORD PTR __$EHRec$[ebp]
	mov	DWORD PTR fs:0, eax
	mov	DWORD PTR _this$[ebp], ecx
	push	ecx
	mov	ecx, esp
	mov	DWORD PTR $T125722[ebp], esp
	lea	eax, DWORD PTR __Al$[ebp]
	push	eax
	call	??0?$allocator@PAVInputHandler@Ogre@@@std@@QAE@ABV01@@Z ; std::allocator<Ogre::InputHandler *>::allocator<Ogre::InputHandler *>
	mov	ecx, DWORD PTR _this$[ebp]
	call	??0?$_Container_base_aux_alloc_real@V?$allocator@PAVInputHandler@Ogre@@@std@@@std@@IAE@V?$allocator@PAVInputHandler@Ogre@@@1@@Z ; std::_Container_base_aux_alloc_real<std::allocator<Ogre::InputHandler *> >::_Container_base_aux_alloc_real<std::allocator<Ogre::InputHandler *> >
	mov	DWORD PTR __$EHRec$[ebp+8], 0
	lea	ecx, DWORD PTR __Al$[ebp]
	push	ecx
	mov	ecx, DWORD PTR _this$[ebp]
	add	ecx, 8
	call	??0?$allocator@PAVInputHandler@Ogre@@@std@@QAE@ABV01@@Z ; std::allocator<Ogre::InputHandler *>::allocator<Ogre::InputHandler *>

; 426  : 		}

	mov	DWORD PTR __$EHRec$[ebp+8], -1
	mov	eax, DWORD PTR _this$[ebp]
	mov	ecx, DWORD PTR __$EHRec$[ebp]
	mov	DWORD PTR fs:0, ecx
	pop	ecx
	mov	esp, ebp
	pop	ebp
	ret	4
_TEXT	ENDS
;	COMDAT text$x
text$x	SEGMENT
__unwindfunclet$??0?$_Vector_val@PAVInputHandler@Ogre@@V?$allocator@PAVInputHandler@Ogre@@@std@@@std@@IAE@V?$allocator@PAVInputHandler@Ogre@@@1@@Z$0:
	mov	ecx, DWORD PTR _this$[ebp]
	jmp	??1?$_Container_base_aux_alloc_real@V?$allocator@PAVInputHandler@Ogre@@@std@@@std@@IAE@XZ ; std::_Container_base_aux_alloc_real<std::allocator<Ogre::InputHandler *> >::~_Container_base_aux_alloc_real<std::allocator<Ogre::InputHandler *> >
__ehhandler$??0?$_Vector_val@PAVInputHandler@Ogre@@V?$allocator@PAVInputHandler@Ogre@@@std@@@std@@IAE@V?$allocator@PAVInputHandler@Ogre@@@1@@Z:
	mov	edx, DWORD PTR [esp+8]
	lea	eax, DWORD PTR [edx+12]
	mov	ecx, DWORD PTR [edx-12]
	xor	ecx, eax
	call	@__security_check_cookie@4
	mov	eax, OFFSET __ehfuncinfo$??0?$_Vector_val@PAVInputHandler@Ogre@@V?$allocator@PAVInputHandler@Ogre@@@std@@@std@@IAE@V?$allocator@PAVInputHandler@Ogre@@@1@@Z
	jmp	___CxxFrameHandler3
text$x	ENDS
??0?$_Vector_val@PAVInputHandler@Ogre@@V?$allocator@PAVInputHandler@Ogre@@@std@@@std@@IAE@V?$allocator@PAVInputHandler@Ogre@@@1@@Z ENDP ; std::_Vector_val<Ogre::InputHandler *,std::allocator<Ogre::InputHandler *> >::_Vector_val<Ogre::InputHandler *,std::allocator<Ogre::InputHandler *> >
;	COMDAT xdata$x
; File d:\program files (x86)\microsoft visual studio 9.0\vc\include\xutility
xdata$x	SEGMENT
__unwindtable$??1?$_Container_base_aux_alloc_real@V?$allocator@PAVInputHandler@Ogre@@@std@@@std@@IAE@XZ DD 0ffffffffH
	DD	FLAT:__unwindfunclet$??1?$_Container_base_aux_alloc_real@V?$allocator@PAVInputHandler@Ogre@@@std@@@std@@IAE@XZ$0
__ehfuncinfo$??1?$_Container_base_aux_alloc_real@V?$allocator@PAVInputHandler@Ogre@@@std@@@std@@IAE@XZ DD 019930522H
	DD	01H
	DD	FLAT:__unwindtable$??1?$_Container_base_aux_alloc_real@V?$allocator@PAVInputHandler@Ogre@@@std@@@std@@IAE@XZ
	DD	2 DUP(00H)
	DD	2 DUP(00H)
	DD	00H
	DD	00H
; Function compile flags: /Odtp
xdata$x	ENDS
;	COMDAT ??1?$_Container_base_aux_alloc_real@V?$allocator@PAVInputHandler@Ogre@@@std@@@std@@IAE@XZ
_TEXT	SEGMENT
_this$ = -16						; size = 4
__$EHRec$ = -12						; size = 12
??1?$_Container_base_aux_alloc_real@V?$allocator@PAVInputHandler@Ogre@@@std@@@std@@IAE@XZ PROC ; std::_Container_base_aux_alloc_real<std::allocator<Ogre::InputHandler *> >::~_Container_base_aux_alloc_real<std::allocator<Ogre::InputHandler *> >, COMDAT
; _this$ = ecx

; 436  : 		{

	push	ebp
	mov	ebp, esp
	push	-1
	push	__ehhandler$??1?$_Container_base_aux_alloc_real@V?$allocator@PAVInputHandler@Ogre@@@std@@@std@@IAE@XZ
	mov	eax, DWORD PTR fs:0
	push	eax
	push	ecx
	mov	eax, DWORD PTR ___security_cookie
	xor	eax, ebp
	push	eax
	lea	eax, DWORD PTR __$EHRec$[ebp]
	mov	DWORD PTR fs:0, eax
	mov	DWORD PTR _this$[ebp], ecx
	mov	DWORD PTR __$EHRec$[ebp+8], 0

; 437  : 		_Myownedaux->~_Aux_cont();
; 438  : 
; 439  : 		_Alaux.deallocate(_Myownedaux, 1);

	push	1
	mov	eax, DWORD PTR _this$[ebp]
	mov	ecx, DWORD PTR [eax]
	push	ecx
	mov	ecx, DWORD PTR _this$[ebp]
	add	ecx, 4
	call	?deallocate@?$allocator@V_Aux_cont@std@@@std@@QAEXPAV_Aux_cont@2@I@Z ; std::allocator<std::_Aux_cont>::deallocate

; 440  : 		}

	mov	DWORD PTR __$EHRec$[ebp+8], -1
	mov	ecx, DWORD PTR _this$[ebp]
	call	??1_Container_base_aux@std@@QAE@XZ	; std::_Container_base_aux::~_Container_base_aux
	mov	ecx, DWORD PTR __$EHRec$[ebp]
	mov	DWORD PTR fs:0, ecx
	pop	ecx
	mov	esp, ebp
	pop	ebp
	ret	0
_TEXT	ENDS
;	COMDAT text$x
text$x	SEGMENT
__unwindfunclet$??1?$_Container_base_aux_alloc_real@V?$allocator@PAVInputHandler@Ogre@@@std@@@std@@IAE@XZ$0:
	mov	ecx, DWORD PTR _this$[ebp]
	jmp	??1_Container_base_aux@std@@QAE@XZ	; std::_Container_base_aux::~_Container_base_aux
__ehhandler$??1?$_Container_base_aux_alloc_real@V?$allocator@PAVInputHandler@Ogre@@@std@@@std@@IAE@XZ:
	mov	edx, DWORD PTR [esp+8]
	lea	eax, DWORD PTR [edx+12]
	mov	ecx, DWORD PTR [edx-8]
	xor	ecx, eax
	call	@__security_check_cookie@4
	mov	eax, OFFSET __ehfuncinfo$??1?$_Container_base_aux_alloc_real@V?$allocator@PAVInputHandler@Ogre@@@std@@@std@@IAE@XZ
	jmp	___CxxFrameHandler3
text$x	ENDS
??1?$_Container_base_aux_alloc_real@V?$allocator@PAVInputHandler@Ogre@@@std@@@std@@IAE@XZ ENDP ; std::_Container_base_aux_alloc_real<std::allocator<Ogre::InputHandler *> >::~_Container_base_aux_alloc_real<std::allocator<Ogre::InputHandler *> >
; Function compile flags: /Odtp
; File d:\program files (x86)\microsoft visual studio 9.0\vc\include\xmemory
;	COMDAT ??0?$allocator@PAVInputHandler@Ogre@@@std@@QAE@XZ
_TEXT	SEGMENT
_this$ = -4						; size = 4
??0?$allocator@PAVInputHandler@Ogre@@@std@@QAE@XZ PROC	; std::allocator<Ogre::InputHandler *>::allocator<Ogre::InputHandler *>, COMDAT
; _this$ = ecx

; 119  : 	allocator() _THROW0()

	push	ebp
	mov	ebp, esp
	push	ecx
	mov	DWORD PTR _this$[ebp], ecx

; 120  : 		{	// construct default allocator (do nothing)
; 121  : 		}

	mov	eax, DWORD PTR _this$[ebp]
	mov	esp, ebp
	pop	ebp
	ret	0
??0?$allocator@PAVInputHandler@Ogre@@@std@@QAE@XZ ENDP	; std::allocator<Ogre::InputHandler *>::allocator<Ogre::InputHandler *>
; Function compile flags: /Odtp
_TEXT	ENDS
;	COMDAT ??0?$allocator@PAVInputHandler@Ogre@@@std@@QAE@ABV01@@Z
_TEXT	SEGMENT
_this$ = -4						; size = 4
___formal$ = 8						; size = 4
??0?$allocator@PAVInputHandler@Ogre@@@std@@QAE@ABV01@@Z PROC ; std::allocator<Ogre::InputHandler *>::allocator<Ogre::InputHandler *>, COMDAT
; _this$ = ecx

; 123  : 	allocator(const allocator<_Ty>&) _THROW0()

	push	ebp
	mov	ebp, esp
	push	ecx
	mov	DWORD PTR _this$[ebp], ecx

; 124  : 		{	// construct by copying (do nothing)
; 125  : 		}

	mov	eax, DWORD PTR _this$[ebp]
	mov	esp, ebp
	pop	ebp
	ret	4
??0?$allocator@PAVInputHandler@Ogre@@@std@@QAE@ABV01@@Z ENDP ; std::allocator<Ogre::InputHandler *>::allocator<Ogre::InputHandler *>
_TEXT	ENDS
EXTRN	??3@YAXPAX@Z:PROC				; operator delete
; Function compile flags: /Odtp
;	COMDAT ?deallocate@?$allocator@PAVInputHandler@Ogre@@@std@@QAEXPAPAVInputHandler@Ogre@@I@Z
_TEXT	SEGMENT
_this$ = -4						; size = 4
__Ptr$ = 8						; size = 4
___formal$ = 12						; size = 4
?deallocate@?$allocator@PAVInputHandler@Ogre@@@std@@QAEXPAPAVInputHandler@Ogre@@I@Z PROC ; std::allocator<Ogre::InputHandler *>::deallocate, COMDAT
; _this$ = ecx

; 139  : 		{	// deallocate object at _Ptr, ignore size

	push	ebp
	mov	ebp, esp
	push	ecx
	mov	DWORD PTR _this$[ebp], ecx

; 140  : 		::operator delete(_Ptr);

	mov	eax, DWORD PTR __Ptr$[ebp]
	push	eax
	call	??3@YAXPAX@Z				; operator delete
	add	esp, 4

; 141  : 		}

	mov	esp, ebp
	pop	ebp
	ret	8
?deallocate@?$allocator@PAVInputHandler@Ogre@@@std@@QAEXPAPAVInputHandler@Ogre@@I@Z ENDP ; std::allocator<Ogre::InputHandler *>::deallocate
_TEXT	ENDS
PUBLIC	??Y?$_Deque_const_iterator@UInputEvent@Ogre@@V?$allocator@UInputEvent@Ogre@@@std@@$00@std@@QAEAAV01@H@Z ; std::_Deque_const_iterator<Ogre::InputEvent,std::allocator<Ogre::InputEvent>,1>::operator+=
; Function compile flags: /Odtp
; File d:\program files (x86)\microsoft visual studio 9.0\vc\include\deque
;	COMDAT ??H?$_Deque_const_iterator@UInputEvent@Ogre@@V?$allocator@UInputEvent@Ogre@@@std@@$00@std@@QBE?AV01@H@Z
_TEXT	SEGMENT
_this$ = -12						; size = 4
__Tmp$ = -8						; size = 8
___$ReturnUdt$ = 8					; size = 4
__Off$ = 12						; size = 4
??H?$_Deque_const_iterator@UInputEvent@Ogre@@V?$allocator@UInputEvent@Ogre@@@std@@$00@std@@QBE?AV01@H@Z PROC ; std::_Deque_const_iterator<Ogre::InputEvent,std::allocator<Ogre::InputEvent>,1>::operator+, COMDAT
; _this$ = ecx

; 208  : 		{	// return this + integer

	push	ebp
	mov	ebp, esp
	sub	esp, 12					; 0000000cH
	mov	DWORD PTR _this$[ebp], ecx

; 209  : 		_Myt _Tmp = *this;

	mov	eax, DWORD PTR _this$[ebp]
	mov	ecx, DWORD PTR [eax]
	mov	edx, DWORD PTR [eax+4]
	mov	DWORD PTR __Tmp$[ebp], ecx
	mov	DWORD PTR __Tmp$[ebp+4], edx

; 210  : 		return (_Tmp += _Off);

	mov	eax, DWORD PTR __Off$[ebp]
	push	eax
	lea	ecx, DWORD PTR __Tmp$[ebp]
	call	??Y?$_Deque_const_iterator@UInputEvent@Ogre@@V?$allocator@UInputEvent@Ogre@@@std@@$00@std@@QAEAAV01@H@Z ; std::_Deque_const_iterator<Ogre::InputEvent,std::allocator<Ogre::InputEvent>,1>::operator+=
	mov	ecx, DWORD PTR [eax]
	mov	edx, DWORD PTR [eax+4]
	mov	eax, DWORD PTR ___$ReturnUdt$[ebp]
	mov	DWORD PTR [eax], ecx
	mov	DWORD PTR [eax+4], edx
	mov	eax, DWORD PTR ___$ReturnUdt$[ebp]

; 211  : 		}

	mov	esp, ebp
	pop	ebp
	ret	8
??H?$_Deque_const_iterator@UInputEvent@Ogre@@V?$allocator@UInputEvent@Ogre@@@std@@$00@std@@QBE?AV01@H@Z ENDP ; std::_Deque_const_iterator<Ogre::InputEvent,std::allocator<Ogre::InputEvent>,1>::operator+
; Function compile flags: /Odtp
_TEXT	ENDS
;	COMDAT ?_Make_iter@?$deque@UInputEvent@Ogre@@V?$allocator@UInputEvent@Ogre@@@std@@@std@@QBE?AV?$_Deque_iterator@UInputEvent@Ogre@@V?$allocator@UInputEvent@Ogre@@@std@@$00@2@V?$_Deque_const_iterator@UInputEvent@Ogre@@V?$allocator@UInputEvent@Ogre@@@std@@$00@2@@Z
_TEXT	SEGMENT
_this$ = -4						; size = 4
___$ReturnUdt$ = 8					; size = 4
__Where$ = 12						; size = 8
?_Make_iter@?$deque@UInputEvent@Ogre@@V?$allocator@UInputEvent@Ogre@@@std@@@std@@QBE?AV?$_Deque_iterator@UInputEvent@Ogre@@V?$allocator@UInputEvent@Ogre@@@std@@$00@2@V?$_Deque_const_iterator@UInputEvent@Ogre@@V?$allocator@UInputEvent@Ogre@@@std@@$00@2@@Z PROC ; std::deque<Ogre::InputEvent,std::allocator<Ogre::InputEvent> >::_Make_iter, COMDAT
; _this$ = ecx

; 685  : 		{	// make iterator from const_iterator

	push	ebp
	mov	ebp, esp
	push	ecx
	mov	DWORD PTR _this$[ebp], ecx

; 686  : 		return (iterator(_Where._Myoff, this));

	mov	eax, DWORD PTR _this$[ebp]
	push	eax
	mov	ecx, DWORD PTR __Where$[ebp+4]
	push	ecx
	mov	ecx, DWORD PTR ___$ReturnUdt$[ebp]
	call	??0?$_Deque_iterator@UInputEvent@Ogre@@V?$allocator@UInputEvent@Ogre@@@std@@$00@std@@QAE@IPBV_Container_base_aux@1@@Z ; std::_Deque_iterator<Ogre::InputEvent,std::allocator<Ogre::InputEvent>,1>::_Deque_iterator<Ogre::InputEvent,std::allocator<Ogre::InputEvent>,1>
	mov	eax, DWORD PTR ___$ReturnUdt$[ebp]

; 687  : 		}

	mov	esp, ebp
	pop	ebp
	ret	12					; 0000000cH
?_Make_iter@?$deque@UInputEvent@Ogre@@V?$allocator@UInputEvent@Ogre@@@std@@@std@@QBE?AV?$_Deque_iterator@UInputEvent@Ogre@@V?$allocator@UInputEvent@Ogre@@@std@@$00@2@V?$_Deque_const_iterator@UInputEvent@Ogre@@V?$allocator@UInputEvent@Ogre@@@std@@$00@2@@Z ENDP ; std::deque<Ogre::InputEvent,std::allocator<Ogre::InputEvent> >::_Make_iter
_TEXT	ENDS
PUBLIC	?max_size@?$allocator@UInputEvent@Ogre@@@std@@QBEIXZ ; std::allocator<Ogre::InputEvent>::max_size
; Function compile flags: /Odtp
;	COMDAT ?max_size@?$deque@UInputEvent@Ogre@@V?$allocator@UInputEvent@Ogre@@@std@@@std@@QBEIXZ
_TEXT	SEGMENT
_this$ = -4						; size = 4
?max_size@?$deque@UInputEvent@Ogre@@V?$allocator@UInputEvent@Ogre@@@std@@@std@@QBEIXZ PROC ; std::deque<Ogre::InputEvent,std::allocator<Ogre::InputEvent> >::max_size, COMDAT
; _this$ = ecx

; 728  : 		{	// return maximum possible length of sequence

	push	ebp
	mov	ebp, esp
	push	ecx
	mov	DWORD PTR _this$[ebp], ecx

; 729  : 		return (this->_Alval.max_size());

	mov	ecx, DWORD PTR _this$[ebp]
	add	ecx, 12					; 0000000cH
	call	?max_size@?$allocator@UInputEvent@Ogre@@@std@@QBEIXZ ; std::allocator<Ogre::InputEvent>::max_size

; 730  : 		}

	mov	esp, ebp
	pop	ebp
	ret	0
?max_size@?$deque@UInputEvent@Ogre@@V?$allocator@UInputEvent@Ogre@@@std@@@std@@QBEIXZ ENDP ; std::deque<Ogre::InputEvent,std::allocator<Ogre::InputEvent> >::max_size
; Function compile flags: /Odtp
_TEXT	ENDS
;	COMDAT ?empty@?$deque@UInputEvent@Ogre@@V?$allocator@UInputEvent@Ogre@@@std@@@std@@QBE_NXZ
_TEXT	SEGMENT
_this$ = -4						; size = 4
?empty@?$deque@UInputEvent@Ogre@@V?$allocator@UInputEvent@Ogre@@@std@@@std@@QBE_NXZ PROC ; std::deque<Ogre::InputEvent,std::allocator<Ogre::InputEvent> >::empty, COMDAT
; _this$ = ecx

; 733  : 		{	// test if sequence is empty

	push	ebp
	mov	ebp, esp
	push	ecx
	mov	DWORD PTR _this$[ebp], ecx

; 734  : 		return (_Mysize == 0);

	mov	eax, DWORD PTR _this$[ebp]
	xor	ecx, ecx
	cmp	DWORD PTR [eax+28], 0
	sete	cl
	mov	al, cl

; 735  : 		}

	mov	esp, ebp
	pop	ebp
	ret	0
?empty@?$deque@UInputEvent@Ogre@@V?$allocator@UInputEvent@Ogre@@@std@@@std@@QBE_NXZ ENDP ; std::deque<Ogre::InputEvent,std::allocator<Ogre::InputEvent> >::empty
_TEXT	ENDS
PUBLIC	?destroy@?$allocator@UInputEvent@Ogre@@@std@@QAEXPAUInputEvent@Ogre@@@Z ; std::allocator<Ogre::InputEvent>::destroy
; Function compile flags: /Odtp
;	COMDAT ?pop_front@?$deque@UInputEvent@Ogre@@V?$allocator@UInputEvent@Ogre@@@std@@@std@@QAEXXZ
_TEXT	SEGMENT
_this$ = -8						; size = 4
__Block$121015 = -4					; size = 4
?pop_front@?$deque@UInputEvent@Ogre@@V?$allocator@UInputEvent@Ogre@@@std@@@std@@QAEXXZ PROC ; std::deque<Ogre::InputEvent,std::allocator<Ogre::InputEvent> >::pop_front, COMDAT
; _this$ = ecx

; 819  : 		{	// erase element at beginning

	push	ebp
	mov	ebp, esp
	sub	esp, 8
	push	esi
	mov	DWORD PTR _this$[ebp], ecx

; 820  : 
; 821  :  #if _HAS_ITERATOR_DEBUGGING
; 822  : 		if (empty())
; 823  : 			_DEBUG_ERROR("deque empty before pop");
; 824  : 		else
; 825  : 			{	// something to erase, do it
; 826  : 			_Orphan_off(_Myoff);
; 827  : 
; 828  :  #else /* _HAS_ITERATOR_DEBUGGING */
; 829  : 		if (!empty())

	mov	ecx, DWORD PTR _this$[ebp]
	call	?empty@?$deque@UInputEvent@Ogre@@V?$allocator@UInputEvent@Ogre@@@std@@@std@@QBE_NXZ ; std::deque<Ogre::InputEvent,std::allocator<Ogre::InputEvent> >::empty
	movzx	eax, al
	test	eax, eax
	jne	SHORT $LN4@pop_front

; 830  : 			{	// something to erase, do it
; 831  :  #endif /* _HAS_ITERATOR_DEBUGGING */
; 832  : 
; 833  : 			size_type _Block = _Myoff / _DEQUESIZ;

	mov	ecx, DWORD PTR _this$[ebp]
	mov	edx, DWORD PTR [ecx+24]
	mov	DWORD PTR __Block$121015[ebp], edx

; 834  : 			this->_Alval.destroy(_Map[_Block] + _Myoff % _DEQUESIZ);

	mov	eax, DWORD PTR _this$[ebp]
	mov	ecx, DWORD PTR [eax+16]
	mov	edx, DWORD PTR _this$[ebp]
	mov	eax, DWORD PTR [edx+24]
	xor	edx, edx
	mov	esi, 1
	div	esi
	shl	edx, 4
	mov	eax, DWORD PTR __Block$121015[ebp]
	add	edx, DWORD PTR [ecx+eax*4]
	push	edx
	mov	ecx, DWORD PTR _this$[ebp]
	add	ecx, 12					; 0000000cH
	call	?destroy@?$allocator@UInputEvent@Ogre@@@std@@QAEXPAUInputEvent@Ogre@@@Z ; std::allocator<Ogre::InputEvent>::destroy

; 835  : 			if (_Mapsize * _DEQUESIZ <= ++_Myoff)

	mov	ecx, DWORD PTR _this$[ebp]
	mov	edx, DWORD PTR [ecx+24]
	add	edx, 1
	mov	eax, DWORD PTR _this$[ebp]
	mov	DWORD PTR [eax+24], edx
	mov	ecx, DWORD PTR _this$[ebp]
	mov	edx, DWORD PTR _this$[ebp]
	mov	eax, DWORD PTR [ecx+20]
	cmp	eax, DWORD PTR [edx+24]
	ja	SHORT $LN2@pop_front

; 836  : 				_Myoff = 0;

	mov	ecx, DWORD PTR _this$[ebp]
	mov	DWORD PTR [ecx+24], 0
$LN2@pop_front:

; 837  : 			if (--_Mysize == 0)

	mov	edx, DWORD PTR _this$[ebp]
	mov	eax, DWORD PTR [edx+28]
	sub	eax, 1
	mov	ecx, DWORD PTR _this$[ebp]
	mov	DWORD PTR [ecx+28], eax
	mov	edx, DWORD PTR _this$[ebp]
	cmp	DWORD PTR [edx+28], 0
	jne	SHORT $LN4@pop_front

; 838  : 				_Myoff = 0;

	mov	eax, DWORD PTR _this$[ebp]
	mov	DWORD PTR [eax+24], 0
$LN4@pop_front:

; 839  : 			}
; 840  : 			}

	pop	esi
	mov	esp, ebp
	pop	ebp
	ret	0
?pop_front@?$deque@UInputEvent@Ogre@@V?$allocator@UInputEvent@Ogre@@@std@@@std@@QAEXXZ ENDP ; std::deque<Ogre::InputEvent,std::allocator<Ogre::InputEvent> >::pop_front
; Function compile flags: /Odtp
_TEXT	ENDS
;	COMDAT ?pop_back@?$deque@UInputEvent@Ogre@@V?$allocator@UInputEvent@Ogre@@@std@@@std@@QAEXXZ
_TEXT	SEGMENT
_this$ = -12						; size = 4
__Block$121034 = -8					; size = 4
__Newoff$121033 = -4					; size = 4
?pop_back@?$deque@UInputEvent@Ogre@@V?$allocator@UInputEvent@Ogre@@@std@@@std@@QAEXXZ PROC ; std::deque<Ogre::InputEvent,std::allocator<Ogre::InputEvent> >::pop_back, COMDAT
; _this$ = ecx

; 863  : 		{	// erase element at end

	push	ebp
	mov	ebp, esp
	sub	esp, 12					; 0000000cH
	push	esi
	mov	DWORD PTR _this$[ebp], ecx

; 864  : 
; 865  :  #if _HAS_ITERATOR_DEBUGGING
; 866  : 		if (empty())
; 867  : 			_DEBUG_ERROR("deque empty before pop");
; 868  : 		else
; 869  : 			{	// something to erase, do it
; 870  : 			_Orphan_off(_Myoff + _Mysize - 1);
; 871  : 
; 872  :  #else /* _HAS_ITERATOR_DEBUGGING */
; 873  : 		if (!empty())

	mov	ecx, DWORD PTR _this$[ebp]
	call	?empty@?$deque@UInputEvent@Ogre@@V?$allocator@UInputEvent@Ogre@@@std@@@std@@QBE_NXZ ; std::deque<Ogre::InputEvent,std::allocator<Ogre::InputEvent> >::empty
	movzx	eax, al
	test	eax, eax
	jne	SHORT $LN4@pop_back

; 874  : 			{	// something to erase, do it
; 875  :  #endif /* _HAS_ITERATOR_DEBUGGING */
; 876  : 
; 877  : 			size_type _Newoff = _Mysize + _Myoff - 1;

	mov	ecx, DWORD PTR _this$[ebp]
	mov	edx, DWORD PTR [ecx+28]
	mov	eax, DWORD PTR _this$[ebp]
	mov	ecx, DWORD PTR [eax+24]
	lea	edx, DWORD PTR [edx+ecx-1]
	mov	DWORD PTR __Newoff$121033[ebp], edx

; 878  : 			size_type _Block = _Newoff / _DEQUESIZ;

	mov	eax, DWORD PTR __Newoff$121033[ebp]
	mov	DWORD PTR __Block$121034[ebp], eax

; 879  : 			if (_Mapsize <= _Block)

	mov	ecx, DWORD PTR _this$[ebp]
	mov	edx, DWORD PTR [ecx+20]
	cmp	edx, DWORD PTR __Block$121034[ebp]
	ja	SHORT $LN2@pop_back

; 880  : 				_Block -= _Mapsize;

	mov	eax, DWORD PTR _this$[ebp]
	mov	ecx, DWORD PTR __Block$121034[ebp]
	sub	ecx, DWORD PTR [eax+20]
	mov	DWORD PTR __Block$121034[ebp], ecx
$LN2@pop_back:

; 881  : 			this->_Alval.destroy(_Map[_Block] + _Newoff % _DEQUESIZ);

	mov	edx, DWORD PTR _this$[ebp]
	mov	ecx, DWORD PTR [edx+16]
	mov	eax, DWORD PTR __Newoff$121033[ebp]
	xor	edx, edx
	mov	esi, 1
	div	esi
	shl	edx, 4
	mov	eax, DWORD PTR __Block$121034[ebp]
	add	edx, DWORD PTR [ecx+eax*4]
	push	edx
	mov	ecx, DWORD PTR _this$[ebp]
	add	ecx, 12					; 0000000cH
	call	?destroy@?$allocator@UInputEvent@Ogre@@@std@@QAEXPAUInputEvent@Ogre@@@Z ; std::allocator<Ogre::InputEvent>::destroy

; 882  : 			if (--_Mysize == 0)

	mov	ecx, DWORD PTR _this$[ebp]
	mov	edx, DWORD PTR [ecx+28]
	sub	edx, 1
	mov	eax, DWORD PTR _this$[ebp]
	mov	DWORD PTR [eax+28], edx
	mov	ecx, DWORD PTR _this$[ebp]
	cmp	DWORD PTR [ecx+28], 0
	jne	SHORT $LN4@pop_back

; 883  : 				_Myoff = 0;

	mov	edx, DWORD PTR _this$[ebp]
	mov	DWORD PTR [edx+24], 0
$LN4@pop_back:

; 884  : 			}
; 885  : 			}

	pop	esi
	mov	esp, ebp
	pop	ebp
	ret	0
?pop_back@?$deque@UInputEvent@Ogre@@V?$allocator@UInputEvent@Ogre@@@std@@@std@@QAEXXZ ENDP ; std::deque<Ogre::InputEvent,std::allocator<Ogre::InputEvent> >::pop_back
_TEXT	ENDS
PUBLIC	__TI3?AVlength_error@std@@
PUBLIC	??0length_error@std@@QAE@ABV?$basic_string@DU?$char_traits@D@std@@V?$allocator@D@2@@1@@Z ; std::length_error::length_error
PUBLIC	??_C@_0BC@KBDMBKEH@deque?$DMT?$DO?5too?5long?$AA@ ; `string'
PUBLIC	??1length_error@std@@UAE@XZ			; std::length_error::~length_error
PUBLIC	__CTA3?AVlength_error@std@@
PUBLIC	__CT??_R0?AVlength_error@std@@@8??0length_error@std@@QAE@ABV01@@Z40
PUBLIC	??_R0?AVlength_error@std@@@8			; std::length_error `RTTI Type Descriptor'
PUBLIC	??0length_error@std@@QAE@ABV01@@Z		; std::length_error::length_error
PUBLIC	__CT??_R0?AVlogic_error@std@@@8??0logic_error@std@@QAE@ABV01@@Z40
PUBLIC	??_R0?AVlogic_error@std@@@8			; std::logic_error `RTTI Type Descriptor'
PUBLIC	??0logic_error@std@@QAE@ABV01@@Z		; std::logic_error::logic_error
PUBLIC	__CT??_R0?AVexception@std@@@8??0exception@std@@QAE@ABV01@@Z12
PUBLIC	??_R0?AVexception@std@@@8			; std::exception `RTTI Type Descriptor'
EXTRN	__imp_??1?$basic_string@DU?$char_traits@D@std@@V?$allocator@D@2@@std@@QAE@XZ:PROC
EXTRN	__imp_??0?$basic_string@DU?$char_traits@D@std@@V?$allocator@D@2@@std@@QAE@PBD@Z:PROC
EXTRN	??_7type_info@@6B@:QWORD			; type_info::`vftable'
EXTRN	??0exception@std@@QAE@ABV01@@Z:PROC		; std::exception::exception
;	COMDAT ??_R0?AVexception@std@@@8
_DATA	SEGMENT
??_R0?AVexception@std@@@8 DD FLAT:??_7type_info@@6B@	; std::exception `RTTI Type Descriptor'
	DD	00H
	DB	'.?AVexception@std@@', 00H
_DATA	ENDS
;	COMDAT __CT??_R0?AVexception@std@@@8??0exception@std@@QAE@ABV01@@Z12
xdata$x	SEGMENT
__CT??_R0?AVexception@std@@@8??0exception@std@@QAE@ABV01@@Z12 DD 00H
	DD	FLAT:??_R0?AVexception@std@@@8
	DD	00H
	DD	0ffffffffH
	ORG $+4
	DD	0cH
	DD	FLAT:??0exception@std@@QAE@ABV01@@Z
xdata$x	ENDS
;	COMDAT ??_R0?AVlogic_error@std@@@8
_DATA	SEGMENT
??_R0?AVlogic_error@std@@@8 DD FLAT:??_7type_info@@6B@	; std::logic_error `RTTI Type Descriptor'
	DD	00H
	DB	'.?AVlogic_error@std@@', 00H
_DATA	ENDS
;	COMDAT __CT??_R0?AVlogic_error@std@@@8??0logic_error@std@@QAE@ABV01@@Z40
xdata$x	SEGMENT
__CT??_R0?AVlogic_error@std@@@8??0logic_error@std@@QAE@ABV01@@Z40 DD 00H
	DD	FLAT:??_R0?AVlogic_error@std@@@8
	DD	00H
	DD	0ffffffffH
	ORG $+4
	DD	028H
	DD	FLAT:??0logic_error@std@@QAE@ABV01@@Z
xdata$x	ENDS
;	COMDAT ??_R0?AVlength_error@std@@@8
_DATA	SEGMENT
??_R0?AVlength_error@std@@@8 DD FLAT:??_7type_info@@6B@	; std::length_error `RTTI Type Descriptor'
	DD	00H
	DB	'.?AVlength_error@std@@', 00H
_DATA	ENDS
;	COMDAT __CT??_R0?AVlength_error@std@@@8??0length_error@std@@QAE@ABV01@@Z40
xdata$x	SEGMENT
__CT??_R0?AVlength_error@std@@@8??0length_error@std@@QAE@ABV01@@Z40 DD 00H
	DD	FLAT:??_R0?AVlength_error@std@@@8
	DD	00H
	DD	0ffffffffH
	ORG $+4
	DD	028H
	DD	FLAT:??0length_error@std@@QAE@ABV01@@Z
xdata$x	ENDS
;	COMDAT __CTA3?AVlength_error@std@@
xdata$x	SEGMENT
__CTA3?AVlength_error@std@@ DD 03H
	DD	FLAT:__CT??_R0?AVlength_error@std@@@8??0length_error@std@@QAE@ABV01@@Z40
	DD	FLAT:__CT??_R0?AVlogic_error@std@@@8??0logic_error@std@@QAE@ABV01@@Z40
	DD	FLAT:__CT??_R0?AVexception@std@@@8??0exception@std@@QAE@ABV01@@Z12
xdata$x	ENDS
;	COMDAT __TI3?AVlength_error@std@@
xdata$x	SEGMENT
__TI3?AVlength_error@std@@ DD 00H
	DD	FLAT:??1length_error@std@@UAE@XZ
	DD	00H
	DD	FLAT:__CTA3?AVlength_error@std@@
xdata$x	ENDS
;	COMDAT ??_C@_0BC@KBDMBKEH@deque?$DMT?$DO?5too?5long?$AA@
CONST	SEGMENT
??_C@_0BC@KBDMBKEH@deque?$DMT?$DO?5too?5long?$AA@ DB 'deque<T> too long', 00H ; `string'
CONST	ENDS
;	COMDAT xdata$x
xdata$x	SEGMENT
__unwindtable$?_Xlen@?$deque@UInputEvent@Ogre@@V?$allocator@UInputEvent@Ogre@@@std@@@std@@KAXXZ DD 0ffffffffH
	DD	FLAT:__unwindfunclet$?_Xlen@?$deque@UInputEvent@Ogre@@V?$allocator@UInputEvent@Ogre@@@std@@@std@@KAXXZ$0
__ehfuncinfo$?_Xlen@?$deque@UInputEvent@Ogre@@V?$allocator@UInputEvent@Ogre@@@std@@@std@@KAXXZ DD 019930522H
	DD	01H
	DD	FLAT:__unwindtable$?_Xlen@?$deque@UInputEvent@Ogre@@V?$allocator@UInputEvent@Ogre@@@std@@@std@@KAXXZ
	DD	2 DUP(00H)
	DD	2 DUP(00H)
	DD	00H
	DD	00H
; Function compile flags: /Odtp
xdata$x	ENDS
;	COMDAT ?_Xlen@?$deque@UInputEvent@Ogre@@V?$allocator@UInputEvent@Ogre@@@std@@@std@@KAXXZ
_TEXT	SEGMENT
$T125760 = -80						; size = 28
$T125759 = -52						; size = 40
__$EHRec$ = -12						; size = 12
?_Xlen@?$deque@UInputEvent@Ogre@@V?$allocator@UInputEvent@Ogre@@@std@@@std@@KAXXZ PROC ; std::deque<Ogre::InputEvent,std::allocator<Ogre::InputEvent> >::_Xlen, COMDAT

; 1210 : 		{	// report length error

	push	ebp
	mov	ebp, esp
	push	-1
	push	__ehhandler$?_Xlen@?$deque@UInputEvent@Ogre@@V?$allocator@UInputEvent@Ogre@@@std@@@std@@KAXXZ
	mov	eax, DWORD PTR fs:0
	push	eax
	sub	esp, 68					; 00000044H
	mov	eax, DWORD PTR ___security_cookie
	xor	eax, ebp
	push	eax
	lea	eax, DWORD PTR __$EHRec$[ebp]
	mov	DWORD PTR fs:0, eax

; 1211 : 		_THROW(length_error, "deque<T> too long");

	push	OFFSET ??_C@_0BC@KBDMBKEH@deque?$DMT?$DO?5too?5long?$AA@
	lea	ecx, DWORD PTR $T125760[ebp]
	call	DWORD PTR __imp_??0?$basic_string@DU?$char_traits@D@std@@V?$allocator@D@2@@std@@QAE@PBD@Z
	mov	DWORD PTR __$EHRec$[ebp+8], 0
	lea	eax, DWORD PTR $T125760[ebp]
	push	eax
	lea	ecx, DWORD PTR $T125759[ebp]
	call	??0length_error@std@@QAE@ABV?$basic_string@DU?$char_traits@D@std@@V?$allocator@D@2@@1@@Z ; std::length_error::length_error
	push	OFFSET __TI3?AVlength_error@std@@
	lea	ecx, DWORD PTR $T125759[ebp]
	push	ecx
	call	__CxxThrowException@8
	mov	DWORD PTR __$EHRec$[ebp+8], -1
	lea	ecx, DWORD PTR $T125760[ebp]
	call	DWORD PTR __imp_??1?$basic_string@DU?$char_traits@D@std@@V?$allocator@D@2@@std@@QAE@XZ
$LN2@Xlen:

; 1212 : 		}

	mov	ecx, DWORD PTR __$EHRec$[ebp]
	mov	DWORD PTR fs:0, ecx
	pop	ecx
	mov	esp, ebp
	pop	ebp
	ret	0
_TEXT	ENDS
;	COMDAT text$x
text$x	SEGMENT
__unwindfunclet$?_Xlen@?$deque@UInputEvent@Ogre@@V?$allocator@UInputEvent@Ogre@@@std@@@std@@KAXXZ$0:
	lea	ecx, DWORD PTR $T125760[ebp]
	jmp	DWORD PTR __imp_??1?$basic_string@DU?$char_traits@D@std@@V?$allocator@D@2@@std@@QAE@XZ
__ehhandler$?_Xlen@?$deque@UInputEvent@Ogre@@V?$allocator@UInputEvent@Ogre@@@std@@@std@@KAXXZ:
	mov	edx, DWORD PTR [esp+8]
	lea	eax, DWORD PTR [edx+12]
	mov	ecx, DWORD PTR [edx-72]
	xor	ecx, eax
	call	@__security_check_cookie@4
	mov	eax, OFFSET __ehfuncinfo$?_Xlen@?$deque@UInputEvent@Ogre@@V?$allocator@UInputEvent@Ogre@@@std@@@std@@KAXXZ
	jmp	___CxxFrameHandler3
text$x	ENDS
?_Xlen@?$deque@UInputEvent@Ogre@@V?$allocator@UInputEvent@Ogre@@@std@@@std@@KAXXZ ENDP ; std::deque<Ogre::InputEvent,std::allocator<Ogre::InputEvent> >::_Xlen
PUBLIC	??1logic_error@std@@UAE@XZ			; std::logic_error::~logic_error
PUBLIC	??_7length_error@std@@6B@			; std::length_error::`vftable'
PUBLIC	??0logic_error@std@@QAE@ABV?$basic_string@DU?$char_traits@D@std@@V?$allocator@D@2@@1@@Z ; std::logic_error::logic_error
PUBLIC	??_R4length_error@std@@6B@			; std::length_error::`RTTI Complete Object Locator'
PUBLIC	??_R3length_error@std@@8			; std::length_error::`RTTI Class Hierarchy Descriptor'
PUBLIC	??_R2length_error@std@@8			; std::length_error::`RTTI Base Class Array'
PUBLIC	??_R1A@?0A@EA@length_error@std@@8		; std::length_error::`RTTI Base Class Descriptor at (0,-1,0,64)'
PUBLIC	??_R1A@?0A@EA@logic_error@std@@8		; std::logic_error::`RTTI Base Class Descriptor at (0,-1,0,64)'
PUBLIC	??_R3logic_error@std@@8				; std::logic_error::`RTTI Class Hierarchy Descriptor'
PUBLIC	??_R2logic_error@std@@8				; std::logic_error::`RTTI Base Class Array'
PUBLIC	??_R1A@?0A@EA@exception@std@@8			; std::exception::`RTTI Base Class Descriptor at (0,-1,0,64)'
PUBLIC	??_R3exception@std@@8				; std::exception::`RTTI Class Hierarchy Descriptor'
PUBLIC	??_R2exception@std@@8				; std::exception::`RTTI Base Class Array'
PUBLIC	?what@logic_error@std@@UBEPBDXZ			; std::logic_error::what
EXTRN	??_Elength_error@std@@UAEPAXI@Z:PROC		; std::length_error::`vector deleting destructor'
;	COMDAT ??_R2exception@std@@8
; File d:\program files (x86)\microsoft visual studio 9.0\vc\include\stdexcept
rdata$r	SEGMENT
??_R2exception@std@@8 DD FLAT:??_R1A@?0A@EA@exception@std@@8 ; std::exception::`RTTI Base Class Array'
rdata$r	ENDS
;	COMDAT ??_R3exception@std@@8
rdata$r	SEGMENT
??_R3exception@std@@8 DD 00H				; std::exception::`RTTI Class Hierarchy Descriptor'
	DD	00H
	DD	01H
	DD	FLAT:??_R2exception@std@@8
rdata$r	ENDS
;	COMDAT ??_R1A@?0A@EA@exception@std@@8
rdata$r	SEGMENT
??_R1A@?0A@EA@exception@std@@8 DD FLAT:??_R0?AVexception@std@@@8 ; std::exception::`RTTI Base Class Descriptor at (0,-1,0,64)'
	DD	00H
	DD	00H
	DD	0ffffffffH
	DD	00H
	DD	040H
	DD	FLAT:??_R3exception@std@@8
rdata$r	ENDS
;	COMDAT ??_R2logic_error@std@@8
rdata$r	SEGMENT
??_R2logic_error@std@@8 DD FLAT:??_R1A@?0A@EA@logic_error@std@@8 ; std::logic_error::`RTTI Base Class Array'
	DD	FLAT:??_R1A@?0A@EA@exception@std@@8
rdata$r	ENDS
;	COMDAT ??_R3logic_error@std@@8
rdata$r	SEGMENT
??_R3logic_error@std@@8 DD 00H				; std::logic_error::`RTTI Class Hierarchy Descriptor'
	DD	00H
	DD	02H
	DD	FLAT:??_R2logic_error@std@@8
rdata$r	ENDS
;	COMDAT ??_R1A@?0A@EA@logic_error@std@@8
rdata$r	SEGMENT
??_R1A@?0A@EA@logic_error@std@@8 DD FLAT:??_R0?AVlogic_error@std@@@8 ; std::logic_error::`RTTI Base Class Descriptor at (0,-1,0,64)'
	DD	01H
	DD	00H
	DD	0ffffffffH
	DD	00H
	DD	040H
	DD	FLAT:??_R3logic_error@std@@8
rdata$r	ENDS
;	COMDAT ??_R1A@?0A@EA@length_error@std@@8
rdata$r	SEGMENT
??_R1A@?0A@EA@length_error@std@@8 DD FLAT:??_R0?AVlength_error@std@@@8 ; std::length_error::`RTTI Base Class Descriptor at (0,-1,0,64)'
	DD	02H
	DD	00H
	DD	0ffffffffH
	DD	00H
	DD	040H
	DD	FLAT:??_R3length_error@std@@8
rdata$r	ENDS
;	COMDAT ??_R2length_error@std@@8
rdata$r	SEGMENT
??_R2length_error@std@@8 DD FLAT:??_R1A@?0A@EA@length_error@std@@8 ; std::length_error::`RTTI Base Class Array'
	DD	FLAT:??_R1A@?0A@EA@logic_error@std@@8
	DD	FLAT:??_R1A@?0A@EA@exception@std@@8
rdata$r	ENDS
;	COMDAT ??_R3length_error@std@@8
rdata$r	SEGMENT
??_R3length_error@std@@8 DD 00H				; std::length_error::`RTTI Class Hierarchy Descriptor'
	DD	00H
	DD	03H
	DD	FLAT:??_R2length_error@std@@8
rdata$r	ENDS
;	COMDAT ??_R4length_error@std@@6B@
rdata$r	SEGMENT
??_R4length_error@std@@6B@ DD 00H			; std::length_error::`RTTI Complete Object Locator'
	DD	00H
	DD	00H
	DD	FLAT:??_R0?AVlength_error@std@@@8
	DD	FLAT:??_R3length_error@std@@8
rdata$r	ENDS
;	COMDAT ??_7length_error@std@@6B@
CONST	SEGMENT
??_7length_error@std@@6B@ DD FLAT:??_R4length_error@std@@6B@ ; std::length_error::`vftable'
	DD	FLAT:??_Elength_error@std@@UAEPAXI@Z
	DD	FLAT:?what@logic_error@std@@UBEPBDXZ
CONST	ENDS
;	COMDAT xdata$x
xdata$x	SEGMENT
__unwindtable$??0length_error@std@@QAE@ABV?$basic_string@DU?$char_traits@D@std@@V?$allocator@D@2@@1@@Z DD 0ffffffffH
	DD	FLAT:__unwindfunclet$??0length_error@std@@QAE@ABV?$basic_string@DU?$char_traits@D@std@@V?$allocator@D@2@@1@@Z$0
__ehfuncinfo$??0length_error@std@@QAE@ABV?$basic_string@DU?$char_traits@D@std@@V?$allocator@D@2@@1@@Z DD 019930522H
	DD	01H
	DD	FLAT:__unwindtable$??0length_error@std@@QAE@ABV?$basic_string@DU?$char_traits@D@std@@V?$allocator@D@2@@1@@Z
	DD	2 DUP(00H)
	DD	2 DUP(00H)
	DD	00H
	DD	00H
; Function compile flags: /Odtp
xdata$x	ENDS
;	COMDAT ??0length_error@std@@QAE@ABV?$basic_string@DU?$char_traits@D@std@@V?$allocator@D@2@@1@@Z
_TEXT	SEGMENT
_this$ = -16						; size = 4
__$EHRec$ = -12						; size = 12
__Message$ = 8						; size = 4
??0length_error@std@@QAE@ABV?$basic_string@DU?$char_traits@D@std@@V?$allocator@D@2@@1@@Z PROC ; std::length_error::length_error, COMDAT
; _this$ = ecx

; 105  : 		{	// construct from message string

	push	ebp
	mov	ebp, esp
	push	-1
	push	__ehhandler$??0length_error@std@@QAE@ABV?$basic_string@DU?$char_traits@D@std@@V?$allocator@D@2@@1@@Z
	mov	eax, DWORD PTR fs:0
	push	eax
	push	ecx
	mov	eax, DWORD PTR ___security_cookie
	xor	eax, ebp
	push	eax
	lea	eax, DWORD PTR __$EHRec$[ebp]
	mov	DWORD PTR fs:0, eax
	mov	DWORD PTR _this$[ebp], ecx
	mov	eax, DWORD PTR __Message$[ebp]
	push	eax
	mov	ecx, DWORD PTR _this$[ebp]
	call	??0logic_error@std@@QAE@ABV?$basic_string@DU?$char_traits@D@std@@V?$allocator@D@2@@1@@Z ; std::logic_error::logic_error
	mov	DWORD PTR __$EHRec$[ebp+8], 0
	mov	ecx, DWORD PTR _this$[ebp]
	mov	DWORD PTR [ecx], OFFSET ??_7length_error@std@@6B@

; 106  : 		}

	mov	DWORD PTR __$EHRec$[ebp+8], -1
	mov	eax, DWORD PTR _this$[ebp]
	mov	ecx, DWORD PTR __$EHRec$[ebp]
	mov	DWORD PTR fs:0, ecx
	pop	ecx
	mov	esp, ebp
	pop	ebp
	ret	4
_TEXT	ENDS
;	COMDAT text$x
text$x	SEGMENT
__unwindfunclet$??0length_error@std@@QAE@ABV?$basic_string@DU?$char_traits@D@std@@V?$allocator@D@2@@1@@Z$0:
	mov	ecx, DWORD PTR _this$[ebp]
	jmp	??1logic_error@std@@UAE@XZ		; std::logic_error::~logic_error
__ehhandler$??0length_error@std@@QAE@ABV?$basic_string@DU?$char_traits@D@std@@V?$allocator@D@2@@1@@Z:
	mov	edx, DWORD PTR [esp+8]
	lea	eax, DWORD PTR [edx+12]
	mov	ecx, DWORD PTR [edx-8]
	xor	ecx, eax
	call	@__security_check_cookie@4
	mov	eax, OFFSET __ehfuncinfo$??0length_error@std@@QAE@ABV?$basic_string@DU?$char_traits@D@std@@V?$allocator@D@2@@1@@Z
	jmp	___CxxFrameHandler3
text$x	ENDS
??0length_error@std@@QAE@ABV?$basic_string@DU?$char_traits@D@std@@V?$allocator@D@2@@1@@Z ENDP ; std::length_error::length_error
PUBLIC	??_7logic_error@std@@6B@			; std::logic_error::`vftable'
PUBLIC	??_R4logic_error@std@@6B@			; std::logic_error::`RTTI Complete Object Locator'
EXTRN	__imp_??1exception@std@@UAE@XZ:PROC
EXTRN	__imp_??0?$basic_string@DU?$char_traits@D@std@@V?$allocator@D@2@@std@@QAE@ABV01@@Z:PROC
EXTRN	__imp_??0exception@std@@QAE@XZ:PROC
EXTRN	??_Elogic_error@std@@UAEPAXI@Z:PROC		; std::logic_error::`vector deleting destructor'
;	COMDAT ??_R4logic_error@std@@6B@
rdata$r	SEGMENT
??_R4logic_error@std@@6B@ DD 00H			; std::logic_error::`RTTI Complete Object Locator'
	DD	00H
	DD	00H
	DD	FLAT:??_R0?AVlogic_error@std@@@8
	DD	FLAT:??_R3logic_error@std@@8
rdata$r	ENDS
;	COMDAT ??_7logic_error@std@@6B@
CONST	SEGMENT
??_7logic_error@std@@6B@ DD FLAT:??_R4logic_error@std@@6B@ ; std::logic_error::`vftable'
	DD	FLAT:??_Elogic_error@std@@UAEPAXI@Z
	DD	FLAT:?what@logic_error@std@@UBEPBDXZ
CONST	ENDS
;	COMDAT xdata$x
xdata$x	SEGMENT
__unwindtable$??0logic_error@std@@QAE@ABV?$basic_string@DU?$char_traits@D@std@@V?$allocator@D@2@@1@@Z DD 0ffffffffH
	DD	FLAT:__unwindfunclet$??0logic_error@std@@QAE@ABV?$basic_string@DU?$char_traits@D@std@@V?$allocator@D@2@@1@@Z$0
	DD	00H
	DD	FLAT:__unwindfunclet$??0logic_error@std@@QAE@ABV?$basic_string@DU?$char_traits@D@std@@V?$allocator@D@2@@1@@Z$1
__ehfuncinfo$??0logic_error@std@@QAE@ABV?$basic_string@DU?$char_traits@D@std@@V?$allocator@D@2@@1@@Z DD 019930522H
	DD	02H
	DD	FLAT:__unwindtable$??0logic_error@std@@QAE@ABV?$basic_string@DU?$char_traits@D@std@@V?$allocator@D@2@@1@@Z
	DD	2 DUP(00H)
	DD	2 DUP(00H)
	DD	00H
	DD	00H
; Function compile flags: /Odtp
xdata$x	ENDS
;	COMDAT ??0logic_error@std@@QAE@ABV?$basic_string@DU?$char_traits@D@std@@V?$allocator@D@2@@1@@Z
_TEXT	SEGMENT
_this$ = -16						; size = 4
__$EHRec$ = -12						; size = 12
__Message$ = 8						; size = 4
??0logic_error@std@@QAE@ABV?$basic_string@DU?$char_traits@D@std@@V?$allocator@D@2@@1@@Z PROC ; std::logic_error::logic_error, COMDAT
; _this$ = ecx

; 26   : 		{	// construct from message string

	push	ebp
	mov	ebp, esp
	push	-1
	push	__ehhandler$??0logic_error@std@@QAE@ABV?$basic_string@DU?$char_traits@D@std@@V?$allocator@D@2@@1@@Z
	mov	eax, DWORD PTR fs:0
	push	eax
	push	ecx
	mov	eax, DWORD PTR ___security_cookie
	xor	eax, ebp
	push	eax
	lea	eax, DWORD PTR __$EHRec$[ebp]
	mov	DWORD PTR fs:0, eax
	mov	DWORD PTR _this$[ebp], ecx
	mov	ecx, DWORD PTR _this$[ebp]
	call	DWORD PTR __imp_??0exception@std@@QAE@XZ
	mov	DWORD PTR __$EHRec$[ebp+8], 0
	mov	eax, DWORD PTR _this$[ebp]
	mov	DWORD PTR [eax], OFFSET ??_7logic_error@std@@6B@
	mov	ecx, DWORD PTR __Message$[ebp]
	push	ecx
	mov	ecx, DWORD PTR _this$[ebp]
	add	ecx, 12					; 0000000cH
	call	DWORD PTR __imp_??0?$basic_string@DU?$char_traits@D@std@@V?$allocator@D@2@@std@@QAE@ABV01@@Z
	mov	BYTE PTR __$EHRec$[ebp+8], 1

; 27   : 		}

	mov	DWORD PTR __$EHRec$[ebp+8], -1
	mov	eax, DWORD PTR _this$[ebp]
	mov	ecx, DWORD PTR __$EHRec$[ebp]
	mov	DWORD PTR fs:0, ecx
	pop	ecx
	mov	esp, ebp
	pop	ebp
	ret	4
_TEXT	ENDS
;	COMDAT text$x
text$x	SEGMENT
__unwindfunclet$??0logic_error@std@@QAE@ABV?$basic_string@DU?$char_traits@D@std@@V?$allocator@D@2@@1@@Z$0:
	mov	ecx, DWORD PTR _this$[ebp]
	jmp	DWORD PTR __imp_??1exception@std@@UAE@XZ
__unwindfunclet$??0logic_error@std@@QAE@ABV?$basic_string@DU?$char_traits@D@std@@V?$allocator@D@2@@1@@Z$1:
	mov	ecx, DWORD PTR _this$[ebp]
	add	ecx, 12					; 0000000cH
	jmp	DWORD PTR __imp_??1?$basic_string@DU?$char_traits@D@std@@V?$allocator@D@2@@std@@QAE@XZ
__ehhandler$??0logic_error@std@@QAE@ABV?$basic_string@DU?$char_traits@D@std@@V?$allocator@D@2@@1@@Z:
	mov	edx, DWORD PTR [esp+8]
	lea	eax, DWORD PTR [edx+12]
	mov	ecx, DWORD PTR [edx-8]
	xor	ecx, eax
	call	@__security_check_cookie@4
	mov	eax, OFFSET __ehfuncinfo$??0logic_error@std@@QAE@ABV?$basic_string@DU?$char_traits@D@std@@V?$allocator@D@2@@1@@Z
	jmp	___CxxFrameHandler3
text$x	ENDS
??0logic_error@std@@QAE@ABV?$basic_string@DU?$char_traits@D@std@@V?$allocator@D@2@@1@@Z ENDP ; std::logic_error::logic_error
;	COMDAT xdata$x
xdata$x	SEGMENT
__unwindtable$??1logic_error@std@@UAE@XZ DD 0ffffffffH
	DD	FLAT:__unwindfunclet$??1logic_error@std@@UAE@XZ$0
	DD	00H
	DD	FLAT:__unwindfunclet$??1logic_error@std@@UAE@XZ$1
__ehfuncinfo$??1logic_error@std@@UAE@XZ DD 019930522H
	DD	02H
	DD	FLAT:__unwindtable$??1logic_error@std@@UAE@XZ
	DD	2 DUP(00H)
	DD	2 DUP(00H)
	DD	00H
	DD	00H
; Function compile flags: /Odtp
xdata$x	ENDS
;	COMDAT ??1logic_error@std@@UAE@XZ
_TEXT	SEGMENT
_this$ = -16						; size = 4
__$EHRec$ = -12						; size = 12
??1logic_error@std@@UAE@XZ PROC				; std::logic_error::~logic_error, COMDAT
; _this$ = ecx

; 30   : 		{	// destroy the object

	push	ebp
	mov	ebp, esp
	push	-1
	push	__ehhandler$??1logic_error@std@@UAE@XZ
	mov	eax, DWORD PTR fs:0
	push	eax
	push	ecx
	mov	eax, DWORD PTR ___security_cookie
	xor	eax, ebp
	push	eax
	lea	eax, DWORD PTR __$EHRec$[ebp]
	mov	DWORD PTR fs:0, eax
	mov	DWORD PTR _this$[ebp], ecx
	mov	eax, DWORD PTR _this$[ebp]
	mov	DWORD PTR [eax], OFFSET ??_7logic_error@std@@6B@
	mov	DWORD PTR __$EHRec$[ebp+8], 1

; 31   : 		}

	mov	BYTE PTR __$EHRec$[ebp+8], 0
	mov	ecx, DWORD PTR _this$[ebp]
	add	ecx, 12					; 0000000cH
	call	DWORD PTR __imp_??1?$basic_string@DU?$char_traits@D@std@@V?$allocator@D@2@@std@@QAE@XZ
	mov	DWORD PTR __$EHRec$[ebp+8], -1
	mov	ecx, DWORD PTR _this$[ebp]
	call	DWORD PTR __imp_??1exception@std@@UAE@XZ
	mov	ecx, DWORD PTR __$EHRec$[ebp]
	mov	DWORD PTR fs:0, ecx
	pop	ecx
	mov	esp, ebp
	pop	ebp
	ret	0
_TEXT	ENDS
;	COMDAT text$x
text$x	SEGMENT
__unwindfunclet$??1logic_error@std@@UAE@XZ$0:
	mov	ecx, DWORD PTR _this$[ebp]
	jmp	DWORD PTR __imp_??1exception@std@@UAE@XZ
__unwindfunclet$??1logic_error@std@@UAE@XZ$1:
	mov	ecx, DWORD PTR _this$[ebp]
	add	ecx, 12					; 0000000cH
	jmp	DWORD PTR __imp_??1?$basic_string@DU?$char_traits@D@std@@V?$allocator@D@2@@std@@QAE@XZ
__ehhandler$??1logic_error@std@@UAE@XZ:
	mov	edx, DWORD PTR [esp+8]
	lea	eax, DWORD PTR [edx+12]
	mov	ecx, DWORD PTR [edx-8]
	xor	ecx, eax
	call	@__security_check_cookie@4
	mov	eax, OFFSET __ehfuncinfo$??1logic_error@std@@UAE@XZ
	jmp	___CxxFrameHandler3
text$x	ENDS
??1logic_error@std@@UAE@XZ ENDP				; std::logic_error::~logic_error
EXTRN	__imp_?c_str@?$basic_string@DU?$char_traits@D@std@@V?$allocator@D@2@@std@@QBEPBDXZ:PROC
; Function compile flags: /Odtp
;	COMDAT ?what@logic_error@std@@UBEPBDXZ
_TEXT	SEGMENT
_this$ = -4						; size = 4
?what@logic_error@std@@UBEPBDXZ PROC			; std::logic_error::what, COMDAT
; _this$ = ecx

; 34   : 		{	// return pointer to message string

	push	ebp
	mov	ebp, esp
	push	ecx
	mov	DWORD PTR _this$[ebp], ecx

; 35   : 		return (_Str.c_str());

	mov	ecx, DWORD PTR _this$[ebp]
	add	ecx, 12					; 0000000cH
	call	DWORD PTR __imp_?c_str@?$basic_string@DU?$char_traits@D@std@@V?$allocator@D@2@@std@@QBEPBDXZ

; 36   : 		}

	mov	esp, ebp
	pop	ebp
	ret	0
?what@logic_error@std@@UBEPBDXZ ENDP			; std::logic_error::what
; Function compile flags: /Odtp
_TEXT	ENDS
;	COMDAT ??_Glogic_error@std@@UAEPAXI@Z
_TEXT	SEGMENT
_this$ = -4						; size = 4
___flags$ = 8						; size = 4
??_Glogic_error@std@@UAEPAXI@Z PROC			; std::logic_error::`scalar deleting destructor', COMDAT
; _this$ = ecx
	push	ebp
	mov	ebp, esp
	push	ecx
	mov	DWORD PTR _this$[ebp], ecx
	mov	ecx, DWORD PTR _this$[ebp]
	call	??1logic_error@std@@UAE@XZ		; std::logic_error::~logic_error
	mov	eax, DWORD PTR ___flags$[ebp]
	and	eax, 1
	je	SHORT $LN1@scalar
	mov	ecx, DWORD PTR _this$[ebp]
	push	ecx
	call	??3@YAXPAX@Z				; operator delete
	add	esp, 4
$LN1@scalar:
	mov	eax, DWORD PTR _this$[ebp]
	mov	esp, ebp
	pop	ebp
	ret	4
??_Glogic_error@std@@UAEPAXI@Z ENDP			; std::logic_error::`scalar deleting destructor'
_TEXT	ENDS
;	COMDAT xdata$x
xdata$x	SEGMENT
__unwindtable$??1length_error@std@@UAE@XZ DD 0ffffffffH
	DD	FLAT:__unwindfunclet$??1length_error@std@@UAE@XZ$0
__ehfuncinfo$??1length_error@std@@UAE@XZ DD 019930522H
	DD	01H
	DD	FLAT:__unwindtable$??1length_error@std@@UAE@XZ
	DD	2 DUP(00H)
	DD	2 DUP(00H)
	DD	00H
	DD	00H
; Function compile flags: /Odtp
xdata$x	ENDS
;	COMDAT ??1length_error@std@@UAE@XZ
_TEXT	SEGMENT
_this$ = -16						; size = 4
__$EHRec$ = -12						; size = 12
??1length_error@std@@UAE@XZ PROC			; std::length_error::~length_error, COMDAT
; _this$ = ecx

; 109  : 		{	// destroy the object

	push	ebp
	mov	ebp, esp
	push	-1
	push	__ehhandler$??1length_error@std@@UAE@XZ
	mov	eax, DWORD PTR fs:0
	push	eax
	push	ecx
	mov	eax, DWORD PTR ___security_cookie
	xor	eax, ebp
	push	eax
	lea	eax, DWORD PTR __$EHRec$[ebp]
	mov	DWORD PTR fs:0, eax
	mov	DWORD PTR _this$[ebp], ecx
	mov	eax, DWORD PTR _this$[ebp]
	mov	DWORD PTR [eax], OFFSET ??_7length_error@std@@6B@
	mov	DWORD PTR __$EHRec$[ebp+8], 0

; 110  : 		}

	mov	DWORD PTR __$EHRec$[ebp+8], -1
	mov	ecx, DWORD PTR _this$[ebp]
	call	??1logic_error@std@@UAE@XZ		; std::logic_error::~logic_error
	mov	ecx, DWORD PTR __$EHRec$[ebp]
	mov	DWORD PTR fs:0, ecx
	pop	ecx
	mov	esp, ebp
	pop	ebp
	ret	0
_TEXT	ENDS
;	COMDAT text$x
text$x	SEGMENT
__unwindfunclet$??1length_error@std@@UAE@XZ$0:
	mov	ecx, DWORD PTR _this$[ebp]
	jmp	??1logic_error@std@@UAE@XZ		; std::logic_error::~logic_error
__ehhandler$??1length_error@std@@UAE@XZ:
	mov	edx, DWORD PTR [esp+8]
	lea	eax, DWORD PTR [edx+12]
	mov	ecx, DWORD PTR [edx-8]
	xor	ecx, eax
	call	@__security_check_cookie@4
	mov	eax, OFFSET __ehfuncinfo$??1length_error@std@@UAE@XZ
	jmp	___CxxFrameHandler3
text$x	ENDS
??1length_error@std@@UAE@XZ ENDP			; std::length_error::~length_error
; Function compile flags: /Odtp
;	COMDAT ??_Glength_error@std@@UAEPAXI@Z
_TEXT	SEGMENT
_this$ = -4						; size = 4
___flags$ = 8						; size = 4
??_Glength_error@std@@UAEPAXI@Z PROC			; std::length_error::`scalar deleting destructor', COMDAT
; _this$ = ecx
	push	ebp
	mov	ebp, esp
	push	ecx
	mov	DWORD PTR _this$[ebp], ecx
	mov	ecx, DWORD PTR _this$[ebp]
	call	??1length_error@std@@UAE@XZ		; std::length_error::~length_error
	mov	eax, DWORD PTR ___flags$[ebp]
	and	eax, 1
	je	SHORT $LN1@scalar@2
	mov	ecx, DWORD PTR _this$[ebp]
	push	ecx
	call	??3@YAXPAX@Z				; operator delete
	add	esp, 4
$LN1@scalar@2:
	mov	eax, DWORD PTR _this$[ebp]
	mov	esp, ebp
	pop	ebp
	ret	4
??_Glength_error@std@@UAEPAXI@Z ENDP			; std::length_error::`scalar deleting destructor'
_TEXT	ENDS
EXTRN	__imp_??0exception@std@@QAE@ABV01@@Z:PROC
;	COMDAT xdata$x
xdata$x	SEGMENT
__unwindtable$??0logic_error@std@@QAE@ABV01@@Z DD 0ffffffffH
	DD	FLAT:__unwindfunclet$??0logic_error@std@@QAE@ABV01@@Z$0
	DD	00H
	DD	FLAT:__unwindfunclet$??0logic_error@std@@QAE@ABV01@@Z$1
__ehfuncinfo$??0logic_error@std@@QAE@ABV01@@Z DD 019930522H
	DD	02H
	DD	FLAT:__unwindtable$??0logic_error@std@@QAE@ABV01@@Z
	DD	2 DUP(00H)
	DD	2 DUP(00H)
	DD	00H
	DD	00H
; Function compile flags: /Odtp
xdata$x	ENDS
;	COMDAT ??0logic_error@std@@QAE@ABV01@@Z
_TEXT	SEGMENT
_this$ = -16						; size = 4
__$EHRec$ = -12						; size = 12
___that$ = 8						; size = 4
??0logic_error@std@@QAE@ABV01@@Z PROC			; std::logic_error::logic_error, COMDAT
; _this$ = ecx
	push	ebp
	mov	ebp, esp
	push	-1
	push	__ehhandler$??0logic_error@std@@QAE@ABV01@@Z
	mov	eax, DWORD PTR fs:0
	push	eax
	push	ecx
	mov	eax, DWORD PTR ___security_cookie
	xor	eax, ebp
	push	eax
	lea	eax, DWORD PTR __$EHRec$[ebp]
	mov	DWORD PTR fs:0, eax
	mov	DWORD PTR _this$[ebp], ecx
	mov	eax, DWORD PTR ___that$[ebp]
	push	eax
	mov	ecx, DWORD PTR _this$[ebp]
	call	DWORD PTR __imp_??0exception@std@@QAE@ABV01@@Z
	mov	DWORD PTR __$EHRec$[ebp+8], 0
	mov	ecx, DWORD PTR _this$[ebp]
	mov	DWORD PTR [ecx], OFFSET ??_7logic_error@std@@6B@
	mov	edx, DWORD PTR ___that$[ebp]
	add	edx, 12					; 0000000cH
	push	edx
	mov	ecx, DWORD PTR _this$[ebp]
	add	ecx, 12					; 0000000cH
	call	DWORD PTR __imp_??0?$basic_string@DU?$char_traits@D@std@@V?$allocator@D@2@@std@@QAE@ABV01@@Z
	mov	BYTE PTR __$EHRec$[ebp+8], 1
	mov	DWORD PTR __$EHRec$[ebp+8], -1
	mov	eax, DWORD PTR _this$[ebp]
	mov	ecx, DWORD PTR __$EHRec$[ebp]
	mov	DWORD PTR fs:0, ecx
	pop	ecx
	mov	esp, ebp
	pop	ebp
	ret	4
_TEXT	ENDS
;	COMDAT text$x
text$x	SEGMENT
__unwindfunclet$??0logic_error@std@@QAE@ABV01@@Z$0:
	mov	ecx, DWORD PTR _this$[ebp]
	jmp	DWORD PTR __imp_??1exception@std@@UAE@XZ
__unwindfunclet$??0logic_error@std@@QAE@ABV01@@Z$1:
	mov	ecx, DWORD PTR _this$[ebp]
	add	ecx, 12					; 0000000cH
	jmp	DWORD PTR __imp_??1?$basic_string@DU?$char_traits@D@std@@V?$allocator@D@2@@std@@QAE@XZ
__ehhandler$??0logic_error@std@@QAE@ABV01@@Z:
	mov	edx, DWORD PTR [esp+8]
	lea	eax, DWORD PTR [edx+12]
	mov	ecx, DWORD PTR [edx-8]
	xor	ecx, eax
	call	@__security_check_cookie@4
	mov	eax, OFFSET __ehfuncinfo$??0logic_error@std@@QAE@ABV01@@Z
	jmp	___CxxFrameHandler3
text$x	ENDS
??0logic_error@std@@QAE@ABV01@@Z ENDP			; std::logic_error::logic_error
PUBLIC	??$?0UInputEvent@Ogre@@@?$allocator@PAUInputEvent@Ogre@@@std@@QAE@ABV?$allocator@UInputEvent@Ogre@@@1@@Z ; std::allocator<Ogre::InputEvent *>::allocator<Ogre::InputEvent *><Ogre::InputEvent>
PUBLIC	??0?$_Container_base_aux_alloc_real@V?$allocator@UInputEvent@Ogre@@@std@@@std@@IAE@V?$allocator@UInputEvent@Ogre@@@1@@Z ; std::_Container_base_aux_alloc_real<std::allocator<Ogre::InputEvent> >::_Container_base_aux_alloc_real<std::allocator<Ogre::InputEvent> >
;	COMDAT xdata$x
; File d:\program files (x86)\microsoft visual studio 9.0\vc\include\deque
xdata$x	SEGMENT
__unwindtable$??0?$_Deque_map@UInputEvent@Ogre@@V?$allocator@UInputEvent@Ogre@@@std@@@std@@IAE@V?$allocator@UInputEvent@Ogre@@@1@@Z DD 0ffffffffH
	DD	FLAT:__unwindfunclet$??0?$_Deque_map@UInputEvent@Ogre@@V?$allocator@UInputEvent@Ogre@@@std@@@std@@IAE@V?$allocator@UInputEvent@Ogre@@@1@@Z$0
__ehfuncinfo$??0?$_Deque_map@UInputEvent@Ogre@@V?$allocator@UInputEvent@Ogre@@@std@@@std@@IAE@V?$allocator@UInputEvent@Ogre@@@1@@Z DD 019930522H
	DD	01H
	DD	FLAT:__unwindtable$??0?$_Deque_map@UInputEvent@Ogre@@V?$allocator@UInputEvent@Ogre@@@std@@@std@@IAE@V?$allocator@UInputEvent@Ogre@@@1@@Z
	DD	2 DUP(00H)
	DD	2 DUP(00H)
	DD	00H
	DD	00H
; Function compile flags: /Odtp
xdata$x	ENDS
;	COMDAT ??0?$_Deque_map@UInputEvent@Ogre@@V?$allocator@UInputEvent@Ogre@@@std@@@std@@IAE@V?$allocator@UInputEvent@Ogre@@@1@@Z
_TEXT	SEGMENT
_this$ = -20						; size = 4
$T125824 = -16						; size = 4
__$EHRec$ = -12						; size = 12
__Al$ = 8						; size = 1
??0?$_Deque_map@UInputEvent@Ogre@@V?$allocator@UInputEvent@Ogre@@@std@@@std@@IAE@V?$allocator@UInputEvent@Ogre@@@1@@Z PROC ; std::_Deque_map<Ogre::InputEvent,std::allocator<Ogre::InputEvent> >::_Deque_map<Ogre::InputEvent,std::allocator<Ogre::InputEvent> >, COMDAT
; _this$ = ecx

; 478  : 		{	// construct allocator from _Al

	push	ebp
	mov	ebp, esp
	push	-1
	push	__ehhandler$??0?$_Deque_map@UInputEvent@Ogre@@V?$allocator@UInputEvent@Ogre@@@std@@@std@@IAE@V?$allocator@UInputEvent@Ogre@@@1@@Z
	mov	eax, DWORD PTR fs:0
	push	eax
	sub	esp, 8
	mov	eax, DWORD PTR ___security_cookie
	xor	eax, ebp
	push	eax
	lea	eax, DWORD PTR __$EHRec$[ebp]
	mov	DWORD PTR fs:0, eax
	mov	DWORD PTR _this$[ebp], ecx
	push	ecx
	mov	ecx, esp
	mov	DWORD PTR $T125824[ebp], esp
	lea	eax, DWORD PTR __Al$[ebp]
	push	eax
	call	??0?$allocator@UInputEvent@Ogre@@@std@@QAE@ABV01@@Z ; std::allocator<Ogre::InputEvent>::allocator<Ogre::InputEvent>
	mov	ecx, DWORD PTR _this$[ebp]
	call	??0?$_Container_base_aux_alloc_real@V?$allocator@UInputEvent@Ogre@@@std@@@std@@IAE@V?$allocator@UInputEvent@Ogre@@@1@@Z ; std::_Container_base_aux_alloc_real<std::allocator<Ogre::InputEvent> >::_Container_base_aux_alloc_real<std::allocator<Ogre::InputEvent> >
	mov	DWORD PTR __$EHRec$[ebp+8], 0
	lea	ecx, DWORD PTR __Al$[ebp]
	push	ecx
	mov	ecx, DWORD PTR _this$[ebp]
	add	ecx, 8
	call	??$?0UInputEvent@Ogre@@@?$allocator@PAUInputEvent@Ogre@@@std@@QAE@ABV?$allocator@UInputEvent@Ogre@@@1@@Z ; std::allocator<Ogre::InputEvent *>::allocator<Ogre::InputEvent *><Ogre::InputEvent>

; 479  : 		}

	mov	DWORD PTR __$EHRec$[ebp+8], -1
	mov	eax, DWORD PTR _this$[ebp]
	mov	ecx, DWORD PTR __$EHRec$[ebp]
	mov	DWORD PTR fs:0, ecx
	pop	ecx
	mov	esp, ebp
	pop	ebp
	ret	4
_TEXT	ENDS
;	COMDAT text$x
text$x	SEGMENT
__unwindfunclet$??0?$_Deque_map@UInputEvent@Ogre@@V?$allocator@UInputEvent@Ogre@@@std@@@std@@IAE@V?$allocator@UInputEvent@Ogre@@@1@@Z$0:
	mov	ecx, DWORD PTR _this$[ebp]
	jmp	??1?$_Container_base_aux_alloc_real@V?$allocator@UInputEvent@Ogre@@@std@@@std@@IAE@XZ ; std::_Container_base_aux_alloc_real<std::allocator<Ogre::InputEvent> >::~_Container_base_aux_alloc_real<std::allocator<Ogre::InputEvent> >
__ehhandler$??0?$_Deque_map@UInputEvent@Ogre@@V?$allocator@UInputEvent@Ogre@@@std@@@std@@IAE@V?$allocator@UInputEvent@Ogre@@@1@@Z:
	mov	edx, DWORD PTR [esp+8]
	lea	eax, DWORD PTR [edx+12]
	mov	ecx, DWORD PTR [edx-12]
	xor	ecx, eax
	call	@__security_check_cookie@4
	mov	eax, OFFSET __ehfuncinfo$??0?$_Deque_map@UInputEvent@Ogre@@V?$allocator@UInputEvent@Ogre@@@std@@@std@@IAE@V?$allocator@UInputEvent@Ogre@@@1@@Z
	jmp	___CxxFrameHandler3
text$x	ENDS
??0?$_Deque_map@UInputEvent@Ogre@@V?$allocator@UInputEvent@Ogre@@@std@@@std@@IAE@V?$allocator@UInputEvent@Ogre@@@1@@Z ENDP ; std::_Deque_map<Ogre::InputEvent,std::allocator<Ogre::InputEvent> >::_Deque_map<Ogre::InputEvent,std::allocator<Ogre::InputEvent> >
; Function compile flags: /Odtp
; File d:\program files (x86)\microsoft visual studio 9.0\vc\include\xmemory
;	COMDAT ?deallocate@?$allocator@UInputEvent@Ogre@@@std@@QAEXPAUInputEvent@Ogre@@I@Z
_TEXT	SEGMENT
_this$ = -4						; size = 4
__Ptr$ = 8						; size = 4
___formal$ = 12						; size = 4
?deallocate@?$allocator@UInputEvent@Ogre@@@std@@QAEXPAUInputEvent@Ogre@@I@Z PROC ; std::allocator<Ogre::InputEvent>::deallocate, COMDAT
; _this$ = ecx

; 139  : 		{	// deallocate object at _Ptr, ignore size

	push	ebp
	mov	ebp, esp
	push	ecx
	mov	DWORD PTR _this$[ebp], ecx

; 140  : 		::operator delete(_Ptr);

	mov	eax, DWORD PTR __Ptr$[ebp]
	push	eax
	call	??3@YAXPAX@Z				; operator delete
	add	esp, 4

; 141  : 		}

	mov	esp, ebp
	pop	ebp
	ret	8
?deallocate@?$allocator@UInputEvent@Ogre@@@std@@QAEXPAUInputEvent@Ogre@@I@Z ENDP ; std::allocator<Ogre::InputEvent>::deallocate
; Function compile flags: /Odtp
_TEXT	ENDS
;	COMDAT ?deallocate@?$allocator@V_Aux_cont@std@@@std@@QAEXPAV_Aux_cont@2@I@Z
_TEXT	SEGMENT
_this$ = -4						; size = 4
__Ptr$ = 8						; size = 4
___formal$ = 12						; size = 4
?deallocate@?$allocator@V_Aux_cont@std@@@std@@QAEXPAV_Aux_cont@2@I@Z PROC ; std::allocator<std::_Aux_cont>::deallocate, COMDAT
; _this$ = ecx

; 139  : 		{	// deallocate object at _Ptr, ignore size

	push	ebp
	mov	ebp, esp
	push	ecx
	mov	DWORD PTR _this$[ebp], ecx

; 140  : 		::operator delete(_Ptr);

	mov	eax, DWORD PTR __Ptr$[ebp]
	push	eax
	call	??3@YAXPAX@Z				; operator delete
	add	esp, 4

; 141  : 		}

	mov	esp, ebp
	pop	ebp
	ret	8
?deallocate@?$allocator@V_Aux_cont@std@@@std@@QAEXPAV_Aux_cont@2@I@Z ENDP ; std::allocator<std::_Aux_cont>::deallocate
; Function compile flags: /Odtp
_TEXT	ENDS
;	COMDAT ?deallocate@?$allocator@PAUInputEvent@Ogre@@@std@@QAEXPAPAUInputEvent@Ogre@@I@Z
_TEXT	SEGMENT
_this$ = -4						; size = 4
__Ptr$ = 8						; size = 4
___formal$ = 12						; size = 4
?deallocate@?$allocator@PAUInputEvent@Ogre@@@std@@QAEXPAPAUInputEvent@Ogre@@I@Z PROC ; std::allocator<Ogre::InputEvent *>::deallocate, COMDAT
; _this$ = ecx

; 139  : 		{	// deallocate object at _Ptr, ignore size

	push	ebp
	mov	ebp, esp
	push	ecx
	mov	DWORD PTR _this$[ebp], ecx

; 140  : 		::operator delete(_Ptr);

	mov	eax, DWORD PTR __Ptr$[ebp]
	push	eax
	call	??3@YAXPAX@Z				; operator delete
	add	esp, 4

; 141  : 		}

	mov	esp, ebp
	pop	ebp
	ret	8
?deallocate@?$allocator@PAUInputEvent@Ogre@@@std@@QAEXPAPAUInputEvent@Ogre@@I@Z ENDP ; std::allocator<Ogre::InputEvent *>::deallocate
_TEXT	ENDS
PUBLIC	??$_Allocate@PAUInputEvent@Ogre@@@std@@YAPAPAUInputEvent@Ogre@@IPAPAU12@@Z ; std::_Allocate<Ogre::InputEvent *>
; Function compile flags: /Odtp
;	COMDAT ?allocate@?$allocator@PAUInputEvent@Ogre@@@std@@QAEPAPAUInputEvent@Ogre@@I@Z
_TEXT	SEGMENT
_this$ = -4						; size = 4
__Count$ = 8						; size = 4
?allocate@?$allocator@PAUInputEvent@Ogre@@@std@@QAEPAPAUInputEvent@Ogre@@I@Z PROC ; std::allocator<Ogre::InputEvent *>::allocate, COMDAT
; _this$ = ecx

; 144  : 		{	// allocate array of _Count elements

	push	ebp
	mov	ebp, esp
	push	ecx
	mov	DWORD PTR _this$[ebp], ecx

; 145  : 		return (_Allocate(_Count, (pointer)0));

	push	0
	mov	eax, DWORD PTR __Count$[ebp]
	push	eax
	call	??$_Allocate@PAUInputEvent@Ogre@@@std@@YAPAPAUInputEvent@Ogre@@IPAPAU12@@Z ; std::_Allocate<Ogre::InputEvent *>
	add	esp, 8

; 146  : 		}

	mov	esp, ebp
	pop	ebp
	ret	4
?allocate@?$allocator@PAUInputEvent@Ogre@@@std@@QAEPAPAUInputEvent@Ogre@@I@Z ENDP ; std::allocator<Ogre::InputEvent *>::allocate
_TEXT	ENDS
PUBLIC	??$_Destroy@PAUInputEvent@Ogre@@@std@@YAXPAPAUInputEvent@Ogre@@@Z ; std::_Destroy<Ogre::InputEvent *>
; Function compile flags: /Odtp
;	COMDAT ?destroy@?$allocator@PAUInputEvent@Ogre@@@std@@QAEXPAPAUInputEvent@Ogre@@@Z
_TEXT	SEGMENT
_this$ = -4						; size = 4
__Ptr$ = 8						; size = 4
