; Listing generated by Microsoft (R) Optimizing Compiler Version 15.00.30729.01 

	TITLE	i:\svnroot\client\OgreMain\OgreBeachData.cpp
	.686P
	.XMM
	include listing.inc
	.model	flat

INCLUDELIB MSVCRT
INCLUDELIB OLDNAMES

PUBLIC	?_Value@?$_Is_swap_move@U_Swap_move_tag@std@@@std@@2_NB ; std::_Is_swap_move<std::_Swap_move_tag>::_Value
PUBLIC	?collate@?$_Locbase@H@std@@2HB			; std::_Locbase<int>::collate
PUBLIC	?ctype@?$_Locbase@H@std@@2HB			; std::_Locbase<int>::ctype
PUBLIC	?monetary@?$_Locbase@H@std@@2HB			; std::_Locbase<int>::monetary
PUBLIC	?numeric@?$_Locbase@H@std@@2HB			; std::_Locbase<int>::numeric
PUBLIC	?time@?$_Locbase@H@std@@2HB			; std::_Locbase<int>::time
PUBLIC	?messages@?$_Locbase@H@std@@2HB			; std::_Locbase<int>::messages
PUBLIC	?all@?$_Locbase@H@std@@2HB			; std::_Locbase<int>::all
PUBLIC	?none@?$_Locbase@H@std@@2HB			; std::_Locbase<int>::none
PUBLIC	?skipws@?$_Iosb@H@std@@2W4_Fmtflags@12@B	; std::_Iosb<int>::skipws
PUBLIC	?unitbuf@?$_Iosb@H@std@@2W4_Fmtflags@12@B	; std::_Iosb<int>::unitbuf
PUBLIC	?uppercase@?$_Iosb@H@std@@2W4_Fmtflags@12@B	; std::_Iosb<int>::uppercase
PUBLIC	?showbase@?$_Iosb@H@std@@2W4_Fmtflags@12@B	; std::_Iosb<int>::showbase
PUBLIC	?showpoint@?$_Iosb@H@std@@2W4_Fmtflags@12@B	; std::_Iosb<int>::showpoint
PUBLIC	?showpos@?$_Iosb@H@std@@2W4_Fmtflags@12@B	; std::_Iosb<int>::showpos
PUBLIC	?left@?$_Iosb@H@std@@2W4_Fmtflags@12@B		; std::_Iosb<int>::left
PUBLIC	?right@?$_Iosb@H@std@@2W4_Fmtflags@12@B		; std::_Iosb<int>::right
PUBLIC	?internal@?$_Iosb@H@std@@2W4_Fmtflags@12@B	; std::_Iosb<int>::internal
PUBLIC	?dec@?$_Iosb@H@std@@2W4_Fmtflags@12@B		; std::_Iosb<int>::dec
PUBLIC	?oct@?$_Iosb@H@std@@2W4_Fmtflags@12@B		; std::_Iosb<int>::oct
PUBLIC	?hex@?$_Iosb@H@std@@2W4_Fmtflags@12@B		; std::_Iosb<int>::hex
PUBLIC	?scientific@?$_Iosb@H@std@@2W4_Fmtflags@12@B	; std::_Iosb<int>::scientific
PUBLIC	?fixed@?$_Iosb@H@std@@2W4_Fmtflags@12@B		; std::_Iosb<int>::fixed
PUBLIC	?hexfloat@?$_Iosb@H@std@@2W4_Fmtflags@12@B	; std::_Iosb<int>::hexfloat
PUBLIC	?boolalpha@?$_Iosb@H@std@@2W4_Fmtflags@12@B	; std::_Iosb<int>::boolalpha
PUBLIC	?_Stdio@?$_Iosb@H@std@@2W4_Fmtflags@12@B	; std::_Iosb<int>::_Stdio
PUBLIC	?adjustfield@?$_Iosb@H@std@@2W4_Fmtflags@12@B	; std::_Iosb<int>::adjustfield
PUBLIC	?basefield@?$_Iosb@H@std@@2W4_Fmtflags@12@B	; std::_Iosb<int>::basefield
PUBLIC	?floatfield@?$_Iosb@H@std@@2W4_Fmtflags@12@B	; std::_Iosb<int>::floatfield
PUBLIC	?goodbit@?$_Iosb@H@std@@2W4_Iostate@12@B	; std::_Iosb<int>::goodbit
PUBLIC	?eofbit@?$_Iosb@H@std@@2W4_Iostate@12@B		; std::_Iosb<int>::eofbit
PUBLIC	?failbit@?$_Iosb@H@std@@2W4_Iostate@12@B	; std::_Iosb<int>::failbit
PUBLIC	?badbit@?$_Iosb@H@std@@2W4_Iostate@12@B		; std::_Iosb<int>::badbit
PUBLIC	?_Hardfail@?$_Iosb@H@std@@2W4_Iostate@12@B	; std::_Iosb<int>::_Hardfail
PUBLIC	?in@?$_Iosb@H@std@@2W4_Openmode@12@B		; std::_Iosb<int>::in
PUBLIC	?out@?$_Iosb@H@std@@2W4_Openmode@12@B		; std::_Iosb<int>::out
PUBLIC	?ate@?$_Iosb@H@std@@2W4_Openmode@12@B		; std::_Iosb<int>::ate
PUBLIC	?app@?$_Iosb@H@std@@2W4_Openmode@12@B		; std::_Iosb<int>::app
PUBLIC	?trunc@?$_Iosb@H@std@@2W4_Openmode@12@B		; std::_Iosb<int>::trunc
PUBLIC	?_Nocreate@?$_Iosb@H@std@@2W4_Openmode@12@B	; std::_Iosb<int>::_Nocreate
PUBLIC	?_Noreplace@?$_Iosb@H@std@@2W4_Openmode@12@B	; std::_Iosb<int>::_Noreplace
PUBLIC	?binary@?$_Iosb@H@std@@2W4_Openmode@12@B	; std::_Iosb<int>::binary
PUBLIC	?beg@?$_Iosb@H@std@@2W4_Seekdir@12@B		; std::_Iosb<int>::beg
PUBLIC	?cur@?$_Iosb@H@std@@2W4_Seekdir@12@B		; std::_Iosb<int>::cur
PUBLIC	?end@?$_Iosb@H@std@@2W4_Seekdir@12@B		; std::_Iosb<int>::end
PUBLIC	?value@?$integral_constant@_N$0A@@tr1@std@@2_NB	; std::tr1::integral_constant<bool,0>::value
PUBLIC	?value@?$integral_constant@_N$00@tr1@std@@2_NB	; std::tr1::integral_constant<bool,1>::value
;	COMDAT ?value@?$integral_constant@_N$00@tr1@std@@2_NB
CONST	SEGMENT
?value@?$integral_constant@_N$00@tr1@std@@2_NB DB 01H	; std::tr1::integral_constant<bool,1>::value
CONST	ENDS
;	COMDAT ?value@?$integral_constant@_N$0A@@tr1@std@@2_NB
CONST	SEGMENT
?value@?$integral_constant@_N$0A@@tr1@std@@2_NB DB 00H	; std::tr1::integral_constant<bool,0>::value
CONST	ENDS
;	COMDAT ?end@?$_Iosb@H@std@@2W4_Seekdir@12@B
CONST	SEGMENT
?end@?$_Iosb@H@std@@2W4_Seekdir@12@B DD 02H		; std::_Iosb<int>::end
CONST	ENDS
;	COMDAT ?cur@?$_Iosb@H@std@@2W4_Seekdir@12@B
CONST	SEGMENT
?cur@?$_Iosb@H@std@@2W4_Seekdir@12@B DD 01H		; std::_Iosb<int>::cur
CONST	ENDS
;	COMDAT ?beg@?$_Iosb@H@std@@2W4_Seekdir@12@B
CONST	SEGMENT
?beg@?$_Iosb@H@std@@2W4_Seekdir@12@B DD 00H		; std::_Iosb<int>::beg
CONST	ENDS
;	COMDAT ?binary@?$_Iosb@H@std@@2W4_Openmode@12@B
CONST	SEGMENT
?binary@?$_Iosb@H@std@@2W4_Openmode@12@B DD 020H	; std::_Iosb<int>::binary
CONST	ENDS
;	COMDAT ?_Noreplace@?$_Iosb@H@std@@2W4_Openmode@12@B
CONST	SEGMENT
?_Noreplace@?$_Iosb@H@std@@2W4_Openmode@12@B DD 080H	; std::_Iosb<int>::_Noreplace
CONST	ENDS
;	COMDAT ?_Nocreate@?$_Iosb@H@std@@2W4_Openmode@12@B
CONST	SEGMENT
?_Nocreate@?$_Iosb@H@std@@2W4_Openmode@12@B DD 040H	; std::_Iosb<int>::_Nocreate
CONST	ENDS
;	COMDAT ?trunc@?$_Iosb@H@std@@2W4_Openmode@12@B
CONST	SEGMENT
?trunc@?$_Iosb@H@std@@2W4_Openmode@12@B DD 010H		; std::_Iosb<int>::trunc
CONST	ENDS
;	COMDAT ?app@?$_Iosb@H@std@@2W4_Openmode@12@B
CONST	SEGMENT
?app@?$_Iosb@H@std@@2W4_Openmode@12@B DD 08H		; std::_Iosb<int>::app
CONST	ENDS
;	COMDAT ?ate@?$_Iosb@H@std@@2W4_Openmode@12@B
CONST	SEGMENT
?ate@?$_Iosb@H@std@@2W4_Openmode@12@B DD 04H		; std::_Iosb<int>::ate
CONST	ENDS
;	COMDAT ?out@?$_Iosb@H@std@@2W4_Openmode@12@B
CONST	SEGMENT
?out@?$_Iosb@H@std@@2W4_Openmode@12@B DD 02H		; std::_Iosb<int>::out
CONST	ENDS
;	COMDAT ?in@?$_Iosb@H@std@@2W4_Openmode@12@B
CONST	SEGMENT
?in@?$_Iosb@H@std@@2W4_Openmode@12@B DD 01H		; std::_Iosb<int>::in
CONST	ENDS
;	COMDAT ?_Hardfail@?$_Iosb@H@std@@2W4_Iostate@12@B
CONST	SEGMENT
?_Hardfail@?$_Iosb@H@std@@2W4_Iostate@12@B DD 010H	; std::_Iosb<int>::_Hardfail
CONST	ENDS
;	COMDAT ?badbit@?$_Iosb@H@std@@2W4_Iostate@12@B
CONST	SEGMENT
?badbit@?$_Iosb@H@std@@2W4_Iostate@12@B DD 04H		; std::_Iosb<int>::badbit
CONST	ENDS
;	COMDAT ?failbit@?$_Iosb@H@std@@2W4_Iostate@12@B
CONST	SEGMENT
?failbit@?$_Iosb@H@std@@2W4_Iostate@12@B DD 02H		; std::_Iosb<int>::failbit
CONST	ENDS
;	COMDAT ?eofbit@?$_Iosb@H@std@@2W4_Iostate@12@B
CONST	SEGMENT
?eofbit@?$_Iosb@H@std@@2W4_Iostate@12@B DD 01H		; std::_Iosb<int>::eofbit
CONST	ENDS
;	COMDAT ?goodbit@?$_Iosb@H@std@@2W4_Iostate@12@B
CONST	SEGMENT
?goodbit@?$_Iosb@H@std@@2W4_Iostate@12@B DD 00H		; std::_Iosb<int>::goodbit
CONST	ENDS
;	COMDAT ?floatfield@?$_Iosb@H@std@@2W4_Fmtflags@12@B
CONST	SEGMENT
?floatfield@?$_Iosb@H@std@@2W4_Fmtflags@12@B DD 03000H	; std::_Iosb<int>::floatfield
CONST	ENDS
;	COMDAT ?basefield@?$_Iosb@H@std@@2W4_Fmtflags@12@B
CONST	SEGMENT
?basefield@?$_Iosb@H@std@@2W4_Fmtflags@12@B DD 0e00H	; std::_Iosb<int>::basefield
CONST	ENDS
;	COMDAT ?adjustfield@?$_Iosb@H@std@@2W4_Fmtflags@12@B
CONST	SEGMENT
?adjustfield@?$_Iosb@H@std@@2W4_Fmtflags@12@B DD 01c0H	; std::_Iosb<int>::adjustfield
CONST	ENDS
;	COMDAT ?_Stdio@?$_Iosb@H@std@@2W4_Fmtflags@12@B
CONST	SEGMENT
?_Stdio@?$_Iosb@H@std@@2W4_Fmtflags@12@B DD 08000H	; std::_Iosb<int>::_Stdio
CONST	ENDS
;	COMDAT ?boolalpha@?$_Iosb@H@std@@2W4_Fmtflags@12@B
CONST	SEGMENT
?boolalpha@?$_Iosb@H@std@@2W4_Fmtflags@12@B DD 04000H	; std::_Iosb<int>::boolalpha
CONST	ENDS
;	COMDAT ?hexfloat@?$_Iosb@H@std@@2W4_Fmtflags@12@B
CONST	SEGMENT
?hexfloat@?$_Iosb@H@std@@2W4_Fmtflags@12@B DD 03000H	; std::_Iosb<int>::hexfloat
CONST	ENDS
;	COMDAT ?fixed@?$_Iosb@H@std@@2W4_Fmtflags@12@B
CONST	SEGMENT
?fixed@?$_Iosb@H@std@@2W4_Fmtflags@12@B DD 02000H	; std::_Iosb<int>::fixed
CONST	ENDS
;	COMDAT ?scientific@?$_Iosb@H@std@@2W4_Fmtflags@12@B
CONST	SEGMENT
?scientific@?$_Iosb@H@std@@2W4_Fmtflags@12@B DD 01000H	; std::_Iosb<int>::scientific
CONST	ENDS
;	COMDAT ?hex@?$_Iosb@H@std@@2W4_Fmtflags@12@B
CONST	SEGMENT
?hex@?$_Iosb@H@std@@2W4_Fmtflags@12@B DD 0800H		; std::_Iosb<int>::hex
CONST	ENDS
;	COMDAT ?oct@?$_Iosb@H@std@@2W4_Fmtflags@12@B
CONST	SEGMENT
?oct@?$_Iosb@H@std@@2W4_Fmtflags@12@B DD 0400H		; std::_Iosb<int>::oct
CONST	ENDS
;	COMDAT ?dec@?$_Iosb@H@std@@2W4_Fmtflags@12@B
CONST	SEGMENT
?dec@?$_Iosb@H@std@@2W4_Fmtflags@12@B DD 0200H		; std::_Iosb<int>::dec
CONST	ENDS
;	COMDAT ?internal@?$_Iosb@H@std@@2W4_Fmtflags@12@B
CONST	SEGMENT
?internal@?$_Iosb@H@std@@2W4_Fmtflags@12@B DD 0100H	; std::_Iosb<int>::internal
CONST	ENDS
;	COMDAT ?right@?$_Iosb@H@std@@2W4_Fmtflags@12@B
CONST	SEGMENT
?right@?$_Iosb@H@std@@2W4_Fmtflags@12@B DD 080H		; std::_Iosb<int>::right
CONST	ENDS
;	COMDAT ?left@?$_Iosb@H@std@@2W4_Fmtflags@12@B
CONST	SEGMENT
?left@?$_Iosb@H@std@@2W4_Fmtflags@12@B DD 040H		; std::_Iosb<int>::left
CONST	ENDS
;	COMDAT ?showpos@?$_Iosb@H@std@@2W4_Fmtflags@12@B
CONST	SEGMENT
?showpos@?$_Iosb@H@std@@2W4_Fmtflags@12@B DD 020H	; std::_Iosb<int>::showpos
CONST	ENDS
;	COMDAT ?showpoint@?$_Iosb@H@std@@2W4_Fmtflags@12@B
CONST	SEGMENT
?showpoint@?$_Iosb@H@std@@2W4_Fmtflags@12@B DD 010H	; std::_Iosb<int>::showpoint
CONST	ENDS
;	COMDAT ?showbase@?$_Iosb@H@std@@2W4_Fmtflags@12@B
CONST	SEGMENT
?showbase@?$_Iosb@H@std@@2W4_Fmtflags@12@B DD 08H	; std::_Iosb<int>::showbase
CONST	ENDS
;	COMDAT ?uppercase@?$_Iosb@H@std@@2W4_Fmtflags@12@B
CONST	SEGMENT
?uppercase@?$_Iosb@H@std@@2W4_Fmtflags@12@B DD 04H	; std::_Iosb<int>::uppercase
CONST	ENDS
;	COMDAT ?unitbuf@?$_Iosb@H@std@@2W4_Fmtflags@12@B
CONST	SEGMENT
?unitbuf@?$_Iosb@H@std@@2W4_Fmtflags@12@B DD 02H	; std::_Iosb<int>::unitbuf
CONST	ENDS
;	COMDAT ?skipws@?$_Iosb@H@std@@2W4_Fmtflags@12@B
CONST	SEGMENT
?skipws@?$_Iosb@H@std@@2W4_Fmtflags@12@B DD 01H		; std::_Iosb<int>::skipws
CONST	ENDS
;	COMDAT ?none@?$_Locbase@H@std@@2HB
CONST	SEGMENT
?none@?$_Locbase@H@std@@2HB DD 00H			; std::_Locbase<int>::none
CONST	ENDS
;	COMDAT ?all@?$_Locbase@H@std@@2HB
CONST	SEGMENT
?all@?$_Locbase@H@std@@2HB DD 03fH			; std::_Locbase<int>::all
CONST	ENDS
;	COMDAT ?messages@?$_Locbase@H@std@@2HB
CONST	SEGMENT
?messages@?$_Locbase@H@std@@2HB DD 020H			; std::_Locbase<int>::messages
CONST	ENDS
;	COMDAT ?time@?$_Locbase@H@std@@2HB
CONST	SEGMENT
?time@?$_Locbase@H@std@@2HB DD 010H			; std::_Locbase<int>::time
CONST	ENDS
;	COMDAT ?numeric@?$_Locbase@H@std@@2HB
CONST	SEGMENT
?numeric@?$_Locbase@H@std@@2HB DD 08H			; std::_Locbase<int>::numeric
CONST	ENDS
;	COMDAT ?monetary@?$_Locbase@H@std@@2HB
CONST	SEGMENT
?monetary@?$_Locbase@H@std@@2HB DD 04H			; std::_Locbase<int>::monetary
CONST	ENDS
;	COMDAT ?ctype@?$_Locbase@H@std@@2HB
CONST	SEGMENT
?ctype@?$_Locbase@H@std@@2HB DD 02H			; std::_Locbase<int>::ctype
CONST	ENDS
;	COMDAT ?collate@?$_Locbase@H@std@@2HB
CONST	SEGMENT
?collate@?$_Locbase@H@std@@2HB DD 01H			; std::_Locbase<int>::collate
CONST	ENDS
;	COMDAT ?_Value@?$_Is_swap_move@U_Swap_move_tag@std@@@std@@2_NB
CONST	SEGMENT
?_Value@?$_Is_swap_move@U_Swap_move_tag@std@@@std@@2_NB DB 01H ; std::_Is_swap_move<std::_Swap_move_tag>::_Value
CONST	ENDS
_DATA	SEGMENT
__bad_alloc_Message DD FLAT:$SG5715
_DATA	ENDS
CONST	SEGMENT
$SG5715	DB	'bad allocation', 00H
	ORG $+1
_MAX_FLOAT DD	07f7fffffr			; 3.40282e+038
_ONE_PI	DD	040490fd0r			; 3.14159
_EPSILON DD	03727c5acr			; 1e-005
_RADS_PER_DEG DD 03c8efa35r			; 0.0174533
_DEGS_PER_RAD DD 042652ee1r			; 57.2958
$SG59642 DB	'BeachData', 00H
CONST	ENDS
PUBLIC	??4MemoryDelegation@Ogre@@QAEAAV01@ABV01@@Z	; Ogre::MemoryDelegation::operator=
; Function compile flags: /Odtp
;	COMDAT ??4MemoryDelegation@Ogre@@QAEAAV01@ABV01@@Z
_TEXT	SEGMENT
_this$ = -4						; size = 4
___that$ = 8						; size = 4
??4MemoryDelegation@Ogre@@QAEAAV01@ABV01@@Z PROC	; Ogre::MemoryDelegation::operator=, COMDAT
; _this$ = ecx
	push	ebp
	mov	ebp, esp
	push	ecx
	mov	DWORD PTR _this$[ebp], ecx
	mov	eax, DWORD PTR _this$[ebp]
	mov	esp, ebp
	pop	ebp
	ret	4
??4MemoryDelegation@Ogre@@QAEAAV01@ABV01@@Z ENDP	; Ogre::MemoryDelegation::operator=
_TEXT	ENDS
PUBLIC	?getBaseClass@RuntimeClass@Ogre@@QBEPBV12@XZ	; Ogre::RuntimeClass::getBaseClass
; Function compile flags: /Odtp
; File i:\svnroot\client\ogremain\ogrebaseobject.h
;	COMDAT ?getBaseClass@RuntimeClass@Ogre@@QBEPBV12@XZ
_TEXT	SEGMENT
_this$ = -4						; size = 4
?getBaseClass@RuntimeClass@Ogre@@QBEPBV12@XZ PROC	; Ogre::RuntimeClass::getBaseClass, COMDAT
; _this$ = ecx

; 20   : 		{

	push	ebp
	mov	ebp, esp
	push	ecx
	mov	DWORD PTR _this$[ebp], ecx

; 21   : 			return m_pBaseClass;

	mov	eax, DWORD PTR _this$[ebp]
	mov	eax, DWORD PTR [eax+4]

; 22   : 		}

	mov	esp, ebp
	pop	ebp
	ret	0
?getBaseClass@RuntimeClass@Ogre@@QBEPBV12@XZ ENDP	; Ogre::RuntimeClass::getBaseClass
_TEXT	ENDS
PUBLIC	?getClassName@RuntimeClass@Ogre@@QBEPBDXZ	; Ogre::RuntimeClass::getClassName
; Function compile flags: /Odtp
;	COMDAT ?getClassName@RuntimeClass@Ogre@@QBEPBDXZ
_TEXT	SEGMENT
_this$ = -4						; size = 4
?getClassName@RuntimeClass@Ogre@@QBEPBDXZ PROC		; Ogre::RuntimeClass::getClassName, COMDAT
; _this$ = ecx

; 25   : 		{

	push	ebp
	mov	ebp, esp
	push	ecx
	mov	DWORD PTR _this$[ebp], ecx

; 26   : 			return m_pClassName; 

	mov	eax, DWORD PTR _this$[ebp]
	mov	eax, DWORD PTR [eax]

; 27   : 		}

	mov	esp, ebp
	pop	ebp
	ret	0
?getClassName@RuntimeClass@Ogre@@QBEPBDXZ ENDP		; Ogre::RuntimeClass::getClassName
_TEXT	ENDS
PUBLIC	?getVersion@RuntimeClass@Ogre@@QBEHXZ		; Ogre::RuntimeClass::getVersion
; Function compile flags: /Odtp
;	COMDAT ?getVersion@RuntimeClass@Ogre@@QBEHXZ
_TEXT	SEGMENT
_this$ = -4						; size = 4
?getVersion@RuntimeClass@Ogre@@QBEHXZ PROC		; Ogre::RuntimeClass::getVersion, COMDAT
; _this$ = ecx

; 30   : 		{

	push	ebp
	mov	ebp, esp
	push	ecx
	mov	DWORD PTR _this$[ebp], ecx

; 31   : 			return m_Version;

	mov	eax, DWORD PTR _this$[ebp]
	mov	eax, DWORD PTR [eax+8]

; 32   : 		}

	mov	esp, ebp
	pop	ebp
	ret	0
?getVersion@RuntimeClass@Ogre@@QBEHXZ ENDP		; Ogre::RuntimeClass::getVersion
_TEXT	ENDS
PUBLIC	?newObject@RuntimeClass@Ogre@@QAEPAVBaseObject@2@XZ ; Ogre::RuntimeClass::newObject
; Function compile flags: /Odtp
;	COMDAT ?newObject@RuntimeClass@Ogre@@QAEPAVBaseObject@2@XZ
_TEXT	SEGMENT
_this$ = -4						; size = 4
?newObject@RuntimeClass@Ogre@@QAEPAVBaseObject@2@XZ PROC ; Ogre::RuntimeClass::newObject, COMDAT
; _this$ = ecx

; 35   : 		{

	push	ebp
	mov	ebp, esp
	push	ecx
	mov	DWORD PTR _this$[ebp], ecx

; 36   : 			return (*m_pNewFunc)();

	mov	eax, DWORD PTR _this$[ebp]
	mov	ecx, DWORD PTR [eax+12]
	call	ecx

; 37   : 		}

	mov	esp, ebp
	pop	ebp
	ret	0
?newObject@RuntimeClass@Ogre@@QAEPAVBaseObject@2@XZ ENDP ; Ogre::RuntimeClass::newObject
_TEXT	ENDS
PUBLIC	??4RuntimeClass@Ogre@@QAEAAV01@ABV01@@Z		; Ogre::RuntimeClass::operator=
; Function compile flags: /Odtp
;	COMDAT ??4RuntimeClass@Ogre@@QAEAAV01@ABV01@@Z
_TEXT	SEGMENT
_this$ = -4						; size = 4
___that$ = 8						; size = 4
??4RuntimeClass@Ogre@@QAEAAV01@ABV01@@Z PROC		; Ogre::RuntimeClass::operator=, COMDAT
; _this$ = ecx
	push	ebp
	mov	ebp, esp
	push	ecx
	mov	DWORD PTR _this$[ebp], ecx
	mov	eax, DWORD PTR ___that$[ebp]
	mov	ecx, DWORD PTR _this$[ebp]
	mov	edx, DWORD PTR [eax]
	mov	DWORD PTR [ecx], edx
	mov	edx, DWORD PTR [eax+4]
	mov	DWORD PTR [ecx+4], edx
	mov	edx, DWORD PTR [eax+8]
	mov	DWORD PTR [ecx+8], edx
	mov	edx, DWORD PTR [eax+12]
	mov	DWORD PTR [ecx+12], edx
	mov	eax, DWORD PTR [eax+16]
	mov	DWORD PTR [ecx+16], eax
	mov	eax, DWORD PTR _this$[ebp]
	mov	esp, ebp
	pop	ebp
	ret	4
??4RuntimeClass@Ogre@@QAEAAV01@ABV01@@Z ENDP		; Ogre::RuntimeClass::operator=
_TEXT	ENDS
PUBLIC	?getRTTI@BaseObject@Ogre@@UBEPBVRuntimeClass@2@XZ ; Ogre::BaseObject::getRTTI
EXTRN	?m_RTTI@BaseObject@Ogre@@2VRuntimeClass@2@B:BYTE ; Ogre::BaseObject::m_RTTI
; Function compile flags: /Odtp
;	COMDAT ?getRTTI@BaseObject@Ogre@@UBEPBVRuntimeClass@2@XZ
_TEXT	SEGMENT
_this$ = -4						; size = 4
?getRTTI@BaseObject@Ogre@@UBEPBVRuntimeClass@2@XZ PROC	; Ogre::BaseObject::getRTTI, COMDAT
; _this$ = ecx

; 56   : 		{

	push	ebp
	mov	ebp, esp
	push	ecx
	mov	DWORD PTR _this$[ebp], ecx

; 57   : 			return &m_RTTI;

	mov	eax, OFFSET ?m_RTTI@BaseObject@Ogre@@2VRuntimeClass@2@B ; Ogre::BaseObject::m_RTTI

; 58   : 		}

	mov	esp, ebp
	pop	ebp
	ret	0
?getRTTI@BaseObject@Ogre@@UBEPBVRuntimeClass@2@XZ ENDP	; Ogre::BaseObject::getRTTI
_TEXT	ENDS
PUBLIC	?isExactKindOf@BaseObject@Ogre@@QBE_NPBVRuntimeClass@2@@Z ; Ogre::BaseObject::isExactKindOf
; Function compile flags: /Odtp
;	COMDAT ?isExactKindOf@BaseObject@Ogre@@QBE_NPBVRuntimeClass@2@@Z
_TEXT	SEGMENT
_this$ = -4						; size = 4
_prtti$ = 8						; size = 4
?isExactKindOf@BaseObject@Ogre@@QBE_NPBVRuntimeClass@2@@Z PROC ; Ogre::BaseObject::isExactKindOf, COMDAT
; _this$ = ecx

; 61   : 		{

	push	ebp
	mov	ebp, esp
	push	ecx
	mov	DWORD PTR _this$[ebp], ecx

; 62   : 			return (getRTTI() == prtti);

	mov	eax, DWORD PTR _this$[ebp]
	mov	edx, DWORD PTR [eax]
	mov	ecx, DWORD PTR _this$[ebp]
	mov	eax, DWORD PTR [edx]
	call	eax
	xor	ecx, ecx
	cmp	eax, DWORD PTR _prtti$[ebp]
	sete	cl
	mov	al, cl

; 63   : 		}

	mov	esp, ebp
	pop	ebp
	ret	4
?isExactKindOf@BaseObject@Ogre@@QBE_NPBVRuntimeClass@2@@Z ENDP ; Ogre::BaseObject::isExactKindOf
_TEXT	ENDS
PUBLIC	?release@BaseObject@Ogre@@UAEXXZ		; Ogre::BaseObject::release
; Function compile flags: /Odtp
;	COMDAT ?release@BaseObject@Ogre@@UAEXXZ
_TEXT	SEGMENT
_this$ = -4						; size = 4
?release@BaseObject@Ogre@@UAEXXZ PROC			; Ogre::BaseObject::release, COMDAT
; _this$ = ecx

; 68   : 		{

	push	ebp
	mov	ebp, esp
	push	ecx
	mov	DWORD PTR _this$[ebp], ecx

; 69   : 			m_RefCount--;

	mov	eax, DWORD PTR _this$[ebp]
	mov	ecx, DWORD PTR [eax+4]
	sub	ecx, 1
	mov	edx, DWORD PTR _this$[ebp]
	mov	DWORD PTR [edx+4], ecx

; 70   : 			if(m_RefCount <= 0 )

	mov	eax, DWORD PTR _this$[ebp]
	cmp	DWORD PTR [eax+4], 0
	jg	SHORT $LN2@release

; 71   : 			{
; 72   : 				deleteThis();

	mov	ecx, DWORD PTR _this$[ebp]
	mov	edx, DWORD PTR [ecx]
	mov	ecx, DWORD PTR _this$[ebp]
	mov	eax, DWORD PTR [edx+24]
	call	eax
$LN2@release:

; 73   : 			}
; 74   : 		}

	mov	esp, ebp
	pop	ebp
	ret	0
?release@BaseObject@Ogre@@UAEXXZ ENDP			; Ogre::BaseObject::release
_TEXT	ENDS
PUBLIC	?addRef@BaseObject@Ogre@@UAEXXZ			; Ogre::BaseObject::addRef
; Function compile flags: /Odtp
;	COMDAT ?addRef@BaseObject@Ogre@@UAEXXZ
_TEXT	SEGMENT
_this$ = -4						; size = 4
?addRef@BaseObject@Ogre@@UAEXXZ PROC			; Ogre::BaseObject::addRef, COMDAT
; _this$ = ecx

; 77   : 		{

	push	ebp
	mov	ebp, esp
	push	ecx
	mov	DWORD PTR _this$[ebp], ecx

; 78   : 			m_RefCount++;

	mov	eax, DWORD PTR _this$[ebp]
	mov	ecx, DWORD PTR [eax+4]
	add	ecx, 1
	mov	edx, DWORD PTR _this$[ebp]
	mov	DWORD PTR [edx+4], ecx

; 79   : 		}

	mov	esp, ebp
	pop	ebp
	ret	0
?addRef@BaseObject@Ogre@@UAEXXZ ENDP			; Ogre::BaseObject::addRef
_TEXT	ENDS
PUBLIC	?getRefCount@BaseObject@Ogre@@UAEHXZ		; Ogre::BaseObject::getRefCount
; Function compile flags: /Odtp
;	COMDAT ?getRefCount@BaseObject@Ogre@@UAEHXZ
_TEXT	SEGMENT
_this$ = -4						; size = 4
?getRefCount@BaseObject@Ogre@@UAEHXZ PROC		; Ogre::BaseObject::getRefCount, COMDAT
; _this$ = ecx

; 82   : 		{

	push	ebp
	mov	ebp, esp
	push	ecx
	mov	DWORD PTR _this$[ebp], ecx

; 83   : 			return m_RefCount;

	mov	eax, DWORD PTR _this$[ebp]
	mov	eax, DWORD PTR [eax+4]

; 84   : 		}

	mov	esp, ebp
	pop	ebp
	ret	0
?getRefCount@BaseObject@Ogre@@UAEHXZ ENDP		; Ogre::BaseObject::getRefCount
_TEXT	ENDS
PUBLIC	?_serialize@BaseObject@Ogre@@UAEXAAVArchive@2@H@Z ; Ogre::BaseObject::_serialize
; Function compile flags: /Odtp
;	COMDAT ?_serialize@BaseObject@Ogre@@UAEXAAVArchive@2@H@Z
_TEXT	SEGMENT
_this$ = -4						; size = 4
_ar$ = 8						; size = 4
_version$ = 12						; size = 4
?_serialize@BaseObject@Ogre@@UAEXAAVArchive@2@H@Z PROC	; Ogre::BaseObject::_serialize, COMDAT
; _this$ = ecx

; 87   : 		{

	push	ebp
	mov	ebp, esp
	push	ecx
	mov	DWORD PTR _this$[ebp], ecx

; 88   : 		}

	mov	esp, ebp
	pop	ebp
	ret	8
?_serialize@BaseObject@Ogre@@UAEXAAVArchive@2@H@Z ENDP	; Ogre::BaseObject::_serialize
_TEXT	ENDS
PUBLIC	??_7BaseObject@Ogre@@6B@			; Ogre::BaseObject::`vftable'
PUBLIC	??0BaseObject@Ogre@@IAE@XZ			; Ogre::BaseObject::BaseObject
PUBLIC	??_R4BaseObject@Ogre@@6B@			; Ogre::BaseObject::`RTTI Complete Object Locator'
PUBLIC	??_R0?AVBaseObject@Ogre@@@8			; Ogre::BaseObject `RTTI Type Descriptor'
PUBLIC	??_R3BaseObject@Ogre@@8				; Ogre::BaseObject::`RTTI Class Hierarchy Descriptor'
PUBLIC	??_R2BaseObject@Ogre@@8				; Ogre::BaseObject::`RTTI Base Class Array'
PUBLIC	??_R1A@?0A@EA@BaseObject@Ogre@@8		; Ogre::BaseObject::`RTTI Base Class Descriptor at (0,-1,0,64)'
PUBLIC	??_R13?0A@EA@MemoryDelegation@Ogre@@8		; Ogre::MemoryDelegation::`RTTI Base Class Descriptor at (4,-1,0,64)'
PUBLIC	??_R0?AVMemoryDelegation@Ogre@@@8		; Ogre::MemoryDelegation `RTTI Type Descriptor'
PUBLIC	??_R3MemoryDelegation@Ogre@@8			; Ogre::MemoryDelegation::`RTTI Class Hierarchy Descriptor'
PUBLIC	??_R2MemoryDelegation@Ogre@@8			; Ogre::MemoryDelegation::`RTTI Base Class Array'
PUBLIC	??_R1A@?0A@EA@MemoryDelegation@Ogre@@8		; Ogre::MemoryDelegation::`RTTI Base Class Descriptor at (0,-1,0,64)'
PUBLIC	??_EBaseObject@Ogre@@MAEPAXI@Z			; Ogre::BaseObject::`vector deleting destructor'
PUBLIC	?deleteThis@BaseObject@Ogre@@MAEXXZ		; Ogre::BaseObject::deleteThis
EXTRN	??_7type_info@@6B@:QWORD			; type_info::`vftable'
;	COMDAT ??_R1A@?0A@EA@MemoryDelegation@Ogre@@8
rdata$r	SEGMENT
??_R1A@?0A@EA@MemoryDelegation@Ogre@@8 DD FLAT:??_R0?AVMemoryDelegation@Ogre@@@8 ; Ogre::MemoryDelegation::`RTTI Base Class Descriptor at (0,-1,0,64)'
	DD	00H
	DD	00H
	DD	0ffffffffH
	DD	00H
	DD	040H
	DD	FLAT:??_R3MemoryDelegation@Ogre@@8
rdata$r	ENDS
;	COMDAT ??_R2MemoryDelegation@Ogre@@8
rdata$r	SEGMENT
??_R2MemoryDelegation@Ogre@@8 DD FLAT:??_R1A@?0A@EA@MemoryDelegation@Ogre@@8 ; Ogre::MemoryDelegation::`RTTI Base Class Array'
rdata$r	ENDS
;	COMDAT ??_R3MemoryDelegation@Ogre@@8
rdata$r	SEGMENT
??_R3MemoryDelegation@Ogre@@8 DD 00H			; Ogre::MemoryDelegation::`RTTI Class Hierarchy Descriptor'
	DD	00H
	DD	01H
	DD	FLAT:??_R2MemoryDelegation@Ogre@@8
rdata$r	ENDS
;	COMDAT ??_R0?AVMemoryDelegation@Ogre@@@8
_DATA	SEGMENT
??_R0?AVMemoryDelegation@Ogre@@@8 DD FLAT:??_7type_info@@6B@ ; Ogre::MemoryDelegation `RTTI Type Descriptor'
	DD	00H
	DB	'.?AVMemoryDelegation@Ogre@@', 00H
_DATA	ENDS
;	COMDAT ??_R13?0A@EA@MemoryDelegation@Ogre@@8
rdata$r	SEGMENT
??_R13?0A@EA@MemoryDelegation@Ogre@@8 DD FLAT:??_R0?AVMemoryDelegation@Ogre@@@8 ; Ogre::MemoryDelegation::`RTTI Base Class Descriptor at (4,-1,0,64)'
	DD	00H
	DD	04H
	DD	0ffffffffH
	DD	00H
	DD	040H
	DD	FLAT:??_R3MemoryDelegation@Ogre@@8
rdata$r	ENDS
;	COMDAT ??_R1A@?0A@EA@BaseObject@Ogre@@8
rdata$r	SEGMENT
??_R1A@?0A@EA@BaseObject@Ogre@@8 DD FLAT:??_R0?AVBaseObject@Ogre@@@8 ; Ogre::BaseObject::`RTTI Base Class Descriptor at (0,-1,0,64)'
	DD	01H
	DD	00H
	DD	0ffffffffH
	DD	00H
	DD	040H
	DD	FLAT:??_R3BaseObject@Ogre@@8
rdata$r	ENDS
;	COMDAT ??_R2BaseObject@Ogre@@8
rdata$r	SEGMENT
??_R2BaseObject@Ogre@@8 DD FLAT:??_R1A@?0A@EA@BaseObject@Ogre@@8 ; Ogre::BaseObject::`RTTI Base Class Array'
	DD	FLAT:??_R13?0A@EA@MemoryDelegation@Ogre@@8
rdata$r	ENDS
;	COMDAT ??_R3BaseObject@Ogre@@8
rdata$r	SEGMENT
??_R3BaseObject@Ogre@@8 DD 00H				; Ogre::BaseObject::`RTTI Class Hierarchy Descriptor'
	DD	00H
	DD	02H
	DD	FLAT:??_R2BaseObject@Ogre@@8
rdata$r	ENDS
;	COMDAT ??_R0?AVBaseObject@Ogre@@@8
_DATA	SEGMENT
??_R0?AVBaseObject@Ogre@@@8 DD FLAT:??_7type_info@@6B@	; Ogre::BaseObject `RTTI Type Descriptor'
	DD	00H
	DB	'.?AVBaseObject@Ogre@@', 00H
_DATA	ENDS
;	COMDAT ??_R4BaseObject@Ogre@@6B@
rdata$r	SEGMENT
??_R4BaseObject@Ogre@@6B@ DD 00H			; Ogre::BaseObject::`RTTI Complete Object Locator'
	DD	00H
	DD	00H
	DD	FLAT:??_R0?AVBaseObject@Ogre@@@8
	DD	FLAT:??_R3BaseObject@Ogre@@8
rdata$r	ENDS
;	COMDAT ??_7BaseObject@Ogre@@6B@
CONST	SEGMENT
??_7BaseObject@Ogre@@6B@ DD FLAT:??_R4BaseObject@Ogre@@6B@ ; Ogre::BaseObject::`vftable'
	DD	FLAT:?getRTTI@BaseObject@Ogre@@UBEPBVRuntimeClass@2@XZ
	DD	FLAT:?release@BaseObject@Ogre@@UAEXXZ
	DD	FLAT:?addRef@BaseObject@Ogre@@UAEXXZ
	DD	FLAT:?getRefCount@BaseObject@Ogre@@UAEHXZ
	DD	FLAT:?_serialize@BaseObject@Ogre@@UAEXAAVArchive@2@H@Z
	DD	FLAT:??_EBaseObject@Ogre@@MAEPAXI@Z
	DD	FLAT:?deleteThis@BaseObject@Ogre@@MAEXXZ
; Function compile flags: /Odtp
CONST	ENDS
;	COMDAT ??0BaseObject@Ogre@@IAE@XZ
_TEXT	SEGMENT
_this$ = -4						; size = 4
??0BaseObject@Ogre@@IAE@XZ PROC				; Ogre::BaseObject::BaseObject, COMDAT
; _this$ = ecx

; 92   : 		{

	push	ebp
	mov	ebp, esp
	push	ecx
	mov	DWORD PTR _this$[ebp], ecx
	mov	eax, DWORD PTR _this$[ebp]
	mov	DWORD PTR [eax], OFFSET ??_7BaseObject@Ogre@@6B@
	mov	ecx, DWORD PTR _this$[ebp]
	mov	DWORD PTR [ecx+4], 1

; 93   : 		}

	mov	eax, DWORD PTR _this$[ebp]
	mov	esp, ebp
	pop	ebp
	ret	0
??0BaseObject@Ogre@@IAE@XZ ENDP				; Ogre::BaseObject::BaseObject
_TEXT	ENDS
PUBLIC	??1BaseObject@Ogre@@MAE@XZ			; Ogre::BaseObject::~BaseObject
; Function compile flags: /Odtp
;	COMDAT ??1BaseObject@Ogre@@MAE@XZ
_TEXT	SEGMENT
_this$ = -4						; size = 4
??1BaseObject@Ogre@@MAE@XZ PROC				; Ogre::BaseObject::~BaseObject, COMDAT
; _this$ = ecx

; 96   : 		{

	push	ebp
	mov	ebp, esp
	push	ecx
	mov	DWORD PTR _this$[ebp], ecx
	mov	eax, DWORD PTR _this$[ebp]
	mov	DWORD PTR [eax], OFFSET ??_7BaseObject@Ogre@@6B@

; 97   : 		}

	mov	esp, ebp
	pop	ebp
	ret	0
??1BaseObject@Ogre@@MAE@XZ ENDP				; Ogre::BaseObject::~BaseObject
; Function compile flags: /Odtp
_TEXT	ENDS
;	COMDAT ?deleteThis@BaseObject@Ogre@@MAEXXZ
_TEXT	SEGMENT
tv70 = -16						; size = 4
_this$ = -12						; size = 4
$T67279 = -8						; size = 4
$T67278 = -4						; size = 4
?deleteThis@BaseObject@Ogre@@MAEXXZ PROC		; Ogre::BaseObject::deleteThis, COMDAT
; _this$ = ecx

; 100  : 		{

	push	ebp
	mov	ebp, esp
	sub	esp, 16					; 00000010H
	mov	DWORD PTR _this$[ebp], ecx

; 101  : 			delete this;

	mov	eax, DWORD PTR _this$[ebp]
	mov	DWORD PTR $T67279[ebp], eax
	mov	ecx, DWORD PTR $T67279[ebp]
	mov	DWORD PTR $T67278[ebp], ecx
	cmp	DWORD PTR $T67278[ebp], 0
	je	SHORT $LN3@deleteThis
	push	1
	mov	edx, DWORD PTR $T67278[ebp]
	mov	eax, DWORD PTR [edx]
	mov	ecx, DWORD PTR $T67278[ebp]
	mov	edx, DWORD PTR [eax+20]
	call	edx
	mov	DWORD PTR tv70[ebp], eax
	jmp	SHORT $LN1@deleteThis
$LN3@deleteThis:
	mov	DWORD PTR tv70[ebp], 0
$LN1@deleteThis:

; 102  : 		}

	mov	esp, ebp
	pop	ebp
	ret	0
?deleteThis@BaseObject@Ogre@@MAEXXZ ENDP		; Ogre::BaseObject::deleteThis
_TEXT	ENDS
PUBLIC	??0BaseObject@Ogre@@QAE@ABV01@@Z		; Ogre::BaseObject::BaseObject
; Function compile flags: /Odtp
;	COMDAT ??0BaseObject@Ogre@@QAE@ABV01@@Z
_TEXT	SEGMENT
tv68 = -8						; size = 4
_this$ = -4						; size = 4
___that$ = 8						; size = 4
??0BaseObject@Ogre@@QAE@ABV01@@Z PROC			; Ogre::BaseObject::BaseObject, COMDAT
; _this$ = ecx
	push	ebp
	mov	ebp, esp
	sub	esp, 8
	mov	DWORD PTR _this$[ebp], ecx
	cmp	DWORD PTR ___that$[ebp], 0
	je	SHORT $LN3@BaseObject
	mov	eax, DWORD PTR ___that$[ebp]
	add	eax, 4
	mov	DWORD PTR tv68[ebp], eax
	jmp	SHORT $LN4@BaseObject
$LN3@BaseObject:
	mov	DWORD PTR tv68[ebp], 0
$LN4@BaseObject:
	mov	ecx, DWORD PTR _this$[ebp]
	mov	DWORD PTR [ecx], OFFSET ??_7BaseObject@Ogre@@6B@
	mov	edx, DWORD PTR _this$[ebp]
	mov	eax, DWORD PTR ___that$[ebp]
	mov	ecx, DWORD PTR [eax+4]
	mov	DWORD PTR [edx+4], ecx
	mov	eax, DWORD PTR _this$[ebp]
	mov	esp, ebp
	pop	ebp
	ret	4
??0BaseObject@Ogre@@QAE@ABV01@@Z ENDP			; Ogre::BaseObject::BaseObject
_TEXT	ENDS
PUBLIC	??4BaseObject@Ogre@@QAEAAV01@ABV01@@Z		; Ogre::BaseObject::operator=
; Function compile flags: /Odtp
;	COMDAT ??4BaseObject@Ogre@@QAEAAV01@ABV01@@Z
_TEXT	SEGMENT
_this$ = -4						; size = 4
___that$ = 8						; size = 4
??4BaseObject@Ogre@@QAEAAV01@ABV01@@Z PROC		; Ogre::BaseObject::operator=, COMDAT
; _this$ = ecx
	push	ebp
	mov	ebp, esp
	push	ecx
	mov	DWORD PTR _this$[ebp], ecx
	mov	eax, DWORD PTR _this$[ebp]
	mov	ecx, DWORD PTR ___that$[ebp]
	mov	edx, DWORD PTR [ecx+4]
	mov	DWORD PTR [eax+4], edx
	mov	eax, DWORD PTR _this$[ebp]
	mov	esp, ebp
	pop	ebp
	ret	4
??4BaseObject@Ogre@@QAEAAV01@ABV01@@Z ENDP		; Ogre::BaseObject::operator=
_TEXT	ENDS
PUBLIC	??_GBaseObject@Ogre@@MAEPAXI@Z			; Ogre::BaseObject::`scalar deleting destructor'
EXTRN	??3MemoryDelegation@Ogre@@SAXPAXI@Z:PROC	; Ogre::MemoryDelegation::operator delete
; Function compile flags: /Odtp
;	COMDAT ??_GBaseObject@Ogre@@MAEPAXI@Z
_TEXT	SEGMENT
_this$ = -4						; size = 4
___flags$ = 8						; size = 4
??_GBaseObject@Ogre@@MAEPAXI@Z PROC			; Ogre::BaseObject::`scalar deleting destructor', COMDAT
; _this$ = ecx
	push	ebp
	mov	ebp, esp
	push	ecx
	mov	DWORD PTR _this$[ebp], ecx
	mov	ecx, DWORD PTR _this$[ebp]
	call	??1BaseObject@Ogre@@MAE@XZ		; Ogre::BaseObject::~BaseObject
	mov	eax, DWORD PTR ___flags$[ebp]
	and	eax, 1
	je	SHORT $LN1@scalar
	push	8
	mov	ecx, DWORD PTR _this$[ebp]
	push	ecx
	call	??3MemoryDelegation@Ogre@@SAXPAXI@Z	; Ogre::MemoryDelegation::operator delete
	add	esp, 8
$LN1@scalar:
	mov	eax, DWORD PTR _this$[ebp]
	mov	esp, ebp
	pop	ebp
	ret	4
??_GBaseObject@Ogre@@MAEPAXI@Z ENDP			; Ogre::BaseObject::`scalar deleting destructor'
_TEXT	ENDS
EXTRN	??_VMemoryDelegation@Ogre@@SAXPAXI@Z:PROC	; Ogre::MemoryDelegation::operator delete[]
EXTRN	??_M@YGXPAXIHP6EX0@Z@Z:PROC			; `eh vector destructor iterator'
; Function compile flags: /Odtp
;	COMDAT ??_EBaseObject@Ogre@@MAEPAXI@Z
_TEXT	SEGMENT
_this$ = -4						; size = 4
___flags$ = 8						; size = 4
??_EBaseObject@Ogre@@MAEPAXI@Z PROC			; Ogre::BaseObject::`vector deleting destructor', COMDAT
; _this$ = ecx
	push	ebp
	mov	ebp, esp
	push	ecx
	mov	DWORD PTR _this$[ebp], ecx
	mov	eax, DWORD PTR ___flags$[ebp]
	and	eax, 2
	je	SHORT $LN3@vector
	push	OFFSET ??1BaseObject@Ogre@@MAE@XZ	; Ogre::BaseObject::~BaseObject
	mov	ecx, DWORD PTR _this$[ebp]
	mov	edx, DWORD PTR [ecx-4]
	push	edx
	push	8
	mov	eax, DWORD PTR _this$[ebp]
	push	eax
	call	??_M@YGXPAXIHP6EX0@Z@Z
	mov	ecx, DWORD PTR ___flags$[ebp]
	and	ecx, 1
	je	SHORT $LN2@vector
	push	8
	mov	edx, DWORD PTR _this$[ebp]
	sub	edx, 4
	push	edx
	call	??_VMemoryDelegation@Ogre@@SAXPAXI@Z	; Ogre::MemoryDelegation::operator delete[]
	add	esp, 8
$LN2@vector:
	mov	eax, DWORD PTR _this$[ebp]
	sub	eax, 4
	jmp	SHORT $LN4@vector
$LN3@vector:
	mov	ecx, DWORD PTR _this$[ebp]
	call	??1BaseObject@Ogre@@MAE@XZ		; Ogre::BaseObject::~BaseObject
	mov	eax, DWORD PTR ___flags$[ebp]
	and	eax, 1
	je	SHORT $LN1@vector
	push	8
	mov	ecx, DWORD PTR _this$[ebp]
	push	ecx
	call	??3MemoryDelegation@Ogre@@SAXPAXI@Z	; Ogre::MemoryDelegation::operator delete
	add	esp, 8
$LN1@vector:
	mov	eax, DWORD PTR _this$[ebp]
$LN4@vector:
	mov	esp, ebp
	pop	ebp
	ret	4
??_EBaseObject@Ogre@@MAEPAXI@Z ENDP			; Ogre::BaseObject::`vector deleting destructor'
_TEXT	ENDS
PUBLIC	?handle2Ptr@FixedString@Ogre@@SAPBDPAX@Z	; Ogre::FixedString::handle2Ptr
; Function compile flags: /Odtp
; File i:\svnroot\client\ogremain\ogrefixedstring.h
;	COMDAT ?handle2Ptr@FixedString@Ogre@@SAPBDPAX@Z
_TEXT	SEGMENT
_h$ = 8							; size = 4
?handle2Ptr@FixedString@Ogre@@SAPBDPAX@Z PROC		; Ogre::FixedString::handle2Ptr, COMDAT

; 22   : 		{

	push	ebp
	mov	ebp, esp

; 23   : 			return (const char *)h;

	mov	eax, DWORD PTR _h$[ebp]

; 24   : 		}

	pop	ebp
	ret	0
?handle2Ptr@FixedString@Ogre@@SAPBDPAX@Z ENDP		; Ogre::FixedString::handle2Ptr
_TEXT	ENDS
PUBLIC	??0FixedString@Ogre@@QAE@XZ			; Ogre::FixedString::FixedString
; Function compile flags: /Odtp
;	COMDAT ??0FixedString@Ogre@@QAE@XZ
_TEXT	SEGMENT
_this$ = -4						; size = 4
??0FixedString@Ogre@@QAE@XZ PROC			; Ogre::FixedString::FixedString, COMDAT
; _this$ = ecx

; 27   : 		FixedString() : m_StrHandle(NULL){}

	push	ebp
	mov	ebp, esp
	push	ecx
	mov	DWORD PTR _this$[ebp], ecx
	mov	eax, DWORD PTR _this$[ebp]
	mov	DWORD PTR [eax], 0
	mov	eax, DWORD PTR _this$[ebp]
	mov	esp, ebp
	pop	ebp
	ret	0
??0FixedString@Ogre@@QAE@XZ ENDP			; Ogre::FixedString::FixedString
_TEXT	ENDS
PUBLIC	??0FixedString@Ogre@@QAE@PAX@Z			; Ogre::FixedString::FixedString
EXTRN	?addRef@FixedString@Ogre@@SAXPAX@Z:PROC		; Ogre::FixedString::addRef
; Function compile flags: /Odtp
;	COMDAT ??0FixedString@Ogre@@QAE@PAX@Z
_TEXT	SEGMENT
_this$ = -4						; size = 4
_h$ = 8							; size = 4
??0FixedString@Ogre@@QAE@PAX@Z PROC			; Ogre::FixedString::FixedString, COMDAT
; _this$ = ecx

; 29   : 		{

	push	ebp
	mov	ebp, esp
	push	ecx
	mov	DWORD PTR _this$[ebp], ecx
	mov	eax, DWORD PTR _this$[ebp]
	mov	ecx, DWORD PTR _h$[ebp]
	mov	DWORD PTR [eax], ecx

; 30   : 			addRef(h);

	mov	edx, DWORD PTR _h$[ebp]
	push	edx
	call	?addRef@FixedString@Ogre@@SAXPAX@Z	; Ogre::FixedString::addRef
	add	esp, 4

; 31   : 		}

	mov	eax, DWORD PTR _this$[ebp]
	mov	esp, ebp
	pop	ebp
	ret	4
??0FixedString@Ogre@@QAE@PAX@Z ENDP			; Ogre::FixedString::FixedString
_TEXT	ENDS
PUBLIC	??0FixedString@Ogre@@QAE@ABV01@@Z		; Ogre::FixedString::FixedString
; Function compile flags: /Odtp
;	COMDAT ??0FixedString@Ogre@@QAE@ABV01@@Z
_TEXT	SEGMENT
_this$ = -4						; size = 4
_rhs$ = 8						; size = 4
??0FixedString@Ogre@@QAE@ABV01@@Z PROC			; Ogre::FixedString::FixedString, COMDAT
; _this$ = ecx

; 34   : 		{

	push	ebp
	mov	ebp, esp
	push	ecx
	mov	DWORD PTR _this$[ebp], ecx
	mov	eax, DWORD PTR _this$[ebp]
	mov	ecx, DWORD PTR _rhs$[ebp]
	mov	edx, DWORD PTR [ecx]
	mov	DWORD PTR [eax], edx

; 35   : 			addRef(m_StrHandle);

	mov	eax, DWORD PTR _this$[ebp]
	mov	ecx, DWORD PTR [eax]
	push	ecx
	call	?addRef@FixedString@Ogre@@SAXPAX@Z	; Ogre::FixedString::addRef
	add	esp, 4

; 36   : 		}

	mov	eax, DWORD PTR _this$[ebp]
	mov	esp, ebp
	pop	ebp
	ret	4
??0FixedString@Ogre@@QAE@ABV01@@Z ENDP			; Ogre::FixedString::FixedString
_TEXT	ENDS
PUBLIC	??0FixedString@Ogre@@QAE@PBD@Z			; Ogre::FixedString::FixedString
EXTRN	?insert@FixedString@Ogre@@SAPAXPBDH@Z:PROC	; Ogre::FixedString::insert
; Function compile flags: /Odtp
;	COMDAT ??0FixedString@Ogre@@QAE@PBD@Z
_TEXT	SEGMENT
_this$ = -4						; size = 4
_pstr$ = 8						; size = 4
??0FixedString@Ogre@@QAE@PBD@Z PROC			; Ogre::FixedString::FixedString, COMDAT
; _this$ = ecx

; 38   : 		FixedString(const char *pstr)

	push	ebp
	mov	ebp, esp
	push	ecx
	mov	DWORD PTR _this$[ebp], ecx

; 39   : 		{
; 40   : 			m_StrHandle = insert(pstr); 

	push	-1
	mov	eax, DWORD PTR _pstr$[ebp]
	push	eax
	call	?insert@FixedString@Ogre@@SAPAXPBDH@Z	; Ogre::FixedString::insert
	add	esp, 8
	mov	ecx, DWORD PTR _this$[ebp]
	mov	DWORD PTR [ecx], eax

; 41   : 		}

	mov	eax, DWORD PTR _this$[ebp]
	mov	esp, ebp
	pop	ebp
	ret	4
??0FixedString@Ogre@@QAE@PBD@Z ENDP			; Ogre::FixedString::FixedString
_TEXT	ENDS
PUBLIC	??0FixedString@Ogre@@QAE@PBDI@Z			; Ogre::FixedString::FixedString
; Function compile flags: /Odtp
;	COMDAT ??0FixedString@Ogre@@QAE@PBDI@Z
_TEXT	SEGMENT
_this$ = -4						; size = 4
_pstr$ = 8						; size = 4
_len$ = 12						; size = 4
??0FixedString@Ogre@@QAE@PBDI@Z PROC			; Ogre::FixedString::FixedString, COMDAT
; _this$ = ecx

; 43   : 		FixedString(const char *pstr, size_t len)

	push	ebp
	mov	ebp, esp
	push	ecx
	mov	DWORD PTR _this$[ebp], ecx

; 44   : 		{
; 45   : 			m_StrHandle = insert(pstr, (int)len); 

	mov	eax, DWORD PTR _len$[ebp]
	push	eax
	mov	ecx, DWORD PTR _pstr$[ebp]
	push	ecx
	call	?insert@FixedString@Ogre@@SAPAXPBDH@Z	; Ogre::FixedString::insert
	add	esp, 8
	mov	edx, DWORD PTR _this$[ebp]
	mov	DWORD PTR [edx], eax

; 46   : 		}

	mov	eax, DWORD PTR _this$[ebp]
	mov	esp, ebp
	pop	ebp
	ret	8
??0FixedString@Ogre@@QAE@PBDI@Z ENDP			; Ogre::FixedString::FixedString
_TEXT	ENDS
PUBLIC	??1FixedString@Ogre@@QAE@XZ			; Ogre::FixedString::~FixedString
EXTRN	?release@FixedString@Ogre@@SAXPAX@Z:PROC	; Ogre::FixedString::release
; Function compile flags: /Odtp
;	COMDAT ??1FixedString@Ogre@@QAE@XZ
_TEXT	SEGMENT
_this$ = -4						; size = 4
??1FixedString@Ogre@@QAE@XZ PROC			; Ogre::FixedString::~FixedString, COMDAT
; _this$ = ecx

; 49   : 		{

	push	ebp
	mov	ebp, esp
	push	ecx
	mov	DWORD PTR _this$[ebp], ecx

; 50   : 			release(m_StrHandle); 

	mov	eax, DWORD PTR _this$[ebp]
	mov	ecx, DWORD PTR [eax]
	push	ecx
	call	?release@FixedString@Ogre@@SAXPAX@Z	; Ogre::FixedString::release
	add	esp, 4

; 51   : 		}

	mov	esp, ebp
	pop	ebp
	ret	0
??1FixedString@Ogre@@QAE@XZ ENDP			; Ogre::FixedString::~FixedString
_TEXT	ENDS
PUBLIC	??BFixedString@Ogre@@QBEPBDXZ			; Ogre::FixedString::operator char const *
; Function compile flags: /Odtp
;	COMDAT ??BFixedString@Ogre@@QBEPBDXZ
_TEXT	SEGMENT
_this$ = -4						; size = 4
??BFixedString@Ogre@@QBEPBDXZ PROC			; Ogre::FixedString::operator char const *, COMDAT
; _this$ = ecx

; 54   : 		{

	push	ebp
	mov	ebp, esp
	push	ecx
	mov	DWORD PTR _this$[ebp], ecx

; 55   : 			return handle2Ptr(m_StrHandle);

	mov	eax, DWORD PTR _this$[ebp]
	mov	ecx, DWORD PTR [eax]
	push	ecx
	call	?handle2Ptr@FixedString@Ogre@@SAPBDPAX@Z ; Ogre::FixedString::handle2Ptr
	add	esp, 4

; 56   : 		}

	mov	esp, ebp
	pop	ebp
	ret	0
??BFixedString@Ogre@@QBEPBDXZ ENDP			; Ogre::FixedString::operator char const *
_TEXT	ENDS
PUBLIC	?getHandle@FixedString@Ogre@@QBEPAXXZ		; Ogre::FixedString::getHandle
; Function compile flags: /Odtp
;	COMDAT ?getHandle@FixedString@Ogre@@QBEPAXXZ
_TEXT	SEGMENT
_this$ = -4						; size = 4
?getHandle@FixedString@Ogre@@QBEPAXXZ PROC		; Ogre::FixedString::getHandle, COMDAT
; _this$ = ecx

; 59   : 		{

	push	ebp
	mov	ebp, esp
	push	ecx
	mov	DWORD PTR _this$[ebp], ecx

; 60   : 			return m_StrHandle;

	mov	eax, DWORD PTR _this$[ebp]
	mov	eax, DWORD PTR [eax]

; 61   : 		}

	mov	esp, ebp
	pop	ebp
	ret	0
?getHandle@FixedString@Ogre@@QBEPAXXZ ENDP		; Ogre::FixedString::getHandle
_TEXT	ENDS
PUBLIC	?getRTTI@Resource@Ogre@@UBEPBVRuntimeClass@2@XZ	; Ogre::Resource::getRTTI
EXTRN	?m_RTTI@Resource@Ogre@@2VRuntimeClass@2@B:BYTE	; Ogre::Resource::m_RTTI
; Function compile flags: /Odtp
; File i:\svnroot\client\ogremain\ogreresource.h
;	COMDAT ?getRTTI@Resource@Ogre@@UBEPBVRuntimeClass@2@XZ
_TEXT	SEGMENT
_this$ = -4						; size = 4
?getRTTI@Resource@Ogre@@UBEPBVRuntimeClass@2@XZ PROC	; Ogre::Resource::getRTTI, COMDAT
; _this$ = ecx

; 39   : 		DECLARE_RTTI_VIRTUAL(Resource)

	push	ebp
	mov	ebp, esp
	push	ecx
	mov	DWORD PTR _this$[ebp], ecx
	mov	eax, OFFSET ?m_RTTI@Resource@Ogre@@2VRuntimeClass@2@B ; Ogre::Resource::m_RTTI
	mov	esp, ebp
	pop	ebp
	ret	0
?getRTTI@Resource@Ogre@@UBEPBVRuntimeClass@2@XZ ENDP	; Ogre::Resource::getRTTI
_TEXT	ENDS
PUBLIC	?getResPath@Resource@Ogre@@QAEABVFixedString@2@XZ ; Ogre::Resource::getResPath
; Function compile flags: /Odtp
;	COMDAT ?getResPath@Resource@Ogre@@QAEABVFixedString@2@XZ
_TEXT	SEGMENT
_this$ = -4						; size = 4
?getResPath@Resource@Ogre@@QAEABVFixedString@2@XZ PROC	; Ogre::Resource::getResPath, COMDAT
; _this$ = ecx

; 44   : 		{

	push	ebp
	mov	ebp, esp
	push	ecx
	mov	DWORD PTR _this$[ebp], ecx

; 45   : 			return m_ResPath;

	mov	eax, DWORD PTR _this$[ebp]
	add	eax, 8

; 46   : 		}

	mov	esp, ebp
	pop	ebp
	ret	0
?getResPath@Resource@Ogre@@QAEABVFixedString@2@XZ ENDP	; Ogre::Resource::getResPath
_TEXT	ENDS
PUBLIC	?setResPath@Resource@Ogre@@QAEXABVFixedString@2@@Z ; Ogre::Resource::setResPath
EXTRN	??4FixedString@Ogre@@QAEAAV01@ABV01@@Z:PROC	; Ogre::FixedString::operator=
; Function compile flags: /Odtp
;	COMDAT ?setResPath@Resource@Ogre@@QAEXABVFixedString@2@@Z
_TEXT	SEGMENT
_this$ = -4						; size = 4
_path$ = 8						; size = 4
?setResPath@Resource@Ogre@@QAEXABVFixedString@2@@Z PROC	; Ogre::Resource::setResPath, COMDAT
; _this$ = ecx

; 48   : 		{

	push	ebp
	mov	ebp, esp
	push	ecx
	mov	DWORD PTR _this$[ebp], ecx

; 49   : 			m_ResPath = path;

	mov	eax, DWORD PTR _path$[ebp]
	push	eax
	mov	ecx, DWORD PTR _this$[ebp]
	add	ecx, 8
	call	??4FixedString@Ogre@@QAEAAV01@ABV01@@Z	; Ogre::FixedString::operator=

; 50   : 		}

	mov	esp, ebp
	pop	ebp
	ret	4
?setResPath@Resource@Ogre@@QAEXABVFixedString@2@@Z ENDP	; Ogre::Resource::setResPath
_TEXT	ENDS
PUBLIC	??_7Resource@Ogre@@6B@				; Ogre::Resource::`vftable'
PUBLIC	??0Resource@Ogre@@IAE@XZ			; Ogre::Resource::Resource
PUBLIC	??_R4Resource@Ogre@@6B@				; Ogre::Resource::`RTTI Complete Object Locator'
PUBLIC	??_R0?AVResource@Ogre@@@8			; Ogre::Resource `RTTI Type Descriptor'
PUBLIC	??_R3Resource@Ogre@@8				; Ogre::Resource::`RTTI Class Hierarchy Descriptor'
PUBLIC	??_R2Resource@Ogre@@8				; Ogre::Resource::`RTTI Base Class Array'
PUBLIC	??_R1A@?0A@EA@Resource@Ogre@@8			; Ogre::Resource::`RTTI Base Class Descriptor at (0,-1,0,64)'
PUBLIC	??_EResource@Ogre@@MAEPAXI@Z			; Ogre::Resource::`vector deleting destructor'
EXTRN	___security_cookie:DWORD
EXTRN	___CxxFrameHandler3:PROC
EXTRN	@__security_check_cookie@4:PROC
EXTRN	?release@Resource@Ogre@@UAEXXZ:PROC		; Ogre::Resource::release
EXTRN	?addRef@Resource@Ogre@@UAEXXZ:PROC		; Ogre::Resource::addRef
EXTRN	?getRefCount@Resource@Ogre@@UAEHXZ:PROC		; Ogre::Resource::getRefCount
;	COMDAT ??_R1A@?0A@EA@Resource@Ogre@@8
rdata$r	SEGMENT
??_R1A@?0A@EA@Resource@Ogre@@8 DD FLAT:??_R0?AVResource@Ogre@@@8 ; Ogre::Resource::`RTTI Base Class Descriptor at (0,-1,0,64)'
	DD	02H
	DD	00H
	DD	0ffffffffH
	DD	00H
	DD	040H
	DD	FLAT:??_R3Resource@Ogre@@8
rdata$r	ENDS
;	COMDAT ??_R2Resource@Ogre@@8
rdata$r	SEGMENT
??_R2Resource@Ogre@@8 DD FLAT:??_R1A@?0A@EA@Resource@Ogre@@8 ; Ogre::Resource::`RTTI Base Class Array'
	DD	FLAT:??_R1A@?0A@EA@BaseObject@Ogre@@8
	DD	FLAT:??_R13?0A@EA@MemoryDelegation@Ogre@@8
rdata$r	ENDS
;	COMDAT ??_R3Resource@Ogre@@8
rdata$r	SEGMENT
??_R3Resource@Ogre@@8 DD 00H				; Ogre::Resource::`RTTI Class Hierarchy Descriptor'
	DD	00H
	DD	03H
	DD	FLAT:??_R2Resource@Ogre@@8
rdata$r	ENDS
;	COMDAT ??_R0?AVResource@Ogre@@@8
_DATA	SEGMENT
??_R0?AVResource@Ogre@@@8 DD FLAT:??_7type_info@@6B@	; Ogre::Resource `RTTI Type Descriptor'
	DD	00H
	DB	'.?AVResource@Ogre@@', 00H
_DATA	ENDS
;	COMDAT ??_R4Resource@Ogre@@6B@
rdata$r	SEGMENT
??_R4Resource@Ogre@@6B@ DD 00H				; Ogre::Resource::`RTTI Complete Object Locator'
	DD	00H
	DD	00H
	DD	FLAT:??_R0?AVResource@Ogre@@@8
	DD	FLAT:??_R3Resource@Ogre@@8
rdata$r	ENDS
;	COMDAT ??_7Resource@Ogre@@6B@
CONST	SEGMENT
??_7Resource@Ogre@@6B@ DD FLAT:??_R4Resource@Ogre@@6B@	; Ogre::Resource::`vftable'
	DD	FLAT:?getRTTI@Resource@Ogre@@UBEPBVRuntimeClass@2@XZ
	DD	FLAT:?release@Resource@Ogre@@UAEXXZ
	DD	FLAT:?addRef@Resource@Ogre@@UAEXXZ
	DD	FLAT:?getRefCount@Resource@Ogre@@UAEHXZ
	DD	FLAT:?_serialize@BaseObject@Ogre@@UAEXAAVArchive@2@H@Z
	DD	FLAT:??_EResource@Ogre@@MAEPAXI@Z
	DD	FLAT:?deleteThis@BaseObject@Ogre@@MAEXXZ
CONST	ENDS
;	COMDAT xdata$x
xdata$x	SEGMENT
__unwindtable$??0Resource@Ogre@@IAE@XZ DD 0ffffffffH
	DD	FLAT:__unwindfunclet$??0Resource@Ogre@@IAE@XZ$0
	DD	00H
	DD	FLAT:__unwindfunclet$??0Resource@Ogre@@IAE@XZ$1
__ehfuncinfo$??0Resource@Ogre@@IAE@XZ DD 019930522H
	DD	02H
	DD	FLAT:__unwindtable$??0Resource@Ogre@@IAE@XZ
	DD	2 DUP(00H)
	DD	2 DUP(00H)
	DD	00H
	DD	00H
; Function compile flags: /Odtp
xdata$x	ENDS
;	COMDAT ??0Resource@Ogre@@IAE@XZ
_TEXT	SEGMENT
_this$ = -16						; size = 4
__$EHRec$ = -12						; size = 12
??0Resource@Ogre@@IAE@XZ PROC				; Ogre::Resource::Resource, COMDAT
; _this$ = ecx

; 72   : 		{

	push	ebp
	mov	ebp, esp
	push	-1
	push	__ehhandler$??0Resource@Ogre@@IAE@XZ
	mov	eax, DWORD PTR fs:0
	push	eax
	push	ecx
	mov	eax, DWORD PTR ___security_cookie
	xor	eax, ebp
	push	eax
	lea	eax, DWORD PTR __$EHRec$[ebp]
	mov	DWORD PTR fs:0, eax
	mov	DWORD PTR _this$[ebp], ecx
	mov	ecx, DWORD PTR _this$[ebp]
	call	??0BaseObject@Ogre@@IAE@XZ		; Ogre::BaseObject::BaseObject
	mov	DWORD PTR __$EHRec$[ebp+8], 0
	mov	eax, DWORD PTR _this$[ebp]
	mov	DWORD PTR [eax], OFFSET ??_7Resource@Ogre@@6B@
	mov	ecx, DWORD PTR _this$[ebp]
	add	ecx, 8
	call	??0FixedString@Ogre@@QAE@XZ		; Ogre::FixedString::FixedString
	mov	BYTE PTR __$EHRec$[ebp+8], 1
	mov	ecx, DWORD PTR _this$[ebp]
	mov	DWORD PTR [ecx+12], 1

; 73   : 		}

	mov	DWORD PTR __$EHRec$[ebp+8], -1
	mov	eax, DWORD PTR _this$[ebp]
	mov	ecx, DWORD PTR __$EHRec$[ebp]
	mov	DWORD PTR fs:0, ecx
	pop	ecx
	mov	esp, ebp
	pop	ebp
	ret	0
_TEXT	ENDS
;	COMDAT text$x
text$x	SEGMENT
__unwindfunclet$??0Resource@Ogre@@IAE@XZ$0:
	mov	ecx, DWORD PTR _this$[ebp]
	jmp	??1BaseObject@Ogre@@MAE@XZ		; Ogre::BaseObject::~BaseObject
__unwindfunclet$??0Resource@Ogre@@IAE@XZ$1:
	mov	ecx, DWORD PTR _this$[ebp]
	add	ecx, 8
	jmp	??1FixedString@Ogre@@QAE@XZ		; Ogre::FixedString::~FixedString
__ehhandler$??0Resource@Ogre@@IAE@XZ:
	mov	edx, DWORD PTR [esp+8]
	lea	eax, DWORD PTR [edx+12]
	mov	ecx, DWORD PTR [edx-8]
	xor	ecx, eax
	call	@__security_check_cookie@4
	mov	eax, OFFSET __ehfuncinfo$??0Resource@Ogre@@IAE@XZ
	jmp	___CxxFrameHandler3
text$x	ENDS
??0Resource@Ogre@@IAE@XZ ENDP				; Ogre::Resource::Resource
PUBLIC	??1Resource@Ogre@@MAE@XZ			; Ogre::Resource::~Resource
;	COMDAT xdata$x
xdata$x	SEGMENT
__unwindtable$??1Resource@Ogre@@MAE@XZ DD 0ffffffffH
	DD	FLAT:__unwindfunclet$??1Resource@Ogre@@MAE@XZ$0
	DD	00H
	DD	FLAT:__unwindfunclet$??1Resource@Ogre@@MAE@XZ$1
__ehfuncinfo$??1Resource@Ogre@@MAE@XZ DD 019930522H
	DD	02H
	DD	FLAT:__unwindtable$??1Resource@Ogre@@MAE@XZ
	DD	2 DUP(00H)
	DD	2 DUP(00H)
	DD	00H
	DD	00H
; Function compile flags: /Odtp
xdata$x	ENDS
;	COMDAT ??1Resource@Ogre@@MAE@XZ
_TEXT	SEGMENT
_this$ = -16						; size = 4
__$EHRec$ = -12						; size = 12
??1Resource@Ogre@@MAE@XZ PROC				; Ogre::Resource::~Resource, COMDAT
; _this$ = ecx

; 76   : 		{

	push	ebp
	mov	ebp, esp
	push	-1
	push	__ehhandler$??1Resource@Ogre@@MAE@XZ
	mov	eax, DWORD PTR fs:0
	push	eax
	push	ecx
	mov	eax, DWORD PTR ___security_cookie
	xor	eax, ebp
	push	eax
	lea	eax, DWORD PTR __$EHRec$[ebp]
	mov	DWORD PTR fs:0, eax
	mov	DWORD PTR _this$[ebp], ecx
	mov	eax, DWORD PTR _this$[ebp]
	mov	DWORD PTR [eax], OFFSET ??_7Resource@Ogre@@6B@
	mov	DWORD PTR __$EHRec$[ebp+8], 1

; 77   : 		}

	mov	BYTE PTR __$EHRec$[ebp+8], 0
	mov	ecx, DWORD PTR _this$[ebp]
	add	ecx, 8
	call	??1FixedString@Ogre@@QAE@XZ		; Ogre::FixedString::~FixedString
	mov	DWORD PTR __$EHRec$[ebp+8], -1
	mov	ecx, DWORD PTR _this$[ebp]
	call	??1BaseObject@Ogre@@MAE@XZ		; Ogre::BaseObject::~BaseObject
	mov	ecx, DWORD PTR __$EHRec$[ebp]
	mov	DWORD PTR fs:0, ecx
	pop	ecx
	mov	esp, ebp
	pop	ebp
	ret	0
_TEXT	ENDS
;	COMDAT text$x
text$x	SEGMENT
__unwindfunclet$??1Resource@Ogre@@MAE@XZ$0:
	mov	ecx, DWORD PTR _this$[ebp]
	jmp	??1BaseObject@Ogre@@MAE@XZ		; Ogre::BaseObject::~BaseObject
__unwindfunclet$??1Resource@Ogre@@MAE@XZ$1:
	mov	ecx, DWORD PTR _this$[ebp]
	add	ecx, 8
	jmp	??1FixedString@Ogre@@QAE@XZ		; Ogre::FixedString::~FixedString
__ehhandler$??1Resource@Ogre@@MAE@XZ:
	mov	edx, DWORD PTR [esp+8]
	lea	eax, DWORD PTR [edx+12]
	mov	ecx, DWORD PTR [edx-8]
	xor	ecx, eax
	call	@__security_check_cookie@4
	mov	eax, OFFSET __ehfuncinfo$??1Resource@Ogre@@MAE@XZ
	jmp	___CxxFrameHandler3
text$x	ENDS
??1Resource@Ogre@@MAE@XZ ENDP				; Ogre::Resource::~Resource
PUBLIC	??0Resource@Ogre@@QAE@ABV01@@Z			; Ogre::Resource::Resource
;	COMDAT xdata$x
xdata$x	SEGMENT
__unwindtable$??0Resource@Ogre@@QAE@ABV01@@Z DD 0ffffffffH
	DD	FLAT:__unwindfunclet$??0Resource@Ogre@@QAE@ABV01@@Z$0
	DD	00H
	DD	FLAT:__unwindfunclet$??0Resource@Ogre@@QAE@ABV01@@Z$1
__ehfuncinfo$??0Resource@Ogre@@QAE@ABV01@@Z DD 019930522H
	DD	02H
	DD	FLAT:__unwindtable$??0Resource@Ogre@@QAE@ABV01@@Z
	DD	2 DUP(00H)
	DD	2 DUP(00H)
	DD	00H
	DD	00H
; Function compile flags: /Odtp
xdata$x	ENDS
;	COMDAT ??0Resource@Ogre@@QAE@ABV01@@Z
_TEXT	SEGMENT
_this$ = -16						; size = 4
__$EHRec$ = -12						; size = 12
___that$ = 8						; size = 4
??0Resource@Ogre@@QAE@ABV01@@Z PROC			; Ogre::Resource::Resource, COMDAT
; _this$ = ecx
	push	ebp
	mov	ebp, esp
	push	-1
	push	__ehhandler$??0Resource@Ogre@@QAE@ABV01@@Z
	mov	eax, DWORD PTR fs:0
	push	eax
	push	ecx
	mov	eax, DWORD PTR ___security_cookie
	xor	eax, ebp
	push	eax
	lea	eax, DWORD PTR __$EHRec$[ebp]
	mov	DWORD PTR fs:0, eax
	mov	DWORD PTR _this$[ebp], ecx
	mov	eax, DWORD PTR ___that$[ebp]
	push	eax
	mov	ecx, DWORD PTR _this$[ebp]
	call	??0BaseObject@Ogre@@QAE@ABV01@@Z
	mov	DWORD PTR __$EHRec$[ebp+8], 0
	mov	ecx, DWORD PTR _this$[ebp]
	mov	DWORD PTR [ecx], OFFSET ??_7Resource@Ogre@@6B@
	mov	edx, DWORD PTR ___that$[ebp]
	add	edx, 8
	push	edx
	mov	ecx, DWORD PTR _this$[ebp]
	add	ecx, 8
	call	??0FixedString@Ogre@@QAE@ABV01@@Z	; Ogre::FixedString::FixedString
	mov	BYTE PTR __$EHRec$[ebp+8], 1
	mov	eax, DWORD PTR ___that$[ebp]
	mov	ecx, DWORD PTR [eax+12]
	mov	edx, DWORD PTR _this$[ebp]
	mov	DWORD PTR [edx+12], ecx
	mov	DWORD PTR __$EHRec$[ebp+8], -1
	mov	eax, DWORD PTR _this$[ebp]
	mov	ecx, DWORD PTR __$EHRec$[ebp]
	mov	DWORD PTR fs:0, ecx
	pop	ecx
	mov	esp, ebp
	pop	ebp
	ret	4
_TEXT	ENDS
;	COMDAT text$x
text$x	SEGMENT
__unwindfunclet$??0Resource@Ogre@@QAE@ABV01@@Z$0:
	mov	ecx, DWORD PTR _this$[ebp]
	jmp	??1BaseObject@Ogre@@MAE@XZ		; Ogre::BaseObject::~BaseObject
__unwindfunclet$??0Resource@Ogre@@QAE@ABV01@@Z$1:
	mov	ecx, DWORD PTR _this$[ebp]
	add	ecx, 8
	jmp	??1FixedString@Ogre@@QAE@XZ		; Ogre::FixedString::~FixedString
__ehhandler$??0Resource@Ogre@@QAE@ABV01@@Z:
	mov	edx, DWORD PTR [esp+8]
	lea	eax, DWORD PTR [edx+12]
	mov	ecx, DWORD PTR [edx-8]
	xor	ecx, eax
	call	@__security_check_cookie@4
	mov	eax, OFFSET __ehfuncinfo$??0Resource@Ogre@@QAE@ABV01@@Z
	jmp	___CxxFrameHandler3
text$x	ENDS
??0Resource@Ogre@@QAE@ABV01@@Z ENDP			; Ogre::Resource::Resource
PUBLIC	??4Resource@Ogre@@QAEAAV01@ABV01@@Z		; Ogre::Resource::operator=
; Function compile flags: /Odtp
;	COMDAT ??4Resource@Ogre@@QAEAAV01@ABV01@@Z
_TEXT	SEGMENT
_this$ = -4						; size = 4
___that$ = 8						; size = 4
??4Resource@Ogre@@QAEAAV01@ABV01@@Z PROC		; Ogre::Resource::operator=, COMDAT
; _this$ = ecx
	push	ebp
	mov	ebp, esp
	push	ecx
	mov	DWORD PTR _this$[ebp], ecx
	mov	eax, DWORD PTR ___that$[ebp]
	push	eax
	mov	ecx, DWORD PTR _this$[ebp]
	call	??4BaseObject@Ogre@@QAEAAV01@ABV01@@Z
	mov	ecx, DWORD PTR ___that$[ebp]
	add	ecx, 8
	push	ecx
	mov	ecx, DWORD PTR _this$[ebp]
	add	ecx, 8
	call	??4FixedString@Ogre@@QAEAAV01@ABV01@@Z	; Ogre::FixedString::operator=
	mov	edx, DWORD PTR ___that$[ebp]
	mov	eax, DWORD PTR [edx+12]
	mov	ecx, DWORD PTR _this$[ebp]
	mov	DWORD PTR [ecx+12], eax
	mov	eax, DWORD PTR _this$[ebp]
	mov	esp, ebp
	pop	ebp
	ret	4
??4Resource@Ogre@@QAEAAV01@ABV01@@Z ENDP		; Ogre::Resource::operator=
_TEXT	ENDS
PUBLIC	??_GResource@Ogre@@MAEPAXI@Z			; Ogre::Resource::`scalar deleting destructor'
; Function compile flags: /Odtp
;	COMDAT ??_GResource@Ogre@@MAEPAXI@Z
_TEXT	SEGMENT
_this$ = -4						; size = 4
___flags$ = 8						; size = 4
??_GResource@Ogre@@MAEPAXI@Z PROC			; Ogre::Resource::`scalar deleting destructor', COMDAT
; _this$ = ecx
	push	ebp
	mov	ebp, esp
	push	ecx
	mov	DWORD PTR _this$[ebp], ecx
	mov	ecx, DWORD PTR _this$[ebp]
	call	??1Resource@Ogre@@MAE@XZ		; Ogre::Resource::~Resource
	mov	eax, DWORD PTR ___flags$[ebp]
	and	eax, 1
	je	SHORT $LN1@scalar@2
	push	16					; 00000010H
	mov	ecx, DWORD PTR _this$[ebp]
	push	ecx
	call	??3MemoryDelegation@Ogre@@SAXPAXI@Z	; Ogre::MemoryDelegation::operator delete
	add	esp, 8
$LN1@scalar@2:
	mov	eax, DWORD PTR _this$[ebp]
	mov	esp, ebp
	pop	ebp
	ret	4
??_GResource@Ogre@@MAEPAXI@Z ENDP			; Ogre::Resource::`scalar deleting destructor'
; Function compile flags: /Odtp
_TEXT	ENDS
;	COMDAT ??_EResource@Ogre@@MAEPAXI@Z
_TEXT	SEGMENT
_this$ = -4						; size = 4
___flags$ = 8						; size = 4
??_EResource@Ogre@@MAEPAXI@Z PROC			; Ogre::Resource::`vector deleting destructor', COMDAT
; _this$ = ecx
	push	ebp
	mov	ebp, esp
	push	ecx
	mov	DWORD PTR _this$[ebp], ecx
	mov	eax, DWORD PTR ___flags$[ebp]
	and	eax, 2
	je	SHORT $LN3@vector@2
	push	OFFSET ??1Resource@Ogre@@MAE@XZ		; Ogre::Resource::~Resource
	mov	ecx, DWORD PTR _this$[ebp]
	mov	edx, DWORD PTR [ecx-4]
	push	edx
	push	16					; 00000010H
	mov	eax, DWORD PTR _this$[ebp]
	push	eax
	call	??_M@YGXPAXIHP6EX0@Z@Z
	mov	ecx, DWORD PTR ___flags$[ebp]
	and	ecx, 1
	je	SHORT $LN2@vector@2
	push	16					; 00000010H
	mov	edx, DWORD PTR _this$[ebp]
	sub	edx, 4
	push	edx
	call	??_VMemoryDelegation@Ogre@@SAXPAXI@Z	; Ogre::MemoryDelegation::operator delete[]
	add	esp, 8
$LN2@vector@2:
	mov	eax, DWORD PTR _this$[ebp]
	sub	eax, 4
	jmp	SHORT $LN4@vector@2
$LN3@vector@2:
	mov	ecx, DWORD PTR _this$[ebp]
	call	??1Resource@Ogre@@MAE@XZ		; Ogre::Resource::~Resource
	mov	eax, DWORD PTR ___flags$[ebp]
	and	eax, 1
	je	SHORT $LN1@vector@2
	push	16					; 00000010H
	mov	ecx, DWORD PTR _this$[ebp]
	push	ecx
	call	??3MemoryDelegation@Ogre@@SAXPAXI@Z	; Ogre::MemoryDelegation::operator delete
	add	esp, 8
$LN1@vector@2:
	mov	eax, DWORD PTR _this$[ebp]
$LN4@vector@2:
	mov	esp, ebp
	pop	ebp
	ret	4
??_EResource@Ogre@@MAEPAXI@Z ENDP			; Ogre::Resource::`vector deleting destructor'
_TEXT	ENDS
PUBLIC	??_7DataStream@Ogre@@6B@			; Ogre::DataStream::`vftable'
PUBLIC	??0DataStream@Ogre@@QAE@XZ			; Ogre::DataStream::DataStream
PUBLIC	??_R4DataStream@Ogre@@6B@			; Ogre::DataStream::`RTTI Complete Object Locator'
PUBLIC	??_R0?AVDataStream@Ogre@@@8			; Ogre::DataStream `RTTI Type Descriptor'
PUBLIC	??_R3DataStream@Ogre@@8				; Ogre::DataStream::`RTTI Class Hierarchy Descriptor'
PUBLIC	??_R2DataStream@Ogre@@8				; Ogre::DataStream::`RTTI Base Class Array'
PUBLIC	??_R1A@?0A@EA@DataStream@Ogre@@8		; Ogre::DataStream::`RTTI Base Class Descriptor at (0,-1,0,64)'
PUBLIC	??_EDataStream@Ogre@@UAEPAXI@Z			; Ogre::DataStream::`vector deleting destructor'
PUBLIC	?size@DataStream@Ogre@@UBEIXZ			; Ogre::DataStream::size
EXTRN	__imp_??1?$basic_string@DU?$char_traits@D@std@@V?$allocator@D@2@@std@@QAE@XZ:PROC
EXTRN	__imp_??0?$basic_string@DU?$char_traits@D@std@@V?$allocator@D@2@@std@@QAE@XZ:PROC
EXTRN	__purecall:PROC
EXTRN	?readLine@DataStream@Ogre@@UAEIPADIABV?$basic_string@DU?$char_traits@D@std@@V?$allocator@D@2@@std@@@Z:PROC ; Ogre::DataStream::readLine
EXTRN	?getLine@DataStream@Ogre@@UAE?AV?$basic_string@DU?$char_traits@D@std@@V?$allocator@D@2@@std@@_N@Z:PROC ; Ogre::DataStream::getLine
EXTRN	?getAsString@DataStream@Ogre@@UAE?AV?$basic_string@DU?$char_traits@D@std@@V?$allocator@D@2@@std@@XZ:PROC ; Ogre::DataStream::getAsString
EXTRN	?skipLine@DataStream@Ogre@@UAEIABV?$basic_string@DU?$char_traits@D@std@@V?$allocator@D@2@@std@@@Z:PROC ; Ogre::DataStream::skipLine
;	COMDAT ??_R1A@?0A@EA@DataStream@Ogre@@8
; File i:\svnroot\client\ogremain\ogredatastream.h
rdata$r	SEGMENT
??_R1A@?0A@EA@DataStream@Ogre@@8 DD FLAT:??_R0?AVDataStream@Ogre@@@8 ; Ogre::DataStream::`RTTI Base Class Descriptor at (0,-1,0,64)'
	DD	00H
	DD	00H
	DD	0ffffffffH
	DD	00H
	DD	040H
	DD	FLAT:??_R3DataStream@Ogre@@8
rdata$r	ENDS
;	COMDAT ??_R2DataStream@Ogre@@8
rdata$r	SEGMENT
??_R2DataStream@Ogre@@8 DD FLAT:??_R1A@?0A@EA@DataStream@Ogre@@8 ; Ogre::DataStream::`RTTI Base Class Array'
rdata$r	ENDS
;	COMDAT ??_R3DataStream@Ogre@@8
rdata$r	SEGMENT
??_R3DataStream@Ogre@@8 DD 00H				; Ogre::DataStream::`RTTI Class Hierarchy Descriptor'
	DD	00H
	DD	01H
	DD	FLAT:??_R2DataStream@Ogre@@8
rdata$r	ENDS
;	COMDAT ??_R0?AVDataStream@Ogre@@@8
_DATA	SEGMENT
??_R0?AVDataStream@Ogre@@@8 DD FLAT:??_7type_info@@6B@	; Ogre::DataStream `RTTI Type Descriptor'
	DD	00H
	DB	'.?AVDataStream@Ogre@@', 00H
_DATA	ENDS
;	COMDAT ??_R4DataStream@Ogre@@6B@
rdata$r	SEGMENT
??_R4DataStream@Ogre@@6B@ DD 00H			; Ogre::DataStream::`RTTI Complete Object Locator'
	DD	00H
	DD	00H
	DD	FLAT:??_R0?AVDataStream@Ogre@@@8
	DD	FLAT:??_R3DataStream@Ogre@@8
rdata$r	ENDS
;	COMDAT ??_7DataStream@Ogre@@6B@
CONST	SEGMENT
??_7DataStream@Ogre@@6B@ DD FLAT:??_R4DataStream@Ogre@@6B@ ; Ogre::DataStream::`vftable'
	DD	FLAT:??_EDataStream@Ogre@@UAEPAXI@Z
	DD	FLAT:__purecall
	DD	FLAT:__purecall
	DD	FLAT:?readLine@DataStream@Ogre@@UAEIPADIABV?$basic_string@DU?$char_traits@D@std@@V?$allocator@D@2@@std@@@Z
	DD	FLAT:?getLine@DataStream@Ogre@@UAE?AV?$basic_string@DU?$char_traits@D@std@@V?$allocator@D@2@@std@@_N@Z
	DD	FLAT:?getAsString@DataStream@Ogre@@UAE?AV?$basic_string@DU?$char_traits@D@std@@V?$allocator@D@2@@std@@XZ
	DD	FLAT:?skipLine@DataStream@Ogre@@UAEIABV?$basic_string@DU?$char_traits@D@std@@V?$allocator@D@2@@std@@@Z
	DD	FLAT:__purecall
	DD	FLAT:__purecall
	DD	FLAT:__purecall
	DD	FLAT:__purecall
	DD	FLAT:?size@DataStream@Ogre@@UBEIXZ
	DD	FLAT:__purecall
	DD	FLAT:__purecall
CONST	ENDS
;	COMDAT xdata$x
xdata$x	SEGMENT
__unwindtable$??0DataStream@Ogre@@QAE@XZ DD 0ffffffffH
	DD	FLAT:__unwindfunclet$??0DataStream@Ogre@@QAE@XZ$0
__ehfuncinfo$??0DataStream@Ogre@@QAE@XZ DD 019930522H
	DD	01H
	DD	FLAT:__unwindtable$??0DataStream@Ogre@@QAE@XZ
	DD	2 DUP(00H)
	DD	2 DUP(00H)
	DD	00H
	DD	00H
; Function compile flags: /Odtp
xdata$x	ENDS
;	COMDAT ??0DataStream@Ogre@@QAE@XZ
_TEXT	SEGMENT
_this$ = -16						; size = 4
__$EHRec$ = -12						; size = 12
??0DataStream@Ogre@@QAE@XZ PROC				; Ogre::DataStream::DataStream, COMDAT
; _this$ = ecx

; 68   : 		DataStream() : mSize(0) {}

	push	ebp
	mov	ebp, esp
	push	-1
	push	__ehhandler$??0DataStream@Ogre@@QAE@XZ
	mov	eax, DWORD PTR fs:0
	push	eax
	push	ecx
	mov	eax, DWORD PTR ___security_cookie
	xor	eax, ebp
	push	eax
	lea	eax, DWORD PTR __$EHRec$[ebp]
	mov	DWORD PTR fs:0, eax
	mov	DWORD PTR _this$[ebp], ecx
	mov	eax, DWORD PTR _this$[ebp]
	mov	DWORD PTR [eax], OFFSET ??_7DataStream@Ogre@@6B@
	mov	ecx, DWORD PTR _this$[ebp]
	add	ecx, 4
	call	DWORD PTR __imp_??0?$basic_string@DU?$char_traits@D@std@@V?$allocator@D@2@@std@@QAE@XZ
	mov	DWORD PTR __$EHRec$[ebp+8], 0
	mov	ecx, DWORD PTR _this$[ebp]
	mov	DWORD PTR [ecx+32], 0
	mov	DWORD PTR __$EHRec$[ebp+8], -1
	mov	eax, DWORD PTR _this$[ebp]
	mov	ecx, DWORD PTR __$EHRec$[ebp]
	mov	DWORD PTR fs:0, ecx
	pop	ecx
	mov	esp, ebp
	pop	ebp
	ret	0
_TEXT	ENDS
;	COMDAT text$x
text$x	SEGMENT
__unwindfunclet$??0DataStream@Ogre@@QAE@XZ$0:
	mov	ecx, DWORD PTR _this$[ebp]
	add	ecx, 4
	jmp	DWORD PTR __imp_??1?$basic_string@DU?$char_traits@D@std@@V?$allocator@D@2@@std@@QAE@XZ
__ehhandler$??0DataStream@Ogre@@QAE@XZ:
	mov	edx, DWORD PTR [esp+8]
	lea	eax, DWORD PTR [edx+12]
	mov	ecx, DWORD PTR [edx-8]
	xor	ecx, eax
	call	@__security_check_cookie@4
	mov	eax, OFFSET __ehfuncinfo$??0DataStream@Ogre@@QAE@XZ
	jmp	___CxxFrameHandler3
text$x	ENDS
??0DataStream@Ogre@@QAE@XZ ENDP				; Ogre::DataStream::DataStream
PUBLIC	??0DataStream@Ogre@@QAE@ABV?$basic_string@DU?$char_traits@D@std@@V?$allocator@D@2@@std@@@Z ; Ogre::DataStream::DataStream
EXTRN	__imp_??0?$basic_string@DU?$char_traits@D@std@@V?$allocator@D@2@@std@@QAE@ABV01@@Z:PROC
;	COMDAT xdata$x
xdata$x	SEGMENT
__unwindtable$??0DataStream@Ogre@@QAE@ABV?$basic_string@DU?$char_traits@D@std@@V?$allocator@D@2@@std@@@Z DD 0ffffffffH
	DD	FLAT:__unwindfunclet$??0DataStream@Ogre@@QAE@ABV?$basic_string@DU?$char_traits@D@std@@V?$allocator@D@2@@std@@@Z$0
__ehfuncinfo$??0DataStream@Ogre@@QAE@ABV?$basic_string@DU?$char_traits@D@std@@V?$allocator@D@2@@std@@@Z DD 019930522H
	DD	01H
	DD	FLAT:__unwindtable$??0DataStream@Ogre@@QAE@ABV?$basic_string@DU?$char_traits@D@std@@V?$allocator@D@2@@std@@@Z
	DD	2 DUP(00H)
	DD	2 DUP(00H)
	DD	00H
	DD	00H
; Function compile flags: /Odtp
xdata$x	ENDS
;	COMDAT ??0DataStream@Ogre@@QAE@ABV?$basic_string@DU?$char_traits@D@std@@V?$allocator@D@2@@std@@@Z
_TEXT	SEGMENT
_this$ = -16						; size = 4
__$EHRec$ = -12						; size = 12
_name$ = 8						; size = 4
??0DataStream@Ogre@@QAE@ABV?$basic_string@DU?$char_traits@D@std@@V?$allocator@D@2@@std@@@Z PROC ; Ogre::DataStream::DataStream, COMDAT
; _this$ = ecx

; 70   : 		DataStream(const String& name) : mName(name), mSize(0) {}

	push	ebp
	mov	ebp, esp
	push	-1
	push	__ehhandler$??0DataStream@Ogre@@QAE@ABV?$basic_string@DU?$char_traits@D@std@@V?$allocator@D@2@@std@@@Z
	mov	eax, DWORD PTR fs:0
	push	eax
	push	ecx
	mov	eax, DWORD PTR ___security_cookie
	xor	eax, ebp
	push	eax
	lea	eax, DWORD PTR __$EHRec$[ebp]
	mov	DWORD PTR fs:0, eax
	mov	DWORD PTR _this$[ebp], ecx
	mov	eax, DWORD PTR _this$[ebp]
	mov	DWORD PTR [eax], OFFSET ??_7DataStream@Ogre@@6B@
	mov	ecx, DWORD PTR _name$[ebp]
	push	ecx
	mov	ecx, DWORD PTR _this$[ebp]
	add	ecx, 4
	call	DWORD PTR __imp_??0?$basic_string@DU?$char_traits@D@std@@V?$allocator@D@2@@std@@QAE@ABV01@@Z
	mov	DWORD PTR __$EHRec$[ebp+8], 0
	mov	edx, DWORD PTR _this$[ebp]
	mov	DWORD PTR [edx+32], 0
	mov	DWORD PTR __$EHRec$[ebp+8], -1
	mov	eax, DWORD PTR _this$[ebp]
	mov	ecx, DWORD PTR __$EHRec$[ebp]
	mov	DWORD PTR fs:0, ecx
	pop	ecx
	mov	esp, ebp
	pop	ebp
	ret	4
_TEXT	ENDS
;	COMDAT text$x
text$x	SEGMENT
__unwindfunclet$??0DataStream@Ogre@@QAE@ABV?$basic_string@DU?$char_traits@D@std@@V?$allocator@D@2@@std@@@Z$0:
	mov	ecx, DWORD PTR _this$[ebp]
	add	ecx, 4
	jmp	DWORD PTR __imp_??1?$basic_string@DU?$char_traits@D@std@@V?$allocator@D@2@@std@@QAE@XZ
__ehhandler$??0DataStream@Ogre@@QAE@ABV?$basic_string@DU?$char_traits@D@std@@V?$allocator@D@2@@std@@@Z:
	mov	edx, DWORD PTR [esp+8]
	lea	eax, DWORD PTR [edx+12]
	mov	ecx, DWORD PTR [edx-8]
	xor	ecx, eax
	call	@__security_check_cookie@4
	mov	eax, OFFSET __ehfuncinfo$??0DataStream@Ogre@@QAE@ABV?$basic_string@DU?$char_traits@D@std@@V?$allocator@D@2@@std@@@Z
	jmp	___CxxFrameHandler3
text$x	ENDS
??0DataStream@Ogre@@QAE@ABV?$basic_string@DU?$char_traits@D@std@@V?$allocator@D@2@@std@@@Z ENDP ; Ogre::DataStream::DataStream
PUBLIC	?getName@DataStream@Ogre@@QAEABV?$basic_string@DU?$char_traits@D@std@@V?$allocator@D@2@@std@@XZ ; Ogre::DataStream::getName
; Function compile flags: /Odtp
;	COMDAT ?getName@DataStream@Ogre@@QAEABV?$basic_string@DU?$char_traits@D@std@@V?$allocator@D@2@@std@@XZ
_TEXT	SEGMENT
_this$ = -4						; size = 4
?getName@DataStream@Ogre@@QAEABV?$basic_string@DU?$char_traits@D@std@@V?$allocator@D@2@@std@@XZ PROC ; Ogre::DataStream::getName, COMDAT
; _this$ = ecx

; 72   : 		const String& getName(void) { return mName; }

	push	ebp
	mov	ebp, esp
	push	ecx
	mov	DWORD PTR _this$[ebp], ecx
	mov	eax, DWORD PTR _this$[ebp]
	add	eax, 4
	mov	esp, ebp
	pop	ebp
	ret	0
?getName@DataStream@Ogre@@QAEABV?$basic_string@DU?$char_traits@D@std@@V?$allocator@D@2@@std@@XZ ENDP ; Ogre::DataStream::getName
_TEXT	ENDS
PUBLIC	??1DataStream@Ogre@@UAE@XZ			; Ogre::DataStream::~DataStream
;	COMDAT xdata$x
xdata$x	SEGMENT
__unwindtable$??1DataStream@Ogre@@UAE@XZ DD 0ffffffffH
	DD	FLAT:__unwindfunclet$??1DataStream@Ogre@@UAE@XZ$0
__ehfuncinfo$??1DataStream@Ogre@@UAE@XZ DD 019930522H
	DD	01H
	DD	FLAT:__unwindtable$??1DataStream@Ogre@@UAE@XZ
	DD	2 DUP(00H)
	DD	2 DUP(00H)
	DD	00H
	DD	00H
; Function compile flags: /Odtp
xdata$x	ENDS
;	COMDAT ??1DataStream@Ogre@@UAE@XZ
_TEXT	SEGMENT
_this$ = -16						; size = 4
__$EHRec$ = -12						; size = 12
??1DataStream@Ogre@@UAE@XZ PROC				; Ogre::DataStream::~DataStream, COMDAT
; _this$ = ecx

; 73   : 		virtual ~DataStream() {}

	push	ebp
	mov	ebp, esp
	push	-1
	push	__ehhandler$??1DataStream@Ogre@@UAE@XZ
	mov	eax, DWORD PTR fs:0
	push	eax
	push	ecx
	mov	eax, DWORD PTR ___security_cookie
	xor	eax, ebp
	push	eax
	lea	eax, DWORD PTR __$EHRec$[ebp]
	mov	DWORD PTR fs:0, eax
	mov	DWORD PTR _this$[ebp], ecx
	mov	eax, DWORD PTR _this$[ebp]
	mov	DWORD PTR [eax], OFFSET ??_7DataStream@Ogre@@6B@
	mov	DWORD PTR __$EHRec$[ebp+8], 0
	mov	DWORD PTR __$EHRec$[ebp+8], -1
	mov	ecx, DWORD PTR _this$[ebp]
	add	ecx, 4
	call	DWORD PTR __imp_??1?$basic_string@DU?$char_traits@D@std@@V?$allocator@D@2@@std@@QAE@XZ
	mov	ecx, DWORD PTR __$EHRec$[ebp]
	mov	DWORD PTR fs:0, ecx
	pop	ecx
	mov	esp, ebp
	pop	ebp
	ret	0
_TEXT	ENDS
;	COMDAT text$x
text$x	SEGMENT
__unwindfunclet$??1DataStream@Ogre@@UAE@XZ$0:
	mov	ecx, DWORD PTR _this$[ebp]
	add	ecx, 4
	jmp	DWORD PTR __imp_??1?$basic_string@DU?$char_traits@D@std@@V?$allocator@D@2@@std@@QAE@XZ
__ehhandler$??1DataStream@Ogre@@UAE@XZ:
	mov	edx, DWORD PTR [esp+8]
	lea	eax, DWORD PTR [edx+12]
	mov	ecx, DWORD PTR [edx-8]
	xor	ecx, eax
	call	@__security_check_cookie@4
	mov	eax, OFFSET __ehfuncinfo$??1DataStream@Ogre@@UAE@XZ
	jmp	___CxxFrameHandler3
text$x	ENDS
??1DataStream@Ogre@@UAE@XZ ENDP				; Ogre::DataStream::~DataStream
; Function compile flags: /Odtp
;	COMDAT ?size@DataStream@Ogre@@UBEIXZ
_TEXT	SEGMENT
_this$ = -4						; size = 4
?size@DataStream@Ogre@@UBEIXZ PROC			; Ogre::DataStream::size, COMDAT
; _this$ = ecx

; 157  : 		virtual size_t size(void) const { return mSize; }

	push	ebp
	mov	ebp, esp
	push	ecx
	mov	DWORD PTR _this$[ebp], ecx
	mov	eax, DWORD PTR _this$[ebp]
	mov	eax, DWORD PTR [eax+32]
	mov	esp, ebp
	pop	ebp
	ret	0
?size@DataStream@Ogre@@UBEIXZ ENDP			; Ogre::DataStream::size
_TEXT	ENDS
PUBLIC	??0DataStream@Ogre@@QAE@ABV01@@Z		; Ogre::DataStream::DataStream
;	COMDAT xdata$x
xdata$x	SEGMENT
__unwindtable$??0DataStream@Ogre@@QAE@ABV01@@Z DD 0ffffffffH
	DD	FLAT:__unwindfunclet$??0DataStream@Ogre@@QAE@ABV01@@Z$0
__ehfuncinfo$??0DataStream@Ogre@@QAE@ABV01@@Z DD 019930522H
	DD	01H
	DD	FLAT:__unwindtable$??0DataStream@Ogre@@QAE@ABV01@@Z
	DD	2 DUP(00H)
	DD	2 DUP(00H)
	DD	00H
	DD	00H
; Function compile flags: /Odtp
xdata$x	ENDS
;	COMDAT ??0DataStream@Ogre@@QAE@ABV01@@Z
_TEXT	SEGMENT
_this$ = -16						; size = 4
__$EHRec$ = -12						; size = 12
___that$ = 8						; size = 4
??0DataStream@Ogre@@QAE@ABV01@@Z PROC			; Ogre::DataStream::DataStream, COMDAT
; _this$ = ecx
	push	ebp
	mov	ebp, esp
	push	-1
	push	__ehhandler$??0DataStream@Ogre@@QAE@ABV01@@Z
	mov	eax, DWORD PTR fs:0
	push	eax
	push	ecx
	mov	eax, DWORD PTR ___security_cookie
	xor	eax, ebp
	push	eax
	lea	eax, DWORD PTR __$EHRec$[ebp]
	mov	DWORD PTR fs:0, eax
	mov	DWORD PTR _this$[ebp], ecx
	mov	eax, DWORD PTR _this$[ebp]
	mov	DWORD PTR [eax], OFFSET ??_7DataStream@Ogre@@6B@
	mov	ecx, DWORD PTR ___that$[ebp]
	add	ecx, 4
	push	ecx
	mov	ecx, DWORD PTR _this$[ebp]
	add	ecx, 4
	call	DWORD PTR __imp_??0?$basic_string@DU?$char_traits@D@std@@V?$allocator@D@2@@std@@QAE@ABV01@@Z
	mov	DWORD PTR __$EHRec$[ebp+8], 0
	mov	edx, DWORD PTR _this$[ebp]
	mov	eax, DWORD PTR ___that$[ebp]
	mov	ecx, DWORD PTR [eax+32]
	mov	DWORD PTR [edx+32], ecx
	mov	DWORD PTR __$EHRec$[ebp+8], -1
	mov	eax, DWORD PTR _this$[ebp]
	mov	ecx, DWORD PTR __$EHRec$[ebp]
	mov	DWORD PTR fs:0, ecx
	pop	ecx
	mov	esp, ebp
	pop	ebp
	ret	4
_TEXT	ENDS
;	COMDAT text$x
text$x	SEGMENT
__unwindfunclet$??0DataStream@Ogre@@QAE@ABV01@@Z$0:
	mov	ecx, DWORD PTR _this$[ebp]
	add	ecx, 4
	jmp	DWORD PTR __imp_??1?$basic_string@DU?$char_traits@D@std@@V?$allocator@D@2@@std@@QAE@XZ
__ehhandler$??0DataStream@Ogre@@QAE@ABV01@@Z:
	mov	edx, DWORD PTR [esp+8]
	lea	eax, DWORD PTR [edx+12]
	mov	ecx, DWORD PTR [edx-8]
	xor	ecx, eax
	call	@__security_check_cookie@4
	mov	eax, OFFSET __ehfuncinfo$??0DataStream@Ogre@@QAE@ABV01@@Z
	jmp	___CxxFrameHandler3
text$x	ENDS
??0DataStream@Ogre@@QAE@ABV01@@Z ENDP			; Ogre::DataStream::DataStream
PUBLIC	??4DataStream@Ogre@@QAEAAV01@ABV01@@Z		; Ogre::DataStream::operator=
EXTRN	__imp_??4?$basic_string@DU?$char_traits@D@std@@V?$allocator@D@2@@std@@QAEAAV01@ABV01@@Z:PROC
; Function compile flags: /Odtp
;	COMDAT ??4DataStream@Ogre@@QAEAAV01@ABV01@@Z
_TEXT	SEGMENT
_this$ = -4						; size = 4
___that$ = 8						; size = 4
??4DataStream@Ogre@@QAEAAV01@ABV01@@Z PROC		; Ogre::DataStream::operator=, COMDAT
; _this$ = ecx
	push	ebp
	mov	ebp, esp
	push	ecx
	mov	DWORD PTR _this$[ebp], ecx
	mov	eax, DWORD PTR ___that$[ebp]
	add	eax, 4
	push	eax
	mov	ecx, DWORD PTR _this$[ebp]
	add	ecx, 4
	call	DWORD PTR __imp_??4?$basic_string@DU?$char_traits@D@std@@V?$allocator@D@2@@std@@QAEAAV01@ABV01@@Z
	mov	ecx, DWORD PTR _this$[ebp]
	mov	edx, DWORD PTR ___that$[ebp]
	mov	eax, DWORD PTR [edx+32]
	mov	DWORD PTR [ecx+32], eax
	mov	eax, DWORD PTR _this$[ebp]
	mov	esp, ebp
	pop	ebp
	ret	4
??4DataStream@Ogre@@QAEAAV01@ABV01@@Z ENDP		; Ogre::DataStream::operator=
_TEXT	ENDS
PUBLIC	??_GDataStream@Ogre@@UAEPAXI@Z			; Ogre::DataStream::`scalar deleting destructor'
EXTRN	??3@YAXPAX@Z:PROC				; operator delete
; Function compile flags: /Odtp
;	COMDAT ??_GDataStream@Ogre@@UAEPAXI@Z
_TEXT	SEGMENT
_this$ = -4						; size = 4
___flags$ = 8						; size = 4
??_GDataStream@Ogre@@UAEPAXI@Z PROC			; Ogre::DataStream::`scalar deleting destructor', COMDAT
; _this$ = ecx
	push	ebp
	mov	ebp, esp
	push	ecx
	mov	DWORD PTR _this$[ebp], ecx
	mov	ecx, DWORD PTR _this$[ebp]
	call	??1DataStream@Ogre@@UAE@XZ		; Ogre::DataStream::~DataStream
	mov	eax, DWORD PTR ___flags$[ebp]
	and	eax, 1
	je	SHORT $LN1@scalar@3
	mov	ecx, DWORD PTR _this$[ebp]
	push	ecx
	call	??3@YAXPAX@Z				; operator delete
	add	esp, 4
$LN1@scalar@3:
	mov	eax, DWORD PTR _this$[ebp]
	mov	esp, ebp
	pop	ebp
	ret	4
??_GDataStream@Ogre@@UAEPAXI@Z ENDP			; Ogre::DataStream::`scalar deleting destructor'
_TEXT	ENDS
EXTRN	??_V@YAXPAX@Z:PROC				; operator delete[]
; Function compile flags: /Odtp
;	COMDAT ??_EDataStream@Ogre@@UAEPAXI@Z
_TEXT	SEGMENT
_this$ = -4						; size = 4
___flags$ = 8						; size = 4
??_EDataStream@Ogre@@UAEPAXI@Z PROC			; Ogre::DataStream::`vector deleting destructor', COMDAT
; _this$ = ecx
	push	ebp
	mov	ebp, esp
	push	ecx
	mov	DWORD PTR _this$[ebp], ecx
	mov	eax, DWORD PTR ___flags$[ebp]
	and	eax, 2
	je	SHORT $LN3@vector@3
	push	OFFSET ??1DataStream@Ogre@@UAE@XZ	; Ogre::DataStream::~DataStream
	mov	ecx, DWORD PTR _this$[ebp]
	mov	edx, DWORD PTR [ecx-4]
	push	edx
	push	36					; 00000024H
	mov	eax, DWORD PTR _this$[ebp]
	push	eax
	call	??_M@YGXPAXIHP6EX0@Z@Z
	mov	ecx, DWORD PTR ___flags$[ebp]
	and	ecx, 1
	je	SHORT $LN2@vector@3
	mov	edx, DWORD PTR _this$[ebp]
	sub	edx, 4
	push	edx
	call	??_V@YAXPAX@Z				; operator delete[]
	add	esp, 4
$LN2@vector@3:
	mov	eax, DWORD PTR _this$[ebp]
	sub	eax, 4
	jmp	SHORT $LN4@vector@3
$LN3@vector@3:
	mov	ecx, DWORD PTR _this$[ebp]
	call	??1DataStream@Ogre@@UAE@XZ		; Ogre::DataStream::~DataStream
	mov	eax, DWORD PTR ___flags$[ebp]
	and	eax, 1
	je	SHORT $LN1@vector@3
	mov	ecx, DWORD PTR _this$[ebp]
	push	ecx
	call	??3@YAXPAX@Z				; operator delete
	add	esp, 4
$LN1@vector@3:
	mov	eax, DWORD PTR _this$[ebp]
$LN4@vector@3:
	mov	esp, ebp
	pop	ebp
	ret	4
??_EDataStream@Ogre@@UAEPAXI@Z ENDP			; Ogre::DataStream::`vector deleting destructor'
_TEXT	ENDS
PUBLIC	?getPtr@MemoryDataStream@Ogre@@QAEPAEXZ		; Ogre::MemoryDataStream::getPtr
; Function compile flags: /Odtp
;	COMDAT ?getPtr@MemoryDataStream@Ogre@@QAEPAEXZ
_TEXT	SEGMENT
_this$ = -4						; size = 4
?getPtr@MemoryDataStream@Ogre@@QAEPAEXZ PROC		; Ogre::MemoryDataStream::getPtr, COMDAT
; _this$ = ecx

; 267  : 		uchar* getPtr(void) { return mData; }

	push	ebp
	mov	ebp, esp
	push	ecx
	mov	DWORD PTR _this$[ebp], ecx
	mov	eax, DWORD PTR _this$[ebp]
	mov	eax, DWORD PTR [eax+36]
	mov	esp, ebp
	pop	ebp
	ret	0
?getPtr@MemoryDataStream@Ogre@@QAEPAEXZ ENDP		; Ogre::MemoryDataStream::getPtr
_TEXT	ENDS
PUBLIC	?getCurrentPtr@MemoryDataStream@Ogre@@QAEPAEXZ	; Ogre::MemoryDataStream::getCurrentPtr
; Function compile flags: /Odtp
;	COMDAT ?getCurrentPtr@MemoryDataStream@Ogre@@QAEPAEXZ
_TEXT	SEGMENT
_this$ = -4						; size = 4
?getCurrentPtr@MemoryDataStream@Ogre@@QAEPAEXZ PROC	; Ogre::MemoryDataStream::getCurrentPtr, COMDAT
; _this$ = ecx

; 270  : 		uchar* getCurrentPtr(void) { return mPos; }

	push	ebp
	mov	ebp, esp
	push	ecx
	mov	DWORD PTR _this$[ebp], ecx
	mov	eax, DWORD PTR _this$[ebp]
	mov	eax, DWORD PTR [eax+40]
	mov	esp, ebp
	pop	ebp
	ret	0
?getCurrentPtr@MemoryDataStream@Ogre@@QAEPAEXZ ENDP	; Ogre::MemoryDataStream::getCurrentPtr
_TEXT	ENDS
PUBLIC	?getMemoryImage@MemoryDataStream@Ogre@@UAEPAXXZ	; Ogre::MemoryDataStream::getMemoryImage
; Function compile flags: /Odtp
;	COMDAT ?getMemoryImage@MemoryDataStream@Ogre@@UAEPAXXZ
_TEXT	SEGMENT
_this$ = -4						; size = 4
?getMemoryImage@MemoryDataStream@Ogre@@UAEPAXXZ PROC	; Ogre::MemoryDataStream::getMemoryImage, COMDAT
; _this$ = ecx

; 307  : 		{

	push	ebp
	mov	ebp, esp
	push	ecx
	mov	DWORD PTR _this$[ebp], ecx

; 308  : 			return mData;

	mov	eax, DWORD PTR _this$[ebp]
	mov	eax, DWORD PTR [eax+36]

; 309  : 		}

	mov	esp, ebp
	pop	ebp
	ret	0
?getMemoryImage@MemoryDataStream@Ogre@@UAEPAXXZ ENDP	; Ogre::MemoryDataStream::getMemoryImage
_TEXT	ENDS
PUBLIC	?setFreeOnClose@MemoryDataStream@Ogre@@QAEXP6AXPAX@Z@Z ; Ogre::MemoryDataStream::setFreeOnClose
; Function compile flags: /Odtp
;	COMDAT ?setFreeOnClose@MemoryDataStream@Ogre@@QAEXP6AXPAX@Z@Z
_TEXT	SEGMENT
_this$ = -4						; size = 4
_freeOnClose$ = 8					; size = 4
?setFreeOnClose@MemoryDataStream@Ogre@@QAEXP6AXPAX@Z@Z PROC ; Ogre::MemoryDataStream::setFreeOnClose, COMDAT
; _this$ = ecx

; 313  : 		void setFreeOnClose(void (*freeOnClose)(void *)) { mFreeOnClose = freeOnClose; }

	push	ebp
	mov	ebp, esp
	push	ecx
	mov	DWORD PTR _this$[ebp], ecx
	mov	eax, DWORD PTR _this$[ebp]
	mov	ecx, DWORD PTR _freeOnClose$[ebp]
	mov	DWORD PTR [eax+48], ecx
	mov	esp, ebp
	pop	ebp
	ret	4
?setFreeOnClose@MemoryDataStream@Ogre@@QAEXP6AXPAX@Z@Z ENDP ; Ogre::MemoryDataStream::setFreeOnClose
_TEXT	ENDS
PUBLIC	??_7MemoryDataStream@Ogre@@6B@			; Ogre::MemoryDataStream::`vftable'
PUBLIC	??0MemoryDataStream@Ogre@@QAE@ABV01@@Z		; Ogre::MemoryDataStream::MemoryDataStream
PUBLIC	??_R4MemoryDataStream@Ogre@@6B@			; Ogre::MemoryDataStream::`RTTI Complete Object Locator'
PUBLIC	??_R0?AVMemoryDataStream@Ogre@@@8		; Ogre::MemoryDataStream `RTTI Type Descriptor'
PUBLIC	??_R3MemoryDataStream@Ogre@@8			; Ogre::MemoryDataStream::`RTTI Class Hierarchy Descriptor'
PUBLIC	??_R2MemoryDataStream@Ogre@@8			; Ogre::MemoryDataStream::`RTTI Base Class Array'
PUBLIC	??_R1A@?0A@EA@MemoryDataStream@Ogre@@8		; Ogre::MemoryDataStream::`RTTI Base Class Descriptor at (0,-1,0,64)'
PUBLIC	??_EMemoryDataStream@Ogre@@UAEPAXI@Z		; Ogre::MemoryDataStream::`vector deleting destructor'
EXTRN	?read@MemoryDataStream@Ogre@@UAEIPAXI@Z:PROC	; Ogre::MemoryDataStream::read
EXTRN	?write@MemoryDataStream@Ogre@@UAEIPBXI@Z:PROC	; Ogre::MemoryDataStream::write
EXTRN	?readLine@MemoryDataStream@Ogre@@UAEIPADIABV?$basic_string@DU?$char_traits@D@std@@V?$allocator@D@2@@std@@@Z:PROC ; Ogre::MemoryDataStream::readLine
EXTRN	?skipLine@MemoryDataStream@Ogre@@UAEIABV?$basic_string@DU?$char_traits@D@std@@V?$allocator@D@2@@std@@@Z:PROC ; Ogre::MemoryDataStream::skipLine
EXTRN	?skip@MemoryDataStream@Ogre@@UAEXJ@Z:PROC	; Ogre::MemoryDataStream::skip
EXTRN	?seek@MemoryDataStream@Ogre@@UAEXI@Z:PROC	; Ogre::MemoryDataStream::seek
EXTRN	?tell@MemoryDataStream@Ogre@@UBEIXZ:PROC	; Ogre::MemoryDataStream::tell
EXTRN	?eof@MemoryDataStream@Ogre@@UBE_NXZ:PROC	; Ogre::MemoryDataStream::eof
EXTRN	?close@MemoryDataStream@Ogre@@UAEXXZ:PROC	; Ogre::MemoryDataStream::close
;	COMDAT ??_R1A@?0A@EA@MemoryDataStream@Ogre@@8
rdata$r	SEGMENT
??_R1A@?0A@EA@MemoryDataStream@Ogre@@8 DD FLAT:??_R0?AVMemoryDataStream@Ogre@@@8 ; Ogre::MemoryDataStream::`RTTI Base Class Descriptor at (0,-1,0,64)'
	DD	01H
	DD	00H
	DD	0ffffffffH
	DD	00H
	DD	040H
	DD	FLAT:??_R3MemoryDataStream@Ogre@@8
rdata$r	ENDS
;	COMDAT ??_R2MemoryDataStream@Ogre@@8
rdata$r	SEGMENT
??_R2MemoryDataStream@Ogre@@8 DD FLAT:??_R1A@?0A@EA@MemoryDataStream@Ogre@@8 ; Ogre::MemoryDataStream::`RTTI Base Class Array'
	DD	FLAT:??_R1A@?0A@EA@DataStream@Ogre@@8
rdata$r	ENDS
;	COMDAT ??_R3MemoryDataStream@Ogre@@8
rdata$r	SEGMENT
??_R3MemoryDataStream@Ogre@@8 DD 00H			; Ogre::MemoryDataStream::`RTTI Class Hierarchy Descriptor'
	DD	00H
	DD	02H
	DD	FLAT:??_R2MemoryDataStream@Ogre@@8
rdata$r	ENDS
;	COMDAT ??_R0?AVMemoryDataStream@Ogre@@@8
_DATA	SEGMENT
??_R0?AVMemoryDataStream@Ogre@@@8 DD FLAT:??_7type_info@@6B@ ; Ogre::MemoryDataStream `RTTI Type Descriptor'
	DD	00H
	DB	'.?AVMemoryDataStream@Ogre@@', 00H
_DATA	ENDS
;	COMDAT ??_R4MemoryDataStream@Ogre@@6B@
rdata$r	SEGMENT
??_R4MemoryDataStream@Ogre@@6B@ DD 00H			; Ogre::MemoryDataStream::`RTTI Complete Object Locator'
	DD	00H
	DD	00H
	DD	FLAT:??_R0?AVMemoryDataStream@Ogre@@@8
	DD	FLAT:??_R3MemoryDataStream@Ogre@@8
rdata$r	ENDS
;	COMDAT ??_7MemoryDataStream@Ogre@@6B@
CONST	SEGMENT
??_7MemoryDataStream@Ogre@@6B@ DD FLAT:??_R4MemoryDataStream@Ogre@@6B@ ; Ogre::MemoryDataStream::`vftable'
	DD	FLAT:??_EMemoryDataStream@Ogre@@UAEPAXI@Z
	DD	FLAT:?read@MemoryDataStream@Ogre@@UAEIPAXI@Z
	DD	FLAT:?write@MemoryDataStream@Ogre@@UAEIPBXI@Z
	DD	FLAT:?readLine@MemoryDataStream@Ogre@@UAEIPADIABV?$basic_string@DU?$char_traits@D@std@@V?$allocator@D@2@@std@@@Z
	DD	FLAT:?getLine@DataStream@Ogre@@UAE?AV?$basic_string@DU?$char_traits@D@std@@V?$allocator@D@2@@std@@_N@Z
	DD	FLAT:?getAsString@DataStream@Ogre@@UAE?AV?$basic_string@DU?$char_traits@D@std@@V?$allocator@D@2@@std@@XZ
	DD	FLAT:?skipLine@MemoryDataStream@Ogre@@UAEIABV?$basic_string@DU?$char_traits@D@std@@V?$allocator@D@2@@std@@@Z
	DD	FLAT:?skip@MemoryDataStream@Ogre@@UAEXJ@Z
	DD	FLAT:?seek@MemoryDataStream@Ogre@@UAEXI@Z
	DD	FLAT:?tell@MemoryDataStream@Ogre@@UBEIXZ
	DD	FLAT:?eof@MemoryDataStream@Ogre@@UBE_NXZ
	DD	FLAT:?size@DataStream@Ogre@@UBEIXZ
	DD	FLAT:?close@MemoryDataStream@Ogre@@UAEXXZ
	DD	FLAT:?getMemoryImage@MemoryDataStream@Ogre@@UAEPAXXZ
CONST	ENDS
;	COMDAT xdata$x
xdata$x	SEGMENT
__unwindtable$??0MemoryDataStream@Ogre@@QAE@ABV01@@Z DD 0ffffffffH
	DD	FLAT:__unwindfunclet$??0MemoryDataStream@Ogre@@QAE@ABV01@@Z$0
__ehfuncinfo$??0MemoryDataStream@Ogre@@QAE@ABV01@@Z DD 019930522H
	DD	01H
	DD	FLAT:__unwindtable$??0MemoryDataStream@Ogre@@QAE@ABV01@@Z
	DD	2 DUP(00H)
	DD	2 DUP(00H)
	DD	00H
	DD	00H
; Function compile flags: /Odtp
xdata$x	ENDS
;	COMDAT ??0MemoryDataStream@Ogre@@QAE@ABV01@@Z
_TEXT	SEGMENT
_this$ = -16						; size = 4
__$EHRec$ = -12						; size = 12
___that$ = 8						; size = 4
??0MemoryDataStream@Ogre@@QAE@ABV01@@Z PROC		; Ogre::MemoryDataStream::MemoryDataStream, COMDAT
; _this$ = ecx
	push	ebp
	mov	ebp, esp
	push	-1
	push	__ehhandler$??0MemoryDataStream@Ogre@@QAE@ABV01@@Z
	mov	eax, DWORD PTR fs:0
	push	eax
	push	ecx
	mov	eax, DWORD PTR ___security_cookie
	xor	eax, ebp
	push	eax
	lea	eax, DWORD PTR __$EHRec$[ebp]
	mov	DWORD PTR fs:0, eax
	mov	DWORD PTR _this$[ebp], ecx
	mov	eax, DWORD PTR ___that$[ebp]
	push	eax
	mov	ecx, DWORD PTR _this$[ebp]
	call	??0DataStream@Ogre@@QAE@ABV01@@Z
	mov	DWORD PTR __$EHRec$[ebp+8], 0
	mov	ecx, DWORD PTR _this$[ebp]
	mov	DWORD PTR [ecx], OFFSET ??_7MemoryDataStream@Ogre@@6B@
	mov	edx, DWORD PTR _this$[ebp]
	mov	eax, DWORD PTR ___that$[ebp]
	mov	ecx, DWORD PTR [eax+36]
	mov	DWORD PTR [edx+36], ecx
	mov	edx, DWORD PTR _this$[ebp]
	mov	eax, DWORD PTR ___that$[ebp]
	mov	ecx, DWORD PTR [eax+40]
	mov	DWORD PTR [edx+40], ecx
	mov	edx, DWORD PTR _this$[ebp]
	mov	eax, DWORD PTR ___that$[ebp]
	mov	ecx, DWORD PTR [eax+44]
	mov	DWORD PTR [edx+44], ecx
	mov	edx, DWORD PTR _this$[ebp]
	mov	eax, DWORD PTR ___that$[ebp]
	mov	ecx, DWORD PTR [eax+48]
	mov	DWORD PTR [edx+48], ecx
	mov	DWORD PTR __$EHRec$[ebp+8], -1
	mov	eax, DWORD PTR _this$[ebp]
	mov	ecx, DWORD PTR __$EHRec$[ebp]
	mov	DWORD PTR fs:0, ecx
	pop	ecx
	mov	esp, ebp
	pop	ebp
	ret	4
_TEXT	ENDS
;	COMDAT text$x
text$x	SEGMENT
__unwindfunclet$??0MemoryDataStream@Ogre@@QAE@ABV01@@Z$0:
	mov	ecx, DWORD PTR _this$[ebp]
	jmp	??1DataStream@Ogre@@UAE@XZ		; Ogre::DataStream::~DataStream
__ehhandler$??0MemoryDataStream@Ogre@@QAE@ABV01@@Z:
	mov	edx, DWORD PTR [esp+8]
	lea	eax, DWORD PTR [edx+12]
	mov	ecx, DWORD PTR [edx-8]
	xor	ecx, eax
	call	@__security_check_cookie@4
	mov	eax, OFFSET __ehfuncinfo$??0MemoryDataStream@Ogre@@QAE@ABV01@@Z
	jmp	___CxxFrameHandler3
text$x	ENDS
??0MemoryDataStream@Ogre@@QAE@ABV01@@Z ENDP		; Ogre::MemoryDataStream::MemoryDataStream
PUBLIC	??4MemoryDataStream@Ogre@@QAEAAV01@ABV01@@Z	; Ogre::MemoryDataStream::operator=
; Function compile flags: /Odtp
;	COMDAT ??4MemoryDataStream@Ogre@@QAEAAV01@ABV01@@Z
_TEXT	SEGMENT
_this$ = -4						; size = 4
___that$ = 8						; size = 4
??4MemoryDataStream@Ogre@@QAEAAV01@ABV01@@Z PROC	; Ogre::MemoryDataStream::operator=, COMDAT
; _this$ = ecx
	push	ebp
	mov	ebp, esp
	push	ecx
	mov	DWORD PTR _this$[ebp], ecx
	mov	eax, DWORD PTR ___that$[ebp]
	push	eax
	mov	ecx, DWORD PTR _this$[ebp]
	call	??4DataStream@Ogre@@QAEAAV01@ABV01@@Z
	mov	ecx, DWORD PTR _this$[ebp]
	mov	edx, DWORD PTR ___that$[ebp]
	mov	eax, DWORD PTR [edx+36]
	mov	DWORD PTR [ecx+36], eax
	mov	ecx, DWORD PTR _this$[ebp]
	mov	edx, DWORD PTR ___that$[ebp]
	mov	eax, DWORD PTR [edx+40]
	mov	DWORD PTR [ecx+40], eax
	mov	ecx, DWORD PTR _this$[ebp]
	mov	edx, DWORD PTR ___that$[ebp]
	mov	eax, DWORD PTR [edx+44]
	mov	DWORD PTR [ecx+44], eax
	mov	ecx, DWORD PTR _this$[ebp]
	mov	edx, DWORD PTR ___that$[ebp]
	mov	eax, DWORD PTR [edx+48]
	mov	DWORD PTR [ecx+48], eax
	mov	eax, DWORD PTR _this$[ebp]
	mov	esp, ebp
	pop	ebp
	ret	4
??4MemoryDataStream@Ogre@@QAEAAV01@ABV01@@Z ENDP	; Ogre::MemoryDataStream::operator=
_TEXT	ENDS
PUBLIC	??_GMemoryDataStream@Ogre@@UAEPAXI@Z		; Ogre::MemoryDataStream::`scalar deleting destructor'
EXTRN	??1MemoryDataStream@Ogre@@UAE@XZ:PROC		; Ogre::MemoryDataStream::~MemoryDataStream
; Function compile flags: /Odtp
;	COMDAT ??_GMemoryDataStream@Ogre@@UAEPAXI@Z
_TEXT	SEGMENT
_this$ = -4						; size = 4
___flags$ = 8						; size = 4
??_GMemoryDataStream@Ogre@@UAEPAXI@Z PROC		; Ogre::MemoryDataStream::`scalar deleting destructor', COMDAT
; _this$ = ecx
	push	ebp
	mov	ebp, esp
	push	ecx
	mov	DWORD PTR _this$[ebp], ecx
	mov	ecx, DWORD PTR _this$[ebp]
	call	??1MemoryDataStream@Ogre@@UAE@XZ	; Ogre::MemoryDataStream::~MemoryDataStream
	mov	eax, DWORD PTR ___flags$[ebp]
	and	eax, 1
	je	SHORT $LN1@scalar@4
	mov	ecx, DWORD PTR _this$[ebp]
	push	ecx
	call	??3@YAXPAX@Z				; operator delete
	add	esp, 4
$LN1@scalar@4:
	mov	eax, DWORD PTR _this$[ebp]
	mov	esp, ebp
	pop	ebp
	ret	4
??_GMemoryDataStream@Ogre@@UAEPAXI@Z ENDP		; Ogre::MemoryDataStream::`scalar deleting destructor'
; Function compile flags: /Odtp
_TEXT	ENDS
;	COMDAT ??_EMemoryDataStream@Ogre@@UAEPAXI@Z
_TEXT	SEGMENT
_this$ = -4						; size = 4
___flags$ = 8						; size = 4
??_EMemoryDataStream@Ogre@@UAEPAXI@Z PROC		; Ogre::MemoryDataStream::`vector deleting destructor', COMDAT
; _this$ = ecx
	push	ebp
	mov	ebp, esp
	push	ecx
	mov	DWORD PTR _this$[ebp], ecx
	mov	eax, DWORD PTR ___flags$[ebp]
	and	eax, 2
	je	SHORT $LN3@vector@4
	push	OFFSET ??1MemoryDataStream@Ogre@@UAE@XZ	; Ogre::MemoryDataStream::~MemoryDataStream
	mov	ecx, DWORD PTR _this$[ebp]
	mov	edx, DWORD PTR [ecx-4]
	push	edx
	push	52					; 00000034H
	mov	eax, DWORD PTR _this$[ebp]
	push	eax
	call	??_M@YGXPAXIHP6EX0@Z@Z
	mov	ecx, DWORD PTR ___flags$[ebp]
	and	ecx, 1
	je	SHORT $LN2@vector@4
	mov	edx, DWORD PTR _this$[ebp]
	sub	edx, 4
	push	edx
	call	??_V@YAXPAX@Z				; operator delete[]
	add	esp, 4
$LN2@vector@4:
	mov	eax, DWORD PTR _this$[ebp]
	sub	eax, 4
	jmp	SHORT $LN4@vector@4
$LN3@vector@4:
	mov	ecx, DWORD PTR _this$[ebp]
	call	??1MemoryDataStream@Ogre@@UAE@XZ	; Ogre::MemoryDataStream::~MemoryDataStream
	mov	eax, DWORD PTR ___flags$[ebp]
	and	eax, 1
	je	SHORT $LN1@vector@4
	mov	ecx, DWORD PTR _this$[ebp]
	push	ecx
	call	??3@YAXPAX@Z				; operator delete
	add	esp, 4
$LN1@vector@4:
	mov	eax, DWORD PTR _this$[ebp]
$LN4@vector@4:
	mov	esp, ebp
	pop	ebp
	ret	4
??_EMemoryDataStream@Ogre@@UAEPAXI@Z ENDP		; Ogre::MemoryDataStream::`vector deleting destructor'
_TEXT	ENDS
PUBLIC	??_7FileStreamDataStream@Ogre@@6B@		; Ogre::FileStreamDataStream::`vftable'
PUBLIC	??0FileStreamDataStream@Ogre@@QAE@ABV01@@Z	; Ogre::FileStreamDataStream::FileStreamDataStream
PUBLIC	??_R4FileStreamDataStream@Ogre@@6B@		; Ogre::FileStreamDataStream::`RTTI Complete Object Locator'
PUBLIC	??_R0?AVFileStreamDataStream@Ogre@@@8		; Ogre::FileStreamDataStream `RTTI Type Descriptor'
PUBLIC	??_R3FileStreamDataStream@Ogre@@8		; Ogre::FileStreamDataStream::`RTTI Class Hierarchy Descriptor'
PUBLIC	??_R2FileStreamDataStream@Ogre@@8		; Ogre::FileStreamDataStream::`RTTI Base Class Array'
PUBLIC	??_R1A@?0A@EA@FileStreamDataStream@Ogre@@8	; Ogre::FileStreamDataStream::`RTTI Base Class Descriptor at (0,-1,0,64)'
PUBLIC	??_EFileStreamDataStream@Ogre@@UAEPAXI@Z	; Ogre::FileStreamDataStream::`vector deleting destructor'
EXTRN	?read@FileStreamDataStream@Ogre@@UAEIPAXI@Z:PROC ; Ogre::FileStreamDataStream::read
EXTRN	?write@FileStreamDataStream@Ogre@@UAEIPBXI@Z:PROC ; Ogre::FileStreamDataStream::write
EXTRN	?readLine@FileStreamDataStream@Ogre@@UAEIPADIABV?$basic_string@DU?$char_traits@D@std@@V?$allocator@D@2@@std@@@Z:PROC ; Ogre::FileStreamDataStream::readLine
EXTRN	?skip@FileStreamDataStream@Ogre@@UAEXJ@Z:PROC	; Ogre::FileStreamDataStream::skip
EXTRN	?seek@FileStreamDataStream@Ogre@@UAEXI@Z:PROC	; Ogre::FileStreamDataStream::seek
EXTRN	?tell@FileStreamDataStream@Ogre@@UBEIXZ:PROC	; Ogre::FileStreamDataStream::tell
EXTRN	?eof@FileStreamDataStream@Ogre@@UBE_NXZ:PROC	; Ogre::FileStreamDataStream::eof
EXTRN	?close@FileStreamDataStream@Ogre@@UAEXXZ:PROC	; Ogre::FileStreamDataStream::close
EXTRN	?getMemoryImage@FileStreamDataStream@Ogre@@UAEPAXXZ:PROC ; Ogre::FileStreamDataStream::getMemoryImage
;	COMDAT ??_R1A@?0A@EA@FileStreamDataStream@Ogre@@8
rdata$r	SEGMENT
??_R1A@?0A@EA@FileStreamDataStream@Ogre@@8 DD FLAT:??_R0?AVFileStreamDataStream@Ogre@@@8 ; Ogre::FileStreamDataStream::`RTTI Base Class Descriptor at (0,-1,0,64)'
	DD	01H
	DD	00H
	DD	0ffffffffH
	DD	00H
	DD	040H
	DD	FLAT:??_R3FileStreamDataStream@Ogre@@8
rdata$r	ENDS
;	COMDAT ??_R2FileStreamDataStream@Ogre@@8
rdata$r	SEGMENT
??_R2FileStreamDataStream@Ogre@@8 DD FLAT:??_R1A@?0A@EA@FileStreamDataStream@Ogre@@8 ; Ogre::FileStreamDataStream::`RTTI Base Class Array'
	DD	FLAT:??_R1A@?0A@EA@DataStream@Ogre@@8
rdata$r	ENDS
;	COMDAT ??_R3FileStreamDataStream@Ogre@@8
rdata$r	SEGMENT
??_R3FileStreamDataStream@Ogre@@8 DD 00H		; Ogre::FileStreamDataStream::`RTTI Class Hierarchy Descriptor'
	DD	00H
	DD	02H
	DD	FLAT:??_R2FileStreamDataStream@Ogre@@8
rdata$r	ENDS
;	COMDAT ??_R0?AVFileStreamDataStream@Ogre@@@8
_DATA	SEGMENT
??_R0?AVFileStreamDataStream@Ogre@@@8 DD FLAT:??_7type_info@@6B@ ; Ogre::FileStreamDataStream `RTTI Type Descriptor'
	DD	00H
	DB	'.?AVFileStreamDataStream@Ogre@@', 00H
_DATA	ENDS
;	COMDAT ??_R4FileStreamDataStream@Ogre@@6B@
rdata$r	SEGMENT
??_R4FileStreamDataStream@Ogre@@6B@ DD 00H		; Ogre::FileStreamDataStream::`RTTI Complete Object Locator'
	DD	00H
	DD	00H
	DD	FLAT:??_R0?AVFileStreamDataStream@Ogre@@@8
	DD	FLAT:??_R3FileStreamDataStream@Ogre@@8
rdata$r	ENDS
;	COMDAT ??_7FileStreamDataStream@Ogre@@6B@
CONST	SEGMENT
??_7FileStreamDataStream@Ogre@@6B@ DD FLAT:??_R4FileStreamDataStream@Ogre@@6B@ ; Ogre::FileStreamDataStream::`vftable'
	DD	FLAT:??_EFileStreamDataStream@Ogre@@UAEPAXI@Z
	DD	FLAT:?read@FileStreamDataStream@Ogre@@UAEIPAXI@Z
	DD	FLAT:?write@FileStreamDataStream@Ogre@@UAEIPBXI@Z
	DD	FLAT:?readLine@FileStreamDataStream@Ogre@@UAEIPADIABV?$basic_string@DU?$char_traits@D@std@@V?$allocator@D@2@@std@@@Z
	DD	FLAT:?getLine@DataStream@Ogre@@UAE?AV?$basic_string@DU?$char_traits@D@std@@V?$allocator@D@2@@std@@_N@Z
	DD	FLAT:?getAsString@DataStream@Ogre@@UAE?AV?$basic_string@DU?$char_traits@D@std@@V?$allocator@D@2@@std@@XZ
	DD	FLAT:?skipLine@DataStream@Ogre@@UAEIABV?$basic_string@DU?$char_traits@D@std@@V?$allocator@D@2@@std@@@Z
	DD	FLAT:?skip@FileStreamDataStream@Ogre@@UAEXJ@Z
	DD	FLAT:?seek@FileStreamDataStream@Ogre@@UAEXI@Z
	DD	FLAT:?tell@FileStreamDataStream@Ogre@@UBEIXZ
	DD	FLAT:?eof@FileStreamDataStream@Ogre@@UBE_NXZ
	DD	FLAT:?size@DataStream@Ogre@@UBEIXZ
	DD	FLAT:?close@FileStreamDataStream@Ogre@@UAEXXZ
	DD	FLAT:?getMemoryImage@FileStreamDataStream@Ogre@@UAEPAXXZ
CONST	ENDS
;	COMDAT xdata$x
xdata$x	SEGMENT
__unwindtable$??0FileStreamDataStream@Ogre@@QAE@ABV01@@Z DD 0ffffffffH
	DD	FLAT:__unwindfunclet$??0FileStreamDataStream@Ogre@@QAE@ABV01@@Z$0
__ehfuncinfo$??0FileStreamDataStream@Ogre@@QAE@ABV01@@Z DD 019930522H
	DD	01H
	DD	FLAT:__unwindtable$??0FileStreamDataStream@Ogre@@QAE@ABV01@@Z
	DD	2 DUP(00H)
	DD	2 DUP(00H)
	DD	00H
	DD	00H
; Function compile flags: /Odtp
xdata$x	ENDS
;	COMDAT ??0FileStreamDataStream@Ogre@@QAE@ABV01@@Z
_TEXT	SEGMENT
_this$ = -16						; size = 4
__$EHRec$ = -12						; size = 12
___that$ = 8						; size = 4
??0FileStreamDataStream@Ogre@@QAE@ABV01@@Z PROC		; Ogre::FileStreamDataStream::FileStreamDataStream, COMDAT
; _this$ = ecx
	push	ebp
	mov	ebp, esp
	push	-1
	push	__ehhandler$??0FileStreamDataStream@Ogre@@QAE@ABV01@@Z
	mov	eax, DWORD PTR fs:0
	push	eax
	push	ecx
	mov	eax, DWORD PTR ___security_cookie
	xor	eax, ebp
	push	eax
	lea	eax, DWORD PTR __$EHRec$[ebp]
	mov	DWORD PTR fs:0, eax
	mov	DWORD PTR _this$[ebp], ecx
	mov	eax, DWORD PTR ___that$[ebp]
	push	eax
	mov	ecx, DWORD PTR _this$[ebp]
	call	??0DataStream@Ogre@@QAE@ABV01@@Z
	mov	DWORD PTR __$EHRec$[ebp+8], 0
	mov	ecx, DWORD PTR _this$[ebp]
	mov	DWORD PTR [ecx], OFFSET ??_7FileStreamDataStream@Ogre@@6B@
	mov	edx, DWORD PTR _this$[ebp]
	mov	eax, DWORD PTR ___that$[ebp]
	mov	ecx, DWORD PTR [eax+36]
	mov	DWORD PTR [edx+36], ecx
	mov	edx, DWORD PTR _this$[ebp]
	mov	eax, DWORD PTR ___that$[ebp]
	mov	cl, BYTE PTR [eax+40]
	mov	BYTE PTR [edx+40], cl
	mov	DWORD PTR __$EHRec$[ebp+8], -1
	mov	eax, DWORD PTR _this$[ebp]
	mov	ecx, DWORD PTR __$EHRec$[ebp]
	mov	DWORD PTR fs:0, ecx
	pop	ecx
	mov	esp, ebp
	pop	ebp
	ret	4
_TEXT	ENDS
;	COMDAT text$x
text$x	SEGMENT
__unwindfunclet$??0FileStreamDataStream@Ogre@@QAE@ABV01@@Z$0:
	mov	ecx, DWORD PTR _this$[ebp]
	jmp	??1DataStream@Ogre@@UAE@XZ		; Ogre::DataStream::~DataStream
__ehhandler$??0FileStreamDataStream@Ogre@@QAE@ABV01@@Z:
	mov	edx, DWORD PTR [esp+8]
	lea	eax, DWORD PTR [edx+12]
	mov	ecx, DWORD PTR [edx-8]
	xor	ecx, eax
	call	@__security_check_cookie@4
	mov	eax, OFFSET __ehfuncinfo$??0FileStreamDataStream@Ogre@@QAE@ABV01@@Z
	jmp	___CxxFrameHandler3
text$x	ENDS
??0FileStreamDataStream@Ogre@@QAE@ABV01@@Z ENDP		; Ogre::FileStreamDataStream::FileStreamDataStream
PUBLIC	??4FileStreamDataStream@Ogre@@QAEAAV01@ABV01@@Z	; Ogre::FileStreamDataStream::operator=
; Function compile flags: /Odtp
;	COMDAT ??4FileStreamDataStream@Ogre@@QAEAAV01@ABV01@@Z
_TEXT	SEGMENT
_this$ = -4						; size = 4
___that$ = 8						; size = 4
??4FileStreamDataStream@Ogre@@QAEAAV01@ABV01@@Z PROC	; Ogre::FileStreamDataStream::operator=, COMDAT
; _this$ = ecx
	push	ebp
	mov	ebp, esp
	push	ecx
	mov	DWORD PTR _this$[ebp], ecx
	mov	eax, DWORD PTR ___that$[ebp]
	push	eax
	mov	ecx, DWORD PTR _this$[ebp]
	call	??4DataStream@Ogre@@QAEAAV01@ABV01@@Z
	mov	ecx, DWORD PTR _this$[ebp]
	mov	edx, DWORD PTR ___that$[ebp]
	mov	eax, DWORD PTR [edx+36]
	mov	DWORD PTR [ecx+36], eax
	mov	ecx, DWORD PTR _this$[ebp]
	mov	edx, DWORD PTR ___that$[ebp]
	mov	al, BYTE PTR [edx+40]
	mov	BYTE PTR [ecx+40], al
	mov	eax, DWORD PTR _this$[ebp]
	mov	esp, ebp
	pop	ebp
	ret	4
??4FileStreamDataStream@Ogre@@QAEAAV01@ABV01@@Z ENDP	; Ogre::FileStreamDataStream::operator=
_TEXT	ENDS
PUBLIC	??_GFileStreamDataStream@Ogre@@UAEPAXI@Z	; Ogre::FileStreamDataStream::`scalar deleting destructor'
EXTRN	??1FileStreamDataStream@Ogre@@UAE@XZ:PROC	; Ogre::FileStreamDataStream::~FileStreamDataStream
; Function compile flags: /Odtp
;	COMDAT ??_GFileStreamDataStream@Ogre@@UAEPAXI@Z
_TEXT	SEGMENT
_this$ = -4						; size = 4
___flags$ = 8						; size = 4
??_GFileStreamDataStream@Ogre@@UAEPAXI@Z PROC		; Ogre::FileStreamDataStream::`scalar deleting destructor', COMDAT
; _this$ = ecx
	push	ebp
	mov	ebp, esp
	push	ecx
	mov	DWORD PTR _this$[ebp], ecx
	mov	ecx, DWORD PTR _this$[ebp]
	call	??1FileStreamDataStream@Ogre@@UAE@XZ	; Ogre::FileStreamDataStream::~FileStreamDataStream
	mov	eax, DWORD PTR ___flags$[ebp]
	and	eax, 1
	je	SHORT $LN1@scalar@5
	mov	ecx, DWORD PTR _this$[ebp]
	push	ecx
	call	??3@YAXPAX@Z				; operator delete
	add	esp, 4
$LN1@scalar@5:
	mov	eax, DWORD PTR _this$[ebp]
	mov	esp, ebp
	pop	ebp
	ret	4
??_GFileStreamDataStream@Ogre@@UAEPAXI@Z ENDP		; Ogre::FileStreamDataStream::`scalar deleting destructor'
; Function compile flags: /Odtp
_TEXT	ENDS
;	COMDAT ??_EFileStreamDataStream@Ogre@@UAEPAXI@Z
_TEXT	SEGMENT
_this$ = -4						; size = 4
___flags$ = 8						; size = 4
??_EFileStreamDataStream@Ogre@@UAEPAXI@Z PROC		; Ogre::FileStreamDataStream::`vector deleting destructor', COMDAT
; _this$ = ecx
	push	ebp
	mov	ebp, esp
	push	ecx
	mov	DWORD PTR _this$[ebp], ecx
	mov	eax, DWORD PTR ___flags$[ebp]
	and	eax, 2
	je	SHORT $LN3@vector@5
	push	OFFSET ??1FileStreamDataStream@Ogre@@UAE@XZ ; Ogre::FileStreamDataStream::~FileStreamDataStream
	mov	ecx, DWORD PTR _this$[ebp]
	mov	edx, DWORD PTR [ecx-4]
	push	edx
	push	44					; 0000002cH
	mov	eax, DWORD PTR _this$[ebp]
	push	eax
	call	??_M@YGXPAXIHP6EX0@Z@Z
	mov	ecx, DWORD PTR ___flags$[ebp]
	and	ecx, 1
	je	SHORT $LN2@vector@5
	mov	edx, DWORD PTR _this$[ebp]
	sub	edx, 4
	push	edx
	call	??_V@YAXPAX@Z				; operator delete[]
	add	esp, 4
$LN2@vector@5:
	mov	eax, DWORD PTR _this$[ebp]
	sub	eax, 4
	jmp	SHORT $LN4@vector@5
$LN3@vector@5:
	mov	ecx, DWORD PTR _this$[ebp]
	call	??1FileStreamDataStream@Ogre@@UAE@XZ	; Ogre::FileStreamDataStream::~FileStreamDataStream
	mov	eax, DWORD PTR ___flags$[ebp]
	and	eax, 1
	je	SHORT $LN1@vector@5
	mov	ecx, DWORD PTR _this$[ebp]
	push	ecx
	call	??3@YAXPAX@Z				; operator delete
	add	esp, 4
$LN1@vector@5:
	mov	eax, DWORD PTR _this$[ebp]
$LN4@vector@5:
	mov	esp, ebp
	pop	ebp
	ret	4
??_EFileStreamDataStream@Ogre@@UAEPAXI@Z ENDP		; Ogre::FileStreamDataStream::`vector deleting destructor'
_TEXT	ENDS
PUBLIC	??_7FileHandleDataStream@Ogre@@6B@		; Ogre::FileHandleDataStream::`vftable'
PUBLIC	??0FileHandleDataStream@Ogre@@QAE@ABV01@@Z	; Ogre::FileHandleDataStream::FileHandleDataStream
PUBLIC	??_R4FileHandleDataStream@Ogre@@6B@		; Ogre::FileHandleDataStream::`RTTI Complete Object Locator'
PUBLIC	??_R0?AVFileHandleDataStream@Ogre@@@8		; Ogre::FileHandleDataStream `RTTI Type Descriptor'
PUBLIC	??_R3FileHandleDataStream@Ogre@@8		; Ogre::FileHandleDataStream::`RTTI Class Hierarchy Descriptor'
PUBLIC	??_R2FileHandleDataStream@Ogre@@8		; Ogre::FileHandleDataStream::`RTTI Base Class Array'
PUBLIC	??_R1A@?0A@EA@FileHandleDataStream@Ogre@@8	; Ogre::FileHandleDataStream::`RTTI Base Class Descriptor at (0,-1,0,64)'
PUBLIC	??_EFileHandleDataStream@Ogre@@UAEPAXI@Z	; Ogre::FileHandleDataStream::`vector deleting destructor'
EXTRN	?read@FileHandleDataStream@Ogre@@UAEIPAXI@Z:PROC ; Ogre::FileHandleDataStream::read
EXTRN	?write@FileHandleDataStream@Ogre@@UAEIPBXI@Z:PROC ; Ogre::FileHandleDataStream::write
EXTRN	?skip@FileHandleDataStream@Ogre@@UAEXJ@Z:PROC	; Ogre::FileHandleDataStream::skip
EXTRN	?seek@FileHandleDataStream@Ogre@@UAEXI@Z:PROC	; Ogre::FileHandleDataStream::seek
EXTRN	?tell@FileHandleDataStream@Ogre@@UBEIXZ:PROC	; Ogre::FileHandleDataStream::tell
EXTRN	?eof@FileHandleDataStream@Ogre@@UBE_NXZ:PROC	; Ogre::FileHandleDataStream::eof
EXTRN	?close@FileHandleDataStream@Ogre@@UAEXXZ:PROC	; Ogre::FileHandleDataStream::close
EXTRN	?getMemoryImage@FileHandleDataStream@Ogre@@UAEPAXXZ:PROC ; Ogre::FileHandleDataStream::getMemoryImage
;	COMDAT ??_R1A@?0A@EA@FileHandleDataStream@Ogre@@8
rdata$r	SEGMENT
??_R1A@?0A@EA@FileHandleDataStream@Ogre@@8 DD FLAT:??_R0?AVFileHandleDataStream@Ogre@@@8 ; Ogre::FileHandleDataStream::`RTTI Base Class Descriptor at (0,-1,0,64)'
	DD	01H
	DD	00H
	DD	0ffffffffH
	DD	00H
	DD	040H
	DD	FLAT:??_R3FileHandleDataStream@Ogre@@8
rdata$r	ENDS
;	COMDAT ??_R2FileHandleDataStream@Ogre@@8
rdata$r	SEGMENT
??_R2FileHandleDataStream@Ogre@@8 DD FLAT:??_R1A@?0A@EA@FileHandleDataStream@Ogre@@8 ; Ogre::FileHandleDataStream::`RTTI Base Class Array'
	DD	FLAT:??_R1A@?0A@EA@DataStream@Ogre@@8
rdata$r	ENDS
;	COMDAT ??_R3FileHandleDataStream@Ogre@@8
rdata$r	SEGMENT
??_R3FileHandleDataStream@Ogre@@8 DD 00H		; Ogre::FileHandleDataStream::`RTTI Class Hierarchy Descriptor'
	DD	00H
	DD	02H
	DD	FLAT:??_R2FileHandleDataStream@Ogre@@8
rdata$r	ENDS
;	COMDAT ??_R0?AVFileHandleDataStream@Ogre@@@8
_DATA	SEGMENT
??_R0?AVFileHandleDataStream@Ogre@@@8 DD FLAT:??_7type_info@@6B@ ; Ogre::FileHandleDataStream `RTTI Type Descriptor'
	DD	00H
	DB	'.?AVFileHandleDataStream@Ogre@@', 00H
_DATA	ENDS
;	COMDAT ??_R4FileHandleDataStream@Ogre@@6B@
rdata$r	SEGMENT
??_R4FileHandleDataStream@Ogre@@6B@ DD 00H		; Ogre::FileHandleDataStream::`RTTI Complete Object Locator'
	DD	00H
	DD	00H
	DD	FLAT:??_R0?AVFileHandleDataStream@Ogre@@@8
	DD	FLAT:??_R3FileHandleDataStream@Ogre@@8
rdata$r	ENDS
;	COMDAT ??_7FileHandleDataStream@Ogre@@6B@
CONST	SEGMENT
??_7FileHandleDataStream@Ogre@@6B@ DD FLAT:??_R4FileHandleDataStream@Ogre@@6B@ ; Ogre::FileHandleDataStream::`vftable'
	DD	FLAT:??_EFileHandleDataStream@Ogre@@UAEPAXI@Z
	DD	FLAT:?read@FileHandleDataStream@Ogre@@UAEIPAXI@Z
	DD	FLAT:?write@FileHandleDataStream@Ogre@@UAEIPBXI@Z
	DD	FLAT:?readLine@DataStream@Ogre@@UAEIPADIABV?$basic_string@DU?$char_traits@D@std@@V?$allocator@D@2@@std@@@Z
	DD	FLAT:?getLine@DataStream@Ogre@@UAE?AV?$basic_string@DU?$char_traits@D@std@@V?$allocator@D@2@@std@@_N@Z
	DD	FLAT:?getAsString@DataStream@Ogre@@UAE?AV?$basic_string@DU?$char_traits@D@std@@V?$allocator@D@2@@std@@XZ
	DD	FLAT:?skipLine@DataStream@Ogre@@UAEIABV?$basic_string@DU?$char_traits@D@std@@V?$allocator@D@2@@std@@@Z
	DD	FLAT:?skip@FileHandleDataStream@Ogre@@UAEXJ@Z
	DD	FLAT:?seek@FileHandleDataStream@Ogre@@UAEXI@Z
	DD	FLAT:?tell@FileHandleDataStream@Ogre@@UBEIXZ
	DD	FLAT:?eof@FileHandleDataStream@Ogre@@UBE_NXZ
	DD	FLAT:?size@DataStream@Ogre@@UBEIXZ
	DD	FLAT:?close@FileHandleDataStream@Ogre@@UAEXXZ
	DD	FLAT:?getMemoryImage@FileHandleDataStream@Ogre@@UAEPAXXZ
CONST	ENDS
;	COMDAT xdata$x
xdata$x	SEGMENT
__unwindtable$??0FileHandleDataStream@Ogre@@QAE@ABV01@@Z DD 0ffffffffH
	DD	FLAT:__unwindfunclet$??0FileHandleDataStream@Ogre@@QAE@ABV01@@Z$0
__ehfuncinfo$??0FileHandleDataStream@Ogre@@QAE@ABV01@@Z DD 019930522H
	DD	01H
	DD	FLAT:__unwindtable$??0FileHandleDataStream@Ogre@@QAE@ABV01@@Z
	DD	2 DUP(00H)
	DD	2 DUP(00H)
	DD	00H
	DD	00H
; Function compile flags: /Odtp
xdata$x	ENDS
;	COMDAT ??0FileHandleDataStream@Ogre@@QAE@ABV01@@Z
_TEXT	SEGMENT
_this$ = -16						; size = 4
__$EHRec$ = -12						; size = 12
___that$ = 8						; size = 4
??0FileHandleDataStream@Ogre@@QAE@ABV01@@Z PROC		; Ogre::FileHandleDataStream::FileHandleDataStream, COMDAT
; _this$ = ecx
	push	ebp
	mov	ebp, esp
	push	-1
	push	__ehhandler$??0FileHandleDataStream@Ogre@@QAE@ABV01@@Z
	mov	eax, DWORD PTR fs:0
	push	eax
	push	ecx
	mov	eax, DWORD PTR ___security_cookie
	xor	eax, ebp
	push	eax
	lea	eax, DWORD PTR __$EHRec$[ebp]
	mov	DWORD PTR fs:0, eax
	mov	DWORD PTR _this$[ebp], ecx
	mov	eax, DWORD PTR ___that$[ebp]
	push	eax
	mov	ecx, DWORD PTR _this$[ebp]
	call	??0DataStream@Ogre@@QAE@ABV01@@Z
	mov	DWORD PTR __$EHRec$[ebp+8], 0
	mov	ecx, DWORD PTR _this$[ebp]
	mov	DWORD PTR [ecx], OFFSET ??_7FileHandleDataStream@Ogre@@6B@
	mov	edx, DWORD PTR _this$[ebp]
	mov	eax, DWORD PTR ___that$[ebp]
	mov	ecx, DWORD PTR [eax+36]
	mov	DWORD PTR [edx+36], ecx
	mov	edx, DWORD PTR _this$[ebp]
	mov	eax, DWORD PTR ___that$[ebp]
	mov	ecx, DWORD PTR [eax+40]
	mov	DWORD PTR [edx+40], ecx
	mov	DWORD PTR __$EHRec$[ebp+8], -1
	mov	eax, DWORD PTR _this$[ebp]
	mov	ecx, DWORD PTR __$EHRec$[ebp]
	mov	DWORD PTR fs:0, ecx
	pop	ecx
	mov	esp, ebp
	pop	ebp
	ret	4
_TEXT	ENDS
;	COMDAT text$x
text$x	SEGMENT
__unwindfunclet$??0FileHandleDataStream@Ogre@@QAE@ABV01@@Z$0:
	mov	ecx, DWORD PTR _this$[ebp]
	jmp	??1DataStream@Ogre@@UAE@XZ		; Ogre::DataStream::~DataStream
__ehhandler$??0FileHandleDataStream@Ogre@@QAE@ABV01@@Z:
	mov	edx, DWORD PTR [esp+8]
	lea	eax, DWORD PTR [edx+12]
	mov	ecx, DWORD PTR [edx-8]
	xor	ecx, eax
	call	@__security_check_cookie@4
	mov	eax, OFFSET __ehfuncinfo$??0FileHandleDataStream@Ogre@@QAE@ABV01@@Z
	jmp	___CxxFrameHandler3
text$x	ENDS
??0FileHandleDataStream@Ogre@@QAE@ABV01@@Z ENDP		; Ogre::FileHandleDataStream::FileHandleDataStream
PUBLIC	??4FileHandleDataStream@Ogre@@QAEAAV01@ABV01@@Z	; Ogre::FileHandleDataStream::operator=
; Function compile flags: /Odtp
;	COMDAT ??4FileHandleDataStream@Ogre@@QAEAAV01@ABV01@@Z
_TEXT	SEGMENT
_this$ = -4						; size = 4
___that$ = 8						; size = 4
??4FileHandleDataStream@Ogre@@QAEAAV01@ABV01@@Z PROC	; Ogre::FileHandleDataStream::operator=, COMDAT
; _this$ = ecx
	push	ebp
	mov	ebp, esp
	push	ecx
	mov	DWORD PTR _this$[ebp], ecx
	mov	eax, DWORD PTR ___that$[ebp]
	push	eax
	mov	ecx, DWORD PTR _this$[ebp]
	call	??4DataStream@Ogre@@QAEAAV01@ABV01@@Z
	mov	ecx, DWORD PTR _this$[ebp]
	mov	edx, DWORD PTR ___that$[ebp]
	mov	eax, DWORD PTR [edx+36]
	mov	DWORD PTR [ecx+36], eax
	mov	ecx, DWORD PTR _this$[ebp]
	mov	edx, DWORD PTR ___that$[ebp]
	mov	eax, DWORD PTR [edx+40]
	mov	DWORD PTR [ecx+40], eax
	mov	eax, DWORD PTR _this$[ebp]
	mov	esp, ebp
	pop	ebp
	ret	4
??4FileHandleDataStream@Ogre@@QAEAAV01@ABV01@@Z ENDP	; Ogre::FileHandleDataStream::operator=
_TEXT	ENDS
PUBLIC	??_GFileHandleDataStream@Ogre@@UAEPAXI@Z	; Ogre::FileHandleDataStream::`scalar deleting destructor'
EXTRN	??1FileHandleDataStream@Ogre@@UAE@XZ:PROC	; Ogre::FileHandleDataStream::~FileHandleDataStream
; Function compile flags: /Odtp
;	COMDAT ??_GFileHandleDataStream@Ogre@@UAEPAXI@Z
_TEXT	SEGMENT
_this$ = -4						; size = 4
___flags$ = 8						; size = 4
??_GFileHandleDataStream@Ogre@@UAEPAXI@Z PROC		; Ogre::FileHandleDataStream::`scalar deleting destructor', COMDAT
; _this$ = ecx
	push	ebp
	mov	ebp, esp
	push	ecx
	mov	DWORD PTR _this$[ebp], ecx
	mov	ecx, DWORD PTR _this$[ebp]
	call	??1FileHandleDataStream@Ogre@@UAE@XZ	; Ogre::FileHandleDataStream::~FileHandleDataStream
	mov	eax, DWORD PTR ___flags$[ebp]
	and	eax, 1
	je	SHORT $LN1@scalar@6
	mov	ecx, DWORD PTR _this$[ebp]
	push	ecx
	call	??3@YAXPAX@Z				; operator delete
	add	esp, 4
$LN1@scalar@6:
	mov	eax, DWORD PTR _this$[ebp]
	mov	esp, ebp
	pop	ebp
	ret	4
??_GFileHandleDataStream@Ogre@@UAEPAXI@Z ENDP		; Ogre::FileHandleDataStream::`scalar deleting destructor'
; Function compile flags: /Odtp
_TEXT	ENDS
;	COMDAT ??_EFileHandleDataStream@Ogre@@UAEPAXI@Z
_TEXT	SEGMENT
_this$ = -4						; size = 4
___flags$ = 8						; size = 4
??_EFileHandleDataStream@Ogre@@UAEPAXI@Z PROC		; Ogre::FileHandleDataStream::`vector deleting destructor', COMDAT
; _this$ = ecx
	push	ebp
	mov	ebp, esp
	push	ecx
	mov	DWORD PTR _this$[ebp], ecx
	mov	eax, DWORD PTR ___flags$[ebp]
	and	eax, 2
	je	SHORT $LN3@vector@6
	push	OFFSET ??1FileHandleDataStream@Ogre@@UAE@XZ ; Ogre::FileHandleDataStream::~FileHandleDataStream
	mov	ecx, DWORD PTR _this$[ebp]
	mov	edx, DWORD PTR [ecx-4]
	push	edx
	push	44					; 0000002cH
	mov	eax, DWORD PTR _this$[ebp]
	push	eax
	call	??_M@YGXPAXIHP6EX0@Z@Z
	mov	ecx, DWORD PTR ___flags$[ebp]
	and	ecx, 1
	je	SHORT $LN2@vector@6
	mov	edx, DWORD PTR _this$[ebp]
	sub	edx, 4
	push	edx
	call	??_V@YAXPAX@Z				; operator delete[]
	add	esp, 4
$LN2@vector@6:
	mov	eax, DWORD PTR _this$[ebp]
	sub	eax, 4
	jmp	SHORT $LN4@vector@6
$LN3@vector@6:
	mov	ecx, DWORD PTR _this$[ebp]
	call	??1FileHandleDataStream@Ogre@@UAE@XZ	; Ogre::FileHandleDataStream::~FileHandleDataStream
	mov	eax, DWORD PTR ___flags$[ebp]
	and	eax, 1
	je	SHORT $LN1@vector@6
	mov	ecx, DWORD PTR _this$[ebp]
	push	ecx
	call	??3@YAXPAX@Z				; operator delete
	add	esp, 4
$LN1@vector@6:
	mov	eax, DWORD PTR _this$[ebp]
$LN4@vector@6:
	mov	esp, ebp
	pop	ebp
	ret	4
??_EFileHandleDataStream@Ogre@@UAEPAXI@Z ENDP		; Ogre::FileHandleDataStream::`vector deleting destructor'
_TEXT	ENDS
PUBLIC	??_7DataStreamObject@Ogre@@6B@			; Ogre::DataStreamObject::`vftable'
PUBLIC	??1DataStreamObject@Ogre@@MAE@XZ		; Ogre::DataStreamObject::~DataStreamObject
PUBLIC	??_R4DataStreamObject@Ogre@@6B@			; Ogre::DataStreamObject::`RTTI Complete Object Locator'
PUBLIC	??_R0?AVDataStreamObject@Ogre@@@8		; Ogre::DataStreamObject `RTTI Type Descriptor'
PUBLIC	??_R3DataStreamObject@Ogre@@8			; Ogre::DataStreamObject::`RTTI Class Hierarchy Descriptor'
PUBLIC	??_R2DataStreamObject@Ogre@@8			; Ogre::DataStreamObject::`RTTI Base Class Array'
PUBLIC	??_R1A@?0A@EA@DataStreamObject@Ogre@@8		; Ogre::DataStreamObject::`RTTI Base Class Descriptor at (0,-1,0,64)'
PUBLIC	??_EDataStreamObject@Ogre@@MAEPAXI@Z		; Ogre::DataStreamObject::`vector deleting destructor'
;	COMDAT ??_R1A@?0A@EA@DataStreamObject@Ogre@@8
rdata$r	SEGMENT
??_R1A@?0A@EA@DataStreamObject@Ogre@@8 DD FLAT:??_R0?AVDataStreamObject@Ogre@@@8 ; Ogre::DataStreamObject::`RTTI Base Class Descriptor at (0,-1,0,64)'
	DD	00H
	DD	00H
	DD	0ffffffffH
	DD	00H
	DD	040H
	DD	FLAT:??_R3DataStreamObject@Ogre@@8
rdata$r	ENDS
;	COMDAT ??_R2DataStreamObject@Ogre@@8
rdata$r	SEGMENT
??_R2DataStreamObject@Ogre@@8 DD FLAT:??_R1A@?0A@EA@DataStreamObject@Ogre@@8 ; Ogre::DataStreamObject::`RTTI Base Class Array'
rdata$r	ENDS
;	COMDAT ??_R3DataStreamObject@Ogre@@8
rdata$r	SEGMENT
??_R3DataStreamObject@Ogre@@8 DD 00H			; Ogre::DataStreamObject::`RTTI Class Hierarchy Descriptor'
	DD	00H
	DD	01H
	DD	FLAT:??_R2DataStreamObject@Ogre@@8
rdata$r	ENDS
;	COMDAT ??_R0?AVDataStreamObject@Ogre@@@8
_DATA	SEGMENT
??_R0?AVDataStreamObject@Ogre@@@8 DD FLAT:??_7type_info@@6B@ ; Ogre::DataStreamObject `RTTI Type Descriptor'
	DD	00H
	DB	'.?AVDataStreamObject@Ogre@@', 00H
_DATA	ENDS
;	COMDAT ??_R4DataStreamObject@Ogre@@6B@
rdata$r	SEGMENT
??_R4DataStreamObject@Ogre@@6B@ DD 00H			; Ogre::DataStreamObject::`RTTI Complete Object Locator'
	DD	00H
	DD	00H
	DD	FLAT:??_R0?AVDataStreamObject@Ogre@@@8
	DD	FLAT:??_R3DataStreamObject@Ogre@@8
rdata$r	ENDS
;	COMDAT ??_7DataStreamObject@Ogre@@6B@
CONST	SEGMENT
??_7DataStreamObject@Ogre@@6B@ DD FLAT:??_R4DataStreamObject@Ogre@@6B@ ; Ogre::DataStreamObject::`vftable'
	DD	FLAT:??_EDataStreamObject@Ogre@@MAEPAXI@Z
	DD	FLAT:__purecall
	DD	FLAT:__purecall
	DD	FLAT:__purecall
	DD	FLAT:__purecall
	DD	FLAT:__purecall
	DD	FLAT:__purecall
; Function compile flags: /Odtp
CONST	ENDS
;	COMDAT ??1DataStreamObject@Ogre@@MAE@XZ
_TEXT	SEGMENT
_this$ = -4						; size = 4
??1DataStreamObject@Ogre@@MAE@XZ PROC			; Ogre::DataStreamObject::~DataStreamObject, COMDAT
; _this$ = ecx

; 445  : 		virtual ~DataStreamObject(){}

	push	ebp
	mov	ebp, esp
	push	ecx
	mov	DWORD PTR _this$[ebp], ecx
	mov	eax, DWORD PTR _this$[ebp]
	mov	DWORD PTR [eax], OFFSET ??_7DataStreamObject@Ogre@@6B@
	mov	esp, ebp
	pop	ebp
	ret	0
??1DataStreamObject@Ogre@@MAE@XZ ENDP			; Ogre::DataStreamObject::~DataStreamObject
_TEXT	ENDS
PUBLIC	??0DataStreamObject@Ogre@@QAE@XZ		; Ogre::DataStreamObject::DataStreamObject
; Function compile flags: /Odtp
;	COMDAT ??0DataStreamObject@Ogre@@QAE@XZ
_TEXT	SEGMENT
_this$ = -4						; size = 4
??0DataStreamObject@Ogre@@QAE@XZ PROC			; Ogre::DataStreamObject::DataStreamObject, COMDAT
; _this$ = ecx
	push	ebp
	mov	ebp, esp
	push	ecx
	mov	DWORD PTR _this$[ebp], ecx
	mov	eax, DWORD PTR _this$[ebp]
	mov	DWORD PTR [eax], OFFSET ??_7DataStreamObject@Ogre@@6B@
	mov	eax, DWORD PTR _this$[ebp]
	mov	esp, ebp
	pop	ebp
	ret	0
??0DataStreamObject@Ogre@@QAE@XZ ENDP			; Ogre::DataStreamObject::DataStreamObject
_TEXT	ENDS
PUBLIC	??0DataStreamObject@Ogre@@QAE@ABV01@@Z		; Ogre::DataStreamObject::DataStreamObject
; Function compile flags: /Odtp
;	COMDAT ??0DataStreamObject@Ogre@@QAE@ABV01@@Z
_TEXT	SEGMENT
_this$ = -4						; size = 4
___that$ = 8						; size = 4
??0DataStreamObject@Ogre@@QAE@ABV01@@Z PROC		; Ogre::DataStreamObject::DataStreamObject, COMDAT
; _this$ = ecx
	push	ebp
	mov	ebp, esp
	push	ecx
	mov	DWORD PTR _this$[ebp], ecx
	mov	eax, DWORD PTR _this$[ebp]
	mov	DWORD PTR [eax], OFFSET ??_7DataStreamObject@Ogre@@6B@
	mov	eax, DWORD PTR _this$[ebp]
	mov	esp, ebp
	pop	ebp
	ret	4
??0DataStreamObject@Ogre@@QAE@ABV01@@Z ENDP		; Ogre::DataStreamObject::DataStreamObject
_TEXT	ENDS
PUBLIC	??4DataStreamObject@Ogre@@QAEAAV01@ABV01@@Z	; Ogre::DataStreamObject::operator=
; Function compile flags: /Odtp
;	COMDAT ??4DataStreamObject@Ogre@@QAEAAV01@ABV01@@Z
_TEXT	SEGMENT
_this$ = -4						; size = 4
___that$ = 8						; size = 4
??4DataStreamObject@Ogre@@QAEAAV01@ABV01@@Z PROC	; Ogre::DataStreamObject::operator=, COMDAT
; _this$ = ecx
	push	ebp
	mov	ebp, esp
	push	ecx
	mov	DWORD PTR _this$[ebp], ecx
	mov	eax, DWORD PTR _this$[ebp]
	mov	esp, ebp
	pop	ebp
	ret	4
??4DataStreamObject@Ogre@@QAEAAV01@ABV01@@Z ENDP	; Ogre::DataStreamObject::operator=
_TEXT	ENDS
PUBLIC	??_GDataStreamObject@Ogre@@MAEPAXI@Z		; Ogre::DataStreamObject::`scalar deleting destructor'
; Function compile flags: /Odtp
;	COMDAT ??_GDataStreamObject@Ogre@@MAEPAXI@Z
_TEXT	SEGMENT
_this$ = -4						; size = 4
___flags$ = 8						; size = 4
??_GDataStreamObject@Ogre@@MAEPAXI@Z PROC		; Ogre::DataStreamObject::`scalar deleting destructor', COMDAT
; _this$ = ecx
	push	ebp
	mov	ebp, esp
	push	ecx
	mov	DWORD PTR _this$[ebp], ecx
	mov	ecx, DWORD PTR _this$[ebp]
	call	??1DataStreamObject@Ogre@@MAE@XZ	; Ogre::DataStreamObject::~DataStreamObject
	mov	eax, DWORD PTR ___flags$[ebp]
	and	eax, 1
	je	SHORT $LN1@scalar@7
	mov	ecx, DWORD PTR _this$[ebp]
	push	ecx
	call	??3@YAXPAX@Z				; operator delete
	add	esp, 4
$LN1@scalar@7:
	mov	eax, DWORD PTR _this$[ebp]
	mov	esp, ebp
	pop	ebp
	ret	4
??_GDataStreamObject@Ogre@@MAEPAXI@Z ENDP		; Ogre::DataStreamObject::`scalar deleting destructor'
; Function compile flags: /Odtp
_TEXT	ENDS
;	COMDAT ??_EDataStreamObject@Ogre@@MAEPAXI@Z
_TEXT	SEGMENT
_this$ = -4						; size = 4
___flags$ = 8						; size = 4
??_EDataStreamObject@Ogre@@MAEPAXI@Z PROC		; Ogre::DataStreamObject::`vector deleting destructor', COMDAT
; _this$ = ecx
	push	ebp
	mov	ebp, esp
	push	ecx
	mov	DWORD PTR _this$[ebp], ecx
	mov	eax, DWORD PTR ___flags$[ebp]
	and	eax, 2
	je	SHORT $LN3@vector@7
	push	OFFSET ??1DataStreamObject@Ogre@@MAE@XZ	; Ogre::DataStreamObject::~DataStreamObject
	mov	ecx, DWORD PTR _this$[ebp]
	mov	edx, DWORD PTR [ecx-4]
	push	edx
	push	4
	mov	eax, DWORD PTR _this$[ebp]
	push	eax
	call	??_M@YGXPAXIHP6EX0@Z@Z
	mov	ecx, DWORD PTR ___flags$[ebp]
	and	ecx, 1
	je	SHORT $LN2@vector@7
	mov	edx, DWORD PTR _this$[ebp]
	sub	edx, 4
	push	edx
	call	??_V@YAXPAX@Z				; operator delete[]
	add	esp, 4
$LN2@vector@7:
	mov	eax, DWORD PTR _this$[ebp]
	sub	eax, 4
	jmp	SHORT $LN4@vector@7
$LN3@vector@7:
	mov	ecx, DWORD PTR _this$[ebp]
	call	??1DataStreamObject@Ogre@@MAE@XZ	; Ogre::DataStreamObject::~DataStreamObject
	mov	eax, DWORD PTR ___flags$[ebp]
	and	eax, 1
	je	SHORT $LN1@vector@7
	mov	ecx, DWORD PTR _this$[ebp]
	push	ecx
	call	??3@YAXPAX@Z				; operator delete
	add	esp, 4
$LN1@vector@7:
	mov	eax, DWORD PTR _this$[ebp]
$LN4@vector@7:
	mov	esp, ebp
	pop	ebp
	ret	4
??_EDataStreamObject@Ogre@@MAEPAXI@Z ENDP		; Ogre::DataStreamObject::`vector deleting destructor'
_TEXT	ENDS
PUBLIC	??_7ObjectDataStream@Ogre@@6B@			; Ogre::ObjectDataStream::`vftable'
PUBLIC	??0ObjectDataStream@Ogre@@QAE@ABV01@@Z		; Ogre::ObjectDataStream::ObjectDataStream
PUBLIC	??_R4ObjectDataStream@Ogre@@6B@			; Ogre::ObjectDataStream::`RTTI Complete Object Locator'
PUBLIC	??_R0?AVObjectDataStream@Ogre@@@8		; Ogre::ObjectDataStream `RTTI Type Descriptor'
PUBLIC	??_R3ObjectDataStream@Ogre@@8			; Ogre::ObjectDataStream::`RTTI Class Hierarchy Descriptor'
PUBLIC	??_R2ObjectDataStream@Ogre@@8			; Ogre::ObjectDataStream::`RTTI Base Class Array'
PUBLIC	??_R1A@?0A@EA@ObjectDataStream@Ogre@@8		; Ogre::ObjectDataStream::`RTTI Base Class Descriptor at (0,-1,0,64)'
PUBLIC	??_EObjectDataStream@Ogre@@UAEPAXI@Z		; Ogre::ObjectDataStream::`vector deleting destructor'
EXTRN	?read@ObjectDataStream@Ogre@@UAEIPAXI@Z:PROC	; Ogre::ObjectDataStream::read
EXTRN	?write@ObjectDataStream@Ogre@@UAEIPBXI@Z:PROC	; Ogre::ObjectDataStream::write
EXTRN	?skip@ObjectDataStream@Ogre@@UAEXJ@Z:PROC	; Ogre::ObjectDataStream::skip
EXTRN	?seek@ObjectDataStream@Ogre@@UAEXI@Z:PROC	; Ogre::ObjectDataStream::seek
EXTRN	?tell@ObjectDataStream@Ogre@@UBEIXZ:PROC	; Ogre::ObjectDataStream::tell
EXTRN	?eof@ObjectDataStream@Ogre@@UBE_NXZ:PROC	; Ogre::ObjectDataStream::eof
EXTRN	?size@ObjectDataStream@Ogre@@UBEIXZ:PROC	; Ogre::ObjectDataStream::size
EXTRN	?close@ObjectDataStream@Ogre@@UAEXXZ:PROC	; Ogre::ObjectDataStream::close
EXTRN	?getMemoryImage@ObjectDataStream@Ogre@@UAEPAXXZ:PROC ; Ogre::ObjectDataStream::getMemoryImage
;	COMDAT ??_R1A@?0A@EA@ObjectDataStream@Ogre@@8
rdata$r	SEGMENT
??_R1A@?0A@EA@ObjectDataStream@Ogre@@8 DD FLAT:??_R0?AVObjectDataStream@Ogre@@@8 ; Ogre::ObjectDataStream::`RTTI Base Class Descriptor at (0,-1,0,64)'
	DD	01H
	DD	00H
	DD	0ffffffffH
	DD	00H
	DD	040H
	DD	FLAT:??_R3ObjectDataStream@Ogre@@8
rdata$r	ENDS
;	COMDAT ??_R2ObjectDataStream@Ogre@@8
rdata$r	SEGMENT
??_R2ObjectDataStream@Ogre@@8 DD FLAT:??_R1A@?0A@EA@ObjectDataStream@Ogre@@8 ; Ogre::ObjectDataStream::`RTTI Base Class Array'
	DD	FLAT:??_R1A@?0A@EA@DataStream@Ogre@@8
rdata$r	ENDS
;	COMDAT ??_R3ObjectDataStream@Ogre@@8
rdata$r	SEGMENT
??_R3ObjectDataStream@Ogre@@8 DD 00H			; Ogre::ObjectDataStream::`RTTI Class Hierarchy Descriptor'
	DD	00H
	DD	02H
	DD	FLAT:??_R2ObjectDataStream@Ogre@@8
rdata$r	ENDS
;	COMDAT ??_R0?AVObjectDataStream@Ogre@@@8
_DATA	SEGMENT
??_R0?AVObjectDataStream@Ogre@@@8 DD FLAT:??_7type_info@@6B@ ; Ogre::ObjectDataStream `RTTI Type Descriptor'
	DD	00H
	DB	'.?AVObjectDataStream@Ogre@@', 00H
_DATA	ENDS
;	COMDAT ??_R4ObjectDataStream@Ogre@@6B@
rdata$r	SEGMENT
??_R4ObjectDataStream@Ogre@@6B@ DD 00H			; Ogre::ObjectDataStream::`RTTI Complete Object Locator'
	DD	00H
	DD	00H
	DD	FLAT:??_R0?AVObjectDataStream@Ogre@@@8
	DD	FLAT:??_R3ObjectDataStream@Ogre@@8
rdata$r	ENDS
;	COMDAT ??_7ObjectDataStream@Ogre@@6B@
CONST	SEGMENT
??_7ObjectDataStream@Ogre@@6B@ DD FLAT:??_R4ObjectDataStream@Ogre@@6B@ ; Ogre::ObjectDataStream::`vftable'
	DD	FLAT:??_EObjectDataStream@Ogre@@UAEPAXI@Z
	DD	FLAT:?read@ObjectDataStream@Ogre@@UAEIPAXI@Z
	DD	FLAT:?write@ObjectDataStream@Ogre@@UAEIPBXI@Z
	DD	FLAT:?readLine@DataStream@Ogre@@UAEIPADIABV?$basic_string@DU?$char_traits@D@std@@V?$allocator@D@2@@std@@@Z
	DD	FLAT:?getLine@DataStream@Ogre@@UAE?AV?$basic_string@DU?$char_traits@D@std@@V?$allocator@D@2@@std@@_N@Z
	DD	FLAT:?getAsString@DataStream@Ogre@@UAE?AV?$basic_string@DU?$char_traits@D@std@@V?$allocator@D@2@@std@@XZ
	DD	FLAT:?skipLine@DataStream@Ogre@@UAEIABV?$basic_string@DU?$char_traits@D@std@@V?$allocator@D@2@@std@@@Z
	DD	FLAT:?skip@ObjectDataStream@Ogre@@UAEXJ@Z
	DD	FLAT:?seek@ObjectDataStream@Ogre@@UAEXI@Z
	DD	FLAT:?tell@ObjectDataStream@Ogre@@UBEIXZ
	DD	FLAT:?eof@ObjectDataStream@Ogre@@UBE_NXZ
	DD	FLAT:?size@ObjectDataStream@Ogre@@UBEIXZ
	DD	FLAT:?close@ObjectDataStream@Ogre@@UAEXXZ
	DD	FLAT:?getMemoryImage@ObjectDataStream@Ogre@@UAEPAXXZ
CONST	ENDS
;	COMDAT xdata$x
xdata$x	SEGMENT
__unwindtable$??0ObjectDataStream@Ogre@@QAE@ABV01@@Z DD 0ffffffffH
	DD	FLAT:__unwindfunclet$??0ObjectDataStream@Ogre@@QAE@ABV01@@Z$0
__ehfuncinfo$??0ObjectDataStream@Ogre@@QAE@ABV01@@Z DD 019930522H
	DD	01H
	DD	FLAT:__unwindtable$??0ObjectDataStream@Ogre@@QAE@ABV01@@Z
	DD	2 DUP(00H)
	DD	2 DUP(00H)
	DD	00H
	DD	00H
; Function compile flags: /Odtp
xdata$x	ENDS
;	COMDAT ??0ObjectDataStream@Ogre@@QAE@ABV01@@Z
_TEXT	SEGMENT
_this$ = -16						; size = 4
__$EHRec$ = -12						; size = 12
___that$ = 8						; size = 4
??0ObjectDataStream@Ogre@@QAE@ABV01@@Z PROC		; Ogre::ObjectDataStream::ObjectDataStream, COMDAT
; _this$ = ecx
	push	ebp
	mov	ebp, esp
	push	-1
	push	__ehhandler$??0ObjectDataStream@Ogre@@QAE@ABV01@@Z
	mov	eax, DWORD PTR fs:0
	push	eax
	push	ecx
	mov	eax, DWORD PTR ___security_cookie
	xor	eax, ebp
	push	eax
	lea	eax, DWORD PTR __$EHRec$[ebp]
	mov	DWORD PTR fs:0, eax
	mov	DWORD PTR _this$[ebp], ecx
	mov	eax, DWORD PTR ___that$[ebp]
	push	eax
	mov	ecx, DWORD PTR _this$[ebp]
	call	??0DataStream@Ogre@@QAE@ABV01@@Z
	mov	DWORD PTR __$EHRec$[ebp+8], 0
	mov	ecx, DWORD PTR _this$[ebp]
	mov	DWORD PTR [ecx], OFFSET ??_7ObjectDataStream@Ogre@@6B@
	mov	edx, DWORD PTR _this$[ebp]
	mov	eax, DWORD PTR ___that$[ebp]
	mov	ecx, DWORD PTR [eax+36]
	mov	DWORD PTR [edx+36], ecx
	mov	edx, DWORD PTR _this$[ebp]
	mov	eax, DWORD PTR ___that$[ebp]
	mov	ecx, DWORD PTR [eax+40]
	mov	DWORD PTR [edx+40], ecx
	mov	DWORD PTR __$EHRec$[ebp+8], -1
	mov	eax, DWORD PTR _this$[ebp]
	mov	ecx, DWORD PTR __$EHRec$[ebp]
	mov	DWORD PTR fs:0, ecx
	pop	ecx
	mov	esp, ebp
	pop	ebp
	ret	4
_TEXT	ENDS
;	COMDAT text$x
text$x	SEGMENT
__unwindfunclet$??0ObjectDataStream@Ogre@@QAE@ABV01@@Z$0:
	mov	ecx, DWORD PTR _this$[ebp]
	jmp	??1DataStream@Ogre@@UAE@XZ		; Ogre::DataStream::~DataStream
__ehhandler$??0ObjectDataStream@Ogre@@QAE@ABV01@@Z:
	mov	edx, DWORD PTR [esp+8]
	lea	eax, DWORD PTR [edx+12]
	mov	ecx, DWORD PTR [edx-8]
	xor	ecx, eax
	call	@__security_check_cookie@4
	mov	eax, OFFSET __ehfuncinfo$??0ObjectDataStream@Ogre@@QAE@ABV01@@Z
	jmp	___CxxFrameHandler3
text$x	ENDS
??0ObjectDataStream@Ogre@@QAE@ABV01@@Z ENDP		; Ogre::ObjectDataStream::ObjectDataStream
PUBLIC	??4ObjectDataStream@Ogre@@QAEAAV01@ABV01@@Z	; Ogre::ObjectDataStream::operator=
; Function compile flags: /Odtp
;	COMDAT ??4ObjectDataStream@Ogre@@QAEAAV01@ABV01@@Z
_TEXT	SEGMENT
_this$ = -4						; size = 4
___that$ = 8						; size = 4
??4ObjectDataStream@Ogre@@QAEAAV01@ABV01@@Z PROC	; Ogre::ObjectDataStream::operator=, COMDAT
; _this$ = ecx
	push	ebp
	mov	ebp, esp
	push	ecx
	mov	DWORD PTR _this$[ebp], ecx
	mov	eax, DWORD PTR ___that$[ebp]
	push	eax
	mov	ecx, DWORD PTR _this$[ebp]
	call	??4DataStream@Ogre@@QAEAAV01@ABV01@@Z
	mov	ecx, DWORD PTR _this$[ebp]
	mov	edx, DWORD PTR ___that$[ebp]
	mov	eax, DWORD PTR [edx+36]
	mov	DWORD PTR [ecx+36], eax
	mov	ecx, DWORD PTR _this$[ebp]
	mov	edx, DWORD PTR ___that$[ebp]
	mov	eax, DWORD PTR [edx+40]
	mov	DWORD PTR [ecx+40], eax
	mov	eax, DWORD PTR _this$[ebp]
	mov	esp, ebp
	pop	ebp
	ret	4
??4ObjectDataStream@Ogre@@QAEAAV01@ABV01@@Z ENDP	; Ogre::ObjectDataStream::operator=
_TEXT	ENDS
PUBLIC	??_GObjectDataStream@Ogre@@UAEPAXI@Z		; Ogre::ObjectDataStream::`scalar deleting destructor'
EXTRN	??1ObjectDataStream@Ogre@@UAE@XZ:PROC		; Ogre::ObjectDataStream::~ObjectDataStream
; Function compile flags: /Odtp
;	COMDAT ??_GObjectDataStream@Ogre@@UAEPAXI@Z
_TEXT	SEGMENT
_this$ = -4						; size = 4
___flags$ = 8						; size = 4
??_GObjectDataStream@Ogre@@UAEPAXI@Z PROC		; Ogre::ObjectDataStream::`scalar deleting destructor', COMDAT
; _this$ = ecx
	push	ebp
	mov	ebp, esp
	push	ecx
	mov	DWORD PTR _this$[ebp], ecx
	mov	ecx, DWORD PTR _this$[ebp]
	call	??1ObjectDataStream@Ogre@@UAE@XZ	; Ogre::ObjectDataStream::~ObjectDataStream
	mov	eax, DWORD PTR ___flags$[ebp]
	and	eax, 1
	je	SHORT $LN1@scalar@8
	mov	ecx, DWORD PTR _this$[ebp]
	push	ecx
	call	??3@YAXPAX@Z				; operator delete
	add	esp, 4
$LN1@scalar@8:
	mov	eax, DWORD PTR _this$[ebp]
	mov	esp, ebp
	pop	ebp
	ret	4
??_GObjectDataStream@Ogre@@UAEPAXI@Z ENDP		; Ogre::ObjectDataStream::`scalar deleting destructor'
; Function compile flags: /Odtp
_TEXT	ENDS
;	COMDAT ??_EObjectDataStream@Ogre@@UAEPAXI@Z
_TEXT	SEGMENT
_this$ = -4						; size = 4
___flags$ = 8						; size = 4
??_EObjectDataStream@Ogre@@UAEPAXI@Z PROC		; Ogre::ObjectDataStream::`vector deleting destructor', COMDAT
; _this$ = ecx
	push	ebp
	mov	ebp, esp
	push	ecx
	mov	DWORD PTR _this$[ebp], ecx
	mov	eax, DWORD PTR ___flags$[ebp]
	and	eax, 2
	je	SHORT $LN3@vector@8
	push	OFFSET ??1ObjectDataStream@Ogre@@UAE@XZ	; Ogre::ObjectDataStream::~ObjectDataStream
	mov	ecx, DWORD PTR _this$[ebp]
	mov	edx, DWORD PTR [ecx-4]
	push	edx
	push	44					; 0000002cH
	mov	eax, DWORD PTR _this$[ebp]
	push	eax
	call	??_M@YGXPAXIHP6EX0@Z@Z
	mov	ecx, DWORD PTR ___flags$[ebp]
	and	ecx, 1
	je	SHORT $LN2@vector@8
	mov	edx, DWORD PTR _this$[ebp]
	sub	edx, 4
	push	edx
	call	??_V@YAXPAX@Z				; operator delete[]
	add	esp, 4
$LN2@vector@8:
	mov	eax, DWORD PTR _this$[ebp]
	sub	eax, 4
	jmp	SHORT $LN4@vector@8
$LN3@vector@8:
	mov	ecx, DWORD PTR _this$[ebp]
	call	??1ObjectDataStream@Ogre@@UAE@XZ	; Ogre::ObjectDataStream::~ObjectDataStream
	mov	eax, DWORD PTR ___flags$[ebp]
	and	eax, 1
	je	SHORT $LN1@vector@8
	mov	ecx, DWORD PTR _this$[ebp]
	push	ecx
	call	??3@YAXPAX@Z				; operator delete
	add	esp, 4
$LN1@vector@8:
	mov	eax, DWORD PTR _this$[ebp]
$LN4@vector@8:
	mov	esp, ebp
	pop	ebp
	ret	4
??_EObjectDataStream@Ogre@@UAEPAXI@Z ENDP		; Ogre::ObjectDataStream::`vector deleting destructor'
_TEXT	ENDS
PUBLIC	??_7Archive@Ogre@@6B@				; Ogre::Archive::`vftable'
PUBLIC	??0Archive@Ogre@@QAE@PAVDataStream@1@H@Z	; Ogre::Archive::Archive
PUBLIC	??_R4Archive@Ogre@@6B@				; Ogre::Archive::`RTTI Complete Object Locator'
PUBLIC	??_R0?AVArchive@Ogre@@@8			; Ogre::Archive `RTTI Type Descriptor'
PUBLIC	??_R3Archive@Ogre@@8				; Ogre::Archive::`RTTI Class Hierarchy Descriptor'
PUBLIC	??_R2Archive@Ogre@@8				; Ogre::Archive::`RTTI Base Class Array'
PUBLIC	??_R1A@?0A@EA@Archive@Ogre@@8			; Ogre::Archive::`RTTI Base Class Descriptor at (0,-1,0,64)'
PUBLIC	??_EArchive@Ogre@@UAEPAXI@Z			; Ogre::Archive::`vector deleting destructor'
;	COMDAT ??_R1A@?0A@EA@Archive@Ogre@@8
; File i:\svnroot\client\ogremain\ogrearchive.h
rdata$r	SEGMENT
??_R1A@?0A@EA@Archive@Ogre@@8 DD FLAT:??_R0?AVArchive@Ogre@@@8 ; Ogre::Archive::`RTTI Base Class Descriptor at (0,-1,0,64)'
	DD	00H
	DD	00H
	DD	0ffffffffH
	DD	00H
	DD	040H
	DD	FLAT:??_R3Archive@Ogre@@8
rdata$r	ENDS
;	COMDAT ??_R2Archive@Ogre@@8
rdata$r	SEGMENT
??_R2Archive@Ogre@@8 DD FLAT:??_R1A@?0A@EA@Archive@Ogre@@8 ; Ogre::Archive::`RTTI Base Class Array'
rdata$r	ENDS
;	COMDAT ??_R3Archive@Ogre@@8
rdata$r	SEGMENT
??_R3Archive@Ogre@@8 DD 00H				; Ogre::Archive::`RTTI Class Hierarchy Descriptor'
	DD	00H
	DD	01H
	DD	FLAT:??_R2Archive@Ogre@@8
rdata$r	ENDS
;	COMDAT ??_R0?AVArchive@Ogre@@@8
_DATA	SEGMENT
??_R0?AVArchive@Ogre@@@8 DD FLAT:??_7type_info@@6B@	; Ogre::Archive `RTTI Type Descriptor'
	DD	00H
	DB	'.?AVArchive@Ogre@@', 00H
_DATA	ENDS
;	COMDAT ??_R4Archive@Ogre@@6B@
rdata$r	SEGMENT
??_R4Archive@Ogre@@6B@ DD 00H				; Ogre::Archive::`RTTI Complete Object Locator'
	DD	00H
	DD	00H
	DD	FLAT:??_R0?AVArchive@Ogre@@@8
	DD	FLAT:??_R3Archive@Ogre@@8
rdata$r	ENDS
;	COMDAT ??_7Archive@Ogre@@6B@
CONST	SEGMENT
??_7Archive@Ogre@@6B@ DD FLAT:??_R4Archive@Ogre@@6B@	; Ogre::Archive::`vftable'
	DD	FLAT:??_EArchive@Ogre@@UAEPAXI@Z
; Function compile flags: /Odtp
CONST	ENDS
;	COMDAT ??0Archive@Ogre@@QAE@PAVDataStream@1@H@Z
_TEXT	SEGMENT
_this$ = -4						; size = 4
_pstream$ = 8						; size = 4
_mode$ = 12						; size = 4
??0Archive@Ogre@@QAE@PAVDataStream@1@H@Z PROC		; Ogre::Archive::Archive, COMDAT
; _this$ = ecx

; 22   : 		{

	push	ebp
	mov	ebp, esp
	push	ecx
	mov	DWORD PTR _this$[ebp], ecx
	mov	eax, DWORD PTR _this$[ebp]
	mov	DWORD PTR [eax], OFFSET ??_7Archive@Ogre@@6B@
	mov	ecx, DWORD PTR _this$[ebp]
	mov	edx, DWORD PTR _pstream$[ebp]
	mov	DWORD PTR [ecx+4], edx
	mov	eax, DWORD PTR _this$[ebp]
	mov	ecx, DWORD PTR _mode$[ebp]
	mov	DWORD PTR [eax+8], ecx

; 23   : 		}

	mov	eax, DWORD PTR _this$[ebp]
	mov	esp, ebp
	pop	ebp
	ret	8
??0Archive@Ogre@@QAE@PAVDataStream@1@H@Z ENDP		; Ogre::Archive::Archive
_TEXT	ENDS
PUBLIC	??1Archive@Ogre@@UAE@XZ				; Ogre::Archive::~Archive
; Function compile flags: /Odtp
;	COMDAT ??1Archive@Ogre@@UAE@XZ
_TEXT	SEGMENT
_this$ = -4						; size = 4
??1Archive@Ogre@@UAE@XZ PROC				; Ogre::Archive::~Archive, COMDAT
; _this$ = ecx

; 26   : 		{

	push	ebp
	mov	ebp, esp
	push	ecx
	mov	DWORD PTR _this$[ebp], ecx
	mov	eax, DWORD PTR _this$[ebp]
	mov	DWORD PTR [eax], OFFSET ??_7Archive@Ogre@@6B@

; 27   : 		}

	mov	esp, ebp
	pop	ebp
	ret	0
??1Archive@Ogre@@UAE@XZ ENDP				; Ogre::Archive::~Archive
_TEXT	ENDS
PUBLIC	?isLoading@Archive@Ogre@@QAE_NXZ		; Ogre::Archive::isLoading
; Function compile flags: /Odtp
;	COMDAT ?isLoading@Archive@Ogre@@QAE_NXZ
_TEXT	SEGMENT
_this$ = -4						; size = 4
?isLoading@Archive@Ogre@@QAE_NXZ PROC			; Ogre::Archive::isLoading, COMDAT
; _this$ = ecx

; 30   : 		{

	push	ebp
	mov	ebp, esp
	push	ecx
	mov	DWORD PTR _this$[ebp], ecx

; 31   : 			return m_Mode==MODE_LOAD;

	mov	eax, DWORD PTR _this$[ebp]
	xor	ecx, ecx
	cmp	DWORD PTR [eax+8], 1
	sete	cl
	mov	al, cl

; 32   : 		}

	mov	esp, ebp
	pop	ebp
	ret	0
?isLoading@Archive@Ogre@@QAE_NXZ ENDP			; Ogre::Archive::isLoading
_TEXT	ENDS
PUBLIC	?serialize@Archive@Ogre@@QAEAAV12@PAXI@Z	; Ogre::Archive::serialize
PUBLIC	??6Archive@Ogre@@QAEAAV01@AAD@Z			; Ogre::Archive::operator<<
; Function compile flags: /Odtp
;	COMDAT ??6Archive@Ogre@@QAEAAV01@AAD@Z
_TEXT	SEGMENT
_this$ = -4						; size = 4
_value$ = 8						; size = 4
??6Archive@Ogre@@QAEAAV01@AAD@Z PROC			; Ogre::Archive::operator<<, COMDAT
; _this$ = ecx

; 108  : 		SERIALIZE_PRIMITIVE_FUNC(char)

	push	ebp
	mov	ebp, esp
	push	ecx
	mov	DWORD PTR _this$[ebp], ecx
	push	1
	mov	eax, DWORD PTR _value$[ebp]
	push	eax
	mov	ecx, DWORD PTR _this$[ebp]
	call	?serialize@Archive@Ogre@@QAEAAV12@PAXI@Z ; Ogre::Archive::serialize
	mov	eax, DWORD PTR _this$[ebp]
	mov	esp, ebp
	pop	ebp
	ret	4
??6Archive@Ogre@@QAEAAV01@AAD@Z ENDP			; Ogre::Archive::operator<<
_TEXT	ENDS
PUBLIC	??6Archive@Ogre@@QAEAAV01@AAF@Z			; Ogre::Archive::operator<<
; Function compile flags: /Odtp
;	COMDAT ??6Archive@Ogre@@QAEAAV01@AAF@Z
_TEXT	SEGMENT
_this$ = -4						; size = 4
_value$ = 8						; size = 4
??6Archive@Ogre@@QAEAAV01@AAF@Z PROC			; Ogre::Archive::operator<<, COMDAT
; _this$ = ecx

; 109  : 		SERIALIZE_PRIMITIVE_FUNC(short)

	push	ebp
	mov	ebp, esp
	push	ecx
	mov	DWORD PTR _this$[ebp], ecx
	push	2
	mov	eax, DWORD PTR _value$[ebp]
	push	eax
	mov	ecx, DWORD PTR _this$[ebp]
	call	?serialize@Archive@Ogre@@QAEAAV12@PAXI@Z ; Ogre::Archive::serialize
	mov	eax, DWORD PTR _this$[ebp]
	mov	esp, ebp
	pop	ebp
	ret	4
??6Archive@Ogre@@QAEAAV01@AAF@Z ENDP			; Ogre::Archive::operator<<
_TEXT	ENDS
PUBLIC	??6Archive@Ogre@@QAEAAV01@AAH@Z			; Ogre::Archive::operator<<
; Function compile flags: /Odtp
;	COMDAT ??6Archive@Ogre@@QAEAAV01@AAH@Z
_TEXT	SEGMENT
_this$ = -4						; size = 4
_value$ = 8						; size = 4
??6Archive@Ogre@@QAEAAV01@AAH@Z PROC			; Ogre::Archive::operator<<, COMDAT
; _this$ = ecx

; 110  : 		SERIALIZE_PRIMITIVE_FUNC(int)

	push	ebp
	mov	ebp, esp
	push	ecx
	mov	DWORD PTR _this$[ebp], ecx
	push	4
	mov	eax, DWORD PTR _value$[ebp]
	push	eax
	mov	ecx, DWORD PTR _this$[ebp]
	call	?serialize@Archive@Ogre@@QAEAAV12@PAXI@Z ; Ogre::Archive::serialize
	mov	eax, DWORD PTR _this$[ebp]
	mov	esp, ebp
	pop	ebp
	ret	4
??6Archive@Ogre@@QAEAAV01@AAH@Z ENDP			; Ogre::Archive::operator<<
_TEXT	ENDS
PUBLIC	??6Archive@Ogre@@QAEAAV01@AA_J@Z		; Ogre::Archive::operator<<
; Function compile flags: /Odtp
;	COMDAT ??6Archive@Ogre@@QAEAAV01@AA_J@Z
_TEXT	SEGMENT
_this$ = -4						; size = 4
_value$ = 8						; size = 4
??6Archive@Ogre@@QAEAAV01@AA_J@Z PROC			; Ogre::Archive::operator<<, COMDAT
; _this$ = ecx

; 111  : 		SERIALIZE_PRIMITIVE_FUNC(int64)

	push	ebp
	mov	ebp, esp
	push	ecx
	mov	DWORD PTR _this$[ebp], ecx
	push	8
	mov	eax, DWORD PTR _value$[ebp]
	push	eax
	mov	ecx, DWORD PTR _this$[ebp]
	call	?serialize@Archive@Ogre@@QAEAAV12@PAXI@Z ; Ogre::Archive::serialize
	mov	eax, DWORD PTR _this$[ebp]
	mov	esp, ebp
	pop	ebp
	ret	4
??6Archive@Ogre@@QAEAAV01@AA_J@Z ENDP			; Ogre::Archive::operator<<
_TEXT	ENDS
PUBLIC	??6Archive@Ogre@@QAEAAV01@AAE@Z			; Ogre::Archive::operator<<
; Function compile flags: /Odtp
;	COMDAT ??6Archive@Ogre@@QAEAAV01@AAE@Z
_TEXT	SEGMENT
_this$ = -4						; size = 4
_value$ = 8						; size = 4
??6Archive@Ogre@@QAEAAV01@AAE@Z PROC			; Ogre::Archive::operator<<, COMDAT
; _this$ = ecx

; 112  : 		SERIALIZE_PRIMITIVE_FUNC(uchar)

	push	ebp
	mov	ebp, esp
	push	ecx
	mov	DWORD PTR _this$[ebp], ecx
	push	1
	mov	eax, DWORD PTR _value$[ebp]
	push	eax
	mov	ecx, DWORD PTR _this$[ebp]
	call	?serialize@Archive@Ogre@@QAEAAV12@PAXI@Z ; Ogre::Archive::serialize
	mov	eax, DWORD PTR _this$[ebp]
	mov	esp, ebp
	pop	ebp
	ret	4
??6Archive@Ogre@@QAEAAV01@AAE@Z ENDP			; Ogre::Archive::operator<<
_TEXT	ENDS
PUBLIC	??6Archive@Ogre@@QAEAAV01@AAG@Z			; Ogre::Archive::operator<<
; Function compile flags: /Odtp
;	COMDAT ??6Archive@Ogre@@QAEAAV01@AAG@Z
_TEXT	SEGMENT
_this$ = -4						; size = 4
_value$ = 8						; size = 4
??6Archive@Ogre@@QAEAAV01@AAG@Z PROC			; Ogre::Archive::operator<<, COMDAT
; _this$ = ecx

; 113  : 		SERIALIZE_PRIMITIVE_FUNC(ushort)

	push	ebp
	mov	ebp, esp
	push	ecx
	mov	DWORD PTR _this$[ebp], ecx
	push	2
	mov	eax, DWORD PTR _value$[ebp]
	push	eax
	mov	ecx, DWORD PTR _this$[ebp]
	call	?serialize@Archive@Ogre@@QAEAAV12@PAXI@Z ; Ogre::Archive::serialize
	mov	eax, DWORD PTR _this$[ebp]
	mov	esp, ebp
	pop	ebp
	ret	4
??6Archive@Ogre@@QAEAAV01@AAG@Z ENDP			; Ogre::Archive::operator<<
_TEXT	ENDS
PUBLIC	??6Archive@Ogre@@QAEAAV01@AAI@Z			; Ogre::Archive::operator<<
; Function compile flags: /Odtp
;	COMDAT ??6Archive@Ogre@@QAEAAV01@AAI@Z
_TEXT	SEGMENT
_this$ = -4						; size = 4
_value$ = 8						; size = 4
??6Archive@Ogre@@QAEAAV01@AAI@Z PROC			; Ogre::Archive::operator<<, COMDAT
; _this$ = ecx

; 114  : 		SERIALIZE_PRIMITIVE_FUNC(uint)

	push	ebp
	mov	ebp, esp
	push	ecx
	mov	DWORD PTR _this$[ebp], ecx
	push	4
	mov	eax, DWORD PTR _value$[ebp]
	push	eax
	mov	ecx, DWORD PTR _this$[ebp]
	call	?serialize@Archive@Ogre@@QAEAAV12@PAXI@Z ; Ogre::Archive::serialize
	mov	eax, DWORD PTR _this$[ebp]
	mov	esp, ebp
	pop	ebp
	ret	4
??6Archive@Ogre@@QAEAAV01@AAI@Z ENDP			; Ogre::Archive::operator<<
_TEXT	ENDS
PUBLIC	??6Archive@Ogre@@QAEAAV01@AA_K@Z		; Ogre::Archive::operator<<
; Function compile flags: /Odtp
;	COMDAT ??6Archive@Ogre@@QAEAAV01@AA_K@Z
_TEXT	SEGMENT
_this$ = -4						; size = 4
_value$ = 8						; size = 4
??6Archive@Ogre@@QAEAAV01@AA_K@Z PROC			; Ogre::Archive::operator<<, COMDAT
; _this$ = ecx

; 115  : 		SERIALIZE_PRIMITIVE_FUNC(uint64)

	push	ebp
	mov	ebp, esp
	push	ecx
	mov	DWORD PTR _this$[ebp], ecx
	push	8
	mov	eax, DWORD PTR _value$[ebp]
	push	eax
	mov	ecx, DWORD PTR _this$[ebp]
	call	?serialize@Archive@Ogre@@QAEAAV12@PAXI@Z ; Ogre::Archive::serialize
	mov	eax, DWORD PTR _this$[ebp]
	mov	esp, ebp
	pop	ebp
	ret	4
??6Archive@Ogre@@QAEAAV01@AA_K@Z ENDP			; Ogre::Archive::operator<<
_TEXT	ENDS
PUBLIC	??6Archive@Ogre@@QAEAAV01@AA_N@Z		; Ogre::Archive::operator<<
; Function compile flags: /Odtp
;	COMDAT ??6Archive@Ogre@@QAEAAV01@AA_N@Z
_TEXT	SEGMENT
_this$ = -4						; size = 4
_value$ = 8						; size = 4
??6Archive@Ogre@@QAEAAV01@AA_N@Z PROC			; Ogre::Archive::operator<<, COMDAT
; _this$ = ecx

; 116  : 		SERIALIZE_PRIMITIVE_FUNC(bool)

	push	ebp
	mov	ebp, esp
	push	ecx
	mov	DWORD PTR _this$[ebp], ecx
	push	1
	mov	eax, DWORD PTR _value$[ebp]
	push	eax
	mov	ecx, DWORD PTR _this$[ebp]
	call	?serialize@Archive@Ogre@@QAEAAV12@PAXI@Z ; Ogre::Archive::serialize
	mov	eax, DWORD PTR _this$[ebp]
	mov	esp, ebp
	pop	ebp
	ret	4
??6Archive@Ogre@@QAEAAV01@AA_N@Z ENDP			; Ogre::Archive::operator<<
_TEXT	ENDS
PUBLIC	??6Archive@Ogre@@QAEAAV01@AAM@Z			; Ogre::Archive::operator<<
; Function compile flags: /Odtp
;	COMDAT ??6Archive@Ogre@@QAEAAV01@AAM@Z
_TEXT	SEGMENT
_this$ = -4						; size = 4
_value$ = 8						; size = 4
??6Archive@Ogre@@QAEAAV01@AAM@Z PROC			; Ogre::Archive::operator<<, COMDAT
; _this$ = ecx

; 117  : 		SERIALIZE_PRIMITIVE_FUNC(float)

	push	ebp
	mov	ebp, esp
	push	ecx
	mov	DWORD PTR _this$[ebp], ecx
	push	4
	mov	eax, DWORD PTR _value$[ebp]
	push	eax
	mov	ecx, DWORD PTR _this$[ebp]
	call	?serialize@Archive@Ogre@@QAEAAV12@PAXI@Z ; Ogre::Archive::serialize
	mov	eax, DWORD PTR _this$[ebp]
	mov	esp, ebp
	pop	ebp
	ret	4
??6Archive@Ogre@@QAEAAV01@AAM@Z ENDP			; Ogre::Archive::operator<<
; Function compile flags: /Odtp
_TEXT	ENDS
;	COMDAT ?serialize@Archive@Ogre@@QAEAAV12@PAXI@Z
_TEXT	SEGMENT
_this$ = -4						; size = 4
_pbuf$ = 8						; size = 4
_len$ = 12						; size = 4
?serialize@Archive@Ogre@@QAEAAV12@PAXI@Z PROC		; Ogre::Archive::serialize, COMDAT
; _this$ = ecx

; 155  : 		{

	push	ebp
	mov	ebp, esp
	push	ecx
	mov	DWORD PTR _this$[ebp], ecx

; 156  : 			if(isLoading()) m_pStream->read(pbuf, len);

	mov	ecx, DWORD PTR _this$[ebp]
	call	?isLoading@Archive@Ogre@@QAE_NXZ	; Ogre::Archive::isLoading
	movzx	eax, al
	test	eax, eax
	je	SHORT $LN2@serialize
	mov	ecx, DWORD PTR _len$[ebp]
	push	ecx
	mov	edx, DWORD PTR _pbuf$[ebp]
	push	edx
	mov	eax, DWORD PTR _this$[ebp]
	mov	ecx, DWORD PTR [eax+4]
	mov	edx, DWORD PTR _this$[ebp]
	mov	eax, DWORD PTR [edx+4]
	mov	edx, DWORD PTR [ecx]
	mov	ecx, eax
	mov	eax, DWORD PTR [edx+4]
	call	eax
	jmp	SHORT $LN1@serialize
$LN2@serialize:

; 157  : 			else m_pStream->write(pbuf, len);

	mov	ecx, DWORD PTR _len$[ebp]
	push	ecx
	mov	edx, DWORD PTR _pbuf$[ebp]
	push	edx
	mov	eax, DWORD PTR _this$[ebp]
	mov	ecx, DWORD PTR [eax+4]
	mov	edx, DWORD PTR _this$[ebp]
	mov	eax, DWORD PTR [edx+4]
	mov	edx, DWORD PTR [ecx]
	mov	ecx, eax
	mov	eax, DWORD PTR [edx+8]
	call	eax
$LN1@serialize:

; 158  : 
; 159  : 			return *this;

	mov	eax, DWORD PTR _this$[ebp]

; 160  : 		}

	mov	esp, ebp
	pop	ebp
	ret	8
?serialize@Archive@Ogre@@QAEAAV12@PAXI@Z ENDP		; Ogre::Archive::serialize
_TEXT	ENDS
PUBLIC	?read@Archive@Ogre@@QAEXPAXI@Z			; Ogre::Archive::read
; Function compile flags: /Odtp
;	COMDAT ?read@Archive@Ogre@@QAEXPAXI@Z
_TEXT	SEGMENT
_this$ = -4						; size = 4
_pbuf$ = 8						; size = 4
_len$ = 12						; size = 4
?read@Archive@Ogre@@QAEXPAXI@Z PROC			; Ogre::Archive::read, COMDAT
; _this$ = ecx

; 163  : 		{

	push	ebp
	mov	ebp, esp
	push	ecx
	mov	DWORD PTR _this$[ebp], ecx

; 164  : 			m_pStream->read(pbuf, len);

	mov	eax, DWORD PTR _len$[ebp]
	push	eax
	mov	ecx, DWORD PTR _pbuf$[ebp]
	push	ecx
	mov	edx, DWORD PTR _this$[ebp]
	mov	eax, DWORD PTR [edx+4]
	mov	ecx, DWORD PTR _this$[ebp]
	mov	ecx, DWORD PTR [ecx+4]
	mov	edx, DWORD PTR [eax]
	mov	eax, DWORD PTR [edx+4]
	call	eax

; 165  : 		}

	mov	esp, ebp
	pop	ebp
	ret	8
?read@Archive@Ogre@@QAEXPAXI@Z ENDP			; Ogre::Archive::read
_TEXT	ENDS
PUBLIC	?write@Archive@Ogre@@QAEXPBXI@Z			; Ogre::Archive::write
; Function compile flags: /Odtp
;	COMDAT ?write@Archive@Ogre@@QAEXPBXI@Z
_TEXT	SEGMENT
_this$ = -4						; size = 4
_pbuf$ = 8						; size = 4
_len$ = 12						; size = 4
?write@Archive@Ogre@@QAEXPBXI@Z PROC			; Ogre::Archive::write, COMDAT
; _this$ = ecx

; 168  : 		{

	push	ebp
	mov	ebp, esp
	push	ecx
	mov	DWORD PTR _this$[ebp], ecx

; 169  : 			m_pStream->write(pbuf, len);

	mov	eax, DWORD PTR _len$[ebp]
	push	eax
	mov	ecx, DWORD PTR _pbuf$[ebp]
	push	ecx
	mov	edx, DWORD PTR _this$[ebp]
	mov	eax, DWORD PTR [edx+4]
	mov	ecx, DWORD PTR _this$[ebp]
	mov	ecx, DWORD PTR [ecx+4]
	mov	edx, DWORD PTR [eax]
	mov	eax, DWORD PTR [edx+8]
	call	eax

; 170  : 		}

	mov	esp, ebp
	pop	ebp
	ret	8
?write@Archive@Ogre@@QAEXPBXI@Z ENDP			; Ogre::Archive::write
_TEXT	ENDS
PUBLIC	??0Archive@Ogre@@QAE@ABV01@@Z			; Ogre::Archive::Archive
; Function compile flags: /Odtp
;	COMDAT ??0Archive@Ogre@@QAE@ABV01@@Z
_TEXT	SEGMENT
_this$ = -4						; size = 4
___that$ = 8						; size = 4
??0Archive@Ogre@@QAE@ABV01@@Z PROC			; Ogre::Archive::Archive, COMDAT
; _this$ = ecx
	push	ebp
	mov	ebp, esp
	push	ecx
	mov	DWORD PTR _this$[ebp], ecx
	mov	eax, DWORD PTR _this$[ebp]
	mov	DWORD PTR [eax], OFFSET ??_7Archive@Ogre@@6B@
	mov	ecx, DWORD PTR _this$[ebp]
	mov	edx, DWORD PTR ___that$[ebp]
	mov	eax, DWORD PTR [edx+4]
	mov	DWORD PTR [ecx+4], eax
	mov	ecx, DWORD PTR _this$[ebp]
	mov	edx, DWORD PTR ___that$[ebp]
	mov	eax, DWORD PTR [edx+8]
	mov	DWORD PTR [ecx+8], eax
	mov	eax, DWORD PTR _this$[ebp]
	mov	esp, ebp
	pop	ebp
	ret	4
??0Archive@Ogre@@QAE@ABV01@@Z ENDP			; Ogre::Archive::Archive
_TEXT	ENDS
PUBLIC	??4Archive@Ogre@@QAEAAV01@ABV01@@Z		; Ogre::Archive::operator=
; Function compile flags: /Odtp
;	COMDAT ??4Archive@Ogre@@QAEAAV01@ABV01@@Z
_TEXT	SEGMENT
_this$ = -4						; size = 4
___that$ = 8						; size = 4
??4Archive@Ogre@@QAEAAV01@ABV01@@Z PROC			; Ogre::Archive::operator=, COMDAT
; _this$ = ecx
	push	ebp
	mov	ebp, esp
	push	ecx
	mov	DWORD PTR _this$[ebp], ecx
	mov	eax, DWORD PTR _this$[ebp]
	mov	ecx, DWORD PTR ___that$[ebp]
	mov	edx, DWORD PTR [ecx+4]
	mov	DWORD PTR [eax+4], edx
	mov	eax, DWORD PTR _this$[ebp]
	mov	ecx, DWORD PTR ___that$[ebp]
	mov	edx, DWORD PTR [ecx+8]
	mov	DWORD PTR [eax+8], edx
	mov	eax, DWORD PTR _this$[ebp]
	mov	esp, ebp
	pop	ebp
	ret	4
??4Archive@Ogre@@QAEAAV01@ABV01@@Z ENDP			; Ogre::Archive::operator=
_TEXT	ENDS
PUBLIC	??_GArchive@Ogre@@UAEPAXI@Z			; Ogre::Archive::`scalar deleting destructor'
; Function compile flags: /Odtp
;	COMDAT ??_GArchive@Ogre@@UAEPAXI@Z
_TEXT	SEGMENT
_this$ = -4						; size = 4
___flags$ = 8						; size = 4
??_GArchive@Ogre@@UAEPAXI@Z PROC			; Ogre::Archive::`scalar deleting destructor', COMDAT
; _this$ = ecx
	push	ebp
	mov	ebp, esp
	push	ecx
	mov	DWORD PTR _this$[ebp], ecx
	mov	ecx, DWORD PTR _this$[ebp]
	call	??1Archive@Ogre@@UAE@XZ			; Ogre::Archive::~Archive
	mov	eax, DWORD PTR ___flags$[ebp]
	and	eax, 1
	je	SHORT $LN1@scalar@9
	mov	ecx, DWORD PTR _this$[ebp]
	push	ecx
	call	??3@YAXPAX@Z				; operator delete
	add	esp, 4
$LN1@scalar@9:
	mov	eax, DWORD PTR _this$[ebp]
	mov	esp, ebp
	pop	ebp
	ret	4
??_GArchive@Ogre@@UAEPAXI@Z ENDP			; Ogre::Archive::`scalar deleting destructor'
; Function compile flags: /Odtp
_TEXT	ENDS
;	COMDAT ??_EArchive@Ogre@@UAEPAXI@Z
_TEXT	SEGMENT
_this$ = -4						; size = 4
___flags$ = 8						; size = 4
??_EArchive@Ogre@@UAEPAXI@Z PROC			; Ogre::Archive::`vector deleting destructor', COMDAT
; _this$ = ecx
	push	ebp
	mov	ebp, esp
	push	ecx
	mov	DWORD PTR _this$[ebp], ecx
	mov	eax, DWORD PTR ___flags$[ebp]
	and	eax, 2
	je	SHORT $LN3@vector@9
	push	OFFSET ??1Archive@Ogre@@UAE@XZ		; Ogre::Archive::~Archive
	mov	ecx, DWORD PTR _this$[ebp]
	mov	edx, DWORD PTR [ecx-4]
	push	edx
	push	12					; 0000000cH
	mov	eax, DWORD PTR _this$[ebp]
	push	eax
	call	??_M@YGXPAXIHP6EX0@Z@Z
	mov	ecx, DWORD PTR ___flags$[ebp]
	and	ecx, 1
	je	SHORT $LN2@vector@9
	mov	edx, DWORD PTR _this$[ebp]
	sub	edx, 4
	push	edx
	call	??_V@YAXPAX@Z				; operator delete[]
	add	esp, 4
$LN2@vector@9:
	mov	eax, DWORD PTR _this$[ebp]
	sub	eax, 4
	jmp	SHORT $LN4@vector@9
$LN3@vector@9:
	mov	ecx, DWORD PTR _this$[ebp]
	call	??1Archive@Ogre@@UAE@XZ			; Ogre::Archive::~Archive
	mov	eax, DWORD PTR ___flags$[ebp]
	and	eax, 1
	je	SHORT $LN1@vector@9
	mov	ecx, DWORD PTR _this$[ebp]
	push	ecx
	call	??3@YAXPAX@Z				; operator delete
	add	esp, 4
$LN1@vector@9:
	mov	eax, DWORD PTR _this$[ebp]
$LN4@vector@9:
	mov	esp, ebp
	pop	ebp
	ret	4
??_EArchive@Ogre@@UAEPAXI@Z ENDP			; Ogre::Archive::`vector deleting destructor'
_TEXT	ENDS
PUBLIC	??0Vector3@Ogre@@QAE@XZ				; Ogre::Vector3::Vector3
; Function compile flags: /Odtp
; File i:\svnroot\client\ogremain\ogrevector3.h
;	COMDAT ??0Vector3@Ogre@@QAE@XZ
_TEXT	SEGMENT
_this$ = -4						; size = 4
??0Vector3@Ogre@@QAE@XZ PROC				; Ogre::Vector3::Vector3, COMDAT
; _this$ = ecx

; 49   : 		Vector3(){}

	push	ebp
	mov	ebp, esp
	push	ecx
	mov	DWORD PTR _this$[ebp], ecx
	mov	eax, DWORD PTR _this$[ebp]
	mov	esp, ebp
	pop	ebp
	ret	0
??0Vector3@Ogre@@QAE@XZ ENDP				; Ogre::Vector3::Vector3
_TEXT	ENDS
PUBLIC	??0Vector3@Ogre@@QAE@ABV01@@Z			; Ogre::Vector3::Vector3
EXTRN	__fltused:DWORD
; Function compile flags: /Odtp
;	COMDAT ??0Vector3@Ogre@@QAE@ABV01@@Z
_TEXT	SEGMENT
_this$ = -4						; size = 4
_rhs$ = 8						; size = 4
??0Vector3@Ogre@@QAE@ABV01@@Z PROC			; Ogre::Vector3::Vector3, COMDAT
; _this$ = ecx

; 50   : 		Vector3(const Vector3 &rhs)

	push	ebp
	mov	ebp, esp
	push	ecx
	mov	DWORD PTR _this$[ebp], ecx

; 51   : 		{
; 52   : 			x = rhs.x;

	mov	eax, DWORD PTR _this$[ebp]
	mov	ecx, DWORD PTR _rhs$[ebp]
	fld	DWORD PTR [ecx]
	fstp	DWORD PTR [eax]

; 53   : 			y = rhs.y;

	mov	edx, DWORD PTR _this$[ebp]
	mov	eax, DWORD PTR _rhs$[ebp]
	fld	DWORD PTR [eax+4]
	fstp	DWORD PTR [edx+4]

; 54   : 			z = rhs.z;

	mov	ecx, DWORD PTR _this$[ebp]
	mov	edx, DWORD PTR _rhs$[ebp]
	fld	DWORD PTR [edx+8]
	fstp	DWORD PTR [ecx+8]

; 55   : 		}

	mov	eax, DWORD PTR _this$[ebp]
	mov	esp, ebp
	pop	ebp
	ret	4
??0Vector3@Ogre@@QAE@ABV01@@Z ENDP			; Ogre::Vector3::Vector3
_TEXT	ENDS
PUBLIC	??0Vector3@Ogre@@QAE@MMM@Z			; Ogre::Vector3::Vector3
; Function compile flags: /Odtp
;	COMDAT ??0Vector3@Ogre@@QAE@MMM@Z
_TEXT	SEGMENT
_this$ = -4						; size = 4
_x1$ = 8						; size = 4
_y1$ = 12						; size = 4
_z1$ = 16						; size = 4
??0Vector3@Ogre@@QAE@MMM@Z PROC				; Ogre::Vector3::Vector3, COMDAT
; _this$ = ecx

; 56   : 		Vector3( float x1, float y1, float z1 ) : x(x1), y(y1), z(z1){}

	push	ebp
	mov	ebp, esp
	push	ecx
	mov	DWORD PTR _this$[ebp], ecx
	mov	eax, DWORD PTR _this$[ebp]
	fld	DWORD PTR _x1$[ebp]
	fstp	DWORD PTR [eax]
	mov	ecx, DWORD PTR _this$[ebp]
	fld	DWORD PTR _y1$[ebp]
	fstp	DWORD PTR [ecx+4]
	mov	edx, DWORD PTR _this$[ebp]
	fld	DWORD PTR _z1$[ebp]
	fstp	DWORD PTR [edx+8]
	mov	eax, DWORD PTR _this$[ebp]
	mov	esp, ebp
	pop	ebp
	ret	12					; 0000000cH
??0Vector3@Ogre@@QAE@MMM@Z ENDP				; Ogre::Vector3::Vector3
_TEXT	ENDS
PUBLIC	??0Vector3@Ogre@@QAE@M@Z			; Ogre::Vector3::Vector3
; Function compile flags: /Odtp
;	COMDAT ??0Vector3@Ogre@@QAE@M@Z
_TEXT	SEGMENT
_this$ = -4						; size = 4
_v$ = 8							; size = 4
??0Vector3@Ogre@@QAE@M@Z PROC				; Ogre::Vector3::Vector3, COMDAT
; _this$ = ecx

; 57   : 		Vector3(float v) : x(v), y(v), z(v){}

	push	ebp
	mov	ebp, esp
	push	ecx
	mov	DWORD PTR _this$[ebp], ecx
	mov	eax, DWORD PTR _this$[ebp]
	fld	DWORD PTR _v$[ebp]
	fstp	DWORD PTR [eax]
	mov	ecx, DWORD PTR _this$[ebp]
	fld	DWORD PTR _v$[ebp]
	fstp	DWORD PTR [ecx+4]
	mov	edx, DWORD PTR _this$[ebp]
	fld	DWORD PTR _v$[ebp]
	fstp	DWORD PTR [edx+8]
	mov	eax, DWORD PTR _this$[ebp]
	mov	esp, ebp
	pop	ebp
	ret	4
??0Vector3@Ogre@@QAE@M@Z ENDP				; Ogre::Vector3::Vector3
_TEXT	ENDS
PUBLIC	??0Vector3@Ogre@@QAE@PAM@Z			; Ogre::Vector3::Vector3
; Function compile flags: /Odtp
;	COMDAT ??0Vector3@Ogre@@QAE@PAM@Z
_TEXT	SEGMENT
_this$ = -4						; size = 4
_v$ = 8							; size = 4
??0Vector3@Ogre@@QAE@PAM@Z PROC				; Ogre::Vector3::Vector3, COMDAT
; _this$ = ecx

; 58   : 		Vector3(float* v) : x(v[0]), y(v[1]), z(v[2]){}

	push	ebp
	mov	ebp, esp
	push	ecx
	mov	DWORD PTR _this$[ebp], ecx
	mov	eax, DWORD PTR _this$[ebp]
	mov	ecx, DWORD PTR _v$[ebp]
	fld	DWORD PTR [ecx]
	fstp	DWORD PTR [eax]
	mov	edx, DWORD PTR _this$[ebp]
	mov	eax, DWORD PTR _v$[ebp]
	fld	DWORD PTR [eax+4]
	fstp	DWORD PTR [edx+4]
	mov	ecx, DWORD PTR _this$[ebp]
	mov	edx, DWORD PTR _v$[ebp]
	fld	DWORD PTR [edx+8]
	fstp	DWORD PTR [ecx+8]
	mov	eax, DWORD PTR _this$[ebp]
	mov	esp, ebp
	pop	ebp
	ret	4
??0Vector3@Ogre@@QAE@PAM@Z ENDP				; Ogre::Vector3::Vector3
_TEXT	ENDS
PUBLIC	??4Vector3@Ogre@@QAEABV01@ABV01@@Z		; Ogre::Vector3::operator=
; Function compile flags: /Odtp
;	COMDAT ??4Vector3@Ogre@@QAEABV01@ABV01@@Z
_TEXT	SEGMENT
_this$ = -4						; size = 4
_vec$ = 8						; size = 4
??4Vector3@Ogre@@QAEABV01@ABV01@@Z PROC			; Ogre::Vector3::operator=, COMDAT
; _this$ = ecx

; 61   : 		{

	push	ebp
	mov	ebp, esp
	push	ecx
	mov	DWORD PTR _this$[ebp], ecx

; 62   : 			x = vec.x;

	mov	eax, DWORD PTR _this$[ebp]
	mov	ecx, DWORD PTR _vec$[ebp]
	fld	DWORD PTR [ecx]
	fstp	DWORD PTR [eax]

; 63   : 			y = vec.y;

	mov	edx, DWORD PTR _this$[ebp]
	mov	eax, DWORD PTR _vec$[ebp]
	fld	DWORD PTR [eax+4]
	fstp	DWORD PTR [edx+4]

; 64   : 			z = vec.z;

	mov	ecx, DWORD PTR _this$[ebp]
	mov	edx, DWORD PTR _vec$[ebp]
	fld	DWORD PTR [edx+8]
	fstp	DWORD PTR [ecx+8]

; 65   : 			return *this;

	mov	eax, DWORD PTR _this$[ebp]

; 66   : 		}

	mov	esp, ebp
	pop	ebp
	ret	4
??4Vector3@Ogre@@QAEABV01@ABV01@@Z ENDP			; Ogre::Vector3::operator=
_TEXT	ENDS
PUBLIC	??YVector3@Ogre@@QAEXABV01@@Z			; Ogre::Vector3::operator+=
; Function compile flags: /Odtp
;	COMDAT ??YVector3@Ogre@@QAEXABV01@@Z
_TEXT	SEGMENT
_this$ = -4						; size = 4
_vec$ = 8						; size = 4
??YVector3@Ogre@@QAEXABV01@@Z PROC			; Ogre::Vector3::operator+=, COMDAT
; _this$ = ecx

; 68   : 		{

	push	ebp
	mov	ebp, esp
	push	ecx
	mov	DWORD PTR _this$[ebp], ecx

; 69   : 			x += vec.x;

	mov	eax, DWORD PTR _this$[ebp]
	fld	DWORD PTR [eax]
	mov	ecx, DWORD PTR _vec$[ebp]
	fadd	DWORD PTR [ecx]
	mov	edx, DWORD PTR _this$[ebp]
	fstp	DWORD PTR [edx]

; 70   : 			y += vec.y;

	mov	eax, DWORD PTR _this$[ebp]
	fld	DWORD PTR [eax+4]
	mov	ecx, DWORD PTR _vec$[ebp]
	fadd	DWORD PTR [ecx+4]
	mov	edx, DWORD PTR _this$[ebp]
	fstp	DWORD PTR [edx+4]

; 71   : 			z += vec.z;

	mov	eax, DWORD PTR _this$[ebp]
	fld	DWORD PTR [eax+8]
	mov	ecx, DWORD PTR _vec$[ebp]
	fadd	DWORD PTR [ecx+8]
	mov	edx, DWORD PTR _this$[ebp]
	fstp	DWORD PTR [edx+8]

; 72   : 		}

	mov	esp, ebp
	pop	ebp
	ret	4
??YVector3@Ogre@@QAEXABV01@@Z ENDP			; Ogre::Vector3::operator+=
_TEXT	ENDS
PUBLIC	??ZVector3@Ogre@@QAEXABV01@@Z			; Ogre::Vector3::operator-=
; Function compile flags: /Odtp
;	COMDAT ??ZVector3@Ogre@@QAEXABV01@@Z
_TEXT	SEGMENT
_this$ = -4						; size = 4
_vec$ = 8						; size = 4
??ZVector3@Ogre@@QAEXABV01@@Z PROC			; Ogre::Vector3::operator-=, COMDAT
; _this$ = ecx

; 74   : 		{

	push	ebp
	mov	ebp, esp
	push	ecx
	mov	DWORD PTR _this$[ebp], ecx

; 75   : 			x -= vec.x;

	mov	eax, DWORD PTR _this$[ebp]
	fld	DWORD PTR [eax]
	mov	ecx, DWORD PTR _vec$[ebp]
	fsub	DWORD PTR [ecx]
	mov	edx, DWORD PTR _this$[ebp]
	fstp	DWORD PTR [edx]

; 76   : 			y -= vec.y;

	mov	eax, DWORD PTR _this$[ebp]
	fld	DWORD PTR [eax+4]
	mov	ecx, DWORD PTR _vec$[ebp]
	fsub	DWORD PTR [ecx+4]
	mov	edx, DWORD PTR _this$[ebp]
	fstp	DWORD PTR [edx+4]

; 77   : 			z -= vec.z;

	mov	eax, DWORD PTR _this$[ebp]
	fld	DWORD PTR [eax+8]
	mov	ecx, DWORD PTR _vec$[ebp]
	fsub	DWORD PTR [ecx+8]
	mov	edx, DWORD PTR _this$[ebp]
	fstp	DWORD PTR [edx+8]

; 78   : 		}

	mov	esp, ebp
	pop	ebp
	ret	4
??ZVector3@Ogre@@QAEXABV01@@Z ENDP			; Ogre::Vector3::operator-=
_TEXT	ENDS
PUBLIC	??XVector3@Ogre@@QAEXM@Z			; Ogre::Vector3::operator*=
; Function compile flags: /Odtp
;	COMDAT ??XVector3@Ogre@@QAEXM@Z
_TEXT	SEGMENT
_this$ = -4						; size = 4
_s$ = 8							; size = 4
??XVector3@Ogre@@QAEXM@Z PROC				; Ogre::Vector3::operator*=, COMDAT
; _this$ = ecx

; 81   : 		{

	push	ebp
	mov	ebp, esp
	push	ecx
	mov	DWORD PTR _this$[ebp], ecx

; 82   : 			x *= s;

	mov	eax, DWORD PTR _this$[ebp]
	fld	DWORD PTR [eax]
	fmul	DWORD PTR _s$[ebp]
	mov	ecx, DWORD PTR _this$[ebp]
	fstp	DWORD PTR [ecx]

; 83   : 			y *= s;

	mov	edx, DWORD PTR _this$[ebp]
	fld	DWORD PTR [edx+4]
	fmul	DWORD PTR _s$[ebp]
	mov	eax, DWORD PTR _this$[ebp]
	fstp	DWORD PTR [eax+4]

; 84   : 			z *= s;

	mov	ecx, DWORD PTR _this$[ebp]
	fld	DWORD PTR [ecx+8]
	fmul	DWORD PTR _s$[ebp]
	mov	edx, DWORD PTR _this$[ebp]
	fstp	DWORD PTR [edx+8]

; 85   : 		}

	mov	esp, ebp
	pop	ebp
	ret	4
??XVector3@Ogre@@QAEXM@Z ENDP				; Ogre::Vector3::operator*=
_TEXT	ENDS
PUBLIC	??XVector3@Ogre@@QAEXABV01@@Z			; Ogre::Vector3::operator*=
; Function compile flags: /Odtp
;	COMDAT ??XVector3@Ogre@@QAEXABV01@@Z
_TEXT	SEGMENT
_this$ = -4						; size = 4
_vec$ = 8						; size = 4
??XVector3@Ogre@@QAEXABV01@@Z PROC			; Ogre::Vector3::operator*=, COMDAT
; _this$ = ecx

; 88   : 		{

	push	ebp
	mov	ebp, esp
	push	ecx
	mov	DWORD PTR _this$[ebp], ecx

; 89   : 			x *= vec.x;

	mov	eax, DWORD PTR _this$[ebp]
	fld	DWORD PTR [eax]
	mov	ecx, DWORD PTR _vec$[ebp]
	fmul	DWORD PTR [ecx]
	mov	edx, DWORD PTR _this$[ebp]
	fstp	DWORD PTR [edx]

; 90   : 			y *= vec.y;

	mov	eax, DWORD PTR _this$[ebp]
	fld	DWORD PTR [eax+4]
	mov	ecx, DWORD PTR _vec$[ebp]
	fmul	DWORD PTR [ecx+4]
	mov	edx, DWORD PTR _this$[ebp]
	fstp	DWORD PTR [edx+4]

; 91   : 			z *= vec.z;

	mov	eax, DWORD PTR _this$[ebp]
	fld	DWORD PTR [eax+8]
	mov	ecx, DWORD PTR _vec$[ebp]
	fmul	DWORD PTR [ecx+8]
	mov	edx, DWORD PTR _this$[ebp]
	fstp	DWORD PTR [edx+8]

; 92   : 		}

	mov	esp, ebp
	pop	ebp
	ret	4
??XVector3@Ogre@@QAEXABV01@@Z ENDP			; Ogre::Vector3::operator*=
_TEXT	ENDS
PUBLIC	??_0Vector3@Ogre@@QAEXM@Z			; Ogre::Vector3::operator/=
; Function compile flags: /Odtp
;	COMDAT ??_0Vector3@Ogre@@QAEXM@Z
_TEXT	SEGMENT
_this$ = -4						; size = 4
_s$ = 8							; size = 4
??_0Vector3@Ogre@@QAEXM@Z PROC				; Ogre::Vector3::operator/=, COMDAT
; _this$ = ecx

; 95   : 		{

	push	ebp
	mov	ebp, esp
	push	ecx
	mov	DWORD PTR _this$[ebp], ecx

; 96   : 			x /= s;

	mov	eax, DWORD PTR _this$[ebp]
	fld	DWORD PTR [eax]
	fdiv	DWORD PTR _s$[ebp]
	mov	ecx, DWORD PTR _this$[ebp]
	fstp	DWORD PTR [ecx]

; 97   : 			y /= s;

	mov	edx, DWORD PTR _this$[ebp]
	fld	DWORD PTR [edx+4]
	fdiv	DWORD PTR _s$[ebp]
	mov	eax, DWORD PTR _this$[ebp]
	fstp	DWORD PTR [eax+4]

; 98   : 			z /= s;

	mov	ecx, DWORD PTR _this$[ebp]
	fld	DWORD PTR [ecx+8]
	fdiv	DWORD PTR _s$[ebp]
	mov	edx, DWORD PTR _this$[ebp]
	fstp	DWORD PTR [edx+8]

; 99   : 		}

	mov	esp, ebp
	pop	ebp
	ret	4
??_0Vector3@Ogre@@QAEXM@Z ENDP				; Ogre::Vector3::operator/=
_TEXT	ENDS
PUBLIC	??BVector3@Ogre@@QAEPAMXZ			; Ogre::Vector3::operator float *
; Function compile flags: /Odtp
;	COMDAT ??BVector3@Ogre@@QAEPAMXZ
_TEXT	SEGMENT
_this$ = -4						; size = 4
??BVector3@Ogre@@QAEPAMXZ PROC				; Ogre::Vector3::operator float *, COMDAT
; _this$ = ecx

; 101  : 		{

	push	ebp
	mov	ebp, esp
	push	ecx
	mov	DWORD PTR _this$[ebp], ecx

; 102  : 			return &x;

	mov	eax, DWORD PTR _this$[ebp]

; 103  : 		}

	mov	esp, ebp
	pop	ebp
	ret	0
??BVector3@Ogre@@QAEPAMXZ ENDP				; Ogre::Vector3::operator float *
_TEXT	ENDS
PUBLIC	??BVector3@Ogre@@QBEPBMXZ			; Ogre::Vector3::operator float const *
; Function compile flags: /Odtp
;	COMDAT ??BVector3@Ogre@@QBEPBMXZ
_TEXT	SEGMENT
_this$ = -4						; size = 4
??BVector3@Ogre@@QBEPBMXZ PROC				; Ogre::Vector3::operator float const *, COMDAT
; _this$ = ecx

; 105  : 		{

	push	ebp
	mov	ebp, esp
	push	ecx
	mov	DWORD PTR _this$[ebp], ecx

; 106  : 			return &x;

	mov	eax, DWORD PTR _this$[ebp]

; 107  : 		}

	mov	esp, ebp
	pop	ebp
	ret	0
??BVector3@Ogre@@QBEPBMXZ ENDP				; Ogre::Vector3::operator float const *
_TEXT	ENDS
PUBLIC	??HVector3@Ogre@@QBE?AV01@XZ			; Ogre::Vector3::operator+
; Function compile flags: /Odtp
;	COMDAT ??HVector3@Ogre@@QBE?AV01@XZ
_TEXT	SEGMENT
_this$ = -4						; size = 4
___$ReturnUdt$ = 8					; size = 4
??HVector3@Ogre@@QBE?AV01@XZ PROC			; Ogre::Vector3::operator+, COMDAT
; _this$ = ecx

; 109  : 		{

	push	ebp
	mov	ebp, esp
	push	ecx
	mov	DWORD PTR _this$[ebp], ecx

; 110  : 			return *this;

	mov	eax, DWORD PTR _this$[ebp]
	push	eax
	mov	ecx, DWORD PTR ___$ReturnUdt$[ebp]
	call	??0Vector3@Ogre@@QAE@ABV01@@Z		; Ogre::Vector3::Vector3
	mov	eax, DWORD PTR ___$ReturnUdt$[ebp]

; 111  : 		}

	mov	esp, ebp
	pop	ebp
	ret	4
??HVector3@Ogre@@QBE?AV01@XZ ENDP			; Ogre::Vector3::operator+
_TEXT	ENDS
PUBLIC	??GVector3@Ogre@@QBE?AV01@XZ			; Ogre::Vector3::operator-
; Function compile flags: /Odtp
;	COMDAT ??GVector3@Ogre@@QBE?AV01@XZ
_TEXT	SEGMENT
_this$ = -4						; size = 4
___$ReturnUdt$ = 8					; size = 4
??GVector3@Ogre@@QBE?AV01@XZ PROC			; Ogre::Vector3::operator-, COMDAT
; _this$ = ecx

; 113  : 		{

	push	ebp
	mov	ebp, esp
	push	ecx
	mov	DWORD PTR _this$[ebp], ecx

; 114  : 			return Vector3(-x, -y, -z);

	mov	eax, DWORD PTR _this$[ebp]
	fld	DWORD PTR [eax+8]
	fchs
	push	ecx
	fstp	DWORD PTR [esp]
	mov	ecx, DWORD PTR _this$[ebp]
	fld	DWORD PTR [ecx+4]
	fchs
	push	ecx
	fstp	DWORD PTR [esp]
	mov	edx, DWORD PTR _this$[ebp]
	fld	DWORD PTR [edx]
	fchs
	push	ecx
	fstp	DWORD PTR [esp]
	mov	ecx, DWORD PTR ___$ReturnUdt$[ebp]
	call	??0Vector3@Ogre@@QAE@MMM@Z		; Ogre::Vector3::Vector3
	mov	eax, DWORD PTR ___$ReturnUdt$[ebp]

; 115  : 		}

	mov	esp, ebp
	pop	ebp
	ret	4
??GVector3@Ogre@@QBE?AV01@XZ ENDP			; Ogre::Vector3::operator-
_TEXT	ENDS
PUBLIC	??8Vector3@Ogre@@QBE_NABV01@@Z			; Ogre::Vector3::operator==
; Function compile flags: /Odtp
;	COMDAT ??8Vector3@Ogre@@QBE_NABV01@@Z
_TEXT	SEGMENT
tv77 = -8						; size = 4
_this$ = -4						; size = 4
_vec$ = 8						; size = 4
??8Vector3@Ogre@@QBE_NABV01@@Z PROC			; Ogre::Vector3::operator==, COMDAT
; _this$ = ecx

; 117  : 		{

	push	ebp
	mov	ebp, esp
	sub	esp, 8
	mov	DWORD PTR _this$[ebp], ecx

; 118  : 			return (x==vec.x && y==vec.y && z==vec.z);

	mov	eax, DWORD PTR _this$[ebp]
	fld	DWORD PTR [eax]
	mov	ecx, DWORD PTR _vec$[ebp]
	fld	DWORD PTR [ecx]
	fucompp
	fnstsw	ax
	test	ah, 68					; 00000044H
	jp	SHORT $LN3@operator
	mov	edx, DWORD PTR _this$[ebp]
	fld	DWORD PTR [edx+4]
	mov	eax, DWORD PTR _vec$[ebp]
	fld	DWORD PTR [eax+4]
	fucompp
	fnstsw	ax
	test	ah, 68					; 00000044H
	jp	SHORT $LN3@operator
	mov	ecx, DWORD PTR _this$[ebp]
	fld	DWORD PTR [ecx+8]
	mov	edx, DWORD PTR _vec$[ebp]
	fld	DWORD PTR [edx+8]
	fucompp
	fnstsw	ax
	test	ah, 68					; 00000044H
	jp	SHORT $LN3@operator
	mov	DWORD PTR tv77[ebp], 1
	jmp	SHORT $LN4@operator
$LN3@operator:
	mov	DWORD PTR tv77[ebp], 0
$LN4@operator:
	mov	al, BYTE PTR tv77[ebp]

; 119  : 		}

	mov	esp, ebp
	pop	ebp
	ret	4
??8Vector3@Ogre@@QBE_NABV01@@Z ENDP			; Ogre::Vector3::operator==
_TEXT	ENDS
PUBLIC	?setElement@Vector3@Ogre@@QAEXMMM@Z		; Ogre::Vector3::setElement
; Function compile flags: /Odtp
;	COMDAT ?setElement@Vector3@Ogre@@QAEXMMM@Z
_TEXT	SEGMENT
_this$ = -4						; size = 4
_x1$ = 8						; size = 4
_y1$ = 12						; size = 4
_z1$ = 16						; size = 4
?setElement@Vector3@Ogre@@QAEXMMM@Z PROC		; Ogre::Vector3::setElement, COMDAT
; _this$ = ecx

; 121  : 		{

	push	ebp
	mov	ebp, esp
	push	ecx
	mov	DWORD PTR _this$[ebp], ecx

; 122  : 			x = x1;

	mov	eax, DWORD PTR _this$[ebp]
	fld	DWORD PTR _x1$[ebp]
	fstp	DWORD PTR [eax]

; 123  : 			y = y1;

	mov	ecx, DWORD PTR _this$[ebp]
	fld	DWORD PTR _y1$[ebp]
	fstp	DWORD PTR [ecx+4]

; 124  : 			z = z1;

	mov	edx, DWORD PTR _this$[ebp]
	fld	DWORD PTR _z1$[ebp]
	fstp	DWORD PTR [edx+8]

; 125  : 		}

	mov	esp, ebp
	pop	ebp
	ret	12					; 0000000cH
?setElement@Vector3@Ogre@@QAEXMMM@Z ENDP		; Ogre::Vector3::setElement
_TEXT	ENDS
PUBLIC	?setElement@Vector3@Ogre@@QAEXPAM@Z		; Ogre::Vector3::setElement
; Function compile flags: /Odtp
;	COMDAT ?setElement@Vector3@Ogre@@QAEXPAM@Z
_TEXT	SEGMENT
_this$ = -4						; size = 4
_p$ = 8							; size = 4
?setElement@Vector3@Ogre@@QAEXPAM@Z PROC		; Ogre::Vector3::setElement, COMDAT
; _this$ = ecx

; 127  : 		{

	push	ebp
	mov	ebp, esp
	push	ecx
	mov	DWORD PTR _this$[ebp], ecx

; 128  : 			x = p[0];

	mov	eax, DWORD PTR _this$[ebp]
	mov	ecx, DWORD PTR _p$[ebp]
	fld	DWORD PTR [ecx]
	fstp	DWORD PTR [eax]

; 129  : 			y = p[1];

	mov	edx, DWORD PTR _this$[ebp]
	mov	eax, DWORD PTR _p$[ebp]
	fld	DWORD PTR [eax+4]
	fstp	DWORD PTR [edx+4]

; 130  : 			z = p[2];

	mov	ecx, DWORD PTR _this$[ebp]
	mov	edx, DWORD PTR _p$[ebp]
	fld	DWORD PTR [edx+8]
	fstp	DWORD PTR [ecx+8]

; 131  : 		}

	mov	esp, ebp
	pop	ebp
	ret	4
?setElement@Vector3@Ogre@@QAEXPAM@Z ENDP		; Ogre::Vector3::setElement
_TEXT	ENDS
PUBLIC	?Sqrt@Ogre@@YAMM@Z				; Ogre::Sqrt
PUBLIC	?length@Vector3@Ogre@@QBEMXZ			; Ogre::Vector3::length
; Function compile flags: /Odtp
;	COMDAT ?length@Vector3@Ogre@@QBEMXZ
_TEXT	SEGMENT
tv88 = -8						; size = 4
_this$ = -4						; size = 4
?length@Vector3@Ogre@@QBEMXZ PROC			; Ogre::Vector3::length, COMDAT
; _this$ = ecx

; 133  : 		{

	push	ebp
	mov	ebp, esp
	sub	esp, 8
	mov	DWORD PTR _this$[ebp], ecx

; 134  : 			return (float)Sqrt(x*x+y*y+z*z);

	mov	eax, DWORD PTR _this$[ebp]
	fld	DWORD PTR [eax]
	mov	ecx, DWORD PTR _this$[ebp]
	fmul	DWORD PTR [ecx]
	mov	edx, DWORD PTR _this$[ebp]
	fld	DWORD PTR [edx+4]
	mov	eax, DWORD PTR _this$[ebp]
	fmul	DWORD PTR [eax+4]
	faddp	ST(1), ST(0)
	mov	ecx, DWORD PTR _this$[ebp]
	fld	DWORD PTR [ecx+8]
	mov	edx, DWORD PTR _this$[ebp]
	fmul	DWORD PTR [edx+8]
	faddp	ST(1), ST(0)
	fstp	DWORD PTR tv88[ebp]
	fld	DWORD PTR tv88[ebp]
	push	ecx
	fstp	DWORD PTR [esp]
	call	?Sqrt@Ogre@@YAMM@Z			; Ogre::Sqrt
	add	esp, 4

; 135  : 		}

	mov	esp, ebp
	pop	ebp
	ret	0
?length@Vector3@Ogre@@QBEMXZ ENDP			; Ogre::Vector3::length
_TEXT	ENDS
PUBLIC	?sqrt@@YAMM@Z					; sqrt
; Function compile flags: /Odtp
; File i:\svnroot\client\ogremain\ogremath.h
;	COMDAT ?Sqrt@Ogre@@YAMM@Z
_TEXT	SEGMENT
_x$ = 8							; size = 4
?Sqrt@Ogre@@YAMM@Z PROC					; Ogre::Sqrt, COMDAT

; 59   : 	{

	push	ebp
	mov	ebp, esp

; 60   : 		return (float)sqrt(x);

	push	ecx
	fld	DWORD PTR _x$[ebp]
	fstp	DWORD PTR [esp]
	call	?sqrt@@YAMM@Z				; sqrt
	add	esp, 4

; 61   : 	}

	pop	ebp
	ret	0
?Sqrt@Ogre@@YAMM@Z ENDP					; Ogre::Sqrt
_TEXT	ENDS
PUBLIC	_sqrtf
; Function compile flags: /Odtp
; File d:\program files (x86)\microsoft visual studio 9.0\vc\include\math.h
;	COMDAT ?sqrt@@YAMM@Z
_TEXT	SEGMENT
__X$ = 8						; size = 4
?sqrt@@YAMM@Z PROC					; sqrt, COMDAT

; 534  :         {return (sqrtf(_X)); }

	push	ebp
	mov	ebp, esp
	push	ecx
	fld	DWORD PTR __X$[ebp]
	fstp	DWORD PTR [esp]
	call	_sqrtf
	add	esp, 4
	pop	ebp
	ret	0
?sqrt@@YAMM@Z ENDP					; sqrt
_TEXT	ENDS
EXTRN	_sqrt:PROC
; Function compile flags: /Odtp
;	COMDAT _sqrtf
_TEXT	SEGMENT
tv73 = -4						; size = 4
__X$ = 8						; size = 4
_sqrtf	PROC						; COMDAT

; 423  :         {return ((float)sqrt((double)_X)); }

	push	ebp
	mov	ebp, esp
	push	ecx
	fld	DWORD PTR __X$[ebp]
	sub	esp, 8
	fstp	QWORD PTR [esp]
	call	_sqrt
	add	esp, 8
	fstp	DWORD PTR tv73[ebp]
	fld	DWORD PTR tv73[ebp]
	mov	esp, ebp
	pop	ebp
	ret	0
_sqrtf	ENDP
_TEXT	ENDS
PUBLIC	?lengthSqr@Vector3@Ogre@@QBEMXZ			; Ogre::Vector3::lengthSqr
; Function compile flags: /Odtp
; File i:\svnroot\client\ogremain\ogrevector3.h
;	COMDAT ?lengthSqr@Vector3@Ogre@@QBEMXZ
_TEXT	SEGMENT
tv88 = -8						; size = 4
_this$ = -4						; size = 4
?lengthSqr@Vector3@Ogre@@QBEMXZ PROC			; Ogre::Vector3::lengthSqr, COMDAT
; _this$ = ecx

; 137  : 		{

	push	ebp
	mov	ebp, esp
	sub	esp, 8
	mov	DWORD PTR _this$[ebp], ecx

; 138  : 			return (x*x+y*y+z*z);

	mov	eax, DWORD PTR _this$[ebp]
	fld	DWORD PTR [eax]
	mov	ecx, DWORD PTR _this$[ebp]
	fmul	DWORD PTR [ecx]
	mov	edx, DWORD PTR _this$[ebp]
	fld	DWORD PTR [edx+4]
	mov	eax, DWORD PTR _this$[ebp]
	fmul	DWORD PTR [eax+4]
	faddp	ST(1), ST(0)
	mov	ecx, DWORD PTR _this$[ebp]
	fld	DWORD PTR [ecx+8]
	mov	edx, DWORD PTR _this$[ebp]
	fmul	DWORD PTR [edx+8]
	faddp	ST(1), ST(0)
	fstp	DWORD PTR tv88[ebp]
	fld	DWORD PTR tv88[ebp]

; 139  : 		}

	mov	esp, ebp
	pop	ebp
	ret	0
?lengthSqr@Vector3@Ogre@@QBEMXZ ENDP			; Ogre::Vector3::lengthSqr
_TEXT	ENDS
PUBLIC	??0?$TBox@H@Ogre@@QAE@XZ			; Ogre::TBox<int>::TBox<int>
PUBLIC	??0PixelBox@Ogre@@QAE@XZ			; Ogre::PixelBox::PixelBox
; Function compile flags: /Odtp
; File i:\svnroot\client\ogremain\ogrepixelformat.h
;	COMDAT ??0PixelBox@Ogre@@QAE@XZ
_TEXT	SEGMENT
_this$ = -4						; size = 4
??0PixelBox@Ogre@@QAE@XZ PROC				; Ogre::PixelBox::PixelBox, COMDAT
; _this$ = ecx

; 183  : 		PixelBox() {}

	push	ebp
	mov	ebp, esp
	push	ecx
	mov	DWORD PTR _this$[ebp], ecx
	mov	ecx, DWORD PTR _this$[ebp]
	call	??0?$TBox@H@Ogre@@QAE@XZ		; Ogre::TBox<int>::TBox<int>
	mov	eax, DWORD PTR _this$[ebp]
	mov	esp, ebp
	pop	ebp
	ret	0
??0PixelBox@Ogre@@QAE@XZ ENDP				; Ogre::PixelBox::PixelBox
_TEXT	ENDS
PUBLIC	?setConsecutive@PixelBox@Ogre@@QAEXXZ		; Ogre::PixelBox::setConsecutive
PUBLIC	??0PixelBox@Ogre@@QAE@ABV?$TBox@H@1@W4PixelFormat@1@PAX@Z ; Ogre::PixelBox::PixelBox
; Function compile flags: /Odtp
;	COMDAT ??0PixelBox@Ogre@@QAE@ABV?$TBox@H@1@W4PixelFormat@1@PAX@Z
_TEXT	SEGMENT
_this$ = -4						; size = 4
_extents$ = 8						; size = 4
_pixelFormat$ = 12					; size = 4
_pixelData$ = 16					; size = 4
??0PixelBox@Ogre@@QAE@ABV?$TBox@H@1@W4PixelFormat@1@PAX@Z PROC ; Ogre::PixelBox::PixelBox, COMDAT
; _this$ = ecx

; 193  : 		{

	push	ebp
	mov	ebp, esp
	push	ecx
	mov	DWORD PTR _this$[ebp], ecx
	mov	eax, DWORD PTR _extents$[ebp]
	mov	ecx, DWORD PTR _this$[ebp]
	mov	edx, DWORD PTR [eax]
	mov	DWORD PTR [ecx], edx
	mov	edx, DWORD PTR [eax+4]
	mov	DWORD PTR [ecx+4], edx
	mov	edx, DWORD PTR [eax+8]
	mov	DWORD PTR [ecx+8], edx
	mov	edx, DWORD PTR [eax+12]
	mov	DWORD PTR [ecx+12], edx
	mov	edx, DWORD PTR [eax+16]
	mov	DWORD PTR [ecx+16], edx
	mov	eax, DWORD PTR [eax+20]
	mov	DWORD PTR [ecx+20], eax
	mov	ecx, DWORD PTR _this$[ebp]
	mov	edx, DWORD PTR _pixelData$[ebp]
	mov	DWORD PTR [ecx+24], edx
	mov	eax, DWORD PTR _this$[ebp]
	mov	ecx, DWORD PTR _pixelFormat$[ebp]
	mov	DWORD PTR [eax+28], ecx

; 194  : 			setConsecutive();

	mov	ecx, DWORD PTR _this$[ebp]
	call	?setConsecutive@PixelBox@Ogre@@QAEXXZ	; Ogre::PixelBox::setConsecutive

; 195  : 		}

	mov	eax, DWORD PTR _this$[ebp]
	mov	esp, ebp
	pop	ebp
	ret	12					; 0000000cH
??0PixelBox@Ogre@@QAE@ABV?$TBox@H@1@W4PixelFormat@1@PAX@Z ENDP ; Ogre::PixelBox::PixelBox
_TEXT	ENDS
PUBLIC	??0?$TBox@H@Ogre@@QAE@HHHHHH@Z			; Ogre::TBox<int>::TBox<int>
PUBLIC	??0PixelBox@Ogre@@QAE@IIIW4PixelFormat@1@PAX@Z	; Ogre::PixelBox::PixelBox
; Function compile flags: /Odtp
;	COMDAT ??0PixelBox@Ogre@@QAE@IIIW4PixelFormat@1@PAX@Z
_TEXT	SEGMENT
_this$ = -4						; size = 4
_width$ = 8						; size = 4
_height$ = 12						; size = 4
_depth$ = 16						; size = 4
_pixelFormat$ = 20					; size = 4
_pixelData$ = 24					; size = 4
??0PixelBox@Ogre@@QAE@IIIW4PixelFormat@1@PAX@Z PROC	; Ogre::PixelBox::PixelBox, COMDAT
; _this$ = ecx

; 208  : 		{

	push	ebp
	mov	ebp, esp
	push	ecx
	mov	DWORD PTR _this$[ebp], ecx
	mov	eax, DWORD PTR _depth$[ebp]
	push	eax
	mov	ecx, DWORD PTR _height$[ebp]
	push	ecx
	mov	edx, DWORD PTR _width$[ebp]
	push	edx
	push	0
	push	0
	push	0
	mov	ecx, DWORD PTR _this$[ebp]
	call	??0?$TBox@H@Ogre@@QAE@HHHHHH@Z		; Ogre::TBox<int>::TBox<int>
	mov	eax, DWORD PTR _this$[ebp]
	mov	ecx, DWORD PTR _pixelData$[ebp]
	mov	DWORD PTR [eax+24], ecx
	mov	edx, DWORD PTR _this$[ebp]
	mov	eax, DWORD PTR _pixelFormat$[ebp]
	mov	DWORD PTR [edx+28], eax

; 209  : 			setConsecutive();

	mov	ecx, DWORD PTR _this$[ebp]
	call	?setConsecutive@PixelBox@Ogre@@QAEXXZ	; Ogre::PixelBox::setConsecutive

; 210  : 		}

	mov	eax, DWORD PTR _this$[ebp]
	mov	esp, ebp
	pop	ebp
	ret	20					; 00000014H
??0PixelBox@Ogre@@QAE@IIIW4PixelFormat@1@PAX@Z ENDP	; Ogre::PixelBox::PixelBox
_TEXT	ENDS
PUBLIC	?getHeight@?$TBox@H@Ogre@@QBEHXZ		; Ogre::TBox<int>::getHeight
PUBLIC	?getWidth@?$TBox@H@Ogre@@QBEHXZ			; Ogre::TBox<int>::getWidth
; Function compile flags: /Odtp
;	COMDAT ?setConsecutive@PixelBox@Ogre@@QAEXXZ
_TEXT	SEGMENT
_this$ = -4						; size = 4
?setConsecutive@PixelBox@Ogre@@QAEXXZ PROC		; Ogre::PixelBox::setConsecutive, COMDAT
; _this$ = ecx

; 232  : 		{

	push	ebp
	mov	ebp, esp
	push	ecx
	push	esi
	mov	DWORD PTR _this$[ebp], ecx

; 233  : 			rowPitch = getWidth();

	mov	ecx, DWORD PTR _this$[ebp]
	call	?getWidth@?$TBox@H@Ogre@@QBEHXZ		; Ogre::TBox<int>::getWidth
	mov	ecx, DWORD PTR _this$[ebp]
	mov	DWORD PTR [ecx+32], eax

; 234  : 			slicePitch = getWidth()*getHeight();

	mov	ecx, DWORD PTR _this$[ebp]
	call	?getWidth@?$TBox@H@Ogre@@QBEHXZ		; Ogre::TBox<int>::getWidth
	mov	esi, eax
	mov	ecx, DWORD PTR _this$[ebp]
	call	?getHeight@?$TBox@H@Ogre@@QBEHXZ	; Ogre::TBox<int>::getHeight
	imul	esi, eax
	mov	edx, DWORD PTR _this$[ebp]
	mov	DWORD PTR [edx+36], esi

; 235  : 		}

	pop	esi
	mov	esp, ebp
	pop	ebp
	ret	0
?setConsecutive@PixelBox@Ogre@@QAEXXZ ENDP		; Ogre::PixelBox::setConsecutive
_TEXT	ENDS
PUBLIC	?getRowSkip@PixelBox@Ogre@@QBEIXZ		; Ogre::PixelBox::getRowSkip
; Function compile flags: /Odtp
;	COMDAT ?getRowSkip@PixelBox@Ogre@@QBEIXZ
_TEXT	SEGMENT
_this$ = -4						; size = 4
?getRowSkip@PixelBox@Ogre@@QBEIXZ PROC			; Ogre::PixelBox::getRowSkip, COMDAT
; _this$ = ecx

; 240  : 		size_t getRowSkip() const { return rowPitch - getWidth(); }

	push	ebp
	mov	ebp, esp
	push	ecx
	mov	DWORD PTR _this$[ebp], ecx
	mov	ecx, DWORD PTR _this$[ebp]
	call	?getWidth@?$TBox@H@Ogre@@QBEHXZ		; Ogre::TBox<int>::getWidth
	mov	ecx, DWORD PTR _this$[ebp]
	mov	edx, DWORD PTR [ecx+32]
	sub	edx, eax
	mov	eax, edx
	mov	esp, ebp
	pop	ebp
	ret	0
?getRowSkip@PixelBox@Ogre@@QBEIXZ ENDP			; Ogre::PixelBox::getRowSkip
_TEXT	ENDS
PUBLIC	?getSliceSkip@PixelBox@Ogre@@QBEIXZ		; Ogre::PixelBox::getSliceSkip
; Function compile flags: /Odtp
;	COMDAT ?getSliceSkip@PixelBox@Ogre@@QBEIXZ
_TEXT	SEGMENT
_this$ = -4						; size = 4
?getSliceSkip@PixelBox@Ogre@@QBEIXZ PROC		; Ogre::PixelBox::getSliceSkip, COMDAT
; _this$ = ecx

; 245  : 		size_t getSliceSkip() const { return slicePitch - (getHeight() * rowPitch); }

	push	ebp
	mov	ebp, esp
	push	ecx
	mov	DWORD PTR _this$[ebp], ecx
	mov	ecx, DWORD PTR _this$[ebp]
	call	?getHeight@?$TBox@H@Ogre@@QBEHXZ	; Ogre::TBox<int>::getHeight
	mov	ecx, DWORD PTR _this$[ebp]
	imul	eax, DWORD PTR [ecx+32]
	mov	edx, DWORD PTR _this$[ebp]
	mov	ecx, DWORD PTR [edx+36]
	sub	ecx, eax
	mov	eax, ecx
	mov	esp, ebp
	pop	ebp
	ret	0
?getSliceSkip@PixelBox@Ogre@@QBEIXZ ENDP		; Ogre::PixelBox::getSliceSkip
_TEXT	ENDS
PUBLIC	?isConsecutive@PixelBox@Ogre@@QBE_NXZ		; Ogre::PixelBox::isConsecutive
; Function compile flags: /Odtp
;	COMDAT ?isConsecutive@PixelBox@Ogre@@QBE_NXZ
_TEXT	SEGMENT
tv87 = -8						; size = 4
_this$ = -4						; size = 4
?isConsecutive@PixelBox@Ogre@@QBE_NXZ PROC		; Ogre::PixelBox::isConsecutive, COMDAT
; _this$ = ecx

; 251  : 		{ 

	push	ebp
	mov	ebp, esp
	sub	esp, 8
	push	esi
	mov	DWORD PTR _this$[ebp], ecx

; 252  : 			return rowPitch == getWidth() && slicePitch == getWidth()*getHeight(); 

	mov	ecx, DWORD PTR _this$[ebp]
	call	?getWidth@?$TBox@H@Ogre@@QBEHXZ		; Ogre::TBox<int>::getWidth
	mov	ecx, DWORD PTR _this$[ebp]
	cmp	DWORD PTR [ecx+32], eax
	jne	SHORT $LN3@isConsecut
	mov	ecx, DWORD PTR _this$[ebp]
	call	?getWidth@?$TBox@H@Ogre@@QBEHXZ		; Ogre::TBox<int>::getWidth
	mov	esi, eax
	mov	ecx, DWORD PTR _this$[ebp]
	call	?getHeight@?$TBox@H@Ogre@@QBEHXZ	; Ogre::TBox<int>::getHeight
	imul	esi, eax
	mov	edx, DWORD PTR _this$[ebp]
	cmp	DWORD PTR [edx+36], esi
	jne	SHORT $LN3@isConsecut
	mov	DWORD PTR tv87[ebp], 1
	jmp	SHORT $LN4@isConsecut
$LN3@isConsecut:
	mov	DWORD PTR tv87[ebp], 0
$LN4@isConsecut:
	mov	al, BYTE PTR tv87[ebp]

; 253  : 		}

	pop	esi
	mov	esp, ebp
	pop	ebp
	ret	0
?isConsecutive@PixelBox@Ogre@@QBE_NXZ ENDP		; Ogre::PixelBox::isConsecutive
_TEXT	ENDS
PUBLIC	??4?$TBox@H@Ogre@@QAEAAV01@ABV01@@Z		; Ogre::TBox<int>::operator=
; Function compile flags: /Odtp
;	COMDAT ??4?$TBox@H@Ogre@@QAEAAV01@ABV01@@Z
_TEXT	SEGMENT
_this$ = -4						; size = 4
___that$ = 8						; size = 4
??4?$TBox@H@Ogre@@QAEAAV01@ABV01@@Z PROC		; Ogre::TBox<int>::operator=, COMDAT
; _this$ = ecx
	push	ebp
	mov	ebp, esp
	push	ecx
	mov	DWORD PTR _this$[ebp], ecx
	mov	eax, DWORD PTR ___that$[ebp]
	mov	ecx, DWORD PTR _this$[ebp]
	mov	edx, DWORD PTR [eax]
	mov	DWORD PTR [ecx], edx
	mov	edx, DWORD PTR [eax+4]
	mov	DWORD PTR [ecx+4], edx
	mov	edx, DWORD PTR [eax+8]
	mov	DWORD PTR [ecx+8], edx
	mov	edx, DWORD PTR [eax+12]
	mov	DWORD PTR [ecx+12], edx
	mov	edx, DWORD PTR [eax+16]
	mov	DWORD PTR [ecx+16], edx
	mov	eax, DWORD PTR [eax+20]
	mov	DWORD PTR [ecx+20], eax
	mov	eax, DWORD PTR _this$[ebp]
	mov	esp, ebp
	pop	ebp
	ret	4
??4?$TBox@H@Ogre@@QAEAAV01@ABV01@@Z ENDP		; Ogre::TBox<int>::operator=
_TEXT	ENDS
PUBLIC	??4PixelBox@Ogre@@QAEAAV01@ABV01@@Z		; Ogre::PixelBox::operator=
; Function compile flags: /Odtp
;	COMDAT ??4PixelBox@Ogre@@QAEAAV01@ABV01@@Z
_TEXT	SEGMENT
_this$ = -4						; size = 4
___that$ = 8						; size = 4
??4PixelBox@Ogre@@QAEAAV01@ABV01@@Z PROC		; Ogre::PixelBox::operator=, COMDAT
; _this$ = ecx
	push	ebp
	mov	ebp, esp
	push	ecx
	push	esi
	push	edi
	mov	DWORD PTR _this$[ebp], ecx
	mov	esi, DWORD PTR ___that$[ebp]
	mov	ecx, 10					; 0000000aH
	mov	edi, DWORD PTR _this$[ebp]
	rep movsd
	mov	eax, DWORD PTR _this$[ebp]
	pop	edi
	pop	esi
	mov	esp, ebp
	pop	ebp
	ret	4
??4PixelBox@Ogre@@QAEAAV01@ABV01@@Z ENDP		; Ogre::PixelBox::operator=
_TEXT	ENDS
PUBLIC	??4PixelUtil@Ogre@@QAEAAV01@ABV01@@Z		; Ogre::PixelUtil::operator=
; Function compile flags: /Odtp
;	COMDAT ??4PixelUtil@Ogre@@QAEAAV01@ABV01@@Z
_TEXT	SEGMENT
_this$ = -4						; size = 4
___that$ = 8						; size = 4
??4PixelUtil@Ogre@@QAEAAV01@ABV01@@Z PROC		; Ogre::PixelUtil::operator=, COMDAT
; _this$ = ecx
	push	ebp
	mov	ebp, esp
	push	ecx
	mov	DWORD PTR _this$[ebp], ecx
	mov	eax, DWORD PTR _this$[ebp]
	mov	esp, ebp
	pop	ebp
	ret	4
??4PixelUtil@Ogre@@QAEAAV01@ABV01@@Z ENDP		; Ogre::PixelUtil::operator=
_TEXT	ENDS
PUBLIC	?getRTTI@VertexBuffer@Ogre@@UBEPBVRuntimeClass@2@XZ ; Ogre::VertexBuffer::getRTTI
EXTRN	?m_RTTI@VertexBuffer@Ogre@@2VRuntimeClass@2@B:BYTE ; Ogre::VertexBuffer::m_RTTI
; Function compile flags: /Odtp
; File i:\svnroot\client\ogremain\ogrerendertypes.h
;	COMDAT ?getRTTI@VertexBuffer@Ogre@@UBEPBVRuntimeClass@2@XZ
_TEXT	SEGMENT
_this$ = -4						; size = 4
?getRTTI@VertexBuffer@Ogre@@UBEPBVRuntimeClass@2@XZ PROC ; Ogre::VertexBuffer::getRTTI, COMDAT
; _this$ = ecx

; 223  : 		DECLARE_RTTI_VIRTUAL(VertexBuffer)

	push	ebp
	mov	ebp, esp
	push	ecx
	mov	DWORD PTR _this$[ebp], ecx
	mov	eax, OFFSET ?m_RTTI@VertexBuffer@Ogre@@2VRuntimeClass@2@B ; Ogre::VertexBuffer::m_RTTI
	mov	esp, ebp
	pop	ebp
	ret	0
?getRTTI@VertexBuffer@Ogre@@UBEPBVRuntimeClass@2@XZ ENDP ; Ogre::VertexBuffer::getRTTI
_TEXT	ENDS
PUBLIC	??_7VertexBuffer@Ogre@@6B@			; Ogre::VertexBuffer::`vftable'
PUBLIC	??0VertexBuffer@Ogre@@QAE@XZ			; Ogre::VertexBuffer::VertexBuffer
PUBLIC	??_R4VertexBuffer@Ogre@@6B@			; Ogre::VertexBuffer::`RTTI Complete Object Locator'
PUBLIC	??_R0?AVVertexBuffer@Ogre@@@8			; Ogre::VertexBuffer `RTTI Type Descriptor'
PUBLIC	??_R3VertexBuffer@Ogre@@8			; Ogre::VertexBuffer::`RTTI Class Hierarchy Descriptor'
PUBLIC	??_R2VertexBuffer@Ogre@@8			; Ogre::VertexBuffer::`RTTI Base Class Array'
PUBLIC	??_R1A@?0A@EA@VertexBuffer@Ogre@@8		; Ogre::VertexBuffer::`RTTI Base Class Descriptor at (0,-1,0,64)'
PUBLIC	??_EVertexBuffer@Ogre@@UAEPAXI@Z		; Ogre::VertexBuffer::`vector deleting destructor'
;	COMDAT ??_R1A@?0A@EA@VertexBuffer@Ogre@@8
rdata$r	SEGMENT
??_R1A@?0A@EA@VertexBuffer@Ogre@@8 DD FLAT:??_R0?AVVertexBuffer@Ogre@@@8 ; Ogre::VertexBuffer::`RTTI Base Class Descriptor at (0,-1,0,64)'
	DD	03H
	DD	00H
	DD	0ffffffffH
	DD	00H
	DD	040H
	DD	FLAT:??_R3VertexBuffer@Ogre@@8
rdata$r	ENDS
;	COMDAT ??_R2VertexBuffer@Ogre@@8
rdata$r	SEGMENT
??_R2VertexBuffer@Ogre@@8 DD FLAT:??_R1A@?0A@EA@VertexBuffer@Ogre@@8 ; Ogre::VertexBuffer::`RTTI Base Class Array'
	DD	FLAT:??_R1A@?0A@EA@Resource@Ogre@@8
	DD	FLAT:??_R1A@?0A@EA@BaseObject@Ogre@@8
	DD	FLAT:??_R13?0A@EA@MemoryDelegation@Ogre@@8
rdata$r	ENDS
;	COMDAT ??_R3VertexBuffer@Ogre@@8
rdata$r	SEGMENT
??_R3VertexBuffer@Ogre@@8 DD 00H			; Ogre::VertexBuffer::`RTTI Class Hierarchy Descriptor'
	DD	00H
	DD	04H
	DD	FLAT:??_R2VertexBuffer@Ogre@@8
rdata$r	ENDS
;	COMDAT ??_R0?AVVertexBuffer@Ogre@@@8
_DATA	SEGMENT
??_R0?AVVertexBuffer@Ogre@@@8 DD FLAT:??_7type_info@@6B@ ; Ogre::VertexBuffer `RTTI Type Descriptor'
	DD	00H
	DB	'.?AVVertexBuffer@Ogre@@', 00H
_DATA	ENDS
;	COMDAT ??_R4VertexBuffer@Ogre@@6B@
rdata$r	SEGMENT
??_R4VertexBuffer@Ogre@@6B@ DD 00H			; Ogre::VertexBuffer::`RTTI Complete Object Locator'
	DD	00H
	DD	00H
	DD	FLAT:??_R0?AVVertexBuffer@Ogre@@@8
	DD	FLAT:??_R3VertexBuffer@Ogre@@8
rdata$r	ENDS
;	COMDAT ??_7VertexBuffer@Ogre@@6B@
CONST	SEGMENT
??_7VertexBuffer@Ogre@@6B@ DD FLAT:??_R4VertexBuffer@Ogre@@6B@ ; Ogre::VertexBuffer::`vftable'
	DD	FLAT:?getRTTI@VertexBuffer@Ogre@@UBEPBVRuntimeClass@2@XZ
	DD	FLAT:?release@Resource@Ogre@@UAEXXZ
	DD	FLAT:?addRef@Resource@Ogre@@UAEXXZ
	DD	FLAT:?getRefCount@Resource@Ogre@@UAEHXZ
	DD	FLAT:?_serialize@BaseObject@Ogre@@UAEXAAVArchive@2@H@Z
	DD	FLAT:??_EVertexBuffer@Ogre@@UAEPAXI@Z
	DD	FLAT:?deleteThis@BaseObject@Ogre@@MAEXXZ
	DD	FLAT:__purecall
CONST	ENDS
;	COMDAT xdata$x
xdata$x	SEGMENT
__unwindtable$??0VertexBuffer@Ogre@@QAE@XZ DD 0ffffffffH
	DD	FLAT:__unwindfunclet$??0VertexBuffer@Ogre@@QAE@XZ$0
__ehfuncinfo$??0VertexBuffer@Ogre@@QAE@XZ DD 019930522H
	DD	01H
	DD	FLAT:__unwindtable$??0VertexBuffer@Ogre@@QAE@XZ
	DD	2 DUP(00H)
	DD	2 DUP(00H)
	DD	00H
	DD	00H
; Function compile flags: /Odtp
xdata$x	ENDS
;	COMDAT ??0VertexBuffer@Ogre@@QAE@XZ
_TEXT	SEGMENT
_this$ = -16						; size = 4
__$EHRec$ = -12						; size = 12
??0VertexBuffer@Ogre@@QAE@XZ PROC			; Ogre::VertexBuffer::VertexBuffer, COMDAT
; _this$ = ecx
	push	ebp
	mov	ebp, esp
	push	-1
	push	__ehhandler$??0VertexBuffer@Ogre@@QAE@XZ
	mov	eax, DWORD PTR fs:0
	push	eax
	push	ecx
	mov	eax, DWORD PTR ___security_cookie
	xor	eax, ebp
	push	eax
	lea	eax, DWORD PTR __$EHRec$[ebp]
	mov	DWORD PTR fs:0, eax
	mov	DWORD PTR _this$[ebp], ecx
	mov	ecx, DWORD PTR _this$[ebp]
	call	??0Resource@Ogre@@IAE@XZ		; Ogre::Resource::Resource
	mov	DWORD PTR __$EHRec$[ebp+8], 0
	mov	eax, DWORD PTR _this$[ebp]
	mov	DWORD PTR [eax], OFFSET ??_7VertexBuffer@Ogre@@6B@
	mov	DWORD PTR __$EHRec$[ebp+8], -1
	mov	eax, DWORD PTR _this$[ebp]
	mov	ecx, DWORD PTR __$EHRec$[ebp]
	mov	DWORD PTR fs:0, ecx
	pop	ecx
	mov	esp, ebp
	pop	ebp
	ret	0
_TEXT	ENDS
;	COMDAT text$x
text$x	SEGMENT
__unwindfunclet$??0VertexBuffer@Ogre@@QAE@XZ$0:
	mov	ecx, DWORD PTR _this$[ebp]
	jmp	??1Resource@Ogre@@MAE@XZ		; Ogre::Resource::~Resource
__ehhandler$??0VertexBuffer@Ogre@@QAE@XZ:
	mov	edx, DWORD PTR [esp+8]
	lea	eax, DWORD PTR [edx+12]
	mov	ecx, DWORD PTR [edx-8]
	xor	ecx, eax
	call	@__security_check_cookie@4
	mov	eax, OFFSET __ehfuncinfo$??0VertexBuffer@Ogre@@QAE@XZ
	jmp	___CxxFrameHandler3
text$x	ENDS
??0VertexBuffer@Ogre@@QAE@XZ ENDP			; Ogre::VertexBuffer::VertexBuffer
PUBLIC	??1VertexBuffer@Ogre@@UAE@XZ			; Ogre::VertexBuffer::~VertexBuffer
;	COMDAT xdata$x
xdata$x	SEGMENT
__unwindtable$??1VertexBuffer@Ogre@@UAE@XZ DD 0ffffffffH
	DD	FLAT:__unwindfunclet$??1VertexBuffer@Ogre@@UAE@XZ$0
__ehfuncinfo$??1VertexBuffer@Ogre@@UAE@XZ DD 019930522H
	DD	01H
	DD	FLAT:__unwindtable$??1VertexBuffer@Ogre@@UAE@XZ
	DD	2 DUP(00H)
	DD	2 DUP(00H)
	DD	00H
	DD	00H
; Function compile flags: /Odtp
xdata$x	ENDS
;	COMDAT ??1VertexBuffer@Ogre@@UAE@XZ
_TEXT	SEGMENT
_this$ = -16						; size = 4
__$EHRec$ = -12						; size = 12
??1VertexBuffer@Ogre@@UAE@XZ PROC			; Ogre::VertexBuffer::~VertexBuffer, COMDAT
; _this$ = ecx
	push	ebp
	mov	ebp, esp
	push	-1
	push	__ehhandler$??1VertexBuffer@Ogre@@UAE@XZ
	mov	eax, DWORD PTR fs:0
	push	eax
	push	ecx
	mov	eax, DWORD PTR ___security_cookie
	xor	eax, ebp
	push	eax
	lea	eax, DWORD PTR __$EHRec$[ebp]
	mov	DWORD PTR fs:0, eax
	mov	DWORD PTR _this$[ebp], ecx
	mov	DWORD PTR __$EHRec$[ebp+8], 0
	mov	DWORD PTR __$EHRec$[ebp+8], -1
	mov	ecx, DWORD PTR _this$[ebp]
	call	??1Resource@Ogre@@MAE@XZ		; Ogre::Resource::~Resource
	mov	ecx, DWORD PTR __$EHRec$[ebp]
	mov	DWORD PTR fs:0, ecx
	pop	ecx
	mov	esp, ebp
	pop	ebp
	ret	0
_TEXT	ENDS
;	COMDAT text$x
text$x	SEGMENT
__unwindfunclet$??1VertexBuffer@Ogre@@UAE@XZ$0:
	mov	ecx, DWORD PTR _this$[ebp]
	jmp	??1Resource@Ogre@@MAE@XZ		; Ogre::Resource::~Resource
__ehhandler$??1VertexBuffer@Ogre@@UAE@XZ:
	mov	edx, DWORD PTR [esp+8]
	lea	eax, DWORD PTR [edx+12]
	mov	ecx, DWORD PTR [edx-8]
	xor	ecx, eax
	call	@__security_check_cookie@4
	mov	eax, OFFSET __ehfuncinfo$??1VertexBuffer@Ogre@@UAE@XZ
	jmp	___CxxFrameHandler3
text$x	ENDS
??1VertexBuffer@Ogre@@UAE@XZ ENDP			; Ogre::VertexBuffer::~VertexBuffer
PUBLIC	??0VertexBuffer@Ogre@@QAE@ABV01@@Z		; Ogre::VertexBuffer::VertexBuffer
;	COMDAT xdata$x
xdata$x	SEGMENT
__unwindtable$??0VertexBuffer@Ogre@@QAE@ABV01@@Z DD 0ffffffffH
	DD	FLAT:__unwindfunclet$??0VertexBuffer@Ogre@@QAE@ABV01@@Z$0
__ehfuncinfo$??0VertexBuffer@Ogre@@QAE@ABV01@@Z DD 019930522H
	DD	01H
	DD	FLAT:__unwindtable$??0VertexBuffer@Ogre@@QAE@ABV01@@Z
	DD	2 DUP(00H)
	DD	2 DUP(00H)
	DD	00H
	DD	00H
; Function compile flags: /Odtp
xdata$x	ENDS
;	COMDAT ??0VertexBuffer@Ogre@@QAE@ABV01@@Z
_TEXT	SEGMENT
_this$ = -16						; size = 4
__$EHRec$ = -12						; size = 12
___that$ = 8						; size = 4
??0VertexBuffer@Ogre@@QAE@ABV01@@Z PROC			; Ogre::VertexBuffer::VertexBuffer, COMDAT
; _this$ = ecx
	push	ebp
	mov	ebp, esp
	push	-1
	push	__ehhandler$??0VertexBuffer@Ogre@@QAE@ABV01@@Z
	mov	eax, DWORD PTR fs:0
	push	eax
	push	ecx
	mov	eax, DWORD PTR ___security_cookie
	xor	eax, ebp
	push	eax
	lea	eax, DWORD PTR __$EHRec$[ebp]
	mov	DWORD PTR fs:0, eax
	mov	DWORD PTR _this$[ebp], ecx
	mov	eax, DWORD PTR ___that$[ebp]
	push	eax
	mov	ecx, DWORD PTR _this$[ebp]
	call	??0Resource@Ogre@@QAE@ABV01@@Z
	mov	DWORD PTR __$EHRec$[ebp+8], 0
	mov	ecx, DWORD PTR _this$[ebp]
	mov	DWORD PTR [ecx], OFFSET ??_7VertexBuffer@Ogre@@6B@
	mov	DWORD PTR __$EHRec$[ebp+8], -1
	mov	eax, DWORD PTR _this$[ebp]
	mov	ecx, DWORD PTR __$EHRec$[ebp]
	mov	DWORD PTR fs:0, ecx
	pop	ecx
	mov	esp, ebp
	pop	ebp
	ret	4
_TEXT	ENDS
;	COMDAT text$x
text$x	SEGMENT
__unwindfunclet$??0VertexBuffer@Ogre@@QAE@ABV01@@Z$0:
	mov	ecx, DWORD PTR _this$[ebp]
	jmp	??1Resource@Ogre@@MAE@XZ		; Ogre::Resource::~Resource
__ehhandler$??0VertexBuffer@Ogre@@QAE@ABV01@@Z:
	mov	edx, DWORD PTR [esp+8]
	lea	eax, DWORD PTR [edx+12]
	mov	ecx, DWORD PTR [edx-8]
	xor	ecx, eax
	call	@__security_check_cookie@4
	mov	eax, OFFSET __ehfuncinfo$??0VertexBuffer@Ogre@@QAE@ABV01@@Z
	jmp	___CxxFrameHandler3
text$x	ENDS
??0VertexBuffer@Ogre@@QAE@ABV01@@Z ENDP			; Ogre::VertexBuffer::VertexBuffer
PUBLIC	??4VertexBuffer@Ogre@@QAEAAV01@ABV01@@Z		; Ogre::VertexBuffer::operator=
; Function compile flags: /Odtp
;	COMDAT ??4VertexBuffer@Ogre@@QAEAAV01@ABV01@@Z
_TEXT	SEGMENT
_this$ = -4						; size = 4
___that$ = 8						; size = 4
??4VertexBuffer@Ogre@@QAEAAV01@ABV01@@Z PROC		; Ogre::VertexBuffer::operator=, COMDAT
; _this$ = ecx
	push	ebp
	mov	ebp, esp
	push	ecx
	mov	DWORD PTR _this$[ebp], ecx
	mov	eax, DWORD PTR ___that$[ebp]
	push	eax
	mov	ecx, DWORD PTR _this$[ebp]
	call	??4Resource@Ogre@@QAEAAV01@ABV01@@Z
	mov	eax, DWORD PTR _this$[ebp]
	mov	esp, ebp
	pop	ebp
	ret	4
??4VertexBuffer@Ogre@@QAEAAV01@ABV01@@Z ENDP		; Ogre::VertexBuffer::operator=
_TEXT	ENDS
PUBLIC	??_GVertexBuffer@Ogre@@UAEPAXI@Z		; Ogre::VertexBuffer::`scalar deleting destructor'
; Function compile flags: /Odtp
;	COMDAT ??_GVertexBuffer@Ogre@@UAEPAXI@Z
_TEXT	SEGMENT
_this$ = -4						; size = 4
___flags$ = 8						; size = 4
??_GVertexBuffer@Ogre@@UAEPAXI@Z PROC			; Ogre::VertexBuffer::`scalar deleting destructor', COMDAT
; _this$ = ecx
	push	ebp
	mov	ebp, esp
	push	ecx
	mov	DWORD PTR _this$[ebp], ecx
	mov	ecx, DWORD PTR _this$[ebp]
	call	??1VertexBuffer@Ogre@@UAE@XZ
	mov	eax, DWORD PTR ___flags$[ebp]
	and	eax, 1
	je	SHORT $LN1@scalar@10
	push	16					; 00000010H
	mov	ecx, DWORD PTR _this$[ebp]
	push	ecx
	call	??3MemoryDelegation@Ogre@@SAXPAXI@Z	; Ogre::MemoryDelegation::operator delete
	add	esp, 8
$LN1@scalar@10:
	mov	eax, DWORD PTR _this$[ebp]
	mov	esp, ebp
	pop	ebp
	ret	4
??_GVertexBuffer@Ogre@@UAEPAXI@Z ENDP			; Ogre::VertexBuffer::`scalar deleting destructor'
; Function compile flags: /Odtp
_TEXT	ENDS
;	COMDAT ??_EVertexBuffer@Ogre@@UAEPAXI@Z
_TEXT	SEGMENT
_this$ = -4						; size = 4
___flags$ = 8						; size = 4
??_EVertexBuffer@Ogre@@UAEPAXI@Z PROC			; Ogre::VertexBuffer::`vector deleting destructor', COMDAT
; _this$ = ecx
	push	ebp
	mov	ebp, esp
	push	ecx
	mov	DWORD PTR _this$[ebp], ecx
	mov	eax, DWORD PTR ___flags$[ebp]
	and	eax, 2
	je	SHORT $LN3@vector@10
	push	OFFSET ??1VertexBuffer@Ogre@@UAE@XZ
	mov	ecx, DWORD PTR _this$[ebp]
	mov	edx, DWORD PTR [ecx-4]
	push	edx
	push	16					; 00000010H
	mov	eax, DWORD PTR _this$[ebp]
	push	eax
	call	??_M@YGXPAXIHP6EX0@Z@Z
	mov	ecx, DWORD PTR ___flags$[ebp]
	and	ecx, 1
	je	SHORT $LN2@vector@10
	push	16					; 00000010H
	mov	edx, DWORD PTR _this$[ebp]
	sub	edx, 4
	push	edx
	call	??_VMemoryDelegation@Ogre@@SAXPAXI@Z	; Ogre::MemoryDelegation::operator delete[]
	add	esp, 8
$LN2@vector@10:
	mov	eax, DWORD PTR _this$[ebp]
	sub	eax, 4
	jmp	SHORT $LN4@vector@10
$LN3@vector@10:
	mov	ecx, DWORD PTR _this$[ebp]
	call	??1VertexBuffer@Ogre@@UAE@XZ
	mov	eax, DWORD PTR ___flags$[ebp]
	and	eax, 1
	je	SHORT $LN1@vector@10
	push	16					; 00000010H
	mov	ecx, DWORD PTR _this$[ebp]
	push	ecx
	call	??3MemoryDelegation@Ogre@@SAXPAXI@Z	; Ogre::MemoryDelegation::operator delete
	add	esp, 8
$LN1@vector@10:
	mov	eax, DWORD PTR _this$[ebp]
$LN4@vector@10:
	mov	esp, ebp
	pop	ebp
	ret	4
??_EVertexBuffer@Ogre@@UAEPAXI@Z ENDP			; Ogre::VertexBuffer::`vector deleting destructor'
_TEXT	ENDS
PUBLIC	?getRTTI@IndexBuffer@Ogre@@UBEPBVRuntimeClass@2@XZ ; Ogre::IndexBuffer::getRTTI
EXTRN	?m_RTTI@IndexBuffer@Ogre@@2VRuntimeClass@2@B:BYTE ; Ogre::IndexBuffer::m_RTTI
; Function compile flags: /Odtp
;	COMDAT ?getRTTI@IndexBuffer@Ogre@@UBEPBVRuntimeClass@2@XZ
_TEXT	SEGMENT
_this$ = -4						; size = 4
?getRTTI@IndexBuffer@Ogre@@UBEPBVRuntimeClass@2@XZ PROC	; Ogre::IndexBuffer::getRTTI, COMDAT
; _this$ = ecx

; 230  : 		DECLARE_RTTI_VIRTUAL(IndexBuffer)

	push	ebp
	mov	ebp, esp
	push	ecx
	mov	DWORD PTR _this$[ebp], ecx
	mov	eax, OFFSET ?m_RTTI@IndexBuffer@Ogre@@2VRuntimeClass@2@B ; Ogre::IndexBuffer::m_RTTI
	mov	esp, ebp
	pop	ebp
	ret	0
?getRTTI@IndexBuffer@Ogre@@UBEPBVRuntimeClass@2@XZ ENDP	; Ogre::IndexBuffer::getRTTI
_TEXT	ENDS
PUBLIC	?setVertexRange@IndexBuffer@Ogre@@QAEXII@Z	; Ogre::IndexBuffer::setVertexRange
; Function compile flags: /Odtp
;	COMDAT ?setVertexRange@IndexBuffer@Ogre@@QAEXII@Z
_TEXT	SEGMENT
_this$ = -4						; size = 4
_start$ = 8						; size = 4
_num$ = 12						; size = 4
?setVertexRange@IndexBuffer@Ogre@@QAEXII@Z PROC		; Ogre::IndexBuffer::setVertexRange, COMDAT
; _this$ = ecx

; 235  : 		{

	push	ebp
	mov	ebp, esp
	push	ecx
	mov	DWORD PTR _this$[ebp], ecx

; 236  : 			m_RefVertStart = start;

	mov	eax, DWORD PTR _this$[ebp]
	mov	ecx, DWORD PTR _start$[ebp]
	mov	DWORD PTR [eax+16], ecx

; 237  : 			m_RefVertNum = num;

	mov	edx, DWORD PTR _this$[ebp]
	mov	eax, DWORD PTR _num$[ebp]
	mov	DWORD PTR [edx+20], eax

; 238  : 		}

	mov	esp, ebp
	pop	ebp
	ret	8
?setVertexRange@IndexBuffer@Ogre@@QAEXII@Z ENDP		; Ogre::IndexBuffer::setVertexRange
_TEXT	ENDS
PUBLIC	??_7IndexBuffer@Ogre@@6B@			; Ogre::IndexBuffer::`vftable'
PUBLIC	??0IndexBuffer@Ogre@@QAE@XZ			; Ogre::IndexBuffer::IndexBuffer
PUBLIC	??_R4IndexBuffer@Ogre@@6B@			; Ogre::IndexBuffer::`RTTI Complete Object Locator'
PUBLIC	??_R0?AVIndexBuffer@Ogre@@@8			; Ogre::IndexBuffer `RTTI Type Descriptor'
PUBLIC	??_R3IndexBuffer@Ogre@@8			; Ogre::IndexBuffer::`RTTI Class Hierarchy Descriptor'
PUBLIC	??_R2IndexBuffer@Ogre@@8			; Ogre::IndexBuffer::`RTTI Base Class Array'
PUBLIC	??_R1A@?0A@EA@IndexBuffer@Ogre@@8		; Ogre::IndexBuffer::`RTTI Base Class Descriptor at (0,-1,0,64)'
PUBLIC	??_EIndexBuffer@Ogre@@UAEPAXI@Z			; Ogre::IndexBuffer::`vector deleting destructor'
;	COMDAT ??_R1A@?0A@EA@IndexBuffer@Ogre@@8
rdata$r	SEGMENT
??_R1A@?0A@EA@IndexBuffer@Ogre@@8 DD FLAT:??_R0?AVIndexBuffer@Ogre@@@8 ; Ogre::IndexBuffer::`RTTI Base Class Descriptor at (0,-1,0,64)'
	DD	03H
	DD	00H
	DD	0ffffffffH
	DD	00H
	DD	040H
	DD	FLAT:??_R3IndexBuffer@Ogre@@8
rdata$r	ENDS
;	COMDAT ??_R2IndexBuffer@Ogre@@8
rdata$r	SEGMENT
??_R2IndexBuffer@Ogre@@8 DD FLAT:??_R1A@?0A@EA@IndexBuffer@Ogre@@8 ; Ogre::IndexBuffer::`RTTI Base Class Array'
	DD	FLAT:??_R1A@?0A@EA@Resource@Ogre@@8
	DD	FLAT:??_R1A@?0A@EA@BaseObject@Ogre@@8
	DD	FLAT:??_R13?0A@EA@MemoryDelegation@Ogre@@8
rdata$r	ENDS
;	COMDAT ??_R3IndexBuffer@Ogre@@8
rdata$r	SEGMENT
??_R3IndexBuffer@Ogre@@8 DD 00H				; Ogre::IndexBuffer::`RTTI Class Hierarchy Descriptor'
	DD	00H
	DD	04H
	DD	FLAT:??_R2IndexBuffer@Ogre@@8
rdata$r	ENDS
;	COMDAT ??_R0?AVIndexBuffer@Ogre@@@8
_DATA	SEGMENT
??_R0?AVIndexBuffer@Ogre@@@8 DD FLAT:??_7type_info@@6B@	; Ogre::IndexBuffer `RTTI Type Descriptor'
	DD	00H
	DB	'.?AVIndexBuffer@Ogre@@', 00H
_DATA	ENDS
;	COMDAT ??_R4IndexBuffer@Ogre@@6B@
rdata$r	SEGMENT
??_R4IndexBuffer@Ogre@@6B@ DD 00H			; Ogre::IndexBuffer::`RTTI Complete Object Locator'
	DD	00H
	DD	00H
	DD	FLAT:??_R0?AVIndexBuffer@Ogre@@@8
	DD	FLAT:??_R3IndexBuffer@Ogre@@8
rdata$r	ENDS
;	COMDAT ??_7IndexBuffer@Ogre@@6B@
CONST	SEGMENT
??_7IndexBuffer@Ogre@@6B@ DD FLAT:??_R4IndexBuffer@Ogre@@6B@ ; Ogre::IndexBuffer::`vftable'
	DD	FLAT:?getRTTI@IndexBuffer@Ogre@@UBEPBVRuntimeClass@2@XZ
	DD	FLAT:?release@Resource@Ogre@@UAEXXZ
	DD	FLAT:?addRef@Resource@Ogre@@UAEXXZ
	DD	FLAT:?getRefCount@Resource@Ogre@@UAEHXZ
	DD	FLAT:?_serialize@BaseObject@Ogre@@UAEXAAVArchive@2@H@Z
	DD	FLAT:??_EIndexBuffer@Ogre@@UAEPAXI@Z
	DD	FLAT:?deleteThis@BaseObject@Ogre@@MAEXXZ
	DD	FLAT:__purecall
CONST	ENDS
;	COMDAT xdata$x
xdata$x	SEGMENT
__unwindtable$??0IndexBuffer@Ogre@@QAE@XZ DD 0ffffffffH
	DD	FLAT:__unwindfunclet$??0IndexBuffer@Ogre@@QAE@XZ$0
__ehfuncinfo$??0IndexBuffer@Ogre@@QAE@XZ DD 019930522H
	DD	01H
	DD	FLAT:__unwindtable$??0IndexBuffer@Ogre@@QAE@XZ
	DD	2 DUP(00H)
	DD	2 DUP(00H)
	DD	00H
	DD	00H
; Function compile flags: /Odtp
xdata$x	ENDS
;	COMDAT ??0IndexBuffer@Ogre@@QAE@XZ
_TEXT	SEGMENT
_this$ = -16						; size = 4
__$EHRec$ = -12						; size = 12
??0IndexBuffer@Ogre@@QAE@XZ PROC			; Ogre::IndexBuffer::IndexBuffer, COMDAT
; _this$ = ecx
	push	ebp
	mov	ebp, esp
	push	-1
	push	__ehhandler$??0IndexBuffer@Ogre@@QAE@XZ
	mov	eax, DWORD PTR fs:0
	push	eax
	push	ecx
	mov	eax, DWORD PTR ___security_cookie
	xor	eax, ebp
	push	eax
	lea	eax, DWORD PTR __$EHRec$[ebp]
	mov	DWORD PTR fs:0, eax
	mov	DWORD PTR _this$[ebp], ecx
	mov	ecx, DWORD PTR _this$[ebp]
	call	??0Resource@Ogre@@IAE@XZ		; Ogre::Resource::Resource
	mov	DWORD PTR __$EHRec$[ebp+8], 0
	mov	eax, DWORD PTR _this$[ebp]
	mov	DWORD PTR [eax], OFFSET ??_7IndexBuffer@Ogre@@6B@
	mov	DWORD PTR __$EHRec$[ebp+8], -1
	mov	eax, DWORD PTR _this$[ebp]
	mov	ecx, DWORD PTR __$EHRec$[ebp]
	mov	DWORD PTR fs:0, ecx
	pop	ecx
	mov	esp, ebp
	pop	ebp
	ret	0
_TEXT	ENDS
;	COMDAT text$x
text$x	SEGMENT
__unwindfunclet$??0IndexBuffer@Ogre@@QAE@XZ$0:
	mov	ecx, DWORD PTR _this$[ebp]
	jmp	??1Resource@Ogre@@MAE@XZ		; Ogre::Resource::~Resource
__ehhandler$??0IndexBuffer@Ogre@@QAE@XZ:
	mov	edx, DWORD PTR [esp+8]
	lea	eax, DWORD PTR [edx+12]
	mov	ecx, DWORD PTR [edx-8]
	xor	ecx, eax
	call	@__security_check_cookie@4
	mov	eax, OFFSET __ehfuncinfo$??0IndexBuffer@Ogre@@QAE@XZ
	jmp	___CxxFrameHandler3
text$x	ENDS
??0IndexBuffer@Ogre@@QAE@XZ ENDP			; Ogre::IndexBuffer::IndexBuffer
PUBLIC	??1IndexBuffer@Ogre@@UAE@XZ			; Ogre::IndexBuffer::~IndexBuffer
;	COMDAT xdata$x
xdata$x	SEGMENT
__unwindtable$??1IndexBuffer@Ogre@@UAE@XZ DD 0ffffffffH
	DD	FLAT:__unwindfunclet$??1IndexBuffer@Ogre@@UAE@XZ$0
__ehfuncinfo$??1IndexBuffer@Ogre@@UAE@XZ DD 019930522H
	DD	01H
	DD	FLAT:__unwindtable$??1IndexBuffer@Ogre@@UAE@XZ
	DD	2 DUP(00H)
	DD	2 DUP(00H)
	DD	00H
	DD	00H
; Function compile flags: /Odtp
xdata$x	ENDS
;	COMDAT ??1IndexBuffer@Ogre@@UAE@XZ
_TEXT	SEGMENT
_this$ = -16						; size = 4
__$EHRec$ = -12						; size = 12
??1IndexBuffer@Ogre@@UAE@XZ PROC			; Ogre::IndexBuffer::~IndexBuffer, COMDAT
; _this$ = ecx
	push	ebp
	mov	ebp, esp
	push	-1
	push	__ehhandler$??1IndexBuffer@Ogre@@UAE@XZ
	mov	eax, DWORD PTR fs:0
	push	eax
	push	ecx
	mov	eax, DWORD PTR ___security_cookie
	xor	eax, ebp
	push	eax
	lea	eax, DWORD PTR __$EHRec$[ebp]
	mov	DWORD PTR fs:0, eax
	mov	DWORD PTR _this$[ebp], ecx
	mov	DWORD PTR __$EHRec$[ebp+8], 0
	mov	DWORD PTR __$EHRec$[ebp+8], -1
	mov	ecx, DWORD PTR _this$[ebp]
	call	??1Resource@Ogre@@MAE@XZ		; Ogre::Resource::~Resource
	mov	ecx, DWORD PTR __$EHRec$[ebp]
	mov	DWORD PTR fs:0, ecx
	pop	ecx
	mov	esp, ebp
	pop	ebp
	ret	0
_TEXT	ENDS
;	COMDAT text$x
text$x	SEGMENT
__unwindfunclet$??1IndexBuffer@Ogre@@UAE@XZ$0:
	mov	ecx, DWORD PTR _this$[ebp]
	jmp	??1Resource@Ogre@@MAE@XZ		; Ogre::Resource::~Resource
__ehhandler$??1IndexBuffer@Ogre@@UAE@XZ:
	mov	edx, DWORD PTR [esp+8]
	lea	eax, DWORD PTR [edx+12]
	mov	ecx, DWORD PTR [edx-8]
	xor	ecx, eax
	call	@__security_check_cookie@4
	mov	eax, OFFSET __ehfuncinfo$??1IndexBuffer@Ogre@@UAE@XZ
	jmp	___CxxFrameHandler3
text$x	ENDS
??1IndexBuffer@Ogre@@UAE@XZ ENDP			; Ogre::IndexBuffer::~IndexBuffer
PUBLIC	??0IndexBuffer@Ogre@@QAE@ABV01@@Z		; Ogre::IndexBuffer::IndexBuffer
;	COMDAT xdata$x
xdata$x	SEGMENT
__unwindtable$??0IndexBuffer@Ogre@@QAE@ABV01@@Z DD 0ffffffffH
	DD	FLAT:__unwindfunclet$??0IndexBuffer@Ogre@@QAE@ABV01@@Z$0
__ehfuncinfo$??0IndexBuffer@Ogre@@QAE@ABV01@@Z DD 019930522H
	DD	01H
	DD	FLAT:__unwindtable$??0IndexBuffer@Ogre@@QAE@ABV01@@Z
	DD	2 DUP(00H)
	DD	2 DUP(00H)
	DD	00H
	DD	00H
; Function compile flags: /Odtp
xdata$x	ENDS
;	COMDAT ??0IndexBuffer@Ogre@@QAE@ABV01@@Z
_TEXT	SEGMENT
_this$ = -16						; size = 4
__$EHRec$ = -12						; size = 12
___that$ = 8						; size = 4
??0IndexBuffer@Ogre@@QAE@ABV01@@Z PROC			; Ogre::IndexBuffer::IndexBuffer, COMDAT
; _this$ = ecx
	push	ebp
	mov	ebp, esp
	push	-1
	push	__ehhandler$??0IndexBuffer@Ogre@@QAE@ABV01@@Z
	mov	eax, DWORD PTR fs:0
	push	eax
	push	ecx
	mov	eax, DWORD PTR ___security_cookie
	xor	eax, ebp
	push	eax
	lea	eax, DWORD PTR __$EHRec$[ebp]
	mov	DWORD PTR fs:0, eax
	mov	DWORD PTR _this$[ebp], ecx
	mov	eax, DWORD PTR ___that$[ebp]
	push	eax
	mov	ecx, DWORD PTR _this$[ebp]
	call	??0Resource@Ogre@@QAE@ABV01@@Z
	mov	DWORD PTR __$EHRec$[ebp+8], 0
	mov	ecx, DWORD PTR _this$[ebp]
	mov	DWORD PTR [ecx], OFFSET ??_7IndexBuffer@Ogre@@6B@
	mov	edx, DWORD PTR _this$[ebp]
	mov	eax, DWORD PTR ___that$[ebp]
	mov	ecx, DWORD PTR [eax+16]
	mov	DWORD PTR [edx+16], ecx
	mov	edx, DWORD PTR _this$[ebp]
	mov	eax, DWORD PTR ___that$[ebp]
	mov	ecx, DWORD PTR [eax+20]
	mov	DWORD PTR [edx+20], ecx
	mov	DWORD PTR __$EHRec$[ebp+8], -1
	mov	eax, DWORD PTR _this$[ebp]
	mov	ecx, DWORD PTR __$EHRec$[ebp]
	mov	DWORD PTR fs:0, ecx
	pop	ecx
	mov	esp, ebp
	pop	ebp
	ret	4
_TEXT	ENDS
;	COMDAT text$x
text$x	SEGMENT
__unwindfunclet$??0IndexBuffer@Ogre@@QAE@ABV01@@Z$0:
	mov	ecx, DWORD PTR _this$[ebp]
	jmp	??1Resource@Ogre@@MAE@XZ		; Ogre::Resource::~Resource
__ehhandler$??0IndexBuffer@Ogre@@QAE@ABV01@@Z:
	mov	edx, DWORD PTR [esp+8]
	lea	eax, DWORD PTR [edx+12]
	mov	ecx, DWORD PTR [edx-8]
	xor	ecx, eax
	call	@__security_check_cookie@4
	mov	eax, OFFSET __ehfuncinfo$??0IndexBuffer@Ogre@@QAE@ABV01@@Z
	jmp	___CxxFrameHandler3
text$x	ENDS
??0IndexBuffer@Ogre@@QAE@ABV01@@Z ENDP			; Ogre::IndexBuffer::IndexBuffer
PUBLIC	??4IndexBuffer@Ogre@@QAEAAV01@ABV01@@Z		; Ogre::IndexBuffer::operator=
; Function compile flags: /Odtp
;	COMDAT ??4IndexBuffer@Ogre@@QAEAAV01@ABV01@@Z
_TEXT	SEGMENT
_this$ = -4						; size = 4
___that$ = 8						; size = 4
??4IndexBuffer@Ogre@@QAEAAV01@ABV01@@Z PROC		; Ogre::IndexBuffer::operator=, COMDAT
; _this$ = ecx
	push	ebp
	mov	ebp, esp
	push	ecx
	mov	DWORD PTR _this$[ebp], ecx
	mov	eax, DWORD PTR ___that$[ebp]
	push	eax
	mov	ecx, DWORD PTR _this$[ebp]
	call	??4Resource@Ogre@@QAEAAV01@ABV01@@Z
	mov	ecx, DWORD PTR _this$[ebp]
	mov	edx, DWORD PTR ___that$[ebp]
	mov	eax, DWORD PTR [edx+16]
	mov	DWORD PTR [ecx+16], eax
	mov	ecx, DWORD PTR _this$[ebp]
	mov	edx, DWORD PTR ___that$[ebp]
	mov	eax, DWORD PTR [edx+20]
	mov	DWORD PTR [ecx+20], eax
	mov	eax, DWORD PTR _this$[ebp]
	mov	esp, ebp
	pop	ebp
	ret	4
??4IndexBuffer@Ogre@@QAEAAV01@ABV01@@Z ENDP		; Ogre::IndexBuffer::operator=
_TEXT	ENDS
PUBLIC	??_GIndexBuffer@Ogre@@UAEPAXI@Z			; Ogre::IndexBuffer::`scalar deleting destructor'
; Function compile flags: /Odtp
;	COMDAT ??_GIndexBuffer@Ogre@@UAEPAXI@Z
_TEXT	SEGMENT
_this$ = -4						; size = 4
___flags$ = 8						; size = 4
??_GIndexBuffer@Ogre@@UAEPAXI@Z PROC			; Ogre::IndexBuffer::`scalar deleting destructor', COMDAT
; _this$ = ecx
	push	ebp
	mov	ebp, esp
	push	ecx
	mov	DWORD PTR _this$[ebp], ecx
	mov	ecx, DWORD PTR _this$[ebp]
	call	??1IndexBuffer@Ogre@@UAE@XZ
	mov	eax, DWORD PTR ___flags$[ebp]
	and	eax, 1
	je	SHORT $LN1@scalar@11
	push	24					; 00000018H
	mov	ecx, DWORD PTR _this$[ebp]
	push	ecx
	call	??3MemoryDelegation@Ogre@@SAXPAXI@Z	; Ogre::MemoryDelegation::operator delete
	add	esp, 8
$LN1@scalar@11:
	mov	eax, DWORD PTR _this$[ebp]
	mov	esp, ebp
	pop	ebp
	ret	4
??_GIndexBuffer@Ogre@@UAEPAXI@Z ENDP			; Ogre::IndexBuffer::`scalar deleting destructor'
; Function compile flags: /Odtp
_TEXT	ENDS
;	COMDAT ??_EIndexBuffer@Ogre@@UAEPAXI@Z
_TEXT	SEGMENT
_this$ = -4						; size = 4
___flags$ = 8						; size = 4
??_EIndexBuffer@Ogre@@UAEPAXI@Z PROC			; Ogre::IndexBuffer::`vector deleting destructor', COMDAT
; _this$ = ecx
	push	ebp
	mov	ebp, esp
	push	ecx
	mov	DWORD PTR _this$[ebp], ecx
	mov	eax, DWORD PTR ___flags$[ebp]
	and	eax, 2
	je	SHORT $LN3@vector@11
	push	OFFSET ??1IndexBuffer@Ogre@@UAE@XZ
	mov	ecx, DWORD PTR _this$[ebp]
	mov	edx, DWORD PTR [ecx-4]
	push	edx
	push	24					; 00000018H
	mov	eax, DWORD PTR _this$[ebp]
	push	eax
	call	??_M@YGXPAXIHP6EX0@Z@Z
	mov	ecx, DWORD PTR ___flags$[ebp]
	and	ecx, 1
	je	SHORT $LN2@vector@11
	push	24					; 00000018H
	mov	edx, DWORD PTR _this$[ebp]
	sub	edx, 4
	push	edx
	call	??_VMemoryDelegation@Ogre@@SAXPAXI@Z	; Ogre::MemoryDelegation::operator delete[]
	add	esp, 8
$LN2@vector@11:
	mov	eax, DWORD PTR _this$[ebp]
	sub	eax, 4
	jmp	SHORT $LN4@vector@11
$LN3@vector@11:
	mov	ecx, DWORD PTR _this$[ebp]
	call	??1IndexBuffer@Ogre@@UAE@XZ
	mov	eax, DWORD PTR ___flags$[ebp]
	and	eax, 1
	je	SHORT $LN1@vector@11
	push	24					; 00000018H
	mov	ecx, DWORD PTR _this$[ebp]
	push	ecx
	call	??3MemoryDelegation@Ogre@@SAXPAXI@Z	; Ogre::MemoryDelegation::operator delete
	add	esp, 8
$LN1@vector@11:
	mov	eax, DWORD PTR _this$[ebp]
$LN4@vector@11:
	mov	esp, ebp
	pop	ebp
	ret	4
??_EIndexBuffer@Ogre@@UAEPAXI@Z ENDP			; Ogre::IndexBuffer::`vector deleting destructor'
_TEXT	ENDS
PUBLIC	?getRTTI@Texture@Ogre@@UBEPBVRuntimeClass@2@XZ	; Ogre::Texture::getRTTI
EXTRN	?m_RTTI@Texture@Ogre@@2VRuntimeClass@2@B:BYTE	; Ogre::Texture::m_RTTI
; Function compile flags: /Odtp
;	COMDAT ?getRTTI@Texture@Ogre@@UBEPBVRuntimeClass@2@XZ
_TEXT	SEGMENT
_this$ = -4						; size = 4
?getRTTI@Texture@Ogre@@UBEPBVRuntimeClass@2@XZ PROC	; Ogre::Texture::getRTTI, COMDAT
; _this$ = ecx

; 248  : 		DECLARE_RTTI_VIRTUAL(Texture)

	push	ebp
	mov	ebp, esp
	push	ecx
	mov	DWORD PTR _this$[ebp], ecx
	mov	eax, OFFSET ?m_RTTI@Texture@Ogre@@2VRuntimeClass@2@B ; Ogre::Texture::m_RTTI
	mov	esp, ebp
	pop	ebp
	ret	0
?getRTTI@Texture@Ogre@@UBEPBVRuntimeClass@2@XZ ENDP	; Ogre::Texture::getRTTI
_TEXT	ENDS
PUBLIC	??_7Texture@Ogre@@6B@				; Ogre::Texture::`vftable'
PUBLIC	??1Texture@Ogre@@MAE@XZ				; Ogre::Texture::~Texture
PUBLIC	??_R4Texture@Ogre@@6B@				; Ogre::Texture::`RTTI Complete Object Locator'
PUBLIC	??_R0?AVTexture@Ogre@@@8			; Ogre::Texture `RTTI Type Descriptor'
PUBLIC	??_R3Texture@Ogre@@8				; Ogre::Texture::`RTTI Class Hierarchy Descriptor'
PUBLIC	??_R2Texture@Ogre@@8				; Ogre::Texture::`RTTI Base Class Array'
PUBLIC	??_R1A@?0A@EA@Texture@Ogre@@8			; Ogre::Texture::`RTTI Base Class Descriptor at (0,-1,0,64)'
PUBLIC	??_ETexture@Ogre@@MAEPAXI@Z			; Ogre::Texture::`vector deleting destructor'
;	COMDAT ??_R1A@?0A@EA@Texture@Ogre@@8
rdata$r	SEGMENT
??_R1A@?0A@EA@Texture@Ogre@@8 DD FLAT:??_R0?AVTexture@Ogre@@@8 ; Ogre::Texture::`RTTI Base Class Descriptor at (0,-1,0,64)'
	DD	03H
	DD	00H
	DD	0ffffffffH
	DD	00H
	DD	040H
	DD	FLAT:??_R3Texture@Ogre@@8
rdata$r	ENDS
;	COMDAT ??_R2Texture@Ogre@@8
rdata$r	SEGMENT
??_R2Texture@Ogre@@8 DD FLAT:??_R1A@?0A@EA@Texture@Ogre@@8 ; Ogre::Texture::`RTTI Base Class Array'
	DD	FLAT:??_R1A@?0A@EA@Resource@Ogre@@8
	DD	FLAT:??_R1A@?0A@EA@BaseObject@Ogre@@8
	DD	FLAT:??_R13?0A@EA@MemoryDelegation@Ogre@@8
rdata$r	ENDS
;	COMDAT ??_R3Texture@Ogre@@8
rdata$r	SEGMENT
??_R3Texture@Ogre@@8 DD 00H				; Ogre::Texture::`RTTI Class Hierarchy Descriptor'
	DD	00H
	DD	04H
	DD	FLAT:??_R2Texture@Ogre@@8
rdata$r	ENDS
;	COMDAT ??_R0?AVTexture@Ogre@@@8
_DATA	SEGMENT
??_R0?AVTexture@Ogre@@@8 DD FLAT:??_7type_info@@6B@	; Ogre::Texture `RTTI Type Descriptor'
	DD	00H
	DB	'.?AVTexture@Ogre@@', 00H
_DATA	ENDS
;	COMDAT ??_R4Texture@Ogre@@6B@
rdata$r	SEGMENT
??_R4Texture@Ogre@@6B@ DD 00H				; Ogre::Texture::`RTTI Complete Object Locator'
	DD	00H
	DD	00H
	DD	FLAT:??_R0?AVTexture@Ogre@@@8
	DD	FLAT:??_R3Texture@Ogre@@8
rdata$r	ENDS
;	COMDAT ??_7Texture@Ogre@@6B@
CONST	SEGMENT
??_7Texture@Ogre@@6B@ DD FLAT:??_R4Texture@Ogre@@6B@	; Ogre::Texture::`vftable'
	DD	FLAT:?getRTTI@Texture@Ogre@@UBEPBVRuntimeClass@2@XZ
	DD	FLAT:?release@Resource@Ogre@@UAEXXZ
	DD	FLAT:?addRef@Resource@Ogre@@UAEXXZ
	DD	FLAT:?getRefCount@Resource@Ogre@@UAEHXZ
	DD	FLAT:?_serialize@BaseObject@Ogre@@UAEXAAVArchive@2@H@Z
	DD	FLAT:??_ETexture@Ogre@@MAEPAXI@Z
	DD	FLAT:?deleteThis@BaseObject@Ogre@@MAEXXZ
	DD	FLAT:__purecall
	DD	FLAT:__purecall
	DD	FLAT:__purecall
	DD	FLAT:__purecall
CONST	ENDS
;	COMDAT xdata$x
xdata$x	SEGMENT
__unwindtable$??1Texture@Ogre@@MAE@XZ DD 0ffffffffH
	DD	FLAT:__unwindfunclet$??1Texture@Ogre@@MAE@XZ$0
__ehfuncinfo$??1Texture@Ogre@@MAE@XZ DD 019930522H
	DD	01H
	DD	FLAT:__unwindtable$??1Texture@Ogre@@MAE@XZ
	DD	2 DUP(00H)
	DD	2 DUP(00H)
	DD	00H
	DD	00H
; Function compile flags: /Odtp
xdata$x	ENDS
;	COMDAT ??1Texture@Ogre@@MAE@XZ
_TEXT	SEGMENT
_this$ = -16						; size = 4
__$EHRec$ = -12						; size = 12
??1Texture@Ogre@@MAE@XZ PROC				; Ogre::Texture::~Texture, COMDAT
; _this$ = ecx

; 257  : 		{

	push	ebp
	mov	ebp, esp
	push	-1
	push	__ehhandler$??1Texture@Ogre@@MAE@XZ
	mov	eax, DWORD PTR fs:0
	push	eax
	push	ecx
	mov	eax, DWORD PTR ___security_cookie
	xor	eax, ebp
	push	eax
	lea	eax, DWORD PTR __$EHRec$[ebp]
	mov	DWORD PTR fs:0, eax
	mov	DWORD PTR _this$[ebp], ecx
	mov	eax, DWORD PTR _this$[ebp]
	mov	DWORD PTR [eax], OFFSET ??_7Texture@Ogre@@6B@
	mov	DWORD PTR __$EHRec$[ebp+8], 0

; 258  : 		}

	mov	DWORD PTR __$EHRec$[ebp+8], -1
	mov	ecx, DWORD PTR _this$[ebp]
	call	??1Resource@Ogre@@MAE@XZ		; Ogre::Resource::~Resource
	mov	ecx, DWORD PTR __$EHRec$[ebp]
	mov	DWORD PTR fs:0, ecx
	pop	ecx
	mov	esp, ebp
	pop	ebp
	ret	0
_TEXT	ENDS
;	COMDAT text$x
text$x	SEGMENT
__unwindfunclet$??1Texture@Ogre@@MAE@XZ$0:
	mov	ecx, DWORD PTR _this$[ebp]
	jmp	??1Resource@Ogre@@MAE@XZ		; Ogre::Resource::~Resource
__ehhandler$??1Texture@Ogre@@MAE@XZ:
	mov	edx, DWORD PTR [esp+8]
	lea	eax, DWORD PTR [edx+12]
	mov	ecx, DWORD PTR [edx-8]
	xor	ecx, eax
	call	@__security_check_cookie@4
	mov	eax, OFFSET __ehfuncinfo$??1Texture@Ogre@@MAE@XZ
	jmp	___CxxFrameHandler3
text$x	ENDS
??1Texture@Ogre@@MAE@XZ ENDP				; Ogre::Texture::~Texture
PUBLIC	??0Texture@Ogre@@QAE@XZ				; Ogre::Texture::Texture
;	COMDAT xdata$x
xdata$x	SEGMENT
__unwindtable$??0Texture@Ogre@@QAE@XZ DD 0ffffffffH
	DD	FLAT:__unwindfunclet$??0Texture@Ogre@@QAE@XZ$0
__ehfuncinfo$??0Texture@Ogre@@QAE@XZ DD 019930522H
	DD	01H
	DD	FLAT:__unwindtable$??0Texture@Ogre@@QAE@XZ
	DD	2 DUP(00H)
	DD	2 DUP(00H)
	DD	00H
	DD	00H
; Function compile flags: /Odtp
xdata$x	ENDS
;	COMDAT ??0Texture@Ogre@@QAE@XZ
_TEXT	SEGMENT
_this$ = -16						; size = 4
__$EHRec$ = -12						; size = 12
??0Texture@Ogre@@QAE@XZ PROC				; Ogre::Texture::Texture, COMDAT
; _this$ = ecx
	push	ebp
	mov	ebp, esp
	push	-1
	push	__ehhandler$??0Texture@Ogre@@QAE@XZ
	mov	eax, DWORD PTR fs:0
	push	eax
	push	ecx
	mov	eax, DWORD PTR ___security_cookie
	xor	eax, ebp
	push	eax
	lea	eax, DWORD PTR __$EHRec$[ebp]
	mov	DWORD PTR fs:0, eax
	mov	DWORD PTR _this$[ebp], ecx
	mov	ecx, DWORD PTR _this$[ebp]
	call	??0Resource@Ogre@@IAE@XZ		; Ogre::Resource::Resource
	mov	DWORD PTR __$EHRec$[ebp+8], 0
	mov	eax, DWORD PTR _this$[ebp]
	mov	DWORD PTR [eax], OFFSET ??_7Texture@Ogre@@6B@
	mov	DWORD PTR __$EHRec$[ebp+8], -1
	mov	eax, DWORD PTR _this$[ebp]
	mov	ecx, DWORD PTR __$EHRec$[ebp]
	mov	DWORD PTR fs:0, ecx
	pop	ecx
	mov	esp, ebp
	pop	ebp
	ret	0
_TEXT	ENDS
;	COMDAT text$x
text$x	SEGMENT
__unwindfunclet$??0Texture@Ogre@@QAE@XZ$0:
	mov	ecx, DWORD PTR _this$[ebp]
	jmp	??1Resource@Ogre@@MAE@XZ		; Ogre::Resource::~Resource
__ehhandler$??0Texture@Ogre@@QAE@XZ:
	mov	edx, DWORD PTR [esp+8]
	lea	eax, DWORD PTR [edx+12]
	mov	ecx, DWORD PTR [edx-8]
	xor	ecx, eax
	call	@__security_check_cookie@4
	mov	eax, OFFSET __ehfuncinfo$??0Texture@Ogre@@QAE@XZ
	jmp	___CxxFrameHandler3
text$x	ENDS
??0Texture@Ogre@@QAE@XZ ENDP				; Ogre::Texture::Texture
PUBLIC	??0Texture@Ogre@@QAE@ABV01@@Z			; Ogre::Texture::Texture
;	COMDAT xdata$x
xdata$x	SEGMENT
__unwindtable$??0Texture@Ogre@@QAE@ABV01@@Z DD 0ffffffffH
	DD	FLAT:__unwindfunclet$??0Texture@Ogre@@QAE@ABV01@@Z$0
__ehfuncinfo$??0Texture@Ogre@@QAE@ABV01@@Z DD 019930522H
	DD	01H
	DD	FLAT:__unwindtable$??0Texture@Ogre@@QAE@ABV01@@Z
	DD	2 DUP(00H)
	DD	2 DUP(00H)
	DD	00H
	DD	00H
; Function compile flags: /Odtp
xdata$x	ENDS
;	COMDAT ??0Texture@Ogre@@QAE@ABV01@@Z
_TEXT	SEGMENT
_this$ = -16						; size = 4
__$EHRec$ = -12						; size = 12
___that$ = 8						; size = 4
??0Texture@Ogre@@QAE@ABV01@@Z PROC			; Ogre::Texture::Texture, COMDAT
; _this$ = ecx
	push	ebp
	mov	ebp, esp
	push	-1
	push	__ehhandler$??0Texture@Ogre@@QAE@ABV01@@Z
	mov	eax, DWORD PTR fs:0
	push	eax
	push	ecx
	mov	eax, DWORD PTR ___security_cookie
	xor	eax, ebp
	push	eax
	lea	eax, DWORD PTR __$EHRec$[ebp]
	mov	DWORD PTR fs:0, eax
	mov	DWORD PTR _this$[ebp], ecx
	mov	eax, DWORD PTR ___that$[ebp]
	push	eax
	mov	ecx, DWORD PTR _this$[ebp]
	call	??0Resource@Ogre@@QAE@ABV01@@Z
	mov	DWORD PTR __$EHRec$[ebp+8], 0
	mov	ecx, DWORD PTR _this$[ebp]
	mov	DWORD PTR [ecx], OFFSET ??_7Texture@Ogre@@6B@
	mov	DWORD PTR __$EHRec$[ebp+8], -1
	mov	eax, DWORD PTR _this$[ebp]
	mov	ecx, DWORD PTR __$EHRec$[ebp]
	mov	DWORD PTR fs:0, ecx
	pop	ecx
	mov	esp, ebp
	pop	ebp
	ret	4
_TEXT	ENDS
;	COMDAT text$x
text$x	SEGMENT
__unwindfunclet$??0Texture@Ogre@@QAE@ABV01@@Z$0:
	mov	ecx, DWORD PTR _this$[ebp]
	jmp	??1Resource@Ogre@@MAE@XZ		; Ogre::Resource::~Resource
__ehhandler$??0Texture@Ogre@@QAE@ABV01@@Z:
	mov	edx, DWORD PTR [esp+8]
	lea	eax, DWORD PTR [edx+12]
	mov	ecx, DWORD PTR [edx-8]
	xor	ecx, eax
	call	@__security_check_cookie@4
	mov	eax, OFFSET __ehfuncinfo$??0Texture@Ogre@@QAE@ABV01@@Z
	jmp	___CxxFrameHandler3
text$x	ENDS
??0Texture@Ogre@@QAE@ABV01@@Z ENDP			; Ogre::Texture::Texture
PUBLIC	??4Texture@Ogre@@QAEAAV01@ABV01@@Z		; Ogre::Texture::operator=
; Function compile flags: /Odtp
;	COMDAT ??4Texture@Ogre@@QAEAAV01@ABV01@@Z
_TEXT	SEGMENT
_this$ = -4						; size = 4
___that$ = 8						; size = 4
??4Texture@Ogre@@QAEAAV01@ABV01@@Z PROC			; Ogre::Texture::operator=, COMDAT
; _this$ = ecx
	push	ebp
	mov	ebp, esp
	push	ecx
	mov	DWORD PTR _this$[ebp], ecx
	mov	eax, DWORD PTR ___that$[ebp]
	push	eax
	mov	ecx, DWORD PTR _this$[ebp]
	call	??4Resource@Ogre@@QAEAAV01@ABV01@@Z
	mov	eax, DWORD PTR _this$[ebp]
	mov	esp, ebp
	pop	ebp
	ret	4
??4Texture@Ogre@@QAEAAV01@ABV01@@Z ENDP			; Ogre::Texture::operator=
_TEXT	ENDS
PUBLIC	??_GTexture@Ogre@@MAEPAXI@Z			; Ogre::Texture::`scalar deleting destructor'
; Function compile flags: /Odtp
;	COMDAT ??_GTexture@Ogre@@MAEPAXI@Z
_TEXT	SEGMENT
_this$ = -4						; size = 4
___flags$ = 8						; size = 4
??_GTexture@Ogre@@MAEPAXI@Z PROC			; Ogre::Texture::`scalar deleting destructor', COMDAT
; _this$ = ecx
	push	ebp
	mov	ebp, esp
	push	ecx
	mov	DWORD PTR _this$[ebp], ecx
	mov	ecx, DWORD PTR _this$[ebp]
	call	??1Texture@Ogre@@MAE@XZ			; Ogre::Texture::~Texture
	mov	eax, DWORD PTR ___flags$[ebp]
	and	eax, 1
	je	SHORT $LN1@scalar@12
	push	16					; 00000010H
	mov	ecx, DWORD PTR _this$[ebp]
	push	ecx
	call	??3MemoryDelegation@Ogre@@SAXPAXI@Z	; Ogre::MemoryDelegation::operator delete
	add	esp, 8
$LN1@scalar@12:
	mov	eax, DWORD PTR _this$[ebp]
	mov	esp, ebp
	pop	ebp
	ret	4
??_GTexture@Ogre@@MAEPAXI@Z ENDP			; Ogre::Texture::`scalar deleting destructor'
; Function compile flags: /Odtp
_TEXT	ENDS
;	COMDAT ??_ETexture@Ogre@@MAEPAXI@Z
_TEXT	SEGMENT
_this$ = -4						; size = 4
___flags$ = 8						; size = 4
??_ETexture@Ogre@@MAEPAXI@Z PROC			; Ogre::Texture::`vector deleting destructor', COMDAT
; _this$ = ecx
	push	ebp
	mov	ebp, esp
	push	ecx
	mov	DWORD PTR _this$[ebp], ecx
	mov	eax, DWORD PTR ___flags$[ebp]
	and	eax, 2
	je	SHORT $LN3@vector@12
	push	OFFSET ??1Texture@Ogre@@MAE@XZ		; Ogre::Texture::~Texture
	mov	ecx, DWORD PTR _this$[ebp]
	mov	edx, DWORD PTR [ecx-4]
	push	edx
	push	16					; 00000010H
	mov	eax, DWORD PTR _this$[ebp]
	push	eax
	call	??_M@YGXPAXIHP6EX0@Z@Z
	mov	ecx, DWORD PTR ___flags$[ebp]
	and	ecx, 1
	je	SHORT $LN2@vector@12
	push	16					; 00000010H
	mov	edx, DWORD PTR _this$[ebp]
	sub	edx, 4
	push	edx
	call	??_VMemoryDelegation@Ogre@@SAXPAXI@Z	; Ogre::MemoryDelegation::operator delete[]
	add	esp, 8
$LN2@vector@12:
	mov	eax, DWORD PTR _this$[ebp]
	sub	eax, 4
	jmp	SHORT $LN4@vector@12
$LN3@vector@12:
	mov	ecx, DWORD PTR _this$[ebp]
	call	??1Texture@Ogre@@MAE@XZ			; Ogre::Texture::~Texture
	mov	eax, DWORD PTR ___flags$[ebp]
	and	eax, 1
	je	SHORT $LN1@vector@12
	push	16					; 00000010H
	mov	ecx, DWORD PTR _this$[ebp]
	push	ecx
	call	??3MemoryDelegation@Ogre@@SAXPAXI@Z	; Ogre::MemoryDelegation::operator delete
	add	esp, 8
$LN1@vector@12:
	mov	eax, DWORD PTR _this$[ebp]
$LN4@vector@12:
	mov	esp, ebp
	pop	ebp
	ret	4
??_ETexture@Ogre@@MAEPAXI@Z ENDP			; Ogre::Texture::`vector deleting destructor'
_TEXT	ENDS
PUBLIC	??4LockSection@Ogre@@QAEAAV01@ABV01@@Z		; Ogre::LockSection::operator=
; Function compile flags: /Odtp
;	COMDAT ??4LockSection@Ogre@@QAEAAV01@ABV01@@Z
_TEXT	SEGMENT
_this$ = -4						; size = 4
___that$ = 8						; size = 4
??4LockSection@Ogre@@QAEAAV01@ABV01@@Z PROC		; Ogre::LockSection::operator=, COMDAT
; _this$ = ecx
	push	ebp
	mov	ebp, esp
	push	ecx
	mov	DWORD PTR _this$[ebp], ecx
	mov	eax, DWORD PTR ___that$[ebp]
	mov	ecx, DWORD PTR [eax]
	mov	edx, DWORD PTR _this$[ebp]
	mov	DWORD PTR [edx], ecx
	mov	eax, DWORD PTR _this$[ebp]
	mov	esp, ebp
	pop	ebp
	ret	4
??4LockSection@Ogre@@QAEAAV01@ABV01@@Z ENDP		; Ogre::LockSection::operator=
_TEXT	ENDS
PUBLIC	??0LockFunctor@Ogre@@QAE@PAVLockSection@1@@Z	; Ogre::LockFunctor::LockFunctor
EXTRN	?Lock@LockSection@Ogre@@QAEXXZ:PROC		; Ogre::LockSection::Lock
; Function compile flags: /Odtp
; File i:\svnroot\client\ogremain\ogrelocker.h
;	COMDAT ??0LockFunctor@Ogre@@QAE@PAVLockSection@1@@Z
_TEXT	SEGMENT
_this$ = -4						; size = 4
_pSection$ = 8						; size = 4
??0LockFunctor@Ogre@@QAE@PAVLockSection@1@@Z PROC	; Ogre::LockFunctor::LockFunctor, COMDAT
; _this$ = ecx

; 26   : 		{

	push	ebp
	mov	ebp, esp
	push	ecx
	mov	DWORD PTR _this$[ebp], ecx
	mov	eax, DWORD PTR _this$[ebp]
	mov	ecx, DWORD PTR _pSection$[ebp]
	mov	DWORD PTR [eax], ecx

; 27   : 			if(m_pSection == NULL) return;

	mov	edx, DWORD PTR _this$[ebp]
	cmp	DWORD PTR [edx], 0
	jne	SHORT $LN1@LockFuncto
	jmp	SHORT $LN2@LockFuncto
$LN1@LockFuncto:

; 28   : 			assert( m_pSection );
; 29   : 			m_pSection->Lock();

	mov	eax, DWORD PTR _this$[ebp]
	mov	ecx, DWORD PTR [eax]
	call	?Lock@LockSection@Ogre@@QAEXXZ		; Ogre::LockSection::Lock
$LN2@LockFuncto:

; 30   : 		}

	mov	eax, DWORD PTR _this$[ebp]
	mov	esp, ebp
	pop	ebp
	ret	4
??0LockFunctor@Ogre@@QAE@PAVLockSection@1@@Z ENDP	; Ogre::LockFunctor::LockFunctor
_TEXT	ENDS
PUBLIC	??1LockFunctor@Ogre@@QAE@XZ			; Ogre::LockFunctor::~LockFunctor
EXTRN	?Unlock@LockSection@Ogre@@QAEXXZ:PROC		; Ogre::LockSection::Unlock
; Function compile flags: /Odtp
;	COMDAT ??1LockFunctor@Ogre@@QAE@XZ
_TEXT	SEGMENT
_this$ = -4						; size = 4
??1LockFunctor@Ogre@@QAE@XZ PROC			; Ogre::LockFunctor::~LockFunctor, COMDAT
; _this$ = ecx

; 33   : 		{

	push	ebp
	mov	ebp, esp
	push	ecx
	mov	DWORD PTR _this$[ebp], ecx

; 34   : 			if( m_pSection )

	mov	eax, DWORD PTR _this$[ebp]
	cmp	DWORD PTR [eax], 0
	je	SHORT $LN2@LockFuncto@2

; 35   : 			{
; 36   : 				m_pSection->Unlock();

	mov	ecx, DWORD PTR _this$[ebp]
	mov	ecx, DWORD PTR [ecx]
	call	?Unlock@LockSection@Ogre@@QAEXXZ	; Ogre::LockSection::Unlock
$LN2@LockFuncto@2:

; 37   : 			}			
; 38   : 		}

	mov	esp, ebp
	pop	ebp
	ret	0
??1LockFunctor@Ogre@@QAE@XZ ENDP			; Ogre::LockFunctor::~LockFunctor
_TEXT	ENDS
PUBLIC	??4LockFunctor@Ogre@@QAEAAV01@ABV01@@Z		; Ogre::LockFunctor::operator=
; Function compile flags: /Odtp
;	COMDAT ??4LockFunctor@Ogre@@QAEAAV01@ABV01@@Z
_TEXT	SEGMENT
_this$ = -4						; size = 4
___that$ = 8						; size = 4
??4LockFunctor@Ogre@@QAEAAV01@ABV01@@Z PROC		; Ogre::LockFunctor::operator=, COMDAT
; _this$ = ecx
	push	ebp
	mov	ebp, esp
	push	ecx
	mov	DWORD PTR _this$[ebp], ecx
	mov	eax, DWORD PTR ___that$[ebp]
	mov	ecx, DWORD PTR [eax]
	mov	edx, DWORD PTR _this$[ebp]
	mov	DWORD PTR [edx], ecx
	mov	eax, DWORD PTR _this$[ebp]
	mov	esp, ebp
	pop	ebp
	ret	4
??4LockFunctor@Ogre@@QAEAAV01@ABV01@@Z ENDP		; Ogre::LockFunctor::operator=
_TEXT	ENDS
PUBLIC	?getRTTI@SurfaceData@Ogre@@UBEPBVRuntimeClass@2@XZ ; Ogre::SurfaceData::getRTTI
EXTRN	?m_RTTI@SurfaceData@Ogre@@2VRuntimeClass@2@B:BYTE ; Ogre::SurfaceData::m_RTTI
; Function compile flags: /Odtp
; File i:\svnroot\client\ogremain\ogretexture.h
;	COMDAT ?getRTTI@SurfaceData@Ogre@@UBEPBVRuntimeClass@2@XZ
_TEXT	SEGMENT
_this$ = -4						; size = 4
?getRTTI@SurfaceData@Ogre@@UBEPBVRuntimeClass@2@XZ PROC	; Ogre::SurfaceData::getRTTI, COMDAT
; _this$ = ecx

; 32   : 		DECLARE_RTTI(SurfaceData)

	push	ebp
	mov	ebp, esp
	push	ecx
	mov	DWORD PTR _this$[ebp], ecx
	mov	eax, OFFSET ?m_RTTI@SurfaceData@Ogre@@2VRuntimeClass@2@B ; Ogre::SurfaceData::m_RTTI
	mov	esp, ebp
	pop	ebp
	ret	0
?getRTTI@SurfaceData@Ogre@@UBEPBVRuntimeClass@2@XZ ENDP	; Ogre::SurfaceData::getRTTI
_TEXT	ENDS
PUBLIC	?newObject@SurfaceData@Ogre@@SAPAVBaseObject@2@XZ ; Ogre::SurfaceData::newObject
EXTRN	??0SurfaceData@Ogre@@QAE@XZ:PROC		; Ogre::SurfaceData::SurfaceData
EXTRN	??2MemoryDelegation@Ogre@@SAPAXI@Z:PROC		; Ogre::MemoryDelegation::operator new
;	COMDAT xdata$x
xdata$x	SEGMENT
__unwindtable$?newObject@SurfaceData@Ogre@@SAPAVBaseObject@2@XZ DD 0ffffffffH
	DD	FLAT:__unwindfunclet$?newObject@SurfaceData@Ogre@@SAPAVBaseObject@2@XZ$0
__ehfuncinfo$?newObject@SurfaceData@Ogre@@SAPAVBaseObject@2@XZ DD 019930522H
	DD	01H
	DD	FLAT:__unwindtable$?newObject@SurfaceData@Ogre@@SAPAVBaseObject@2@XZ
	DD	2 DUP(00H)
	DD	2 DUP(00H)
	DD	00H
	DD	00H
; Function compile flags: /Odtp
xdata$x	ENDS
;	COMDAT ?newObject@SurfaceData@Ogre@@SAPAVBaseObject@2@XZ
_TEXT	SEGMENT
tv75 = -24						; size = 4
$T67714 = -20						; size = 4
$T67713 = -16						; size = 4
__$EHRec$ = -12						; size = 12
?newObject@SurfaceData@Ogre@@SAPAVBaseObject@2@XZ PROC	; Ogre::SurfaceData::newObject, COMDAT

; 32   : 		DECLARE_RTTI(SurfaceData)

	push	ebp
	mov	ebp, esp
	push	-1
	push	__ehhandler$?newObject@SurfaceData@Ogre@@SAPAVBaseObject@2@XZ
	mov	eax, DWORD PTR fs:0
	push	eax
	sub	esp, 12					; 0000000cH
	mov	eax, DWORD PTR ___security_cookie
	xor	eax, ebp
	push	eax
	lea	eax, DWORD PTR __$EHRec$[ebp]
	mov	DWORD PTR fs:0, eax
	push	60					; 0000003cH
	call	??2MemoryDelegation@Ogre@@SAPAXI@Z	; Ogre::MemoryDelegation::operator new
	add	esp, 4
	mov	DWORD PTR $T67714[ebp], eax
	mov	DWORD PTR __$EHRec$[ebp+8], 0
	cmp	DWORD PTR $T67714[ebp], 0
	je	SHORT $LN3@newObject
	mov	ecx, DWORD PTR $T67714[ebp]
	call	??0SurfaceData@Ogre@@QAE@XZ		; Ogre::SurfaceData::SurfaceData
	mov	DWORD PTR tv75[ebp], eax
	jmp	SHORT $LN4@newObject
$LN3@newObject:
	mov	DWORD PTR tv75[ebp], 0
$LN4@newObject:
	mov	eax, DWORD PTR tv75[ebp]
	mov	DWORD PTR $T67713[ebp], eax
	mov	DWORD PTR __$EHRec$[ebp+8], -1
	mov	eax, DWORD PTR $T67713[ebp]
	mov	ecx, DWORD PTR __$EHRec$[ebp]
	mov	DWORD PTR fs:0, ecx
	pop	ecx
	mov	esp, ebp
	pop	ebp
	ret	0
_TEXT	ENDS
;	COMDAT text$x
text$x	SEGMENT
__unwindfunclet$?newObject@SurfaceData@Ogre@@SAPAVBaseObject@2@XZ$0:
	push	60					; 0000003cH
	mov	eax, DWORD PTR $T67714[ebp]
	push	eax
	call	??3MemoryDelegation@Ogre@@SAXPAXI@Z	; Ogre::MemoryDelegation::operator delete
	add	esp, 8
	ret	0
__ehhandler$?newObject@SurfaceData@Ogre@@SAPAVBaseObject@2@XZ:
	mov	edx, DWORD PTR [esp+8]
	lea	eax, DWORD PTR [edx+12]
	mov	ecx, DWORD PTR [edx-16]
	xor	ecx, eax
	call	@__security_check_cookie@4
	mov	eax, OFFSET __ehfuncinfo$?newObject@SurfaceData@Ogre@@SAPAVBaseObject@2@XZ
	jmp	___CxxFrameHandler3
text$x	ENDS
?newObject@SurfaceData@Ogre@@SAPAVBaseObject@2@XZ ENDP	; Ogre::SurfaceData::newObject
PUBLIC	??A?$vector@DV?$allocator@D@std@@@std@@QAEAADI@Z ; std::vector<char,std::allocator<char> >::operator[]
PUBLIC	?getBits@SurfaceData@Ogre@@QAEPAXXZ		; Ogre::SurfaceData::getBits
; Function compile flags: /Odtp
;	COMDAT ?getBits@SurfaceData@Ogre@@QAEPAXXZ
_TEXT	SEGMENT
_this$ = -4						; size = 4
?getBits@SurfaceData@Ogre@@QAEPAXXZ PROC		; Ogre::SurfaceData::getBits, COMDAT
; _this$ = ecx

; 38   : 		{

	push	ebp
	mov	ebp, esp
	push	ecx
	mov	DWORD PTR _this$[ebp], ecx

; 39   : 			return &m_Pixels[0];

	push	0
	mov	ecx, DWORD PTR _this$[ebp]
	add	ecx, 36					; 00000024H
	call	??A?$vector@DV?$allocator@D@std@@@std@@QAEAADI@Z ; std::vector<char,std::allocator<char> >::operator[]

; 40   : 		}

	mov	esp, ebp
	pop	ebp
	ret	0
?getBits@SurfaceData@Ogre@@QAEPAXXZ ENDP		; Ogre::SurfaceData::getBits
_TEXT	ENDS
PUBLIC	??1?$vector@DV?$allocator@D@std@@@std@@QAE@XZ	; std::vector<char,std::allocator<char> >::~vector<char,std::allocator<char> >
PUBLIC	??1SurfaceData@Ogre@@UAE@XZ			; Ogre::SurfaceData::~SurfaceData
;	COMDAT xdata$x
xdata$x	SEGMENT
__unwindtable$??1SurfaceData@Ogre@@UAE@XZ DD 0ffffffffH
	DD	FLAT:__unwindfunclet$??1SurfaceData@Ogre@@UAE@XZ$0
	DD	00H
	DD	FLAT:__unwindfunclet$??1SurfaceData@Ogre@@UAE@XZ$1
__ehfuncinfo$??1SurfaceData@Ogre@@UAE@XZ DD 019930522H
	DD	02H
	DD	FLAT:__unwindtable$??1SurfaceData@Ogre@@UAE@XZ
	DD	2 DUP(00H)
	DD	2 DUP(00H)
	DD	00H
	DD	00H
; Function compile flags: /Odtp
xdata$x	ENDS
;	COMDAT ??1SurfaceData@Ogre@@UAE@XZ
_TEXT	SEGMENT
_this$ = -16						; size = 4
__$EHRec$ = -12						; size = 12
??1SurfaceData@Ogre@@UAE@XZ PROC			; Ogre::SurfaceData::~SurfaceData, COMDAT
; _this$ = ecx
	push	ebp
	mov	ebp, esp
	push	-1
	push	__ehhandler$??1SurfaceData@Ogre@@UAE@XZ
	mov	eax, DWORD PTR fs:0
	push	eax
	push	ecx
	mov	eax, DWORD PTR ___security_cookie
	xor	eax, ebp
	push	eax
	lea	eax, DWORD PTR __$EHRec$[ebp]
	mov	DWORD PTR fs:0, eax
	mov	DWORD PTR _this$[ebp], ecx
	mov	DWORD PTR __$EHRec$[ebp+8], 1
	mov	BYTE PTR __$EHRec$[ebp+8], 0
	mov	ecx, DWORD PTR _this$[ebp]
	add	ecx, 36					; 00000024H
	call	??1?$vector@DV?$allocator@D@std@@@std@@QAE@XZ ; std::vector<char,std::allocator<char> >::~vector<char,std::allocator<char> >
	mov	DWORD PTR __$EHRec$[ebp+8], -1
	mov	ecx, DWORD PTR _this$[ebp]
	call	??1BaseObject@Ogre@@MAE@XZ		; Ogre::BaseObject::~BaseObject
	mov	ecx, DWORD PTR __$EHRec$[ebp]
	mov	DWORD PTR fs:0, ecx
	pop	ecx
	mov	esp, ebp
	pop	ebp
	ret	0
_TEXT	ENDS
;	COMDAT text$x
text$x	SEGMENT
__unwindfunclet$??1SurfaceData@Ogre@@UAE@XZ$0:
	mov	ecx, DWORD PTR _this$[ebp]
	jmp	??1BaseObject@Ogre@@MAE@XZ		; Ogre::BaseObject::~BaseObject
__unwindfunclet$??1SurfaceData@Ogre@@UAE@XZ$1:
	mov	ecx, DWORD PTR _this$[ebp]
	add	ecx, 36					; 00000024H
	jmp	??1?$vector@DV?$allocator@D@std@@@std@@QAE@XZ ; std::vector<char,std::allocator<char> >::~vector<char,std::allocator<char> >
__ehhandler$??1SurfaceData@Ogre@@UAE@XZ:
	mov	edx, DWORD PTR [esp+8]
	lea	eax, DWORD PTR [edx+12]
	mov	ecx, DWORD PTR [edx-8]
	xor	ecx, eax
	call	@__security_check_cookie@4
	mov	eax, OFFSET __ehfuncinfo$??1SurfaceData@Ogre@@UAE@XZ
	jmp	___CxxFrameHandler3
text$x	ENDS
??1SurfaceData@Ogre@@UAE@XZ ENDP			; Ogre::SurfaceData::~SurfaceData
PUBLIC	??0?$vector@DV?$allocator@D@std@@@std@@QAE@ABV01@@Z ; std::vector<char,std::allocator<char> >::vector<char,std::allocator<char> >
PUBLIC	??_7SurfaceData@Ogre@@6B@			; Ogre::SurfaceData::`vftable'
PUBLIC	??0SurfaceData@Ogre@@QAE@ABV01@@Z		; Ogre::SurfaceData::SurfaceData
PUBLIC	??_R4SurfaceData@Ogre@@6B@			; Ogre::SurfaceData::`RTTI Complete Object Locator'
PUBLIC	??_R0?AVSurfaceData@Ogre@@@8			; Ogre::SurfaceData `RTTI Type Descriptor'
PUBLIC	??_R3SurfaceData@Ogre@@8			; Ogre::SurfaceData::`RTTI Class Hierarchy Descriptor'
PUBLIC	??_R2SurfaceData@Ogre@@8			; Ogre::SurfaceData::`RTTI Base Class Array'
PUBLIC	??_R1A@?0A@EA@SurfaceData@Ogre@@8		; Ogre::SurfaceData::`RTTI Base Class Descriptor at (0,-1,0,64)'
PUBLIC	??_ESurfaceData@Ogre@@UAEPAXI@Z			; Ogre::SurfaceData::`vector deleting destructor'
EXTRN	?_serialize@SurfaceData@Ogre@@EAEXAAVArchive@2@H@Z:PROC ; Ogre::SurfaceData::_serialize
;	COMDAT ??_R1A@?0A@EA@SurfaceData@Ogre@@8
rdata$r	SEGMENT
??_R1A@?0A@EA@SurfaceData@Ogre@@8 DD FLAT:??_R0?AVSurfaceData@Ogre@@@8 ; Ogre::SurfaceData::`RTTI Base Class Descriptor at (0,-1,0,64)'
	DD	02H
	DD	00H
	DD	0ffffffffH
	DD	00H
	DD	040H
	DD	FLAT:??_R3SurfaceData@Ogre@@8
rdata$r	ENDS
;	COMDAT ??_R2SurfaceData@Ogre@@8
rdata$r	SEGMENT
??_R2SurfaceData@Ogre@@8 DD FLAT:??_R1A@?0A@EA@SurfaceData@Ogre@@8 ; Ogre::SurfaceData::`RTTI Base Class Array'
	DD	FLAT:??_R1A@?0A@EA@BaseObject@Ogre@@8
	DD	FLAT:??_R13?0A@EA@MemoryDelegation@Ogre@@8
rdata$r	ENDS
;	COMDAT ??_R3SurfaceData@Ogre@@8
rdata$r	SEGMENT
??_R3SurfaceData@Ogre@@8 DD 00H				; Ogre::SurfaceData::`RTTI Class Hierarchy Descriptor'
	DD	00H
	DD	03H
	DD	FLAT:??_R2SurfaceData@Ogre@@8
rdata$r	ENDS
;	COMDAT ??_R0?AVSurfaceData@Ogre@@@8
_DATA	SEGMENT
??_R0?AVSurfaceData@Ogre@@@8 DD FLAT:??_7type_info@@6B@	; Ogre::SurfaceData `RTTI Type Descriptor'
	DD	00H
	DB	'.?AVSurfaceData@Ogre@@', 00H
_DATA	ENDS
;	COMDAT ??_R4SurfaceData@Ogre@@6B@
rdata$r	SEGMENT
??_R4SurfaceData@Ogre@@6B@ DD 00H			; Ogre::SurfaceData::`RTTI Complete Object Locator'
	DD	00H
	DD	00H
	DD	FLAT:??_R0?AVSurfaceData@Ogre@@@8
	DD	FLAT:??_R3SurfaceData@Ogre@@8
rdata$r	ENDS
;	COMDAT ??_7SurfaceData@Ogre@@6B@
CONST	SEGMENT
??_7SurfaceData@Ogre@@6B@ DD FLAT:??_R4SurfaceData@Ogre@@6B@ ; Ogre::SurfaceData::`vftable'
	DD	FLAT:?getRTTI@SurfaceData@Ogre@@UBEPBVRuntimeClass@2@XZ
	DD	FLAT:?release@BaseObject@Ogre@@UAEXXZ
	DD	FLAT:?addRef@BaseObject@Ogre@@UAEXXZ
	DD	FLAT:?getRefCount@BaseObject@Ogre@@UAEHXZ
	DD	FLAT:?_serialize@SurfaceData@Ogre@@EAEXAAVArchive@2@H@Z
	DD	FLAT:??_ESurfaceData@Ogre@@UAEPAXI@Z
	DD	FLAT:?deleteThis@BaseObject@Ogre@@MAEXXZ
CONST	ENDS
;	COMDAT xdata$x
xdata$x	SEGMENT
__unwindtable$??0SurfaceData@Ogre@@QAE@ABV01@@Z DD 0ffffffffH
	DD	FLAT:__unwindfunclet$??0SurfaceData@Ogre@@QAE@ABV01@@Z$0
	DD	00H
	DD	FLAT:__unwindfunclet$??0SurfaceData@Ogre@@QAE@ABV01@@Z$1
__ehfuncinfo$??0SurfaceData@Ogre@@QAE@ABV01@@Z DD 019930522H
	DD	02H
	DD	FLAT:__unwindtable$??0SurfaceData@Ogre@@QAE@ABV01@@Z
	DD	2 DUP(00H)
	DD	2 DUP(00H)
	DD	00H
	DD	00H
; Function compile flags: /Odtp
xdata$x	ENDS
;	COMDAT ??0SurfaceData@Ogre@@QAE@ABV01@@Z
_TEXT	SEGMENT
_this$ = -16						; size = 4
__$EHRec$ = -12						; size = 12
___that$ = 8						; size = 4
??0SurfaceData@Ogre@@QAE@ABV01@@Z PROC			; Ogre::SurfaceData::SurfaceData, COMDAT
; _this$ = ecx
	push	ebp
	mov	ebp, esp
	push	-1
	push	__ehhandler$??0SurfaceData@Ogre@@QAE@ABV01@@Z
	mov	eax, DWORD PTR fs:0
	push	eax
	push	ecx
	mov	eax, DWORD PTR ___security_cookie
	xor	eax, ebp
	push	eax
	lea	eax, DWORD PTR __$EHRec$[ebp]
	mov	DWORD PTR fs:0, eax
	mov	DWORD PTR _this$[ebp], ecx
	mov	eax, DWORD PTR ___that$[ebp]
	push	eax
	mov	ecx, DWORD PTR _this$[ebp]
	call	??0BaseObject@Ogre@@QAE@ABV01@@Z
	mov	DWORD PTR __$EHRec$[ebp+8], 0
	mov	ecx, DWORD PTR _this$[ebp]
	mov	DWORD PTR [ecx], OFFSET ??_7SurfaceData@Ogre@@6B@
	mov	edx, DWORD PTR _this$[ebp]
	mov	eax, DWORD PTR ___that$[ebp]
	mov	ecx, DWORD PTR [eax+8]
	mov	DWORD PTR [edx+8], ecx
	mov	edx, DWORD PTR _this$[ebp]
	mov	eax, DWORD PTR ___that$[ebp]
	mov	ecx, DWORD PTR [eax+12]
	mov	DWORD PTR [edx+12], ecx
	mov	edx, DWORD PTR _this$[ebp]
	mov	eax, DWORD PTR ___that$[ebp]
	mov	ecx, DWORD PTR [eax+16]
	mov	DWORD PTR [edx+16], ecx
	mov	edx, DWORD PTR _this$[ebp]
	mov	eax, DWORD PTR ___that$[ebp]
	mov	ecx, DWORD PTR [eax+20]
	mov	DWORD PTR [edx+20], ecx
	mov	edx, DWORD PTR _this$[ebp]
	mov	eax, DWORD PTR ___that$[ebp]
	mov	ecx, DWORD PTR [eax+24]
	mov	DWORD PTR [edx+24], ecx
	mov	edx, DWORD PTR _this$[ebp]
	mov	eax, DWORD PTR ___that$[ebp]
	mov	ecx, DWORD PTR [eax+28]
	mov	DWORD PTR [edx+28], ecx
	mov	edx, DWORD PTR _this$[ebp]
	mov	eax, DWORD PTR ___that$[ebp]
	mov	ecx, DWORD PTR [eax+32]
	mov	DWORD PTR [edx+32], ecx
	mov	edx, DWORD PTR ___that$[ebp]
	add	edx, 36					; 00000024H
	push	edx
	mov	ecx, DWORD PTR _this$[ebp]
	add	ecx, 36					; 00000024H
	call	??0?$vector@DV?$allocator@D@std@@@std@@QAE@ABV01@@Z ; std::vector<char,std::allocator<char> >::vector<char,std::allocator<char> >
	mov	BYTE PTR __$EHRec$[ebp+8], 1
	mov	DWORD PTR __$EHRec$[ebp+8], -1
	mov	eax, DWORD PTR _this$[ebp]
	mov	ecx, DWORD PTR __$EHRec$[ebp]
	mov	DWORD PTR fs:0, ecx
	pop	ecx
	mov	esp, ebp
	pop	ebp
	ret	4
_TEXT	ENDS
;	COMDAT text$x
text$x	SEGMENT
__unwindfunclet$??0SurfaceData@Ogre@@QAE@ABV01@@Z$0:
	mov	ecx, DWORD PTR _this$[ebp]
	jmp	??1BaseObject@Ogre@@MAE@XZ		; Ogre::BaseObject::~BaseObject
__unwindfunclet$??0SurfaceData@Ogre@@QAE@ABV01@@Z$1:
	mov	ecx, DWORD PTR _this$[ebp]
	add	ecx, 36					; 00000024H
	jmp	??1?$vector@DV?$allocator@D@std@@@std@@QAE@XZ ; std::vector<char,std::allocator<char> >::~vector<char,std::allocator<char> >
__ehhandler$??0SurfaceData@Ogre@@QAE@ABV01@@Z:
	mov	edx, DWORD PTR [esp+8]
	lea	eax, DWORD PTR [edx+12]
	mov	ecx, DWORD PTR [edx-8]
	xor	ecx, eax
	call	@__security_check_cookie@4
	mov	eax, OFFSET __ehfuncinfo$??0SurfaceData@Ogre@@QAE@ABV01@@Z
	jmp	___CxxFrameHandler3
text$x	ENDS
??0SurfaceData@Ogre@@QAE@ABV01@@Z ENDP			; Ogre::SurfaceData::SurfaceData
PUBLIC	??4?$vector@DV?$allocator@D@std@@@std@@QAEAAV01@ABV01@@Z ; std::vector<char,std::allocator<char> >::operator=
PUBLIC	??4SurfaceData@Ogre@@QAEAAV01@ABV01@@Z		; Ogre::SurfaceData::operator=
; Function compile flags: /Odtp
;	COMDAT ??4SurfaceData@Ogre@@QAEAAV01@ABV01@@Z
_TEXT	SEGMENT
_this$ = -4						; size = 4
___that$ = 8						; size = 4
??4SurfaceData@Ogre@@QAEAAV01@ABV01@@Z PROC		; Ogre::SurfaceData::operator=, COMDAT
; _this$ = ecx
	push	ebp
	mov	ebp, esp
	push	ecx
	mov	DWORD PTR _this$[ebp], ecx
	mov	eax, DWORD PTR ___that$[ebp]
	push	eax
	mov	ecx, DWORD PTR _this$[ebp]
	call	??4BaseObject@Ogre@@QAEAAV01@ABV01@@Z
	mov	ecx, DWORD PTR _this$[ebp]
	mov	edx, DWORD PTR ___that$[ebp]
	mov	eax, DWORD PTR [edx+8]
	mov	DWORD PTR [ecx+8], eax
	mov	ecx, DWORD PTR _this$[ebp]
	mov	edx, DWORD PTR ___that$[ebp]
	mov	eax, DWORD PTR [edx+12]
	mov	DWORD PTR [ecx+12], eax
	mov	ecx, DWORD PTR _this$[ebp]
	mov	edx, DWORD PTR ___that$[ebp]
	mov	eax, DWORD PTR [edx+16]
	mov	DWORD PTR [ecx+16], eax
	mov	ecx, DWORD PTR _this$[ebp]
	mov	edx, DWORD PTR ___that$[ebp]
	mov	eax, DWORD PTR [edx+20]
	mov	DWORD PTR [ecx+20], eax
	mov	ecx, DWORD PTR _this$[ebp]
	mov	edx, DWORD PTR ___that$[ebp]
	mov	eax, DWORD PTR [edx+24]
	mov	DWORD PTR [ecx+24], eax
	mov	ecx, DWORD PTR _this$[ebp]
	mov	edx, DWORD PTR ___that$[ebp]
	mov	eax, DWORD PTR [edx+28]
	mov	DWORD PTR [ecx+28], eax
	mov	ecx, DWORD PTR _this$[ebp]
	mov	edx, DWORD PTR ___that$[ebp]
	mov	eax, DWORD PTR [edx+32]
	mov	DWORD PTR [ecx+32], eax
	mov	ecx, DWORD PTR ___that$[ebp]
	add	ecx, 36					; 00000024H
	push	ecx
	mov	ecx, DWORD PTR _this$[ebp]
	add	ecx, 36					; 00000024H
	call	??4?$vector@DV?$allocator@D@std@@@std@@QAEAAV01@ABV01@@Z ; std::vector<char,std::allocator<char> >::operator=
	mov	eax, DWORD PTR _this$[ebp]
	mov	esp, ebp
	pop	ebp
	ret	4
??4SurfaceData@Ogre@@QAEAAV01@ABV01@@Z ENDP		; Ogre::SurfaceData::operator=
_TEXT	ENDS
PUBLIC	??_GSurfaceData@Ogre@@UAEPAXI@Z			; Ogre::SurfaceData::`scalar deleting destructor'
; Function compile flags: /Odtp
;	COMDAT ??_GSurfaceData@Ogre@@UAEPAXI@Z
_TEXT	SEGMENT
_this$ = -4						; size = 4
___flags$ = 8						; size = 4
??_GSurfaceData@Ogre@@UAEPAXI@Z PROC			; Ogre::SurfaceData::`scalar deleting destructor', COMDAT
; _this$ = ecx
	push	ebp
	mov	ebp, esp
	push	ecx
	mov	DWORD PTR _this$[ebp], ecx
	mov	ecx, DWORD PTR _this$[ebp]
	call	??1SurfaceData@Ogre@@UAE@XZ
	mov	eax, DWORD PTR ___flags$[ebp]
	and	eax, 1
	je	SHORT $LN1@scalar@13
	push	60					; 0000003cH
	mov	ecx, DWORD PTR _this$[ebp]
	push	ecx
	call	??3MemoryDelegation@Ogre@@SAXPAXI@Z	; Ogre::MemoryDelegation::operator delete
	add	esp, 8
$LN1@scalar@13:
	mov	eax, DWORD PTR _this$[ebp]
	mov	esp, ebp
	pop	ebp
	ret	4
??_GSurfaceData@Ogre@@UAEPAXI@Z ENDP			; Ogre::SurfaceData::`scalar deleting destructor'
; Function compile flags: /Odtp
_TEXT	ENDS
;	COMDAT ??_ESurfaceData@Ogre@@UAEPAXI@Z
_TEXT	SEGMENT
_this$ = -4						; size = 4
___flags$ = 8						; size = 4
??_ESurfaceData@Ogre@@UAEPAXI@Z PROC			; Ogre::SurfaceData::`vector deleting destructor', COMDAT
; _this$ = ecx
	push	ebp
	mov	ebp, esp
	push	ecx
	mov	DWORD PTR _this$[ebp], ecx
	mov	eax, DWORD PTR ___flags$[ebp]
	and	eax, 2
	je	SHORT $LN3@vector@13
	push	OFFSET ??1SurfaceData@Ogre@@UAE@XZ
	mov	ecx, DWORD PTR _this$[ebp]
	mov	edx, DWORD PTR [ecx-4]
	push	edx
	push	60					; 0000003cH
	mov	eax, DWORD PTR _this$[ebp]
	push	eax
	call	??_M@YGXPAXIHP6EX0@Z@Z
	mov	ecx, DWORD PTR ___flags$[ebp]
	and	ecx, 1
	je	SHORT $LN2@vector@13
	push	60					; 0000003cH
	mov	edx, DWORD PTR _this$[ebp]
	sub	edx, 4
	push	edx
	call	??_VMemoryDelegation@Ogre@@SAXPAXI@Z	; Ogre::MemoryDelegation::operator delete[]
	add	esp, 8
$LN2@vector@13:
	mov	eax, DWORD PTR _this$[ebp]
	sub	eax, 4
	jmp	SHORT $LN4@vector@13
$LN3@vector@13:
	mov	ecx, DWORD PTR _this$[ebp]
	call	??1SurfaceData@Ogre@@UAE@XZ
	mov	eax, DWORD PTR ___flags$[ebp]
	and	eax, 1
	je	SHORT $LN1@vector@13
	push	60					; 0000003cH
	mov	ecx, DWORD PTR _this$[ebp]
	push	ecx
	call	??3MemoryDelegation@Ogre@@SAXPAXI@Z	; Ogre::MemoryDelegation::operator delete
	add	esp, 8
$LN1@vector@13:
	mov	eax, DWORD PTR _this$[ebp]
$LN4@vector@13:
	mov	esp, ebp
	pop	ebp
	ret	4
??_ESurfaceData@Ogre@@UAEPAXI@Z ENDP			; Ogre::SurfaceData::`vector deleting destructor'
_TEXT	ENDS
PUBLIC	?getRTTI@DummyTexture@Ogre@@UBEPBVRuntimeClass@2@XZ ; Ogre::DummyTexture::getRTTI
EXTRN	?m_RTTI@DummyTexture@Ogre@@2VRuntimeClass@2@B:BYTE ; Ogre::DummyTexture::m_RTTI
; Function compile flags: /Odtp
;	COMDAT ?getRTTI@DummyTexture@Ogre@@UBEPBVRuntimeClass@2@XZ
_TEXT	SEGMENT
_this$ = -4						; size = 4
?getRTTI@DummyTexture@Ogre@@UBEPBVRuntimeClass@2@XZ PROC ; Ogre::DummyTexture::getRTTI, COMDAT
; _this$ = ecx

; 64   : 		DECLARE_RTTI(DummyTexture)

	push	ebp
	mov	ebp, esp
	push	ecx
	mov	DWORD PTR _this$[ebp], ecx
	mov	eax, OFFSET ?m_RTTI@DummyTexture@Ogre@@2VRuntimeClass@2@B ; Ogre::DummyTexture::m_RTTI
	mov	esp, ebp
	pop	ebp
	ret	0
?getRTTI@DummyTexture@Ogre@@UBEPBVRuntimeClass@2@XZ ENDP ; Ogre::DummyTexture::getRTTI
_TEXT	ENDS
PUBLIC	??0DummyTexture@Ogre@@QAE@XZ			; Ogre::DummyTexture::DummyTexture
PUBLIC	?newObject@DummyTexture@Ogre@@SAPAVBaseObject@2@XZ ; Ogre::DummyTexture::newObject
;	COMDAT xdata$x
xdata$x	SEGMENT
__unwindtable$?newObject@DummyTexture@Ogre@@SAPAVBaseObject@2@XZ DD 0ffffffffH
	DD	FLAT:__unwindfunclet$?newObject@DummyTexture@Ogre@@SAPAVBaseObject@2@XZ$0
__ehfuncinfo$?newObject@DummyTexture@Ogre@@SAPAVBaseObject@2@XZ DD 019930522H
	DD	01H
	DD	FLAT:__unwindtable$?newObject@DummyTexture@Ogre@@SAPAVBaseObject@2@XZ
	DD	2 DUP(00H)
	DD	2 DUP(00H)
	DD	00H
	DD	00H
; Function compile flags: /Odtp
xdata$x	ENDS
;	COMDAT ?newObject@DummyTexture@Ogre@@SAPAVBaseObject@2@XZ
_TEXT	SEGMENT
tv75 = -24						; size = 4
$T67757 = -20						; size = 4
$T67756 = -16						; size = 4
__$EHRec$ = -12						; size = 12
?newObject@DummyTexture@Ogre@@SAPAVBaseObject@2@XZ PROC	; Ogre::DummyTexture::newObject, COMDAT

; 64   : 		DECLARE_RTTI(DummyTexture)

	push	ebp
	mov	ebp, esp
	push	-1
	push	__ehhandler$?newObject@DummyTexture@Ogre@@SAPAVBaseObject@2@XZ
	mov	eax, DWORD PTR fs:0
	push	eax
	sub	esp, 12					; 0000000cH
	mov	eax, DWORD PTR ___security_cookie
	xor	eax, ebp
	push	eax
	lea	eax, DWORD PTR __$EHRec$[ebp]
	mov	DWORD PTR fs:0, eax
	push	16					; 00000010H
	call	??2MemoryDelegation@Ogre@@SAPAXI@Z	; Ogre::MemoryDelegation::operator new
	add	esp, 4
	mov	DWORD PTR $T67757[ebp], eax
	mov	DWORD PTR __$EHRec$[ebp+8], 0
	cmp	DWORD PTR $T67757[ebp], 0
	je	SHORT $LN3@newObject@2
	mov	ecx, DWORD PTR $T67757[ebp]
	call	??0DummyTexture@Ogre@@QAE@XZ
	mov	DWORD PTR tv75[ebp], eax
	jmp	SHORT $LN4@newObject@2
$LN3@newObject@2:
	mov	DWORD PTR tv75[ebp], 0
$LN4@newObject@2:
	mov	eax, DWORD PTR tv75[ebp]
	mov	DWORD PTR $T67756[ebp], eax
	mov	DWORD PTR __$EHRec$[ebp+8], -1
	mov	eax, DWORD PTR $T67756[ebp]
	mov	ecx, DWORD PTR __$EHRec$[ebp]
	mov	DWORD PTR fs:0, ecx
	pop	ecx
	mov	esp, ebp
	pop	ebp
	ret	0
_TEXT	ENDS
;	COMDAT text$x
text$x	SEGMENT
__unwindfunclet$?newObject@DummyTexture@Ogre@@SAPAVBaseObject@2@XZ$0:
	push	16					; 00000010H
	mov	eax, DWORD PTR $T67757[ebp]
	push	eax
	call	??3MemoryDelegation@Ogre@@SAXPAXI@Z	; Ogre::MemoryDelegation::operator delete
	add	esp, 8
	ret	0
__ehhandler$?newObject@DummyTexture@Ogre@@SAPAVBaseObject@2@XZ:
	mov	edx, DWORD PTR [esp+8]
	lea	eax, DWORD PTR [edx+12]
	mov	ecx, DWORD PTR [edx-16]
	xor	ecx, eax
	call	@__security_check_cookie@4
	mov	eax, OFFSET __ehfuncinfo$?newObject@DummyTexture@Ogre@@SAPAVBaseObject@2@XZ
	jmp	___CxxFrameHandler3
text$x	ENDS
?newObject@DummyTexture@Ogre@@SAPAVBaseObject@2@XZ ENDP	; Ogre::DummyTexture::newObject
PUBLIC	?getDesc@DummyTexture@Ogre@@UAEXAAUTextureDesc@2@@Z ; Ogre::DummyTexture::getDesc
; Function compile flags: /Odtp
;	COMDAT ?getDesc@DummyTexture@Ogre@@UAEXAAUTextureDesc@2@@Z
_TEXT	SEGMENT
_this$ = -4						; size = 4
_desc$ = 8						; size = 4
?getDesc@DummyTexture@Ogre@@UAEXAAUTextureDesc@2@@Z PROC ; Ogre::DummyTexture::getDesc, COMDAT
; _this$ = ecx

; 67   : 		{

	push	ebp
	mov	ebp, esp
	push	ecx
	mov	DWORD PTR _this$[ebp], ecx

; 68   : 			assert(0);
; 69   : 		}

	mov	esp, ebp
	pop	ebp
	ret	4
?getDesc@DummyTexture@Ogre@@UAEXAAUTextureDesc@2@@Z ENDP ; Ogre::DummyTexture::getDesc
_TEXT	ENDS
PUBLIC	?getHardwareTexture@DummyTexture@Ogre@@UAEPAVHardwarePixelBuffer@2@XZ ; Ogre::DummyTexture::getHardwareTexture
; Function compile flags: /Odtp
;	COMDAT ?getHardwareTexture@DummyTexture@Ogre@@UAEPAVHardwarePixelBuffer@2@XZ
_TEXT	SEGMENT
_this$ = -4						; size = 4
?getHardwareTexture@DummyTexture@Ogre@@UAEPAVHardwarePixelBuffer@2@XZ PROC ; Ogre::DummyTexture::getHardwareTexture, COMDAT
; _this$ = ecx

; 72   : 		{

	push	ebp
	mov	ebp, esp
	push	ecx
	mov	DWORD PTR _this$[ebp], ecx

; 73   : 			return NULL;

	xor	eax, eax

; 74   : 		}

	mov	esp, ebp
	pop	ebp
	ret	0
?getHardwareTexture@DummyTexture@Ogre@@UAEPAVHardwarePixelBuffer@2@XZ ENDP ; Ogre::DummyTexture::getHardwareTexture
_TEXT	ENDS
PUBLIC	?lock@DummyTexture@Ogre@@UAEPAXII_NAAULockResult@2@@Z ; Ogre::DummyTexture::lock
; Function compile flags: /Odtp
;	COMDAT ?lock@DummyTexture@Ogre@@UAEPAXII_NAAULockResult@2@@Z
_TEXT	SEGMENT
_this$ = -4						; size = 4
_face$ = 8						; size = 4
_level$ = 12						; size = 4
_readonly$ = 16						; size = 1
_lockresult$ = 20					; size = 4
?lock@DummyTexture@Ogre@@UAEPAXII_NAAULockResult@2@@Z PROC ; Ogre::DummyTexture::lock, COMDAT
; _this$ = ecx

; 77   : 		{

	push	ebp
	mov	ebp, esp
	push	ecx
	mov	DWORD PTR _this$[ebp], ecx

; 78   : 			return NULL;

	xor	eax, eax

; 79   : 		}

	mov	esp, ebp
	pop	ebp
	ret	16					; 00000010H
?lock@DummyTexture@Ogre@@UAEPAXII_NAAULockResult@2@@Z ENDP ; Ogre::DummyTexture::lock
_TEXT	ENDS
PUBLIC	?unlock@DummyTexture@Ogre@@UAEXII@Z		; Ogre::DummyTexture::unlock
; Function compile flags: /Odtp
;	COMDAT ?unlock@DummyTexture@Ogre@@UAEXII@Z
_TEXT	SEGMENT
_this$ = -4						; size = 4
_face$ = 8						; size = 4
_level$ = 12						; size = 4
?unlock@DummyTexture@Ogre@@UAEXII@Z PROC		; Ogre::DummyTexture::unlock, COMDAT
; _this$ = ecx

; 82   : 		{

	push	ebp
	mov	ebp, esp
	push	ecx
	mov	DWORD PTR _this$[ebp], ecx

; 83   : 		}

	mov	esp, ebp
	pop	ebp
	ret	8
?unlock@DummyTexture@Ogre@@UAEXII@Z ENDP		; Ogre::DummyTexture::unlock
_TEXT	ENDS
PUBLIC	??_7DummyTexture@Ogre@@6B@			; Ogre::DummyTexture::`vftable'
PUBLIC	??1DummyTexture@Ogre@@EAE@XZ			; Ogre::DummyTexture::~DummyTexture
PUBLIC	??_R4DummyTexture@Ogre@@6B@			; Ogre::DummyTexture::`RTTI Complete Object Locator'
PUBLIC	??_R0?AVDummyTexture@Ogre@@@8			; Ogre::DummyTexture `RTTI Type Descriptor'
PUBLIC	??_R3DummyTexture@Ogre@@8			; Ogre::DummyTexture::`RTTI Class Hierarchy Descriptor'
PUBLIC	??_R2DummyTexture@Ogre@@8			; Ogre::DummyTexture::`RTTI Base Class Array'
PUBLIC	??_R1A@?0A@EA@DummyTexture@Ogre@@8		; Ogre::DummyTexture::`RTTI Base Class Descriptor at (0,-1,0,64)'
PUBLIC	??_EDummyTexture@Ogre@@EAEPAXI@Z		; Ogre::DummyTexture::`vector deleting destructor'
;	COMDAT ??_R1A@?0A@EA@DummyTexture@Ogre@@8
rdata$r	SEGMENT
??_R1A@?0A@EA@DummyTexture@Ogre@@8 DD FLAT:??_R0?AVDummyTexture@Ogre@@@8 ; Ogre::DummyTexture::`RTTI Base Class Descriptor at (0,-1,0,64)'
	DD	04H
	DD	00H
	DD	0ffffffffH
	DD	00H
	DD	040H
	DD	FLAT:??_R3DummyTexture@Ogre@@8
rdata$r	ENDS
;	COMDAT ??_R2DummyTexture@Ogre@@8
rdata$r	SEGMENT
??_R2DummyTexture@Ogre@@8 DD FLAT:??_R1A@?0A@EA@DummyTexture@Ogre@@8 ; Ogre::DummyTexture::`RTTI Base Class Array'
	DD	FLAT:??_R1A@?0A@EA@Texture@Ogre@@8
	DD	FLAT:??_R1A@?0A@EA@Resource@Ogre@@8
	DD	FLAT:??_R1A@?0A@EA@BaseObject@Ogre@@8
	DD	FLAT:??_R13?0A@EA@MemoryDelegation@Ogre@@8
rdata$r	ENDS
;	COMDAT ??_R3DummyTexture@Ogre@@8
rdata$r	SEGMENT
??_R3DummyTexture@Ogre@@8 DD 00H			; Ogre::DummyTexture::`RTTI Class Hierarchy Descriptor'
	DD	00H
	DD	05H
	DD	FLAT:??_R2DummyTexture@Ogre@@8
rdata$r	ENDS
;	COMDAT ??_R0?AVDummyTexture@Ogre@@@8
_DATA	SEGMENT
??_R0?AVDummyTexture@Ogre@@@8 DD FLAT:??_7type_info@@6B@ ; Ogre::DummyTexture `RTTI Type Descriptor'
	DD	00H
	DB	'.?AVDummyTexture@Ogre@@', 00H
_DATA	ENDS
;	COMDAT ??_R4DummyTexture@Ogre@@6B@
rdata$r	SEGMENT
??_R4DummyTexture@Ogre@@6B@ DD 00H			; Ogre::DummyTexture::`RTTI Complete Object Locator'
	DD	00H
	DD	00H
	DD	FLAT:??_R0?AVDummyTexture@Ogre@@@8
	DD	FLAT:??_R3DummyTexture@Ogre@@8
rdata$r	ENDS
;	COMDAT ??_7DummyTexture@Ogre@@6B@
CONST	SEGMENT
??_7DummyTexture@Ogre@@6B@ DD FLAT:??_R4DummyTexture@Ogre@@6B@ ; Ogre::DummyTexture::`vftable'
	DD	FLAT:?getRTTI@DummyTexture@Ogre@@UBEPBVRuntimeClass@2@XZ
	DD	FLAT:?release@Resource@Ogre@@UAEXXZ
	DD	FLAT:?addRef@Resource@Ogre@@UAEXXZ
	DD	FLAT:?getRefCount@Resource@Ogre@@UAEHXZ
	DD	FLAT:?_serialize@BaseObject@Ogre@@UAEXAAVArchive@2@H@Z
	DD	FLAT:??_EDummyTexture@Ogre@@EAEPAXI@Z
	DD	FLAT:?deleteThis@BaseObject@Ogre@@MAEXXZ
	DD	FLAT:?getDesc@DummyTexture@Ogre@@UAEXAAUTextureDesc@2@@Z
	DD	FLAT:?getHardwareTexture@DummyTexture@Ogre@@UAEPAVHardwarePixelBuffer@2@XZ
	DD	FLAT:?lock@DummyTexture@Ogre@@UAEPAXII_NAAULockResult@2@@Z
	DD	FLAT:?unlock@DummyTexture@Ogre@@UAEXII@Z
CONST	ENDS
;	COMDAT xdata$x
xdata$x	SEGMENT
__unwindtable$??1DummyTexture@Ogre@@EAE@XZ DD 0ffffffffH
	DD	FLAT:__unwindfunclet$??1DummyTexture@Ogre@@EAE@XZ$0
__ehfuncinfo$??1DummyTexture@Ogre@@EAE@XZ DD 019930522H
	DD	01H
	DD	FLAT:__unwindtable$??1DummyTexture@Ogre@@EAE@XZ
	DD	2 DUP(00H)
	DD	2 DUP(00H)
	DD	00H
	DD	00H
; Function compile flags: /Odtp
xdata$x	ENDS
;	COMDAT ??1DummyTexture@Ogre@@EAE@XZ
_TEXT	SEGMENT
_this$ = -16						; size = 4
__$EHRec$ = -12						; size = 12
??1DummyTexture@Ogre@@EAE@XZ PROC			; Ogre::DummyTexture::~DummyTexture, COMDAT
; _this$ = ecx

; 87   : 		{

	push	ebp
	mov	ebp, esp
	push	-1
	push	__ehhandler$??1DummyTexture@Ogre@@EAE@XZ
	mov	eax, DWORD PTR fs:0
	push	eax
	push	ecx
	mov	eax, DWORD PTR ___security_cookie
	xor	eax, ebp
	push	eax
	lea	eax, DWORD PTR __$EHRec$[ebp]
	mov	DWORD PTR fs:0, eax
	mov	DWORD PTR _this$[ebp], ecx
	mov	eax, DWORD PTR _this$[ebp]
	mov	DWORD PTR [eax], OFFSET ??_7DummyTexture@Ogre@@6B@
	mov	DWORD PTR __$EHRec$[ebp+8], 0

; 88   : 		}

	mov	DWORD PTR __$EHRec$[ebp+8], -1
	mov	ecx, DWORD PTR _this$[ebp]
	call	??1Texture@Ogre@@MAE@XZ			; Ogre::Texture::~Texture
	mov	ecx, DWORD PTR __$EHRec$[ebp]
	mov	DWORD PTR fs:0, ecx
	pop	ecx
	mov	esp, ebp
	pop	ebp
	ret	0
_TEXT	ENDS
;	COMDAT text$x
text$x	SEGMENT
__unwindfunclet$??1DummyTexture@Ogre@@EAE@XZ$0:
	mov	ecx, DWORD PTR _this$[ebp]
	jmp	??1Texture@Ogre@@MAE@XZ			; Ogre::Texture::~Texture
__ehhandler$??1DummyTexture@Ogre@@EAE@XZ:
	mov	edx, DWORD PTR [esp+8]
	lea	eax, DWORD PTR [edx+12]
	mov	ecx, DWORD PTR [edx-8]
	xor	ecx, eax
	call	@__security_check_cookie@4
	mov	eax, OFFSET __ehfuncinfo$??1DummyTexture@Ogre@@EAE@XZ
	jmp	___CxxFrameHandler3
text$x	ENDS
??1DummyTexture@Ogre@@EAE@XZ ENDP			; Ogre::DummyTexture::~DummyTexture
;	COMDAT xdata$x
xdata$x	SEGMENT
__unwindtable$??0DummyTexture@Ogre@@QAE@XZ DD 0ffffffffH
	DD	FLAT:__unwindfunclet$??0DummyTexture@Ogre@@QAE@XZ$0
__ehfuncinfo$??0DummyTexture@Ogre@@QAE@XZ DD 019930522H
	DD	01H
	DD	FLAT:__unwindtable$??0DummyTexture@Ogre@@QAE@XZ
	DD	2 DUP(00H)
	DD	2 DUP(00H)
	DD	00H
	DD	00H
; Function compile flags: /Odtp
xdata$x	ENDS
;	COMDAT ??0DummyTexture@Ogre@@QAE@XZ
_TEXT	SEGMENT
_this$ = -16						; size = 4
__$EHRec$ = -12						; size = 12
??0DummyTexture@Ogre@@QAE@XZ PROC			; Ogre::DummyTexture::DummyTexture, COMDAT
; _this$ = ecx
	push	ebp
	mov	ebp, esp
	push	-1
	push	__ehhandler$??0DummyTexture@Ogre@@QAE@XZ
	mov	eax, DWORD PTR fs:0
	push	eax
	push	ecx
	mov	eax, DWORD PTR ___security_cookie
	xor	eax, ebp
	push	eax
	lea	eax, DWORD PTR __$EHRec$[ebp]
	mov	DWORD PTR fs:0, eax
	mov	DWORD PTR _this$[ebp], ecx
	mov	ecx, DWORD PTR _this$[ebp]
	call	??0Texture@Ogre@@QAE@XZ
	mov	DWORD PTR __$EHRec$[ebp+8], 0
	mov	eax, DWORD PTR _this$[ebp]
	mov	DWORD PTR [eax], OFFSET ??_7DummyTexture@Ogre@@6B@
	mov	DWORD PTR __$EHRec$[ebp+8], -1
	mov	eax, DWORD PTR _this$[ebp]
	mov	ecx, DWORD PTR __$EHRec$[ebp]
	mov	DWORD PTR fs:0, ecx
	pop	ecx
	mov	esp, ebp
	pop	ebp
	ret	0
_TEXT	ENDS
;	COMDAT text$x
text$x	SEGMENT
__unwindfunclet$??0DummyTexture@Ogre@@QAE@XZ$0:
	mov	ecx, DWORD PTR _this$[ebp]
	jmp	??1Texture@Ogre@@MAE@XZ			; Ogre::Texture::~Texture
__ehhandler$??0DummyTexture@Ogre@@QAE@XZ:
	mov	edx, DWORD PTR [esp+8]
	lea	eax, DWORD PTR [edx+12]
	mov	ecx, DWORD PTR [edx-8]
	xor	ecx, eax
	call	@__security_check_cookie@4
	mov	eax, OFFSET __ehfuncinfo$??0DummyTexture@Ogre@@QAE@XZ
	jmp	___CxxFrameHandler3
text$x	ENDS
??0DummyTexture@Ogre@@QAE@XZ ENDP			; Ogre::DummyTexture::DummyTexture
PUBLIC	??0DummyTexture@Ogre@@QAE@ABV01@@Z		; Ogre::DummyTexture::DummyTexture
;	COMDAT xdata$x
xdata$x	SEGMENT
__unwindtable$??0DummyTexture@Ogre@@QAE@ABV01@@Z DD 0ffffffffH
	DD	FLAT:__unwindfunclet$??0DummyTexture@Ogre@@QAE@ABV01@@Z$0
__ehfuncinfo$??0DummyTexture@Ogre@@QAE@ABV01@@Z DD 019930522H
	DD	01H
	DD	FLAT:__unwindtable$??0DummyTexture@Ogre@@QAE@ABV01@@Z
	DD	2 DUP(00H)
	DD	2 DUP(00H)
	DD	00H
	DD	00H
; Function compile flags: /Odtp
xdata$x	ENDS
;	COMDAT ??0DummyTexture@Ogre@@QAE@ABV01@@Z
_TEXT	SEGMENT
_this$ = -16						; size = 4
__$EHRec$ = -12						; size = 12
___that$ = 8						; size = 4
??0DummyTexture@Ogre@@QAE@ABV01@@Z PROC			; Ogre::DummyTexture::DummyTexture, COMDAT
; _this$ = ecx
	push	ebp
	mov	ebp, esp
	push	-1
	push	__ehhandler$??0DummyTexture@Ogre@@QAE@ABV01@@Z
	mov	eax, DWORD PTR fs:0
	push	eax
	push	ecx
	mov	eax, DWORD PTR ___security_cookie
	xor	eax, ebp
	push	eax
	lea	eax, DWORD PTR __$EHRec$[ebp]
	mov	DWORD PTR fs:0, eax
	mov	DWORD PTR _this$[ebp], ecx
	mov	eax, DWORD PTR ___that$[ebp]
	push	eax
	mov	ecx, DWORD PTR _this$[ebp]
	call	??0Texture@Ogre@@QAE@ABV01@@Z
	mov	DWORD PTR __$EHRec$[ebp+8], 0
	mov	ecx, DWORD PTR _this$[ebp]
	mov	DWORD PTR [ecx], OFFSET ??_7DummyTexture@Ogre@@6B@
	mov	DWORD PTR __$EHRec$[ebp+8], -1
	mov	eax, DWORD PTR _this$[ebp]
	mov	ecx, DWORD PTR __$EHRec$[ebp]
	mov	DWORD PTR fs:0, ecx
	pop	ecx
	mov	esp, ebp
	pop	ebp
	ret	4
_TEXT	ENDS
;	COMDAT text$x
text$x	SEGMENT
__unwindfunclet$??0DummyTexture@Ogre@@QAE@ABV01@@Z$0:
	mov	ecx, DWORD PTR _this$[ebp]
	jmp	??1Texture@Ogre@@MAE@XZ			; Ogre::Texture::~Texture
__ehhandler$??0DummyTexture@Ogre@@QAE@ABV01@@Z:
	mov	edx, DWORD PTR [esp+8]
	lea	eax, DWORD PTR [edx+12]
	mov	ecx, DWORD PTR [edx-8]
	xor	ecx, eax
	call	@__security_check_cookie@4
	mov	eax, OFFSET __ehfuncinfo$??0DummyTexture@Ogre@@QAE@ABV01@@Z
	jmp	___CxxFrameHandler3
text$x	ENDS
??0DummyTexture@Ogre@@QAE@ABV01@@Z ENDP			; Ogre::DummyTexture::DummyTexture
PUBLIC	??4DummyTexture@Ogre@@QAEAAV01@ABV01@@Z		; Ogre::DummyTexture::operator=
; Function compile flags: /Odtp
;	COMDAT ??4DummyTexture@Ogre@@QAEAAV01@ABV01@@Z
_TEXT	SEGMENT
_this$ = -4						; size = 4
___that$ = 8						; size = 4
??4DummyTexture@Ogre@@QAEAAV01@ABV01@@Z PROC		; Ogre::DummyTexture::operator=, COMDAT
; _this$ = ecx
	push	ebp
	mov	ebp, esp
	push	ecx
	mov	DWORD PTR _this$[ebp], ecx
	mov	eax, DWORD PTR ___that$[ebp]
	push	eax
	mov	ecx, DWORD PTR _this$[ebp]
	call	??4Texture@Ogre@@QAEAAV01@ABV01@@Z
	mov	eax, DWORD PTR _this$[ebp]
	mov	esp, ebp
	pop	ebp
	ret	4
??4DummyTexture@Ogre@@QAEAAV01@ABV01@@Z ENDP		; Ogre::DummyTexture::operator=
_TEXT	ENDS
PUBLIC	??_GDummyTexture@Ogre@@EAEPAXI@Z		; Ogre::DummyTexture::`scalar deleting destructor'
; Function compile flags: /Odtp
;	COMDAT ??_GDummyTexture@Ogre@@EAEPAXI@Z
_TEXT	SEGMENT
_this$ = -4						; size = 4
___flags$ = 8						; size = 4
??_GDummyTexture@Ogre@@EAEPAXI@Z PROC			; Ogre::DummyTexture::`scalar deleting destructor', COMDAT
; _this$ = ecx
	push	ebp
	mov	ebp, esp
	push	ecx
	mov	DWORD PTR _this$[ebp], ecx
	mov	ecx, DWORD PTR _this$[ebp]
	call	??1DummyTexture@Ogre@@EAE@XZ		; Ogre::DummyTexture::~DummyTexture
	mov	eax, DWORD PTR ___flags$[ebp]
	and	eax, 1
	je	SHORT $LN1@scalar@14
	push	16					; 00000010H
	mov	ecx, DWORD PTR _this$[ebp]
	push	ecx
	call	??3MemoryDelegation@Ogre@@SAXPAXI@Z	; Ogre::MemoryDelegation::operator delete
	add	esp, 8
$LN1@scalar@14:
	mov	eax, DWORD PTR _this$[ebp]
	mov	esp, ebp
	pop	ebp
	ret	4
??_GDummyTexture@Ogre@@EAEPAXI@Z ENDP			; Ogre::DummyTexture::`scalar deleting destructor'
; Function compile flags: /Odtp
_TEXT	ENDS
;	COMDAT ??_EDummyTexture@Ogre@@EAEPAXI@Z
_TEXT	SEGMENT
_this$ = -4						; size = 4
___flags$ = 8						; size = 4
??_EDummyTexture@Ogre@@EAEPAXI@Z PROC			; Ogre::DummyTexture::`vector deleting destructor', COMDAT
; _this$ = ecx
	push	ebp
	mov	ebp, esp
	push	ecx
	mov	DWORD PTR _this$[ebp], ecx
	mov	eax, DWORD PTR ___flags$[ebp]
	and	eax, 2
	je	SHORT $LN3@vector@14
	push	OFFSET ??1DummyTexture@Ogre@@EAE@XZ	; Ogre::DummyTexture::~DummyTexture
	mov	ecx, DWORD PTR _this$[ebp]
	mov	edx, DWORD PTR [ecx-4]
	push	edx
	push	16					; 00000010H
	mov	eax, DWORD PTR _this$[ebp]
	push	eax
	call	??_M@YGXPAXIHP6EX0@Z@Z
	mov	ecx, DWORD PTR ___flags$[ebp]
	and	ecx, 1
	je	SHORT $LN2@vector@14
	push	16					; 00000010H
	mov	edx, DWORD PTR _this$[ebp]
	sub	edx, 4
	push	edx
	call	??_VMemoryDelegation@Ogre@@SAXPAXI@Z	; Ogre::MemoryDelegation::operator delete[]
	add	esp, 8
$LN2@vector@14:
	mov	eax, DWORD PTR _this$[ebp]
	sub	eax, 4
	jmp	SHORT $LN4@vector@14
$LN3@vector@14:
	mov	ecx, DWORD PTR _this$[ebp]
	call	??1DummyTexture@Ogre@@EAE@XZ		; Ogre::DummyTexture::~DummyTexture
	mov	eax, DWORD PTR ___flags$[ebp]
	and	eax, 1
	je	SHORT $LN1@vector@14
	push	16					; 00000010H
	mov	ecx, DWORD PTR _this$[ebp]
	push	ecx
	call	??3MemoryDelegation@Ogre@@SAXPAXI@Z	; Ogre::MemoryDelegation::operator delete
	add	esp, 8
$LN1@vector@14:
	mov	eax, DWORD PTR _this$[ebp]
$LN4@vector@14:
	mov	esp, ebp
	pop	ebp
	ret	4
??_EDummyTexture@Ogre@@EAEPAXI@Z ENDP			; Ogre::DummyTexture::`vector deleting destructor'
_TEXT	ENDS
PUBLIC	?getRTTI@TextureData@Ogre@@UBEPBVRuntimeClass@2@XZ ; Ogre::TextureData::getRTTI
EXTRN	?m_RTTI@TextureData@Ogre@@2VRuntimeClass@2@B:BYTE ; Ogre::TextureData::m_RTTI
; Function compile flags: /Odtp
;	COMDAT ?getRTTI@TextureData@Ogre@@UBEPBVRuntimeClass@2@XZ
_TEXT	SEGMENT
_this$ = -4						; size = 4
?getRTTI@TextureData@Ogre@@UBEPBVRuntimeClass@2@XZ PROC	; Ogre::TextureData::getRTTI, COMDAT
; _this$ = ecx

; 93   : 		DECLARE_RTTI(TextureData)

	push	ebp
	mov	ebp, esp
	push	ecx
	mov	DWORD PTR _this$[ebp], ecx
	mov	eax, OFFSET ?m_RTTI@TextureData@Ogre@@2VRuntimeClass@2@B ; Ogre::TextureData::m_RTTI
	mov	esp, ebp
	pop	ebp
	ret	0
?getRTTI@TextureData@Ogre@@UBEPBVRuntimeClass@2@XZ ENDP	; Ogre::TextureData::getRTTI
_TEXT	ENDS
PUBLIC	?newObject@TextureData@Ogre@@SAPAVBaseObject@2@XZ ; Ogre::TextureData::newObject
EXTRN	??0TextureData@Ogre@@QAE@XZ:PROC		; Ogre::TextureData::TextureData
;	COMDAT xdata$x
xdata$x	SEGMENT
__unwindtable$?newObject@TextureData@Ogre@@SAPAVBaseObject@2@XZ DD 0ffffffffH
	DD	FLAT:__unwindfunclet$?newObject@TextureData@Ogre@@SAPAVBaseObject@2@XZ$0
__ehfuncinfo$?newObject@TextureData@Ogre@@SAPAVBaseObject@2@XZ DD 019930522H
	DD	01H
	DD	FLAT:__unwindtable$?newObject@TextureData@Ogre@@SAPAVBaseObject@2@XZ
	DD	2 DUP(00H)
	DD	2 DUP(00H)
	DD	00H
	DD	00H
; Function compile flags: /Odtp
xdata$x	ENDS
;	COMDAT ?newObject@TextureData@Ogre@@SAPAVBaseObject@2@XZ
_TEXT	SEGMENT
tv75 = -24						; size = 4
$T67813 = -20						; size = 4
$T67812 = -16						; size = 4
__$EHRec$ = -12						; size = 12
?newObject@TextureData@Ogre@@SAPAVBaseObject@2@XZ PROC	; Ogre::TextureData::newObject, COMDAT

; 93   : 		DECLARE_RTTI(TextureData)

	push	ebp
	mov	ebp, esp
	push	-1
	push	__ehhandler$?newObject@TextureData@Ogre@@SAPAVBaseObject@2@XZ
	mov	eax, DWORD PTR fs:0
	push	eax
	sub	esp, 12					; 0000000cH
	mov	eax, DWORD PTR ___security_cookie
	xor	eax, ebp
	push	eax
	lea	eax, DWORD PTR __$EHRec$[ebp]
	mov	DWORD PTR fs:0, eax
	push	108					; 0000006cH
	call	??2MemoryDelegation@Ogre@@SAPAXI@Z	; Ogre::MemoryDelegation::operator new
	add	esp, 4
	mov	DWORD PTR $T67813[ebp], eax
	mov	DWORD PTR __$EHRec$[ebp+8], 0
	cmp	DWORD PTR $T67813[ebp], 0
	je	SHORT $LN3@newObject@3
	mov	ecx, DWORD PTR $T67813[ebp]
	call	??0TextureData@Ogre@@QAE@XZ		; Ogre::TextureData::TextureData
	mov	DWORD PTR tv75[ebp], eax
	jmp	SHORT $LN4@newObject@3
$LN3@newObject@3:
	mov	DWORD PTR tv75[ebp], 0
$LN4@newObject@3:
	mov	eax, DWORD PTR tv75[ebp]
	mov	DWORD PTR $T67812[ebp], eax
	mov	DWORD PTR __$EHRec$[ebp+8], -1
	mov	eax, DWORD PTR $T67812[ebp]
	mov	ecx, DWORD PTR __$EHRec$[ebp]
	mov	DWORD PTR fs:0, ecx
	pop	ecx
	mov	esp, ebp
	pop	ebp
	ret	0
_TEXT	ENDS
;	COMDAT text$x
text$x	SEGMENT
__unwindfunclet$?newObject@TextureData@Ogre@@SAPAVBaseObject@2@XZ$0:
	push	108					; 0000006cH
	mov	eax, DWORD PTR $T67813[ebp]
	push	eax
	call	??3MemoryDelegation@Ogre@@SAXPAXI@Z	; Ogre::MemoryDelegation::operator delete
	add	esp, 8
	ret	0
__ehhandler$?newObject@TextureData@Ogre@@SAPAVBaseObject@2@XZ:
	mov	edx, DWORD PTR [esp+8]
	lea	eax, DWORD PTR [edx+12]
	mov	ecx, DWORD PTR [edx-16]
	xor	ecx, eax
	call	@__security_check_cookie@4
	mov	eax, OFFSET __ehfuncinfo$?newObject@TextureData@Ogre@@SAPAVBaseObject@2@XZ
	jmp	___CxxFrameHandler3
text$x	ENDS
?newObject@TextureData@Ogre@@SAPAVBaseObject@2@XZ ENDP	; Ogre::TextureData::newObject
PUBLIC	?getDesc@TextureData@Ogre@@UAEXAAUTextureDesc@2@@Z ; Ogre::TextureData::getDesc
; Function compile flags: /Odtp
;	COMDAT ?getDesc@TextureData@Ogre@@UAEXAAUTextureDesc@2@@Z
_TEXT	SEGMENT
_this$ = -4						; size = 4
_desc$ = 8						; size = 4
?getDesc@TextureData@Ogre@@UAEXAAUTextureDesc@2@@Z PROC	; Ogre::TextureData::getDesc, COMDAT
; _this$ = ecx

; 107  : 		{

	push	ebp
	mov	ebp, esp
	push	ecx
	push	esi
	push	edi
	mov	DWORD PTR _this$[ebp], ecx

; 108  : 			desc = m_Desc;

	mov	esi, DWORD PTR _this$[ebp]
	add	esi, 16					; 00000010H
	mov	ecx, 7
	mov	edi, DWORD PTR _desc$[ebp]
	rep movsd

; 109  : 		}

	pop	edi
	pop	esi
	mov	esp, ebp
	pop	ebp
	ret	4
?getDesc@TextureData@Ogre@@UAEXAAUTextureDesc@2@@Z ENDP	; Ogre::TextureData::getDesc
_TEXT	ENDS
PUBLIC	?getWidth@TextureData@Ogre@@QAEIXZ		; Ogre::TextureData::getWidth
; Function compile flags: /Odtp
;	COMDAT ?getWidth@TextureData@Ogre@@QAEIXZ
_TEXT	SEGMENT
_this$ = -4						; size = 4
?getWidth@TextureData@Ogre@@QAEIXZ PROC			; Ogre::TextureData::getWidth, COMDAT
; _this$ = ecx

; 112  : 		{

	push	ebp
	mov	ebp, esp
	push	ecx
	mov	DWORD PTR _this$[ebp], ecx

; 113  : 			return m_Desc.width;

	mov	eax, DWORD PTR _this$[ebp]
	mov	eax, DWORD PTR [eax+20]

; 114  : 		}

	mov	esp, ebp
	pop	ebp
	ret	0
?getWidth@TextureData@Ogre@@QAEIXZ ENDP			; Ogre::TextureData::getWidth
_TEXT	ENDS
PUBLIC	?getHeight@TextureData@Ogre@@QAEIXZ		; Ogre::TextureData::getHeight
; Function compile flags: /Odtp
;	COMDAT ?getHeight@TextureData@Ogre@@QAEIXZ
_TEXT	SEGMENT
_this$ = -4						; size = 4
?getHeight@TextureData@Ogre@@QAEIXZ PROC		; Ogre::TextureData::getHeight, COMDAT
; _this$ = ecx

; 117  : 		{

	push	ebp
	mov	ebp, esp
	push	ecx
	mov	DWORD PTR _this$[ebp], ecx

; 118  : 			return m_Desc.height;

	mov	eax, DWORD PTR _this$[ebp]
	mov	eax, DWORD PTR [eax+24]

; 119  : 		}

	mov	esp, ebp
	pop	ebp
	ret	0
?getHeight@TextureData@Ogre@@QAEIXZ ENDP		; Ogre::TextureData::getHeight
_TEXT	ENDS
PUBLIC	?getFormat@TextureData@Ogre@@QAE?AW4PixelFormat@2@XZ ; Ogre::TextureData::getFormat
; Function compile flags: /Odtp
;	COMDAT ?getFormat@TextureData@Ogre@@QAE?AW4PixelFormat@2@XZ
_TEXT	SEGMENT
_this$ = -4						; size = 4
?getFormat@TextureData@Ogre@@QAE?AW4PixelFormat@2@XZ PROC ; Ogre::TextureData::getFormat, COMDAT
; _this$ = ecx

; 122  : 		{

	push	ebp
	mov	ebp, esp
	push	ecx
	mov	DWORD PTR _this$[ebp], ecx

; 123  : 			return m_Desc.format;

	mov	eax, DWORD PTR _this$[ebp]
	mov	eax, DWORD PTR [eax+36]

; 124  : 		}

	mov	esp, ebp
	pop	ebp
	ret	0
?getFormat@TextureData@Ogre@@QAE?AW4PixelFormat@2@XZ ENDP ; Ogre::TextureData::getFormat
_TEXT	ENDS
PUBLIC	?setStatic@TextureData@Ogre@@QAEX_N@Z		; Ogre::TextureData::setStatic
; Function compile flags: /Odtp
;	COMDAT ?setStatic@TextureData@Ogre@@QAEX_N@Z
_TEXT	SEGMENT
_this$ = -4						; size = 4
_is_static$ = 8						; size = 1
?setStatic@TextureData@Ogre@@QAEX_N@Z PROC		; Ogre::TextureData::setStatic, COMDAT
; _this$ = ecx

; 142  : 		{

	push	ebp
	mov	ebp, esp
	push	ecx
	mov	DWORD PTR _this$[ebp], ecx

; 143  : 			m_isStatic = is_static;

	mov	eax, DWORD PTR _this$[ebp]
	mov	cl, BYTE PTR _is_static$[ebp]
	mov	BYTE PTR [eax+76], cl

; 144  : 		}

	mov	esp, ebp
	pop	ebp
	ret	4
?setStatic@TextureData@Ogre@@QAEX_N@Z ENDP		; Ogre::TextureData::setStatic
_TEXT	ENDS
PUBLIC	??1?$vector@PAVSurfaceData@Ogre@@V?$allocator@PAVSurfaceData@Ogre@@@std@@@std@@QAE@XZ ; std::vector<Ogre::SurfaceData *,std::allocator<Ogre::SurfaceData *> >::~vector<Ogre::SurfaceData *,std::allocator<Ogre::SurfaceData *> >
PUBLIC	??0?$vector@PAVSurfaceData@Ogre@@V?$allocator@PAVSurfaceData@Ogre@@@std@@@std@@QAE@ABV01@@Z ; std::vector<Ogre::SurfaceData *,std::allocator<Ogre::SurfaceData *> >::vector<Ogre::SurfaceData *,std::allocator<Ogre::SurfaceData *> >
PUBLIC	??_7TextureData@Ogre@@6B@			; Ogre::TextureData::`vftable'
PUBLIC	??0TextureData@Ogre@@QAE@ABV01@@Z		; Ogre::TextureData::TextureData
PUBLIC	??_R4TextureData@Ogre@@6B@			; Ogre::TextureData::`RTTI Complete Object Locator'
PUBLIC	??_R0?AVTextureData@Ogre@@@8			; Ogre::TextureData `RTTI Type Descriptor'
PUBLIC	??_R3TextureData@Ogre@@8			; Ogre::TextureData::`RTTI Class Hierarchy Descriptor'
PUBLIC	??_R2TextureData@Ogre@@8			; Ogre::TextureData::`RTTI Base Class Array'
PUBLIC	??_R1A@?0A@EA@TextureData@Ogre@@8		; Ogre::TextureData::`RTTI Base Class Descriptor at (0,-1,0,64)'
PUBLIC	??_ETextureData@Ogre@@MAEPAXI@Z			; Ogre::TextureData::`vector deleting destructor'
EXTRN	?_serialize@TextureData@Ogre@@EAEXAAVArchive@2@H@Z:PROC ; Ogre::TextureData::_serialize
EXTRN	?getHardwareTexture@TextureData@Ogre@@UAEPAVHardwarePixelBuffer@2@XZ:PROC ; Ogre::TextureData::getHardwareTexture
EXTRN	?lock@TextureData@Ogre@@UAEPAXII_NAAULockResult@2@@Z:PROC ; Ogre::TextureData::lock
EXTRN	?unlock@TextureData@Ogre@@UAEXII@Z:PROC		; Ogre::TextureData::unlock
;	COMDAT ??_R1A@?0A@EA@TextureData@Ogre@@8
rdata$r	SEGMENT
??_R1A@?0A@EA@TextureData@Ogre@@8 DD FLAT:??_R0?AVTextureData@Ogre@@@8 ; Ogre::TextureData::`RTTI Base Class Descriptor at (0,-1,0,64)'
	DD	04H
	DD	00H
	DD	0ffffffffH
	DD	00H
	DD	040H
	DD	FLAT:??_R3TextureData@Ogre@@8
rdata$r	ENDS
;	COMDAT ??_R2TextureData@Ogre@@8
rdata$r	SEGMENT
??_R2TextureData@Ogre@@8 DD FLAT:??_R1A@?0A@EA@TextureData@Ogre@@8 ; Ogre::TextureData::`RTTI Base Class Array'
	DD	FLAT:??_R1A@?0A@EA@Texture@Ogre@@8
	DD	FLAT:??_R1A@?0A@EA@Resource@Ogre@@8
	DD	FLAT:??_R1A@?0A@EA@BaseObject@Ogre@@8
	DD	FLAT:??_R13?0A@EA@MemoryDelegation@Ogre@@8
rdata$r	ENDS
;	COMDAT ??_R3TextureData@Ogre@@8
rdata$r	SEGMENT
??_R3TextureData@Ogre@@8 DD 00H				; Ogre::TextureData::`RTTI Class Hierarchy Descriptor'
	DD	00H
	DD	05H
	DD	FLAT:??_R2TextureData@Ogre@@8
rdata$r	ENDS
;	COMDAT ??_R0?AVTextureData@Ogre@@@8
_DATA	SEGMENT
??_R0?AVTextureData@Ogre@@@8 DD FLAT:??_7type_info@@6B@	; Ogre::TextureData `RTTI Type Descriptor'
	DD	00H
	DB	'.?AVTextureData@Ogre@@', 00H
_DATA	ENDS
;	COMDAT ??_R4TextureData@Ogre@@6B@
rdata$r	SEGMENT
??_R4TextureData@Ogre@@6B@ DD 00H			; Ogre::TextureData::`RTTI Complete Object Locator'
	DD	00H
	DD	00H
	DD	FLAT:??_R0?AVTextureData@Ogre@@@8
	DD	FLAT:??_R3TextureData@Ogre@@8
rdata$r	ENDS
;	COMDAT ??_7TextureData@Ogre@@6B@
CONST	SEGMENT
??_7TextureData@Ogre@@6B@ DD FLAT:??_R4TextureData@Ogre@@6B@ ; Ogre::TextureData::`vftable'
	DD	FLAT:?getRTTI@TextureData@Ogre@@UBEPBVRuntimeClass@2@XZ
	DD	FLAT:?release@Resource@Ogre@@UAEXXZ
	DD	FLAT:?addRef@Resource@Ogre@@UAEXXZ
	DD	FLAT:?getRefCount@Resource@Ogre@@UAEHXZ
	DD	FLAT:?_serialize@TextureData@Ogre@@EAEXAAVArchive@2@H@Z
	DD	FLAT:??_ETextureData@Ogre@@MAEPAXI@Z
	DD	FLAT:?deleteThis@BaseObject@Ogre@@MAEXXZ
	DD	FLAT:?getDesc@TextureData@Ogre@@UAEXAAUTextureDesc@2@@Z
	DD	FLAT:?getHardwareTexture@TextureData@Ogre@@UAEPAVHardwarePixelBuffer@2@XZ
	DD	FLAT:?lock@TextureData@Ogre@@UAEPAXII_NAAULockResult@2@@Z
	DD	FLAT:?unlock@TextureData@Ogre@@UAEXII@Z
CONST	ENDS
;	COMDAT xdata$x
xdata$x	SEGMENT
__unwindtable$??0TextureData@Ogre@@QAE@ABV01@@Z DD 0ffffffffH
	DD	FLAT:__unwindfunclet$??0TextureData@Ogre@@QAE@ABV01@@Z$0
	DD	00H
	DD	FLAT:__unwindfunclet$??0TextureData@Ogre@@QAE@ABV01@@Z$1
	DD	01H
	DD	FLAT:__unwindfunclet$??0TextureData@Ogre@@QAE@ABV01@@Z$2
__ehfuncinfo$??0TextureData@Ogre@@QAE@ABV01@@Z DD 019930522H
	DD	03H
	DD	FLAT:__unwindtable$??0TextureData@Ogre@@QAE@ABV01@@Z
	DD	2 DUP(00H)
	DD	2 DUP(00H)
	DD	00H
	DD	00H
; Function compile flags: /Odtp
xdata$x	ENDS
;	COMDAT ??0TextureData@Ogre@@QAE@ABV01@@Z
_TEXT	SEGMENT
_this$ = -16						; size = 4
__$EHRec$ = -12						; size = 12
___that$ = 8						; size = 4
??0TextureData@Ogre@@QAE@ABV01@@Z PROC			; Ogre::TextureData::TextureData, COMDAT
; _this$ = ecx
	push	ebp
	mov	ebp, esp
	push	-1
	push	__ehhandler$??0TextureData@Ogre@@QAE@ABV01@@Z
	mov	eax, DWORD PTR fs:0
	push	eax
	push	ecx
	push	esi
	push	edi
	mov	eax, DWORD PTR ___security_cookie
	xor	eax, ebp
	push	eax
	lea	eax, DWORD PTR __$EHRec$[ebp]
	mov	DWORD PTR fs:0, eax
	mov	DWORD PTR _this$[ebp], ecx
	mov	eax, DWORD PTR ___that$[ebp]
	push	eax
	mov	ecx, DWORD PTR _this$[ebp]
	call	??0Texture@Ogre@@QAE@ABV01@@Z
	mov	DWORD PTR __$EHRec$[ebp+8], 0
	mov	ecx, DWORD PTR _this$[ebp]
	mov	DWORD PTR [ecx], OFFSET ??_7TextureData@Ogre@@6B@
	mov	esi, DWORD PTR ___that$[ebp]
	add	esi, 16					; 00000010H
	mov	edi, DWORD PTR _this$[ebp]
	add	edi, 16					; 00000010H
	mov	ecx, 7
	rep movsd
	mov	edx, DWORD PTR ___that$[ebp]
	add	edx, 44					; 0000002cH
	push	edx
	mov	ecx, DWORD PTR _this$[ebp]
	add	ecx, 44					; 0000002cH
	call	??0?$vector@PAVSurfaceData@Ogre@@V?$allocator@PAVSurfaceData@Ogre@@@std@@@std@@QAE@ABV01@@Z ; std::vector<Ogre::SurfaceData *,std::allocator<Ogre::SurfaceData *> >::vector<Ogre::SurfaceData *,std::allocator<Ogre::SurfaceData *> >
	mov	BYTE PTR __$EHRec$[ebp+8], 1
	mov	eax, DWORD PTR _this$[ebp]
	mov	ecx, DWORD PTR ___that$[ebp]
	mov	edx, DWORD PTR [ecx+68]
	mov	DWORD PTR [eax+68], edx
	mov	eax, DWORD PTR _this$[ebp]
	mov	ecx, DWORD PTR ___that$[ebp]
	mov	edx, DWORD PTR [ecx+72]
	mov	DWORD PTR [eax+72], edx
	mov	eax, DWORD PTR _this$[ebp]
	mov	ecx, DWORD PTR ___that$[ebp]
	mov	dl, BYTE PTR [ecx+76]
	mov	BYTE PTR [eax+76], dl
	mov	eax, DWORD PTR ___that$[ebp]
	add	eax, 80					; 00000050H
	push	eax
	mov	ecx, DWORD PTR _this$[ebp]
	add	ecx, 80					; 00000050H
	call	DWORD PTR __imp_??0?$basic_string@DU?$char_traits@D@std@@V?$allocator@D@2@@std@@QAE@ABV01@@Z
	mov	BYTE PTR __$EHRec$[ebp+8], 2
	mov	DWORD PTR __$EHRec$[ebp+8], -1
	mov	eax, DWORD PTR _this$[ebp]
	mov	ecx, DWORD PTR __$EHRec$[ebp]
	mov	DWORD PTR fs:0, ecx
	pop	ecx
	pop	edi
	pop	esi
	mov	esp, ebp
	pop	ebp
	ret	4
_TEXT	ENDS
;	COMDAT text$x
text$x	SEGMENT
__unwindfunclet$??0TextureData@Ogre@@QAE@ABV01@@Z$0:
	mov	ecx, DWORD PTR _this$[ebp]
	jmp	??1Texture@Ogre@@MAE@XZ			; Ogre::Texture::~Texture
__unwindfunclet$??0TextureData@Ogre@@QAE@ABV01@@Z$1:
	mov	ecx, DWORD PTR _this$[ebp]
	add	ecx, 44					; 0000002cH
	jmp	??1?$vector@PAVSurfaceData@Ogre@@V?$allocator@PAVSurfaceData@Ogre@@@std@@@std@@QAE@XZ ; std::vector<Ogre::SurfaceData *,std::allocator<Ogre::SurfaceData *> >::~vector<Ogre::SurfaceData *,std::allocator<Ogre::SurfaceData *> >
__unwindfunclet$??0TextureData@Ogre@@QAE@ABV01@@Z$2:
	mov	ecx, DWORD PTR _this$[ebp]
	add	ecx, 80					; 00000050H
	jmp	DWORD PTR __imp_??1?$basic_string@DU?$char_traits@D@std@@V?$allocator@D@2@@std@@QAE@XZ
__ehhandler$??0TextureData@Ogre@@QAE@ABV01@@Z:
	mov	edx, DWORD PTR [esp+8]
	lea	eax, DWORD PTR [edx+12]
	mov	ecx, DWORD PTR [edx-16]
	xor	ecx, eax
	call	@__security_check_cookie@4
	mov	eax, OFFSET __ehfuncinfo$??0TextureData@Ogre@@QAE@ABV01@@Z
	jmp	___CxxFrameHandler3
text$x	ENDS
??0TextureData@Ogre@@QAE@ABV01@@Z ENDP			; Ogre::TextureData::TextureData
PUBLIC	??4?$vector@PAVSurfaceData@Ogre@@V?$allocator@PAVSurfaceData@Ogre@@@std@@@std@@QAEAAV01@ABV01@@Z ; std::vector<Ogre::SurfaceData *,std::allocator<Ogre::SurfaceData *> >::operator=
PUBLIC	??4TextureData@Ogre@@QAEAAV01@ABV01@@Z		; Ogre::TextureData::operator=
; Function compile flags: /Odtp
;	COMDAT ??4TextureData@Ogre@@QAEAAV01@ABV01@@Z
_TEXT	SEGMENT
_this$ = -4						; size = 4
___that$ = 8						; size = 4
??4TextureData@Ogre@@QAEAAV01@ABV01@@Z PROC		; Ogre::TextureData::operator=, COMDAT
; _this$ = ecx
	push	ebp
	mov	ebp, esp
	push	ecx
	push	esi
	push	edi
	mov	DWORD PTR _this$[ebp], ecx
	mov	eax, DWORD PTR ___that$[ebp]
	push	eax
	mov	ecx, DWORD PTR _this$[ebp]
	call	??4Texture@Ogre@@QAEAAV01@ABV01@@Z
	mov	esi, DWORD PTR ___that$[ebp]
	add	esi, 16					; 00000010H
	mov	edi, DWORD PTR _this$[ebp]
	add	edi, 16					; 00000010H
	mov	ecx, 7
	rep movsd
	mov	ecx, DWORD PTR ___that$[ebp]
	add	ecx, 44					; 0000002cH
	push	ecx
	mov	ecx, DWORD PTR _this$[ebp]
	add	ecx, 44					; 0000002cH
	call	??4?$vector@PAVSurfaceData@Ogre@@V?$allocator@PAVSurfaceData@Ogre@@@std@@@std@@QAEAAV01@ABV01@@Z ; std::vector<Ogre::SurfaceData *,std::allocator<Ogre::SurfaceData *> >::operator=
	mov	edx, DWORD PTR _this$[ebp]
	mov	eax, DWORD PTR ___that$[ebp]
	mov	ecx, DWORD PTR [eax+68]
	mov	DWORD PTR [edx+68], ecx
	mov	edx, DWORD PTR _this$[ebp]
	mov	eax, DWORD PTR ___that$[ebp]
	mov	ecx, DWORD PTR [eax+72]
	mov	DWORD PTR [edx+72], ecx
	mov	edx, DWORD PTR _this$[ebp]
	mov	eax, DWORD PTR ___that$[ebp]
	mov	cl, BYTE PTR [eax+76]
	mov	BYTE PTR [edx+76], cl
	mov	edx, DWORD PTR ___that$[ebp]
	add	edx, 80					; 00000050H
	push	edx
	mov	ecx, DWORD PTR _this$[ebp]
	add	ecx, 80					; 00000050H
	call	DWORD PTR __imp_??4?$basic_string@DU?$char_traits@D@std@@V?$allocator@D@2@@std@@QAEAAV01@ABV01@@Z
	mov	eax, DWORD PTR _this$[ebp]
	pop	edi
	pop	esi
	mov	esp, ebp
	pop	ebp
	ret	4
??4TextureData@Ogre@@QAEAAV01@ABV01@@Z ENDP		; Ogre::TextureData::operator=
_TEXT	ENDS
PUBLIC	??_GTextureData@Ogre@@MAEPAXI@Z			; Ogre::TextureData::`scalar deleting destructor'
EXTRN	??1TextureData@Ogre@@MAE@XZ:PROC		; Ogre::TextureData::~TextureData
; Function compile flags: /Odtp
;	COMDAT ??_GTextureData@Ogre@@MAEPAXI@Z
_TEXT	SEGMENT
_this$ = -4						; size = 4
___flags$ = 8						; size = 4
??_GTextureData@Ogre@@MAEPAXI@Z PROC			; Ogre::TextureData::`scalar deleting destructor', COMDAT
; _this$ = ecx
	push	ebp
	mov	ebp, esp
	push	ecx
	mov	DWORD PTR _this$[ebp], ecx
	mov	ecx, DWORD PTR _this$[ebp]
	call	??1TextureData@Ogre@@MAE@XZ		; Ogre::TextureData::~TextureData
	mov	eax, DWORD PTR ___flags$[ebp]
	and	eax, 1
	je	SHORT $LN1@scalar@15
	push	108					; 0000006cH
	mov	ecx, DWORD PTR _this$[ebp]
	push	ecx
	call	??3MemoryDelegation@Ogre@@SAXPAXI@Z	; Ogre::MemoryDelegation::operator delete
	add	esp, 8
$LN1@scalar@15:
	mov	eax, DWORD PTR _this$[ebp]
	mov	esp, ebp
	pop	ebp
	ret	4
??_GTextureData@Ogre@@MAEPAXI@Z ENDP			; Ogre::TextureData::`scalar deleting destructor'
; Function compile flags: /Odtp
_TEXT	ENDS
;	COMDAT ??_ETextureData@Ogre@@MAEPAXI@Z
_TEXT	SEGMENT
_this$ = -4						; size = 4
___flags$ = 8						; size = 4
??_ETextureData@Ogre@@MAEPAXI@Z PROC			; Ogre::TextureData::`vector deleting destructor', COMDAT
; _this$ = ecx
	push	ebp
	mov	ebp, esp
	push	ecx
	mov	DWORD PTR _this$[ebp], ecx
	mov	eax, DWORD PTR ___flags$[ebp]
	and	eax, 2
	je	SHORT $LN3@vector@15
	push	OFFSET ??1TextureData@Ogre@@MAE@XZ	; Ogre::TextureData::~TextureData
	mov	ecx, DWORD PTR _this$[ebp]
	mov	edx, DWORD PTR [ecx-4]
	push	edx
	push	108					; 0000006cH
	mov	eax, DWORD PTR _this$[ebp]
	push	eax
	call	??_M@YGXPAXIHP6EX0@Z@Z
	mov	ecx, DWORD PTR ___flags$[ebp]
	and	ecx, 1
	je	SHORT $LN2@vector@15
	push	108					; 0000006cH
	mov	edx, DWORD PTR _this$[ebp]
	sub	edx, 4
	push	edx
	call	??_VMemoryDelegation@Ogre@@SAXPAXI@Z	; Ogre::MemoryDelegation::operator delete[]
	add	esp, 8
$LN2@vector@15:
	mov	eax, DWORD PTR _this$[ebp]
	sub	eax, 4
	jmp	SHORT $LN4@vector@15
$LN3@vector@15:
	mov	ecx, DWORD PTR _this$[ebp]
	call	??1TextureData@Ogre@@MAE@XZ		; Ogre::TextureData::~TextureData
	mov	eax, DWORD PTR ___flags$[ebp]
	and	eax, 1
	je	SHORT $LN1@vector@15
	push	108					; 0000006cH
	mov	ecx, DWORD PTR _this$[ebp]
	push	ecx
	call	??3MemoryDelegation@Ogre@@SAXPAXI@Z	; Ogre::MemoryDelegation::operator delete
	add	esp, 8
$LN1@vector@15:
	mov	eax, DWORD PTR _this$[ebp]
$LN4@vector@15:
	mov	esp, ebp
	pop	ebp
	ret	4
??_ETextureData@Ogre@@MAEPAXI@Z ENDP			; Ogre::TextureData::`vector deleting destructor'
_TEXT	ENDS
PUBLIC	?getRTTI@RT_TEXTURE@Ogre@@UBEPBVRuntimeClass@2@XZ ; Ogre::RT_TEXTURE::getRTTI
EXTRN	?m_RTTI@RT_TEXTURE@Ogre@@2VRuntimeClass@2@B:BYTE ; Ogre::RT_TEXTURE::m_RTTI
; Function compile flags: /Odtp
;	COMDAT ?getRTTI@RT_TEXTURE@Ogre@@UBEPBVRuntimeClass@2@XZ
_TEXT	SEGMENT
_this$ = -4						; size = 4
?getRTTI@RT_TEXTURE@Ogre@@UBEPBVRuntimeClass@2@XZ PROC	; Ogre::RT_TEXTURE::getRTTI, COMDAT
; _this$ = ecx

; 179  : 		DECLARE_RTTI(RT_TEXTURE)

	push	ebp
	mov	ebp, esp
	push	ecx
	mov	DWORD PTR _this$[ebp], ecx
	mov	eax, OFFSET ?m_RTTI@RT_TEXTURE@Ogre@@2VRuntimeClass@2@B ; Ogre::RT_TEXTURE::m_RTTI
	mov	esp, ebp
	pop	ebp
	ret	0
?getRTTI@RT_TEXTURE@Ogre@@UBEPBVRuntimeClass@2@XZ ENDP	; Ogre::RT_TEXTURE::getRTTI
_TEXT	ENDS
PUBLIC	??0RT_TEXTURE@Ogre@@QAE@XZ			; Ogre::RT_TEXTURE::RT_TEXTURE
PUBLIC	?newObject@RT_TEXTURE@Ogre@@SAPAVBaseObject@2@XZ ; Ogre::RT_TEXTURE::newObject
;	COMDAT xdata$x
xdata$x	SEGMENT
__unwindtable$?newObject@RT_TEXTURE@Ogre@@SAPAVBaseObject@2@XZ DD 0ffffffffH
	DD	FLAT:__unwindfunclet$?newObject@RT_TEXTURE@Ogre@@SAPAVBaseObject@2@XZ$0
__ehfuncinfo$?newObject@RT_TEXTURE@Ogre@@SAPAVBaseObject@2@XZ DD 019930522H
	DD	01H
	DD	FLAT:__unwindtable$?newObject@RT_TEXTURE@Ogre@@SAPAVBaseObject@2@XZ
	DD	2 DUP(00H)
	DD	2 DUP(00H)
	DD	00H
	DD	00H
; Function compile flags: /Odtp
xdata$x	ENDS
;	COMDAT ?newObject@RT_TEXTURE@Ogre@@SAPAVBaseObject@2@XZ
_TEXT	SEGMENT
tv75 = -24						; size = 4
$T67855 = -20						; size = 4
$T67854 = -16						; size = 4
__$EHRec$ = -12						; size = 12
?newObject@RT_TEXTURE@Ogre@@SAPAVBaseObject@2@XZ PROC	; Ogre::RT_TEXTURE::newObject, COMDAT

; 179  : 		DECLARE_RTTI(RT_TEXTURE)

	push	ebp
	mov	ebp, esp
	push	-1
	push	__ehhandler$?newObject@RT_TEXTURE@Ogre@@SAPAVBaseObject@2@XZ
	mov	eax, DWORD PTR fs:0
	push	eax
	sub	esp, 12					; 0000000cH
	mov	eax, DWORD PTR ___security_cookie
	xor	eax, ebp
	push	eax
	lea	eax, DWORD PTR __$EHRec$[ebp]
	mov	DWORD PTR fs:0, eax
	push	48					; 00000030H
	call	??2MemoryDelegation@Ogre@@SAPAXI@Z	; Ogre::MemoryDelegation::operator new
	add	esp, 4
	mov	DWORD PTR $T67855[ebp], eax
	mov	DWORD PTR __$EHRec$[ebp+8], 0
	cmp	DWORD PTR $T67855[ebp], 0
	je	SHORT $LN3@newObject@4
	mov	ecx, DWORD PTR $T67855[ebp]
	call	??0RT_TEXTURE@Ogre@@QAE@XZ		; Ogre::RT_TEXTURE::RT_TEXTURE
	mov	DWORD PTR tv75[ebp], eax
	jmp	SHORT $LN4@newObject@4
$LN3@newObject@4:
	mov	DWORD PTR tv75[ebp], 0
$LN4@newObject@4:
	mov	eax, DWORD PTR tv75[ebp]
	mov	DWORD PTR $T67854[ebp], eax
	mov	DWORD PTR __$EHRec$[ebp+8], -1
	mov	eax, DWORD PTR $T67854[ebp]
	mov	ecx, DWORD PTR __$EHRec$[ebp]
	mov	DWORD PTR fs:0, ecx
	pop	ecx
	mov	esp, ebp
	pop	ebp
	ret	0
_TEXT	ENDS
;	COMDAT text$x
text$x	SEGMENT
__unwindfunclet$?newObject@RT_TEXTURE@Ogre@@SAPAVBaseObject@2@XZ$0:
	push	48					; 00000030H
	mov	eax, DWORD PTR $T67855[ebp]
	push	eax
	call	??3MemoryDelegation@Ogre@@SAXPAXI@Z	; Ogre::MemoryDelegation::operator delete
	add	esp, 8
	ret	0
__ehhandler$?newObject@RT_TEXTURE@Ogre@@SAPAVBaseObject@2@XZ:
	mov	edx, DWORD PTR [esp+8]
	lea	eax, DWORD PTR [edx+12]
	mov	ecx, DWORD PTR [edx-16]
	xor	ecx, eax
	call	@__security_check_cookie@4
	mov	eax, OFFSET __ehfuncinfo$?newObject@RT_TEXTURE@Ogre@@SAPAVBaseObject@2@XZ
	jmp	___CxxFrameHandler3
text$x	ENDS
?newObject@RT_TEXTURE@Ogre@@SAPAVBaseObject@2@XZ ENDP	; Ogre::RT_TEXTURE::newObject
PUBLIC	??_7RT_TEXTURE@Ogre@@6B@			; Ogre::RT_TEXTURE::`vftable'
PUBLIC	??_R4RT_TEXTURE@Ogre@@6B@			; Ogre::RT_TEXTURE::`RTTI Complete Object Locator'
PUBLIC	??_R0?AVRT_TEXTURE@Ogre@@@8			; Ogre::RT_TEXTURE `RTTI Type Descriptor'
PUBLIC	??_R3RT_TEXTURE@Ogre@@8				; Ogre::RT_TEXTURE::`RTTI Class Hierarchy Descriptor'
PUBLIC	??_R2RT_TEXTURE@Ogre@@8				; Ogre::RT_TEXTURE::`RTTI Base Class Array'
PUBLIC	??_R1A@?0A@EA@RT_TEXTURE@Ogre@@8		; Ogre::RT_TEXTURE::`RTTI Base Class Descriptor at (0,-1,0,64)'
PUBLIC	??_ERT_TEXTURE@Ogre@@MAEPAXI@Z			; Ogre::RT_TEXTURE::`vector deleting destructor'
PUBLIC	?getDesc@RT_TEXTURE@Ogre@@UAEXAAUTextureDesc@2@@Z ; Ogre::RT_TEXTURE::getDesc
PUBLIC	?getHardwareTexture@RT_TEXTURE@Ogre@@UAEPAVHardwarePixelBuffer@2@XZ ; Ogre::RT_TEXTURE::getHardwareTexture
EXTRN	?lock@RT_TEXTURE@Ogre@@UAEPAXII_NAAULockResult@2@@Z:PROC ; Ogre::RT_TEXTURE::lock
EXTRN	?unlock@RT_TEXTURE@Ogre@@UAEXII@Z:PROC		; Ogre::RT_TEXTURE::unlock
;	COMDAT ??_R1A@?0A@EA@RT_TEXTURE@Ogre@@8
rdata$r	SEGMENT
??_R1A@?0A@EA@RT_TEXTURE@Ogre@@8 DD FLAT:??_R0?AVRT_TEXTURE@Ogre@@@8 ; Ogre::RT_TEXTURE::`RTTI Base Class Descriptor at (0,-1,0,64)'
	DD	04H
	DD	00H
	DD	0ffffffffH
	DD	00H
	DD	040H
	DD	FLAT:??_R3RT_TEXTURE@Ogre@@8
rdata$r	ENDS
;	COMDAT ??_R2RT_TEXTURE@Ogre@@8
rdata$r	SEGMENT
??_R2RT_TEXTURE@Ogre@@8 DD FLAT:??_R1A@?0A@EA@RT_TEXTURE@Ogre@@8 ; Ogre::RT_TEXTURE::`RTTI Base Class Array'
	DD	FLAT:??_R1A@?0A@EA@Texture@Ogre@@8
	DD	FLAT:??_R1A@?0A@EA@Resource@Ogre@@8
	DD	FLAT:??_R1A@?0A@EA@BaseObject@Ogre@@8
	DD	FLAT:??_R13?0A@EA@MemoryDelegation@Ogre@@8
rdata$r	ENDS
;	COMDAT ??_R3RT_TEXTURE@Ogre@@8
rdata$r	SEGMENT
??_R3RT_TEXTURE@Ogre@@8 DD 00H				; Ogre::RT_TEXTURE::`RTTI Class Hierarchy Descriptor'
	DD	00H
	DD	05H
	DD	FLAT:??_R2RT_TEXTURE@Ogre@@8
rdata$r	ENDS
;	COMDAT ??_R0?AVRT_TEXTURE@Ogre@@@8
_DATA	SEGMENT
??_R0?AVRT_TEXTURE@Ogre@@@8 DD FLAT:??_7type_info@@6B@	; Ogre::RT_TEXTURE `RTTI Type Descriptor'
	DD	00H
	DB	'.?AVRT_TEXTURE@Ogre@@', 00H
_DATA	ENDS
;	COMDAT ??_R4RT_TEXTURE@Ogre@@6B@
rdata$r	SEGMENT
??_R4RT_TEXTURE@Ogre@@6B@ DD 00H			; Ogre::RT_TEXTURE::`RTTI Complete Object Locator'
	DD	00H
	DD	00H
	DD	FLAT:??_R0?AVRT_TEXTURE@Ogre@@@8
	DD	FLAT:??_R3RT_TEXTURE@Ogre@@8
rdata$r	ENDS
;	COMDAT ??_7RT_TEXTURE@Ogre@@6B@
CONST	SEGMENT
??_7RT_TEXTURE@Ogre@@6B@ DD FLAT:??_R4RT_TEXTURE@Ogre@@6B@ ; Ogre::RT_TEXTURE::`vftable'
	DD	FLAT:?getRTTI@RT_TEXTURE@Ogre@@UBEPBVRuntimeClass@2@XZ
	DD	FLAT:?release@Resource@Ogre@@UAEXXZ
	DD	FLAT:?addRef@Resource@Ogre@@UAEXXZ
	DD	FLAT:?getRefCount@Resource@Ogre@@UAEHXZ
	DD	FLAT:?_serialize@BaseObject@Ogre@@UAEXAAVArchive@2@H@Z
	DD	FLAT:??_ERT_TEXTURE@Ogre@@MAEPAXI@Z
	DD	FLAT:?deleteThis@BaseObject@Ogre@@MAEXXZ
	DD	FLAT:?getDesc@RT_TEXTURE@Ogre@@UAEXAAUTextureDesc@2@@Z
	DD	FLAT:?getHardwareTexture@RT_TEXTURE@Ogre@@UAEPAVHardwarePixelBuffer@2@XZ
	DD	FLAT:?lock@RT_TEXTURE@Ogre@@UAEPAXII_NAAULockResult@2@@Z
	DD	FLAT:?unlock@RT_TEXTURE@Ogre@@UAEXII@Z
CONST	ENDS
;	COMDAT xdata$x
xdata$x	SEGMENT
__unwindtable$??0RT_TEXTURE@Ogre@@QAE@XZ DD 0ffffffffH
	DD	FLAT:__unwindfunclet$??0RT_TEXTURE@Ogre@@QAE@XZ$0
__ehfuncinfo$??0RT_TEXTURE@Ogre@@QAE@XZ DD 019930522H
	DD	01H
	DD	FLAT:__unwindtable$??0RT_TEXTURE@Ogre@@QAE@XZ
	DD	2 DUP(00H)
	DD	2 DUP(00H)
	DD	00H
	DD	00H
; Function compile flags: /Odtp
xdata$x	ENDS
;	COMDAT ??0RT_TEXTURE@Ogre@@QAE@XZ
_TEXT	SEGMENT
_this$ = -16						; size = 4
__$EHRec$ = -12						; size = 12
??0RT_TEXTURE@Ogre@@QAE@XZ PROC				; Ogre::RT_TEXTURE::RT_TEXTURE, COMDAT
; _this$ = ecx

; 181  : 		RT_TEXTURE() : m_pTexture(NULL){}

	push	ebp
	mov	ebp, esp
	push	-1
	push	__ehhandler$??0RT_TEXTURE@Ogre@@QAE@XZ
	mov	eax, DWORD PTR fs:0
	push	eax
	push	ecx
	mov	eax, DWORD PTR ___security_cookie
	xor	eax, ebp
	push	eax
	lea	eax, DWORD PTR __$EHRec$[ebp]
	mov	DWORD PTR fs:0, eax
	mov	DWORD PTR _this$[ebp], ecx
	mov	ecx, DWORD PTR _this$[ebp]
	call	??0Texture@Ogre@@QAE@XZ
	mov	DWORD PTR __$EHRec$[ebp+8], 0
	mov	eax, DWORD PTR _this$[ebp]
	mov	DWORD PTR [eax], OFFSET ??_7RT_TEXTURE@Ogre@@6B@
	mov	ecx, DWORD PTR _this$[ebp]
	mov	DWORD PTR [ecx+44], 0
	mov	DWORD PTR __$EHRec$[ebp+8], -1
	mov	eax, DWORD PTR _this$[ebp]
	mov	ecx, DWORD PTR __$EHRec$[ebp]
	mov	DWORD PTR fs:0, ecx
	pop	ecx
	mov	esp, ebp
	pop	ebp
	ret	0
_TEXT	ENDS
;	COMDAT text$x
text$x	SEGMENT
__unwindfunclet$??0RT_TEXTURE@Ogre@@QAE@XZ$0:
	mov	ecx, DWORD PTR _this$[ebp]
	jmp	??1Texture@Ogre@@MAE@XZ			; Ogre::Texture::~Texture
__ehhandler$??0RT_TEXTURE@Ogre@@QAE@XZ:
	mov	edx, DWORD PTR [esp+8]
	lea	eax, DWORD PTR [edx+12]
	mov	ecx, DWORD PTR [edx-8]
	xor	ecx, eax
	call	@__security_check_cookie@4
	mov	eax, OFFSET __ehfuncinfo$??0RT_TEXTURE@Ogre@@QAE@XZ
	jmp	___CxxFrameHandler3
text$x	ENDS
??0RT_TEXTURE@Ogre@@QAE@XZ ENDP				; Ogre::RT_TEXTURE::RT_TEXTURE
; Function compile flags: /Odtp
;	COMDAT ?getHardwareTexture@RT_TEXTURE@Ogre@@UAEPAVHardwarePixelBuffer@2@XZ
_TEXT	SEGMENT
_this$ = -4						; size = 4
?getHardwareTexture@RT_TEXTURE@Ogre@@UAEPAVHardwarePixelBuffer@2@XZ PROC ; Ogre::RT_TEXTURE::getHardwareTexture, COMDAT
; _this$ = ecx

; 184  : 		virtual HardwareTexture *getHardwareTexture(){return m_pTexture;}

	push	ebp
	mov	ebp, esp
	push	ecx
	mov	DWORD PTR _this$[ebp], ecx
	mov	eax, DWORD PTR _this$[ebp]
	mov	eax, DWORD PTR [eax+44]
	mov	esp, ebp
	pop	ebp
	ret	0
?getHardwareTexture@RT_TEXTURE@Ogre@@UAEPAVHardwarePixelBuffer@2@XZ ENDP ; Ogre::RT_TEXTURE::getHardwareTexture
; Function compile flags: /Odtp
_TEXT	ENDS
;	COMDAT ?getDesc@RT_TEXTURE@Ogre@@UAEXAAUTextureDesc@2@@Z
_TEXT	SEGMENT
_this$ = -4						; size = 4
_desc$ = 8						; size = 4
?getDesc@RT_TEXTURE@Ogre@@UAEXAAUTextureDesc@2@@Z PROC	; Ogre::RT_TEXTURE::getDesc, COMDAT
; _this$ = ecx

; 189  : 		{

	push	ebp
	mov	ebp, esp
	push	ecx
	push	esi
	push	edi
	mov	DWORD PTR _this$[ebp], ecx

; 190  : 			desc = m_Desc;

	mov	esi, DWORD PTR _this$[ebp]
	add	esi, 16					; 00000010H
	mov	ecx, 7
	mov	edi, DWORD PTR _desc$[ebp]
	rep movsd

; 191  : 		}

	pop	edi
	pop	esi
	mov	esp, ebp
	pop	ebp
	ret	4
?getDesc@RT_TEXTURE@Ogre@@UAEXAAUTextureDesc@2@@Z ENDP	; Ogre::RT_TEXTURE::getDesc
_TEXT	ENDS
PUBLIC	??0RT_TEXTURE@Ogre@@QAE@ABV01@@Z		; Ogre::RT_TEXTURE::RT_TEXTURE
;	COMDAT xdata$x
xdata$x	SEGMENT
__unwindtable$??0RT_TEXTURE@Ogre@@QAE@ABV01@@Z DD 0ffffffffH
	DD	FLAT:__unwindfunclet$??0RT_TEXTURE@Ogre@@QAE@ABV01@@Z$0
__ehfuncinfo$??0RT_TEXTURE@Ogre@@QAE@ABV01@@Z DD 019930522H
	DD	01H
	DD	FLAT:__unwindtable$??0RT_TEXTURE@Ogre@@QAE@ABV01@@Z
	DD	2 DUP(00H)
	DD	2 DUP(00H)
	DD	00H
	DD	00H
; Function compile flags: /Odtp
xdata$x	ENDS
;	COMDAT ??0RT_TEXTURE@Ogre@@QAE@ABV01@@Z
_TEXT	SEGMENT
_this$ = -16						; size = 4
__$EHRec$ = -12						; size = 12
___that$ = 8						; size = 4
??0RT_TEXTURE@Ogre@@QAE@ABV01@@Z PROC			; Ogre::RT_TEXTURE::RT_TEXTURE, COMDAT
; _this$ = ecx
	push	ebp
	mov	ebp, esp
	push	-1
	push	__ehhandler$??0RT_TEXTURE@Ogre@@QAE@ABV01@@Z
	mov	eax, DWORD PTR fs:0
	push	eax
	push	ecx
	push	esi
	push	edi
	mov	eax, DWORD PTR ___security_cookie
	xor	eax, ebp
	push	eax
	lea	eax, DWORD PTR __$EHRec$[ebp]
	mov	DWORD PTR fs:0, eax
	mov	DWORD PTR _this$[ebp], ecx
	mov	eax, DWORD PTR ___that$[ebp]
	push	eax
	mov	ecx, DWORD PTR _this$[ebp]
	call	??0Texture@Ogre@@QAE@ABV01@@Z
	mov	DWORD PTR __$EHRec$[ebp+8], 0
	mov	ecx, DWORD PTR _this$[ebp]
	mov	DWORD PTR [ecx], OFFSET ??_7RT_TEXTURE@Ogre@@6B@
	mov	esi, DWORD PTR ___that$[ebp]
	add	esi, 16					; 00000010H
	mov	edi, DWORD PTR _this$[ebp]
	add	edi, 16					; 00000010H
	mov	ecx, 7
	rep movsd
	mov	edx, DWORD PTR _this$[ebp]
	mov	eax, DWORD PTR ___that$[ebp]
	mov	ecx, DWORD PTR [eax+44]
	mov	DWORD PTR [edx+44], ecx
	mov	DWORD PTR __$EHRec$[ebp+8], -1
	mov	eax, DWORD PTR _this$[ebp]
	mov	ecx, DWORD PTR __$EHRec$[ebp]
	mov	DWORD PTR fs:0, ecx
	pop	ecx
	pop	edi
	pop	esi
	mov	esp, ebp
	pop	ebp
	ret	4
_TEXT	ENDS
;	COMDAT text$x
text$x	SEGMENT
__unwindfunclet$??0RT_TEXTURE@Ogre@@QAE@ABV01@@Z$0:
	mov	ecx, DWORD PTR _this$[ebp]
	jmp	??1Texture@Ogre@@MAE@XZ			; Ogre::Texture::~Texture
__ehhandler$??0RT_TEXTURE@Ogre@@QAE@ABV01@@Z:
	mov	edx, DWORD PTR [esp+8]
	lea	eax, DWORD PTR [edx+12]
	mov	ecx, DWORD PTR [edx-16]
	xor	ecx, eax
	call	@__security_check_cookie@4
	mov	eax, OFFSET __ehfuncinfo$??0RT_TEXTURE@Ogre@@QAE@ABV01@@Z
	jmp	___CxxFrameHandler3
text$x	ENDS
??0RT_TEXTURE@Ogre@@QAE@ABV01@@Z ENDP			; Ogre::RT_TEXTURE::RT_TEXTURE
PUBLIC	??4RT_TEXTURE@Ogre@@QAEAAV01@ABV01@@Z		; Ogre::RT_TEXTURE::operator=
; Function compile flags: /Odtp
;	COMDAT ??4RT_TEXTURE@Ogre@@QAEAAV01@ABV01@@Z
_TEXT	SEGMENT
_this$ = -4						; size = 4
___that$ = 8						; size = 4
??4RT_TEXTURE@Ogre@@QAEAAV01@ABV01@@Z PROC		; Ogre::RT_TEXTURE::operator=, COMDAT
; _this$ = ecx
	push	ebp
	mov	ebp, esp
	push	ecx
	push	esi
	push	edi
	mov	DWORD PTR _this$[ebp], ecx
	mov	eax, DWORD PTR ___that$[ebp]
	push	eax
	mov	ecx, DWORD PTR _this$[ebp]
	call	??4Texture@Ogre@@QAEAAV01@ABV01@@Z
	mov	esi, DWORD PTR ___that$[ebp]
	add	esi, 16					; 00000010H
	mov	edi, DWORD PTR _this$[ebp]
	add	edi, 16					; 00000010H
	mov	ecx, 7
	rep movsd
	mov	ecx, DWORD PTR _this$[ebp]
	mov	edx, DWORD PTR ___that$[ebp]
	mov	eax, DWORD PTR [edx+44]
	mov	DWORD PTR [ecx+44], eax
	mov	eax, DWORD PTR _this$[ebp]
	pop	edi
	pop	esi
	mov	esp, ebp
	pop	ebp
	ret	4
??4RT_TEXTURE@Ogre@@QAEAAV01@ABV01@@Z ENDP		; Ogre::RT_TEXTURE::operator=
_TEXT	ENDS
PUBLIC	??_GRT_TEXTURE@Ogre@@MAEPAXI@Z			; Ogre::RT_TEXTURE::`scalar deleting destructor'
EXTRN	??1RT_TEXTURE@Ogre@@MAE@XZ:PROC			; Ogre::RT_TEXTURE::~RT_TEXTURE
; Function compile flags: /Odtp
;	COMDAT ??_GRT_TEXTURE@Ogre@@MAEPAXI@Z
_TEXT	SEGMENT
_this$ = -4						; size = 4
___flags$ = 8						; size = 4
??_GRT_TEXTURE@Ogre@@MAEPAXI@Z PROC			; Ogre::RT_TEXTURE::`scalar deleting destructor', COMDAT
; _this$ = ecx
	push	ebp
	mov	ebp, esp
	push	ecx
	mov	DWORD PTR _this$[ebp], ecx
	mov	ecx, DWORD PTR _this$[ebp]
	call	??1RT_TEXTURE@Ogre@@MAE@XZ		; Ogre::RT_TEXTURE::~RT_TEXTURE
	mov	eax, DWORD PTR ___flags$[ebp]
	and	eax, 1
	je	SHORT $LN1@scalar@16
	push	48					; 00000030H
	mov	ecx, DWORD PTR _this$[ebp]
	push	ecx
	call	??3MemoryDelegation@Ogre@@SAXPAXI@Z	; Ogre::MemoryDelegation::operator delete
	add	esp, 8
$LN1@scalar@16:
	mov	eax, DWORD PTR _this$[ebp]
	mov	esp, ebp
	pop	ebp
	ret	4
??_GRT_TEXTURE@Ogre@@MAEPAXI@Z ENDP			; Ogre::RT_TEXTURE::`scalar deleting destructor'
; Function compile flags: /Odtp
_TEXT	ENDS
;	COMDAT ??_ERT_TEXTURE@Ogre@@MAEPAXI@Z
_TEXT	SEGMENT
_this$ = -4						; size = 4
___flags$ = 8						; size = 4
??_ERT_TEXTURE@Ogre@@MAEPAXI@Z PROC			; Ogre::RT_TEXTURE::`vector deleting destructor', COMDAT
; _this$ = ecx
	push	ebp
	mov	ebp, esp
	push	ecx
	mov	DWORD PTR _this$[ebp], ecx
	mov	eax, DWORD PTR ___flags$[ebp]
	and	eax, 2
	je	SHORT $LN3@vector@16
	push	OFFSET ??1RT_TEXTURE@Ogre@@MAE@XZ	; Ogre::RT_TEXTURE::~RT_TEXTURE
	mov	ecx, DWORD PTR _this$[ebp]
	mov	edx, DWORD PTR [ecx-4]
	push	edx
	push	48					; 00000030H
	mov	eax, DWORD PTR _this$[ebp]
	push	eax
	call	??_M@YGXPAXIHP6EX0@Z@Z
	mov	ecx, DWORD PTR ___flags$[ebp]
	and	ecx, 1
	je	SHORT $LN2@vector@16
	push	48					; 00000030H
	mov	edx, DWORD PTR _this$[ebp]
	sub	edx, 4
	push	edx
	call	??_VMemoryDelegation@Ogre@@SAXPAXI@Z	; Ogre::MemoryDelegation::operator delete[]
	add	esp, 8
$LN2@vector@16:
	mov	eax, DWORD PTR _this$[ebp]
	sub	eax, 4
	jmp	SHORT $LN4@vector@16
$LN3@vector@16:
	mov	ecx, DWORD PTR _this$[ebp]
	call	??1RT_TEXTURE@Ogre@@MAE@XZ		; Ogre::RT_TEXTURE::~RT_TEXTURE
	mov	eax, DWORD PTR ___flags$[ebp]
	and	eax, 1
	je	SHORT $LN1@vector@16
	push	48					; 00000030H
	mov	ecx, DWORD PTR _this$[ebp]
	push	ecx
	call	??3MemoryDelegation@Ogre@@SAXPAXI@Z	; Ogre::MemoryDelegation::operator delete
	add	esp, 8
$LN1@vector@16:
	mov	eax, DWORD PTR _this$[ebp]
$LN4@vector@16:
	mov	esp, ebp
	pop	ebp
	ret	4
??_ERT_TEXTURE@Ogre@@MAEPAXI@Z ENDP			; Ogre::RT_TEXTURE::`vector deleting destructor'
_TEXT	ENDS
PUBLIC	?getRTTI@BeachData@Ogre@@UBEPBVRuntimeClass@2@XZ ; Ogre::BeachData::getRTTI
; Function compile flags: /Odtp
; File i:\svnroot\client\ogremain\ogrebeachdata.h
;	COMDAT ?getRTTI@BeachData@Ogre@@UBEPBVRuntimeClass@2@XZ
_TEXT	SEGMENT
_this$ = -4						; size = 4
?getRTTI@BeachData@Ogre@@UBEPBVRuntimeClass@2@XZ PROC	; Ogre::BeachData::getRTTI, COMDAT
; _this$ = ecx

; 15   : 		DECLARE_RTTI(BeachData)

	push	ebp
	mov	ebp, esp
	push	ecx
	mov	DWORD PTR _this$[ebp], ecx
	mov	eax, OFFSET ?m_RTTI@BeachData@Ogre@@2VRuntimeClass@2@B ; Ogre::BeachData::m_RTTI
	mov	esp, ebp
	pop	ebp
	ret	0
?getRTTI@BeachData@Ogre@@UBEPBVRuntimeClass@2@XZ ENDP	; Ogre::BeachData::getRTTI
_TEXT	ENDS
PUBLIC	??0BeachData@Ogre@@QAE@XZ			; Ogre::BeachData::BeachData
PUBLIC	?newObject@BeachData@Ogre@@SAPAVBaseObject@2@XZ	; Ogre::BeachData::newObject
;	COMDAT xdata$x
xdata$x	SEGMENT
__unwindtable$?newObject@BeachData@Ogre@@SAPAVBaseObject@2@XZ DD 0ffffffffH
	DD	FLAT:__unwindfunclet$?newObject@BeachData@Ogre@@SAPAVBaseObject@2@XZ$0
__ehfuncinfo$?newObject@BeachData@Ogre@@SAPAVBaseObject@2@XZ DD 019930522H
	DD	01H
	DD	FLAT:__unwindtable$?newObject@BeachData@Ogre@@SAPAVBaseObject@2@XZ
	DD	2 DUP(00H)
	DD	2 DUP(00H)
	DD	00H
	DD	00H
; Function compile flags: /Odtp
xdata$x	ENDS
;	COMDAT ?newObject@BeachData@Ogre@@SAPAVBaseObject@2@XZ
_TEXT	SEGMENT
tv75 = -24						; size = 4
$T67898 = -20						; size = 4
$T67897 = -16						; size = 4
__$EHRec$ = -12						; size = 12
?newObject@BeachData@Ogre@@SAPAVBaseObject@2@XZ PROC	; Ogre::BeachData::newObject, COMDAT

; 15   : 		DECLARE_RTTI(BeachData)

	push	ebp
	mov	ebp, esp
	push	-1
	push	__ehhandler$?newObject@BeachData@Ogre@@SAPAVBaseObject@2@XZ
	mov	eax, DWORD PTR fs:0
	push	eax
	sub	esp, 12					; 0000000cH
	mov	eax, DWORD PTR ___security_cookie
	xor	eax, ebp
	push	eax
	lea	eax, DWORD PTR __$EHRec$[ebp]
	mov	DWORD PTR fs:0, eax
	push	80					; 00000050H
	call	??2MemoryDelegation@Ogre@@SAPAXI@Z	; Ogre::MemoryDelegation::operator new
	add	esp, 4
	mov	DWORD PTR $T67898[ebp], eax
	mov	DWORD PTR __$EHRec$[ebp+8], 0
	cmp	DWORD PTR $T67898[ebp], 0
	je	SHORT $LN3@newObject@5
	mov	ecx, DWORD PTR $T67898[ebp]
	call	??0BeachData@Ogre@@QAE@XZ		; Ogre::BeachData::BeachData
	mov	DWORD PTR tv75[ebp], eax
	jmp	SHORT $LN4@newObject@5
$LN3@newObject@5:
	mov	DWORD PTR tv75[ebp], 0
$LN4@newObject@5:
	mov	eax, DWORD PTR tv75[ebp]
	mov	DWORD PTR $T67897[ebp], eax
	mov	DWORD PTR __$EHRec$[ebp+8], -1
	mov	eax, DWORD PTR $T67897[ebp]
	mov	ecx, DWORD PTR __$EHRec$[ebp]
	mov	DWORD PTR fs:0, ecx
	pop	ecx
	mov	esp, ebp
	pop	ebp
	ret	0
_TEXT	ENDS
;	COMDAT text$x
text$x	SEGMENT
__unwindfunclet$?newObject@BeachData@Ogre@@SAPAVBaseObject@2@XZ$0:
	push	80					; 00000050H
	mov	eax, DWORD PTR $T67898[ebp]
	push	eax
	call	??3MemoryDelegation@Ogre@@SAXPAXI@Z	; Ogre::MemoryDelegation::operator delete
	add	esp, 8
	ret	0
__ehhandler$?newObject@BeachData@Ogre@@SAPAVBaseObject@2@XZ:
	mov	edx, DWORD PTR [esp+8]
	lea	eax, DWORD PTR [edx+12]
	mov	ecx, DWORD PTR [edx-16]
	xor	ecx, eax
	call	@__security_check_cookie@4
	mov	eax, OFFSET __ehfuncinfo$?newObject@BeachData@Ogre@@SAPAVBaseObject@2@XZ
	jmp	___CxxFrameHandler3
text$x	ENDS
?newObject@BeachData@Ogre@@SAPAVBaseObject@2@XZ ENDP	; Ogre::BeachData::newObject
PUBLIC	??1?$vector@VVector3@Ogre@@V?$allocator@VVector3@Ogre@@@std@@@std@@QAE@XZ ; std::vector<Ogre::Vector3,std::allocator<Ogre::Vector3> >::~vector<Ogre::Vector3,std::allocator<Ogre::Vector3> >
PUBLIC	??0?$vector@VVector3@Ogre@@V?$allocator@VVector3@Ogre@@@std@@@std@@QAE@ABV01@@Z ; std::vector<Ogre::Vector3,std::allocator<Ogre::Vector3> >::vector<Ogre::Vector3,std::allocator<Ogre::Vector3> >
PUBLIC	??_7BeachData@Ogre@@6B@				; Ogre::BeachData::`vftable'
PUBLIC	??0BeachData@Ogre@@QAE@ABV01@@Z			; Ogre::BeachData::BeachData
PUBLIC	??_R4BeachData@Ogre@@6B@			; Ogre::BeachData::`RTTI Complete Object Locator'
PUBLIC	??_R0?AVBeachData@Ogre@@@8			; Ogre::BeachData `RTTI Type Descriptor'
PUBLIC	??_R3BeachData@Ogre@@8				; Ogre::BeachData::`RTTI Class Hierarchy Descriptor'
PUBLIC	??_R2BeachData@Ogre@@8				; Ogre::BeachData::`RTTI Base Class Array'
PUBLIC	??_R1A@?0A@EA@BeachData@Ogre@@8			; Ogre::BeachData::`RTTI Base Class Descriptor at (0,-1,0,64)'
PUBLIC	?_serialize@BeachData@Ogre@@MAEXAAVArchive@2@H@Z ; Ogre::BeachData::_serialize
PUBLIC	??_EBeachData@Ogre@@MAEPAXI@Z			; Ogre::BeachData::`vector deleting destructor'
;	COMDAT ??_R1A@?0A@EA@BeachData@Ogre@@8
rdata$r	SEGMENT
??_R1A@?0A@EA@BeachData@Ogre@@8 DD FLAT:??_R0?AVBeachData@Ogre@@@8 ; Ogre::BeachData::`RTTI Base Class Descriptor at (0,-1,0,64)'
	DD	03H
	DD	00H
	DD	0ffffffffH
	DD	00H
	DD	040H
	DD	FLAT:??_R3BeachData@Ogre@@8
rdata$r	ENDS
;	COMDAT ??_R2BeachData@Ogre@@8
rdata$r	SEGMENT
??_R2BeachData@Ogre@@8 DD FLAT:??_R1A@?0A@EA@BeachData@Ogre@@8 ; Ogre::BeachData::`RTTI Base Class Array'
	DD	FLAT:??_R1A@?0A@EA@Resource@Ogre@@8
	DD	FLAT:??_R1A@?0A@EA@BaseObject@Ogre@@8
	DD	FLAT:??_R13?0A@EA@MemoryDelegation@Ogre@@8
rdata$r	ENDS
;	COMDAT ??_R3BeachData@Ogre@@8
rdata$r	SEGMENT
??_R3BeachData@Ogre@@8 DD 00H				; Ogre::BeachData::`RTTI Class Hierarchy Descriptor'
	DD	00H
	DD	04H
	DD	FLAT:??_R2BeachData@Ogre@@8
rdata$r	ENDS
;	COMDAT ??_R0?AVBeachData@Ogre@@@8
_DATA	SEGMENT
??_R0?AVBeachData@Ogre@@@8 DD FLAT:??_7type_info@@6B@	; Ogre::BeachData `RTTI Type Descriptor'
	DD	00H
	DB	'.?AVBeachData@Ogre@@', 00H
_DATA	ENDS
;	COMDAT ??_R4BeachData@Ogre@@6B@
rdata$r	SEGMENT
??_R4BeachData@Ogre@@6B@ DD 00H				; Ogre::BeachData::`RTTI Complete Object Locator'
	DD	00H
	DD	00H
	DD	FLAT:??_R0?AVBeachData@Ogre@@@8
	DD	FLAT:??_R3BeachData@Ogre@@8
rdata$r	ENDS
;	COMDAT ??_7BeachData@Ogre@@6B@
CONST	SEGMENT
??_7BeachData@Ogre@@6B@ DD FLAT:??_R4BeachData@Ogre@@6B@ ; Ogre::BeachData::`vftable'
	DD	FLAT:?getRTTI@BeachData@Ogre@@UBEPBVRuntimeClass@2@XZ
	DD	FLAT:?release@Resource@Ogre@@UAEXXZ
	DD	FLAT:?addRef@Resource@Ogre@@UAEXXZ
	DD	FLAT:?getRefCount@Resource@Ogre@@UAEHXZ
	DD	FLAT:?_serialize@BeachData@Ogre@@MAEXAAVArchive@2@H@Z
	DD	FLAT:??_EBeachData@Ogre@@MAEPAXI@Z
	DD	FLAT:?deleteThis@BaseObject@Ogre@@MAEXXZ
CONST	ENDS
;	COMDAT xdata$x
xdata$x	SEGMENT
__unwindtable$??0BeachData@Ogre@@QAE@ABV01@@Z DD 0ffffffffH
	DD	FLAT:__unwindfunclet$??0BeachData@Ogre@@QAE@ABV01@@Z$0
	DD	00H
	DD	FLAT:__unwindfunclet$??0BeachData@Ogre@@QAE@ABV01@@Z$1
__ehfuncinfo$??0BeachData@Ogre@@QAE@ABV01@@Z DD 019930522H
	DD	02H
	DD	FLAT:__unwindtable$??0BeachData@Ogre@@QAE@ABV01@@Z
	DD	2 DUP(00H)
	DD	2 DUP(00H)
	DD	00H
	DD	00H
; Function compile flags: /Odtp
xdata$x	ENDS
;	COMDAT ??0BeachData@Ogre@@QAE@ABV01@@Z
_TEXT	SEGMENT
_this$ = -16						; size = 4
__$EHRec$ = -12						; size = 12
___that$ = 8						; size = 4
??0BeachData@Ogre@@QAE@ABV01@@Z PROC			; Ogre::BeachData::BeachData, COMDAT
; _this$ = ecx
	push	ebp
	mov	ebp, esp
	push	-1
	push	__ehhandler$??0BeachData@Ogre@@QAE@ABV01@@Z
	mov	eax, DWORD PTR fs:0
	push	eax
	push	ecx
	mov	eax, DWORD PTR ___security_cookie
	xor	eax, ebp
	push	eax
	lea	eax, DWORD PTR __$EHRec$[ebp]
	mov	DWORD PTR fs:0, eax
	mov	DWORD PTR _this$[ebp], ecx
	mov	eax, DWORD PTR ___that$[ebp]
	push	eax
	mov	ecx, DWORD PTR _this$[ebp]
	call	??0Resource@Ogre@@QAE@ABV01@@Z
	mov	DWORD PTR __$EHRec$[ebp+8], 0
	mov	ecx, DWORD PTR _this$[ebp]
	mov	DWORD PTR [ecx], OFFSET ??_7BeachData@Ogre@@6B@
	mov	edx, DWORD PTR _this$[ebp]
	mov	eax, DWORD PTR ___that$[ebp]
	fld	DWORD PTR [eax+16]
	fstp	DWORD PTR [edx+16]
	mov	ecx, DWORD PTR _this$[ebp]
	mov	edx, DWORD PTR ___that$[ebp]
	fld	DWORD PTR [edx+20]
	fstp	DWORD PTR [ecx+20]
	mov	eax, DWORD PTR _this$[ebp]
	mov	ecx, DWORD PTR ___that$[ebp]
	mov	edx, DWORD PTR [ecx+24]
	mov	DWORD PTR [eax+24], edx
	mov	eax, DWORD PTR _this$[ebp]
	mov	ecx, DWORD PTR ___that$[ebp]
	fld	DWORD PTR [ecx+28]
	fstp	DWORD PTR [eax+28]
	mov	edx, DWORD PTR _this$[ebp]
	mov	eax, DWORD PTR ___that$[ebp]
	fld	DWORD PTR [eax+32]
	fstp	DWORD PTR [edx+32]
	mov	ecx, DWORD PTR _this$[ebp]
	mov	edx, DWORD PTR ___that$[ebp]
	fld	DWORD PTR [edx+36]
	fstp	DWORD PTR [ecx+36]
	mov	eax, DWORD PTR _this$[ebp]
	mov	ecx, DWORD PTR ___that$[ebp]
	fld	DWORD PTR [ecx+40]
	fstp	DWORD PTR [eax+40]
	mov	edx, DWORD PTR _this$[ebp]
	mov	eax, DWORD PTR ___that$[ebp]
	fld	DWORD PTR [eax+44]
	fstp	DWORD PTR [edx+44]
	mov	ecx, DWORD PTR ___that$[ebp]
	add	ecx, 48					; 00000030H
	push	ecx
	mov	ecx, DWORD PTR _this$[ebp]
	add	ecx, 48					; 00000030H
	call	??0?$vector@VVector3@Ogre@@V?$allocator@VVector3@Ogre@@@std@@@std@@QAE@ABV01@@Z ; std::vector<Ogre::Vector3,std::allocator<Ogre::Vector3> >::vector<Ogre::Vector3,std::allocator<Ogre::Vector3> >
	mov	BYTE PTR __$EHRec$[ebp+8], 1
	mov	edx, DWORD PTR _this$[ebp]
	mov	eax, DWORD PTR ___that$[ebp]
	mov	ecx, DWORD PTR [eax+72]
	mov	DWORD PTR [edx+72], ecx
	mov	edx, DWORD PTR _this$[ebp]
	mov	eax, DWORD PTR ___that$[ebp]
	mov	ecx, DWORD PTR [eax+76]
	mov	DWORD PTR [edx+76], ecx
	mov	DWORD PTR __$EHRec$[ebp+8], -1
	mov	eax, DWORD PTR _this$[ebp]
	mov	ecx, DWORD PTR __$EHRec$[ebp]
	mov	DWORD PTR fs:0, ecx
	pop	ecx
	mov	esp, ebp
	pop	ebp
	ret	4
_TEXT	ENDS
;	COMDAT text$x
text$x	SEGMENT
__unwindfunclet$??0BeachData@Ogre@@QAE@ABV01@@Z$0:
	mov	ecx, DWORD PTR _this$[ebp]
	jmp	??1Resource@Ogre@@MAE@XZ		; Ogre::Resource::~Resource
__unwindfunclet$??0BeachData@Ogre@@QAE@ABV01@@Z$1:
	mov	ecx, DWORD PTR _this$[ebp]
	add	ecx, 48					; 00000030H
	jmp	??1?$vector@VVector3@Ogre@@V?$allocator@VVector3@Ogre@@@std@@@std@@QAE@XZ ; std::vector<Ogre::Vector3,std::allocator<Ogre::Vector3> >::~vector<Ogre::Vector3,std::allocator<Ogre::Vector3> >
__ehhandler$??0BeachData@Ogre@@QAE@ABV01@@Z:
	mov	edx, DWORD PTR [esp+8]
	lea	eax, DWORD PTR [edx+12]
	mov	ecx, DWORD PTR [edx-8]
	xor	ecx, eax
	call	@__security_check_cookie@4
	mov	eax, OFFSET __ehfuncinfo$??0BeachData@Ogre@@QAE@ABV01@@Z
	jmp	___CxxFrameHandler3
text$x	ENDS
??0BeachData@Ogre@@QAE@ABV01@@Z ENDP			; Ogre::BeachData::BeachData
PUBLIC	??4?$vector@VVector3@Ogre@@V?$allocator@VVector3@Ogre@@@std@@@std@@QAEAAV01@ABV01@@Z ; std::vector<Ogre::Vector3,std::allocator<Ogre::Vector3> >::operator=
PUBLIC	??4BeachData@Ogre@@QAEAAV01@ABV01@@Z		; Ogre::BeachData::operator=
; Function compile flags: /Odtp
;	COMDAT ??4BeachData@Ogre@@QAEAAV01@ABV01@@Z
_TEXT	SEGMENT
_this$ = -4						; size = 4
___that$ = 8						; size = 4
??4BeachData@Ogre@@QAEAAV01@ABV01@@Z PROC		; Ogre::BeachData::operator=, COMDAT
; _this$ = ecx
	push	ebp
	mov	ebp, esp
	push	ecx
	mov	DWORD PTR _this$[ebp], ecx
	mov	eax, DWORD PTR ___that$[ebp]
	push	eax
	mov	ecx, DWORD PTR _this$[ebp]
	call	??4Resource@Ogre@@QAEAAV01@ABV01@@Z
	mov	ecx, DWORD PTR _this$[ebp]
	mov	edx, DWORD PTR ___that$[ebp]
	fld	DWORD PTR [edx+16]
	fstp	DWORD PTR [ecx+16]
	mov	eax, DWORD PTR _this$[ebp]
	mov	ecx, DWORD PTR ___that$[ebp]
	fld	DWORD PTR [ecx+20]
	fstp	DWORD PTR [eax+20]
	mov	edx, DWORD PTR _this$[ebp]
	mov	eax, DWORD PTR ___that$[ebp]
	mov	ecx, DWORD PTR [eax+24]
	mov	DWORD PTR [edx+24], ecx
	mov	edx, DWORD PTR _this$[ebp]
	mov	eax, DWORD PTR ___that$[ebp]
	fld	DWORD PTR [eax+28]
	fstp	DWORD PTR [edx+28]
	mov	ecx, DWORD PTR _this$[ebp]
	mov	edx, DWORD PTR ___that$[ebp]
	fld	DWORD PTR [edx+32]
	fstp	DWORD PTR [ecx+32]
	mov	eax, DWORD PTR _this$[ebp]
	mov	ecx, DWORD PTR ___that$[ebp]
	fld	DWORD PTR [ecx+36]
	fstp	DWORD PTR [eax+36]
	mov	edx, DWORD PTR _this$[ebp]
	mov	eax, DWORD PTR ___that$[ebp]
	fld	DWORD PTR [eax+40]
	fstp	DWORD PTR [edx+40]
	mov	ecx, DWORD PTR _this$[ebp]
	mov	edx, DWORD PTR ___that$[ebp]
	fld	DWORD PTR [edx+44]
	fstp	DWORD PTR [ecx+44]
	mov	eax, DWORD PTR ___that$[ebp]
	add	eax, 48					; 00000030H
	push	eax
	mov	ecx, DWORD PTR _this$[ebp]
	add	ecx, 48					; 00000030H
	call	??4?$vector@VVector3@Ogre@@V?$allocator@VVector3@Ogre@@@std@@@std@@QAEAAV01@ABV01@@Z ; std::vector<Ogre::Vector3,std::allocator<Ogre::Vector3> >::operator=
	mov	ecx, DWORD PTR _this$[ebp]
	mov	edx, DWORD PTR ___that$[ebp]
	mov	eax, DWORD PTR [edx+72]
	mov	DWORD PTR [ecx+72], eax
	mov	ecx, DWORD PTR _this$[ebp]
	mov	edx, DWORD PTR ___that$[ebp]
	mov	eax, DWORD PTR [edx+76]
	mov	DWORD PTR [ecx+76], eax
	mov	eax, DWORD PTR _this$[ebp]
	mov	esp, ebp
	pop	ebp
	ret	4
??4BeachData@Ogre@@QAEAAV01@ABV01@@Z ENDP		; Ogre::BeachData::operator=
_TEXT	ENDS
PUBLIC	??1BeachData@Ogre@@MAE@XZ			; Ogre::BeachData::~BeachData
PUBLIC	??_GBeachData@Ogre@@MAEPAXI@Z			; Ogre::BeachData::`scalar deleting destructor'
; Function compile flags: /Odtp
;	COMDAT ??_GBeachData@Ogre@@MAEPAXI@Z
_TEXT	SEGMENT
_this$ = -4						; size = 4
___flags$ = 8						; size = 4
??_GBeachData@Ogre@@MAEPAXI@Z PROC			; Ogre::BeachData::`scalar deleting destructor', COMDAT
; _this$ = ecx
	push	ebp
	mov	ebp, esp
	push	ecx
	mov	DWORD PTR _this$[ebp], ecx
	mov	ecx, DWORD PTR _this$[ebp]
	call	??1BeachData@Ogre@@MAE@XZ		; Ogre::BeachData::~BeachData
	mov	eax, DWORD PTR ___flags$[ebp]
	and	eax, 1
	je	SHORT $LN1@scalar@17
	push	80					; 00000050H
	mov	ecx, DWORD PTR _this$[ebp]
	push	ecx
	call	??3MemoryDelegation@Ogre@@SAXPAXI@Z	; Ogre::MemoryDelegation::operator delete
	add	esp, 8
$LN1@scalar@17:
	mov	eax, DWORD PTR _this$[ebp]
	mov	esp, ebp
	pop	ebp
	ret	4
??_GBeachData@Ogre@@MAEPAXI@Z ENDP			; Ogre::BeachData::`scalar deleting destructor'
; Function compile flags: /Odtp
_TEXT	ENDS
;	COMDAT ??_EBeachData@Ogre@@MAEPAXI@Z
_TEXT	SEGMENT
_this$ = -4						; size = 4
___flags$ = 8						; size = 4
??_EBeachData@Ogre@@MAEPAXI@Z PROC			; Ogre::BeachData::`vector deleting destructor', COMDAT
; _this$ = ecx
	push	ebp
	mov	ebp, esp
	push	ecx
	mov	DWORD PTR _this$[ebp], ecx
	mov	eax, DWORD PTR ___flags$[ebp]
	and	eax, 2
	je	SHORT $LN3@vector@17
	push	OFFSET ??1BeachData@Ogre@@MAE@XZ	; Ogre::BeachData::~BeachData
	mov	ecx, DWORD PTR _this$[ebp]
	mov	edx, DWORD PTR [ecx-4]
	push	edx
	push	80					; 00000050H
	mov	eax, DWORD PTR _this$[ebp]
	push	eax
	call	??_M@YGXPAXIHP6EX0@Z@Z
	mov	ecx, DWORD PTR ___flags$[ebp]
	and	ecx, 1
	je	SHORT $LN2@vector@17
	push	80					; 00000050H
	mov	edx, DWORD PTR _this$[ebp]
	sub	edx, 4
	push	edx
	call	??_VMemoryDelegation@Ogre@@SAXPAXI@Z	; Ogre::MemoryDelegation::operator delete[]
	add	esp, 8
$LN2@vector@17:
	mov	eax, DWORD PTR _this$[ebp]
	sub	eax, 4
	jmp	SHORT $LN4@vector@17
$LN3@vector@17:
	mov	ecx, DWORD PTR _this$[ebp]
	call	??1BeachData@Ogre@@MAE@XZ		; Ogre::BeachData::~BeachData
	mov	eax, DWORD PTR ___flags$[ebp]
	and	eax, 1
	je	SHORT $LN1@vector@17
	push	80					; 00000050H
	mov	ecx, DWORD PTR _this$[ebp]
	push	ecx
	call	??3MemoryDelegation@Ogre@@SAXPAXI@Z	; Ogre::MemoryDelegation::operator delete
	add	esp, 8
$LN1@vector@17:
	mov	eax, DWORD PTR _this$[ebp]
$LN4@vector@17:
	mov	esp, ebp
	pop	ebp
	ret	4
??_EBeachData@Ogre@@MAEPAXI@Z ENDP			; Ogre::BeachData::`vector deleting destructor'
_TEXT	ENDS
PUBLIC	__real@00000000
PUBLIC	__real@3f800000
PUBLIC	__real@41200000
PUBLIC	__real@40a00000
PUBLIC	__real@42c80000
PUBLIC	??0?$vector@VVector3@Ogre@@V?$allocator@VVector3@Ogre@@@std@@@std@@QAE@XZ ; std::vector<Ogre::Vector3,std::allocator<Ogre::Vector3> >::vector<Ogre::Vector3,std::allocator<Ogre::Vector3> >
;	COMDAT __real@00000000
; File i:\svnroot\client\ogremain\ogrebeachdata.cpp
CONST	SEGMENT
__real@00000000 DD 000000000r			; 0
CONST	ENDS
;	COMDAT __real@3f800000
CONST	SEGMENT
__real@3f800000 DD 03f800000r			; 1
CONST	ENDS
;	COMDAT __real@41200000
CONST	SEGMENT
__real@41200000 DD 041200000r			; 10
CONST	ENDS
;	COMDAT __real@40a00000
CONST	SEGMENT
__real@40a00000 DD 040a00000r			; 5
CONST	ENDS
;	COMDAT __real@42c80000
CONST	SEGMENT
__real@42c80000 DD 042c80000r			; 100
CONST	ENDS
xdata$x	SEGMENT
__unwindtable$??0BeachData@Ogre@@QAE@XZ DD 0ffffffffH
	DD	FLAT:__unwindfunclet$??0BeachData@Ogre@@QAE@XZ$0
	DD	00H
	DD	FLAT:__unwindfunclet$??0BeachData@Ogre@@QAE@XZ$1
__ehfuncinfo$??0BeachData@Ogre@@QAE@XZ DD 019930522H
	DD	02H
	DD	FLAT:__unwindtable$??0BeachData@Ogre@@QAE@XZ
	DD	2 DUP(00H)
	DD	2 DUP(00H)
	DD	00H
	DD	00H
; Function compile flags: /Odtp
xdata$x	ENDS
_TEXT	SEGMENT
_this$ = -16						; size = 4
__$EHRec$ = -12						; size = 12
??0BeachData@Ogre@@QAE@XZ PROC				; Ogre::BeachData::BeachData
; _this$ = ecx

; 9    : {

	push	ebp
	mov	ebp, esp
	push	-1
	push	__ehhandler$??0BeachData@Ogre@@QAE@XZ
	mov	eax, DWORD PTR fs:0
	push	eax
	push	ecx
	mov	eax, DWORD PTR ___security_cookie
	xor	eax, ebp
	push	eax
	lea	eax, DWORD PTR __$EHRec$[ebp]
	mov	DWORD PTR fs:0, eax
	mov	DWORD PTR _this$[ebp], ecx
	mov	ecx, DWORD PTR _this$[ebp]
	call	??0Resource@Ogre@@IAE@XZ		; Ogre::Resource::Resource
	mov	DWORD PTR __$EHRec$[ebp+8], 0
	mov	eax, DWORD PTR _this$[ebp]
	mov	DWORD PTR [eax], OFFSET ??_7BeachData@Ogre@@6B@
	mov	ecx, DWORD PTR _this$[ebp]
	add	ecx, 48					; 00000030H
	call	??0?$vector@VVector3@Ogre@@V?$allocator@VVector3@Ogre@@@std@@@std@@QAE@XZ ; std::vector<Ogre::Vector3,std::allocator<Ogre::Vector3> >::vector<Ogre::Vector3,std::allocator<Ogre::Vector3> >
	mov	BYTE PTR __$EHRec$[ebp+8], 1

; 10   : 	m_Width = 100.0f;

	mov	ecx, DWORD PTR _this$[ebp]
	fld	DWORD PTR __real@42c80000
	fstp	DWORD PTR [ecx+16]

; 11   : 	m_Height = 5.0f;

	mov	edx, DWORD PTR _this$[ebp]
	fld	DWORD PTR __real@40a00000
	fstp	DWORD PTR [edx+20]

; 12   : 	m_iBlendMode = 1;

	mov	eax, DWORD PTR _this$[ebp]
	mov	DWORD PTR [eax+24], 1

; 13   : 	m_uvXRepeat = 10.0f;

	mov	ecx, DWORD PTR _this$[ebp]
	fld	DWORD PTR __real@41200000
	fstp	DWORD PTR [ecx+28]

; 14   : 	m_uvYRepeat = 1.0f;

	mov	edx, DWORD PTR _this$[ebp]
	fld1
	fstp	DWORD PTR [edx+32]

; 15   : 	m_UVTrans = 0.0f;

	mov	eax, DWORD PTR _this$[ebp]
	fldz
	fstp	DWORD PTR [eax+40]

; 16   : 	m_fUVSpeed = 1.0f;

	mov	ecx, DWORD PTR _this$[ebp]
	fld1
	fstp	DWORD PTR [ecx+36]

; 17   : 	m_fVRange = 1.0f;

	mov	edx, DWORD PTR _this$[ebp]
	fld1
	fstp	DWORD PTR [edx+44]

; 18   : 	
; 19   : 	m_pTextureRes = NULL;

	mov	eax, DWORD PTR _this$[ebp]
	mov	DWORD PTR [eax+72], 0

; 20   : 	m_pMaskTexture = NULL;

	mov	ecx, DWORD PTR _this$[ebp]
	mov	DWORD PTR [ecx+76], 0

; 21   : }

	mov	DWORD PTR __$EHRec$[ebp+8], -1
	mov	eax, DWORD PTR _this$[ebp]
	mov	ecx, DWORD PTR __$EHRec$[ebp]
	mov	DWORD PTR fs:0, ecx
	pop	ecx
	mov	esp, ebp
	pop	ebp
	ret	0
_TEXT	ENDS
text$x	SEGMENT
__unwindfunclet$??0BeachData@Ogre@@QAE@XZ$0:
	mov	ecx, DWORD PTR _this$[ebp]
	jmp	??1Resource@Ogre@@MAE@XZ		; Ogre::Resource::~Resource
__unwindfunclet$??0BeachData@Ogre@@QAE@XZ$1:
	mov	ecx, DWORD PTR _this$[ebp]
	add	ecx, 48					; 00000030H
	jmp	??1?$vector@VVector3@Ogre@@V?$allocator@VVector3@Ogre@@@std@@@std@@QAE@XZ ; std::vector<Ogre::Vector3,std::allocator<Ogre::Vector3> >::~vector<Ogre::Vector3,std::allocator<Ogre::Vector3> >
__ehhandler$??0BeachData@Ogre@@QAE@XZ:
	mov	edx, DWORD PTR [esp+8]
	lea	eax, DWORD PTR [edx+12]
	mov	ecx, DWORD PTR [edx-8]
	xor	ecx, eax
	call	@__security_check_cookie@4
	mov	eax, OFFSET __ehfuncinfo$??0BeachData@Ogre@@QAE@XZ
	jmp	___CxxFrameHandler3
text$x	ENDS
??0BeachData@Ogre@@QAE@XZ ENDP				; Ogre::BeachData::BeachData
xdata$x	SEGMENT
__unwindtable$??1BeachData@Ogre@@MAE@XZ DD 0ffffffffH
	DD	FLAT:__unwindfunclet$??1BeachData@Ogre@@MAE@XZ$0
	DD	00H
	DD	FLAT:__unwindfunclet$??1BeachData@Ogre@@MAE@XZ$1
__ehfuncinfo$??1BeachData@Ogre@@MAE@XZ DD 019930522H
	DD	02H
	DD	FLAT:__unwindtable$??1BeachData@Ogre@@MAE@XZ
	DD	2 DUP(00H)
	DD	2 DUP(00H)
	DD	00H
	DD	00H
; Function compile flags: /Odtp
xdata$x	ENDS
_TEXT	SEGMENT
_this$ = -16						; size = 4
__$EHRec$ = -12						; size = 12
??1BeachData@Ogre@@MAE@XZ PROC				; Ogre::BeachData::~BeachData
; _this$ = ecx

; 24   : {

	push	ebp
	mov	ebp, esp
	push	-1
	push	__ehhandler$??1BeachData@Ogre@@MAE@XZ
	mov	eax, DWORD PTR fs:0
	push	eax
	push	ecx
	mov	eax, DWORD PTR ___security_cookie
	xor	eax, ebp
	push	eax
	lea	eax, DWORD PTR __$EHRec$[ebp]
	mov	DWORD PTR fs:0, eax
	mov	DWORD PTR _this$[ebp], ecx
	mov	eax, DWORD PTR _this$[ebp]
	mov	DWORD PTR [eax], OFFSET ??_7BeachData@Ogre@@6B@
	mov	DWORD PTR __$EHRec$[ebp+8], 1

; 25   : 	OGRE_RELEASE(m_pTextureRes);

	mov	ecx, DWORD PTR _this$[ebp]
	cmp	DWORD PTR [ecx+72], 0
	je	SHORT $LN2@BeachData
	mov	edx, DWORD PTR _this$[ebp]
	mov	eax, DWORD PTR [edx+72]
	mov	ecx, DWORD PTR _this$[ebp]
	mov	ecx, DWORD PTR [ecx+72]
	mov	edx, DWORD PTR [eax]
	mov	eax, DWORD PTR [edx+4]
	call	eax
	mov	ecx, DWORD PTR _this$[ebp]
	mov	DWORD PTR [ecx+72], 0
$LN2@BeachData:

; 26   : 	OGRE_RELEASE(m_pMaskTexture);

	mov	edx, DWORD PTR _this$[ebp]
	cmp	DWORD PTR [edx+76], 0
	je	SHORT $LN3@BeachData
	mov	eax, DWORD PTR _this$[ebp]
	mov	ecx, DWORD PTR [eax+76]
	mov	edx, DWORD PTR _this$[ebp]
	mov	eax, DWORD PTR [edx+76]
	mov	edx, DWORD PTR [ecx]
	mov	ecx, eax
	mov	eax, DWORD PTR [edx+4]
	call	eax
	mov	ecx, DWORD PTR _this$[ebp]
	mov	DWORD PTR [ecx+76], 0
$LN3@BeachData:

; 27   : }

	mov	BYTE PTR __$EHRec$[ebp+8], 0
	mov	ecx, DWORD PTR _this$[ebp]
	add	ecx, 48					; 00000030H
	call	??1?$vector@VVector3@Ogre@@V?$allocator@VVector3@Ogre@@@std@@@std@@QAE@XZ ; std::vector<Ogre::Vector3,std::allocator<Ogre::Vector3> >::~vector<Ogre::Vector3,std::allocator<Ogre::Vector3> >
	mov	DWORD PTR __$EHRec$[ebp+8], -1
	mov	ecx, DWORD PTR _this$[ebp]
	call	??1Resource@Ogre@@MAE@XZ		; Ogre::Resource::~Resource
	mov	ecx, DWORD PTR __$EHRec$[ebp]
	mov	DWORD PTR fs:0, ecx
	pop	ecx
	mov	esp, ebp
	pop	ebp
	ret	0
_TEXT	ENDS
text$x	SEGMENT
__unwindfunclet$??1BeachData@Ogre@@MAE@XZ$0:
	mov	ecx, DWORD PTR _this$[ebp]
	jmp	??1Resource@Ogre@@MAE@XZ		; Ogre::Resource::~Resource
__unwindfunclet$??1BeachData@Ogre@@MAE@XZ$1:
	mov	ecx, DWORD PTR _this$[ebp]
	add	ecx, 48					; 00000030H
	jmp	??1?$vector@VVector3@Ogre@@V?$allocator@VVector3@Ogre@@@std@@@std@@QAE@XZ ; std::vector<Ogre::Vector3,std::allocator<Ogre::Vector3> >::~vector<Ogre::Vector3,std::allocator<Ogre::Vector3> >
__ehhandler$??1BeachData@Ogre@@MAE@XZ:
	mov	edx, DWORD PTR [esp+8]
	lea	eax, DWORD PTR [edx+12]
	mov	ecx, DWORD PTR [edx-8]
	xor	ecx, eax
	call	@__security_check_cookie@4
	mov	eax, OFFSET __ehfuncinfo$??1BeachData@Ogre@@MAE@XZ
	jmp	___CxxFrameHandler3
text$x	ENDS
??1BeachData@Ogre@@MAE@XZ ENDP				; Ogre::BeachData::~BeachData
PUBLIC	??$serializeRawArray@VVector3@Ogre@@@Archive@Ogre@@QAEAAV01@AAV?$vector@VVector3@Ogre@@V?$allocator@VVector3@Ogre@@@std@@@std@@@Z ; Ogre::Archive::serializeRawArray<Ogre::Vector3>
EXTRN	?SerializeExternalTexture@Ogre@@YAXAAVArchive@1@AAPAVTextureData@1@@Z:PROC ; Ogre::SerializeExternalTexture
; Function compile flags: /Odtp
_TEXT	SEGMENT
_this$ = -4						; size = 4
_ar$ = 8						; size = 4
_version$ = 12						; size = 4
?_serialize@BeachData@Ogre@@MAEXAAVArchive@2@H@Z PROC	; Ogre::BeachData::_serialize
; _this$ = ecx

; 30   : {

	push	ebp
	mov	ebp, esp
	push	ecx
	mov	DWORD PTR _this$[ebp], ecx

; 31   : 	ar << m_Width;

	mov	eax, DWORD PTR _this$[ebp]
	add	eax, 16					; 00000010H
	push	eax
	mov	ecx, DWORD PTR _ar$[ebp]
	call	??6Archive@Ogre@@QAEAAV01@AAM@Z		; Ogre::Archive::operator<<

; 32   : 	ar << m_Height;

	mov	ecx, DWORD PTR _this$[ebp]
	add	ecx, 20					; 00000014H
	push	ecx
	mov	ecx, DWORD PTR _ar$[ebp]
	call	??6Archive@Ogre@@QAEAAV01@AAM@Z		; Ogre::Archive::operator<<

; 33   : 	ar << m_iBlendMode;

	mov	edx, DWORD PTR _this$[ebp]
	add	edx, 24					; 00000018H
	push	edx
	mov	ecx, DWORD PTR _ar$[ebp]
	call	??6Archive@Ogre@@QAEAAV01@AAH@Z		; Ogre::Archive::operator<<

; 34   : 	ar << m_uvXRepeat;

	mov	eax, DWORD PTR _this$[ebp]
	add	eax, 28					; 0000001cH
	push	eax
	mov	ecx, DWORD PTR _ar$[ebp]
	call	??6Archive@Ogre@@QAEAAV01@AAM@Z		; Ogre::Archive::operator<<

; 35   : 	ar << m_uvYRepeat;

	mov	ecx, DWORD PTR _this$[ebp]
	add	ecx, 32					; 00000020H
	push	ecx
	mov	ecx, DWORD PTR _ar$[ebp]
	call	??6Archive@Ogre@@QAEAAV01@AAM@Z		; Ogre::Archive::operator<<

; 36   : 	ar << m_UVTrans;

	mov	edx, DWORD PTR _this$[ebp]
	add	edx, 40					; 00000028H
	push	edx
	mov	ecx, DWORD PTR _ar$[ebp]
	call	??6Archive@Ogre@@QAEAAV01@AAM@Z		; Ogre::Archive::operator<<

; 37   : 	ar << m_fUVSpeed;

	mov	eax, DWORD PTR _this$[ebp]
	add	eax, 36					; 00000024H
	push	eax
	mov	ecx, DWORD PTR _ar$[ebp]
	call	??6Archive@Ogre@@QAEAAV01@AAM@Z		; Ogre::Archive::operator<<

; 38   : 	ar << m_fVRange;

	mov	ecx, DWORD PTR _this$[ebp]
	add	ecx, 44					; 0000002cH
	push	ecx
	mov	ecx, DWORD PTR _ar$[ebp]
	call	??6Archive@Ogre@@QAEAAV01@AAM@Z		; Ogre::Archive::operator<<

; 39   : 
; 40   : 	ar.serializeRawArray(m_RoadPoints);

	mov	edx, DWORD PTR _this$[ebp]
	add	edx, 48					; 00000030H
	push	edx
	mov	ecx, DWORD PTR _ar$[ebp]
	call	??$serializeRawArray@VVector3@Ogre@@@Archive@Ogre@@QAEAAV01@AAV?$vector@VVector3@Ogre@@V?$allocator@VVector3@Ogre@@@std@@@std@@@Z ; Ogre::Archive::serializeRawArray<Ogre::Vector3>

; 41   : 
; 42   : 	SerializeExternalTexture(ar, m_pTextureRes);

	mov	eax, DWORD PTR _this$[ebp]
	add	eax, 72					; 00000048H
	push	eax
	mov	ecx, DWORD PTR _ar$[ebp]
	push	ecx
	call	?SerializeExternalTexture@Ogre@@YAXAAVArchive@1@AAPAVTextureData@1@@Z ; Ogre::SerializeExternalTexture
	add	esp, 8

; 43   : 	SerializeExternalTexture(ar, m_pMaskTexture);

	mov	edx, DWORD PTR _this$[ebp]
	add	edx, 76					; 0000004cH
	push	edx
	mov	eax, DWORD PTR _ar$[ebp]
	push	eax
	call	?SerializeExternalTexture@Ogre@@YAXAAVArchive@1@AAPAVTextureData@1@@Z ; Ogre::SerializeExternalTexture
	add	esp, 8

; 44   : }

	mov	esp, ebp
	pop	ebp
	ret	8
?_serialize@BeachData@Ogre@@MAEXAAVArchive@2@H@Z ENDP	; Ogre::BeachData::_serialize
; Function compile flags: /Odtp
; File i:\svnroot\client\ogremain\ogrerect.h
_TEXT	ENDS
;	COMDAT ??0?$TBox@H@Ogre@@QAE@XZ
_TEXT	SEGMENT
_this$ = -4						; size = 4
??0?$TBox@H@Ogre@@QAE@XZ PROC				; Ogre::TBox<int>::TBox<int>, COMDAT
; _this$ = ecx

; 68   : 		TBox(){}

	push	ebp
	mov	ebp, esp
	push	ecx
	mov	DWORD PTR _this$[ebp], ecx
	mov	eax, DWORD PTR _this$[ebp]
	mov	esp, ebp
	pop	ebp
	ret	0
??0?$TBox@H@Ogre@@QAE@XZ ENDP				; Ogre::TBox<int>::TBox<int>
; Function compile flags: /Odtp
_TEXT	ENDS
;	COMDAT ??0?$TBox@H@Ogre@@QAE@HHHHHH@Z
_TEXT	SEGMENT
_this$ = -4						; size = 4
_left$ = 8						; size = 4
_top$ = 12						; size = 4
_front$ = 16						; size = 4
_right$ = 20						; size = 4
_bottom$ = 24						; size = 4
_back$ = 28						; size = 4
??0?$TBox@H@Ogre@@QAE@HHHHHH@Z PROC			; Ogre::TBox<int>::TBox<int>, COMDAT
; _this$ = ecx

; 70   : 		{

	push	ebp
	mov	ebp, esp
	push	ecx
	mov	DWORD PTR _this$[ebp], ecx
	mov	eax, DWORD PTR _this$[ebp]
	mov	ecx, DWORD PTR _left$[ebp]
	mov	DWORD PTR [eax], ecx
	mov	edx, DWORD PTR _this$[ebp]
	mov	eax, DWORD PTR _top$[ebp]
	mov	DWORD PTR [edx+4], eax
	mov	ecx, DWORD PTR _this$[ebp]
	mov	edx, DWORD PTR _front$[ebp]
	mov	DWORD PTR [ecx+8], edx
	mov	eax, DWORD PTR _this$[ebp]
	mov	ecx, DWORD PTR _right$[ebp]
	mov	DWORD PTR [eax+12], ecx
	mov	edx, DWORD PTR _this$[ebp]
	mov	eax, DWORD PTR _bottom$[ebp]
	mov	DWORD PTR [edx+16], eax
	mov	ecx, DWORD PTR _this$[ebp]
	mov	edx, DWORD PTR _back$[ebp]
	mov	DWORD PTR [ecx+20], edx

; 71   : 		}

	mov	eax, DWORD PTR _this$[ebp]
	mov	esp, ebp
	pop	ebp
	ret	24					; 00000018H
??0?$TBox@H@Ogre@@QAE@HHHHHH@Z ENDP			; Ogre::TBox<int>::TBox<int>
; Function compile flags: /Odtp
_TEXT	ENDS
;	COMDAT ?getWidth@?$TBox@H@Ogre@@QBEHXZ
_TEXT	SEGMENT
_this$ = -4						; size = 4
?getWidth@?$TBox@H@Ogre@@QBEHXZ PROC			; Ogre::TBox<int>::getWidth, COMDAT
; _this$ = ecx

; 73   : 		T getWidth() const{ return m_Right-m_Left; }

	push	ebp
	mov	ebp, esp
	push	ecx
	mov	DWORD PTR _this$[ebp], ecx
	mov	eax, DWORD PTR _this$[ebp]
	mov	ecx, DWORD PTR _this$[ebp]
	mov	eax, DWORD PTR [eax+12]
	sub	eax, DWORD PTR [ecx]
	mov	esp, ebp
	pop	ebp
	ret	0
?getWidth@?$TBox@H@Ogre@@QBEHXZ ENDP			; Ogre::TBox<int>::getWidth
; Function compile flags: /Odtp
_TEXT	ENDS
;	COMDAT ?getHeight@?$TBox@H@Ogre@@QBEHXZ
_TEXT	SEGMENT
_this$ = -4						; size = 4
?getHeight@?$TBox@H@Ogre@@QBEHXZ PROC			; Ogre::TBox<int>::getHeight, COMDAT
; _this$ = ecx

; 74   : 		T getHeight() const{ return m_Bottom-m_Top; }

	push	ebp
	mov	ebp, esp
	push	ecx
	mov	DWORD PTR _this$[ebp], ecx
	mov	eax, DWORD PTR _this$[ebp]
	mov	ecx, DWORD PTR _this$[ebp]
	mov	eax, DWORD PTR [eax+16]
	sub	eax, DWORD PTR [ecx+4]
	mov	esp, ebp
	pop	ebp
	ret	0
?getHeight@?$TBox@H@Ogre@@QBEHXZ ENDP			; Ogre::TBox<int>::getHeight
_TEXT	ENDS
PUBLIC	?getDepth@?$TBox@H@Ogre@@QBEHXZ			; Ogre::TBox<int>::getDepth
; Function compile flags: /Odtp
;	COMDAT ?getDepth@?$TBox@H@Ogre@@QBEHXZ
_TEXT	SEGMENT
_this$ = -4						; size = 4
?getDepth@?$TBox@H@Ogre@@QBEHXZ PROC			; Ogre::TBox<int>::getDepth, COMDAT
; _this$ = ecx

; 75   : 		T getDepth() const{ return m_Back-m_Front; }

	push	ebp
	mov	ebp, esp
	push	ecx
	mov	DWORD PTR _this$[ebp], ecx
	mov	eax, DWORD PTR _this$[ebp]
	mov	ecx, DWORD PTR _this$[ebp]
	mov	eax, DWORD PTR [eax+20]
	sub	eax, DWORD PTR [ecx+8]
	mov	esp, ebp
	pop	ebp
	ret	0
?getDepth@?$TBox@H@Ogre@@QBEHXZ ENDP			; Ogre::TBox<int>::getDepth
_TEXT	ENDS
PUBLIC	?contains@?$TBox@H@Ogre@@QBE_NABV12@@Z		; Ogre::TBox<int>::contains
; Function compile flags: /Odtp
;	COMDAT ?contains@?$TBox@H@Ogre@@QBE_NABV12@@Z
_TEXT	SEGMENT
tv80 = -8						; size = 4
_this$ = -4						; size = 4
_def$ = 8						; size = 4
?contains@?$TBox@H@Ogre@@QBE_NABV12@@Z PROC		; Ogre::TBox<int>::contains, COMDAT
; _this$ = ecx

; 78   : 		{

	push	ebp
	mov	ebp, esp
	sub	esp, 8
	mov	DWORD PTR _this$[ebp], ecx

; 79   : 			return (def.m_Left >= m_Left && def.m_Top >= m_Top && def.m_Front >= m_Front &&
; 80   : 				def.m_Right <= m_Right && def.m_Bottom <= m_Bottom && def.m_Back <= m_Back);

	mov	eax, DWORD PTR _def$[ebp]
	mov	ecx, DWORD PTR _this$[ebp]
	mov	edx, DWORD PTR [eax]
	cmp	edx, DWORD PTR [ecx]
	jl	SHORT $LN3@contains
	mov	eax, DWORD PTR _def$[ebp]
	mov	ecx, DWORD PTR _this$[ebp]
	mov	edx, DWORD PTR [eax+4]
	cmp	edx, DWORD PTR [ecx+4]
	jl	SHORT $LN3@contains
	mov	eax, DWORD PTR _def$[ebp]
	mov	ecx, DWORD PTR _this$[ebp]
	mov	edx, DWORD PTR [eax+8]
	cmp	edx, DWORD PTR [ecx+8]
	jl	SHORT $LN3@contains
	mov	eax, DWORD PTR _def$[ebp]
	mov	ecx, DWORD PTR _this$[ebp]
	mov	edx, DWORD PTR [eax+12]
	cmp	edx, DWORD PTR [ecx+12]
	jg	SHORT $LN3@contains
	mov	eax, DWORD PTR _def$[ebp]
	mov	ecx, DWORD PTR _this$[ebp]
	mov	edx, DWORD PTR [eax+16]
	cmp	edx, DWORD PTR [ecx+16]
	jg	SHORT $LN3@contains
	mov	eax, DWORD PTR _def$[ebp]
	mov	ecx, DWORD PTR _this$[ebp]
	mov	edx, DWORD PTR [eax+20]
	cmp	edx, DWORD PTR [ecx+20]
	jg	SHORT $LN3@contains
	mov	DWORD PTR tv80[ebp], 1
	jmp	SHORT $LN4@contains
$LN3@contains:
	mov	DWORD PTR tv80[ebp], 0
$LN4@contains:
	mov	al, BYTE PTR tv80[ebp]

; 81   : 		}

	mov	esp, ebp
	pop	ebp
	ret	4
?contains@?$TBox@H@Ogre@@QBE_NABV12@@Z ENDP		; Ogre::TBox<int>::contains
_TEXT	ENDS
PUBLIC	??1?$_Vector_val@DV?$allocator@D@std@@@std@@QAE@XZ ; std::_Vector_val<char,std::allocator<char> >::~_Vector_val<char,std::allocator<char> >
PUBLIC	?_Tidy@?$vector@DV?$allocator@D@std@@@std@@IAEXXZ ; std::vector<char,std::allocator<char> >::_Tidy
PUBLIC	??$_Ucopy@V?$_Vector_const_iterator@DV?$allocator@D@std@@@std@@@?$vector@DV?$allocator@D@std@@@std@@IAEPADV?$_Vector_const_iterator@DV?$allocator@D@std@@@1@0PAD@Z ; std::vector<char,std::allocator<char> >::_Ucopy<std::_Vector_const_iterator<char,std::allocator<char> > >
PUBLIC	?begin@?$vector@DV?$allocator@D@std@@@std@@QBE?AV?$_Vector_const_iterator@DV?$allocator@D@std@@@2@XZ ; std::vector<char,std::allocator<char> >::begin
PUBLIC	?end@?$vector@DV?$allocator@D@std@@@std@@QBE?AV?$_Vector_const_iterator@DV?$allocator@D@std@@@2@XZ ; std::vector<char,std::allocator<char> >::end
PUBLIC	?_Buy@?$vector@DV?$allocator@D@std@@@std@@IAE_NI@Z ; std::vector<char,std::allocator<char> >::_Buy
PUBLIC	?size@?$vector@DV?$allocator@D@std@@@std@@QBEIXZ ; std::vector<char,std::allocator<char> >::size
PUBLIC	??0?$_Vector_val@DV?$allocator@D@std@@@std@@IAE@V?$allocator@D@1@@Z ; std::_Vector_val<char,std::allocator<char> >::_Vector_val<char,std::allocator<char> >
EXTRN	__imp_??0?$allocator@D@std@@QAE@ABV01@@Z:PROC
EXTRN	__CxxThrowException@8:PROC
;	COMDAT xdata$x
; File d:\program files (x86)\microsoft visual studio 9.0\vc\include\vector
xdata$x	SEGMENT
__catchsym$??0?$vector@DV?$allocator@D@std@@@std@@QAE@ABV01@@Z$3 DD 00H
	DD	00H
	DD	00H
	DD	FLAT:__catch$??0?$vector@DV?$allocator@D@std@@@std@@QAE@ABV01@@Z$0
__tryblocktable$??0?$vector@DV?$allocator@D@std@@@std@@QAE@ABV01@@Z DD 01H
	DD	01H
	DD	02H
	DD	01H
	DD	FLAT:__catchsym$??0?$vector@DV?$allocator@D@std@@@std@@QAE@ABV01@@Z$3
__unwindtable$??0?$vector@DV?$allocator@D@std@@@std@@QAE@ABV01@@Z DD 0ffffffffH
	DD	FLAT:__unwindfunclet$??0?$vector@DV?$allocator@D@std@@@std@@QAE@ABV01@@Z$2
	DD	00H
	DD	00H
	DD	00H
	DD	00H
__ehfuncinfo$??0?$vector@DV?$allocator@D@std@@@std@@QAE@ABV01@@Z DD 019930522H
	DD	03H
	DD	FLAT:__unwindtable$??0?$vector@DV?$allocator@D@std@@@std@@QAE@ABV01@@Z
	DD	01H
	DD	FLAT:__tryblocktable$??0?$vector@DV?$allocator@D@std@@@std@@QAE@ABV01@@Z
	DD	2 DUP(00H)
	DD	00H
	DD	00H
; Function compile flags: /Odtp
xdata$x	ENDS
;	COMDAT ??0?$vector@DV?$allocator@D@std@@@std@@QAE@ABV01@@Z
_TEXT	SEGMENT
_this$ = -40						; size = 4
$T67967 = -36						; size = 8
$T67966 = -28						; size = 8
$T67965 = -20						; size = 4
__$EHRec$ = -16						; size = 16
__Right$ = 8						; size = 4
??0?$vector@DV?$allocator@D@std@@@std@@QAE@ABV01@@Z PROC ; std::vector<char,std::allocator<char> >::vector<char,std::allocator<char> >, COMDAT
; _this$ = ecx

; 500  : 		{	// construct by copying _Right

	push	ebp
	mov	ebp, esp
	push	-1
	push	__ehhandler$??0?$vector@DV?$allocator@D@std@@@std@@QAE@ABV01@@Z
	mov	eax, DWORD PTR fs:0
	push	eax
	push	ecx
	sub	esp, 24					; 00000018H
	push	ebx
	push	esi
	push	edi
	mov	eax, DWORD PTR ___security_cookie
	xor	eax, ebp
	push	eax
	lea	eax, DWORD PTR __$EHRec$[ebp+4]
	mov	DWORD PTR fs:0, eax
	mov	DWORD PTR __$EHRec$[ebp], esp
	mov	DWORD PTR _this$[ebp], ecx
	mov	eax, DWORD PTR __Right$[ebp]
	add	eax, 8
	push	ecx
	mov	ecx, esp
	mov	DWORD PTR $T67965[ebp], esp
	push	eax
	call	DWORD PTR __imp_??0?$allocator@D@std@@QAE@ABV01@@Z
	mov	ecx, DWORD PTR _this$[ebp]
	call	??0?$_Vector_val@DV?$allocator@D@std@@@std@@IAE@V?$allocator@D@1@@Z ; std::_Vector_val<char,std::allocator<char> >::_Vector_val<char,std::allocator<char> >
	mov	DWORD PTR __$EHRec$[ebp+12], 0

; 501  : 		if (_Buy(_Right.size()))

	mov	ecx, DWORD PTR __Right$[ebp]
	call	?size@?$vector@DV?$allocator@D@std@@@std@@QBEIXZ ; std::vector<char,std::allocator<char> >::size
	push	eax
	mov	ecx, DWORD PTR _this$[ebp]
	call	?_Buy@?$vector@DV?$allocator@D@std@@@std@@IAE_NI@Z ; std::vector<char,std::allocator<char> >::_Buy
	movzx	ecx, al
	test	ecx, ecx
	je	SHORT $LN3@vector@18

; 502  : 			_TRY_BEGIN

	mov	BYTE PTR __$EHRec$[ebp+12], 1

; 503  : 			_Mylast = _Ucopy(_Right.begin(), _Right.end(), _Myfirst);

	mov	edx, DWORD PTR _this$[ebp]
	mov	eax, DWORD PTR [edx+12]
	push	eax
	lea	ecx, DWORD PTR $T67966[ebp]
	push	ecx
	mov	ecx, DWORD PTR __Right$[ebp]
	call	?end@?$vector@DV?$allocator@D@std@@@std@@QBE?AV?$_Vector_const_iterator@DV?$allocator@D@std@@@2@XZ ; std::vector<char,std::allocator<char> >::end
	mov	edx, DWORD PTR [eax+4]
	push	edx
	mov	eax, DWORD PTR [eax]
	push	eax
	lea	ecx, DWORD PTR $T67967[ebp]
	push	ecx
	mov	ecx, DWORD PTR __Right$[ebp]
	call	?begin@?$vector@DV?$allocator@D@std@@@std@@QBE?AV?$_Vector_const_iterator@DV?$allocator@D@std@@@2@XZ ; std::vector<char,std::allocator<char> >::begin
	mov	edx, DWORD PTR [eax+4]
	push	edx
	mov	eax, DWORD PTR [eax]
	push	eax
	mov	ecx, DWORD PTR _this$[ebp]
	call	??$_Ucopy@V?$_Vector_const_iterator@DV?$allocator@D@std@@@std@@@?$vector@DV?$allocator@D@std@@@std@@IAEPADV?$_Vector_const_iterator@DV?$allocator@D@std@@@1@0PAD@Z ; std::vector<char,std::allocator<char> >::_Ucopy<std::_Vector_const_iterator<char,std::allocator<char> > >
	mov	ecx, DWORD PTR _this$[ebp]
	mov	DWORD PTR [ecx+16], eax
	jmp	SHORT $LN5@vector@18
__catch$??0?$vector@DV?$allocator@D@std@@@std@@QAE@ABV01@@Z$0:

; 504  : 			_CATCH_ALL
; 505  : 			_Tidy();

	mov	ecx, DWORD PTR _this$[ebp]
	call	?_Tidy@?$vector@DV?$allocator@D@std@@@std@@IAEXXZ ; std::vector<char,std::allocator<char> >::_Tidy

; 506  : 			_RERAISE;

	push	0
	push	0
	call	__CxxThrowException@8

; 507  : 			_CATCH_END

	mov	DWORD PTR __$EHRec$[ebp+12], 0
	mov	eax, $LN3@vector@18
	ret	0
$LN5@vector@18:
	mov	DWORD PTR __$EHRec$[ebp+12], 0
$LN3@vector@18:

; 508  : 		}

	mov	DWORD PTR __$EHRec$[ebp+12], -1
	mov	eax, DWORD PTR _this$[ebp]
$LN4@vector@18:
	mov	ecx, DWORD PTR __$EHRec$[ebp+4]
	mov	DWORD PTR fs:0, ecx
	pop	ecx
	pop	edi
	pop	esi
	pop	ebx
	mov	esp, ebp
	pop	ebp
	ret	4
_TEXT	ENDS
;	COMDAT text$x
text$x	SEGMENT
__unwindfunclet$??0?$vector@DV?$allocator@D@std@@@std@@QAE@ABV01@@Z$2:
	mov	ecx, DWORD PTR _this$[ebp]
	jmp	??1?$_Vector_val@DV?$allocator@D@std@@@std@@QAE@XZ
__ehhandler$??0?$vector@DV?$allocator@D@std@@@std@@QAE@ABV01@@Z:
	mov	edx, DWORD PTR [esp+8]
	lea	eax, DWORD PTR [edx+12]
	mov	ecx, DWORD PTR [edx-44]
	xor	ecx, eax
	call	@__security_check_cookie@4
	mov	eax, OFFSET __ehfuncinfo$??0?$vector@DV?$allocator@D@std@@@std@@QAE@ABV01@@Z
	jmp	___CxxFrameHandler3
text$x	ENDS
??0?$vector@DV?$allocator@D@std@@@std@@QAE@ABV01@@Z ENDP ; std::vector<char,std::allocator<char> >::vector<char,std::allocator<char> >
;	COMDAT xdata$x
xdata$x	SEGMENT
__unwindtable$??1?$vector@DV?$allocator@D@std@@@std@@QAE@XZ DD 0ffffffffH
	DD	FLAT:__unwindfunclet$??1?$vector@DV?$allocator@D@std@@@std@@QAE@XZ$0
__ehfuncinfo$??1?$vector@DV?$allocator@D@std@@@std@@QAE@XZ DD 019930522H
	DD	01H
	DD	FLAT:__unwindtable$??1?$vector@DV?$allocator@D@std@@@std@@QAE@XZ
	DD	2 DUP(00H)
	DD	2 DUP(00H)
	DD	00H
	DD	00H
; Function compile flags: /Odtp
xdata$x	ENDS
;	COMDAT ??1?$vector@DV?$allocator@D@std@@@std@@QAE@XZ
_TEXT	SEGMENT
_this$ = -16						; size = 4
__$EHRec$ = -12						; size = 12
??1?$vector@DV?$allocator@D@std@@@std@@QAE@XZ PROC	; std::vector<char,std::allocator<char> >::~vector<char,std::allocator<char> >, COMDAT
; _this$ = ecx

; 558  : 		{	// destroy the object

	push	ebp
	mov	ebp, esp
	push	-1
	push	__ehhandler$??1?$vector@DV?$allocator@D@std@@@std@@QAE@XZ
	mov	eax, DWORD PTR fs:0
	push	eax
	push	ecx
	mov	eax, DWORD PTR ___security_cookie
	xor	eax, ebp
	push	eax
	lea	eax, DWORD PTR __$EHRec$[ebp]
	mov	DWORD PTR fs:0, eax
	mov	DWORD PTR _this$[ebp], ecx
	mov	DWORD PTR __$EHRec$[ebp+8], 0

; 559  : 		_Tidy();

	mov	ecx, DWORD PTR _this$[ebp]
	call	?_Tidy@?$vector@DV?$allocator@D@std@@@std@@IAEXXZ ; std::vector<char,std::allocator<char> >::_Tidy

; 560  : 		}

	mov	DWORD PTR __$EHRec$[ebp+8], -1
	mov	ecx, DWORD PTR _this$[ebp]
	call	??1?$_Vector_val@DV?$allocator@D@std@@@std@@QAE@XZ
	mov	ecx, DWORD PTR __$EHRec$[ebp]
	mov	DWORD PTR fs:0, ecx
	pop	ecx
	mov	esp, ebp
	pop	ebp
	ret	0
_TEXT	ENDS
;	COMDAT text$x
text$x	SEGMENT
__unwindfunclet$??1?$vector@DV?$allocator@D@std@@@std@@QAE@XZ$0:
	mov	ecx, DWORD PTR _this$[ebp]
	jmp	??1?$_Vector_val@DV?$allocator@D@std@@@std@@QAE@XZ
__ehhandler$??1?$vector@DV?$allocator@D@std@@@std@@QAE@XZ:
	mov	edx, DWORD PTR [esp+8]
	lea	eax, DWORD PTR [edx+12]
	mov	ecx, DWORD PTR [edx-8]
	xor	ecx, eax
	call	@__security_check_cookie@4
	mov	eax, OFFSET __ehfuncinfo$??1?$vector@DV?$allocator@D@std@@@std@@QAE@XZ
	jmp	___CxxFrameHandler3
text$x	ENDS
??1?$vector@DV?$allocator@D@std@@@std@@QAE@XZ ENDP	; std::vector<char,std::allocator<char> >::~vector<char,std::allocator<char> >
PUBLIC	??$_Ucopy@PAD@?$vector@DV?$allocator@D@std@@@std@@IAEPADPAD00@Z ; std::vector<char,std::allocator<char> >::_Ucopy<char *>
PUBLIC	?capacity@?$vector@DV?$allocator@D@std@@@std@@QBEIXZ ; std::vector<char,std::allocator<char> >::capacity
PUBLIC	?_Destroy@?$vector@DV?$allocator@D@std@@@std@@IAEXPAD0@Z ; std::vector<char,std::allocator<char> >::_Destroy
PUBLIC	??$unchecked_copy@PADPAD@stdext@@YAPADPAD00@Z	; stdext::unchecked_copy<char *,char *>
PUBLIC	?clear@?$vector@DV?$allocator@D@std@@@std@@QAEXXZ ; std::vector<char,std::allocator<char> >::clear
EXTRN	__imp_?deallocate@?$allocator@D@std@@QAEXPADI@Z:PROC
; Function compile flags: /Odtp
;	COMDAT ??4?$vector@DV?$allocator@D@std@@@std@@QAEAAV01@ABV01@@Z
_TEXT	SEGMENT
_this$ = -12						; size = 4
__Ptr$61170 = -8					; size = 4
__Ptr$61160 = -4					; size = 4
__Right$ = 8						; size = 4
??4?$vector@DV?$allocator@D@std@@@std@@QAEAAV01@ABV01@@Z PROC ; std::vector<char,std::allocator<char> >::operator=, COMDAT
; _this$ = ecx

; 563  : 		{	// assign _Right

	push	ebp
	mov	ebp, esp
	sub	esp, 12					; 0000000cH
	push	esi
	mov	DWORD PTR _this$[ebp], ecx

; 564  : 		if (this != &_Right)

	mov	eax, DWORD PTR _this$[ebp]
	cmp	eax, DWORD PTR __Right$[ebp]
	je	$LN9@operator@2

; 565  : 			{	// worth doing
; 566  : 
; 567  :  #if _HAS_ITERATOR_DEBUGGING
; 568  : 			this->_Orphan_all();
; 569  :  #endif /* _HAS_ITERATOR_DEBUGGING */
; 570  : 
; 571  : 			if (_Right.size() == 0)

	mov	ecx, DWORD PTR __Right$[ebp]
	call	?size@?$vector@DV?$allocator@D@std@@@std@@QBEIXZ ; std::vector<char,std::allocator<char> >::size
	test	eax, eax
	jne	SHORT $LN8@operator@2

; 572  : 				clear();	// new sequence empty, erase existing sequence

	mov	ecx, DWORD PTR _this$[ebp]
	call	?clear@?$vector@DV?$allocator@D@std@@@std@@QAEXXZ ; std::vector<char,std::allocator<char> >::clear
	jmp	$LN9@operator@2
$LN8@operator@2:

; 573  : 			else if (_Right.size() <= size())

	mov	ecx, DWORD PTR __Right$[ebp]
	call	?size@?$vector@DV?$allocator@D@std@@@std@@QBEIXZ ; std::vector<char,std::allocator<char> >::size
	mov	esi, eax
	mov	ecx, DWORD PTR _this$[ebp]
	call	?size@?$vector@DV?$allocator@D@std@@@std@@QBEIXZ ; std::vector<char,std::allocator<char> >::size
	cmp	esi, eax
	ja	SHORT $LN6@operator@2

; 574  : 				{	// enough elements, copy new and destroy old
; 575  : 				pointer _Ptr = _STDEXT unchecked_copy(_Right._Myfirst, _Right._Mylast,
; 576  : 					_Myfirst);	// copy new

	mov	ecx, DWORD PTR _this$[ebp]
	mov	edx, DWORD PTR [ecx+12]
	push	edx
	mov	eax, DWORD PTR __Right$[ebp]
	mov	ecx, DWORD PTR [eax+16]
	push	ecx
	mov	edx, DWORD PTR __Right$[ebp]
	mov	eax, DWORD PTR [edx+12]
	push	eax
	call	??$unchecked_copy@PADPAD@stdext@@YAPADPAD00@Z ; stdext::unchecked_copy<char *,char *>
	add	esp, 12					; 0000000cH
	mov	DWORD PTR __Ptr$61160[ebp], eax

; 577  : 				_Destroy(_Ptr, _Mylast);	// destroy old

	mov	ecx, DWORD PTR _this$[ebp]
	mov	edx, DWORD PTR [ecx+16]
	push	edx
	mov	eax, DWORD PTR __Ptr$61160[ebp]
	push	eax
	mov	ecx, DWORD PTR _this$[ebp]
	call	?_Destroy@?$vector@DV?$allocator@D@std@@@std@@IAEXPAD0@Z ; std::vector<char,std::allocator<char> >::_Destroy

; 578  : 				_Mylast = _Myfirst + _Right.size();

	mov	ecx, DWORD PTR __Right$[ebp]
	call	?size@?$vector@DV?$allocator@D@std@@@std@@QBEIXZ ; std::vector<char,std::allocator<char> >::size
	mov	ecx, DWORD PTR _this$[ebp]
	add	eax, DWORD PTR [ecx+12]
	mov	edx, DWORD PTR _this$[ebp]
	mov	DWORD PTR [edx+16], eax
	jmp	$LN9@operator@2
$LN6@operator@2:

; 579  : 				}
; 580  : 			else if (_Right.size() <= capacity())

	mov	ecx, DWORD PTR __Right$[ebp]
	call	?size@?$vector@DV?$allocator@D@std@@@std@@QBEIXZ ; std::vector<char,std::allocator<char> >::size
	mov	esi, eax
	mov	ecx, DWORD PTR _this$[ebp]
	call	?capacity@?$vector@DV?$allocator@D@std@@@std@@QBEIXZ ; std::vector<char,std::allocator<char> >::capacity
	cmp	esi, eax
	ja	SHORT $LN4@operator@2

; 581  : 				{	// enough room, copy and construct new
; 582  : 				pointer _Ptr = _Right._Myfirst + size();

	mov	ecx, DWORD PTR _this$[ebp]
	call	?size@?$vector@DV?$allocator@D@std@@@std@@QBEIXZ ; std::vector<char,std::allocator<char> >::size
	mov	ecx, DWORD PTR __Right$[ebp]
	add	eax, DWORD PTR [ecx+12]
	mov	DWORD PTR __Ptr$61170[ebp], eax

; 583  : 				_STDEXT unchecked_copy(_Right._Myfirst, _Ptr, _Myfirst);

	mov	edx, DWORD PTR _this$[ebp]
	mov	eax, DWORD PTR [edx+12]
	push	eax
	mov	ecx, DWORD PTR __Ptr$61170[ebp]
	push	ecx
	mov	edx, DWORD PTR __Right$[ebp]
	mov	eax, DWORD PTR [edx+12]
	push	eax
	call	??$unchecked_copy@PADPAD@stdext@@YAPADPAD00@Z ; stdext::unchecked_copy<char *,char *>
	add	esp, 12					; 0000000cH

; 584  : 				_Mylast = _Ucopy(_Ptr, _Right._Mylast, _Mylast);

	mov	ecx, DWORD PTR _this$[ebp]
	mov	edx, DWORD PTR [ecx+16]
	push	edx
	mov	eax, DWORD PTR __Right$[ebp]
	mov	ecx, DWORD PTR [eax+16]
	push	ecx
	mov	edx, DWORD PTR __Ptr$61170[ebp]
	push	edx
	mov	ecx, DWORD PTR _this$[ebp]
	call	??$_Ucopy@PAD@?$vector@DV?$allocator@D@std@@@std@@IAEPADPAD00@Z ; std::vector<char,std::allocator<char> >::_Ucopy<char *>
	mov	ecx, DWORD PTR _this$[ebp]
	mov	DWORD PTR [ecx+16], eax

; 585  : 				}
; 586  : 			else

	jmp	SHORT $LN9@operator@2
$LN4@operator@2:

; 587  : 				{	// not enough room, allocate new array and construct new
; 588  : 				if (_Myfirst != 0)

	mov	edx, DWORD PTR _this$[ebp]
	cmp	DWORD PTR [edx+12], 0
	je	SHORT $LN2@operator@2

; 589  : 					{	// discard old array
; 590  : 					_Destroy(_Myfirst, _Mylast);

	mov	eax, DWORD PTR _this$[ebp]
	mov	ecx, DWORD PTR [eax+16]
	push	ecx
	mov	edx, DWORD PTR _this$[ebp]
	mov	eax, DWORD PTR [edx+12]
	push	eax
	mov	ecx, DWORD PTR _this$[ebp]
	call	?_Destroy@?$vector@DV?$allocator@D@std@@@std@@IAEXPAD0@Z ; std::vector<char,std::allocator<char> >::_Destroy

; 591  : 					this->_Alval.deallocate(_Myfirst, _Myend - _Myfirst);

	mov	ecx, DWORD PTR _this$[ebp]
	mov	edx, DWORD PTR _this$[ebp]
	mov	eax, DWORD PTR [ecx+20]
	sub	eax, DWORD PTR [edx+12]
	push	eax
	mov	ecx, DWORD PTR _this$[ebp]
	mov	edx, DWORD PTR [ecx+12]
	push	edx
	mov	ecx, DWORD PTR _this$[ebp]
	add	ecx, 8
	call	DWORD PTR __imp_?deallocate@?$allocator@D@std@@QAEXPADI@Z
$LN2@operator@2:

; 592  : 					}
; 593  : 				if (_Buy(_Right.size()))

	mov	ecx, DWORD PTR __Right$[ebp]
	call	?size@?$vector@DV?$allocator@D@std@@@std@@QBEIXZ ; std::vector<char,std::allocator<char> >::size
	push	eax
	mov	ecx, DWORD PTR _this$[ebp]
	call	?_Buy@?$vector@DV?$allocator@D@std@@@std@@IAE_NI@Z ; std::vector<char,std::allocator<char> >::_Buy
	movzx	eax, al
	test	eax, eax
	je	SHORT $LN9@operator@2

; 594  : 					_Mylast = _Ucopy(_Right._Myfirst, _Right._Mylast,
; 595  : 						_Myfirst);

	mov	ecx, DWORD PTR _this$[ebp]
	mov	edx, DWORD PTR [ecx+12]
	push	edx
	mov	eax, DWORD PTR __Right$[ebp]
	mov	ecx, DWORD PTR [eax+16]
	push	ecx
	mov	edx, DWORD PTR __Right$[ebp]
	mov	eax, DWORD PTR [edx+12]
	push	eax
	mov	ecx, DWORD PTR _this$[ebp]
	call	??$_Ucopy@PAD@?$vector@DV?$allocator@D@std@@@std@@IAEPADPAD00@Z ; std::vector<char,std::allocator<char> >::_Ucopy<char *>
	mov	ecx, DWORD PTR _this$[ebp]
	mov	DWORD PTR [ecx+16], eax
$LN9@operator@2:

; 596  : 				}
; 597  : 			}
; 598  : 		return (*this);

	mov	eax, DWORD PTR _this$[ebp]

; 599  : 		}

	pop	esi
	mov	esp, ebp
	pop	ebp
	ret	4
??4?$vector@DV?$allocator@D@std@@@std@@QAEAAV01@ABV01@@Z ENDP ; std::vector<char,std::allocator<char> >::operator=
_TEXT	ENDS
EXTRN	__imp___invalid_parameter_noinfo:PROC
; Function compile flags: /Odtp
;	COMDAT ??A?$vector@DV?$allocator@D@std@@@std@@QAEAADI@Z
_TEXT	SEGMENT
_this$ = -4						; size = 4
__Pos$ = 8						; size = 4
??A?$vector@DV?$allocator@D@std@@@std@@QAEAADI@Z PROC	; std::vector<char,std::allocator<char> >::operator[], COMDAT
; _this$ = ecx

; 774  : 		{	// subscript mutable sequence

	push	ebp
	mov	ebp, esp
	push	ecx
	mov	DWORD PTR _this$[ebp], ecx

; 775  : 
; 776  :  #if _HAS_ITERATOR_DEBUGGING
; 777  : 		if (size() <= _Pos)
; 778  : 			{
; 779  : 			_DEBUG_ERROR("vector subscript out of range");
; 780  : 			_SCL_SECURE_OUT_OF_RANGE;
; 781  : 			}
; 782  :  #endif /* _HAS_ITERATOR_DEBUGGING */
; 783  : 		_SCL_SECURE_VALIDATE_RANGE(_Pos < size());

	mov	ecx, DWORD PTR _this$[ebp]
	call	?size@?$vector@DV?$allocator@D@std@@@std@@QBEIXZ ; std::vector<char,std::allocator<char> >::size
	cmp	DWORD PTR __Pos$[ebp], eax
	jb	SHORT $LN1@operator@3
	call	DWORD PTR __imp___invalid_parameter_noinfo
$LN1@operator@3:

; 784  : 
; 785  : 		return (*(_Myfirst + _Pos));

	mov	eax, DWORD PTR _this$[ebp]
	mov	eax, DWORD PTR [eax+12]
	add	eax, DWORD PTR __Pos$[ebp]

; 786  : 		}

	mov	esp, ebp
	pop	ebp
	ret	4
??A?$vector@DV?$allocator@D@std@@@std@@QAEAADI@Z ENDP	; std::vector<char,std::allocator<char> >::operator[]
_TEXT	ENDS
PUBLIC	??1?$_Vector_val@PAVSurfaceData@Ogre@@V?$allocator@PAVSurfaceData@Ogre@@@std@@@std@@QAE@XZ ; std::_Vector_val<Ogre::SurfaceData *,std::allocator<Ogre::SurfaceData *> >::~_Vector_val<Ogre::SurfaceData *,std::allocator<Ogre::SurfaceData *> >
PUBLIC	?_Tidy@?$vector@PAVSurfaceData@Ogre@@V?$allocator@PAVSurfaceData@Ogre@@@std@@@std@@IAEXXZ ; std::vector<Ogre::SurfaceData *,std::allocator<Ogre::SurfaceData *> >::_Tidy
PUBLIC	??$_Ucopy@V?$_Vector_const_iterator@PAVSurfaceData@Ogre@@V?$allocator@PAVSurfaceData@Ogre@@@std@@@std@@@?$vector@PAVSurfaceData@Ogre@@V?$allocator@PAVSurfaceData@Ogre@@@std@@@std@@IAEPAPAVSurfaceData@Ogre@@V?$_Vector_const_iterator@PAVSurfaceData@Ogre@@V?$allocator@PAVSurfaceData@Ogre@@@std@@@1@0PAPAV23@@Z ; std::vector<Ogre::SurfaceData *,std::allocator<Ogre::SurfaceData *> >::_Ucopy<std::_Vector_const_iterator<Ogre::SurfaceData *,std::allocator<Ogre::SurfaceData *> > >
PUBLIC	?begin@?$vector@PAVSurfaceData@Ogre@@V?$allocator@PAVSurfaceData@Ogre@@@std@@@std@@QBE?AV?$_Vector_const_iterator@PAVSurfaceData@Ogre@@V?$allocator@PAVSurfaceData@Ogre@@@std@@@2@XZ ; std::vector<Ogre::SurfaceData *,std::allocator<Ogre::SurfaceData *> >::begin
PUBLIC	?end@?$vector@PAVSurfaceData@Ogre@@V?$allocator@PAVSurfaceData@Ogre@@@std@@@std@@QBE?AV?$_Vector_const_iterator@PAVSurfaceData@Ogre@@V?$allocator@PAVSurfaceData@Ogre@@@std@@@2@XZ ; std::vector<Ogre::SurfaceData *,std::allocator<Ogre::SurfaceData *> >::end
PUBLIC	?_Buy@?$vector@PAVSurfaceData@Ogre@@V?$allocator@PAVSurfaceData@Ogre@@@std@@@std@@IAE_NI@Z ; std::vector<Ogre::SurfaceData *,std::allocator<Ogre::SurfaceData *> >::_Buy
PUBLIC	?size@?$vector@PAVSurfaceData@Ogre@@V?$allocator@PAVSurfaceData@Ogre@@@std@@@std@@QBEIXZ ; std::vector<Ogre::SurfaceData *,std::allocator<Ogre::SurfaceData *> >::size
PUBLIC	??0?$_Vector_val@PAVSurfaceData@Ogre@@V?$allocator@PAVSurfaceData@Ogre@@@std@@@std@@IAE@V?$allocator@PAVSurfaceData@Ogre@@@1@@Z ; std::_Vector_val<Ogre::SurfaceData *,std::allocator<Ogre::SurfaceData *> >::_Vector_val<Ogre::SurfaceData *,std::allocator<Ogre::SurfaceData *> >
PUBLIC	??0?$allocator@PAVSurfaceData@Ogre@@@std@@QAE@ABV01@@Z ; std::allocator<Ogre::SurfaceData *>::allocator<Ogre::SurfaceData *>
;	COMDAT xdata$x
xdata$x	SEGMENT
__catchsym$??0?$vector@PAVSurfaceData@Ogre@@V?$allocator@PAVSurfaceData@Ogre@@@std@@@std@@QAE@ABV01@@Z$3 DD 00H
	DD	00H
	DD	00H
	DD	FLAT:__catch$??0?$vector@PAVSurfaceData@Ogre@@V?$allocator@PAVSurfaceData@Ogre@@@std@@@std@@QAE@ABV01@@Z$0
__tryblocktable$??0?$vector@PAVSurfaceData@Ogre@@V?$allocator@PAVSurfaceData@Ogre@@@std@@@std@@QAE@ABV01@@Z DD 01H
	DD	01H
	DD	02H
	DD	01H
	DD	FLAT:__catchsym$??0?$vector@PAVSurfaceData@Ogre@@V?$allocator@PAVSurfaceData@Ogre@@@std@@@std@@QAE@ABV01@@Z$3
__unwindtable$??0?$vector@PAVSurfaceData@Ogre@@V?$allocator@PAVSurfaceData@Ogre@@@std@@@std@@QAE@ABV01@@Z DD 0ffffffffH
	DD	FLAT:__unwindfunclet$??0?$vector@PAVSurfaceData@Ogre@@V?$allocator@PAVSurfaceData@Ogre@@@std@@@std@@QAE@ABV01@@Z$2
	DD	00H
	DD	00H
	DD	00H
	DD	00H
__ehfuncinfo$??0?$vector@PAVSurfaceData@Ogre@@V?$allocator@PAVSurfaceData@Ogre@@@std@@@std@@QAE@ABV01@@Z DD 019930522H
	DD	03H
	DD	FLAT:__unwindtable$??0?$vector@PAVSurfaceData@Ogre@@V?$allocator@PAVSurfaceData@Ogre@@@std@@@std@@QAE@ABV01@@Z
	DD	01H
	DD	FLAT:__tryblocktable$??0?$vector@PAVSurfaceData@Ogre@@V?$allocator@PAVSurfaceData@Ogre@@@std@@@std@@QAE@ABV01@@Z
	DD	2 DUP(00H)
	DD	00H
	DD	00H
; Function compile flags: /Odtp
xdata$x	ENDS
;	COMDAT ??0?$vector@PAVSurfaceData@Ogre@@V?$allocator@PAVSurfaceData@Ogre@@@std@@@std@@QAE@ABV01@@Z
_TEXT	SEGMENT
_this$ = -40						; size = 4
$T68000 = -36						; size = 8
$T67999 = -28						; size = 8
$T67998 = -20						; size = 4
__$EHRec$ = -16						; size = 16
__Right$ = 8						; size = 4
??0?$vector@PAVSurfaceData@Ogre@@V?$allocator@PAVSurfaceData@Ogre@@@std@@@std@@QAE@ABV01@@Z PROC ; std::vector<Ogre::SurfaceData *,std::allocator<Ogre::SurfaceData *> >::vector<Ogre::SurfaceData *,std::allocator<Ogre::SurfaceData *> >, COMDAT
; _this$ = ecx

; 500  : 		{	// construct by copying _Right

	push	ebp
	mov	ebp, esp
	push	-1
	push	__ehhandler$??0?$vector@PAVSurfaceData@Ogre@@V?$allocator@PAVSurfaceData@Ogre@@@std@@@std@@QAE@ABV01@@Z
	mov	eax, DWORD PTR fs:0
	push	eax
	push	ecx
	sub	esp, 24					; 00000018H
	push	ebx
	push	esi
	push	edi
	mov	eax, DWORD PTR ___security_cookie
	xor	eax, ebp
	push	eax
	lea	eax, DWORD PTR __$EHRec$[ebp+4]
	mov	DWORD PTR fs:0, eax
	mov	DWORD PTR __$EHRec$[ebp], esp
	mov	DWORD PTR _this$[ebp], ecx
	mov	eax, DWORD PTR __Right$[ebp]
	add	eax, 8
	push	ecx
	mov	ecx, esp
	mov	DWORD PTR $T67998[ebp], esp
	push	eax
	call	??0?$allocator@PAVSurfaceData@Ogre@@@std@@QAE@ABV01@@Z ; std::allocator<Ogre::SurfaceData *>::allocator<Ogre::SurfaceData *>
	mov	ecx, DWORD PTR _this$[ebp]
	call	??0?$_Vector_val@PAVSurfaceData@Ogre@@V?$allocator@PAVSurfaceData@Ogre@@@std@@@std@@IAE@V?$allocator@PAVSurfaceData@Ogre@@@1@@Z ; std::_Vector_val<Ogre::SurfaceData *,std::allocator<Ogre::SurfaceData *> >::_Vector_val<Ogre::SurfaceData *,std::allocator<Ogre::SurfaceData *> >
	mov	DWORD PTR __$EHRec$[ebp+12], 0

; 501  : 		if (_Buy(_Right.size()))

	mov	ecx, DWORD PTR __Right$[ebp]
	call	?size@?$vector@PAVSurfaceData@Ogre@@V?$allocator@PAVSurfaceData@Ogre@@@std@@@std@@QBEIXZ ; std::vector<Ogre::SurfaceData *,std::allocator<Ogre::SurfaceData *> >::size
	push	eax
	mov	ecx, DWORD PTR _this$[ebp]
	call	?_Buy@?$vector@PAVSurfaceData@Ogre@@V?$allocator@PAVSurfaceData@Ogre@@@std@@@std@@IAE_NI@Z ; std::vector<Ogre::SurfaceData *,std::allocator<Ogre::SurfaceData *> >::_Buy
	movzx	ecx, al
	test	ecx, ecx
	je	SHORT $LN3@vector@19

; 502  : 			_TRY_BEGIN

	mov	BYTE PTR __$EHRec$[ebp+12], 1

; 503  : 			_Mylast = _Ucopy(_Right.begin(), _Right.end(), _Myfirst);

	mov	edx, DWORD PTR _this$[ebp]
	mov	eax, DWORD PTR [edx+12]
	push	eax
	lea	ecx, DWORD PTR $T67999[ebp]
	push	ecx
	mov	ecx, DWORD PTR __Right$[ebp]
	call	?end@?$vector@PAVSurfaceData@Ogre@@V?$allocator@PAVSurfaceData@Ogre@@@std@@@std@@QBE?AV?$_Vector_const_iterator@PAVSurfaceData@Ogre@@V?$allocator@PAVSurfaceData@Ogre@@@std@@@2@XZ ; std::vector<Ogre::SurfaceData *,std::allocator<Ogre::SurfaceData *> >::end
	mov	edx, DWORD PTR [eax+4]
	push	edx
	mov	eax, DWORD PTR [eax]
	push	eax
	lea	ecx, DWORD PTR $T68000[ebp]
	push	ecx
	mov	ecx, DWORD PTR __Right$[ebp]
	call	?begin@?$vector@PAVSurfaceData@Ogre@@V?$allocator@PAVSurfaceData@Ogre@@@std@@@std@@QBE?AV?$_Vector_const_iterator@PAVSurfaceData@Ogre@@V?$allocator@PAVSurfaceData@Ogre@@@std@@@2@XZ ; std::vector<Ogre::SurfaceData *,std::allocator<Ogre::SurfaceData *> >::begin
	mov	edx, DWORD PTR [eax+4]
	push	edx
	mov	eax, DWORD PTR [eax]
	push	eax
	mov	ecx, DWORD PTR _this$[ebp]
	call	??$_Ucopy@V?$_Vector_const_iterator@PAVSurfaceData@Ogre@@V?$allocator@PAVSurfaceData@Ogre@@@std@@@std@@@?$vector@PAVSurfaceData@Ogre@@V?$allocator@PAVSurfaceData@Ogre@@@std@@@std@@IAEPAPAVSurfaceData@Ogre@@V?$_Vector_const_iterator@PAVSurfaceData@Ogre@@V?$allocator@PAVSurfaceData@Ogre@@@std@@@1@0PAPAV23@@Z ; std::vector<Ogre::SurfaceData *,std::allocator<Ogre::SurfaceData *> >::_Ucopy<std::_Vector_const_iterator<Ogre::SurfaceData *,std::allocator<Ogre::SurfaceData *> > >
	mov	ecx, DWORD PTR _this$[ebp]
	mov	DWORD PTR [ecx+16], eax
	jmp	SHORT $LN5@vector@19
__catch$??0?$vector@PAVSurfaceData@Ogre@@V?$allocator@PAVSurfaceData@Ogre@@@std@@@std@@QAE@ABV01@@Z$0:

; 504  : 			_CATCH_ALL
; 505  : 			_Tidy();

	mov	ecx, DWORD PTR _this$[ebp]
	call	?_Tidy@?$vector@PAVSurfaceData@Ogre@@V?$allocator@PAVSurfaceData@Ogre@@@std@@@std@@IAEXXZ ; std::vector<Ogre::SurfaceData *,std::allocator<Ogre::SurfaceData *> >::_Tidy

; 506  : 			_RERAISE;

	push	0
	push	0
	call	__CxxThrowException@8

; 507  : 			_CATCH_END

	mov	DWORD PTR __$EHRec$[ebp+12], 0
	mov	eax, $LN3@vector@19
	ret	0
$LN5@vector@19:
	mov	DWORD PTR __$EHRec$[ebp+12], 0
$LN3@vector@19:

; 508  : 		}

	mov	DWORD PTR __$EHRec$[ebp+12], -1
	mov	eax, DWORD PTR _this$[ebp]
$LN4@vector@19:
	mov	ecx, DWORD PTR __$EHRec$[ebp+4]
	mov	DWORD PTR fs:0, ecx
	pop	ecx
	pop	edi
	pop	esi
	pop	ebx
	mov	esp, ebp
	pop	ebp
	ret	4
_TEXT	ENDS
;	COMDAT text$x
text$x	SEGMENT
__unwindfunclet$??0?$vector@PAVSurfaceData@Ogre@@V?$allocator@PAVSurfaceData@Ogre@@@std@@@std@@QAE@ABV01@@Z$2:
	mov	ecx, DWORD PTR _this$[ebp]
	jmp	??1?$_Vector_val@PAVSurfaceData@Ogre@@V?$allocator@PAVSurfaceData@Ogre@@@std@@@std@@QAE@XZ
__ehhandler$??0?$vector@PAVSurfaceData@Ogre@@V?$allocator@PAVSurfaceData@Ogre@@@std@@@std@@QAE@ABV01@@Z:
	mov	edx, DWORD PTR [esp+8]
	lea	eax, DWORD PTR [edx+12]
	mov	ecx, DWORD PTR [edx-44]
	xor	ecx, eax
	call	@__security_check_cookie@4
	mov	eax, OFFSET __ehfuncinfo$??0?$vector@PAVSurfaceData@Ogre@@V?$allocator@PAVSurfaceData@Ogre@@@std@@@std@@QAE@ABV01@@Z
	jmp	___CxxFrameHandler3
text$x	ENDS
??0?$vector@PAVSurfaceData@Ogre@@V?$allocator@PAVSurfaceData@Ogre@@@std@@@std@@QAE@ABV01@@Z ENDP ; std::vector<Ogre::SurfaceData *,std::allocator<Ogre::SurfaceData *> >::vector<Ogre::SurfaceData *,std::allocator<Ogre::SurfaceData *> >
;	COMDAT xdata$x
xdata$x	SEGMENT
__unwindtable$??1?$vector@PAVSurfaceData@Ogre@@V?$allocator@PAVSurfaceData@Ogre@@@std@@@std@@QAE@XZ DD 0ffffffffH
	DD	FLAT:__unwindfunclet$??1?$vector@PAVSurfaceData@Ogre@@V?$allocator@PAVSurfaceData@Ogre@@@std@@@std@@QAE@XZ$0
__ehfuncinfo$??1?$vector@PAVSurfaceData@Ogre@@V?$allocator@PAVSurfaceData@Ogre@@@std@@@std@@QAE@XZ DD 019930522H
	DD	01H
	DD	FLAT:__unwindtable$??1?$vector@PAVSurfaceData@Ogre@@V?$allocator@PAVSurfaceData@Ogre@@@std@@@std@@QAE@XZ
	DD	2 DUP(00H)
	DD	2 DUP(00H)
	DD	00H
	DD	00H
; Function compile flags: /Odtp
xdata$x	ENDS
;	COMDAT ??1?$vector@PAVSurfaceData@Ogre@@V?$allocator@PAVSurfaceData@Ogre@@@std@@@std@@QAE@XZ
_TEXT	SEGMENT
_this$ = -16						; size = 4
__$EHRec$ = -12						; size = 12
??1?$vector@PAVSurfaceData@Ogre@@V?$allocator@PAVSurfaceData@Ogre@@@std@@@std@@QAE@XZ PROC ; std::vector<Ogre::SurfaceData *,std::allocator<Ogre::SurfaceData *> >::~vector<Ogre::SurfaceData *,std::allocator<Ogre::SurfaceData *> >, COMDAT
; _this$ = ecx

; 558  : 		{	// destroy the object

	push	ebp
	mov	ebp, esp
	push	-1
	push	__ehhandler$??1?$vector@PAVSurfaceData@Ogre@@V?$allocator@PAVSurfaceData@Ogre@@@std@@@std@@QAE@XZ
	mov	eax, DWORD PTR fs:0
	push	eax
	push	ecx
	mov	eax, DWORD PTR ___security_cookie
	xor	eax, ebp
	push	eax
	lea	eax, DWORD PTR __$EHRec$[ebp]
	mov	DWORD PTR fs:0, eax
	mov	DWORD PTR _this$[ebp], ecx
	mov	DWORD PTR __$EHRec$[ebp+8], 0

; 559  : 		_Tidy();

	mov	ecx, DWORD PTR _this$[ebp]
	call	?_Tidy@?$vector@PAVSurfaceData@Ogre@@V?$allocator@PAVSurfaceData@Ogre@@@std@@@std@@IAEXXZ ; std::vector<Ogre::SurfaceData *,std::allocator<Ogre::SurfaceData *> >::_Tidy

; 560  : 		}

	mov	DWORD PTR __$EHRec$[ebp+8], -1
	mov	ecx, DWORD PTR _this$[ebp]
	call	??1?$_Vector_val@PAVSurfaceData@Ogre@@V?$allocator@PAVSurfaceData@Ogre@@@std@@@std@@QAE@XZ
	mov	ecx, DWORD PTR __$EHRec$[ebp]
	mov	DWORD PTR fs:0, ecx
	pop	ecx
	mov	esp, ebp
	pop	ebp
	ret	0
_TEXT	ENDS
;	COMDAT text$x
text$x	SEGMENT
__unwindfunclet$??1?$vector@PAVSurfaceData@Ogre@@V?$allocator@PAVSurfaceData@Ogre@@@std@@@std@@QAE@XZ$0:
	mov	ecx, DWORD PTR _this$[ebp]
	jmp	??1?$_Vector_val@PAVSurfaceData@Ogre@@V?$allocator@PAVSurfaceData@Ogre@@@std@@@std@@QAE@XZ
__ehhandler$??1?$vector@PAVSurfaceData@Ogre@@V?$allocator@PAVSurfaceData@Ogre@@@std@@@std@@QAE@XZ:
	mov	edx, DWORD PTR [esp+8]
	lea	eax, DWORD PTR [edx+12]
	mov	ecx, DWORD PTR [edx-8]
	xor	ecx, eax
	call	@__security_check_cookie@4
	mov	eax, OFFSET __ehfuncinfo$??1?$vector@PAVSurfaceData@Ogre@@V?$allocator@PAVSurfaceData@Ogre@@@std@@@std@@QAE@XZ
	jmp	___CxxFrameHandler3
text$x	ENDS
??1?$vector@PAVSurfaceData@Ogre@@V?$allocator@PAVSurfaceData@Ogre@@@std@@@std@@QAE@XZ ENDP ; std::vector<Ogre::SurfaceData *,std::allocator<Ogre::SurfaceData *> >::~vector<Ogre::SurfaceData *,std::allocator<Ogre::SurfaceData *> >
PUBLIC	?deallocate@?$allocator@PAVSurfaceData@Ogre@@@std@@QAEXPAPAVSurfaceData@Ogre@@I@Z ; std::allocator<Ogre::SurfaceData *>::deallocate
PUBLIC	??$_Ucopy@PAPAVSurfaceData@Ogre@@@?$vector@PAVSurfaceData@Ogre@@V?$allocator@PAVSurfaceData@Ogre@@@std@@@std@@IAEPAPAVSurfaceData@Ogre@@PAPAV23@00@Z ; std::vector<Ogre::SurfaceData *,std::allocator<Ogre::SurfaceData *> >::_Ucopy<Ogre::SurfaceData * *>
PUBLIC	?capacity@?$vector@PAVSurfaceData@Ogre@@V?$allocator@PAVSurfaceData@Ogre@@@std@@@std@@QBEIXZ ; std::vector<Ogre::SurfaceData *,std::allocator<Ogre::SurfaceData *> >::capacity
PUBLIC	?_Destroy@?$vector@PAVSurfaceData@Ogre@@V?$allocator@PAVSurfaceData@Ogre@@@std@@@std@@IAEXPAPAVSurfaceData@Ogre@@0@Z ; std::vector<Ogre::SurfaceData *,std::allocator<Ogre::SurfaceData *> >::_Destroy
PUBLIC	??$unchecked_copy@PAPAVSurfaceData@Ogre@@PAPAV12@@stdext@@YAPAPAVSurfaceData@Ogre@@PAPAV12@00@Z ; stdext::unchecked_copy<Ogre::SurfaceData * *,Ogre::SurfaceData * *>
PUBLIC	?clear@?$vector@PAVSurfaceData@Ogre@@V?$allocator@PAVSurfaceData@Ogre@@@std@@@std@@QAEXXZ ; std::vector<Ogre::SurfaceData *,std::allocator<Ogre::SurfaceData *> >::clear
; Function compile flags: /Odtp
;	COMDAT ??4?$vector@PAVSurfaceData@Ogre@@V?$allocator@PAVSurfaceData@Ogre@@@std@@@std@@QAEAAV01@ABV01@@Z
_TEXT	SEGMENT
_this$ = -12						; size = 4
__Ptr$61328 = -8					; size = 4
__Ptr$61318 = -4					; size = 4
__Right$ = 8						; size = 4
??4?$vector@PAVSurfaceData@Ogre@@V?$allocator@PAVSurfaceData@Ogre@@@std@@@std@@QAEAAV01@ABV01@@Z PROC ; std::vector<Ogre::SurfaceData *,std::allocator<Ogre::SurfaceData *> >::operator=, COMDAT
; _this$ = ecx

; 563  : 		{	// assign _Right

	push	ebp
	mov	ebp, esp
	sub	esp, 12					; 0000000cH
	push	esi
	mov	DWORD PTR _this$[ebp], ecx

; 564  : 		if (this != &_Right)

	mov	eax, DWORD PTR _this$[ebp]
	cmp	eax, DWORD PTR __Right$[ebp]
	je	$LN9@operator@4

; 565  : 			{	// worth doing
; 566  : 
; 567  :  #if _HAS_ITERATOR_DEBUGGING
; 568  : 			this->_Orphan_all();
; 569  :  #endif /* _HAS_ITERATOR_DEBUGGING */
; 570  : 
; 571  : 			if (_Right.size() == 0)

	mov	ecx, DWORD PTR __Right$[ebp]
	call	?size@?$vector@PAVSurfaceData@Ogre@@V?$allocator@PAVSurfaceData@Ogre@@@std@@@std@@QBEIXZ ; std::vector<Ogre::SurfaceData *,std::allocator<Ogre::SurfaceData *> >::size
	test	eax, eax
	jne	SHORT $LN8@operator@4

; 572  : 				clear();	// new sequence empty, erase existing sequence

	mov	ecx, DWORD PTR _this$[ebp]
	call	?clear@?$vector@PAVSurfaceData@Ogre@@V?$allocator@PAVSurfaceData@Ogre@@@std@@@std@@QAEXXZ ; std::vector<Ogre::SurfaceData *,std::allocator<Ogre::SurfaceData *> >::clear
	jmp	$LN9@operator@4
$LN8@operator@4:

; 573  : 			else if (_Right.size() <= size())

	mov	ecx, DWORD PTR __Right$[ebp]
	call	?size@?$vector@PAVSurfaceData@Ogre@@V?$allocator@PAVSurfaceData@Ogre@@@std@@@std@@QBEIXZ ; std::vector<Ogre::SurfaceData *,std::allocator<Ogre::SurfaceData *> >::size
	mov	esi, eax
	mov	ecx, DWORD PTR _this$[ebp]
	call	?size@?$vector@PAVSurfaceData@Ogre@@V?$allocator@PAVSurfaceData@Ogre@@@std@@@std@@QBEIXZ ; std::vector<Ogre::SurfaceData *,std::allocator<Ogre::SurfaceData *> >::size
	cmp	esi, eax
	ja	SHORT $LN6@operator@4

; 574  : 				{	// enough elements, copy new and destroy old
; 575  : 				pointer _Ptr = _STDEXT unchecked_copy(_Right._Myfirst, _Right._Mylast,
; 576  : 					_Myfirst);	// copy new

	mov	ecx, DWORD PTR _this$[ebp]
	mov	edx, DWORD PTR [ecx+12]
	push	edx
	mov	eax, DWORD PTR __Right$[ebp]
	mov	ecx, DWORD PTR [eax+16]
	push	ecx
	mov	edx, DWORD PTR __Right$[ebp]
	mov	eax, DWORD PTR [edx+12]
	push	eax
	call	??$unchecked_copy@PAPAVSurfaceData@Ogre@@PAPAV12@@stdext@@YAPAPAVSurfaceData@Ogre@@PAPAV12@00@Z ; stdext::unchecked_copy<Ogre::SurfaceData * *,Ogre::SurfaceData * *>
	add	esp, 12					; 0000000cH
	mov	DWORD PTR __Ptr$61318[ebp], eax

; 577  : 				_Destroy(_Ptr, _Mylast);	// destroy old

	mov	ecx, DWORD PTR _this$[ebp]
	mov	edx, DWORD PTR [ecx+16]
	push	edx
	mov	eax, DWORD PTR __Ptr$61318[ebp]
	push	eax
	mov	ecx, DWORD PTR _this$[ebp]
	call	?_Destroy@?$vector@PAVSurfaceData@Ogre@@V?$allocator@PAVSurfaceData@Ogre@@@std@@@std@@IAEXPAPAVSurfaceData@Ogre@@0@Z ; std::vector<Ogre::SurfaceData *,std::allocator<Ogre::SurfaceData *> >::_Destroy

; 578  : 				_Mylast = _Myfirst + _Right.size();

	mov	ecx, DWORD PTR __Right$[ebp]
	call	?size@?$vector@PAVSurfaceData@Ogre@@V?$allocator@PAVSurfaceData@Ogre@@@std@@@std@@QBEIXZ ; std::vector<Ogre::SurfaceData *,std::allocator<Ogre::SurfaceData *> >::size
	mov	ecx, DWORD PTR _this$[ebp]
	mov	edx, DWORD PTR [ecx+12]
	lea	eax, DWORD PTR [edx+eax*4]
	mov	ecx, DWORD PTR _this$[ebp]
	mov	DWORD PTR [ecx+16], eax
	jmp	$LN9@operator@4
$LN6@operator@4:

; 579  : 				}
; 580  : 			else if (_Right.size() <= capacity())

	mov	ecx, DWORD PTR __Right$[ebp]
	call	?size@?$vector@PAVSurfaceData@Ogre@@V?$allocator@PAVSurfaceData@Ogre@@@std@@@std@@QBEIXZ ; std::vector<Ogre::SurfaceData *,std::allocator<Ogre::SurfaceData *> >::size
	mov	esi, eax
	mov	ecx, DWORD PTR _this$[ebp]
	call	?capacity@?$vector@PAVSurfaceData@Ogre@@V?$allocator@PAVSurfaceData@Ogre@@@std@@@std@@QBEIXZ ; std::vector<Ogre::SurfaceData *,std::allocator<Ogre::SurfaceData *> >::capacity
	cmp	esi, eax
	ja	SHORT $LN4@operator@4

; 581  : 				{	// enough room, copy and construct new
; 582  : 				pointer _Ptr = _Right._Myfirst + size();

	mov	ecx, DWORD PTR _this$[ebp]
	call	?size@?$vector@PAVSurfaceData@Ogre@@V?$allocator@PAVSurfaceData@Ogre@@@std@@@std@@QBEIXZ ; std::vector<Ogre::SurfaceData *,std::allocator<Ogre::SurfaceData *> >::size
	mov	edx, DWORD PTR __Right$[ebp]
	mov	ecx, DWORD PTR [edx+12]
	lea	edx, DWORD PTR [ecx+eax*4]
	mov	DWORD PTR __Ptr$61328[ebp], edx

; 583  : 				_STDEXT unchecked_copy(_Right._Myfirst, _Ptr, _Myfirst);

	mov	eax, DWORD PTR _this$[ebp]
	mov	ecx, DWORD PTR [eax+12]
	push	ecx
	mov	edx, DWORD PTR __Ptr$61328[ebp]
	push	edx
	mov	eax, DWORD PTR __Right$[ebp]
	mov	ecx, DWORD PTR [eax+12]
	push	ecx
	call	??$unchecked_copy@PAPAVSurfaceData@Ogre@@PAPAV12@@stdext@@YAPAPAVSurfaceData@Ogre@@PAPAV12@00@Z ; stdext::unchecked_copy<Ogre::SurfaceData * *,Ogre::SurfaceData * *>
	add	esp, 12					; 0000000cH

; 584  : 				_Mylast = _Ucopy(_Ptr, _Right._Mylast, _Mylast);

	mov	edx, DWORD PTR _this$[ebp]
	mov	eax, DWORD PTR [edx+16]
	push	eax
	mov	ecx, DWORD PTR __Right$[ebp]
	mov	edx, DWORD PTR [ecx+16]
	push	edx
	mov	eax, DWORD PTR __Ptr$61328[ebp]
	push	eax
	mov	ecx, DWORD PTR _this$[ebp]
	call	??$_Ucopy@PAPAVSurfaceData@Ogre@@@?$vector@PAVSurfaceData@Ogre@@V?$allocator@PAVSurfaceData@Ogre@@@std@@@std@@IAEPAPAVSurfaceData@Ogre@@PAPAV23@00@Z ; std::vector<Ogre::SurfaceData *,std::allocator<Ogre::SurfaceData *> >::_Ucopy<Ogre::SurfaceData * *>
	mov	ecx, DWORD PTR _this$[ebp]
	mov	DWORD PTR [ecx+16], eax

; 585  : 				}
; 586  : 			else

	jmp	SHORT $LN9@operator@4
$LN4@operator@4:

; 587  : 				{	// not enough room, allocate new array and construct new
; 588  : 				if (_Myfirst != 0)

	mov	edx, DWORD PTR _this$[ebp]
	cmp	DWORD PTR [edx+12], 0
	je	SHORT $LN2@operator@4

; 589  : 					{	// discard old array
; 590  : 					_Destroy(_Myfirst, _Mylast);

	mov	eax, DWORD PTR _this$[ebp]
	mov	ecx, DWORD PTR [eax+16]
	push	ecx
	mov	edx, DWORD PTR _this$[ebp]
	mov	eax, DWORD PTR [edx+12]
	push	eax
	mov	ecx, DWORD PTR _this$[ebp]
	call	?_Destroy@?$vector@PAVSurfaceData@Ogre@@V?$allocator@PAVSurfaceData@Ogre@@@std@@@std@@IAEXPAPAVSurfaceData@Ogre@@0@Z ; std::vector<Ogre::SurfaceData *,std::allocator<Ogre::SurfaceData *> >::_Destroy

; 591  : 					this->_Alval.deallocate(_Myfirst, _Myend - _Myfirst);

	mov	ecx, DWORD PTR _this$[ebp]
	mov	edx, DWORD PTR _this$[ebp]
	mov	eax, DWORD PTR [ecx+20]
	sub	eax, DWORD PTR [edx+12]
	sar	eax, 2
	push	eax
	mov	ecx, DWORD PTR _this$[ebp]
	mov	edx, DWORD PTR [ecx+12]
	push	edx
	mov	ecx, DWORD PTR _this$[ebp]
	add	ecx, 8
	call	?deallocate@?$allocator@PAVSurfaceData@Ogre@@@std@@QAEXPAPAVSurfaceData@Ogre@@I@Z ; std::allocator<Ogre::SurfaceData *>::deallocate
$LN2@operator@4:

; 592  : 					}
; 593  : 				if (_Buy(_Right.size()))

	mov	ecx, DWORD PTR __Right$[ebp]
	call	?size@?$vector@PAVSurfaceData@Ogre@@V?$allocator@PAVSurfaceData@Ogre@@@std@@@std@@QBEIXZ ; std::vector<Ogre::SurfaceData *,std::allocator<Ogre::SurfaceData *> >::size
	push	eax
	mov	ecx, DWORD PTR _this$[ebp]
	call	?_Buy@?$vector@PAVSurfaceData@Ogre@@V?$allocator@PAVSurfaceData@Ogre@@@std@@@std@@IAE_NI@Z ; std::vector<Ogre::SurfaceData *,std::allocator<Ogre::SurfaceData *> >::_Buy
	movzx	eax, al
	test	eax, eax
	je	SHORT $LN9@operator@4

; 594  : 					_Mylast = _Ucopy(_Right._Myfirst, _Right._Mylast,
; 595  : 						_Myfirst);

	mov	ecx, DWORD PTR _this$[ebp]
	mov	edx, DWORD PTR [ecx+12]
	push	edx
	mov	eax, DWORD PTR __Right$[ebp]
	mov	ecx, DWORD PTR [eax+16]
	push	ecx
	mov	edx, DWORD PTR __Right$[ebp]
	mov	eax, DWORD PTR [edx+12]
	push	eax
	mov	ecx, DWORD PTR _this$[ebp]
	call	??$_Ucopy@PAPAVSurfaceData@Ogre@@@?$vector@PAVSurfaceData@Ogre@@V?$allocator@PAVSurfaceData@Ogre@@@std@@@std@@IAEPAPAVSurfaceData@Ogre@@PAPAV23@00@Z ; std::vector<Ogre::SurfaceData *,std::allocator<Ogre::SurfaceData *> >::_Ucopy<Ogre::SurfaceData * *>
	mov	ecx, DWORD PTR _this$[ebp]
	mov	DWORD PTR [ecx+16], eax
$LN9@operator@4:

; 596  : 				}
; 597  : 			}
; 598  : 		return (*this);

	mov	eax, DWORD PTR _this$[ebp]

; 599  : 		}

	pop	esi
	mov	esp, ebp
	pop	ebp
	ret	4
??4?$vector@PAVSurfaceData@Ogre@@V?$allocator@PAVSurfaceData@Ogre@@@std@@@std@@QAEAAV01@ABV01@@Z ENDP ; std::vector<Ogre::SurfaceData *,std::allocator<Ogre::SurfaceData *> >::operator=
_TEXT	ENDS
PUBLIC	??1?$_Vector_val@VVector3@Ogre@@V?$allocator@VVector3@Ogre@@@std@@@std@@QAE@XZ ; std::_Vector_val<Ogre::Vector3,std::allocator<Ogre::Vector3> >::~_Vector_val<Ogre::Vector3,std::allocator<Ogre::Vector3> >
PUBLIC	?_Buy@?$vector@VVector3@Ogre@@V?$allocator@VVector3@Ogre@@@std@@@std@@IAE_NI@Z ; std::vector<Ogre::Vector3,std::allocator<Ogre::Vector3> >::_Buy
PUBLIC	??0?$_Vector_val@VVector3@Ogre@@V?$allocator@VVector3@Ogre@@@std@@@std@@IAE@V?$allocator@VVector3@Ogre@@@1@@Z ; std::_Vector_val<Ogre::Vector3,std::allocator<Ogre::Vector3> >::_Vector_val<Ogre::Vector3,std::allocator<Ogre::Vector3> >
PUBLIC	??0?$allocator@VVector3@Ogre@@@std@@QAE@XZ	; std::allocator<Ogre::Vector3>::allocator<Ogre::Vector3>
;	COMDAT xdata$x
xdata$x	SEGMENT
__unwindtable$??0?$vector@VVector3@Ogre@@V?$allocator@VVector3@Ogre@@@std@@@std@@QAE@XZ DD 0ffffffffH
	DD	FLAT:__unwindfunclet$??0?$vector@VVector3@Ogre@@V?$allocator@VVector3@Ogre@@@std@@@std@@QAE@XZ$0
__ehfuncinfo$??0?$vector@VVector3@Ogre@@V?$allocator@VVector3@Ogre@@@std@@@std@@QAE@XZ DD 019930522H
	DD	01H
	DD	FLAT:__unwindtable$??0?$vector@VVector3@Ogre@@V?$allocator@VVector3@Ogre@@@std@@@std@@QAE@XZ
	DD	2 DUP(00H)
	DD	2 DUP(00H)
	DD	00H
	DD	00H
; Function compile flags: /Odtp
xdata$x	ENDS
;	COMDAT ??0?$vector@VVector3@Ogre@@V?$allocator@VVector3@Ogre@@@std@@@std@@QAE@XZ
_TEXT	SEGMENT
_this$ = -20						; size = 4
$T68028 = -16						; size = 4
__$EHRec$ = -12						; size = 12
??0?$vector@VVector3@Ogre@@V?$allocator@VVector3@Ogre@@@std@@@std@@QAE@XZ PROC ; std::vector<Ogre::Vector3,std::allocator<Ogre::Vector3> >::vector<Ogre::Vector3,std::allocator<Ogre::Vector3> >, COMDAT
; _this$ = ecx

; 470  : 		{	// construct empty vector

	push	ebp
	mov	ebp, esp
	push	-1
	push	__ehhandler$??0?$vector@VVector3@Ogre@@V?$allocator@VVector3@Ogre@@@std@@@std@@QAE@XZ
	mov	eax, DWORD PTR fs:0
	push	eax
	sub	esp, 8
	mov	eax, DWORD PTR ___security_cookie
	xor	eax, ebp
	push	eax
	lea	eax, DWORD PTR __$EHRec$[ebp]
	mov	DWORD PTR fs:0, eax
	mov	DWORD PTR _this$[ebp], ecx
	push	ecx
	mov	ecx, esp
	mov	DWORD PTR $T68028[ebp], esp
	call	??0?$allocator@VVector3@Ogre@@@std@@QAE@XZ ; std::allocator<Ogre::Vector3>::allocator<Ogre::Vector3>
	mov	ecx, DWORD PTR _this$[ebp]
	call	??0?$_Vector_val@VVector3@Ogre@@V?$allocator@VVector3@Ogre@@@std@@@std@@IAE@V?$allocator@VVector3@Ogre@@@1@@Z ; std::_Vector_val<Ogre::Vector3,std::allocator<Ogre::Vector3> >::_Vector_val<Ogre::Vector3,std::allocator<Ogre::Vector3> >
	mov	DWORD PTR __$EHRec$[ebp+8], 0

; 471  : 		_Buy(0);

	push	0
	mov	ecx, DWORD PTR _this$[ebp]
	call	?_Buy@?$vector@VVector3@Ogre@@V?$allocator@VVector3@Ogre@@@std@@@std@@IAE_NI@Z ; std::vector<Ogre::Vector3,std::allocator<Ogre::Vector3> >::_Buy

; 472  : 		}

	mov	DWORD PTR __$EHRec$[ebp+8], -1
	mov	eax, DWORD PTR _this$[ebp]
	mov	ecx, DWORD PTR __$EHRec$[ebp]
	mov	DWORD PTR fs:0, ecx
	pop	ecx
	mov	esp, ebp
	pop	ebp
	ret	0
_TEXT	ENDS
;	COMDAT text$x
text$x	SEGMENT
__unwindfunclet$??0?$vector@VVector3@Ogre@@V?$allocator@VVector3@Ogre@@@std@@@std@@QAE@XZ$0:
	mov	ecx, DWORD PTR _this$[ebp]
	jmp	??1?$_Vector_val@VVector3@Ogre@@V?$allocator@VVector3@Ogre@@@std@@@std@@QAE@XZ
__ehhandler$??0?$vector@VVector3@Ogre@@V?$allocator@VVector3@Ogre@@@std@@@std@@QAE@XZ:
	mov	edx, DWORD PTR [esp+8]
	lea	eax, DWORD PTR [edx+12]
	mov	ecx, DWORD PTR [edx-12]
	xor	ecx, eax
	call	@__security_check_cookie@4
	mov	eax, OFFSET __ehfuncinfo$??0?$vector@VVector3@Ogre@@V?$allocator@VVector3@Ogre@@@std@@@std@@QAE@XZ
	jmp	___CxxFrameHandler3
text$x	ENDS
??0?$vector@VVector3@Ogre@@V?$allocator@VVector3@Ogre@@@std@@@std@@QAE@XZ ENDP ; std::vector<Ogre::Vector3,std::allocator<Ogre::Vector3> >::vector<Ogre::Vector3,std::allocator<Ogre::Vector3> >
PUBLIC	?_Tidy@?$vector@VVector3@Ogre@@V?$allocator@VVector3@Ogre@@@std@@@std@@IAEXXZ ; std::vector<Ogre::Vector3,std::allocator<Ogre::Vector3> >::_Tidy
PUBLIC	??$_Ucopy@V?$_Vector_const_iterator@VVector3@Ogre@@V?$allocator@VVector3@Ogre@@@std@@@std@@@?$vector@VVector3@Ogre@@V?$allocator@VVector3@Ogre@@@std@@@std@@IAEPAVVector3@Ogre@@V?$_Vector_const_iterator@VVector3@Ogre@@V?$allocator@VVector3@Ogre@@@std@@@1@0PAV23@@Z ; std::vector<Ogre::Vector3,std::allocator<Ogre::Vector3> >::_Ucopy<std::_Vector_const_iterator<Ogre::Vector3,std::allocator<Ogre::Vector3> > >
PUBLIC	?begin@?$vector@VVector3@Ogre@@V?$allocator@VVector3@Ogre@@@std@@@std@@QBE?AV?$_Vector_const_iterator@VVector3@Ogre@@V?$allocator@VVector3@Ogre@@@std@@@2@XZ ; std::vector<Ogre::Vector3,std::allocator<Ogre::Vector3> >::begin
PUBLIC	?end@?$vector@VVector3@Ogre@@V?$allocator@VVector3@Ogre@@@std@@@std@@QBE?AV?$_Vector_const_iterator@VVector3@Ogre@@V?$allocator@VVector3@Ogre@@@std@@@2@XZ ; std::vector<Ogre::Vector3,std::allocator<Ogre::Vector3> >::end
PUBLIC	?size@?$vector@VVector3@Ogre@@V?$allocator@VVector3@Ogre@@@std@@@std@@QBEIXZ ; std::vector<Ogre::Vector3,std::allocator<Ogre::Vector3> >::size
PUBLIC	??0?$allocator@VVector3@Ogre@@@std@@QAE@ABV01@@Z ; std::allocator<Ogre::Vector3>::allocator<Ogre::Vector3>
;	COMDAT xdata$x
xdata$x	SEGMENT
__catchsym$??0?$vector@VVector3@Ogre@@V?$allocator@VVector3@Ogre@@@std@@@std@@QAE@ABV01@@Z$3 DD 00H
	DD	00H
	DD	00H
	DD	FLAT:__catch$??0?$vector@VVector3@Ogre@@V?$allocator@VVector3@Ogre@@@std@@@std@@QAE@ABV01@@Z$0
__tryblocktable$??0?$vector@VVector3@Ogre@@V?$allocator@VVector3@Ogre@@@std@@@std@@QAE@ABV01@@Z DD 01H
	DD	01H
	DD	02H
	DD	01H
	DD	FLAT:__catchsym$??0?$vector@VVector3@Ogre@@V?$allocator@VVector3@Ogre@@@std@@@std@@QAE@ABV01@@Z$3
__unwindtable$??0?$vector@VVector3@Ogre@@V?$allocator@VVector3@Ogre@@@std@@@std@@QAE@ABV01@@Z DD 0ffffffffH
	DD	FLAT:__unwindfunclet$??0?$vector@VVector3@Ogre@@V?$allocator@VVector3@Ogre@@@std@@@std@@QAE@ABV01@@Z$2
	DD	00H
	DD	00H
	DD	00H
	DD	00H
__ehfuncinfo$??0?$vector@VVector3@Ogre@@V?$allocator@VVector3@Ogre@@@std@@@std@@QAE@ABV01@@Z DD 019930522H
	DD	03H
	DD	FLAT:__unwindtable$??0?$vector@VVector3@Ogre@@V?$allocator@VVector3@Ogre@@@std@@@std@@QAE@ABV01@@Z
	DD	01H
	DD	FLAT:__tryblocktable$??0?$vector@VVector3@Ogre@@V?$allocator@VVector3@Ogre@@@std@@@std@@QAE@ABV01@@Z
	DD	2 DUP(00H)
	DD	00H
	DD	00H
; Function compile flags: /Odtp
xdata$x	ENDS
;	COMDAT ??0?$vector@VVector3@Ogre@@V?$allocator@VVector3@Ogre@@@std@@@std@@QAE@ABV01@@Z
_TEXT	SEGMENT
_this$ = -40						; size = 4
$T68040 = -36						; size = 8
$T68039 = -28						; size = 8
$T68038 = -20						; size = 4
__$EHRec$ = -16						; size = 16
__Right$ = 8						; size = 4
??0?$vector@VVector3@Ogre@@V?$allocator@VVector3@Ogre@@@std@@@std@@QAE@ABV01@@Z PROC ; std::vector<Ogre::Vector3,std::allocator<Ogre::Vector3> >::vector<Ogre::Vector3,std::allocator<Ogre::Vector3> >, COMDAT
; _this$ = ecx

; 500  : 		{	// construct by copying _Right

	push	ebp
	mov	ebp, esp
	push	-1
	push	__ehhandler$??0?$vector@VVector3@Ogre@@V?$allocator@VVector3@Ogre@@@std@@@std@@QAE@ABV01@@Z
	mov	eax, DWORD PTR fs:0
	push	eax
	push	ecx
	sub	esp, 24					; 00000018H
	push	ebx
	push	esi
	push	edi
	mov	eax, DWORD PTR ___security_cookie
	xor	eax, ebp
	push	eax
	lea	eax, DWORD PTR __$EHRec$[ebp+4]
	mov	DWORD PTR fs:0, eax
	mov	DWORD PTR __$EHRec$[ebp], esp
	mov	DWORD PTR _this$[ebp], ecx
	mov	eax, DWORD PTR __Right$[ebp]
	add	eax, 8
	push	ecx
	mov	ecx, esp
	mov	DWORD PTR $T68038[ebp], esp
	push	eax
	call	??0?$allocator@VVector3@Ogre@@@std@@QAE@ABV01@@Z ; std::allocator<Ogre::Vector3>::allocator<Ogre::Vector3>
	mov	ecx, DWORD PTR _this$[ebp]
	call	??0?$_Vector_val@VVector3@Ogre@@V?$allocator@VVector3@Ogre@@@std@@@std@@IAE@V?$allocator@VVector3@Ogre@@@1@@Z ; std::_Vector_val<Ogre::Vector3,std::allocator<Ogre::Vector3> >::_Vector_val<Ogre::Vector3,std::allocator<Ogre::Vector3> >
	mov	DWORD PTR __$EHRec$[ebp+12], 0

; 501  : 		if (_Buy(_Right.size()))

	mov	ecx, DWORD PTR __Right$[ebp]
	call	?size@?$vector@VVector3@Ogre@@V?$allocator@VVector3@Ogre@@@std@@@std@@QBEIXZ ; std::vector<Ogre::Vector3,std::allocator<Ogre::Vector3> >::size
	push	eax
	mov	ecx, DWORD PTR _this$[ebp]
	call	?_Buy@?$vector@VVector3@Ogre@@V?$allocator@VVector3@Ogre@@@std@@@std@@IAE_NI@Z ; std::vector<Ogre::Vector3,std::allocator<Ogre::Vector3> >::_Buy
	movzx	ecx, al
	test	ecx, ecx
	je	SHORT $LN3@vector@20

; 502  : 			_TRY_BEGIN

	mov	BYTE PTR __$EHRec$[ebp+12], 1

; 503  : 			_Mylast = _Ucopy(_Right.begin(), _Right.end(), _Myfirst);

	mov	edx, DWORD PTR _this$[ebp]
	mov	eax, DWORD PTR [edx+12]
	push	eax
	lea	ecx, DWORD PTR $T68039[ebp]
	push	ecx
	mov	ecx, DWORD PTR __Right$[ebp]
	call	?end@?$vector@VVector3@Ogre@@V?$allocator@VVector3@Ogre@@@std@@@std@@QBE?AV?$_Vector_const_iterator@VVector3@Ogre@@V?$allocator@VVector3@Ogre@@@std@@@2@XZ ; std::vector<Ogre::Vector3,std::allocator<Ogre::Vector3> >::end
	mov	edx, DWORD PTR [eax+4]
	push	edx
	mov	eax, DWORD PTR [eax]
	push	eax
	lea	ecx, DWORD PTR $T68040[ebp]
	push	ecx
	mov	ecx, DWORD PTR __Right$[ebp]
	call	?begin@?$vector@VVector3@Ogre@@V?$allocator@VVector3@Ogre@@@std@@@std@@QBE?AV?$_Vector_const_iterator@VVector3@Ogre@@V?$allocator@VVector3@Ogre@@@std@@@2@XZ ; std::vector<Ogre::Vector3,std::allocator<Ogre::Vector3> >::begin
	mov	edx, DWORD PTR [eax+4]
	push	edx
	mov	eax, DWORD PTR [eax]
	push	eax
	mov	ecx, DWORD PTR _this$[ebp]
	call	??$_Ucopy@V?$_Vector_const_iterator@VVector3@Ogre@@V?$allocator@VVector3@Ogre@@@std@@@std@@@?$vector@VVector3@Ogre@@V?$allocator@VVector3@Ogre@@@std@@@std@@IAEPAVVector3@Ogre@@V?$_Vector_const_iterator@VVector3@Ogre@@V?$allocator@VVector3@Ogre@@@std@@@1@0PAV23@@Z ; std::vector<Ogre::Vector3,std::allocator<Ogre::Vector3> >::_Ucopy<std::_Vector_const_iterator<Ogre::Vector3,std::allocator<Ogre::Vector3> > >
	mov	ecx, DWORD PTR _this$[ebp]
	mov	DWORD PTR [ecx+16], eax
	jmp	SHORT $LN5@vector@20
__catch$??0?$vector@VVector3@Ogre@@V?$allocator@VVector3@Ogre@@@std@@@std@@QAE@ABV01@@Z$0:

; 504  : 			_CATCH_ALL
; 505  : 			_Tidy();

	mov	ecx, DWORD PTR _this$[ebp]
	call	?_Tidy@?$vector@VVector3@Ogre@@V?$allocator@VVector3@Ogre@@@std@@@std@@IAEXXZ ; std::vector<Ogre::Vector3,std::allocator<Ogre::Vector3> >::_Tidy

; 506  : 			_RERAISE;

	push	0
	push	0
	call	__CxxThrowException@8

; 507  : 			_CATCH_END

	mov	DWORD PTR __$EHRec$[ebp+12], 0
	mov	eax, $LN3@vector@20
	ret	0
$LN5@vector@20:
	mov	DWORD PTR __$EHRec$[ebp+12], 0
$LN3@vector@20:

; 508  : 		}

	mov	DWORD PTR __$EHRec$[ebp+12], -1
	mov	eax, DWORD PTR _this$[ebp]
$LN4@vector@20:
	mov	ecx, DWORD PTR __$EHRec$[ebp+4]
	mov	DWORD PTR fs:0, ecx
	pop	ecx
	pop	edi
	pop	esi
	pop	ebx
	mov	esp, ebp
	pop	ebp
	ret	4
_TEXT	ENDS
;	COMDAT text$x
text$x	SEGMENT
__unwindfunclet$??0?$vector@VVector3@Ogre@@V?$allocator@VVector3@Ogre@@@std@@@std@@QAE@ABV01@@Z$2:
	mov	ecx, DWORD PTR _this$[ebp]
	jmp	??1?$_Vector_val@VVector3@Ogre@@V?$allocator@VVector3@Ogre@@@std@@@std@@QAE@XZ
__ehhandler$??0?$vector@VVector3@Ogre@@V?$allocator@VVector3@Ogre@@@std@@@std@@QAE@ABV01@@Z:
	mov	edx, DWORD PTR [esp+8]
	lea	eax, DWORD PTR [edx+12]
	mov	ecx, DWORD PTR [edx-44]
	xor	ecx, eax
	call	@__security_check_cookie@4
	mov	eax, OFFSET __ehfuncinfo$??0?$vector@VVector3@Ogre@@V?$allocator@VVector3@Ogre@@@std@@@std@@QAE@ABV01@@Z
	jmp	___CxxFrameHandler3
text$x	ENDS
??0?$vector@VVector3@Ogre@@V?$allocator@VVector3@Ogre@@@std@@@std@@QAE@ABV01@@Z ENDP ; std::vector<Ogre::Vector3,std::allocator<Ogre::Vector3> >::vector<Ogre::Vector3,std::allocator<Ogre::Vector3> >
;	COMDAT xdata$x
xdata$x	SEGMENT
__unwindtable$??1?$vector@VVector3@Ogre@@V?$allocator@VVector3@Ogre@@@std@@@std@@QAE@XZ DD 0ffffffffH
	DD	FLAT:__unwindfunclet$??1?$vector@VVector3@Ogre@@V?$allocator@VVector3@Ogre@@@std@@@std@@QAE@XZ$0
__ehfuncinfo$??1?$vector@VVector3@Ogre@@V?$allocator@VVector3@Ogre@@@std@@@std@@QAE@XZ DD 019930522H
	DD	01H
	DD	FLAT:__unwindtable$??1?$vector@VVector3@Ogre@@V?$allocator@VVector3@Ogre@@@std@@@std@@QAE@XZ
	DD	2 DUP(00H)
	DD	2 DUP(00H)
	DD	00H
	DD	00H
; Function compile flags: /Odtp
xdata$x	ENDS
;	COMDAT ??1?$vector@VVector3@Ogre@@V?$allocator@VVector3@Ogre@@@std@@@std@@QAE@XZ
_TEXT	SEGMENT
_this$ = -16						; size = 4
__$EHRec$ = -12						; size = 12
??1?$vector@VVector3@Ogre@@V?$allocator@VVector3@Ogre@@@std@@@std@@QAE@XZ PROC ; std::vector<Ogre::Vector3,std::allocator<Ogre::Vector3> >::~vector<Ogre::Vector3,std::allocator<Ogre::Vector3> >, COMDAT
; _this$ = ecx

; 558  : 		{	// destroy the object

	push	ebp
	mov	ebp, esp
	push	-1
	push	__ehhandler$??1?$vector@VVector3@Ogre@@V?$allocator@VVector3@Ogre@@@std@@@std@@QAE@XZ
	mov	eax, DWORD PTR fs:0
	push	eax
	push	ecx
	mov	eax, DWORD PTR ___security_cookie
	xor	eax, ebp
	push	eax
	lea	eax, DWORD PTR __$EHRec$[ebp]
	mov	DWORD PTR fs:0, eax
	mov	DWORD PTR _this$[ebp], ecx
	mov	DWORD PTR __$EHRec$[ebp+8], 0

; 559  : 		_Tidy();

	mov	ecx, DWORD PTR _this$[ebp]
	call	?_Tidy@?$vector@VVector3@Ogre@@V?$allocator@VVector3@Ogre@@@std@@@std@@IAEXXZ ; std::vector<Ogre::Vector3,std::allocator<Ogre::Vector3> >::_Tidy

; 560  : 		}

	mov	DWORD PTR __$EHRec$[ebp+8], -1
	mov	ecx, DWORD PTR _this$[ebp]
	call	??1?$_Vector_val@VVector3@Ogre@@V?$allocator@VVector3@Ogre@@@std@@@std@@QAE@XZ
	mov	ecx, DWORD PTR __$EHRec$[ebp]
	mov	DWORD PTR fs:0, ecx
	pop	ecx
	mov	esp, ebp
	pop	ebp
	ret	0
_TEXT	ENDS
;	COMDAT text$x
text$x	SEGMENT
__unwindfunclet$??1?$vector@VVector3@Ogre@@V?$allocator@VVector3@Ogre@@@std@@@std@@QAE@XZ$0:
	mov	ecx, DWORD PTR _this$[ebp]
	jmp	??1?$_Vector_val@VVector3@Ogre@@V?$allocator@VVector3@Ogre@@@std@@@std@@QAE@XZ
__ehhandler$??1?$vector@VVector3@Ogre@@V?$allocator@VVector3@Ogre@@@std@@@std@@QAE@XZ:
	mov	edx, DWORD PTR [esp+8]
	lea	eax, DWORD PTR [edx+12]
	mov	ecx, DWORD PTR [edx-8]
	xor	ecx, eax
	call	@__security_check_cookie@4
	mov	eax, OFFSET __ehfuncinfo$??1?$vector@VVector3@Ogre@@V?$allocator@VVector3@Ogre@@@std@@@std@@QAE@XZ
	jmp	___CxxFrameHandler3
text$x	ENDS
??1?$vector@VVector3@Ogre@@V?$allocator@VVector3@Ogre@@@std@@@std@@QAE@XZ ENDP ; std::vector<Ogre::Vector3,std::allocator<Ogre::Vector3> >::~vector<Ogre::Vector3,std::allocator<Ogre::Vector3> >
PUBLIC	?deallocate@?$allocator@VVector3@Ogre@@@std@@QAEXPAVVector3@Ogre@@I@Z ; std::allocator<Ogre::Vector3>::deallocate
PUBLIC	??$_Ucopy@PAVVector3@Ogre@@@?$vector@VVector3@Ogre@@V?$allocator@VVector3@Ogre@@@std@@@std@@IAEPAVVector3@Ogre@@PAV23@00@Z ; std::vector<Ogre::Vector3,std::allocator<Ogre::Vector3> >::_Ucopy<Ogre::Vector3 *>
PUBLIC	?capacity@?$vector@VVector3@Ogre@@V?$allocator@VVector3@Ogre@@@std@@@std@@QBEIXZ ; std::vector<Ogre::Vector3,std::allocator<Ogre::Vector3> >::capacity
PUBLIC	?_Destroy@?$vector@VVector3@Ogre@@V?$allocator@VVector3@Ogre@@@std@@@std@@IAEXPAVVector3@Ogre@@0@Z ; std::vector<Ogre::Vector3,std::allocator<Ogre::Vector3> >::_Destroy
PUBLIC	??$unchecked_copy@PAVVector3@Ogre@@PAV12@@stdext@@YAPAVVector3@Ogre@@PAV12@00@Z ; stdext::unchecked_copy<Ogre::Vector3 *,Ogre::Vector3 *>
PUBLIC	?clear@?$vector@VVector3@Ogre@@V?$allocator@VVector3@Ogre@@@std@@@std@@QAEXXZ ; std::vector<Ogre::Vector3,std::allocator<Ogre::Vector3> >::clear
; Function compile flags: /Odtp
;	COMDAT ??4?$vector@VVector3@Ogre@@V?$allocator@VVector3@Ogre@@@std@@@std@@QAEAAV01@ABV01@@Z
_TEXT	SEGMENT
_this$ = -12						; size = 4
__Ptr$61487 = -8					; size = 4
__Ptr$61477 = -4					; size = 4
__Right$ = 8						; size = 4
??4?$vector@VVector3@Ogre@@V?$allocator@VVector3@Ogre@@@std@@@std@@QAEAAV01@ABV01@@Z PROC ; std::vector<Ogre::Vector3,std::allocator<Ogre::Vector3> >::operator=, COMDAT
; _this$ = ecx

; 563  : 		{	// assign _Right

	push	ebp
	mov	ebp, esp
	sub	esp, 12					; 0000000cH
	push	esi
	mov	DWORD PTR _this$[ebp], ecx

; 564  : 		if (this != &_Right)

	mov	eax, DWORD PTR _this$[ebp]
	cmp	eax, DWORD PTR __Right$[ebp]
	je	$LN9@operator@5

; 565  : 			{	// worth doing
; 566  : 
; 567  :  #if _HAS_ITERATOR_DEBUGGING
; 568  : 			this->_Orphan_all();
; 569  :  #endif /* _HAS_ITERATOR_DEBUGGING */
; 570  : 
; 571  : 			if (_Right.size() == 0)

	mov	ecx, DWORD PTR __Right$[ebp]
	call	?size@?$vector@VVector3@Ogre@@V?$allocator@VVector3@Ogre@@@std@@@std@@QBEIXZ ; std::vector<Ogre::Vector3,std::allocator<Ogre::Vector3> >::size
	test	eax, eax
	jne	SHORT $LN8@operator@5

; 572  : 				clear();	// new sequence empty, erase existing sequence

	mov	ecx, DWORD PTR _this$[ebp]
	call	?clear@?$vector@VVector3@Ogre@@V?$allocator@VVector3@Ogre@@@std@@@std@@QAEXXZ ; std::vector<Ogre::Vector3,std::allocator<Ogre::Vector3> >::clear
	jmp	$LN9@operator@5
$LN8@operator@5:

; 573  : 			else if (_Right.size() <= size())

	mov	ecx, DWORD PTR __Right$[ebp]
	call	?size@?$vector@VVector3@Ogre@@V?$allocator@VVector3@Ogre@@@std@@@std@@QBEIXZ ; std::vector<Ogre::Vector3,std::allocator<Ogre::Vector3> >::size
	mov	esi, eax
	mov	ecx, DWORD PTR _this$[ebp]
	call	?size@?$vector@VVector3@Ogre@@V?$allocator@VVector3@Ogre@@@std@@@std@@QBEIXZ ; std::vector<Ogre::Vector3,std::allocator<Ogre::Vector3> >::size
	cmp	esi, eax
	ja	SHORT $LN6@operator@5

; 574  : 				{	// enough elements, copy new and destroy old
; 575  : 				pointer _Ptr = _STDEXT unchecked_copy(_Right._Myfirst, _Right._Mylast,
; 576  : 					_Myfirst);	// copy new

	mov	ecx, DWORD PTR _this$[ebp]
	mov	edx, DWORD PTR [ecx+12]
	push	edx
	mov	eax, DWORD PTR __Right$[ebp]
	mov	ecx, DWORD PTR [eax+16]
	push	ecx
	mov	edx, DWORD PTR __Right$[ebp]
	mov	eax, DWORD PTR [edx+12]
	push	eax
	call	??$unchecked_copy@PAVVector3@Ogre@@PAV12@@stdext@@YAPAVVector3@Ogre@@PAV12@00@Z ; stdext::unchecked_copy<Ogre::Vector3 *,Ogre::Vector3 *>
	add	esp, 12					; 0000000cH
	mov	DWORD PTR __Ptr$61477[ebp], eax

; 577  : 				_Destroy(_Ptr, _Mylast);	// destroy old

	mov	ecx, DWORD PTR _this$[ebp]
	mov	edx, DWORD PTR [ecx+16]
	push	edx
	mov	eax, DWORD PTR __Ptr$61477[ebp]
	push	eax
	mov	ecx, DWORD PTR _this$[ebp]
	call	?_Destroy@?$vector@VVector3@Ogre@@V?$allocator@VVector3@Ogre@@@std@@@std@@IAEXPAVVector3@Ogre@@0@Z ; std::vector<Ogre::Vector3,std::allocator<Ogre::Vector3> >::_Destroy

; 578  : 				_Mylast = _Myfirst + _Right.size();

	mov	ecx, DWORD PTR __Right$[ebp]
	call	?size@?$vector@VVector3@Ogre@@V?$allocator@VVector3@Ogre@@@std@@@std@@QBEIXZ ; std::vector<Ogre::Vector3,std::allocator<Ogre::Vector3> >::size
	imul	eax, 12					; 0000000cH
	mov	ecx, DWORD PTR _this$[ebp]
	add	eax, DWORD PTR [ecx+12]
	mov	edx, DWORD PTR _this$[ebp]
	mov	DWORD PTR [edx+16], eax
	jmp	$LN9@operator@5
$LN6@operator@5:

; 579  : 				}
; 580  : 			else if (_Right.size() <= capacity())

	mov	ecx, DWORD PTR __Right$[ebp]
	call	?size@?$vector@VVector3@Ogre@@V?$allocator@VVector3@Ogre@@@std@@@std@@QBEIXZ ; std::vector<Ogre::Vector3,std::allocator<Ogre::Vector3> >::size
	mov	esi, eax
	mov	ecx, DWORD PTR _this$[ebp]
	call	?capacity@?$vector@VVector3@Ogre@@V?$allocator@VVector3@Ogre@@@std@@@std@@QBEIXZ ; std::vector<Ogre::Vector3,std::allocator<Ogre::Vector3> >::capacity
	cmp	esi, eax
	ja	SHORT $LN4@operator@5

; 581  : 				{	// enough room, copy and construct new
; 582  : 				pointer _Ptr = _Right._Myfirst + size();

	mov	ecx, DWORD PTR _this$[ebp]
	call	?size@?$vector@VVector3@Ogre@@V?$allocator@VVector3@Ogre@@@std@@@std@@QBEIXZ ; std::vector<Ogre::Vector3,std::allocator<Ogre::Vector3> >::size
	imul	eax, 12					; 0000000cH
	mov	ecx, DWORD PTR __Right$[ebp]
	add	eax, DWORD PTR [ecx+12]
	mov	DWORD PTR __Ptr$61487[ebp], eax

; 583  : 				_STDEXT unchecked_copy(_Right._Myfirst, _Ptr, _Myfirst);

	mov	edx, DWORD PTR _this$[ebp]
	mov	eax, DWORD PTR [edx+12]
	push	eax
	mov	ecx, DWORD PTR __Ptr$61487[ebp]
	push	ecx
	mov	edx, DWORD PTR __Right$[ebp]
	mov	eax, DWORD PTR [edx+12]
	push	eax
	call	??$unchecked_copy@PAVVector3@Ogre@@PAV12@@stdext@@YAPAVVector3@Ogre@@PAV12@00@Z ; stdext::unchecked_copy<Ogre::Vector3 *,Ogre::Vector3 *>
	add	esp, 12					; 0000000cH

; 584  : 				_Mylast = _Ucopy(_Ptr, _Right._Mylast, _Mylast);

	mov	ecx, DWORD PTR _this$[ebp]
	mov	edx, DWORD PTR [ecx+16]
	push	edx
	mov	eax, DWORD PTR __Right$[ebp]
	mov	ecx, DWORD PTR [eax+16]
	push	ecx
	mov	edx, DWORD PTR __Ptr$61487[ebp]
	push	edx
	mov	ecx, DWORD PTR _this$[ebp]
	call	??$_Ucopy@PAVVector3@Ogre@@@?$vector@VVector3@Ogre@@V?$allocator@VVector3@Ogre@@@std@@@std@@IAEPAVVector3@Ogre@@PAV23@00@Z ; std::vector<Ogre::Vector3,std::allocator<Ogre::Vector3> >::_Ucopy<Ogre::Vector3 *>
	mov	ecx, DWORD PTR _this$[ebp]
	mov	DWORD PTR [ecx+16], eax

; 585  : 				}
; 586  : 			else

	jmp	$LN9@operator@5
$LN4@operator@5:

; 587  : 				{	// not enough room, allocate new array and construct new
; 588  : 				if (_Myfirst != 0)

	mov	edx, DWORD PTR _this$[ebp]
	cmp	DWORD PTR [edx+12], 0
	je	SHORT $LN2@operator@5

; 589  : 					{	// discard old array
; 590  : 					_Destroy(_Myfirst, _Mylast);

	mov	eax, DWORD PTR _this$[ebp]
	mov	ecx, DWORD PTR [eax+16]
	push	ecx
	mov	edx, DWORD PTR _this$[ebp]
	mov	eax, DWORD PTR [edx+12]
	push	eax
	mov	ecx, DWORD PTR _this$[ebp]
	call	?_Destroy@?$vector@VVector3@Ogre@@V?$allocator@VVector3@Ogre@@@std@@@std@@IAEXPAVVector3@Ogre@@0@Z ; std::vector<Ogre::Vector3,std::allocator<Ogre::Vector3> >::_Destroy

; 591  : 					this->_Alval.deallocate(_Myfirst, _Myend - _Myfirst);

	mov	ecx, DWORD PTR _this$[ebp]
	mov	edx, DWORD PTR _this$[ebp]
	mov	eax, DWORD PTR [ecx+20]
	sub	eax, DWORD PTR [edx+12]
	cdq
	mov	ecx, 12					; 0000000cH
	idiv	ecx
	push	eax
	mov	edx, DWORD PTR _this$[ebp]
	mov	eax, DWORD PTR [edx+12]
	push	eax
	mov	ecx, DWORD PTR _this$[ebp]
	add	ecx, 8
	call	?deallocate@?$allocator@VVector3@Ogre@@@std@@QAEXPAVVector3@Ogre@@I@Z ; std::allocator<Ogre::Vector3>::deallocate
$LN2@operator@5:

; 592  : 					}
; 593  : 				if (_Buy(_Right.size()))

	mov	ecx, DWORD PTR __Right$[ebp]
	call	?size@?$vector@VVector3@Ogre@@V?$allocator@VVector3@Ogre@@@std@@@std@@QBEIXZ ; std::vector<Ogre::Vector3,std::allocator<Ogre::Vector3> >::size
	push	eax
	mov	ecx, DWORD PTR _this$[ebp]
	call	?_Buy@?$vector@VVector3@Ogre@@V?$allocator@VVector3@Ogre@@@std@@@std@@IAE_NI@Z ; std::vector<Ogre::Vector3,std::allocator<Ogre::Vector3> >::_Buy
	movzx	ecx, al
	test	ecx, ecx
	je	SHORT $LN9@operator@5

; 594  : 					_Mylast = _Ucopy(_Right._Myfirst, _Right._Mylast,
; 595  : 						_Myfirst);

	mov	edx, DWORD PTR _this$[ebp]
	mov	eax, DWORD PTR [edx+12]
	push	eax
	mov	ecx, DWORD PTR __Right$[ebp]
	mov	edx, DWORD PTR [ecx+16]
	push	edx
	mov	eax, DWORD PTR __Right$[ebp]
	mov	ecx, DWORD PTR [eax+12]
	push	ecx
	mov	ecx, DWORD PTR _this$[ebp]
	call	??$_Ucopy@PAVVector3@Ogre@@@?$vector@VVector3@Ogre@@V?$allocator@VVector3@Ogre@@@std@@@std@@IAEPAVVector3@Ogre@@PAV23@00@Z ; std::vector<Ogre::Vector3,std::allocator<Ogre::Vector3> >::_Ucopy<Ogre::Vector3 *>
	mov	edx, DWORD PTR _this$[ebp]
	mov	DWORD PTR [edx+16], eax
$LN9@operator@5:

; 596  : 				}
; 597  : 			}
; 598  : 		return (*this);

	mov	eax, DWORD PTR _this$[ebp]

; 599  : 		}

	pop	esi
	mov	esp, ebp
	pop	ebp
	ret	4
??4?$vector@VVector3@Ogre@@V?$allocator@VVector3@Ogre@@@std@@@std@@QAEAAV01@ABV01@@Z ENDP ; std::vector<Ogre::Vector3,std::allocator<Ogre::Vector3> >::operator=
_TEXT	ENDS
PUBLIC	??1?$_Container_base_aux_alloc_real@V?$allocator@D@std@@@std@@IAE@XZ ; std::_Container_base_aux_alloc_real<std::allocator<char> >::~_Container_base_aux_alloc_real<std::allocator<char> >
;	COMDAT xdata$x
xdata$x	SEGMENT
__unwindtable$??1?$_Vector_val@DV?$allocator@D@std@@@std@@QAE@XZ DD 0ffffffffH
	DD	FLAT:__unwindfunclet$??1?$_Vector_val@DV?$allocator@D@std@@@std@@QAE@XZ$0
__ehfuncinfo$??1?$_Vector_val@DV?$allocator@D@std@@@std@@QAE@XZ DD 019930522H
	DD	01H
	DD	FLAT:__unwindtable$??1?$_Vector_val@DV?$allocator@D@std@@@std@@QAE@XZ
	DD	2 DUP(00H)
	DD	2 DUP(00H)
	DD	00H
	DD	00H
; Function compile flags: /Odtp
xdata$x	ENDS
;	COMDAT ??1?$_Vector_val@DV?$allocator@D@std@@@std@@QAE@XZ
_TEXT	SEGMENT
_this$ = -16						; size = 4
__$EHRec$ = -12						; size = 12
??1?$_Vector_val@DV?$allocator@D@std@@@std@@QAE@XZ PROC	; std::_Vector_val<char,std::allocator<char> >::~_Vector_val<char,std::allocator<char> >, COMDAT
; _this$ = ecx
	push	ebp
	mov	ebp, esp
	push	-1
	push	__ehhandler$??1?$_Vector_val@DV?$allocator@D@std@@@std@@QAE@XZ
	mov	eax, DWORD PTR fs:0
	push	eax
	push	ecx
	mov	eax, DWORD PTR ___security_cookie
	xor	eax, ebp
	push	eax
	lea	eax, DWORD PTR __$EHRec$[ebp]
	mov	DWORD PTR fs:0, eax
	mov	DWORD PTR _this$[ebp], ecx
	mov	DWORD PTR __$EHRec$[ebp+8], 0
	mov	DWORD PTR __$EHRec$[ebp+8], -1
	mov	ecx, DWORD PTR _this$[ebp]
	call	??1?$_Container_base_aux_alloc_real@V?$allocator@D@std@@@std@@IAE@XZ ; std::_Container_base_aux_alloc_real<std::allocator<char> >::~_Container_base_aux_alloc_real<std::allocator<char> >
	mov	ecx, DWORD PTR __$EHRec$[ebp]
	mov	DWORD PTR fs:0, ecx
	pop	ecx
	mov	esp, ebp
	pop	ebp
	ret	0
_TEXT	ENDS
;	COMDAT text$x
text$x	SEGMENT
__unwindfunclet$??1?$_Vector_val@DV?$allocator@D@std@@@std@@QAE@XZ$0:
	mov	ecx, DWORD PTR _this$[ebp]
	jmp	??1?$_Container_base_aux_alloc_real@V?$allocator@D@std@@@std@@IAE@XZ ; std::_Container_base_aux_alloc_real<std::allocator<char> >::~_Container_base_aux_alloc_real<std::allocator<char> >
__ehhandler$??1?$_Vector_val@DV?$allocator@D@std@@@std@@QAE@XZ:
	mov	edx, DWORD PTR [esp+8]
	lea	eax, DWORD PTR [edx+12]
	mov	ecx, DWORD PTR [edx-8]
	xor	ecx, eax
	call	@__security_check_cookie@4
	mov	eax, OFFSET __ehfuncinfo$??1?$_Vector_val@DV?$allocator@D@std@@@std@@QAE@XZ
	jmp	___CxxFrameHandler3
text$x	ENDS
??1?$_Vector_val@DV?$allocator@D@std@@@std@@QAE@XZ ENDP	; std::_Vector_val<char,std::allocator<char> >::~_Vector_val<char,std::allocator<char> >
PUBLIC	??1?$_Container_base_aux_alloc_real@V?$allocator@PAVSurfaceData@Ogre@@@std@@@std@@IAE@XZ ; std::_Container_base_aux_alloc_real<std::allocator<Ogre::SurfaceData *> >::~_Container_base_aux_alloc_real<std::allocator<Ogre::SurfaceData *> >
;	COMDAT xdata$x
xdata$x	SEGMENT
__unwindtable$??1?$_Vector_val@PAVSurfaceData@Ogre@@V?$allocator@PAVSurfaceData@Ogre@@@std@@@std@@QAE@XZ DD 0ffffffffH
	DD	FLAT:__unwindfunclet$??1?$_Vector_val@PAVSurfaceData@Ogre@@V?$allocator@PAVSurfaceData@Ogre@@@std@@@std@@QAE@XZ$0
__ehfuncinfo$??1?$_Vector_val@PAVSurfaceData@Ogre@@V?$allocator@PAVSurfaceData@Ogre@@@std@@@std@@QAE@XZ DD 019930522H
	DD	01H
	DD	FLAT:__unwindtable$??1?$_Vector_val@PAVSurfaceData@Ogre@@V?$allocator@PAVSurfaceData@Ogre@@@std@@@std@@QAE@XZ
	DD	2 DUP(00H)
	DD	2 DUP(00H)
	DD	00H
	DD	00H
; Function compile flags: /Odtp
xdata$x	ENDS
;	COMDAT ??1?$_Vector_val@PAVSurfaceData@Ogre@@V?$allocator@PAVSurfaceData@Ogre@@@std@@@std@@QAE@XZ
_TEXT	SEGMENT
_this$ = -16						; size = 4
__$EHRec$ = -12						; size = 12
??1?$_Vector_val@PAVSurfaceData@Ogre@@V?$allocator@PAVSurfaceData@Ogre@@@std@@@std@@QAE@XZ PROC ; std::_Vector_val<Ogre::SurfaceData *,std::allocator<Ogre::SurfaceData *> >::~_Vector_val<Ogre::SurfaceData *,std::allocator<Ogre::SurfaceData *> >, COMDAT
; _this$ = ecx
	push	ebp
	mov	ebp, esp
	push	-1
	push	__ehhandler$??1?$_Vector_val@PAVSurfaceData@Ogre@@V?$allocator@PAVSurfaceData@Ogre@@@std@@@std@@QAE@XZ
	mov	eax, DWORD PTR fs:0
	push	eax
	push	ecx
	mov	eax, DWORD PTR ___security_cookie
	xor	eax, ebp
	push	eax
	lea	eax, DWORD PTR __$EHRec$[ebp]
	mov	DWORD PTR fs:0, eax
	mov	DWORD PTR _this$[ebp], ecx
	mov	DWORD PTR __$EHRec$[ebp+8], 0
	mov	DWORD PTR __$EHRec$[ebp+8], -1
	mov	ecx, DWORD PTR _this$[ebp]
	call	??1?$_Container_base_aux_alloc_real@V?$allocator@PAVSurfaceData@Ogre@@@std@@@std@@IAE@XZ ; std::_Container_base_aux_alloc_real<std::allocator<Ogre::SurfaceData *> >::~_Container_base_aux_alloc_real<std::allocator<Ogre::SurfaceData *> >
	mov	ecx, DWORD PTR __$EHRec$[ebp]
	mov	DWORD PTR fs:0, ecx
	pop	ecx
	mov	esp, ebp
	pop	ebp
	ret	0
_TEXT	ENDS
;	COMDAT text$x
text$x	SEGMENT
__unwindfunclet$??1?$_Vector_val@PAVSurfaceData@Ogre@@V?$allocator@PAVSurfaceData@Ogre@@@std@@@std@@QAE@XZ$0:
	mov	ecx, DWORD PTR _this$[ebp]
	jmp	??1?$_Container_base_aux_alloc_real@V?$allocator@PAVSurfaceData@Ogre@@@std@@@std@@IAE@XZ ; std::_Container_base_aux_alloc_real<std::allocator<Ogre::SurfaceData *> >::~_Container_base_aux_alloc_real<std::allocator<Ogre::SurfaceData *> >
__ehhandler$??1?$_Vector_val@PAVSurfaceData@Ogre@@V?$allocator@PAVSurfaceData@Ogre@@@std@@@std@@QAE@XZ:
	mov	edx, DWORD PTR [esp+8]
	lea	eax, DWORD PTR [edx+12]
	mov	ecx, DWORD PTR [edx-8]
	xor	ecx, eax
	call	@__security_check_cookie@4
	mov	eax, OFFSET __ehfuncinfo$??1?$_Vector_val@PAVSurfaceData@Ogre@@V?$allocator@PAVSurfaceData@Ogre@@@std@@@std@@QAE@XZ
	jmp	___CxxFrameHandler3
text$x	ENDS
??1?$_Vector_val@PAVSurfaceData@Ogre@@V?$allocator@PAVSurfaceData@Ogre@@@std@@@std@@QAE@XZ ENDP ; std::_Vector_val<Ogre::SurfaceData *,std::allocator<Ogre::SurfaceData *> >::~_Vector_val<Ogre::SurfaceData *,std::allocator<Ogre::SurfaceData *> >
PUBLIC	??1?$_Container_base_aux_alloc_real@V?$allocator@VVector3@Ogre@@@std@@@std@@IAE@XZ ; std::_Container_base_aux_alloc_real<std::allocator<Ogre::Vector3> >::~_Container_base_aux_alloc_real<std::allocator<Ogre::Vector3> >
;	COMDAT xdata$x
xdata$x	SEGMENT
__unwindtable$??1?$_Vector_val@VVector3@Ogre@@V?$allocator@VVector3@Ogre@@@std@@@std@@QAE@XZ DD 0ffffffffH
	DD	FLAT:__unwindfunclet$??1?$_Vector_val@VVector3@Ogre@@V?$allocator@VVector3@Ogre@@@std@@@std@@QAE@XZ$0
__ehfuncinfo$??1?$_Vector_val@VVector3@Ogre@@V?$allocator@VVector3@Ogre@@@std@@@std@@QAE@XZ DD 019930522H
	DD	01H
	DD	FLAT:__unwindtable$??1?$_Vector_val@VVector3@Ogre@@V?$allocator@VVector3@Ogre@@@std@@@std@@QAE@XZ
	DD	2 DUP(00H)
	DD	2 DUP(00H)
	DD	00H
	DD	00H
; Function compile flags: /Odtp
xdata$x	ENDS
;	COMDAT ??1?$_Vector_val@VVector3@Ogre@@V?$allocator@VVector3@Ogre@@@std@@@std@@QAE@XZ
_TEXT	SEGMENT
_this$ = -16						; size = 4
__$EHRec$ = -12						; size = 12
??1?$_Vector_val@VVector3@Ogre@@V?$allocator@VVector3@Ogre@@@std@@@std@@QAE@XZ PROC ; std::_Vector_val<Ogre::Vector3,std::allocator<Ogre::Vector3> >::~_Vector_val<Ogre::Vector3,std::allocator<Ogre::Vector3> >, COMDAT
; _this$ = ecx
	push	ebp
	mov	ebp, esp
	push	-1
	push	__ehhandler$??1?$_Vector_val@VVector3@Ogre@@V?$allocator@VVector3@Ogre@@@std@@@std@@QAE@XZ
	mov	eax, DWORD PTR fs:0
	push	eax
	push	ecx
	mov	eax, DWORD PTR ___security_cookie
	xor	eax, ebp
	push	eax
	lea	eax, DWORD PTR __$EHRec$[ebp]
	mov	DWORD PTR fs:0, eax
	mov	DWORD PTR _this$[ebp], ecx
	mov	DWORD PTR __$EHRec$[ebp+8], 0
	mov	DWORD PTR __$EHRec$[ebp+8], -1
	mov	ecx, DWORD PTR _this$[ebp]
	call	??1?$_Container_base_aux_alloc_real@V?$allocator@VVector3@Ogre@@@std@@@std@@IAE@XZ ; std::_Container_base_aux_alloc_real<std::allocator<Ogre::Vector3> >::~_Container_base_aux_alloc_real<std::allocator<Ogre::Vector3> >
	mov	ecx, DWORD PTR __$EHRec$[ebp]
	mov	DWORD PTR fs:0, ecx
	pop	ecx
	mov	esp, ebp
	pop	ebp
	ret	0
_TEXT	ENDS
;	COMDAT text$x
text$x	SEGMENT
__unwindfunclet$??1?$_Vector_val@VVector3@Ogre@@V?$allocator@VVector3@Ogre@@@std@@@std@@QAE@XZ$0:
	mov	ecx, DWORD PTR _this$[ebp]
	jmp	??1?$_Container_base_aux_alloc_real@V?$allocator@VVector3@Ogre@@@std@@@std@@IAE@XZ ; std::_Container_base_aux_alloc_real<std::allocator<Ogre::Vector3> >::~_Container_base_aux_alloc_real<std::allocator<Ogre::Vector3> >
__ehhandler$??1?$_Vector_val@VVector3@Ogre@@V?$allocator@VVector3@Ogre@@@std@@@std@@QAE@XZ:
	mov	edx, DWORD PTR [esp+8]
	lea	eax, DWORD PTR [edx+12]
	mov	ecx, DWORD PTR [edx-8]
	xor	ecx, eax
	call	@__security_check_cookie@4
	mov	eax, OFFSET __ehfuncinfo$??1?$_Vector_val@VVector3@Ogre@@V?$allocator@VVector3@Ogre@@@std@@@std@@QAE@XZ
	jmp	___CxxFrameHandler3
text$x	ENDS
??1?$_Vector_val@VVector3@Ogre@@V?$allocator@VVector3@Ogre@@@std@@@std@@QAE@XZ ENDP ; std::_Vector_val<Ogre::Vector3,std::allocator<Ogre::Vector3> >::~_Vector_val<Ogre::Vector3,std::allocator<Ogre::Vector3> >
; Function compile flags: /Odtp
;	COMDAT ?capacity@?$vector@DV?$allocator@D@std@@@std@@QBEIXZ
_TEXT	SEGMENT
tv69 = -8						; size = 4
_this$ = -4						; size = 4
?capacity@?$vector@DV?$allocator@D@std@@@std@@QBEIXZ PROC ; std::vector<char,std::allocator<char> >::capacity, COMDAT
; _this$ = ecx

; 634  : 		{	// return current length of allocated storage

	push	ebp
	mov	ebp, esp
	sub	esp, 8
	mov	DWORD PTR _this$[ebp], ecx

; 635  : 		return (_Myfirst == 0 ? 0 : _Myend - _Myfirst);

	mov	eax, DWORD PTR _this$[ebp]
	cmp	DWORD PTR [eax+12], 0
	jne	SHORT $LN3@capacity
	mov	DWORD PTR tv69[ebp], 0
	jmp	SHORT $LN4@capacity
$LN3@capacity:
	mov	ecx, DWORD PTR _this$[ebp]
	mov	edx, DWORD PTR _this$[ebp]
	mov	eax, DWORD PTR [ecx+20]
	sub	eax, DWORD PTR [edx+12]
	mov	DWORD PTR tv69[ebp], eax
$LN4@capacity:
	mov	eax, DWORD PTR tv69[ebp]

; 636  : 		}

	mov	esp, ebp
	pop	ebp
	ret	0
?capacity@?$vector@DV?$allocator@D@std@@@std@@QBEIXZ ENDP ; std::vector<char,std::allocator<char> >::capacity
_TEXT	ENDS
PUBLIC	??0?$_Vector_const_iterator@DV?$allocator@D@std@@@std@@QAE@PADPBV_Container_base_aux@1@@Z ; std::_Vector_const_iterator<char,std::allocator<char> >::_Vector_const_iterator<char,std::allocator<char> >
; Function compile flags: /Odtp
;	COMDAT ?begin@?$vector@DV?$allocator@D@std@@@std@@QBE?AV?$_Vector_const_iterator@DV?$allocator@D@std@@@2@XZ
_TEXT	SEGMENT
_this$ = -4						; size = 4
___$ReturnUdt$ = 8					; size = 4
?begin@?$vector@DV?$allocator@D@std@@@std@@QBE?AV?$_Vector_const_iterator@DV?$allocator@D@std@@@2@XZ PROC ; std::vector<char,std::allocator<char> >::begin, COMDAT
; _this$ = ecx

; 645  : 		{	// return iterator for beginning of nonmutable sequence

	push	ebp
	mov	ebp, esp
	push	ecx
	mov	DWORD PTR _this$[ebp], ecx

; 646  : 		return (const_iterator(_Myfirst, this));

	mov	eax, DWORD PTR _this$[ebp]
	push	eax
	mov	ecx, DWORD PTR _this$[ebp]
	mov	edx, DWORD PTR [ecx+12]
	push	edx
	mov	ecx, DWORD PTR ___$ReturnUdt$[ebp]
	call	??0?$_Vector_const_iterator@DV?$allocator@D@std@@@std@@QAE@PADPBV_Container_base_aux@1@@Z ; std::_Vector_const_iterator<char,std::allocator<char> >::_Vector_const_iterator<char,std::allocator<char> >
	mov	eax, DWORD PTR ___$ReturnUdt$[ebp]

; 647  : 		}

	mov	esp, ebp
	pop	ebp
	ret	4
?begin@?$vector@DV?$allocator@D@std@@@std@@QBE?AV?$_Vector_const_iterator@DV?$allocator@D@std@@@2@XZ ENDP ; std::vector<char,std::allocator<char> >::begin
; Function compile flags: /Odtp
_TEXT	ENDS
;	COMDAT ?end@?$vector@DV?$allocator@D@std@@@std@@QBE?AV?$_Vector_const_iterator@DV?$allocator@D@std@@@2@XZ
_TEXT	SEGMENT
_this$ = -4						; size = 4
___$ReturnUdt$ = 8					; size = 4
?end@?$vector@DV?$allocator@D@std@@@std@@QBE?AV?$_Vector_const_iterator@DV?$allocator@D@std@@@2@XZ PROC ; std::vector<char,std::allocator<char> >::end, COMDAT
; _this$ = ecx

; 655  : 		{	// return iterator for end of nonmutable sequence

	push	ebp
	mov	ebp, esp
	push	ecx
	mov	DWORD PTR _this$[ebp], ecx

; 656  : 		return (const_iterator(_Mylast, this));

	mov	eax, DWORD PTR _this$[ebp]
	push	eax
	mov	ecx, DWORD PTR _this$[ebp]
	mov	edx, DWORD PTR [ecx+16]
	push	edx
	mov	ecx, DWORD PTR ___$ReturnUdt$[ebp]
	call	??0?$_Vector_const_iterator@DV?$allocator@D@std@@@std@@QAE@PADPBV_Container_base_aux@1@@Z ; std::_Vector_const_iterator<char,std::allocator<char> >::_Vector_const_iterator<char,std::allocator<char> >
	mov	eax, DWORD PTR ___$ReturnUdt$[ebp]

; 657  : 		}

	mov	esp, ebp
	pop	ebp
	ret	4
?end@?$vector@DV?$allocator@D@std@@@std@@QBE?AV?$_Vector_const_iterator@DV?$allocator@D@std@@@2@XZ ENDP ; std::vector<char,std::allocator<char> >::end
; Function compile flags: /Odtp
_TEXT	ENDS
;	COMDAT ?size@?$vector@DV?$allocator@D@std@@@std@@QBEIXZ
_TEXT	SEGMENT
_this$ = -4						; size = 4
?size@?$vector@DV?$allocator@D@std@@@std@@QBEIXZ PROC	; std::vector<char,std::allocator<char> >::size, COMDAT
; _this$ = ecx

; 725  : 		{	// return length of sequence

	push	ebp
	mov	ebp, esp
	push	ecx
	mov	DWORD PTR _this$[ebp], ecx

; 726  : 		return (_Mylast - _Myfirst);

	mov	eax, DWORD PTR _this$[ebp]
	mov	ecx, DWORD PTR _this$[ebp]
	mov	eax, DWORD PTR [eax+16]
	sub	eax, DWORD PTR [ecx+12]

; 727  : 		}

	mov	esp, ebp
	pop	ebp
	ret	0
?size@?$vector@DV?$allocator@D@std@@@std@@QBEIXZ ENDP	; std::vector<char,std::allocator<char> >::size
_TEXT	ENDS
PUBLIC	?erase@?$vector@DV?$allocator@D@std@@@std@@QAE?AV?$_Vector_iterator@DV?$allocator@D@std@@@2@V?$_Vector_const_iterator@DV?$allocator@D@std@@@2@0@Z ; std::vector<char,std::allocator<char> >::erase
PUBLIC	?begin@?$vector@DV?$allocator@D@std@@@std@@QAE?AV?$_Vector_iterator@DV?$allocator@D@std@@@2@XZ ; std::vector<char,std::allocator<char> >::begin
PUBLIC	?end@?$vector@DV?$allocator@D@std@@@std@@QAE?AV?$_Vector_iterator@DV?$allocator@D@std@@@2@XZ ; std::vector<char,std::allocator<char> >::end
; Function compile flags: /Odtp
;	COMDAT ?clear@?$vector@DV?$allocator@D@std@@@std@@QAEXXZ
_TEXT	SEGMENT
_this$ = -44						; size = 4
$T68109 = -40						; size = 8
$T68108 = -32						; size = 8
$T68107 = -24						; size = 8
$T68106 = -16						; size = 8
$T68105 = -8						; size = 8
?clear@?$vector@DV?$allocator@D@std@@@std@@QAEXXZ PROC	; std::vector<char,std::allocator<char> >::clear, COMDAT
; _this$ = ecx

; 1059 : 		{	// erase all

	push	ebp
	mov	ebp, esp
	sub	esp, 44					; 0000002cH
	mov	DWORD PTR _this$[ebp], ecx

; 1060 : 		erase(begin(), end());

	lea	eax, DWORD PTR $T68106[ebp]
	push	eax
	mov	ecx, DWORD PTR _this$[ebp]
	call	?end@?$vector@DV?$allocator@D@std@@@std@@QAE?AV?$_Vector_iterator@DV?$allocator@D@std@@@2@XZ ; std::vector<char,std::allocator<char> >::end
	mov	ecx, DWORD PTR [eax]
	mov	edx, DWORD PTR [eax+4]
	mov	DWORD PTR $T68105[ebp], ecx
	mov	DWORD PTR $T68105[ebp+4], edx
	lea	eax, DWORD PTR $T68108[ebp]
	push	eax
	mov	ecx, DWORD PTR _this$[ebp]
	call	?begin@?$vector@DV?$allocator@D@std@@@std@@QAE?AV?$_Vector_iterator@DV?$allocator@D@std@@@2@XZ ; std::vector<char,std::allocator<char> >::begin
	mov	ecx, DWORD PTR [eax]
	mov	edx, DWORD PTR [eax+4]
	mov	DWORD PTR $T68107[ebp], ecx
	mov	DWORD PTR $T68107[ebp+4], edx
	mov	eax, DWORD PTR $T68105[ebp+4]
	push	eax
	mov	ecx, DWORD PTR $T68105[ebp]
	push	ecx
	mov	edx, DWORD PTR $T68107[ebp+4]
	push	edx
	mov	eax, DWORD PTR $T68107[ebp]
	push	eax
	lea	ecx, DWORD PTR $T68109[ebp]
	push	ecx
	mov	ecx, DWORD PTR _this$[ebp]
	call	?erase@?$vector@DV?$allocator@D@std@@@std@@QAE?AV?$_Vector_iterator@DV?$allocator@D@std@@@2@V?$_Vector_const_iterator@DV?$allocator@D@std@@@2@0@Z ; std::vector<char,std::allocator<char> >::erase

; 1061 : 		}

	mov	esp, ebp
	pop	ebp
	ret	0
?clear@?$vector@DV?$allocator@D@std@@@std@@QAEXXZ ENDP	; std::vector<char,std::allocator<char> >::clear
_TEXT	ENDS
PUBLIC	?_Xlen@?$vector@DV?$allocator@D@std@@@std@@KAXXZ ; std::vector<char,std::allocator<char> >::_Xlen
PUBLIC	?max_size@?$vector@DV?$allocator@D@std@@@std@@QBEIXZ ; std::vector<char,std::allocator<char> >::max_size
EXTRN	__imp_?allocate@?$allocator@D@std@@QAEPADI@Z:PROC
; Function compile flags: /Odtp
;	COMDAT ?_Buy@?$vector@DV?$allocator@D@std@@@std@@IAE_NI@Z
_TEXT	SEGMENT
_this$ = -4						; size = 4
__Capacity$ = 8						; size = 4
?_Buy@?$vector@DV?$allocator@D@std@@@std@@IAE_NI@Z PROC	; std::vector<char,std::allocator<char> >::_Buy, COMDAT
; _this$ = ecx

; 1102 : 		{	// allocate array with _Capacity elements

	push	ebp
	mov	ebp, esp
	push	ecx
	mov	DWORD PTR _this$[ebp], ecx

; 1103 : 		_Myfirst = 0, _Mylast = 0, _Myend = 0;

	mov	eax, DWORD PTR _this$[ebp]
	mov	DWORD PTR [eax+12], 0
	mov	ecx, DWORD PTR _this$[ebp]
	mov	DWORD PTR [ecx+16], 0
	mov	edx, DWORD PTR _this$[ebp]
	mov	DWORD PTR [edx+20], 0

; 1104 : 		if (_Capacity == 0)

	cmp	DWORD PTR __Capacity$[ebp], 0
	jne	SHORT $LN4@Buy

; 1105 : 			return (false);

	xor	al, al
	jmp	SHORT $LN5@Buy
	jmp	SHORT $LN3@Buy
$LN4@Buy:

; 1106 : 		else if (max_size() < _Capacity)

	mov	ecx, DWORD PTR _this$[ebp]
	call	?max_size@?$vector@DV?$allocator@D@std@@@std@@QBEIXZ ; std::vector<char,std::allocator<char> >::max_size
	cmp	eax, DWORD PTR __Capacity$[ebp]
	jae	SHORT $LN2@Buy

; 1107 : 			_Xlen();	// result too long

	call	?_Xlen@?$vector@DV?$allocator@D@std@@@std@@KAXXZ ; std::vector<char,std::allocator<char> >::_Xlen

; 1108 : 		else

	jmp	SHORT $LN3@Buy
$LN2@Buy:

; 1109 : 			{	// nonempty array, allocate storage
; 1110 : 			_Myfirst = this->_Alval.allocate(_Capacity);

	mov	eax, DWORD PTR __Capacity$[ebp]
	push	eax
	mov	ecx, DWORD PTR _this$[ebp]
	add	ecx, 8
	call	DWORD PTR __imp_?allocate@?$allocator@D@std@@QAEPADI@Z
	mov	ecx, DWORD PTR _this$[ebp]
	mov	DWORD PTR [ecx+12], eax

; 1111 : 			_Mylast = _Myfirst;

	mov	edx, DWORD PTR _this$[ebp]
	mov	eax, DWORD PTR _this$[ebp]
	mov	ecx, DWORD PTR [eax+12]
	mov	DWORD PTR [edx+16], ecx

; 1112 : 			_Myend = _Myfirst + _Capacity;

	mov	edx, DWORD PTR _this$[ebp]
	mov	eax, DWORD PTR [edx+12]
	add	eax, DWORD PTR __Capacity$[ebp]
	mov	ecx, DWORD PTR _this$[ebp]
	mov	DWORD PTR [ecx+20], eax
$LN3@Buy:

; 1113 : 			}
; 1114 : 		return (true);

	mov	al, 1
$LN5@Buy:

; 1115 : 		}

	mov	esp, ebp
	pop	ebp
	ret	4
?_Buy@?$vector@DV?$allocator@D@std@@@std@@IAE_NI@Z ENDP	; std::vector<char,std::allocator<char> >::_Buy
_TEXT	ENDS
PUBLIC	??$_Destroy_range@V?$allocator@D@std@@@std@@YAXPAD0AAV?$allocator@D@0@@Z ; std::_Destroy_range<std::allocator<char> >
; Function compile flags: /Odtp
;	COMDAT ?_Destroy@?$vector@DV?$allocator@D@std@@@std@@IAEXPAD0@Z
_TEXT	SEGMENT
_this$ = -4						; size = 4
__First$ = 8						; size = 4
__Last$ = 12						; size = 4
?_Destroy@?$vector@DV?$allocator@D@std@@@std@@IAEXPAD0@Z PROC ; std::vector<char,std::allocator<char> >::_Destroy, COMDAT
; _this$ = ecx

; 1118 : 		{	// destroy [_First, _Last) using allocator

	push	ebp
	mov	ebp, esp
	push	ecx
	mov	DWORD PTR _this$[ebp], ecx

; 1119 : 		_Destroy_range(_First, _Last, this->_Alval);

	mov	eax, DWORD PTR _this$[ebp]
	add	eax, 8
	push	eax
	mov	ecx, DWORD PTR __Last$[ebp]
	push	ecx
	mov	edx, DWORD PTR __First$[ebp]
	push	edx
	call	??$_Destroy_range@V?$allocator@D@std@@@std@@YAXPAD0AAV?$allocator@D@0@@Z ; std::_Destroy_range<std::allocator<char> >
	add	esp, 12					; 0000000cH

; 1120 : 		}

	mov	esp, ebp
	pop	ebp
	ret	8
?_Destroy@?$vector@DV?$allocator@D@std@@@std@@IAEXPAD0@Z ENDP ; std::vector<char,std::allocator<char> >::_Destroy
; Function compile flags: /Odtp
_TEXT	ENDS
;	COMDAT ?_Tidy@?$vector@DV?$allocator@D@std@@@std@@IAEXXZ
_TEXT	SEGMENT
_this$ = -4						; size = 4
?_Tidy@?$vector@DV?$allocator@D@std@@@std@@IAEXXZ PROC	; std::vector<char,std::allocator<char> >::_Tidy, COMDAT
; _this$ = ecx

; 1123 : 		{	// free all storage

	push	ebp
	mov	ebp, esp
	push	ecx
	mov	DWORD PTR _this$[ebp], ecx

; 1124 : 		if (_Myfirst != 0)

	mov	eax, DWORD PTR _this$[ebp]
	cmp	DWORD PTR [eax+12], 0
	je	SHORT $LN1@Tidy

; 1125 : 			{	// something to free, destroy and deallocate it
; 1126 : 
; 1127 :  #if _HAS_ITERATOR_DEBUGGING
; 1128 : 			this->_Orphan_all();
; 1129 :  #endif /* _HAS_ITERATOR_DEBUGGING */
; 1130 : 
; 1131 : 			_Destroy(_Myfirst, _Mylast);

	mov	ecx, DWORD PTR _this$[ebp]
	mov	edx, DWORD PTR [ecx+16]
	push	edx
	mov	eax, DWORD PTR _this$[ebp]
	mov	ecx, DWORD PTR [eax+12]
	push	ecx
	mov	ecx, DWORD PTR _this$[ebp]
	call	?_Destroy@?$vector@DV?$allocator@D@std@@@std@@IAEXPAD0@Z ; std::vector<char,std::allocator<char> >::_Destroy

; 1132 : 			this->_Alval.deallocate(_Myfirst, _Myend - _Myfirst);

	mov	edx, DWORD PTR _this$[ebp]
	mov	eax, DWORD PTR _this$[ebp]
	mov	ecx, DWORD PTR [edx+20]
	sub	ecx, DWORD PTR [eax+12]
	push	ecx
	mov	edx, DWORD PTR _this$[ebp]
	mov	eax, DWORD PTR [edx+12]
	push	eax
	mov	ecx, DWORD PTR _this$[ebp]
	add	ecx, 8
	call	DWORD PTR __imp_?deallocate@?$allocator@D@std@@QAEXPADI@Z
$LN1@Tidy:

; 1133 : 			}
; 1134 : 		_Myfirst = 0, _Mylast = 0, _Myend = 0;

	mov	ecx, DWORD PTR _this$[ebp]
	mov	DWORD PTR [ecx+12], 0
	mov	edx, DWORD PTR _this$[ebp]
	mov	DWORD PTR [edx+16], 0
	mov	eax, DWORD PTR _this$[ebp]
	mov	DWORD PTR [eax+20], 0

; 1135 : 		}

	mov	esp, ebp
	pop	ebp
	ret	0
?_Tidy@?$vector@DV?$allocator@D@std@@@std@@IAEXXZ ENDP	; std::vector<char,std::allocator<char> >::_Tidy
_TEXT	ENDS
PUBLIC	??0?$_Container_base_aux_alloc_real@V?$allocator@D@std@@@std@@IAE@V?$allocator@D@1@@Z ; std::_Container_base_aux_alloc_real<std::allocator<char> >::_Container_base_aux_alloc_real<std::allocator<char> >
;	COMDAT xdata$x
xdata$x	SEGMENT
__unwindtable$??0?$_Vector_val@DV?$allocator@D@std@@@std@@IAE@V?$allocator@D@1@@Z DD 0ffffffffH
	DD	FLAT:__unwindfunclet$??0?$_Vector_val@DV?$allocator@D@std@@@std@@IAE@V?$allocator@D@1@@Z$0
__ehfuncinfo$??0?$_Vector_val@DV?$allocator@D@std@@@std@@IAE@V?$allocator@D@1@@Z DD 019930522H
	DD	01H
	DD	FLAT:__unwindtable$??0?$_Vector_val@DV?$allocator@D@std@@@std@@IAE@V?$allocator@D@1@@Z
	DD	2 DUP(00H)
	DD	2 DUP(00H)
	DD	00H
	DD	00H
; Function compile flags: /Odtp
xdata$x	ENDS
;	COMDAT ??0?$_Vector_val@DV?$allocator@D@std@@@std@@IAE@V?$allocator@D@1@@Z
_TEXT	SEGMENT
_this$ = -20						; size = 4
$T68118 = -16						; size = 4
__$EHRec$ = -12						; size = 12
__Al$ = 8						; size = 1
??0?$_Vector_val@DV?$allocator@D@std@@@std@@IAE@V?$allocator@D@1@@Z PROC ; std::_Vector_val<char,std::allocator<char> >::_Vector_val<char,std::allocator<char> >, COMDAT
; _this$ = ecx

; 425  : 		{	// construct allocator from _Al

	push	ebp
	mov	ebp, esp
	push	-1
	push	__ehhandler$??0?$_Vector_val@DV?$allocator@D@std@@@std@@IAE@V?$allocator@D@1@@Z
	mov	eax, DWORD PTR fs:0
	push	eax
	sub	esp, 8
	mov	eax, DWORD PTR ___security_cookie
	xor	eax, ebp
	push	eax
	lea	eax, DWORD PTR __$EHRec$[ebp]
	mov	DWORD PTR fs:0, eax
	mov	DWORD PTR _this$[ebp], ecx
	push	ecx
	mov	ecx, esp
	mov	DWORD PTR $T68118[ebp], esp
	lea	eax, DWORD PTR __Al$[ebp]
	push	eax
	call	DWORD PTR __imp_??0?$allocator@D@std@@QAE@ABV01@@Z
	mov	ecx, DWORD PTR _this$[ebp]
	call	??0?$_Container_base_aux_alloc_real@V?$allocator@D@std@@@std@@IAE@V?$allocator@D@1@@Z ; std::_Container_base_aux_alloc_real<std::allocator<char> >::_Container_base_aux_alloc_real<std::allocator<char> >
	mov	DWORD PTR __$EHRec$[ebp+8], 0
	lea	ecx, DWORD PTR __Al$[ebp]
	push	ecx
	mov	ecx, DWORD PTR _this$[ebp]
	add	ecx, 8
	call	DWORD PTR __imp_??0?$allocator@D@std@@QAE@ABV01@@Z

; 426  : 		}

	mov	DWORD PTR __$EHRec$[ebp+8], -1
	mov	eax, DWORD PTR _this$[ebp]
	mov	ecx, DWORD PTR __$EHRec$[ebp]
	mov	DWORD PTR fs:0, ecx
	pop	ecx
	mov	esp, ebp
	pop	ebp
	ret	4
_TEXT	ENDS
;	COMDAT text$x
text$x	SEGMENT
__unwindfunclet$??0?$_Vector_val@DV?$allocator@D@std@@@std@@IAE@V?$allocator@D@1@@Z$0:
	mov	ecx, DWORD PTR _this$[ebp]
	jmp	??1?$_Container_base_aux_alloc_real@V?$allocator@D@std@@@std@@IAE@XZ ; std::_Container_base_aux_alloc_real<std::allocator<char> >::~_Container_base_aux_alloc_real<std::allocator<char> >
__ehhandler$??0?$_Vector_val@DV?$allocator@D@std@@@std@@IAE@V?$allocator@D@1@@Z:
	mov	edx, DWORD PTR [esp+8]
	lea	eax, DWORD PTR [edx+12]
	mov	ecx, DWORD PTR [edx-12]
	xor	ecx, eax
	call	@__security_check_cookie@4
	mov	eax, OFFSET __ehfuncinfo$??0?$_Vector_val@DV?$allocator@D@std@@@std@@IAE@V?$allocator@D@1@@Z
	jmp	___CxxFrameHandler3
text$x	ENDS
??0?$_Vector_val@DV?$allocator@D@std@@@std@@IAE@V?$allocator@D@1@@Z ENDP ; std::_Vector_val<char,std::allocator<char> >::_Vector_val<char,std::allocator<char> >
PUBLIC	??1_Container_base_aux@std@@QAE@XZ		; std::_Container_base_aux::~_Container_base_aux
PUBLIC	?deallocate@?$allocator@V_Aux_cont@std@@@std@@QAEXPAV_Aux_cont@2@I@Z ; std::allocator<std::_Aux_cont>::deallocate
;	COMDAT xdata$x
; File d:\program files (x86)\microsoft visual studio 9.0\vc\include\xutility
xdata$x	SEGMENT
__unwindtable$??1?$_Container_base_aux_alloc_real@V?$allocator@D@std@@@std@@IAE@XZ DD 0ffffffffH
	DD	FLAT:__unwindfunclet$??1?$_Container_base_aux_alloc_real@V?$allocator@D@std@@@std@@IAE@XZ$0
__ehfuncinfo$??1?$_Container_base_aux_alloc_real@V?$allocator@D@std@@@std@@IAE@XZ DD 019930522H
	DD	01H
	DD	FLAT:__unwindtable$??1?$_Container_base_aux_alloc_real@V?$allocator@D@std@@@std@@IAE@XZ
	DD	2 DUP(00H)
	DD	2 DUP(00H)
	DD	00H
	DD	00H
; Function compile flags: /Odtp
xdata$x	ENDS
;	COMDAT ??1?$_Container_base_aux_alloc_real@V?$allocator@D@std@@@std@@IAE@XZ
_TEXT	SEGMENT
_this$ = -16						; size = 4
__$EHRec$ = -12						; size = 12
??1?$_Container_base_aux_alloc_real@V?$allocator@D@std@@@std@@IAE@XZ PROC ; std::_Container_base_aux_alloc_real<std::allocator<char> >::~_Container_base_aux_alloc_real<std::allocator<char> >, COMDAT
; _this$ = ecx

; 436  : 		{

	push	ebp
	mov	ebp, esp
	push	-1
	push	__ehhandler$??1?$_Container_base_aux_alloc_real@V?$allocator@D@std@@@std@@IAE@XZ
	mov	eax, DWORD PTR fs:0
	push	eax
	push	ecx
	mov	eax, DWORD PTR ___security_cookie
	xor	eax, ebp
	push	eax
	lea	eax, DWORD PTR __$EHRec$[ebp]
	mov	DWORD PTR fs:0, eax
	mov	DWORD PTR _this$[ebp], ecx
	mov	DWORD PTR __$EHRec$[ebp+8], 0

; 437  : 		_Myownedaux->~_Aux_cont();
; 438  : 
; 439  : 		_Alaux.deallocate(_Myownedaux, 1);

	push	1
	mov	eax, DWORD PTR _this$[ebp]
	mov	ecx, DWORD PTR [eax]
	push	ecx
	mov	ecx, DWORD PTR _this$[ebp]
	add	ecx, 4
	call	?deallocate@?$allocator@V_Aux_cont@std@@@std@@QAEXPAV_Aux_cont@2@I@Z ; std::allocator<std::_Aux_cont>::deallocate

; 440  : 		}

	mov	DWORD PTR __$EHRec$[ebp+8], -1
	mov	ecx, DWORD PTR _this$[ebp]
	call	??1_Container_base_aux@std@@QAE@XZ	; std::_Container_base_aux::~_Container_base_aux
	mov	ecx, DWORD PTR __$EHRec$[ebp]
	mov	DWORD PTR fs:0, ecx
	pop	ecx
	mov	esp, ebp
	pop	ebp
	ret	0
_TEXT	ENDS
;	COMDAT text$x
text$x	SEGMENT
__unwindfunclet$??1?$_Container_base_aux_alloc_real@V?$allocator@D@std@@@std@@IAE@XZ$0:
	mov	ecx, DWORD PTR _this$[ebp]
	jmp	??1_Container_base_aux@std@@QAE@XZ	; std::_Container_base_aux::~_Container_base_aux
__ehhandler$??1?$_Container_base_aux_alloc_real@V?$allocator@D@std@@@std@@IAE@XZ:
	mov	edx, DWORD PTR [esp+8]
	lea	eax, DWORD PTR [edx+12]
	mov	ecx, DWORD PTR [edx-8]
	xor	ecx, eax
	call	@__security_check_cookie@4
	mov	eax, OFFSET __ehfuncinfo$??1?$_Container_base_aux_alloc_real@V?$allocator@D@std@@@std@@IAE@XZ
	jmp	___CxxFrameHandler3
text$x	ENDS
??1?$_Container_base_aux_alloc_real@V?$allocator@D@std@@@std@@IAE@XZ ENDP ; std::_Container_base_aux_alloc_real<std::allocator<char> >::~_Container_base_aux_alloc_real<std::allocator<char> >
; Function compile flags: /Odtp
;	COMDAT ??1_Container_base_aux@std@@QAE@XZ
_TEXT	SEGMENT
_this$ = -4						; size = 4
??1_Container_base_aux@std@@QAE@XZ PROC			; std::_Container_base_aux::~_Container_base_aux, COMDAT
; _this$ = ecx

; 402  : 		{

	push	ebp
	mov	ebp, esp
	push	ecx
	mov	DWORD PTR _this$[ebp], ecx

; 403  : 		// Do nothing: ~_Container_base_aux_alloc_real() previously destroyed the aux object.
; 404  : 		}

	mov	esp, ebp
	pop	ebp
	ret	0
??1_Container_base_aux@std@@QAE@XZ ENDP			; std::_Container_base_aux::~_Container_base_aux
; Function compile flags: /Odtp
; File d:\program files (x86)\microsoft visual studio 9.0\vc\include\vector
_TEXT	ENDS
;	COMDAT ?capacity@?$vector@PAVSurfaceData@Ogre@@V?$allocator@PAVSurfaceData@Ogre@@@std@@@std@@QBEIXZ
_TEXT	SEGMENT
tv70 = -8						; size = 4
_this$ = -4						; size = 4
?capacity@?$vector@PAVSurfaceData@Ogre@@V?$allocator@PAVSurfaceData@Ogre@@@std@@@std@@QBEIXZ PROC ; std::vector<Ogre::SurfaceData *,std::allocator<Ogre::SurfaceData *> >::capacity, COMDAT
; _this$ = ecx

; 634  : 		{	// return current length of allocated storage

	push	ebp
	mov	ebp, esp
	sub	esp, 8
	mov	DWORD PTR _this$[ebp], ecx

; 635  : 		return (_Myfirst == 0 ? 0 : _Myend - _Myfirst);

	mov	eax, DWORD PTR _this$[ebp]
	cmp	DWORD PTR [eax+12], 0
	jne	SHORT $LN3@capacity@2
	mov	DWORD PTR tv70[ebp], 0
	jmp	SHORT $LN4@capacity@2
$LN3@capacity@2:
	mov	ecx, DWORD PTR _this$[ebp]
	mov	edx, DWORD PTR _this$[ebp]
	mov	eax, DWORD PTR [ecx+20]
	sub	eax, DWORD PTR [edx+12]
	sar	eax, 2
	mov	DWORD PTR tv70[ebp], eax
$LN4@capacity@2:
	mov	eax, DWORD PTR tv70[ebp]

; 636  : 		}

	mov	esp, ebp
	pop	ebp
	ret	0
?capacity@?$vector@PAVSurfaceData@Ogre@@V?$allocator@PAVSurfaceData@Ogre@@@std@@@std@@QBEIXZ ENDP ; std::vector<Ogre::SurfaceData *,std::allocator<Ogre::SurfaceData *> >::capacity
_TEXT	ENDS
PUBLIC	??0?$_Vector_const_iterator@PAVSurfaceData@Ogre@@V?$allocator@PAVSurfaceData@Ogre@@@std@@@std@@QAE@PAPAVSurfaceData@Ogre@@PBV_Container_base_aux@1@@Z ; std::_Vector_const_iterator<Ogre::SurfaceData *,std::allocator<Ogre::SurfaceData *> >::_Vector_const_iterator<Ogre::SurfaceData *,std::allocator<Ogre::SurfaceData *> >
; Function compile flags: /Odtp
;	COMDAT ?begin@?$vector@PAVSurfaceData@Ogre@@V?$allocator@PAVSurfaceData@Ogre@@@std@@@std@@QBE?AV?$_Vector_const_iterator@PAVSurfaceData@Ogre@@V?$allocator@PAVSurfaceData@Ogre@@@std@@@2@XZ
_TEXT	SEGMENT
_this$ = -4						; size = 4
___$ReturnUdt$ = 8					; size = 4
?begin@?$vector@PAVSurfaceData@Ogre@@V?$allocator@PAVSurfaceData@Ogre@@@std@@@std@@QBE?AV?$_Vector_const_iterator@PAVSurfaceData@Ogre@@V?$allocator@PAVSurfaceData@Ogre@@@std@@@2@XZ PROC ; std::vector<Ogre::SurfaceData *,std::allocator<Ogre::SurfaceData *> >::begin, COMDAT
; _this$ = ecx

; 645  : 		{	// return iterator for beginning of nonmutable sequence

	push	ebp
	mov	ebp, esp
	push	ecx
	mov	DWORD PTR _this$[ebp], ecx

; 646  : 		return (const_iterator(_Myfirst, this));

	mov	eax, DWORD PTR _this$[ebp]
	push	eax
	mov	ecx, DWORD PTR _this$[ebp]
	mov	edx, DWORD PTR [ecx+12]
	push	edx
	mov	ecx, DWORD PTR ___$ReturnUdt$[ebp]
	call	??0?$_Vector_const_iterator@PAVSurfaceData@Ogre@@V?$allocator@PAVSurfaceData@Ogre@@@std@@@std@@QAE@PAPAVSurfaceData@Ogre@@PBV_Container_base_aux@1@@Z ; std::_Vector_const_iterator<Ogre::SurfaceData *,std::allocator<Ogre::SurfaceData *> >::_Vector_const_iterator<Ogre::SurfaceData *,std::allocator<Ogre::SurfaceData *> >
	mov	eax, DWORD PTR ___$ReturnUdt$[ebp]

; 647  : 		}

	mov	esp, ebp
	pop	ebp
	ret	4
?begin@?$vector@PAVSurfaceData@Ogre@@V?$allocator@PAVSurfaceData@Ogre@@@std@@@std@@QBE?AV?$_Vector_const_iterator@PAVSurfaceData@Ogre@@V?$allocator@PAVSurfaceData@Ogre@@@std@@@2@XZ ENDP ; std::vector<Ogre::SurfaceData *,std::allocator<Ogre::SurfaceData *> >::begin
; Function compile flags: /Odtp
_TEXT	ENDS
;	COMDAT ?end@?$vector@PAVSurfaceData@Ogre@@V?$allocator@PAVSurfaceData@Ogre@@@std@@@std@@QBE?AV?$_Vector_const_iterator@PAVSurfaceData@Ogre@@V?$allocator@PAVSurfaceData@Ogre@@@std@@@2@XZ
_TEXT	SEGMENT
_this$ = -4						; size = 4
___$ReturnUdt$ = 8					; size = 4
?end@?$vector@PAVSurfaceData@Ogre@@V?$allocator@PAVSurfaceData@Ogre@@@std@@@std@@QBE?AV?$_Vector_const_iterator@PAVSurfaceData@Ogre@@V?$allocator@PAVSurfaceData@Ogre@@@std@@@2@XZ PROC ; std::vector<Ogre::SurfaceData *,std::allocator<Ogre::SurfaceData *> >::end, COMDAT
; _this$ = ecx

; 655  : 		{	// return iterator for end of nonmutable sequence

	push	ebp
	mov	ebp, esp
	push	ecx
	mov	DWORD PTR _this$[ebp], ecx

; 656  : 		return (const_iterator(_Mylast, this));

	mov	eax, DWORD PTR _this$[ebp]
	push	eax
	mov	ecx, DWORD PTR _this$[ebp]
	mov	edx, DWORD PTR [ecx+16]
	push	edx
	mov	ecx, DWORD PTR ___$ReturnUdt$[ebp]
	call	??0?$_Vector_const_iterator@PAVSurfaceData@Ogre@@V?$allocator@PAVSurfaceData@Ogre@@@std@@@std@@QAE@PAPAVSurfaceData@Ogre@@PBV_Container_base_aux@1@@Z ; std::_Vector_const_iterator<Ogre::SurfaceData *,std::allocator<Ogre::SurfaceData *> >::_Vector_const_iterator<Ogre::SurfaceData *,std::allocator<Ogre::SurfaceData *> >
	mov	eax, DWORD PTR ___$ReturnUdt$[ebp]

; 657  : 		}

	mov	esp, ebp
	pop	ebp
	ret	4
?end@?$vector@PAVSurfaceData@Ogre@@V?$allocator@PAVSurfaceData@Ogre@@@std@@@std@@QBE?AV?$_Vector_const_iterator@PAVSurfaceData@Ogre@@V?$allocator@PAVSurfaceData@Ogre@@@std@@@2@XZ ENDP ; std::vector<Ogre::SurfaceData *,std::allocator<Ogre::SurfaceData *> >::end
; Function compile flags: /Odtp
_TEXT	ENDS
;	COMDAT ?size@?$vector@PAVSurfaceData@Ogre@@V?$allocator@PAVSurfaceData@Ogre@@@std@@@std@@QBEIXZ
_TEXT	SEGMENT
_this$ = -4						; size = 4
?size@?$vector@PAVSurfaceData@Ogre@@V?$allocator@PAVSurfaceData@Ogre@@@std@@@std@@QBEIXZ PROC ; std::vector<Ogre::SurfaceData *,std::allocator<Ogre::SurfaceData *> >::size, COMDAT
; _this$ = ecx

; 725  : 		{	// return length of sequence

	push	ebp
	mov	ebp, esp
	push	ecx
	mov	DWORD PTR _this$[ebp], ecx

; 726  : 		return (_Mylast - _Myfirst);

	mov	eax, DWORD PTR _this$[ebp]
	mov	ecx, DWORD PTR _this$[ebp]
	mov	eax, DWORD PTR [eax+16]
	sub	eax, DWORD PTR [ecx+12]
	sar	eax, 2

; 727  : 		}

	mov	esp, ebp
	pop	ebp
	ret	0
?size@?$vector@PAVSurfaceData@Ogre@@V?$allocator@PAVSurfaceData@Ogre@@@std@@@std@@QBEIXZ ENDP ; std::vector<Ogre::SurfaceData *,std::allocator<Ogre::SurfaceData *> >::size
_TEXT	ENDS
PUBLIC	?erase@?$vector@PAVSurfaceData@Ogre@@V?$allocator@PAVSurfaceData@Ogre@@@std@@@std@@QAE?AV?$_Vector_iterator@PAVSurfaceData@Ogre@@V?$allocator@PAVSurfaceData@Ogre@@@std@@@2@V?$_Vector_const_iterator@PAVSurfaceData@Ogre@@V?$allocator@PAVSurfaceData@Ogre@@@std@@@2@0@Z ; std::vector<Ogre::SurfaceData *,std::allocator<Ogre::SurfaceData *> >::erase
PUBLIC	?begin@?$vector@PAVSurfaceData@Ogre@@V?$allocator@PAVSurfaceData@Ogre@@@std@@@std@@QAE?AV?$_Vector_iterator@PAVSurfaceData@Ogre@@V?$allocator@PAVSurfaceData@Ogre@@@std@@@2@XZ ; std::vector<Ogre::SurfaceData *,std::allocator<Ogre::SurfaceData *> >::begin
PUBLIC	?end@?$vector@PAVSurfaceData@Ogre@@V?$allocator@PAVSurfaceData@Ogre@@@std@@@std@@QAE?AV?$_Vector_iterator@PAVSurfaceData@Ogre@@V?$allocator@PAVSurfaceData@Ogre@@@std@@@2@XZ ; std::vector<Ogre::SurfaceData *,std::allocator<Ogre::SurfaceData *> >::end
; Function compile flags: /Odtp
;	COMDAT ?clear@?$vector@PAVSurfaceData@Ogre@@V?$allocator@PAVSurfaceData@Ogre@@@std@@@std@@QAEXXZ
_TEXT	SEGMENT
_this$ = -44						; size = 4
$T68153 = -40						; size = 8
$T68152 = -32						; size = 8
$T68151 = -24						; size = 8
$T68150 = -16						; size = 8
$T68149 = -8						; size = 8
?clear@?$vector@PAVSurfaceData@Ogre@@V?$allocator@PAVSurfaceData@Ogre@@@std@@@std@@QAEXXZ PROC ; std::vector<Ogre::SurfaceData *,std::allocator<Ogre::SurfaceData *> >::clear, COMDAT
; _this$ = ecx

; 1059 : 		{	// erase all

	push	ebp
	mov	ebp, esp
	sub	esp, 44					; 0000002cH
	mov	DWORD PTR _this$[ebp], ecx

; 1060 : 		erase(begin(), end());

	lea	eax, DWORD PTR $T68150[ebp]
	push	eax
	mov	ecx, DWORD PTR _this$[ebp]
	call	?end@?$vector@PAVSurfaceData@Ogre@@V?$allocator@PAVSurfaceData@Ogre@@@std@@@std@@QAE?AV?$_Vector_iterator@PAVSurfaceData@Ogre@@V?$allocator@PAVSurfaceData@Ogre@@@std@@@2@XZ ; std::vector<Ogre::SurfaceData *,std::allocator<Ogre::SurfaceData *> >::end
	mov	ecx, DWORD PTR [eax]
	mov	edx, DWORD PTR [eax+4]
	mov	DWORD PTR $T68149[ebp], ecx
	mov	DWORD PTR $T68149[ebp+4], edx
	lea	eax, DWORD PTR $T68152[ebp]
	push	eax
	mov	ecx, DWORD PTR _this$[ebp]
	call	?begin@?$vector@PAVSurfaceData@Ogre@@V?$allocator@PAVSurfaceData@Ogre@@@std@@@std@@QAE?AV?$_Vector_iterator@PAVSurfaceData@Ogre@@V?$allocator@PAVSurfaceData@Ogre@@@std@@@2@XZ ; std::vector<Ogre::SurfaceData *,std::allocator<Ogre::SurfaceData *> >::begin
	mov	ecx, DWORD PTR [eax]
	mov	edx, DWORD PTR [eax+4]
	mov	DWORD PTR $T68151[ebp], ecx
	mov	DWORD PTR $T68151[ebp+4], edx
	mov	eax, DWORD PTR $T68149[ebp+4]
	push	eax
	mov	ecx, DWORD PTR $T68149[ebp]
	push	ecx
	mov	edx, DWORD PTR $T68151[ebp+4]
	push	edx
	mov	eax, DWORD PTR $T68151[ebp]
	push	eax
	lea	ecx, DWORD PTR $T68153[ebp]
	push	ecx
	mov	ecx, DWORD PTR _this$[ebp]
	call	?erase@?$vector@PAVSurfaceData@Ogre@@V?$allocator@PAVSurfaceData@Ogre@@@std@@@std@@QAE?AV?$_Vector_iterator@PAVSurfaceData@Ogre@@V?$allocator@PAVSurfaceData@Ogre@@@std@@@2@V?$_Vector_const_iterator@PAVSurfaceData@Ogre@@V?$allocator@PAVSurfaceData@Ogre@@@std@@@2@0@Z ; std::vector<Ogre::SurfaceData *,std::allocator<Ogre::SurfaceData *> >::erase

; 1061 : 		}

	mov	esp, ebp
	pop	ebp
	ret	0
?clear@?$vector@PAVSurfaceData@Ogre@@V?$allocator@PAVSurfaceData@Ogre@@@std@@@std@@QAEXXZ ENDP ; std::vector<Ogre::SurfaceData *,std::allocator<Ogre::SurfaceData *> >::clear
_TEXT	ENDS
PUBLIC	?allocate@?$allocator@PAVSurfaceData@Ogre@@@std@@QAEPAPAVSurfaceData@Ogre@@I@Z ; std::allocator<Ogre::SurfaceData *>::allocate
PUBLIC	?_Xlen@?$vector@PAVSurfaceData@Ogre@@V?$allocator@PAVSurfaceData@Ogre@@@std@@@std@@KAXXZ ; std::vector<Ogre::SurfaceData *,std::allocator<Ogre::SurfaceData *> >::_Xlen
PUBLIC	?max_size@?$vector@PAVSurfaceData@Ogre@@V?$allocator@PAVSurfaceData@Ogre@@@std@@@std@@QBEIXZ ; std::vector<Ogre::SurfaceData *,std::allocator<Ogre::SurfaceData *> >::max_size
; Function compile flags: /Odtp
;	COMDAT ?_Buy@?$vector@PAVSurfaceData@Ogre@@V?$allocator@PAVSurfaceData@Ogre@@@std@@@std@@IAE_NI@Z
_TEXT	SEGMENT
_this$ = -4						; size = 4
__Capacity$ = 8						; size = 4
?_Buy@?$vector@PAVSurfaceData@Ogre@@V?$allocator@PAVSurfaceData@Ogre@@@std@@@std@@IAE_NI@Z PROC ; std::vector<Ogre::SurfaceData *,std::allocator<Ogre::SurfaceData *> >::_Buy, COMDAT
; _this$ = ecx

; 1102 : 		{	// allocate array with _Capacity elements

	push	ebp
	mov	ebp, esp
	push	ecx
	mov	DWORD PTR _this$[ebp], ecx

; 1103 : 		_Myfirst = 0, _Mylast = 0, _Myend = 0;

	mov	eax, DWORD PTR _this$[ebp]
	mov	DWORD PTR [eax+12], 0
	mov	ecx, DWORD PTR _this$[ebp]
	mov	DWORD PTR [ecx+16], 0
	mov	edx, DWORD PTR _this$[ebp]
	mov	DWORD PTR [edx+20], 0

; 1104 : 		if (_Capacity == 0)

	cmp	DWORD PTR __Capacity$[ebp], 0
	jne	SHORT $LN4@Buy@2

; 1105 : 			return (false);

	xor	al, al
	jmp	SHORT $LN5@Buy@2
	jmp	SHORT $LN3@Buy@2
$LN4@Buy@2:

; 1106 : 		else if (max_size() < _Capacity)

	mov	ecx, DWORD PTR _this$[ebp]
	call	?max_size@?$vector@PAVSurfaceData@Ogre@@V?$allocator@PAVSurfaceData@Ogre@@@std@@@std@@QBEIXZ ; std::vector<Ogre::SurfaceData *,std::allocator<Ogre::SurfaceData *> >::max_size
	cmp	eax, DWORD PTR __Capacity$[ebp]
	jae	SHORT $LN2@Buy@2

; 1107 : 			_Xlen();	// result too long

	call	?_Xlen@?$vector@PAVSurfaceData@Ogre@@V?$allocator@PAVSurfaceData@Ogre@@@std@@@std@@KAXXZ ; std::vector<Ogre::SurfaceData *,std::allocator<Ogre::SurfaceData *> >::_Xlen

; 1108 : 		else

	jmp	SHORT $LN3@Buy@2
$LN2@Buy@2:

; 1109 : 			{	// nonempty array, allocate storage
; 1110 : 			_Myfirst = this->_Alval.allocate(_Capacity);

	mov	eax, DWORD PTR __Capacity$[ebp]
	push	eax
	mov	ecx, DWORD PTR _this$[ebp]
	add	ecx, 8
	call	?allocate@?$allocator@PAVSurfaceData@Ogre@@@std@@QAEPAPAVSurfaceData@Ogre@@I@Z ; std::allocator<Ogre::SurfaceData *>::allocate
	mov	ecx, DWORD PTR _this$[ebp]
	mov	DWORD PTR [ecx+12], eax

; 1111 : 			_Mylast = _Myfirst;

	mov	edx, DWORD PTR _this$[ebp]
	mov	eax, DWORD PTR _this$[ebp]
	mov	ecx, DWORD PTR [eax+12]
	mov	DWORD PTR [edx+16], ecx

; 1112 : 			_Myend = _Myfirst + _Capacity;

	mov	edx, DWORD PTR _this$[ebp]
	mov	eax, DWORD PTR [edx+12]
	mov	ecx, DWORD PTR __Capacity$[ebp]
	lea	edx, DWORD PTR [eax+ecx*4]
	mov	eax, DWORD PTR _this$[ebp]
	mov	DWORD PTR [eax+20], edx
$LN3@Buy@2:

; 1113 : 			}
; 1114 : 		return (true);

	mov	al, 1
$LN5@Buy@2:

; 1115 : 		}

	mov	esp, ebp
	pop	ebp
	ret	4
?_Buy@?$vector@PAVSurfaceData@Ogre@@V?$allocator@PAVSurfaceData@Ogre@@@std@@@std@@IAE_NI@Z ENDP ; std::vector<Ogre::SurfaceData *,std::allocator<Ogre::SurfaceData *> >::_Buy
_TEXT	ENDS
PUBLIC	??$_Destroy_range@V?$allocator@PAVSurfaceData@Ogre@@@std@@@std@@YAXPAPAVSurfaceData@Ogre@@0AAV?$allocator@PAVSurfaceData@Ogre@@@0@@Z ; std::_Destroy_range<std::allocator<Ogre::SurfaceData *> >
; Function compile flags: /Odtp
;	COMDAT ?_Destroy@?$vector@PAVSurfaceData@Ogre@@V?$allocator@PAVSurfaceData@Ogre@@@std@@@std@@IAEXPAPAVSurfaceData@Ogre@@0@Z
_TEXT	SEGMENT
_this$ = -4						; size = 4
__First$ = 8						; size = 4
__Last$ = 12						; size = 4
?_Destroy@?$vector@PAVSurfaceData@Ogre@@V?$allocator@PAVSurfaceData@Ogre@@@std@@@std@@IAEXPAPAVSurfaceData@Ogre@@0@Z PROC ; std::vector<Ogre::SurfaceData *,std::allocator<Ogre::SurfaceData *> >::_Destroy, COMDAT
; _this$ = ecx

; 1118 : 		{	// destroy [_First, _Last) using allocator

	push	ebp
	mov	ebp, esp
	push	ecx
	mov	DWORD PTR _this$[ebp], ecx

; 1119 : 		_Destroy_range(_First, _Last, this->_Alval);

	mov	eax, DWORD PTR _this$[ebp]
	add	eax, 8
	push	eax
	mov	ecx, DWORD PTR __Last$[ebp]
	push	ecx
	mov	edx, DWORD PTR __First$[ebp]
	push	edx
	call	??$_Destroy_range@V?$allocator@PAVSurfaceData@Ogre@@@std@@@std@@YAXPAPAVSurfaceData@Ogre@@0AAV?$allocator@PAVSurfaceData@Ogre@@@0@@Z ; std::_Destroy_range<std::allocator<Ogre::SurfaceData *> >
	add	esp, 12					; 0000000cH

; 1120 : 		}

	mov	esp, ebp
	pop	ebp
	ret	8
?_Destroy@?$vector@PAVSurfaceData@Ogre@@V?$allocator@PAVSurfaceData@Ogre@@@std@@@std@@IAEXPAPAVSurfaceData@Ogre@@0@Z ENDP ; std::vector<Ogre::SurfaceData *,std::allocator<Ogre::SurfaceData *> >::_Destroy
; Function compile flags: /Odtp
_TEXT	ENDS
;	COMDAT ?_Tidy@?$vector@PAVSurfaceData@Ogre@@V?$allocator@PAVSurfaceData@Ogre@@@std@@@std@@IAEXXZ
_TEXT	SEGMENT
_this$ = -4						; size = 4
?_Tidy@?$vector@PAVSurfaceData@Ogre@@V?$allocator@PAVSurfaceData@Ogre@@@std@@@std@@IAEXXZ PROC ; std::vector<Ogre::SurfaceData *,std::allocator<Ogre::SurfaceData *> >::_Tidy, COMDAT
; _this$ = ecx

; 1123 : 		{	// free all storage

	push	ebp
	mov	ebp, esp
	push	ecx
	mov	DWORD PTR _this$[ebp], ecx

; 1124 : 		if (_Myfirst != 0)

	mov	eax, DWORD PTR _this$[ebp]
	cmp	DWORD PTR [eax+12], 0
	je	SHORT $LN1@Tidy@2

; 1125 : 			{	// something to free, destroy and deallocate it
; 1126 : 
; 1127 :  #if _HAS_ITERATOR_DEBUGGING
; 1128 : 			this->_Orphan_all();
; 1129 :  #endif /* _HAS_ITERATOR_DEBUGGING */
; 1130 : 
; 1131 : 			_Destroy(_Myfirst, _Mylast);

	mov	ecx, DWORD PTR _this$[ebp]
	mov	edx, DWORD PTR [ecx+16]
	push	edx
	mov	eax, DWORD PTR _this$[ebp]
	mov	ecx, DWORD PTR [eax+12]
	push	ecx
	mov	ecx, DWORD PTR _this$[ebp]
	call	?_Destroy@?$vector@PAVSurfaceData@Ogre@@V?$allocator@PAVSurfaceData@Ogre@@@std@@@std@@IAEXPAPAVSurfaceData@Ogre@@0@Z ; std::vector<Ogre::SurfaceData *,std::allocator<Ogre::SurfaceData *> >::_Destroy

; 1132 : 			this->_Alval.deallocate(_Myfirst, _Myend - _Myfirst);

	mov	edx, DWORD PTR _this$[ebp]
	mov	eax, DWORD PTR _this$[ebp]
	mov	ecx, DWORD PTR [edx+20]
	sub	ecx, DWORD PTR [eax+12]
	sar	ecx, 2
	push	ecx
	mov	edx, DWORD PTR _this$[ebp]
	mov	eax, DWORD PTR [edx+12]
	push	eax
	mov	ecx, DWORD PTR _this$[ebp]
	add	ecx, 8
	call	?deallocate@?$allocator@PAVSurfaceData@Ogre@@@std@@QAEXPAPAVSurfaceData@Ogre@@I@Z ; std::allocator<Ogre::SurfaceData *>::deallocate
$LN1@Tidy@2:

; 1133 : 			}
; 1134 : 		_Myfirst = 0, _Mylast = 0, _Myend = 0;

	mov	ecx, DWORD PTR _this$[ebp]
	mov	DWORD PTR [ecx+12], 0
	mov	edx, DWORD PTR _this$[ebp]
	mov	DWORD PTR [edx+16], 0
	mov	eax, DWORD PTR _this$[ebp]
	mov	DWORD PTR [eax+20], 0

; 1135 : 		}

	mov	esp, ebp
	pop	ebp
	ret	0
?_Tidy@?$vector@PAVSurfaceData@Ogre@@V?$allocator@PAVSurfaceData@Ogre@@@std@@@std@@IAEXXZ ENDP ; std::vector<Ogre::SurfaceData *,std::allocator<Ogre::SurfaceData *> >::_Tidy
_TEXT	ENDS
PUBLIC	??0?$_Container_base_aux_alloc_real@V?$allocator@PAVSurfaceData@Ogre@@@std@@@std@@IAE@V?$allocator@PAVSurfaceData@Ogre@@@1@@Z ; std::_Container_base_aux_alloc_real<std::allocator<Ogre::SurfaceData *> >::_Container_base_aux_alloc_real<std::allocator<Ogre::SurfaceData *> >
;	COMDAT xdata$x
xdata$x	SEGMENT
__unwindtable$??0?$_Vector_val@PAVSurfaceData@Ogre@@V?$allocator@PAVSurfaceData@Ogre@@@std@@@std@@IAE@V?$allocator@PAVSurfaceData@Ogre@@@1@@Z DD 0ffffffffH
	DD	FLAT:__unwindfunclet$??0?$_Vector_val@PAVSurfaceData@Ogre@@V?$allocator@PAVSurfaceData@Ogre@@@std@@@std@@IAE@V?$allocator@PAVSurfaceData@Ogre@@@1@@Z$0
__ehfuncinfo$??0?$_Vector_val@PAVSurfaceData@Ogre@@V?$allocator@PAVSurfaceData@Ogre@@@std@@@std@@IAE@V?$allocator@PAVSurfaceData@Ogre@@@1@@Z DD 019930522H
	DD	01H
	DD	FLAT:__unwindtable$??0?$_Vector_val@PAVSurfaceData@Ogre@@V?$allocator@PAVSurfaceData@Ogre@@@std@@@std@@IAE@V?$allocator@PAVSurfaceData@Ogre@@@1@@Z
	DD	2 DUP(00H)
	DD	2 DUP(00H)
	DD	00H
	DD	00H
; Function compile flags: /Odtp
xdata$x	ENDS
;	COMDAT ??0?$_Vector_val@PAVSurfaceData@Ogre@@V?$allocator@PAVSurfaceData@Ogre@@@std@@@std@@IAE@V?$allocator@PAVSurfaceData@Ogre@@@1@@Z
_TEXT	SEGMENT
_this$ = -20						; size = 4
$T68162 = -16						; size = 4
__$EHRec$ = -12						; size = 12
__Al$ = 8						; size = 1
??0?$_Vector_val@PAVSurfaceData@Ogre@@V?$allocator@PAVSurfaceData@Ogre@@@std@@@std@@IAE@V?$allocator@PAVSurfaceData@Ogre@@@1@@Z PROC ; std::_Vector_val<Ogre::SurfaceData *,std::allocator<Ogre::SurfaceData *> >::_Vector_val<Ogre::SurfaceData *,std::allocator<Ogre::SurfaceData *> >, COMDAT
; _this$ = ecx

; 425  : 		{	// construct allocator from _Al

	push	ebp
	mov	ebp, esp
	push	-1
	push	__ehhandler$??0?$_Vector_val@PAVSurfaceData@Ogre@@V?$allocator@PAVSurfaceData@Ogre@@@std@@@std@@IAE@V?$allocator@PAVSurfaceData@Ogre@@@1@@Z
	mov	eax, DWORD PTR fs:0
	push	eax
	sub	esp, 8
	mov	eax, DWORD PTR ___security_cookie
	xor	eax, ebp
	push	eax
	lea	eax, DWORD PTR __$EHRec$[ebp]
	mov	DWORD PTR fs:0, eax
	mov	DWORD PTR _this$[ebp], ecx
	push	ecx
	mov	ecx, esp
	mov	DWORD PTR $T68162[ebp], esp
	lea	eax, DWORD PTR __Al$[ebp]
	push	eax
	call	??0?$allocator@PAVSurfaceData@Ogre@@@std@@QAE@ABV01@@Z ; std::allocator<Ogre::SurfaceData *>::allocator<Ogre::SurfaceData *>
	mov	ecx, DWORD PTR _this$[ebp]
	call	??0?$_Container_base_aux_alloc_real@V?$allocator@PAVSurfaceData@Ogre@@@std@@@std@@IAE@V?$allocator@PAVSurfaceData@Ogre@@@1@@Z ; std::_Container_base_aux_alloc_real<std::allocator<Ogre::SurfaceData *> >::_Container_base_aux_alloc_real<std::allocator<Ogre::SurfaceData *> >
	mov	DWORD PTR __$EHRec$[ebp+8], 0
	lea	ecx, DWORD PTR __Al$[ebp]
	push	ecx
	mov	ecx, DWORD PTR _this$[ebp]
	add	ecx, 8
	call	??0?$allocator@PAVSurfaceData@Ogre@@@std@@QAE@ABV01@@Z ; std::allocator<Ogre::SurfaceData *>::allocator<Ogre::SurfaceData *>

; 426  : 		}

	mov	DWORD PTR __$EHRec$[ebp+8], -1
	mov	eax, DWORD PTR _this$[ebp]
	mov	ecx, DWORD PTR __$EHRec$[ebp]
	mov	DWORD PTR fs:0, ecx
	pop	ecx
	mov	esp, ebp
	pop	ebp
	ret	4
_TEXT	ENDS
;	COMDAT text$x
text$x	SEGMENT
__unwindfunclet$??0?$_Vector_val@PAVSurfaceData@Ogre@@V?$allocator@PAVSurfaceData@Ogre@@@std@@@std@@IAE@V?$allocator@PAVSurfaceData@Ogre@@@1@@Z$0:
	mov	ecx, DWORD PTR _this$[ebp]
	jmp	??1?$_Container_base_aux_alloc_real@V?$allocator@PAVSurfaceData@Ogre@@@std@@@std@@IAE@XZ ; std::_Container_base_aux_alloc_real<std::allocator<Ogre::SurfaceData *> >::~_Container_base_aux_alloc_real<std::allocator<Ogre::SurfaceData *> >
__ehhandler$??0?$_Vector_val@PAVSurfaceData@Ogre@@V?$allocator@PAVSurfaceData@Ogre@@@std@@@std@@IAE@V?$allocator@PAVSurfaceData@Ogre@@@1@@Z:
	mov	edx, DWORD PTR [esp+8]
	lea	eax, DWORD PTR [edx+12]
	mov	ecx, DWORD PTR [edx-12]
	xor	ecx, eax
	call	@__security_check_cookie@4
	mov	eax, OFFSET __ehfuncinfo$??0?$_Vector_val@PAVSurfaceData@Ogre@@V?$allocator@PAVSurfaceData@Ogre@@@std@@@std@@IAE@V?$allocator@PAVSurfaceData@Ogre@@@1@@Z
	jmp	___CxxFrameHandler3
text$x	ENDS
??0?$_Vector_val@PAVSurfaceData@Ogre@@V?$allocator@PAVSurfaceData@Ogre@@@std@@@std@@IAE@V?$allocator@PAVSurfaceData@Ogre@@@1@@Z ENDP ; std::_Vector_val<Ogre::SurfaceData *,std::allocator<Ogre::SurfaceData *> >::_Vector_val<Ogre::SurfaceData *,std::allocator<Ogre::SurfaceData *> >
;	COMDAT xdata$x
; File d:\program files (x86)\microsoft visual studio 9.0\vc\include\xutility
xdata$x	SEGMENT
__unwindtable$??1?$_Container_base_aux_alloc_real@V?$allocator@PAVSurfaceData@Ogre@@@std@@@std@@IAE@XZ DD 0ffffffffH
	DD	FLAT:__unwindfunclet$??1?$_Container_base_aux_alloc_real@V?$allocator@PAVSurfaceData@Ogre@@@std@@@std@@IAE@XZ$0
__ehfuncinfo$??1?$_Container_base_aux_alloc_real@V?$allocator@PAVSurfaceData@Ogre@@@std@@@std@@IAE@XZ DD 019930522H
	DD	01H
	DD	FLAT:__unwindtable$??1?$_Container_base_aux_alloc_real@V?$allocator@PAVSurfaceData@Ogre@@@std@@@std@@IAE@XZ
	DD	2 DUP(00H)
	DD	2 DUP(00H)
	DD	00H
	DD	00H
; Function compile flags: /Odtp
xdata$x	ENDS
;	COMDAT ??1?$_Container_base_aux_alloc_real@V?$allocator@PAVSurfaceData@Ogre@@@std@@@std@@IAE@XZ
_TEXT	SEGMENT
_this$ = -16						; size = 4
__$EHRec$ = -12						; size = 12
??1?$_Container_base_aux_alloc_real@V?$allocator@PAVSurfaceData@Ogre@@@std@@@std@@IAE@XZ PROC ; std::_Container_base_aux_alloc_real<std::allocator<Ogre::SurfaceData *> >::~_Container_base_aux_alloc_real<std::allocator<Ogre::SurfaceData *> >, COMDAT
; _this$ = ecx

; 436  : 		{

	push	ebp
	mov	ebp, esp
	push	-1
	push	__ehhandler$??1?$_Container_base_aux_alloc_real@V?$allocator@PAVSurfaceData@Ogre@@@std@@@std@@IAE@XZ
	mov	eax, DWORD PTR fs:0
	push	eax
	push	ecx
	mov	eax, DWORD PTR ___security_cookie
	xor	eax, ebp
	push	eax
	lea	eax, DWORD PTR __$EHRec$[ebp]
	mov	DWORD PTR fs:0, eax
	mov	DWORD PTR _this$[ebp], ecx
	mov	DWORD PTR __$EHRec$[ebp+8], 0

; 437  : 		_Myownedaux->~_Aux_cont();
; 438  : 
; 439  : 		_Alaux.deallocate(_Myownedaux, 1);

	push	1
	mov	eax, DWORD PTR _this$[ebp]
	mov	ecx, DWORD PTR [eax]
	push	ecx
	mov	ecx, DWORD PTR _this$[ebp]
	add	ecx, 4
	call	?deallocate@?$allocator@V_Aux_cont@std@@@std@@QAEXPAV_Aux_cont@2@I@Z ; std::allocator<std::_Aux_cont>::deallocate

; 440  : 		}

	mov	DWORD PTR __$EHRec$[ebp+8], -1
	mov	ecx, DWORD PTR _this$[ebp]
	call	??1_Container_base_aux@std@@QAE@XZ	; std::_Container_base_aux::~_Container_base_aux
	mov	ecx, DWORD PTR __$EHRec$[ebp]
	mov	DWORD PTR fs:0, ecx
	pop	ecx
	mov	esp, ebp
	pop	ebp
	ret	0
_TEXT	ENDS
;	COMDAT text$x
text$x	SEGMENT
__unwindfunclet$??1?$_Container_base_aux_alloc_real@V?$allocator@PAVSurfaceData@Ogre@@@std@@@std@@IAE@XZ$0:
	mov	ecx, DWORD PTR _this$[ebp]
	jmp	??1_Container_base_aux@std@@QAE@XZ	; std::_Container_base_aux::~_Container_base_aux
__ehhandler$??1?$_Container_base_aux_alloc_real@V?$allocator@PAVSurfaceData@Ogre@@@std@@@std@@IAE@XZ:
	mov	edx, DWORD PTR [esp+8]
	lea	eax, DWORD PTR [edx+12]
	mov	ecx, DWORD PTR [edx-8]
	xor	ecx, eax
	call	@__security_check_cookie@4
	mov	eax, OFFSET __ehfuncinfo$??1?$_Container_base_aux_alloc_real@V?$allocator@PAVSurfaceData@Ogre@@@std@@@std@@IAE@XZ
	jmp	___CxxFrameHandler3
text$x	ENDS
??1?$_Container_base_aux_alloc_real@V?$allocator@PAVSurfaceData@Ogre@@@std@@@std@@IAE@XZ ENDP ; std::_Container_base_aux_alloc_real<std::allocator<Ogre::SurfaceData *> >::~_Container_base_aux_alloc_real<std::allocator<Ogre::SurfaceData *> >
; Function compile flags: /Odtp
; File d:\program files (x86)\microsoft visual studio 9.0\vc\include\xmemory
;	COMDAT ??0?$allocator@PAVSurfaceData@Ogre@@@std@@QAE@ABV01@@Z
_TEXT	SEGMENT
_this$ = -4						; size = 4
___formal$ = 8						; size = 4
??0?$allocator@PAVSurfaceData@Ogre@@@std@@QAE@ABV01@@Z PROC ; std::allocator<Ogre::SurfaceData *>::allocator<Ogre::SurfaceData *>, COMDAT
; _this$ = ecx

; 123  : 	allocator(const allocator<_Ty>&) _THROW0()

	push	ebp
	mov	ebp, esp
	push	ecx
	mov	DWORD PTR _this$[ebp], ecx

; 124  : 		{	// construct by copying (do nothing)
; 125  : 		}

	mov	eax, DWORD PTR _this$[ebp]
	mov	esp, ebp
	pop	ebp
	ret	4
??0?$allocator@PAVSurfaceData@Ogre@@@std@@QAE@ABV01@@Z ENDP ; std::allocator<Ogre::SurfaceData *>::allocator<Ogre::SurfaceData *>
; Function compile flags: /Odtp
_TEXT	ENDS
;	COMDAT ?deallocate@?$allocator@PAVSurfaceData@Ogre@@@std@@QAEXPAPAVSurfaceData@Ogre@@I@Z
_TEXT	SEGMENT
_this$ = -4						; size = 4
__Ptr$ = 8						; size = 4
___formal$ = 12						; size = 4
?deallocate@?$allocator@PAVSurfaceData@Ogre@@@std@@QAEXPAPAVSurfaceData@Ogre@@I@Z PROC ; std::allocator<Ogre::SurfaceData *>::deallocate, COMDAT
; _this$ = ecx

; 139  : 		{	// deallocate object at _Ptr, ignore size

	push	ebp
	mov	ebp, esp
	push	ecx
	mov	DWORD PTR _this$[ebp], ecx

; 140  : 		::operator delete(_Ptr);

	mov	eax, DWORD PTR __Ptr$[ebp]
	push	eax
	call	??3@YAXPAX@Z				; operator delete
	add	esp, 4

; 141  : 		}

	mov	esp, ebp
	pop	ebp
	ret	8
?deallocate@?$allocator@PAVSurfaceData@Ogre@@@std@@QAEXPAPAVSurfaceData@Ogre@@I@Z ENDP ; std::allocator<Ogre::SurfaceData *>::deallocate
; Function compile flags: /Odtp
; File d:\program files (x86)\microsoft visual studio 9.0\vc\include\vector
_TEXT	ENDS
;	COMDAT ?capacity@?$vector@VVector3@Ogre@@V?$allocator@VVector3@Ogre@@@std@@@std@@QBEIXZ
_TEXT	SEGMENT
tv70 = -8						; size = 4
_this$ = -4						; size = 4
?capacity@?$vector@VVector3@Ogre@@V?$allocator@VVector3@Ogre@@@std@@@std@@QBEIXZ PROC ; std::vector<Ogre::Vector3,std::allocator<Ogre::Vector3> >::capacity, COMDAT
; _this$ = ecx

; 634  : 		{	// return current length of allocated storage

	push	ebp
	mov	ebp, esp
	sub	esp, 8
	mov	DWORD PTR _this$[ebp], ecx

; 635  : 		return (_Myfirst == 0 ? 0 : _Myend - _Myfirst);

	mov	eax, DWORD PTR _this$[ebp]
	cmp	DWORD PTR [eax+12], 0
	jne	SHORT $LN3@capacity@3
	mov	DWORD PTR tv70[ebp], 0
	jmp	SHORT $LN4@capacity@3
$LN3@capacity@3:
	mov	ecx, DWORD PTR _this$[ebp]
	mov	edx, DWORD PTR _this$[ebp]
	mov	eax, DWORD PTR [ecx+20]
	sub	eax, DWORD PTR [edx+12]
	cdq
	mov	ecx, 12					; 0000000cH
	idiv	ecx
	mov	DWORD PTR tv70[ebp], eax
$LN4@capacity@3:
	mov	eax, DWORD PTR tv70[ebp]

; 636  : 		}

	mov	esp, ebp
	pop	ebp
	ret	0
?capacity@?$vector@VVector3@Ogre@@V?$allocator@VVector3@Ogre@@@std@@@std@@QBEIXZ ENDP ; std::vector<Ogre::Vector3,std::allocator<Ogre::Vector3> >::capacity
_TEXT	ENDS
PUBLIC	??0?$_Vector_const_iterator@VVector3@Ogre@@V?$allocator@VVector3@Ogre@@@std@@@std@@QAE@PAVVector3@Ogre@@PBV_Container_base_aux@1@@Z ; std::_Vector_const_iterator<Ogre::Vector3,std::allocator<Ogre::Vector3> >::_Vector_const_iterator<Ogre::Vector3,std::allocator<Ogre::Vector3> >
; Function compile flags: /Odtp
;	COMDAT ?begin@?$vector@VVector3@Ogre@@V?$allocator@VVector3@Ogre@@@std@@@std@@QBE?AV?$_Vector_const_iterator@VVector3@Ogre@@V?$allocator@VVector3@Ogre@@@std@@@2@XZ
_TEXT	SEGMENT
_this$ = -4						; size = 4
___$ReturnUdt$ = 8					; size = 4
?begin@?$vector@VVector3@Ogre@@V?$allocator@VVector3@Ogre@@@std@@@std@@QBE?AV?$_Vector_const_iterator@VVector3@Ogre@@V?$allocator@VVector3@Ogre@@@std@@@2@XZ PROC ; std::vector<Ogre::Vector3,std::allocator<Ogre::Vector3> >::begin, COMDAT
; _this$ = ecx

; 645  : 		{	// return iterator for beginning of nonmutable sequence

	push	ebp
	mov	ebp, esp
	push	ecx
	mov	DWORD PTR _this$[ebp], ecx

; 646  : 		return (const_iterator(_Myfirst, this));

	mov	eax, DWORD PTR _this$[ebp]
	push	eax
	mov	ecx, DWORD PTR _this$[ebp]
	mov	edx, DWORD PTR [ecx+12]
	push	edx
	mov	ecx, DWORD PTR ___$ReturnUdt$[ebp]
	call	??0?$_Vector_const_iterator@VVector3@Ogre@@V?$allocator@VVector3@Ogre@@@std@@@std@@QAE@PAVVector3@Ogre@@PBV_Container_base_aux@1@@Z ; std::_Vector_const_iterator<Ogre::Vector3,std::allocator<Ogre::Vector3> >::_Vector_const_iterator<Ogre::Vector3,std::allocator<Ogre::Vector3> >
	mov	eax, DWORD PTR ___$ReturnUdt$[ebp]

; 647  : 		}

	mov	esp, ebp
	pop	ebp
	ret	4
?begin@?$vector@VVector3@Ogre@@V?$allocator@VVector3@Ogre@@@std@@@std@@QBE?AV?$_Vector_const_iterator@VVector3@Ogre@@V?$allocator@VVector3@Ogre@@@std@@@2@XZ ENDP ; std::vector<Ogre::Vector3,std::allocator<Ogre::Vector3> >::begin
; Function compile flags: /Odtp
_TEXT	ENDS
;	COMDAT ?end@?$vector@VVector3@Ogre@@V?$allocator@VVector3@Ogre@@@std@@@std@@QBE?AV?$_Vector_const_iterator@VVector3@Ogre@@V?$allocator@VVector3@Ogre@@@std@@@2@XZ
_TEXT	SEGMENT
_this$ = -4						; size = 4
___$ReturnUdt$ = 8					; size = 4
?end@?$vector@VVector3@Ogre@@V?$allocator@VVector3@Ogre@@@std@@@std@@QBE?AV?$_Vector_const_iterator@VVector3@Ogre@@V?$allocator@VVector3@Ogre@@@std@@@2@XZ PROC ; std::vector<Ogre::Vector3,std::allocator<Ogre::Vector3> >::end, COMDAT
; _this$ = ecx

; 655  : 		{	// return iterator for end of nonmutable sequence

	push	ebp
	mov	ebp, esp
	push	ecx
	mov	DWORD PTR _this$[ebp], ecx

; 656  : 		return (const_iterator(_Mylast, this));

	mov	eax, DWORD PTR _this$[ebp]
	push	eax
	mov	ecx, DWORD PTR _this$[ebp]
	mov	edx, DWORD PTR [ecx+16]
	push	edx
	mov	ecx, DWORD PTR ___$ReturnUdt$[ebp]
	call	??0?$_Vector_const_iterator@VVector3@Ogre@@V?$allocator@VVector3@Ogre@@@std@@@std@@QAE@PAVVector3@Ogre@@PBV_Container_base_aux@1@@Z ; std::_Vector_const_iterator<Ogre::Vector3,std::allocator<Ogre::Vector3> >::_Vector_const_iterator<Ogre::Vector3,std::allocator<Ogre::Vector3> >
	mov	eax, DWORD PTR ___$ReturnUdt$[ebp]

; 657  : 		}

	mov	esp, ebp
	pop	ebp
	ret	4
?end@?$vector@VVector3@Ogre@@V?$allocator@VVector3@Ogre@@@std@@@std@@QBE?AV?$_Vector_const_iterator@VVector3@Ogre@@V?$allocator@VVector3@Ogre@@@std@@@2@XZ ENDP ; std::vector<Ogre::Vector3,std::allocator<Ogre::Vector3> >::end
; Function compile flags: /Odtp
_TEXT	ENDS
;	COMDAT ?size@?$vector@VVector3@Ogre@@V?$allocator@VVector3@Ogre@@@std@@@std@@QBEIXZ
_TEXT	SEGMENT
_this$ = -4						; size = 4
?size@?$vector@VVector3@Ogre@@V?$allocator@VVector3@Ogre@@@std@@@std@@QBEIXZ PROC ; std::vector<Ogre::Vector3,std::allocator<Ogre::Vector3> >::size, COMDAT
; _this$ = ecx

; 725  : 		{	// return length of sequence

	push	ebp
	mov	ebp, esp
	push	ecx
	mov	DWORD PTR _this$[ebp], ecx

; 726  : 		return (_Mylast - _Myfirst);

	mov	eax, DWORD PTR _this$[ebp]
	mov	ecx, DWORD PTR _this$[ebp]
	mov	eax, DWORD PTR [eax+16]
	sub	eax, DWORD PTR [ecx+12]
	cdq
	mov	ecx, 12					; 0000000cH
	idiv	ecx

; 727  : 		}

	mov	esp, ebp
	pop	ebp
	ret	0
?size@?$vector@VVector3@Ogre@@V?$allocator@VVector3@Ogre@@@std@@@std@@QBEIXZ ENDP ; std::vector<Ogre::Vector3,std::allocator<Ogre::Vector3> >::size
_TEXT	ENDS
PUBLIC	?erase@?$vector@VVector3@Ogre@@V?$allocator@VVector3@Ogre@@@std@@@std@@QAE?AV?$_Vector_iterator@VVector3@Ogre@@V?$allocator@VVector3@Ogre@@@std@@@2@V?$_Vector_const_iterator@VVector3@Ogre@@V?$allocator@VVector3@Ogre@@@std@@@2@0@Z ; std::vector<Ogre::Vector3,std::allocator<Ogre::Vector3> >::erase
PUBLIC	?begin@?$vector@VVector3@Ogre@@V?$allocator@VVector3@Ogre@@@std@@@std@@QAE?AV?$_Vector_iterator@VVector3@Ogre@@V?$allocator@VVector3@Ogre@@@std@@@2@XZ ; std::vector<Ogre::Vector3,std::allocator<Ogre::Vector3> >::begin
PUBLIC	?end@?$vector@VVector3@Ogre@@V?$allocator@VVector3@Ogre@@@std@@@std@@QAE?AV?$_Vector_iterator@VVector3@Ogre@@V?$allocator@VVector3@Ogre@@@std@@@2@XZ ; std::vector<Ogre::Vector3,std::allocator<Ogre::Vector3> >::end
; Function compile flags: /Odtp
;	COMDAT ?clear@?$vector@VVector3@Ogre@@V?$allocator@VVector3@Ogre@@@std@@@std@@QAEXXZ
_TEXT	SEGMENT
_this$ = -44						; size = 4
$T68199 = -40						; size = 8
$T68198 = -32						; size = 8
$T68197 = -24						; size = 8
$T68196 = -16						; size = 8
$T68195 = -8						; size = 8
?clear@?$vector@VVector3@Ogre@@V?$allocator@VVector3@Ogre@@@std@@@std@@QAEXXZ PROC ; std::vector<Ogre::Vector3,std::allocator<Ogre::Vector3> >::clear, COMDAT
; _this$ = ecx

; 1059 : 		{	// erase all

	push	ebp
	mov	ebp, esp
	sub	esp, 44					; 0000002cH
	mov	DWORD PTR _this$[ebp], ecx

; 1060 : 		erase(begin(), end());

	lea	eax, DWORD PTR $T68196[ebp]
	push	eax
	mov	ecx, DWORD PTR _this$[ebp]
	call	?end@?$vector@VVector3@Ogre@@V?$allocator@VVector3@Ogre@@@std@@@std@@QAE?AV?$_Vector_iterator@VVector3@Ogre@@V?$allocator@VVector3@Ogre@@@std@@@2@XZ ; std::vector<Ogre::Vector3,std::allocator<Ogre::Vector3> >::end
	mov	ecx, DWORD PTR [eax]
	mov	edx, DWORD PTR [eax+4]
	mov	DWORD PTR $T68195[ebp], ecx
	mov	DWORD PTR $T68195[ebp+4], edx
	lea	eax, DWORD PTR $T68198[ebp]
	push	eax
	mov	ecx, DWORD PTR _this$[ebp]
	call	?begin@?$vector@VVector3@Ogre@@V?$allocator@VVector3@Ogre@@@std@@@std@@QAE?AV?$_Vector_iterator@VVector3@Ogre@@V?$allocator@VVector3@Ogre@@@std@@@2@XZ ; std::vector<Ogre::Vector3,std::allocator<Ogre::Vector3> >::begin
	mov	ecx, DWORD PTR [eax]
	mov	edx, DWORD PTR [eax+4]
	mov	DWORD PTR $T68197[ebp], ecx
	mov	DWORD PTR $T68197[ebp+4], edx
	mov	eax, DWORD PTR $T68195[ebp+4]
	push	eax
	mov	ecx, DWORD PTR $T68195[ebp]
	push	ecx
	mov	edx, DWORD PTR $T68197[ebp+4]
	push	edx
	mov	eax, DWORD PTR $T68197[ebp]
	push	eax
	lea	ecx, DWORD PTR $T68199[ebp]
	push	ecx
	mov	ecx, DWORD PTR _this$[ebp]
	call	?erase@?$vector@VVector3@Ogre@@V?$allocator@VVector3@Ogre@@@std@@@std@@QAE?AV?$_Vector_iterator@VVector3@Ogre@@V?$allocator@VVector3@Ogre@@@std@@@2@V?$_Vector_const_iterator@VVector3@Ogre@@V?$allocator@VVector3@Ogre@@@std@@@2@0@Z ; std::vector<Ogre::Vector3,std::allocator<Ogre::Vector3> >::erase

; 1061 : 		}

	mov	esp, ebp
	pop	ebp
	ret	0
?clear@?$vector@VVector3@Ogre@@V?$allocator@VVector3@Ogre@@@std@@@std@@QAEXXZ ENDP ; std::vector<Ogre::Vector3,std::allocator<Ogre::Vector3> >::clear
_TEXT	ENDS
PUBLIC	?allocate@?$allocator@VVector3@Ogre@@@std@@QAEPAVVector3@Ogre@@I@Z ; std::allocator<Ogre::Vector3>::allocate
PUBLIC	?_Xlen@?$vector@VVector3@Ogre@@V?$allocator@VVector3@Ogre@@@std@@@std@@KAXXZ ; std::vector<Ogre::Vector3,std::allocator<Ogre::Vector3> >::_Xlen
PUBLIC	?max_size@?$vector@VVector3@Ogre@@V?$allocator@VVector3@Ogre@@@std@@@std@@QBEIXZ ; std::vector<Ogre::Vector3,std::allocator<Ogre::Vector3> >::max_size
; Function compile flags: /Odtp
;	COMDAT ?_Buy@?$vector@VVector3@Ogre@@V?$allocator@VVector3@Ogre@@@std@@@std@@IAE_NI@Z
_TEXT	SEGMENT
_this$ = -4						; size = 4
__Capacity$ = 8						; size = 4
?_Buy@?$vector@VVector3@Ogre@@V?$allocator@VVector3@Ogre@@@std@@@std@@IAE_NI@Z PROC ; std::vector<Ogre::Vector3,std::allocator<Ogre::Vector3> >::_Buy, COMDAT
; _this$ = ecx

; 1102 : 		{	// allocate array with _Capacity elements

	push	ebp
	mov	ebp, esp
	push	ecx
	mov	DWORD PTR _this$[ebp], ecx

; 1103 : 		_Myfirst = 0, _Mylast = 0, _Myend = 0;

	mov	eax, DWORD PTR _this$[ebp]
	mov	DWORD PTR [eax+12], 0
	mov	ecx, DWORD PTR _this$[ebp]
	mov	DWORD PTR [ecx+16], 0
	mov	edx, DWORD PTR _this$[ebp]
	mov	DWORD PTR [edx+20], 0

; 1104 : 		if (_Capacity == 0)

	cmp	DWORD PTR __Capacity$[ebp], 0
	jne	SHORT $LN4@Buy@3

; 1105 : 			return (false);

	xor	al, al
	jmp	SHORT $LN5@Buy@3
	jmp	SHORT $LN3@Buy@3
$LN4@Buy@3:

; 1106 : 		else if (max_size() < _Capacity)

	mov	ecx, DWORD PTR _this$[ebp]
	call	?max_size@?$vector@VVector3@Ogre@@V?$allocator@VVector3@Ogre@@@std@@@std@@QBEIXZ ; std::vector<Ogre::Vector3,std::allocator<Ogre::Vector3> >::max_size
	cmp	eax, DWORD PTR __Capacity$[ebp]
	jae	SHORT $LN2@Buy@3

; 1107 : 			_Xlen();	// result too long

	call	?_Xlen@?$vector@VVector3@Ogre@@V?$allocator@VVector3@Ogre@@@std@@@std@@KAXXZ ; std::vector<Ogre::Vector3,std::allocator<Ogre::Vector3> >::_Xlen

; 1108 : 		else

	jmp	SHORT $LN3@Buy@3
$LN2@Buy@3:

; 1109 : 			{	// nonempty array, allocate storage
; 1110 : 			_Myfirst = this->_Alval.allocate(_Capacity);

	mov	eax, DWORD PTR __Capacity$[ebp]
	push	eax
	mov	ecx, DWORD PTR _this$[ebp]
	add	ecx, 8
	call	?allocate@?$allocator@VVector3@Ogre@@@std@@QAEPAVVector3@Ogre@@I@Z ; std::allocator<Ogre::Vector3>::allocate
	mov	ecx, DWORD PTR _this$[ebp]
	mov	DWORD PTR [ecx+12], eax

; 1111 : 			_Mylast = _Myfirst;

	mov	edx, DWORD PTR _this$[ebp]
	mov	eax, DWORD PTR _this$[ebp]
	mov	ecx, DWORD PTR [eax+12]
	mov	DWORD PTR [edx+16], ecx

; 1112 : 			_Myend = _Myfirst + _Capacity;

	mov	edx, DWORD PTR __Capacity$[ebp]
	imul	edx, 12					; 0000000cH
	mov	eax, DWORD PTR _this$[ebp]
	add	edx, DWORD PTR [eax+12]
	mov	ecx, DWORD PTR _this$[ebp]
	mov	DWORD PTR [ecx+20], edx
$LN3@Buy@3:

; 1113 : 			}
; 1114 : 		return (true);

	mov	al, 1
$LN5@Buy@3:

; 1115 : 		}

	mov	esp, ebp
	pop	ebp
	ret	4
?_Buy@?$vector@VVector3@Ogre@@V?$allocator@VVector3@Ogre@@@std@@@std@@IAE_NI@Z ENDP ; std::vector<Ogre::Vector3,std::allocator<Ogre::Vector3> >::_Buy
_TEXT	ENDS
PUBLIC	??$_Destroy_range@V?$allocator@VVector3@Ogre@@@std@@@std@@YAXPAVVector3@Ogre@@0AAV?$allocator@VVector3@Ogre@@@0@@Z ; std::_Destroy_range<std::allocator<Ogre::Vector3> >
; Function compile flags: /Odtp
;	COMDAT ?_Destroy@?$vector@VVector3@Ogre@@V?$allocator@VVector3@Ogre@@@std@@@std@@IAEXPAVVector3@Ogre@@0@Z
_TEXT	SEGMENT
_this$ = -4						; size = 4
__First$ = 8						; size = 4
__Last$ = 12						; size = 4
?_Destroy@?$vector@VVector3@Ogre@@V?$allocator@VVector3@Ogre@@@std@@@std@@IAEXPAVVector3@Ogre@@0@Z PROC ; std::vector<Ogre::Vector3,std::allocator<Ogre::Vector3> >::_Destroy, COMDAT
; _this$ = ecx

; 1118 : 		{	// destroy [_First, _Last) using allocator

	push	ebp
	mov	ebp, esp
	push	ecx
	mov	DWORD PTR _this$[ebp], ecx

; 1119 : 		_Destroy_range(_First, _Last, this->_Alval);

	mov	eax, DWORD PTR _this$[ebp]
	add	eax, 8
	push	eax
	mov	ecx, DWORD PTR __Last$[ebp]
	push	ecx
	mov	edx, DWORD PTR __First$[ebp]
	push	edx
	call	??$_Destroy_range@V?$allocator@VVector3@Ogre@@@std@@@std@@YAXPAVVector3@Ogre@@0AAV?$allocator@VVector3@Ogre@@@0@@Z ; std::_Destroy_range<std::allocator<Ogre::Vector3> >
	add	esp, 12					; 0000000cH

; 1120 : 		}

	mov	esp, ebp
	pop	ebp
	ret	8
?_Destroy@?$vector@VVector3@Ogre@@V?$allocator@VVector3@Ogre@@@std@@@std@@IAEXPAVVector3@Ogre@@0@Z ENDP ; std::vector<Ogre::Vector3,std::allocator<Ogre::Vector3> >::_Destroy
; Function compile flags: /Odtp
_TEXT	ENDS
;	COMDAT ?_Tidy@?$vector@VVector3@Ogre@@V?$allocator@VVector3@Ogre@@@std@@@std@@IAEXXZ
_TEXT	SEGMENT
_this$ = -4						; size = 4
?_Tidy@?$vector@VVector3@Ogre@@V?$allocator@VVector3@Ogre@@@std@@@std@@IAEXXZ PROC ; std::vector<Ogre::Vector3,std::allocator<Ogre::Vector3> >::_Tidy, COMDAT
; _this$ = ecx

; 1123 : 		{	// free all storage

	push	ebp
	mov	ebp, esp
	push	ecx
	mov	DWORD PTR _this$[ebp], ecx

; 1124 : 		if (_Myfirst != 0)

	mov	eax, DWORD PTR _this$[ebp]
	cmp	DWORD PTR [eax+12], 0
	je	SHORT $LN1@Tidy@3

; 1125 : 			{	// something to free, destroy and deallocate it
; 1126 : 
; 1127 :  #if _HAS_ITERATOR_DEBUGGING
; 1128 : 			this->_Orphan_all();
; 1129 :  #endif /* _HAS_ITERATOR_DEBUGGING */
; 1130 : 
; 1131 : 			_Destroy(_Myfirst, _Mylast);

	mov	ecx, DWORD PTR _this$[ebp]
	mov	edx, DWORD PTR [ecx+16]
	push	edx
	mov	eax, DWORD PTR _this$[ebp]
	mov	ecx, DWORD PTR [eax+12]
	push	ecx
	mov	ecx, DWORD PTR _this$[ebp]
	call	?_Destroy@?$vector@VVector3@Ogre@@V?$allocator@VVector3@Ogre@@@std@@@std@@IAEXPAVVector3@Ogre@@0@Z ; std::vector<Ogre::Vector3,std::allocator<Ogre::Vector3> >::_Destroy

; 1132 : 			this->_Alval.deallocate(_Myfirst, _Myend - _Myfirst);

	mov	edx, DWORD PTR _this$[ebp]
	mov	eax, DWORD PTR _this$[ebp]
	mov	ecx, DWORD PTR [edx+20]
	sub	ecx, DWORD PTR [eax+12]
	mov	eax, ecx
	cdq
	mov	ecx, 12					; 0000000cH
	idiv	ecx
	push	eax
	mov	edx, DWORD PTR _this$[ebp]
	mov	eax, DWORD PTR [edx+12]
	push	eax
	mov	ecx, DWORD PTR _this$[ebp]
	add	ecx, 8
	call	?deallocate@?$allocator@VVector3@Ogre@@@std@@QAEXPAVVector3@Ogre@@I@Z ; std::allocator<Ogre::Vector3>::deallocate
$LN1@Tidy@3:

; 1133 : 			}
; 1134 : 		_Myfirst = 0, _Mylast = 0, _Myend = 0;

	mov	ecx, DWORD PTR _this$[ebp]
	mov	DWORD PTR [ecx+12], 0
	mov	edx, DWORD PTR _this$[ebp]
	mov	DWORD PTR [edx+16], 0
	mov	eax, DWORD PTR _this$[ebp]
	mov	DWORD PTR [eax+20], 0

; 1135 : 		}

	mov	esp, ebp
	pop	ebp
	ret	0
?_Tidy@?$vector@VVector3@Ogre@@V?$allocator@VVector3@Ogre@@@std@@@std@@IAEXXZ ENDP ; std::vector<Ogre::Vector3,std::allocator<Ogre::Vector3> >::_Tidy
_TEXT	ENDS
PUBLIC	??0?$_Container_base_aux_alloc_real@V?$allocator@VVector3@Ogre@@@std@@@std@@IAE@V?$allocator@VVector3@Ogre@@@1@@Z ; std::_Container_base_aux_alloc_real<std::allocator<Ogre::Vector3> >::_Container_base_aux_alloc_real<std::allocator<Ogre::Vector3> >
;	COMDAT xdata$x
xdata$x	SEGMENT
__unwindtable$??0?$_Vector_val@VVector3@Ogre@@V?$allocator@VVector3@Ogre@@@std@@@std@@IAE@V?$allocator@VVector3@Ogre@@@1@@Z DD 0ffffffffH
	DD	FLAT:__unwindfunclet$??0?$_Vector_val@VVector3@Ogre@@V?$allocator@VVector3@Ogre@@@std@@@std@@IAE@V?$allocator@VVector3@Ogre@@@1@@Z$0
__ehfuncinfo$??0?$_Vector_val@VVector3@Ogre@@V?$allocator@VVector3@Ogre@@@std@@@std@@IAE@V?$allocator@VVector3@Ogre@@@1@@Z DD 019930522H
	DD	01H
	DD	FLAT:__unwindtable$??0?$_Vector_val@VVector3@Ogre@@V?$allocator@VVector3@Ogre@@@std@@@std@@IAE@V?$allocator@VVector3@Ogre@@@1@@Z
	DD	2 DUP(00H)
	DD	2 DUP(00H)
	DD	00H
	DD	00H
; Function compile flags: /Odtp
xdata$x	ENDS
;	COMDAT ??0?$_Vector_val@VVector3@Ogre@@V?$allocator@VVector3@Ogre@@@std@@@std@@IAE@V?$allocator@VVector3@Ogre@@@1@@Z
_TEXT	SEGMENT
_this$ = -20						; size = 4
$T68208 = -16						; size = 4
__$EHRec$ = -12						; size = 12
__Al$ = 8						; size = 1
??0?$_Vector_val@VVector3@Ogre@@V?$allocator@VVector3@Ogre@@@std@@@std@@IAE@V?$allocator@VVector3@Ogre@@@1@@Z PROC ; std::_Vector_val<Ogre::Vector3,std::allocator<Ogre::Vector3> >::_Vector_val<Ogre::Vector3,std::allocator<Ogre::Vector3> >, COMDAT
; _this$ = ecx

; 425  : 		{	// construct allocator from _Al

	push	ebp
	mov	ebp, esp
	push	-1
	push	__ehhandler$??0?$_Vector_val@VVector3@Ogre@@V?$allocator@VVector3@Ogre@@@std@@@std@@IAE@V?$allocator@VVector3@Ogre@@@1@@Z
	mov	eax, DWORD PTR fs:0
	push	eax
	sub	esp, 8
	mov	eax, DWORD PTR ___security_cookie
	xor	eax, ebp
	push	eax
	lea	eax, DWORD PTR __$EHRec$[ebp]
	mov	DWORD PTR fs:0, eax
	mov	DWORD PTR _this$[ebp], ecx
	push	ecx
	mov	ecx, esp
	mov	DWORD PTR $T68208[ebp], esp
	lea	eax, DWORD PTR __Al$[ebp]
	push	eax
	call	??0?$allocator@VVector3@Ogre@@@std@@QAE@ABV01@@Z ; std::allocator<Ogre::Vector3>::allocator<Ogre::Vector3>
	mov	ecx, DWORD PTR _this$[ebp]
	call	??0?$_Container_base_aux_alloc_real@V?$allocator@VVector3@Ogre@@@std@@@std@@IAE@V?$allocator@VVector3@Ogre@@@1@@Z ; std::_Container_base_aux_alloc_real<std::allocator<Ogre::Vector3> >::_Container_base_aux_alloc_real<std::allocator<Ogre::Vector3> >
	mov	DWORD PTR __$EHRec$[ebp+8], 0
	lea	ecx, DWORD PTR __Al$[ebp]
	push	ecx
	mov	ecx, DWORD PTR _this$[ebp]
	add	ecx, 8
	call	??0?$allocator@VVector3@Ogre@@@std@@QAE@ABV01@@Z ; std::allocator<Ogre::Vector3>::allocator<Ogre::Vector3>

; 426  : 		}

	mov	DWORD PTR __$EHRec$[ebp+8], -1
	mov	eax, DWORD PTR _this$[ebp]
	mov	ecx, DWORD PTR __$EHRec$[ebp]
	mov	DWORD PTR fs:0, ecx
	pop	ecx
	mov	esp, ebp
	pop	ebp
	ret	4
_TEXT	ENDS
;	COMDAT text$x
text$x	SEGMENT
__unwindfunclet$??0?$_Vector_val@VVector3@Ogre@@V?$allocator@VVector3@Ogre@@@std@@@std@@IAE@V?$allocator@VVector3@Ogre@@@1@@Z$0:
	mov	ecx, DWORD PTR _this$[ebp]
	jmp	??1?$_Container_base_aux_alloc_real@V?$allocator@VVector3@Ogre@@@std@@@std@@IAE@XZ ; std::_Container_base_aux_alloc_real<std::allocator<Ogre::Vector3> >::~_Container_base_aux_alloc_real<std::allocator<Ogre::Vector3> >
__ehhandler$??0?$_Vector_val@VVector3@Ogre@@V?$allocator@VVector3@Ogre@@@std@@@std@@IAE@V?$allocator@VVector3@Ogre@@@1@@Z:
	mov	edx, DWORD PTR [esp+8]
	lea	eax, DWORD PTR [edx+12]
	mov	ecx, DWORD PTR [edx-12]
	xor	ecx, eax
	call	@__security_check_cookie@4
	mov	eax, OFFSET __ehfuncinfo$??0?$_Vector_val@VVector3@Ogre@@V?$allocator@VVector3@Ogre@@@std@@@std@@IAE@V?$allocator@VVector3@Ogre@@@1@@Z
	jmp	___CxxFrameHandler3
text$x	ENDS
??0?$_Vector_val@VVector3@Ogre@@V?$allocator@VVector3@Ogre@@@std@@@std@@IAE@V?$allocator@VVector3@Ogre@@@1@@Z ENDP ; std::_Vector_val<Ogre::Vector3,std::allocator<Ogre::Vector3> >::_Vector_val<Ogre::Vector3,std::allocator<Ogre::Vector3> >
;	COMDAT xdata$x
; File d:\program files (x86)\microsoft visual studio 9.0\vc\include\xutility
xdata$x	SEGMENT
__unwindtable$??1?$_Container_base_aux_alloc_real@V?$allocator@VVector3@Ogre@@@std@@@std@@IAE@XZ DD 0ffffffffH
	DD	FLAT:__unwindfunclet$??1?$_Container_base_aux_alloc_real@V?$allocator@VVector3@Ogre@@@std@@@std@@IAE@XZ$0
__ehfuncinfo$??1?$_Container_base_aux_alloc_real@V?$allocator@VVector3@Ogre@@@std@@@std@@IAE@XZ DD 019930522H
	DD	01H
	DD	FLAT:__unwindtable$??1?$_Container_base_aux_alloc_real@V?$allocator@VVector3@Ogre@@@std@@@std@@IAE@XZ
	DD	2 DUP(00H)
	DD	2 DUP(00H)
	DD	00H
	DD	00H
; Function compile flags: /Odtp
xdata$x	ENDS
;	COMDAT ??1?$_Container_base_aux_alloc_real@V?$allocator@VVector3@Ogre@@@std@@@std@@IAE@XZ
_TEXT	SEGMENT
_this$ = -16						; size = 4
__$EHRec$ = -12						; size = 12
??1?$_Container_base_aux_alloc_real@V?$allocator@VVector3@Ogre@@@std@@@std@@IAE@XZ PROC ; std::_Container_base_aux_alloc_real<std::allocator<Ogre::Vector3> >::~_Container_base_aux_alloc_real<std::allocator<Ogre::Vector3> >, COMDAT
; _this$ = ecx

; 436  : 		{

	push	ebp
	mov	ebp, esp
	push	-1
	push	__ehhandler$??1?$_Container_base_aux_alloc_real@V?$allocator@VVector3@Ogre@@@std@@@std@@IAE@XZ
	mov	eax, DWORD PTR fs:0
	push	eax
	push	ecx
	mov	eax, DWORD PTR ___security_cookie
	xor	eax, ebp
	push	eax
	lea	eax, DWORD PTR __$EHRec$[ebp]
	mov	DWORD PTR fs:0, eax
	mov	DWORD PTR _this$[ebp], ecx
	mov	DWORD PTR __$EHRec$[ebp+8], 0

; 437  : 		_Myownedaux->~_Aux_cont();
; 438  : 
; 439  : 		_Alaux.deallocate(_Myownedaux, 1);

	push	1
	mov	eax, DWORD PTR _this$[ebp]
	mov	ecx, DWORD PTR [eax]
	push	ecx
	mov	ecx, DWORD PTR _this$[ebp]
	add	ecx, 4
	call	?deallocate@?$allocator@V_Aux_cont@std@@@std@@QAEXPAV_Aux_cont@2@I@Z ; std::allocator<std::_Aux_cont>::deallocate

; 440  : 		}

	mov	DWORD PTR __$EHRec$[ebp+8], -1
	mov	ecx, DWORD PTR _this$[ebp]
	call	??1_Container_base_aux@std@@QAE@XZ	; std::_Container_base_aux::~_Container_base_aux
	mov	ecx, DWORD PTR __$EHRec$[ebp]
	mov	DWORD PTR fs:0, ecx
	pop	ecx
	mov	esp, ebp
	pop	ebp
	ret	0
_TEXT	ENDS
;	COMDAT text$x
text$x	SEGMENT
__unwindfunclet$??1?$_Container_base_aux_alloc_real@V?$allocator@VVector3@Ogre@@@std@@@std@@IAE@XZ$0:
	mov	ecx, DWORD PTR _this$[ebp]
	jmp	??1_Container_base_aux@std@@QAE@XZ	; std::_Container_base_aux::~_Container_base_aux
__ehhandler$??1?$_Container_base_aux_alloc_real@V?$allocator@VVector3@Ogre@@@std@@@std@@IAE@XZ:
	mov	edx, DWORD PTR [esp+8]
	lea	eax, DWORD PTR [edx+12]
	mov	ecx, DWORD PTR [edx-8]
	xor	ecx, eax
	call	@__security_check_cookie@4
	mov	eax, OFFSET __ehfuncinfo$??1?$_Container_base_aux_alloc_real@V?$allocator@VVector3@Ogre@@@std@@@std@@IAE@XZ
	jmp	___CxxFrameHandler3
text$x	ENDS
??1?$_Container_base_aux_alloc_real@V?$allocator@VVector3@Ogre@@@std@@@std@@IAE@XZ ENDP ; std::_Container_base_aux_alloc_real<std::allocator<Ogre::Vector3> >::~_Container_base_aux_alloc_real<std::allocator<Ogre::Vector3> >
; Function compile flags: /Odtp
; File d:\program files (x86)\microsoft visual studio 9.0\vc\include\xmemory
;	COMDAT ??0?$allocator@VVector3@Ogre@@@std@@QAE@XZ
_TEXT	SEGMENT
_this$ = -4						; size = 4
??0?$allocator@VVector3@Ogre@@@std@@QAE@XZ PROC		; std::allocator<Ogre::Vector3>::allocator<Ogre::Vector3>, COMDAT
; _this$ = ecx

; 119  : 	allocator() _THROW0()

	push	ebp
	mov	ebp, esp
	push	ecx
	mov	DWORD PTR _this$[ebp], ecx

; 120  : 		{	// construct default allocator (do nothing)
; 121  : 		}

	mov	eax, DWORD PTR _this$[ebp]
	mov	esp, ebp
	pop	ebp
	ret	0
??0?$allocator@VVector3@Ogre@@@std@@QAE@XZ ENDP		; std::allocator<Ogre::Vector3>::allocator<Ogre::Vector3>
; Function compile flags: /Odtp
_TEXT	ENDS
;	COMDAT ??0?$allocator@VVector3@Ogre@@@std@@QAE@ABV01@@Z
_TEXT	SEGMENT
_this$ = -4						; size = 4
___formal$ = 8						; size = 4
??0?$allocator@VVector3@Ogre@@@std@@QAE@ABV01@@Z PROC	; std::allocator<Ogre::Vector3>::allocator<Ogre::Vector3>, COMDAT
; _this$ = ecx

; 123  : 	allocator(const allocator<_Ty>&) _THROW0()

	push	ebp
	mov	ebp, esp
	push	ecx
	mov	DWORD PTR _this$[ebp], ecx

; 124  : 		{	// construct by copying (do nothing)
; 125  : 		}

	mov	eax, DWORD PTR _this$[ebp]
	mov	esp, ebp
	pop	ebp
	ret	4
??0?$allocator@VVector3@Ogre@@@std@@QAE@ABV01@@Z ENDP	; std::allocator<Ogre::Vector3>::allocator<Ogre::Vector3>
; Function compile flags: /Odtp
_TEXT	ENDS
;	COMDAT ?deallocate@?$allocator@VVector3@Ogre@@@std@@QAEXPAVVector3@Ogre@@I@Z
_TEXT	SEGMENT
_this$ = -4						; size = 4
__Ptr$ = 8						; size = 4
___formal$ = 12						; size = 4
?deallocate@?$allocator@VVector3@Ogre@@@std@@QAEXPAVVector3@Ogre@@I@Z PROC ; std::allocator<Ogre::Vector3>::deallocate, COMDAT
; _this$ = ecx

; 139  : 		{	// deallocate object at _Ptr, ignore size

	push	ebp
	mov	ebp, esp
	push	ecx
	mov	DWORD PTR _this$[ebp], ecx

; 140  : 		::operator delete(_Ptr);

	mov	eax, DWORD PTR __Ptr$[ebp]
	push	eax
	call	??3@YAXPAX@Z				; operator delete
	add	esp, 4

; 141  : 		}

	mov	esp, ebp
	pop	ebp
	ret	8
?deallocate@?$allocator@VVector3@Ogre@@@std@@QAEXPAVVector3@Ogre@@I@Z ENDP ; std::allocator<Ogre::Vector3>::deallocate
_TEXT	ENDS
PUBLIC	??0?$_Vector_iterator@DV?$allocator@D@std@@@std@@QAE@PADPBV_Container_base_aux@1@@Z ; std::_Vector_iterator<char,std::allocator<char> >::_Vector_iterator<char,std::allocator<char> >
; Function compile flags: /Odtp
; File d:\program files (x86)\microsoft visual studio 9.0\vc\include\vector
;	COMDAT ?begin@?$vector@DV?$allocator@D@std@@@std@@QAE?AV?$_Vector_iterator@DV?$allocator@D@std@@@2@XZ
_TEXT	SEGMENT
_this$ = -4						; size = 4
___$ReturnUdt$ = 8					; size = 4
?begin@?$vector@DV?$allocator@D@std@@@std@@QAE?AV?$_Vector_iterator@DV?$allocator@D@std@@@2@XZ PROC ; std::vector<char,std::allocator<char> >::begin, COMDAT
; _this$ = ecx

; 640  : 		{	// return iterator for beginning of mutable sequence

	push	ebp
	mov	ebp, esp
	push	ecx
	mov	DWORD PTR _this$[ebp], ecx

; 641  : 		return (iterator(_Myfirst, this));

	mov	eax, DWORD PTR _this$[ebp]
	push	eax
	mov	ecx, DWORD PTR _this$[ebp]
	mov	edx, DWORD PTR [ecx+12]
	push	edx
	mov	ecx, DWORD PTR ___$ReturnUdt$[ebp]
	call	??0?$_Vector_iterator@DV?$allocator@D@std@@@std@@QAE@PADPBV_Container_base_aux@1@@Z ; std::_Vector_iterator<char,std::allocator<char> >::_Vector_iterator<char,std::allocator<char> >
	mov	eax, DWORD PTR ___$ReturnUdt$[ebp]

; 642  : 		}

	mov	esp, ebp
	pop	ebp
	ret	4
?begin@?$vector@DV?$allocator@D@std@@@std@@QAE?AV?$_Vector_iterator@DV?$allocator@D@std@@@2@XZ ENDP ; std::vector<char,std::allocator<char> >::begin
; Function compile flags: /Odtp
_TEXT	ENDS
;	COMDAT ?end@?$vector@DV?$allocator@D@std@@@std@@QAE?AV?$_Vector_iterator@DV?$allocator@D@std@@@2@XZ
_TEXT	SEGMENT
_this$ = -4						; size = 4
___$ReturnUdt$ = 8					; size = 4
?end@?$vector@DV?$allocator@D@std@@@std@@QAE?AV?$_Vector_iterator@DV?$allocator@D@std@@@2@XZ PROC ; std::vector<char,std::allocator<char> >::end, COMDAT
; _this$ = ecx

; 650  : 		{	// return iterator for end of mutable sequence

	push	ebp
	mov	ebp, esp
	push	ecx
	mov	DWORD PTR _this$[ebp], ecx

; 651  : 		return (iterator(_Mylast, this));

	mov	eax, DWORD PTR _this$[ebp]
	push	eax
	mov	ecx, DWORD PTR _this$[ebp]
	mov	edx, DWORD PTR [ecx+16]
	push	edx
	mov	ecx, DWORD PTR ___$ReturnUdt$[ebp]
	call	??0?$_Vector_iterator@DV?$allocator@D@std@@@std@@QAE@PADPBV_Container_base_aux@1@@Z ; std::_Vector_iterator<char,std::allocator<char> >::_Vector_iterator<char,std::allocator<char> >
	mov	eax, DWORD PTR ___$ReturnUdt$[ebp]

; 652  : 		}

	mov	esp, ebp
	pop	ebp
	ret	4
?end@?$vector@DV?$allocator@D@std@@@std@@QAE?AV?$_Vector_iterator@DV?$allocator@D@std@@@2@XZ ENDP ; std::vector<char,std::allocator<char> >::end
_TEXT	ENDS
EXTRN	__imp_?max_size@?$allocator@D@std@@QBEIXZ:PROC
; Function compile flags: /Odtp
;	COMDAT ?max_size@?$vector@DV?$allocator@D@std@@@std@@QBEIXZ
_TEXT	SEGMENT
_this$ = -4						; size = 4
?max_size@?$vector@DV?$allocator@D@std@@@std@@QBEIXZ PROC ; std::vector<char,std::allocator<char> >::max_size, COMDAT
; _this$ = ecx

; 730  : 		{	// return maximum possible length of sequence

	push	ebp
	mov	ebp, esp
	push	ecx
	mov	DWORD PTR _this$[ebp], ecx

; 731  : 		return (this->_Alval.max_size());

	mov	ecx, DWORD PTR _this$[ebp]
	add	ecx, 8
	call	DWORD PTR __imp_?max_size@?$allocator@D@std@@QBEIXZ

; 732  : 		}

	mov	esp, ebp
	pop	ebp
	ret	0
?max_size@?$vector@DV?$allocator@D@std@@@std@@QBEIXZ ENDP ; std::vector<char,std::allocator<char> >::max_size
_TEXT	ENDS
PUBLIC	??9?$_Vector_const_iterator@DV?$allocator@D@std@@@std@@QBE_NABV01@@Z ; std::_Vector_const_iterator<char,std::allocator<char> >::operator!=
PUBLIC	?_Make_iter@?$vector@DV?$allocator@D@std@@@std@@QBE?AV?$_Vector_iterator@DV?$allocator@D@std@@@2@V?$_Vector_const_iterator@DV?$allocator@D@std@@@2@@Z ; std::vector<char,std::allocator<char> >::_Make_iter
; Function compile flags: /Odtp
;	COMDAT ?erase@?$vector@DV?$allocator@D@std@@@std@@QAE?AV?$_Vector_iterator@DV?$allocator@D@std@@@2@V?$_Vector_const_iterator@DV?$allocator@D@std@@@2@0@Z
_TEXT	SEGMENT
_this$ = -24						; size = 4
__Ptr$62906 = -20					; size = 4
__Last$ = -16						; size = 8
__First$ = -8						; size = 8
___$ReturnUdt$ = 8					; size = 4
__First_arg$ = 12					; size = 8
__Last_arg$ = 20					; size = 8
?erase@?$vector@DV?$allocator@D@std@@@std@@QAE?AV?$_Vector_iterator@DV?$allocator@D@std@@@2@V?$_Vector_const_iterator@DV?$allocator@D@std@@@2@0@Z PROC ; std::vector<char,std::allocator<char> >::erase, COMDAT
; _this$ = ecx

; 1028 : 		{	// erase [_First, _Last)

	push	ebp
	mov	ebp, esp
	sub	esp, 24					; 00000018H
	mov	DWORD PTR _this$[ebp], ecx

; 1029 : 		iterator _First = _Make_iter(_First_arg);

	mov	eax, DWORD PTR __First_arg$[ebp+4]
	push	eax
	mov	ecx, DWORD PTR __First_arg$[ebp]
	push	ecx
	lea	edx, DWORD PTR __First$[ebp]
	push	edx
	mov	ecx, DWORD PTR _this$[ebp]
	call	?_Make_iter@?$vector@DV?$allocator@D@std@@@std@@QBE?AV?$_Vector_iterator@DV?$allocator@D@std@@@2@V?$_Vector_const_iterator@DV?$allocator@D@std@@@2@@Z ; std::vector<char,std::allocator<char> >::_Make_iter

; 1030 : 		iterator _Last = _Make_iter(_Last_arg);

	mov	eax, DWORD PTR __Last_arg$[ebp+4]
	push	eax
	mov	ecx, DWORD PTR __Last_arg$[ebp]
	push	ecx
	lea	edx, DWORD PTR __Last$[ebp]
	push	edx
	mov	ecx, DWORD PTR _this$[ebp]
	call	?_Make_iter@?$vector@DV?$allocator@D@std@@@std@@QBE?AV?$_Vector_iterator@DV?$allocator@D@std@@@2@V?$_Vector_const_iterator@DV?$allocator@D@std@@@2@@Z ; std::vector<char,std::allocator<char> >::_Make_iter

; 1031 : 
; 1032 : 		if (_First != _Last)

	lea	eax, DWORD PTR __Last$[ebp]
	push	eax
	lea	ecx, DWORD PTR __First$[ebp]
	call	??9?$_Vector_const_iterator@DV?$allocator@D@std@@@std@@QBE_NABV01@@Z ; std::_Vector_const_iterator<char,std::allocator<char> >::operator!=
	movzx	ecx, al
	test	ecx, ecx
	je	SHORT $LN1@erase

; 1033 : 			{	// worth doing, copy down over hole
; 1034 : 
; 1035 :  #if _HAS_ITERATOR_DEBUGGING
; 1036 : 			if (_Last < _First || _First._Mycont != this
; 1037 : 				|| _First._Myptr < _Myfirst || _Mylast < _Last._Myptr)
; 1038 : 				_DEBUG_ERROR("vector erase iterator outside range");
; 1039 : 			pointer _Ptr = _STDEXT unchecked_copy(_VEC_ITER_BASE(_Last), _Mylast,
; 1040 : 				_VEC_ITER_BASE(_First));
; 1041 : 			_Orphan_range(_First._Myptr, _Mylast);
; 1042 : 
; 1043 :  #else /* _HAS_ITERATOR_DEBUGGING */
; 1044 : 			pointer _Ptr = _STDEXT unchecked_copy(_VEC_ITER_BASE(_Last), _Mylast,
; 1045 : 				_VEC_ITER_BASE(_First));

	mov	edx, DWORD PTR __First$[ebp+4]
	push	edx
	mov	eax, DWORD PTR _this$[ebp]
	mov	ecx, DWORD PTR [eax+16]
	push	ecx
	mov	edx, DWORD PTR __Last$[ebp+4]
	push	edx
	call	??$unchecked_copy@PADPAD@stdext@@YAPADPAD00@Z ; stdext::unchecked_copy<char *,char *>
	add	esp, 12					; 0000000cH
	mov	DWORD PTR __Ptr$62906[ebp], eax

; 1046 :  #endif /* _HAS_ITERATOR_DEBUGGING */
; 1047 : 
; 1048 : 			_Destroy(_Ptr, _Mylast);

	mov	eax, DWORD PTR _this$[ebp]
	mov	ecx, DWORD PTR [eax+16]
	push	ecx
	mov	edx, DWORD PTR __Ptr$62906[ebp]
	push	edx
	mov	ecx, DWORD PTR _this$[ebp]
	call	?_Destroy@?$vector@DV?$allocator@D@std@@@std@@IAEXPAD0@Z ; std::vector<char,std::allocator<char> >::_Destroy

; 1049 : 			_Mylast = _Ptr;

	mov	eax, DWORD PTR _this$[ebp]
	mov	ecx, DWORD PTR __Ptr$62906[ebp]
	mov	DWORD PTR [eax+16], ecx
$LN1@erase:

; 1050 : 			}
; 1051 : #if _HAS_ITERATOR_DEBUGGING
; 1052 :         return (iterator(_First._Myptr, this));
; 1053 : #else
; 1054 : 		return (_First);

	mov	edx, DWORD PTR ___$ReturnUdt$[ebp]
	mov	eax, DWORD PTR __First$[ebp]
	mov	DWORD PTR [edx], eax
	mov	ecx, DWORD PTR __First$[ebp+4]
	mov	DWORD PTR [edx+4], ecx
	mov	eax, DWORD PTR ___$ReturnUdt$[ebp]

; 1055 : #endif
; 1056 : 		}

	mov	esp, ebp
	pop	ebp
	ret	20					; 00000014H
?erase@?$vector@DV?$allocator@D@std@@@std@@QAE?AV?$_Vector_iterator@DV?$allocator@D@std@@@2@V?$_Vector_const_iterator@DV?$allocator@D@std@@@2@0@Z ENDP ; std::vector<char,std::allocator<char> >::erase
_TEXT	ENDS
PUBLIC	__TI3?AVlength_error@std@@
PUBLIC	??0length_error@std@@QAE@ABV?$basic_string@DU?$char_traits@D@std@@V?$allocator@D@2@@1@@Z ; std::length_error::length_error
PUBLIC	??_C@_0BD@OLBABOEK@vector?$DMT?$DO?5too?5long?$AA@ ; `string'
PUBLIC	??1length_error@std@@UAE@XZ			; std::length_error::~length_error
PUBLIC	__CTA3?AVlength_error@std@@
PUBLIC	__CT??_R0?AVlength_error@std@@@8??0length_error@std@@QAE@ABV01@@Z40
PUBLIC	??_R0?AVlength_error@std@@@8			; std::length_error `RTTI Type Descriptor'
PUBLIC	??0length_error@std@@QAE@ABV01@@Z		; std::length_error::length_error
PUBLIC	__CT??_R0?AVlogic_error@std@@@8??0logic_error@std@@QAE@ABV01@@Z40
PUBLIC	??_R0?AVlogic_error@std@@@8			; std::logic_error `RTTI Type Descriptor'
PUBLIC	??0logic_error@std@@QAE@ABV01@@Z		; std::logic_error::logic_error
PUBLIC	__CT??_R0?AVexception@std@@@8??0exception@std@@QAE@ABV01@@Z12
PUBLIC	??_R0?AVexception@std@@@8			; std::exception `RTTI Type Descriptor'
EXTRN	__imp_??0?$basic_string@DU?$char_traits@D@std@@V?$allocator@D@2@@std@@QAE@PBD@Z:PROC
EXTRN	??0exception@std@@QAE@ABV01@@Z:PROC		; std::exception::exception
;	COMDAT ??_R0?AVexception@std@@@8
_DATA	SEGMENT
??_R0?AVexception@std@@@8 DD FLAT:??_7type_info@@6B@	; std::exception `RTTI Type Descriptor'
	DD	00H
	DB	'.?AVexception@std@@', 00H
_DATA	ENDS
;	COMDAT __CT??_R0?AVexception@std@@@8??0exception@std@@QAE@ABV01@@Z12
xdata$x	SEGMENT
__CT??_R0?AVexception@std@@@8??0exception@std@@QAE@ABV01@@Z12 DD 00H
	DD	FLAT:??_R0?AVexception@std@@@8
	DD	00H
	DD	0ffffffffH
	ORG $+4
	DD	0cH
	DD	FLAT:??0exception@std@@QAE@ABV01@@Z
xdata$x	ENDS
;	COMDAT ??_R0?AVlogic_error@std@@@8
_DATA	SEGMENT
??_R0?AVlogic_error@std@@@8 DD FLAT:??_7type_info@@6B@	; std::logic_error `RTTI Type Descriptor'
	DD	00H
	DB	'.?AVlogic_error@std@@', 00H
_DATA	ENDS
;	COMDAT __CT??_R0?AVlogic_error@std@@@8??0logic_error@std@@QAE@ABV01@@Z40
xdata$x	SEGMENT
__CT??_R0?AVlogic_error@std@@@8??0logic_error@std@@QAE@ABV01@@Z40 DD 00H
	DD	FLAT:??_R0?AVlogic_error@std@@@8
	DD	00H
	DD	0ffffffffH
	ORG $+4
	DD	028H
	DD	FLAT:??0logic_error@std@@QAE@ABV01@@Z
xdata$x	ENDS
;	COMDAT ??_R0?AVlength_error@std@@@8
_DATA	SEGMENT
??_R0?AVlength_error@std@@@8 DD FLAT:??_7type_info@@6B@	; std::length_error `RTTI Type Descriptor'
	DD	00H
	DB	'.?AVlength_error@std@@', 00H
_DATA	ENDS
;	COMDAT __CT??_R0?AVlength_error@std@@@8??0length_error@std@@QAE@ABV01@@Z40
xdata$x	SEGMENT
__CT??_R0?AVlength_error@std@@@8??0length_error@std@@QAE@ABV01@@Z40 DD 00H
	DD	FLAT:??_R0?AVlength_error@std@@@8
	DD	00H
	DD	0ffffffffH
	ORG $+4
	DD	028H
	DD	FLAT:??0length_error@std@@QAE@ABV01@@Z
xdata$x	ENDS
;	COMDAT __CTA3?AVlength_error@std@@
xdata$x	SEGMENT
__CTA3?AVlength_error@std@@ DD 03H
	DD	FLAT:__CT??_R0?AVlength_error@std@@@8??0length_error@std@@QAE@ABV01@@Z40
	DD	FLAT:__CT??_R0?AVlogic_error@std@@@8??0logic_error@std@@QAE@ABV01@@Z40
	DD	FLAT:__CT??_R0?AVexception@std@@@8??0exception@std@@QAE@ABV01@@Z12
xdata$x	ENDS
;	COMDAT __TI3?AVlength_error@std@@
xdata$x	SEGMENT
__TI3?AVlength_error@std@@ DD 00H
	DD	FLAT:??1length_error@std@@UAE@XZ
	DD	00H
	DD	FLAT:__CTA3?AVlength_error@std@@
xdata$x	ENDS
;	COMDAT ??_C@_0BD@OLBABOEK@vector?$DMT?$DO?5too?5long?$AA@
CONST	SEGMENT
??_C@_0BD@OLBABOEK@vector?$DMT?$DO?5too?5long?$AA@ DB 'vector<T> too long'
	DB	00H						; `string'
CONST	ENDS
;	COMDAT xdata$x
xdata$x	SEGMENT
__unwindtable$?_Xlen@?$vector@DV?$allocator@D@std@@@std@@KAXXZ DD 0ffffffffH
	DD	FLAT:__unwindfunclet$?_Xlen@?$vector@DV?$allocator@D@std@@@std@@KAXXZ$0
__ehfuncinfo$?_Xlen@?$vector@DV?$allocator@D@std@@@std@@KAXXZ DD 019930522H
	DD	01H
	DD	FLAT:__unwindtable$?_Xlen@?$vector@DV?$allocator@D@std@@@std@@KAXXZ
	DD	2 DUP(00H)
	DD	2 DUP(00H)
	DD	00H
	DD	00H
; Function compile flags: /Odtp
xdata$x	ENDS
;	COMDAT ?_Xlen@?$vector@DV?$allocator@D@std@@@std@@KAXXZ
_TEXT	SEGMENT
$T68242 = -80						; size = 28
$T68241 = -52						; size = 40
__$EHRec$ = -12						; size = 12
?_Xlen@?$vector@DV?$allocator@D@std@@@std@@KAXXZ PROC	; std::vector<char,std::allocator<char> >::_Xlen, COMDAT

; 1259 : 		{	// report a length_error

	push	ebp
	mov	ebp, esp
	push	-1
	push	__ehhandler$?_Xlen@?$vector@DV?$allocator@D@std@@@std@@KAXXZ
	mov	eax, DWORD PTR fs:0
	push	eax
	sub	esp, 68					; 00000044H
	mov	eax, DWORD PTR ___security_cookie
	xor	eax, ebp
	push	eax
	lea	eax, DWORD PTR __$EHRec$[ebp]
	mov	DWORD PTR fs:0, eax

; 1260 : 		_THROW(length_error, "vector<T> too long");

	push	OFFSET ??_C@_0BD@OLBABOEK@vector?$DMT?$DO?5too?5long?$AA@
	lea	ecx, DWORD PTR $T68242[ebp]
	call	DWORD PTR __imp_??0?$basic_string@DU?$char_traits@D@std@@V?$allocator@D@2@@std@@QAE@PBD@Z
	mov	DWORD PTR __$EHRec$[ebp+8], 0
	lea	eax, DWORD PTR $T68242[ebp]
	push	eax
	lea	ecx, DWORD PTR $T68241[ebp]
	call	??0length_error@std@@QAE@ABV?$basic_string@DU?$char_traits@D@std@@V?$allocator@D@2@@1@@Z ; std::length_error::length_error
	push	OFFSET __TI3?AVlength_error@std@@
	lea	ecx, DWORD PTR $T68241[ebp]
	push	ecx
	call	__CxxThrowException@8
	mov	DWORD PTR __$EHRec$[ebp+8], -1
	lea	ecx, DWORD PTR $T68242[ebp]
	call	DWORD PTR __imp_??1?$basic_string@DU?$char_traits@D@std@@V?$allocator@D@2@@std@@QAE@XZ
$LN2@Xlen:

; 1261 : 		}

	mov	ecx, DWORD PTR __$EHRec$[ebp]
	mov	DWORD PTR fs:0, ecx
	pop	ecx
	mov	esp, ebp
	pop	ebp
	ret	0
_TEXT	ENDS
;	COMDAT text$x
text$x	SEGMENT
__unwindfunclet$?_Xlen@?$vector@DV?$allocator@D@std@@@std@@KAXXZ$0:
	lea	ecx, DWORD PTR $T68242[ebp]
	jmp	DWORD PTR __imp_??1?$basic_string@DU?$char_traits@D@std@@V?$allocator@D@2@@std@@QAE@XZ
__ehhandler$?_Xlen@?$vector@DV?$allocator@D@std@@@std@@KAXXZ:
	mov	edx, DWORD PTR [esp+8]
	lea	eax, DWORD PTR [edx+12]
	mov	ecx, DWORD PTR [edx-72]
	xor	ecx, eax
	call	@__security_check_cookie@4
	mov	eax, OFFSET __ehfuncinfo$?_Xlen@?$vector@DV?$allocator@D@std@@@std@@KAXXZ
	jmp	___CxxFrameHandler3
text$x	ENDS
?_Xlen@?$vector@DV?$allocator@D@std@@@std@@KAXXZ ENDP	; std::vector<char,std::allocator<char> >::_Xlen
PUBLIC	??1logic_error@std@@UAE@XZ			; std::logic_error::~logic_error
PUBLIC	??_7length_error@std@@6B@			; std::length_error::`vftable'
PUBLIC	??0logic_error@std@@QAE@ABV?$basic_string@DU?$char_traits@D@std@@V?$allocator@D@2@@1@@Z ; std::logic_error::logic_error
PUBLIC	??_R4length_error@std@@6B@			; std::length_error::`RTTI Complete Object Locator'
PUBLIC	??_R3length_error@std@@8			; std::length_error::`RTTI Class Hierarchy Descriptor'
PUBLIC	??_R2length_error@std@@8			; std::length_error::`RTTI Base Class Array'
PUBLIC	??_R1A@?0A@EA@length_error@std@@8		; std::length_error::`RTTI Base Class Descriptor at (0,-1,0,64)'
PUBLIC	??_R1A@?0A@EA@logic_error@std@@8		; std::logic_error::`RTTI Base Class Descriptor at (0,-1,0,64)'
PUBLIC	??_R3logic_error@std@@8				; std::logic_error::`RTTI Class Hierarchy Descriptor'
PUBLIC	??_R2logic_error@std@@8				; std::logic_error::`RTTI Base Class Array'
PUBLIC	??_R1A@?0A@EA@exception@std@@8			; std::exception::`RTTI Base Class Descriptor at (0,-1,0,64)'
PUBLIC	??_R3exception@std@@8				; std::exception::`RTTI Class Hierarchy Descriptor'
PUBLIC	??_R2exception@std@@8				; std::exception::`RTTI Base Class Array'
PUBLIC	?what@logic_error@std@@UBEPBDXZ			; std::logic_error::what
EXTRN	??_Elength_error@std@@UAEPAXI@Z:PROC		; std::length_error::`vector deleting destructor'
;	COMDAT ??_R2exception@std@@8
; File d:\program files (x86)\microsoft visual studio 9.0\vc\include\stdexcept
rdata$r	SEGMENT
??_R2exception@std@@8 DD FLAT:??_R1A@?0A@EA@exception@std@@8 ; std::exception::`RTTI Base Class Array'
rdata$r	ENDS
;	COMDAT ??_R3exception@std@@8
rdata$r	SEGMENT
??_R3exception@std@@8 DD 00H				; std::exception::`RTTI Class Hierarchy Descriptor'
	DD	00H
	DD	01H
	DD	FLAT:??_R2exception@std@@8
rdata$r	ENDS
;	COMDAT ??_R1A@?0A@EA@exception@std@@8
rdata$r	SEGMENT
??_R1A@?0A@EA@exception@std@@8 DD FLAT:??_R0?AVexception@std@@@8 ; std::exception::`RTTI Base Class Descriptor at (0,-1,0,64)'
	DD	00H
	DD	00H
	DD	0ffffffffH
	DD	00H
	DD	040H
	DD	FLAT:??_R3exception@std@@8
rdata$r	ENDS
;	COMDAT ??_R2logic_error@std@@8
rdata$r	SEGMENT
??_R2logic_error@std@@8 DD FLAT:??_R1A@?0A@EA@logic_error@std@@8 ; std::logic_error::`RTTI Base Class Array'
	DD	FLAT:??_R1A@?0A@EA@exception@std@@8
rdata$r	ENDS
;	COMDAT ??_R3logic_error@std@@8
rdata$r	SEGMENT
??_R3logic_error@std@@8 DD 00H				; std::logic_error::`RTTI Class Hierarchy Descriptor'
	DD	00H
	DD	02H
	DD	FLAT:??_R2logic_error@std@@8
rdata$r	ENDS
;	COMDAT ??_R1A@?0A@EA@logic_error@std@@8
rdata$r	SEGMENT
??_R1A@?0A@EA@logic_error@std@@8 DD FLAT:??_R0?AVlogic_error@std@@@8 ; std::logic_error::`RTTI Base Class Descriptor at (0,-1,0,64)'
	DD	01H
	DD	00H
	DD	0ffffffffH
	DD	00H
	DD	040H
	DD	FLAT:??_R3logic_error@std@@8
rdata$r	ENDS
;	COMDAT ??_R1A@?0A@EA@length_error@std@@8
rdata$r	SEGMENT
??_R1A@?0A@EA@length_error@std@@8 DD FLAT:??_R0?AVlength_error@std@@@8 ; std::length_error::`RTTI Base Class Descriptor at (0,-1,0,64)'
	DD	02H
	DD	00H
	DD	0ffffffffH
	DD	00H
	DD	040H
	DD	FLAT:??_R3length_error@std@@8
rdata$r	ENDS
;	COMDAT ??_R2length_error@std@@8
rdata$r	SEGMENT
??_R2length_error@std@@8 DD FLAT:??_R1A@?0A@EA@length_error@std@@8 ; std::length_error::`RTTI Base Class Array'
	DD	FLAT:??_R1A@?0A@EA@logic_error@std@@8
	DD	FLAT:??_R1A@?0A@EA@exception@std@@8
rdata$r	ENDS
;	COMDAT ??_R3length_error@std@@8
rdata$r	SEGMENT
??_R3length_error@std@@8 DD 00H				; std::length_error::`RTTI Class Hierarchy Descriptor'
	DD	00H
	DD	03H
	DD	FLAT:??_R2length_error@std@@8
rdata$r	ENDS
;	COMDAT ??_R4length_error@std@@6B@
rdata$r	SEGMENT
??_R4length_error@std@@6B@ DD 00H			; std::length_error::`RTTI Complete Object Locator'
	DD	00H
	DD	00H
	DD	FLAT:??_R0?AVlength_error@std@@@8
	DD	FLAT:??_R3length_error@std@@8
rdata$r	ENDS
;	COMDAT ??_7length_error@std@@6B@
CONST	SEGMENT
??_7length_error@std@@6B@ DD FLAT:??_R4length_error@std@@6B@ ; std::length_error::`vftable'
	DD	FLAT:??_Elength_error@std@@UAEPAXI@Z
	DD	FLAT:?what@logic_error@std@@UBEPBDXZ
CONST	ENDS
;	COMDAT xdata$x
xdata$x	SEGMENT
__unwindtable$??0length_error@std@@QAE@ABV?$basic_string@DU?$char_traits@D@std@@V?$allocator@D@2@@1@@Z DD 0ffffffffH
	DD	FLAT:__unwindfunclet$??0length_error@std@@QAE@ABV?$basic_string@DU?$char_traits@D@std@@V?$allocator@D@2@@1@@Z$0
__ehfuncinfo$??0length_error@std@@QAE@ABV?$basic_string@DU?$char_traits@D@std@@V?$allocator@D@2@@1@@Z DD 019930522H
	DD	01H
	DD	FLAT:__unwindtable$??0length_error@std@@QAE@ABV?$basic_string@DU?$char_traits@D@std@@V?$allocator@D@2@@1@@Z
	DD	2 DUP(00H)
	DD	2 DUP(00H)
	DD	00H
	DD	00H
; Function compile flags: /Odtp
xdata$x	ENDS
;	COMDAT ??0length_error@std@@QAE@ABV?$basic_string@DU?$char_traits@D@std@@V?$allocator@D@2@@1@@Z
_TEXT	SEGMENT
_this$ = -16						; size = 4
__$EHRec$ = -12						; size = 12
__Message$ = 8						; size = 4
??0length_error@std@@QAE@ABV?$basic_string@DU?$char_traits@D@std@@V?$allocator@D@2@@1@@Z PROC ; std::length_error::length_error, COMDAT
; _this$ = ecx

; 105  : 		{	// construct from message string

	push	ebp
	mov	ebp, esp
	push	-1
	push	__ehhandler$??0length_error@std@@QAE@ABV?$basic_string@DU?$char_traits@D@std@@V?$allocator@D@2@@1@@Z
	mov	eax, DWORD PTR fs:0
	push	eax
	push	ecx
	mov	eax, DWORD PTR ___security_cookie
	xor	eax, ebp
	push	eax
	lea	eax, DWORD PTR __$EHRec$[ebp]
	mov	DWORD PTR fs:0, eax
	mov	DWORD PTR _this$[ebp], ecx
	mov	eax, DWORD PTR __Message$[ebp]
	push	eax
	mov	ecx, DWORD PTR _this$[ebp]
	call	??0logic_error@std@@QAE@ABV?$basic_string@DU?$char_traits@D@std@@V?$allocator@D@2@@1@@Z ; std::logic_error::logic_error
	mov	DWORD PTR __$EHRec$[ebp+8], 0
	mov	ecx, DWORD PTR _this$[ebp]
	mov	DWORD PTR [ecx], OFFSET ??_7length_error@std@@6B@

; 106  : 		}

	mov	DWORD PTR __$EHRec$[ebp+8], -1
	mov	eax, DWORD PTR _this$[ebp]
	mov	ecx, DWORD PTR __$EHRec$[ebp]
	mov	DWORD PTR fs:0, ecx
	pop	ecx
	mov	esp, ebp
	pop	ebp
	ret	4
_TEXT	ENDS
;	COMDAT text$x
text$x	SEGMENT
__unwindfunclet$??0length_error@std@@QAE@ABV?$basic_string@DU?$char_traits@D@std@@V?$allocator@D@2@@1@@Z$0:
	mov	ecx, DWORD PTR _this$[ebp]
	jmp	??1logic_error@std@@UAE@XZ		; std::logic_error::~logic_error
__ehhandler$??0length_error@std@@QAE@ABV?$basic_string@DU?$char_traits@D@std@@V?$allocator@D@2@@1@@Z:
	mov	edx, DWORD PTR [esp+8]
	lea	eax, DWORD PTR [edx+12]
	mov	ecx, DWORD PTR [edx-8]
	xor	ecx, eax
	call	@__security_check_cookie@4
	mov	eax, OFFSET __ehfuncinfo$??0length_error@std@@QAE@ABV?$basic_string@DU?$char_traits@D@std@@V?$allocator@D@2@@1@@Z
	jmp	___CxxFrameHandler3
text$x	ENDS
??0length_error@std@@QAE@ABV?$basic_string@DU?$char_traits@D@std@@V?$allocator@D@2@@1@@Z ENDP ; std::length_error::length_error
PUBLIC	??_7logic_error@std@@6B@			; std::logic_error::`vftable'
PUBLIC	??_R4logic_error@std@@6B@			; std::logic_error::`RTTI Complete Object Locator'
EXTRN	__imp_??1exception@std@@UAE@XZ:PROC
EXTRN	__imp_??0exception@std@@QAE@XZ:PROC
EXTRN	??_Elogic_error@std@@UAEPAXI@Z:PROC		; std::logic_error::`vector deleting destructor'
;	COMDAT ??_R4logic_error@std@@6B@
rdata$r	SEGMENT
??_R4logic_error@std@@6B@ DD 00H			; std::logic_error::`RTTI Complete Object Locator'
	DD	00H
	DD	00H
	DD	FLAT:??_R0?AVlogic_error@std@@@8
	DD	FLAT:??_R3logic_error@std@@8
rdata$r	ENDS
;	COMDAT ??_7logic_error@std@@6B@
CONST	SEGMENT
??_7logic_error@std@@6B@ DD FLAT:??_R4logic_error@std@@6B@ ; std::logic_error::`vftable'
	DD	FLAT:??_Elogic_error@std@@UAEPAXI@Z
	DD	FLAT:?what@logic_error@std@@UBEPBDXZ
CONST	ENDS
;	COMDAT xdata$x
xdata$x	SEGMENT
__unwindtable$??0logic_error@std@@QAE@ABV?$basic_string@DU?$char_traits@D@std@@V?$allocator@D@2@@1@@Z DD 0ffffffffH
	DD	FLAT:__unwindfunclet$??0logic_error@std@@QAE@ABV?$basic_string@DU?$char_traits@D@std@@V?$allocator@D@2@@1@@Z$0
	DD	00H
	DD	FLAT:__unwindfunclet$??0logic_error@std@@QAE@ABV?$basic_string@DU?$char_traits@D@std@@V?$allocator@D@2@@1@@Z$1
__ehfuncinfo$??0logic_error@std@@QAE@ABV?$basic_string@DU?$char_traits@D@std@@V?$allocator@D@2@@1@@Z DD 019930522H
	DD	02H
	DD	FLAT:__unwindtable$??0logic_error@std@@QAE@ABV?$basic_string@DU?$char_traits@D@std@@V?$allocator@D@2@@1@@Z
	DD	2 DUP(00H)
	DD	2 DUP(00H)
	DD	00H
	DD	00H
; Function compile flags: /Odtp
xdata$x	ENDS
;	COMDAT ??0logic_error@std@@QAE@ABV?$basic_string@DU?$char_traits@D@std@@V?$allocator@D@2@@1@@Z
_TEXT	SEGMENT
_this$ = -16						; size = 4
__$EHRec$ = -12						; size = 12
__Message$ = 8						; size = 4
??0logic_error@std@@QAE@ABV?$basic_string@DU?$char_traits@D@std@@V?$allocator@D@2@@1@@Z PROC ; std::logic_error::logic_error, COMDAT
; _this$ = ecx

; 26   : 		{	// construct from message string

	push	ebp
	mov	ebp, esp
	push	-1
	push	__ehhandler$??0logic_error@std@@QAE@ABV?$basic_string@DU?$char_traits@D@std@@V?$allocator@D@2@@1@@Z
	mov	eax, DWORD PTR fs:0
	push	eax
	push	ecx
	mov	eax, DWORD PTR ___security_cookie
	xor	eax, ebp
	push	eax
	lea	eax, DWORD PTR __$EHRec$[ebp]
	mov	DWORD PTR fs:0, eax
	mov	DWORD PTR _this$[ebp], ecx
	mov	ecx, DWORD PTR _this$[ebp]
	call	DWORD PTR __imp_??0exception@std@@QAE@XZ
	mov	DWORD PTR __$EHRec$[ebp+8], 0
	mov	eax, DWORD PTR _this$[ebp]
	mov	DWORD PTR [eax], OFFSET ??_7logic_error@std@@6B@
	mov	ecx, DWORD PTR __Message$[ebp]
	push	ecx
	mov	ecx, DWORD PTR _this$[ebp]
	add	ecx, 12					; 0000000cH
	call	DWORD PTR __imp_??0?$basic_string@DU?$char_traits@D@std@@V?$allocator@D@2@@std@@QAE@ABV01@@Z
	mov	BYTE PTR __$EHRec$[ebp+8], 1

; 27   : 		}

	mov	DWORD PTR __$EHRec$[ebp+8], -1
	mov	eax, DWORD PTR _this$[ebp]
	mov	ecx, DWORD PTR __$EHRec$[ebp]
	mov	DWORD PTR fs:0, ecx
	pop	ecx
	mov	esp, ebp
	pop	ebp
	ret	4
_TEXT	ENDS
;	COMDAT text$x
text$x	SEGMENT
__unwindfunclet$??0logic_error@std@@QAE@ABV?$basic_string@DU?$char_traits@D@std@@V?$allocator@D@2@@1@@Z$0:
	mov	ecx, DWORD PTR _this$[ebp]
	jmp	DWORD PTR __imp_??1exception@std@@UAE@XZ
__unwindfunclet$??0logic_error@std@@QAE@ABV?$basic_string@DU?$char_traits@D@std@@V?$allocator@D@2@@1@@Z$1:
	mov	ecx, DWORD PTR _this$[ebp]
	add	ecx, 12					; 0000000cH
	jmp	DWORD PTR __imp_??1?$basic_string@DU?$char_traits@D@std@@V?$allocator@D@2@@std@@QAE@XZ
__ehhandler$??0logic_error@std@@QAE@ABV?$basic_string@DU?$char_traits@D@std@@V?$allocator@D@2@@1@@Z:
	mov	edx, DWORD PTR [esp+8]
	lea	eax, DWORD PTR [edx+12]
	mov	ecx, DWORD PTR [edx-8]
	xor	ecx, eax
	call	@__security_check_cookie@4
	mov	eax, OFFSET __ehfuncinfo$??0logic_error@std@@QAE@ABV?$basic_string@DU?$char_traits@D@std@@V?$allocator@D@2@@1@@Z
	jmp	___CxxFrameHandler3
text$x	ENDS
??0logic_error@std@@QAE@ABV?$basic_string@DU?$char_traits@D@std@@V?$allocator@D@2@@1@@Z ENDP ; std::logic_error::logic_error
;	COMDAT xdata$x
xdata$x	SEGMENT
__unwindtable$??1logic_error@std@@UAE@XZ DD 0ffffffffH
	DD	FLAT:__unwindfunclet$??1logic_error@std@@UAE@XZ$0
	DD	00H
	DD	FLAT:__unwindfunclet$??1logic_error@std@@UAE@XZ$1
__ehfuncinfo$??1logic_error@std@@UAE@XZ DD 019930522H
	DD	02H
	DD	FLAT:__unwindtable$??1logic_error@std@@UAE@XZ
	DD	2 DUP(00H)
	DD	2 DUP(00H)
	DD	00H
	DD	00H
; Function compile flags: /Odtp
xdata$x	ENDS
;	COMDAT ??1logic_error@std@@UAE@XZ
_TEXT	SEGMENT
_this$ = -16						; size = 4
__$EHRec$ = -12						; size = 12
??1logic_error@std@@UAE@XZ PROC				; std::logic_error::~logic_error, COMDAT
; _this$ = ecx

; 30   : 		{	// destroy the object

	push	ebp
	mov	ebp, esp
	push	-1
	push	__ehhandler$??1logic_error@std@@UAE@XZ
	mov	eax, DWORD PTR fs:0
	push	eax
	push	ecx
	mov	eax, DWORD PTR ___security_cookie
	xor	eax, ebp
	push	eax
	lea	eax, DWORD PTR __$EHRec$[ebp]
	mov	DWORD PTR fs:0, eax
	mov	DWORD PTR _this$[ebp], ecx
	mov	eax, DWORD PTR _this$[ebp]
	mov	DWORD PTR [eax], OFFSET ??_7logic_error@std@@6B@
	mov	DWORD PTR __$EHRec$[ebp+8], 1

; 31   : 		}

	mov	BYTE PTR __$EHRec$[ebp+8], 0
	mov	ecx, DWORD PTR _this$[ebp]
	add	ecx, 12					; 0000000cH
	call	DWORD PTR __imp_??1?$basic_string@DU?$char_traits@D@std@@V?$allocator@D@2@@std@@QAE@XZ
	mov	DWORD PTR __$EHRec$[ebp+8], -1
	mov	ecx, DWORD PTR _this$[ebp]
	call	DWORD PTR __imp_??1exception@std@@UAE@XZ
	mov	ecx, DWORD PTR __$EHRec$[ebp]
	mov	DWORD PTR fs:0, ecx
	pop	ecx
	mov	esp, ebp
	pop	ebp
	ret	0
_TEXT	ENDS
;	COMDAT text$x
text$x	SEGMENT
__unwindfunclet$??1logic_error@std@@UAE@XZ$0:
	mov	ecx, DWORD PTR _this$[ebp]
	jmp	DWORD PTR __imp_??1exception@std@@UAE@XZ
__unwindfunclet$??1logic_error@std@@UAE@XZ$1:
	mov	ecx, DWORD PTR _this$[ebp]
	add	ecx, 12					; 0000000cH
	jmp	DWORD PTR __imp_??1?$basic_string@DU?$char_traits@D@std@@V?$allocator@D@2@@std@@QAE@XZ
__ehhandler$??1logic_error@std@@UAE@XZ:
	mov	edx, DWORD PTR [esp+8]
	lea	eax, DWORD PTR [edx+12]
	mov	ecx, DWORD PTR [edx-8]
	xor	ecx, eax
	call	@__security_check_cookie@4
	mov	eax, OFFSET __ehfuncinfo$??1logic_error@std@@UAE@XZ
	jmp	___CxxFrameHandler3
text$x	ENDS
??1logic_error@std@@UAE@XZ ENDP				; std::logic_error::~logic_error
EXTRN	__imp_?c_str@?$basic_string@DU?$char_traits@D@std@@V?$allocator@D@2@@std@@QBEPBDXZ:PROC
; Function compile flags: /Odtp
;	COMDAT ?what@logic_error@std@@UBEPBDXZ
_TEXT	SEGMENT
_this$ = -4						; size = 4
?what@logic_error@std@@UBEPBDXZ PROC			; std::logic_error::what, COMDAT
; _this$ = ecx

; 34   : 		{	// return pointer to message string

	push	ebp
	mov	ebp, esp
	push	ecx
	mov	DWORD PTR _this$[ebp], ecx

; 35   : 		return (_Str.c_str());

	mov	ecx, DWORD PTR _this$[ebp]
	add	ecx, 12					; 0000000cH
	call	DWORD PTR __imp_?c_str@?$basic_string@DU?$char_traits@D@std@@V?$allocator@D@2@@std@@QBEPBDXZ

; 36   : 		}

	mov	esp, ebp
	pop	ebp
	ret	0
?what@logic_error@std@@UBEPBDXZ ENDP			; std::logic_error::what
; Function compile flags: /Odtp
_TEXT	ENDS
;	COMDAT ??_Glogic_error@std@@UAEPAXI@Z
_TEXT	SEGMENT
_this$ = -4						; size = 4
___flags$ = 8						; size = 4
??_Glogic_error@std@@UAEPAXI@Z PROC			; std::logic_error::`scalar deleting destructor', COMDAT
; _this$ = ecx
	push	ebp
	mov	ebp, esp
	push	ecx
	mov	DWORD PTR _this$[ebp], ecx
	mov	ecx, DWORD PTR _this$[ebp]
	call	??1logic_error@std@@UAE@XZ		; std::logic_error::~logic_error
	mov	eax, DWORD PTR ___flags$[ebp]
	and	eax, 1
	je	SHORT $LN1@scalar@18
	mov	ecx, DWORD PTR _this$[ebp]
	push	ecx
	call	??3@YAXPAX@Z				; operator delete
	add	esp, 4
$LN1@scalar@18:
	mov	eax, DWORD PTR _this$[ebp]
	mov	esp, ebp
	pop	ebp
	ret	4
??_Glogic_error@std@@UAEPAXI@Z ENDP			; std::logic_error::`scalar deleting destructor'
_TEXT	ENDS
;	COMDAT xdata$x
xdata$x	SEGMENT
__unwindtable$??1length_error@std@@UAE@XZ DD 0ffffffffH
	DD	FLAT:__unwindfunclet$??1length_error@std@@UAE@XZ$0
__ehfuncinfo$??1length_error@std@@UAE@XZ DD 019930522H
	DD	01H
	DD	FLAT:__unwindtable$??1length_error@std@@UAE@XZ
	DD	2 DUP(00H)
	DD	2 DUP(00H)
	DD	00H
	DD	00H
; Function compile flags: /Odtp
xdata$x	ENDS
;	COMDAT ??1length_error@std@@UAE@XZ
_TEXT	SEGMENT
_this$ = -16						; size = 4
__$EHRec$ = -12						; size = 12
??1length_error@std@@UAE@XZ PROC			; std::length_error::~length_error, COMDAT
; _this$ = ecx

; 109  : 		{	// destroy the object

	push	ebp
	mov	ebp, esp
	push	-1
	push	__ehhandler$??1length_error@std@@UAE@XZ
	mov	eax, DWORD PTR fs:0
	push	eax
	push	ecx
	mov	eax, DWORD PTR ___security_cookie
	xor	eax, ebp
	push	eax
	lea	eax, DWORD PTR __$EHRec$[ebp]
	mov	DWORD PTR fs:0, eax
	mov	DWORD PTR _this$[ebp], ecx
	mov	eax, DWORD PTR _this$[ebp]
	mov	DWORD PTR [eax], OFFSET ??_7length_error@std@@6B@
	mov	DWORD PTR __$EHRec$[ebp+8], 0

; 110  : 		}

	mov	DWORD PTR __$EHRec$[ebp+8], -1
	mov	ecx, DWORD PTR _this$[ebp]
	call	??1logic_error@std@@UAE@XZ		; std::logic_error::~logic_error
	mov	ecx, DWORD PTR __$EHRec$[ebp]
	mov	DWORD PTR fs:0, ecx
	pop	ecx
	mov	esp, ebp
	pop	ebp
	ret	0
_TEXT	ENDS
;	COMDAT text$x
text$x	SEGMENT
__unwindfunclet$??1length_error@std@@UAE@XZ$0:
	mov	ecx, DWORD PTR _this$[ebp]
	jmp	??1logic_error@std@@UAE@XZ		; std::logic_error::~logic_error
__ehhandler$??1length_error@std@@UAE@XZ:
	mov	edx, DWORD PTR [esp+8]
	lea	eax, DWORD PTR [edx+12]
	mov	ecx, DWORD PTR [edx-8]
	xor	ecx, eax
	call	@__security_check_cookie@4
	mov	eax, OFFSET __ehfuncinfo$??1length_error@std@@UAE@XZ
	jmp	___CxxFrameHandler3
text$x	ENDS
??1length_error@std@@UAE@XZ ENDP			; std::length_error::~length_error
; Function compile flags: /Odtp
;	COMDAT ??_Glength_error@std@@UAEPAXI@Z
_TEXT	SEGMENT
_this$ = -4						; size = 4
___flags$ = 8						; size = 4
??_Glength_error@std@@UAEPAXI@Z PROC			; std::length_error::`scalar deleting destructor', COMDAT
; _this$ = ecx
	push	ebp
	mov	ebp, esp
	push	ecx
	mov	DWORD PTR _this$[ebp], ecx
	mov	ecx, DWORD PTR _this$[ebp]
	call	??1length_error@std@@UAE@XZ		; std::length_error::~length_error
	mov	eax, DWORD PTR ___flags$[ebp]
	and	eax, 1
	je	SHORT $LN1@scalar@19
	mov	ecx, DWORD PTR _this$[ebp]
	push	ecx
	call	??3@YAXPAX@Z				; operator delete
	add	esp, 4
$LN1@scalar@19:
	mov	eax, DWORD PTR _this$[ebp]
	mov	esp, ebp
	pop	ebp
	ret	4
??_Glength_error@std@@UAEPAXI@Z ENDP			; std::length_error::`scalar deleting destructor'
_TEXT	ENDS
EXTRN	__imp_??0exception@std@@QAE@ABV01@@Z:PROC
;	COMDAT xdata$x
xdata$x	SEGMENT
__unwindtable$??0logic_error@std@@QAE@ABV01@@Z DD 0ffffffffH
	DD	FLAT:__unwindfunclet$??0logic_error@std@@QAE@ABV01@@Z$0
	DD	00H
	DD	FLAT:__unwindfunclet$??0logic_error@std@@QAE@ABV01@@Z$1
__ehfuncinfo$??0logic_error@std@@QAE@ABV01@@Z DD 019930522H
	DD	02H
	DD	FLAT:__unwindtable$??0logic_error@std@@QAE@ABV01@@Z
	DD	2 DUP(00H)
	DD	2 DUP(00H)
	DD	00H
	DD	00H
; Function compile flags: /Odtp
xdata$x	ENDS
;	COMDAT ??0logic_error@std@@QAE@ABV01@@Z
_TEXT	SEGMENT
_this$ = -16						; size = 4
__$EHRec$ = -12						; size = 12
___that$ = 8						; size = 4
??0logic_error@std@@QAE@ABV01@@Z PROC			; std::logic_error::logic_error, COMDAT
; _this$ = ecx
	push	ebp
	mov	ebp, esp
	push	-1
	push	__ehhandler$??0logic_error@std@@QAE@ABV01@@Z
	mov	eax, DWORD PTR fs:0
	push	eax
	push	ecx
	mov	eax, DWORD PTR ___security_cookie
	xor	eax, ebp
	push	eax
	lea	eax, DWORD PTR __$EHRec$[ebp]
	mov	DWORD PTR fs:0, eax
	mov	DWORD PTR _this$[ebp], ecx
	mov	eax, DWORD PTR ___that$[ebp]
	push	eax
	mov	ecx, DWORD PTR _this$[ebp]
	call	DWORD PTR __imp_??0exception@std@@QAE@ABV01@@Z
	mov	DWORD PTR __$EHRec$[ebp+8], 0
	mov	ecx, DWORD PTR _this$[ebp]
	mov	DWORD PTR [ecx], OFFSET ??_7logic_error@std@@6B@
	mov	edx, DWORD PTR ___that$[ebp]
	add	edx, 12					; 0000000cH
	push	edx
	mov	ecx, DWORD PTR _this$[ebp]
	add	ecx, 12					; 0000000cH
	call	DWORD PTR __imp_??0?$basic_string@DU?$char_traits@D@std@@V?$allocator@D@2@@std@@QAE@ABV01@@Z
	mov	BYTE PTR __$EHRec$[ebp+8], 1
	mov	DWORD PTR __$EHRec$[ebp+8], -1
	mov	eax, DWORD PTR _this$[ebp]
	mov	ecx, DWORD PTR __$EHRec$[ebp]
	mov	DWORD PTR fs:0, ecx
	pop	ecx
	mov	esp, ebp
	pop	ebp
	ret	4
_TEXT	ENDS
;	COMDAT text$x
text$x	SEGMENT
__unwindfunclet$??0logic_error@std@@QAE@ABV01@@Z$0:
	mov	ecx, DWORD PTR _this$[ebp]
	jmp	DWORD PTR __imp_??1exception@std@@UAE@XZ
__unwindfunclet$??0logic_error@std@@QAE@ABV01@@Z$1:
	mov	ecx, DWORD PTR _this$[ebp]
	add	ecx, 12					; 0000000cH
	jmp	DWORD PTR __imp_??1?$basic_string@DU?$char_traits@D@std@@V?$allocator@D@2@@std@@QAE@XZ
__ehhandler$??0logic_error@std@@QAE@ABV01@@Z:
	mov	edx, DWORD PTR [esp+8]
	lea	eax, DWORD PTR [edx+12]
	mov	ecx, DWORD PTR [edx-8]
	xor	ecx, eax
	call	@__security_check_cookie@4
	mov	eax, OFFSET __ehfuncinfo$??0logic_error@std@@QAE@ABV01@@Z
	jmp	___CxxFrameHandler3
text$x	ENDS
??0logic_error@std@@QAE@ABV01@@Z ENDP			; std::logic_error::logic_error
PUBLIC	??3@YAXPAX0@Z					; operator delete
PUBLIC	??0_Aux_cont@std@@QAE@QBV_Container_base_aux@1@@Z ; std::_Aux_cont::_Aux_cont
PUBLIC	??2@YAPAXIPAX@Z					; operator new
PUBLIC	?allocate@?$allocator@V_Aux_cont@std@@@std@@QAEPAV_Aux_cont@2@I@Z ; std::allocator<std::_Aux_cont>::allocate
PUBLIC	??$?0D@?$allocator@V_Aux_cont@std@@@std@@QAE@ABV?$allocator@D@1@@Z ; std::allocator<std::_Aux_cont>::allocator<std::_Aux_cont><char>
PUBLIC	??0_Container_base_aux@std@@QAE@XZ		; std::_Container_base_aux::_Container_base_aux
;	COMDAT xdata$x
; File d:\program files (x86)\microsoft visual studio 9.0\vc\include\xutility
xdata$x	SEGMENT
__unwindtable$??0?$_Container_base_aux_alloc_real@V?$allocator@D@std@@@std@@IAE@V?$allocator@D@1@@Z DD 0ffffffffH
	DD	FLAT:__unwindfunclet$??0?$_Container_base_aux_alloc_real@V?$allocator@D@std@@@std@@IAE@V?$allocator@D@1@@Z$0
	DD	00H
	DD	FLAT:__unwindfunclet$??0?$_Container_base_aux_alloc_real@V?$allocator@D@std@@@std@@IAE@V?$allocator@D@1@@Z$1
__ehfuncinfo$??0?$_Container_base_aux_alloc_real@V?$allocator@D@std@@@std@@IAE@V?$allocator@D@1@@Z DD 019930522H
	DD	02H
	DD	FLAT:__unwindtable$??0?$_Container_base_aux_alloc_real@V?$allocator@D@std@@@std@@IAE@V?$allocator@D@1@@Z
	DD	2 DUP(00H)
	DD	2 DUP(00H)
	DD	00H
	DD	00H
; Function compile flags: /Odtp
xdata$x	ENDS
;	COMDAT ??0?$_Container_base_aux_alloc_real@V?$allocator@D@std@@@std@@IAE@V?$allocator@D@1@@Z
_TEXT	SEGMENT
tv133 = -32						; size = 4
_this$ = -28						; size = 4
$T68308 = -24						; size = 4
$T68307 = -20						; size = 4
$T68306 = -16						; size = 4
__$EHRec$ = -12						; size = 12
__Al$ = 8						; size = 1
??0?$_Container_base_aux_alloc_real@V?$allocator@D@std@@@std@@IAE@V?$allocator@D@1@@Z PROC ; std::_Container_base_aux_alloc_real<std::allocator<char> >::_Container_base_aux_alloc_real<std::allocator<char> >, COMDAT
; _this$ = ecx

; 419  : 		{

	push	ebp
	mov	ebp, esp
	push	-1
	push	__ehhandler$??0?$_Container_base_aux_alloc_real@V?$allocator@D@std@@@std@@IAE@V?$allocator@D@1@@Z
	mov	eax, DWORD PTR fs:0
	push	eax
	sub	esp, 20					; 00000014H
	mov	eax, DWORD PTR ___security_cookie
	xor	eax, ebp
	push	eax
	lea	eax, DWORD PTR __$EHRec$[ebp]
	mov	DWORD PTR fs:0, eax
	mov	DWORD PTR _this$[ebp], ecx
	mov	ecx, DWORD PTR _this$[ebp]
	call	??0_Container_base_aux@std@@QAE@XZ	; std::_Container_base_aux::_Container_base_aux
	mov	DWORD PTR __$EHRec$[ebp+8], 0
	lea	eax, DWORD PTR __Al$[ebp]
	push	eax
	mov	ecx, DWORD PTR _this$[ebp]
	add	ecx, 4
	call	??$?0D@?$allocator@V_Aux_cont@std@@@std@@QAE@ABV?$allocator@D@1@@Z ; std::allocator<std::_Aux_cont>::allocator<std::_Aux_cont><char>

; 420  : 		_Myownedaux = new (_Alaux.allocate(1)) _Aux_cont(this);

	push	1
	mov	ecx, DWORD PTR _this$[ebp]
	add	ecx, 4
	call	?allocate@?$allocator@V_Aux_cont@std@@@std@@QAEPAV_Aux_cont@2@I@Z ; std::allocator<std::_Aux_cont>::allocate
	mov	DWORD PTR $T68308[ebp], eax
	mov	ecx, DWORD PTR $T68308[ebp]
	push	ecx
	push	4
	call	??2@YAPAXIPAX@Z				; operator new
	add	esp, 8
	mov	DWORD PTR $T68307[ebp], eax
	mov	BYTE PTR __$EHRec$[ebp+8], 1
	cmp	DWORD PTR $T68307[ebp], 0
	je	SHORT $LN3@Container_
	mov	edx, DWORD PTR _this$[ebp]
	push	edx
	mov	ecx, DWORD PTR $T68307[ebp]
	call	??0_Aux_cont@std@@QAE@QBV_Container_base_aux@1@@Z ; std::_Aux_cont::_Aux_cont
	mov	DWORD PTR tv133[ebp], eax
	jmp	SHORT $LN4@Container_
$LN3@Container_:
	mov	DWORD PTR tv133[ebp], 0
$LN4@Container_:
	mov	eax, DWORD PTR tv133[ebp]
	mov	DWORD PTR $T68306[ebp], eax
	mov	BYTE PTR __$EHRec$[ebp+8], 0
	mov	ecx, DWORD PTR _this$[ebp]
	mov	edx, DWORD PTR $T68306[ebp]
	mov	DWORD PTR [ecx], edx

; 421  : 		}

	mov	DWORD PTR __$EHRec$[ebp+8], -1
	mov	eax, DWORD PTR _this$[ebp]
	mov	ecx, DWORD PTR __$EHRec$[ebp]
	mov	DWORD PTR fs:0, ecx
	pop	ecx
	mov	esp, ebp
	pop	ebp
	ret	4
_TEXT	ENDS
;	COMDAT text$x
text$x	SEGMENT
__unwindfunclet$??0?$_Container_base_aux_alloc_real@V?$allocator@D@std@@@std@@IAE@V?$allocator@D@1@@Z$0:
	mov	ecx, DWORD PTR _this$[ebp]
	jmp	??1_Container_base_aux@std@@QAE@XZ	; std::_Container_base_aux::~_Container_base_aux
__unwindfunclet$??0?$_Container_base_aux_alloc_real@V?$allocator@D@std@@@std@@IAE@V?$allocator@D@1@@Z$1:
	mov	eax, DWORD PTR $T68308[ebp]
	push	eax
	mov	ecx, DWORD PTR $T68307[ebp]
	push	ecx
	call	??3@YAXPAX0@Z				; operator delete
	add	esp, 8
	ret	0
__ehhandler$??0?$_Container_base_aux_alloc_real@V?$allocator@D@std@@@std@@IAE@V?$allocator@D@1@@Z:
	mov	edx, DWORD PTR [esp+8]
	lea	eax, DWORD PTR [edx+12]
	mov	ecx, DWORD PTR [edx-24]
	xor	ecx, eax
	call	@__security_check_cookie@4
	mov	eax, OFFSET __ehfuncinfo$??0?$_Container_base_aux_alloc_real@V?$allocator@D@std@@@std@@IAE@V?$allocator@D@1@@Z
	jmp	___CxxFrameHandler3
text$x	ENDS
??0?$_Container_base_aux_alloc_real@V?$allocator@D@std@@@std@@IAE@V?$allocator@D@1@@Z ENDP ; std::_Container_base_aux_alloc_real<std::allocator<char> >::_Container_base_aux_alloc_real<std::allocator<char> >
; Function compile flags: /Odtp
; File d:\program files (x86)\microsoft visual studio 9.0\vc\include\new
;	COMDAT ??2@YAPAXIPAX@Z
_TEXT	SEGMENT
___formal$ = 8						; size = 4
__Where$ = 12						; size = 4
??2@YAPAXIPAX@Z PROC					; operator new, COMDAT

; 58   : 	{	// construct array with placement at _Where

	push	ebp
	mov	ebp, esp

; 59   : 	return (_Where);

	mov	eax, DWORD PTR __Where$[ebp]

; 60   : 	}

	pop	ebp
	ret	0
??2@YAPAXIPAX@Z ENDP					; operator new
; Function compile flags: /Odtp
_TEXT	ENDS
;	COMDAT ??3@YAXPAX0@Z
_TEXT	SEGMENT
___formal$ = 8						; size = 4
___formal$ = 12						; size = 4
??3@YAXPAX0@Z PROC					; operator delete, COMDAT

; 63   : 	{	// delete if placement new fails

	push	ebp
	mov	ebp, esp

; 64   : 	}

	pop	ebp
	ret	0
??3@YAXPAX0@Z ENDP					; operator delete
; Function compile flags: /Odtp
; File d:\program files (x86)\microsoft visual studio 9.0\vc\include\xutility
_TEXT	ENDS
;	COMDAT ??0_Aux_cont@std@@QAE@QBV_Container_base_aux@1@@Z
_TEXT	SEGMENT
_this$ = -4						; size = 4
__Pcont$ = 8						; size = 4
??0_Aux_cont@std@@QAE@QBV_Container_base_aux@1@@Z PROC	; std::_Aux_cont::_Aux_cont, COMDAT
; _this$ = ecx

; 364  : 	explicit _Aux_cont(const _Container_base_aux * const _Pcont)

	push	ebp
	mov	ebp, esp
	push	ecx
	mov	DWORD PTR _this$[ebp], ecx
	mov	eax, DWORD PTR _this$[ebp]
	mov	ecx, DWORD PTR __Pcont$[ebp]
	mov	DWORD PTR [eax], ecx
	mov	eax, DWORD PTR _this$[ebp]
	mov	esp, ebp
	pop	ebp
	ret	4
??0_Aux_cont@std@@QAE@QBV_Container_base_aux@1@@Z ENDP	; std::_Aux_cont::_Aux_cont
; Function compile flags: /Odtp
_TEXT	ENDS
;	COMDAT ??0_Container_base_aux@std@@QAE@XZ
_TEXT	SEGMENT
_this$ = -4						; size = 4
??0_Container_base_aux@std@@QAE@XZ PROC			; std::_Container_base_aux::_Container_base_aux, COMDAT
; _this$ = ecx

; 379  : 	_Container_base_aux()

	push	ebp
	mov	ebp, esp
	push	ecx
	mov	DWORD PTR _this$[ebp], ecx

; 380  : 		{
; 381  : 		// Do nothing: _Container_base_aux_alloc_real() will construct the aux object.
; 382  : 		}

	mov	eax, DWORD PTR _this$[ebp]
	mov	esp, ebp
	pop	ebp
	ret	0
??0_Container_base_aux@std@@QAE@XZ ENDP			; std::_Container_base_aux::_Container_base_aux
; Function compile flags: /Odtp
; File d:\program files (x86)\microsoft visual studio 9.0\vc\include\xmemory
_TEXT	ENDS
;	COMDAT ?deallocate@?$allocator@V_Aux_cont@std@@@std@@QAEXPAV_Aux_cont@2@I@Z
_TEXT	SEGMENT
_this$ = -4						; size = 4
__Ptr$ = 8						; size = 4
___formal$ = 12						; size = 4
?deallocate@?$allocator@V_Aux_cont@std@@@std@@QAEXPAV_Aux_cont@2@I@Z PROC ; std::allocator<std::_Aux_cont>::deallocate, COMDAT
; _this$ = ecx

; 139  : 		{	// deallocate object at _Ptr, ignore size

	push	ebp
	mov	ebp, esp
	push	ecx
	mov	DWORD PTR _this$[ebp], ecx

; 140  : 		::operator delete(_Ptr);

	mov	eax, DWORD PTR __Ptr$[ebp]
	push	eax
	call	??3@YAXPAX@Z				; operator delete
	add	esp, 4

; 141  : 		}

	mov	esp, ebp
	pop	ebp
	ret	8
?deallocate@?$allocator@V_Aux_cont@std@@@std@@QAEXPAV_Aux_cont@2@I@Z ENDP ; std::allocator<std::_Aux_cont>::deallocate
_TEXT	ENDS
PUBLIC	??0?$_Vector_iterator@PAVSurfaceData@Ogre@@V?$allocator@PAVSurfaceData@Ogre@@@std@@@std@@QAE@PAPAVSurfaceData@Ogre@@PBV_Container_base_aux@1@@Z ; std::_Vector_iterator<Ogre::SurfaceData *,std::allocator<Ogre::SurfaceData *> >::_Vector_iterator<Ogre::SurfaceData *,std::allocator<Ogre::SurfaceData *> >
; Function compile flags: /Odtp
; File d:\program files (x86)\microsoft visual studio 9.0\vc\include\vector
;	COMDAT ?begin@?$vector@PAVSurfaceData@Ogre@@V?$allocator@PAVSurfaceData@Ogre@@@std@@@std@@QAE?AV?$_Vector_iterator@PAVSurfaceData@Ogre@@V?$allocator@PAVSurfaceData@Ogre@@@std@@@2@XZ
_TEXT	SEGMENT
_this$ = -4						; size = 4
___$ReturnUdt$ = 8					; size = 4
?begin@?$vector@PAVSurfaceData@Ogre@@V?$allocator@PAVSurfaceData@Ogre@@@std@@@std@@QAE?AV?$_Vector_iterator@PAVSurfaceData@Ogre@@V?$allocator@PAVSurfaceData@Ogre@@@std@@@2@XZ PROC ; std::vector<Ogre::SurfaceData *,std::allocator<Ogre::SurfaceData *> >::begin, COMDAT
; _this$ = ecx

; 640  : 		{	// return iterator for beginning of mutable sequence

	push	ebp
	mov	ebp, esp
	push	ecx
	mov	DWORD PTR _this$[ebp], ecx

; 641  : 		return (iterator(_Myfirst, this));

	mov	eax, DWORD PTR _this$[ebp]
	push	eax
	mov	ecx, DWORD PTR _this$[ebp]
	mov	edx, DWORD PTR [ecx+12]
	push	edx
	mov	ecx, DWORD PTR ___$ReturnUdt$[ebp]
	call	??0?$_Vector_iterator@PAVSurfaceData@Ogre@@V?$allocator@PAVSurfaceData@Ogre@@@std@@@std@@QAE@PAPAVSurfaceData@Ogre@@PBV_Container_base_aux@1@@Z ; std::_Vector_iterator<Ogre::SurfaceData *,std::allocator<Ogre::SurfaceData *> >::_Vector_iterator<Ogre::SurfaceData *,std::allocator<Ogre::SurfaceData *> >
	mov	eax, DWORD PTR ___$ReturnUdt$[ebp]

; 642  : 		}

	mov	esp, ebp
	pop	ebp
	ret	4
?begin@?$vector@PAVSurfaceData@Ogre@@V?$allocator@PAVSurfaceData@Ogre@@@std@@@std@@QAE?AV?$_Vector_iterator@PAVSurfaceData@Ogre@@V?$allocator@PAVSurfaceData@Ogre@@@std@@@2@XZ ENDP ; std::vector<Ogre::SurfaceData *,std::allocator<Ogre::SurfaceData *> >::begin
; Function compile flags: /Odtp
_TEXT	ENDS
;	COMDAT ?end@?$vector@PAVSurfaceData@Ogre@@V?$allocator@PAVSurfaceData@Ogre@@@std@@@std@@QAE?AV?$_Vector_iterator@PAVSurfaceData@Ogre@@V?$allocator@PAVSurfaceData@Ogre@@@std@@@2@XZ
_TEXT	SEGMENT
_this$ = -4						; size = 4
___$ReturnUdt$ = 8					; size = 4
?end@?$vector@PAVSurfaceData@Ogre@@V?$allocator@PAVSurfaceData@Ogre@@@std@@@std@@QAE?AV?$_Vector_iterator@PAVSurfaceData@Ogre@@V?$allocator@PAVSurfaceData@Ogre@@@std@@@2@XZ PROC ; std::vector<Ogre::SurfaceData *,std::allocator<Ogre::SurfaceData *> >::end, COMDAT
; _this$ = ecx

; 650  : 		{	// return iterator for end of mutable sequence

	push	ebp
	mov	ebp, esp
	push	ecx
	mov	DWORD PTR _this$[ebp], ecx

; 651  : 		return (iterator(_Mylast, this));

	mov	eax, DWORD PTR _this$[ebp]
	push	eax
	mov	ecx, DWORD PTR _this$[ebp]
	mov	edx, DWORD PTR [ecx+16]
	push	edx
	mov	ecx, DWORD PTR ___$ReturnUdt$[ebp]
	call	??0?$_Vector_iterator@PAVSurfaceData@Ogre@@V?$allocator@PAVSurfaceData@Ogre@@@std@@@std@@QAE@PAPAVSurfaceData@Ogre@@PBV_Container_base_aux@1@@Z ; std::_Vector_iterator<Ogre::SurfaceData *,std::allocator<Ogre::SurfaceData *> >::_Vector_iterator<Ogre::SurfaceData *,std::allocator<Ogre::SurfaceData *> >
	mov	eax, DWORD PTR ___$ReturnUdt$[ebp]

; 652  : 		}

	mov	esp, ebp
	pop	ebp
	ret	4
?end@?$vector@PAVSurfaceData@Ogre@@V?$allocator@PAVSurfaceData@Ogre@@@std@@@std@@QAE?AV?$_Vector_iterator@PAVSurfaceData@Ogre@@V?$allocator@PAVSurfaceData@Ogre@@@std@@@2@XZ ENDP ; std::vector<Ogre::SurfaceData *,std::allocator<Ogre::SurfaceData *> >::end
_TEXT	ENDS
PUBLIC	?max_size@?$allocator@PAVSurfaceData@Ogre@@@std@@QBEIXZ ; std::allocator<Ogre::SurfaceData *>::max_size
; Function compile flags: /Odtp
;	COMDAT ?max_size@?$vector@PAVSurfaceData@Ogre@@V?$allocator@PAVSurfaceData@Ogre@@@std@@@std@@QBEIXZ
_TEXT	SEGMENT
_this$ = -4						; size = 4
?max_size@?$vector@PAVSurfaceData@Ogre@@V?$allocator@PAVSurfaceData@Ogre@@@std@@@std@@QBEIXZ PROC ; std::vector<Ogre::SurfaceData *,std::allocator<Ogre::SurfaceData *> >::max_size, COMDAT
; _this$ = ecx

; 730  : 		{	// return maximum possible length of sequence

	push	ebp
	mov	ebp, esp
	push	ecx
	mov	DWORD PTR _this$[ebp], ecx

; 731  : 		return (this->_Alval.max_size());

	mov	ecx, DWORD PTR _this$[ebp]
	add	ecx, 8
	call	?max_size@?$allocator@PAVSurfaceData@Ogre@@@std@@QBEIXZ ; std::allocator<Ogre::SurfaceData *>::max_size

; 732  : 		}

	mov	esp, ebp
	pop	ebp
	ret	0
?max_size@?$vector@PAVSurfaceData@Ogre@@V?$allocator@PAVSurfaceData@Ogre@@@std@@@std@@QBEIXZ ENDP ; std::vector<Ogre::SurfaceData *,std::allocator<Ogre::SurfaceData *> >::max_size
_TEXT	ENDS
PUBLIC	??9?$_Vector_const_iterator@PAVSurfaceData@Ogre@@V?$allocator@PAVSurfaceData@Ogre@@@std@@@std@@QBE_NABV01@@Z ; std::_Vector_const_iterator<Ogre::SurfaceData *,std::allocator<Ogre::SurfaceData *> >::operator!=
PUBLIC	?_Make_iter@?$vector@PAVSurfaceData@Ogre@@V?$allocator@PAVSurfaceData@Ogre@@@std@@@std@@QBE?AV?$_Vector_iterator@PAVSurfaceData@Ogre@@V?$allocator@PAVSurfaceData@Ogre@@@std@@@2@V?$_Vector_const_iterator@PAVSurfaceData@Ogre@@V?$allocator@PAVSurfaceData@Ogre@@@std@@@2@@Z ; std::vector<Ogre::SurfaceData *,std::allocator<Ogre::SurfaceData *> >::_Make_iter
; Function compile flags: /Odtp
;	COMDAT ?erase@?$vector@PAVSurfaceData@Ogre@@V?$allocator@PAVSurfaceData@Ogre@@@std@@@std@@QAE?AV?$_Vector_iterator@PAVSurfaceData@Ogre@@V?$allocator@PAVSurfaceData@Ogre@@@std@@@2@V?$_Vector_const_iterator@PAVSurfaceData@Ogre@@V?$allocator@PAVSurfaceData@Ogre@@@std@@@2@0@Z
_TEXT	SEGMENT
_this$ = -24						; size = 4
__Ptr$62949 = -20					; size = 4
__Last$ = -16						; size = 8
__First$ = -8						; size = 8
___$ReturnUdt$ = 8					; size = 4
__First_arg$ = 12					; size = 8
__Last_arg$ = 20					; size = 8
?erase@?$vector@PAVSurfaceData@Ogre@@V?$allocator@PAVSurfaceData@Ogre@@@std@@@std@@QAE?AV?$_Vector_iterator@PAVSurfaceData@Ogre@@V?$allocator@PAVSurfaceData@Ogre@@@std@@@2@V?$_Vector_const_iterator@PAVSurfaceData@Ogre@@V?$allocator@PAVSurfaceData@Ogre@@@std@@@2@0@Z PROC ; std::vector<Ogre::SurfaceData *,std::allocator<Ogre::SurfaceData *> >::erase, COMDAT
; _this$ = ecx

; 1028 : 		{	// erase [_First, _Last)

	push	ebp
	mov	ebp, esp
	sub	esp, 24					; 00000018H
	mov	DWORD PTR _this$[ebp], ecx

; 1029 : 		iterator _First = _Make_iter(_First_arg);

	mov	eax, DWORD PTR __First_arg$[ebp+4]
	push	eax
	mov	ecx, DWORD PTR __First_arg$[ebp]
	push	ecx
	lea	edx, DWORD PTR __First$[ebp]
	push	edx
	mov	ecx, DWORD PTR _this$[ebp]
	call	?_Make_iter@?$vector@PAVSurfaceData@Ogre@@V?$allocator@PAVSurfaceData@Ogre@@@std@@@std@@QBE?AV?$_Vector_iterator@PAVSurfaceData@Ogre@@V?$allocator@PAVSurfaceData@Ogre@@@std@@@2@V?$_Vector_const_iterator@PAVSurfaceData@Ogre@@V?$allocator@PAVSurfaceData@Ogre@@@std@@@2@@Z ; std::vector<Ogre::SurfaceData *,std::allocator<Ogre::SurfaceData *> >::_Make_iter

; 1030 : 		iterator _Last = _Make_iter(_Last_arg);

	mov	eax, DWORD PTR __Last_arg$[ebp+4]
	push	eax
	mov	ecx, DWORD PTR __Last_arg$[ebp]
	push	ecx
	lea	edx, DWORD PTR __Last$[ebp]
	push	edx
	mov	ecx, DWORD PTR _this$[ebp]
	call	?_Make_iter@?$vector@PAVSurfaceData@Ogre@@V?$allocator@PAVSurfaceData@Ogre@@@std@@@std@@QBE?AV?$_Vector_iterator@PAVSurfaceData@Ogre@@V?$allocator@PAVSurfaceData@Ogre@@@std@@@2@V?$_Vector_const_iterator@PAVSurfaceData@Ogre@@V?$allocator@PAVSurfaceData@Ogre@@@std@@@2@@Z ; std::vector<Ogre::SurfaceData *,std::allocator<Ogre::SurfaceData *> >::_Make_iter

; 1031 : 
; 1032 : 		if (_First != _Last)

	lea	eax, DWORD PTR __Last$[ebp]
	push	eax
	lea	ecx, DWORD PTR __First$[ebp]
	call	??9?$_Vector_const_iterator@PAVSurfaceData@Ogre@@V?$allocator@PAVSurfaceData@Ogre@@@std@@@std@@QBE_NABV01@@Z ; std::_Vector_const_iterator<Ogre::SurfaceData *,std::allocator<Ogre::SurfaceData *> >::operator!=
	movzx	ecx, al
	test	ecx, ecx
	je	SHORT $LN1@erase@2

; 1033 : 			{	// worth doing, copy down over hole
; 1034 : 
; 1035 :  #if _HAS_ITERATOR_DEBUGGING
; 1036 : 			if (_Last < _First || _First._Mycont != this
; 1037 : 				|| _First._Myptr < _Myfirst || _Mylast < _Last._Myptr)
; 1038 : 				_DEBUG_ERROR("vector erase iterator outside range");
; 1039 : 			pointer _Ptr = _STDEXT unchecked_copy(_VEC_ITER_BASE(_Last), _Mylast,
; 1040 : 				_VEC_ITER_BASE(_First));
; 1041 : 			_Orphan_range(_First._Myptr, _Mylast);
; 1042 : 
; 1043 :  #else /* _HAS_ITERATOR_DEBUGGING */
; 1044 : 			pointer _Ptr = _STDEXT unchecked_copy(_VEC_ITER_BASE(_Last), _Mylast,
; 1045 : 				_VEC_ITER_BASE(_First));

	mov	edx, DWORD PTR __First$[ebp+4]
	push	edx
	mov	eax, DWORD PTR _this$[ebp]
	mov	ecx, DWORD PTR [eax+16]
	push	ecx
	mov	edx, DWORD PTR __Last$[ebp+4]
	push	edx
	call	??$unchecked_copy@PAPAVSurfaceData@Ogre@@PAPAV12@@stdext@@YAPAPAVSurfaceData@Ogre@@PAPAV12@00@Z ; stdext::unchecked_copy<Ogre::SurfaceData * *,Ogre::SurfaceData * *>
	add	esp, 12					; 0000000cH
	mov	DWORD PTR __Ptr$62949[ebp], eax

; 1046 :  #endif /* _HAS_ITERATOR_DEBUGGING */
; 1047 : 
; 1048 : 			_Destroy(_Ptr, _Mylast);

	mov	eax, DWORD PTR _this$[ebp]
	mov	ecx, DWORD PTR [eax+16]
	push	ecx
	mov	edx, DWORD PTR __Ptr$62949[ebp]
	push	edx
	mov	ecx, DWORD PTR _this$[ebp]
	call	?_Destroy@?$vector@PAVSurfaceData@Ogre@@V?$allocator@PAVSurfaceData@Ogre@@@std@@@std@@IAEXPAPAVSurfaceData@Ogre@@0@Z ; std::vector<Ogre::SurfaceData *,std::allocator<Ogre::SurfaceData *> >::_Destroy

; 1049 : 			_Mylast = _Ptr;

	mov	eax, DWORD PTR _this$[ebp]
	mov	ecx, DWORD PTR __Ptr$62949[ebp]
	mov	DWORD PTR [eax+16], ecx
$LN1@erase@2:

; 1050 : 			}
; 1051 : #if _HAS_ITERATOR_DEBUGGING
; 1052 :         return (iterator(_First._Myptr, this));
; 1053 : #else
; 1054 : 		return (_First);

	mov	edx, DWORD PTR ___$ReturnUdt$[ebp]
	mov	eax, DWORD PTR __First$[ebp]
	mov	DWORD PTR [edx], eax
	mov	ecx, DWORD PTR __First$[ebp+4]
	mov	DWORD PTR [edx+4], ecx
	mov	eax, DWORD PTR ___$ReturnUdt$[ebp]

; 1055 : #endif
; 1056 : 		}

	mov	esp, ebp
	pop	ebp
	ret	20					; 00000014H
?erase@?$vector@PAVSurfaceData@Ogre@@V?$allocator@PAVSurfaceData@Ogre@@@std@@@std@@QAE?AV?$_Vector_iterator@PAVSurfaceData@Ogre@@V?$allocator@PAVSurfaceData@Ogre@@@std@@@2@V?$_Vector_const_iterator@PAVSurfaceData@Ogre@@V?$allocator@PAVSurfaceData@Ogre@@@std@@@2@0@Z ENDP ; std::vector<Ogre::SurfaceData *,std::allocator<Ogre::SurfaceData *> >::erase
_TEXT	ENDS
;	COMDAT xdata$x
xdata$x	SEGMENT
__unwindtable$?_Xlen@?$vector@PAVSurfaceData@Ogre@@V?$allocator@PAVSurfaceData@Ogre@@@std@@@std@@KAXXZ DD 0ffffffffH
	DD	FLAT:__unwindfunclet$?_Xlen@?$vector@PAVSurfaceData@Ogre@@V?$allocator@PAVSurfaceData@Ogre@@@std@@@std@@KAXXZ$0
__ehfuncinfo$?_Xlen@?$vector@PAVSurfaceData@Ogre@@V?$allocator@PAVSurfaceData@Ogre@@@std@@@std@@KAXXZ DD 019930522H
	DD	01H
	DD	FLAT:__unwindtable$?_Xlen@?$vector@PAVSurfaceData@Ogre@@V?$allocator@PAVSurfaceData@Ogre@@@std@@@std@@KAXXZ
	DD	2 DUP(00H)
	DD	2 DUP(00H)
	DD	00H
	DD	00H
; Function compile flags: /Odtp
xdata$x	ENDS
;	COMDAT ?_Xlen@?$vector@PAVSurfaceData@Ogre@@V?$allocator@PAVSurfaceData@Ogre@@@std@@@std@@KAXXZ
_TEXT	SEGMENT
$T68340 = -80						; size = 28
$T68339 = -52						; size = 40
__$EHRec$ = -12						; size = 12
?_Xlen@?$vector@PAVSurfaceData@Ogre@@V?$allocator@PAVSurfaceData@Ogre@@@std@@@std@@KAXXZ PROC ; std::vector<Ogre::SurfaceData *,std::allocator<Ogre::SurfaceData *> >::_Xlen, COMDAT

; 1259 : 		{	// report a length_error

	push	ebp
	mov	ebp, esp
	push	-1
	push	__ehhandler$?_Xlen@?$vector@PAVSurfaceData@Ogre@@V?$allocator@PAVSurfaceData@Ogre@@@std@@@std@@KAXXZ
	mov	eax, DWORD PTR fs:0
	push	eax
	sub	esp, 68					; 00000044H
	mov	eax, DWORD PTR ___security_cookie
	xor	eax, ebp
	push	eax
	lea	eax, DWORD PTR __$EHRec$[ebp]
	mov	DWORD PTR fs:0, eax

; 1260 : 		_THROW(length_error, "vector<T> too long");

	push	OFFSET ??_C@_0BD@OLBABOEK@vector?$DMT?$DO?5too?5long?$AA@
	lea	ecx, DWORD PTR $T68340[ebp]
	call	DWORD PTR __imp_??0?$basic_string@DU?$char_traits@D@std@@V?$allocator@D@2@@std@@QAE@PBD@Z
	mov	DWORD PTR __$EHRec$[ebp+8], 0
	lea	eax, DWORD PTR $T68340[ebp]
	push	eax
	lea	ecx, DWORD PTR $T68339[ebp]
	call	??0length_error@std@@QAE@ABV?$basic_string@DU?$char_traits@D@std@@V?$allocator@D@2@@1@@Z ; std::length_error::length_error
	push	OFFSET __TI3?AVlength_error@std@@
	lea	ecx, DWORD PTR $T68339[ebp]
	push	ecx
	call	__CxxThrowException@8
	mov	DWORD PTR __$EHRec$[ebp+8], -1
	lea	ecx, DWORD PTR $T68340[ebp]
	call	DWORD PTR __imp_??1?$basic_string@DU?$char_traits@D@std@@V?$allocator@D@2@@std@@QAE@XZ
$LN2@Xlen@2:

; 1261 : 		}

	mov	ecx, DWORD PTR __$EHRec$[ebp]
	mov	DWORD PTR fs:0, ecx
	pop	ecx
	mov	esp, ebp
	pop	ebp
	ret	0
_TEXT	ENDS
;	COMDAT text$x
text$x	SEGMENT
__unwindfunclet$?_Xlen@?$vector@PAVSurfaceData@Ogre@@V?$allocator@PAVSurfaceData@Ogre@@@std@@@std@@KAXXZ$0:
	lea	ecx, DWORD PTR $T68340[ebp]
	jmp	DWORD PTR __imp_??1?$basic_string@DU?$char_traits@D@std@@V?$allocator@D@2@@std@@QAE@XZ
__ehhandler$?_Xlen@?$vector@PAVSurfaceData@Ogre@@V?$allocator@PAVSurfaceData@Ogre@@@std@@@std@@KAXXZ:
	mov	edx, DWORD PTR [esp+8]
	lea	eax, DWORD PTR [edx+12]
	mov	ecx, DWORD PTR [edx-72]
	xor	ecx, eax
	call	@__security_check_cookie@4
	mov	eax, OFFSET __ehfuncinfo$?_Xlen@?$vector@PAVSurfaceData@Ogre@@V?$allocator@PAVSurfaceData@Ogre@@@std@@@std@@KAXXZ
	jmp	___CxxFrameHandler3
text$x	ENDS
?_Xlen@?$vector@PAVSurfaceData@Ogre@@V?$allocator@PAVSurfaceData@Ogre@@@std@@@std@@KAXXZ ENDP ; std::vector<Ogre::SurfaceData *,std::allocator<Ogre::SurfaceData *> >::_Xlen
PUBLIC	??$?0PAVSurfaceData@Ogre@@@?$allocator@V_Aux_cont@std@@@std@@QAE@ABV?$allocator@PAVSurfaceData@Ogre@@@1@@Z ; std::allocator<std::_Aux_cont>::allocator<std::_Aux_cont><Ogre::SurfaceData *>
;	COMDAT xdata$x
; File d:\program files (x86)\microsoft visual studio 9.0\vc\include\xutility
xdata$x	SEGMENT
__unwindtable$??0?$_Container_base_aux_alloc_real@V?$allocator@PAVSurfaceData@Ogre@@@std@@@std@@IAE@V?$allocator@PAVSurfaceData@Ogre@@@1@@Z DD 0ffffffffH
	DD	FLAT:__unwindfunclet$??0?$_Container_base_aux_alloc_real@V?$allocator@PAVSurfaceData@Ogre@@@std@@@std@@IAE@V?$allocator@PAVSurfaceData@Ogre@@@1@@Z$0
	DD	00H
	DD	FLAT:__unwindfunclet$??0?$_Container_base_aux_alloc_real@V?$allocator@PAVSurfaceData@Ogre@@@std@@@std@@IAE@V?$allocator@PAVSurfaceData@Ogre@@@1@@Z$1
__ehfuncinfo$??0?$_Container_base_aux_alloc_real@V?$allocator@PAVSurfaceData@Ogre@@@std@@@std@@IAE@V?$allocator@PAVSurfaceData@Ogre@@@1@@Z DD 019930522H
	DD	02H
	DD	FLAT:__unwindtable$??0?$_Container_base_aux_alloc_real@V?$allocator@PAVSurfaceData@Ogre@@@std@@@std@@IAE@V?$allocator@PAVSurfaceData@Ogre@@@1@@Z
	DD	2 DUP(00H)
	DD	2 DUP(00H)
	DD	00H
	DD	00H
; Function compile flags: /Odtp
xdata$x	ENDS
;	COMDAT ??0?$_Container_base_aux_alloc_real@V?$allocator@PAVSurfaceData@Ogre@@@std@@@std@@IAE@V?$allocator@PAVSurfaceData@Ogre@@@1@@Z
_TEXT	SEGMENT
tv133 = -32						; size = 4
_this$ = -28						; size = 4
$T68352 = -24						; size = 4
$T68351 = -20						; size = 4
$T68350 = -16						; size = 4
__$EHRec$ = -12						; size = 12
__Al$ = 8						; size = 1
??0?$_Container_base_aux_alloc_real@V?$allocator@PAVSurfaceData@Ogre@@@std@@@std@@IAE@V?$allocator@PAVSurfaceData@Ogre@@@1@@Z PROC ; std::_Container_base_aux_alloc_real<std::allocator<Ogre::SurfaceData *> >::_Container_base_aux_alloc_real<std::allocator<Ogre::SurfaceData *> >, COMDAT
; _this$ = ecx

; 419  : 		{

	push	ebp
	mov	ebp, esp
	push	-1
	push	__ehhandler$??0?$_Container_base_aux_alloc_real@V?$allocator@PAVSurfaceData@Ogre@@@std@@@std@@IAE@V?$allocator@PAVSurfaceData@Ogre@@@1@@Z
	mov	eax, DWORD PTR fs:0
	push	eax
	sub	esp, 20					; 00000014H
	mov	eax, DWORD PTR ___security_cookie
	xor	eax, ebp
	push	eax
	lea	eax, DWORD PTR __$EHRec$[ebp]
	mov	DWORD PTR fs:0, eax
	mov	DWORD PTR _this$[ebp], ecx
	mov	ecx, DWORD PTR _this$[ebp]
	call	??0_Container_base_aux@std@@QAE@XZ	; std::_Container_base_aux::_Container_base_aux
	mov	DWORD PTR __$EHRec$[ebp+8], 0
	lea	eax, DWORD PTR __Al$[ebp]
	push	eax
	mov	ecx, DWORD PTR _this$[ebp]
	add	ecx, 4
	call	??$?0PAVSurfaceData@Ogre@@@?$allocator@V_Aux_cont@std@@@std@@QAE@ABV?$allocator@PAVSurfaceData@Ogre@@@1@@Z ; std::allocator<std::_Aux_cont>::allocator<std::_Aux_cont><Ogre::SurfaceData *>

; 420  : 		_Myownedaux = new (_Alaux.allocate(1)) _Aux_cont(this);

	push	1
	mov	ecx, DWORD PTR _this$[ebp]
	add	ecx, 4
	call	?allocate@?$allocator@V_Aux_cont@std@@@std@@QAEPAV_Aux_cont@2@I@Z ; std::allocator<std::_Aux_cont>::allocate
	mov	DWORD PTR $T68352[ebp], eax
	mov	ecx, DWORD PTR $T68352[ebp]
	push	ecx
	push	4
	call	??2@YAPAXIPAX@Z				; operator new
	add	esp, 8
	mov	DWORD PTR $T68351[ebp], eax
	mov	BYTE PTR __$EHRec$[ebp+8], 1
	cmp	DWORD PTR $T68351[ebp], 0
	je	SHORT $LN3@Container_@2
	mov	edx, DWORD PTR _this$[ebp]
	push	edx
	mov	ecx, DWORD PTR $T68351[ebp]
	call	??0_Aux_cont@std@@QAE@QBV_Container_base_aux@1@@Z ; std::_Aux_cont::_Aux_cont
	mov	DWORD PTR tv133[ebp], eax
	jmp	SHORT $LN4@Container_@2
$LN3@Container_@2:
	mov	DWORD PTR tv133[ebp], 0
$LN4@Container_@2:
	mov	eax, DWORD PTR tv133[ebp]
	mov	DWORD PTR $T68350[ebp], eax
	mov	BYTE PTR __$EHRec$[ebp+8], 0
	mov	ecx, DWORD PTR _this$[ebp]
	mov	edx, DWORD PTR $T68350[ebp]
	mov	DWORD PTR [ecx], edx

; 421  : 		}

	mov	DWORD PTR __$EHRec$[ebp+8], -1
	mov	eax, DWORD PTR _this$[ebp]
	mov	ecx, DWORD PTR __$EHRec$[ebp]
	mov	DWORD PTR fs:0, ecx
	pop	ecx
	mov	esp, ebp
	pop	ebp
	ret	4
_TEXT	ENDS
;	COMDAT text$x
text$x	SEGMENT
__unwindfunclet$??0?$_Container_base_aux_alloc_real@V?$allocator@PAVSurfaceData@Ogre@@@std@@@std@@IAE@V?$allocator@PAVSurfaceData@Ogre@@@1@@Z$0:
	mov	ecx, DWORD PTR _this$[ebp]
	jmp	??1_Container_base_aux@std@@QAE@XZ	; std::_Container_base_aux::~_Container_base_aux
__unwindfunclet$??0?$_Container_base_aux_alloc_real@V?$allocator@PAVSurfaceData@Ogre@@@std@@@std@@IAE@V?$allocator@PAVSurfaceData@Ogre@@@1@@Z$1:
	mov	eax, DWORD PTR $T68352[ebp]
	push	eax
	mov	ecx, DWORD PTR $T68351[ebp]
	push	ecx
	call	??3@YAXPAX0@Z				; operator delete
	add	esp, 8
	ret	0
__ehhandler$??0?$_Container_base_aux_alloc_real@V?$allocator@PAVSurfaceData@Ogre@@@std@@@std@@IAE@V?$allocator@PAVSurfaceData@Ogre@@@1@@Z:
	mov	edx, DWORD PTR [esp+8]
	lea	eax, DWORD PTR [edx+12]
	mov	ecx, DWORD PTR [edx-24]
	xor	ecx, eax
	call	@__security_check_cookie@4
	mov	eax, OFFSET __ehfuncinfo$??0?$_Container_base_aux_alloc_real@V?$allocator@PAVSurfaceData@Ogre@@@std@@@std@@IAE@V?$allocator@PAVSurfaceData@Ogre@@@1@@Z
	jmp	___CxxFrameHandler3
text$x	ENDS
??0?$_Container_base_aux_alloc_real@V?$allocator@PAVSurfaceData@Ogre@@@std@@@std@@IAE@V?$allocator@PAVSurfaceData@Ogre@@@1@@Z ENDP ; std::_Container_base_aux_alloc_real<std::allocator<Ogre::SurfaceData *> >::_Container_base_aux_alloc_real<std::allocator<Ogre::SurfaceData *> >
PUBLIC	??$_Allocate@PAVSurfaceData@Ogre@@@std@@YAPAPAVSurfaceData@Ogre@@IPAPAV12@@Z ; std::_Allocate<Ogre::SurfaceData *>
; Function compile flags: /Odtp
; File d:\program files (x86)\microsoft visual studio 9.0\vc\include\xmemory
;	COMDAT ?allocate@?$allocator@PAVSurfaceData@Ogre@@@std@@QAEPAPAVSurfaceData@Ogre@@I@Z
_TEXT	SEGMENT
_this$ = -4						; size = 4
__Count$ = 8						; size = 4
?allocate@?$allocator@PAVSurfaceData@Ogre@@@std@@QAEPAPAVSurfaceData@Ogre@@I@Z PROC ; std::allocator<Ogre::SurfaceData *>::allocate, COMDAT
; _this$ = ecx

; 144  : 		{	// allocate array of _Count elements

	push	ebp
	mov	ebp, esp
	push	ecx
	mov	DWORD PTR _this$[ebp], ecx

; 145  : 		return (_Allocate(_Count, (pointer)0));

	push	0
	mov	eax, DWORD PTR __Count$[ebp]
	push	eax
	call	??$_Allocate@PAVSurfaceData@Ogre@@@std@@YAPAPAVSurfaceData@Ogre@@IPAPAV12@@Z ; std::_Allocate<Ogre::SurfaceData *>
	add	esp, 8

; 146  : 		}

	mov	esp, ebp
	pop	ebp
	ret	4
?allocate@?$allocator@PAVSurfaceData@Ogre@@@std@@QAEPAPAVSurfaceData@Ogre@@I@Z ENDP ; std::allocator<Ogre::SurfaceData *>::allocate
_TEXT	ENDS
PUBLIC	??0?$_Vector_iterator@VVector3@Ogre@@V?$allocator@VVector3@Ogre@@@std@@@std@@QAE@PAVVector3@Ogre@@PBV_Container_base_aux@1@@Z ; std::_Vector_iterator<Ogre::Vector3,std::allocator<Ogre::Vector3> >::_Vector_iterator<Ogre::Vector3,std::allocator<Ogre::Vector3> >
; Function compile flags: /Odtp
; File d:\program files (x86)\microsoft visual studio 9.0\vc\include\vector
;	COMDAT ?begin@?$vector@VVector3@Ogre@@V?$allocator@VVector3@Ogre@@@std@@@std@@QAE?AV?$_Vector_iterator@VVector3@Ogre@@V?$allocator@VVector3@Ogre@@@std@@@2@XZ
_TEXT	SEGMENT
_this$ = -4						; size = 4
___$ReturnUdt$ = 8					; size = 4
?begin@?$vector@VVector3@Ogre@@V?$allocator@VVector3@Ogre@@@std@@@std@@QAE?AV?$_Vector_iterator@VVector3@Ogre@@V?$allocator@VVector3@Ogre@@@std@@@2@XZ PROC ; std::vector<Ogre::Vector3,std::allocator<Ogre::Vector3> >::begin, COMDAT
; _this$ = ecx

; 640  : 		{	// return iterator for beginning of mutable sequence

	push	ebp
	mov	ebp, esp
	push	ecx
	mov	DWORD PTR _this$[ebp], ecx

; 641  : 		return (iterator(_Myfirst, this));

	mov	eax, DWORD PTR _this$[ebp]
	push	eax
	mov	ecx, DWORD PTR _this$[ebp]
	mov	edx, DWORD PTR [ecx+12]
	push	edx
	mov	ecx, DWORD PTR ___$ReturnUdt$[ebp]
	call	??0?$_Vector_iterator@VVector3@Ogre@@V?$allocator@VVector3@Ogre@@@std@@@std@@QAE@PAVVector3@Ogre@@PBV_Container_base_aux@1@@Z ; std::_Vector_iterator<Ogre::Vector3,std::allocator<Ogre::Vector3> >::_Vector_iterator<Ogre::Vector3,std::allocator<Ogre::Vector3> >
	mov	eax, DWORD PTR ___$ReturnUdt$[ebp]

; 642  : 		}

	mov	esp, ebp
	pop	ebp
	ret	4
?begin@?$vector@VVector3@Ogre@@V?$allocator@VVector3@Ogre@@@std@@@std@@QAE?AV?$_Vector_iterator@VVector3@Ogre@@V?$allocator@VVector3@Ogre@@@std@@@2@XZ ENDP ; std::vector<Ogre::Vector3,std::allocator<Ogre::Vector3> >::begin
; Function compile flags: /Odtp
_TEXT	ENDS
;	COMDAT ?end@?$vector@VVector3@Ogre@@V?$allocator@VVector3@Ogre@@@std@@@std@@QAE?AV?$_Vector_iterator@VVector3@Ogre@@V?$allocator@VVector3@Ogre@@@std@@@2@XZ
_TEXT	SEGMENT
_this$ = -4						; size = 4
___$ReturnUdt$ = 8					; size = 4
?end@?$vector@VVector3@Ogre@@V?$allocator@VVector3@Ogre@@@std@@@std@@QAE?AV?$_Vector_iterator@VVector3@Ogre@@V?$allocator@VVector3@Ogre@@@std@@@2@XZ PROC ; std::vector<Ogre::Vector3,std::allocator<Ogre::Vector3> >::end, COMDAT
; _this$ = ecx

; 650  : 		{	// return iterator for end of mutable sequence

	push	ebp
	mov	ebp, esp
	push	ecx
	mov	DWORD PTR _this$[ebp], ecx

; 651  : 		return (iterator(_Mylast, this));

	mov	eax, DWORD PTR _this$[ebp]
	push	eax
	mov	ecx, DWORD PTR _this$[ebp]
	mov	edx, DWORD PTR [ecx+16]
	push	edx
	mov	ecx, DWORD PTR ___$ReturnUdt$[ebp]
	call	??0?$_Vector_iterator@VVector3@Ogre@@V?$allocator@VVector3@Ogre@@@std@@@std@@QAE@PAVVector3@Ogre@@PBV_Container_base_aux@1@@Z ; std::_Vector_iterator<Ogre::Vector3,std::allocator<Ogre::Vector3> >::_Vector_iterator<Ogre::Vector3,std::allocator<Ogre::Vector3> >
	mov	eax, DWORD PTR ___$ReturnUdt$[ebp]

; 652  : 		}

	mov	esp, ebp
	pop	ebp
	ret	4
?end@?$vector@VVector3@Ogre@@V?$allocator@VVector3@Ogre@@@std@@@std@@QAE?AV?$_Vector_iterator@VVector3@Ogre@@V?$allocator@VVector3@Ogre@@@std@@@2@XZ ENDP ; std::vector<Ogre::Vector3,std::allocator<Ogre::Vector3> >::end
_TEXT	ENDS
PUBLIC	?max_size@?$allocator@VVector3@Ogre@@@std@@QBEIXZ ; std::allocator<Ogre::Vector3>::max_size
; Function compile flags: /Odtp
;	COMDAT ?max_size@?$vector@VVector3@Ogre@@V?$allocator@VVector3@Ogre@@@std@@@std@@QBEIXZ
_TEXT	SEGMENT
_this$ = -4						; size = 4
?max_size@?$vector@VVector3@Ogre@@V?$allocator@VVector3@Ogre@@@std@@@std@@QBEIXZ PROC ; std::vector<Ogre::Vector3,std::allocator<Ogre::Vector3> >::max_size, COMDAT
; _this$ = ecx

; 730  : 		{	// return maximum possible length of sequence

	push	ebp
	mov	ebp, esp
	push	ecx
	mov	DWORD PTR _this$[ebp], ecx

; 731  : 		return (this->_Alval.max_size());

	mov	ecx, DWORD PTR _this$[ebp]
	add	ecx, 8
	call	?max_size@?$allocator@VVector3@Ogre@@@std@@QBEIXZ ; std::allocator<Ogre::Vector3>::max_size

; 732  : 		}

	mov	esp, ebp
	pop	ebp
	ret	0
?max_size@?$vector@VVector3@Ogre@@V?$allocator@VVector3@Ogre@@@std@@@std@@QBEIXZ ENDP ; std::vector<Ogre::Vector3,std::allocator<Ogre::Vector3> >::max_size
_TEXT	ENDS
PUBLIC	??9?$_Vector_const_iterator@VVector3@Ogre@@V?$allocator@VVector3@Ogre@@@std@@@std@@QBE_NABV01@@Z ; std::_Vector_const_iterator<Ogre::Vector3,std::allocator<Ogre::Vector3> >::operator!=
PUBLIC	?_Make_iter@?$vector@VVector3@Ogre@@V?$allocator@VVector3@Ogre@@@std@@@std@@QBE?AV?$_Vector_iterator@VVector3@Ogre@@V?$allocator@VVector3@Ogre@@@std@@@2@V?$_Vector_const_iterator@VVector3@Ogre@@V?$allocator@VVector3@Ogre@@@std@@@2@@Z ; std::vector<Ogre::Vector3,std::allocator<Ogre::Vector3> >::_Make_iter
; Function compile flags: /Odtp
;	COMDAT ?erase@?$vector@VVector3@Ogre@@V?$allocator@VVector3@Ogre@@@std@@@std@@QAE?AV?$_Vector_iterator@VVector3@Ogre@@V?$allocator@VVector3@Ogre@@@std@@@2@V?$_Vector_const_iterator@VVector3@Ogre@@V?$allocator@VVector3@Ogre@@@std@@@2@0@Z
_TEXT	SEGMENT
_this$ = -24						; size = 4
__Ptr$62993 = -20					; size = 4
__Last$ = -16						; size = 8
__First$ = -8						; size = 8
___$ReturnUdt$ = 8					; size = 4
__First_arg$ = 12					; size = 8
__Last_arg$ = 20					; size = 8
?erase@?$vector@VVector3@Ogre@@V?$allocator@VVector3@Ogre@@@std@@@std@@QAE?AV?$_Vector_iterator@VVector3@Ogre@@V?$allocator@VVector3@Ogre@@@std@@@2@V?$_Vector_const_iterator@VVector3@Ogre@@V?$allocator@VVector3@Ogre@@@std@@@2@0@Z PROC ; std::vector<Ogre::Vector3,std::allocator<Ogre::Vector3> >::erase, COMDAT
; _this$ = ecx

; 1028 : 		{	// erase [_First, _Last)

	push	ebp
	mov	ebp, esp
	sub	esp, 24					; 00000018H
	mov	DWORD PTR _this$[ebp], ecx

; 1029 : 		iterator _First = _Make_iter(_First_arg);

	mov	eax, DWORD PTR __First_arg$[ebp+4]
	push	eax
	mov	ecx, DWORD PTR __First_arg$[ebp]
	push	ecx
	lea	edx, DWORD PTR __First$[ebp]
	push	edx
	mov	ecx, DWORD PTR _this$[ebp]
	call	?_Make_iter@?$vector@VVector3@Ogre@@V?$allocator@VVector3@Ogre@@@std@@@std@@QBE?AV?$_Vector_iterator@VVector3@Ogre@@V?$allocator@VVector3@Ogre@@@std@@@2@V?$_Vector_const_iterator@VVector3@Ogre@@V?$allocator@VVector3@Ogre@@@std@@@2@@Z ; std::vector<Ogre::Vector3,std::allocator<Ogre::Vector3> >::_Make_iter

; 1030 : 		iterator _Last = _Make_iter(_Last_arg);

	mov	eax, DWORD PTR __Last_arg$[ebp+4]
	push	eax
	mov	ecx, DWORD PTR __Last_arg$[ebp]
	push	ecx
	lea	edx, DWORD PTR __Last$[ebp]
	push	edx
	mov	ecx, DWORD PTR _this$[ebp]
	call	?_Make_iter@?$vector@VVector3@Ogre@@V?$allocator@VVector3@Ogre@@@std@@@std@@QBE?AV?$_Vector_iterator@VVector3@Ogre@@V?$allocator@VVector3@Ogre@@@std@@@2@V?$_Vector_const_iterator@VVector3@Ogre@@V?$allocator@VVector3@Ogre@@@std@@@2@@Z ; std::vector<Ogre::Vector3,std::allocator<Ogre::Vector3> >::_Make_iter

; 1031 : 
; 1032 : 		if (_First != _Last)

	lea	eax, DWORD PTR __Last$[ebp]
	push	eax
	lea	ecx, DWORD PTR __First$[ebp]
	call	??9?$_Vector_const_iterator@VVector3@Ogre@@V?$allocator@VVector3@Ogre@@@std@@@std@@QBE_NABV01@@Z ; std::_Vector_const_iterator<Ogre::Vector3,std::allocator<Ogre::Vector3> >::operator!=
	movzx	ecx, al
	test	ecx, ecx
	je	SHORT $LN1@erase@3

; 1033 : 			{	// worth doing, copy down over hole
; 1034 : 
; 1035 :  #if _HAS_ITERATOR_DEBUGGING
; 1036 : 			if (_Last < _First || _First._Mycont != this
; 1037 : 				|| _First._Myptr < _Myfirst || _Mylast < _Last._Myptr)
; 1038 : 				_DEBUG_ERROR("vector erase iterator outside range");
; 1039 : 			pointer _Ptr = _STDEXT unchecked_copy(_VEC_ITER_BASE(_Last), _Mylast,
; 1040 : 				_VEC_ITER_BASE(_First));
; 1041 : 			_Orphan_range(_First._Myptr, _Mylast);
; 1042 : 
; 1043 :  #else /* _HAS_ITERATOR_DEBUGGING */
; 1044 : 			pointer _Ptr = _STDEXT unchecked_copy(_VEC_ITER_BASE(_Last), _Mylast,
; 1045 : 				_VEC_ITER_BASE(_First));

	mov	edx, DWORD PTR __First$[ebp+4]
	push	edx
	mov	eax, DWORD PTR _this$[ebp]
	mov	ecx, DWORD PTR [eax+16]
	push	ecx
	mov	edx, DWORD PTR __Last$[ebp+4]
	push	edx
	call	??$unchecked_copy@PAVVector3@Ogre@@PAV12@@stdext@@YAPAVVector3@Ogre@@PAV12@00@Z ; stdext::unchecked_copy<Ogre::Vector3 *,Ogre::Vector3 *>
	add	esp, 12					; 0000000cH
	mov	DWORD PTR __Ptr$62993[ebp], eax

; 1046 :  #endif /* _HAS_ITERATOR_DEBUGGING */
; 1047 : 
; 1048 : 			_Destroy(_Ptr, _Mylast);

	mov	eax, DWORD PTR _this$[ebp]
	mov	ecx, DWORD PTR [eax+16]
	push	ecx
	mov	edx, DWORD PTR __Ptr$62993[ebp]
	push	edx
	mov	ecx, DWORD PTR _this$[ebp]
	call	?_Destroy@?$vector@VVector3@Ogre@@V?$allocator@VVector3@Ogre@@@std@@@std@@IAEXPAVVector3@Ogre@@0@Z ; std::vector<Ogre::Vector3,std::allocator<Ogre::Vector3> >::_Destroy

; 1049 : 			_Mylast = _Ptr;

	mov	eax, DWORD PTR _this$[ebp]
	mov	ecx, DWORD PTR __Ptr$62993[ebp]
	mov	DWORD PTR [eax+16], ecx
$LN1@erase@3:

; 1050 : 			}
; 1051 : #if _HAS_ITERATOR_DEBUGGING
; 1052 :         return (iterator(_First._Myptr, this));
; 1053 : #else
; 1054 : 		return (_First);

	mov	edx, DWORD PTR ___$ReturnUdt$[ebp]
	mov	eax, DWORD PTR __First$[ebp]
	mov	DWORD PTR [edx], eax
	mov	ecx, DWORD PTR __First$[ebp+4]
	mov	DWORD PTR [edx+4], ecx
	mov	eax, DWORD PTR ___$ReturnUdt$[ebp]

; 1055 : #endif
; 1056 : 		}

	mov	esp, ebp
	pop	ebp
	ret	20					; 00000014H
?erase@?$vector@VVector3@Ogre@@V?$allocator@VVector3@Ogre@@@std@@@std@@QAE?AV?$_Vector_iterator@VVector3@Ogre@@V?$allocator@VVector3@Ogre@@@std@@@2@V?$_Vector_const_iterator@VVector3@Ogre@@V?$allocator@VVector3@Ogre@@@std@@@2@0@Z ENDP ; std::vector<Ogre::Vector3,std::allocator<Ogre::Vector3> >::erase
_TEXT	ENDS
;	COMDAT xdata$x
xdata$x	SEGMENT
__unwindtable$?_Xlen@?$vector@VVector3@Ogre@@V?$allocator@VVector3@Ogre@@@std@@@std@@KAXXZ DD 0ffffffffH
	DD	FLAT:__unwindfunclet$?_Xlen@?$vector@VVector3@Ogre@@V?$allocator@VVector3@Ogre@@@std@@@std@@KAXXZ$0
__ehfuncinfo$?_Xlen@?$vector@VVector3@Ogre@@V?$allocator@VVector3@Ogre@@@std@@@std@@KAXXZ DD 019930522H
	DD	01H
	DD	FLAT:__unwindtable$?_Xlen@?$vector@VVector3@Ogre@@V?$allocator@VVector3@Ogre@@@std@@@std@@KAXXZ
	DD	2 DUP(00H)
	DD	2 DUP(00H)
	DD	00H
	DD	00H
; Function compile flags: /Odtp
xdata$x	ENDS
;	COMDAT ?_Xlen@?$vector@VVector3@Ogre@@V?$allocator@VVector3@Ogre@@@std@@@std@@KAXXZ
_TEXT	SEGMENT
$T68376 = -80						; size = 28
$T68375 = -52						; size = 40
__$EHRec$ = -12						; size = 12
?_Xlen@?$vector@VVector3@Ogre@@V?$allocator@VVector3@Ogre@@@std@@@std@@KAXXZ PROC ; std::vector<Ogre::Vector3,std::allocator<Ogre::Vector3> >::_Xlen, COMDAT

; 1259 : 		{	// report a length_error

	push	ebp
	mov	ebp, esp
	push	-1
	push	__ehhandler$?_Xlen@?$vector@VVector3@Ogre@@V?$allocator@VVector3@Ogre@@@std@@@std@@KAXXZ
	mov	eax, DWORD PTR fs:0
	push	eax
	sub	esp, 68					; 00000044H
	mov	eax, DWORD PTR ___security_cookie
	xor	eax, ebp
	push	eax
	lea	eax, DWORD PTR __$EHRec$[ebp]
	mov	DWORD PTR fs:0, eax

; 1260 : 		_THROW(length_error, "vector<T> too long");

	push	OFFSET ??_C@_0BD@OLBABOEK@vector?$DMT?$DO?5too?5long?$AA@
	lea	ecx, DWORD PTR $T68376[ebp]
	call	DWORD PTR __imp_??0?$basic_string@DU?$char_traits@D@std@@V?$allocator@D@2@@std@@QAE@PBD@Z
	mov	DWORD PTR __$EHRec$[ebp+8], 0
	lea	eax, DWORD PTR $T68376[ebp]
	push	eax
	lea	ecx, DWORD PTR $T68375[ebp]
	call	??0length_error@std@@QAE@ABV?$basic_string@DU?$char_traits@D@std@@V?$allocator@D@2@@1@@Z ; std::length_error::length_error
	push	OFFSET __TI3?AVlength_error@std@@
	lea	ecx, DWORD PTR $T68375[ebp]
	push	ecx
	call	__CxxThrowException@8
	mov	DWORD PTR __$EHRec$[ebp+8], -1
	lea	ecx, DWORD PTR $T68376[ebp]
	call	DWORD PTR __imp_??1?$basic_string@DU?$char_traits@D@std@@V?$allocator@D@2@@std@@QAE@XZ
$LN2@Xlen@3:

; 1261 : 		}

	mov	ecx, DWORD PTR __$EHRec$[ebp]
	mov	DWORD PTR fs:0, ecx
	pop	ecx
	mov	esp, ebp
	pop	ebp
	ret	0
_TEXT	ENDS
;	COMDAT text$x
text$x	SEGMENT
__unwindfunclet$?_Xlen@?$vector@VVector3@Ogre@@V?$allocator@VVector3@Ogre@@@std@@@std@@KAXXZ$0:
	lea	ecx, DWORD PTR $T68376[ebp]
	jmp	DWORD PTR __imp_??1?$basic_string@DU?$char_traits@D@std@@V?$allocator@D@2@@std@@QAE@XZ
__ehhandler$?_Xlen@?$vector@VVector3@Ogre@@V?$allocator@VVector3@Ogre@@@std@@@std@@KAXXZ:
	mov	edx, DWORD PTR [esp+8]
	lea	eax, DWORD PTR [edx+12]
	mov	ecx, DWORD PTR [edx-72]
	xor	ecx, eax
	call	@__security_check_cookie@4
	mov	eax, OFFSET __ehfuncinfo$?_Xlen@?$vector@VVector3@Ogre@@V?$allocator@VVector3@Ogre@@@std@@@std@@KAXXZ
	jmp	___CxxFrameHandler3
text$x	ENDS
?_Xlen@?$vector@VVector3@Ogre@@V?$allocator@VVector3@Ogre@@@std@@@std@@KAXXZ ENDP ; std::vector<Ogre::Vector3,std::allocator<Ogre::Vector3> >::_Xlen
PUBLIC	??$?0VVector3@Ogre@@@?$allocator@V_Aux_cont@std@@@std@@QAE@ABV?$allocator@VVector3@Ogre@@@1@@Z ; std::allocator<std::_Aux_cont>::allocator<std::_Aux_cont><Ogre::Vector3>
;	COMDAT xdata$x
; File d:\program files (x86)\microsoft visual studio 9.0\vc\include\xutility
xdata$x	SEGMENT
__unwindtable$??0?$_Container_base_aux_alloc_real@V?$allocator@VVector3@Ogre@@@std@@@std@@IAE@V?$allocator@VVector3@Ogre@@@1@@Z DD 0ffffffffH
	DD	FLAT:__unwindfunclet$??0?$_Container_base_aux_alloc_real@V?$allocator@VVector3@Ogre@@@std@@@std@@IAE@V?$allocator@VVector3@Ogre@@@1@@Z$0
	DD	00H
	DD	FLAT:__unwindfunclet$??0?$_Container_base_aux_alloc_real@V?$allocator@VVector3@Ogre@@@std@@@std@@IAE@V?$allocator@VVector3@Ogre@@@1@@Z$1
__ehfuncinfo$??0?$_Container_base_aux_alloc_real@V?$allocator@VVector3@Ogre@@@std@@@std@@IAE@V?$allocator@VVector3@Ogre@@@1@@Z DD 019930522H
	DD	02H
	DD	FLAT:__unwindtable$??0?$_Container_base_aux_alloc_real@V?$allocator@VVector3@Ogre@@@std@@@std@@IAE@V?$allocator@VVector3@Ogre@@@1@@Z
	DD	2 DUP(00H)
	DD	2 DUP(00H)
	DD	00H
	DD	00H
; Function compile flags: /Odtp
xdata$x	ENDS
;	COMDAT ??0?$_Container_base_aux_alloc_real@V?$allocator@VVector3@Ogre@@@std@@@std@@IAE@V?$allocator@VVector3@Ogre@@@1@@Z
_TEXT	SEGMENT
tv133 = -32						; size = 4
_this$ = -28						; size = 4
$T68388 = -24						; size = 4
$T68387 = -20						; size = 4
$T68386 = -16						; size = 4
__$EHRec$ = -12						; size = 12
__Al$ = 8						; size = 1
??0?$_Container_base_aux_alloc_real@V?$allocator@VVector3@Ogre@@@std@@@std@@IAE@V?$allocator@VVector3@Ogre@@@1@@Z PROC ; std::_Container_base_aux_alloc_real<std::allocator<Ogre::Vector3> >::_Container_base_aux_alloc_real<std::allocator<Ogre::Vector3> >, COMDAT
; _this$ = ecx

; 419  : 		{

	push	ebp
	mov	ebp, esp
	push	-1
	push	__ehhandler$??0?$_Container_base_aux_alloc_real@V?$allocator@VVector3@Ogre@@@std@@@std@@IAE@V?$allocator@VVector3@Ogre@@@1@@Z
	mov	eax, DWORD PTR fs:0
	push	eax
	sub	esp, 20					; 00000014H
	mov	eax, DWORD PTR ___security_cookie
	xor	eax, ebp
	push	eax
	lea	eax, DWORD PTR __$EHRec$[ebp]
	mov	DWORD PTR fs:0, eax
	mov	DWORD PTR _this$[ebp], ecx
	mov	ecx, DWORD PTR _this$[ebp]
	call	??0_Container_base_aux@std@@QAE@XZ	; std::_Container_base_aux::_Container_base_aux
	mov	DWORD PTR __$EHRec$[ebp+8], 0
	lea	eax, DWORD PTR __Al$[ebp]
	push	eax
	mov	ecx, DWORD PTR _this$[ebp]
	add	ecx, 4
	call	??$?0VVector3@Ogre@@@?$allocator@V_Aux_cont@std@@@std@@QAE@ABV?$allocator@VVector3@Ogre@@@1@@Z ; std::allocator<std::_Aux_cont>::allocator<std::_Aux_cont><Ogre::Vector3>

; 420  : 		_Myownedaux = new (_Alaux.allocate(1)) _Aux_cont(this);

	push	1
	mov	ecx, DWORD PTR _this$[ebp]
	add	ecx, 4
	call	?allocate@?$allocator@V_Aux_cont@std@@@std@@QAEPAV_Aux_cont@2@I@Z ; std::allocator<std::_Aux_cont>::allocate
	mov	DWORD PTR $T68388[ebp], eax
	mov	ecx, DWORD PTR $T68388[ebp]
	push	ecx
	push	4
	call	??2@YAPAXIPAX@Z				; operator new
	add	esp, 8
	mov	DWORD PTR $T68387[ebp], eax
	mov	BYTE PTR __$EHRec$[ebp+8], 1
	cmp	DWORD PTR $T68387[ebp], 0
	je	SHORT $LN3@Container_@3
	mov	edx, DWORD PTR _this$[ebp]
	push	edx
	mov	ecx, DWORD PTR $T68387[ebp]
	call	??0_Aux_cont@std@@QAE@QBV_Container_base_aux@1@@Z ; std::_Aux_cont::_Aux_cont
	mov	DWORD PTR tv133[ebp], eax
	jmp	SHORT $LN4@Container_@3
$LN3@Container_@3:
	mov	DWORD PTR tv133[ebp], 0
$LN4@Container_@3:
	mov	eax, DWORD PTR tv133[ebp]
	mov	DWORD PTR $T68386[ebp], eax
	mov	BYTE PTR __$EHRec$[ebp+8], 0
	mov	ecx, DWORD PTR _this$[ebp]
	mov	edx, DWORD PTR $T68386[ebp]
	mov	DWORD PTR [ecx], edx

; 421  : 		}

	mov	DWORD PTR __$EHRec$[ebp+8], -1
	mov	eax, DWORD PTR _this$[ebp]
	mov	ecx, DWORD PTR __$EHRec$[ebp]
	mov	DWORD PTR fs:0, ecx
	pop	ecx
	mov	esp, ebp
	pop	ebp
	ret	4
_TEXT	ENDS
;	COMDAT text$x
text$x	SEGMENT
__unwindfunclet$??0?$_Container_base_aux_alloc_real@V?$allocator@VVector3@Ogre@@@std@@@std@@IAE@V?$allocator@VVector3@Ogre@@@1@@Z$0:
	mov	ecx, DWORD PTR _this$[ebp]
	jmp	??1_Container_base_aux@std@@QAE@XZ	; std::_Container_base_aux::~_Container_base_aux
__unwindfunclet$??0?$_Container_base_aux_alloc_real@V?$allocator@VVector3@Ogre@@@std@@@std@@IAE@V?$allocator@VVector3@Ogre@@@1@@Z$1:
	mov	eax, DWORD PTR $T68388[ebp]
	push	eax
	mov	ecx, DWORD PTR $T68387[ebp]
	push	ecx
	call	??3@YAXPAX0@Z				; operator delete
	add	esp, 8
	ret	0
__ehhandler$??0?$_Container_base_aux_alloc_real@V?$allocator@VVector3@Ogre@@@std@@@std@@IAE@V?$allocator@VVector3@Ogre@@@1@@Z:
	mov	edx, DWORD PTR [esp+8]
	lea	eax, DWORD PTR [edx+12]
	mov	ecx, DWORD PTR [edx-24]
	xor	ecx, eax
	call	@__security_check_cookie@4
	mov	eax, OFFSET __ehfuncinfo$??0?$_Container_base_aux_alloc_real@V?$allocator@VVector3@Ogre@@@std@@@std@@IAE@V?$allocator@VVector3@Ogre@@@1@@Z
	jmp	___CxxFrameHandler3
text$x	ENDS
??0?$_Container_base_aux_alloc_real@V?$allocator@VVector3@Ogre@@@std@@@std@@IAE@V?$allocator@VVector3@Ogre@@@1@@Z ENDP ; std::_Container_base_aux_alloc_real<std::allocator<Ogre::Vector3> >::_Container_base_aux_alloc_real<std::allocator<Ogre::Vector3> >
PUBLIC	??$_Allocate@VVector3@Ogre@@@std@@YAPAVVector3@Ogre@@IPAV12@@Z ; std::_Allocate<Ogre::Vector3>
; Function compile flags: /Odtp
; File d:\program files (x86)\microsoft visual studio 9.0\vc\include\xmemory
;	COMDAT ?allocate@?$allocator@VVector3@Ogre@@@std@@QAEPAVVector3@Ogre@@I@Z
_TEXT	SEGMENT
_this$ = -4						; size = 4
__Count$ = 8						; size = 4
?allocate@?$allocator@VVector3@Ogre@@@std@@QAEPAVVector3@Ogre@@I@Z PROC ; std::allocator<Ogre::Vector3>::allocate, COMDAT
; _this$ = ecx

; 144  : 		{	// allocate array of _Count elements

	push	ebp
	mov	ebp, esp
	push	ecx
	mov	DWORD PTR _this$[ebp], ecx

; 145  : 		return (_Allocate(_Count, (pointer)0));

	push	0
	mov	eax, DWORD PTR __Count$[ebp]
	push	eax
	call	??$_Allocate@VVector3@Ogre@@@std@@YAPAVVector3@Ogre@@IPAV12@@Z ; std::_Allocate<Ogre::Vector3>
	add	esp, 8

; 146  : 		}

	mov	esp, ebp
	pop	ebp
	ret	4
?allocate@?$allocator@VVector3@Ogre@@@std@@QAEPAVVector3@Ogre@@I@Z ENDP ; std::allocator<Ogre::Vector3>::allocate
_TEXT	ENDS
PUBLIC	?_Set_container@_Iterator_base_aux@std@@QAEXQBV_Container_base_aux@2@@Z ; std::_Iterator_base_aux::_Set_container
PUBLIC	??0?$_Ranit@DHPBDABD@std@@QAE@XZ		; std::_Ranit<char,int,char const *,char const &>::_Ranit<char,int,char const *,char const &>
; Function compile flags: /Odtp
; File d:\program files (x86)\microsoft visual studio 9.0\vc\include\vector
;	COMDAT ??0?$_Vector_const_iterator@DV?$allocator@D@std@@@std@@QAE@PADPBV_Container_base_aux@1@@Z
_TEXT	SEGMENT
_this$ = -4						; size = 4
__Ptr$ = 8						; size = 4
__Pvector$ = 12						; size = 4
??0?$_Vector_const_iterator@DV?$allocator@D@std@@@std@@QAE@PADPBV_Container_base_aux@1@@Z PROC ; std::_Vector_const_iterator<char,std::allocator<char> >::_Vector_const_iterator<char,std::allocator<char> >, COMDAT
; _this$ = ecx

; 76   : 	_Vector_const_iterator(_Tptr _Ptr, const _Container_base *_Pvector)

	push	ebp
	mov	ebp, esp
	push	ecx
	mov	DWORD PTR _this$[ebp], ecx
	mov	ecx, DWORD PTR _this$[ebp]
	call	??0?$_Ranit@DHPBDABD@std@@QAE@XZ

; 77   : 		{	// construct with pointer _Ptr
; 78   : 		_SCL_SECURE_VALIDATE(_Pvector != NULL && ((_Myvec *)_Pvector)->_Myfirst <= _Ptr && _Ptr <= ((_Myvec *)_Pvector)->_Mylast);

	cmp	DWORD PTR __Pvector$[ebp], 0
	je	SHORT $LN1@Vector_con
	mov	eax, DWORD PTR __Pvector$[ebp]
	mov	ecx, DWORD PTR [eax+12]
	cmp	ecx, DWORD PTR __Ptr$[ebp]
	ja	SHORT $LN1@Vector_con
	mov	edx, DWORD PTR __Pvector$[ebp]
	mov	eax, DWORD PTR __Ptr$[ebp]
	cmp	eax, DWORD PTR [edx+16]
	jbe	SHORT $LN2@Vector_con
$LN1@Vector_con:
	call	DWORD PTR __imp___invalid_parameter_noinfo
$LN2@Vector_con:

; 79   : 		this->_Set_container(_Pvector);

	mov	ecx, DWORD PTR __Pvector$[ebp]
	push	ecx
	mov	ecx, DWORD PTR _this$[ebp]
	call	?_Set_container@_Iterator_base_aux@std@@QAEXQBV_Container_base_aux@2@@Z ; std::_Iterator_base_aux::_Set_container

; 80   : 		_Myptr = _Ptr;

	mov	edx, DWORD PTR _this$[ebp]
	mov	eax, DWORD PTR __Ptr$[ebp]
	mov	DWORD PTR [edx+4], eax

; 81   : 		}

	mov	eax, DWORD PTR _this$[ebp]
	mov	esp, ebp
	pop	ebp
	ret	8
??0?$_Vector_const_iterator@DV?$allocator@D@std@@@std@@QAE@PADPBV_Container_base_aux@1@@Z ENDP ; std::_Vector_const_iterator<char,std::allocator<char> >::_Vector_const_iterator<char,std::allocator<char> >
; Function compile flags: /Odtp
; File d:\program files (x86)\microsoft visual studio 9.0\vc\include\xutility
_TEXT	ENDS
;	COMDAT ?_Set_container@_Iterator_base_aux@std@@QAEXQBV_Container_base_aux@2@@Z
_TEXT	SEGMENT
_this$ = -4						; size = 4
__Pcont$ = 8						; size = 4
?_Set_container@_Iterator_base_aux@std@@QAEXQBV_Container_base_aux@2@@Z PROC ; std::_Iterator_base_aux::_Set_container, COMDAT
; _this$ = ecx

; 452  : 		{

	push	ebp
	mov	ebp, esp
	push	ecx
	mov	DWORD PTR _this$[ebp], ecx

; 453  : 		_Myaux = _Pcont->_Myownedaux;

	mov	eax, DWORD PTR _this$[ebp]
	mov	ecx, DWORD PTR __Pcont$[ebp]
	mov	edx, DWORD PTR [ecx]
	mov	DWORD PTR [eax], edx

; 454  : 		}

	mov	esp, ebp
	pop	ebp
	ret	4
?_Set_container@_Iterator_base_aux@std@@QAEXQBV_Container_base_aux@2@@Z ENDP ; std::_Iterator_base_aux::_Set_container
_TEXT	ENDS
PUBLIC	??0?$_Ranit@PAVSurfaceData@Ogre@@HPBQAV12@ABQAV12@@std@@QAE@XZ ; std::_Ranit<Ogre::SurfaceData *,int,Ogre::SurfaceData * const *,Ogre::SurfaceData * const &>::_Ranit<Ogre::SurfaceData *,int,Ogre::SurfaceData * const *,Ogre::SurfaceData * const &>
; Function compile flags: /Odtp
; File d:\program files (x86)\microsoft visual studio 9.0\vc\include\vector
;	COMDAT ??0?$_Vector_const_iterator@PAVSurfaceData@Ogre@@V?$allocator@PAVSurfaceData@Ogre@@@std@@@std@@QAE@PAPAVSurfaceData@Ogre@@PBV_Container_base_aux@1@@Z
_TEXT	SEGMENT
_this$ = -4						; size = 4
__Ptr$ = 8						; size = 4
__Pvector$ = 12						; size = 4
??0?$_Vector_const_iterator@PAVSurfaceData@Ogre@@V?$allocator@PAVSurfaceData@Ogre@@@std@@@std@@QAE@PAPAVSurfaceData@Ogre@@PBV_Container_base_aux@1@@Z PROC ; std::_Vector_const_iterator<Ogre::SurfaceData *,std::allocator<Ogre::SurfaceData *> >::_Vector_const_iterator<Ogre::SurfaceData *,std::allocator<Ogre::SurfaceData *> >, COMDAT
; _this$ = ecx

; 76   : 	_Vector_const_iterator(_Tptr _Ptr, const _Container_base *_Pvector)

	push	ebp
	mov	ebp, esp
	push	ecx
	mov	DWORD PTR _this$[ebp], ecx
	mov	ecx, DWORD PTR _this$[ebp]
	call	??0?$_Ranit@PAVSurfaceData@Ogre@@HPBQAV12@ABQAV12@@std@@QAE@XZ

; 77   : 		{	// construct with pointer _Ptr
; 78   : 		_SCL_SECURE_VALIDATE(_Pvector != NULL && ((_Myvec *)_Pvector)->_Myfirst <= _Ptr && _Ptr <= ((_Myvec *)_Pvector)->_Mylast);

	cmp	DWORD PTR __Pvector$[ebp], 0
	je	SHORT $LN1@Vector_con@2
	mov	eax, DWORD PTR __Pvector$[ebp]
	mov	ecx, DWORD PTR [eax+12]
	cmp	ecx, DWORD PTR __Ptr$[ebp]
	ja	SHORT $LN1@Vector_con@2
	mov	edx, DWORD PTR __Pvector$[ebp]
	mov	eax, DWORD PTR __Ptr$[ebp]
	cmp	eax, DWORD PTR [edx+16]
	jbe	SHORT $LN2@Vector_con@2
$LN1@Vector_con@2:
	call	DWORD PTR __imp___invalid_parameter_noinfo
$LN2@Vector_con@2:

; 79   : 		this->_Set_container(_Pvector);

	mov	ecx, DWORD PTR __Pvector$[ebp]
	push	ecx
	mov	ecx, DWORD PTR _this$[ebp]
	call	?_Set_container@_Iterator_base_aux@std@@QAEXQBV_Container_base_aux@2@@Z ; std::_Iterator_base_aux::_Set_container

; 80   : 		_Myptr = _Ptr;

	mov	edx, DWORD PTR _this$[ebp]
	mov	eax, DWORD PTR __Ptr$[ebp]
	mov	DWORD PTR [edx+4], eax

; 81   : 		}

	mov	eax, DWORD PTR _this$[ebp]
	mov	esp, ebp
	pop	ebp
	ret	8
??0?$_Vector_const_iterator@PAVSurfaceData@Ogre@@V?$allocator@PAVSurfaceData@Ogre@@@std@@@std@@QAE@PAPAVSurfaceData@Ogre@@PBV_Container_base_aux@1@@Z ENDP ; std::_Vector_const_iterator<Ogre::SurfaceData *,std::allocator<Ogre::SurfaceData *> >::_Vector_const_iterator<Ogre::SurfaceData *,std::allocator<Ogre::SurfaceData *> >
_TEXT	ENDS
PUBLIC	??0?$_Ranit@VVector3@Ogre@@HPBV12@ABV12@@std@@QAE@XZ ; std::_Ranit<Ogre::Vector3,int,Ogre::Vector3 const *,Ogre::Vector3 const &>::_Ranit<Ogre::Vector3,int,Ogre::Vector3 const *,Ogre::Vector3 const &>
; Function compile flags: /Odtp
;	COMDAT ??0?$_Vector_const_iterator@VVector3@Ogre@@V?$allocator@VVector3@Ogre@@@std@@@std@@QAE@PAVVector3@Ogre@@PBV_Container_base_aux@1@@Z
_TEXT	SEGMENT
_this$ = -4						; size = 4
__Ptr$ = 8						; size = 4
__Pvector$ = 12						; size = 4
??0?$_Vector_const_iterator@VVector3@Ogre@@V?$allocator@VVector3@Ogre@@@std@@@std@@QAE@PAVVector3@Ogre@@PBV_Container_base_aux@1@@Z PROC ; std::_Vector_const_iterator<Ogre::Vector3,std::allocator<Ogre::Vector3> >::_Vector_const_iterator<Ogre::Vector3,std::allocator<Ogre::Vector3> >, COMDAT
; _this$ = ecx

; 76   : 	_Vector_const_iterator(_Tptr _Ptr, const _Container_base *_Pvector)

	push	ebp
	mov	ebp, esp
	push	ecx
	mov	DWORD PTR _this$[ebp], ecx
	mov	ecx, DWORD PTR _this$[ebp]
	call	??0?$_Ranit@VVector3@Ogre@@HPBV12@ABV12@@std@@QAE@XZ

; 77   : 		{	// construct with pointer _Ptr
; 78   : 		_SCL_SECURE_VALIDATE(_Pvector != NULL && ((_Myvec *)_Pvector)->_Myfirst <= _Ptr && _Ptr <= ((_Myvec *)_Pvector)->_Mylast);

	cmp	DWORD PTR __Pvector$[ebp], 0
	je	SHORT $LN1@Vector_con@3
	mov	eax, DWORD PTR __Pvector$[ebp]
	mov	ecx, DWORD PTR [eax+12]
	cmp	ecx, DWORD PTR __Ptr$[ebp]
	ja	SHORT $LN1@Vector_con@3
	mov	edx, DWORD PTR __Pvector$[ebp]
	mov	eax, DWORD PTR __Ptr$[ebp]
	cmp	eax, DWORD PTR [edx+16]
	jbe	SHORT $LN2@Vector_con@3
$LN1@Vector_con@3:
	call	DWORD PTR __imp___invalid_parameter_noinfo
$LN2@Vector_con@3:

; 79   : 		this->_Set_container(_Pvector);

	mov	ecx, DWORD PTR __Pvector$[ebp]
	push	ecx
	mov	ecx, DWORD PTR _this$[ebp]
	call	?_Set_container@_Iterator_base_aux@std@@QAEXQBV_Container_base_aux@2@@Z ; std::_Iterator_base_aux::_Set_container

; 80   : 		_Myptr = _Ptr;

	mov	edx, DWORD PTR _this$[ebp]
	mov	eax, DWORD PTR __Ptr$[ebp]
	mov	DWORD PTR [edx+4], eax

; 81   : 		}

	mov	eax, DWORD PTR _this$[ebp]
	mov	esp, ebp
	pop	ebp
	ret	8
??0?$_Vector_const_iterator@VVector3@Ogre@@V?$allocator@VVector3@Ogre@@@std@@@std@@QAE@PAVVector3@Ogre@@PBV_Container_base_aux@1@@Z ENDP ; std::_Vector_const_iterator<Ogre::Vector3,std::allocator<Ogre::Vector3> >::_Vector_const_iterator<Ogre::Vector3,std::allocator<Ogre::Vector3> >
_TEXT	ENDS
;	COMDAT xdata$x
xdata$x	SEGMENT
__unwindtable$??0length_error@std@@QAE@ABV01@@Z DD 0ffffffffH
	DD	FLAT:__unwindfunclet$??0length_error@std@@QAE@ABV01@@Z$0
__ehfuncinfo$??0length_error@std@@QAE@ABV01@@Z DD 019930522H
	DD	01H
	DD	FLAT:__unwindtable$??0length_error@std@@QAE@ABV01@@Z
	DD	2 DUP(00H)
	DD	2 DUP(00H)
	DD	00H
	DD	00H
; Function compile flags: /Odtp
xdata$x	ENDS
;	COMDAT ??0length_error@std@@QAE@ABV01@@Z
_TEXT	SEGMENT
_this$ = -16						; size = 4
__$EHRec$ = -12						; size = 12
___that$ = 8						; size = 4
??0length_error@std@@QAE@ABV01@@Z PROC			; std::length_error::length_error, COMDAT
; _this$ = ecx
	push	ebp
	mov	ebp, esp
	push	-1
	push	__ehhandler$??0length_error@std@@QAE@ABV01@@Z
	mov	eax, DWORD PTR fs:0
	push	eax
	push	ecx
	mov	eax, DWORD PTR ___security_cookie
	xor	eax, ebp
	push	eax
	lea	eax, DWORD PTR __$EHRec$[ebp]
	mov	DWORD PTR fs:0, eax
	mov	DWORD PTR _this$[ebp], ecx
	mov	eax, DWORD PTR ___that$[ebp]
	push	eax
	mov	ecx, DWORD PTR _this$[ebp]
	call	??0logic_error@std@@QAE@ABV01@@Z
	mov	DWORD PTR __$EHRec$[ebp+8], 0
	mov	ecx, DWORD PTR _this$[ebp]
	mov	DWORD PTR [ecx], OFFSET ??_7length_error@std@@6B@
	mov	DWORD PTR __$EHRec$[ebp+8], -1
	mov	eax, DWORD PTR _this$[ebp]
	mov	ecx, DWORD PTR __$EHRec$[ebp]
	mov	DWORD PTR fs:0, ecx
	pop	ecx
	mov	esp, ebp
	pop	ebp
	ret	4
_TEXT	ENDS
;	COMDAT text$x
text$x	SEGMENT
__unwindfunclet$??0length_error@std@@QAE@ABV01@@Z$0:
	mov	ecx, DWORD PTR _this$[ebp]
	jmp	??1logic_error@std@@UAE@XZ		; std::logic_error::~logic_error
__ehhandler$??0length_error@std@@QAE@ABV01@@Z:
	mov	edx, DWORD PTR [esp+8]
	lea	eax, DWORD PTR [edx+12]
	mov	ecx, DWORD PTR [edx-8]
	xor	ecx, eax
	call	@__security_check_cookie@4
	mov	eax, OFFSET __ehfuncinfo$??0length_error@std@@QAE@ABV01@@Z
	jmp	___CxxFrameHandler3
text$x	ENDS
??0length_error@std@@QAE@ABV01@@Z ENDP			; std::length_error::length_error
PUBLIC	??0?$_Iterator_with_base@Urandom_access_iterator_tag@std@@DHPBDABDV_Iterator_base_aux@2@@std@@QAE@XZ ; std::_Iterator_with_base<std::random_access_iterator_tag,char,int,char const *,char const &,std::_Iterator_base_aux>::_Iterator_with_base<std::random_access_iterator_tag,char,int,char const *,char const &,std::_Iterator_base_aux>
; Function compile flags: /Odtp
;	COMDAT ??0?$_Ranit@DHPBDABD@std@@QAE@XZ
_TEXT	SEGMENT
_this$ = -4						; size = 4
??0?$_Ranit@DHPBDABD@std@@QAE@XZ PROC			; std::_Ranit<char,int,char const *,char const &>::_Ranit<char,int,char const *,char const &>, COMDAT
; _this$ = ecx
	push	ebp
	mov	ebp, esp
	push	ecx
	mov	DWORD PTR _this$[ebp], ecx
	mov	ecx, DWORD PTR _this$[ebp]
	call	??0?$_Iterator_with_base@Urandom_access_iterator_tag@std@@DHPBDABDV_Iterator_base_aux@2@@std@@QAE@XZ
	mov	eax, DWORD PTR _this$[ebp]
	mov	esp, ebp
	pop	ebp
	ret	0
??0?$_Ranit@DHPBDABD@std@@QAE@XZ ENDP			; std::_Ranit<char,int,char const *,char const &>::_Ranit<char,int,char const *,char const &>
_TEXT	ENDS
PUBLIC	??0?$_Iterator_with_base@Urandom_access_iterator_tag@std@@PAVSurfaceData@Ogre@@HPBQAV34@ABQAV34@V_Iterator_base_aux@2@@std@@QAE@XZ ; std::_Iterator_with_base<std::random_access_iterator_tag,Ogre::SurfaceData *,int,Ogre::SurfaceData * const *,Ogre::SurfaceData * const &,std::_Iterator_base_aux>::_Iterator_with_base<std::random_access_iterator_tag,Ogre::SurfaceData *,int,Ogre::SurfaceData * const *,Ogre::SurfaceData * const &,std::_Iterator_base_aux>
; Function compile flags: /Odtp
;	COMDAT ??0?$_Ranit@PAVSurfaceData@Ogre@@HPBQAV12@ABQAV12@@std@@QAE@XZ
_TEXT	SEGMENT
_this$ = -4						; size = 4
??0?$_Ranit@PAVSurfaceData@Ogre@@HPBQAV12@ABQAV12@@std@@QAE@XZ PROC ; std::_Ranit<Ogre::SurfaceData *,int,Ogre::SurfaceData * const *,Ogre::SurfaceData * const &>::_Ranit<Ogre::SurfaceData *,int,Ogre::SurfaceData * const *,Ogre::SurfaceData * const &>, COMDAT
; _this$ = ecx
	push	ebp
	mov	ebp, esp
	push	ecx
	mov	DWORD PTR _this$[ebp], ecx
	mov	ecx, DWORD PTR _this$[ebp]
	call	??0?$_Iterator_with_base@Urandom_access_iterator_tag@std@@PAVSurfaceData@Ogre@@HPBQAV34@ABQAV34@V_Iterator_base_aux@2@@std@@QAE@XZ
	mov	eax, DWORD PTR _this$[ebp]
	mov	esp, ebp
	pop	ebp
	ret	0
??0?$_Ranit@PAVSurfaceData@Ogre@@HPBQAV12@ABQAV12@@std@@QAE@XZ ENDP ; std::_Ranit<Ogre::SurfaceData *,int,Ogre::SurfaceData * const *,Ogre::SurfaceData * const &>::_Ranit<Ogre::SurfaceData *,int,Ogre::SurfaceData * const *,Ogre::SurfaceData * const &>
_TEXT	ENDS
PUBLIC	??0?$_Iterator_with_base@Urandom_access_iterator_tag@std@@VVector3@Ogre@@HPBV34@ABV34@V_Iterator_base_aux@2@@std@@QAE@XZ ; std::_Iterator_with_base<std::random_access_iterator_tag,Ogre::Vector3,int,Ogre::Vector3 const *,Ogre::Vector3 const &,std::_Iterator_base_aux>::_Iterator_with_base<std::random_access_iterator_tag,Ogre::Vector3,int,Ogre::Vector3 const *,Ogre::Vector3 const &,std::_Iterator_base_aux>
; Function compile flags: /Odtp
;	COMDAT ??0?$_Ranit@VVector3@Ogre@@HPBV12@ABV12@@std@@QAE@XZ
_TEXT	SEGMENT
_this$ = -4						; size = 4
??0?$_Ranit@VVector3@Ogre@@HPBV12@ABV12@@std@@QAE@XZ PROC ; std::_Ranit<Ogre::Vector3,int,Ogre::Vector3 const *,Ogre::Vector3 const &>::_Ranit<Ogre::Vector3,int,Ogre::Vector3 const *,Ogre::Vector3 const &>, COMDAT
; _this$ = ecx
	push	ebp
	mov	ebp, esp
	push	ecx
	mov	DWORD PTR _this$[ebp], ecx
	mov	ecx, DWORD PTR _this$[ebp]
	call	??0?$_Iterator_with_base@Urandom_access_iterator_tag@std@@VVector3@Ogre@@HPBV34@ABV34@V_Iterator_base_aux@2@@std@@QAE@XZ
	mov	eax, DWORD PTR _this$[ebp]
	mov	esp, ebp
	pop	ebp
	ret	0
??0?$_Ranit@VVector3@Ogre@@HPBV12@ABV12@@std@@QAE@XZ ENDP ; std::_Ranit<Ogre::Vector3,int,Ogre::Vector3 const *,Ogre::Vector3 const &>::_Ranit<Ogre::Vector3,int,Ogre::Vector3 const *,Ogre::Vector3 const &>
_TEXT	ENDS
PUBLIC	??0_Iterator_base_aux@std@@QAE@XZ		; std::_Iterator_base_aux::_Iterator_base_aux
; Function compile flags: /Odtp
;	COMDAT ??0?$_Iterator_with_base@Urandom_access_iterator_tag@std@@DHPBDABDV_Iterator_base_aux@2@@std@@QAE@XZ
_TEXT	SEGMENT
_this$ = -4						; size = 4
??0?$_Iterator_with_base@Urandom_access_iterator_tag@std@@DHPBDABDV_Iterator_base_aux@2@@std@@QAE@XZ PROC ; std::_Iterator_with_base<std::random_access_iterator_tag,char,int,char const *,char const &,std::_Iterator_base_aux>::_Iterator_with_base<std::random_access_iterator_tag,char,int,char const *,char const &,std::_Iterator_base_aux>, COMDAT
; _this$ = ecx
	push	ebp
	mov	ebp, esp
	push	ecx
	mov	DWORD PTR _this$[ebp], ecx
	mov	ecx, DWORD PTR _this$[ebp]
	call	??0_Iterator_base_aux@std@@QAE@XZ	; std::_Iterator_base_aux::_Iterator_base_aux
	mov	eax, DWORD PTR _this$[ebp]
	mov	esp, ebp
	pop	ebp
	ret	0
??0?$_Iterator_with_base@Urandom_access_iterator_tag@std@@DHPBDABDV_Iterator_base_aux@2@@std@@QAE@XZ ENDP ; std::_Iterator_with_base<std::random_access_iterator_tag,char,int,char const *,char const &,std::_Iterator_base_aux>::_Iterator_with_base<std::random_access_iterator_tag,char,int,char const *,char const &,std::_Iterator_base_aux>
; Function compile flags: /Odtp
; File d:\program files (x86)\microsoft visual studio 9.0\vc\include\xutility
_TEXT	ENDS
;	COMDAT ??0_Iterator_base_aux@std@@QAE@XZ
_TEXT	SEGMENT
_this$ = -4						; size = 4
??0_Iterator_base_aux@std@@QAE@XZ PROC			; std::_Iterator_base_aux::_Iterator_base_aux, COMDAT
; _this$ = ecx

; 448  : 	_Iterator_base_aux()

	push	ebp
	mov	ebp, esp
	push	ecx
	mov	DWORD PTR _this$[ebp], ecx
	mov	eax, DWORD PTR _this$[ebp]
	mov	DWORD PTR [eax], 0
	mov	eax, DWORD PTR _this$[ebp]
	mov	esp, ebp
	pop	ebp
	ret	0
??0_Iterator_base_aux@std@@QAE@XZ ENDP			; std::_Iterator_base_aux::_Iterator_base_aux
; Function compile flags: /Odtp
_TEXT	ENDS
;	COMDAT ??0?$_Iterator_with_base@Urandom_access_iterator_tag@std@@PAVSurfaceData@Ogre@@HPBQAV34@ABQAV34@V_Iterator_base_aux@2@@std@@QAE@XZ
_TEXT	SEGMENT
_this$ = -4						; size = 4
??0?$_Iterator_with_base@Urandom_access_iterator_tag@std@@PAVSurfaceData@Ogre@@HPBQAV34@ABQAV34@V_Iterator_base_aux@2@@std@@QAE@XZ PROC ; std::_Iterator_with_base<std::random_access_iterator_tag,Ogre::SurfaceData *,int,Ogre::SurfaceData * const *,Ogre::SurfaceData * const &,std::_Iterator_base_aux>::_Iterator_with_base<std::random_access_iterator_tag,Ogre::SurfaceData *,int,Ogre::SurfaceData * const *,Ogre::SurfaceData * const &,std::_Iterator_base_aux>, COMDAT
; _this$ = ecx
	push	ebp
	mov	ebp, esp
	push	ecx
	mov	DWORD PTR _this$[ebp], ecx
	mov	ecx, DWORD PTR _this$[ebp]
	call	??0_Iterator_base_aux@std@@QAE@XZ	; std::_Iterator_base_aux::_Iterator_base_aux
	mov	eax, DWORD PTR _this$[ebp]
	mov	esp, ebp
	pop	ebp
	ret	0
??0?$_Iterator_with_base@Urandom_access_iterator_tag@std@@PAVSurfaceData@Ogre@@HPBQAV34@ABQAV34@V_Iterator_base_aux@2@@std@@QAE@XZ ENDP ; std::_Iterator_with_base<std::random_access_iterator_tag,Ogre::SurfaceData *,int,Ogre::SurfaceData * const *,Ogre::SurfaceData * const &,std::_Iterator_base_aux>::_Iterator_with_base<std::random_access_iterator_tag,Ogre::SurfaceData *,int,Ogre::SurfaceData * const *,Ogre::SurfaceData * const &,std::_Iterator_base_aux>
; Function compile flags: /Odtp
_TEXT	ENDS
;	COMDAT ??0?$_Iterator_with_base@Urandom_access_iterator_tag@std@@VVector3@Ogre@@HPBV34@ABV34@V_Iterator_base_aux@2@@std@@QAE@XZ
_TEXT	SEGMENT
_this$ = -4						; size = 4
??0?$_Iterator_with_base@Urandom_access_iterator_tag@std@@VVector3@Ogre@@HPBV34@ABV34@V_Iterator_base_aux@2@@std@@QAE@XZ PROC ; std::_Iterator_with_base<std::random_access_iterator_tag,Ogre::Vector3,int,Ogre::Vector3 const *,Ogre::Vector3 const &,std::_Iterator_base_aux>::_Iterator_with_base<std::random_access_iterator_tag,Ogre::Vector3,int,Ogre::Vector3 const *,Ogre::Vector3 const &,std::_Iterator_base_aux>, COMDAT
; _this$ = ecx
	push	ebp
	mov	ebp, esp
	push	ecx
	mov	DWORD PTR _this$[ebp], ecx
	mov	ecx, DWORD PTR _this$[ebp]
	call	??0_Iterator_base_aux@std@@QAE@XZ	; std::_Iterator_base_aux::_Iterator_base_aux
	mov	eax, DWORD PTR _this$[ebp]
	mov	esp, ebp
	pop	ebp
	ret	0
??0?$_Iterator_with_base@Urandom_access_iterator_tag@std@@VVector3@Ogre@@HPBV34@ABV34@V_Iterator_base_aux@2@@std@@QAE@XZ ENDP ; std::_Iterator_with_base<std::random_access_iterator_tag,Ogre::Vector3,int,Ogre::Vector3 const *,Ogre::Vector3 const &,std::_Iterator_base_aux>::_Iterator_with_base<std::random_access_iterator_tag,Ogre::Vector3,int,Ogre::Vector3 const *,Ogre::Vector3 const &,std::_Iterator_base_aux>
; Function compile flags: /Odtp
; File d:\program files (x86)\microsoft visual studio 9.0\vc\include\vector
_TEXT	ENDS
;	COMDAT ?_Make_iter@?$vector@DV?$allocator@D@std@@@std@@QBE?AV?$_Vector_iterator@DV?$allocator@D@std@@@2@V?$_Vector_const_iterator@DV?$allocator@D@std@@@2@@Z
_TEXT	SEGMENT
_this$ = -4						; size = 4
___$ReturnUdt$ = 8					; size = 4
__Where$ = 12						; size = 8
?_Make_iter@?$vector@DV?$allocator@D@std@@@std@@QBE?AV?$_Vector_iterator@DV?$allocator@D@std@@@2@V?$_Vector_const_iterator@DV?$allocator@D@std@@@2@@Z PROC ; std::vector<char,std::allocator<char> >::_Make_iter, COMDAT
; _this$ = ecx

; 660  : 		{	// make iterator from const_iterator

	push	ebp
	mov	ebp, esp
	push	ecx
	mov	DWORD PTR _this$[ebp], ecx

; 661  : 		return (iterator(_Where._Myptr, this));

	mov	eax, DWORD PTR _this$[ebp]
	push	eax
	mov	ecx, DWORD PTR __Where$[ebp+4]
	push	ecx
	mov	ecx, DWORD PTR ___$ReturnUdt$[ebp]
	call	??0?$_Vector_iterator@DV?$allocator@D@std@@@std@@QAE@PADPBV_Container_base_aux@1@@Z ; std::_Vector_iterator<char,std::allocator<char> >::_Vector_iterator<char,std::allocator<char> >
	mov	eax, DWORD PTR ___$ReturnUdt$[ebp]

; 662  : 		}

	mov	esp, ebp
	pop	ebp
	ret	12					; 0000000cH
?_Make_iter@?$vector@DV?$allocator@D@std@@@std@@QBE?AV?$_Vector_iterator@DV?$allocator@D@std@@@2@V?$_Vector_const_iterator@DV?$allocator@D@std@@@2@@Z ENDP ; std::vector<char,std::allocator<char> >::_Make_iter
_TEXT	ENDS
PUBLIC	??$_Allocate@V_Aux_cont@std@@@std@@YAPAV_Aux_cont@0@IPAV10@@Z ; std::_Allocate<std::_Aux_cont>
; Function compile flags: /Odtp
; File d:\program files (x86)\microsoft visual studio 9.0\vc\include\xmemory
;	COMDAT ?allocate@?$allocator@V_Aux_cont@std@@@std@@QAEPAV_Aux_cont@2@I@Z
_TEXT	SEGMENT
_this$ = -4						; size = 4
__Count$ = 8						; size = 4
?allocate@?$allocator@V_Aux_cont@std@@@std@@QAEPAV_Aux_cont@2@I@Z PROC ; std::allocator<std::_Aux_cont>::allocate, COMDAT
; _this$ = ecx

; 144  : 		{	// allocate array of _Count elements

	push	ebp
	mov	ebp, esp
	push	ecx
	mov	DWORD PTR _this$[ebp], ecx

; 145  : 		return (_Allocate(_Count, (pointer)0));

	push	0
	mov	eax, DWORD PTR __Count$[ebp]
	push	eax
	call	??$_Allocate@V_Aux_cont@std@@@std@@YAPAV_Aux_cont@0@IPAV10@@Z ; std::_Allocate<std::_Aux_cont>
	add	esp, 8

; 146  : 		}

	mov	esp, ebp
	pop	ebp
	ret	4
?allocate@?$allocator@V_Aux_cont@std@@@std@@QAEPAV_Aux_cont@2@I@Z ENDP ; std::allocator<std::_Aux_cont>::allocate
; Function compile flags: /Odtp
; File d:\program files (x86)\microsoft visual studio 9.0\vc\include\vector
_TEXT	ENDS
;	COMDAT ?_Make_iter@?$vector@PAVSurfaceData@Ogre@@V?$allocator@PAVSurfaceData@Ogre@@@std@@@std@@QBE?AV?$_Vector_iterator@PAVSurfaceData@Ogre@@V?$allocator@PAVSurfaceData@Ogre@@@std@@@2@V?$_Vector_const_iterator@PAVSurfaceData@Ogre@@V?$allocator@PAVSurfaceData@Ogre@@@std@@@2@@Z
_TEXT	SEGMENT
_this$ = -4						; size = 4
___$ReturnUdt$ = 8					; size = 4
__Where$ = 12						; size = 8
?_Make_iter@?$vector@PAVSurfaceData@Ogre@@V?$allocator@PAVSurfaceData@Ogre@@@std@@@std@@QBE?AV?$_Vector_iterator@PAVSurfaceData@Ogre@@V?$allocator@PAVSurfaceData@Ogre@@@std@@@2@V?$_Vector_const_iterator@PAVSurfaceData@Ogre@@V?$allocator@PAVSurfaceData@Ogre@@@std@@@2@@Z PROC ; std::vector<Ogre::SurfaceData *,std::allocator<Ogre::SurfaceData *> >::_Make_iter, COMDAT
; _this$ = ecx

; 660  : 		{	// make iterator from const_iterator

	push	ebp
	mov	ebp, esp
	push	ecx
	mov	DWORD PTR _this$[ebp], ecx

; 661  : 		return (iterator(_Where._Myptr, this));

	mov	eax, DWORD PTR _this$[ebp]
	push	eax
	mov	ecx, DWORD PTR __Where$[ebp+4]
	push	ecx
	mov	ecx, DWORD PTR ___$ReturnUdt$[ebp]
	call	??0?$_Vector_iterator@PAVSurfaceData@Ogre@@V?$allocator@PAVSurfaceData@Ogre@@@std@@@std@@QAE@PAPAVSurfaceData@Ogre@@PBV_Container_base_aux@1@@Z ; std::_Vector_iterator<Ogre::SurfaceData *,std::allocator<Ogre::SurfaceData *> >::_Vector_iterator<Ogre::SurfaceData *,std::allocator<Ogre::SurfaceData *> >
	mov	eax, DWORD PTR ___$ReturnUdt$[ebp]

; 662  : 		}

	mov	esp, ebp
	pop	ebp
	ret	12					; 0000000cH
?_Make_iter@?$vector@PAVSurfaceData@Ogre@@V?$allocator@PAVSurfaceData@Ogre@@@std@@@std@@QBE?AV?$_Vector_iterator@PAVSurfaceData@Ogre@@V?$allocator@PAVSurfaceData@Ogre@@@std@@@2@V?$_Vector_const_iterator@PAVSurfaceData@Ogre@@V?$allocator@PAVSurfaceData@Ogre@@@std@@@2@@Z ENDP ; std::vector<Ogre::SurfaceData *,std::allocator<Ogre::SurfaceData *> >::_Make_iter
; Function compile flags: /Odtp
; File d:\program files (x86)\microsoft visual studio 9.0\vc\include\xmemory
_TEXT	ENDS
;	COMDAT ?max_size@?$allocator@PAVSurfaceData@Ogre@@@std@@QBEIXZ
_TEXT	SEGMENT
tv65 = -12						; size = 4
_this$ = -8						; size = 4
__Count$ = -4						; size = 4
?max_size@?$allocator@PAVSurfaceData@Ogre@@@std@@QBEIXZ PROC ; std::allocator<Ogre::SurfaceData *>::max_size, COMDAT
; _this$ = ecx

; 164  : 		{	// estimate maximum array size

	push	ebp
	mov	ebp, esp
	sub	esp, 12					; 0000000cH
	mov	DWORD PTR _this$[ebp], ecx

; 165  : 		_SIZT _Count = (_SIZT)(-1) / sizeof (_Ty);

	mov	DWORD PTR __Count$[ebp], 1073741823	; 3fffffffH

; 166  : 		return (0 < _Count ? _Count : 1);

	cmp	DWORD PTR __Count$[ebp], 0
	jbe	SHORT $LN3@max_size
	mov	eax, DWORD PTR __Count$[ebp]
	mov	DWORD PTR tv65[ebp], eax
	jmp	SHORT $LN4@max_size
$LN3@max_size:
	mov	DWORD PTR tv65[ebp], 1
$LN4@max_size:
	mov	eax, DWORD PTR tv65[ebp]

; 167  : 		}

	mov	esp, ebp
	pop	ebp
	ret	0
?max_size@?$allocator@PAVSurfaceData@Ogre@@@std@@QBEIXZ ENDP ; std::allocator<Ogre::SurfaceData *>::max_size
; Function compile flags: /Odtp
; File d:\program files (x86)\microsoft visual studio 9.0\vc\include\vector
_TEXT	ENDS
;	COMDAT ?_Make_iter@?$vector@VVector3@Ogre@@V?$allocator@VVector3@Ogre@@@std@@@std@@QBE?AV?$_Vector_iterator@VVector3@Ogre@@V?$allocator@VVector3@Ogre@@@std@@@2@V?$_Vector_const_iterator@VVector3@Ogre@@V?$allocator@VVector3@Ogre@@@std@@@2@@Z
_TEXT	SEGMENT
_this$ = -4						; size = 4
___$ReturnUdt$ = 8					; size = 4
__Where$ = 12						; size = 8
?_Make_iter@?$vector@VVector3@Ogre@@V?$allocator@VVector3@Ogre@@@std@@@std@@QBE?AV?$_Vector_iterator@VVector3@Ogre@@V?$allocator@VVector3@Ogre@@@std@@@2@V?$_Vector_const_iterator@VVector3@Ogre@@V?$allocator@VVector3@Ogre@@@std@@@2@@Z PROC ; std::vector<Ogre::Vector3,std::allocator<Ogre::Vector3> >::_Make_iter, COMDAT
; _this$ = ecx

; 660  : 		{	// make iterator from const_iterator

	push	ebp
	mov	ebp, esp
	push	ecx
	mov	DWORD PTR _this$[ebp], ecx

; 661  : 		return (iterator(_Where._Myptr, this));

	mov	eax, DWORD PTR _this$[ebp]
	push	eax
	mov	ecx, DWORD PTR __Where$[ebp+4]
	push	ecx
	mov	ecx, DWORD PTR ___$ReturnUdt$[ebp]
	call	??0?$_Vector_iterator@VVector3@Ogre@@V?$allocator@VVector3@Ogre@@@std@@@std@@QAE@PAVVector3@Ogre@@PBV_Container_base_aux@1@@Z ; std::_Vector_iterator<Ogre::Vector3,std::allocator<Ogre::Vector3> >::_Vector_iterator<Ogre::Vector3,std::allocator<Ogre::Vector3> >
	mov	eax, DWORD PTR ___$ReturnUdt$[ebp]

; 662  : 		}

	mov	esp, ebp
	pop	ebp
	ret	12					; 0000000cH
?_Make_iter@?$vector@VVector3@Ogre@@V?$allocator@VVector3@Ogre@@@std@@@std@@QBE?AV?$_Vector_iterator@VVector3@Ogre@@V?$allocator@VVector3@Ogre@@@std@@@2@V?$_Vector_const_iterator@VVector3@Ogre@@V?$allocator@VVector3@Ogre@@@std@@@2@@Z ENDP ; std::vector<Ogre::Vector3,std::allocator<Ogre::Vector3> >::_Make_iter
; Function compile flags: /Odtp
; File d:\program files (x86)\microsoft visual studio 9.0\vc\include\xmemory
_TEXT	ENDS
;	COMDAT ?max_size@?$allocator@VVector3@Ogre@@@std@@QBEIXZ
_TEXT	SEGMENT
tv65 = -12						; size = 4
_this$ = -8						; size = 4
__Count$ = -4						; size = 4
?max_size@?$allocator@VVector3@Ogre@@@std@@QBEIXZ PROC	; std::allocator<Ogre::Vector3>::max_size, COMDAT
; _this$ = ecx

; 164  : 		{	// estimate maximum array size

	push	ebp
	mov	ebp, esp
	sub	esp, 12					; 0000000cH
	mov	DWORD PTR _this$[ebp], ecx

; 165  : 		_SIZT _Count = (_SIZT)(-1) / sizeof (_Ty);

	mov	DWORD PTR __Count$[ebp], 357913941	; 15555555H

; 166  : 		return (0 < _Count ? _Count : 1);

	cmp	DWORD PTR __Count$[ebp], 0
	jbe	SHORT $LN3@max_size@2
	mov	eax, DWORD PTR __Count$[ebp]
	mov	DWORD PTR tv65[ebp], eax
	jmp	SHORT $LN4@max_size@2
$LN3@max_size@2:
	mov	DWORD PTR tv65[ebp], 1
$LN4@max_size@2:
	mov	eax, DWORD PTR tv65[ebp]

; 167  : 		}

	mov	esp, ebp
	pop	ebp
	ret	0
?max_size@?$allocator@VVector3@Ogre@@@std@@QBEIXZ ENDP	; std::allocator<Ogre::Vector3>::max_size
_TEXT	ENDS
PUBLIC	??8?$_Vector_const_iterator@DV?$allocator@D@std@@@std@@QBE_NABV01@@Z ; std::_Vector_const_iterator<char,std::allocator<char> >::operator==
; Function compile flags: /Odtp
; File d:\program files (x86)\microsoft visual studio 9.0\vc\include\vector
;	COMDAT ??9?$_Vector_const_iterator@DV?$allocator@D@std@@@std@@QBE_NABV01@@Z
_TEXT	SEGMENT
_this$ = -4						; size = 4
__Right$ = 8						; size = 4
??9?$_Vector_const_iterator@DV?$allocator@D@std@@@std@@QBE_NABV01@@Z PROC ; std::_Vector_const_iterator<char,std::allocator<char> >::operator!=, COMDAT
; _this$ = ecx

; 215  : 		{	// test for iterator inequality

	push	ebp
	mov	ebp, esp
	push	ecx
	mov	DWORD PTR _this$[ebp], ecx

; 216  : 		return (!(*this == _Right));

	mov	eax, DWORD PTR __Right$[ebp]
	push	eax
	mov	ecx, DWORD PTR _this$[ebp]
	call	??8?$_Vector_const_iterator@DV?$allocator@D@std@@@std@@QBE_NABV01@@Z ; std::_Vector_const_iterator<char,std::allocator<char> >::operator==
	movzx	eax, al
	neg	eax
	sbb	eax, eax
	add	eax, 1

; 217  : 		}

	mov	esp, ebp
	pop	ebp
	ret	4
??9?$_Vector_const_iterator@DV?$allocator@D@std@@@std@@QBE_NABV01@@Z ENDP ; std::_Vector_const_iterator<char,std::allocator<char> >::operator!=
_TEXT	ENDS
PUBLIC	??8?$_Vector_const_iterator@PAVSurfaceData@Ogre@@V?$allocator@PAVSurfaceData@Ogre@@@std@@@std@@QBE_NABV01@@Z ; std::_Vector_const_iterator<Ogre::SurfaceData *,std::allocator<Ogre::SurfaceData *> >::operator==
; Function compile flags: /Odtp
;	COMDAT ??9?$_Vector_const_iterator@PAVSurfaceData@Ogre@@V?$allocator@PAVSurfaceData@Ogre@@@std@@@std@@QBE_NABV01@@Z
_TEXT	SEGMENT
_this$ = -4						; size = 4
__Right$ = 8						; size = 4
??9?$_Vector_const_iterator@PAVSurfaceData@Ogre@@V?$allocator@PAVSurfaceData@Ogre@@@std@@@std@@QBE_NABV01@@Z PROC ; std::_Vector_const_iterator<Ogre::SurfaceData *,std::allocator<Ogre::SurfaceData *> >::operator!=, COMDAT
; _this$ = ecx

; 215  : 		{	// test for iterator inequality

	push	ebp
	mov	ebp, esp
	push	ecx
	mov	DWORD PTR _this$[ebp], ecx

; 216  : 		return (!(*this == _Right));

	mov	eax, DWORD PTR __Right$[ebp]
	push	eax
	mov	ecx, DWORD PTR _this$[ebp]
	call	??8?$_Vector_const_iterator@PAVSurfaceData@Ogre@@V?$allocator@PAVSurfaceData@Ogre@@@std@@@std@@QBE_NABV01@@Z ; std::_Vector_const_iterator<Ogre::SurfaceData *,std::allocator<Ogre::SurfaceData *> >::operator==
	movzx	eax, al
	neg	eax
	sbb	eax, eax
	add	eax, 1

; 217  : 		}

	mov	esp, ebp
	pop	ebp
	ret	4
??9?$_Vector_const_iterator@PAVSurfaceData@Ogre@@V?$allocator@PAVSurfaceData@Ogre@@@std@@@std@@QBE_NABV01@@Z ENDP ; std::_Vector_const_iterator<Ogre::SurfaceData *,std::allocator<Ogre::SurfaceData *> >::operator!=
_TEXT	ENDS
PUBLIC	??8?$_Vector_const_iterator@VVector3@Ogre@@V?$allocator@VVector3@Ogre@@@std@@@std@@QBE_NABV01@@Z ; std::_Vector_const_iterator<Ogre::Vector3,std::allocator<Ogre::Vector3> >::operator==
; Function compile flags: /Odtp
;	COMDAT ??9?$_Vector_const_iterator@VVector3@Ogre@@V?$allocator@VVector3@Ogre@@@std@@@std@@QBE_NABV01@@Z
_TEXT	SEGMENT
_this$ = -4						; size = 4
__Right$ = 8						; size = 4
??9?$_Vector_const_iterator@VVector3@Ogre@@V?$allocator@VVector3@Ogre@@@std@@@std@@QBE_NABV01@@Z PROC ; std::_Vector_const_iterator<Ogre::Vector3,std::allocator<Ogre::Vector3> >::operator!=, COMDAT
; _this$ = ecx

; 215  : 		{	// test for iterator inequality

	push	ebp
	mov	ebp, esp
	push	ecx
	mov	DWORD PTR _this$[ebp], ecx

; 216  : 		return (!(*this == _Right));

	mov	eax, DWORD PTR __Right$[ebp]
	push	eax
	mov	ecx, DWORD PTR _this$[ebp]
	call	??8?$_Vector_const_iterator@VVector3@Ogre@@V?$allocator@VVector3@Ogre@@@std@@@std@@QBE_NABV01@@Z ; std::_Vector_const_iterator<Ogre::Vector3,std::allocator<Ogre::Vector3> >::operator==
	movzx	eax, al
	neg	eax
	sbb	eax, eax
	add	eax, 1

; 217  : 		}

	mov	esp, ebp
	pop	ebp
	ret	4
??9?$_Vector_const_iterator@VVector3@Ogre@@V?$allocator@VVector3@Ogre@@@std@@@std@@QBE_NABV01@@Z ENDP ; std::_Vector_const_iterator<Ogre::Vector3,std::allocator<Ogre::Vector3> >::operator!=
; Function compile flags: /Odtp
_TEXT	ENDS
;	COMDAT ??0?$_Vector_iterator@DV?$allocator@D@std@@@std@@QAE@PADPBV_Container_base_aux@1@@Z
_TEXT	SEGMENT
_this$ = -4						; size = 4
__Ptr$ = 8						; size = 4
__Pvector$ = 12						; size = 4
??0?$_Vector_iterator@DV?$allocator@D@std@@@std@@QAE@PADPBV_Container_base_aux@1@@Z PROC ; std::_Vector_iterator<char,std::allocator<char> >::_Vector_iterator<char,std::allocator<char> >, COMDAT
; _this$ = ecx

; 327  : 		{	// construct with pointer _Ptr

	push	ebp
	mov	ebp, esp
	push	ecx
	mov	DWORD PTR _this$[ebp], ecx
	mov	eax, DWORD PTR __Pvector$[ebp]
	push	eax
	mov	ecx, DWORD PTR __Ptr$[ebp]
	push	ecx
	mov	ecx, DWORD PTR _this$[ebp]
	call	??0?$_Vector_const_iterator@DV?$allocator@D@std@@@std@@QAE@PADPBV_Container_base_aux@1@@Z ; std::_Vector_const_iterator<char,std::allocator<char> >::_Vector_const_iterator<char,std::allocator<char> >

; 328  : 		}

	mov	eax, DWORD PTR _this$[ebp]
	mov	esp, ebp
	pop	ebp
	ret	8
??0?$_Vector_iterator@DV?$allocator@D@std@@@std@@QAE@PADPBV_Container_base_aux@1@@Z ENDP ; std::_Vector_iterator<char,std::allocator<char> >::_Vector_iterator<char,std::allocator<char> >
; Function compile flags: /Odtp
_TEXT	ENDS
;	COMDAT ??0?$_Vector_iterator@PAVSurfaceData@Ogre@@V?$allocator@PAVSurfaceData@Ogre@@@std@@@std@@QAE@PAPAVSurfaceData@Ogre@@PBV_Container_base_aux@1@@Z
_TEXT	SEGMENT
_this$ = -4						; size = 4
__Ptr$ = 8						; size = 4
__Pvector$ = 12						; size = 4
??0?$_Vector_iterator@PAVSurfaceData@Ogre@@V?$allocator@PAVSurfaceData@Ogre@@@std@@@std@@QAE@PAPAVSurfaceData@Ogre@@PBV_Container_base_aux@1@@Z PROC ; std::_Vector_iterator<Ogre::SurfaceData *,std::allocator<Ogre::SurfaceData *> >::_Vector_iterator<Ogre::SurfaceData *,std::allocator<Ogre::SurfaceData *> >, COMDAT
; _this$ = ecx

; 327  : 		{	// construct with pointer _Ptr

	push	ebp
	mov	ebp, esp
	push	ecx
	mov	DWORD PTR _this$[ebp], ecx
	mov	eax, DWORD PTR __Pvector$[ebp]
	push	eax
	mov	ecx, DWORD PTR __Ptr$[ebp]
	push	ecx
	mov	ecx, DWORD PTR _this$[ebp]
	call	??0?$_Vector_const_iterator@PAVSurfaceData@Ogre@@V?$allocator@PAVSurfaceData@Ogre@@@std@@@std@@QAE@PAPAVSurfaceData@Ogre@@PBV_Container_base_aux@1@@Z ; std::_Vector_const_iterator<Ogre::SurfaceData *,std::allocator<Ogre::SurfaceData *> >::_Vector_const_iterator<Ogre::SurfaceData *,std::allocator<Ogre::SurfaceData *> >

; 328  : 		}

	mov	eax, DWORD PTR _this$[ebp]
	mov	esp, ebp
	pop	ebp
	ret	8
??0?$_Vector_iterator@PAVSurfaceData@Ogre@@V?$allocator@PAVSurfaceData@Ogre@@@std@@@std@@QAE@PAPAVSurfaceData@Ogre@@PBV_Container_base_aux@1@@Z ENDP ; std::_Vector_iterator<Ogre::SurfaceData *,std::allocator<Ogre::SurfaceData *> >::_Vector_iterator<Ogre::SurfaceData *,std::allocator<Ogre::SurfaceData *> >
; Function compile flags: /Odtp
_TEXT	ENDS
;	COMDAT ??0?$_Vector_iterator@VVector3@Ogre@@V?$allocator@VVector3@Ogre@@@std@@@std@@QAE@PAVVector3@Ogre@@PBV_Container_base_aux@1@@Z
_TEXT	SEGMENT
_this$ = -4						; size = 4
__Ptr$ = 8						; size = 4
__Pvector$ = 12						; size = 4
??0?$_Vector_iterator@VVector3@Ogre@@V?$allocator@VVector3@Ogre@@@std@@@std@@QAE@PAVVector3@Ogre@@PBV_Container_base_aux@1@@Z PROC ; std::_Vector_iterator<Ogre::Vector3,std::allocator<Ogre::Vector3> >::_Vector_iterator<Ogre::Vector3,std::allocator<Ogre::Vector3> >, COMDAT
; _this$ = ecx

; 327  : 		{	// construct with pointer _Ptr

	push	ebp
	mov	ebp, esp
	push	ecx
	mov	DWORD PTR _this$[ebp], ecx
	mov	eax, DWORD PTR __Pvector$[ebp]
	push	eax
	mov	ecx, DWORD PTR __Ptr$[ebp]
	push	ecx
	mov	ecx, DWORD PTR _this$[ebp]
	call	??0?$_Vector_const_iterator@VVector3@Ogre@@V?$allocator@VVector3@Ogre@@@std@@@std@@QAE@PAVVector3@Ogre@@PBV_Container_base_aux@1@@Z ; std::_Vector_const_iterator<Ogre::Vector3,std::allocator<Ogre::Vector3> >::_Vector_const_iterator<Ogre::Vector3,std::allocator<Ogre::Vector3> >

; 328  : 		}

	mov	eax, DWORD PTR _this$[ebp]
	mov	esp, ebp
	pop	ebp
	ret	8
??0?$_Vector_iterator@VVector3@Ogre@@V?$allocator@VVector3@Ogre@@@std@@@std@@QAE@PAVVector3@Ogre@@PBV_Container_base_aux@1@@Z ENDP ; std::_Vector_iterator<Ogre::Vector3,std::allocator<Ogre::Vector3> >::_Vector_iterator<Ogre::Vector3,std::allocator<Ogre::Vector3> >
_TEXT	ENDS
PUBLIC	?_Same_container@_Iterator_base_aux@std@@QBE_NABV12@@Z ; std::_Iterator_base_aux::_Same_container
PUBLIC	?_Has_container@_Iterator_base_aux@std@@QBE_NXZ	; std::_Iterator_base_aux::_Has_container
; Function compile flags: /Odtp
;	COMDAT ??8?$_Vector_const_iterator@DV?$allocator@D@std@@@std@@QBE_NABV01@@Z
_TEXT	SEGMENT
_this$ = -4						; size = 4
__Right$ = 8						; size = 4
??8?$_Vector_const_iterator@DV?$allocator@D@std@@@std@@QBE_NABV01@@Z PROC ; std::_Vector_const_iterator<char,std::allocator<char> >::operator==, COMDAT
; _this$ = ecx

; 203  : 		{	// test for iterator equality

	push	ebp
	mov	ebp, esp
	push	ecx
	mov	DWORD PTR _this$[ebp], ecx

; 204  : 
; 205  :  #if _HAS_ITERATOR_DEBUGGING
; 206  : 		_Compat(_Right);
; 207  :  #else
; 208  : 		_SCL_SECURE_VALIDATE(this->_Has_container() && this->_Same_container(_Right));

	mov	ecx, DWORD PTR _this$[ebp]
	call	?_Has_container@_Iterator_base_aux@std@@QBE_NXZ ; std::_Iterator_base_aux::_Has_container
	movzx	eax, al
	test	eax, eax
	je	SHORT $LN1@operator@6
	mov	ecx, DWORD PTR __Right$[ebp]
	push	ecx
	mov	ecx, DWORD PTR _this$[ebp]
	call	?_Same_container@_Iterator_base_aux@std@@QBE_NABV12@@Z ; std::_Iterator_base_aux::_Same_container
	movzx	edx, al
	test	edx, edx
	jne	SHORT $LN2@operator@6
$LN1@operator@6:
	call	DWORD PTR __imp___invalid_parameter_noinfo
$LN2@operator@6:

; 209  :  #endif /* _HAS_ITERATOR_DEBUGGING */
; 210  : 
; 211  : 		return (_Myptr == _Right._Myptr);

	mov	eax, DWORD PTR _this$[ebp]
	mov	ecx, DWORD PTR __Right$[ebp]
	mov	edx, DWORD PTR [eax+4]
	xor	eax, eax
	cmp	edx, DWORD PTR [ecx+4]
	sete	al

; 212  : 		}

	mov	esp, ebp
	pop	ebp
	ret	4
??8?$_Vector_const_iterator@DV?$allocator@D@std@@@std@@QBE_NABV01@@Z ENDP ; std::_Vector_const_iterator<char,std::allocator<char> >::operator==
; Function compile flags: /Odtp
; File d:\program files (x86)\microsoft visual studio 9.0\vc\include\xutility
_TEXT	ENDS
;	COMDAT ?_Same_container@_Iterator_base_aux@std@@QBE_NABV12@@Z
_TEXT	SEGMENT
_this$ = -4						; size = 4
__Other$ = 8						; size = 4
?_Same_container@_Iterator_base_aux@std@@QBE_NABV12@@Z PROC ; std::_Iterator_base_aux::_Same_container, COMDAT
; _this$ = ecx

; 462  : 		{	// Accelerate the comparison by not going through the aux object

	push	ebp
	mov	ebp, esp
	push	ecx
	mov	DWORD PTR _this$[ebp], ecx

; 463  : 		return _Myaux == _Other._Myaux;

	mov	eax, DWORD PTR _this$[ebp]
	mov	ecx, DWORD PTR __Other$[ebp]
	mov	edx, DWORD PTR [eax]
	xor	eax, eax
	cmp	edx, DWORD PTR [ecx]
	sete	al

; 464  : 		}

	mov	esp, ebp
	pop	ebp
	ret	4
?_Same_container@_Iterator_base_aux@std@@QBE_NABV12@@Z ENDP ; std::_Iterator_base_aux::_Same_container
; Function compile flags: /Odtp
_TEXT	ENDS
;	COMDAT ?_Has_container@_Iterator_base_aux@std@@QBE_NXZ
_TEXT	SEGMENT
_this$ = -4						; size = 4
?_Has_container@_Iterator_base_aux@std@@QBE_NXZ PROC	; std::_Iterator_base_aux::_Has_container, COMDAT
; _this$ = ecx

; 467  : 		{	// Accelerate the comparison by not going through the aux object

	push	ebp
	mov	ebp, esp
	push	ecx
	mov	DWORD PTR _this$[ebp], ecx

; 468  : 		return _Myaux != 0;

	mov	eax, DWORD PTR _this$[ebp]
	xor	ecx, ecx
	cmp	DWORD PTR [eax], 0
	setne	cl
	mov	al, cl

; 469  : 		}

	mov	esp, ebp
	pop	ebp
	ret	0
?_Has_container@_Iterator_base_aux@std@@QBE_NXZ ENDP	; std::_Iterator_base_aux::_Has_container
; Function compile flags: /Odtp
; File d:\program files (x86)\microsoft visual studio 9.0\vc\include\vector
_TEXT	ENDS
;	COMDAT ??8?$_Vector_const_iterator@PAVSurfaceData@Ogre@@V?$allocator@PAVSurfaceData@Ogre@@@std@@@std@@QBE_NABV01@@Z
_TEXT	SEGMENT
_this$ = -4						; size = 4
__Right$ = 8						; size = 4
??8?$_Vector_const_iterator@PAVSurfaceData@Ogre@@V?$allocator@PAVSurfaceData@Ogre@@@std@@@std@@QBE_NABV01@@Z PROC ; std::_Vector_const_iterator<Ogre::SurfaceData *,std::allocator<Ogre::SurfaceData *> >::operator==, COMDAT
; _this$ = ecx

; 203  : 		{	// test for iterator equality

	push	ebp
	mov	ebp, esp
	push	ecx
	mov	DWORD PTR _this$[ebp], ecx

; 204  : 
; 205  :  #if _HAS_ITERATOR_DEBUGGING
; 206  : 		_Compat(_Right);
; 207  :  #else
; 208  : 		_SCL_SECURE_VALIDATE(this->_Has_container() && this->_Same_container(_Right));

	mov	ecx, DWORD PTR _this$[ebp]
	call	?_Has_container@_Iterator_base_aux@std@@QBE_NXZ ; std::_Iterator_base_aux::_Has_container
	movzx	eax, al
	test	eax, eax
	je	SHORT $LN1@operator@7
	mov	ecx, DWORD PTR __Right$[ebp]
	push	ecx
	mov	ecx, DWORD PTR _this$[ebp]
	call	?_Same_container@_Iterator_base_aux@std@@QBE_NABV12@@Z ; std::_Iterator_base_aux::_Same_container
	movzx	edx, al
	test	edx, edx
	jne	SHORT $LN2@operator@7
$LN1@operator@7:
	call	DWORD PTR __imp___invalid_parameter_noinfo
$LN2@operator@7:

; 209  :  #endif /* _HAS_ITERATOR_DEBUGGING */
; 210  : 
; 211  : 		return (_Myptr == _Right._Myptr);

	mov	eax, DWORD PTR _this$[ebp]
	mov	ecx, DWORD PTR __Right$[ebp]
	mov	edx, DWORD PTR [eax+4]
	xor	eax, eax
	cmp	edx, DWORD PTR [ecx+4]
	sete	al

; 212  : 		}

	mov	esp, ebp
	pop	ebp
	ret	4
??8?$_Vector_const_iterator@PAVSurfaceData@Ogre@@V?$allocator@PAVSurfaceData@Ogre@@@std@@@std@@QBE_NABV01@@Z ENDP ; std::_Vector_const_iterator<Ogre::SurfaceData *,std::allocator<Ogre::SurfaceData *> >::operator==
; Function compile flags: /Odtp
_TEXT	ENDS
;	COMDAT ??8?$_Vector_const_iterator@VVector3@Ogre@@V?$allocator@VVector3@Ogre@@@std@@@std@@QBE_NABV01@@Z
_TEXT	SEGMENT
_this$ = -4						; size = 4
__Right$ = 8						; size = 4
??8?$_Vector_const_iterator@VVector3@Ogre@@V?$allocator@VVector3@Ogre@@@std@@@std@@QBE_NABV01@@Z PROC ; std::_Vector_const_iterator<Ogre::Vector3,std::allocator<Ogre::Vector3> >::operator==, COMDAT
; _this$ = ecx

; 203  : 		{	// test for iterator equality

	push	ebp
	mov	ebp, esp
	push	ecx
	mov	DWORD PTR _this$[ebp], ecx

; 204  : 
; 205  :  #if _HAS_ITERATOR_DEBUGGING
; 206  : 		_Compat(_Right);
; 207  :  #else
; 208  : 		_SCL_SECURE_VALIDATE(this->_Has_container() && this->_Same_container(_Right));

	mov	ecx, DWORD PTR _this$[ebp]
	call	?_Has_container@_Iterator_base_aux@std@@QBE_NXZ ; std::_Iterator_base_aux::_Has_container
	movzx	eax, al
	test	eax, eax
	je	SHORT $LN1@operator@8
	mov	ecx, DWORD PTR __Right$[ebp]
	push	ecx
	mov	ecx, DWORD PTR _this$[ebp]
	call	?_Same_container@_Iterator_base_aux@std@@QBE_NABV12@@Z ; std::_Iterator_base_aux::_Same_container
	movzx	edx, al
	test	edx, edx
	jne	SHORT $LN2@operator@8
$LN1@operator@8:
	call	DWORD PTR __imp___invalid_parameter_noinfo
$LN2@operator@8:

; 209  :  #endif /* _HAS_ITERATOR_DEBUGGING */
; 210  : 
; 211  : 		return (_Myptr == _Right._Myptr);

	mov	eax, DWORD PTR _this$[ebp]
	mov	ecx, DWORD PTR __Right$[ebp]
	mov	edx, DWORD PTR [eax+4]
	xor	eax, eax
	cmp	edx, DWORD PTR [ecx+4]
	sete	al

; 212  : 		}

	mov	esp, ebp
	pop	ebp
	ret	4
??8?$_Vector_const_iterator@VVector3@Ogre@@V?$allocator@VVector3@Ogre@@@std@@@std@@QBE_NABV01@@Z ENDP ; std::_Vector_const_iterator<Ogre::Vector3,std::allocator<Ogre::Vector3> >::operator==
_TEXT	ENDS
PUBLIC	??A?$vector@VVector3@Ogre@@V?$allocator@VVector3@Ogre@@@std@@@std@@QAEAAVVector3@Ogre@@I@Z ; std::vector<Ogre::Vector3,std::allocator<Ogre::Vector3> >::operator[]
PUBLIC	?resize@?$vector@VVector3@Ogre@@V?$allocator@VVector3@Ogre@@@std@@@std@@QAEXI@Z ; std::vector<Ogre::Vector3,std::allocator<Ogre::Vector3> >::resize
; Function compile flags: /Odtp
; File i:\svnroot\client\ogremain\ogrearchive.h
;	COMDAT ??$serializeRawArray@VVector3@Ogre@@@Archive@Ogre@@QAEAAV01@AAV?$vector@VVector3@Ogre@@V?$allocator@VVector3@Ogre@@@std@@@std@@@Z
_TEXT	SEGMENT
_this$ = -8						; size = 4
_num$ = -4						; size = 4
_array$ = 8						; size = 4
??$serializeRawArray@VVector3@Ogre@@@Archive@Ogre@@QAEAAV01@AAV?$vector@VVector3@Ogre@@V?$allocator@VVector3@Ogre@@@std@@@std@@@Z PROC ; Ogre::Archive::serializeRawArray<Ogre::Vector3>, COMDAT
; _this$ = ecx

; 121  : 		{

	push	ebp
	mov	ebp, esp
	sub	esp, 8
	mov	DWORD PTR _this$[ebp], ecx

; 122  : 			uint num;
; 123  : 			if(isLoading())

	mov	ecx, DWORD PTR _this$[ebp]
	call	?isLoading@Archive@Ogre@@QAE_NXZ	; Ogre::Archive::isLoading
	movzx	eax, al
	test	eax, eax
	je	SHORT $LN4@serializeR

; 124  : 			{
; 125  : 				read(&num, sizeof(num));

	push	4
	lea	ecx, DWORD PTR _num$[ebp]
	push	ecx
	mov	ecx, DWORD PTR _this$[ebp]
	call	?read@Archive@Ogre@@QAEXPAXI@Z		; Ogre::Archive::read

; 126  : 				array.resize(num);

	mov	edx, DWORD PTR _num$[ebp]
	push	edx
	mov	ecx, DWORD PTR _array$[ebp]
	call	?resize@?$vector@VVector3@Ogre@@V?$allocator@VVector3@Ogre@@@std@@@std@@QAEXI@Z ; std::vector<Ogre::Vector3,std::allocator<Ogre::Vector3> >::resize

; 127  : 				if(num > 0) read(&array[0], num*sizeof(T));

	cmp	DWORD PTR _num$[ebp], 0
	jbe	SHORT $LN3@serializeR
	mov	eax, DWORD PTR _num$[ebp]
	imul	eax, 12					; 0000000cH
	push	eax
	push	0
	mov	ecx, DWORD PTR _array$[ebp]
	call	??A?$vector@VVector3@Ogre@@V?$allocator@VVector3@Ogre@@@std@@@std@@QAEAAVVector3@Ogre@@I@Z ; std::vector<Ogre::Vector3,std::allocator<Ogre::Vector3> >::operator[]
	push	eax
	mov	ecx, DWORD PTR _this$[ebp]
	call	?read@Archive@Ogre@@QAEXPAXI@Z		; Ogre::Archive::read
$LN3@serializeR:

; 128  : 			}
; 129  : 			else

	jmp	SHORT $LN2@serializeR
$LN4@serializeR:

; 130  : 			{
; 131  : 				num = (uint)array.size();

	mov	ecx, DWORD PTR _array$[ebp]
	call	?size@?$vector@VVector3@Ogre@@V?$allocator@VVector3@Ogre@@@std@@@std@@QBEIXZ ; std::vector<Ogre::Vector3,std::allocator<Ogre::Vector3> >::size
	mov	DWORD PTR _num$[ebp], eax

; 132  : 				write(&num, sizeof(num));

	push	4
	lea	ecx, DWORD PTR _num$[ebp]
	push	ecx
	mov	ecx, DWORD PTR _this$[ebp]
	call	?write@Archive@Ogre@@QAEXPBXI@Z		; Ogre::Archive::write

; 133  : 				if(num > 0) write(&array[0], num*sizeof(T));

	cmp	DWORD PTR _num$[ebp], 0
	jbe	SHORT $LN2@serializeR
	mov	edx, DWORD PTR _num$[ebp]
	imul	edx, 12					; 0000000cH
	push	edx
	push	0
	mov	ecx, DWORD PTR _array$[ebp]
	call	??A?$vector@VVector3@Ogre@@V?$allocator@VVector3@Ogre@@@std@@@std@@QAEAAVVector3@Ogre@@I@Z ; std::vector<Ogre::Vector3,std::allocator<Ogre::Vector3> >::operator[]
	push	eax
	mov	ecx, DWORD PTR _this$[ebp]
	call	?write@Archive@Ogre@@QAEXPBXI@Z		; Ogre::Archive::write
$LN2@serializeR:

; 134  : 			}
; 135  : 
; 136  : 			return *this;

	mov	eax, DWORD PTR _this$[ebp]

; 137  : 		}

	mov	esp, ebp
	pop	ebp
	ret	4
??$serializeRawArray@VVector3@Ogre@@@Archive@Ogre@@QAEAAV01@AAV?$vector@VVector3@Ogre@@V?$allocator@VVector3@Ogre@@@std@@@std@@@Z ENDP ; Ogre::Archive::serializeRawArray<Ogre::Vector3>
_TEXT	ENDS
PUBLIC	??$unchecked_uninitialized_copy@V?$_Vector_const_iterator@DV?$allocator@D@std@@@std@@PADV?$allocator@D@2@@stdext@@YAPADV?$_Vector_const_iterator@DV?$allocator@D@std@@@std@@0PADAAV?$allocator@D@2@@Z ; stdext::unchecked_uninitialized_copy<std::_Vector_const_iterator<char,std::allocator<char> >,char *,std::allocator<char> >
; Function compile flags: /Odtp
; File d:\program files (x86)\microsoft visual studio 9.0\vc\include\vector
;	COMDAT ??$_Ucopy@V?$_Vector_const_iterator@DV?$allocator@D@std@@@std@@@?$vector@DV?$allocator@D@std@@@std@@IAEPADV?$_Vector_const_iterator@DV?$allocator@D@std@@@1@0PAD@Z
_TEXT	SEGMENT
_this$ = -4						; size = 4
__First$ = 8						; size = 8
__Last$ = 16						; size = 8
__Ptr$ = 24						; size = 4
??$_Ucopy@V?$_Vector_const_iterator@DV?$allocator@D@std@@@std@@@?$vector@DV?$allocator@D@std@@@std@@IAEPADV?$_Vector_const_iterator@DV?$allocator@D@std@@@1@0PAD@Z PROC ; std::vector<char,std::allocator<char> >::_Ucopy<std::_Vector_const_iterator<char,std::allocator<char> > >, COMDAT
; _this$ = ecx

; 1138 : 		pointer _Ucopy(_Iter _First, _Iter _Last, pointer _Ptr)

	push	ebp
	mov	ebp, esp
	push	ecx
	mov	DWORD PTR _this$[ebp], ecx

; 1139 : 		{	// copy initializing [_First, _Last), using allocator
; 1140 : 		return (_STDEXT unchecked_uninitialized_copy(_First, _Last,
; 1141 : 			_Ptr, this->_Alval));

	mov	eax, DWORD PTR _this$[ebp]
	add	eax, 8
	push	eax
	mov	ecx, DWORD PTR __Ptr$[ebp]
	push	ecx
	mov	edx, DWORD PTR __Last$[ebp+4]
	push	edx
	mov	eax, DWORD PTR __Last$[ebp]
	push	eax
	mov	ecx, DWORD PTR __First$[ebp+4]
	push	ecx
	mov	edx, DWORD PTR __First$[ebp]
	push	edx
	call	??$unchecked_uninitialized_copy@V?$_Vector_const_iterator@DV?$allocator@D@std@@@std@@PADV?$allocator@D@2@@stdext@@YAPADV?$_Vector_const_iterator@DV?$allocator@D@std@@@std@@0PADAAV?$allocator@D@2@@Z ; stdext::unchecked_uninitialized_copy<std::_Vector_const_iterator<char,std::allocator<char> >,char *,std::allocator<char> >
	add	esp, 24					; 00000018H

; 1142 : 		}

	mov	esp, ebp
	pop	ebp
	ret	20					; 00000014H
??$_Ucopy@V?$_Vector_const_iterator@DV?$allocator@D@std@@@std@@@?$vector@DV?$allocator@D@std@@@std@@IAEPADV?$_Vector_const_iterator@DV?$allocator@D@std@@@1@0PAD@Z ENDP ; std::vector<char,std::allocator<char> >::_Ucopy<std::_Vector_const_iterator<char,std::allocator<char> > >
_TEXT	ENDS
PUBLIC	??$_Copy_opt@PADPADUrandom_access_iterator_tag@std@@@std@@YAPADPAD00Urandom_access_iterator_tag@0@U_Scalar_ptr_iterator_tag@0@U_Range_checked_iterator_tag@0@@Z ; std::_Copy_opt<char *,char *,std::random_access_iterator_tag>
PUBLIC	??$_Checked_base@PAD@std@@YAPADAAPAD@Z		; std::_Checked_base<char *>
PUBLIC	??$_Iter_random@PADPAD@std@@YA?AUrandom_access_iterator_tag@0@ABQAD0@Z ; std::_Iter_random<char *,char *>
PUBLIC	??$_Ptr_cat@PADPAD@std@@YA?AU_Scalar_ptr_iterator_tag@0@AAPAD0@Z ; std::_Ptr_cat<char *,char *>
; Function compile flags: /Odtp
; File d:\program files (x86)\microsoft visual studio 9.0\vc\include\xutility
;	COMDAT ??$unchecked_copy@PADPAD@stdext@@YAPADPAD00@Z
_TEXT	SEGMENT
$T68478 = -3						; size = 1
$T68477 = -2						; size = 1
$T68476 = -1						; size = 1
__First$ = 8						; size = 4
__Last$ = 12						; size = 4
__Dest$ = 16						; size = 4
??$unchecked_copy@PADPAD@stdext@@YAPADPAD00@Z PROC	; stdext::unchecked_copy<char *,char *>, COMDAT

; 3604 : 	{	// copy [_First, _Last) to [_Dest, ...)

	push	ebp
	mov	ebp, esp
	push	ecx

; 3605 : 		return (_STD _Copy_opt(_CHECKED_BASE(_First), _CHECKED_BASE(_Last), _Dest,
; 3606 : 			_STD _Iter_random(_First, _Dest), _STD _Ptr_cat(_First, _Dest), _STD _Range_checked_iterator_tag()));

	xor	eax, eax
	mov	BYTE PTR $T68476[ebp], al
	lea	ecx, DWORD PTR __Dest$[ebp]
	push	ecx
	lea	edx, DWORD PTR __First$[ebp]
	push	edx
	call	??$_Ptr_cat@PADPAD@std@@YA?AU_Scalar_ptr_iterator_tag@0@AAPAD0@Z ; std::_Ptr_cat<char *,char *>
	add	esp, 8
	mov	BYTE PTR $T68477[ebp], al
	movzx	eax, BYTE PTR $T68476[ebp]
	push	eax
	movzx	ecx, BYTE PTR $T68477[ebp]
	push	ecx
	lea	edx, DWORD PTR __Dest$[ebp]
	push	edx
	lea	eax, DWORD PTR __First$[ebp]
	push	eax
	lea	ecx, DWORD PTR $T68478[ebp]
	push	ecx
	call	??$_Iter_random@PADPAD@std@@YA?AUrandom_access_iterator_tag@0@ABQAD0@Z ; std::_Iter_random<char *,char *>
	add	esp, 12					; 0000000cH
	movzx	edx, BYTE PTR [eax]
	push	edx
	mov	eax, DWORD PTR __Dest$[ebp]
	push	eax
	lea	ecx, DWORD PTR __Last$[ebp]
	push	ecx
	call	??$_Checked_base@PAD@std@@YAPADAAPAD@Z	; std::_Checked_base<char *>
	add	esp, 4
	push	eax
	lea	edx, DWORD PTR __First$[ebp]
	push	edx
	call	??$_Checked_base@PAD@std@@YAPADAAPAD@Z	; std::_Checked_base<char *>
	add	esp, 4
	push	eax
	call	??$_Copy_opt@PADPADUrandom_access_iterator_tag@std@@@std@@YAPADPAD00Urandom_access_iterator_tag@0@U_Scalar_ptr_iterator_tag@0@U_Range_checked_iterator_tag@0@@Z ; std::_Copy_opt<char *,char *,std::random_access_iterator_tag>
	add	esp, 24					; 00000018H

; 3607 : 	}

	mov	esp, ebp
	pop	ebp
	ret	0
??$unchecked_copy@PADPAD@stdext@@YAPADPAD00@Z ENDP	; stdext::unchecked_copy<char *,char *>
_TEXT	ENDS
PUBLIC	??$unchecked_uninitialized_copy@PADPADV?$allocator@D@std@@@stdext@@YAPADPAD00AAV?$allocator@D@std@@@Z ; stdext::unchecked_uninitialized_copy<char *,char *,std::allocator<char> >
; Function compile flags: /Odtp
; File d:\program files (x86)\microsoft visual studio 9.0\vc\include\vector
;	COMDAT ??$_Ucopy@PAD@?$vector@DV?$allocator@D@std@@@std@@IAEPADPAD00@Z
_TEXT	SEGMENT
_this$ = -4						; size = 4
__First$ = 8						; size = 4
__Last$ = 12						; size = 4
__Ptr$ = 16						; size = 4
??$_Ucopy@PAD@?$vector@DV?$allocator@D@std@@@std@@IAEPADPAD00@Z PROC ; std::vector<char,std::allocator<char> >::_Ucopy<char *>, COMDAT
; _this$ = ecx

; 1138 : 		pointer _Ucopy(_Iter _First, _Iter _Last, pointer _Ptr)

	push	ebp
	mov	ebp, esp
	push	ecx
	mov	DWORD PTR _this$[ebp], ecx

; 1139 : 		{	// copy initializing [_First, _Last), using allocator
; 1140 : 		return (_STDEXT unchecked_uninitialized_copy(_First, _Last,
; 1141 : 			_Ptr, this->_Alval));

	mov	eax, DWORD PTR _this$[ebp]
	add	eax, 8
	push	eax
	mov	ecx, DWORD PTR __Ptr$[ebp]
	push	ecx
	mov	edx, DWORD PTR __Last$[ebp]
	push	edx
	mov	eax, DWORD PTR __First$[ebp]
	push	eax
	call	??$unchecked_uninitialized_copy@PADPADV?$allocator@D@std@@@stdext@@YAPADPAD00AAV?$allocator@D@std@@@Z ; stdext::unchecked_uninitialized_copy<char *,char *,std::allocator<char> >
	add	esp, 16					; 00000010H

; 1142 : 		}

	mov	esp, ebp
	pop	ebp
	ret	12					; 0000000cH
??$_Ucopy@PAD@?$vector@DV?$allocator@D@std@@@std@@IAEPADPAD00@Z ENDP ; std::vector<char,std::allocator<char> >::_Ucopy<char *>
_TEXT	ENDS
PUBLIC	??$unchecked_uninitialized_copy@V?$_Vector_const_iterator@PAVSurfaceData@Ogre@@V?$allocator@PAVSurfaceData@Ogre@@@std@@@std@@PAPAVSurfaceData@Ogre@@V?$allocator@PAVSurfaceData@Ogre@@@2@@stdext@@YAPAPAVSurfaceData@Ogre@@V?$_Vector_const_iterator@PAVSurfaceData@Ogre@@V?$allocator@PAVSurfaceData@Ogre@@@std@@@std@@0PAPAV12@AAV?$allocator@PAVSurfaceData@Ogre@@@4@@Z ; stdext::unchecked_uninitialized_copy<std::_Vector_const_iterator<Ogre::SurfaceData *,std::allocator<Ogre::SurfaceData *> >,Ogre::SurfaceData * *,std::allocator<Ogre::SurfaceData *> >
; Function compile flags: /Odtp
;	COMDAT ??$_Ucopy@V?$_Vector_const_iterator@PAVSurfaceData@Ogre@@V?$allocator@PAVSurfaceData@Ogre@@@std@@@std@@@?$vector@PAVSurfaceData@Ogre@@V?$allocator@PAVSurfaceData@Ogre@@@std@@@std@@IAEPAPAVSurfaceData@Ogre@@V?$_Vector_const_iterator@PAVSurfaceData@Ogre@@V?$allocator@PAVSurfaceData@Ogre@@@std@@@1@0PAPAV23@@Z
_TEXT	SEGMENT
_this$ = -4						; size = 4
__First$ = 8						; size = 8
__Last$ = 16						; size = 8
__Ptr$ = 24						; size = 4
??$_Ucopy@V?$_Vector_const_iterator@PAVSurfaceData@Ogre@@V?$allocator@PAVSurfaceData@Ogre@@@std@@@std@@@?$vector@PAVSurfaceData@Ogre@@V?$allocator@PAVSurfaceData@Ogre@@@std@@@std@@IAEPAPAVSurfaceData@Ogre@@V?$_Vector_const_iterator@PAVSurfaceData@Ogre@@V?$allocator@PAVSurfaceData@Ogre@@@std@@@1@0PAPAV23@@Z PROC ; std::vector<Ogre::SurfaceData *,std::allocator<Ogre::SurfaceData *> >::_Ucopy<std::_Vector_const_iterator<Ogre::SurfaceData *,std::allocator<Ogre::SurfaceData *> > >, COMDAT
; _this$ = ecx

; 1138 : 		pointer _Ucopy(_Iter _First, _Iter _Last, pointer _Ptr)

	push	ebp
	mov	ebp, esp
	push	ecx
	mov	DWORD PTR _this$[ebp], ecx

; 1139 : 		{	// copy initializing [_First, _Last), using allocator
; 1140 : 		return (_STDEXT unchecked_uninitialized_copy(_First, _Last,
; 1141 : 			_Ptr, this->_Alval));

	mov	eax, DWORD PTR _this$[ebp]
	add	eax, 8
	push	eax
	mov	ecx, DWORD PTR __Ptr$[ebp]
	push	ecx
	mov	edx, DWORD PTR __Last$[ebp+4]
	push	edx
	mov	eax, DWORD PTR __Last$[ebp]
	push	eax
	mov	ecx, DWORD PTR __First$[ebp+4]
	push	ecx
	mov	edx, DWORD PTR __First$[ebp]
	push	edx
	call	??$unchecked_uninitialized_copy@V?$_Vector_const_iterator@PAVSurfaceData@Ogre@@V?$allocator@PAVSurfaceData@Ogre@@@std@@@std@@PAPAVSurfaceData@Ogre@@V?$allocator@PAVSurfaceData@Ogre@@@2@@stdext@@YAPAPAVSurfaceData@Ogre@@V?$_Vector_const_iterator@PAVSurfaceData@Ogre@@V?$allocator@PAVSurfaceData@Ogre@@@std@@@std@@0PAPAV12@AAV?$allocator@PAVSurfaceData@Ogre@@@4@@Z ; stdext::unchecked_uninitialized_copy<std::_Vector_const_iterator<Ogre::SurfaceData *,std::allocator<Ogre::SurfaceData *> >,Ogre::SurfaceData * *,std::allocator<Ogre::SurfaceData *> >
	add	esp, 24					; 00000018H

; 1142 : 		}

	mov	esp, ebp
	pop	ebp
	ret	20					; 00000014H
??$_Ucopy@V?$_Vector_const_iterator@PAVSurfaceData@Ogre@@V?$allocator@PAVSurfaceData@Ogre@@@std@@@std@@@?$vector@PAVSurfaceData@Ogre@@V?$allocator@PAVSurfaceData@Ogre@@@std@@@std@@IAEPAPAVSurfaceData@Ogre@@V?$_Vector_const_iterator@PAVSurfaceData@Ogre@@V?$allocator@PAVSurfaceData@Ogre@@@std@@@1@0PAPAV23@@Z ENDP ; std::vector<Ogre::SurfaceData *,std::allocator<Ogre::SurfaceData *> >::_Ucopy<std::_Vector_const_iterator<Ogre::SurfaceData *,std::allocator<Ogre::SurfaceData *> > >
_TEXT	ENDS
PUBLIC	??$_Copy_opt@PAPAVSurfaceData@Ogre@@PAPAV12@Urandom_access_iterator_tag@std@@@std@@YAPAPAVSurfaceData@Ogre@@PAPAV12@00Urandom_access_iterator_tag@0@U_Scalar_ptr_iterator_tag@0@U_Range_checked_iterator_tag@0@@Z ; std::_Copy_opt<Ogre::SurfaceData * *,Ogre::SurfaceData * *,std::random_access_iterator_tag>
PUBLIC	??$_Checked_base@PAPAVSurfaceData@Ogre@@@std@@YAPAPAVSurfaceData@Ogre@@AAPAPAV12@@Z ; std::_Checked_base<Ogre::SurfaceData * *>
PUBLIC	??$_Iter_random@PAPAVSurfaceData@Ogre@@PAPAV12@@std@@YA?AUrandom_access_iterator_tag@0@ABQAPAVSurfaceData@Ogre@@0@Z ; std::_Iter_random<Ogre::SurfaceData * *,Ogre::SurfaceData * *>
PUBLIC	??$_Ptr_cat@PAPAVSurfaceData@Ogre@@PAPAV12@@std@@YA?AU_Scalar_ptr_iterator_tag@0@AAPAPAVSurfaceData@Ogre@@0@Z ; std::_Ptr_cat<Ogre::SurfaceData * *,Ogre::SurfaceData * *>
; Function compile flags: /Odtp
; File d:\program files (x86)\microsoft visual studio 9.0\vc\include\xutility
;	COMDAT ??$unchecked_copy@PAPAVSurfaceData@Ogre@@PAPAV12@@stdext@@YAPAPAVSurfaceData@Ogre@@PAPAV12@00@Z
_TEXT	SEGMENT
$T68487 = -3						; size = 1
$T68486 = -2						; size = 1
$T68485 = -1						; size = 1
__First$ = 8						; size = 4
__Last$ = 12						; size = 4
__Dest$ = 16						; size = 4
??$unchecked_copy@PAPAVSurfaceData@Ogre@@PAPAV12@@stdext@@YAPAPAVSurfaceData@Ogre@@PAPAV12@00@Z PROC ; stdext::unchecked_copy<Ogre::SurfaceData * *,Ogre::SurfaceData * *>, COMDAT

; 3604 : 	{	// copy [_First, _Last) to [_Dest, ...)

	push	ebp
	mov	ebp, esp
	push	ecx

; 3605 : 		return (_STD _Copy_opt(_CHECKED_BASE(_First), _CHECKED_BASE(_Last), _Dest,
; 3606 : 			_STD _Iter_random(_First, _Dest), _STD _Ptr_cat(_First, _Dest), _STD _Range_checked_iterator_tag()));

	xor	eax, eax
	mov	BYTE PTR $T68485[ebp], al
	lea	ecx, DWORD PTR __Dest$[ebp]
	push	ecx
	lea	edx, DWORD PTR __First$[ebp]
	push	edx
	call	??$_Ptr_cat@PAPAVSurfaceData@Ogre@@PAPAV12@@std@@YA?AU_Scalar_ptr_iterator_tag@0@AAPAPAVSurfaceData@Ogre@@0@Z ; std::_Ptr_cat<Ogre::SurfaceData * *,Ogre::SurfaceData * *>
	add	esp, 8
	mov	BYTE PTR $T68486[ebp], al
	movzx	eax, BYTE PTR $T68485[ebp]
	push	eax
	movzx	ecx, BYTE PTR $T68486[ebp]
	push	ecx
	lea	edx, DWORD PTR __Dest$[ebp]
	push	edx
	lea	eax, DWORD PTR __First$[ebp]
	push	eax
	lea	ecx, DWORD PTR $T68487[ebp]
	push	ecx
	call	??$_Iter_random@PAPAVSurfaceData@Ogre@@PAPAV12@@std@@YA?AUrandom_access_iterator_tag@0@ABQAPAVSurfaceData@Ogre@@0@Z ; std::_Iter_random<Ogre::SurfaceData * *,Ogre::SurfaceData * *>
	add	esp, 12					; 0000000cH
	movzx	edx, BYTE PTR [eax]
	push	edx
	mov	eax, DWORD PTR __Dest$[ebp]
	push	eax
	lea	ecx, DWORD PTR __Last$[ebp]
	push	ecx
	call	??$_Checked_base@PAPAVSurfaceData@Ogre@@@std@@YAPAPAVSurfaceData@Ogre@@AAPAPAV12@@Z ; std::_Checked_base<Ogre::SurfaceData * *>
	add	esp, 4
	push	eax
	lea	edx, DWORD PTR __First$[ebp]
	push	edx
	call	??$_Checked_base@PAPAVSurfaceData@Ogre@@@std@@YAPAPAVSurfaceData@Ogre@@AAPAPAV12@@Z ; std::_Checked_base<Ogre::SurfaceData * *>
	add	esp, 4
	push	eax
	call	??$_Copy_opt@PAPAVSurfaceData@Ogre@@PAPAV12@Urandom_access_iterator_tag@std@@@std@@YAPAPAVSurfaceData@Ogre@@PAPAV12@00Urandom_access_iterator_tag@0@U_Scalar_ptr_iterator_tag@0@U_Range_checked_iterator_tag@0@@Z ; std::_Copy_opt<Ogre::SurfaceData * *,Ogre::SurfaceData * *,std::random_access_iterator_tag>
	add	esp, 24					; 00000018H

; 3607 : 	}

	mov	esp, ebp
	pop	ebp
	ret	0
??$unchecked_copy@PAPAVSurfaceData@Ogre@@PAPAV12@@stdext@@YAPAPAVSurfaceData@Ogre@@PAPAV12@00@Z ENDP ; stdext::unchecked_copy<Ogre::SurfaceData * *,Ogre::SurfaceData * *>
_TEXT	ENDS
PUBLIC	??$unchecked_uninitialized_copy@PAPAVSurfaceData@Ogre@@PAPAV12@V?$allocator@PAVSurfaceData@Ogre@@@std@@@stdext@@YAPAPAVSurfaceData@Ogre@@PAPAV12@00AAV?$allocator@PAVSurfaceData@Ogre@@@std@@@Z ; stdext::unchecked_uninitialized_copy<Ogre::SurfaceData * *,Ogre::SurfaceData * *,std::allocator<Ogre::SurfaceData *> >
; Function compile flags: /Odtp
; File d:\program files (x86)\microsoft visual studio 9.0\vc\include\vector
;	COMDAT ??$_Ucopy@PAPAVSurfaceData@Ogre@@@?$vector@PAVSurfaceData@Ogre@@V?$allocator@PAVSurfaceData@Ogre@@@std@@@std@@IAEPAPAVSurfaceData@Ogre@@PAPAV23@00@Z
_TEXT	SEGMENT
_this$ = -4						; size = 4
__First$ = 8						; size = 4
__Last$ = 12						; size = 4
__Ptr$ = 16						; size = 4
??$_Ucopy@PAPAVSurfaceData@Ogre@@@?$vector@PAVSurfaceData@Ogre@@V?$allocator@PAVSurfaceData@Ogre@@@std@@@std@@IAEPAPAVSurfaceData@Ogre@@PAPAV23@00@Z PROC ; std::vector<Ogre::SurfaceData *,std::allocator<Ogre::SurfaceData *> >::_Ucopy<Ogre::SurfaceData * *>, COMDAT
; _this$ = ecx

; 1138 : 		pointer _Ucopy(_Iter _First, _Iter _Last, pointer _Ptr)

	push	ebp
	mov	ebp, esp
	push	ecx
	mov	DWORD PTR _this$[ebp], ecx

; 1139 : 		{	// copy initializing [_First, _Last), using allocator
; 1140 : 		return (_STDEXT unchecked_uninitialized_copy(_First, _Last,
; 1141 : 			_Ptr, this->_Alval));

	mov	eax, DWORD PTR _this$[ebp]
	add	eax, 8
	push	eax
	mov	ecx, DWORD PTR __Ptr$[ebp]
	push	ecx
	mov	edx, DWORD PTR __Last$[ebp]
	push	edx
	mov	eax, DWORD PTR __First$[ebp]
	push	eax
	call	??$unchecked_uninitialized_copy@PAPAVSurfaceData@Ogre@@PAPAV12@V?$allocator@PAVSurfaceData@Ogre@@@std@@@stdext@@YAPAPAVSurfaceData@Ogre@@PAPAV12@00AAV?$allocator@PAVSurfaceData@Ogre@@@std@@@Z ; stdext::unchecked_uninitialized_copy<Ogre::SurfaceData * *,Ogre::SurfaceData * *,std::allocator<Ogre::SurfaceData *> >
	add	esp, 16					; 00000010H

; 1142 : 		}

	mov	esp, ebp
	pop	ebp
	ret	12					; 0000000cH
??$_Ucopy@PAPAVSurfaceData@Ogre@@@?$vector@PAVSurfaceData@Ogre@@V?$allocator@PAVSurfaceData@Ogre@@@std@@@std@@IAEPAPAVSurfaceData@Ogre@@PAPAV23@00@Z ENDP ; std::vector<Ogre::SurfaceData *,std::allocator<Ogre::SurfaceData *> >::_Ucopy<Ogre::SurfaceData * *>
_TEXT	ENDS
PUBLIC	??$unchecked_uninitialized_copy@V?$_Vector_const_iterator@VVector3@Ogre@@V?$allocator@VVector3@Ogre@@@std@@@std@@PAVVector3@Ogre@@V?$allocator@VVector3@Ogre@@@2@@stdext@@YAPAVVector3@Ogre@@V?$_Vector_const_iterator@VVector3@Ogre@@V?$allocator@VVector3@Ogre@@@std@@@std@@0PAV12@AAV?$allocator@VVector3@Ogre@@@4@@Z ; stdext::unchecked_uninitialized_copy<std::_Vector_const_iterator<Ogre::Vector3,std::allocator<Ogre::Vector3> >,Ogre::Vector3 *,std::allocator<Ogre::Vector3> >
; Function compile flags: /Odtp
;	COMDAT ??$_Ucopy@V?$_Vector_const_iterator@VVector3@Ogre@@V?$allocator@VVector3@Ogre@@@std@@@std@@@?$vector@VVector3@Ogre@@V?$allocator@VVector3@Ogre@@@std@@@std@@IAEPAVVector3@Ogre@@V?$_Vector_const_iterator@VVector3@Ogre@@V?$allocator@VVector3@Ogre@@@std@@@1@0PAV23@@Z
_TEXT	SEGMENT
_this$ = -4						; size = 4
__First$ = 8						; size = 8
__Last$ = 16						; size = 8
__Ptr$ = 24						; size = 4
??$_Ucopy@V?$_Vector_const_iterator@VVector3@Ogre@@V?$allocator@VVector3@Ogre@@@std@@@std@@@?$vector@VVector3@Ogre@@V?$allocator@VVector3@Ogre@@@std@@@std@@IAEPAVVector3@Ogre@@V?$_Vector_const_iterator@VVector3@Ogre@@V?$allocator@VVector3@Ogre@@@std@@@1@0PAV23@@Z PROC ; std::vector<Ogre::Vector3,std::allocator<Ogre::Vector3> >::_Ucopy<std::_Vector_const_iterator<Ogre::Vector3,std::allocator<Ogre::Vector3> > >, COMDAT
; _this$ = ecx

; 1138 : 		pointer _Ucopy(_Iter _First, _Iter _Last, pointer _Ptr)

	push	ebp
	mov	ebp, esp
	push	ecx
	mov	DWORD PTR _this$[ebp], ecx

; 1139 : 		{	// copy initializing [_First, _Last), using allocator
; 1140 : 		return (_STDEXT unchecked_uninitialized_copy(_First, _Last,
; 1141 : 			_Ptr, this->_Alval));

	mov	eax, DWORD PTR _this$[ebp]
	add	eax, 8
	push	eax
	mov	ecx, DWORD PTR __Ptr$[ebp]
	push	ecx
	mov	edx, DWORD PTR __Last$[ebp+4]
	push	edx
	mov	eax, DWORD PTR __Last$[ebp]
	push	eax
	mov	ecx, DWORD PTR __First$[ebp+4]
	push	ecx
	mov	edx, DWORD PTR __First$[ebp]
	push	edx
	call	??$unchecked_uninitialized_copy@V?$_Vector_const_iterator@VVector3@Ogre@@V?$allocator@VVector3@Ogre@@@std@@@std@@PAVVector3@Ogre@@V?$allocator@VVector3@Ogre@@@2@@stdext@@YAPAVVector3@Ogre@@V?$_Vector_const_iterator@VVector3@Ogre@@V?$allocator@VVector3@Ogre@@@std@@@std@@0PAV12@AAV?$allocator@VVector3@Ogre@@@4@@Z ; stdext::unchecked_uninitialized_copy<std::_Vector_const_iterator<Ogre::Vector3,std::allocator<Ogre::Vector3> >,Ogre::Vector3 *,std::allocator<Ogre::Vector3> >
	add	esp, 24					; 00000018H

; 1142 : 		}

	mov	esp, ebp
	pop	ebp
	ret	20					; 00000014H
??$_Ucopy@V?$_Vector_const_iterator@VVector3@Ogre@@V?$allocator@VVector3@Ogre@@@std@@@std@@@?$vector@VVector3@Ogre@@V?$allocator@VVector3@Ogre@@@std@@@std@@IAEPAVVector3@Ogre@@V?$_Vector_const_iterator@VVector3@Ogre@@V?$allocator@VVector3@Ogre@@@std@@@1@0PAV23@@Z ENDP ; std::vector<Ogre::Vector3,std::allocator<Ogre::Vector3> >::_Ucopy<std::_Vector_const_iterator<Ogre::Vector3,std::allocator<Ogre::Vector3> > >
_TEXT	ENDS
PUBLIC	??$_Copy_opt@PAVVector3@Ogre@@PAV12@@std@@YAPAVVector3@Ogre@@PAV12@00Urandom_access_iterator_tag@0@U_Nonscalar_ptr_iterator_tag@0@U_Range_checked_iterator_tag@0@@Z ; std::_Copy_opt<Ogre::Vector3 *,Ogre::Vector3 *>
PUBLIC	??$_Checked_base@PAVVector3@Ogre@@@std@@YAPAVVector3@Ogre@@AAPAV12@@Z ; std::_Checked_base<Ogre::Vector3 *>
PUBLIC	??$_Iter_random@PAVVector3@Ogre@@PAV12@@std@@YA?AUrandom_access_iterator_tag@0@ABQAVVector3@Ogre@@0@Z ; std::_Iter_random<Ogre::Vector3 *,Ogre::Vector3 *>
PUBLIC	??$_Ptr_cat@PAVVector3@Ogre@@PAV12@@std@@YA?AU_Nonscalar_ptr_iterator_tag@0@AAPAVVector3@Ogre@@0@Z ; std::_Ptr_cat<Ogre::Vector3 *,Ogre::Vector3 *>
; Function compile flags: /Odtp
; File d:\program files (x86)\microsoft visual studio 9.0\vc\include\xutility
;	COMDAT ??$unchecked_copy@PAVVector3@Ogre@@PAV12@@stdext@@YAPAVVector3@Ogre@@PAV12@00@Z
_TEXT	SEGMENT
$T68496 = -3						; size = 1
$T68495 = -2						; size = 1
$T68494 = -1						; size = 1
__First$ = 8						; size = 4
__Last$ = 12						; size = 4
__Dest$ = 16						; size = 4
??$unchecked_copy@PAVVector3@Ogre@@PAV12@@stdext@@YAPAVVector3@Ogre@@PAV12@00@Z PROC ; stdext::unchecked_copy<Ogre::Vector3 *,Ogre::Vector3 *>, COMDAT

; 3604 : 	{	// copy [_First, _Last) to [_Dest, ...)

	push	ebp
	mov	ebp, esp
	push	ecx

; 3605 : 		return (_STD _Copy_opt(_CHECKED_BASE(_First), _CHECKED_BASE(_Last), _Dest,
; 3606 : 			_STD _Iter_random(_First, _Dest), _STD _Ptr_cat(_First, _Dest), _STD _Range_checked_iterator_tag()));

	xor	eax, eax
	mov	BYTE PTR $T68494[ebp], al
	lea	ecx, DWORD PTR __Dest$[ebp]
	push	ecx
	lea	edx, DWORD PTR __First$[ebp]
	push	edx
	call	??$_Ptr_cat@PAVVector3@Ogre@@PAV12@@std@@YA?AU_Nonscalar_ptr_iterator_tag@0@AAPAVVector3@Ogre@@0@Z ; std::_Ptr_cat<Ogre::Vector3 *,Ogre::Vector3 *>
	add	esp, 8
	mov	BYTE PTR $T68495[ebp], al
	movzx	eax, BYTE PTR $T68494[ebp]
	push	eax
	movzx	ecx, BYTE PTR $T68495[ebp]
	push	ecx
	lea	edx, DWORD PTR __Dest$[ebp]
	push	edx
	lea	eax, DWORD PTR __First$[ebp]
	push	eax
	lea	ecx, DWORD PTR $T68496[ebp]
	push	ecx
	call	??$_Iter_random@PAVVector3@Ogre@@PAV12@@std@@YA?AUrandom_access_iterator_tag@0@ABQAVVector3@Ogre@@0@Z ; std::_Iter_random<Ogre::Vector3 *,Ogre::Vector3 *>
	add	esp, 12					; 0000000cH
	movzx	edx, BYTE PTR [eax]
	push	edx
	mov	eax, DWORD PTR __Dest$[ebp]
	push	eax
	lea	ecx, DWORD PTR __Last$[ebp]
	push	ecx
	call	??$_Checked_base@PAVVector3@Ogre@@@std@@YAPAVVector3@Ogre@@AAPAV12@@Z ; std::_Checked_base<Ogre::Vector3 *>
	add	esp, 4
	push	eax
	lea	edx, DWORD PTR __First$[ebp]
	push	edx
	call	??$_Checked_base@PAVVector3@Ogre@@@std@@YAPAVVector3@Ogre@@AAPAV12@@Z ; std::_Checked_base<Ogre::Vector3 *>
	add	esp, 4
	push	eax
	call	??$_Copy_opt@PAVVector3@Ogre@@PAV12@@std@@YAPAVVector3@Ogre@@PAV12@00Urandom_access_iterator_tag@0@U_Nonscalar_ptr_iterator_tag@0@U_Range_checked_iterator_tag@0@@Z ; std::_Copy_opt<Ogre::Vector3 *,Ogre::Vector3 *>
	add	esp, 24					; 00000018H

; 3607 : 	}

	mov	esp, ebp
	pop	ebp
	ret	0
??$unchecked_copy@PAVVector3@Ogre@@PAV12@@stdext@@YAPAVVector3@Ogre@@PAV12@00@Z ENDP ; stdext::unchecked_copy<Ogre::Vector3 *,Ogre::Vector3 *>
_TEXT	ENDS
PUBLIC	??$unchecked_uninitialized_copy@PAVVector3@Ogre@@PAV12@V?$allocator@VVector3@Ogre@@@std@@@stdext@@YAPAVVector3@Ogre@@PAV12@00AAV?$allocator@VVector3@Ogre@@@std@@@Z ; stdext::unchecked_uninitialized_copy<Ogre::Vector3 *,Ogre::Vector3 *,std::allocator<Ogre::Vector3> >
; Function compile flags: /Odtp
; File d:\program files (x86)\microsoft visual studio 9.0\vc\include\vector
;	COMDAT ??$_Ucopy@PAVVector3@Ogre@@@?$vector@VVector3@Ogre@@V?$allocator@VVector3@Ogre@@@std@@@std@@IAEPAVVector3@Ogre@@PAV23@00@Z
_TEXT	SEGMENT
_this$ = -4						; size = 4
__First$ = 8						; size = 4
__Last$ = 12						; size = 4
__Ptr$ = 16						; size = 4
??$_Ucopy@PAVVector3@Ogre@@@?$vector@VVector3@Ogre@@V?$allocator@VVector3@Ogre@@@std@@@std@@IAEPAVVector3@Ogre@@PAV23@00@Z PROC ; std::vector<Ogre::Vector3,std::allocator<Ogre::Vector3> >::_Ucopy<Ogre::Vector3 *>, COMDAT
; _this$ = ecx

; 1138 : 		pointer _Ucopy(_Iter _First, _Iter _Last, pointer _Ptr)

	push	ebp
	mov	ebp, esp
	push	ecx
	mov	DWORD PTR _this$[ebp], ecx

; 1139 : 		{	// copy initializing [_First, _Last), using allocator
; 1140 : 		return (_STDEXT unchecked_uninitialized_copy(_First, _Last,
; 1141 : 			_Ptr, this->_Alval));

	mov	eax, DWORD PTR _this$[ebp]
	add	eax, 8
	push	eax
	mov	ecx, DWORD PTR __Ptr$[ebp]
	push	ecx
	mov	edx, DWORD PTR __Last$[ebp]
	push	edx
	mov	eax, DWORD PTR __First$[ebp]
	push	eax
	call	??$unchecked_uninitialized_copy@PAVVector3@Ogre@@PAV12@V?$allocator@VVector3@Ogre@@@std@@@stdext@@YAPAVVector3@Ogre@@PAV12@00AAV?$allocator@VVector3@Ogre@@@std@@@Z ; stdext::unchecked_uninitialized_copy<Ogre::Vector3 *,Ogre::Vector3 *,std::allocator<Ogre::Vector3> >
	add	esp, 16					; 00000010H

; 1142 : 		}

	mov	esp, ebp
	pop	ebp
	ret	12					; 0000000cH
??$_Ucopy@PAVVector3@Ogre@@@?$vector@VVector3@Ogre@@V?$allocator@VVector3@Ogre@@@std@@@std@@IAEPAVVector3@Ogre@@PAV23@00@Z ENDP ; std::vector<Ogre::Vector3,std::allocator<Ogre::Vector3> >::_Ucopy<Ogre::Vector3 *>
_TEXT	ENDS
PUBLIC	??$_Destroy_range@V?$allocator@D@std@@@std@@YAXPAD0AAV?$allocator@D@0@U_Scalar_ptr_iterator_tag@0@@Z ; std::_Destroy_range<std::allocator<char> >
; Function compile flags: /Odtp
; File d:\program files (x86)\microsoft visual studio 9.0\vc\include\xmemory
;	COMDAT ??$_Destroy_range@V?$allocator@D@std@@@std@@YAXPAD0AAV?$allocator@D@0@@Z
_TEXT	SEGMENT
$T68501 = -1						; size = 1
__First$ = 8						; size = 4
__Last$ = 12						; size = 4
__Al$ = 16						; size = 4
??$_Destroy_range@V?$allocator@D@std@@@std@@YAXPAD0AAV?$allocator@D@0@@Z PROC ; std::_Destroy_range<std::allocator<char> >, COMDAT

; 224  : 	{	// destroy [_First, _Last)

	push	ebp
	mov	ebp, esp
	push	ecx

; 225  : 	_Destroy_range(_First, _Last, _Al, _Ptr_cat(_First, _Last));

	lea	eax, DWORD PTR __Last$[ebp]
	push	eax
	lea	ecx, DWORD PTR __First$[ebp]
	push	ecx
	call	??$_Ptr_cat@PADPAD@std@@YA?AU_Scalar_ptr_iterator_tag@0@AAPAD0@Z ; std::_Ptr_cat<char *,char *>
	add	esp, 8
	mov	BYTE PTR $T68501[ebp], al
	movzx	edx, BYTE PTR $T68501[ebp]
	push	edx
	mov	eax, DWORD PTR __Al$[ebp]
	push	eax
	mov	ecx, DWORD PTR __Last$[ebp]
	push	ecx
	mov	edx, DWORD PTR __First$[ebp]
	push	edx
	call	??$_Destroy_range@V?$allocator@D@std@@@std@@YAXPAD0AAV?$allocator@D@0@U_Scalar_ptr_iterator_tag@0@@Z ; std::_Destroy_range<std::allocator<char> >
	add	esp, 16					; 00000010H

; 226  : 	}

	mov	esp, ebp
	pop	ebp
	ret	0
??$_Destroy_range@V?$allocator@D@std@@@std@@YAXPAD0AAV?$allocator@D@0@@Z ENDP ; std::_Destroy_range<std::allocator<char> >
_TEXT	ENDS
PUBLIC	??$_Destroy_range@V?$allocator@PAVSurfaceData@Ogre@@@std@@@std@@YAXPAPAVSurfaceData@Ogre@@0AAV?$allocator@PAVSurfaceData@Ogre@@@0@U_Scalar_ptr_iterator_tag@0@@Z ; std::_Destroy_range<std::allocator<Ogre::SurfaceData *> >
; Function compile flags: /Odtp
;	COMDAT ??$_Destroy_range@V?$allocator@PAVSurfaceData@Ogre@@@std@@@std@@YAXPAPAVSurfaceData@Ogre@@0AAV?$allocator@PAVSurfaceData@Ogre@@@0@@Z
_TEXT	SEGMENT
$T68504 = -1						; size = 1
__First$ = 8						; size = 4
__Last$ = 12						; size = 4
__Al$ = 16						; size = 4
??$_Destroy_range@V?$allocator@PAVSurfaceData@Ogre@@@std@@@std@@YAXPAPAVSurfaceData@Ogre@@0AAV?$allocator@PAVSurfaceData@Ogre@@@0@@Z PROC ; std::_Destroy_range<std::allocator<Ogre::SurfaceData *> >, COMDAT

; 224  : 	{	// destroy [_First, _Last)

	push	ebp
	mov	ebp, esp
	push	ecx

; 225  : 	_Destroy_range(_First, _Last, _Al, _Ptr_cat(_First, _Last));

	lea	eax, DWORD PTR __Last$[ebp]
	push	eax
	lea	ecx, DWORD PTR __First$[ebp]
	push	ecx
	call	??$_Ptr_cat@PAPAVSurfaceData@Ogre@@PAPAV12@@std@@YA?AU_Scalar_ptr_iterator_tag@0@AAPAPAVSurfaceData@Ogre@@0@Z ; std::_Ptr_cat<Ogre::SurfaceData * *,Ogre::SurfaceData * *>
	add	esp, 8
	mov	BYTE PTR $T68504[ebp], al
	movzx	edx, BYTE PTR $T68504[ebp]
	push	edx
	mov	eax, DWORD PTR __Al$[ebp]
	push	eax
	mov	ecx, DWORD PTR __Last$[ebp]
	push	ecx
	mov	edx, DWORD PTR __First$[ebp]
	push	edx
	call	??$_Destroy_range@V?$allocator@PAVSurfaceData@Ogre@@@std@@@std@@YAXPAPAVSurfaceData@Ogre@@0AAV?$allocator@PAVSurfaceData@Ogre@@@0@U_Scalar_ptr_iterator_tag@0@@Z ; std::_Destroy_range<std::allocator<Ogre::SurfaceData *> >
	add	esp, 16					; 00000010H

; 226  : 	}

	mov	esp, ebp
	pop	ebp
	ret	0
??$_Destroy_range@V?$allocator@PAVSurfaceData@Ogre@@@std@@@std@@YAXPAPAVSurfaceData@Ogre@@0AAV?$allocator@PAVSurfaceData@Ogre@@@0@@Z ENDP ; std::_Destroy_range<std::allocator<Ogre::SurfaceData *> >
_TEXT	ENDS
PUBLIC	??$_Destroy_range@V?$allocator@VVector3@Ogre@@@std@@@std@@YAXPAVVector3@Ogre@@0AAV?$allocator@VVector3@Ogre@@@0@U_Nonscalar_ptr_iterator_tag@0@@Z ; std::_Destroy_range<std::allocator<Ogre::Vector3> >
; Function compile flags: /Odtp
;	COMDAT ??$_Destroy_range@V?$allocator@VVector3@Ogre@@@std@@@std@@YAXPAVVector3@Ogre@@0AAV?$allocator@VVector3@Ogre@@@0@@Z
_TEXT	SEGMENT
$T68507 = -1						; size = 1
__First$ = 8						; size = 4
__Last$ = 12						; size = 4
__Al$ = 16						; size = 4
??$_Destroy_range@V?$allocator@VVector3@Ogre@@@std@@@std@@YAXPAVVector3@Ogre@@0AAV?$allocator@VVector3@Ogre@@@0@@Z PROC ; std::_Destroy_range<std::allocator<Ogre::Vector3> >, COMDAT

; 224  : 	{	// destroy [_First, _Last)

	push	ebp
	mov	ebp, esp
	push	ecx

; 225  : 	_Destroy_range(_First, _Last, _Al, _Ptr_cat(_First, _Last));

	lea	eax, DWORD PTR __Last$[ebp]
	push	eax
	lea	ecx, DWORD PTR __First$[ebp]
	push	ecx
	call	??$_Ptr_cat@PAVVector3@Ogre@@PAV12@@std@@YA?AU_Nonscalar_ptr_iterator_tag@0@AAPAVVector3@Ogre@@0@Z ; std::_Ptr_cat<Ogre::Vector3 *,Ogre::Vector3 *>
	add	esp, 8
	mov	BYTE PTR $T68507[ebp], al
	movzx	edx, BYTE PTR $T68507[ebp]
	push	edx
	mov	eax, DWORD PTR __Al$[ebp]
	push	eax
	mov	ecx, DWORD PTR __Last$[ebp]
	push	ecx
	mov	edx, DWORD PTR __First$[ebp]
	push	edx
	call	??$_Destroy_range@V?$allocator@VVector3@Ogre@@@std@@@std@@YAXPAVVector3@Ogre@@0AAV?$allocator@VVector3@Ogre@@@0@U_Nonscalar_ptr_iterator_tag@0@@Z ; std::_Destroy_range<std::allocator<Ogre::Vector3> >
	add	esp, 16					; 00000010H

; 226  : 	}

	mov	esp, ebp
	pop	ebp
	ret	0
??$_Destroy_range@V?$allocator@VVector3@Ogre@@@std@@@std@@YAXPAVVector3@Ogre@@0AAV?$allocator@VVector3@Ogre@@@0@@Z ENDP ; std::_Destroy_range<std::allocator<Ogre::Vector3> >
; Function compile flags: /Odtp
_TEXT	ENDS
;	COMDAT ??$?0D@?$allocator@V_Aux_cont@std@@@std@@QAE@ABV?$allocator@D@1@@Z
_TEXT	SEGMENT
_this$ = -4						; size = 4
___formal$ = 8						; size = 4
??$?0D@?$allocator@V_Aux_cont@std@@@std@@QAE@ABV?$allocator@D@1@@Z PROC ; std::allocator<std::_Aux_cont>::allocator<std::_Aux_cont><char>, COMDAT
; _this$ = ecx

; 128  : 		allocator(const allocator<_Other>&) _THROW0()

	push	ebp
	mov	ebp, esp
	push	ecx
	mov	DWORD PTR _this$[ebp], ecx

; 129  : 		{	// construct from a related allocator (do nothing)
; 130  : 		}

	mov	eax, DWORD PTR _this$[ebp]
	mov	esp, ebp
	pop	ebp
	ret	4
??$?0D@?$allocator@V_Aux_cont@std@@@std@@QAE@ABV?$allocator@D@1@@Z ENDP ; std::allocator<std::_Aux_cont>::allocator<std::_Aux_cont><char>
; Function compile flags: /Odtp
_TEXT	ENDS
;	COMDAT ??$?0PAVSurfaceData@Ogre@@@?$allocator@V_Aux_cont@std@@@std@@QAE@ABV?$allocator@PAVSurfaceData@Ogre@@@1@@Z
_TEXT	SEGMENT
_this$ = -4						; size = 4
___formal$ = 8						; size = 4
??$?0PAVSurfaceData@Ogre@@@?$allocator@V_Aux_cont@std@@@std@@QAE@ABV?$allocator@PAVSurfaceData@Ogre@@@1@@Z PROC ; std::allocator<std::_Aux_cont>::allocator<std::_Aux_cont><Ogre::SurfaceData *>, COMDAT
; _this$ = ecx

; 128  : 		allocator(const allocator<_Other>&) _THROW0()

	push	ebp
	mov	ebp, esp
	push	ecx
	mov	DWORD PTR _this$[ebp], ecx

; 129  : 		{	// construct from a related allocator (do nothing)
; 130  : 		}

	mov	eax, DWORD PTR _this$[ebp]
	mov	esp, ebp
	pop	ebp
	ret	4
??$?0PAVSurfaceData@Ogre@@@?$allocator@V_Aux_cont@std@@@std@@QAE@ABV?$allocator@PAVSurfaceData@Ogre@@@1@@Z ENDP ; std::allocator<std::_Aux_cont>::allocator<std::_Aux_cont><Ogre::SurfaceData *>
_TEXT	ENDS
PUBLIC	__TI2?AVbad_alloc@std@@
PUBLIC	??0bad_alloc@std@@QAE@PBD@Z			; std::bad_alloc::bad_alloc
PUBLIC	??1bad_alloc@std@@UAE@XZ			; std::bad_alloc::~bad_alloc
PUBLIC	__CTA2?AVbad_alloc@std@@
PUBLIC	__CT??_R0?AVbad_alloc@std@@@8??0bad_alloc@std@@QAE@ABV01@@Z12
PUBLIC	??_R0?AVbad_alloc@std@@@8			; std::bad_alloc `RTTI Type Descriptor'
PUBLIC	??0bad_alloc@std@@QAE@ABV01@@Z			; std::bad_alloc::bad_alloc
EXTRN	??2@YAPAXI@Z:PROC				; operator new
;	COMDAT ??_R0?AVbad_alloc@std@@@8
_DATA	SEGMENT
??_R0?AVbad_alloc@std@@@8 DD FLAT:??_7type_info@@6B@	; std::bad_alloc `RTTI Type Descriptor'
	DD	00H
	DB	'.?AVbad_alloc@std@@', 00H
_DATA	ENDS
;	COMDAT __CT??_R0?AVbad_alloc@std@@@8??0bad_alloc@std@@QAE@ABV01@@Z12
xdata$x	SEGMENT
__CT??_R0?AVbad_alloc@std@@@8??0bad_alloc@std@@QAE@ABV01@@Z12 DD 00H
	DD	FLAT:??_R0?AVbad_alloc@std@@@8
	DD	00H
	DD	0ffffffffH
	ORG $+4
	DD	0cH
	DD	FLAT:??0bad_alloc@std@@QAE@ABV01@@Z
xdata$x	ENDS
;	COMDAT __CTA2?AVbad_alloc@std@@
xdata$x	SEGMENT
__CTA2?AVbad_alloc@std@@ DD 02H
	DD	FLAT:__CT??_R0?AVbad_alloc@std@@@8??0bad_alloc@std@@QAE@ABV01@@Z12
	DD	FLAT:__CT??_R0?AVexception@std@@@8??0exception@std@@QAE@ABV01@@Z12
xdata$x	ENDS
;	COMDAT __TI2?AVbad_alloc@std@@
xdata$x	SEGMENT
__TI2?AVbad_alloc@std@@ DD 00H
	DD	FLAT:??1bad_alloc@std@@UAE@XZ
	DD	00H
	DD	FLAT:__CTA2?AVbad_alloc@std@@
; Function compile flags: /Odtp
xdata$x	ENDS
;	COMDAT ??$_Allocate@PAVSurfaceData@Ogre@@@std@@YAPAPAVSurfaceData@Ogre@@IPAPAV12@@Z
_TEXT	SEGMENT
$T68514 = -12						; size = 12
__Count$ = 8						; size = 4
___formal$ = 12						; size = 4
??$_Allocate@PAVSurfaceData@Ogre@@@std@@YAPAPAVSurfaceData@Ogre@@IPAPAV12@@Z PROC ; std::_Allocate<Ogre::SurfaceData *>, COMDAT

; 36   : 	{	// check for integer overflow

	push	ebp
	mov	ebp, esp
	sub	esp, 12					; 0000000cH

; 37   : 	if (_Count <= 0)

	cmp	DWORD PTR __Count$[ebp], 0
	ja	SHORT $LN3@Allocate

; 38   : 		_Count = 0;

	mov	DWORD PTR __Count$[ebp], 0
	jmp	SHORT $LN2@Allocate
$LN3@Allocate:

; 39   : 	else if (((_SIZT)(-1) / _Count) < sizeof (_Ty))

	or	eax, -1
	xor	edx, edx
	div	DWORD PTR __Count$[ebp]
	cmp	eax, 4
	jae	SHORT $LN2@Allocate

; 40   : 		_THROW_NCEE(std::bad_alloc, NULL);

	push	0
	lea	ecx, DWORD PTR $T68514[ebp]
	call	??0bad_alloc@std@@QAE@PBD@Z		; std::bad_alloc::bad_alloc
	push	OFFSET __TI2?AVbad_alloc@std@@
	lea	eax, DWORD PTR $T68514[ebp]
	push	eax
	call	__CxxThrowException@8
$LN2@Allocate:

; 41   : 
; 42   : 		// allocate storage for _Count elements of type _Ty
; 43   : 	return ((_Ty _FARQ *)::operator new(_Count * sizeof (_Ty)));

	mov	ecx, DWORD PTR __Count$[ebp]
	shl	ecx, 2
	push	ecx
	call	??2@YAPAXI@Z				; operator new
	add	esp, 4
$LN5@Allocate:

; 44   : 	}

	mov	esp, ebp
	pop	ebp
	ret	0
??$_Allocate@PAVSurfaceData@Ogre@@@std@@YAPAPAVSurfaceData@Ogre@@IPAPAV12@@Z ENDP ; std::_Allocate<Ogre::SurfaceData *>
_TEXT	ENDS
PUBLIC	??_7bad_alloc@std@@6B@				; std::bad_alloc::`vftable'
PUBLIC	??_R4bad_alloc@std@@6B@				; std::bad_alloc::`RTTI Complete Object Locator'
PUBLIC	??_R3bad_alloc@std@@8				; std::bad_alloc::`RTTI Class Hierarchy Descriptor'
PUBLIC	??_R2bad_alloc@std@@8				; std::bad_alloc::`RTTI Base Class Array'
PUBLIC	??_R1A@?0A@EA@bad_alloc@std@@8			; std::bad_alloc::`RTTI Base Class Descriptor at (0,-1,0,64)'
EXTRN	__imp_??0exception@std@@QAE@ABQBD@Z:PROC
EXTRN	??_Ebad_alloc@std@@UAEPAXI@Z:PROC		; std::bad_alloc::`vector deleting destructor'
EXTRN	?what@exception@std@@UBEPBDXZ:PROC		; std::exception::what
;	COMDAT ??_R1A@?0A@EA@bad_alloc@std@@8
; File d:\program files (x86)\microsoft visual studio 9.0\vc\include\exception
rdata$r	SEGMENT
??_R1A@?0A@EA@bad_alloc@std@@8 DD FLAT:??_R0?AVbad_alloc@std@@@8 ; std::bad_alloc::`RTTI Base Class Descriptor at (0,-1,0,64)'
	DD	01H
	DD	00H
	DD	0ffffffffH
	DD	00H
	DD	040H
	DD	FLAT:??_R3bad_alloc@std@@8
rdata$r	ENDS
;	COMDAT ??_R2bad_alloc@std@@8
rdata$r	SEGMENT
??_R2bad_alloc@std@@8 DD FLAT:??_R1A@?0A@EA@bad_alloc@std@@8 ; std::bad_alloc::`RTTI Base Class Array'
	DD	FLAT:??_R1A@?0A@EA@exception@std@@8
rdata$r	ENDS
;	COMDAT ??_R3bad_alloc@std@@8
rdata$r	SEGMENT
??_R3bad_alloc@std@@8 DD 00H				; std::bad_alloc::`RTTI Class Hierarchy Descriptor'
	DD	00H
	DD	02H
	DD	FLAT:??_R2bad_alloc@std@@8
rdata$r	ENDS
;	COMDAT ??_R4bad_alloc@std@@6B@
rdata$r	SEGMENT
??_R4bad_alloc@std@@6B@ DD 00H				; std::bad_alloc::`RTTI Complete Object Locator'
	DD	00H
	DD	00H
	DD	FLAT:??_R0?AVbad_alloc@std@@@8
	DD	FLAT:??_R3bad_alloc@std@@8
rdata$r	ENDS
;	COMDAT ??_7bad_alloc@std@@6B@
CONST	SEGMENT
??_7bad_alloc@std@@6B@ DD FLAT:??_R4bad_alloc@std@@6B@	; std::bad_alloc::`vftable'
	DD	FLAT:??_Ebad_alloc@std@@UAEPAXI@Z
	DD	FLAT:?what@exception@std@@UBEPBDXZ
CONST	ENDS
;	COMDAT xdata$x
xdata$x	SEGMENT
__unwindtable$??0bad_alloc@std@@QAE@PBD@Z DD 0ffffffffH
	DD	FLAT:__unwindfunclet$??0bad_alloc@std@@QAE@PBD@Z$0
__ehfuncinfo$??0bad_alloc@std@@QAE@PBD@Z DD 019930522H
	DD	01H
	DD	FLAT:__unwindtable$??0bad_alloc@std@@QAE@PBD@Z
	DD	2 DUP(00H)
	DD	2 DUP(00H)
	DD	00H
	DD	00H
; Function compile flags: /Odtp
xdata$x	ENDS
;	COMDAT ??0bad_alloc@std@@QAE@PBD@Z
_TEXT	SEGMENT
_this$ = -16						; size = 4
__$EHRec$ = -12						; size = 12
__Message$ = 8						; size = 4
??0bad_alloc@std@@QAE@PBD@Z PROC			; std::bad_alloc::bad_alloc, COMDAT
; _this$ = ecx

; 371  : 		{	// construct from message string

	push	ebp
	mov	ebp, esp
	push	-1
	push	__ehhandler$??0bad_alloc@std@@QAE@PBD@Z
	mov	eax, DWORD PTR fs:0
	push	eax
	push	ecx
	mov	eax, DWORD PTR ___security_cookie
	xor	eax, ebp
	push	eax
	lea	eax, DWORD PTR __$EHRec$[ebp]
	mov	DWORD PTR fs:0, eax
	mov	DWORD PTR _this$[ebp], ecx
	lea	eax, DWORD PTR __Message$[ebp]
	push	eax
	mov	ecx, DWORD PTR _this$[ebp]
	call	DWORD PTR __imp_??0exception@std@@QAE@ABQBD@Z
	mov	DWORD PTR __$EHRec$[ebp+8], 0
	mov	ecx, DWORD PTR _this$[ebp]
	mov	DWORD PTR [ecx], OFFSET ??_7bad_alloc@std@@6B@

; 372  : 		}

	mov	DWORD PTR __$EHRec$[ebp+8], -1
	mov	eax, DWORD PTR _this$[ebp]
	mov	ecx, DWORD PTR __$EHRec$[ebp]
	mov	DWORD PTR fs:0, ecx
	pop	ecx
	mov	esp, ebp
	pop	ebp
	ret	4
_TEXT	ENDS
;	COMDAT text$x
text$x	SEGMENT
__unwindfunclet$??0bad_alloc@std@@QAE@PBD@Z$0:
	mov	ecx, DWORD PTR _this$[ebp]
	jmp	DWORD PTR __imp_??1exception@std@@UAE@XZ
__ehhandler$??0bad_alloc@std@@QAE@PBD@Z:
	mov	edx, DWORD PTR [esp+8]
	lea	eax, DWORD PTR [edx+12]
	mov	ecx, DWORD PTR [edx-8]
	xor	ecx, eax
	call	@__security_check_cookie@4
	mov	eax, OFFSET __ehfuncinfo$??0bad_alloc@std@@QAE@PBD@Z
	jmp	___CxxFrameHandler3
text$x	ENDS
??0bad_alloc@std@@QAE@PBD@Z ENDP			; std::bad_alloc::bad_alloc
;	COMDAT xdata$x
xdata$x	SEGMENT
__unwindtable$??1bad_alloc@std@@UAE@XZ DD 0ffffffffH
	DD	FLAT:__unwindfunclet$??1bad_alloc@std@@UAE@XZ$0
__ehfuncinfo$??1bad_alloc@std@@UAE@XZ DD 019930522H
	DD	01H
	DD	FLAT:__unwindtable$??1bad_alloc@std@@UAE@XZ
	DD	2 DUP(00H)
	DD	2 DUP(00H)
	DD	00H
	DD	00H
; Function compile flags: /Odtp
xdata$x	ENDS
;	COMDAT ??1bad_alloc@std@@UAE@XZ
_TEXT	SEGMENT
_this$ = -16						; size = 4
__$EHRec$ = -12						; size = 12
??1bad_alloc@std@@UAE@XZ PROC				; std::bad_alloc::~bad_alloc, COMDAT
; _this$ = ecx

; 380  : 		{	// destroy the object

	push	ebp
	mov	ebp, esp
	push	-1
	push	__ehhandler$??1bad_alloc@std@@UAE@XZ
	mov	eax, DWORD PTR fs:0
	push	eax
	push	ecx
	mov	eax, DWORD PTR ___security_cookie
	xor	eax, ebp
	push	eax
	lea	eax, DWORD PTR __$EHRec$[ebp]
	mov	DWORD PTR fs:0, eax
	mov	DWORD PTR _this$[ebp], ecx
	mov	eax, DWORD PTR _this$[ebp]
	mov	DWORD PTR [eax], OFFSET ??_7bad_alloc@std@@6B@
	mov	DWORD PTR __$EHRec$[ebp+8], 0

; 381  : 		}

	mov	DWORD PTR __$EHRec$[ebp+8], -1
	mov	ecx, DWORD PTR _this$[ebp]
	call	DWORD PTR __imp_??1exception@std@@UAE@XZ
	mov	ecx, DWORD PTR __$EHRec$[ebp]
	mov	DWORD PTR fs:0, ecx
	pop	ecx
	mov	esp, ebp
	pop	ebp
	ret	0
_TEXT	ENDS
;	COMDAT text$x
text$x	SEGMENT
__unwindfunclet$??1bad_alloc@std@@UAE@XZ$0:
	mov	ecx, DWORD PTR _this$[ebp]
	jmp	DWORD PTR __imp_??1exception@std@@UAE@XZ
__ehhandler$??1bad_alloc@std@@UAE@XZ:
	mov	edx, DWORD PTR [esp+8]
	lea	eax, DWORD PTR [edx+12]
	mov	ecx, DWORD PTR [edx-8]
	xor	ecx, eax
	call	@__security_check_cookie@4
	mov	eax, OFFSET __ehfuncinfo$??1bad_alloc@std@@UAE@XZ
	jmp	___CxxFrameHandler3
text$x	ENDS
??1bad_alloc@std@@UAE@XZ ENDP				; std::bad_alloc::~bad_alloc
; Function compile flags: /Odtp
;	COMDAT ??_Gbad_alloc@std@@UAEPAXI@Z
_TEXT	SEGMENT
_this$ = -4						; size = 4
___flags$ = 8						; size = 4
??_Gbad_alloc@std@@UAEPAXI@Z PROC			; std::bad_alloc::`scalar deleting destructor', COMDAT
; _this$ = ecx
	push	ebp
	mov	ebp, esp
	push	ecx
	mov	DWORD PTR _this$[ebp], ecx
	mov	ecx, DWORD PTR _this$[ebp]
	call	??1bad_alloc@std@@UAE@XZ		; std::bad_alloc::~bad_alloc
	mov	eax, DWORD PTR ___flags$[ebp]
	and	eax, 1
	je	SHORT $LN1@scalar@20
	mov	ecx, DWORD PTR _this$[ebp]
	push	ecx
	call	??3@YAXPAX@Z				; operator delete
	add	esp, 4
$LN1@scalar@20:
	mov	eax, DWORD PTR _this$[ebp]
	mov	esp, ebp
	pop	ebp
	ret	4
??_Gbad_alloc@std@@UAEPAXI@Z ENDP			; std::bad_alloc::`scalar deleting destructor'
; Function compile flags: /Odtp
; File d:\program files (x86)\microsoft visual studio 9.0\vc\include\xmemory
_TEXT	ENDS
;	COMDAT ??$?0VVector3@Ogre@@@?$allocator@V_Aux_cont@std@@@std@@QAE@ABV?$allocator@VVector3@Ogre@@@1@@Z
_TEXT	SEGMENT
_this$ = -4						; size = 4
___formal$ = 8						; size = 4
??$?0VVector3@Ogre@@@?$allocator@V_Aux_cont@std@@@std@@QAE@ABV?$allocator@VVector3@Ogre@@@1@@Z PROC ; std::allocator<std::_Aux_cont>::allocator<std::_Aux_cont><Ogre::Vector3>, COMDAT
; _this$ = ecx

; 128  : 		allocator(const allocator<_Other>&) _THROW0()

	push	ebp
	mov	ebp, esp
	push	ecx
	mov	DWORD PTR _this$[ebp], ecx

; 129  : 		{	// construct from a related allocator (do nothing)
; 130  : 		}

	mov	eax, DWORD PTR _this$[ebp]
	mov	esp, ebp
	pop	ebp
	ret	4
??$?0VVector3@Ogre@@@?$allocator@V_Aux_cont@std@@@std@@QAE@ABV?$allocator@VVector3@Ogre@@@1@@Z ENDP ; std::allocator<std::_Aux_cont>::allocator<std::_Aux_cont><Ogre::Vector3>
; Function compile flags: /Odtp
_TEXT	ENDS
;	COMDAT ??$_Allocate@VVector3@Ogre@@@std@@YAPAVVector3@Ogre@@IPAV12@@Z
_TEXT	SEGMENT
$T68539 = -12						; size = 12
__Count$ = 8						; size = 4
___formal$ = 12						; size = 4
??$_Allocate@VVector3@Ogre@@@std@@YAPAVVector3@Ogre@@IPAV12@@Z PROC ; std::_Allocate<Ogre::Vector3>, COMDAT

; 36   : 	{	// check for integer overflow

	push	ebp
	mov	ebp, esp
	sub	esp, 12					; 0000000cH

; 37   : 	if (_Count <= 0)

	cmp	DWORD PTR __Count$[ebp], 0
	ja	SHORT $LN3@Allocate@2

; 38   : 		_Count = 0;

	mov	DWORD PTR __Count$[ebp], 0
	jmp	SHORT $LN2@Allocate@2
$LN3@Allocate@2:

; 39   : 	else if (((_SIZT)(-1) / _Count) < sizeof (_Ty))

	or	eax, -1
	xor	edx, edx
	div	DWORD PTR __Count$[ebp]
	cmp	eax, 12					; 0000000cH
	jae	SHORT $LN2@Allocate@2

; 40   : 		_THROW_NCEE(std::bad_alloc, NULL);

	push	0
	lea	ecx, DWORD PTR $T68539[ebp]
	call	??0bad_alloc@std@@QAE@PBD@Z		; std::bad_alloc::bad_alloc
	push	OFFSET __TI2?AVbad_alloc@std@@
	lea	eax, DWORD PTR $T68539[ebp]
	push	eax
	call	__CxxThrowException@8
$LN2@Allocate@2:

; 41   : 
; 42   : 		// allocate storage for _Count elements of type _Ty
; 43   : 	return ((_Ty _FARQ *)::operator new(_Count * sizeof (_Ty)));

	mov	ecx, DWORD PTR __Count$[ebp]
	imul	ecx, 12					; 0000000cH
	push	ecx
	call	??2@YAPAXI@Z				; operator new
	add	esp, 4
$LN5@Allocate@2:

; 44   : 	}

	mov	esp, ebp
	pop	ebp
	ret	0
??$_Allocate@VVector3@Ogre@@@std@@YAPAVVector3@Ogre@@IPAV12@@Z ENDP ; std::_Allocate<Ogre::Vector3>
; Function compile flags: /Odtp
_TEXT	ENDS
;	COMDAT ??$_Allocate@V_Aux_cont@std@@@std@@YAPAV_Aux_cont@0@IPAV10@@Z
_TEXT	SEGMENT
$T68542 = -12						; size = 12
__Count$ = 8						; size = 4
___formal$ = 12						; size = 4
??$_Allocate@V_Aux_cont@std@@@std@@YAPAV_Aux_cont@0@IPAV10@@Z PROC ; std::_Allocate<std::_Aux_cont>, COMDAT

; 36   : 	{	// check for integer overflow

	push	ebp
	mov	ebp, esp
	sub	esp, 12					; 0000000cH

; 37   : 	if (_Count <= 0)

	cmp	DWORD PTR __Count$[ebp], 0
	ja	SHORT $LN3@Allocate@3

; 38   : 		_Count = 0;

	mov	DWORD PTR __Count$[ebp], 0
	jmp	SHORT $LN2@Allocate@3
$LN3@Allocate@3:

; 39   : 	else if (((_SIZT)(-1) / _Count) < sizeof (_Ty))

	or	eax, -1
	xor	edx, edx
	div	DWORD PTR __Count$[ebp]
	cmp	eax, 4
	jae	SHORT $LN2@Allocate@3

; 40   : 		_THROW_NCEE(std::bad_alloc, NULL);

	push	0
	lea	ecx, DWORD PTR $T68542[ebp]
	call	??0bad_alloc@std@@QAE@PBD@Z		; std::bad_alloc::bad_alloc
	push	OFFSET __TI2?AVbad_alloc@std@@
	lea	eax, DWORD PTR $T68542[ebp]
	push	eax
	call	__CxxThrowException@8
$LN2@Allocate@3:

; 41   : 
; 42   : 		// allocate storage for _Count elements of type _Ty
; 43   : 	return ((_Ty _FARQ *)::operator new(_Count * sizeof (_Ty)));

	mov	ecx, DWORD PTR __Count$[ebp]
	shl	ecx, 2
	push	ecx
	call	??2@YAPAXI@Z				; operator new
	add	esp, 4
$LN5@Allocate@3:

; 44   : 	}

	mov	esp, ebp
	pop	ebp
	ret	0
??$_Allocate@V_Aux_cont@std@@@std@@YAPAV_Aux_cont@0@IPAV10@@Z ENDP ; std::_Allocate<std::_Aux_cont>
_TEXT	ENDS
;	COMDAT xdata$x
xdata$x	SEGMENT
__unwindtable$??0bad_alloc@std@@QAE@ABV01@@Z DD 0ffffffffH
	DD	FLAT:__unwindfunclet$??0bad_alloc@std@@QAE@ABV01@@Z$0
__ehfuncinfo$??0bad_alloc@std@@QAE@ABV01@@Z DD 019930522H
	DD	01H
	DD	FLAT:__unwindtable$??0bad_alloc@std@@QAE@ABV01@@Z
	DD	2 DUP(00H)
	DD	2 DUP(00H)
	DD	00H
	DD	00H
; Function compile flags: /Odtp
xdata$x	ENDS
;	COMDAT ??0bad_alloc@std@@QAE@ABV01@@Z
_TEXT	SEGMENT
_this$ = -16						; size = 4
__$EHRec$ = -12						; size = 12
___that$ = 8						; size = 4
??0bad_alloc@std@@QAE@ABV01@@Z PROC			; std::bad_alloc::bad_alloc, COMDAT
; _this$ = ecx
	push	ebp
	mov	ebp, esp
	push	-1
	push	__ehhandler$??0bad_alloc@std@@QAE@ABV01@@Z
	mov	eax, DWORD PTR fs:0
	push	eax
	push	ecx
	mov	eax, DWORD PTR ___security_cookie
	xor	eax, ebp
	push	eax
	lea	eax, DWORD PTR __$EHRec$[ebp]
	mov	DWORD PTR fs:0, eax
	mov	DWORD PTR _this$[ebp], ecx
	mov	eax, DWORD PTR ___that$[ebp]
	push	eax
	mov	ecx, DWORD PTR _this$[ebp]
	call	DWORD PTR __imp_??0exception@std@@QAE@ABV01@@Z
	mov	DWORD PTR __$EHRec$[ebp+8], 0
	mov	ecx, DWORD PTR _this$[ebp]
	mov	DWORD PTR [ecx], OFFSET ??_7bad_alloc@std@@6B@
	mov	DWORD PTR __$EHRec$[ebp+8], -1
	mov	eax, DWORD PTR _this$[ebp]
	mov	ecx, DWORD PTR __$EHRec$[ebp]
	mov	DWORD PTR fs:0, ecx
	pop	ecx
	mov	esp, ebp
	pop	ebp
	ret	4
_TEXT	ENDS
;	COMDAT text$x
text$x	SEGMENT
__unwindfunclet$??0bad_alloc@std@@QAE@ABV01@@Z$0:
	mov	ecx, DWORD PTR _this$[ebp]
	jmp	DWORD PTR __imp_??1exception@std@@UAE@XZ
__ehhandler$??0bad_alloc@std@@QAE@ABV01@@Z:
	mov	edx, DWORD PTR [esp+8]
	lea	eax, DWORD PTR [edx+12]
	mov	ecx, DWORD PTR [edx-8]
	xor	ecx, eax
	call	@__security_check_cookie@4
	mov	eax, OFFSET __ehfuncinfo$??0bad_alloc@std@@QAE@ABV01@@Z
	jmp	___CxxFrameHandler3
text$x	ENDS
??0bad_alloc@std@@QAE@ABV01@@Z ENDP			; std::bad_alloc::bad_alloc
PUBLIC	?resize@?$vector@VVector3@Ogre@@V?$allocator@VVector3@Ogre@@@std@@@std@@QAEXIVVector3@Ogre@@@Z ; std::vector<Ogre::Vector3,std::allocator<Ogre::Vector3> >::resize
; Function compile flags: /Odtp
; File d:\program files (x86)\microsoft visual studio 9.0\vc\include\vector
;	COMDAT ?resize@?$vector@VVector3@Ogre@@V?$allocator@VVector3@Ogre@@@std@@@std@@QAEXI@Z
_TEXT	SEGMENT
_this$ = -8						; size = 4
__Newsize$ = 8						; size = 4
?resize@?$vector@VVector3@Ogre@@V?$allocator@VVector3@Ogre@@@std@@@std@@QAEXI@Z PROC ; std::vector<Ogre::Vector3,std::allocator<Ogre::Vector3> >::resize, COMDAT
; _this$ = ecx

; 712  : 		{	// determine new length, padding with _Ty() elements as needed

	push	ebp
	mov	ebp, esp
	sub	esp, 8
	mov	DWORD PTR _this$[ebp], ecx

; 713  : 		resize(_Newsize, _Ty());

	sub	esp, 12					; 0000000cH
	mov	ecx, esp
	call	??0Vector3@Ogre@@QAE@XZ			; Ogre::Vector3::Vector3
	mov	eax, DWORD PTR __Newsize$[ebp]
	push	eax
	mov	ecx, DWORD PTR _this$[ebp]
	call	?resize@?$vector@VVector3@Ogre@@V?$allocator@VVector3@Ogre@@@std@@@std@@QAEXIVVector3@Ogre@@@Z ; std::vector<Ogre::Vector3,std::allocator<Ogre::Vector3> >::resize

; 714  : 		}

	mov	esp, ebp
	pop	ebp
	ret	4
?resize@?$vector@VVector3@Ogre@@V?$allocator@VVector3@Ogre@@@std@@@std@@QAEXI@Z ENDP ; std::vector<Ogre::Vector3,std::allocator<Ogre::Vector3> >::resize
; Function compile flags: /Odtp
_TEXT	ENDS
;	COMDAT ??A?$vector@VVector3@Ogre@@V?$allocator@VVector3@Ogre@@@std@@@std@@QAEAAVVector3@Ogre@@I@Z
_TEXT	SEGMENT
_this$ = -4						; size = 4
__Pos$ = 8						; size = 4
??A?$vector@VVector3@Ogre@@V?$allocator@VVector3@Ogre@@@std@@@std@@QAEAAVVector3@Ogre@@I@Z PROC ; std::vector<Ogre::Vector3,std::allocator<Ogre::Vector3> >::operator[], COMDAT
; _this$ = ecx

; 774  : 		{	// subscript mutable sequence

	push	ebp
	mov	ebp, esp
	push	ecx
	mov	DWORD PTR _this$[ebp], ecx

; 775  : 
; 776  :  #if _HAS_ITERATOR_DEBUGGING
; 777  : 		if (size() <= _Pos)
; 778  : 			{
; 779  : 			_DEBUG_ERROR("vector subscript out of range");
; 780  : 			_SCL_SECURE_OUT_OF_RANGE;
; 781  : 			}
; 782  :  #endif /* _HAS_ITERATOR_DEBUGGING */
; 783  : 		_SCL_SECURE_VALIDATE_RANGE(_Pos < size());

	mov	ecx, DWORD PTR _this$[ebp]
	call	?size@?$vector@VVector3@Ogre@@V?$allocator@VVector3@Ogre@@@std@@@std@@QBEIXZ ; std::vector<Ogre::Vector3,std::allocator<Ogre::Vector3> >::size
	cmp	DWORD PTR __Pos$[ebp], eax
	jb	SHORT $LN1@operator@9
	call	DWORD PTR __imp___invalid_parameter_noinfo
$LN1@operator@9:

; 784  : 
; 785  : 		return (*(_Myfirst + _Pos));

	mov	eax, DWORD PTR __Pos$[ebp]
	imul	eax, 12					; 0000000cH
	mov	ecx, DWORD PTR _this$[ebp]
	add	eax, DWORD PTR [ecx+12]

; 786  : 		}

	mov	esp, ebp
	pop	ebp
	ret	4
??A?$vector@VVector3@Ogre@@V?$allocator@VVector3@Ogre@@@std@@@std@@QAEAAVVector3@Ogre@@I@Z ENDP ; std::vector<Ogre::Vector3,std::allocator<Ogre::Vector3> >::operator[]
_TEXT	ENDS
PUBLIC	??H?$_Vector_iterator@VVector3@Ogre@@V?$allocator@VVector3@Ogre@@@std@@@std@@QBE?AV01@H@Z ; std::_Vector_iterator<Ogre::Vector3,std::allocator<Ogre::Vector3> >::operator+
PUBLIC	?_Insert_n@?$vector@VVector3@Ogre@@V?$allocator@VVector3@Ogre@@@std@@@std@@IAEXV?$_Vector_const_iterator@VVector3@Ogre@@V?$allocator@VVector3@Ogre@@@std@@@2@IABVVector3@Ogre@@@Z ; std::vector<Ogre::Vector3,std::allocator<Ogre::Vector3> >::_Insert_n
; Function compile flags: /Odtp
;	COMDAT ?resize@?$vector@VVector3@Ogre@@V?$allocator@VVector3@Ogre@@@std@@@std@@QAEXIVVector3@Ogre@@@Z
_TEXT	SEGMENT
_this$ = -68						; size = 4
$T68566 = -64						; size = 8
$T68565 = -56						; size = 8
$T68564 = -48						; size = 8
$T68563 = -40						; size = 8
$T68562 = -32						; size = 8
$T68561 = -24						; size = 8
$T68560 = -16						; size = 8
$T68559 = -8						; size = 8
__Newsize$ = 8						; size = 4
__Val$ = 12						; size = 12
?resize@?$vector@VVector3@Ogre@@V?$allocator@VVector3@Ogre@@@std@@@std@@QAEXIVVector3@Ogre@@@Z PROC ; std::vector<Ogre::Vector3,std::allocator<Ogre::Vector3> >::resize, COMDAT
; _this$ = ecx

; 717  : 		{	// determine new length, padding with _Val elements as needed

	push	ebp
	mov	ebp, esp
	sub	esp, 68					; 00000044H
	mov	DWORD PTR _this$[ebp], ecx

; 718  : 		if (size() < _Newsize)

	mov	ecx, DWORD PTR _this$[ebp]
	call	?size@?$vector@VVector3@Ogre@@V?$allocator@VVector3@Ogre@@@std@@@std@@QBEIXZ ; std::vector<Ogre::Vector3,std::allocator<Ogre::Vector3> >::size
	cmp	eax, DWORD PTR __Newsize$[ebp]
	jae	SHORT $LN3@resize

; 719  : 			_Insert_n(end(), _Newsize - size(), _Val);

	lea	eax, DWORD PTR $T68560[ebp]
	push	eax
	mov	ecx, DWORD PTR _this$[ebp]
	call	?end@?$vector@VVector3@Ogre@@V?$allocator@VVector3@Ogre@@@std@@@std@@QAE?AV?$_Vector_iterator@VVector3@Ogre@@V?$allocator@VVector3@Ogre@@@std@@@2@XZ ; std::vector<Ogre::Vector3,std::allocator<Ogre::Vector3> >::end
	mov	ecx, DWORD PTR [eax]
	mov	edx, DWORD PTR [eax+4]
	mov	DWORD PTR $T68559[ebp], ecx
	mov	DWORD PTR $T68559[ebp+4], edx
	lea	eax, DWORD PTR __Val$[ebp]
	push	eax
	mov	ecx, DWORD PTR _this$[ebp]
	call	?size@?$vector@VVector3@Ogre@@V?$allocator@VVector3@Ogre@@@std@@@std@@QBEIXZ ; std::vector<Ogre::Vector3,std::allocator<Ogre::Vector3> >::size
	mov	ecx, DWORD PTR __Newsize$[ebp]
	sub	ecx, eax
	push	ecx
	mov	edx, DWORD PTR $T68559[ebp+4]
	push	edx
	mov	eax, DWORD PTR $T68559[ebp]
	push	eax
	mov	ecx, DWORD PTR _this$[ebp]
	call	?_Insert_n@?$vector@VVector3@Ogre@@V?$allocator@VVector3@Ogre@@@std@@@std@@IAEXV?$_Vector_const_iterator@VVector3@Ogre@@V?$allocator@VVector3@Ogre@@@std@@@2@IABVVector3@Ogre@@@Z ; std::vector<Ogre::Vector3,std::allocator<Ogre::Vector3> >::_Insert_n
	jmp	SHORT $LN4@resize
$LN3@resize:

; 720  : 		else if (_Newsize < size())

	mov	ecx, DWORD PTR _this$[ebp]
	call	?size@?$vector@VVector3@Ogre@@V?$allocator@VVector3@Ogre@@@std@@@std@@QBEIXZ ; std::vector<Ogre::Vector3,std::allocator<Ogre::Vector3> >::size
	cmp	DWORD PTR __Newsize$[ebp], eax
	jae	SHORT $LN4@resize

; 721  : 			erase(begin() + _Newsize, end());

	lea	ecx, DWORD PTR $T68562[ebp]
	push	ecx
	mov	ecx, DWORD PTR _this$[ebp]
	call	?end@?$vector@VVector3@Ogre@@V?$allocator@VVector3@Ogre@@@std@@@std@@QAE?AV?$_Vector_iterator@VVector3@Ogre@@V?$allocator@VVector3@Ogre@@@std@@@2@XZ ; std::vector<Ogre::Vector3,std::allocator<Ogre::Vector3> >::end
	mov	edx, DWORD PTR [eax]
	mov	eax, DWORD PTR [eax+4]
	mov	DWORD PTR $T68561[ebp], edx
	mov	DWORD PTR $T68561[ebp+4], eax
	mov	ecx, DWORD PTR __Newsize$[ebp]
	push	ecx
	lea	edx, DWORD PTR $T68565[ebp]
	push	edx
	lea	eax, DWORD PTR $T68564[ebp]
	push	eax
	mov	ecx, DWORD PTR _this$[ebp]
	call	?begin@?$vector@VVector3@Ogre@@V?$allocator@VVector3@Ogre@@@std@@@std@@QAE?AV?$_Vector_iterator@VVector3@Ogre@@V?$allocator@VVector3@Ogre@@@std@@@2@XZ ; std::vector<Ogre::Vector3,std::allocator<Ogre::Vector3> >::begin
	mov	ecx, eax
	call	??H?$_Vector_iterator@VVector3@Ogre@@V?$allocator@VVector3@Ogre@@@std@@@std@@QBE?AV01@H@Z ; std::_Vector_iterator<Ogre::Vector3,std::allocator<Ogre::Vector3> >::operator+
	mov	ecx, DWORD PTR [eax]
	mov	edx, DWORD PTR [eax+4]
	mov	DWORD PTR $T68563[ebp], ecx
	mov	DWORD PTR $T68563[ebp+4], edx
	mov	eax, DWORD PTR $T68561[ebp+4]
	push	eax
	mov	ecx, DWORD PTR $T68561[ebp]
	push	ecx
	mov	edx, DWORD PTR $T68563[ebp+4]
	push	edx
	mov	eax, DWORD PTR $T68563[ebp]
	push	eax
	lea	ecx, DWORD PTR $T68566[ebp]
	push	ecx
	mov	ecx, DWORD PTR _this$[ebp]
	call	?erase@?$vector@VVector3@Ogre@@V?$allocator@VVector3@Ogre@@@std@@@std@@QAE?AV?$_Vector_iterator@VVector3@Ogre@@V?$allocator@VVector3@Ogre@@@std@@@2@V?$_Vector_const_iterator@VVector3@Ogre@@V?$allocator@VVector3@Ogre@@@std@@@2@0@Z ; std::vector<Ogre::Vector3,std::allocator<Ogre::Vector3> >::erase
$LN4@resize:

; 722  : 		}

	mov	esp, ebp
	pop	ebp
	ret	16					; 00000010H
?resize@?$vector@VVector3@Ogre@@V?$allocator@VVector3@Ogre@@@std@@@std@@QAEXIVVector3@Ogre@@@Z ENDP ; std::vector<Ogre::Vector3,std::allocator<Ogre::Vector3> >::resize
_TEXT	ENDS
PUBLIC	??$_Unchecked_move_backward@PAVVector3@Ogre@@PAV12@@stdext@@YAPAVVector3@Ogre@@PAV12@00@Z ; stdext::_Unchecked_move_backward<Ogre::Vector3 *,Ogre::Vector3 *>
PUBLIC	??$fill@PAVVector3@Ogre@@V12@@std@@YAXPAVVector3@Ogre@@0ABV12@@Z ; std::fill<Ogre::Vector3 *,Ogre::Vector3>
PUBLIC	??$_Umove@PAVVector3@Ogre@@@?$vector@VVector3@Ogre@@V?$allocator@VVector3@Ogre@@@std@@@std@@IAEPAVVector3@Ogre@@PAV23@00@Z ; std::vector<Ogre::Vector3,std::allocator<Ogre::Vector3> >::_Umove<Ogre::Vector3 *>
PUBLIC	?_Ufill@?$vector@VVector3@Ogre@@V?$allocator@VVector3@Ogre@@@std@@@std@@IAEPAVVector3@Ogre@@PAV34@IABV34@@Z ; std::vector<Ogre::Vector3,std::allocator<Ogre::Vector3> >::_Ufill
;	COMDAT xdata$x
xdata$x	SEGMENT
__catchsym$?_Insert_n@?$vector@VVector3@Ogre@@V?$allocator@VVector3@Ogre@@@std@@@std@@IAEXV?$_Vector_const_iterator@VVector3@Ogre@@V?$allocator@VVector3@Ogre@@@std@@@2@IABVVector3@Ogre@@@Z$5 DD 00H
	DD	00H
	DD	00H
	DD	FLAT:__catch$?_Insert_n@?$vector@VVector3@Ogre@@V?$allocator@VVector3@Ogre@@@std@@@std@@IAEXV?$_Vector_const_iterator@VVector3@Ogre@@V?$allocator@VVector3@Ogre@@@std@@@2@IABVVector3@Ogre@@@Z$2
__catchsym$?_Insert_n@?$vector@VVector3@Ogre@@V?$allocator@VVector3@Ogre@@@std@@@std@@IAEXV?$_Vector_const_iterator@VVector3@Ogre@@V?$allocator@VVector3@Ogre@@@std@@@2@IABVVector3@Ogre@@@Z$4 DD 00H
	DD	00H
	DD	00H
	DD	FLAT:__catch$?_Insert_n@?$vector@VVector3@Ogre@@V?$allocator@VVector3@Ogre@@@std@@@std@@IAEXV?$_Vector_const_iterator@VVector3@Ogre@@V?$allocator@VVector3@Ogre@@@std@@@2@IABVVector3@Ogre@@@Z$0
__unwindtable$?_Insert_n@?$vector@VVector3@Ogre@@V?$allocator@VVector3@Ogre@@@std@@@std@@IAEXV?$_Vector_const_iterator@VVector3@Ogre@@V?$allocator@VVector3@Ogre@@@std@@@2@IABVVector3@Ogre@@@Z DD 0ffffffffH
	DD	00H
	DD	0ffffffffH
	DD	00H
	DD	0ffffffffH
	DD	00H
	DD	0ffffffffH
	DD	00H
__ehfuncinfo$?_Insert_n@?$vector@VVector3@Ogre@@V?$allocator@VVector3@Ogre@@@std@@@std@@IAEXV?$_Vector_const_iterator@VVector3@Ogre@@V?$allocator@VVector3@Ogre@@@std@@@2@IABVVector3@Ogre@@@Z DD 019930522H
	DD	04H
	DD	FLAT:__unwindtable$?_Insert_n@?$vector@VVector3@Ogre@@V?$allocator@VVector3@Ogre@@@std@@@std@@IAEXV?$_Vector_const_iterator@VVector3@Ogre@@V?$allocator@VVector3@Ogre@@@std@@@2@IABVVector3@Ogre@@@Z
	DD	02H
	DD	FLAT:__tryblocktable$?_Insert_n@?$vector@VVector3@Ogre@@V?$allocator@VVector3@Ogre@@@std@@@std@@IAEXV?$_Vector_const_iterator@VVector3@Ogre@@V?$allocator@VVector3@Ogre@@@std@@@2@IABVVector3@Ogre@@@Z
	DD	2 DUP(00H)
	DD	00H
	DD	00H
__tryblocktable$?_Insert_n@?$vector@VVector3@Ogre@@V?$allocator@VVector3@Ogre@@@std@@@std@@IAEXV?$_Vector_const_iterator@VVector3@Ogre@@V?$allocator@VVector3@Ogre@@@std@@@2@IABVVector3@Ogre@@@Z DD 00H
	DD	00H
	DD	01H
	DD	01H
	DD	FLAT:__catchsym$?_Insert_n@?$vector@VVector3@Ogre@@V?$allocator@VVector3@Ogre@@@std@@@std@@IAEXV?$_Vector_const_iterator@VVector3@Ogre@@V?$allocator@VVector3@Ogre@@@std@@@2@IABVVector3@Ogre@@@Z$4
	DD	02H
	DD	02H
	DD	03H
	DD	01H
	DD	FLAT:__catchsym$?_Insert_n@?$vector@VVector3@Ogre@@V?$allocator@VVector3@Ogre@@@std@@@std@@IAEXV?$_Vector_const_iterator@VVector3@Ogre@@V?$allocator@VVector3@Ogre@@@std@@@2@IABVVector3@Ogre@@@Z$5
; Function compile flags: /Odtp
xdata$x	ENDS
;	COMDAT ?_Insert_n@?$vector@VVector3@Ogre@@V?$allocator@VVector3@Ogre@@@std@@@std@@IAEXV?$_Vector_const_iterator@VVector3@Ogre@@V?$allocator@VVector3@Ogre@@@std@@@2@IABVVector3@Ogre@@@Z
_TEXT	SEGMENT
tv84 = -68						; size = 4
_this$ = -64						; size = 4
__Tmp$64453 = -60					; size = 12
__Oldend$64454 = -48					; size = 4
__Tmp$64443 = -44					; size = 12
__Ncopied$64430 = -32					; size = 4
__Newvec$64428 = -28					; size = 4
__Whereoff$64429 = -24					; size = 4
__Capacity$ = -20					; size = 4
__$EHRec$ = -16						; size = 16
__Where$ = 8						; size = 8
__Count$ = 16						; size = 4
__Val$ = 20						; size = 4
?_Insert_n@?$vector@VVector3@Ogre@@V?$allocator@VVector3@Ogre@@@std@@@std@@IAEXV?$_Vector_const_iterator@VVector3@Ogre@@V?$allocator@VVector3@Ogre@@@std@@@2@IABVVector3@Ogre@@@Z PROC ; std::vector<Ogre::Vector3,std::allocator<Ogre::Vector3> >::_Insert_n, COMDAT
; _this$ = ecx

; 1153 : 		{	// insert _Count * _Val at _Where

	push	ebp
	mov	ebp, esp
	push	-1
	push	__ehhandler$?_Insert_n@?$vector@VVector3@Ogre@@V?$allocator@VVector3@Ogre@@@std@@@std@@IAEXV?$_Vector_const_iterator@VVector3@Ogre@@V?$allocator@VVector3@Ogre@@@std@@@2@IABVVector3@Ogre@@@Z
	mov	eax, DWORD PTR fs:0
	push	eax
	push	ecx
	sub	esp, 52					; 00000034H
	push	ebx
	push	esi
	push	edi
	mov	eax, DWORD PTR ___security_cookie
	xor	eax, ebp
	push	eax
	lea	eax, DWORD PTR __$EHRec$[ebp+4]
	mov	DWORD PTR fs:0, eax
	mov	DWORD PTR __$EHRec$[ebp], esp
	mov	DWORD PTR _this$[ebp], ecx

; 1154 : 
; 1155 :  #if _HAS_ITERATOR_DEBUGGING
; 1156 : 		if (_Where._Mycont != this
; 1157 : 			|| _Where._Myptr < _Myfirst || _Mylast < _Where._Myptr)
; 1158 : 			_DEBUG_ERROR("vector insert iterator outside range");
; 1159 :  #endif /* _HAS_ITERATOR_DEBUGGING */
; 1160 : 
; 1161 : 		size_type _Capacity = capacity();

	mov	ecx, DWORD PTR _this$[ebp]
	call	?capacity@?$vector@VVector3@Ogre@@V?$allocator@VVector3@Ogre@@@std@@@std@@QBEIXZ ; std::vector<Ogre::Vector3,std::allocator<Ogre::Vector3> >::capacity
	mov	DWORD PTR __Capacity$[ebp], eax

; 1162 : 
; 1163 : 		if (_Count == 0)

	cmp	DWORD PTR __Count$[ebp], 0
	jne	SHORT $LN14@Insert_n
	jmp	$LN16@Insert_n
$LN14@Insert_n:

; 1164 : 			;
; 1165 : 		else if (max_size() - size() < _Count)

	mov	ecx, DWORD PTR _this$[ebp]
	call	?max_size@?$vector@VVector3@Ogre@@V?$allocator@VVector3@Ogre@@@std@@@std@@QBEIXZ ; std::vector<Ogre::Vector3,std::allocator<Ogre::Vector3> >::max_size
	mov	esi, eax
	mov	ecx, DWORD PTR _this$[ebp]
	call	?size@?$vector@VVector3@Ogre@@V?$allocator@VVector3@Ogre@@@std@@@std@@QBEIXZ ; std::vector<Ogre::Vector3,std::allocator<Ogre::Vector3> >::size
	sub	esi, eax
	cmp	esi, DWORD PTR __Count$[ebp]
	jae	SHORT $LN12@Insert_n

; 1166 : 			_Xlen();	// result too long

	call	?_Xlen@?$vector@VVector3@Ogre@@V?$allocator@VVector3@Ogre@@@std@@@std@@KAXXZ ; std::vector<Ogre::Vector3,std::allocator<Ogre::Vector3> >::_Xlen
	jmp	$LN16@Insert_n
$LN12@Insert_n:

; 1167 : 		else if (_Capacity < size() + _Count)

	mov	ecx, DWORD PTR _this$[ebp]
	call	?size@?$vector@VVector3@Ogre@@V?$allocator@VVector3@Ogre@@@std@@@std@@QBEIXZ ; std::vector<Ogre::Vector3,std::allocator<Ogre::Vector3> >::size
	add	eax, DWORD PTR __Count$[ebp]
	cmp	DWORD PTR __Capacity$[ebp], eax
	jae	$LN10@Insert_n

; 1168 : 			{	// not enough room, reallocate
; 1169 : 			_Capacity = max_size() - _Capacity / 2 < _Capacity
; 1170 : 				? 0 : _Capacity + _Capacity / 2;	// try to grow by 50%

	mov	ecx, DWORD PTR _this$[ebp]
	call	?max_size@?$vector@VVector3@Ogre@@V?$allocator@VVector3@Ogre@@@std@@@std@@QBEIXZ ; std::vector<Ogre::Vector3,std::allocator<Ogre::Vector3> >::max_size
	mov	ecx, DWORD PTR __Capacity$[ebp]
	shr	ecx, 1
	sub	eax, ecx
	cmp	eax, DWORD PTR __Capacity$[ebp]
	jae	SHORT $LN17@Insert_n
	mov	DWORD PTR tv84[ebp], 0
	jmp	SHORT $LN18@Insert_n
$LN17@Insert_n:
	mov	edx, DWORD PTR __Capacity$[ebp]
	shr	edx, 1
	add	edx, DWORD PTR __Capacity$[ebp]
	mov	DWORD PTR tv84[ebp], edx
$LN18@Insert_n:
	mov	eax, DWORD PTR tv84[ebp]
	mov	DWORD PTR __Capacity$[ebp], eax

; 1171 : 			if (_Capacity < size() + _Count)

	mov	ecx, DWORD PTR _this$[ebp]
	call	?size@?$vector@VVector3@Ogre@@V?$allocator@VVector3@Ogre@@@std@@@std@@QBEIXZ ; std::vector<Ogre::Vector3,std::allocator<Ogre::Vector3> >::size
	add	eax, DWORD PTR __Count$[ebp]
	cmp	DWORD PTR __Capacity$[ebp], eax
	jae	SHORT $LN9@Insert_n

; 1172 : 				_Capacity = size() + _Count;

	mov	ecx, DWORD PTR _this$[ebp]
	call	?size@?$vector@VVector3@Ogre@@V?$allocator@VVector3@Ogre@@@std@@@std@@QBEIXZ ; std::vector<Ogre::Vector3,std::allocator<Ogre::Vector3> >::size
	add	eax, DWORD PTR __Count$[ebp]
	mov	DWORD PTR __Capacity$[ebp], eax
$LN9@Insert_n:

; 1173 : 			pointer _Newvec = this->_Alval.allocate(_Capacity);

	mov	ecx, DWORD PTR __Capacity$[ebp]
	push	ecx
	mov	ecx, DWORD PTR _this$[ebp]
	add	ecx, 8
	call	?allocate@?$allocator@VVector3@Ogre@@@std@@QAEPAVVector3@Ogre@@I@Z ; std::allocator<Ogre::Vector3>::allocate
	mov	DWORD PTR __Newvec$64428[ebp], eax

; 1174 : 			size_type _Whereoff = _VEC_ITER_BASE(_Where) - _Myfirst;

	mov	edx, DWORD PTR _this$[ebp]
	mov	eax, DWORD PTR __Where$[ebp+4]
	sub	eax, DWORD PTR [edx+12]
	cdq
	mov	ecx, 12					; 0000000cH
	idiv	ecx
	mov	DWORD PTR __Whereoff$64429[ebp], eax

; 1175 : 			int _Ncopied = 0;

	mov	DWORD PTR __Ncopied$64430[ebp], 0

; 1176 : 
; 1177 : 			_TRY_BEGIN

	mov	DWORD PTR __$EHRec$[ebp+12], 0

; 1178 : 			_Ufill(_Newvec + _Whereoff, _Count, _Val);	// add new stuff

	mov	edx, DWORD PTR __Val$[ebp]
	push	edx
	mov	eax, DWORD PTR __Count$[ebp]
	push	eax
	mov	ecx, DWORD PTR __Whereoff$64429[ebp]
	imul	ecx, 12					; 0000000cH
	add	ecx, DWORD PTR __Newvec$64428[ebp]
	push	ecx
	mov	ecx, DWORD PTR _this$[ebp]
	call	?_Ufill@?$vector@VVector3@Ogre@@V?$allocator@VVector3@Ogre@@@std@@@std@@IAEPAVVector3@Ogre@@PAV34@IABV34@@Z ; std::vector<Ogre::Vector3,std::allocator<Ogre::Vector3> >::_Ufill

; 1179 : 			++_Ncopied;

	mov	edx, DWORD PTR __Ncopied$64430[ebp]
	add	edx, 1
	mov	DWORD PTR __Ncopied$64430[ebp], edx

; 1180 : 			_Umove(this->_Myfirst, _VEC_ITER_BASE(_Where),
; 1181 : 				_Newvec);	// move prefix

	mov	eax, DWORD PTR __Newvec$64428[ebp]
	push	eax
	mov	ecx, DWORD PTR __Where$[ebp+4]
	push	ecx
	mov	edx, DWORD PTR _this$[ebp]
	mov	eax, DWORD PTR [edx+12]
	push	eax
	mov	ecx, DWORD PTR _this$[ebp]
	call	??$_Umove@PAVVector3@Ogre@@@?$vector@VVector3@Ogre@@V?$allocator@VVector3@Ogre@@@std@@@std@@IAEPAVVector3@Ogre@@PAV23@00@Z ; std::vector<Ogre::Vector3,std::allocator<Ogre::Vector3> >::_Umove<Ogre::Vector3 *>

; 1182 : 			++_Ncopied;

	mov	ecx, DWORD PTR __Ncopied$64430[ebp]
	add	ecx, 1
	mov	DWORD PTR __Ncopied$64430[ebp], ecx

; 1183 : 			_Umove(_VEC_ITER_BASE(_Where), this->_Mylast,
; 1184 : 				_Newvec + (_Whereoff + _Count));	// move suffix

	mov	edx, DWORD PTR __Whereoff$64429[ebp]
	add	edx, DWORD PTR __Count$[ebp]
	imul	edx, 12					; 0000000cH
	add	edx, DWORD PTR __Newvec$64428[ebp]
	push	edx
	mov	eax, DWORD PTR _this$[ebp]
	mov	ecx, DWORD PTR [eax+16]
	push	ecx
	mov	edx, DWORD PTR __Where$[ebp+4]
	push	edx
	mov	ecx, DWORD PTR _this$[ebp]
	call	??$_Umove@PAVVector3@Ogre@@@?$vector@VVector3@Ogre@@V?$allocator@VVector3@Ogre@@@std@@@std@@IAEPAVVector3@Ogre@@PAV23@00@Z ; std::vector<Ogre::Vector3,std::allocator<Ogre::Vector3> >::_Umove<Ogre::Vector3 *>
	jmp	SHORT $LN19@Insert_n
__catch$?_Insert_n@?$vector@VVector3@Ogre@@V?$allocator@VVector3@Ogre@@@std@@@std@@IAEXV?$_Vector_const_iterator@VVector3@Ogre@@V?$allocator@VVector3@Ogre@@@std@@@2@IABVVector3@Ogre@@@Z$0:

; 1185 : 			_CATCH_ALL
; 1186 : 			if (1 < _Ncopied)

	cmp	DWORD PTR __Ncopied$64430[ebp], 1
	jle	SHORT $LN7@Insert_n

; 1187 : 				_Destroy(_Newvec, _Newvec + _Whereoff);

	mov	eax, DWORD PTR __Whereoff$64429[ebp]
	imul	eax, 12					; 0000000cH
	add	eax, DWORD PTR __Newvec$64428[ebp]
	push	eax
	mov	ecx, DWORD PTR __Newvec$64428[ebp]
	push	ecx
	mov	ecx, DWORD PTR _this$[ebp]
	call	?_Destroy@?$vector@VVector3@Ogre@@V?$allocator@VVector3@Ogre@@@std@@@std@@IAEXPAVVector3@Ogre@@0@Z ; std::vector<Ogre::Vector3,std::allocator<Ogre::Vector3> >::_Destroy
$LN7@Insert_n:

; 1188 : 			if (0 < _Ncopied)

	cmp	DWORD PTR __Ncopied$64430[ebp], 0
	jle	SHORT $LN6@Insert_n

; 1189 : 				_Destroy(_Newvec + _Whereoff, _Newvec + _Whereoff + _Count);

	mov	edx, DWORD PTR __Whereoff$64429[ebp]
	imul	edx, 12					; 0000000cH
	add	edx, DWORD PTR __Newvec$64428[ebp]
	mov	eax, DWORD PTR __Count$[ebp]
	imul	eax, 12					; 0000000cH
	add	edx, eax
	push	edx
	mov	ecx, DWORD PTR __Whereoff$64429[ebp]
	imul	ecx, 12					; 0000000cH
	add	ecx, DWORD PTR __Newvec$64428[ebp]
	push	ecx
	mov	ecx, DWORD PTR _this$[ebp]
	call	?_Destroy@?$vector@VVector3@Ogre@@V?$allocator@VVector3@Ogre@@@std@@@std@@IAEXPAVVector3@Ogre@@0@Z ; std::vector<Ogre::Vector3,std::allocator<Ogre::Vector3> >::_Destroy
$LN6@Insert_n:

; 1190 : 			this->_Alval.deallocate(_Newvec, _Capacity);

	mov	edx, DWORD PTR __Capacity$[ebp]
	push	edx
	mov	eax, DWORD PTR __Newvec$64428[ebp]
	push	eax
	mov	ecx, DWORD PTR _this$[ebp]
	add	ecx, 8
	call	?deallocate@?$allocator@VVector3@Ogre@@@std@@QAEXPAVVector3@Ogre@@I@Z ; std::allocator<Ogre::Vector3>::deallocate

; 1191 : 			_RERAISE;

	push	0
	push	0
	call	__CxxThrowException@8

; 1192 : 			_CATCH_END

	mov	DWORD PTR __$EHRec$[ebp+12], -1
	mov	eax, __tryend$?_Insert_n@?$vector@VVector3@Ogre@@V?$allocator@VVector3@Ogre@@@std@@@std@@IAEXV?$_Vector_const_iterator@VVector3@Ogre@@V?$allocator@VVector3@Ogre@@@std@@@2@IABVVector3@Ogre@@@Z$1
	ret	0
$LN19@Insert_n:
	mov	DWORD PTR __$EHRec$[ebp+12], -1
__tryend$?_Insert_n@?$vector@VVector3@Ogre@@V?$allocator@VVector3@Ogre@@@std@@@std@@IAEXV?$_Vector_const_iterator@VVector3@Ogre@@V?$allocator@VVector3@Ogre@@@std@@@2@IABVVector3@Ogre@@@Z$1:

; 1193 : 
; 1194 : 			_Count += size();

	mov	ecx, DWORD PTR _this$[ebp]
	call	?size@?$vector@VVector3@Ogre@@V?$allocator@VVector3@Ogre@@@std@@@std@@QBEIXZ ; std::vector<Ogre::Vector3,std::allocator<Ogre::Vector3> >::size
	add	eax, DWORD PTR __Count$[ebp]
	mov	DWORD PTR __Count$[ebp], eax

; 1195 : 			if (_Myfirst != 0)

	mov	ecx, DWORD PTR _this$[ebp]
	cmp	DWORD PTR [ecx+12], 0
	je	SHORT $LN5@Insert_n

; 1196 : 				{	// destroy and deallocate old array
; 1197 : 				_Destroy(_Myfirst, _Mylast);

	mov	edx, DWORD PTR _this$[ebp]
	mov	eax, DWORD PTR [edx+16]
	push	eax
	mov	ecx, DWORD PTR _this$[ebp]
	mov	edx, DWORD PTR [ecx+12]
	push	edx
	mov	ecx, DWORD PTR _this$[ebp]
	call	?_Destroy@?$vector@VVector3@Ogre@@V?$allocator@VVector3@Ogre@@@std@@@std@@IAEXPAVVector3@Ogre@@0@Z ; std::vector<Ogre::Vector3,std::allocator<Ogre::Vector3> >::_Destroy

; 1198 : 				this->_Alval.deallocate(_Myfirst, _Myend - _Myfirst);

	mov	eax, DWORD PTR _this$[ebp]
	mov	ecx, DWORD PTR _this$[ebp]
	mov	eax, DWORD PTR [eax+20]
	sub	eax, DWORD PTR [ecx+12]
	cdq
	mov	ecx, 12					; 0000000cH
	idiv	ecx
	push	eax
	mov	edx, DWORD PTR _this$[ebp]
	mov	eax, DWORD PTR [edx+12]
	push	eax
	mov	ecx, DWORD PTR _this$[ebp]
	add	ecx, 8
	call	?deallocate@?$allocator@VVector3@Ogre@@@std@@QAEXPAVVector3@Ogre@@I@Z ; std::allocator<Ogre::Vector3>::deallocate
$LN5@Insert_n:

; 1199 : 				}
; 1200 : 
; 1201 :  #if _HAS_ITERATOR_DEBUGGING
; 1202 : 			this->_Orphan_all();
; 1203 :  #endif /* _HAS_ITERATOR_DEBUGGING */
; 1204 : 
; 1205 : 			_Myend = _Newvec + _Capacity;

	mov	ecx, DWORD PTR __Capacity$[ebp]
	imul	ecx, 12					; 0000000cH
	add	ecx, DWORD PTR __Newvec$64428[ebp]
	mov	edx, DWORD PTR _this$[ebp]
	mov	DWORD PTR [edx+20], ecx

; 1206 : 			_Mylast = _Newvec + _Count;

	mov	eax, DWORD PTR __Count$[ebp]
	imul	eax, 12					; 0000000cH
	add	eax, DWORD PTR __Newvec$64428[ebp]
	mov	ecx, DWORD PTR _this$[ebp]
	mov	DWORD PTR [ecx+16], eax

; 1207 : 			_Myfirst = _Newvec;

	mov	edx, DWORD PTR _this$[ebp]
	mov	eax, DWORD PTR __Newvec$64428[ebp]
	mov	DWORD PTR [edx+12], eax
	jmp	$LN16@Insert_n
$LN10@Insert_n:

; 1208 : 			}
; 1209 : 		else if ((size_type)(_Mylast - _VEC_ITER_BASE(_Where)) < _Count)

	mov	ecx, DWORD PTR _this$[ebp]
	mov	eax, DWORD PTR [ecx+16]
	sub	eax, DWORD PTR __Where$[ebp+4]
	cdq
	mov	ecx, 12					; 0000000cH
	idiv	ecx
	cmp	eax, DWORD PTR __Count$[ebp]
	jae	$LN3@Insert_n

; 1210 : 			{	// new stuff spills off end
; 1211 : 			_Ty _Tmp = _Val;	// in case _Val is in sequence

	mov	edx, DWORD PTR __Val$[ebp]
	push	edx
	lea	ecx, DWORD PTR __Tmp$64443[ebp]
	call	??0Vector3@Ogre@@QAE@ABV01@@Z		; Ogre::Vector3::Vector3

; 1212 : 
; 1213 : 			_Umove(_VEC_ITER_BASE(_Where), _Mylast,
; 1214 : 				_VEC_ITER_BASE(_Where) + _Count);	// copy suffix

	mov	eax, DWORD PTR __Count$[ebp]
	imul	eax, 12					; 0000000cH
	add	eax, DWORD PTR __Where$[ebp+4]
	push	eax
	mov	ecx, DWORD PTR _this$[ebp]
	mov	edx, DWORD PTR [ecx+16]
	push	edx
	mov	eax, DWORD PTR __Where$[ebp+4]
	push	eax
	mov	ecx, DWORD PTR _this$[ebp]
	call	??$_Umove@PAVVector3@Ogre@@@?$vector@VVector3@Ogre@@V?$allocator@VVector3@Ogre@@@std@@@std@@IAEPAVVector3@Ogre@@PAV23@00@Z ; std::vector<Ogre::Vector3,std::allocator<Ogre::Vector3> >::_Umove<Ogre::Vector3 *>

; 1215 : 
; 1216 : 			_TRY_BEGIN

	mov	DWORD PTR __$EHRec$[ebp+12], 2

; 1217 : 			_Ufill(_Mylast, _Count - (_Mylast - _VEC_ITER_BASE(_Where)),
; 1218 : 				_Tmp);	// insert new stuff off end

	lea	ecx, DWORD PTR __Tmp$64443[ebp]
	push	ecx
	mov	edx, DWORD PTR _this$[ebp]
	mov	eax, DWORD PTR [edx+16]
	sub	eax, DWORD PTR __Where$[ebp+4]
	cdq
	mov	ecx, 12					; 0000000cH
	idiv	ecx
	mov	edx, DWORD PTR __Count$[ebp]
	sub	edx, eax
	push	edx
	mov	eax, DWORD PTR _this$[ebp]
	mov	ecx, DWORD PTR [eax+16]
	push	ecx
	mov	ecx, DWORD PTR _this$[ebp]
	call	?_Ufill@?$vector@VVector3@Ogre@@V?$allocator@VVector3@Ogre@@@std@@@std@@IAEPAVVector3@Ogre@@PAV34@IABV34@@Z ; std::vector<Ogre::Vector3,std::allocator<Ogre::Vector3> >::_Ufill
	jmp	SHORT $LN21@Insert_n
__catch$?_Insert_n@?$vector@VVector3@Ogre@@V?$allocator@VVector3@Ogre@@@std@@@std@@IAEXV?$_Vector_const_iterator@VVector3@Ogre@@V?$allocator@VVector3@Ogre@@@std@@@2@IABVVector3@Ogre@@@Z$2:

; 1219 : 			_CATCH_ALL
; 1220 : 			_Destroy(_VEC_ITER_BASE(_Where) + _Count, _Mylast + _Count);

	mov	edx, DWORD PTR __Count$[ebp]
	imul	edx, 12					; 0000000cH
	mov	eax, DWORD PTR _this$[ebp]
	add	edx, DWORD PTR [eax+16]
	push	edx
	mov	ecx, DWORD PTR __Count$[ebp]
	imul	ecx, 12					; 0000000cH
	add	ecx, DWORD PTR __Where$[ebp+4]
	push	ecx
	mov	ecx, DWORD PTR _this$[ebp]
	call	?_Destroy@?$vector@VVector3@Ogre@@V?$allocator@VVector3@Ogre@@@std@@@std@@IAEXPAVVector3@Ogre@@0@Z ; std::vector<Ogre::Vector3,std::allocator<Ogre::Vector3> >::_Destroy

; 1221 : 			_RERAISE;

	push	0
	push	0
	call	__CxxThrowException@8

; 1222 : 			_CATCH_END

	mov	DWORD PTR __$EHRec$[ebp+12], -1
	mov	eax, __tryend$?_Insert_n@?$vector@VVector3@Ogre@@V?$allocator@VVector3@Ogre@@@std@@@std@@IAEXV?$_Vector_const_iterator@VVector3@Ogre@@V?$allocator@VVector3@Ogre@@@std@@@2@IABVVector3@Ogre@@@Z$3
	ret	0
$LN21@Insert_n:
	mov	DWORD PTR __$EHRec$[ebp+12], -1
__tryend$?_Insert_n@?$vector@VVector3@Ogre@@V?$allocator@VVector3@Ogre@@@std@@@std@@IAEXV?$_Vector_const_iterator@VVector3@Ogre@@V?$allocator@VVector3@Ogre@@@std@@@2@IABVVector3@Ogre@@@Z$3:

; 1223 : 
; 1224 : 			_Mylast += _Count;

	mov	edx, DWORD PTR __Count$[ebp]
	imul	edx, 12					; 0000000cH
	mov	eax, DWORD PTR _this$[ebp]
	add	edx, DWORD PTR [eax+16]
	mov	ecx, DWORD PTR _this$[ebp]
	mov	DWORD PTR [ecx+16], edx

; 1225 : 
; 1226 :  #if _HAS_ITERATOR_DEBUGGING
; 1227 : 			_Orphan_range(_Where._Myptr, _Mylast);
; 1228 :  #endif /* _HAS_ITERATOR_DEBUGGING */
; 1229 : 
; 1230 : 			std::fill(_VEC_ITER_BASE(_Where), _Mylast - _Count,
; 1231 : 				_Tmp);	// insert up to old end

	lea	edx, DWORD PTR __Tmp$64443[ebp]
	push	edx
	mov	eax, DWORD PTR __Count$[ebp]
	imul	eax, 12					; 0000000cH
	mov	ecx, DWORD PTR _this$[ebp]
	mov	edx, DWORD PTR [ecx+16]
	sub	edx, eax
	push	edx
	mov	eax, DWORD PTR __Where$[ebp+4]
	push	eax
	call	??$fill@PAVVector3@Ogre@@V12@@std@@YAXPAVVector3@Ogre@@0ABV12@@Z ; std::fill<Ogre::Vector3 *,Ogre::Vector3>
	add	esp, 12					; 0000000cH

; 1232 : 			}
; 1233 : 		else

	jmp	SHORT $LN16@Insert_n
$LN3@Insert_n:

; 1234 : 			{	// new stuff can all be assigned
; 1235 : 			_Ty _Tmp = _Val;	// in case _Val is in sequence

	mov	ecx, DWORD PTR __Val$[ebp]
	push	ecx
	lea	ecx, DWORD PTR __Tmp$64453[ebp]
	call	??0Vector3@Ogre@@QAE@ABV01@@Z		; Ogre::Vector3::Vector3

; 1236 : 
; 1237 : 			pointer _Oldend = _Mylast;

	mov	edx, DWORD PTR _this$[ebp]
	mov	eax, DWORD PTR [edx+16]
	mov	DWORD PTR __Oldend$64454[ebp], eax

; 1238 : 			_Mylast = _Umove(_Oldend - _Count, _Oldend,
; 1239 : 				_Mylast);	// copy suffix

	mov	ecx, DWORD PTR _this$[ebp]
	mov	edx, DWORD PTR [ecx+16]
	push	edx
	mov	eax, DWORD PTR __Oldend$64454[ebp]
	push	eax
	mov	ecx, DWORD PTR __Count$[ebp]
	imul	ecx, 12					; 0000000cH
	mov	edx, DWORD PTR __Oldend$64454[ebp]
	sub	edx, ecx
	push	edx
	mov	ecx, DWORD PTR _this$[ebp]
	call	??$_Umove@PAVVector3@Ogre@@@?$vector@VVector3@Ogre@@V?$allocator@VVector3@Ogre@@@std@@@std@@IAEPAVVector3@Ogre@@PAV23@00@Z ; std::vector<Ogre::Vector3,std::allocator<Ogre::Vector3> >::_Umove<Ogre::Vector3 *>
	mov	ecx, DWORD PTR _this$[ebp]
	mov	DWORD PTR [ecx+16], eax

; 1240 : 
; 1241 :  #if _HAS_ITERATOR_DEBUGGING
; 1242 : 			_Orphan_range(_Where._Myptr, _Mylast);
; 1243 :  #endif /* _HAS_ITERATOR_DEBUGGING */
; 1244 : 
; 1245 : 			_STDEXT _Unchecked_move_backward(_VEC_ITER_BASE(_Where), _Oldend - _Count,
; 1246 : 				_Oldend);	// copy hole

	mov	edx, DWORD PTR __Oldend$64454[ebp]
	push	edx
	mov	eax, DWORD PTR __Count$[ebp]
	imul	eax, 12					; 0000000cH
	mov	ecx, DWORD PTR __Oldend$64454[ebp]
	sub	ecx, eax
	push	ecx
	mov	edx, DWORD PTR __Where$[ebp+4]
	push	edx
	call	??$_Unchecked_move_backward@PAVVector3@Ogre@@PAV12@@stdext@@YAPAVVector3@Ogre@@PAV12@00@Z ; stdext::_Unchecked_move_backward<Ogre::Vector3 *,Ogre::Vector3 *>
	add	esp, 12					; 0000000cH

; 1247 : 			std::fill(_VEC_ITER_BASE(_Where), _VEC_ITER_BASE(_Where) + _Count,
; 1248 : 				_Tmp);	// insert into hole

	lea	eax, DWORD PTR __Tmp$64453[ebp]
	push	eax
	mov	ecx, DWORD PTR __Count$[ebp]
	imul	ecx, 12					; 0000000cH
	add	ecx, DWORD PTR __Where$[ebp+4]
	push	ecx
	mov	edx, DWORD PTR __Where$[ebp+4]
	push	edx
	call	??$fill@PAVVector3@Ogre@@V12@@std@@YAXPAVVector3@Ogre@@0ABV12@@Z ; std::fill<Ogre::Vector3 *,Ogre::Vector3>
	add	esp, 12					; 0000000cH
$LN16@Insert_n:

; 1249 : 			}
; 1250 : 		}

	mov	ecx, DWORD PTR __$EHRec$[ebp+4]
	mov	DWORD PTR fs:0, ecx
	pop	ecx
	pop	edi
	pop	esi
	pop	ebx
	mov	esp, ebp
	pop	ebp
	ret	16					; 00000010H
_TEXT	ENDS
;	COMDAT text$x
text$x	SEGMENT
__ehhandler$?_Insert_n@?$vector@VVector3@Ogre@@V?$allocator@VVector3@Ogre@@@std@@@std@@IAEXV?$_Vector_const_iterator@VVector3@Ogre@@V?$allocator@VVector3@Ogre@@@std@@@2@IABVVector3@Ogre@@@Z:
	mov	edx, DWORD PTR [esp+8]
	lea	eax, DWORD PTR [edx+12]
	mov	ecx, DWORD PTR [edx-72]
	xor	ecx, eax
	call	@__security_check_cookie@4
	mov	eax, OFFSET __ehfuncinfo$?_Insert_n@?$vector@VVector3@Ogre@@V?$allocator@VVector3@Ogre@@@std@@@std@@IAEXV?$_Vector_const_iterator@VVector3@Ogre@@V?$allocator@VVector3@Ogre@@@std@@@2@IABVVector3@Ogre@@@Z
	jmp	___CxxFrameHandler3
text$x	ENDS
?_Insert_n@?$vector@VVector3@Ogre@@V?$allocator@VVector3@Ogre@@@std@@@std@@IAEXV?$_Vector_const_iterator@VVector3@Ogre@@V?$allocator@VVector3@Ogre@@@std@@@2@IABVVector3@Ogre@@@Z ENDP ; std::vector<Ogre::Vector3,std::allocator<Ogre::Vector3> >::_Insert_n
PUBLIC	??Y?$_Vector_iterator@VVector3@Ogre@@V?$allocator@VVector3@Ogre@@@std@@@std@@QAEAAV01@H@Z ; std::_Vector_iterator<Ogre::Vector3,std::allocator<Ogre::Vector3> >::operator+=
; Function compile flags: /Odtp
;	COMDAT ??H?$_Vector_iterator@VVector3@Ogre@@V?$allocator@VVector3@Ogre@@@std@@@std@@QBE?AV01@H@Z
_TEXT	SEGMENT
_this$ = -12						; size = 4
__Tmp$ = -8						; size = 8
___$ReturnUdt$ = 8					; size = 4
__Off$ = 12						; size = 4
??H?$_Vector_iterator@VVector3@Ogre@@V?$allocator@VVector3@Ogre@@@std@@@std@@QBE?AV01@H@Z PROC ; std::_Vector_iterator<Ogre::Vector3,std::allocator<Ogre::Vector3> >::operator+, COMDAT
; _this$ = ecx

; 380  : 		{	// return this + integer

	push	ebp
	mov	ebp, esp
	sub	esp, 12					; 0000000cH
	mov	DWORD PTR _this$[ebp], ecx

; 381  : 		_Myt _Tmp = *this;

	mov	eax, DWORD PTR _this$[ebp]
	mov	ecx, DWORD PTR [eax]
	mov	edx, DWORD PTR [eax+4]
	mov	DWORD PTR __Tmp$[ebp], ecx
	mov	DWORD PTR __Tmp$[ebp+4], edx

; 382  : 		return (_Tmp += _Off);

	mov	eax, DWORD PTR __Off$[ebp]
	push	eax
	lea	ecx, DWORD PTR __Tmp$[ebp]
	call	??Y?$_Vector_iterator@VVector3@Ogre@@V?$allocator@VVector3@Ogre@@@std@@@std@@QAEAAV01@H@Z ; std::_Vector_iterator<Ogre::Vector3,std::allocator<Ogre::Vector3> >::operator+=
	mov	ecx, DWORD PTR [eax]
	mov	edx, DWORD PTR [eax+4]
	mov	eax, DWORD PTR ___$ReturnUdt$[ebp]
	mov	DWORD PTR [eax], ecx
	mov	DWORD PTR [eax+4], edx
	mov	eax, DWORD PTR ___$ReturnUdt$[ebp]

; 383  : 		}

	mov	esp, ebp
	pop	ebp
	ret	8
??H?$_Vector_iterator@VVector3@Ogre@@V?$allocator@VVector3@Ogre@@@std@@@std@@QBE?AV01@H@Z ENDP ; std::_Vector_iterator<Ogre::Vector3,std::allocator<Ogre::Vector3> >::operator+
_TEXT	ENDS
PUBLIC	??$unchecked_uninitialized_fill_n@PAVVector3@Ogre@@IV12@V?$allocator@VVector3@Ogre@@@std@@@stdext@@YAXPAVVector3@Ogre@@IABV12@AAV?$allocator@VVector3@Ogre@@@std@@@Z ; stdext::unchecked_uninitialized_fill_n<Ogre::Vector3 *,unsigned int,Ogre::Vector3,std::allocator<Ogre::Vector3> >
; Function compile flags: /Odtp
;	COMDAT ?_Ufill@?$vector@VVector3@Ogre@@V?$allocator@VVector3@Ogre@@@std@@@std@@IAEPAVVector3@Ogre@@PAV34@IABV34@@Z
_TEXT	SEGMENT
_this$ = -4						; size = 4
__Ptr$ = 8						; size = 4
__Count$ = 12						; size = 4
__Val$ = 16						; size = 4
?_Ufill@?$vector@VVector3@Ogre@@V?$allocator@VVector3@Ogre@@@std@@@std@@IAEPAVVector3@Ogre@@PAV34@IABV34@@Z PROC ; std::vector<Ogre::Vector3,std::allocator<Ogre::Vector3> >::_Ufill, COMDAT
; _this$ = ecx

; 1253 : 		{	// copy initializing _Count * _Val, using allocator

	push	ebp
	mov	ebp, esp
	push	ecx
	mov	DWORD PTR _this$[ebp], ecx

; 1254 : 		_STDEXT unchecked_uninitialized_fill_n(_Ptr, _Count, _Val, this->_Alval);

	mov	eax, DWORD PTR _this$[ebp]
	add	eax, 8
	push	eax
	mov	ecx, DWORD PTR __Val$[ebp]
	push	ecx
	mov	edx, DWORD PTR __Count$[ebp]
	push	edx
	mov	eax, DWORD PTR __Ptr$[ebp]
	push	eax
	call	??$unchecked_uninitialized_fill_n@PAVVector3@Ogre@@IV12@V?$allocator@VVector3@Ogre@@@std@@@stdext@@YAXPAVVector3@Ogre@@IABV12@AAV?$allocator@VVector3@Ogre@@@std@@@Z ; stdext::unchecked_uninitialized_fill_n<Ogre::Vector3 *,unsigned int,Ogre::Vector3,std::allocator<Ogre::Vector3> >
	add	esp, 16					; 00000010H

; 1255 : 		return (_Ptr + _Count);

	mov	eax, DWORD PTR __Count$[ebp]
	imul	eax, 12					; 0000000cH
	add	eax, DWORD PTR __Ptr$[ebp]

; 1256 : 		}

	mov	esp, ebp
	pop	ebp
	ret	12					; 0000000cH
?_Ufill@?$vector@VVector3@Ogre@@V?$allocator@VVector3@Ogre@@@std@@@std@@IAEPAVVector3@Ogre@@PAV34@IABV34@@Z ENDP ; std::vector<Ogre::Vector3,std::allocator<Ogre::Vector3> >::_Ufill
_TEXT	ENDS
PUBLIC	??Y?$_Vector_const_iterator@VVector3@Ogre@@V?$allocator@VVector3@Ogre@@@std@@@std@@QAEAAV01@H@Z ; std::_Vector_const_iterator<Ogre::Vector3,std::allocator<Ogre::Vector3> >::operator+=
; Function compile flags: /Odtp
;	COMDAT ??Y?$_Vector_iterator@VVector3@Ogre@@V?$allocator@VVector3@Ogre@@@std@@@std@@QAEAAV01@H@Z
_TEXT	SEGMENT
_this$ = -4						; size = 4
__Off$ = 8						; size = 4
??Y?$_Vector_iterator@VVector3@Ogre@@V?$allocator@VVector3@Ogre@@@std@@@std@@QAEAAV01@H@Z PROC ; std::_Vector_iterator<Ogre::Vector3,std::allocator<Ogre::Vector3> >::operator+=, COMDAT
; _this$ = ecx

; 374  : 		{	// increment by integer

	push	ebp
	mov	ebp, esp
	push	ecx
	mov	DWORD PTR _this$[ebp], ecx

; 375  : 		(*(_Mybase *)this) += _Off;

	mov	eax, DWORD PTR __Off$[ebp]
	push	eax
	mov	ecx, DWORD PTR _this$[ebp]
	call	??Y?$_Vector_const_iterator@VVector3@Ogre@@V?$allocator@VVector3@Ogre@@@std@@@std@@QAEAAV01@H@Z ; std::_Vector_const_iterator<Ogre::Vector3,std::allocator<Ogre::Vector3> >::operator+=

; 376  : 		return (*this);

	mov	eax, DWORD PTR _this$[ebp]

; 377  : 		}

	mov	esp, ebp
	pop	ebp
	ret	4
??Y?$_Vector_iterator@VVector3@Ogre@@V?$allocator@VVector3@Ogre@@@std@@@std@@QAEAAV01@H@Z ENDP ; std::_Vector_iterator<Ogre::Vector3,std::allocator<Ogre::Vector3> >::operator+=
_TEXT	ENDS
PUBLIC	?_Getmycont@_Iterator_base_aux@std@@QBEPBV_Container_base_aux@2@XZ ; std::_Iterator_base_aux::_Getmycont
; Function compile flags: /Odtp
;	COMDAT ??Y?$_Vector_const_iterator@VVector3@Ogre@@V?$allocator@VVector3@Ogre@@@std@@@std@@QAEAAV01@H@Z
_TEXT	SEGMENT
_this$ = -4						; size = 4
__Off$ = 8						; size = 4
??Y?$_Vector_const_iterator@VVector3@Ogre@@V?$allocator@VVector3@Ogre@@@std@@@std@@QAEAAV01@H@Z PROC ; std::_Vector_const_iterator<Ogre::Vector3,std::allocator<Ogre::Vector3> >::operator+=, COMDAT
; _this$ = ecx

; 159  : 		{	// increment by integer

	push	ebp
	mov	ebp, esp
	push	ecx
	push	esi
	mov	DWORD PTR _this$[ebp], ecx

; 160  : 		_SCL_SECURE_VALIDATE(this->_Has_container());

	mov	ecx, DWORD PTR _this$[ebp]
	call	?_Has_container@_Iterator_base_aux@std@@QBE_NXZ ; std::_Iterator_base_aux::_Has_container
	movzx	eax, al
	test	eax, eax
	jne	SHORT $LN3@operator@10
	call	DWORD PTR __imp___invalid_parameter_noinfo
$LN3@operator@10:

; 161  : 		_SCL_SECURE_VALIDATE_RANGE(

	mov	esi, DWORD PTR __Off$[ebp]
	imul	esi, 12					; 0000000cH
	mov	ecx, DWORD PTR _this$[ebp]
	add	esi, DWORD PTR [ecx+4]
	mov	ecx, DWORD PTR _this$[ebp]
	call	?_Getmycont@_Iterator_base_aux@std@@QBEPBV_Container_base_aux@2@XZ ; std::_Iterator_base_aux::_Getmycont
	cmp	esi, DWORD PTR [eax+16]
	ja	SHORT $LN1@operator@10
	mov	esi, DWORD PTR __Off$[ebp]
	imul	esi, 12					; 0000000cH
	mov	edx, DWORD PTR _this$[ebp]
	add	esi, DWORD PTR [edx+4]
	mov	ecx, DWORD PTR _this$[ebp]
	call	?_Getmycont@_Iterator_base_aux@std@@QBEPBV_Container_base_aux@2@XZ ; std::_Iterator_base_aux::_Getmycont
	cmp	esi, DWORD PTR [eax+12]
	jae	SHORT $LN2@operator@10
$LN1@operator@10:

; 162  : 			_Myptr + _Off <= ((_Myvec *)(this->_Getmycont()))->_Mylast &&
; 163  : 			_Myptr + _Off >= ((_Myvec *)(this->_Getmycont()))->_Myfirst);

	call	DWORD PTR __imp___invalid_parameter_noinfo
$LN2@operator@10:

; 164  : 		_Myptr += _Off;

	mov	eax, DWORD PTR __Off$[ebp]
	imul	eax, 12					; 0000000cH
	mov	ecx, DWORD PTR _this$[ebp]
	add	eax, DWORD PTR [ecx+4]
	mov	edx, DWORD PTR _this$[ebp]
	mov	DWORD PTR [edx+4], eax

; 165  : 		return (*this);

	mov	eax, DWORD PTR _this$[ebp]

; 166  : 		}

	pop	esi
	mov	esp, ebp
	pop	ebp
	ret	4
??Y?$_Vector_const_iterator@VVector3@Ogre@@V?$allocator@VVector3@Ogre@@@std@@@std@@QAEAAV01@H@Z ENDP ; std::_Vector_const_iterator<Ogre::Vector3,std::allocator<Ogre::Vector3> >::operator+=
_TEXT	ENDS
PUBLIC	?_Getcont@_Aux_cont@std@@QBEPBV_Container_base_aux@2@XZ ; std::_Aux_cont::_Getcont
; Function compile flags: /Odtp
; File d:\program files (x86)\microsoft visual studio 9.0\vc\include\xutility
;	COMDAT ?_Getmycont@_Iterator_base_aux@std@@QBEPBV_Container_base_aux@2@XZ
_TEXT	SEGMENT
tv67 = -8						; size = 4
_this$ = -4						; size = 4
?_Getmycont@_Iterator_base_aux@std@@QBEPBV_Container_base_aux@2@XZ PROC ; std::_Iterator_base_aux::_Getmycont, COMDAT
; _this$ = ecx

; 457  : 		{	// Go through the aux object to get the container

	push	ebp
	mov	ebp, esp
	sub	esp, 8
	mov	DWORD PTR _this$[ebp], ecx

; 458  : 		return _Myaux ? _Myaux->_Getcont() : 0;

	mov	eax, DWORD PTR _this$[ebp]
	cmp	DWORD PTR [eax], 0
	je	SHORT $LN3@Getmycont
	mov	ecx, DWORD PTR _this$[ebp]
	mov	ecx, DWORD PTR [ecx]
	call	?_Getcont@_Aux_cont@std@@QBEPBV_Container_base_aux@2@XZ ; std::_Aux_cont::_Getcont
	mov	DWORD PTR tv67[ebp], eax
	jmp	SHORT $LN4@Getmycont
$LN3@Getmycont:
	mov	DWORD PTR tv67[ebp], 0
$LN4@Getmycont:
	mov	eax, DWORD PTR tv67[ebp]

; 459  : 		}

	mov	esp, ebp
	pop	ebp
	ret	0
?_Getmycont@_Iterator_base_aux@std@@QBEPBV_Container_base_aux@2@XZ ENDP ; std::_Iterator_base_aux::_Getmycont
; Function compile flags: /Odtp
_TEXT	ENDS
;	COMDAT ?_Getcont@_Aux_cont@std@@QBEPBV_Container_base_aux@2@XZ
_TEXT	SEGMENT
_this$ = -4						; size = 4
?_Getcont@_Aux_cont@std@@QBEPBV_Container_base_aux@2@XZ PROC ; std::_Aux_cont::_Getcont, COMDAT
; _this$ = ecx

; 368  : 		{

	push	ebp
	mov	ebp, esp
	push	ecx
	mov	DWORD PTR _this$[ebp], ecx

; 369  : 		return _Mycontainer;

	mov	eax, DWORD PTR _this$[ebp]
	mov	eax, DWORD PTR [eax]

; 370  : 		}

	mov	esp, ebp
	pop	ebp
	ret	0
?_Getcont@_Aux_cont@std@@QBEPBV_Container_base_aux@2@XZ ENDP ; std::_Aux_cont::_Getcont
_TEXT	ENDS
PUBLIC	??$_Uninit_copy@PBDPADV?$allocator@D@std@@@std@@YAPADPBD0PADAAV?$allocator@D@0@U_Scalar_ptr_iterator_tag@0@U_Range_checked_iterator_tag@0@@Z ; std::_Uninit_copy<char const *,char *,std::allocator<char> >
PUBLIC	??$_Checked_base@V?$_Vector_const_iterator@DV?$allocator@D@std@@@std@@@std@@YAPBDAAV?$_Vector_const_iterator@DV?$allocator@D@std@@@0@@Z ; std::_Checked_base<std::_Vector_const_iterator<char,std::allocator<char> > >
PUBLIC	??$_Ptr_cat@V?$_Vector_const_iterator@DV?$allocator@D@std@@@std@@PAD@std@@YA?AU_Scalar_ptr_iterator_tag@0@AAV?$_Vector_const_iterator@DV?$allocator@D@std@@@0@AAPAD@Z ; std::_Ptr_cat<std::_Vector_const_iterator<char,std::allocator<char> >,char *>
; Function compile flags: /Odtp
; File d:\program files (x86)\microsoft visual studio 9.0\vc\include\memory
;	COMDAT ??$unchecked_uninitialized_copy@V?$_Vector_const_iterator@DV?$allocator@D@std@@@std@@PADV?$allocator@D@2@@stdext@@YAPADV?$_Vector_const_iterator@DV?$allocator@D@std@@@std@@0PADAAV?$allocator@D@2@@Z
_TEXT	SEGMENT
$T68607 = -2						; size = 1
$T68606 = -1						; size = 1
__First$ = 8						; size = 8
__Last$ = 16						; size = 8
__Dest$ = 24						; size = 4
__Al$ = 28						; size = 4
??$unchecked_uninitialized_copy@V?$_Vector_const_iterator@DV?$allocator@D@std@@@std@@PADV?$allocator@D@2@@stdext@@YAPADV?$_Vector_const_iterator@DV?$allocator@D@std@@@std@@0PADAAV?$allocator@D@2@@Z PROC ; stdext::unchecked_uninitialized_copy<std::_Vector_const_iterator<char,std::allocator<char> >,char *,std::allocator<char> >, COMDAT

; 819  : 	{	// copy [_First, _Last) to raw _Dest, using _Al

	push	ebp
	mov	ebp, esp
	push	ecx

; 820  : 	return (_STD _Uninit_copy(_CHECKED_BASE(_First),
; 821  : 		_CHECKED_BASE(_Last), _Dest, _Al,
; 822  : 		_STD _Ptr_cat(_First, _Dest), _STD _Range_checked_iterator_tag()));

	xor	eax, eax
	mov	BYTE PTR $T68606[ebp], al
	lea	ecx, DWORD PTR __Dest$[ebp]
	push	ecx
	lea	edx, DWORD PTR __First$[ebp]
	push	edx
	call	??$_Ptr_cat@V?$_Vector_const_iterator@DV?$allocator@D@std@@@std@@PAD@std@@YA?AU_Scalar_ptr_iterator_tag@0@AAV?$_Vector_const_iterator@DV?$allocator@D@std@@@0@AAPAD@Z ; std::_Ptr_cat<std::_Vector_const_iterator<char,std::allocator<char> >,char *>
	add	esp, 8
	mov	BYTE PTR $T68607[ebp], al
	movzx	eax, BYTE PTR $T68606[ebp]
	push	eax
	movzx	ecx, BYTE PTR $T68607[ebp]
	push	ecx
	mov	edx, DWORD PTR __Al$[ebp]
	push	edx
	mov	eax, DWORD PTR __Dest$[ebp]
	push	eax
	lea	ecx, DWORD PTR __Last$[ebp]
	push	ecx
	call	??$_Checked_base@V?$_Vector_const_iterator@DV?$allocator@D@std@@@std@@@std@@YAPBDAAV?$_Vector_const_iterator@DV?$allocator@D@std@@@0@@Z ; std::_Checked_base<std::_Vector_const_iterator<char,std::allocator<char> > >
	add	esp, 4
	push	eax
	lea	edx, DWORD PTR __First$[ebp]
	push	edx
	call	??$_Checked_base@V?$_Vector_const_iterator@DV?$allocator@D@std@@@std@@@std@@YAPBDAAV?$_Vector_const_iterator@DV?$allocator@D@std@@@0@@Z ; std::_Checked_base<std::_Vector_const_iterator<char,std::allocator<char> > >
	add	esp, 4
	push	eax
	call	??$_Uninit_copy@PBDPADV?$allocator@D@std@@@std@@YAPADPBD0PADAAV?$allocator@D@0@U_Scalar_ptr_iterator_tag@0@U_Range_checked_iterator_tag@0@@Z ; std::_Uninit_copy<char const *,char *,std::allocator<char> >
	add	esp, 24					; 00000018H

; 823  : 	}

	mov	esp, ebp
	pop	ebp
	ret	0
??$unchecked_uninitialized_copy@V?$_Vector_const_iterator@DV?$allocator@D@std@@@std@@PADV?$allocator@D@2@@stdext@@YAPADV?$_Vector_const_iterator@DV?$allocator@D@std@@@std@@0PADAAV?$allocator@D@2@@Z ENDP ; stdext::unchecked_uninitialized_copy<std::_Vector_const_iterator<char,std::allocator<char> >,char *,std::allocator<char> >
_TEXT	ENDS
PUBLIC	??$_Checked_base@PAD@std@@YAPADAAPADU_Unchanged_checked_iterator_base_type_tag@0@@Z ; std::_Checked_base<char *>
; Function compile flags: /Odtp
; File d:\program files (x86)\microsoft visual studio 9.0\vc\include\xutility
;	COMDAT ??$_Checked_base@PAD@std@@YAPADAAPAD@Z
_TEXT	SEGMENT
__Base_tag$ = -1					; size = 1
__It$ = 8						; size = 4
??$_Checked_base@PAD@std@@YAPADAAPAD@Z PROC		; std::_Checked_base<char *>, COMDAT

; 1163 : 	{

	push	ebp
	mov	ebp, esp
	push	ecx

; 1164 : 		typename _Checked_iterator_base_helper<_Iter>::_Checked_iterator_base_type_tag _Base_tag;
; 1165 : 		return _Checked_base(_It, _Base_tag);

	movzx	eax, BYTE PTR __Base_tag$[ebp]
	push	eax
	mov	ecx, DWORD PTR __It$[ebp]
	push	ecx
	call	??$_Checked_base@PAD@std@@YAPADAAPADU_Unchanged_checked_iterator_base_type_tag@0@@Z ; std::_Checked_base<char *>
	add	esp, 8

; 1166 : 	}

	mov	esp, ebp
	pop	ebp
	ret	0
??$_Checked_base@PAD@std@@YAPADAAPAD@Z ENDP		; std::_Checked_base<char *>
; Function compile flags: /Odtp
_TEXT	ENDS
;	COMDAT ??$_Iter_random@PADPAD@std@@YA?AUrandom_access_iterator_tag@0@ABQAD0@Z
_TEXT	SEGMENT
___$ReturnUdt$ = 8					; size = 4
___formal$ = 12						; size = 4
___formal$ = 16						; size = 4
??$_Iter_random@PADPAD@std@@YA?AUrandom_access_iterator_tag@0@ABQAD0@Z PROC ; std::_Iter_random<char *,char *>, COMDAT

; 993  : 	{	// return category from iterator argument

	push	ebp
	mov	ebp, esp
	push	ecx

; 994  : 	typename _Iter_random_helper<
; 995  : 		iterator_traits<_Iter1>::iterator_category, 
; 996  : 		iterator_traits<_Iter2>::iterator_category>::_Iter_random_cat _Cat;
; 997  : 	return (_Cat);

	mov	eax, DWORD PTR ___$ReturnUdt$[ebp]

; 998  : 	}

	mov	esp, ebp
	pop	ebp
	ret	0
??$_Iter_random@PADPAD@std@@YA?AUrandom_access_iterator_tag@0@ABQAD0@Z ENDP ; std::_Iter_random<char *,char *>
; Function compile flags: /Odtp
_TEXT	ENDS
;	COMDAT ??$_Ptr_cat@PADPAD@std@@YA?AU_Scalar_ptr_iterator_tag@0@AAPAD0@Z
_TEXT	SEGMENT
__Cat$ = -1						; size = 1
___formal$ = 8						; size = 4
___formal$ = 12						; size = 4
??$_Ptr_cat@PADPAD@std@@YA?AU_Scalar_ptr_iterator_tag@0@AAPAD0@Z PROC ; std::_Ptr_cat<char *,char *>, COMDAT

; 1509 : 	{

	push	ebp
	mov	ebp, esp
	push	ecx

; 1510 : 	typename _Ptr_cat_helper<_T1, _T2>::_Ptr_cat _Cat;
; 1511 : 	return (_Cat);

	mov	al, BYTE PTR __Cat$[ebp]

; 1512 : 	}

	mov	esp, ebp
	pop	ebp
	ret	0
??$_Ptr_cat@PADPAD@std@@YA?AU_Scalar_ptr_iterator_tag@0@AAPAD0@Z ENDP ; std::_Ptr_cat<char *,char *>
_TEXT	ENDS
EXTRN	__imp__memmove_s:PROC
; Function compile flags: /Odtp
;	COMDAT ??$_Copy_opt@PADPADUrandom_access_iterator_tag@std@@@std@@YAPADPAD00Urandom_access_iterator_tag@0@U_Scalar_ptr_iterator_tag@0@U_Range_checked_iterator_tag@0@@Z
_TEXT	SEGMENT
__Off$ = -8						; size = 4
__Result$ = -4						; size = 4
__First$ = 8						; size = 4
__Last$ = 12						; size = 4
__Dest$ = 16						; size = 4
___formal$ = 20						; size = 1
___formal$ = 24						; size = 1
___formal$ = 28						; size = 1
??$_Copy_opt@PADPADUrandom_access_iterator_tag@std@@@std@@YAPADPAD00Urandom_access_iterator_tag@0@U_Scalar_ptr_iterator_tag@0@U_Range_checked_iterator_tag@0@@Z PROC ; std::_Copy_opt<char *,char *,std::random_access_iterator_tag>, COMDAT

; 2494 : 	{	// copy [_First, _Last) to [_Dest, ...), pointers to scalars

	push	ebp
	mov	ebp, esp
	sub	esp, 8

; 2495 : 
; 2496 :  #if _HAS_ITERATOR_DEBUGGING
; 2497 : 	_DEBUG_RANGE(_First, _Last);
; 2498 : 	if (_First != _Last)
; 2499 : 		_DEBUG_POINTER(_Dest);
; 2500 :  #endif /* _HAS_ITERATOR_DEBUGGING */
; 2501 : 
; 2502 : 	ptrdiff_t _Off = _Last - _First;	// NB: non-overlapping move

	mov	eax, DWORD PTR __Last$[ebp]
	sub	eax, DWORD PTR __First$[ebp]
	mov	DWORD PTR __Off$[ebp], eax

; 2503 : 	// if _OutIt is range checked, this will make sure there is enough space for the memmove
; 2504 : 	_OutIt _Result = _Dest + _Off;

	mov	ecx, DWORD PTR __Dest$[ebp]
	add	ecx, DWORD PTR __Off$[ebp]
	mov	DWORD PTR __Result$[ebp], ecx

; 2505 : 	if (_Off > 0)

	cmp	DWORD PTR __Off$[ebp], 0
	jle	SHORT $LN1@Copy_opt

; 2506 : 		_CRT_SECURE_MEMMOVE(&*_Dest, _Off * sizeof (*_First), &*_First, _Off * sizeof (*_First));

	mov	edx, DWORD PTR __Off$[ebp]
	push	edx
	mov	eax, DWORD PTR __First$[ebp]
	push	eax
	mov	ecx, DWORD PTR __Off$[ebp]
	push	ecx
	mov	edx, DWORD PTR __Dest$[ebp]
	push	edx
	call	DWORD PTR __imp__memmove_s
	add	esp, 16					; 00000010H
$LN1@Copy_opt:

; 2507 : 	return _Result;

	mov	eax, DWORD PTR __Result$[ebp]

; 2508 : 	}

	mov	esp, ebp
	pop	ebp
	ret	0
??$_Copy_opt@PADPADUrandom_access_iterator_tag@std@@@std@@YAPADPAD00Urandom_access_iterator_tag@0@U_Scalar_ptr_iterator_tag@0@U_Range_checked_iterator_tag@0@@Z ENDP ; std::_Copy_opt<char *,char *,std::random_access_iterator_tag>
_TEXT	ENDS
PUBLIC	??$_Uninit_copy@PADPADV?$allocator@D@std@@@std@@YAPADPAD00AAV?$allocator@D@0@U_Scalar_ptr_iterator_tag@0@U_Range_checked_iterator_tag@0@@Z ; std::_Uninit_copy<char *,char *,std::allocator<char> >
; Function compile flags: /Odtp
; File d:\program files (x86)\microsoft visual studio 9.0\vc\include\memory
;	COMDAT ??$unchecked_uninitialized_copy@PADPADV?$allocator@D@std@@@stdext@@YAPADPAD00AAV?$allocator@D@std@@@Z
_TEXT	SEGMENT
$T68619 = -2						; size = 1
$T68618 = -1						; size = 1
__First$ = 8						; size = 4
__Last$ = 12						; size = 4
__Dest$ = 16						; size = 4
__Al$ = 20						; size = 4
??$unchecked_uninitialized_copy@PADPADV?$allocator@D@std@@@stdext@@YAPADPAD00AAV?$allocator@D@std@@@Z PROC ; stdext::unchecked_uninitialized_copy<char *,char *,std::allocator<char> >, COMDAT

; 819  : 	{	// copy [_First, _Last) to raw _Dest, using _Al

	push	ebp
	mov	ebp, esp
	push	ecx

; 820  : 	return (_STD _Uninit_copy(_CHECKED_BASE(_First),
; 821  : 		_CHECKED_BASE(_Last), _Dest, _Al,
; 822  : 		_STD _Ptr_cat(_First, _Dest), _STD _Range_checked_iterator_tag()));

	xor	eax, eax
	mov	BYTE PTR $T68618[ebp], al
	lea	ecx, DWORD PTR __Dest$[ebp]
	push	ecx
	lea	edx, DWORD PTR __First$[ebp]
	push	edx
	call	??$_Ptr_cat@PADPAD@std@@YA?AU_Scalar_ptr_iterator_tag@0@AAPAD0@Z ; std::_Ptr_cat<char *,char *>
	add	esp, 8
	mov	BYTE PTR $T68619[ebp], al
	movzx	eax, BYTE PTR $T68618[ebp]
	push	eax
	movzx	ecx, BYTE PTR $T68619[ebp]
	push	ecx
	mov	edx, DWORD PTR __Al$[ebp]
	push	edx
	mov	eax, DWORD PTR __Dest$[ebp]
	push	eax
	lea	ecx, DWORD PTR __Last$[ebp]
	push	ecx
	call	??$_Checked_base@PAD@std@@YAPADAAPAD@Z	; std::_Checked_base<char *>
	add	esp, 4
	push	eax
	lea	edx, DWORD PTR __First$[ebp]
	push	edx
	call	??$_Checked_base@PAD@std@@YAPADAAPAD@Z	; std::_Checked_base<char *>
	add	esp, 4
	push	eax
	call	??$_Uninit_copy@PADPADV?$allocator@D@std@@@std@@YAPADPAD00AAV?$allocator@D@0@U_Scalar_ptr_iterator_tag@0@U_Range_checked_iterator_tag@0@@Z ; std::_Uninit_copy<char *,char *,std::allocator<char> >
	add	esp, 24					; 00000018H

; 823  : 	}

	mov	esp, ebp
	pop	ebp
	ret	0
??$unchecked_uninitialized_copy@PADPADV?$allocator@D@std@@@stdext@@YAPADPAD00AAV?$allocator@D@std@@@Z ENDP ; stdext::unchecked_uninitialized_copy<char *,char *,std::allocator<char> >
_TEXT	ENDS
PUBLIC	??$_Uninit_copy@PBQAVSurfaceData@Ogre@@PAPAV12@V?$allocator@PAVSurfaceData@Ogre@@@std@@@std@@YAPAPAVSurfaceData@Ogre@@PBQAV12@0PAPAV12@AAV?$allocator@PAVSurfaceData@Ogre@@@0@U_Scalar_ptr_iterator_tag@0@U_Range_checked_iterator_tag@0@@Z ; std::_Uninit_copy<Ogre::SurfaceData * const *,Ogre::SurfaceData * *,std::allocator<Ogre::SurfaceData *> >
PUBLIC	??$_Checked_base@V?$_Vector_const_iterator@PAVSurfaceData@Ogre@@V?$allocator@PAVSurfaceData@Ogre@@@std@@@std@@@std@@YAPBQAVSurfaceData@Ogre@@AAV?$_Vector_const_iterator@PAVSurfaceData@Ogre@@V?$allocator@PAVSurfaceData@Ogre@@@std@@@0@@Z ; std::_Checked_base<std::_Vector_const_iterator<Ogre::SurfaceData *,std::allocator<Ogre::SurfaceData *> > >
PUBLIC	??$_Ptr_cat@V?$_Vector_const_iterator@PAVSurfaceData@Ogre@@V?$allocator@PAVSurfaceData@Ogre@@@std@@@std@@PAPAVSurfaceData@Ogre@@@std@@YA?AU_Scalar_ptr_iterator_tag@0@AAV?$_Vector_const_iterator@PAVSurfaceData@Ogre@@V?$allocator@PAVSurfaceData@Ogre@@@std@@@0@AAPAPAVSurfaceData@Ogre@@@Z ; std::_Ptr_cat<std::_Vector_const_iterator<Ogre::SurfaceData *,std::allocator<Ogre::SurfaceData *> >,Ogre::SurfaceData * *>
; Function compile flags: /Odtp
;	COMDAT ??$unchecked_uninitialized_copy@V?$_Vector_const_iterator@PAVSurfaceData@Ogre@@V?$allocator@PAVSurfaceData@Ogre@@@std@@@std@@PAPAVSurfaceData@Ogre@@V?$allocator@PAVSurfaceData@Ogre@@@2@@stdext@@YAPAPAVSurfaceData@Ogre@@V?$_Vector_const_iterator@PAVSurfaceData@Ogre@@V?$allocator@PAVSurfaceData@Ogre@@@std@@@std@@0PAPAV12@AAV?$allocator@PAVSurfaceData@Ogre@@@4@@Z
_TEXT	SEGMENT
$T68623 = -2						; size = 1
$T68622 = -1						; size = 1
__First$ = 8						; size = 8
__Last$ = 16						; size = 8
__Dest$ = 24						; size = 4
__Al$ = 28						; size = 4
??$unchecked_uninitialized_copy@V?$_Vector_const_iterator@PAVSurfaceData@Ogre@@V?$allocator@PAVSurfaceData@Ogre@@@std@@@std@@PAPAVSurfaceData@Ogre@@V?$allocator@PAVSurfaceData@Ogre@@@2@@stdext@@YAPAPAVSurfaceData@Ogre@@V?$_Vector_const_iterator@PAVSurfaceData@Ogre@@V?$allocator@PAVSurfaceData@Ogre@@@std@@@std@@0PAPAV12@AAV?$allocator@PAVSurfaceData@Ogre@@@4@@Z PROC ; stdext::unchecked_uninitialized_copy<std::_Vector_const_iterator<Ogre::SurfaceData *,std::allocator<Ogre::SurfaceData *> >,Ogre::SurfaceData * *,std::allocator<Ogre::SurfaceData *> >, COMDAT

; 819  : 	{	// copy [_First, _Last) to raw _Dest, using _Al

	push	ebp
	mov	ebp, esp
	push	ecx

; 820  : 	return (_STD _Uninit_copy(_CHECKED_BASE(_First),
; 821  : 		_CHECKED_BASE(_Last), _Dest, _Al,
; 822  : 		_STD _Ptr_cat(_First, _Dest), _STD _Range_checked_iterator_tag()));

	xor	eax, eax
	mov	BYTE PTR $T68622[ebp], al
	lea	ecx, DWORD PTR __Dest$[ebp]
	push	ecx
	lea	edx, DWORD PTR __First$[ebp]
	push	edx
	call	??$_Ptr_cat@V?$_Vector_const_iterator@PAVSurfaceData@Ogre@@V?$allocator@PAVSurfaceData@Ogre@@@std@@@std@@PAPAVSurfaceData@Ogre@@@std@@YA?AU_Scalar_ptr_iterator_tag@0@AAV?$_Vector_const_iterator@PAVSurfaceData@Ogre@@V?$allocator@PAVSurfaceData@Ogre@@@std@@@0@AAPAPAVSurfaceData@Ogre@@@Z ; std::_Ptr_cat<std::_Vector_const_iterator<Ogre::SurfaceData *,std::allocator<Ogre::SurfaceData *> >,Ogre::SurfaceData * *>
	add	esp, 8
	mov	BYTE PTR $T68623[ebp], al
	movzx	eax, BYTE PTR $T68622[ebp]
	push	eax
	movzx	ecx, BYTE PTR $T68623[ebp]
	push	ecx
	mov	edx, DWORD PTR __Al$[ebp]
	push	edx
	mov	eax, DWORD PTR __Dest$[ebp]
	push	eax
	lea	ecx, DWORD PTR __Last$[ebp]
	push	ecx
	call	??$_Checked_base@V?$_Vector_const_iterator@PAVSurfaceData@Ogre@@V?$allocator@PAVSurfaceData@Ogre@@@std@@@std@@@std@@YAPBQAVSurfaceData@Ogre@@AAV?$_Vector_const_iterator@PAVSurfaceData@Ogre@@V?$allocator@PAVSurfaceData@Ogre@@@std@@@0@@Z ; std::_Checked_base<std::_Vector_const_iterator<Ogre::SurfaceData *,std::allocator<Ogre::SurfaceData *> > >
	add	esp, 4
	push	eax
	lea	edx, DWORD PTR __First$[ebp]
	push	edx
	call	??$_Checked_base@V?$_Vector_const_iterator@PAVSurfaceData@Ogre@@V?$allocator@PAVSurfaceData@Ogre@@@std@@@std@@@std@@YAPBQAVSurfaceData@Ogre@@AAV?$_Vector_const_iterator@PAVSurfaceData@Ogre@@V?$allocator@PAVSurfaceData@Ogre@@@std@@@0@@Z ; std::_Checked_base<std::_Vector_const_iterator<Ogre::SurfaceData *,std::allocator<Ogre::SurfaceData *> > >
	add	esp, 4
	push	eax
	call	??$_Uninit_copy@PBQAVSurfaceData@Ogre@@PAPAV12@V?$allocator@PAVSurfaceData@Ogre@@@std@@@std@@YAPAPAVSurfaceData@Ogre@@PBQAV12@0PAPAV12@AAV?$allocator@PAVSurfaceData@Ogre@@@0@U_Scalar_ptr_iterator_tag@0@U_Range_checked_iterator_tag@0@@Z ; std::_Uninit_copy<Ogre::SurfaceData * const *,Ogre::SurfaceData * *,std::allocator<Ogre::SurfaceData *> >
	add	esp, 24					; 00000018H

; 823  : 	}

	mov	esp, ebp
	pop	ebp
	ret	0
??$unchecked_uninitialized_copy@V?$_Vector_const_iterator@PAVSurfaceData@Ogre@@V?$allocator@PAVSurfaceData@Ogre@@@std@@@std@@PAPAVSurfaceData@Ogre@@V?$allocator@PAVSurfaceData@Ogre@@@2@@stdext@@YAPAPAVSurfaceData@Ogre@@V?$_Vector_const_iterator@PAVSurfaceData@Ogre@@V?$allocator@PAVSurfaceData@Ogre@@@std@@@std@@0PAPAV12@AAV?$allocator@PAVSurfaceData@Ogre@@@4@@Z ENDP ; stdext::unchecked_uninitialized_copy<std::_Vector_const_iterator<Ogre::SurfaceData *,std::allocator<Ogre::SurfaceData *> >,Ogre::SurfaceData * *,std::allocator<Ogre::SurfaceData *> >
_TEXT	ENDS
PUBLIC	??$_Checked_base@PAPAVSurfaceData@Ogre@@@std@@YAPAPAVSurfaceData@Ogre@@AAPAPAV12@U_Unchanged_checked_iterator_base_type_tag@0@@Z ; std::_Checked_base<Ogre::SurfaceData * *>
; Function compile flags: /Odtp
; File d:\program files (x86)\microsoft visual studio 9.0\vc\include\xutility
;	COMDAT ??$_Checked_base@PAPAVSurfaceData@Ogre@@@std@@YAPAPAVSurfaceData@Ogre@@AAPAPAV12@@Z
_TEXT	SEGMENT
__Base_tag$ = -1					; size = 1
__It$ = 8						; size = 4
??$_Checked_base@PAPAVSurfaceData@Ogre@@@std@@YAPAPAVSurfaceData@Ogre@@AAPAPAV12@@Z PROC ; std::_Checked_base<Ogre::SurfaceData * *>, COMDAT

; 1163 : 	{

	push	ebp
	mov	ebp, esp
	push	ecx

; 1164 : 		typename _Checked_iterator_base_helper<_Iter>::_Checked_iterator_base_type_tag _Base_tag;
; 1165 : 		return _Checked_base(_It, _Base_tag);

	movzx	eax, BYTE PTR __Base_tag$[ebp]
	push	eax
	mov	ecx, DWORD PTR __It$[ebp]
	push	ecx
	call	??$_Checked_base@PAPAVSurfaceData@Ogre@@@std@@YAPAPAVSurfaceData@Ogre@@AAPAPAV12@U_Unchanged_checked_iterator_base_type_tag@0@@Z ; std::_Checked_base<Ogre::SurfaceData * *>
	add	esp, 8

; 1166 : 	}

	mov	esp, ebp
	pop	ebp
	ret	0
??$_Checked_base@PAPAVSurfaceData@Ogre@@@std@@YAPAPAVSurfaceData@Ogre@@AAPAPAV12@@Z ENDP ; std::_Checked_base<Ogre::SurfaceData * *>
; Function compile flags: /Odtp
_TEXT	ENDS
;	COMDAT ??$_Iter_random@PAPAVSurfaceData@Ogre@@PAPAV12@@std@@YA?AUrandom_access_iterator_tag@0@ABQAPAVSurfaceData@Ogre@@0@Z
_TEXT	SEGMENT
___$ReturnUdt$ = 8					; size = 4
___formal$ = 12						; size = 4
___formal$ = 16						; size = 4
??$_Iter_random@PAPAVSurfaceData@Ogre@@PAPAV12@@std@@YA?AUrandom_access_iterator_tag@0@ABQAPAVSurfaceData@Ogre@@0@Z PROC ; std::_Iter_random<Ogre::SurfaceData * *,Ogre::SurfaceData * *>, COMDAT

; 993  : 	{	// return category from iterator argument

	push	ebp
	mov	ebp, esp
	push	ecx

; 994  : 	typename _Iter_random_helper<
; 995  : 		iterator_traits<_Iter1>::iterator_category, 
; 996  : 		iterator_traits<_Iter2>::iterator_category>::_Iter_random_cat _Cat;
; 997  : 	return (_Cat);

	mov	eax, DWORD PTR ___$ReturnUdt$[ebp]

; 998  : 	}

	mov	esp, ebp
	pop	ebp
	ret	0
??$_Iter_random@PAPAVSurfaceData@Ogre@@PAPAV12@@std@@YA?AUrandom_access_iterator_tag@0@ABQAPAVSurfaceData@Ogre@@0@Z ENDP ; std::_Iter_random<Ogre::SurfaceData * *,Ogre::SurfaceData * *>
; Function compile flags: /Odtp
_TEXT	ENDS
;	COMDAT ??$_Ptr_cat@PAPAVSurfaceData@Ogre@@PAPAV12@@std@@YA?AU_Scalar_ptr_iterator_tag@0@AAPAPAVSurfaceData@Ogre@@0@Z
_TEXT	SEGMENT
__Cat$ = -1						; size = 1
___formal$ = 8						; size = 4
___formal$ = 12						; size = 4
??$_Ptr_cat@PAPAVSurfaceData@Ogre@@PAPAV12@@std@@YA?AU_Scalar_ptr_iterator_tag@0@AAPAPAVSurfaceData@Ogre@@0@Z PROC ; std::_Ptr_cat<Ogre::SurfaceData * *,Ogre::SurfaceData * *>, COMDAT

; 1509 : 	{

	push	ebp
	mov	ebp, esp
	push	ecx

; 1510 : 	typename _Ptr_cat_helper<_T1, _T2>::_Ptr_cat _Cat;
; 1511 : 	return (_Cat);

	mov	al, BYTE PTR __Cat$[ebp]

; 1512 : 	}

	mov	esp, ebp
	pop	ebp
	ret	0
??$_Ptr_cat@PAPAVSurfaceData@Ogre@@PAPAV12@@std@@YA?AU_Scalar_ptr_iterator_tag@0@AAPAPAVSurfaceData@Ogre@@0@Z ENDP ; std::_Ptr_cat<Ogre::SurfaceData * *,Ogre::SurfaceData * *>
; Function compile flags: /Odtp
_TEXT	ENDS
;	COMDAT ??$_Copy_opt@PAPAVSurfaceData@Ogre@@PAPAV12@Urandom_access_iterator_tag@std@@@std@@YAPAPAVSurfaceData@Ogre@@PAPAV12@00Urandom_access_iterator_tag@0@U_Scalar_ptr_iterator_tag@0@U_Range_checked_iterator_tag@0@@Z
_TEXT	SEGMENT
__Off$ = -8						; size = 4
__Result$ = -4						; size = 4
__First$ = 8						; size = 4
__Last$ = 12						; size = 4
__Dest$ = 16						; size = 4
___formal$ = 20						; size = 1
___formal$ = 24						; size = 1
___formal$ = 28						; size = 1
??$_Copy_opt@PAPAVSurfaceData@Ogre@@PAPAV12@Urandom_access_iterator_tag@std@@@std@@YAPAPAVSurfaceData@Ogre@@PAPAV12@00Urandom_access_iterator_tag@0@U_Scalar_ptr_iterator_tag@0@U_Range_checked_iterator_tag@0@@Z PROC ; std::_Copy_opt<Ogre::SurfaceData * *,Ogre::SurfaceData * *,std::random_access_iterator_tag>, COMDAT

; 2494 : 	{	// copy [_First, _Last) to [_Dest, ...), pointers to scalars

	push	ebp
	mov	ebp, esp
	sub	esp, 8

; 2495 : 
; 2496 :  #if _HAS_ITERATOR_DEBUGGING
; 2497 : 	_DEBUG_RANGE(_First, _Last);
; 2498 : 	if (_First != _Last)
; 2499 : 		_DEBUG_POINTER(_Dest);
; 2500 :  #endif /* _HAS_ITERATOR_DEBUGGING */
; 2501 : 
; 2502 : 	ptrdiff_t _Off = _Last - _First;	// NB: non-overlapping move

	mov	eax, DWORD PTR __Last$[ebp]
	sub	eax, DWORD PTR __First$[ebp]
	sar	eax, 2
	mov	DWORD PTR __Off$[ebp], eax

; 2503 : 	// if _OutIt is range checked, this will make sure there is enough space for the memmove
; 2504 : 	_OutIt _Result = _Dest + _Off;

	mov	ecx, DWORD PTR __Off$[ebp]
	mov	edx, DWORD PTR __Dest$[ebp]
	lea	eax, DWORD PTR [edx+ecx*4]
	mov	DWORD PTR __Result$[ebp], eax

; 2505 : 	if (_Off > 0)

	cmp	DWORD PTR __Off$[ebp], 0
	jle	SHORT $LN1@Copy_opt@2

; 2506 : 		_CRT_SECURE_MEMMOVE(&*_Dest, _Off * sizeof (*_First), &*_First, _Off * sizeof (*_First));

	mov	ecx, DWORD PTR __Off$[ebp]
	shl	ecx, 2
	push	ecx
	mov	edx, DWORD PTR __First$[ebp]
	push	edx
	mov	eax, DWORD PTR __Off$[ebp]
	shl	eax, 2
	push	eax
	mov	ecx, DWORD PTR __Dest$[ebp]
	push	ecx
	call	DWORD PTR __imp__memmove_s
	add	esp, 16					; 00000010H
$LN1@Copy_opt@2:

; 2507 : 	return _Result;

	mov	eax, DWORD PTR __Result$[ebp]

; 2508 : 	}

	mov	esp, ebp
	pop	ebp
	ret	0
??$_Copy_opt@PAPAVSurfaceData@Ogre@@PAPAV12@Urandom_access_iterator_tag@std@@@std@@YAPAPAVSurfaceData@Ogre@@PAPAV12@00Urandom_access_iterator_tag@0@U_Scalar_ptr_iterator_tag@0@U_Range_checked_iterator_tag@0@@Z ENDP ; std::_Copy_opt<Ogre::SurfaceData * *,Ogre::SurfaceData * *,std::random_access_iterator_tag>
_TEXT	ENDS
PUBLIC	??$_Uninit_copy@PAPAVSurfaceData@Ogre@@PAPAV12@V?$allocator@PAVSurfaceData@Ogre@@@std@@@std@@YAPAPAVSurfaceData@Ogre@@PAPAV12@00AAV?$allocator@PAVSurfaceData@Ogre@@@0@U_Scalar_ptr_iterator_tag@0@U_Range_checked_iterator_tag@0@@Z ; std::_Uninit_copy<Ogre::SurfaceData * *,Ogre::SurfaceData * *,std::allocator<Ogre::SurfaceData *> >
; Function compile flags: /Odtp
; File d:\program files (x86)\microsoft visual studio 9.0\vc\include\memory
;	COMDAT ??$unchecked_uninitialized_copy@PAPAVSurfaceData@Ogre@@PAPAV12@V?$allocator@PAVSurfaceData@Ogre@@@std@@@stdext@@YAPAPAVSurfaceData@Ogre@@PAPAV12@00AAV?$allocator@PAVSurfaceData@Ogre@@@std@@@Z
_TEXT	SEGMENT
$T68635 = -2						; size = 1
$T68634 = -1						; size = 1
__First$ = 8						; size = 4
__Last$ = 12						; size = 4
__Dest$ = 16						; size = 4
__Al$ = 20						; size = 4
??$unchecked_uninitialized_copy@PAPAVSurfaceData@Ogre@@PAPAV12@V?$allocator@PAVSurfaceData@Ogre@@@std@@@stdext@@YAPAPAVSurfaceData@Ogre@@PAPAV12@00AAV?$allocator@PAVSurfaceData@Ogre@@@std@@@Z PROC ; stdext::unchecked_uninitialized_copy<Ogre::SurfaceData * *,Ogre::SurfaceData * *,std::allocator<Ogre::SurfaceData *> >, COMDAT

; 819  : 	{	// copy [_First, _Last) to raw _Dest, using _Al

	push	ebp
	mov	ebp, esp
	push	ecx

; 820  : 	return (_STD _Uninit_copy(_CHECKED_BASE(_First),
; 821  : 		_CHECKED_BASE(_Last), _Dest, _Al,
; 822  : 		_STD _Ptr_cat(_First, _Dest), _STD _Range_checked_iterator_tag()));

	xor	eax, eax
	mov	BYTE PTR $T68634[ebp], al
	lea	ecx, DWORD PTR __Dest$[ebp]
	push	ecx
	lea	edx, DWORD PTR __First$[ebp]
	push	edx
	call	??$_Ptr_cat@PAPAVSurfaceData@Ogre@@PAPAV12@@std@@YA?AU_Scalar_ptr_iterator_tag@0@AAPAPAVSurfaceData@Ogre@@0@Z ; std::_Ptr_cat<Ogre::SurfaceData * *,Ogre::SurfaceData * *>
	add	esp, 8
	mov	BYTE PTR $T68635[ebp], al
	movzx	eax, BYTE PTR $T68634[ebp]
	push	eax
	movzx	ecx, BYTE PTR $T68635[ebp]
	push	ecx
	mov	edx, DWORD PTR __Al$[ebp]
	push	edx
	mov	eax, DWORD PTR __Dest$[ebp]
	push	eax
	lea	ecx, DWORD PTR __Last$[ebp]
	push	ecx
	call	??$_Checked_base@PAPAVSurfaceData@Ogre@@@std@@YAPAPAVSurfaceData@Ogre@@AAPAPAV12@@Z ; std::_Checked_base<Ogre::SurfaceData * *>
	add	esp, 4
	push	eax
	lea	edx, DWORD PTR __First$[ebp]
	push	edx
	call	??$_Checked_base@PAPAVSurfaceData@Ogre@@@std@@YAPAPAVSurfaceData@Ogre@@AAPAPAV12@@Z ; std::_Checked_base<Ogre::SurfaceData * *>
	add	esp, 4
	push	eax
	call	??$_Uninit_copy@PAPAVSurfaceData@Ogre@@PAPAV12@V?$allocator@PAVSurfaceData@Ogre@@@std@@@std@@YAPAPAVSurfaceData@Ogre@@PAPAV12@00AAV?$allocator@PAVSurfaceData@Ogre@@@0@U_Scalar_ptr_iterator_tag@0@U_Range_checked_iterator_tag@0@@Z ; std::_Uninit_copy<Ogre::SurfaceData * *,Ogre::SurfaceData * *,std::allocator<Ogre::SurfaceData *> >
	add	esp, 24					; 00000018H

; 823  : 	}

	mov	esp, ebp
	pop	ebp
	ret	0
??$unchecked_uninitialized_copy@PAPAVSurfaceData@Ogre@@PAPAV12@V?$allocator@PAVSurfaceData@Ogre@@@std@@@stdext@@YAPAPAVSurfaceData@Ogre@@PAPAV12@00AAV?$allocator@PAVSurfaceData@Ogre@@@std@@@Z ENDP ; stdext::unchecked_uninitialized_copy<Ogre::SurfaceData * *,Ogre::SurfaceData * *,std::allocator<Ogre::SurfaceData *> >
_TEXT	ENDS
PUBLIC	??$_Uninit_copy@PBVVector3@Ogre@@PAV12@V?$allocator@VVector3@Ogre@@@std@@@std@@YAPAVVector3@Ogre@@PBV12@0PAV12@AAV?$allocator@VVector3@Ogre@@@0@U_Nonscalar_ptr_iterator_tag@0@U_Range_checked_iterator_tag@0@@Z ; std::_Uninit_copy<Ogre::Vector3 const *,Ogre::Vector3 *,std::allocator<Ogre::Vector3> >
PUBLIC	??$_Checked_base@V?$_Vector_const_iterator@VVector3@Ogre@@V?$allocator@VVector3@Ogre@@@std@@@std@@@std@@YAPBVVector3@Ogre@@AAV?$_Vector_const_iterator@VVector3@Ogre@@V?$allocator@VVector3@Ogre@@@std@@@0@@Z ; std::_Checked_base<std::_Vector_const_iterator<Ogre::Vector3,std::allocator<Ogre::Vector3> > >
PUBLIC	??$_Ptr_cat@V?$_Vector_const_iterator@VVector3@Ogre@@V?$allocator@VVector3@Ogre@@@std@@@std@@PAVVector3@Ogre@@@std@@YA?AU_Nonscalar_ptr_iterator_tag@0@AAV?$_Vector_const_iterator@VVector3@Ogre@@V?$allocator@VVector3@Ogre@@@std@@@0@AAPAVVector3@Ogre@@@Z ; std::_Ptr_cat<std::_Vector_const_iterator<Ogre::Vector3,std::allocator<Ogre::Vector3> >,Ogre::Vector3 *>
; Function compile flags: /Odtp
;	COMDAT ??$unchecked_uninitialized_copy@V?$_Vector_const_iterator@VVector3@Ogre@@V?$allocator@VVector3@Ogre@@@std@@@std@@PAVVector3@Ogre@@V?$allocator@VVector3@Ogre@@@2@@stdext@@YAPAVVector3@Ogre@@V?$_Vector_const_iterator@VVector3@Ogre@@V?$allocator@VVector3@Ogre@@@std@@@std@@0PAV12@AAV?$allocator@VVector3@Ogre@@@4@@Z
_TEXT	SEGMENT
$T68639 = -2						; size = 1
$T68638 = -1						; size = 1
__First$ = 8						; size = 8
__Last$ = 16						; size = 8
__Dest$ = 24						; size = 4
__Al$ = 28						; size = 4
??$unchecked_uninitialized_copy@V?$_Vector_const_iterator@VVector3@Ogre@@V?$allocator@VVector3@Ogre@@@std@@@std@@PAVVector3@Ogre@@V?$allocator@VVector3@Ogre@@@2@@stdext@@YAPAVVector3@Ogre@@V?$_Vector_const_iterator@VVector3@Ogre@@V?$allocator@VVector3@Ogre@@@std@@@std@@0PAV12@AAV?$allocator@VVector3@Ogre@@@4@@Z PROC ; stdext::unchecked_uninitialized_copy<std::_Vector_const_iterator<Ogre::Vector3,std::allocator<Ogre::Vector3> >,Ogre::Vector3 *,std::allocator<Ogre::Vector3> >, COMDAT

; 819  : 	{	// copy [_First, _Last) to raw _Dest, using _Al

	push	ebp
	mov	ebp, esp
	push	ecx

; 820  : 	return (_STD _Uninit_copy(_CHECKED_BASE(_First),
; 821  : 		_CHECKED_BASE(_Last), _Dest, _Al,
; 822  : 		_STD _Ptr_cat(_First, _Dest), _STD _Range_checked_iterator_tag()));

	xor	eax, eax
	mov	BYTE PTR $T68638[ebp], al
	lea	ecx, DWORD PTR __Dest$[ebp]
	push	ecx
	lea	edx, DWORD PTR __First$[ebp]
	push	edx
	call	??$_Ptr_cat@V?$_Vector_const_iterator@VVector3@Ogre@@V?$allocator@VVector3@Ogre@@@std@@@std@@PAVVector3@Ogre@@@std@@YA?AU_Nonscalar_ptr_iterator_tag@0@AAV?$_Vector_const_iterator@VVector3@Ogre@@V?$allocator@VVector3@Ogre@@@std@@@0@AAPAVVector3@Ogre@@@Z ; std::_Ptr_cat<std::_Vector_const_iterator<Ogre::Vector3,std::allocator<Ogre::Vector3> >,Ogre::Vector3 *>
	add	esp, 8
	mov	BYTE PTR $T68639[ebp], al
	movzx	eax, BYTE PTR $T68638[ebp]
	push	eax
	movzx	ecx, BYTE PTR $T68639[ebp]
	push	ecx
	mov	edx, DWORD PTR __Al$[ebp]
	push	edx
	mov	eax, DWORD PTR __Dest$[ebp]
	push	eax
	lea	ecx, DWORD PTR __Last$[ebp]
	push	ecx
	call	??$_Checked_base@V?$_Vector_const_iterator@VVector3@Ogre@@V?$allocator@VVector3@Ogre@@@std@@@std@@@std@@YAPBVVector3@Ogre@@AAV?$_Vector_const_iterator@VVector3@Ogre@@V?$allocator@VVector3@Ogre@@@std@@@0@@Z ; std::_Checked_base<std::_Vector_const_iterator<Ogre::Vector3,std::allocator<Ogre::Vector3> > >
	add	esp, 4
	push	eax
	lea	edx, DWORD PTR __First$[ebp]
	push	edx
	call	??$_Checked_base@V?$_Vector_const_iterator@VVector3@Ogre@@V?$allocator@VVector3@Ogre@@@std@@@std@@@std@@YAPBVVector3@Ogre@@AAV?$_Vector_const_iterator@VVector3@Ogre@@V?$allocator@VVector3@Ogre@@@std@@@0@@Z ; std::_Checked_base<std::_Vector_const_iterator<Ogre::Vector3,std::allocator<Ogre::Vector3> > >
	add	esp, 4
	push	eax
	call	??$_Uninit_copy@PBVVector3@Ogre@@PAV12@V?$allocator@VVector3@Ogre@@@std@@@std@@YAPAVVector3@Ogre@@PBV12@0PAV12@AAV?$allocator@VVector3@Ogre@@@0@U_Nonscalar_ptr_iterator_tag@0@U_Range_checked_iterator_tag@0@@Z ; std::_Uninit_copy<Ogre::Vector3 const *,Ogre::Vector3 *,std::allocator<Ogre::Vector3> >
	add	esp, 24					; 00000018H

; 823  : 	}

	mov	esp, ebp
	pop	ebp
	ret	0
??$unchecked_uninitialized_copy@V?$_Vector_const_iterator@VVector3@Ogre@@V?$allocator@VVector3@Ogre@@@std@@@std@@PAVVector3@Ogre@@V?$allocator@VVector3@Ogre@@@2@@stdext@@YAPAVVector3@Ogre@@V?$_Vector_const_iterator@VVector3@Ogre@@V?$allocator@VVector3@Ogre@@@std@@@std@@0PAV12@AAV?$allocator@VVector3@Ogre@@@4@@Z ENDP ; stdext::unchecked_uninitialized_copy<std::_Vector_const_iterator<Ogre::Vector3,std::allocator<Ogre::Vector3> >,Ogre::Vector3 *,std::allocator<Ogre::Vector3> >
_TEXT	ENDS
PUBLIC	??$_Checked_base@PAVVector3@Ogre@@@std@@YAPAVVector3@Ogre@@AAPAV12@U_Unchanged_checked_iterator_base_type_tag@0@@Z ; std::_Checked_base<Ogre::Vector3 *>
; Function compile flags: /Odtp
; File d:\program files (x86)\microsoft visual studio 9.0\vc\include\xutility
;	COMDAT ??$_Checked_base@PAVVector3@Ogre@@@std@@YAPAVVector3@Ogre@@AAPAV12@@Z
_TEXT	SEGMENT
__Base_tag$ = -1					; size = 1
__It$ = 8						; size = 4
??$_Checked_base@PAVVector3@Ogre@@@std@@YAPAVVector3@Ogre@@AAPAV12@@Z PROC ; std::_Checked_base<Ogre::Vector3 *>, COMDAT

; 1163 : 	{

	push	ebp
	mov	ebp, esp
	push	ecx

; 1164 : 		typename _Checked_iterator_base_helper<_Iter>::_Checked_iterator_base_type_tag _Base_tag;
; 1165 : 		return _Checked_base(_It, _Base_tag);

	movzx	eax, BYTE PTR __Base_tag$[ebp]
	push	eax
	mov	ecx, DWORD PTR __It$[ebp]
	push	ecx
	call	??$_Checked_base@PAVVector3@Ogre@@@std@@YAPAVVector3@Ogre@@AAPAV12@U_Unchanged_checked_iterator_base_type_tag@0@@Z ; std::_Checked_base<Ogre::Vector3 *>
	add	esp, 8

; 1166 : 	}

	mov	esp, ebp
	pop	ebp
	ret	0
??$_Checked_base@PAVVector3@Ogre@@@std@@YAPAVVector3@Ogre@@AAPAV12@@Z ENDP ; std::_Checked_base<Ogre::Vector3 *>
; Function compile flags: /Odtp
_TEXT	ENDS
;	COMDAT ??$_Iter_random@PAVVector3@Ogre@@PAV12@@std@@YA?AUrandom_access_iterator_tag@0@ABQAVVector3@Ogre@@0@Z
_TEXT	SEGMENT
___$ReturnUdt$ = 8					; size = 4
___formal$ = 12						; size = 4
___formal$ = 16						; size = 4
??$_Iter_random@PAVVector3@Ogre@@PAV12@@std@@YA?AUrandom_access_iterator_tag@0@ABQAVVector3@Ogre@@0@Z PROC ; std::_Iter_random<Ogre::Vector3 *,Ogre::Vector3 *>, COMDAT

; 993  : 	{	// return category from iterator argument

	push	ebp
	mov	ebp, esp
	push	ecx

; 994  : 	typename _Iter_random_helper<
; 995  : 		iterator_traits<_Iter1>::iterator_category, 
; 996  : 		iterator_traits<_Iter2>::iterator_category>::_Iter_random_cat _Cat;
; 997  : 	return (_Cat);

	mov	eax, DWORD PTR ___$ReturnUdt$[ebp]

; 998  : 	}

	mov	esp, ebp
	pop	ebp
	ret	0
??$_Iter_random@PAVVector3@Ogre@@PAV12@@std@@YA?AUrandom_access_iterator_tag@0@ABQAVVector3@Ogre@@0@Z ENDP ; std::_Iter_random<Ogre::Vector3 *,Ogre::Vector3 *>
; Function compile flags: /Odtp
_TEXT	ENDS
;	COMDAT ??$_Ptr_cat@PAVVector3@Ogre@@PAV12@@std@@YA?AU_Nonscalar_ptr_iterator_tag@0@AAPAVVector3@Ogre@@0@Z
_TEXT	SEGMENT
__Cat$ = -1						; size = 1
___formal$ = 8						; size = 4
___formal$ = 12						; size = 4
??$_Ptr_cat@PAVVector3@Ogre@@PAV12@@std@@YA?AU_Nonscalar_ptr_iterator_tag@0@AAPAVVector3@Ogre@@0@Z PROC ; std::_Ptr_cat<Ogre::Vector3 *,Ogre::Vector3 *>, COMDAT

; 1509 : 	{

	push	ebp
	mov	ebp, esp
	push	ecx

; 1510 : 	typename _Ptr_cat_helper<_T1, _T2>::_Ptr_cat _Cat;
; 1511 : 	return (_Cat);

	mov	al, BYTE PTR __Cat$[ebp]

; 1512 : 	}

	mov	esp, ebp
	pop	ebp
	ret	0
??$_Ptr_cat@PAVVector3@Ogre@@PAV12@@std@@YA?AU_Nonscalar_ptr_iterator_tag@0@AAPAVVector3@Ogre@@0@Z ENDP ; std::_Ptr_cat<Ogre::Vector3 *,Ogre::Vector3 *>
_TEXT	ENDS
PUBLIC	??$_Copy_opt@PAVVector3@Ogre@@PAV12@Uforward_iterator_tag@std@@@std@@YAPAVVector3@Ogre@@PAV12@00Uforward_iterator_tag@0@U_Nonscalar_ptr_iterator_tag@0@U_Range_checked_iterator_tag@0@@Z ; std::_Copy_opt<Ogre::Vector3 *,Ogre::Vector3 *,std::forward_iterator_tag>
; Function compile flags: /Odtp
;	COMDAT ??$_Copy_opt@PAVVector3@Ogre@@PAV12@@std@@YAPAVVector3@Ogre@@PAV12@00Urandom_access_iterator_tag@0@U_Nonscalar_ptr_iterator_tag@0@U_Range_checked_iterator_tag@0@@Z
_TEXT	SEGMENT
$T68650 = -7						; size = 1
$T68649 = -6						; size = 1
$T68648 = -5						; size = 1
__Result$ = -4						; size = 4
__First$ = 8						; size = 4
__Last$ = 12						; size = 4
__Dest$ = 16						; size = 4
___formal$ = 20						; size = 1
___formal$ = 24						; size = 1
___formal$ = 28						; size = 1
??$_Copy_opt@PAVVector3@Ogre@@PAV12@@std@@YAPAVVector3@Ogre@@PAV12@00Urandom_access_iterator_tag@0@U_Nonscalar_ptr_iterator_tag@0@U_Range_checked_iterator_tag@0@@Z PROC ; std::_Copy_opt<Ogre::Vector3 *,Ogre::Vector3 *>, COMDAT

; 2481 : 	{	// copy [_First, _Last) to [_Dest, ...), random_access iterators

	push	ebp
	mov	ebp, esp
	sub	esp, 8

; 2482 : 	// if _OutIt is range checked, this will make sure there is enough space for the copy
; 2483 : 	_OutIt _Result = _Dest + (_Last - _First);

	mov	eax, DWORD PTR __Last$[ebp]
	sub	eax, DWORD PTR __First$[ebp]
	cdq
	mov	ecx, 12					; 0000000cH
	idiv	ecx
	imul	eax, 12					; 0000000cH
	add	eax, DWORD PTR __Dest$[ebp]
	mov	DWORD PTR __Result$[ebp], eax

; 2484 : 	_Copy_opt(_First, _Last, _CHECKED_BASE(_Dest), 
; 2485 : 		forward_iterator_tag(), _Nonscalar_ptr_iterator_tag(), _Range_checked_iterator_tag());

	xor	edx, edx
	mov	BYTE PTR $T68648[ebp], dl
	xor	eax, eax
	mov	BYTE PTR $T68649[ebp], al
	movzx	ecx, BYTE PTR $T68648[ebp]
	push	ecx
	movzx	edx, BYTE PTR $T68649[ebp]
	push	edx
	movzx	eax, BYTE PTR $T68650[ebp]
	push	eax
	lea	ecx, DWORD PTR __Dest$[ebp]
	push	ecx
	call	??$_Checked_base@PAVVector3@Ogre@@@std@@YAPAVVector3@Ogre@@AAPAV12@@Z ; std::_Checked_base<Ogre::Vector3 *>
	add	esp, 4
	push	eax
	mov	edx, DWORD PTR __Last$[ebp]
	push	edx
	mov	eax, DWORD PTR __First$[ebp]
	push	eax
	call	??$_Copy_opt@PAVVector3@Ogre@@PAV12@Uforward_iterator_tag@std@@@std@@YAPAVVector3@Ogre@@PAV12@00Uforward_iterator_tag@0@U_Nonscalar_ptr_iterator_tag@0@U_Range_checked_iterator_tag@0@@Z ; std::_Copy_opt<Ogre::Vector3 *,Ogre::Vector3 *,std::forward_iterator_tag>
	add	esp, 24					; 00000018H

; 2486 : 	return _Result;

	mov	eax, DWORD PTR __Result$[ebp]

; 2487 : 	}

	mov	esp, ebp
	pop	ebp
	ret	0
??$_Copy_opt@PAVVector3@Ogre@@PAV12@@std@@YAPAVVector3@Ogre@@PAV12@00Urandom_access_iterator_tag@0@U_Nonscalar_ptr_iterator_tag@0@U_Range_checked_iterator_tag@0@@Z ENDP ; std::_Copy_opt<Ogre::Vector3 *,Ogre::Vector3 *>
_TEXT	ENDS
PUBLIC	??$_Uninit_copy@PAVVector3@Ogre@@PAV12@V?$allocator@VVector3@Ogre@@@std@@@std@@YAPAVVector3@Ogre@@PAV12@00AAV?$allocator@VVector3@Ogre@@@0@U_Nonscalar_ptr_iterator_tag@0@U_Range_checked_iterator_tag@0@@Z ; std::_Uninit_copy<Ogre::Vector3 *,Ogre::Vector3 *,std::allocator<Ogre::Vector3> >
; Function compile flags: /Odtp
; File d:\program files (x86)\microsoft visual studio 9.0\vc\include\memory
;	COMDAT ??$unchecked_uninitialized_copy@PAVVector3@Ogre@@PAV12@V?$allocator@VVector3@Ogre@@@std@@@stdext@@YAPAVVector3@Ogre@@PAV12@00AAV?$allocator@VVector3@Ogre@@@std@@@Z
_TEXT	SEGMENT
$T68654 = -2						; size = 1
$T68653 = -1						; size = 1
__First$ = 8						; size = 4
__Last$ = 12						; size = 4
__Dest$ = 16						; size = 4
__Al$ = 20						; size = 4
??$unchecked_uninitialized_copy@PAVVector3@Ogre@@PAV12@V?$allocator@VVector3@Ogre@@@std@@@stdext@@YAPAVVector3@Ogre@@PAV12@00AAV?$allocator@VVector3@Ogre@@@std@@@Z PROC ; stdext::unchecked_uninitialized_copy<Ogre::Vector3 *,Ogre::Vector3 *,std::allocator<Ogre::Vector3> >, COMDAT

; 819  : 	{	// copy [_First, _Last) to raw _Dest, using _Al

	push	ebp
	mov	ebp, esp
	push	ecx

; 820  : 	return (_STD _Uninit_copy(_CHECKED_BASE(_First),
; 821  : 		_CHECKED_BASE(_Last), _Dest, _Al,
; 822  : 		_STD _Ptr_cat(_First, _Dest), _STD _Range_checked_iterator_tag()));

	xor	eax, eax
	mov	BYTE PTR $T68653[ebp], al
	lea	ecx, DWORD PTR __Dest$[ebp]
	push	ecx
	lea	edx, DWORD PTR __First$[ebp]
	push	edx
	call	??$_Ptr_cat@PAVVector3@Ogre@@PAV12@@std@@YA?AU_Nonscalar_ptr_iterator_tag@0@AAPAVVector3@Ogre@@0@Z ; std::_Ptr_cat<Ogre::Vector3 *,Ogre::Vector3 *>
	add	esp, 8
	mov	BYTE PTR $T68654[ebp], al
	movzx	eax, BYTE PTR $T68653[ebp]
	push	eax
	movzx	ecx, BYTE PTR $T68654[ebp]
	push	ecx
	mov	edx, DWORD PTR __Al$[ebp]
	push	edx
	mov	eax, DWORD PTR __Dest$[ebp]
	push	eax
	lea	ecx, DWORD PTR __Last$[ebp]
	push	ecx
	call	??$_Checked_base@PAVVector3@Ogre@@@std@@YAPAVVector3@Ogre@@AAPAV12@@Z ; std::_Checked_base<Ogre::Vector3 *>
	add	esp, 4
	push	eax
	lea	edx, DWORD PTR __First$[ebp]
	push	edx
	call	??$_Checked_base@PAVVector3@Ogre@@@std@@YAPAVVector3@Ogre@@AAPAV12@@Z ; std::_Checked_base<Ogre::Vector3 *>
	add	esp, 4
	push	eax
	call	??$_Uninit_copy@PAVVector3@Ogre@@PAV12@V?$allocator@VVector3@Ogre@@@std@@@std@@YAPAVVector3@Ogre@@PAV12@00AAV?$allocator@VVector3@Ogre@@@0@U_Nonscalar_ptr_iterator_tag@0@U_Range_checked_iterator_tag@0@@Z ; std::_Uninit_copy<Ogre::Vector3 *,Ogre::Vector3 *,std::allocator<Ogre::Vector3> >
	add	esp, 24					; 00000018H

; 823  : 	}

	mov	esp, ebp
	pop	ebp
	ret	0
??$unchecked_uninitialized_copy@PAVVector3@Ogre@@PAV12@V?$allocator@VVector3@Ogre@@@std@@@stdext@@YAPAVVector3@Ogre@@PAV12@00AAV?$allocator@VVector3@Ogre@@@std@@@Z ENDP ; stdext::unchecked_uninitialized_copy<Ogre::Vector3 *,Ogre::Vector3 *,std::allocator<Ogre::Vector3> >
; Function compile flags: /Odtp
; File d:\program files (x86)\microsoft visual studio 9.0\vc\include\xmemory
_TEXT	ENDS
;	COMDAT ??$_Destroy_range@V?$allocator@D@std@@@std@@YAXPAD0AAV?$allocator@D@0@U_Scalar_ptr_iterator_tag@0@@Z
_TEXT	SEGMENT
__First$ = 8						; size = 4
__Last$ = 12						; size = 4
__Al$ = 16						; size = 4
___formal$ = 20						; size = 1
??$_Destroy_range@V?$allocator@D@std@@@std@@YAXPAD0AAV?$allocator@D@0@U_Scalar_ptr_iterator_tag@0@@Z PROC ; std::_Destroy_range<std::allocator<char> >, COMDAT

; 241  : 	{	// destroy [_First, _Last), scalar type (do nothing)

	push	ebp
	mov	ebp, esp

; 242  : 	}

	pop	ebp
	ret	0
??$_Destroy_range@V?$allocator@D@std@@@std@@YAXPAD0AAV?$allocator@D@0@U_Scalar_ptr_iterator_tag@0@@Z ENDP ; std::_Destroy_range<std::allocator<char> >
; Function compile flags: /Odtp
_TEXT	ENDS
;	COMDAT ??$_Destroy_range@V?$allocator@PAVSurfaceData@Ogre@@@std@@@std@@YAXPAPAVSurfaceData@Ogre@@0AAV?$allocator@PAVSurfaceData@Ogre@@@0@U_Scalar_ptr_iterator_tag@0@@Z
_TEXT	SEGMENT
__First$ = 8						; size = 4
__Last$ = 12						; size = 4
__Al$ = 16						; size = 4
___formal$ = 20						; size = 1
??$_Destroy_range@V?$allocator@PAVSurfaceData@Ogre@@@std@@@std@@YAXPAPAVSurfaceData@Ogre@@0AAV?$allocator@PAVSurfaceData@Ogre@@@0@U_Scalar_ptr_iterator_tag@0@@Z PROC ; std::_Destroy_range<std::allocator<Ogre::SurfaceData *> >, COMDAT

; 241  : 	{	// destroy [_First, _Last), scalar type (do nothing)

	push	ebp
	mov	ebp, esp

; 242  : 	}

	pop	ebp
	ret	0
??$_Destroy_range@V?$allocator@PAVSurfaceData@Ogre@@@std@@@std@@YAXPAPAVSurfaceData@Ogre@@0AAV?$allocator@PAVSurfaceData@Ogre@@@0@U_Scalar_ptr_iterator_tag@0@@Z ENDP ; std::_Destroy_range<std::allocator<Ogre::SurfaceData *> >
_TEXT	ENDS
PUBLIC	?destroy@?$allocator@VVector3@Ogre@@@std@@QAEXPAVVector3@Ogre@@@Z ; std::allocator<Ogre::Vector3>::destroy
; Function compile flags: /Odtp
;	COMDAT ??$_Destroy_range@V?$allocator@VVector3@Ogre@@@std@@@std@@YAXPAVVector3@Ogre@@0AAV?$allocator@VVector3@Ogre@@@0@U_Nonscalar_ptr_iterator_tag@0@@Z
_TEXT	SEGMENT
__First$ = 8						; size = 4
__Last$ = 12						; size = 4
__Al$ = 16						; size = 4
___formal$ = 20						; size = 1
??$_Destroy_range@V?$allocator@VVector3@Ogre@@@std@@@std@@YAXPAVVector3@Ogre@@0AAV?$allocator@VVector3@Ogre@@@0@U_Nonscalar_ptr_iterator_tag@0@@Z PROC ; std::_Destroy_range<std::allocator<Ogre::Vector3> >, COMDAT

; 232  : 	{	// destroy [_First, _Last), arbitrary type

	push	ebp
	mov	ebp, esp

; 233  : 	for (; _First != _Last; ++_First)

	jmp	SHORT $LN3@Destroy_ra
$LN2@Destroy_ra:
	mov	eax, DWORD PTR __First$[ebp]
	add	eax, 12					; 0000000cH
	mov	DWORD PTR __First$[ebp], eax
$LN3@Destroy_ra:
	mov	ecx, DWORD PTR __First$[ebp]
	cmp	ecx, DWORD PTR __Last$[ebp]
	je	SHORT $LN4@Destroy_ra

; 234  : 		_Al.destroy(_First);

	mov	edx, DWORD PTR __First$[ebp]
	push	edx
	mov	ecx, DWORD PTR __Al$[ebp]
	call	?destroy@?$allocator@VVector3@Ogre@@@std@@QAEXPAVVector3@Ogre@@@Z ; std::allocator<Ogre::Vector3>::destroy
	jmp	SHORT $LN2@Destroy_ra
$LN4@Destroy_ra:

; 235  : 	}

	pop	ebp
	ret	0
??$_Destroy_range@V?$allocator@VVector3@Ogre@@@std@@@std@@YAXPAVVector3@Ogre@@0AAV?$allocator@VVector3@Ogre@@@0@U_Nonscalar_ptr_iterator_tag@0@@Z ENDP ; std::_Destroy_range<std::allocator<Ogre::Vector3> >
_TEXT	ENDS
PUBLIC	??$_Unchecked_uninitialized_move@PAVVector3@Ogre@@PAV12@V?$allocator@VVector3@Ogre@@@std@@@stdext@@YAPAVVector3@Ogre@@PAV12@00AAV?$allocator@VVector3@Ogre@@@std@@@Z ; stdext::_Unchecked_uninitialized_move<Ogre::Vector3 *,Ogre::Vector3 *,std::allocator<Ogre::Vector3> >
; Function compile flags: /Odtp
; File d:\program files (x86)\microsoft visual studio 9.0\vc\include\vector
;	COMDAT ??$_Umove@PAVVector3@Ogre@@@?$vector@VVector3@Ogre@@V?$allocator@VVector3@Ogre@@@std@@@std@@IAEPAVVector3@Ogre@@PAV23@00@Z
_TEXT	SEGMENT
_this$ = -4						; size = 4
__First$ = 8						; size = 4
__Last$ = 12						; size = 4
__Ptr$ = 16						; size = 4
??$_Umove@PAVVector3@Ogre@@@?$vector@VVector3@Ogre@@V?$allocator@VVector3@Ogre@@@std@@@std@@IAEPAVVector3@Ogre@@PAV23@00@Z PROC ; std::vector<Ogre::Vector3,std::allocator<Ogre::Vector3> >::_Umove<Ogre::Vector3 *>, COMDAT
; _this$ = ecx

; 1145 : 		pointer _Umove(_Iter _First, _Iter _Last, pointer _Ptr)

	push	ebp
	mov	ebp, esp
	push	ecx
	mov	DWORD PTR _this$[ebp], ecx

; 1146 : 		{	// move initializing [_First, _Last), using allocator
; 1147 : 		return (_STDEXT _Unchecked_uninitialized_move(_First, _Last,
; 1148 : 			_Ptr, this->_Alval));

	mov	eax, DWORD PTR _this$[ebp]
	add	eax, 8
	push	eax
	mov	ecx, DWORD PTR __Ptr$[ebp]
	push	ecx
	mov	edx, DWORD PTR __Last$[ebp]
	push	edx
	mov	eax, DWORD PTR __First$[ebp]
	push	eax
	call	??$_Unchecked_uninitialized_move@PAVVector3@Ogre@@PAV12@V?$allocator@VVector3@Ogre@@@std@@@stdext@@YAPAVVector3@Ogre@@PAV12@00AAV?$allocator@VVector3@Ogre@@@std@@@Z ; stdext::_Unchecked_uninitialized_move<Ogre::Vector3 *,Ogre::Vector3 *,std::allocator<Ogre::Vector3> >
	add	esp, 16					; 00000010H

; 1149 : 		}

	mov	esp, ebp
	pop	ebp
	ret	12					; 0000000cH
??$_Umove@PAVVector3@Ogre@@@?$vector@VVector3@Ogre@@V?$allocator@VVector3@Ogre@@@std@@@std@@IAEPAVVector3@Ogre@@PAV23@00@Z ENDP ; std::vector<Ogre::Vector3,std::allocator<Ogre::Vector3> >::_Umove<Ogre::Vector3 *>
_TEXT	ENDS
PUBLIC	??$_Fill@PAVVector3@Ogre@@V12@@std@@YAXPAVVector3@Ogre@@0ABV12@@Z ; std::_Fill<Ogre::Vector3 *,Ogre::Vector3>
; Function compile flags: /Odtp
; File d:\program files (x86)\microsoft visual studio 9.0\vc\include\xutility
;	COMDAT ??$fill@PAVVector3@Ogre@@V12@@std@@YAXPAVVector3@Ogre@@0ABV12@@Z
_TEXT	SEGMENT
__First$ = 8						; size = 4
__Last$ = 12						; size = 4
__Val$ = 16						; size = 4
??$fill@PAVVector3@Ogre@@V12@@std@@YAXPAVVector3@Ogre@@0ABV12@@Z PROC ; std::fill<Ogre::Vector3 *,Ogre::Vector3>, COMDAT

; 3186 : 	{	// copy _Val through [_First, _Last)

	push	ebp
	mov	ebp, esp

; 3187 : 	_Fill(_CHECKED_BASE(_First), _CHECKED_BASE(_Last), _Val);

	mov	eax, DWORD PTR __Val$[ebp]
	push	eax
	lea	ecx, DWORD PTR __Last$[ebp]
	push	ecx
	call	??$_Checked_base@PAVVector3@Ogre@@@std@@YAPAVVector3@Ogre@@AAPAV12@@Z ; std::_Checked_base<Ogre::Vector3 *>
	add	esp, 4
	push	eax
	lea	edx, DWORD PTR __First$[ebp]
	push	edx
	call	??$_Checked_base@PAVVector3@Ogre@@@std@@YAPAVVector3@Ogre@@AAPAV12@@Z ; std::_Checked_base<Ogre::Vector3 *>
	add	esp, 4
	push	eax
	call	??$_Fill@PAVVector3@Ogre@@V12@@std@@YAXPAVVector3@Ogre@@0ABV12@@Z ; std::_Fill<Ogre::Vector3 *,Ogre::Vector3>
	add	esp, 12					; 0000000cH

; 3188 : 	}

	pop	ebp
	ret	0
??$fill@PAVVector3@Ogre@@V12@@std@@YAXPAVVector3@Ogre@@0ABV12@@Z ENDP ; std::fill<Ogre::Vector3 *,Ogre::Vector3>
_TEXT	ENDS
PUBLIC	??$_Move_backward_opt@PAVVector3@Ogre@@PAV12@Urandom_access_iterator_tag@std@@U_Undefined_move_tag@4@@std@@YAPAVVector3@Ogre@@PAV12@00Urandom_access_iterator_tag@0@U_Undefined_move_tag@0@U_Range_checked_iterator_tag@0@@Z ; std::_Move_backward_opt<Ogre::Vector3 *,Ogre::Vector3 *,std::random_access_iterator_tag,std::_Undefined_move_tag>
PUBLIC	??$_Move_cat@PAVVector3@Ogre@@@std@@YA?AU_Undefined_move_tag@0@ABQAVVector3@Ogre@@@Z ; std::_Move_cat<Ogre::Vector3 *>
; Function compile flags: /Odtp
;	COMDAT ??$_Unchecked_move_backward@PAVVector3@Ogre@@PAV12@@stdext@@YAPAVVector3@Ogre@@PAV12@00@Z
_TEXT	SEGMENT
$T68669 = -3						; size = 1
$T68668 = -2						; size = 1
$T68667 = -1						; size = 1
__First$ = 8						; size = 4
__Last$ = 12						; size = 4
__Dest$ = 16						; size = 4
??$_Unchecked_move_backward@PAVVector3@Ogre@@PAV12@@stdext@@YAPAVVector3@Ogre@@PAV12@00@Z PROC ; stdext::_Unchecked_move_backward<Ogre::Vector3 *,Ogre::Vector3 *>, COMDAT

; 3694 : 	{	// move [_First, _Last) backwards to [..., _Dest)

	push	ebp
	mov	ebp, esp
	push	ecx

; 3695 : 		return (_STD _Move_backward_opt(_CHECKED_BASE(_First), _CHECKED_BASE(_Last), _Dest,
; 3696 : 			_STD _Iter_random(_First, _Dest), _STD _Move_cat(_Dest), _STD _Range_checked_iterator_tag()));

	xor	eax, eax
	mov	BYTE PTR $T68667[ebp], al
	lea	ecx, DWORD PTR __Dest$[ebp]
	push	ecx
	call	??$_Move_cat@PAVVector3@Ogre@@@std@@YA?AU_Undefined_move_tag@0@ABQAVVector3@Ogre@@@Z ; std::_Move_cat<Ogre::Vector3 *>
	add	esp, 4
	mov	BYTE PTR $T68668[ebp], al
	movzx	edx, BYTE PTR $T68667[ebp]
	push	edx
	movzx	eax, BYTE PTR $T68668[ebp]
	push	eax
	lea	ecx, DWORD PTR __Dest$[ebp]
	push	ecx
	lea	edx, DWORD PTR __First$[ebp]
	push	edx
	lea	eax, DWORD PTR $T68669[ebp]
	push	eax
	call	??$_Iter_random@PAVVector3@Ogre@@PAV12@@std@@YA?AUrandom_access_iterator_tag@0@ABQAVVector3@Ogre@@0@Z ; std::_Iter_random<Ogre::Vector3 *,Ogre::Vector3 *>
	add	esp, 12					; 0000000cH
	movzx	ecx, BYTE PTR [eax]
	push	ecx
	mov	edx, DWORD PTR __Dest$[ebp]
	push	edx
	lea	eax, DWORD PTR __Last$[ebp]
	push	eax
	call	??$_Checked_base@PAVVector3@Ogre@@@std@@YAPAVVector3@Ogre@@AAPAV12@@Z ; std::_Checked_base<Ogre::Vector3 *>
	add	esp, 4
	push	eax
	lea	ecx, DWORD PTR __First$[ebp]
	push	ecx
	call	??$_Checked_base@PAVVector3@Ogre@@@std@@YAPAVVector3@Ogre@@AAPAV12@@Z ; std::_Checked_base<Ogre::Vector3 *>
	add	esp, 4
	push	eax
	call	??$_Move_backward_opt@PAVVector3@Ogre@@PAV12@Urandom_access_iterator_tag@std@@U_Undefined_move_tag@4@@std@@YAPAVVector3@Ogre@@PAV12@00Urandom_access_iterator_tag@0@U_Undefined_move_tag@0@U_Range_checked_iterator_tag@0@@Z ; std::_Move_backward_opt<Ogre::Vector3 *,Ogre::Vector3 *,std::random_access_iterator_tag,std::_Undefined_move_tag>
	add	esp, 24					; 00000018H

; 3697 : 	}

	mov	esp, ebp
	pop	ebp
	ret	0
??$_Unchecked_move_backward@PAVVector3@Ogre@@PAV12@@stdext@@YAPAVVector3@Ogre@@PAV12@00@Z ENDP ; stdext::_Unchecked_move_backward<Ogre::Vector3 *,Ogre::Vector3 *>
_TEXT	ENDS
PUBLIC	??$_Uninit_fill_n@PAVVector3@Ogre@@IV12@V?$allocator@VVector3@Ogre@@@std@@@std@@YAXPAVVector3@Ogre@@IABV12@AAV?$allocator@VVector3@Ogre@@@0@U_Nonscalar_ptr_iterator_tag@0@U_Range_checked_iterator_tag@0@@Z ; std::_Uninit_fill_n<Ogre::Vector3 *,unsigned int,Ogre::Vector3,std::allocator<Ogre::Vector3> >
; Function compile flags: /Odtp
; File d:\program files (x86)\microsoft visual studio 9.0\vc\include\memory
;	COMDAT ??$unchecked_uninitialized_fill_n@PAVVector3@Ogre@@IV12@V?$allocator@VVector3@Ogre@@@std@@@stdext@@YAXPAVVector3@Ogre@@IABV12@AAV?$allocator@VVector3@Ogre@@@std@@@Z
_TEXT	SEGMENT
$T68673 = -2						; size = 1
$T68672 = -1						; size = 1
__First$ = 8						; size = 4
__Count$ = 12						; size = 4
__Val$ = 16						; size = 4
__Al$ = 20						; size = 4
??$unchecked_uninitialized_fill_n@PAVVector3@Ogre@@IV12@V?$allocator@VVector3@Ogre@@@std@@@stdext@@YAXPAVVector3@Ogre@@IABV12@AAV?$allocator@VVector3@Ogre@@@std@@@Z PROC ; stdext::unchecked_uninitialized_fill_n<Ogre::Vector3 *,unsigned int,Ogre::Vector3,std::allocator<Ogre::Vector3> >, COMDAT

; 940  : 	{	// copy _Count *_Val to raw _First, using _Al

	push	ebp
	mov	ebp, esp
	push	ecx

; 941  : 	_STD _Uninit_fill_n(_First, _Count, _Val, _Al,
; 942  : 		_STD _Ptr_cat(_First, _First), _STD _Range_checked_iterator_tag());

	xor	eax, eax
	mov	BYTE PTR $T68672[ebp], al
	lea	ecx, DWORD PTR __First$[ebp]
	push	ecx
	lea	edx, DWORD PTR __First$[ebp]
	push	edx
	call	??$_Ptr_cat@PAVVector3@Ogre@@PAV12@@std@@YA?AU_Nonscalar_ptr_iterator_tag@0@AAPAVVector3@Ogre@@0@Z ; std::_Ptr_cat<Ogre::Vector3 *,Ogre::Vector3 *>
	add	esp, 8
	mov	BYTE PTR $T68673[ebp], al
	movzx	eax, BYTE PTR $T68672[ebp]
	push	eax
	movzx	ecx, BYTE PTR $T68673[ebp]
	push	ecx
	mov	edx, DWORD PTR __Al$[ebp]
	push	edx
	mov	eax, DWORD PTR __Val$[ebp]
	push	eax
	mov	ecx, DWORD PTR __Count$[ebp]
	push	ecx
	mov	edx, DWORD PTR __First$[ebp]
	push	edx
	call	??$_Uninit_fill_n@PAVVector3@Ogre@@IV12@V?$allocator@VVector3@Ogre@@@std@@@std@@YAXPAVVector3@Ogre@@IABV12@AAV?$allocator@VVector3@Ogre@@@0@U_Nonscalar_ptr_iterator_tag@0@U_Range_checked_iterator_tag@0@@Z ; std::_Uninit_fill_n<Ogre::Vector3 *,unsigned int,Ogre::Vector3,std::allocator<Ogre::Vector3> >
	add	esp, 24					; 00000018H

; 943  : 	}

	mov	esp, ebp
	pop	ebp
	ret	0
??$unchecked_uninitialized_fill_n@PAVVector3@Ogre@@IV12@V?$allocator@VVector3@Ogre@@@std@@@stdext@@YAXPAVVector3@Ogre@@IABV12@AAV?$allocator@VVector3@Ogre@@@std@@@Z ENDP ; stdext::unchecked_uninitialized_fill_n<Ogre::Vector3 *,unsigned int,Ogre::Vector3,std::allocator<Ogre::Vector3> >
_TEXT	ENDS
PUBLIC	??$_Destroy@VVector3@Ogre@@@std@@YAXPAVVector3@Ogre@@@Z ; std::_Destroy<Ogre::Vector3>
; Function compile flags: /Odtp
; File d:\program files (x86)\microsoft visual studio 9.0\vc\include\xmemory
;	COMDAT ?destroy@?$allocator@VVector3@Ogre@@@std@@QAEXPAVVector3@Ogre@@@Z
_TEXT	SEGMENT
_this$ = -4						; size = 4
__Ptr$ = 8						; size = 4
?destroy@?$allocator@VVector3@Ogre@@@std@@QAEXPAVVector3@Ogre@@@Z PROC ; std::allocator<Ogre::Vector3>::destroy, COMDAT
; _this$ = ecx

; 159  : 		{	// destroy object at _Ptr

	push	ebp
	mov	ebp, esp
	push	ecx
	mov	DWORD PTR _this$[ebp], ecx

; 160  : 		_Destroy(_Ptr);

	mov	eax, DWORD PTR __Ptr$[ebp]
	push	eax
	call	??$_Destroy@VVector3@Ogre@@@std@@YAXPAVVector3@Ogre@@@Z ; std::_Destroy<Ogre::Vector3>
	add	esp, 4

; 161  : 		}

	mov	esp, ebp
	pop	ebp
	ret	4
?destroy@?$allocator@VVector3@Ogre@@@std@@QAEXPAVVector3@Ogre@@@Z ENDP ; std::allocator<Ogre::Vector3>::destroy
_TEXT	ENDS
PUBLIC	??$_Checked_base@V?$_Vector_const_iterator@DV?$allocator@D@std@@@std@@U_Different_checked_iterator_base_type_tag@2@@std@@YAPBDAAV?$_Vector_const_iterator@DV?$allocator@D@std@@@0@U_Different_checked_iterator_base_type_tag@0@@Z ; std::_Checked_base<std::_Vector_const_iterator<char,std::allocator<char> >,std::_Different_checked_iterator_base_type_tag>
; Function compile flags: /Odtp
; File d:\program files (x86)\microsoft visual studio 9.0\vc\include\xutility
;	COMDAT ??$_Checked_base@V?$_Vector_const_iterator@DV?$allocator@D@std@@@std@@@std@@YAPBDAAV?$_Vector_const_iterator@DV?$allocator@D@std@@@0@@Z
_TEXT	SEGMENT
__Base_tag$ = -1					; size = 1
__It$ = 8						; size = 4
??$_Checked_base@V?$_Vector_const_iterator@DV?$allocator@D@std@@@std@@@std@@YAPBDAAV?$_Vector_const_iterator@DV?$allocator@D@std@@@0@@Z PROC ; std::_Checked_base<std::_Vector_const_iterator<char,std::allocator<char> > >, COMDAT

; 1163 : 	{

	push	ebp
	mov	ebp, esp
	push	ecx

; 1164 : 		typename _Checked_iterator_base_helper<_Iter>::_Checked_iterator_base_type_tag _Base_tag;
; 1165 : 		return _Checked_base(_It, _Base_tag);

	movzx	eax, BYTE PTR __Base_tag$[ebp]
	push	eax
	mov	ecx, DWORD PTR __It$[ebp]
	push	ecx
	call	??$_Checked_base@V?$_Vector_const_iterator@DV?$allocator@D@std@@@std@@U_Different_checked_iterator_base_type_tag@2@@std@@YAPBDAAV?$_Vector_const_iterator@DV?$allocator@D@std@@@0@U_Different_checked_iterator_base_type_tag@0@@Z ; std::_Checked_base<std::_Vector_const_iterator<char,std::allocator<char> >,std::_Different_checked_iterator_base_type_tag>
	add	esp, 8

; 1166 : 	}

	mov	esp, ebp
	pop	ebp
	ret	0
??$_Checked_base@V?$_Vector_const_iterator@DV?$allocator@D@std@@@std@@@std@@YAPBDAAV?$_Vector_const_iterator@DV?$allocator@D@std@@@0@@Z ENDP ; std::_Checked_base<std::_Vector_const_iterator<char,std::allocator<char> > >
; Function compile flags: /Odtp
_TEXT	ENDS
;	COMDAT ??$_Ptr_cat@V?$_Vector_const_iterator@DV?$allocator@D@std@@@std@@PAD@std@@YA?AU_Scalar_ptr_iterator_tag@0@AAV?$_Vector_const_iterator@DV?$allocator@D@std@@@0@AAPAD@Z
_TEXT	SEGMENT
__Cat$ = -1						; size = 1
___formal$ = 8						; size = 4
___formal$ = 12						; size = 4
??$_Ptr_cat@V?$_Vector_const_iterator@DV?$allocator@D@std@@@std@@PAD@std@@YA?AU_Scalar_ptr_iterator_tag@0@AAV?$_Vector_const_iterator@DV?$allocator@D@std@@@0@AAPAD@Z PROC ; std::_Ptr_cat<std::_Vector_const_iterator<char,std::allocator<char> >,char *>, COMDAT

; 1509 : 	{

	push	ebp
	mov	ebp, esp
	push	ecx

; 1510 : 	typename _Ptr_cat_helper<_T1, _T2>::_Ptr_cat _Cat;
; 1511 : 	return (_Cat);

	mov	al, BYTE PTR __Cat$[ebp]

; 1512 : 	}

	mov	esp, ebp
	pop	ebp
	ret	0
??$_Ptr_cat@V?$_Vector_const_iterator@DV?$allocator@D@std@@@std@@PAD@std@@YA?AU_Scalar_ptr_iterator_tag@0@AAV?$_Vector_const_iterator@DV?$allocator@D@std@@@0@AAPAD@Z ENDP ; std::_Ptr_cat<std::_Vector_const_iterator<char,std::allocator<char> >,char *>
; Function compile flags: /Odtp
; File d:\program files (x86)\microsoft visual studio 9.0\vc\include\memory
_TEXT	ENDS
;	COMDAT ??$_Uninit_copy@PBDPADV?$allocator@D@std@@@std@@YAPADPBD0PADAAV?$allocator@D@0@U_Scalar_ptr_iterator_tag@0@U_Range_checked_iterator_tag@0@@Z
_TEXT	SEGMENT
__Result$ = -8						; size = 4
__Count$ = -4						; size = 4
__First$ = 8						; size = 4
__Last$ = 12						; size = 4
__Dest$ = 16						; size = 4
___formal$ = 20						; size = 4
___formal$ = 24						; size = 1
___formal$ = 28						; size = 1
??$_Uninit_copy@PBDPADV?$allocator@D@std@@@std@@YAPADPBD0PADAAV?$allocator@D@0@U_Scalar_ptr_iterator_tag@0@U_Range_checked_iterator_tag@0@@Z PROC ; std::_Uninit_copy<char const *,char *,std::allocator<char> >, COMDAT

; 145  : 	{	// copy [_First, _Last) to raw _Dest, scalar type

	push	ebp
	mov	ebp, esp
	sub	esp, 8

; 146  : 	_DEBUG_RANGE(_First, _Last);
; 147  : 	_DEBUG_POINTER(_Dest);
; 148  : 	size_t _Count = (size_t)(_Last - _First);

	mov	eax, DWORD PTR __Last$[ebp]
	sub	eax, DWORD PTR __First$[ebp]
	mov	DWORD PTR __Count$[ebp], eax

; 149  : 	_FwdIt _Result = _Dest + _Count;

	mov	ecx, DWORD PTR __Dest$[ebp]
	add	ecx, DWORD PTR __Count$[ebp]
	mov	DWORD PTR __Result$[ebp], ecx

; 150  : 	if (_Count > 0)

	cmp	DWORD PTR __Count$[ebp], 0
	jbe	SHORT $LN1@Uninit_cop

; 151  : 		_CRT_SECURE_MEMMOVE(&*_Dest, _Count * sizeof (*_First), &*_First, _Count * sizeof (*_First));	// NB: non-overlapping move

	mov	edx, DWORD PTR __Count$[ebp]
	push	edx
	mov	eax, DWORD PTR __First$[ebp]
	push	eax
	mov	ecx, DWORD PTR __Count$[ebp]
	push	ecx
	mov	edx, DWORD PTR __Dest$[ebp]
	push	edx
	call	DWORD PTR __imp__memmove_s
	add	esp, 16					; 00000010H
$LN1@Uninit_cop:

; 152  : 	return (_Result);

	mov	eax, DWORD PTR __Result$[ebp]

; 153  : 	}

	mov	esp, ebp
	pop	ebp
	ret	0
??$_Uninit_copy@PBDPADV?$allocator@D@std@@@std@@YAPADPBD0PADAAV?$allocator@D@0@U_Scalar_ptr_iterator_tag@0@U_Range_checked_iterator_tag@0@@Z ENDP ; std::_Uninit_copy<char const *,char *,std::allocator<char> >
; Function compile flags: /Odtp
; File d:\program files (x86)\microsoft visual studio 9.0\vc\include\xutility
_TEXT	ENDS
;	COMDAT ??$_Checked_base@PAD@std@@YAPADAAPADU_Unchanged_checked_iterator_base_type_tag@0@@Z
_TEXT	SEGMENT
__It$ = 8						; size = 4
___formal$ = 12						; size = 1
??$_Checked_base@PAD@std@@YAPADAAPADU_Unchanged_checked_iterator_base_type_tag@0@@Z PROC ; std::_Checked_base<char *>, COMDAT

; 1146 : 	{

	push	ebp
	mov	ebp, esp

; 1147 : 		return _It;

	mov	eax, DWORD PTR __It$[ebp]
	mov	eax, DWORD PTR [eax]

; 1148 : 	}

	pop	ebp
	ret	0
??$_Checked_base@PAD@std@@YAPADAAPADU_Unchanged_checked_iterator_base_type_tag@0@@Z ENDP ; std::_Checked_base<char *>
; Function compile flags: /Odtp
; File d:\program files (x86)\microsoft visual studio 9.0\vc\include\memory
_TEXT	ENDS
;	COMDAT ??$_Uninit_copy@PADPADV?$allocator@D@std@@@std@@YAPADPAD00AAV?$allocator@D@0@U_Scalar_ptr_iterator_tag@0@U_Range_checked_iterator_tag@0@@Z
_TEXT	SEGMENT
__Result$ = -8						; size = 4
__Count$ = -4						; size = 4
__First$ = 8						; size = 4
__Last$ = 12						; size = 4
__Dest$ = 16						; size = 4
___formal$ = 20						; size = 4
___formal$ = 24						; size = 1
___formal$ = 28						; size = 1
??$_Uninit_copy@PADPADV?$allocator@D@std@@@std@@YAPADPAD00AAV?$allocator@D@0@U_Scalar_ptr_iterator_tag@0@U_Range_checked_iterator_tag@0@@Z PROC ; std::_Uninit_copy<char *,char *,std::allocator<char> >, COMDAT

; 145  : 	{	// copy [_First, _Last) to raw _Dest, scalar type

	push	ebp
	mov	ebp, esp
	sub	esp, 8

; 146  : 	_DEBUG_RANGE(_First, _Last);
; 147  : 	_DEBUG_POINTER(_Dest);
; 148  : 	size_t _Count = (size_t)(_Last - _First);

	mov	eax, DWORD PTR __Last$[ebp]
	sub	eax, DWORD PTR __First$[ebp]
	mov	DWORD PTR __Count$[ebp], eax

; 149  : 	_FwdIt _Result = _Dest + _Count;

	mov	ecx, DWORD PTR __Dest$[ebp]
	add	ecx, DWORD PTR __Count$[ebp]
	mov	DWORD PTR __Result$[ebp], ecx

; 150  : 	if (_Count > 0)

	cmp	DWORD PTR __Count$[ebp], 0
	jbe	SHORT $LN1@Uninit_cop@2

; 151  : 		_CRT_SECURE_MEMMOVE(&*_Dest, _Count * sizeof (*_First), &*_First, _Count * sizeof (*_First));	// NB: non-overlapping move

	mov	edx, DWORD PTR __Count$[ebp]
	push	edx
	mov	eax, DWORD PTR __First$[ebp]
	push	eax
	mov	ecx, DWORD PTR __Count$[ebp]
	push	ecx
	mov	edx, DWORD PTR __Dest$[ebp]
	push	edx
	call	DWORD PTR __imp__memmove_s
	add	esp, 16					; 00000010H
$LN1@Uninit_cop@2:

; 152  : 	return (_Result);

	mov	eax, DWORD PTR __Result$[ebp]

; 153  : 	}

	mov	esp, ebp
	pop	ebp
	ret	0
??$_Uninit_copy@PADPADV?$allocator@D@std@@@std@@YAPADPAD00AAV?$allocator@D@0@U_Scalar_ptr_iterator_tag@0@U_Range_checked_iterator_tag@0@@Z ENDP ; std::_Uninit_copy<char *,char *,std::allocator<char> >
_TEXT	ENDS
PUBLIC	??$_Checked_base@V?$_Vector_const_iterator@PAVSurfaceData@Ogre@@V?$allocator@PAVSurfaceData@Ogre@@@std@@@std@@U_Different_checked_iterator_base_type_tag@2@@std@@YAPBQAVSurfaceData@Ogre@@AAV?$_Vector_const_iterator@PAVSurfaceData@Ogre@@V?$allocator@PAVSurfaceData@Ogre@@@std@@@0@U_Different_checked_iterator_base_type_tag@0@@Z ; std::_Checked_base<std::_Vector_const_iterator<Ogre::SurfaceData *,std::allocator<Ogre::SurfaceData *> >,std::_Different_checked_iterator_base_type_tag>
; Function compile flags: /Odtp
; File d:\program files (x86)\microsoft visual studio 9.0\vc\include\xutility
;	COMDAT ??$_Checked_base@V?$_Vector_const_iterator@PAVSurfaceData@Ogre@@V?$allocator@PAVSurfaceData@Ogre@@@std@@@std@@@std@@YAPBQAVSurfaceData@Ogre@@AAV?$_Vector_const_iterator@PAVSurfaceData@Ogre@@V?$allocator@PAVSurfaceData@Ogre@@@std@@@0@@Z
_TEXT	SEGMENT
__Base_tag$ = -1					; size = 1
__It$ = 8						; size = 4
??$_Checked_base@V?$_Vector_const_iterator@PAVSurfaceData@Ogre@@V?$allocator@PAVSurfaceData@Ogre@@@std@@@std@@@std@@YAPBQAVSurfaceData@Ogre@@AAV?$_Vector_const_iterator@PAVSurfaceData@Ogre@@V?$allocator@PAVSurfaceData@Ogre@@@std@@@0@@Z PROC ; std::_Checked_base<std::_Vector_const_iterator<Ogre::SurfaceData *,std::allocator<Ogre::SurfaceData *> > >, COMDAT

; 1163 : 	{

	push	ebp
	mov	ebp, esp
	push	ecx

; 1164 : 		typename _Checked_iterator_base_helper<_Iter>::_Checked_iterator_base_type_tag _Base_tag;
; 1165 : 		return _Checked_base(_It, _Base_tag);

	movzx	eax, BYTE PTR __Base_tag$[ebp]
	push	eax
	mov	ecx, DWORD PTR __It$[ebp]
	push	ecx
	call	??$_Checked_base@V?$_Vector_const_iterator@PAVSurfaceData@Ogre@@V?$allocator@PAVSurfaceData@Ogre@@@std@@@std@@U_Different_checked_iterator_base_type_tag@2@@std@@YAPBQAVSurfaceData@Ogre@@AAV?$_Vector_const_iterator@PAVSurfaceData@Ogre@@V?$allocator@PAVSurfaceData@Ogre@@@std@@@0@U_Different_checked_iterator_base_type_tag@0@@Z ; std::_Checked_base<std::_Vector_const_iterator<Ogre::SurfaceData *,std::allocator<Ogre::SurfaceData *> >,std::_Different_checked_iterator_base_type_tag>
	add	esp, 8

; 1166 : 	}

	mov	esp, ebp
	pop	ebp
	ret	0
??$_Checked_base@V?$_Vector_const_iterator@PAVSurfaceData@Ogre@@V?$allocator@PAVSurfaceData@Ogre@@@std@@@std@@@std@@YAPBQAVSurfaceData@Ogre@@AAV?$_Vector_const_iterator@PAVSurfaceData@Ogre@@V?$allocator@PAVSurfaceData@Ogre@@@std@@@0@@Z ENDP ; std::_Checked_base<std::_Vector_const_iterator<Ogre::SurfaceData *,std::allocator<Ogre::SurfaceData *> > >
; Function compile flags: /Odtp
_TEXT	ENDS
;	COMDAT ??$_Ptr_cat@V?$_Vector_const_iterator@PAVSurfaceData@Ogre@@V?$allocator@PAVSurfaceData@Ogre@@@std@@@std@@PAPAVSurfaceData@Ogre@@@std@@YA?AU_Scalar_ptr_iterator_tag@0@AAV?$_Vector_const_iterator@PAVSurfaceData@Ogre@@V?$allocator@PAVSurfaceData@Ogre@@@std@@@0@AAPAPAVSurfaceData@Ogre@@@Z
_TEXT	SEGMENT
__Cat$ = -1						; size = 1
___formal$ = 8						; size = 4
___formal$ = 12						; size = 4
??$_Ptr_cat@V?$_Vector_const_iterator@PAVSurfaceData@Ogre@@V?$allocator@PAVSurfaceData@Ogre@@@std@@@std@@PAPAVSurfaceData@Ogre@@@std@@YA?AU_Scalar_ptr_iterator_tag@0@AAV?$_Vector_const_iterator@PAVSurfaceData@Ogre@@V?$allocator@PAVSurfaceData@Ogre@@@std@@@0@AAPAPAVSurfaceData@Ogre@@@Z PROC ; std::_Ptr_cat<std::_Vector_const_iterator<Ogre::SurfaceData *,std::allocator<Ogre::SurfaceData *> >,Ogre::SurfaceData * *>, COMDAT

; 1509 : 	{

	push	ebp
	mov	ebp, esp
	push	ecx

; 1510 : 	typename _Ptr_cat_helper<_T1, _T2>::_Ptr_cat _Cat;
; 1511 : 	return (_Cat);

	mov	al, BYTE PTR __Cat$[ebp]

; 1512 : 	}

	mov	esp, ebp
	pop	ebp
	ret	0
??$_Ptr_cat@V?$_Vector_const_iterator@PAVSurfaceData@Ogre@@V?$allocator@PAVSurfaceData@Ogre@@@std@@@std@@PAPAVSurfaceData@Ogre@@@std@@YA?AU_Scalar_ptr_iterator_tag@0@AAV?$_Vector_const_iterator@PAVSurfaceData@Ogre@@V?$allocator@PAVSurfaceData@Ogre@@@std@@@0@AAPAPAVSurfaceData@Ogre@@@Z ENDP ; std::_Ptr_cat<std::_Vector_const_iterator<Ogre::SurfaceData *,std::allocator<Ogre::SurfaceData *> >,Ogre::SurfaceData * *>
; Function compile flags: /Odtp
; File d:\program files (x86)\microsoft visual studio 9.0\vc\include\memory
_TEXT	ENDS
;	COMDAT ??$_Uninit_copy@PBQAVSurfaceData@Ogre@@PAPAV12@V?$allocator@PAVSurfaceData@Ogre@@@std@@@std@@YAPAPAVSurfaceData@Ogre@@PBQAV12@0PAPAV12@AAV?$allocator@PAVSurfaceData@Ogre@@@0@U_Scalar_ptr_iterator_tag@0@U_Range_checked_iterator_tag@0@@Z
_TEXT	SEGMENT
__Result$ = -8						; size = 4
__Count$ = -4						; size = 4
__First$ = 8						; size = 4
__Last$ = 12						; size = 4
__Dest$ = 16						; size = 4
___formal$ = 20						; size = 4
___formal$ = 24						; size = 1
___formal$ = 28						; size = 1
??$_Uninit_copy@PBQAVSurfaceData@Ogre@@PAPAV12@V?$allocator@PAVSurfaceData@Ogre@@@std@@@std@@YAPAPAVSurfaceData@Ogre@@PBQAV12@0PAPAV12@AAV?$allocator@PAVSurfaceData@Ogre@@@0@U_Scalar_ptr_iterator_tag@0@U_Range_checked_iterator_tag@0@@Z PROC ; std::_Uninit_copy<Ogre::SurfaceData * const *,Ogre::SurfaceData * *,std::allocator<Ogre::SurfaceData *> >, COMDAT

; 145  : 	{	// copy [_First, _Last) to raw _Dest, scalar type

	push	ebp
	mov	ebp, esp
	sub	esp, 8

; 146  : 	_DEBUG_RANGE(_First, _Last);
; 147  : 	_DEBUG_POINTER(_Dest);
; 148  : 	size_t _Count = (size_t)(_Last - _First);

	mov	eax, DWORD PTR __Last$[ebp]
	sub	eax, DWORD PTR __First$[ebp]
	sar	eax, 2
	mov	DWORD PTR __Count$[ebp], eax

; 149  : 	_FwdIt _Result = _Dest + _Count;

	mov	ecx, DWORD PTR __Count$[ebp]
	mov	edx, DWORD PTR __Dest$[ebp]
	lea	eax, DWORD PTR [edx+ecx*4]
	mov	DWORD PTR __Result$[ebp], eax

; 150  : 	if (_Count > 0)

	cmp	DWORD PTR __Count$[ebp], 0
	jbe	SHORT $LN1@Uninit_cop@3

; 151  : 		_CRT_SECURE_MEMMOVE(&*_Dest, _Count * sizeof (*_First), &*_First, _Count * sizeof (*_First));	// NB: non-overlapping move

	mov	ecx, DWORD PTR __Count$[ebp]
	shl	ecx, 2
	push	ecx
	mov	edx, DWORD PTR __First$[ebp]
	push	edx
	mov	eax, DWORD PTR __Count$[ebp]
	shl	eax, 2
	push	eax
	mov	ecx, DWORD PTR __Dest$[ebp]
	push	ecx
	call	DWORD PTR __imp__memmove_s
	add	esp, 16					; 00000010H
$LN1@Uninit_cop@3:

; 152  : 	return (_Result);

	mov	eax, DWORD PTR __Result$[ebp]

; 153  : 	}

	mov	esp, ebp
	pop	ebp
	ret	0
??$_Uninit_copy@PBQAVSurfaceData@Ogre@@PAPAV12@V?$allocator@PAVSurfaceData@Ogre@@@std@@@std@@YAPAPAVSurfaceData@Ogre@@PBQAV12@0PAPAV12@AAV?$allocator@PAVSurfaceData@Ogre@@@0@U_Scalar_ptr_iterator_tag@0@U_Range_checked_iterator_tag@0@@Z ENDP ; std::_Uninit_copy<Ogre::SurfaceData * const *,Ogre::SurfaceData * *,std::allocator<Ogre::SurfaceData *> >
; Function compile flags: /Odtp
; File d:\program files (x86)\microsoft visual studio 9.0\vc\include\xutility
_TEXT	ENDS
;	COMDAT ??$_Checked_base@PAPAVSurfaceData@Ogre@@@std@@YAPAPAVSurfaceData@Ogre@@AAPAPAV12@U_Unchanged_checked_iterator_base_type_tag@0@@Z
_TEXT	SEGMENT
__It$ = 8						; size = 4
___formal$ = 12						; size = 1
??$_Checked_base@PAPAVSurfaceData@Ogre@@@std@@YAPAPAVSurfaceData@Ogre@@AAPAPAV12@U_Unchanged_checked_iterator_base_type_tag@0@@Z PROC ; std::_Checked_base<Ogre::SurfaceData * *>, COMDAT

; 1146 : 	{

	push	ebp
	mov	ebp, esp

; 1147 : 		return _It;

	mov	eax, DWORD PTR __It$[ebp]
	mov	eax, DWORD PTR [eax]

; 1148 : 	}

	pop	ebp
	ret	0
??$_Checked_base@PAPAVSurfaceData@Ogre@@@std@@YAPAPAVSurfaceData@Ogre@@AAPAPAV12@U_Unchanged_checked_iterator_base_type_tag@0@@Z ENDP ; std::_Checked_base<Ogre::SurfaceData * *>
; Function compile flags: /Odtp
; File d:\program files (x86)\microsoft visual studio 9.0\vc\include\memory
_TEXT	ENDS
;	COMDAT ??$_Uninit_copy@PAPAVSurfaceData@Ogre@@PAPAV12@V?$allocator@PAVSurfaceData@Ogre@@@std@@@std@@YAPAPAVSurfaceData@Ogre@@PAPAV12@00AAV?$allocator@PAVSurfaceData@Ogre@@@0@U_Scalar_ptr_iterator_tag@0@U_Range_checked_iterator_tag@0@@Z
_TEXT	SEGMENT
__Result$ = -8						; size = 4
__Count$ = -4						; size = 4
__First$ = 8						; size = 4
__Last$ = 12						; size = 4
__Dest$ = 16						; size = 4
___formal$ = 20						; size = 4
___formal$ = 24						; size = 1
___formal$ = 28						; size = 1
??$_Uninit_copy@PAPAVSurfaceData@Ogre@@PAPAV12@V?$allocator@PAVSurfaceData@Ogre@@@std@@@std@@YAPAPAVSurfaceData@Ogre@@PAPAV12@00AAV?$allocator@PAVSurfaceData@Ogre@@@0@U_Scalar_ptr_iterator_tag@0@U_Range_checked_iterator_tag@0@@Z PROC ; std::_Uninit_copy<Ogre::SurfaceData * *,Ogre::SurfaceData * *,std::allocator<Ogre::SurfaceData *> >, COMDAT

; 145  : 	{	// copy [_First, _Last) to raw _Dest, scalar type

	push	ebp
	mov	ebp, esp
	sub	esp, 8

; 146  : 	_DEBUG_RANGE(_First, _Last);
; 147  : 	_DEBUG_POINTER(_Dest);
; 148  : 	size_t _Count = (size_t)(_Last - _First);

	mov	eax, DWORD PTR __Last$[ebp]
	sub	eax, DWORD PTR __First$[ebp]
	sar	eax, 2
	mov	DWORD PTR __Count$[ebp], eax

; 149  : 	_FwdIt _Result = _Dest + _Count;

	mov	ecx, DWORD PTR __Count$[ebp]
	mov	edx, DWORD PTR __Dest$[ebp]
	lea	eax, DWORD PTR [edx+ecx*4]
	mov	DWORD PTR __Result$[ebp], eax

; 150  : 	if (_Count > 0)

	cmp	DWORD PTR __Count$[ebp], 0
	jbe	SHORT $LN1@Uninit_cop@4

; 151  : 		_CRT_SECURE_MEMMOVE(&*_Dest, _Count * sizeof (*_First), &*_First, _Count * sizeof (*_First));	// NB: non-overlapping move

	mov	ecx, DWORD PTR __Count$[ebp]
	shl	ecx, 2
	push	ecx
	mov	edx, DWORD PTR __First$[ebp]
	push	edx
	mov	eax, DWORD PTR __Count$[ebp]
	shl	eax, 2
	push	eax
	mov	ecx, DWORD PTR __Dest$[ebp]
	push	ecx
	call	DWORD PTR __imp__memmove_s
	add	esp, 16					; 00000010H
$LN1@Uninit_cop@4:

; 152  : 	return (_Result);

	mov	eax, DWORD PTR __Result$[ebp]

; 153  : 	}

	mov	esp, ebp
	pop	ebp
	ret	0
??$_Uninit_copy@PAPAVSurfaceData@Ogre@@PAPAV12@V?$allocator@PAVSurfaceData@Ogre@@@std@@@std@@YAPAPAVSurfaceData@Ogre@@PAPAV12@00AAV?$allocator@PAVSurfaceData@Ogre@@@0@U_Scalar_ptr_iterator_tag@0@U_Range_checked_iterator_tag@0@@Z ENDP ; std::_Uninit_copy<Ogre::SurfaceData * *,Ogre::SurfaceData * *,std::allocator<Ogre::SurfaceData *> >
_TEXT	ENDS
PUBLIC	??$_Checked_base@V?$_Vector_const_iterator@VVector3@Ogre@@V?$allocator@VVector3@Ogre@@@std@@@std@@U_Different_checked_iterator_base_type_tag@2@@std@@YAPBVVector3@Ogre@@AAV?$_Vector_const_iterator@VVector3@Ogre@@V?$allocator@VVector3@Ogre@@@std@@@0@U_Different_checked_iterator_base_type_tag@0@@Z ; std::_Checked_base<std::_Vector_const_iterator<Ogre::Vector3,std::allocator<Ogre::Vector3> >,std::_Different_checked_iterator_base_type_tag>
; Function compile flags: /Odtp
; File d:\program files (x86)\microsoft visual studio 9.0\vc\include\xutility
;	COMDAT ??$_Checked_base@V?$_Vector_const_iterator@VVector3@Ogre@@V?$allocator@VVector3@Ogre@@@std@@@std@@@std@@YAPBVVector3@Ogre@@AAV?$_Vector_const_iterator@VVector3@Ogre@@V?$allocator@VVector3@Ogre@@@std@@@0@@Z
_TEXT	SEGMENT
__Base_tag$ = -1					; size = 1
__It$ = 8						; size = 4
??$_Checked_base@V?$_Vector_const_iterator@VVector3@Ogre@@V?$allocator@VVector3@Ogre@@@std@@@std@@@std@@YAPBVVector3@Ogre@@AAV?$_Vector_const_iterator@VVector3@Ogre@@V?$allocator@VVector3@Ogre@@@std@@@0@@Z PROC ; std::_Checked_base<std::_Vector_const_iterator<Ogre::Vector3,std::allocator<Ogre::Vector3> > >, COMDAT

; 1163 : 	{

	push	ebp
	mov	ebp, esp
	push	ecx

; 1164 : 		typename _Checked_iterator_base_helper<_Iter>::_Checked_iterator_base_type_tag _Base_tag;
; 1165 : 		return _Checked_base(_It, _Base_tag);

	movzx	eax, BYTE PTR __Base_tag$[ebp]
	push	eax
	mov	ecx, DWORD PTR __It$[ebp]
	push	ecx
	call	??$_Checked_base@V?$_Vector_const_iterator@VVector3@Ogre@@V?$allocator@VVector3@Ogre@@@std@@@std@@U_Different_checked_iterator_base_type_tag@2@@std@@YAPBVVector3@Ogre@@AAV?$_Vector_const_iterator@VVector3@Ogre@@V?$allocator@VVector3@Ogre@@@std@@@0@U_Different_checked_iterator_base_type_tag@0@@Z ; std::_Checked_base<std::_Vector_const_iterator<Ogre::Vector3,std::allocator<Ogre::Vector3> >,std::_Different_checked_iterator_base_type_tag>
	add	esp, 8

; 1166 : 	}

	mov	esp, ebp
	pop	ebp
	ret	0
??$_Checked_base@V?$_Vector_const_iterator@VVector3@Ogre@@V?$allocator@VVector3@Ogre@@@std@@@std@@@std@@YAPBVVector3@Ogre@@AAV?$_Vector_const_iterator@VVector3@Ogre@@V?$allocator@VVector3@Ogre@@@std@@@0@@Z ENDP ; std::_Checked_base<std::_Vector_const_iterator<Ogre::Vector3,std::allocator<Ogre::Vector3> > >
; Function compile flags: /Odtp
_TEXT	ENDS
;	COMDAT ??$_Ptr_cat@V?$_Vector_const_iterator@VVector3@Ogre@@V?$allocator@VVector3@Ogre@@@std@@@std@@PAVVector3@Ogre@@@std@@YA?AU_Nonscalar_ptr_iterator_tag@0@AAV?$_Vector_const_iterator@VVector3@Ogre@@V?$allocator@VVector3@Ogre@@@std@@@0@AAPAVVector3@Ogre@@@Z
_TEXT	SEGMENT
__Cat$ = -1						; size = 1
___formal$ = 8						; size = 4
___formal$ = 12						; size = 4
??$_Ptr_cat@V?$_Vector_const_iterator@VVector3@Ogre@@V?$allocator@VVector3@Ogre@@@std@@@std@@PAVVector3@Ogre@@@std@@YA?AU_Nonscalar_ptr_iterator_tag@0@AAV?$_Vector_const_iterator@VVector3@Ogre@@V?$allocator@VVector3@Ogre@@@std@@@0@AAPAVVector3@Ogre@@@Z PROC ; std::_Ptr_cat<std::_Vector_const_iterator<Ogre::Vector3,std::allocator<Ogre::Vector3> >,Ogre::Vector3 *>, COMDAT

; 1509 : 	{

	push	ebp
	mov	ebp, esp
	push	ecx

; 1510 : 	typename _Ptr_cat_helper<_T1, _T2>::_Ptr_cat _Cat;
; 1511 : 	return (_Cat);

	mov	al, BYTE PTR __Cat$[ebp]

; 1512 : 	}

	mov	esp, ebp
	pop	ebp
	ret	0
??$_Ptr_cat@V?$_Vector_const_iterator@VVector3@Ogre@@V?$allocator@VVector3@Ogre@@@std@@@std@@PAVVector3@Ogre@@@std@@YA?AU_Nonscalar_ptr_iterator_tag@0@AAV?$_Vector_const_iterator@VVector3@Ogre@@V?$allocator@VVector3@Ogre@@@std@@@0@AAPAVVector3@Ogre@@@Z ENDP ; std::_Ptr_cat<std::_Vector_const_iterator<Ogre::Vector3,std::allocator<Ogre::Vector3> >,Ogre::Vector3 *>
_TEXT	ENDS
PUBLIC	?construct@?$allocator@VVector3@Ogre@@@std@@QAEXPAVVector3@Ogre@@ABV34@@Z ; std::allocator<Ogre::Vector3>::construct
;	COMDAT xdata$x
; File d:\program files (x86)\microsoft visual studio 9.0\vc\include\memory
xdata$x	SEGMENT
__catchsym$??$_Uninit_copy@PBVVector3@Ogre@@PAV12@V?$allocator@VVector3@Ogre@@@std@@@std@@YAPAVVector3@Ogre@@PBV12@0PAV12@AAV?$allocator@VVector3@Ogre@@@0@U_Nonscalar_ptr_iterator_tag@0@U_Range_checked_iterator_tag@0@@Z$2 DD 00H
	DD	00H
	DD	00H
	DD	FLAT:__catch$??$_Uninit_copy@PBVVector3@Ogre@@PAV12@V?$allocator@VVector3@Ogre@@@std@@@std@@YAPAVVector3@Ogre@@PBV12@0PAV12@AAV?$allocator@VVector3@Ogre@@@0@U_Nonscalar_ptr_iterator_tag@0@U_Range_checked_iterator_tag@0@@Z$0
__unwindtable$??$_Uninit_copy@PBVVector3@Ogre@@PAV12@V?$allocator@VVector3@Ogre@@@std@@@std@@YAPAVVector3@Ogre@@PBV12@0PAV12@AAV?$allocator@VVector3@Ogre@@@0@U_Nonscalar_ptr_iterator_tag@0@U_Range_checked_iterator_tag@0@@Z DD 0ffffffffH
	DD	00H
	DD	0ffffffffH
	DD	00H
__tryblocktable$??$_Uninit_copy@PBVVector3@Ogre@@PAV12@V?$allocator@VVector3@Ogre@@@std@@@std@@YAPAVVector3@Ogre@@PBV12@0PAV12@AAV?$allocator@VVector3@Ogre@@@0@U_Nonscalar_ptr_iterator_tag@0@U_Range_checked_iterator_tag@0@@Z DD 00H
	DD	00H
	DD	01H
	DD	01H
	DD	FLAT:__catchsym$??$_Uninit_copy@PBVVector3@Ogre@@PAV12@V?$allocator@VVector3@Ogre@@@std@@@std@@YAPAVVector3@Ogre@@PBV12@0PAV12@AAV?$allocator@VVector3@Ogre@@@0@U_Nonscalar_ptr_iterator_tag@0@U_Range_checked_iterator_tag@0@@Z$2
__ehfuncinfo$??$_Uninit_copy@PBVVector3@Ogre@@PAV12@V?$allocator@VVector3@Ogre@@@std@@@std@@YAPAVVector3@Ogre@@PBV12@0PAV12@AAV?$allocator@VVector3@Ogre@@@0@U_Nonscalar_ptr_iterator_tag@0@U_Range_checked_iterator_tag@0@@Z DD 019930522H
	DD	02H
	DD	FLAT:__unwindtable$??$_Uninit_copy@PBVVector3@Ogre@@PAV12@V?$allocator@VVector3@Ogre@@@std@@@std@@YAPAVVector3@Ogre@@PBV12@0PAV12@AAV?$allocator@VVector3@Ogre@@@0@U_Nonscalar_ptr_iterator_tag@0@U_Range_checked_iterator_tag@0@@Z
	DD	01H
	DD	FLAT:__tryblocktable$??$_Uninit_copy@PBVVector3@Ogre@@PAV12@V?$allocator@VVector3@Ogre@@@std@@@std@@YAPAVVector3@Ogre@@PBV12@0PAV12@AAV?$allocator@VVector3@Ogre@@@0@U_Nonscalar_ptr_iterator_tag@0@U_Range_checked_iterator_tag@0@@Z
	DD	2 DUP(00H)
	DD	00H
	DD	00H
; Function compile flags: /Odtp
xdata$x	ENDS
;	COMDAT ??$_Uninit_copy@PBVVector3@Ogre@@PAV12@V?$allocator@VVector3@Ogre@@@std@@@std@@YAPAVVector3@Ogre@@PBV12@0PAV12@AAV?$allocator@VVector3@Ogre@@@0@U_Nonscalar_ptr_iterator_tag@0@U_Range_checked_iterator_tag@0@@Z
_TEXT	SEGMENT
__Next$ = -20						; size = 4
__$EHRec$ = -16						; size = 16
__First$ = 8						; size = 4
__Last$ = 12						; size = 4
__Dest$ = 16						; size = 4
__Al$ = 20						; size = 4
___formal$ = 24						; size = 1
___formal$ = 28						; size = 1
??$_Uninit_copy@PBVVector3@Ogre@@PAV12@V?$allocator@VVector3@Ogre@@@std@@@std@@YAPAVVector3@Ogre@@PBV12@0PAV12@AAV?$allocator@VVector3@Ogre@@@0@U_Nonscalar_ptr_iterator_tag@0@U_Range_checked_iterator_tag@0@@Z PROC ; std::_Uninit_copy<Ogre::Vector3 const *,Ogre::Vector3 *,std::allocator<Ogre::Vector3> >, COMDAT

; 124  : 	{	// copy [_First, _Last) to raw _Dest, using _Al, arbitrary type

	push	ebp
	mov	ebp, esp
	push	-1
	push	__ehhandler$??$_Uninit_copy@PBVVector3@Ogre@@PAV12@V?$allocator@VVector3@Ogre@@@std@@@std@@YAPAVVector3@Ogre@@PBV12@0PAV12@AAV?$allocator@VVector3@Ogre@@@0@U_Nonscalar_ptr_iterator_tag@0@U_Range_checked_iterator_tag@0@@Z
	mov	eax, DWORD PTR fs:0
	push	eax
	push	ecx
	push	ecx
	push	ebx
	push	esi
	push	edi
	mov	eax, DWORD PTR ___security_cookie
	xor	eax, ebp
	push	eax
	lea	eax, DWORD PTR __$EHRec$[ebp+4]
	mov	DWORD PTR fs:0, eax
	mov	DWORD PTR __$EHRec$[ebp], esp

; 125  : 	_DEBUG_RANGE(_First, _Last);
; 126  : 	_DEBUG_POINTER(_Dest);
; 127  : 	_FwdIt _Next = _Dest;

	mov	eax, DWORD PTR __Dest$[ebp]
	mov	DWORD PTR __Next$[ebp], eax

; 128  : 
; 129  : 	_TRY_BEGIN

	mov	DWORD PTR __$EHRec$[ebp+12], 0

; 130  : 	for (; _First != _Last; ++_Dest, ++_First)

	jmp	SHORT $LN6@Uninit_cop@5
$LN5@Uninit_cop@5:
	mov	ecx, DWORD PTR __Dest$[ebp]
	add	ecx, 12					; 0000000cH
	mov	DWORD PTR __Dest$[ebp], ecx
	mov	edx, DWORD PTR __First$[ebp]
	add	edx, 12					; 0000000cH
	mov	DWORD PTR __First$[ebp], edx
$LN6@Uninit_cop@5:
	mov	eax, DWORD PTR __First$[ebp]
	cmp	eax, DWORD PTR __Last$[ebp]
	je	SHORT $LN4@Uninit_cop@5

; 131  : 		_Al.construct(_Dest, *_First);

	mov	ecx, DWORD PTR __First$[ebp]
	push	ecx
	mov	edx, DWORD PTR __Dest$[ebp]
	push	edx
	mov	ecx, DWORD PTR __Al$[ebp]
	call	?construct@?$allocator@VVector3@Ogre@@@std@@QAEXPAVVector3@Ogre@@ABV34@@Z ; std::allocator<Ogre::Vector3>::construct
	jmp	SHORT $LN5@Uninit_cop@5
$LN4@Uninit_cop@5:
	jmp	SHORT $LN10@Uninit_cop@5
__catch$??$_Uninit_copy@PBVVector3@Ogre@@PAV12@V?$allocator@VVector3@Ogre@@@std@@@std@@YAPAVVector3@Ogre@@PBV12@0PAV12@AAV?$allocator@VVector3@Ogre@@@0@U_Nonscalar_ptr_iterator_tag@0@U_Range_checked_iterator_tag@0@@Z$0:

; 132  : 	_CATCH_ALL
; 133  : 	for (; _Next != _Dest; ++_Next)

	jmp	SHORT $LN3@Uninit_cop@5
$LN2@Uninit_cop@5:
	mov	eax, DWORD PTR __Next$[ebp]
	add	eax, 12					; 0000000cH
	mov	DWORD PTR __Next$[ebp], eax
$LN3@Uninit_cop@5:
	mov	ecx, DWORD PTR __Next$[ebp]
	cmp	ecx, DWORD PTR __Dest$[ebp]
	je	SHORT $LN1@Uninit_cop@5

; 134  : 		_Al.destroy(_Next);

	mov	edx, DWORD PTR __Next$[ebp]
	push	edx
	mov	ecx, DWORD PTR __Al$[ebp]
	call	?destroy@?$allocator@VVector3@Ogre@@@std@@QAEXPAVVector3@Ogre@@@Z ; std::allocator<Ogre::Vector3>::destroy
	jmp	SHORT $LN2@Uninit_cop@5
$LN1@Uninit_cop@5:

; 135  : 	_RERAISE;

	push	0
	push	0
	call	__CxxThrowException@8

; 136  : 	_CATCH_END

	mov	DWORD PTR __$EHRec$[ebp+12], -1
	mov	eax, __tryend$??$_Uninit_copy@PBVVector3@Ogre@@PAV12@V?$allocator@VVector3@Ogre@@@std@@@std@@YAPAVVector3@Ogre@@PBV12@0PAV12@AAV?$allocator@VVector3@Ogre@@@0@U_Nonscalar_ptr_iterator_tag@0@U_Range_checked_iterator_tag@0@@Z$1
	ret	0
$LN10@Uninit_cop@5:
	mov	DWORD PTR __$EHRec$[ebp+12], -1
__tryend$??$_Uninit_copy@PBVVector3@Ogre@@PAV12@V?$allocator@VVector3@Ogre@@@std@@@std@@YAPAVVector3@Ogre@@PBV12@0PAV12@AAV?$allocator@VVector3@Ogre@@@0@U_Nonscalar_ptr_iterator_tag@0@U_Range_checked_iterator_tag@0@@Z$1:

; 137  : 	return (_Dest);

	mov	eax, DWORD PTR __Dest$[ebp]
$LN9@Uninit_cop@5:

; 138  : 	}

	mov	ecx, DWORD PTR __$EHRec$[ebp+4]
	mov	DWORD PTR fs:0, ecx
	pop	ecx
	pop	edi
	pop	esi
	pop	ebx
	mov	esp, ebp
	pop	ebp
	ret	0
_TEXT	ENDS
;	COMDAT text$x
text$x	SEGMENT
__ehhandler$??$_Uninit_copy@PBVVector3@Ogre@@PAV12@V?$allocator@VVector3@Ogre@@@std@@@std@@YAPAVVector3@Ogre@@PBV12@0PAV12@AAV?$allocator@VVector3@Ogre@@@0@U_Nonscalar_ptr_iterator_tag@0@U_Range_checked_iterator_tag@0@@Z:
	mov	edx, DWORD PTR [esp+8]
	lea	eax, DWORD PTR [edx+12]
	mov	ecx, DWORD PTR [edx-24]
	xor	ecx, eax
	call	@__security_check_cookie@4
	mov	eax, OFFSET __ehfuncinfo$??$_Uninit_copy@PBVVector3@Ogre@@PAV12@V?$allocator@VVector3@Ogre@@@std@@@std@@YAPAVVector3@Ogre@@PBV12@0PAV12@AAV?$allocator@VVector3@Ogre@@@0@U_Nonscalar_ptr_iterator_tag@0@U_Range_checked_iterator_tag@0@@Z
	jmp	___CxxFrameHandler3
text$x	ENDS
??$_Uninit_copy@PBVVector3@Ogre@@PAV12@V?$allocator@VVector3@Ogre@@@std@@@std@@YAPAVVector3@Ogre@@PBV12@0PAV12@AAV?$allocator@VVector3@Ogre@@@0@U_Nonscalar_ptr_iterator_tag@0@U_Range_checked_iterator_tag@0@@Z ENDP ; std::_Uninit_copy<Ogre::Vector3 const *,Ogre::Vector3 *,std::allocator<Ogre::Vector3> >
; Function compile flags: /Odtp
; File d:\program files (x86)\microsoft visual studio 9.0\vc\include\xutility
;	COMDAT ??$_Checked_base@PAVVector3@Ogre@@@std@@YAPAVVector3@Ogre@@AAPAV12@U_Unchanged_checked_iterator_base_type_tag@0@@Z
_TEXT	SEGMENT
__It$ = 8						; size = 4
___formal$ = 12						; size = 1
??$_Checked_base@PAVVector3@Ogre@@@std@@YAPAVVector3@Ogre@@AAPAV12@U_Unchanged_checked_iterator_base_type_tag@0@@Z PROC ; std::_Checked_base<Ogre::Vector3 *>, COMDAT

; 1146 : 	{

	push	ebp
	mov	ebp, esp

; 1147 : 		return _It;

	mov	eax, DWORD PTR __It$[ebp]
	mov	eax, DWORD PTR [eax]

; 1148 : 	}

	pop	ebp
	ret	0
??$_Checked_base@PAVVector3@Ogre@@@std@@YAPAVVector3@Ogre@@AAPAV12@U_Unchanged_checked_iterator_base_type_tag@0@@Z ENDP ; std::_Checked_base<Ogre::Vector3 *>
; Function compile flags: /Odtp
_TEXT	ENDS
;	COMDAT ??$_Copy_opt@PAVVector3@Ogre@@PAV12@Uforward_iterator_tag@std@@@std@@YAPAVVector3@Ogre@@PAV12@00Uforward_iterator_tag@0@U_Nonscalar_ptr_iterator_tag@0@U_Range_checked_iterator_tag@0@@Z
_TEXT	SEGMENT
__First$ = 8						; size = 4
__Last$ = 12						; size = 4
__Dest$ = 16						; size = 4
___formal$ = 20						; size = 1
___formal$ = 24						; size = 1
___formal$ = 28						; size = 1
??$_Copy_opt@PAVVector3@Ogre@@PAV12@Uforward_iterator_tag@std@@@std@@YAPAVVector3@Ogre@@PAV12@00Uforward_iterator_tag@0@U_Nonscalar_ptr_iterator_tag@0@U_Range_checked_iterator_tag@0@@Z PROC ; std::_Copy_opt<Ogre::Vector3 *,Ogre::Vector3 *,std::forward_iterator_tag>, COMDAT

; 2469 : 	{	// copy [_First, _Last) to [_Dest, ...), arbitrary iterators

	push	ebp
	mov	ebp, esp

; 2470 : 	_DEBUG_RANGE(_First, _Last);
; 2471 : 	for (; _First != _Last; ++_Dest, ++_First)

	jmp	SHORT $LN3@Copy_opt@3
$LN2@Copy_opt@3:
	mov	eax, DWORD PTR __Dest$[ebp]
	add	eax, 12					; 0000000cH
	mov	DWORD PTR __Dest$[ebp], eax
	mov	ecx, DWORD PTR __First$[ebp]
	add	ecx, 12					; 0000000cH
	mov	DWORD PTR __First$[ebp], ecx
$LN3@Copy_opt@3:
	mov	edx, DWORD PTR __First$[ebp]
	cmp	edx, DWORD PTR __Last$[ebp]
	je	SHORT $LN1@Copy_opt@3

; 2472 : 		*_Dest = *_First;

	mov	eax, DWORD PTR __First$[ebp]
	push	eax
	mov	ecx, DWORD PTR __Dest$[ebp]
	call	??4Vector3@Ogre@@QAEABV01@ABV01@@Z	; Ogre::Vector3::operator=
	jmp	SHORT $LN2@Copy_opt@3
$LN1@Copy_opt@3:

; 2473 : 	return (_Dest);

	mov	eax, DWORD PTR __Dest$[ebp]

; 2474 : 	}

	pop	ebp
	ret	0
??$_Copy_opt@PAVVector3@Ogre@@PAV12@Uforward_iterator_tag@std@@@std@@YAPAVVector3@Ogre@@PAV12@00Uforward_iterator_tag@0@U_Nonscalar_ptr_iterator_tag@0@U_Range_checked_iterator_tag@0@@Z ENDP ; std::_Copy_opt<Ogre::Vector3 *,Ogre::Vector3 *,std::forward_iterator_tag>
_TEXT	ENDS
;	COMDAT xdata$x
; File d:\program files (x86)\microsoft visual studio 9.0\vc\include\memory
xdata$x	SEGMENT
__catchsym$??$_Uninit_copy@PAVVector3@Ogre@@PAV12@V?$allocator@VVector3@Ogre@@@std@@@std@@YAPAVVector3@Ogre@@PAV12@00AAV?$allocator@VVector3@Ogre@@@0@U_Nonscalar_ptr_iterator_tag@0@U_Range_checked_iterator_tag@0@@Z$2 DD 00H
	DD	00H
	DD	00H
	DD	FLAT:__catch$??$_Uninit_copy@PAVVector3@Ogre@@PAV12@V?$allocator@VVector3@Ogre@@@std@@@std@@YAPAVVector3@Ogre@@PAV12@00AAV?$allocator@VVector3@Ogre@@@0@U_Nonscalar_ptr_iterator_tag@0@U_Range_checked_iterator_tag@0@@Z$0
__unwindtable$??$_Uninit_copy@PAVVector3@Ogre@@PAV12@V?$allocator@VVector3@Ogre@@@std@@@std@@YAPAVVector3@Ogre@@PAV12@00AAV?$allocator@VVector3@Ogre@@@0@U_Nonscalar_ptr_iterator_tag@0@U_Range_checked_iterator_tag@0@@Z DD 0ffffffffH
	DD	00H
	DD	0ffffffffH
	DD	00H
__tryblocktable$??$_Uninit_copy@PAVVector3@Ogre@@PAV12@V?$allocator@VVector3@Ogre@@@std@@@std@@YAPAVVector3@Ogre@@PAV12@00AAV?$allocator@VVector3@Ogre@@@0@U_Nonscalar_ptr_iterator_tag@0@U_Range_checked_iterator_tag@0@@Z DD 00H
	DD	00H
	DD	01H
	DD	01H
	DD	FLAT:__catchsym$??$_Uninit_copy@PAVVector3@Ogre@@PAV12@V?$allocator@VVector3@Ogre@@@std@@@std@@YAPAVVector3@Ogre@@PAV12@00AAV?$allocator@VVector3@Ogre@@@0@U_Nonscalar_ptr_iterator_tag@0@U_Range_checked_iterator_tag@0@@Z$2
__ehfuncinfo$??$_Uninit_copy@PAVVector3@Ogre@@PAV12@V?$allocator@VVector3@Ogre@@@std@@@std@@YAPAVVector3@Ogre@@PAV12@00AAV?$allocator@VVector3@Ogre@@@0@U_Nonscalar_ptr_iterator_tag@0@U_Range_checked_iterator_tag@0@@Z DD 019930522H
	DD	02H
	DD	FLAT:__unwindtable$??$_Uninit_copy@PAVVector3@Ogre@@PAV12@V?$allocator@VVector3@Ogre@@@std@@@std@@YAPAVVector3@Ogre@@PAV12@00AAV?$allocator@VVector3@Ogre@@@0@U_Nonscalar_ptr_iterator_tag@0@U_Range_checked_iterator_tag@0@@Z
	DD	01H
	DD	FLAT:__tryblocktable$??$_Uninit_copy@PAVVector3@Ogre@@PAV12@V?$allocator@VVector3@Ogre@@@std@@@std@@YAPAVVector3@Ogre@@PAV12@00AAV?$allocator@VVector3@Ogre@@@0@U_Nonscalar_ptr_iterator_tag@0@U_Range_checked_iterator_tag@0@@Z
	DD	2 DUP(00H)
	DD	00H
	DD	00H
; Function compile flags: /Odtp
xdata$x	ENDS
;	COMDAT ??$_Uninit_copy@PAVVector3@Ogre@@PAV12@V?$allocator@VVector3@Ogre@@@std@@@std@@YAPAVVector3@Ogre@@PAV12@00AAV?$allocator@VVector3@Ogre@@@0@U_Nonscalar_ptr_iterator_tag@0@U_Range_checked_iterator_tag@0@@Z
_TEXT	SEGMENT
__Next$ = -20						; size = 4
__$EHRec$ = -16						; size = 16
__First$ = 8						; size = 4
__Last$ = 12						; size = 4
__Dest$ = 16						; size = 4
__Al$ = 20						; size = 4
___formal$ = 24						; size = 1
___formal$ = 28						; size = 1
??$_Uninit_copy@PAVVector3@Ogre@@PAV12@V?$allocator@VVector3@Ogre@@@std@@@std@@YAPAVVector3@Ogre@@PAV12@00AAV?$allocator@VVector3@Ogre@@@0@U_Nonscalar_ptr_iterator_tag@0@U_Range_checked_iterator_tag@0@@Z PROC ; std::_Uninit_copy<Ogre::Vector3 *,Ogre::Vector3 *,std::allocator<Ogre::Vector3> >, COMDAT

; 124  : 	{	// copy [_First, _Last) to raw _Dest, using _Al, arbitrary type

	push	ebp
	mov	ebp, esp
	push	-1
	push	__ehhandler$??$_Uninit_copy@PAVVector3@Ogre@@PAV12@V?$allocator@VVector3@Ogre@@@std@@@std@@YAPAVVector3@Ogre@@PAV12@00AAV?$allocator@VVector3@Ogre@@@0@U_Nonscalar_ptr_iterator_tag@0@U_Range_checked_iterator_tag@0@@Z
	mov	eax, DWORD PTR fs:0
	push	eax
	push	ecx
	push	ecx
	push	ebx
	push	esi
	push	edi
	mov	eax, DWORD PTR ___security_cookie
	xor	eax, ebp
	push	eax
	lea	eax, DWORD PTR __$EHRec$[ebp+4]
	mov	DWORD PTR fs:0, eax
	mov	DWORD PTR __$EHRec$[ebp], esp

; 125  : 	_DEBUG_RANGE(_First, _Last);
; 126  : 	_DEBUG_POINTER(_Dest);
; 127  : 	_FwdIt _Next = _Dest;

	mov	eax, DWORD PTR __Dest$[ebp]
	mov	DWORD PTR __Next$[ebp], eax

; 128  : 
; 129  : 	_TRY_BEGIN

	mov	DWORD PTR __$EHRec$[ebp+12], 0

; 130  : 	for (; _First != _Last; ++_Dest, ++_First)

	jmp	SHORT $LN6@Uninit_cop@6
$LN5@Uninit_cop@6:
	mov	ecx, DWORD PTR __Dest$[ebp]
	add	ecx, 12					; 0000000cH
	mov	DWORD PTR __Dest$[ebp], ecx
	mov	edx, DWORD PTR __First$[ebp]
	add	edx, 12					; 0000000cH
	mov	DWORD PTR __First$[ebp], edx
$LN6@Uninit_cop@6:
	mov	eax, DWORD PTR __First$[ebp]
	cmp	eax, DWORD PTR __Last$[ebp]
	je	SHORT $LN4@Uninit_cop@6

; 131  : 		_Al.construct(_Dest, *_First);

	mov	ecx, DWORD PTR __First$[ebp]
	push	ecx
	mov	edx, DWORD PTR __Dest$[ebp]
	push	edx
	mov	ecx, DWORD PTR __Al$[ebp]
	call	?construct@?$allocator@VVector3@Ogre@@@std@@QAEXPAVVector3@Ogre@@ABV34@@Z ; std::allocator<Ogre::Vector3>::construct
	jmp	SHORT $LN5@Uninit_cop@6
$LN4@Uninit_cop@6:
	jmp	SHORT $LN10@Uninit_cop@6
__catch$??$_Uninit_copy@PAVVector3@Ogre@@PAV12@V?$allocator@VVector3@Ogre@@@std@@@std@@YAPAVVector3@Ogre@@PAV12@00AAV?$allocator@VVector3@Ogre@@@0@U_Nonscalar_ptr_iterator_tag@0@U_Range_checked_iterator_tag@0@@Z$0:

; 132  : 	_CATCH_ALL
; 133  : 	for (; _Next != _Dest; ++_Next)

	jmp	SHORT $LN3@Uninit_cop@6
$LN2@Uninit_cop@6:
	mov	eax, DWORD PTR __Next$[ebp]
	add	eax, 12					; 0000000cH
	mov	DWORD PTR __Next$[ebp], eax
$LN3@Uninit_cop@6:
	mov	ecx, DWORD PTR __Next$[ebp]
	cmp	ecx, DWORD PTR __Dest$[ebp]
	je	SHORT $LN1@Uninit_cop@6

; 134  : 		_Al.destroy(_Next);

	mov	edx, DWORD PTR __Next$[ebp]
	push	edx
	mov	ecx, DWORD PTR __Al$[ebp]
	call	?destroy@?$allocator@VVector3@Ogre@@@std@@QAEXPAVVector3@Ogre@@@Z ; std::allocator<Ogre::Vector3>::destroy
	jmp	SHORT $LN2@Uninit_cop@6
$LN1@Uninit_cop@6:

; 135  : 	_RERAISE;

	push	0
	push	0
	call	__CxxThrowException@8

; 136  : 	_CATCH_END

	mov	DWORD PTR __$EHRec$[ebp+12], -1
	mov	eax, __tryend$??$_Uninit_copy@PAVVector3@Ogre@@PAV12@V?$allocator@VVector3@Ogre@@@std@@@std@@YAPAVVector3@Ogre@@PAV12@00AAV?$allocator@VVector3@Ogre@@@0@U_Nonscalar_ptr_iterator_tag@0@U_Range_checked_iterator_tag@0@@Z$1
	ret	0
$LN10@Uninit_cop@6:
	mov	DWORD PTR __$EHRec$[ebp+12], -1
__tryend$??$_Uninit_copy@PAVVector3@Ogre@@PAV12@V?$allocator@VVector3@Ogre@@@std@@@std@@YAPAVVector3@Ogre@@PAV12@00AAV?$allocator@VVector3@Ogre@@@0@U_Nonscalar_ptr_iterator_tag@0@U_Range_checked_iterator_tag@0@@Z$1:

; 137  : 	return (_Dest);

	mov	eax, DWORD PTR __Dest$[ebp]
$LN9@Uninit_cop@6:

; 138  : 	}

	mov	ecx, DWORD PTR __$EHRec$[ebp+4]
	mov	DWORD PTR fs:0, ecx
	pop	ecx
	pop	edi
	pop	esi
	pop	ebx
	mov	esp, ebp
	pop	ebp
	ret	0
_TEXT	ENDS
;	COMDAT text$x
text$x	SEGMENT
__ehhandler$??$_Uninit_copy@PAVVector3@Ogre@@PAV12@V?$allocator@VVector3@Ogre@@@std@@@std@@YAPAVVector3@Ogre@@PAV12@00AAV?$allocator@VVector3@Ogre@@@0@U_Nonscalar_ptr_iterator_tag@0@U_Range_checked_iterator_tag@0@@Z:
	mov	edx, DWORD PTR [esp+8]
	lea	eax, DWORD PTR [edx+12]
	mov	ecx, DWORD PTR [edx-24]
	xor	ecx, eax
	call	@__security_check_cookie@4
	mov	eax, OFFSET __ehfuncinfo$??$_Uninit_copy@PAVVector3@Ogre@@PAV12@V?$allocator@VVector3@Ogre@@@std@@@std@@YAPAVVector3@Ogre@@PAV12@00AAV?$allocator@VVector3@Ogre@@@0@U_Nonscalar_ptr_iterator_tag@0@U_Range_checked_iterator_tag@0@@Z
	jmp	___CxxFrameHandler3
text$x	ENDS
??$_Uninit_copy@PAVVector3@Ogre@@PAV12@V?$allocator@VVector3@Ogre@@@std@@@std@@YAPAVVector3@Ogre@@PAV12@00AAV?$allocator@VVector3@Ogre@@@0@U_Nonscalar_ptr_iterator_tag@0@U_Range_checked_iterator_tag@0@@Z ENDP ; std::_Uninit_copy<Ogre::Vector3 *,Ogre::Vector3 *,std::allocator<Ogre::Vector3> >
PUBLIC	??$_Uninit_move@PAVVector3@Ogre@@PAV12@V?$allocator@VVector3@Ogre@@@std@@U_Undefined_move_tag@4@@std@@YAPAVVector3@Ogre@@PAV12@00AAV?$allocator@VVector3@Ogre@@@0@U_Undefined_move_tag@0@U_Range_checked_iterator_tag@0@@Z ; std::_Uninit_move<Ogre::Vector3 *,Ogre::Vector3 *,std::allocator<Ogre::Vector3>,std::_Undefined_move_tag>
; Function compile flags: /Odtp
;	COMDAT ??$_Unchecked_uninitialized_move@PAVVector3@Ogre@@PAV12@V?$allocator@VVector3@Ogre@@@std@@@stdext@@YAPAVVector3@Ogre@@PAV12@00AAV?$allocator@VVector3@Ogre@@@std@@@Z
_TEXT	SEGMENT
$T68737 = -2						; size = 1
$T68736 = -1						; size = 1
__First$ = 8						; size = 4
__Last$ = 12						; size = 4
__Dest$ = 16						; size = 4
__Al$ = 20						; size = 4
??$_Unchecked_uninitialized_move@PAVVector3@Ogre@@PAV12@V?$allocator@VVector3@Ogre@@@std@@@stdext@@YAPAVVector3@Ogre@@PAV12@00AAV?$allocator@VVector3@Ogre@@@std@@@Z PROC ; stdext::_Unchecked_uninitialized_move<Ogre::Vector3 *,Ogre::Vector3 *,std::allocator<Ogre::Vector3> >, COMDAT

; 861  : 	{	// move [_First, _Last) to raw _Dest, using _Al

	push	ebp
	mov	ebp, esp
	push	ecx

; 862  : 	return (_STD _Uninit_move(_CHECKED_BASE(_First),
; 863  : 		_CHECKED_BASE(_Last), _Dest, _Al,
; 864  : 		_STD _Move_cat(_Dest), _STD _Range_checked_iterator_tag()));

	xor	eax, eax
	mov	BYTE PTR $T68736[ebp], al
	lea	ecx, DWORD PTR __Dest$[ebp]
	push	ecx
	call	??$_Move_cat@PAVVector3@Ogre@@@std@@YA?AU_Undefined_move_tag@0@ABQAVVector3@Ogre@@@Z ; std::_Move_cat<Ogre::Vector3 *>
	add	esp, 4
	mov	BYTE PTR $T68737[ebp], al
	movzx	edx, BYTE PTR $T68736[ebp]
	push	edx
	movzx	eax, BYTE PTR $T68737[ebp]
	push	eax
	mov	ecx, DWORD PTR __Al$[ebp]
	push	ecx
	mov	edx, DWORD PTR __Dest$[ebp]
	push	edx
	lea	eax, DWORD PTR __Last$[ebp]
	push	eax
	call	??$_Checked_base@PAVVector3@Ogre@@@std@@YAPAVVector3@Ogre@@AAPAV12@@Z ; std::_Checked_base<Ogre::Vector3 *>
	add	esp, 4
	push	eax
	lea	ecx, DWORD PTR __First$[ebp]
	push	ecx
	call	??$_Checked_base@PAVVector3@Ogre@@@std@@YAPAVVector3@Ogre@@AAPAV12@@Z ; std::_Checked_base<Ogre::Vector3 *>
	add	esp, 4
	push	eax
	call	??$_Uninit_move@PAVVector3@Ogre@@PAV12@V?$allocator@VVector3@Ogre@@@std@@U_Undefined_move_tag@4@@std@@YAPAVVector3@Ogre@@PAV12@00AAV?$allocator@VVector3@Ogre@@@0@U_Undefined_move_tag@0@U_Range_checked_iterator_tag@0@@Z ; std::_Uninit_move<Ogre::Vector3 *,Ogre::Vector3 *,std::allocator<Ogre::Vector3>,std::_Undefined_move_tag>
	add	esp, 24					; 00000018H

; 865  : 	}

	mov	esp, ebp
	pop	ebp
	ret	0
??$_Unchecked_uninitialized_move@PAVVector3@Ogre@@PAV12@V?$allocator@VVector3@Ogre@@@std@@@stdext@@YAPAVVector3@Ogre@@PAV12@00AAV?$allocator@VVector3@Ogre@@@std@@@Z ENDP ; stdext::_Unchecked_uninitialized_move<Ogre::Vector3 *,Ogre::Vector3 *,std::allocator<Ogre::Vector3> >
; Function compile flags: /Odtp
; File d:\program files (x86)\microsoft visual studio 9.0\vc\include\xutility
_TEXT	ENDS
;	COMDAT ??$_Fill@PAVVector3@Ogre@@V12@@std@@YAXPAVVector3@Ogre@@0ABV12@@Z
_TEXT	SEGMENT
__First$ = 8						; size = 4
__Last$ = 12						; size = 4
__Val$ = 16						; size = 4
??$_Fill@PAVVector3@Ogre@@V12@@std@@YAXPAVVector3@Ogre@@0ABV12@@Z PROC ; std::_Fill<Ogre::Vector3 *,Ogre::Vector3>, COMDAT

; 3156 : 	{	// copy _Val through [_First, _Last)

	push	ebp
	mov	ebp, esp

; 3157 : 	_DEBUG_RANGE(_First, _Last);
; 3158 : 	for (; _First != _Last; ++_First)

	jmp	SHORT $LN3@Fill
$LN2@Fill:
	mov	eax, DWORD PTR __First$[ebp]
	add	eax, 12					; 0000000cH
	mov	DWORD PTR __First$[ebp], eax
$LN3@Fill:
	mov	ecx, DWORD PTR __First$[ebp]
	cmp	ecx, DWORD PTR __Last$[ebp]
	je	SHORT $LN4@Fill

; 3159 : 		*_First = _Val;

	mov	edx, DWORD PTR __Val$[ebp]
	push	edx
	mov	ecx, DWORD PTR __First$[ebp]
	call	??4Vector3@Ogre@@QAEABV01@ABV01@@Z	; Ogre::Vector3::operator=
	jmp	SHORT $LN2@Fill
$LN4@Fill:

; 3160 : 	}

	pop	ebp
	ret	0
??$_Fill@PAVVector3@Ogre@@V12@@std@@YAXPAVVector3@Ogre@@0ABV12@@Z ENDP ; std::_Fill<Ogre::Vector3 *,Ogre::Vector3>
; Function compile flags: /Odtp
_TEXT	ENDS
;	COMDAT ??$_Move_cat@PAVVector3@Ogre@@@std@@YA?AU_Undefined_move_tag@0@ABQAVVector3@Ogre@@@Z
_TEXT	SEGMENT
__Cat$ = -1						; size = 1
___formal$ = 8						; size = 4
??$_Move_cat@PAVVector3@Ogre@@@std@@YA?AU_Undefined_move_tag@0@ABQAVVector3@Ogre@@@Z PROC ; std::_Move_cat<Ogre::Vector3 *>, COMDAT

; 1200 : 	{

	push	ebp
	mov	ebp, esp
	push	ecx

; 1201 : 		typename _Move_operation_category<typename iterator_traits<_Iter>::value_type>::_Move_cat _Cat;
; 1202 : 		return (_Cat);

	mov	al, BYTE PTR __Cat$[ebp]

; 1203 : 	}

	mov	esp, ebp
	pop	ebp
	ret	0
??$_Move_cat@PAVVector3@Ogre@@@std@@YA?AU_Undefined_move_tag@0@ABQAVVector3@Ogre@@@Z ENDP ; std::_Move_cat<Ogre::Vector3 *>
_TEXT	ENDS
PUBLIC	??$_Copy_backward_opt@PAVVector3@Ogre@@PAV12@@std@@YAPAVVector3@Ogre@@PAV12@00Urandom_access_iterator_tag@0@U_Nonscalar_ptr_iterator_tag@0@U_Range_checked_iterator_tag@0@@Z ; std::_Copy_backward_opt<Ogre::Vector3 *,Ogre::Vector3 *>
; Function compile flags: /Odtp
;	COMDAT ??$_Move_backward_opt@PAVVector3@Ogre@@PAV12@Urandom_access_iterator_tag@std@@U_Undefined_move_tag@4@@std@@YAPAVVector3@Ogre@@PAV12@00Urandom_access_iterator_tag@0@U_Undefined_move_tag@0@U_Range_checked_iterator_tag@0@@Z
_TEXT	SEGMENT
$T68745 = -2						; size = 1
$T68744 = -1						; size = 1
__First$ = 8						; size = 4
__Last$ = 12						; size = 4
__Dest$ = 16						; size = 4
__First_dest_cat$ = 20					; size = 1
___formal$ = 24						; size = 1
___formal$ = 28						; size = 1
??$_Move_backward_opt@PAVVector3@Ogre@@PAV12@Urandom_access_iterator_tag@std@@U_Undefined_move_tag@4@@std@@YAPAVVector3@Ogre@@PAV12@00Urandom_access_iterator_tag@0@U_Undefined_move_tag@0@U_Range_checked_iterator_tag@0@@Z PROC ; std::_Move_backward_opt<Ogre::Vector3 *,Ogre::Vector3 *,std::random_access_iterator_tag,std::_Undefined_move_tag>, COMDAT

; 2752 : 	{	// move defaults to copy if there is not a more effecient way

	push	ebp
	mov	ebp, esp
	push	ecx

; 2753 : 	return _Copy_backward_opt(_First, _Last, _Dest,
; 2754 : 		_First_dest_cat, _Ptr_cat(_First, _Dest), _Range_checked_iterator_tag());

	xor	eax, eax
	mov	BYTE PTR $T68744[ebp], al
	lea	ecx, DWORD PTR __Dest$[ebp]
	push	ecx
	lea	edx, DWORD PTR __First$[ebp]
	push	edx
	call	??$_Ptr_cat@PAVVector3@Ogre@@PAV12@@std@@YA?AU_Nonscalar_ptr_iterator_tag@0@AAPAVVector3@Ogre@@0@Z ; std::_Ptr_cat<Ogre::Vector3 *,Ogre::Vector3 *>
	add	esp, 8
	mov	BYTE PTR $T68745[ebp], al
	movzx	eax, BYTE PTR $T68744[ebp]
	push	eax
	movzx	ecx, BYTE PTR $T68745[ebp]
	push	ecx
	movzx	edx, BYTE PTR __First_dest_cat$[ebp]
	push	edx
	mov	eax, DWORD PTR __Dest$[ebp]
	push	eax
	mov	ecx, DWORD PTR __Last$[ebp]
	push	ecx
	mov	edx, DWORD PTR __First$[ebp]
	push	edx
	call	??$_Copy_backward_opt@PAVVector3@Ogre@@PAV12@@std@@YAPAVVector3@Ogre@@PAV12@00Urandom_access_iterator_tag@0@U_Nonscalar_ptr_iterator_tag@0@U_Range_checked_iterator_tag@0@@Z ; std::_Copy_backward_opt<Ogre::Vector3 *,Ogre::Vector3 *>
	add	esp, 24					; 00000018H

; 2755 : 	}

	mov	esp, ebp
	pop	ebp
	ret	0
??$_Move_backward_opt@PAVVector3@Ogre@@PAV12@Urandom_access_iterator_tag@std@@U_Undefined_move_tag@4@@std@@YAPAVVector3@Ogre@@PAV12@00Urandom_access_iterator_tag@0@U_Undefined_move_tag@0@U_Range_checked_iterator_tag@0@@Z ENDP ; std::_Move_backward_opt<Ogre::Vector3 *,Ogre::Vector3 *,std::random_access_iterator_tag,std::_Undefined_move_tag>
_TEXT	ENDS
;	COMDAT xdata$x
; File d:\program files (x86)\microsoft visual studio 9.0\vc\include\memory
xdata$x	SEGMENT
__catchsym$??$_Uninit_fill_n@PAVVector3@Ogre@@IV12@V?$allocator@VVector3@Ogre@@@std@@@std@@YAXPAVVector3@Ogre@@IABV12@AAV?$allocator@VVector3@Ogre@@@0@U_Nonscalar_ptr_iterator_tag@0@U_Range_checked_iterator_tag@0@@Z$2 DD 00H
	DD	00H
	DD	00H
	DD	FLAT:__catch$??$_Uninit_fill_n@PAVVector3@Ogre@@IV12@V?$allocator@VVector3@Ogre@@@std@@@std@@YAXPAVVector3@Ogre@@IABV12@AAV?$allocator@VVector3@Ogre@@@0@U_Nonscalar_ptr_iterator_tag@0@U_Range_checked_iterator_tag@0@@Z$0
__unwindtable$??$_Uninit_fill_n@PAVVector3@Ogre@@IV12@V?$allocator@VVector3@Ogre@@@std@@@std@@YAXPAVVector3@Ogre@@IABV12@AAV?$allocator@VVector3@Ogre@@@0@U_Nonscalar_ptr_iterator_tag@0@U_Range_checked_iterator_tag@0@@Z DD 0ffffffffH
	DD	00H
	DD	0ffffffffH
	DD	00H
__tryblocktable$??$_Uninit_fill_n@PAVVector3@Ogre@@IV12@V?$allocator@VVector3@Ogre@@@std@@@std@@YAXPAVVector3@Ogre@@IABV12@AAV?$allocator@VVector3@Ogre@@@0@U_Nonscalar_ptr_iterator_tag@0@U_Range_checked_iterator_tag@0@@Z DD 00H
	DD	00H
	DD	01H
	DD	01H
	DD	FLAT:__catchsym$??$_Uninit_fill_n@PAVVector3@Ogre@@IV12@V?$allocator@VVector3@Ogre@@@std@@@std@@YAXPAVVector3@Ogre@@IABV12@AAV?$allocator@VVector3@Ogre@@@0@U_Nonscalar_ptr_iterator_tag@0@U_Range_checked_iterator_tag@0@@Z$2
__ehfuncinfo$??$_Uninit_fill_n@PAVVector3@Ogre@@IV12@V?$allocator@VVector3@Ogre@@@std@@@std@@YAXPAVVector3@Ogre@@IABV12@AAV?$allocator@VVector3@Ogre@@@0@U_Nonscalar_ptr_iterator_tag@0@U_Range_checked_iterator_tag@0@@Z DD 019930522H
	DD	02H
	DD	FLAT:__unwindtable$??$_Uninit_fill_n@PAVVector3@Ogre@@IV12@V?$allocator@VVector3@Ogre@@@std@@@std@@YAXPAVVector3@Ogre@@IABV12@AAV?$allocator@VVector3@Ogre@@@0@U_Nonscalar_ptr_iterator_tag@0@U_Range_checked_iterator_tag@0@@Z
	DD	01H
	DD	FLAT:__tryblocktable$??$_Uninit_fill_n@PAVVector3@Ogre@@IV12@V?$allocator@VVector3@Ogre@@@std@@@std@@YAXPAVVector3@Ogre@@IABV12@AAV?$allocator@VVector3@Ogre@@@0@U_Nonscalar_ptr_iterator_tag@0@U_Range_checked_iterator_tag@0@@Z
	DD	2 DUP(00H)
	DD	00H
	DD	00H
; Function compile flags: /Odtp
xdata$x	ENDS
;	COMDAT ??$_Uninit_fill_n@PAVVector3@Ogre@@IV12@V?$allocator@VVector3@Ogre@@@std@@@std@@YAXPAVVector3@Ogre@@IABV12@AAV?$allocator@VVector3@Ogre@@@0@U_Nonscalar_ptr_iterator_tag@0@U_Range_checked_iterator_tag@0@@Z
_TEXT	SEGMENT
__Next$ = -20						; size = 4
__$EHRec$ = -16						; size = 16
__First$ = 8						; size = 4
__Count$ = 12						; size = 4
__Val$ = 16						; size = 4
__Al$ = 20						; size = 4
___formal$ = 24						; size = 1
___formal$ = 28						; size = 1
??$_Uninit_fill_n@PAVVector3@Ogre@@IV12@V?$allocator@VVector3@Ogre@@@std@@@std@@YAXPAVVector3@Ogre@@IABV12@AAV?$allocator@VVector3@Ogre@@@0@U_Nonscalar_ptr_iterator_tag@0@U_Range_checked_iterator_tag@0@@Z PROC ; std::_Uninit_fill_n<Ogre::Vector3 *,unsigned int,Ogre::Vector3,std::allocator<Ogre::Vector3> >, COMDAT

; 393  : 	{	// copy _Count *_Val to raw _First, using _Al, arbitrary type

	push	ebp
	mov	ebp, esp
	push	-1
	push	__ehhandler$??$_Uninit_fill_n@PAVVector3@Ogre@@IV12@V?$allocator@VVector3@Ogre@@@std@@@std@@YAXPAVVector3@Ogre@@IABV12@AAV?$allocator@VVector3@Ogre@@@0@U_Nonscalar_ptr_iterator_tag@0@U_Range_checked_iterator_tag@0@@Z
	mov	eax, DWORD PTR fs:0
	push	eax
	push	ecx
	push	ecx
	push	ebx
	push	esi
	push	edi
	mov	eax, DWORD PTR ___security_cookie
	xor	eax, ebp
	push	eax
	lea	eax, DWORD PTR __$EHRec$[ebp+4]
	mov	DWORD PTR fs:0, eax
	mov	DWORD PTR __$EHRec$[ebp], esp

; 394  : 
; 395  :  #if _HAS_ITERATOR_DEBUGGING
; 396  : //	if (_Count < 0)
; 397  : //		_DEBUG_ERROR("negative count in uninitialized fill");
; 398  :  #endif /* _HAS_ITERATOR_DEBUGGING */
; 399  : 
; 400  : 	_FwdIt _Next = _First;

	mov	eax, DWORD PTR __First$[ebp]
	mov	DWORD PTR __Next$[ebp], eax

; 401  : 
; 402  : 	_TRY_BEGIN

	mov	DWORD PTR __$EHRec$[ebp+12], 0

; 403  : 	for (; 0 < _Count; --_Count, ++_First)

	jmp	SHORT $LN6@Uninit_fil
$LN5@Uninit_fil:
	mov	ecx, DWORD PTR __Count$[ebp]
	sub	ecx, 1
	mov	DWORD PTR __Count$[ebp], ecx
	mov	edx, DWORD PTR __First$[ebp]
	add	edx, 12					; 0000000cH
	mov	DWORD PTR __First$[ebp], edx
$LN6@Uninit_fil:
	cmp	DWORD PTR __Count$[ebp], 0
	jbe	SHORT $LN4@Uninit_fil

; 404  : 		_Al.construct(_First, _Val);

	mov	eax, DWORD PTR __Val$[ebp]
	push	eax
	mov	ecx, DWORD PTR __First$[ebp]
	push	ecx
	mov	ecx, DWORD PTR __Al$[ebp]
	call	?construct@?$allocator@VVector3@Ogre@@@std@@QAEXPAVVector3@Ogre@@ABV34@@Z ; std::allocator<Ogre::Vector3>::construct
	jmp	SHORT $LN5@Uninit_fil
$LN4@Uninit_fil:
	jmp	SHORT $LN10@Uninit_fil
__catch$??$_Uninit_fill_n@PAVVector3@Ogre@@IV12@V?$allocator@VVector3@Ogre@@@std@@@std@@YAXPAVVector3@Ogre@@IABV12@AAV?$allocator@VVector3@Ogre@@@0@U_Nonscalar_ptr_iterator_tag@0@U_Range_checked_iterator_tag@0@@Z$0:

; 405  : 	_CATCH_ALL
; 406  : 	for (; _Next != _First; ++_Next)

	jmp	SHORT $LN3@Uninit_fil
$LN2@Uninit_fil:
	mov	edx, DWORD PTR __Next$[ebp]
	add	edx, 12					; 0000000cH
	mov	DWORD PTR __Next$[ebp], edx
$LN3@Uninit_fil:
	mov	eax, DWORD PTR __Next$[ebp]
	cmp	eax, DWORD PTR __First$[ebp]
	je	SHORT $LN1@Uninit_fil

; 407  : 		_Al.destroy(_Next);

	mov	ecx, DWORD PTR __Next$[ebp]
	push	ecx
	mov	ecx, DWORD PTR __Al$[ebp]
	call	?destroy@?$allocator@VVector3@Ogre@@@std@@QAEXPAVVector3@Ogre@@@Z ; std::allocator<Ogre::Vector3>::destroy
	jmp	SHORT $LN2@Uninit_fil
$LN1@Uninit_fil:

; 408  : 	_RERAISE;

	push	0
	push	0
	call	__CxxThrowException@8

; 409  : 	_CATCH_END

	mov	DWORD PTR __$EHRec$[ebp+12], -1
	mov	eax, $LN9@Uninit_fil
	ret	0
$LN10@Uninit_fil:
	mov	DWORD PTR __$EHRec$[ebp+12], -1
$LN9@Uninit_fil:

; 410  : 	}

	mov	ecx, DWORD PTR __$EHRec$[ebp+4]
	mov	DWORD PTR fs:0, ecx
	pop	ecx
	pop	edi
	pop	esi
	pop	ebx
	mov	esp, ebp
	pop	ebp
	ret	0
_TEXT	ENDS
;	COMDAT text$x
text$x	SEGMENT
__ehhandler$??$_Uninit_fill_n@PAVVector3@Ogre@@IV12@V?$allocator@VVector3@Ogre@@@std@@@std@@YAXPAVVector3@Ogre@@IABV12@AAV?$allocator@VVector3@Ogre@@@0@U_Nonscalar_ptr_iterator_tag@0@U_Range_checked_iterator_tag@0@@Z:
	mov	edx, DWORD PTR [esp+8]
	lea	eax, DWORD PTR [edx+12]
	mov	ecx, DWORD PTR [edx-24]
	xor	ecx, eax
	call	@__security_check_cookie@4
	mov	eax, OFFSET __ehfuncinfo$??$_Uninit_fill_n@PAVVector3@Ogre@@IV12@V?$allocator@VVector3@Ogre@@@std@@@std@@YAXPAVVector3@Ogre@@IABV12@AAV?$allocator@VVector3@Ogre@@@0@U_Nonscalar_ptr_iterator_tag@0@U_Range_checked_iterator_tag@0@@Z
	jmp	___CxxFrameHandler3
text$x	ENDS
??$_Uninit_fill_n@PAVVector3@Ogre@@IV12@V?$allocator@VVector3@Ogre@@@std@@@std@@YAXPAVVector3@Ogre@@IABV12@AAV?$allocator@VVector3@Ogre@@@0@U_Nonscalar_ptr_iterator_tag@0@U_Range_checked_iterator_tag@0@@Z ENDP ; std::_Uninit_fill_n<Ogre::Vector3 *,unsigned int,Ogre::Vector3,std::allocator<Ogre::Vector3> >
; Function compile flags: /Odtp
; File d:\program files (x86)\microsoft visual studio 9.0\vc\include\xmemory
;	COMDAT ??$_Destroy@VVector3@Ogre@@@std@@YAXPAVVector3@Ogre@@@Z
_TEXT	SEGMENT
__Ptr$ = 8						; size = 4
??$_Destroy@VVector3@Ogre@@@std@@YAXPAVVector3@Ogre@@@Z PROC ; std::_Destroy<Ogre::Vector3>, COMDAT

; 58   : 	{	// destroy object at _Ptr

	push	ebp
	mov	ebp, esp

; 59   : 	_DESTRUCTOR(_Ty, _Ptr);
; 60   : 	}

	pop	ebp
	ret	0
??$_Destroy@VVector3@Ogre@@@std@@YAXPAVVector3@Ogre@@@Z ENDP ; std::_Destroy<Ogre::Vector3>
_TEXT	ENDS
PUBLIC	??$_Construct@VVector3@Ogre@@V12@@std@@YAXPAVVector3@Ogre@@ABV12@@Z ; std::_Construct<Ogre::Vector3,Ogre::Vector3>
; Function compile flags: /Odtp
;	COMDAT ?construct@?$allocator@VVector3@Ogre@@@std@@QAEXPAVVector3@Ogre@@ABV34@@Z
_TEXT	SEGMENT
_this$ = -4						; size = 4
__Ptr$ = 8						; size = 4
__Val$ = 12						; size = 4
?construct@?$allocator@VVector3@Ogre@@@std@@QAEXPAVVector3@Ogre@@ABV34@@Z PROC ; std::allocator<Ogre::Vector3>::construct, COMDAT
; _this$ = ecx

; 154  : 		{	// construct object at _Ptr with value _Val

	push	ebp
	mov	ebp, esp
	push	ecx
	mov	DWORD PTR _this$[ebp], ecx

; 155  : 		_Construct(_Ptr, _Val);

	mov	eax, DWORD PTR __Val$[ebp]
	push	eax
	mov	ecx, DWORD PTR __Ptr$[ebp]
	push	ecx
	call	??$_Construct@VVector3@Ogre@@V12@@std@@YAXPAVVector3@Ogre@@ABV12@@Z ; std::_Construct<Ogre::Vector3,Ogre::Vector3>
	add	esp, 8

; 156  : 		}

	mov	esp, ebp
	pop	ebp
	ret	8
?construct@?$allocator@VVector3@Ogre@@@std@@QAEXPAVVector3@Ogre@@ABV34@@Z ENDP ; std::allocator<Ogre::Vector3>::construct
_TEXT	ENDS
PUBLIC	?_Checked_iterator_base@?$_Vector_const_iterator@DV?$allocator@D@std@@@std@@QBEPBDXZ ; std::_Vector_const_iterator<char,std::allocator<char> >::_Checked_iterator_base
; Function compile flags: /Odtp
; File d:\program files (x86)\microsoft visual studio 9.0\vc\include\xutility
;	COMDAT ??$_Checked_base@V?$_Vector_const_iterator@DV?$allocator@D@std@@@std@@U_Different_checked_iterator_base_type_tag@2@@std@@YAPBDAAV?$_Vector_const_iterator@DV?$allocator@D@std@@@0@U_Different_checked_iterator_base_type_tag@0@@Z
_TEXT	SEGMENT
__It$ = 8						; size = 4
___formal$ = 12						; size = 1
??$_Checked_base@V?$_Vector_const_iterator@DV?$allocator@D@std@@@std@@U_Different_checked_iterator_base_type_tag@2@@std@@YAPBDAAV?$_Vector_const_iterator@DV?$allocator@D@std@@@0@U_Different_checked_iterator_base_type_tag@0@@Z PROC ; std::_Checked_base<std::_Vector_const_iterator<char,std::allocator<char> >,std::_Different_checked_iterator_base_type_tag>, COMDAT

; 1138 : 	{

	push	ebp
	mov	ebp, esp

; 1139 : 		return _It._Checked_iterator_base();

	mov	ecx, DWORD PTR __It$[ebp]
	call	?_Checked_iterator_base@?$_Vector_const_iterator@DV?$allocator@D@std@@@std@@QBEPBDXZ ; std::_Vector_const_iterator<char,std::allocator<char> >::_Checked_iterator_base

; 1140 : 	}

	pop	ebp
	ret	0
??$_Checked_base@V?$_Vector_const_iterator@DV?$allocator@D@std@@@std@@U_Different_checked_iterator_base_type_tag@2@@std@@YAPBDAAV?$_Vector_const_iterator@DV?$allocator@D@std@@@0@U_Different_checked_iterator_base_type_tag@0@@Z ENDP ; std::_Checked_base<std::_Vector_const_iterator<char,std::allocator<char> >,std::_Different_checked_iterator_base_type_tag>
_TEXT	ENDS
PUBLIC	?_Checked_iterator_base@?$_Vector_const_iterator@PAVSurfaceData@Ogre@@V?$allocator@PAVSurfaceData@Ogre@@@std@@@std@@QBEPBQAVSurfaceData@Ogre@@XZ ; std::_Vector_const_iterator<Ogre::SurfaceData *,std::allocator<Ogre::SurfaceData *> >::_Checked_iterator_base
; Function compile flags: /Odtp
;	COMDAT ??$_Checked_base@V?$_Vector_const_iterator@PAVSurfaceData@Ogre@@V?$allocator@PAVSurfaceData@Ogre@@@std@@@std@@U_Different_checked_iterator_base_type_tag@2@@std@@YAPBQAVSurfaceData@Ogre@@AAV?$_Vector_const_iterator@PAVSurfaceData@Ogre@@V?$allocator@PAVSurfaceData@Ogre@@@std@@@0@U_Different_checked_iterator_base_type_tag@0@@Z
_TEXT	SEGMENT
__It$ = 8						; size = 4
___formal$ = 12						; size = 1
??$_Checked_base@V?$_Vector_const_iterator@PAVSurfaceData@Ogre@@V?$allocator@PAVSurfaceData@Ogre@@@std@@@std@@U_Different_checked_iterator_base_type_tag@2@@std@@YAPBQAVSurfaceData@Ogre@@AAV?$_Vector_const_iterator@PAVSurfaceData@Ogre@@V?$allocator@PAVSurfaceData@Ogre@@@std@@@0@U_Different_checked_iterator_base_type_tag@0@@Z PROC ; std::_Checked_base<std::_Vector_const_iterator<Ogre::SurfaceData *,std::allocator<Ogre::SurfaceData *> >,std::_Different_checked_iterator_base_type_tag>, COMDAT

; 1138 : 	{

	push	ebp
	mov	ebp, esp

; 1139 : 		return _It._Checked_iterator_base();

	mov	ecx, DWORD PTR __It$[ebp]
	call	?_Checked_iterator_base@?$_Vector_const_iterator@PAVSurfaceData@Ogre@@V?$allocator@PAVSurfaceData@Ogre@@@std@@@std@@QBEPBQAVSurfaceData@Ogre@@XZ ; std::_Vector_const_iterator<Ogre::SurfaceData *,std::allocator<Ogre::SurfaceData *> >::_Checked_iterator_base

; 1140 : 	}

	pop	ebp
	ret	0
??$_Checked_base@V?$_Vector_const_iterator@PAVSurfaceData@Ogre@@V?$allocator@PAVSurfaceData@Ogre@@@std@@@std@@U_Different_checked_iterator_base_type_tag@2@@std@@YAPBQAVSurfaceData@Ogre@@AAV?$_Vector_const_iterator@PAVSurfaceData@Ogre@@V?$allocator@PAVSurfaceData@Ogre@@@std@@@0@U_Different_checked_iterator_base_type_tag@0@@Z ENDP ; std::_Checked_base<std::_Vector_const_iterator<Ogre::SurfaceData *,std::allocator<Ogre::SurfaceData *> >,std::_Different_checked_iterator_base_type_tag>
_TEXT	ENDS
PUBLIC	?_Checked_iterator_base@?$_Vector_const_iterator@VVector3@Ogre@@V?$allocator@VVector3@Ogre@@@std@@@std@@QBEPBVVector3@Ogre@@XZ ; std::_Vector_const_iterator<Ogre::Vector3,std::allocator<Ogre::Vector3> >::_Checked_iterator_base
; Function compile flags: /Odtp
;	COMDAT ??$_Checked_base@V?$_Vector_const_iterator@VVector3@Ogre@@V?$allocator@VVector3@Ogre@@@std@@@std@@U_Different_checked_iterator_base_type_tag@2@@std@@YAPBVVector3@Ogre@@AAV?$_Vector_const_iterator@VVector3@Ogre@@V?$allocator@VVector3@Ogre@@@std@@@0@U_Different_checked_iterator_base_type_tag@0@@Z
_TEXT	SEGMENT
__It$ = 8						; size = 4
___formal$ = 12						; size = 1
??$_Checked_base@V?$_Vector_const_iterator@VVector3@Ogre@@V?$allocator@VVector3@Ogre@@@std@@@std@@U_Different_checked_iterator_base_type_tag@2@@std@@YAPBVVector3@Ogre@@AAV?$_Vector_const_iterator@VVector3@Ogre@@V?$allocator@VVector3@Ogre@@@std@@@0@U_Different_checked_iterator_base_type_tag@0@@Z PROC ; std::_Checked_base<std::_Vector_const_iterator<Ogre::Vector3,std::allocator<Ogre::Vector3> >,std::_Different_checked_iterator_base_type_tag>, COMDAT

; 1138 : 	{

	push	ebp
	mov	ebp, esp

; 1139 : 		return _It._Checked_iterator_base();

	mov	ecx, DWORD PTR __It$[ebp]
	call	?_Checked_iterator_base@?$_Vector_const_iterator@VVector3@Ogre@@V?$allocator@VVector3@Ogre@@@std@@@std@@QBEPBVVector3@Ogre@@XZ ; std::_Vector_const_iterator<Ogre::Vector3,std::allocator<Ogre::Vector3> >::_Checked_iterator_base

; 1140 : 	}

	pop	ebp
	ret	0
??$_Checked_base@V?$_Vector_const_iterator@VVector3@Ogre@@V?$allocator@VVector3@Ogre@@@std@@@std@@U_Different_checked_iterator_base_type_tag@2@@std@@YAPBVVector3@Ogre@@AAV?$_Vector_const_iterator@VVector3@Ogre@@V?$allocator@VVector3@Ogre@@@std@@@0@U_Different_checked_iterator_base_type_tag@0@@Z ENDP ; std::_Checked_base<std::_Vector_const_iterator<Ogre::Vector3,std::allocator<Ogre::Vector3> >,std::_Different_checked_iterator_base_type_tag>
; Function compile flags: /Odtp
; File d:\program files (x86)\microsoft visual studio 9.0\vc\include\memory
_TEXT	ENDS
;	COMDAT ??$_Uninit_move@PAVVector3@Ogre@@PAV12@V?$allocator@VVector3@Ogre@@@std@@U_Undefined_move_tag@4@@std@@YAPAVVector3@Ogre@@PAV12@00AAV?$allocator@VVector3@Ogre@@@0@U_Undefined_move_tag@0@U_Range_checked_iterator_tag@0@@Z
_TEXT	SEGMENT
__First$ = 8						; size = 4
__Last$ = 12						; size = 4
__Dest$ = 16						; size = 4
__Al$ = 20						; size = 4
___formal$ = 24						; size = 1
___formal$ = 28						; size = 1
??$_Uninit_move@PAVVector3@Ogre@@PAV12@V?$allocator@VVector3@Ogre@@@std@@U_Undefined_move_tag@4@@std@@YAPAVVector3@Ogre@@PAV12@00AAV?$allocator@VVector3@Ogre@@@0@U_Undefined_move_tag@0@U_Range_checked_iterator_tag@0@@Z PROC ; std::_Uninit_move<Ogre::Vector3 *,Ogre::Vector3 *,std::allocator<Ogre::Vector3>,std::_Undefined_move_tag>, COMDAT

; 206  : 	{	// move defaults to copy if there is not a more effecient way

	push	ebp
	mov	ebp, esp

; 207  : 	return (_STDEXT unchecked_uninitialized_copy(_First, _Last, _Dest, _Al));

	mov	eax, DWORD PTR __Al$[ebp]
	push	eax
	mov	ecx, DWORD PTR __Dest$[ebp]
	push	ecx
	mov	edx, DWORD PTR __Last$[ebp]
	push	edx
	mov	eax, DWORD PTR __First$[ebp]
	push	eax
	call	??$unchecked_uninitialized_copy@PAVVector3@Ogre@@PAV12@V?$allocator@VVector3@Ogre@@@std@@@stdext@@YAPAVVector3@Ogre@@PAV12@00AAV?$allocator@VVector3@Ogre@@@std@@@Z ; stdext::unchecked_uninitialized_copy<Ogre::Vector3 *,Ogre::Vector3 *,std::allocator<Ogre::Vector3> >
	add	esp, 16					; 00000010H

; 208  : 	}

	pop	ebp
	ret	0
??$_Uninit_move@PAVVector3@Ogre@@PAV12@V?$allocator@VVector3@Ogre@@@std@@U_Undefined_move_tag@4@@std@@YAPAVVector3@Ogre@@PAV12@00AAV?$allocator@VVector3@Ogre@@@0@U_Undefined_move_tag@0@U_Range_checked_iterator_tag@0@@Z ENDP ; std::_Uninit_move<Ogre::Vector3 *,Ogre::Vector3 *,std::allocator<Ogre::Vector3>,std::_Undefined_move_tag>
_TEXT	ENDS
PUBLIC	??$_Copy_backward_opt@PAVVector3@Ogre@@PAV12@Uforward_iterator_tag@std@@@std@@YAPAVVector3@Ogre@@PAV12@00Uforward_iterator_tag@0@U_Nonscalar_ptr_iterator_tag@0@U_Range_checked_iterator_tag@0@@Z ; std::_Copy_backward_opt<Ogre::Vector3 *,Ogre::Vector3 *,std::forward_iterator_tag>
; Function compile flags: /Odtp
; File d:\program files (x86)\microsoft visual studio 9.0\vc\include\xutility
;	COMDAT ??$_Copy_backward_opt@PAVVector3@Ogre@@PAV12@@std@@YAPAVVector3@Ogre@@PAV12@00Urandom_access_iterator_tag@0@U_Nonscalar_ptr_iterator_tag@0@U_Range_checked_iterator_tag@0@@Z
_TEXT	SEGMENT
$T68777 = -7						; size = 1
$T68776 = -6						; size = 1
$T68775 = -5						; size = 1
__Result$ = -4						; size = 4
__First$ = 8						; size = 4
__Last$ = 12						; size = 4
__Dest$ = 16						; size = 4
___formal$ = 20						; size = 1
___formal$ = 24						; size = 1
___formal$ = 28						; size = 1
??$_Copy_backward_opt@PAVVector3@Ogre@@PAV12@@std@@YAPAVVector3@Ogre@@PAV12@00Urandom_access_iterator_tag@0@U_Nonscalar_ptr_iterator_tag@0@U_Range_checked_iterator_tag@0@@Z PROC ; std::_Copy_backward_opt<Ogre::Vector3 *,Ogre::Vector3 *>, COMDAT

; 2685 : 	{	// copy [_First, _Last) backwards to [..., _Dest), arbitrary iterators

	push	ebp
	mov	ebp, esp
	sub	esp, 8

; 2686 : 	// if _OutIt is range checked, this will make sure there is enough space for the copy
; 2687 : 	_OutIt _Result = _Dest - (_Last - _First);

	mov	eax, DWORD PTR __Last$[ebp]
	sub	eax, DWORD PTR __First$[ebp]
	cdq
	mov	ecx, 12					; 0000000cH
	idiv	ecx
	imul	eax, 12					; 0000000cH
	mov	edx, DWORD PTR __Dest$[ebp]
	sub	edx, eax
	mov	DWORD PTR __Result$[ebp], edx

; 2688 : 	_Copy_backward_opt(_First, _Last, _CHECKED_BASE(_Dest),
; 2689 : 		forward_iterator_tag(), _Nonscalar_ptr_iterator_tag(), _Range_checked_iterator_tag());

	xor	eax, eax
	mov	BYTE PTR $T68775[ebp], al
	xor	ecx, ecx
	mov	BYTE PTR $T68776[ebp], cl
	movzx	edx, BYTE PTR $T68775[ebp]
	push	edx
	movzx	eax, BYTE PTR $T68776[ebp]
	push	eax
	movzx	ecx, BYTE PTR $T68777[ebp]
	push	ecx
	lea	edx, DWORD PTR __Dest$[ebp]
	push	edx
	call	??$_Checked_base@PAVVector3@Ogre@@@std@@YAPAVVector3@Ogre@@AAPAV12@@Z ; std::_Checked_base<Ogre::Vector3 *>
	add	esp, 4
	push	eax
	mov	eax, DWORD PTR __Last$[ebp]
	push	eax
	mov	ecx, DWORD PTR __First$[ebp]
	push	ecx
	call	??$_Copy_backward_opt@PAVVector3@Ogre@@PAV12@Uforward_iterator_tag@std@@@std@@YAPAVVector3@Ogre@@PAV12@00Uforward_iterator_tag@0@U_Nonscalar_ptr_iterator_tag@0@U_Range_checked_iterator_tag@0@@Z ; std::_Copy_backward_opt<Ogre::Vector3 *,Ogre::Vector3 *,std::forward_iterator_tag>
	add	esp, 24					; 00000018H

; 2690 : 	return _Result;

	mov	eax, DWORD PTR __Result$[ebp]

; 2691 : 	}

	mov	esp, ebp
	pop	ebp
	ret	0
??$_Copy_backward_opt@PAVVector3@Ogre@@PAV12@@std@@YAPAVVector3@Ogre@@PAV12@00Urandom_access_iterator_tag@0@U_Nonscalar_ptr_iterator_tag@0@U_Range_checked_iterator_tag@0@@Z ENDP ; std::_Copy_backward_opt<Ogre::Vector3 *,Ogre::Vector3 *>
_TEXT	ENDS
;	COMDAT xdata$x
; File d:\program files (x86)\microsoft visual studio 9.0\vc\include\xmemory
xdata$x	SEGMENT
__unwindtable$??$_Construct@VVector3@Ogre@@V12@@std@@YAXPAVVector3@Ogre@@ABV12@@Z DD 0ffffffffH
	DD	FLAT:__unwindfunclet$??$_Construct@VVector3@Ogre@@V12@@std@@YAXPAVVector3@Ogre@@ABV12@@Z$0
__ehfuncinfo$??$_Construct@VVector3@Ogre@@V12@@std@@YAXPAVVector3@Ogre@@ABV12@@Z DD 019930522H
	DD	01H
	DD	FLAT:__unwindtable$??$_Construct@VVector3@Ogre@@V12@@std@@YAXPAVVector3@Ogre@@ABV12@@Z
	DD	2 DUP(00H)
	DD	2 DUP(00H)
	DD	00H
	DD	00H
; Function compile flags: /Odtp
xdata$x	ENDS
;	COMDAT ??$_Construct@VVector3@Ogre@@V12@@std@@YAXPAVVector3@Ogre@@ABV12@@Z
_TEXT	SEGMENT
tv74 = -28						; size = 4
$T68781 = -24						; size = 4
$T68780 = -20						; size = 4
__Vptr$ = -16						; size = 4
__$EHRec$ = -12						; size = 12
__Ptr$ = 8						; size = 4
__Val$ = 12						; size = 4
??$_Construct@VVector3@Ogre@@V12@@std@@YAXPAVVector3@Ogre@@ABV12@@Z PROC ; std::_Construct<Ogre::Vector3,Ogre::Vector3>, COMDAT

; 50   : 	{	// construct object at _Ptr with value _Val

	push	ebp
	mov	ebp, esp
	push	-1
	push	__ehhandler$??$_Construct@VVector3@Ogre@@V12@@std@@YAXPAVVector3@Ogre@@ABV12@@Z
	mov	eax, DWORD PTR fs:0
	push	eax
	sub	esp, 16					; 00000010H
	mov	eax, DWORD PTR ___security_cookie
	xor	eax, ebp
	push	eax
	lea	eax, DWORD PTR __$EHRec$[ebp]
	mov	DWORD PTR fs:0, eax

; 51   : 	void _FARQ *_Vptr = _Ptr;

	mov	eax, DWORD PTR __Ptr$[ebp]
	mov	DWORD PTR __Vptr$[ebp], eax

; 52   : 	::new (_Vptr) _T1(_Val);

	mov	ecx, DWORD PTR __Vptr$[ebp]
	push	ecx
	push	12					; 0000000cH
	call	??2@YAPAXIPAX@Z				; operator new
	add	esp, 8
	mov	DWORD PTR $T68781[ebp], eax
	mov	DWORD PTR __$EHRec$[ebp+8], 0
	cmp	DWORD PTR $T68781[ebp], 0
	je	SHORT $LN3@Construct
	mov	edx, DWORD PTR __Val$[ebp]
	push	edx
	mov	ecx, DWORD PTR $T68781[ebp]
	call	??0Vector3@Ogre@@QAE@ABV01@@Z		; Ogre::Vector3::Vector3
	mov	DWORD PTR tv74[ebp], eax
	jmp	SHORT $LN4@Construct
$LN3@Construct:
	mov	DWORD PTR tv74[ebp], 0
$LN4@Construct:
	mov	eax, DWORD PTR tv74[ebp]
	mov	DWORD PTR $T68780[ebp], eax
	mov	DWORD PTR __$EHRec$[ebp+8], -1

; 53   : 	}

	mov	ecx, DWORD PTR __$EHRec$[ebp]
	mov	DWORD PTR fs:0, ecx
	pop	ecx
	mov	esp, ebp
	pop	ebp
	ret	0
_TEXT	ENDS
;	COMDAT text$x
text$x	SEGMENT
__unwindfunclet$??$_Construct@VVector3@Ogre@@V12@@std@@YAXPAVVector3@Ogre@@ABV12@@Z$0:
	mov	eax, DWORD PTR __Vptr$[ebp]
	push	eax
	mov	ecx, DWORD PTR $T68781[ebp]
	push	ecx
	call	??3@YAXPAX0@Z				; operator delete
	add	esp, 8
	ret	0
__ehhandler$??$_Construct@VVector3@Ogre@@V12@@std@@YAXPAVVector3@Ogre@@ABV12@@Z:
	mov	edx, DWORD PTR [esp+8]
	lea	eax, DWORD PTR [edx+12]
	mov	ecx, DWORD PTR [edx-20]
	xor	ecx, eax
	call	@__security_check_cookie@4
	mov	eax, OFFSET __ehfuncinfo$??$_Construct@VVector3@Ogre@@V12@@std@@YAXPAVVector3@Ogre@@ABV12@@Z
	jmp	___CxxFrameHandler3
text$x	ENDS
??$_Construct@VVector3@Ogre@@V12@@std@@YAXPAVVector3@Ogre@@ABV12@@Z ENDP ; std::_Construct<Ogre::Vector3,Ogre::Vector3>
; Function compile flags: /Odtp
; File d:\program files (x86)\microsoft visual studio 9.0\vc\include\vector
;	COMDAT ?_Checked_iterator_base@?$_Vector_const_iterator@DV?$allocator@D@std@@@std@@QBEPBDXZ
_TEXT	SEGMENT
_this$ = -4						; size = 4
?_Checked_iterator_base@?$_Vector_const_iterator@DV?$allocator@D@std@@@std@@QBEPBDXZ PROC ; std::_Vector_const_iterator<char,std::allocator<char> >::_Checked_iterator_base, COMDAT
; _this$ = ecx

; 46   : 	{

	push	ebp
	mov	ebp, esp
	push	ecx
	mov	DWORD PTR _this$[ebp], ecx

; 47   : 		return _Myptr;

	mov	eax, DWORD PTR _this$[ebp]
	mov	eax, DWORD PTR [eax+4]

; 48   : 	}

	mov	esp, ebp
	pop	ebp
	ret	0
?_Checked_iterator_base@?$_Vector_const_iterator@DV?$allocator@D@std@@@std@@QBEPBDXZ ENDP ; std::_Vector_const_iterator<char,std::allocator<char> >::_Checked_iterator_base
; Function compile flags: /Odtp
_TEXT	ENDS
;	COMDAT ?_Checked_iterator_base@?$_Vector_const_iterator@PAVSurfaceData@Ogre@@V?$allocator@PAVSurfaceData@Ogre@@@std@@@std@@QBEPBQAVSurfaceData@Ogre@@XZ
_TEXT	SEGMENT
_this$ = -4						; size = 4
?_Checked_iterator_base@?$_Vector_const_iterator@PAVSurfaceData@Ogre@@V?$allocator@PAVSurfaceData@Ogre@@@std@@@std@@QBEPBQAVSurfaceData@Ogre@@XZ PROC ; std::_Vector_const_iterator<Ogre::SurfaceData *,std::allocator<Ogre::SurfaceData *> >::_Checked_iterator_base, COMDAT
; _this$ = ecx

; 46   : 	{

	push	ebp
	mov	ebp, esp
	push	ecx
	mov	DWORD PTR _this$[ebp], ecx

; 47   : 		return _Myptr;

	mov	eax, DWORD PTR _this$[ebp]
	mov	eax, DWORD PTR [eax+4]

; 48   : 	}

	mov	esp, ebp
	pop	ebp
	ret	0
?_Checked_iterator_base@?$_Vector_const_iterator@PAVSurfaceData@Ogre@@V?$allocator@PAVSurfaceData@Ogre@@@std@@@std@@QBEPBQAVSurfaceData@Ogre@@XZ ENDP ; std::_Vector_const_iterator<Ogre::SurfaceData *,std::allocator<Ogre::SurfaceData *> >::_Checked_iterator_base
; Function compile flags: /Odtp
_TEXT	ENDS
;	COMDAT ?_Checked_iterator_base@?$_Vector_const_iterator@VVector3@Ogre@@V?$allocator@VVector3@Ogre@@@std@@@std@@QBEPBVVector3@Ogre@@XZ
_TEXT	SEGMENT
_this$ = -4						; size = 4
?_Checked_iterator_base@?$_Vector_const_iterator@VVector3@Ogre@@V?$allocator@VVector3@Ogre@@@std@@@std@@QBEPBVVector3@Ogre@@XZ PROC ; std::_Vector_const_iterator<Ogre::Vector3,std::allocator<Ogre::Vector3> >::_Checked_iterator_base, COMDAT
; _this$ = ecx

; 46   : 	{

	push	ebp
	mov	ebp, esp
	push	ecx
	mov	DWORD PTR _this$[ebp], ecx

; 47   : 		return _Myptr;

	mov	eax, DWORD PTR _this$[ebp]
	mov	eax, DWORD PTR [eax+4]

; 48   : 	}

	mov	esp, ebp
	pop	ebp
	ret	0
?_Checked_iterator_base@?$_Vector_const_iterator@VVector3@Ogre@@V?$allocator@VVector3@Ogre@@@std@@@std@@QBEPBVVector3@Ogre@@XZ ENDP ; std::_Vector_const_iterator<Ogre::Vector3,std::allocator<Ogre::Vector3> >::_Checked_iterator_base
; Function compile flags: /Odtp
; File d:\program files (x86)\microsoft visual studio 9.0\vc\include\xutility
_TEXT	ENDS
;	COMDAT ??$_Copy_backward_opt@PAVVector3@Ogre@@PAV12@Uforward_iterator_tag@std@@@std@@YAPAVVector3@Ogre@@PAV12@00Uforward_iterator_tag@0@U_Nonscalar_ptr_iterator_tag@0@U_Range_checked_iterator_tag@0@@Z
_TEXT	SEGMENT
__First$ = 8						; size = 4
__Last$ = 12						; size = 4
__Dest$ = 16						; size = 4
___formal$ = 20						; size = 1
___formal$ = 24						; size = 1
___formal$ = 28						; size = 1
??$_Copy_backward_opt@PAVVector3@Ogre@@PAV12@Uforward_iterator_tag@std@@@std@@YAPAVVector3@Ogre@@PAV12@00Uforward_iterator_tag@0@U_Nonscalar_ptr_iterator_tag@0@U_Range_checked_iterator_tag@0@@Z PROC ; std::_Copy_backward_opt<Ogre::Vector3 *,Ogre::Vector3 *,std::forward_iterator_tag>, COMDAT

; 2673 : 	{	// copy [_First, _Last) backwards to [..., _Dest), arbitrary iterators

	push	ebp
	mov	ebp, esp
$LN2@Copy_backw:

; 2674 : 	_DEBUG_RANGE(_First, _Last);
; 2675 : 	while (_First != _Last)

	mov	eax, DWORD PTR __First$[ebp]
	cmp	eax, DWORD PTR __Last$[ebp]
	je	SHORT $LN1@Copy_backw

; 2676 : 		*--_Dest = *--_Last;

	mov	ecx, DWORD PTR __Last$[ebp]
	sub	ecx, 12					; 0000000cH
	mov	DWORD PTR __Last$[ebp], ecx
	mov	edx, DWORD PTR __Dest$[ebp]
	sub	edx, 12					; 0000000cH
	mov	DWORD PTR __Dest$[ebp], edx
	mov	eax, DWORD PTR __Last$[ebp]
	push	eax
	mov	ecx, DWORD PTR __Dest$[ebp]
	call	??4Vector3@Ogre@@QAEABV01@ABV01@@Z	; Ogre::Vector3::operator=
	jmp	SHORT $LN2@Copy_backw
$LN1@Copy_backw:

; 2677 : 	return (_Dest);

	mov	eax, DWORD PTR __Dest$[ebp]

; 2678 : 	}

	pop	ebp
	ret	0
??$_Copy_backward_opt@PAVVector3@Ogre@@PAV12@Uforward_iterator_tag@std@@@std@@YAPAVVector3@Ogre@@PAV12@00Uforward_iterator_tag@0@U_Nonscalar_ptr_iterator_tag@0@U_Range_checked_iterator_tag@0@@Z ENDP ; std::_Copy_backward_opt<Ogre::Vector3 *,Ogre::Vector3 *,std::forward_iterator_tag>
; Function compile flags: /Odtp
; File i:\svnroot\client\ogremain\ogremath.h
_TEXT	ENDS
;	COMDAT ??__ETWO_PI@Ogre@@YAXXZ
text$yc	SEGMENT
??__ETWO_PI@Ogre@@YAXXZ PROC				; Ogre::`dynamic initializer for 'TWO_PI'', COMDAT

; 10   : 	const float TWO_PI = ONE_PI*2;

	push	ebp
	mov	ebp, esp
	fld	DWORD PTR _ONE_PI
	fadd	ST(0), ST(0)
	fstp	DWORD PTR _TWO_PI
	pop	ebp
	ret	0
??__ETWO_PI@Ogre@@YAXXZ ENDP				; Ogre::`dynamic initializer for 'TWO_PI''
text$yc	ENDS
PUBLIC	__real@3fe0000000000000
;	COMDAT __real@3fe0000000000000
CONST	SEGMENT
__real@3fe0000000000000 DQ 03fe0000000000000r	; 0.5
; Function compile flags: /Odtp
CONST	ENDS
;	COMDAT ??__EHALF_PI@Ogre@@YAXXZ
text$yc	SEGMENT
??__EHALF_PI@Ogre@@YAXXZ PROC				; Ogre::`dynamic initializer for 'HALF_PI'', COMDAT

; 11   : 	const float	HALF_PI = ONE_PI*0.5f;

	push	ebp
	mov	ebp, esp
	fld	DWORD PTR _ONE_PI
	fmul	QWORD PTR __real@3fe0000000000000
	fstp	DWORD PTR _HALF_PI
	pop	ebp
	ret	0
??__EHALF_PI@Ogre@@YAXXZ ENDP				; Ogre::`dynamic initializer for 'HALF_PI''
text$yc	ENDS
EXTRN	??0RuntimeClass@Ogre@@QAE@PBDPBV01@HP6APAVBaseObject@1@XZ@Z:PROC ; Ogre::RuntimeClass::RuntimeClass
; Function compile flags: /Odtp
; File i:\svnroot\client\ogremain\ogrebeachdata.cpp
;	COMDAT ??__E?m_RTTI@BeachData@Ogre@@2VRuntimeClass@2@B@@YAXXZ
text$yc	SEGMENT
??__E?m_RTTI@BeachData@Ogre@@2VRuntimeClass@2@B@@YAXXZ PROC ; `dynamic initializer for 'Ogre::BeachData::m_RTTI'', COMDAT

; 6    : IMPLEMENT_RTTI(BeachData, Resource, 100)

	push	ebp
	mov	ebp, esp
	push	OFFSET ?newObject@BeachData@Ogre@@SAPAVBaseObject@2@XZ ; Ogre::BeachData::newObject
	push	100					; 00000064H
	push	OFFSET ?m_RTTI@Resource@Ogre@@2VRuntimeClass@2@B ; Ogre::Resource::m_RTTI
	push	OFFSET $SG59642
	mov	ecx, OFFSET ?m_RTTI@BeachData@Ogre@@2VRuntimeClass@2@B ; Ogre::BeachData::m_RTTI
	call	??0RuntimeClass@Ogre@@QAE@PBDPBV01@HP6APAVBaseObject@1@XZ@Z ; Ogre::RuntimeClass::RuntimeClass
	pop	ebp
	ret	0
??__E?m_RTTI@BeachData@Ogre@@2VRuntimeClass@2@B@@YAXXZ ENDP ; `dynamic initializer for 'Ogre::BeachData::m_RTTI''
text$yc	ENDS
PUBLIC	?m_RTTI@BeachData@Ogre@@2VRuntimeClass@2@B	; Ogre::BeachData::m_RTTI
_BSS	SEGMENT
_TWO_PI	DD	01H DUP (?)
_HALF_PI DD	01H DUP (?)
?m_RTTI@BeachData@Ogre@@2VRuntimeClass@2@B DB 014H DUP (?) ; Ogre::BeachData::m_RTTI
_BSS	ENDS
CRT$XCU	SEGMENT
_TWO_PI$initializer$ DD FLAT:??__ETWO_PI@Ogre@@YAXXZ
_HALF_PI$initializer$ DD FLAT:??__EHALF_PI@Ogre@@YAXXZ
?m_RTTI$initializer$@BeachData@Ogre@@2P6AXXZA DD FLAT:??__E?m_RTTI@BeachData@Ogre@@2VRuntimeClass@2@B@@YAXXZ ; Ogre::BeachData::m_RTTI$initializer$
CRT$XCU	ENDS
END
