; Listing generated by Microsoft (R) Optimizing Compiler Version 15.00.30729.01 

	TITLE	i:\svnroot\client\OgreMain\OgrePackageFile.cpp
	.686P
	.XMM
	include listing.inc
	.model	flat

INCLUDELIB MSVCRT
INCLUDELIB OLDNAMES

PUBLIC	?_Value@?$_Is_swap_move@U_Swap_move_tag@std@@@std@@2_NB ; std::_Is_swap_move<std::_Swap_move_tag>::_Value
PUBLIC	?collate@?$_Locbase@H@std@@2HB			; std::_Locbase<int>::collate
PUBLIC	?ctype@?$_Locbase@H@std@@2HB			; std::_Locbase<int>::ctype
PUBLIC	?monetary@?$_Locbase@H@std@@2HB			; std::_Locbase<int>::monetary
PUBLIC	?numeric@?$_Locbase@H@std@@2HB			; std::_Locbase<int>::numeric
PUBLIC	?time@?$_Locbase@H@std@@2HB			; std::_Locbase<int>::time
PUBLIC	?messages@?$_Locbase@H@std@@2HB			; std::_Locbase<int>::messages
PUBLIC	?all@?$_Locbase@H@std@@2HB			; std::_Locbase<int>::all
PUBLIC	?none@?$_Locbase@H@std@@2HB			; std::_Locbase<int>::none
PUBLIC	?skipws@?$_Iosb@H@std@@2W4_Fmtflags@12@B	; std::_Iosb<int>::skipws
PUBLIC	?unitbuf@?$_Iosb@H@std@@2W4_Fmtflags@12@B	; std::_Iosb<int>::unitbuf
PUBLIC	?uppercase@?$_Iosb@H@std@@2W4_Fmtflags@12@B	; std::_Iosb<int>::uppercase
PUBLIC	?showbase@?$_Iosb@H@std@@2W4_Fmtflags@12@B	; std::_Iosb<int>::showbase
PUBLIC	?showpoint@?$_Iosb@H@std@@2W4_Fmtflags@12@B	; std::_Iosb<int>::showpoint
PUBLIC	?showpos@?$_Iosb@H@std@@2W4_Fmtflags@12@B	; std::_Iosb<int>::showpos
PUBLIC	?left@?$_Iosb@H@std@@2W4_Fmtflags@12@B		; std::_Iosb<int>::left
PUBLIC	?right@?$_Iosb@H@std@@2W4_Fmtflags@12@B		; std::_Iosb<int>::right
PUBLIC	?internal@?$_Iosb@H@std@@2W4_Fmtflags@12@B	; std::_Iosb<int>::internal
PUBLIC	?dec@?$_Iosb@H@std@@2W4_Fmtflags@12@B		; std::_Iosb<int>::dec
PUBLIC	?oct@?$_Iosb@H@std@@2W4_Fmtflags@12@B		; std::_Iosb<int>::oct
PUBLIC	?hex@?$_Iosb@H@std@@2W4_Fmtflags@12@B		; std::_Iosb<int>::hex
PUBLIC	?scientific@?$_Iosb@H@std@@2W4_Fmtflags@12@B	; std::_Iosb<int>::scientific
PUBLIC	?fixed@?$_Iosb@H@std@@2W4_Fmtflags@12@B		; std::_Iosb<int>::fixed
PUBLIC	?hexfloat@?$_Iosb@H@std@@2W4_Fmtflags@12@B	; std::_Iosb<int>::hexfloat
PUBLIC	?boolalpha@?$_Iosb@H@std@@2W4_Fmtflags@12@B	; std::_Iosb<int>::boolalpha
PUBLIC	?_Stdio@?$_Iosb@H@std@@2W4_Fmtflags@12@B	; std::_Iosb<int>::_Stdio
PUBLIC	?adjustfield@?$_Iosb@H@std@@2W4_Fmtflags@12@B	; std::_Iosb<int>::adjustfield
PUBLIC	?basefield@?$_Iosb@H@std@@2W4_Fmtflags@12@B	; std::_Iosb<int>::basefield
PUBLIC	?floatfield@?$_Iosb@H@std@@2W4_Fmtflags@12@B	; std::_Iosb<int>::floatfield
PUBLIC	?goodbit@?$_Iosb@H@std@@2W4_Iostate@12@B	; std::_Iosb<int>::goodbit
PUBLIC	?eofbit@?$_Iosb@H@std@@2W4_Iostate@12@B		; std::_Iosb<int>::eofbit
PUBLIC	?failbit@?$_Iosb@H@std@@2W4_Iostate@12@B	; std::_Iosb<int>::failbit
PUBLIC	?badbit@?$_Iosb@H@std@@2W4_Iostate@12@B		; std::_Iosb<int>::badbit
PUBLIC	?_Hardfail@?$_Iosb@H@std@@2W4_Iostate@12@B	; std::_Iosb<int>::_Hardfail
PUBLIC	?in@?$_Iosb@H@std@@2W4_Openmode@12@B		; std::_Iosb<int>::in
PUBLIC	?out@?$_Iosb@H@std@@2W4_Openmode@12@B		; std::_Iosb<int>::out
PUBLIC	?ate@?$_Iosb@H@std@@2W4_Openmode@12@B		; std::_Iosb<int>::ate
PUBLIC	?app@?$_Iosb@H@std@@2W4_Openmode@12@B		; std::_Iosb<int>::app
PUBLIC	?trunc@?$_Iosb@H@std@@2W4_Openmode@12@B		; std::_Iosb<int>::trunc
PUBLIC	?_Nocreate@?$_Iosb@H@std@@2W4_Openmode@12@B	; std::_Iosb<int>::_Nocreate
PUBLIC	?_Noreplace@?$_Iosb@H@std@@2W4_Openmode@12@B	; std::_Iosb<int>::_Noreplace
PUBLIC	?binary@?$_Iosb@H@std@@2W4_Openmode@12@B	; std::_Iosb<int>::binary
PUBLIC	?beg@?$_Iosb@H@std@@2W4_Seekdir@12@B		; std::_Iosb<int>::beg
PUBLIC	?cur@?$_Iosb@H@std@@2W4_Seekdir@12@B		; std::_Iosb<int>::cur
PUBLIC	?end@?$_Iosb@H@std@@2W4_Seekdir@12@B		; std::_Iosb<int>::end
PUBLIC	?value@?$integral_constant@_N$0A@@tr1@std@@2_NB	; std::tr1::integral_constant<bool,0>::value
PUBLIC	?value@?$integral_constant@_N$00@tr1@std@@2_NB	; std::tr1::integral_constant<bool,1>::value
;	COMDAT ?value@?$integral_constant@_N$00@tr1@std@@2_NB
CONST	SEGMENT
?value@?$integral_constant@_N$00@tr1@std@@2_NB DB 01H	; std::tr1::integral_constant<bool,1>::value
CONST	ENDS
;	COMDAT ?value@?$integral_constant@_N$0A@@tr1@std@@2_NB
CONST	SEGMENT
?value@?$integral_constant@_N$0A@@tr1@std@@2_NB DB 00H	; std::tr1::integral_constant<bool,0>::value
CONST	ENDS
;	COMDAT ?end@?$_Iosb@H@std@@2W4_Seekdir@12@B
CONST	SEGMENT
?end@?$_Iosb@H@std@@2W4_Seekdir@12@B DD 02H		; std::_Iosb<int>::end
CONST	ENDS
;	COMDAT ?cur@?$_Iosb@H@std@@2W4_Seekdir@12@B
CONST	SEGMENT
?cur@?$_Iosb@H@std@@2W4_Seekdir@12@B DD 01H		; std::_Iosb<int>::cur
CONST	ENDS
;	COMDAT ?beg@?$_Iosb@H@std@@2W4_Seekdir@12@B
CONST	SEGMENT
?beg@?$_Iosb@H@std@@2W4_Seekdir@12@B DD 00H		; std::_Iosb<int>::beg
CONST	ENDS
;	COMDAT ?binary@?$_Iosb@H@std@@2W4_Openmode@12@B
CONST	SEGMENT
?binary@?$_Iosb@H@std@@2W4_Openmode@12@B DD 020H	; std::_Iosb<int>::binary
CONST	ENDS
;	COMDAT ?_Noreplace@?$_Iosb@H@std@@2W4_Openmode@12@B
CONST	SEGMENT
?_Noreplace@?$_Iosb@H@std@@2W4_Openmode@12@B DD 080H	; std::_Iosb<int>::_Noreplace
CONST	ENDS
;	COMDAT ?_Nocreate@?$_Iosb@H@std@@2W4_Openmode@12@B
CONST	SEGMENT
?_Nocreate@?$_Iosb@H@std@@2W4_Openmode@12@B DD 040H	; std::_Iosb<int>::_Nocreate
CONST	ENDS
;	COMDAT ?trunc@?$_Iosb@H@std@@2W4_Openmode@12@B
CONST	SEGMENT
?trunc@?$_Iosb@H@std@@2W4_Openmode@12@B DD 010H		; std::_Iosb<int>::trunc
CONST	ENDS
;	COMDAT ?app@?$_Iosb@H@std@@2W4_Openmode@12@B
CONST	SEGMENT
?app@?$_Iosb@H@std@@2W4_Openmode@12@B DD 08H		; std::_Iosb<int>::app
CONST	ENDS
;	COMDAT ?ate@?$_Iosb@H@std@@2W4_Openmode@12@B
CONST	SEGMENT
?ate@?$_Iosb@H@std@@2W4_Openmode@12@B DD 04H		; std::_Iosb<int>::ate
CONST	ENDS
;	COMDAT ?out@?$_Iosb@H@std@@2W4_Openmode@12@B
CONST	SEGMENT
?out@?$_Iosb@H@std@@2W4_Openmode@12@B DD 02H		; std::_Iosb<int>::out
CONST	ENDS
;	COMDAT ?in@?$_Iosb@H@std@@2W4_Openmode@12@B
CONST	SEGMENT
?in@?$_Iosb@H@std@@2W4_Openmode@12@B DD 01H		; std::_Iosb<int>::in
CONST	ENDS
;	COMDAT ?_Hardfail@?$_Iosb@H@std@@2W4_Iostate@12@B
CONST	SEGMENT
?_Hardfail@?$_Iosb@H@std@@2W4_Iostate@12@B DD 010H	; std::_Iosb<int>::_Hardfail
CONST	ENDS
;	COMDAT ?badbit@?$_Iosb@H@std@@2W4_Iostate@12@B
CONST	SEGMENT
?badbit@?$_Iosb@H@std@@2W4_Iostate@12@B DD 04H		; std::_Iosb<int>::badbit
CONST	ENDS
;	COMDAT ?failbit@?$_Iosb@H@std@@2W4_Iostate@12@B
CONST	SEGMENT
?failbit@?$_Iosb@H@std@@2W4_Iostate@12@B DD 02H		; std::_Iosb<int>::failbit
CONST	ENDS
;	COMDAT ?eofbit@?$_Iosb@H@std@@2W4_Iostate@12@B
CONST	SEGMENT
?eofbit@?$_Iosb@H@std@@2W4_Iostate@12@B DD 01H		; std::_Iosb<int>::eofbit
CONST	ENDS
;	COMDAT ?goodbit@?$_Iosb@H@std@@2W4_Iostate@12@B
CONST	SEGMENT
?goodbit@?$_Iosb@H@std@@2W4_Iostate@12@B DD 00H		; std::_Iosb<int>::goodbit
CONST	ENDS
;	COMDAT ?floatfield@?$_Iosb@H@std@@2W4_Fmtflags@12@B
CONST	SEGMENT
?floatfield@?$_Iosb@H@std@@2W4_Fmtflags@12@B DD 03000H	; std::_Iosb<int>::floatfield
CONST	ENDS
;	COMDAT ?basefield@?$_Iosb@H@std@@2W4_Fmtflags@12@B
CONST	SEGMENT
?basefield@?$_Iosb@H@std@@2W4_Fmtflags@12@B DD 0e00H	; std::_Iosb<int>::basefield
CONST	ENDS
;	COMDAT ?adjustfield@?$_Iosb@H@std@@2W4_Fmtflags@12@B
CONST	SEGMENT
?adjustfield@?$_Iosb@H@std@@2W4_Fmtflags@12@B DD 01c0H	; std::_Iosb<int>::adjustfield
CONST	ENDS
;	COMDAT ?_Stdio@?$_Iosb@H@std@@2W4_Fmtflags@12@B
CONST	SEGMENT
?_Stdio@?$_Iosb@H@std@@2W4_Fmtflags@12@B DD 08000H	; std::_Iosb<int>::_Stdio
CONST	ENDS
;	COMDAT ?boolalpha@?$_Iosb@H@std@@2W4_Fmtflags@12@B
CONST	SEGMENT
?boolalpha@?$_Iosb@H@std@@2W4_Fmtflags@12@B DD 04000H	; std::_Iosb<int>::boolalpha
CONST	ENDS
;	COMDAT ?hexfloat@?$_Iosb@H@std@@2W4_Fmtflags@12@B
CONST	SEGMENT
?hexfloat@?$_Iosb@H@std@@2W4_Fmtflags@12@B DD 03000H	; std::_Iosb<int>::hexfloat
CONST	ENDS
;	COMDAT ?fixed@?$_Iosb@H@std@@2W4_Fmtflags@12@B
CONST	SEGMENT
?fixed@?$_Iosb@H@std@@2W4_Fmtflags@12@B DD 02000H	; std::_Iosb<int>::fixed
CONST	ENDS
;	COMDAT ?scientific@?$_Iosb@H@std@@2W4_Fmtflags@12@B
CONST	SEGMENT
?scientific@?$_Iosb@H@std@@2W4_Fmtflags@12@B DD 01000H	; std::_Iosb<int>::scientific
CONST	ENDS
;	COMDAT ?hex@?$_Iosb@H@std@@2W4_Fmtflags@12@B
CONST	SEGMENT
?hex@?$_Iosb@H@std@@2W4_Fmtflags@12@B DD 0800H		; std::_Iosb<int>::hex
CONST	ENDS
;	COMDAT ?oct@?$_Iosb@H@std@@2W4_Fmtflags@12@B
CONST	SEGMENT
?oct@?$_Iosb@H@std@@2W4_Fmtflags@12@B DD 0400H		; std::_Iosb<int>::oct
CONST	ENDS
;	COMDAT ?dec@?$_Iosb@H@std@@2W4_Fmtflags@12@B
CONST	SEGMENT
?dec@?$_Iosb@H@std@@2W4_Fmtflags@12@B DD 0200H		; std::_Iosb<int>::dec
CONST	ENDS
;	COMDAT ?internal@?$_Iosb@H@std@@2W4_Fmtflags@12@B
CONST	SEGMENT
?internal@?$_Iosb@H@std@@2W4_Fmtflags@12@B DD 0100H	; std::_Iosb<int>::internal
CONST	ENDS
;	COMDAT ?right@?$_Iosb@H@std@@2W4_Fmtflags@12@B
CONST	SEGMENT
?right@?$_Iosb@H@std@@2W4_Fmtflags@12@B DD 080H		; std::_Iosb<int>::right
CONST	ENDS
;	COMDAT ?left@?$_Iosb@H@std@@2W4_Fmtflags@12@B
CONST	SEGMENT
?left@?$_Iosb@H@std@@2W4_Fmtflags@12@B DD 040H		; std::_Iosb<int>::left
CONST	ENDS
;	COMDAT ?showpos@?$_Iosb@H@std@@2W4_Fmtflags@12@B
CONST	SEGMENT
?showpos@?$_Iosb@H@std@@2W4_Fmtflags@12@B DD 020H	; std::_Iosb<int>::showpos
CONST	ENDS
;	COMDAT ?showpoint@?$_Iosb@H@std@@2W4_Fmtflags@12@B
CONST	SEGMENT
?showpoint@?$_Iosb@H@std@@2W4_Fmtflags@12@B DD 010H	; std::_Iosb<int>::showpoint
CONST	ENDS
;	COMDAT ?showbase@?$_Iosb@H@std@@2W4_Fmtflags@12@B
CONST	SEGMENT
?showbase@?$_Iosb@H@std@@2W4_Fmtflags@12@B DD 08H	; std::_Iosb<int>::showbase
CONST	ENDS
;	COMDAT ?uppercase@?$_Iosb@H@std@@2W4_Fmtflags@12@B
CONST	SEGMENT
?uppercase@?$_Iosb@H@std@@2W4_Fmtflags@12@B DD 04H	; std::_Iosb<int>::uppercase
CONST	ENDS
;	COMDAT ?unitbuf@?$_Iosb@H@std@@2W4_Fmtflags@12@B
CONST	SEGMENT
?unitbuf@?$_Iosb@H@std@@2W4_Fmtflags@12@B DD 02H	; std::_Iosb<int>::unitbuf
CONST	ENDS
;	COMDAT ?skipws@?$_Iosb@H@std@@2W4_Fmtflags@12@B
CONST	SEGMENT
?skipws@?$_Iosb@H@std@@2W4_Fmtflags@12@B DD 01H		; std::_Iosb<int>::skipws
CONST	ENDS
;	COMDAT ?none@?$_Locbase@H@std@@2HB
CONST	SEGMENT
?none@?$_Locbase@H@std@@2HB DD 00H			; std::_Locbase<int>::none
CONST	ENDS
;	COMDAT ?all@?$_Locbase@H@std@@2HB
CONST	SEGMENT
?all@?$_Locbase@H@std@@2HB DD 03fH			; std::_Locbase<int>::all
CONST	ENDS
;	COMDAT ?messages@?$_Locbase@H@std@@2HB
CONST	SEGMENT
?messages@?$_Locbase@H@std@@2HB DD 020H			; std::_Locbase<int>::messages
CONST	ENDS
;	COMDAT ?time@?$_Locbase@H@std@@2HB
CONST	SEGMENT
?time@?$_Locbase@H@std@@2HB DD 010H			; std::_Locbase<int>::time
CONST	ENDS
;	COMDAT ?numeric@?$_Locbase@H@std@@2HB
CONST	SEGMENT
?numeric@?$_Locbase@H@std@@2HB DD 08H			; std::_Locbase<int>::numeric
CONST	ENDS
;	COMDAT ?monetary@?$_Locbase@H@std@@2HB
CONST	SEGMENT
?monetary@?$_Locbase@H@std@@2HB DD 04H			; std::_Locbase<int>::monetary
CONST	ENDS
;	COMDAT ?ctype@?$_Locbase@H@std@@2HB
CONST	SEGMENT
?ctype@?$_Locbase@H@std@@2HB DD 02H			; std::_Locbase<int>::ctype
CONST	ENDS
;	COMDAT ?collate@?$_Locbase@H@std@@2HB
CONST	SEGMENT
?collate@?$_Locbase@H@std@@2HB DD 01H			; std::_Locbase<int>::collate
CONST	ENDS
;	COMDAT ?_Value@?$_Is_swap_move@U_Swap_move_tag@std@@@std@@2_NB
CONST	SEGMENT
?_Value@?$_Is_swap_move@U_Swap_move_tag@std@@@std@@2_NB DB 01H ; std::_Is_swap_move<std::_Swap_move_tag>::_Value
CONST	ENDS
_DATA	SEGMENT
__bad_alloc_Message DD FLAT:$SG5713
_DATA	ENDS
CONST	SEGMENT
$SG5713	DB	'bad allocation', 00H
	ORG $+1
$SG116374 DB	'wb', 00H
	ORG $+1
$SG116378 DB	'.\OgrePackageFile.cpp', 00H
	ORG $+2
$SG116379 DB	'write pkgfile error', 00H
$SG116414 DB	'rb', 00H
	ORG $+1
$SG116415 DB	'r+b', 00H
$SG116418 DB	'.\OgrePackageFile.cpp', 00H
	ORG $+2
$SG116419 DB	'open pkgfile error: %s', 00H
	ORG $+1
$SG116422 DB	'r+b', 00H
$SG116425 DB	'.\OgrePackageFile.cpp', 00H
	ORG $+2
$SG116426 DB	'read pkgfile error: %s', 00H
	ORG $+1
$SG116430 DB	'.\OgrePackageFile.cpp', 00H
	ORG $+2
$SG116431 DB	'read pkgfile error: %s', 00H
	ORG $+1
$SG116445 DB	'.\OgrePackageFile.cpp', 00H
	ORG $+2
$SG116446 DB	'write pkgfile error', 00H
$SG116448 DB	'.\OgrePackageFile.cpp', 00H
	ORG $+2
$SG116449 DB	'write pkgfile error', 00H
$SG116554 DB	'.\OgrePackageFile.cpp', 00H
	ORG $+2
$SG116555 DB	'openFile wrong file_number:%d', 00H
	ORG $+2
$SG116571 DB	'.\OgrePackageFile.cpp', 00H
	ORG $+2
$SG116572 DB	'read pkgfile error: %d,%d', 00H
	ORG $+2
$SG116578 DB	'.\OgrePackageFile.cpp', 00H
	ORG $+2
$SG116579 DB	'uncompress data error: %d, %d', 00H
	ORG $+2
$SG116613 DB	'.\OgrePackageFile.cpp', 00H
	ORG $+2
$SG116614 DB	'compress error', 00H
	ORG $+1
$SG116621 DB	'.\OgrePackageFile.cpp', 00H
	ORG $+2
$SG116622 DB	'write pkgfile error: %d, %d', 00H
$SG116638 DB	'rb', 00H
CONST	ENDS
PUBLIC	??_7DataStream@Ogre@@6B@			; Ogre::DataStream::`vftable'
PUBLIC	??0DataStream@Ogre@@QAE@XZ			; Ogre::DataStream::DataStream
PUBLIC	??_R4DataStream@Ogre@@6B@			; Ogre::DataStream::`RTTI Complete Object Locator'
PUBLIC	??_R0?AVDataStream@Ogre@@@8			; Ogre::DataStream `RTTI Type Descriptor'
PUBLIC	??_R3DataStream@Ogre@@8				; Ogre::DataStream::`RTTI Class Hierarchy Descriptor'
PUBLIC	??_R2DataStream@Ogre@@8				; Ogre::DataStream::`RTTI Base Class Array'
PUBLIC	??_R1A@?0A@EA@DataStream@Ogre@@8		; Ogre::DataStream::`RTTI Base Class Descriptor at (0,-1,0,64)'
PUBLIC	??_EDataStream@Ogre@@UAEPAXI@Z			; Ogre::DataStream::`vector deleting destructor'
PUBLIC	?size@DataStream@Ogre@@UBEIXZ			; Ogre::DataStream::size
EXTRN	__imp_??1?$basic_string@DU?$char_traits@D@std@@V?$allocator@D@2@@std@@QAE@XZ:PROC
EXTRN	__imp_??0?$basic_string@DU?$char_traits@D@std@@V?$allocator@D@2@@std@@QAE@XZ:PROC
EXTRN	___security_cookie:DWORD
EXTRN	___CxxFrameHandler3:PROC
EXTRN	@__security_check_cookie@4:PROC
EXTRN	??_7type_info@@6B@:QWORD			; type_info::`vftable'
EXTRN	__purecall:PROC
EXTRN	?readLine@DataStream@Ogre@@UAEIPADIABV?$basic_string@DU?$char_traits@D@std@@V?$allocator@D@2@@std@@@Z:PROC ; Ogre::DataStream::readLine
EXTRN	?getLine@DataStream@Ogre@@UAE?AV?$basic_string@DU?$char_traits@D@std@@V?$allocator@D@2@@std@@_N@Z:PROC ; Ogre::DataStream::getLine
EXTRN	?getAsString@DataStream@Ogre@@UAE?AV?$basic_string@DU?$char_traits@D@std@@V?$allocator@D@2@@std@@XZ:PROC ; Ogre::DataStream::getAsString
EXTRN	?skipLine@DataStream@Ogre@@UAEIABV?$basic_string@DU?$char_traits@D@std@@V?$allocator@D@2@@std@@@Z:PROC ; Ogre::DataStream::skipLine
;	COMDAT ??_R1A@?0A@EA@DataStream@Ogre@@8
; File i:\svnroot\client\ogremain\ogredatastream.h
rdata$r	SEGMENT
??_R1A@?0A@EA@DataStream@Ogre@@8 DD FLAT:??_R0?AVDataStream@Ogre@@@8 ; Ogre::DataStream::`RTTI Base Class Descriptor at (0,-1,0,64)'
	DD	00H
	DD	00H
	DD	0ffffffffH
	DD	00H
	DD	040H
	DD	FLAT:??_R3DataStream@Ogre@@8
rdata$r	ENDS
;	COMDAT ??_R2DataStream@Ogre@@8
rdata$r	SEGMENT
??_R2DataStream@Ogre@@8 DD FLAT:??_R1A@?0A@EA@DataStream@Ogre@@8 ; Ogre::DataStream::`RTTI Base Class Array'
rdata$r	ENDS
;	COMDAT ??_R3DataStream@Ogre@@8
rdata$r	SEGMENT
??_R3DataStream@Ogre@@8 DD 00H				; Ogre::DataStream::`RTTI Class Hierarchy Descriptor'
	DD	00H
	DD	01H
	DD	FLAT:??_R2DataStream@Ogre@@8
rdata$r	ENDS
;	COMDAT ??_R0?AVDataStream@Ogre@@@8
_DATA	SEGMENT
??_R0?AVDataStream@Ogre@@@8 DD FLAT:??_7type_info@@6B@	; Ogre::DataStream `RTTI Type Descriptor'
	DD	00H
	DB	'.?AVDataStream@Ogre@@', 00H
_DATA	ENDS
;	COMDAT ??_R4DataStream@Ogre@@6B@
rdata$r	SEGMENT
??_R4DataStream@Ogre@@6B@ DD 00H			; Ogre::DataStream::`RTTI Complete Object Locator'
	DD	00H
	DD	00H
	DD	FLAT:??_R0?AVDataStream@Ogre@@@8
	DD	FLAT:??_R3DataStream@Ogre@@8
rdata$r	ENDS
;	COMDAT ??_7DataStream@Ogre@@6B@
CONST	SEGMENT
??_7DataStream@Ogre@@6B@ DD FLAT:??_R4DataStream@Ogre@@6B@ ; Ogre::DataStream::`vftable'
	DD	FLAT:??_EDataStream@Ogre@@UAEPAXI@Z
	DD	FLAT:__purecall
	DD	FLAT:__purecall
	DD	FLAT:?readLine@DataStream@Ogre@@UAEIPADIABV?$basic_string@DU?$char_traits@D@std@@V?$allocator@D@2@@std@@@Z
	DD	FLAT:?getLine@DataStream@Ogre@@UAE?AV?$basic_string@DU?$char_traits@D@std@@V?$allocator@D@2@@std@@_N@Z
	DD	FLAT:?getAsString@DataStream@Ogre@@UAE?AV?$basic_string@DU?$char_traits@D@std@@V?$allocator@D@2@@std@@XZ
	DD	FLAT:?skipLine@DataStream@Ogre@@UAEIABV?$basic_string@DU?$char_traits@D@std@@V?$allocator@D@2@@std@@@Z
	DD	FLAT:__purecall
	DD	FLAT:__purecall
	DD	FLAT:__purecall
	DD	FLAT:__purecall
	DD	FLAT:?size@DataStream@Ogre@@UBEIXZ
	DD	FLAT:__purecall
	DD	FLAT:__purecall
CONST	ENDS
;	COMDAT xdata$x
xdata$x	SEGMENT
__unwindtable$??0DataStream@Ogre@@QAE@XZ DD 0ffffffffH
	DD	FLAT:__unwindfunclet$??0DataStream@Ogre@@QAE@XZ$0
__ehfuncinfo$??0DataStream@Ogre@@QAE@XZ DD 019930522H
	DD	01H
	DD	FLAT:__unwindtable$??0DataStream@Ogre@@QAE@XZ
	DD	2 DUP(00H)
	DD	2 DUP(00H)
	DD	00H
	DD	00H
; Function compile flags: /Odtp
xdata$x	ENDS
;	COMDAT ??0DataStream@Ogre@@QAE@XZ
_TEXT	SEGMENT
_this$ = -16						; size = 4
__$EHRec$ = -12						; size = 12
??0DataStream@Ogre@@QAE@XZ PROC				; Ogre::DataStream::DataStream, COMDAT
; _this$ = ecx

; 68   : 		DataStream() : mSize(0) {}

	push	ebp
	mov	ebp, esp
	push	-1
	push	__ehhandler$??0DataStream@Ogre@@QAE@XZ
	mov	eax, DWORD PTR fs:0
	push	eax
	push	ecx
	mov	eax, DWORD PTR ___security_cookie
	xor	eax, ebp
	push	eax
	lea	eax, DWORD PTR __$EHRec$[ebp]
	mov	DWORD PTR fs:0, eax
	mov	DWORD PTR _this$[ebp], ecx
	mov	eax, DWORD PTR _this$[ebp]
	mov	DWORD PTR [eax], OFFSET ??_7DataStream@Ogre@@6B@
	mov	ecx, DWORD PTR _this$[ebp]
	add	ecx, 4
	call	DWORD PTR __imp_??0?$basic_string@DU?$char_traits@D@std@@V?$allocator@D@2@@std@@QAE@XZ
	mov	DWORD PTR __$EHRec$[ebp+8], 0
	mov	ecx, DWORD PTR _this$[ebp]
	mov	DWORD PTR [ecx+32], 0
	mov	DWORD PTR __$EHRec$[ebp+8], -1
	mov	eax, DWORD PTR _this$[ebp]
	mov	ecx, DWORD PTR __$EHRec$[ebp]
	mov	DWORD PTR fs:0, ecx
	pop	ecx
	mov	esp, ebp
	pop	ebp
	ret	0
_TEXT	ENDS
;	COMDAT text$x
text$x	SEGMENT
__unwindfunclet$??0DataStream@Ogre@@QAE@XZ$0:
	mov	ecx, DWORD PTR _this$[ebp]
	add	ecx, 4
	jmp	DWORD PTR __imp_??1?$basic_string@DU?$char_traits@D@std@@V?$allocator@D@2@@std@@QAE@XZ
__ehhandler$??0DataStream@Ogre@@QAE@XZ:
	mov	edx, DWORD PTR [esp+8]
	lea	eax, DWORD PTR [edx+12]
	mov	ecx, DWORD PTR [edx-8]
	xor	ecx, eax
	call	@__security_check_cookie@4
	mov	eax, OFFSET __ehfuncinfo$??0DataStream@Ogre@@QAE@XZ
	jmp	___CxxFrameHandler3
text$x	ENDS
??0DataStream@Ogre@@QAE@XZ ENDP				; Ogre::DataStream::DataStream
PUBLIC	??0DataStream@Ogre@@QAE@ABV?$basic_string@DU?$char_traits@D@std@@V?$allocator@D@2@@std@@@Z ; Ogre::DataStream::DataStream
EXTRN	__imp_??0?$basic_string@DU?$char_traits@D@std@@V?$allocator@D@2@@std@@QAE@ABV01@@Z:PROC
;	COMDAT xdata$x
xdata$x	SEGMENT
__unwindtable$??0DataStream@Ogre@@QAE@ABV?$basic_string@DU?$char_traits@D@std@@V?$allocator@D@2@@std@@@Z DD 0ffffffffH
	DD	FLAT:__unwindfunclet$??0DataStream@Ogre@@QAE@ABV?$basic_string@DU?$char_traits@D@std@@V?$allocator@D@2@@std@@@Z$0
__ehfuncinfo$??0DataStream@Ogre@@QAE@ABV?$basic_string@DU?$char_traits@D@std@@V?$allocator@D@2@@std@@@Z DD 019930522H
	DD	01H
	DD	FLAT:__unwindtable$??0DataStream@Ogre@@QAE@ABV?$basic_string@DU?$char_traits@D@std@@V?$allocator@D@2@@std@@@Z
	DD	2 DUP(00H)
	DD	2 DUP(00H)
	DD	00H
	DD	00H
; Function compile flags: /Odtp
xdata$x	ENDS
;	COMDAT ??0DataStream@Ogre@@QAE@ABV?$basic_string@DU?$char_traits@D@std@@V?$allocator@D@2@@std@@@Z
_TEXT	SEGMENT
_this$ = -16						; size = 4
__$EHRec$ = -12						; size = 12
_name$ = 8						; size = 4
??0DataStream@Ogre@@QAE@ABV?$basic_string@DU?$char_traits@D@std@@V?$allocator@D@2@@std@@@Z PROC ; Ogre::DataStream::DataStream, COMDAT
; _this$ = ecx

; 70   : 		DataStream(const String& name) : mName(name), mSize(0) {}

	push	ebp
	mov	ebp, esp
	push	-1
	push	__ehhandler$??0DataStream@Ogre@@QAE@ABV?$basic_string@DU?$char_traits@D@std@@V?$allocator@D@2@@std@@@Z
	mov	eax, DWORD PTR fs:0
	push	eax
	push	ecx
	mov	eax, DWORD PTR ___security_cookie
	xor	eax, ebp
	push	eax
	lea	eax, DWORD PTR __$EHRec$[ebp]
	mov	DWORD PTR fs:0, eax
	mov	DWORD PTR _this$[ebp], ecx
	mov	eax, DWORD PTR _this$[ebp]
	mov	DWORD PTR [eax], OFFSET ??_7DataStream@Ogre@@6B@
	mov	ecx, DWORD PTR _name$[ebp]
	push	ecx
	mov	ecx, DWORD PTR _this$[ebp]
	add	ecx, 4
	call	DWORD PTR __imp_??0?$basic_string@DU?$char_traits@D@std@@V?$allocator@D@2@@std@@QAE@ABV01@@Z
	mov	DWORD PTR __$EHRec$[ebp+8], 0
	mov	edx, DWORD PTR _this$[ebp]
	mov	DWORD PTR [edx+32], 0
	mov	DWORD PTR __$EHRec$[ebp+8], -1
	mov	eax, DWORD PTR _this$[ebp]
	mov	ecx, DWORD PTR __$EHRec$[ebp]
	mov	DWORD PTR fs:0, ecx
	pop	ecx
	mov	esp, ebp
	pop	ebp
	ret	4
_TEXT	ENDS
;	COMDAT text$x
text$x	SEGMENT
__unwindfunclet$??0DataStream@Ogre@@QAE@ABV?$basic_string@DU?$char_traits@D@std@@V?$allocator@D@2@@std@@@Z$0:
	mov	ecx, DWORD PTR _this$[ebp]
	add	ecx, 4
	jmp	DWORD PTR __imp_??1?$basic_string@DU?$char_traits@D@std@@V?$allocator@D@2@@std@@QAE@XZ
__ehhandler$??0DataStream@Ogre@@QAE@ABV?$basic_string@DU?$char_traits@D@std@@V?$allocator@D@2@@std@@@Z:
	mov	edx, DWORD PTR [esp+8]
	lea	eax, DWORD PTR [edx+12]
	mov	ecx, DWORD PTR [edx-8]
	xor	ecx, eax
	call	@__security_check_cookie@4
	mov	eax, OFFSET __ehfuncinfo$??0DataStream@Ogre@@QAE@ABV?$basic_string@DU?$char_traits@D@std@@V?$allocator@D@2@@std@@@Z
	jmp	___CxxFrameHandler3
text$x	ENDS
??0DataStream@Ogre@@QAE@ABV?$basic_string@DU?$char_traits@D@std@@V?$allocator@D@2@@std@@@Z ENDP ; Ogre::DataStream::DataStream
PUBLIC	?getName@DataStream@Ogre@@QAEABV?$basic_string@DU?$char_traits@D@std@@V?$allocator@D@2@@std@@XZ ; Ogre::DataStream::getName
; Function compile flags: /Odtp
;	COMDAT ?getName@DataStream@Ogre@@QAEABV?$basic_string@DU?$char_traits@D@std@@V?$allocator@D@2@@std@@XZ
_TEXT	SEGMENT
_this$ = -4						; size = 4
?getName@DataStream@Ogre@@QAEABV?$basic_string@DU?$char_traits@D@std@@V?$allocator@D@2@@std@@XZ PROC ; Ogre::DataStream::getName, COMDAT
; _this$ = ecx

; 72   : 		const String& getName(void) { return mName; }

	push	ebp
	mov	ebp, esp
	push	ecx
	mov	DWORD PTR _this$[ebp], ecx
	mov	eax, DWORD PTR _this$[ebp]
	add	eax, 4
	mov	esp, ebp
	pop	ebp
	ret	0
?getName@DataStream@Ogre@@QAEABV?$basic_string@DU?$char_traits@D@std@@V?$allocator@D@2@@std@@XZ ENDP ; Ogre::DataStream::getName
_TEXT	ENDS
PUBLIC	??1DataStream@Ogre@@UAE@XZ			; Ogre::DataStream::~DataStream
;	COMDAT xdata$x
xdata$x	SEGMENT
__unwindtable$??1DataStream@Ogre@@UAE@XZ DD 0ffffffffH
	DD	FLAT:__unwindfunclet$??1DataStream@Ogre@@UAE@XZ$0
__ehfuncinfo$??1DataStream@Ogre@@UAE@XZ DD 019930522H
	DD	01H
	DD	FLAT:__unwindtable$??1DataStream@Ogre@@UAE@XZ
	DD	2 DUP(00H)
	DD	2 DUP(00H)
	DD	00H
	DD	00H
; Function compile flags: /Odtp
xdata$x	ENDS
;	COMDAT ??1DataStream@Ogre@@UAE@XZ
_TEXT	SEGMENT
_this$ = -16						; size = 4
__$EHRec$ = -12						; size = 12
??1DataStream@Ogre@@UAE@XZ PROC				; Ogre::DataStream::~DataStream, COMDAT
; _this$ = ecx

; 73   : 		virtual ~DataStream() {}

	push	ebp
	mov	ebp, esp
	push	-1
	push	__ehhandler$??1DataStream@Ogre@@UAE@XZ
	mov	eax, DWORD PTR fs:0
	push	eax
	push	ecx
	mov	eax, DWORD PTR ___security_cookie
	xor	eax, ebp
	push	eax
	lea	eax, DWORD PTR __$EHRec$[ebp]
	mov	DWORD PTR fs:0, eax
	mov	DWORD PTR _this$[ebp], ecx
	mov	eax, DWORD PTR _this$[ebp]
	mov	DWORD PTR [eax], OFFSET ??_7DataStream@Ogre@@6B@
	mov	DWORD PTR __$EHRec$[ebp+8], 0
	mov	DWORD PTR __$EHRec$[ebp+8], -1
	mov	ecx, DWORD PTR _this$[ebp]
	add	ecx, 4
	call	DWORD PTR __imp_??1?$basic_string@DU?$char_traits@D@std@@V?$allocator@D@2@@std@@QAE@XZ
	mov	ecx, DWORD PTR __$EHRec$[ebp]
	mov	DWORD PTR fs:0, ecx
	pop	ecx
	mov	esp, ebp
	pop	ebp
	ret	0
_TEXT	ENDS
;	COMDAT text$x
text$x	SEGMENT
__unwindfunclet$??1DataStream@Ogre@@UAE@XZ$0:
	mov	ecx, DWORD PTR _this$[ebp]
	add	ecx, 4
	jmp	DWORD PTR __imp_??1?$basic_string@DU?$char_traits@D@std@@V?$allocator@D@2@@std@@QAE@XZ
__ehhandler$??1DataStream@Ogre@@UAE@XZ:
	mov	edx, DWORD PTR [esp+8]
	lea	eax, DWORD PTR [edx+12]
	mov	ecx, DWORD PTR [edx-8]
	xor	ecx, eax
	call	@__security_check_cookie@4
	mov	eax, OFFSET __ehfuncinfo$??1DataStream@Ogre@@UAE@XZ
	jmp	___CxxFrameHandler3
text$x	ENDS
??1DataStream@Ogre@@UAE@XZ ENDP				; Ogre::DataStream::~DataStream
; Function compile flags: /Odtp
;	COMDAT ?size@DataStream@Ogre@@UBEIXZ
_TEXT	SEGMENT
_this$ = -4						; size = 4
?size@DataStream@Ogre@@UBEIXZ PROC			; Ogre::DataStream::size, COMDAT
; _this$ = ecx

; 157  : 		virtual size_t size(void) const { return mSize; }

	push	ebp
	mov	ebp, esp
	push	ecx
	mov	DWORD PTR _this$[ebp], ecx
	mov	eax, DWORD PTR _this$[ebp]
	mov	eax, DWORD PTR [eax+32]
	mov	esp, ebp
	pop	ebp
	ret	0
?size@DataStream@Ogre@@UBEIXZ ENDP			; Ogre::DataStream::size
_TEXT	ENDS
PUBLIC	??0DataStream@Ogre@@QAE@ABV01@@Z		; Ogre::DataStream::DataStream
;	COMDAT xdata$x
xdata$x	SEGMENT
__unwindtable$??0DataStream@Ogre@@QAE@ABV01@@Z DD 0ffffffffH
	DD	FLAT:__unwindfunclet$??0DataStream@Ogre@@QAE@ABV01@@Z$0
__ehfuncinfo$??0DataStream@Ogre@@QAE@ABV01@@Z DD 019930522H
	DD	01H
	DD	FLAT:__unwindtable$??0DataStream@Ogre@@QAE@ABV01@@Z
	DD	2 DUP(00H)
	DD	2 DUP(00H)
	DD	00H
	DD	00H
; Function compile flags: /Odtp
xdata$x	ENDS
;	COMDAT ??0DataStream@Ogre@@QAE@ABV01@@Z
_TEXT	SEGMENT
_this$ = -16						; size = 4
__$EHRec$ = -12						; size = 12
___that$ = 8						; size = 4
??0DataStream@Ogre@@QAE@ABV01@@Z PROC			; Ogre::DataStream::DataStream, COMDAT
; _this$ = ecx
	push	ebp
	mov	ebp, esp
	push	-1
	push	__ehhandler$??0DataStream@Ogre@@QAE@ABV01@@Z
	mov	eax, DWORD PTR fs:0
	push	eax
	push	ecx
	mov	eax, DWORD PTR ___security_cookie
	xor	eax, ebp
	push	eax
	lea	eax, DWORD PTR __$EHRec$[ebp]
	mov	DWORD PTR fs:0, eax
	mov	DWORD PTR _this$[ebp], ecx
	mov	eax, DWORD PTR _this$[ebp]
	mov	DWORD PTR [eax], OFFSET ??_7DataStream@Ogre@@6B@
	mov	ecx, DWORD PTR ___that$[ebp]
	add	ecx, 4
	push	ecx
	mov	ecx, DWORD PTR _this$[ebp]
	add	ecx, 4
	call	DWORD PTR __imp_??0?$basic_string@DU?$char_traits@D@std@@V?$allocator@D@2@@std@@QAE@ABV01@@Z
	mov	DWORD PTR __$EHRec$[ebp+8], 0
	mov	edx, DWORD PTR _this$[ebp]
	mov	eax, DWORD PTR ___that$[ebp]
	mov	ecx, DWORD PTR [eax+32]
	mov	DWORD PTR [edx+32], ecx
	mov	DWORD PTR __$EHRec$[ebp+8], -1
	mov	eax, DWORD PTR _this$[ebp]
	mov	ecx, DWORD PTR __$EHRec$[ebp]
	mov	DWORD PTR fs:0, ecx
	pop	ecx
	mov	esp, ebp
	pop	ebp
	ret	4
_TEXT	ENDS
;	COMDAT text$x
text$x	SEGMENT
__unwindfunclet$??0DataStream@Ogre@@QAE@ABV01@@Z$0:
	mov	ecx, DWORD PTR _this$[ebp]
	add	ecx, 4
	jmp	DWORD PTR __imp_??1?$basic_string@DU?$char_traits@D@std@@V?$allocator@D@2@@std@@QAE@XZ
__ehhandler$??0DataStream@Ogre@@QAE@ABV01@@Z:
	mov	edx, DWORD PTR [esp+8]
	lea	eax, DWORD PTR [edx+12]
	mov	ecx, DWORD PTR [edx-8]
	xor	ecx, eax
	call	@__security_check_cookie@4
	mov	eax, OFFSET __ehfuncinfo$??0DataStream@Ogre@@QAE@ABV01@@Z
	jmp	___CxxFrameHandler3
text$x	ENDS
??0DataStream@Ogre@@QAE@ABV01@@Z ENDP			; Ogre::DataStream::DataStream
PUBLIC	??4DataStream@Ogre@@QAEAAV01@ABV01@@Z		; Ogre::DataStream::operator=
EXTRN	__imp_??4?$basic_string@DU?$char_traits@D@std@@V?$allocator@D@2@@std@@QAEAAV01@ABV01@@Z:PROC
; Function compile flags: /Odtp
;	COMDAT ??4DataStream@Ogre@@QAEAAV01@ABV01@@Z
_TEXT	SEGMENT
_this$ = -4						; size = 4
___that$ = 8						; size = 4
??4DataStream@Ogre@@QAEAAV01@ABV01@@Z PROC		; Ogre::DataStream::operator=, COMDAT
; _this$ = ecx
	push	ebp
	mov	ebp, esp
	push	ecx
	mov	DWORD PTR _this$[ebp], ecx
	mov	eax, DWORD PTR ___that$[ebp]
	add	eax, 4
	push	eax
	mov	ecx, DWORD PTR _this$[ebp]
	add	ecx, 4
	call	DWORD PTR __imp_??4?$basic_string@DU?$char_traits@D@std@@V?$allocator@D@2@@std@@QAEAAV01@ABV01@@Z
	mov	ecx, DWORD PTR _this$[ebp]
	mov	edx, DWORD PTR ___that$[ebp]
	mov	eax, DWORD PTR [edx+32]
	mov	DWORD PTR [ecx+32], eax
	mov	eax, DWORD PTR _this$[ebp]
	mov	esp, ebp
	pop	ebp
	ret	4
??4DataStream@Ogre@@QAEAAV01@ABV01@@Z ENDP		; Ogre::DataStream::operator=
_TEXT	ENDS
PUBLIC	??_GDataStream@Ogre@@UAEPAXI@Z			; Ogre::DataStream::`scalar deleting destructor'
EXTRN	??3@YAXPAX@Z:PROC				; operator delete
; Function compile flags: /Odtp
;	COMDAT ??_GDataStream@Ogre@@UAEPAXI@Z
_TEXT	SEGMENT
_this$ = -4						; size = 4
___flags$ = 8						; size = 4
??_GDataStream@Ogre@@UAEPAXI@Z PROC			; Ogre::DataStream::`scalar deleting destructor', COMDAT
; _this$ = ecx
	push	ebp
	mov	ebp, esp
	push	ecx
	mov	DWORD PTR _this$[ebp], ecx
	mov	ecx, DWORD PTR _this$[ebp]
	call	??1DataStream@Ogre@@UAE@XZ		; Ogre::DataStream::~DataStream
	mov	eax, DWORD PTR ___flags$[ebp]
	and	eax, 1
	je	SHORT $LN1@scalar
	mov	ecx, DWORD PTR _this$[ebp]
	push	ecx
	call	??3@YAXPAX@Z				; operator delete
	add	esp, 4
$LN1@scalar:
	mov	eax, DWORD PTR _this$[ebp]
	mov	esp, ebp
	pop	ebp
	ret	4
??_GDataStream@Ogre@@UAEPAXI@Z ENDP			; Ogre::DataStream::`scalar deleting destructor'
_TEXT	ENDS
EXTRN	??_V@YAXPAX@Z:PROC				; operator delete[]
EXTRN	??_M@YGXPAXIHP6EX0@Z@Z:PROC			; `eh vector destructor iterator'
; Function compile flags: /Odtp
;	COMDAT ??_EDataStream@Ogre@@UAEPAXI@Z
_TEXT	SEGMENT
_this$ = -4						; size = 4
___flags$ = 8						; size = 4
??_EDataStream@Ogre@@UAEPAXI@Z PROC			; Ogre::DataStream::`vector deleting destructor', COMDAT
; _this$ = ecx
	push	ebp
	mov	ebp, esp
	push	ecx
	mov	DWORD PTR _this$[ebp], ecx
	mov	eax, DWORD PTR ___flags$[ebp]
	and	eax, 2
	je	SHORT $LN3@vector
	push	OFFSET ??1DataStream@Ogre@@UAE@XZ	; Ogre::DataStream::~DataStream
	mov	ecx, DWORD PTR _this$[ebp]
	mov	edx, DWORD PTR [ecx-4]
	push	edx
	push	36					; 00000024H
	mov	eax, DWORD PTR _this$[ebp]
	push	eax
	call	??_M@YGXPAXIHP6EX0@Z@Z
	mov	ecx, DWORD PTR ___flags$[ebp]
	and	ecx, 1
	je	SHORT $LN2@vector
	mov	edx, DWORD PTR _this$[ebp]
	sub	edx, 4
	push	edx
	call	??_V@YAXPAX@Z				; operator delete[]
	add	esp, 4
$LN2@vector:
	mov	eax, DWORD PTR _this$[ebp]
	sub	eax, 4
	jmp	SHORT $LN4@vector
$LN3@vector:
	mov	ecx, DWORD PTR _this$[ebp]
	call	??1DataStream@Ogre@@UAE@XZ		; Ogre::DataStream::~DataStream
	mov	eax, DWORD PTR ___flags$[ebp]
	and	eax, 1
	je	SHORT $LN1@vector
	mov	ecx, DWORD PTR _this$[ebp]
	push	ecx
	call	??3@YAXPAX@Z				; operator delete
	add	esp, 4
$LN1@vector:
	mov	eax, DWORD PTR _this$[ebp]
$LN4@vector:
	mov	esp, ebp
	pop	ebp
	ret	4
??_EDataStream@Ogre@@UAEPAXI@Z ENDP			; Ogre::DataStream::`vector deleting destructor'
_TEXT	ENDS
PUBLIC	?getPtr@MemoryDataStream@Ogre@@QAEPAEXZ		; Ogre::MemoryDataStream::getPtr
; Function compile flags: /Odtp
;	COMDAT ?getPtr@MemoryDataStream@Ogre@@QAEPAEXZ
_TEXT	SEGMENT
_this$ = -4						; size = 4
?getPtr@MemoryDataStream@Ogre@@QAEPAEXZ PROC		; Ogre::MemoryDataStream::getPtr, COMDAT
; _this$ = ecx

; 267  : 		uchar* getPtr(void) { return mData; }

	push	ebp
	mov	ebp, esp
	push	ecx
	mov	DWORD PTR _this$[ebp], ecx
	mov	eax, DWORD PTR _this$[ebp]
	mov	eax, DWORD PTR [eax+36]
	mov	esp, ebp
	pop	ebp
	ret	0
?getPtr@MemoryDataStream@Ogre@@QAEPAEXZ ENDP		; Ogre::MemoryDataStream::getPtr
_TEXT	ENDS
PUBLIC	?getCurrentPtr@MemoryDataStream@Ogre@@QAEPAEXZ	; Ogre::MemoryDataStream::getCurrentPtr
; Function compile flags: /Odtp
;	COMDAT ?getCurrentPtr@MemoryDataStream@Ogre@@QAEPAEXZ
_TEXT	SEGMENT
_this$ = -4						; size = 4
?getCurrentPtr@MemoryDataStream@Ogre@@QAEPAEXZ PROC	; Ogre::MemoryDataStream::getCurrentPtr, COMDAT
; _this$ = ecx

; 270  : 		uchar* getCurrentPtr(void) { return mPos; }

	push	ebp
	mov	ebp, esp
	push	ecx
	mov	DWORD PTR _this$[ebp], ecx
	mov	eax, DWORD PTR _this$[ebp]
	mov	eax, DWORD PTR [eax+40]
	mov	esp, ebp
	pop	ebp
	ret	0
?getCurrentPtr@MemoryDataStream@Ogre@@QAEPAEXZ ENDP	; Ogre::MemoryDataStream::getCurrentPtr
_TEXT	ENDS
PUBLIC	?getMemoryImage@MemoryDataStream@Ogre@@UAEPAXXZ	; Ogre::MemoryDataStream::getMemoryImage
; Function compile flags: /Odtp
;	COMDAT ?getMemoryImage@MemoryDataStream@Ogre@@UAEPAXXZ
_TEXT	SEGMENT
_this$ = -4						; size = 4
?getMemoryImage@MemoryDataStream@Ogre@@UAEPAXXZ PROC	; Ogre::MemoryDataStream::getMemoryImage, COMDAT
; _this$ = ecx

; 307  : 		{

	push	ebp
	mov	ebp, esp
	push	ecx
	mov	DWORD PTR _this$[ebp], ecx

; 308  : 			return mData;

	mov	eax, DWORD PTR _this$[ebp]
	mov	eax, DWORD PTR [eax+36]

; 309  : 		}

	mov	esp, ebp
	pop	ebp
	ret	0
?getMemoryImage@MemoryDataStream@Ogre@@UAEPAXXZ ENDP	; Ogre::MemoryDataStream::getMemoryImage
_TEXT	ENDS
PUBLIC	?setFreeOnClose@MemoryDataStream@Ogre@@QAEXP6AXPAX@Z@Z ; Ogre::MemoryDataStream::setFreeOnClose
; Function compile flags: /Odtp
;	COMDAT ?setFreeOnClose@MemoryDataStream@Ogre@@QAEXP6AXPAX@Z@Z
_TEXT	SEGMENT
_this$ = -4						; size = 4
_freeOnClose$ = 8					; size = 4
?setFreeOnClose@MemoryDataStream@Ogre@@QAEXP6AXPAX@Z@Z PROC ; Ogre::MemoryDataStream::setFreeOnClose, COMDAT
; _this$ = ecx

; 313  : 		void setFreeOnClose(void (*freeOnClose)(void *)) { mFreeOnClose = freeOnClose; }

	push	ebp
	mov	ebp, esp
	push	ecx
	mov	DWORD PTR _this$[ebp], ecx
	mov	eax, DWORD PTR _this$[ebp]
	mov	ecx, DWORD PTR _freeOnClose$[ebp]
	mov	DWORD PTR [eax+48], ecx
	mov	esp, ebp
	pop	ebp
	ret	4
?setFreeOnClose@MemoryDataStream@Ogre@@QAEXP6AXPAX@Z@Z ENDP ; Ogre::MemoryDataStream::setFreeOnClose
_TEXT	ENDS
PUBLIC	??_7MemoryDataStream@Ogre@@6B@			; Ogre::MemoryDataStream::`vftable'
PUBLIC	??0MemoryDataStream@Ogre@@QAE@ABV01@@Z		; Ogre::MemoryDataStream::MemoryDataStream
PUBLIC	??_R4MemoryDataStream@Ogre@@6B@			; Ogre::MemoryDataStream::`RTTI Complete Object Locator'
PUBLIC	??_R0?AVMemoryDataStream@Ogre@@@8		; Ogre::MemoryDataStream `RTTI Type Descriptor'
PUBLIC	??_R3MemoryDataStream@Ogre@@8			; Ogre::MemoryDataStream::`RTTI Class Hierarchy Descriptor'
PUBLIC	??_R2MemoryDataStream@Ogre@@8			; Ogre::MemoryDataStream::`RTTI Base Class Array'
PUBLIC	??_R1A@?0A@EA@MemoryDataStream@Ogre@@8		; Ogre::MemoryDataStream::`RTTI Base Class Descriptor at (0,-1,0,64)'
PUBLIC	??_EMemoryDataStream@Ogre@@UAEPAXI@Z		; Ogre::MemoryDataStream::`vector deleting destructor'
EXTRN	?read@MemoryDataStream@Ogre@@UAEIPAXI@Z:PROC	; Ogre::MemoryDataStream::read
EXTRN	?write@MemoryDataStream@Ogre@@UAEIPBXI@Z:PROC	; Ogre::MemoryDataStream::write
EXTRN	?readLine@MemoryDataStream@Ogre@@UAEIPADIABV?$basic_string@DU?$char_traits@D@std@@V?$allocator@D@2@@std@@@Z:PROC ; Ogre::MemoryDataStream::readLine
EXTRN	?skipLine@MemoryDataStream@Ogre@@UAEIABV?$basic_string@DU?$char_traits@D@std@@V?$allocator@D@2@@std@@@Z:PROC ; Ogre::MemoryDataStream::skipLine
EXTRN	?skip@MemoryDataStream@Ogre@@UAEXJ@Z:PROC	; Ogre::MemoryDataStream::skip
EXTRN	?seek@MemoryDataStream@Ogre@@UAEXI@Z:PROC	; Ogre::MemoryDataStream::seek
EXTRN	?tell@MemoryDataStream@Ogre@@UBEIXZ:PROC	; Ogre::MemoryDataStream::tell
EXTRN	?eof@MemoryDataStream@Ogre@@UBE_NXZ:PROC	; Ogre::MemoryDataStream::eof
EXTRN	?close@MemoryDataStream@Ogre@@UAEXXZ:PROC	; Ogre::MemoryDataStream::close
;	COMDAT ??_R1A@?0A@EA@MemoryDataStream@Ogre@@8
rdata$r	SEGMENT
??_R1A@?0A@EA@MemoryDataStream@Ogre@@8 DD FLAT:??_R0?AVMemoryDataStream@Ogre@@@8 ; Ogre::MemoryDataStream::`RTTI Base Class Descriptor at (0,-1,0,64)'
	DD	01H
	DD	00H
	DD	0ffffffffH
	DD	00H
	DD	040H
	DD	FLAT:??_R3MemoryDataStream@Ogre@@8
rdata$r	ENDS
;	COMDAT ??_R2MemoryDataStream@Ogre@@8
rdata$r	SEGMENT
??_R2MemoryDataStream@Ogre@@8 DD FLAT:??_R1A@?0A@EA@MemoryDataStream@Ogre@@8 ; Ogre::MemoryDataStream::`RTTI Base Class Array'
	DD	FLAT:??_R1A@?0A@EA@DataStream@Ogre@@8
rdata$r	ENDS
;	COMDAT ??_R3MemoryDataStream@Ogre@@8
rdata$r	SEGMENT
??_R3MemoryDataStream@Ogre@@8 DD 00H			; Ogre::MemoryDataStream::`RTTI Class Hierarchy Descriptor'
	DD	00H
	DD	02H
	DD	FLAT:??_R2MemoryDataStream@Ogre@@8
rdata$r	ENDS
;	COMDAT ??_R0?AVMemoryDataStream@Ogre@@@8
_DATA	SEGMENT
??_R0?AVMemoryDataStream@Ogre@@@8 DD FLAT:??_7type_info@@6B@ ; Ogre::MemoryDataStream `RTTI Type Descriptor'
	DD	00H
	DB	'.?AVMemoryDataStream@Ogre@@', 00H
_DATA	ENDS
;	COMDAT ??_R4MemoryDataStream@Ogre@@6B@
rdata$r	SEGMENT
??_R4MemoryDataStream@Ogre@@6B@ DD 00H			; Ogre::MemoryDataStream::`RTTI Complete Object Locator'
	DD	00H
	DD	00H
	DD	FLAT:??_R0?AVMemoryDataStream@Ogre@@@8
	DD	FLAT:??_R3MemoryDataStream@Ogre@@8
rdata$r	ENDS
;	COMDAT ??_7MemoryDataStream@Ogre@@6B@
CONST	SEGMENT
??_7MemoryDataStream@Ogre@@6B@ DD FLAT:??_R4MemoryDataStream@Ogre@@6B@ ; Ogre::MemoryDataStream::`vftable'
	DD	FLAT:??_EMemoryDataStream@Ogre@@UAEPAXI@Z
	DD	FLAT:?read@MemoryDataStream@Ogre@@UAEIPAXI@Z
	DD	FLAT:?write@MemoryDataStream@Ogre@@UAEIPBXI@Z
	DD	FLAT:?readLine@MemoryDataStream@Ogre@@UAEIPADIABV?$basic_string@DU?$char_traits@D@std@@V?$allocator@D@2@@std@@@Z
	DD	FLAT:?getLine@DataStream@Ogre@@UAE?AV?$basic_string@DU?$char_traits@D@std@@V?$allocator@D@2@@std@@_N@Z
	DD	FLAT:?getAsString@DataStream@Ogre@@UAE?AV?$basic_string@DU?$char_traits@D@std@@V?$allocator@D@2@@std@@XZ
	DD	FLAT:?skipLine@MemoryDataStream@Ogre@@UAEIABV?$basic_string@DU?$char_traits@D@std@@V?$allocator@D@2@@std@@@Z
	DD	FLAT:?skip@MemoryDataStream@Ogre@@UAEXJ@Z
	DD	FLAT:?seek@MemoryDataStream@Ogre@@UAEXI@Z
	DD	FLAT:?tell@MemoryDataStream@Ogre@@UBEIXZ
	DD	FLAT:?eof@MemoryDataStream@Ogre@@UBE_NXZ
	DD	FLAT:?size@DataStream@Ogre@@UBEIXZ
	DD	FLAT:?close@MemoryDataStream@Ogre@@UAEXXZ
	DD	FLAT:?getMemoryImage@MemoryDataStream@Ogre@@UAEPAXXZ
CONST	ENDS
;	COMDAT xdata$x
xdata$x	SEGMENT
__unwindtable$??0MemoryDataStream@Ogre@@QAE@ABV01@@Z DD 0ffffffffH
	DD	FLAT:__unwindfunclet$??0MemoryDataStream@Ogre@@QAE@ABV01@@Z$0
__ehfuncinfo$??0MemoryDataStream@Ogre@@QAE@ABV01@@Z DD 019930522H
	DD	01H
	DD	FLAT:__unwindtable$??0MemoryDataStream@Ogre@@QAE@ABV01@@Z
	DD	2 DUP(00H)
	DD	2 DUP(00H)
	DD	00H
	DD	00H
; Function compile flags: /Odtp
xdata$x	ENDS
;	COMDAT ??0MemoryDataStream@Ogre@@QAE@ABV01@@Z
_TEXT	SEGMENT
_this$ = -16						; size = 4
__$EHRec$ = -12						; size = 12
___that$ = 8						; size = 4
??0MemoryDataStream@Ogre@@QAE@ABV01@@Z PROC		; Ogre::MemoryDataStream::MemoryDataStream, COMDAT
; _this$ = ecx
	push	ebp
	mov	ebp, esp
	push	-1
	push	__ehhandler$??0MemoryDataStream@Ogre@@QAE@ABV01@@Z
	mov	eax, DWORD PTR fs:0
	push	eax
	push	ecx
	mov	eax, DWORD PTR ___security_cookie
	xor	eax, ebp
	push	eax
	lea	eax, DWORD PTR __$EHRec$[ebp]
	mov	DWORD PTR fs:0, eax
	mov	DWORD PTR _this$[ebp], ecx
	mov	eax, DWORD PTR ___that$[ebp]
	push	eax
	mov	ecx, DWORD PTR _this$[ebp]
	call	??0DataStream@Ogre@@QAE@ABV01@@Z
	mov	DWORD PTR __$EHRec$[ebp+8], 0
	mov	ecx, DWORD PTR _this$[ebp]
	mov	DWORD PTR [ecx], OFFSET ??_7MemoryDataStream@Ogre@@6B@
	mov	edx, DWORD PTR _this$[ebp]
	mov	eax, DWORD PTR ___that$[ebp]
	mov	ecx, DWORD PTR [eax+36]
	mov	DWORD PTR [edx+36], ecx
	mov	edx, DWORD PTR _this$[ebp]
	mov	eax, DWORD PTR ___that$[ebp]
	mov	ecx, DWORD PTR [eax+40]
	mov	DWORD PTR [edx+40], ecx
	mov	edx, DWORD PTR _this$[ebp]
	mov	eax, DWORD PTR ___that$[ebp]
	mov	ecx, DWORD PTR [eax+44]
	mov	DWORD PTR [edx+44], ecx
	mov	edx, DWORD PTR _this$[ebp]
	mov	eax, DWORD PTR ___that$[ebp]
	mov	ecx, DWORD PTR [eax+48]
	mov	DWORD PTR [edx+48], ecx
	mov	DWORD PTR __$EHRec$[ebp+8], -1
	mov	eax, DWORD PTR _this$[ebp]
	mov	ecx, DWORD PTR __$EHRec$[ebp]
	mov	DWORD PTR fs:0, ecx
	pop	ecx
	mov	esp, ebp
	pop	ebp
	ret	4
_TEXT	ENDS
;	COMDAT text$x
text$x	SEGMENT
__unwindfunclet$??0MemoryDataStream@Ogre@@QAE@ABV01@@Z$0:
	mov	ecx, DWORD PTR _this$[ebp]
	jmp	??1DataStream@Ogre@@UAE@XZ		; Ogre::DataStream::~DataStream
__ehhandler$??0MemoryDataStream@Ogre@@QAE@ABV01@@Z:
	mov	edx, DWORD PTR [esp+8]
	lea	eax, DWORD PTR [edx+12]
	mov	ecx, DWORD PTR [edx-8]
	xor	ecx, eax
	call	@__security_check_cookie@4
	mov	eax, OFFSET __ehfuncinfo$??0MemoryDataStream@Ogre@@QAE@ABV01@@Z
	jmp	___CxxFrameHandler3
text$x	ENDS
??0MemoryDataStream@Ogre@@QAE@ABV01@@Z ENDP		; Ogre::MemoryDataStream::MemoryDataStream
PUBLIC	??4MemoryDataStream@Ogre@@QAEAAV01@ABV01@@Z	; Ogre::MemoryDataStream::operator=
; Function compile flags: /Odtp
;	COMDAT ??4MemoryDataStream@Ogre@@QAEAAV01@ABV01@@Z
_TEXT	SEGMENT
_this$ = -4						; size = 4
___that$ = 8						; size = 4
??4MemoryDataStream@Ogre@@QAEAAV01@ABV01@@Z PROC	; Ogre::MemoryDataStream::operator=, COMDAT
; _this$ = ecx
	push	ebp
	mov	ebp, esp
	push	ecx
	mov	DWORD PTR _this$[ebp], ecx
	mov	eax, DWORD PTR ___that$[ebp]
	push	eax
	mov	ecx, DWORD PTR _this$[ebp]
	call	??4DataStream@Ogre@@QAEAAV01@ABV01@@Z
	mov	ecx, DWORD PTR _this$[ebp]
	mov	edx, DWORD PTR ___that$[ebp]
	mov	eax, DWORD PTR [edx+36]
	mov	DWORD PTR [ecx+36], eax
	mov	ecx, DWORD PTR _this$[ebp]
	mov	edx, DWORD PTR ___that$[ebp]
	mov	eax, DWORD PTR [edx+40]
	mov	DWORD PTR [ecx+40], eax
	mov	ecx, DWORD PTR _this$[ebp]
	mov	edx, DWORD PTR ___that$[ebp]
	mov	eax, DWORD PTR [edx+44]
	mov	DWORD PTR [ecx+44], eax
	mov	ecx, DWORD PTR _this$[ebp]
	mov	edx, DWORD PTR ___that$[ebp]
	mov	eax, DWORD PTR [edx+48]
	mov	DWORD PTR [ecx+48], eax
	mov	eax, DWORD PTR _this$[ebp]
	mov	esp, ebp
	pop	ebp
	ret	4
??4MemoryDataStream@Ogre@@QAEAAV01@ABV01@@Z ENDP	; Ogre::MemoryDataStream::operator=
_TEXT	ENDS
PUBLIC	??_GMemoryDataStream@Ogre@@UAEPAXI@Z		; Ogre::MemoryDataStream::`scalar deleting destructor'
EXTRN	??1MemoryDataStream@Ogre@@UAE@XZ:PROC		; Ogre::MemoryDataStream::~MemoryDataStream
; Function compile flags: /Odtp
;	COMDAT ??_GMemoryDataStream@Ogre@@UAEPAXI@Z
_TEXT	SEGMENT
_this$ = -4						; size = 4
___flags$ = 8						; size = 4
??_GMemoryDataStream@Ogre@@UAEPAXI@Z PROC		; Ogre::MemoryDataStream::`scalar deleting destructor', COMDAT
; _this$ = ecx
	push	ebp
	mov	ebp, esp
	push	ecx
	mov	DWORD PTR _this$[ebp], ecx
	mov	ecx, DWORD PTR _this$[ebp]
	call	??1MemoryDataStream@Ogre@@UAE@XZ	; Ogre::MemoryDataStream::~MemoryDataStream
	mov	eax, DWORD PTR ___flags$[ebp]
	and	eax, 1
	je	SHORT $LN1@scalar@2
	mov	ecx, DWORD PTR _this$[ebp]
	push	ecx
	call	??3@YAXPAX@Z				; operator delete
	add	esp, 4
$LN1@scalar@2:
	mov	eax, DWORD PTR _this$[ebp]
	mov	esp, ebp
	pop	ebp
	ret	4
??_GMemoryDataStream@Ogre@@UAEPAXI@Z ENDP		; Ogre::MemoryDataStream::`scalar deleting destructor'
; Function compile flags: /Odtp
_TEXT	ENDS
;	COMDAT ??_EMemoryDataStream@Ogre@@UAEPAXI@Z
_TEXT	SEGMENT
_this$ = -4						; size = 4
___flags$ = 8						; size = 4
??_EMemoryDataStream@Ogre@@UAEPAXI@Z PROC		; Ogre::MemoryDataStream::`vector deleting destructor', COMDAT
; _this$ = ecx
	push	ebp
	mov	ebp, esp
	push	ecx
	mov	DWORD PTR _this$[ebp], ecx
	mov	eax, DWORD PTR ___flags$[ebp]
	and	eax, 2
	je	SHORT $LN3@vector@2
	push	OFFSET ??1MemoryDataStream@Ogre@@UAE@XZ	; Ogre::MemoryDataStream::~MemoryDataStream
	mov	ecx, DWORD PTR _this$[ebp]
	mov	edx, DWORD PTR [ecx-4]
	push	edx
	push	52					; 00000034H
	mov	eax, DWORD PTR _this$[ebp]
	push	eax
	call	??_M@YGXPAXIHP6EX0@Z@Z
	mov	ecx, DWORD PTR ___flags$[ebp]
	and	ecx, 1
	je	SHORT $LN2@vector@2
	mov	edx, DWORD PTR _this$[ebp]
	sub	edx, 4
	push	edx
	call	??_V@YAXPAX@Z				; operator delete[]
	add	esp, 4
$LN2@vector@2:
	mov	eax, DWORD PTR _this$[ebp]
	sub	eax, 4
	jmp	SHORT $LN4@vector@2
$LN3@vector@2:
	mov	ecx, DWORD PTR _this$[ebp]
	call	??1MemoryDataStream@Ogre@@UAE@XZ	; Ogre::MemoryDataStream::~MemoryDataStream
	mov	eax, DWORD PTR ___flags$[ebp]
	and	eax, 1
	je	SHORT $LN1@vector@2
	mov	ecx, DWORD PTR _this$[ebp]
	push	ecx
	call	??3@YAXPAX@Z				; operator delete
	add	esp, 4
$LN1@vector@2:
	mov	eax, DWORD PTR _this$[ebp]
$LN4@vector@2:
	mov	esp, ebp
	pop	ebp
	ret	4
??_EMemoryDataStream@Ogre@@UAEPAXI@Z ENDP		; Ogre::MemoryDataStream::`vector deleting destructor'
_TEXT	ENDS
PUBLIC	??_7FileStreamDataStream@Ogre@@6B@		; Ogre::FileStreamDataStream::`vftable'
PUBLIC	??0FileStreamDataStream@Ogre@@QAE@ABV01@@Z	; Ogre::FileStreamDataStream::FileStreamDataStream
PUBLIC	??_R4FileStreamDataStream@Ogre@@6B@		; Ogre::FileStreamDataStream::`RTTI Complete Object Locator'
PUBLIC	??_R0?AVFileStreamDataStream@Ogre@@@8		; Ogre::FileStreamDataStream `RTTI Type Descriptor'
PUBLIC	??_R3FileStreamDataStream@Ogre@@8		; Ogre::FileStreamDataStream::`RTTI Class Hierarchy Descriptor'
PUBLIC	??_R2FileStreamDataStream@Ogre@@8		; Ogre::FileStreamDataStream::`RTTI Base Class Array'
PUBLIC	??_R1A@?0A@EA@FileStreamDataStream@Ogre@@8	; Ogre::FileStreamDataStream::`RTTI Base Class Descriptor at (0,-1,0,64)'
PUBLIC	??_EFileStreamDataStream@Ogre@@UAEPAXI@Z	; Ogre::FileStreamDataStream::`vector deleting destructor'
EXTRN	?read@FileStreamDataStream@Ogre@@UAEIPAXI@Z:PROC ; Ogre::FileStreamDataStream::read
EXTRN	?write@FileStreamDataStream@Ogre@@UAEIPBXI@Z:PROC ; Ogre::FileStreamDataStream::write
EXTRN	?readLine@FileStreamDataStream@Ogre@@UAEIPADIABV?$basic_string@DU?$char_traits@D@std@@V?$allocator@D@2@@std@@@Z:PROC ; Ogre::FileStreamDataStream::readLine
EXTRN	?skip@FileStreamDataStream@Ogre@@UAEXJ@Z:PROC	; Ogre::FileStreamDataStream::skip
EXTRN	?seek@FileStreamDataStream@Ogre@@UAEXI@Z:PROC	; Ogre::FileStreamDataStream::seek
EXTRN	?tell@FileStreamDataStream@Ogre@@UBEIXZ:PROC	; Ogre::FileStreamDataStream::tell
EXTRN	?eof@FileStreamDataStream@Ogre@@UBE_NXZ:PROC	; Ogre::FileStreamDataStream::eof
EXTRN	?close@FileStreamDataStream@Ogre@@UAEXXZ:PROC	; Ogre::FileStreamDataStream::close
EXTRN	?getMemoryImage@FileStreamDataStream@Ogre@@UAEPAXXZ:PROC ; Ogre::FileStreamDataStream::getMemoryImage
;	COMDAT ??_R1A@?0A@EA@FileStreamDataStream@Ogre@@8
rdata$r	SEGMENT
??_R1A@?0A@EA@FileStreamDataStream@Ogre@@8 DD FLAT:??_R0?AVFileStreamDataStream@Ogre@@@8 ; Ogre::FileStreamDataStream::`RTTI Base Class Descriptor at (0,-1,0,64)'
	DD	01H
	DD	00H
	DD	0ffffffffH
	DD	00H
	DD	040H
	DD	FLAT:??_R3FileStreamDataStream@Ogre@@8
rdata$r	ENDS
;	COMDAT ??_R2FileStreamDataStream@Ogre@@8
rdata$r	SEGMENT
??_R2FileStreamDataStream@Ogre@@8 DD FLAT:??_R1A@?0A@EA@FileStreamDataStream@Ogre@@8 ; Ogre::FileStreamDataStream::`RTTI Base Class Array'
	DD	FLAT:??_R1A@?0A@EA@DataStream@Ogre@@8
rdata$r	ENDS
;	COMDAT ??_R3FileStreamDataStream@Ogre@@8
rdata$r	SEGMENT
??_R3FileStreamDataStream@Ogre@@8 DD 00H		; Ogre::FileStreamDataStream::`RTTI Class Hierarchy Descriptor'
	DD	00H
	DD	02H
	DD	FLAT:??_R2FileStreamDataStream@Ogre@@8
rdata$r	ENDS
;	COMDAT ??_R0?AVFileStreamDataStream@Ogre@@@8
_DATA	SEGMENT
??_R0?AVFileStreamDataStream@Ogre@@@8 DD FLAT:??_7type_info@@6B@ ; Ogre::FileStreamDataStream `RTTI Type Descriptor'
	DD	00H
	DB	'.?AVFileStreamDataStream@Ogre@@', 00H
_DATA	ENDS
;	COMDAT ??_R4FileStreamDataStream@Ogre@@6B@
rdata$r	SEGMENT
??_R4FileStreamDataStream@Ogre@@6B@ DD 00H		; Ogre::FileStreamDataStream::`RTTI Complete Object Locator'
	DD	00H
	DD	00H
	DD	FLAT:??_R0?AVFileStreamDataStream@Ogre@@@8
	DD	FLAT:??_R3FileStreamDataStream@Ogre@@8
rdata$r	ENDS
;	COMDAT ??_7FileStreamDataStream@Ogre@@6B@
CONST	SEGMENT
??_7FileStreamDataStream@Ogre@@6B@ DD FLAT:??_R4FileStreamDataStream@Ogre@@6B@ ; Ogre::FileStreamDataStream::`vftable'
	DD	FLAT:??_EFileStreamDataStream@Ogre@@UAEPAXI@Z
	DD	FLAT:?read@FileStreamDataStream@Ogre@@UAEIPAXI@Z
	DD	FLAT:?write@FileStreamDataStream@Ogre@@UAEIPBXI@Z
	DD	FLAT:?readLine@FileStreamDataStream@Ogre@@UAEIPADIABV?$basic_string@DU?$char_traits@D@std@@V?$allocator@D@2@@std@@@Z
	DD	FLAT:?getLine@DataStream@Ogre@@UAE?AV?$basic_string@DU?$char_traits@D@std@@V?$allocator@D@2@@std@@_N@Z
	DD	FLAT:?getAsString@DataStream@Ogre@@UAE?AV?$basic_string@DU?$char_traits@D@std@@V?$allocator@D@2@@std@@XZ
	DD	FLAT:?skipLine@DataStream@Ogre@@UAEIABV?$basic_string@DU?$char_traits@D@std@@V?$allocator@D@2@@std@@@Z
	DD	FLAT:?skip@FileStreamDataStream@Ogre@@UAEXJ@Z
	DD	FLAT:?seek@FileStreamDataStream@Ogre@@UAEXI@Z
	DD	FLAT:?tell@FileStreamDataStream@Ogre@@UBEIXZ
	DD	FLAT:?eof@FileStreamDataStream@Ogre@@UBE_NXZ
	DD	FLAT:?size@DataStream@Ogre@@UBEIXZ
	DD	FLAT:?close@FileStreamDataStream@Ogre@@UAEXXZ
	DD	FLAT:?getMemoryImage@FileStreamDataStream@Ogre@@UAEPAXXZ
CONST	ENDS
;	COMDAT xdata$x
xdata$x	SEGMENT
__unwindtable$??0FileStreamDataStream@Ogre@@QAE@ABV01@@Z DD 0ffffffffH
	DD	FLAT:__unwindfunclet$??0FileStreamDataStream@Ogre@@QAE@ABV01@@Z$0
__ehfuncinfo$??0FileStreamDataStream@Ogre@@QAE@ABV01@@Z DD 019930522H
	DD	01H
	DD	FLAT:__unwindtable$??0FileStreamDataStream@Ogre@@QAE@ABV01@@Z
	DD	2 DUP(00H)
	DD	2 DUP(00H)
	DD	00H
	DD	00H
; Function compile flags: /Odtp
xdata$x	ENDS
;	COMDAT ??0FileStreamDataStream@Ogre@@QAE@ABV01@@Z
_TEXT	SEGMENT
_this$ = -16						; size = 4
__$EHRec$ = -12						; size = 12
___that$ = 8						; size = 4
??0FileStreamDataStream@Ogre@@QAE@ABV01@@Z PROC		; Ogre::FileStreamDataStream::FileStreamDataStream, COMDAT
; _this$ = ecx
	push	ebp
	mov	ebp, esp
	push	-1
	push	__ehhandler$??0FileStreamDataStream@Ogre@@QAE@ABV01@@Z
	mov	eax, DWORD PTR fs:0
	push	eax
	push	ecx
	mov	eax, DWORD PTR ___security_cookie
	xor	eax, ebp
	push	eax
	lea	eax, DWORD PTR __$EHRec$[ebp]
	mov	DWORD PTR fs:0, eax
	mov	DWORD PTR _this$[ebp], ecx
	mov	eax, DWORD PTR ___that$[ebp]
	push	eax
	mov	ecx, DWORD PTR _this$[ebp]
	call	??0DataStream@Ogre@@QAE@ABV01@@Z
	mov	DWORD PTR __$EHRec$[ebp+8], 0
	mov	ecx, DWORD PTR _this$[ebp]
	mov	DWORD PTR [ecx], OFFSET ??_7FileStreamDataStream@Ogre@@6B@
	mov	edx, DWORD PTR _this$[ebp]
	mov	eax, DWORD PTR ___that$[ebp]
	mov	ecx, DWORD PTR [eax+36]
	mov	DWORD PTR [edx+36], ecx
	mov	edx, DWORD PTR _this$[ebp]
	mov	eax, DWORD PTR ___that$[ebp]
	mov	cl, BYTE PTR [eax+40]
	mov	BYTE PTR [edx+40], cl
	mov	DWORD PTR __$EHRec$[ebp+8], -1
	mov	eax, DWORD PTR _this$[ebp]
	mov	ecx, DWORD PTR __$EHRec$[ebp]
	mov	DWORD PTR fs:0, ecx
	pop	ecx
	mov	esp, ebp
	pop	ebp
	ret	4
_TEXT	ENDS
;	COMDAT text$x
text$x	SEGMENT
__unwindfunclet$??0FileStreamDataStream@Ogre@@QAE@ABV01@@Z$0:
	mov	ecx, DWORD PTR _this$[ebp]
	jmp	??1DataStream@Ogre@@UAE@XZ		; Ogre::DataStream::~DataStream
__ehhandler$??0FileStreamDataStream@Ogre@@QAE@ABV01@@Z:
	mov	edx, DWORD PTR [esp+8]
	lea	eax, DWORD PTR [edx+12]
	mov	ecx, DWORD PTR [edx-8]
	xor	ecx, eax
	call	@__security_check_cookie@4
	mov	eax, OFFSET __ehfuncinfo$??0FileStreamDataStream@Ogre@@QAE@ABV01@@Z
	jmp	___CxxFrameHandler3
text$x	ENDS
??0FileStreamDataStream@Ogre@@QAE@ABV01@@Z ENDP		; Ogre::FileStreamDataStream::FileStreamDataStream
PUBLIC	??4FileStreamDataStream@Ogre@@QAEAAV01@ABV01@@Z	; Ogre::FileStreamDataStream::operator=
; Function compile flags: /Odtp
;	COMDAT ??4FileStreamDataStream@Ogre@@QAEAAV01@ABV01@@Z
_TEXT	SEGMENT
_this$ = -4						; size = 4
___that$ = 8						; size = 4
??4FileStreamDataStream@Ogre@@QAEAAV01@ABV01@@Z PROC	; Ogre::FileStreamDataStream::operator=, COMDAT
; _this$ = ecx
	push	ebp
	mov	ebp, esp
	push	ecx
	mov	DWORD PTR _this$[ebp], ecx
	mov	eax, DWORD PTR ___that$[ebp]
	push	eax
	mov	ecx, DWORD PTR _this$[ebp]
	call	??4DataStream@Ogre@@QAEAAV01@ABV01@@Z
	mov	ecx, DWORD PTR _this$[ebp]
	mov	edx, DWORD PTR ___that$[ebp]
	mov	eax, DWORD PTR [edx+36]
	mov	DWORD PTR [ecx+36], eax
	mov	ecx, DWORD PTR _this$[ebp]
	mov	edx, DWORD PTR ___that$[ebp]
	mov	al, BYTE PTR [edx+40]
	mov	BYTE PTR [ecx+40], al
	mov	eax, DWORD PTR _this$[ebp]
	mov	esp, ebp
	pop	ebp
	ret	4
??4FileStreamDataStream@Ogre@@QAEAAV01@ABV01@@Z ENDP	; Ogre::FileStreamDataStream::operator=
_TEXT	ENDS
PUBLIC	??_GFileStreamDataStream@Ogre@@UAEPAXI@Z	; Ogre::FileStreamDataStream::`scalar deleting destructor'
EXTRN	??1FileStreamDataStream@Ogre@@UAE@XZ:PROC	; Ogre::FileStreamDataStream::~FileStreamDataStream
; Function compile flags: /Odtp
;	COMDAT ??_GFileStreamDataStream@Ogre@@UAEPAXI@Z
_TEXT	SEGMENT
_this$ = -4						; size = 4
___flags$ = 8						; size = 4
??_GFileStreamDataStream@Ogre@@UAEPAXI@Z PROC		; Ogre::FileStreamDataStream::`scalar deleting destructor', COMDAT
; _this$ = ecx
	push	ebp
	mov	ebp, esp
	push	ecx
	mov	DWORD PTR _this$[ebp], ecx
	mov	ecx, DWORD PTR _this$[ebp]
	call	??1FileStreamDataStream@Ogre@@UAE@XZ	; Ogre::FileStreamDataStream::~FileStreamDataStream
	mov	eax, DWORD PTR ___flags$[ebp]
	and	eax, 1
	je	SHORT $LN1@scalar@3
	mov	ecx, DWORD PTR _this$[ebp]
	push	ecx
	call	??3@YAXPAX@Z				; operator delete
	add	esp, 4
$LN1@scalar@3:
	mov	eax, DWORD PTR _this$[ebp]
	mov	esp, ebp
	pop	ebp
	ret	4
??_GFileStreamDataStream@Ogre@@UAEPAXI@Z ENDP		; Ogre::FileStreamDataStream::`scalar deleting destructor'
; Function compile flags: /Odtp
_TEXT	ENDS
;	COMDAT ??_EFileStreamDataStream@Ogre@@UAEPAXI@Z
_TEXT	SEGMENT
_this$ = -4						; size = 4
___flags$ = 8						; size = 4
??_EFileStreamDataStream@Ogre@@UAEPAXI@Z PROC		; Ogre::FileStreamDataStream::`vector deleting destructor', COMDAT
; _this$ = ecx
	push	ebp
	mov	ebp, esp
	push	ecx
	mov	DWORD PTR _this$[ebp], ecx
	mov	eax, DWORD PTR ___flags$[ebp]
	and	eax, 2
	je	SHORT $LN3@vector@3
	push	OFFSET ??1FileStreamDataStream@Ogre@@UAE@XZ ; Ogre::FileStreamDataStream::~FileStreamDataStream
	mov	ecx, DWORD PTR _this$[ebp]
	mov	edx, DWORD PTR [ecx-4]
	push	edx
	push	44					; 0000002cH
	mov	eax, DWORD PTR _this$[ebp]
	push	eax
	call	??_M@YGXPAXIHP6EX0@Z@Z
	mov	ecx, DWORD PTR ___flags$[ebp]
	and	ecx, 1
	je	SHORT $LN2@vector@3
	mov	edx, DWORD PTR _this$[ebp]
	sub	edx, 4
	push	edx
	call	??_V@YAXPAX@Z				; operator delete[]
	add	esp, 4
$LN2@vector@3:
	mov	eax, DWORD PTR _this$[ebp]
	sub	eax, 4
	jmp	SHORT $LN4@vector@3
$LN3@vector@3:
	mov	ecx, DWORD PTR _this$[ebp]
	call	??1FileStreamDataStream@Ogre@@UAE@XZ	; Ogre::FileStreamDataStream::~FileStreamDataStream
	mov	eax, DWORD PTR ___flags$[ebp]
	and	eax, 1
	je	SHORT $LN1@vector@3
	mov	ecx, DWORD PTR _this$[ebp]
	push	ecx
	call	??3@YAXPAX@Z				; operator delete
	add	esp, 4
$LN1@vector@3:
	mov	eax, DWORD PTR _this$[ebp]
$LN4@vector@3:
	mov	esp, ebp
	pop	ebp
	ret	4
??_EFileStreamDataStream@Ogre@@UAEPAXI@Z ENDP		; Ogre::FileStreamDataStream::`vector deleting destructor'
_TEXT	ENDS
PUBLIC	??_7FileHandleDataStream@Ogre@@6B@		; Ogre::FileHandleDataStream::`vftable'
PUBLIC	??0FileHandleDataStream@Ogre@@QAE@ABV01@@Z	; Ogre::FileHandleDataStream::FileHandleDataStream
PUBLIC	??_R4FileHandleDataStream@Ogre@@6B@		; Ogre::FileHandleDataStream::`RTTI Complete Object Locator'
PUBLIC	??_R0?AVFileHandleDataStream@Ogre@@@8		; Ogre::FileHandleDataStream `RTTI Type Descriptor'
PUBLIC	??_R3FileHandleDataStream@Ogre@@8		; Ogre::FileHandleDataStream::`RTTI Class Hierarchy Descriptor'
PUBLIC	??_R2FileHandleDataStream@Ogre@@8		; Ogre::FileHandleDataStream::`RTTI Base Class Array'
PUBLIC	??_R1A@?0A@EA@FileHandleDataStream@Ogre@@8	; Ogre::FileHandleDataStream::`RTTI Base Class Descriptor at (0,-1,0,64)'
PUBLIC	??_EFileHandleDataStream@Ogre@@UAEPAXI@Z	; Ogre::FileHandleDataStream::`vector deleting destructor'
EXTRN	?read@FileHandleDataStream@Ogre@@UAEIPAXI@Z:PROC ; Ogre::FileHandleDataStream::read
EXTRN	?write@FileHandleDataStream@Ogre@@UAEIPBXI@Z:PROC ; Ogre::FileHandleDataStream::write
EXTRN	?skip@FileHandleDataStream@Ogre@@UAEXJ@Z:PROC	; Ogre::FileHandleDataStream::skip
EXTRN	?seek@FileHandleDataStream@Ogre@@UAEXI@Z:PROC	; Ogre::FileHandleDataStream::seek
EXTRN	?tell@FileHandleDataStream@Ogre@@UBEIXZ:PROC	; Ogre::FileHandleDataStream::tell
EXTRN	?eof@FileHandleDataStream@Ogre@@UBE_NXZ:PROC	; Ogre::FileHandleDataStream::eof
EXTRN	?close@FileHandleDataStream@Ogre@@UAEXXZ:PROC	; Ogre::FileHandleDataStream::close
EXTRN	?getMemoryImage@FileHandleDataStream@Ogre@@UAEPAXXZ:PROC ; Ogre::FileHandleDataStream::getMemoryImage
;	COMDAT ??_R1A@?0A@EA@FileHandleDataStream@Ogre@@8
rdata$r	SEGMENT
??_R1A@?0A@EA@FileHandleDataStream@Ogre@@8 DD FLAT:??_R0?AVFileHandleDataStream@Ogre@@@8 ; Ogre::FileHandleDataStream::`RTTI Base Class Descriptor at (0,-1,0,64)'
	DD	01H
	DD	00H
	DD	0ffffffffH
	DD	00H
	DD	040H
	DD	FLAT:??_R3FileHandleDataStream@Ogre@@8
rdata$r	ENDS
;	COMDAT ??_R2FileHandleDataStream@Ogre@@8
rdata$r	SEGMENT
??_R2FileHandleDataStream@Ogre@@8 DD FLAT:??_R1A@?0A@EA@FileHandleDataStream@Ogre@@8 ; Ogre::FileHandleDataStream::`RTTI Base Class Array'
	DD	FLAT:??_R1A@?0A@EA@DataStream@Ogre@@8
rdata$r	ENDS
;	COMDAT ??_R3FileHandleDataStream@Ogre@@8
rdata$r	SEGMENT
??_R3FileHandleDataStream@Ogre@@8 DD 00H		; Ogre::FileHandleDataStream::`RTTI Class Hierarchy Descriptor'
	DD	00H
	DD	02H
	DD	FLAT:??_R2FileHandleDataStream@Ogre@@8
rdata$r	ENDS
;	COMDAT ??_R0?AVFileHandleDataStream@Ogre@@@8
_DATA	SEGMENT
??_R0?AVFileHandleDataStream@Ogre@@@8 DD FLAT:??_7type_info@@6B@ ; Ogre::FileHandleDataStream `RTTI Type Descriptor'
	DD	00H
	DB	'.?AVFileHandleDataStream@Ogre@@', 00H
_DATA	ENDS
;	COMDAT ??_R4FileHandleDataStream@Ogre@@6B@
rdata$r	SEGMENT
??_R4FileHandleDataStream@Ogre@@6B@ DD 00H		; Ogre::FileHandleDataStream::`RTTI Complete Object Locator'
	DD	00H
	DD	00H
	DD	FLAT:??_R0?AVFileHandleDataStream@Ogre@@@8
	DD	FLAT:??_R3FileHandleDataStream@Ogre@@8
rdata$r	ENDS
;	COMDAT ??_7FileHandleDataStream@Ogre@@6B@
CONST	SEGMENT
??_7FileHandleDataStream@Ogre@@6B@ DD FLAT:??_R4FileHandleDataStream@Ogre@@6B@ ; Ogre::FileHandleDataStream::`vftable'
	DD	FLAT:??_EFileHandleDataStream@Ogre@@UAEPAXI@Z
	DD	FLAT:?read@FileHandleDataStream@Ogre@@UAEIPAXI@Z
	DD	FLAT:?write@FileHandleDataStream@Ogre@@UAEIPBXI@Z
	DD	FLAT:?readLine@DataStream@Ogre@@UAEIPADIABV?$basic_string@DU?$char_traits@D@std@@V?$allocator@D@2@@std@@@Z
	DD	FLAT:?getLine@DataStream@Ogre@@UAE?AV?$basic_string@DU?$char_traits@D@std@@V?$allocator@D@2@@std@@_N@Z
	DD	FLAT:?getAsString@DataStream@Ogre@@UAE?AV?$basic_string@DU?$char_traits@D@std@@V?$allocator@D@2@@std@@XZ
	DD	FLAT:?skipLine@DataStream@Ogre@@UAEIABV?$basic_string@DU?$char_traits@D@std@@V?$allocator@D@2@@std@@@Z
	DD	FLAT:?skip@FileHandleDataStream@Ogre@@UAEXJ@Z
	DD	FLAT:?seek@FileHandleDataStream@Ogre@@UAEXI@Z
	DD	FLAT:?tell@FileHandleDataStream@Ogre@@UBEIXZ
	DD	FLAT:?eof@FileHandleDataStream@Ogre@@UBE_NXZ
	DD	FLAT:?size@DataStream@Ogre@@UBEIXZ
	DD	FLAT:?close@FileHandleDataStream@Ogre@@UAEXXZ
	DD	FLAT:?getMemoryImage@FileHandleDataStream@Ogre@@UAEPAXXZ
CONST	ENDS
;	COMDAT xdata$x
xdata$x	SEGMENT
__unwindtable$??0FileHandleDataStream@Ogre@@QAE@ABV01@@Z DD 0ffffffffH
	DD	FLAT:__unwindfunclet$??0FileHandleDataStream@Ogre@@QAE@ABV01@@Z$0
__ehfuncinfo$??0FileHandleDataStream@Ogre@@QAE@ABV01@@Z DD 019930522H
	DD	01H
	DD	FLAT:__unwindtable$??0FileHandleDataStream@Ogre@@QAE@ABV01@@Z
	DD	2 DUP(00H)
	DD	2 DUP(00H)
	DD	00H
	DD	00H
; Function compile flags: /Odtp
xdata$x	ENDS
;	COMDAT ??0FileHandleDataStream@Ogre@@QAE@ABV01@@Z
_TEXT	SEGMENT
_this$ = -16						; size = 4
__$EHRec$ = -12						; size = 12
___that$ = 8						; size = 4
??0FileHandleDataStream@Ogre@@QAE@ABV01@@Z PROC		; Ogre::FileHandleDataStream::FileHandleDataStream, COMDAT
; _this$ = ecx
	push	ebp
	mov	ebp, esp
	push	-1
	push	__ehhandler$??0FileHandleDataStream@Ogre@@QAE@ABV01@@Z
	mov	eax, DWORD PTR fs:0
	push	eax
	push	ecx
	mov	eax, DWORD PTR ___security_cookie
	xor	eax, ebp
	push	eax
	lea	eax, DWORD PTR __$EHRec$[ebp]
	mov	DWORD PTR fs:0, eax
	mov	DWORD PTR _this$[ebp], ecx
	mov	eax, DWORD PTR ___that$[ebp]
	push	eax
	mov	ecx, DWORD PTR _this$[ebp]
	call	??0DataStream@Ogre@@QAE@ABV01@@Z
	mov	DWORD PTR __$EHRec$[ebp+8], 0
	mov	ecx, DWORD PTR _this$[ebp]
	mov	DWORD PTR [ecx], OFFSET ??_7FileHandleDataStream@Ogre@@6B@
	mov	edx, DWORD PTR _this$[ebp]
	mov	eax, DWORD PTR ___that$[ebp]
	mov	ecx, DWORD PTR [eax+36]
	mov	DWORD PTR [edx+36], ecx
	mov	edx, DWORD PTR _this$[ebp]
	mov	eax, DWORD PTR ___that$[ebp]
	mov	ecx, DWORD PTR [eax+40]
	mov	DWORD PTR [edx+40], ecx
	mov	DWORD PTR __$EHRec$[ebp+8], -1
	mov	eax, DWORD PTR _this$[ebp]
	mov	ecx, DWORD PTR __$EHRec$[ebp]
	mov	DWORD PTR fs:0, ecx
	pop	ecx
	mov	esp, ebp
	pop	ebp
	ret	4
_TEXT	ENDS
;	COMDAT text$x
text$x	SEGMENT
__unwindfunclet$??0FileHandleDataStream@Ogre@@QAE@ABV01@@Z$0:
	mov	ecx, DWORD PTR _this$[ebp]
	jmp	??1DataStream@Ogre@@UAE@XZ		; Ogre::DataStream::~DataStream
__ehhandler$??0FileHandleDataStream@Ogre@@QAE@ABV01@@Z:
	mov	edx, DWORD PTR [esp+8]
	lea	eax, DWORD PTR [edx+12]
	mov	ecx, DWORD PTR [edx-8]
	xor	ecx, eax
	call	@__security_check_cookie@4
	mov	eax, OFFSET __ehfuncinfo$??0FileHandleDataStream@Ogre@@QAE@ABV01@@Z
	jmp	___CxxFrameHandler3
text$x	ENDS
??0FileHandleDataStream@Ogre@@QAE@ABV01@@Z ENDP		; Ogre::FileHandleDataStream::FileHandleDataStream
PUBLIC	??4FileHandleDataStream@Ogre@@QAEAAV01@ABV01@@Z	; Ogre::FileHandleDataStream::operator=
; Function compile flags: /Odtp
;	COMDAT ??4FileHandleDataStream@Ogre@@QAEAAV01@ABV01@@Z
_TEXT	SEGMENT
_this$ = -4						; size = 4
___that$ = 8						; size = 4
??4FileHandleDataStream@Ogre@@QAEAAV01@ABV01@@Z PROC	; Ogre::FileHandleDataStream::operator=, COMDAT
; _this$ = ecx
	push	ebp
	mov	ebp, esp
	push	ecx
	mov	DWORD PTR _this$[ebp], ecx
	mov	eax, DWORD PTR ___that$[ebp]
	push	eax
	mov	ecx, DWORD PTR _this$[ebp]
	call	??4DataStream@Ogre@@QAEAAV01@ABV01@@Z
	mov	ecx, DWORD PTR _this$[ebp]
	mov	edx, DWORD PTR ___that$[ebp]
	mov	eax, DWORD PTR [edx+36]
	mov	DWORD PTR [ecx+36], eax
	mov	ecx, DWORD PTR _this$[ebp]
	mov	edx, DWORD PTR ___that$[ebp]
	mov	eax, DWORD PTR [edx+40]
	mov	DWORD PTR [ecx+40], eax
	mov	eax, DWORD PTR _this$[ebp]
	mov	esp, ebp
	pop	ebp
	ret	4
??4FileHandleDataStream@Ogre@@QAEAAV01@ABV01@@Z ENDP	; Ogre::FileHandleDataStream::operator=
_TEXT	ENDS
PUBLIC	??_GFileHandleDataStream@Ogre@@UAEPAXI@Z	; Ogre::FileHandleDataStream::`scalar deleting destructor'
EXTRN	??1FileHandleDataStream@Ogre@@UAE@XZ:PROC	; Ogre::FileHandleDataStream::~FileHandleDataStream
; Function compile flags: /Odtp
;	COMDAT ??_GFileHandleDataStream@Ogre@@UAEPAXI@Z
_TEXT	SEGMENT
_this$ = -4						; size = 4
___flags$ = 8						; size = 4
??_GFileHandleDataStream@Ogre@@UAEPAXI@Z PROC		; Ogre::FileHandleDataStream::`scalar deleting destructor', COMDAT
; _this$ = ecx
	push	ebp
	mov	ebp, esp
	push	ecx
	mov	DWORD PTR _this$[ebp], ecx
	mov	ecx, DWORD PTR _this$[ebp]
	call	??1FileHandleDataStream@Ogre@@UAE@XZ	; Ogre::FileHandleDataStream::~FileHandleDataStream
	mov	eax, DWORD PTR ___flags$[ebp]
	and	eax, 1
	je	SHORT $LN1@scalar@4
	mov	ecx, DWORD PTR _this$[ebp]
	push	ecx
	call	??3@YAXPAX@Z				; operator delete
	add	esp, 4
$LN1@scalar@4:
	mov	eax, DWORD PTR _this$[ebp]
	mov	esp, ebp
	pop	ebp
	ret	4
??_GFileHandleDataStream@Ogre@@UAEPAXI@Z ENDP		; Ogre::FileHandleDataStream::`scalar deleting destructor'
; Function compile flags: /Odtp
_TEXT	ENDS
;	COMDAT ??_EFileHandleDataStream@Ogre@@UAEPAXI@Z
_TEXT	SEGMENT
_this$ = -4						; size = 4
___flags$ = 8						; size = 4
??_EFileHandleDataStream@Ogre@@UAEPAXI@Z PROC		; Ogre::FileHandleDataStream::`vector deleting destructor', COMDAT
; _this$ = ecx
	push	ebp
	mov	ebp, esp
	push	ecx
	mov	DWORD PTR _this$[ebp], ecx
	mov	eax, DWORD PTR ___flags$[ebp]
	and	eax, 2
	je	SHORT $LN3@vector@4
	push	OFFSET ??1FileHandleDataStream@Ogre@@UAE@XZ ; Ogre::FileHandleDataStream::~FileHandleDataStream
	mov	ecx, DWORD PTR _this$[ebp]
	mov	edx, DWORD PTR [ecx-4]
	push	edx
	push	44					; 0000002cH
	mov	eax, DWORD PTR _this$[ebp]
	push	eax
	call	??_M@YGXPAXIHP6EX0@Z@Z
	mov	ecx, DWORD PTR ___flags$[ebp]
	and	ecx, 1
	je	SHORT $LN2@vector@4
	mov	edx, DWORD PTR _this$[ebp]
	sub	edx, 4
	push	edx
	call	??_V@YAXPAX@Z				; operator delete[]
	add	esp, 4
$LN2@vector@4:
	mov	eax, DWORD PTR _this$[ebp]
	sub	eax, 4
	jmp	SHORT $LN4@vector@4
$LN3@vector@4:
	mov	ecx, DWORD PTR _this$[ebp]
	call	??1FileHandleDataStream@Ogre@@UAE@XZ	; Ogre::FileHandleDataStream::~FileHandleDataStream
	mov	eax, DWORD PTR ___flags$[ebp]
	and	eax, 1
	je	SHORT $LN1@vector@4
	mov	ecx, DWORD PTR _this$[ebp]
	push	ecx
	call	??3@YAXPAX@Z				; operator delete
	add	esp, 4
$LN1@vector@4:
	mov	eax, DWORD PTR _this$[ebp]
$LN4@vector@4:
	mov	esp, ebp
	pop	ebp
	ret	4
??_EFileHandleDataStream@Ogre@@UAEPAXI@Z ENDP		; Ogre::FileHandleDataStream::`vector deleting destructor'
_TEXT	ENDS
PUBLIC	??_7DataStreamObject@Ogre@@6B@			; Ogre::DataStreamObject::`vftable'
PUBLIC	??1DataStreamObject@Ogre@@MAE@XZ		; Ogre::DataStreamObject::~DataStreamObject
PUBLIC	??_R4DataStreamObject@Ogre@@6B@			; Ogre::DataStreamObject::`RTTI Complete Object Locator'
PUBLIC	??_R0?AVDataStreamObject@Ogre@@@8		; Ogre::DataStreamObject `RTTI Type Descriptor'
PUBLIC	??_R3DataStreamObject@Ogre@@8			; Ogre::DataStreamObject::`RTTI Class Hierarchy Descriptor'
PUBLIC	??_R2DataStreamObject@Ogre@@8			; Ogre::DataStreamObject::`RTTI Base Class Array'
PUBLIC	??_R1A@?0A@EA@DataStreamObject@Ogre@@8		; Ogre::DataStreamObject::`RTTI Base Class Descriptor at (0,-1,0,64)'
PUBLIC	??_EDataStreamObject@Ogre@@MAEPAXI@Z		; Ogre::DataStreamObject::`vector deleting destructor'
;	COMDAT ??_R1A@?0A@EA@DataStreamObject@Ogre@@8
rdata$r	SEGMENT
??_R1A@?0A@EA@DataStreamObject@Ogre@@8 DD FLAT:??_R0?AVDataStreamObject@Ogre@@@8 ; Ogre::DataStreamObject::`RTTI Base Class Descriptor at (0,-1,0,64)'
	DD	00H
	DD	00H
	DD	0ffffffffH
	DD	00H
	DD	040H
	DD	FLAT:??_R3DataStreamObject@Ogre@@8
rdata$r	ENDS
;	COMDAT ??_R2DataStreamObject@Ogre@@8
rdata$r	SEGMENT
??_R2DataStreamObject@Ogre@@8 DD FLAT:??_R1A@?0A@EA@DataStreamObject@Ogre@@8 ; Ogre::DataStreamObject::`RTTI Base Class Array'
rdata$r	ENDS
;	COMDAT ??_R3DataStreamObject@Ogre@@8
rdata$r	SEGMENT
??_R3DataStreamObject@Ogre@@8 DD 00H			; Ogre::DataStreamObject::`RTTI Class Hierarchy Descriptor'
	DD	00H
	DD	01H
	DD	FLAT:??_R2DataStreamObject@Ogre@@8
rdata$r	ENDS
;	COMDAT ??_R0?AVDataStreamObject@Ogre@@@8
_DATA	SEGMENT
??_R0?AVDataStreamObject@Ogre@@@8 DD FLAT:??_7type_info@@6B@ ; Ogre::DataStreamObject `RTTI Type Descriptor'
	DD	00H
	DB	'.?AVDataStreamObject@Ogre@@', 00H
_DATA	ENDS
;	COMDAT ??_R4DataStreamObject@Ogre@@6B@
rdata$r	SEGMENT
??_R4DataStreamObject@Ogre@@6B@ DD 00H			; Ogre::DataStreamObject::`RTTI Complete Object Locator'
	DD	00H
	DD	00H
	DD	FLAT:??_R0?AVDataStreamObject@Ogre@@@8
	DD	FLAT:??_R3DataStreamObject@Ogre@@8
rdata$r	ENDS
;	COMDAT ??_7DataStreamObject@Ogre@@6B@
CONST	SEGMENT
??_7DataStreamObject@Ogre@@6B@ DD FLAT:??_R4DataStreamObject@Ogre@@6B@ ; Ogre::DataStreamObject::`vftable'
	DD	FLAT:??_EDataStreamObject@Ogre@@MAEPAXI@Z
	DD	FLAT:__purecall
	DD	FLAT:__purecall
	DD	FLAT:__purecall
	DD	FLAT:__purecall
	DD	FLAT:__purecall
	DD	FLAT:__purecall
; Function compile flags: /Odtp
CONST	ENDS
;	COMDAT ??1DataStreamObject@Ogre@@MAE@XZ
_TEXT	SEGMENT
_this$ = -4						; size = 4
??1DataStreamObject@Ogre@@MAE@XZ PROC			; Ogre::DataStreamObject::~DataStreamObject, COMDAT
; _this$ = ecx

; 445  : 		virtual ~DataStreamObject(){}

	push	ebp
	mov	ebp, esp
	push	ecx
	mov	DWORD PTR _this$[ebp], ecx
	mov	eax, DWORD PTR _this$[ebp]
	mov	DWORD PTR [eax], OFFSET ??_7DataStreamObject@Ogre@@6B@
	mov	esp, ebp
	pop	ebp
	ret	0
??1DataStreamObject@Ogre@@MAE@XZ ENDP			; Ogre::DataStreamObject::~DataStreamObject
_TEXT	ENDS
PUBLIC	??0DataStreamObject@Ogre@@QAE@XZ		; Ogre::DataStreamObject::DataStreamObject
; Function compile flags: /Odtp
;	COMDAT ??0DataStreamObject@Ogre@@QAE@XZ
_TEXT	SEGMENT
_this$ = -4						; size = 4
??0DataStreamObject@Ogre@@QAE@XZ PROC			; Ogre::DataStreamObject::DataStreamObject, COMDAT
; _this$ = ecx
	push	ebp
	mov	ebp, esp
	push	ecx
	mov	DWORD PTR _this$[ebp], ecx
	mov	eax, DWORD PTR _this$[ebp]
	mov	DWORD PTR [eax], OFFSET ??_7DataStreamObject@Ogre@@6B@
	mov	eax, DWORD PTR _this$[ebp]
	mov	esp, ebp
	pop	ebp
	ret	0
??0DataStreamObject@Ogre@@QAE@XZ ENDP			; Ogre::DataStreamObject::DataStreamObject
_TEXT	ENDS
PUBLIC	??0DataStreamObject@Ogre@@QAE@ABV01@@Z		; Ogre::DataStreamObject::DataStreamObject
; Function compile flags: /Odtp
;	COMDAT ??0DataStreamObject@Ogre@@QAE@ABV01@@Z
_TEXT	SEGMENT
_this$ = -4						; size = 4
___that$ = 8						; size = 4
??0DataStreamObject@Ogre@@QAE@ABV01@@Z PROC		; Ogre::DataStreamObject::DataStreamObject, COMDAT
; _this$ = ecx
	push	ebp
	mov	ebp, esp
	push	ecx
	mov	DWORD PTR _this$[ebp], ecx
	mov	eax, DWORD PTR _this$[ebp]
	mov	DWORD PTR [eax], OFFSET ??_7DataStreamObject@Ogre@@6B@
	mov	eax, DWORD PTR _this$[ebp]
	mov	esp, ebp
	pop	ebp
	ret	4
??0DataStreamObject@Ogre@@QAE@ABV01@@Z ENDP		; Ogre::DataStreamObject::DataStreamObject
_TEXT	ENDS
PUBLIC	??4DataStreamObject@Ogre@@QAEAAV01@ABV01@@Z	; Ogre::DataStreamObject::operator=
; Function compile flags: /Odtp
;	COMDAT ??4DataStreamObject@Ogre@@QAEAAV01@ABV01@@Z
_TEXT	SEGMENT
_this$ = -4						; size = 4
___that$ = 8						; size = 4
??4DataStreamObject@Ogre@@QAEAAV01@ABV01@@Z PROC	; Ogre::DataStreamObject::operator=, COMDAT
; _this$ = ecx
	push	ebp
	mov	ebp, esp
	push	ecx
	mov	DWORD PTR _this$[ebp], ecx
	mov	eax, DWORD PTR _this$[ebp]
	mov	esp, ebp
	pop	ebp
	ret	4
??4DataStreamObject@Ogre@@QAEAAV01@ABV01@@Z ENDP	; Ogre::DataStreamObject::operator=
_TEXT	ENDS
PUBLIC	??_GDataStreamObject@Ogre@@MAEPAXI@Z		; Ogre::DataStreamObject::`scalar deleting destructor'
; Function compile flags: /Odtp
;	COMDAT ??_GDataStreamObject@Ogre@@MAEPAXI@Z
_TEXT	SEGMENT
_this$ = -4						; size = 4
___flags$ = 8						; size = 4
??_GDataStreamObject@Ogre@@MAEPAXI@Z PROC		; Ogre::DataStreamObject::`scalar deleting destructor', COMDAT
; _this$ = ecx
	push	ebp
	mov	ebp, esp
	push	ecx
	mov	DWORD PTR _this$[ebp], ecx
	mov	ecx, DWORD PTR _this$[ebp]
	call	??1DataStreamObject@Ogre@@MAE@XZ	; Ogre::DataStreamObject::~DataStreamObject
	mov	eax, DWORD PTR ___flags$[ebp]
	and	eax, 1
	je	SHORT $LN1@scalar@5
	mov	ecx, DWORD PTR _this$[ebp]
	push	ecx
	call	??3@YAXPAX@Z				; operator delete
	add	esp, 4
$LN1@scalar@5:
	mov	eax, DWORD PTR _this$[ebp]
	mov	esp, ebp
	pop	ebp
	ret	4
??_GDataStreamObject@Ogre@@MAEPAXI@Z ENDP		; Ogre::DataStreamObject::`scalar deleting destructor'
; Function compile flags: /Odtp
_TEXT	ENDS
;	COMDAT ??_EDataStreamObject@Ogre@@MAEPAXI@Z
_TEXT	SEGMENT
_this$ = -4						; size = 4
___flags$ = 8						; size = 4
??_EDataStreamObject@Ogre@@MAEPAXI@Z PROC		; Ogre::DataStreamObject::`vector deleting destructor', COMDAT
; _this$ = ecx
	push	ebp
	mov	ebp, esp
	push	ecx
	mov	DWORD PTR _this$[ebp], ecx
	mov	eax, DWORD PTR ___flags$[ebp]
	and	eax, 2
	je	SHORT $LN3@vector@5
	push	OFFSET ??1DataStreamObject@Ogre@@MAE@XZ	; Ogre::DataStreamObject::~DataStreamObject
	mov	ecx, DWORD PTR _this$[ebp]
	mov	edx, DWORD PTR [ecx-4]
	push	edx
	push	4
	mov	eax, DWORD PTR _this$[ebp]
	push	eax
	call	??_M@YGXPAXIHP6EX0@Z@Z
	mov	ecx, DWORD PTR ___flags$[ebp]
	and	ecx, 1
	je	SHORT $LN2@vector@5
	mov	edx, DWORD PTR _this$[ebp]
	sub	edx, 4
	push	edx
	call	??_V@YAXPAX@Z				; operator delete[]
	add	esp, 4
$LN2@vector@5:
	mov	eax, DWORD PTR _this$[ebp]
	sub	eax, 4
	jmp	SHORT $LN4@vector@5
$LN3@vector@5:
	mov	ecx, DWORD PTR _this$[ebp]
	call	??1DataStreamObject@Ogre@@MAE@XZ	; Ogre::DataStreamObject::~DataStreamObject
	mov	eax, DWORD PTR ___flags$[ebp]
	and	eax, 1
	je	SHORT $LN1@vector@5
	mov	ecx, DWORD PTR _this$[ebp]
	push	ecx
	call	??3@YAXPAX@Z				; operator delete
	add	esp, 4
$LN1@vector@5:
	mov	eax, DWORD PTR _this$[ebp]
$LN4@vector@5:
	mov	esp, ebp
	pop	ebp
	ret	4
??_EDataStreamObject@Ogre@@MAEPAXI@Z ENDP		; Ogre::DataStreamObject::`vector deleting destructor'
_TEXT	ENDS
PUBLIC	??_7ObjectDataStream@Ogre@@6B@			; Ogre::ObjectDataStream::`vftable'
PUBLIC	??0ObjectDataStream@Ogre@@QAE@ABV01@@Z		; Ogre::ObjectDataStream::ObjectDataStream
PUBLIC	??_R4ObjectDataStream@Ogre@@6B@			; Ogre::ObjectDataStream::`RTTI Complete Object Locator'
PUBLIC	??_R0?AVObjectDataStream@Ogre@@@8		; Ogre::ObjectDataStream `RTTI Type Descriptor'
PUBLIC	??_R3ObjectDataStream@Ogre@@8			; Ogre::ObjectDataStream::`RTTI Class Hierarchy Descriptor'
PUBLIC	??_R2ObjectDataStream@Ogre@@8			; Ogre::ObjectDataStream::`RTTI Base Class Array'
PUBLIC	??_R1A@?0A@EA@ObjectDataStream@Ogre@@8		; Ogre::ObjectDataStream::`RTTI Base Class Descriptor at (0,-1,0,64)'
PUBLIC	??_EObjectDataStream@Ogre@@UAEPAXI@Z		; Ogre::ObjectDataStream::`vector deleting destructor'
EXTRN	?read@ObjectDataStream@Ogre@@UAEIPAXI@Z:PROC	; Ogre::ObjectDataStream::read
EXTRN	?write@ObjectDataStream@Ogre@@UAEIPBXI@Z:PROC	; Ogre::ObjectDataStream::write
EXTRN	?skip@ObjectDataStream@Ogre@@UAEXJ@Z:PROC	; Ogre::ObjectDataStream::skip
EXTRN	?seek@ObjectDataStream@Ogre@@UAEXI@Z:PROC	; Ogre::ObjectDataStream::seek
EXTRN	?tell@ObjectDataStream@Ogre@@UBEIXZ:PROC	; Ogre::ObjectDataStream::tell
EXTRN	?eof@ObjectDataStream@Ogre@@UBE_NXZ:PROC	; Ogre::ObjectDataStream::eof
EXTRN	?size@ObjectDataStream@Ogre@@UBEIXZ:PROC	; Ogre::ObjectDataStream::size
EXTRN	?close@ObjectDataStream@Ogre@@UAEXXZ:PROC	; Ogre::ObjectDataStream::close
EXTRN	?getMemoryImage@ObjectDataStream@Ogre@@UAEPAXXZ:PROC ; Ogre::ObjectDataStream::getMemoryImage
;	COMDAT ??_R1A@?0A@EA@ObjectDataStream@Ogre@@8
rdata$r	SEGMENT
??_R1A@?0A@EA@ObjectDataStream@Ogre@@8 DD FLAT:??_R0?AVObjectDataStream@Ogre@@@8 ; Ogre::ObjectDataStream::`RTTI Base Class Descriptor at (0,-1,0,64)'
	DD	01H
	DD	00H
	DD	0ffffffffH
	DD	00H
	DD	040H
	DD	FLAT:??_R3ObjectDataStream@Ogre@@8
rdata$r	ENDS
;	COMDAT ??_R2ObjectDataStream@Ogre@@8
rdata$r	SEGMENT
??_R2ObjectDataStream@Ogre@@8 DD FLAT:??_R1A@?0A@EA@ObjectDataStream@Ogre@@8 ; Ogre::ObjectDataStream::`RTTI Base Class Array'
	DD	FLAT:??_R1A@?0A@EA@DataStream@Ogre@@8
rdata$r	ENDS
;	COMDAT ??_R3ObjectDataStream@Ogre@@8
rdata$r	SEGMENT
??_R3ObjectDataStream@Ogre@@8 DD 00H			; Ogre::ObjectDataStream::`RTTI Class Hierarchy Descriptor'
	DD	00H
	DD	02H
	DD	FLAT:??_R2ObjectDataStream@Ogre@@8
rdata$r	ENDS
;	COMDAT ??_R0?AVObjectDataStream@Ogre@@@8
_DATA	SEGMENT
??_R0?AVObjectDataStream@Ogre@@@8 DD FLAT:??_7type_info@@6B@ ; Ogre::ObjectDataStream `RTTI Type Descriptor'
	DD	00H
	DB	'.?AVObjectDataStream@Ogre@@', 00H
_DATA	ENDS
;	COMDAT ??_R4ObjectDataStream@Ogre@@6B@
rdata$r	SEGMENT
??_R4ObjectDataStream@Ogre@@6B@ DD 00H			; Ogre::ObjectDataStream::`RTTI Complete Object Locator'
	DD	00H
	DD	00H
	DD	FLAT:??_R0?AVObjectDataStream@Ogre@@@8
	DD	FLAT:??_R3ObjectDataStream@Ogre@@8
rdata$r	ENDS
;	COMDAT ??_7ObjectDataStream@Ogre@@6B@
CONST	SEGMENT
??_7ObjectDataStream@Ogre@@6B@ DD FLAT:??_R4ObjectDataStream@Ogre@@6B@ ; Ogre::ObjectDataStream::`vftable'
	DD	FLAT:??_EObjectDataStream@Ogre@@UAEPAXI@Z
	DD	FLAT:?read@ObjectDataStream@Ogre@@UAEIPAXI@Z
	DD	FLAT:?write@ObjectDataStream@Ogre@@UAEIPBXI@Z
	DD	FLAT:?readLine@DataStream@Ogre@@UAEIPADIABV?$basic_string@DU?$char_traits@D@std@@V?$allocator@D@2@@std@@@Z
	DD	FLAT:?getLine@DataStream@Ogre@@UAE?AV?$basic_string@DU?$char_traits@D@std@@V?$allocator@D@2@@std@@_N@Z
	DD	FLAT:?getAsString@DataStream@Ogre@@UAE?AV?$basic_string@DU?$char_traits@D@std@@V?$allocator@D@2@@std@@XZ
	DD	FLAT:?skipLine@DataStream@Ogre@@UAEIABV?$basic_string@DU?$char_traits@D@std@@V?$allocator@D@2@@std@@@Z
	DD	FLAT:?skip@ObjectDataStream@Ogre@@UAEXJ@Z
	DD	FLAT:?seek@ObjectDataStream@Ogre@@UAEXI@Z
	DD	FLAT:?tell@ObjectDataStream@Ogre@@UBEIXZ
	DD	FLAT:?eof@ObjectDataStream@Ogre@@UBE_NXZ
	DD	FLAT:?size@ObjectDataStream@Ogre@@UBEIXZ
	DD	FLAT:?close@ObjectDataStream@Ogre@@UAEXXZ
	DD	FLAT:?getMemoryImage@ObjectDataStream@Ogre@@UAEPAXXZ
CONST	ENDS
;	COMDAT xdata$x
xdata$x	SEGMENT
__unwindtable$??0ObjectDataStream@Ogre@@QAE@ABV01@@Z DD 0ffffffffH
	DD	FLAT:__unwindfunclet$??0ObjectDataStream@Ogre@@QAE@ABV01@@Z$0
__ehfuncinfo$??0ObjectDataStream@Ogre@@QAE@ABV01@@Z DD 019930522H
	DD	01H
	DD	FLAT:__unwindtable$??0ObjectDataStream@Ogre@@QAE@ABV01@@Z
	DD	2 DUP(00H)
	DD	2 DUP(00H)
	DD	00H
	DD	00H
; Function compile flags: /Odtp
xdata$x	ENDS
;	COMDAT ??0ObjectDataStream@Ogre@@QAE@ABV01@@Z
_TEXT	SEGMENT
_this$ = -16						; size = 4
__$EHRec$ = -12						; size = 12
___that$ = 8						; size = 4
??0ObjectDataStream@Ogre@@QAE@ABV01@@Z PROC		; Ogre::ObjectDataStream::ObjectDataStream, COMDAT
; _this$ = ecx
	push	ebp
	mov	ebp, esp
	push	-1
	push	__ehhandler$??0ObjectDataStream@Ogre@@QAE@ABV01@@Z
	mov	eax, DWORD PTR fs:0
	push	eax
	push	ecx
	mov	eax, DWORD PTR ___security_cookie
	xor	eax, ebp
	push	eax
	lea	eax, DWORD PTR __$EHRec$[ebp]
	mov	DWORD PTR fs:0, eax
	mov	DWORD PTR _this$[ebp], ecx
	mov	eax, DWORD PTR ___that$[ebp]
	push	eax
	mov	ecx, DWORD PTR _this$[ebp]
	call	??0DataStream@Ogre@@QAE@ABV01@@Z
	mov	DWORD PTR __$EHRec$[ebp+8], 0
	mov	ecx, DWORD PTR _this$[ebp]
	mov	DWORD PTR [ecx], OFFSET ??_7ObjectDataStream@Ogre@@6B@
	mov	edx, DWORD PTR _this$[ebp]
	mov	eax, DWORD PTR ___that$[ebp]
	mov	ecx, DWORD PTR [eax+36]
	mov	DWORD PTR [edx+36], ecx
	mov	edx, DWORD PTR _this$[ebp]
	mov	eax, DWORD PTR ___that$[ebp]
	mov	ecx, DWORD PTR [eax+40]
	mov	DWORD PTR [edx+40], ecx
	mov	DWORD PTR __$EHRec$[ebp+8], -1
	mov	eax, DWORD PTR _this$[ebp]
	mov	ecx, DWORD PTR __$EHRec$[ebp]
	mov	DWORD PTR fs:0, ecx
	pop	ecx
	mov	esp, ebp
	pop	ebp
	ret	4
_TEXT	ENDS
;	COMDAT text$x
text$x	SEGMENT
__unwindfunclet$??0ObjectDataStream@Ogre@@QAE@ABV01@@Z$0:
	mov	ecx, DWORD PTR _this$[ebp]
	jmp	??1DataStream@Ogre@@UAE@XZ		; Ogre::DataStream::~DataStream
__ehhandler$??0ObjectDataStream@Ogre@@QAE@ABV01@@Z:
	mov	edx, DWORD PTR [esp+8]
	lea	eax, DWORD PTR [edx+12]
	mov	ecx, DWORD PTR [edx-8]
	xor	ecx, eax
	call	@__security_check_cookie@4
	mov	eax, OFFSET __ehfuncinfo$??0ObjectDataStream@Ogre@@QAE@ABV01@@Z
	jmp	___CxxFrameHandler3
text$x	ENDS
??0ObjectDataStream@Ogre@@QAE@ABV01@@Z ENDP		; Ogre::ObjectDataStream::ObjectDataStream
PUBLIC	??4ObjectDataStream@Ogre@@QAEAAV01@ABV01@@Z	; Ogre::ObjectDataStream::operator=
; Function compile flags: /Odtp
;	COMDAT ??4ObjectDataStream@Ogre@@QAEAAV01@ABV01@@Z
_TEXT	SEGMENT
_this$ = -4						; size = 4
___that$ = 8						; size = 4
??4ObjectDataStream@Ogre@@QAEAAV01@ABV01@@Z PROC	; Ogre::ObjectDataStream::operator=, COMDAT
; _this$ = ecx
	push	ebp
	mov	ebp, esp
	push	ecx
	mov	DWORD PTR _this$[ebp], ecx
	mov	eax, DWORD PTR ___that$[ebp]
	push	eax
	mov	ecx, DWORD PTR _this$[ebp]
	call	??4DataStream@Ogre@@QAEAAV01@ABV01@@Z
	mov	ecx, DWORD PTR _this$[ebp]
	mov	edx, DWORD PTR ___that$[ebp]
	mov	eax, DWORD PTR [edx+36]
	mov	DWORD PTR [ecx+36], eax
	mov	ecx, DWORD PTR _this$[ebp]
	mov	edx, DWORD PTR ___that$[ebp]
	mov	eax, DWORD PTR [edx+40]
	mov	DWORD PTR [ecx+40], eax
	mov	eax, DWORD PTR _this$[ebp]
	mov	esp, ebp
	pop	ebp
	ret	4
??4ObjectDataStream@Ogre@@QAEAAV01@ABV01@@Z ENDP	; Ogre::ObjectDataStream::operator=
_TEXT	ENDS
PUBLIC	??_GObjectDataStream@Ogre@@UAEPAXI@Z		; Ogre::ObjectDataStream::`scalar deleting destructor'
EXTRN	??1ObjectDataStream@Ogre@@UAE@XZ:PROC		; Ogre::ObjectDataStream::~ObjectDataStream
; Function compile flags: /Odtp
;	COMDAT ??_GObjectDataStream@Ogre@@UAEPAXI@Z
_TEXT	SEGMENT
_this$ = -4						; size = 4
___flags$ = 8						; size = 4
??_GObjectDataStream@Ogre@@UAEPAXI@Z PROC		; Ogre::ObjectDataStream::`scalar deleting destructor', COMDAT
; _this$ = ecx
	push	ebp
	mov	ebp, esp
	push	ecx
	mov	DWORD PTR _this$[ebp], ecx
	mov	ecx, DWORD PTR _this$[ebp]
	call	??1ObjectDataStream@Ogre@@UAE@XZ	; Ogre::ObjectDataStream::~ObjectDataStream
	mov	eax, DWORD PTR ___flags$[ebp]
	and	eax, 1
	je	SHORT $LN1@scalar@6
	mov	ecx, DWORD PTR _this$[ebp]
	push	ecx
	call	??3@YAXPAX@Z				; operator delete
	add	esp, 4
$LN1@scalar@6:
	mov	eax, DWORD PTR _this$[ebp]
	mov	esp, ebp
	pop	ebp
	ret	4
??_GObjectDataStream@Ogre@@UAEPAXI@Z ENDP		; Ogre::ObjectDataStream::`scalar deleting destructor'
; Function compile flags: /Odtp
_TEXT	ENDS
;	COMDAT ??_EObjectDataStream@Ogre@@UAEPAXI@Z
_TEXT	SEGMENT
_this$ = -4						; size = 4
___flags$ = 8						; size = 4
??_EObjectDataStream@Ogre@@UAEPAXI@Z PROC		; Ogre::ObjectDataStream::`vector deleting destructor', COMDAT
; _this$ = ecx
	push	ebp
	mov	ebp, esp
	push	ecx
	mov	DWORD PTR _this$[ebp], ecx
	mov	eax, DWORD PTR ___flags$[ebp]
	and	eax, 2
	je	SHORT $LN3@vector@6
	push	OFFSET ??1ObjectDataStream@Ogre@@UAE@XZ	; Ogre::ObjectDataStream::~ObjectDataStream
	mov	ecx, DWORD PTR _this$[ebp]
	mov	edx, DWORD PTR [ecx-4]
	push	edx
	push	44					; 0000002cH
	mov	eax, DWORD PTR _this$[ebp]
	push	eax
	call	??_M@YGXPAXIHP6EX0@Z@Z
	mov	ecx, DWORD PTR ___flags$[ebp]
	and	ecx, 1
	je	SHORT $LN2@vector@6
	mov	edx, DWORD PTR _this$[ebp]
	sub	edx, 4
	push	edx
	call	??_V@YAXPAX@Z				; operator delete[]
	add	esp, 4
$LN2@vector@6:
	mov	eax, DWORD PTR _this$[ebp]
	sub	eax, 4
	jmp	SHORT $LN4@vector@6
$LN3@vector@6:
	mov	ecx, DWORD PTR _this$[ebp]
	call	??1ObjectDataStream@Ogre@@UAE@XZ	; Ogre::ObjectDataStream::~ObjectDataStream
	mov	eax, DWORD PTR ___flags$[ebp]
	and	eax, 1
	je	SHORT $LN1@vector@6
	mov	ecx, DWORD PTR _this$[ebp]
	push	ecx
	call	??3@YAXPAX@Z				; operator delete
	add	esp, 4
$LN1@vector@6:
	mov	eax, DWORD PTR _this$[ebp]
$LN4@vector@6:
	mov	esp, ebp
	pop	ebp
	ret	4
??_EObjectDataStream@Ogre@@UAEPAXI@Z ENDP		; Ogre::ObjectDataStream::`vector deleting destructor'
_TEXT	ENDS
PUBLIC	??4LockSection@Ogre@@QAEAAV01@ABV01@@Z		; Ogre::LockSection::operator=
; Function compile flags: /Odtp
;	COMDAT ??4LockSection@Ogre@@QAEAAV01@ABV01@@Z
_TEXT	SEGMENT
_this$ = -4						; size = 4
___that$ = 8						; size = 4
??4LockSection@Ogre@@QAEAAV01@ABV01@@Z PROC		; Ogre::LockSection::operator=, COMDAT
; _this$ = ecx
	push	ebp
	mov	ebp, esp
	push	ecx
	mov	DWORD PTR _this$[ebp], ecx
	mov	eax, DWORD PTR ___that$[ebp]
	mov	ecx, DWORD PTR [eax]
	mov	edx, DWORD PTR _this$[ebp]
	mov	DWORD PTR [edx], ecx
	mov	eax, DWORD PTR _this$[ebp]
	mov	esp, ebp
	pop	ebp
	ret	4
??4LockSection@Ogre@@QAEAAV01@ABV01@@Z ENDP		; Ogre::LockSection::operator=
_TEXT	ENDS
PUBLIC	??0LockFunctor@Ogre@@QAE@PAVLockSection@1@@Z	; Ogre::LockFunctor::LockFunctor
EXTRN	?Lock@LockSection@Ogre@@QAEXXZ:PROC		; Ogre::LockSection::Lock
; Function compile flags: /Odtp
; File i:\svnroot\client\ogremain\ogrelocker.h
;	COMDAT ??0LockFunctor@Ogre@@QAE@PAVLockSection@1@@Z
_TEXT	SEGMENT
_this$ = -4						; size = 4
_pSection$ = 8						; size = 4
??0LockFunctor@Ogre@@QAE@PAVLockSection@1@@Z PROC	; Ogre::LockFunctor::LockFunctor, COMDAT
; _this$ = ecx

; 26   : 		{

	push	ebp
	mov	ebp, esp
	push	ecx
	mov	DWORD PTR _this$[ebp], ecx
	mov	eax, DWORD PTR _this$[ebp]
	mov	ecx, DWORD PTR _pSection$[ebp]
	mov	DWORD PTR [eax], ecx

; 27   : 			if(m_pSection == NULL) return;

	mov	edx, DWORD PTR _this$[ebp]
	cmp	DWORD PTR [edx], 0
	jne	SHORT $LN1@LockFuncto
	jmp	SHORT $LN2@LockFuncto
$LN1@LockFuncto:

; 28   : 			assert( m_pSection );
; 29   : 			m_pSection->Lock();

	mov	eax, DWORD PTR _this$[ebp]
	mov	ecx, DWORD PTR [eax]
	call	?Lock@LockSection@Ogre@@QAEXXZ		; Ogre::LockSection::Lock
$LN2@LockFuncto:

; 30   : 		}

	mov	eax, DWORD PTR _this$[ebp]
	mov	esp, ebp
	pop	ebp
	ret	4
??0LockFunctor@Ogre@@QAE@PAVLockSection@1@@Z ENDP	; Ogre::LockFunctor::LockFunctor
_TEXT	ENDS
PUBLIC	??1LockFunctor@Ogre@@QAE@XZ			; Ogre::LockFunctor::~LockFunctor
EXTRN	?Unlock@LockSection@Ogre@@QAEXXZ:PROC		; Ogre::LockSection::Unlock
; Function compile flags: /Odtp
;	COMDAT ??1LockFunctor@Ogre@@QAE@XZ
_TEXT	SEGMENT
_this$ = -4						; size = 4
??1LockFunctor@Ogre@@QAE@XZ PROC			; Ogre::LockFunctor::~LockFunctor, COMDAT
; _this$ = ecx

; 33   : 		{

	push	ebp
	mov	ebp, esp
	push	ecx
	mov	DWORD PTR _this$[ebp], ecx

; 34   : 			if( m_pSection )

	mov	eax, DWORD PTR _this$[ebp]
	cmp	DWORD PTR [eax], 0
	je	SHORT $LN2@LockFuncto@2

; 35   : 			{
; 36   : 				m_pSection->Unlock();

	mov	ecx, DWORD PTR _this$[ebp]
	mov	ecx, DWORD PTR [ecx]
	call	?Unlock@LockSection@Ogre@@QAEXXZ	; Ogre::LockSection::Unlock
$LN2@LockFuncto@2:

; 37   : 			}			
; 38   : 		}

	mov	esp, ebp
	pop	ebp
	ret	0
??1LockFunctor@Ogre@@QAE@XZ ENDP			; Ogre::LockFunctor::~LockFunctor
_TEXT	ENDS
PUBLIC	??4LockFunctor@Ogre@@QAEAAV01@ABV01@@Z		; Ogre::LockFunctor::operator=
; Function compile flags: /Odtp
;	COMDAT ??4LockFunctor@Ogre@@QAEAAV01@ABV01@@Z
_TEXT	SEGMENT
_this$ = -4						; size = 4
___that$ = 8						; size = 4
??4LockFunctor@Ogre@@QAEAAV01@ABV01@@Z PROC		; Ogre::LockFunctor::operator=, COMDAT
; _this$ = ecx
	push	ebp
	mov	ebp, esp
	push	ecx
	mov	DWORD PTR _this$[ebp], ecx
	mov	eax, DWORD PTR ___that$[ebp]
	mov	ecx, DWORD PTR [eax]
	mov	edx, DWORD PTR _this$[ebp]
	mov	DWORD PTR [edx], ecx
	mov	eax, DWORD PTR _this$[ebp]
	mov	esp, ebp
	pop	ebp
	ret	4
??4LockFunctor@Ogre@@QAEAAV01@ABV01@@Z ENDP		; Ogre::LockFunctor::operator=
_TEXT	ENDS
PUBLIC	??_7PackageDataStreamObject@Ogre@@6B@		; Ogre::PackageDataStreamObject::`vftable'
PUBLIC	??0PackageDataStreamObject@Ogre@@QAE@ABV01@@Z	; Ogre::PackageDataStreamObject::PackageDataStreamObject
PUBLIC	??_R4PackageDataStreamObject@Ogre@@6B@		; Ogre::PackageDataStreamObject::`RTTI Complete Object Locator'
PUBLIC	??_R0?AVPackageDataStreamObject@Ogre@@@8	; Ogre::PackageDataStreamObject `RTTI Type Descriptor'
PUBLIC	??_R3PackageDataStreamObject@Ogre@@8		; Ogre::PackageDataStreamObject::`RTTI Class Hierarchy Descriptor'
PUBLIC	??_R2PackageDataStreamObject@Ogre@@8		; Ogre::PackageDataStreamObject::`RTTI Base Class Array'
PUBLIC	??_R1A@?0A@EA@PackageDataStreamObject@Ogre@@8	; Ogre::PackageDataStreamObject::`RTTI Base Class Descriptor at (0,-1,0,64)'
PUBLIC	??_EPackageDataStreamObject@Ogre@@UAEPAXI@Z	; Ogre::PackageDataStreamObject::`vector deleting destructor'
PUBLIC	?release@PackageDataStreamObject@Ogre@@UAEXXZ	; Ogre::PackageDataStreamObject::release
PUBLIC	?buffer@PackageDataStreamObject@Ogre@@UAEPAXI@Z	; Ogre::PackageDataStreamObject::buffer
PUBLIC	?buffer@PackageDataStreamObject@Ogre@@UAEPAXXZ	; Ogre::PackageDataStreamObject::buffer
PUBLIC	?length@PackageDataStreamObject@Ogre@@UAEIXZ	; Ogre::PackageDataStreamObject::length
PUBLIC	?size@PackageDataStreamObject@Ogre@@UAEIXZ	; Ogre::PackageDataStreamObject::size
PUBLIC	?shift@PackageDataStreamObject@Ogre@@UAEXI@Z	; Ogre::PackageDataStreamObject::shift
;	COMDAT ??_R1A@?0A@EA@PackageDataStreamObject@Ogre@@8
rdata$r	SEGMENT
??_R1A@?0A@EA@PackageDataStreamObject@Ogre@@8 DD FLAT:??_R0?AVPackageDataStreamObject@Ogre@@@8 ; Ogre::PackageDataStreamObject::`RTTI Base Class Descriptor at (0,-1,0,64)'
	DD	01H
	DD	00H
	DD	0ffffffffH
	DD	00H
	DD	040H
	DD	FLAT:??_R3PackageDataStreamObject@Ogre@@8
rdata$r	ENDS
;	COMDAT ??_R2PackageDataStreamObject@Ogre@@8
rdata$r	SEGMENT
??_R2PackageDataStreamObject@Ogre@@8 DD FLAT:??_R1A@?0A@EA@PackageDataStreamObject@Ogre@@8 ; Ogre::PackageDataStreamObject::`RTTI Base Class Array'
	DD	FLAT:??_R1A@?0A@EA@DataStreamObject@Ogre@@8
rdata$r	ENDS
;	COMDAT ??_R3PackageDataStreamObject@Ogre@@8
rdata$r	SEGMENT
??_R3PackageDataStreamObject@Ogre@@8 DD 00H		; Ogre::PackageDataStreamObject::`RTTI Class Hierarchy Descriptor'
	DD	00H
	DD	02H
	DD	FLAT:??_R2PackageDataStreamObject@Ogre@@8
rdata$r	ENDS
;	COMDAT ??_R0?AVPackageDataStreamObject@Ogre@@@8
_DATA	SEGMENT
??_R0?AVPackageDataStreamObject@Ogre@@@8 DD FLAT:??_7type_info@@6B@ ; Ogre::PackageDataStreamObject `RTTI Type Descriptor'
	DD	00H
	DB	'.?AVPackageDataStreamObject@Ogre@@', 00H
_DATA	ENDS
;	COMDAT ??_R4PackageDataStreamObject@Ogre@@6B@
rdata$r	SEGMENT
??_R4PackageDataStreamObject@Ogre@@6B@ DD 00H		; Ogre::PackageDataStreamObject::`RTTI Complete Object Locator'
	DD	00H
	DD	00H
	DD	FLAT:??_R0?AVPackageDataStreamObject@Ogre@@@8
	DD	FLAT:??_R3PackageDataStreamObject@Ogre@@8
rdata$r	ENDS
;	COMDAT ??_7PackageDataStreamObject@Ogre@@6B@
CONST	SEGMENT
??_7PackageDataStreamObject@Ogre@@6B@ DD FLAT:??_R4PackageDataStreamObject@Ogre@@6B@ ; Ogre::PackageDataStreamObject::`vftable'
	DD	FLAT:??_EPackageDataStreamObject@Ogre@@UAEPAXI@Z
	DD	FLAT:?release@PackageDataStreamObject@Ogre@@UAEXXZ
	DD	FLAT:?buffer@PackageDataStreamObject@Ogre@@UAEPAXI@Z
	DD	FLAT:?buffer@PackageDataStreamObject@Ogre@@UAEPAXXZ
	DD	FLAT:?length@PackageDataStreamObject@Ogre@@UAEIXZ
	DD	FLAT:?size@PackageDataStreamObject@Ogre@@UAEIXZ
	DD	FLAT:?shift@PackageDataStreamObject@Ogre@@UAEXI@Z
CONST	ENDS
;	COMDAT xdata$x
xdata$x	SEGMENT
__unwindtable$??0PackageDataStreamObject@Ogre@@QAE@ABV01@@Z DD 0ffffffffH
	DD	FLAT:__unwindfunclet$??0PackageDataStreamObject@Ogre@@QAE@ABV01@@Z$0
__ehfuncinfo$??0PackageDataStreamObject@Ogre@@QAE@ABV01@@Z DD 019930522H
	DD	01H
	DD	FLAT:__unwindtable$??0PackageDataStreamObject@Ogre@@QAE@ABV01@@Z
	DD	2 DUP(00H)
	DD	2 DUP(00H)
	DD	00H
	DD	00H
; Function compile flags: /Odtp
xdata$x	ENDS
;	COMDAT ??0PackageDataStreamObject@Ogre@@QAE@ABV01@@Z
_TEXT	SEGMENT
_this$ = -16						; size = 4
__$EHRec$ = -12						; size = 12
___that$ = 8						; size = 4
??0PackageDataStreamObject@Ogre@@QAE@ABV01@@Z PROC	; Ogre::PackageDataStreamObject::PackageDataStreamObject, COMDAT
; _this$ = ecx
	push	ebp
	mov	ebp, esp
	push	-1
	push	__ehhandler$??0PackageDataStreamObject@Ogre@@QAE@ABV01@@Z
	mov	eax, DWORD PTR fs:0
	push	eax
	push	ecx
	mov	eax, DWORD PTR ___security_cookie
	xor	eax, ebp
	push	eax
	lea	eax, DWORD PTR __$EHRec$[ebp]
	mov	DWORD PTR fs:0, eax
	mov	DWORD PTR _this$[ebp], ecx
	mov	eax, DWORD PTR ___that$[ebp]
	push	eax
	mov	ecx, DWORD PTR _this$[ebp]
	call	??0DataStreamObject@Ogre@@QAE@ABV01@@Z
	mov	DWORD PTR __$EHRec$[ebp+8], 0
	mov	ecx, DWORD PTR _this$[ebp]
	mov	DWORD PTR [ecx], OFFSET ??_7PackageDataStreamObject@Ogre@@6B@
	mov	edx, DWORD PTR _this$[ebp]
	mov	eax, DWORD PTR ___that$[ebp]
	mov	ecx, DWORD PTR [eax+4]
	mov	DWORD PTR [edx+4], ecx
	mov	edx, DWORD PTR _this$[ebp]
	mov	eax, DWORD PTR ___that$[ebp]
	mov	ecx, DWORD PTR [eax+8]
	mov	DWORD PTR [edx+8], ecx
	mov	edx, DWORD PTR _this$[ebp]
	mov	eax, DWORD PTR ___that$[ebp]
	mov	ecx, DWORD PTR [eax+12]
	mov	DWORD PTR [edx+12], ecx
	mov	edx, DWORD PTR _this$[ebp]
	mov	eax, DWORD PTR ___that$[ebp]
	mov	ecx, DWORD PTR [eax+16]
	mov	DWORD PTR [edx+16], ecx
	mov	DWORD PTR __$EHRec$[ebp+8], -1
	mov	eax, DWORD PTR _this$[ebp]
	mov	ecx, DWORD PTR __$EHRec$[ebp]
	mov	DWORD PTR fs:0, ecx
	pop	ecx
	mov	esp, ebp
	pop	ebp
	ret	4
_TEXT	ENDS
;	COMDAT text$x
text$x	SEGMENT
__unwindfunclet$??0PackageDataStreamObject@Ogre@@QAE@ABV01@@Z$0:
	mov	ecx, DWORD PTR _this$[ebp]
	jmp	??1DataStreamObject@Ogre@@MAE@XZ	; Ogre::DataStreamObject::~DataStreamObject
__ehhandler$??0PackageDataStreamObject@Ogre@@QAE@ABV01@@Z:
	mov	edx, DWORD PTR [esp+8]
	lea	eax, DWORD PTR [edx+12]
	mov	ecx, DWORD PTR [edx-8]
	xor	ecx, eax
	call	@__security_check_cookie@4
	mov	eax, OFFSET __ehfuncinfo$??0PackageDataStreamObject@Ogre@@QAE@ABV01@@Z
	jmp	___CxxFrameHandler3
text$x	ENDS
??0PackageDataStreamObject@Ogre@@QAE@ABV01@@Z ENDP	; Ogre::PackageDataStreamObject::PackageDataStreamObject
PUBLIC	??4PackageDataStreamObject@Ogre@@QAEAAV01@ABV01@@Z ; Ogre::PackageDataStreamObject::operator=
; Function compile flags: /Odtp
;	COMDAT ??4PackageDataStreamObject@Ogre@@QAEAAV01@ABV01@@Z
_TEXT	SEGMENT
_this$ = -4						; size = 4
___that$ = 8						; size = 4
??4PackageDataStreamObject@Ogre@@QAEAAV01@ABV01@@Z PROC	; Ogre::PackageDataStreamObject::operator=, COMDAT
; _this$ = ecx
	push	ebp
	mov	ebp, esp
	push	ecx
	mov	DWORD PTR _this$[ebp], ecx
	mov	eax, DWORD PTR ___that$[ebp]
	push	eax
	mov	ecx, DWORD PTR _this$[ebp]
	call	??4DataStreamObject@Ogre@@QAEAAV01@ABV01@@Z
	mov	ecx, DWORD PTR _this$[ebp]
	mov	edx, DWORD PTR ___that$[ebp]
	mov	eax, DWORD PTR [edx+4]
	mov	DWORD PTR [ecx+4], eax
	mov	ecx, DWORD PTR _this$[ebp]
	mov	edx, DWORD PTR ___that$[ebp]
	mov	eax, DWORD PTR [edx+8]
	mov	DWORD PTR [ecx+8], eax
	mov	ecx, DWORD PTR _this$[ebp]
	mov	edx, DWORD PTR ___that$[ebp]
	mov	eax, DWORD PTR [edx+12]
	mov	DWORD PTR [ecx+12], eax
	mov	ecx, DWORD PTR _this$[ebp]
	mov	edx, DWORD PTR ___that$[ebp]
	mov	eax, DWORD PTR [edx+16]
	mov	DWORD PTR [ecx+16], eax
	mov	eax, DWORD PTR _this$[ebp]
	mov	esp, ebp
	pop	ebp
	ret	4
??4PackageDataStreamObject@Ogre@@QAEAAV01@ABV01@@Z ENDP	; Ogre::PackageDataStreamObject::operator=
_TEXT	ENDS
PUBLIC	??1PackageDataStreamObject@Ogre@@UAE@XZ		; Ogre::PackageDataStreamObject::~PackageDataStreamObject
PUBLIC	??_GPackageDataStreamObject@Ogre@@UAEPAXI@Z	; Ogre::PackageDataStreamObject::`scalar deleting destructor'
; Function compile flags: /Odtp
;	COMDAT ??_GPackageDataStreamObject@Ogre@@UAEPAXI@Z
_TEXT	SEGMENT
_this$ = -4						; size = 4
___flags$ = 8						; size = 4
??_GPackageDataStreamObject@Ogre@@UAEPAXI@Z PROC	; Ogre::PackageDataStreamObject::`scalar deleting destructor', COMDAT
; _this$ = ecx
	push	ebp
	mov	ebp, esp
	push	ecx
	mov	DWORD PTR _this$[ebp], ecx
	mov	ecx, DWORD PTR _this$[ebp]
	call	??1PackageDataStreamObject@Ogre@@UAE@XZ	; Ogre::PackageDataStreamObject::~PackageDataStreamObject
	mov	eax, DWORD PTR ___flags$[ebp]
	and	eax, 1
	je	SHORT $LN1@scalar@7
	mov	ecx, DWORD PTR _this$[ebp]
	push	ecx
	call	??3@YAXPAX@Z				; operator delete
	add	esp, 4
$LN1@scalar@7:
	mov	eax, DWORD PTR _this$[ebp]
	mov	esp, ebp
	pop	ebp
	ret	4
??_GPackageDataStreamObject@Ogre@@UAEPAXI@Z ENDP	; Ogre::PackageDataStreamObject::`scalar deleting destructor'
; Function compile flags: /Odtp
_TEXT	ENDS
;	COMDAT ??_EPackageDataStreamObject@Ogre@@UAEPAXI@Z
_TEXT	SEGMENT
_this$ = -4						; size = 4
___flags$ = 8						; size = 4
??_EPackageDataStreamObject@Ogre@@UAEPAXI@Z PROC	; Ogre::PackageDataStreamObject::`vector deleting destructor', COMDAT
; _this$ = ecx
	push	ebp
	mov	ebp, esp
	push	ecx
	mov	DWORD PTR _this$[ebp], ecx
	mov	eax, DWORD PTR ___flags$[ebp]
	and	eax, 2
	je	SHORT $LN3@vector@7
	push	OFFSET ??1PackageDataStreamObject@Ogre@@UAE@XZ ; Ogre::PackageDataStreamObject::~PackageDataStreamObject
	mov	ecx, DWORD PTR _this$[ebp]
	mov	edx, DWORD PTR [ecx-4]
	push	edx
	push	20					; 00000014H
	mov	eax, DWORD PTR _this$[ebp]
	push	eax
	call	??_M@YGXPAXIHP6EX0@Z@Z
	mov	ecx, DWORD PTR ___flags$[ebp]
	and	ecx, 1
	je	SHORT $LN2@vector@7
	mov	edx, DWORD PTR _this$[ebp]
	sub	edx, 4
	push	edx
	call	??_V@YAXPAX@Z				; operator delete[]
	add	esp, 4
$LN2@vector@7:
	mov	eax, DWORD PTR _this$[ebp]
	sub	eax, 4
	jmp	SHORT $LN4@vector@7
$LN3@vector@7:
	mov	ecx, DWORD PTR _this$[ebp]
	call	??1PackageDataStreamObject@Ogre@@UAE@XZ	; Ogre::PackageDataStreamObject::~PackageDataStreamObject
	mov	eax, DWORD PTR ___flags$[ebp]
	and	eax, 1
	je	SHORT $LN1@vector@7
	mov	ecx, DWORD PTR _this$[ebp]
	push	ecx
	call	??3@YAXPAX@Z				; operator delete
	add	esp, 4
$LN1@vector@7:
	mov	eax, DWORD PTR _this$[ebp]
$LN4@vector@7:
	mov	esp, ebp
	pop	ebp
	ret	4
??_EPackageDataStreamObject@Ogre@@UAEPAXI@Z ENDP	; Ogre::PackageDataStreamObject::`vector deleting destructor'
_TEXT	ENDS
PUBLIC	??1?$vector@PAVPackageDataStreamObject@Ogre@@V?$allocator@PAVPackageDataStreamObject@Ogre@@@std@@@std@@QAE@XZ ; std::vector<Ogre::PackageDataStreamObject *,std::allocator<Ogre::PackageDataStreamObject *> >::~vector<Ogre::PackageDataStreamObject *,std::allocator<Ogre::PackageDataStreamObject *> >
PUBLIC	??1?$vector@UPkgFileInfo@Ogre@@V?$allocator@UPkgFileInfo@Ogre@@@std@@@std@@QAE@XZ ; std::vector<Ogre::PkgFileInfo,std::allocator<Ogre::PkgFileInfo> >::~vector<Ogre::PkgFileInfo,std::allocator<Ogre::PkgFileInfo> >
PUBLIC	??0?$vector@PAVPackageDataStreamObject@Ogre@@V?$allocator@PAVPackageDataStreamObject@Ogre@@@std@@@std@@QAE@XZ ; std::vector<Ogre::PackageDataStreamObject *,std::allocator<Ogre::PackageDataStreamObject *> >::vector<Ogre::PackageDataStreamObject *,std::allocator<Ogre::PackageDataStreamObject *> >
PUBLIC	??0?$vector@UPkgFileInfo@Ogre@@V?$allocator@UPkgFileInfo@Ogre@@@std@@@std@@QAE@XZ ; std::vector<Ogre::PkgFileInfo,std::allocator<Ogre::PkgFileInfo> >::vector<Ogre::PkgFileInfo,std::allocator<Ogre::PkgFileInfo> >
PUBLIC	??0FilePackage@Ogre@@QAE@XZ			; Ogre::FilePackage::FilePackage
EXTRN	??1LockSection@Ogre@@QAE@XZ:PROC		; Ogre::LockSection::~LockSection
EXTRN	??0LockSection@Ogre@@QAE@XZ:PROC		; Ogre::LockSection::LockSection
;	COMDAT xdata$x
; File i:\svnroot\client\ogremain\ogrepackagefile.h
xdata$x	SEGMENT
__ehfuncinfo$??0FilePackage@Ogre@@QAE@XZ DD 019930522H
	DD	06H
	DD	FLAT:__unwindtable$??0FilePackage@Ogre@@QAE@XZ
	DD	2 DUP(00H)
	DD	2 DUP(00H)
	DD	00H
	DD	00H
__unwindtable$??0FilePackage@Ogre@@QAE@XZ DD 0ffffffffH
	DD	FLAT:__unwindfunclet$??0FilePackage@Ogre@@QAE@XZ$0
	DD	00H
	DD	FLAT:__unwindfunclet$??0FilePackage@Ogre@@QAE@XZ$1
	DD	01H
	DD	FLAT:__unwindfunclet$??0FilePackage@Ogre@@QAE@XZ$2
	DD	02H
	DD	FLAT:__unwindfunclet$??0FilePackage@Ogre@@QAE@XZ$3
	DD	03H
	DD	FLAT:__unwindfunclet$??0FilePackage@Ogre@@QAE@XZ$4
	DD	04H
	DD	FLAT:__unwindfunclet$??0FilePackage@Ogre@@QAE@XZ$5
; Function compile flags: /Odtp
xdata$x	ENDS
;	COMDAT ??0FilePackage@Ogre@@QAE@XZ
_TEXT	SEGMENT
_this$ = -16						; size = 4
__$EHRec$ = -12						; size = 12
??0FilePackage@Ogre@@QAE@XZ PROC			; Ogre::FilePackage::FilePackage, COMDAT
; _this$ = ecx

; 60   : 		FilePackage() : m_FP(NULL), m_MaxOriginSize(0), m_MaxPackSize(0), m_PackBuffer(NULL), m_BufferObjectCount(0){}

	push	ebp
	mov	ebp, esp
	push	-1
	push	__ehhandler$??0FilePackage@Ogre@@QAE@XZ
	mov	eax, DWORD PTR fs:0
	push	eax
	push	ecx
	mov	eax, DWORD PTR ___security_cookie
	xor	eax, ebp
	push	eax
	lea	eax, DWORD PTR __$EHRec$[ebp]
	mov	DWORD PTR fs:0, eax
	mov	DWORD PTR _this$[ebp], ecx
	mov	eax, DWORD PTR _this$[ebp]
	mov	DWORD PTR [eax+4], 0
	mov	ecx, DWORD PTR _this$[ebp]
	add	ecx, 36					; 00000024H
	call	??0?$vector@UPkgFileInfo@Ogre@@V?$allocator@UPkgFileInfo@Ogre@@@std@@@std@@QAE@XZ ; std::vector<Ogre::PkgFileInfo,std::allocator<Ogre::PkgFileInfo> >::vector<Ogre::PkgFileInfo,std::allocator<Ogre::PkgFileInfo> >
	mov	DWORD PTR __$EHRec$[ebp+8], 0
	mov	ecx, DWORD PTR _this$[ebp]
	add	ecx, 60					; 0000003cH
	call	??0LockSection@Ogre@@QAE@XZ		; Ogre::LockSection::LockSection
	mov	BYTE PTR __$EHRec$[ebp+8], 1
	mov	ecx, DWORD PTR _this$[ebp]
	add	ecx, 64					; 00000040H
	call	DWORD PTR __imp_??0?$basic_string@DU?$char_traits@D@std@@V?$allocator@D@2@@std@@QAE@XZ
	mov	BYTE PTR __$EHRec$[ebp+8], 2
	mov	ecx, DWORD PTR _this$[ebp]
	mov	DWORD PTR [ecx+92], 0
	mov	edx, DWORD PTR _this$[ebp]
	mov	DWORD PTR [edx+96], 0
	mov	eax, DWORD PTR _this$[ebp]
	mov	DWORD PTR [eax+100], 0
	mov	ecx, DWORD PTR _this$[ebp]
	add	ecx, 104				; 00000068H
	call	??0?$vector@PAVPackageDataStreamObject@Ogre@@V?$allocator@PAVPackageDataStreamObject@Ogre@@@std@@@std@@QAE@XZ ; std::vector<Ogre::PackageDataStreamObject *,std::allocator<Ogre::PackageDataStreamObject *> >::vector<Ogre::PackageDataStreamObject *,std::allocator<Ogre::PackageDataStreamObject *> >
	mov	BYTE PTR __$EHRec$[ebp+8], 3
	mov	ecx, DWORD PTR _this$[ebp]
	mov	DWORD PTR [ecx+128], 0
	mov	ecx, DWORD PTR _this$[ebp]
	add	ecx, 132				; 00000084H
	call	??0LockSection@Ogre@@QAE@XZ		; Ogre::LockSection::LockSection
	mov	BYTE PTR __$EHRec$[ebp+8], 4
	mov	ecx, DWORD PTR _this$[ebp]
	add	ecx, 136				; 00000088H
	call	??0LockSection@Ogre@@QAE@XZ		; Ogre::LockSection::LockSection
	mov	BYTE PTR __$EHRec$[ebp+8], 5
	mov	DWORD PTR __$EHRec$[ebp+8], -1
	mov	eax, DWORD PTR _this$[ebp]
	mov	ecx, DWORD PTR __$EHRec$[ebp]
	mov	DWORD PTR fs:0, ecx
	pop	ecx
	mov	esp, ebp
	pop	ebp
	ret	0
_TEXT	ENDS
;	COMDAT text$x
text$x	SEGMENT
__unwindfunclet$??0FilePackage@Ogre@@QAE@XZ$0:
	mov	ecx, DWORD PTR _this$[ebp]
	add	ecx, 36					; 00000024H
	jmp	??1?$vector@UPkgFileInfo@Ogre@@V?$allocator@UPkgFileInfo@Ogre@@@std@@@std@@QAE@XZ ; std::vector<Ogre::PkgFileInfo,std::allocator<Ogre::PkgFileInfo> >::~vector<Ogre::PkgFileInfo,std::allocator<Ogre::PkgFileInfo> >
__unwindfunclet$??0FilePackage@Ogre@@QAE@XZ$1:
	mov	ecx, DWORD PTR _this$[ebp]
	add	ecx, 60					; 0000003cH
	jmp	??1LockSection@Ogre@@QAE@XZ		; Ogre::LockSection::~LockSection
__unwindfunclet$??0FilePackage@Ogre@@QAE@XZ$2:
	mov	ecx, DWORD PTR _this$[ebp]
	add	ecx, 64					; 00000040H
	jmp	DWORD PTR __imp_??1?$basic_string@DU?$char_traits@D@std@@V?$allocator@D@2@@std@@QAE@XZ
__unwindfunclet$??0FilePackage@Ogre@@QAE@XZ$3:
	mov	ecx, DWORD PTR _this$[ebp]
	add	ecx, 104				; 00000068H
	jmp	??1?$vector@PAVPackageDataStreamObject@Ogre@@V?$allocator@PAVPackageDataStreamObject@Ogre@@@std@@@std@@QAE@XZ ; std::vector<Ogre::PackageDataStreamObject *,std::allocator<Ogre::PackageDataStreamObject *> >::~vector<Ogre::PackageDataStreamObject *,std::allocator<Ogre::PackageDataStreamObject *> >
__unwindfunclet$??0FilePackage@Ogre@@QAE@XZ$4:
	mov	ecx, DWORD PTR _this$[ebp]
	add	ecx, 132				; 00000084H
	jmp	??1LockSection@Ogre@@QAE@XZ		; Ogre::LockSection::~LockSection
__unwindfunclet$??0FilePackage@Ogre@@QAE@XZ$5:
	mov	ecx, DWORD PTR _this$[ebp]
	add	ecx, 136				; 00000088H
	jmp	??1LockSection@Ogre@@QAE@XZ		; Ogre::LockSection::~LockSection
__ehhandler$??0FilePackage@Ogre@@QAE@XZ:
	mov	edx, DWORD PTR [esp+8]
	lea	eax, DWORD PTR [edx+12]
	mov	ecx, DWORD PTR [edx-8]
	xor	ecx, eax
	call	@__security_check_cookie@4
	mov	eax, OFFSET __ehfuncinfo$??0FilePackage@Ogre@@QAE@XZ
	jmp	___CxxFrameHandler3
text$x	ENDS
??0FilePackage@Ogre@@QAE@XZ ENDP			; Ogre::FilePackage::FilePackage
PUBLIC	?close@FilePackage@Ogre@@QAEXXZ			; Ogre::FilePackage::close
PUBLIC	??1FilePackage@Ogre@@QAE@XZ			; Ogre::FilePackage::~FilePackage
;	COMDAT xdata$x
xdata$x	SEGMENT
__ehfuncinfo$??1FilePackage@Ogre@@QAE@XZ DD 019930522H
	DD	06H
	DD	FLAT:__unwindtable$??1FilePackage@Ogre@@QAE@XZ
	DD	2 DUP(00H)
	DD	2 DUP(00H)
	DD	00H
	DD	00H
__unwindtable$??1FilePackage@Ogre@@QAE@XZ DD 0ffffffffH
	DD	FLAT:__unwindfunclet$??1FilePackage@Ogre@@QAE@XZ$0
	DD	00H
	DD	FLAT:__unwindfunclet$??1FilePackage@Ogre@@QAE@XZ$1
	DD	01H
	DD	FLAT:__unwindfunclet$??1FilePackage@Ogre@@QAE@XZ$2
	DD	02H
	DD	FLAT:__unwindfunclet$??1FilePackage@Ogre@@QAE@XZ$3
	DD	03H
	DD	FLAT:__unwindfunclet$??1FilePackage@Ogre@@QAE@XZ$4
	DD	04H
	DD	FLAT:__unwindfunclet$??1FilePackage@Ogre@@QAE@XZ$5
; Function compile flags: /Odtp
xdata$x	ENDS
;	COMDAT ??1FilePackage@Ogre@@QAE@XZ
_TEXT	SEGMENT
_this$ = -16						; size = 4
__$EHRec$ = -12						; size = 12
??1FilePackage@Ogre@@QAE@XZ PROC			; Ogre::FilePackage::~FilePackage, COMDAT
; _this$ = ecx

; 61   : 		~FilePackage() {close();}

	push	ebp
	mov	ebp, esp
	push	-1
	push	__ehhandler$??1FilePackage@Ogre@@QAE@XZ
	mov	eax, DWORD PTR fs:0
	push	eax
	push	ecx
	mov	eax, DWORD PTR ___security_cookie
	xor	eax, ebp
	push	eax
	lea	eax, DWORD PTR __$EHRec$[ebp]
	mov	DWORD PTR fs:0, eax
	mov	DWORD PTR _this$[ebp], ecx
	mov	DWORD PTR __$EHRec$[ebp+8], 5
	mov	ecx, DWORD PTR _this$[ebp]
	call	?close@FilePackage@Ogre@@QAEXXZ		; Ogre::FilePackage::close
	mov	BYTE PTR __$EHRec$[ebp+8], 4
	mov	ecx, DWORD PTR _this$[ebp]
	add	ecx, 136				; 00000088H
	call	??1LockSection@Ogre@@QAE@XZ		; Ogre::LockSection::~LockSection
	mov	BYTE PTR __$EHRec$[ebp+8], 3
	mov	ecx, DWORD PTR _this$[ebp]
	add	ecx, 132				; 00000084H
	call	??1LockSection@Ogre@@QAE@XZ		; Ogre::LockSection::~LockSection
	mov	BYTE PTR __$EHRec$[ebp+8], 2
	mov	ecx, DWORD PTR _this$[ebp]
	add	ecx, 104				; 00000068H
	call	??1?$vector@PAVPackageDataStreamObject@Ogre@@V?$allocator@PAVPackageDataStreamObject@Ogre@@@std@@@std@@QAE@XZ ; std::vector<Ogre::PackageDataStreamObject *,std::allocator<Ogre::PackageDataStreamObject *> >::~vector<Ogre::PackageDataStreamObject *,std::allocator<Ogre::PackageDataStreamObject *> >
	mov	BYTE PTR __$EHRec$[ebp+8], 1
	mov	ecx, DWORD PTR _this$[ebp]
	add	ecx, 64					; 00000040H
	call	DWORD PTR __imp_??1?$basic_string@DU?$char_traits@D@std@@V?$allocator@D@2@@std@@QAE@XZ
	mov	BYTE PTR __$EHRec$[ebp+8], 0
	mov	ecx, DWORD PTR _this$[ebp]
	add	ecx, 60					; 0000003cH
	call	??1LockSection@Ogre@@QAE@XZ		; Ogre::LockSection::~LockSection
	mov	DWORD PTR __$EHRec$[ebp+8], -1
	mov	ecx, DWORD PTR _this$[ebp]
	add	ecx, 36					; 00000024H
	call	??1?$vector@UPkgFileInfo@Ogre@@V?$allocator@UPkgFileInfo@Ogre@@@std@@@std@@QAE@XZ ; std::vector<Ogre::PkgFileInfo,std::allocator<Ogre::PkgFileInfo> >::~vector<Ogre::PkgFileInfo,std::allocator<Ogre::PkgFileInfo> >
	mov	ecx, DWORD PTR __$EHRec$[ebp]
	mov	DWORD PTR fs:0, ecx
	pop	ecx
	mov	esp, ebp
	pop	ebp
	ret	0
_TEXT	ENDS
;	COMDAT text$x
text$x	SEGMENT
__unwindfunclet$??1FilePackage@Ogre@@QAE@XZ$0:
	mov	ecx, DWORD PTR _this$[ebp]
	add	ecx, 36					; 00000024H
	jmp	??1?$vector@UPkgFileInfo@Ogre@@V?$allocator@UPkgFileInfo@Ogre@@@std@@@std@@QAE@XZ ; std::vector<Ogre::PkgFileInfo,std::allocator<Ogre::PkgFileInfo> >::~vector<Ogre::PkgFileInfo,std::allocator<Ogre::PkgFileInfo> >
__unwindfunclet$??1FilePackage@Ogre@@QAE@XZ$1:
	mov	ecx, DWORD PTR _this$[ebp]
	add	ecx, 60					; 0000003cH
	jmp	??1LockSection@Ogre@@QAE@XZ		; Ogre::LockSection::~LockSection
__unwindfunclet$??1FilePackage@Ogre@@QAE@XZ$2:
	mov	ecx, DWORD PTR _this$[ebp]
	add	ecx, 64					; 00000040H
	jmp	DWORD PTR __imp_??1?$basic_string@DU?$char_traits@D@std@@V?$allocator@D@2@@std@@QAE@XZ
__unwindfunclet$??1FilePackage@Ogre@@QAE@XZ$3:
	mov	ecx, DWORD PTR _this$[ebp]
	add	ecx, 104				; 00000068H
	jmp	??1?$vector@PAVPackageDataStreamObject@Ogre@@V?$allocator@PAVPackageDataStreamObject@Ogre@@@std@@@std@@QAE@XZ ; std::vector<Ogre::PackageDataStreamObject *,std::allocator<Ogre::PackageDataStreamObject *> >::~vector<Ogre::PackageDataStreamObject *,std::allocator<Ogre::PackageDataStreamObject *> >
__unwindfunclet$??1FilePackage@Ogre@@QAE@XZ$4:
	mov	ecx, DWORD PTR _this$[ebp]
	add	ecx, 132				; 00000084H
	jmp	??1LockSection@Ogre@@QAE@XZ		; Ogre::LockSection::~LockSection
__unwindfunclet$??1FilePackage@Ogre@@QAE@XZ$5:
	mov	ecx, DWORD PTR _this$[ebp]
	add	ecx, 136				; 00000088H
	jmp	??1LockSection@Ogre@@QAE@XZ		; Ogre::LockSection::~LockSection
__ehhandler$??1FilePackage@Ogre@@QAE@XZ:
	mov	edx, DWORD PTR [esp+8]
	lea	eax, DWORD PTR [edx+12]
	mov	ecx, DWORD PTR [edx-8]
	xor	ecx, eax
	call	@__security_check_cookie@4
	mov	eax, OFFSET __ehfuncinfo$??1FilePackage@Ogre@@QAE@XZ
	jmp	___CxxFrameHandler3
text$x	ENDS
??1FilePackage@Ogre@@QAE@XZ ENDP			; Ogre::FilePackage::~FilePackage
PUBLIC	?size@?$vector@UPkgFileInfo@Ogre@@V?$allocator@UPkgFileInfo@Ogre@@@std@@@std@@QBEIXZ ; std::vector<Ogre::PkgFileInfo,std::allocator<Ogre::PkgFileInfo> >::size
PUBLIC	?getNumFiles@FilePackage@Ogre@@QAEIXZ		; Ogre::FilePackage::getNumFiles
; Function compile flags: /Odtp
;	COMDAT ?getNumFiles@FilePackage@Ogre@@QAEIXZ
_TEXT	SEGMENT
_this$ = -4						; size = 4
?getNumFiles@FilePackage@Ogre@@QAEIXZ PROC		; Ogre::FilePackage::getNumFiles, COMDAT
; _this$ = ecx

; 67   : 		{

	push	ebp
	mov	ebp, esp
	push	ecx
	mov	DWORD PTR _this$[ebp], ecx

; 68   : 			return m_FileTable.size();

	mov	ecx, DWORD PTR _this$[ebp]
	add	ecx, 36					; 00000024H
	call	?size@?$vector@UPkgFileInfo@Ogre@@V?$allocator@UPkgFileInfo@Ogre@@@std@@@std@@QBEIXZ ; std::vector<Ogre::PkgFileInfo,std::allocator<Ogre::PkgFileInfo> >::size

; 69   : 		}

	mov	esp, ebp
	pop	ebp
	ret	0
?getNumFiles@FilePackage@Ogre@@QAEIXZ ENDP		; Ogre::FilePackage::getNumFiles
_TEXT	ENDS
PUBLIC	??A?$vector@UPkgFileInfo@Ogre@@V?$allocator@UPkgFileInfo@Ogre@@@std@@@std@@QAEAAUPkgFileInfo@Ogre@@I@Z ; std::vector<Ogre::PkgFileInfo,std::allocator<Ogre::PkgFileInfo> >::operator[]
PUBLIC	?getFileInfo@FilePackage@Ogre@@QAEABUPkgFileInfo@2@I@Z ; Ogre::FilePackage::getFileInfo
; Function compile flags: /Odtp
;	COMDAT ?getFileInfo@FilePackage@Ogre@@QAEABUPkgFileInfo@2@I@Z
_TEXT	SEGMENT
_this$ = -4						; size = 4
_i$ = 8							; size = 4
?getFileInfo@FilePackage@Ogre@@QAEABUPkgFileInfo@2@I@Z PROC ; Ogre::FilePackage::getFileInfo, COMDAT
; _this$ = ecx

; 72   : 		{

	push	ebp
	mov	ebp, esp
	push	ecx
	mov	DWORD PTR _this$[ebp], ecx

; 73   : 			return m_FileTable[i];

	mov	eax, DWORD PTR _i$[ebp]
	push	eax
	mov	ecx, DWORD PTR _this$[ebp]
	add	ecx, 36					; 00000024H
	call	??A?$vector@UPkgFileInfo@Ogre@@V?$allocator@UPkgFileInfo@Ogre@@@std@@@std@@QAEAAUPkgFileInfo@Ogre@@I@Z ; std::vector<Ogre::PkgFileInfo,std::allocator<Ogre::PkgFileInfo> >::operator[]

; 74   : 		}

	mov	esp, ebp
	pop	ebp
	ret	4
?getFileInfo@FilePackage@Ogre@@QAEABUPkgFileInfo@2@I@Z ENDP ; Ogre::FilePackage::getFileInfo
_TEXT	ENDS
PUBLIC	?getPackagePath@FilePackage@Ogre@@QAE?AV?$basic_string@DU?$char_traits@D@std@@V?$allocator@D@2@@std@@XZ ; Ogre::FilePackage::getPackagePath
;	COMDAT xdata$x
xdata$x	SEGMENT
__unwindtable$?getPackagePath@FilePackage@Ogre@@QAE?AV?$basic_string@DU?$char_traits@D@std@@V?$allocator@D@2@@std@@XZ DD 0ffffffffH
	DD	FLAT:__unwindfunclet$?getPackagePath@FilePackage@Ogre@@QAE?AV?$basic_string@DU?$char_traits@D@std@@V?$allocator@D@2@@std@@XZ$0
__ehfuncinfo$?getPackagePath@FilePackage@Ogre@@QAE?AV?$basic_string@DU?$char_traits@D@std@@V?$allocator@D@2@@std@@XZ DD 019930522H
	DD	01H
	DD	FLAT:__unwindtable$?getPackagePath@FilePackage@Ogre@@QAE?AV?$basic_string@DU?$char_traits@D@std@@V?$allocator@D@2@@std@@XZ
	DD	2 DUP(00H)
	DD	2 DUP(00H)
	DD	00H
	DD	00H
; Function compile flags: /Odtp
xdata$x	ENDS
;	COMDAT ?getPackagePath@FilePackage@Ogre@@QAE?AV?$basic_string@DU?$char_traits@D@std@@V?$allocator@D@2@@std@@XZ
_TEXT	SEGMENT
_this$ = -20						; size = 4
$T124057 = -16						; size = 4
__$EHRec$ = -12						; size = 12
___$ReturnUdt$ = 8					; size = 4
?getPackagePath@FilePackage@Ogre@@QAE?AV?$basic_string@DU?$char_traits@D@std@@V?$allocator@D@2@@std@@XZ PROC ; Ogre::FilePackage::getPackagePath, COMDAT
; _this$ = ecx

; 77   : 		{

	push	ebp
	mov	ebp, esp
	push	-1
	push	__ehhandler$?getPackagePath@FilePackage@Ogre@@QAE?AV?$basic_string@DU?$char_traits@D@std@@V?$allocator@D@2@@std@@XZ
	mov	eax, DWORD PTR fs:0
	push	eax
	sub	esp, 8
	mov	eax, DWORD PTR ___security_cookie
	xor	eax, ebp
	push	eax
	lea	eax, DWORD PTR __$EHRec$[ebp]
	mov	DWORD PTR fs:0, eax
	mov	DWORD PTR _this$[ebp], ecx
	mov	DWORD PTR $T124057[ebp], 0

; 78   : 			return m_PackagePath;

	mov	eax, DWORD PTR _this$[ebp]
	add	eax, 64					; 00000040H
	push	eax
	mov	ecx, DWORD PTR ___$ReturnUdt$[ebp]
	call	DWORD PTR __imp_??0?$basic_string@DU?$char_traits@D@std@@V?$allocator@D@2@@std@@QAE@ABV01@@Z
	mov	DWORD PTR __$EHRec$[ebp+8], 0
	mov	ecx, DWORD PTR $T124057[ebp]
	or	ecx, 1
	mov	DWORD PTR $T124057[ebp], ecx
	mov	eax, DWORD PTR ___$ReturnUdt$[ebp]

; 79   : 		}

	mov	ecx, DWORD PTR __$EHRec$[ebp]
	mov	DWORD PTR fs:0, ecx
	pop	ecx
	mov	esp, ebp
	pop	ebp
	ret	4
_TEXT	ENDS
;	COMDAT text$x
text$x	SEGMENT
__unwindfunclet$?getPackagePath@FilePackage@Ogre@@QAE?AV?$basic_string@DU?$char_traits@D@std@@V?$allocator@D@2@@std@@XZ$0:
	mov	eax, DWORD PTR $T124057[ebp]
	and	eax, 1
	je	$LN4@getPackage
	and	DWORD PTR $T124057[ebp], -2		; fffffffeH
	mov	ecx, DWORD PTR ___$ReturnUdt$[ebp]
	jmp	DWORD PTR __imp_??1?$basic_string@DU?$char_traits@D@std@@V?$allocator@D@2@@std@@QAE@XZ
$LN4@getPackage:
	ret	0
__ehhandler$?getPackagePath@FilePackage@Ogre@@QAE?AV?$basic_string@DU?$char_traits@D@std@@V?$allocator@D@2@@std@@XZ:
	mov	edx, DWORD PTR [esp+8]
	lea	eax, DWORD PTR [edx+12]
	mov	ecx, DWORD PTR [edx-12]
	xor	ecx, eax
	call	@__security_check_cookie@4
	mov	eax, OFFSET __ehfuncinfo$?getPackagePath@FilePackage@Ogre@@QAE?AV?$basic_string@DU?$char_traits@D@std@@V?$allocator@D@2@@std@@XZ
	jmp	___CxxFrameHandler3
text$x	ENDS
?getPackagePath@FilePackage@Ogre@@QAE?AV?$basic_string@DU?$char_traits@D@std@@V?$allocator@D@2@@std@@XZ ENDP ; Ogre::FilePackage::getPackagePath
PUBLIC	??0?$vector@PAVPackageDataStreamObject@Ogre@@V?$allocator@PAVPackageDataStreamObject@Ogre@@@std@@@std@@QAE@ABV01@@Z ; std::vector<Ogre::PackageDataStreamObject *,std::allocator<Ogre::PackageDataStreamObject *> >::vector<Ogre::PackageDataStreamObject *,std::allocator<Ogre::PackageDataStreamObject *> >
PUBLIC	??0?$vector@UPkgFileInfo@Ogre@@V?$allocator@UPkgFileInfo@Ogre@@@std@@@std@@QAE@ABV01@@Z ; std::vector<Ogre::PkgFileInfo,std::allocator<Ogre::PkgFileInfo> >::vector<Ogre::PkgFileInfo,std::allocator<Ogre::PkgFileInfo> >
PUBLIC	??0FilePackage@Ogre@@QAE@ABV01@@Z		; Ogre::FilePackage::FilePackage
;	COMDAT xdata$x
xdata$x	SEGMENT
__ehfuncinfo$??0FilePackage@Ogre@@QAE@ABV01@@Z DD 019930522H
	DD	06H
	DD	FLAT:__unwindtable$??0FilePackage@Ogre@@QAE@ABV01@@Z
	DD	2 DUP(00H)
	DD	2 DUP(00H)
	DD	00H
	DD	00H
__unwindtable$??0FilePackage@Ogre@@QAE@ABV01@@Z DD 0ffffffffH
	DD	FLAT:__unwindfunclet$??0FilePackage@Ogre@@QAE@ABV01@@Z$0
	DD	00H
	DD	FLAT:__unwindfunclet$??0FilePackage@Ogre@@QAE@ABV01@@Z$1
	DD	01H
	DD	FLAT:__unwindfunclet$??0FilePackage@Ogre@@QAE@ABV01@@Z$2
	DD	02H
	DD	FLAT:__unwindfunclet$??0FilePackage@Ogre@@QAE@ABV01@@Z$3
	DD	03H
	DD	FLAT:__unwindfunclet$??0FilePackage@Ogre@@QAE@ABV01@@Z$4
	DD	04H
	DD	FLAT:__unwindfunclet$??0FilePackage@Ogre@@QAE@ABV01@@Z$5
; Function compile flags: /Odtp
xdata$x	ENDS
;	COMDAT ??0FilePackage@Ogre@@QAE@ABV01@@Z
_TEXT	SEGMENT
_this$ = -16						; size = 4
__$EHRec$ = -12						; size = 12
___that$ = 8						; size = 4
??0FilePackage@Ogre@@QAE@ABV01@@Z PROC			; Ogre::FilePackage::FilePackage, COMDAT
; _this$ = ecx
	push	ebp
	mov	ebp, esp
	push	-1
	push	__ehhandler$??0FilePackage@Ogre@@QAE@ABV01@@Z
	mov	eax, DWORD PTR fs:0
	push	eax
	push	ecx
	push	esi
	push	edi
	mov	eax, DWORD PTR ___security_cookie
	xor	eax, ebp
	push	eax
	lea	eax, DWORD PTR __$EHRec$[ebp]
	mov	DWORD PTR fs:0, eax
	mov	DWORD PTR _this$[ebp], ecx
	mov	eax, DWORD PTR _this$[ebp]
	mov	ecx, DWORD PTR ___that$[ebp]
	mov	dl, BYTE PTR [ecx]
	mov	BYTE PTR [eax], dl
	mov	eax, DWORD PTR _this$[ebp]
	mov	ecx, DWORD PTR ___that$[ebp]
	mov	edx, DWORD PTR [ecx+4]
	mov	DWORD PTR [eax+4], edx
	mov	esi, DWORD PTR ___that$[ebp]
	add	esi, 8
	mov	edi, DWORD PTR _this$[ebp]
	add	edi, 8
	mov	ecx, 7
	rep movsd
	mov	eax, DWORD PTR ___that$[ebp]
	add	eax, 36					; 00000024H
	push	eax
	mov	ecx, DWORD PTR _this$[ebp]
	add	ecx, 36					; 00000024H
	call	??0?$vector@UPkgFileInfo@Ogre@@V?$allocator@UPkgFileInfo@Ogre@@@std@@@std@@QAE@ABV01@@Z ; std::vector<Ogre::PkgFileInfo,std::allocator<Ogre::PkgFileInfo> >::vector<Ogre::PkgFileInfo,std::allocator<Ogre::PkgFileInfo> >
	mov	DWORD PTR __$EHRec$[ebp+8], 0
	mov	ecx, DWORD PTR ___that$[ebp]
	mov	edx, DWORD PTR [ecx+60]
	mov	eax, DWORD PTR _this$[ebp]
	mov	DWORD PTR [eax+60], edx
	mov	BYTE PTR __$EHRec$[ebp+8], 1
	mov	ecx, DWORD PTR ___that$[ebp]
	add	ecx, 64					; 00000040H
	push	ecx
	mov	ecx, DWORD PTR _this$[ebp]
	add	ecx, 64					; 00000040H
	call	DWORD PTR __imp_??0?$basic_string@DU?$char_traits@D@std@@V?$allocator@D@2@@std@@QAE@ABV01@@Z
	mov	BYTE PTR __$EHRec$[ebp+8], 2
	mov	edx, DWORD PTR _this$[ebp]
	mov	eax, DWORD PTR ___that$[ebp]
	mov	ecx, DWORD PTR [eax+92]
	mov	DWORD PTR [edx+92], ecx
	mov	edx, DWORD PTR _this$[ebp]
	mov	eax, DWORD PTR ___that$[ebp]
	mov	ecx, DWORD PTR [eax+96]
	mov	DWORD PTR [edx+96], ecx
	mov	edx, DWORD PTR _this$[ebp]
	mov	eax, DWORD PTR ___that$[ebp]
	mov	ecx, DWORD PTR [eax+100]
	mov	DWORD PTR [edx+100], ecx
	mov	edx, DWORD PTR ___that$[ebp]
	add	edx, 104				; 00000068H
	push	edx
	mov	ecx, DWORD PTR _this$[ebp]
	add	ecx, 104				; 00000068H
	call	??0?$vector@PAVPackageDataStreamObject@Ogre@@V?$allocator@PAVPackageDataStreamObject@Ogre@@@std@@@std@@QAE@ABV01@@Z ; std::vector<Ogre::PackageDataStreamObject *,std::allocator<Ogre::PackageDataStreamObject *> >::vector<Ogre::PackageDataStreamObject *,std::allocator<Ogre::PackageDataStreamObject *> >
	mov	BYTE PTR __$EHRec$[ebp+8], 3
	mov	eax, DWORD PTR _this$[ebp]
	mov	ecx, DWORD PTR ___that$[ebp]
	mov	edx, DWORD PTR [ecx+128]
	mov	DWORD PTR [eax+128], edx
	mov	eax, DWORD PTR ___that$[ebp]
	mov	ecx, DWORD PTR [eax+132]
	mov	edx, DWORD PTR _this$[ebp]
	mov	DWORD PTR [edx+132], ecx
	mov	BYTE PTR __$EHRec$[ebp+8], 4
	mov	eax, DWORD PTR ___that$[ebp]
	mov	ecx, DWORD PTR [eax+136]
	mov	edx, DWORD PTR _this$[ebp]
	mov	DWORD PTR [edx+136], ecx
	mov	BYTE PTR __$EHRec$[ebp+8], 5
	mov	DWORD PTR __$EHRec$[ebp+8], -1
	mov	eax, DWORD PTR _this$[ebp]
	mov	ecx, DWORD PTR __$EHRec$[ebp]
	mov	DWORD PTR fs:0, ecx
	pop	ecx
	pop	edi
	pop	esi
	mov	esp, ebp
	pop	ebp
	ret	4
_TEXT	ENDS
;	COMDAT text$x
text$x	SEGMENT
__unwindfunclet$??0FilePackage@Ogre@@QAE@ABV01@@Z$0:
	mov	ecx, DWORD PTR _this$[ebp]
	add	ecx, 36					; 00000024H
	jmp	??1?$vector@UPkgFileInfo@Ogre@@V?$allocator@UPkgFileInfo@Ogre@@@std@@@std@@QAE@XZ ; std::vector<Ogre::PkgFileInfo,std::allocator<Ogre::PkgFileInfo> >::~vector<Ogre::PkgFileInfo,std::allocator<Ogre::PkgFileInfo> >
__unwindfunclet$??0FilePackage@Ogre@@QAE@ABV01@@Z$1:
	mov	ecx, DWORD PTR _this$[ebp]
	add	ecx, 60					; 0000003cH
	jmp	??1LockSection@Ogre@@QAE@XZ		; Ogre::LockSection::~LockSection
__unwindfunclet$??0FilePackage@Ogre@@QAE@ABV01@@Z$2:
	mov	ecx, DWORD PTR _this$[ebp]
	add	ecx, 64					; 00000040H
	jmp	DWORD PTR __imp_??1?$basic_string@DU?$char_traits@D@std@@V?$allocator@D@2@@std@@QAE@XZ
__unwindfunclet$??0FilePackage@Ogre@@QAE@ABV01@@Z$3:
	mov	ecx, DWORD PTR _this$[ebp]
	add	ecx, 104				; 00000068H
	jmp	??1?$vector@PAVPackageDataStreamObject@Ogre@@V?$allocator@PAVPackageDataStreamObject@Ogre@@@std@@@std@@QAE@XZ ; std::vector<Ogre::PackageDataStreamObject *,std::allocator<Ogre::PackageDataStreamObject *> >::~vector<Ogre::PackageDataStreamObject *,std::allocator<Ogre::PackageDataStreamObject *> >
__unwindfunclet$??0FilePackage@Ogre@@QAE@ABV01@@Z$4:
	mov	ecx, DWORD PTR _this$[ebp]
	add	ecx, 132				; 00000084H
	jmp	??1LockSection@Ogre@@QAE@XZ		; Ogre::LockSection::~LockSection
__unwindfunclet$??0FilePackage@Ogre@@QAE@ABV01@@Z$5:
	mov	ecx, DWORD PTR _this$[ebp]
	add	ecx, 136				; 00000088H
	jmp	??1LockSection@Ogre@@QAE@XZ		; Ogre::LockSection::~LockSection
__ehhandler$??0FilePackage@Ogre@@QAE@ABV01@@Z:
	mov	edx, DWORD PTR [esp+8]
	lea	eax, DWORD PTR [edx+12]
	mov	ecx, DWORD PTR [edx-16]
	xor	ecx, eax
	call	@__security_check_cookie@4
	mov	eax, OFFSET __ehfuncinfo$??0FilePackage@Ogre@@QAE@ABV01@@Z
	jmp	___CxxFrameHandler3
text$x	ENDS
??0FilePackage@Ogre@@QAE@ABV01@@Z ENDP			; Ogre::FilePackage::FilePackage
PUBLIC	??4?$vector@PAVPackageDataStreamObject@Ogre@@V?$allocator@PAVPackageDataStreamObject@Ogre@@@std@@@std@@QAEAAV01@ABV01@@Z ; std::vector<Ogre::PackageDataStreamObject *,std::allocator<Ogre::PackageDataStreamObject *> >::operator=
PUBLIC	??4?$vector@UPkgFileInfo@Ogre@@V?$allocator@UPkgFileInfo@Ogre@@@std@@@std@@QAEAAV01@ABV01@@Z ; std::vector<Ogre::PkgFileInfo,std::allocator<Ogre::PkgFileInfo> >::operator=
PUBLIC	??4FilePackage@Ogre@@QAEAAV01@ABV01@@Z		; Ogre::FilePackage::operator=
; Function compile flags: /Odtp
;	COMDAT ??4FilePackage@Ogre@@QAEAAV01@ABV01@@Z
_TEXT	SEGMENT
_this$ = -4						; size = 4
___that$ = 8						; size = 4
??4FilePackage@Ogre@@QAEAAV01@ABV01@@Z PROC		; Ogre::FilePackage::operator=, COMDAT
; _this$ = ecx
	push	ebp
	mov	ebp, esp
	push	ecx
	push	esi
	push	edi
	mov	DWORD PTR _this$[ebp], ecx
	mov	eax, DWORD PTR _this$[ebp]
	mov	ecx, DWORD PTR ___that$[ebp]
	mov	dl, BYTE PTR [ecx]
	mov	BYTE PTR [eax], dl
	mov	eax, DWORD PTR _this$[ebp]
	mov	ecx, DWORD PTR ___that$[ebp]
	mov	edx, DWORD PTR [ecx+4]
	mov	DWORD PTR [eax+4], edx
	mov	esi, DWORD PTR ___that$[ebp]
	add	esi, 8
	mov	edi, DWORD PTR _this$[ebp]
	add	edi, 8
	mov	ecx, 7
	rep movsd
	mov	eax, DWORD PTR ___that$[ebp]
	add	eax, 36					; 00000024H
	push	eax
	mov	ecx, DWORD PTR _this$[ebp]
	add	ecx, 36					; 00000024H
	call	??4?$vector@UPkgFileInfo@Ogre@@V?$allocator@UPkgFileInfo@Ogre@@@std@@@std@@QAEAAV01@ABV01@@Z ; std::vector<Ogre::PkgFileInfo,std::allocator<Ogre::PkgFileInfo> >::operator=
	mov	ecx, DWORD PTR ___that$[ebp]
	mov	edx, DWORD PTR [ecx+60]
	mov	eax, DWORD PTR _this$[ebp]
	mov	DWORD PTR [eax+60], edx
	mov	ecx, DWORD PTR ___that$[ebp]
	add	ecx, 64					; 00000040H
	push	ecx
	mov	ecx, DWORD PTR _this$[ebp]
	add	ecx, 64					; 00000040H
	call	DWORD PTR __imp_??4?$basic_string@DU?$char_traits@D@std@@V?$allocator@D@2@@std@@QAEAAV01@ABV01@@Z
	mov	edx, DWORD PTR _this$[ebp]
	mov	eax, DWORD PTR ___that$[ebp]
	mov	ecx, DWORD PTR [eax+92]
	mov	DWORD PTR [edx+92], ecx
	mov	edx, DWORD PTR _this$[ebp]
	mov	eax, DWORD PTR ___that$[ebp]
	mov	ecx, DWORD PTR [eax+96]
	mov	DWORD PTR [edx+96], ecx
	mov	edx, DWORD PTR _this$[ebp]
	mov	eax, DWORD PTR ___that$[ebp]
	mov	ecx, DWORD PTR [eax+100]
	mov	DWORD PTR [edx+100], ecx
	mov	edx, DWORD PTR ___that$[ebp]
	add	edx, 104				; 00000068H
	push	edx
	mov	ecx, DWORD PTR _this$[ebp]
	add	ecx, 104				; 00000068H
	call	??4?$vector@PAVPackageDataStreamObject@Ogre@@V?$allocator@PAVPackageDataStreamObject@Ogre@@@std@@@std@@QAEAAV01@ABV01@@Z ; std::vector<Ogre::PackageDataStreamObject *,std::allocator<Ogre::PackageDataStreamObject *> >::operator=
	mov	eax, DWORD PTR _this$[ebp]
	mov	ecx, DWORD PTR ___that$[ebp]
	mov	edx, DWORD PTR [ecx+128]
	mov	DWORD PTR [eax+128], edx
	mov	eax, DWORD PTR ___that$[ebp]
	mov	ecx, DWORD PTR [eax+132]
	mov	edx, DWORD PTR _this$[ebp]
	mov	DWORD PTR [edx+132], ecx
	mov	eax, DWORD PTR ___that$[ebp]
	mov	ecx, DWORD PTR [eax+136]
	mov	edx, DWORD PTR _this$[ebp]
	mov	DWORD PTR [edx+136], ecx
	mov	eax, DWORD PTR _this$[ebp]
	pop	edi
	pop	esi
	mov	esp, ebp
	pop	ebp
	ret	4
??4FilePackage@Ogre@@QAEAAV01@ABV01@@Z ENDP		; Ogre::FilePackage::operator=
_TEXT	ENDS
PUBLIC	??4StringUtil@Ogre@@QAEAAV01@ABV01@@Z		; Ogre::StringUtil::operator=
; Function compile flags: /Odtp
;	COMDAT ??4StringUtil@Ogre@@QAEAAV01@ABV01@@Z
_TEXT	SEGMENT
_this$ = -4						; size = 4
___that$ = 8						; size = 4
??4StringUtil@Ogre@@QAEAAV01@ABV01@@Z PROC		; Ogre::StringUtil::operator=, COMDAT
; _this$ = ecx
	push	ebp
	mov	ebp, esp
	push	ecx
	mov	DWORD PTR _this$[ebp], ecx
	mov	eax, DWORD PTR _this$[ebp]
	mov	esp, ebp
	pop	ebp
	ret	4
??4StringUtil@Ogre@@QAEAAV01@ABV01@@Z ENDP		; Ogre::StringUtil::operator=
_TEXT	ENDS
PUBLIC	??4MemoryDelegation@Ogre@@QAEAAV01@ABV01@@Z	; Ogre::MemoryDelegation::operator=
; Function compile flags: /Odtp
;	COMDAT ??4MemoryDelegation@Ogre@@QAEAAV01@ABV01@@Z
_TEXT	SEGMENT
_this$ = -4						; size = 4
___that$ = 8						; size = 4
??4MemoryDelegation@Ogre@@QAEAAV01@ABV01@@Z PROC	; Ogre::MemoryDelegation::operator=, COMDAT
; _this$ = ecx
	push	ebp
	mov	ebp, esp
	push	ecx
	mov	DWORD PTR _this$[ebp], ecx
	mov	eax, DWORD PTR _this$[ebp]
	mov	esp, ebp
	pop	ebp
	ret	4
??4MemoryDelegation@Ogre@@QAEAAV01@ABV01@@Z ENDP	; Ogre::MemoryDelegation::operator=
_TEXT	ENDS
PUBLIC	??0PackageDataStreamObject@Ogre@@QAE@PAVFilePackage@1@I@Z ; Ogre::PackageDataStreamObject::PackageDataStreamObject
EXTRN	?alloc@Ogre@@YAPAXI@Z:PROC			; Ogre::alloc
xdata$x	SEGMENT
__unwindtable$??0PackageDataStreamObject@Ogre@@QAE@PAVFilePackage@1@I@Z DD 0ffffffffH
	DD	FLAT:__unwindfunclet$??0PackageDataStreamObject@Ogre@@QAE@PAVFilePackage@1@I@Z$0
__ehfuncinfo$??0PackageDataStreamObject@Ogre@@QAE@PAVFilePackage@1@I@Z DD 019930522H
	DD	01H
	DD	FLAT:__unwindtable$??0PackageDataStreamObject@Ogre@@QAE@PAVFilePackage@1@I@Z
	DD	2 DUP(00H)
	DD	2 DUP(00H)
	DD	00H
	DD	00H
; Function compile flags: /Odtp
; File i:\svnroot\client\ogremain\ogrepackagefile.cpp
xdata$x	ENDS
_TEXT	SEGMENT
_this$ = -16						; size = 4
__$EHRec$ = -12						; size = 12
_pkg$ = 8						; size = 4
_size$ = 12						; size = 4
??0PackageDataStreamObject@Ogre@@QAE@PAVFilePackage@1@I@Z PROC ; Ogre::PackageDataStreamObject::PackageDataStreamObject
; _this$ = ecx

; 45   : 	{

	push	ebp
	mov	ebp, esp
	push	-1
	push	__ehhandler$??0PackageDataStreamObject@Ogre@@QAE@PAVFilePackage@1@I@Z
	mov	eax, DWORD PTR fs:0
	push	eax
	push	ecx
	mov	eax, DWORD PTR ___security_cookie
	xor	eax, ebp
	push	eax
	lea	eax, DWORD PTR __$EHRec$[ebp]
	mov	DWORD PTR fs:0, eax
	mov	DWORD PTR _this$[ebp], ecx
	mov	ecx, DWORD PTR _this$[ebp]
	call	??0DataStreamObject@Ogre@@QAE@XZ
	mov	DWORD PTR __$EHRec$[ebp+8], 0
	mov	eax, DWORD PTR _this$[ebp]
	mov	DWORD PTR [eax], OFFSET ??_7PackageDataStreamObject@Ogre@@6B@

; 46   : 		mPkg = pkg;

	mov	ecx, DWORD PTR _this$[ebp]
	mov	edx, DWORD PTR _pkg$[ebp]
	mov	DWORD PTR [ecx+4], edx

; 47   : 		mPtr = alloc(size);

	mov	eax, DWORD PTR _size$[ebp]
	push	eax
	call	?alloc@Ogre@@YAPAXI@Z			; Ogre::alloc
	add	esp, 4
	mov	ecx, DWORD PTR _this$[ebp]
	mov	DWORD PTR [ecx+16], eax

; 48   : 		mSize = size;

	mov	edx, DWORD PTR _this$[ebp]
	mov	eax, DWORD PTR _size$[ebp]
	mov	DWORD PTR [edx+8], eax

; 49   : 		mLength = 0;

	mov	ecx, DWORD PTR _this$[ebp]
	mov	DWORD PTR [ecx+12], 0

; 50   : 	}

	mov	DWORD PTR __$EHRec$[ebp+8], -1
	mov	eax, DWORD PTR _this$[ebp]
	mov	ecx, DWORD PTR __$EHRec$[ebp]
	mov	DWORD PTR fs:0, ecx
	pop	ecx
	mov	esp, ebp
	pop	ebp
	ret	8
_TEXT	ENDS
text$x	SEGMENT
__unwindfunclet$??0PackageDataStreamObject@Ogre@@QAE@PAVFilePackage@1@I@Z$0:
	mov	ecx, DWORD PTR _this$[ebp]
	jmp	??1DataStreamObject@Ogre@@MAE@XZ	; Ogre::DataStreamObject::~DataStreamObject
__ehhandler$??0PackageDataStreamObject@Ogre@@QAE@PAVFilePackage@1@I@Z:
	mov	edx, DWORD PTR [esp+8]
	lea	eax, DWORD PTR [edx+12]
	mov	ecx, DWORD PTR [edx-8]
	xor	ecx, eax
	call	@__security_check_cookie@4
	mov	eax, OFFSET __ehfuncinfo$??0PackageDataStreamObject@Ogre@@QAE@PAVFilePackage@1@I@Z
	jmp	___CxxFrameHandler3
text$x	ENDS
??0PackageDataStreamObject@Ogre@@QAE@PAVFilePackage@1@I@Z ENDP ; Ogre::PackageDataStreamObject::PackageDataStreamObject
EXTRN	?release@Ogre@@YAXPAX@Z:PROC			; Ogre::release
xdata$x	SEGMENT
__unwindtable$??1PackageDataStreamObject@Ogre@@UAE@XZ DD 0ffffffffH
	DD	FLAT:__unwindfunclet$??1PackageDataStreamObject@Ogre@@UAE@XZ$0
__ehfuncinfo$??1PackageDataStreamObject@Ogre@@UAE@XZ DD 019930522H
	DD	01H
	DD	FLAT:__unwindtable$??1PackageDataStreamObject@Ogre@@UAE@XZ
	DD	2 DUP(00H)
	DD	2 DUP(00H)
	DD	00H
	DD	00H
; Function compile flags: /Odtp
xdata$x	ENDS
_TEXT	SEGMENT
_this$ = -16						; size = 4
__$EHRec$ = -12						; size = 12
??1PackageDataStreamObject@Ogre@@UAE@XZ PROC		; Ogre::PackageDataStreamObject::~PackageDataStreamObject
; _this$ = ecx

; 53   : 	{

	push	ebp
	mov	ebp, esp
	push	-1
	push	__ehhandler$??1PackageDataStreamObject@Ogre@@UAE@XZ
	mov	eax, DWORD PTR fs:0
	push	eax
	push	ecx
	mov	eax, DWORD PTR ___security_cookie
	xor	eax, ebp
	push	eax
	lea	eax, DWORD PTR __$EHRec$[ebp]
	mov	DWORD PTR fs:0, eax
	mov	DWORD PTR _this$[ebp], ecx
	mov	eax, DWORD PTR _this$[ebp]
	mov	DWORD PTR [eax], OFFSET ??_7PackageDataStreamObject@Ogre@@6B@
	mov	DWORD PTR __$EHRec$[ebp+8], 0

; 54   : 		Ogre::release(mPtr);

	mov	ecx, DWORD PTR _this$[ebp]
	mov	edx, DWORD PTR [ecx+16]
	push	edx
	call	?release@Ogre@@YAXPAX@Z			; Ogre::release
	add	esp, 4

; 55   : 	}

	mov	DWORD PTR __$EHRec$[ebp+8], -1
	mov	ecx, DWORD PTR _this$[ebp]
	call	??1DataStreamObject@Ogre@@MAE@XZ	; Ogre::DataStreamObject::~DataStreamObject
	mov	ecx, DWORD PTR __$EHRec$[ebp]
	mov	DWORD PTR fs:0, ecx
	pop	ecx
	mov	esp, ebp
	pop	ebp
	ret	0
_TEXT	ENDS
text$x	SEGMENT
__unwindfunclet$??1PackageDataStreamObject@Ogre@@UAE@XZ$0:
	mov	ecx, DWORD PTR _this$[ebp]
	jmp	??1DataStreamObject@Ogre@@MAE@XZ	; Ogre::DataStreamObject::~DataStreamObject
__ehhandler$??1PackageDataStreamObject@Ogre@@UAE@XZ:
	mov	edx, DWORD PTR [esp+8]
	lea	eax, DWORD PTR [edx+12]
	mov	ecx, DWORD PTR [edx-8]
	xor	ecx, eax
	call	@__security_check_cookie@4
	mov	eax, OFFSET __ehfuncinfo$??1PackageDataStreamObject@Ogre@@UAE@XZ
	jmp	___CxxFrameHandler3
text$x	ENDS
??1PackageDataStreamObject@Ogre@@UAE@XZ ENDP		; Ogre::PackageDataStreamObject::~PackageDataStreamObject
PUBLIC	?freeBufferObject@FilePackage@Ogre@@QAEXPAVPackageDataStreamObject@2@@Z ; Ogre::FilePackage::freeBufferObject
; Function compile flags: /Odtp
_TEXT	SEGMENT
_this$ = -4						; size = 4
?release@PackageDataStreamObject@Ogre@@UAEXXZ PROC	; Ogre::PackageDataStreamObject::release
; _this$ = ecx

; 58   : 	{

	push	ebp
	mov	ebp, esp
	push	ecx
	mov	DWORD PTR _this$[ebp], ecx

; 59   : 		mPkg->freeBufferObject(this);

	mov	eax, DWORD PTR _this$[ebp]
	push	eax
	mov	ecx, DWORD PTR _this$[ebp]
	mov	ecx, DWORD PTR [ecx+4]
	call	?freeBufferObject@FilePackage@Ogre@@QAEXPAVPackageDataStreamObject@2@@Z ; Ogre::FilePackage::freeBufferObject

; 60   : 	}

	mov	esp, ebp
	pop	ebp
	ret	0
?release@PackageDataStreamObject@Ogre@@UAEXXZ ENDP	; Ogre::PackageDataStreamObject::release
; Function compile flags: /Odtp
_this$ = -4						; size = 4
?buffer@PackageDataStreamObject@Ogre@@UAEPAXXZ PROC	; Ogre::PackageDataStreamObject::buffer
; _this$ = ecx

; 63   : 	{

	push	ebp
	mov	ebp, esp
	push	ecx
	mov	DWORD PTR _this$[ebp], ecx

; 64   : 		return mPtr;

	mov	eax, DWORD PTR _this$[ebp]
	mov	eax, DWORD PTR [eax+16]

; 65   : 	}

	mov	esp, ebp
	pop	ebp
	ret	0
?buffer@PackageDataStreamObject@Ogre@@UAEPAXXZ ENDP	; Ogre::PackageDataStreamObject::buffer
; Function compile flags: /Odtp
_this$ = -4						; size = 4
_len$ = 8						; size = 4
?buffer@PackageDataStreamObject@Ogre@@UAEPAXI@Z PROC	; Ogre::PackageDataStreamObject::buffer
; _this$ = ecx

; 68   : 	{

	push	ebp
	mov	ebp, esp
	push	ecx
	mov	DWORD PTR _this$[ebp], ecx

; 69   : 		if (len <= mSize)

	mov	eax, DWORD PTR _this$[ebp]
	mov	ecx, DWORD PTR _len$[ebp]
	cmp	ecx, DWORD PTR [eax+8]
	ja	SHORT $LN1@buffer

; 70   : 		{
; 71   : 			return mPtr;

	mov	edx, DWORD PTR _this$[ebp]
	mov	eax, DWORD PTR [edx+16]
	jmp	SHORT $LN2@buffer
$LN1@buffer:

; 72   : 		}
; 73   : 		return NULL;

	xor	eax, eax
$LN2@buffer:

; 74   : 	}

	mov	esp, ebp
	pop	ebp
	ret	4
?buffer@PackageDataStreamObject@Ogre@@UAEPAXI@Z ENDP	; Ogre::PackageDataStreamObject::buffer
; Function compile flags: /Odtp
_this$ = -4						; size = 4
?length@PackageDataStreamObject@Ogre@@UAEIXZ PROC	; Ogre::PackageDataStreamObject::length
; _this$ = ecx

; 77   : 	{

	push	ebp
	mov	ebp, esp
	push	ecx
	mov	DWORD PTR _this$[ebp], ecx

; 78   : 		return mLength;

	mov	eax, DWORD PTR _this$[ebp]
	mov	eax, DWORD PTR [eax+12]

; 79   : 	}

	mov	esp, ebp
	pop	ebp
	ret	0
?length@PackageDataStreamObject@Ogre@@UAEIXZ ENDP	; Ogre::PackageDataStreamObject::length
; Function compile flags: /Odtp
_this$ = -4						; size = 4
?size@PackageDataStreamObject@Ogre@@UAEIXZ PROC		; Ogre::PackageDataStreamObject::size
; _this$ = ecx

; 82   : 	{

	push	ebp
	mov	ebp, esp
	push	ecx
	mov	DWORD PTR _this$[ebp], ecx

; 83   : 		return mSize;

	mov	eax, DWORD PTR _this$[ebp]
	mov	eax, DWORD PTR [eax+8]

; 84   : 	}

	mov	esp, ebp
	pop	ebp
	ret	0
?size@PackageDataStreamObject@Ogre@@UAEIXZ ENDP		; Ogre::PackageDataStreamObject::size
; Function compile flags: /Odtp
_this$ = -4						; size = 4
_len$ = 8						; size = 4
?shift@PackageDataStreamObject@Ogre@@UAEXI@Z PROC	; Ogre::PackageDataStreamObject::shift
; _this$ = ecx

; 87   : 	{

	push	ebp
	mov	ebp, esp
	push	ecx
	mov	DWORD PTR _this$[ebp], ecx

; 88   : 		mLength = len;

	mov	eax, DWORD PTR _this$[ebp]
	mov	ecx, DWORD PTR _len$[ebp]
	mov	DWORD PTR [eax+12], ecx

; 89   : 	}

	mov	esp, ebp
	pop	ebp
	ret	4
?shift@PackageDataStreamObject@Ogre@@UAEXI@Z ENDP	; Ogre::PackageDataStreamObject::shift
_TEXT	ENDS
PUBLIC	?resize@?$vector@UPkgFileInfo@Ogre@@V?$allocator@UPkgFileInfo@Ogre@@@std@@@std@@QAEXI@Z ; std::vector<Ogre::PkgFileInfo,std::allocator<Ogre::PkgFileInfo> >::resize
PUBLIC	?open@FilePackage@Ogre@@QAE_NABV?$basic_string@DU?$char_traits@D@std@@V?$allocator@D@2@@std@@_N@Z ; Ogre::FilePackage::open
EXTRN	__imp__fseek:PROC
EXTRN	__imp__fread:PROC
EXTRN	?LogMessage@Ogre@@YAXPBDZZ:PROC			; Ogre::LogMessage
EXTRN	?LogSetCurParam@Ogre@@YAXPBDHI@Z:PROC		; Ogre::LogSetCurParam
EXTRN	__imp__fopen:PROC
EXTRN	__imp_?c_str@?$basic_string@DU?$char_traits@D@std@@V?$allocator@D@2@@std@@QBEPBDXZ:PROC
; Function compile flags: /Odtp
_TEXT	SEGMENT
tv71 = -16						; size = 4
_this$ = -12						; size = 4
_info$116436 = -8					; size = 4
_i$116432 = -4						; size = 4
_packpath$ = 8						; size = 4
_readonly$ = 12						; size = 1
?open@FilePackage@Ogre@@QAE_NABV?$basic_string@DU?$char_traits@D@std@@V?$allocator@D@2@@std@@_N@Z PROC ; Ogre::FilePackage::open
; _this$ = ecx

; 92   : 	{

	push	ebp
	mov	ebp, esp
	sub	esp, 16					; 00000010H
	mov	DWORD PTR _this$[ebp], ecx

; 93   : 		m_ReadOnly = readonly;

	mov	eax, DWORD PTR _this$[ebp]
	mov	cl, BYTE PTR _readonly$[ebp]
	mov	BYTE PTR [eax], cl

; 94   : 		m_PackagePath = packpath;

	mov	edx, DWORD PTR _packpath$[ebp]
	push	edx
	mov	ecx, DWORD PTR _this$[ebp]
	add	ecx, 64					; 00000040H
	call	DWORD PTR __imp_??4?$basic_string@DU?$char_traits@D@std@@V?$allocator@D@2@@std@@QAEAAV01@ABV01@@Z

; 95   : 		m_FP = fopen(packpath.c_str(), readonly?"rb":"r+b");

	movzx	eax, BYTE PTR _readonly$[ebp]
	test	eax, eax
	je	SHORT $LN16@open
	mov	DWORD PTR tv71[ebp], OFFSET $SG116414
	jmp	SHORT $LN17@open
$LN16@open:
	mov	DWORD PTR tv71[ebp], OFFSET $SG116415
$LN17@open:
	mov	ecx, DWORD PTR tv71[ebp]
	push	ecx
	mov	ecx, DWORD PTR _packpath$[ebp]
	call	DWORD PTR __imp_?c_str@?$basic_string@DU?$char_traits@D@std@@V?$allocator@D@2@@std@@QBEPBDXZ
	push	eax
	call	DWORD PTR __imp__fopen
	add	esp, 8
	mov	edx, DWORD PTR _this$[ebp]
	mov	DWORD PTR [edx+4], eax

; 96   : 		if(m_FP == NULL)

	mov	eax, DWORD PTR _this$[ebp]
	cmp	DWORD PTR [eax+4], 0
	jne	$LN13@open

; 97   : 		{
; 98   : 			if(readonly)

	movzx	ecx, BYTE PTR _readonly$[ebp]
	test	ecx, ecx
	je	SHORT $LN12@open

; 99   : 			{
; 100  : 				LOG_SEVERE("open pkgfile error: %s", packpath.c_str());

	push	8
	push	100					; 00000064H
	push	OFFSET $SG116418
	call	?LogSetCurParam@Ogre@@YAXPBDHI@Z	; Ogre::LogSetCurParam
	add	esp, 12					; 0000000cH
	mov	ecx, DWORD PTR _packpath$[ebp]
	call	DWORD PTR __imp_?c_str@?$basic_string@DU?$char_traits@D@std@@V?$allocator@D@2@@std@@QBEPBDXZ
	push	eax
	push	OFFSET $SG116419
	call	?LogMessage@Ogre@@YAXPBDZZ		; Ogre::LogMessage
	add	esp, 8

; 101  : 				return false;

	xor	al, al
	jmp	$LN14@open

; 102  : 			}
; 103  : 			else

	jmp	SHORT $LN13@open
$LN12@open:

; 104  : 			{
; 105  : 				if(!NewPackageFile(packpath.c_str())) 

	mov	ecx, DWORD PTR _packpath$[ebp]
	call	DWORD PTR __imp_?c_str@?$basic_string@DU?$char_traits@D@std@@V?$allocator@D@2@@std@@QBEPBDXZ
	push	eax
	call	?NewPackageFile@Ogre@@YA_NPBD@Z		; Ogre::NewPackageFile
	add	esp, 4
	movzx	edx, al
	test	edx, edx
	jne	SHORT $LN10@open

; 106  : 					return false;

	xor	al, al
	jmp	$LN14@open
$LN10@open:

; 107  : 				m_FP = fopen(packpath.c_str(), "r+b");

	push	OFFSET $SG116422
	mov	ecx, DWORD PTR _packpath$[ebp]
	call	DWORD PTR __imp_?c_str@?$basic_string@DU?$char_traits@D@std@@V?$allocator@D@2@@std@@QBEPBDXZ
	push	eax
	call	DWORD PTR __imp__fopen
	add	esp, 8
	mov	ecx, DWORD PTR _this$[ebp]
	mov	DWORD PTR [ecx+4], eax

; 108  : 				if(m_FP == NULL)

	mov	edx, DWORD PTR _this$[ebp]
	cmp	DWORD PTR [edx+4], 0
	jne	SHORT $LN13@open

; 109  : 					return false;

	xor	al, al
	jmp	$LN14@open
$LN13@open:

; 110  : 			}
; 111  : 		} 
; 112  : 
; 113  : 		if(1 != fread(&m_PkgDesc, sizeof(m_PkgDesc), 1, m_FP))

	mov	eax, DWORD PTR _this$[ebp]
	mov	ecx, DWORD PTR [eax+4]
	push	ecx
	push	1
	push	28					; 0000001cH
	mov	edx, DWORD PTR _this$[ebp]
	add	edx, 8
	push	edx
	call	DWORD PTR __imp__fread
	add	esp, 16					; 00000010H
	cmp	eax, 1
	je	SHORT $LN8@open

; 114  : 		{
; 115  : 			LOG_SEVERE("read pkgfile error: %s", packpath.c_str());

	push	8
	push	115					; 00000073H
	push	OFFSET $SG116425
	call	?LogSetCurParam@Ogre@@YAXPBDHI@Z	; Ogre::LogSetCurParam
	add	esp, 12					; 0000000cH
	mov	ecx, DWORD PTR _packpath$[ebp]
	call	DWORD PTR __imp_?c_str@?$basic_string@DU?$char_traits@D@std@@V?$allocator@D@2@@std@@QBEPBDXZ
	push	eax
	push	OFFSET $SG116426
	call	?LogMessage@Ogre@@YAXPBDZZ		; Ogre::LogMessage
	add	esp, 8

; 116  : 			return false;

	xor	al, al
	jmp	$LN14@open
$LN8@open:

; 117  : 		}
; 118  : 
; 119  : 		m_FileTable.resize(m_PkgDesc.numfiles);

	mov	eax, DWORD PTR _this$[ebp]
	mov	ecx, DWORD PTR [eax+16]
	push	ecx
	mov	ecx, DWORD PTR _this$[ebp]
	add	ecx, 36					; 00000024H
	call	?resize@?$vector@UPkgFileInfo@Ogre@@V?$allocator@UPkgFileInfo@Ogre@@@std@@@std@@QAEXI@Z ; std::vector<Ogre::PkgFileInfo,std::allocator<Ogre::PkgFileInfo> >::resize

; 120  : 		if(m_PkgDesc.numfiles > 0)

	mov	edx, DWORD PTR _this$[ebp]
	cmp	DWORD PTR [edx+16], 0
	jle	SHORT $LN7@open

; 121  : 		{
; 122  : 			fseek(m_FP, m_PkgDesc.keyoffset, SEEK_SET);

	push	0
	mov	eax, DWORD PTR _this$[ebp]
	mov	ecx, DWORD PTR [eax+20]
	push	ecx
	mov	edx, DWORD PTR _this$[ebp]
	mov	eax, DWORD PTR [edx+4]
	push	eax
	call	DWORD PTR __imp__fseek
	add	esp, 12					; 0000000cH

; 123  : 			if(1!=fread(&m_FileTable[0], m_PkgDesc.numfiles*sizeof(PkgFileInfo), 1, m_FP))

	mov	ecx, DWORD PTR _this$[ebp]
	mov	edx, DWORD PTR [ecx+4]
	push	edx
	push	1
	mov	eax, DWORD PTR _this$[ebp]
	mov	ecx, DWORD PTR [eax+16]
	imul	ecx, 24					; 00000018H
	push	ecx
	push	0
	mov	ecx, DWORD PTR _this$[ebp]
	add	ecx, 36					; 00000024H
	call	??A?$vector@UPkgFileInfo@Ogre@@V?$allocator@UPkgFileInfo@Ogre@@@std@@@std@@QAEAAUPkgFileInfo@Ogre@@I@Z ; std::vector<Ogre::PkgFileInfo,std::allocator<Ogre::PkgFileInfo> >::operator[]
	push	eax
	call	DWORD PTR __imp__fread
	add	esp, 16					; 00000010H
	cmp	eax, 1
	je	SHORT $LN7@open

; 124  : 			{
; 125  : 				LOG_SEVERE("read pkgfile error: %s", packpath.c_str());

	push	8
	push	125					; 0000007dH
	push	OFFSET $SG116430
	call	?LogSetCurParam@Ogre@@YAXPBDHI@Z	; Ogre::LogSetCurParam
	add	esp, 12					; 0000000cH
	mov	ecx, DWORD PTR _packpath$[ebp]
	call	DWORD PTR __imp_?c_str@?$basic_string@DU?$char_traits@D@std@@V?$allocator@D@2@@std@@QBEPBDXZ
	push	eax
	push	OFFSET $SG116431
	call	?LogMessage@Ogre@@YAXPBDZZ		; Ogre::LogMessage
	add	esp, 8

; 126  : 				return false;

	xor	al, al
	jmp	$LN14@open
$LN7@open:

; 127  : 			}
; 128  : 		}
; 129  : 		m_MaxOriginSize = 0;

	mov	edx, DWORD PTR _this$[ebp]
	mov	DWORD PTR [edx+92], 0

; 130  : 		m_MaxPackSize = 0;

	mov	eax, DWORD PTR _this$[ebp]
	mov	DWORD PTR [eax+96], 0

; 131  : 		for (size_t i = 0; i < m_FileTable.size(); ++i)

	mov	DWORD PTR _i$116432[ebp], 0
	jmp	SHORT $LN5@open
$LN4@open:
	mov	ecx, DWORD PTR _i$116432[ebp]
	add	ecx, 1
	mov	DWORD PTR _i$116432[ebp], ecx
$LN5@open:
	mov	ecx, DWORD PTR _this$[ebp]
	add	ecx, 36					; 00000024H
	call	?size@?$vector@UPkgFileInfo@Ogre@@V?$allocator@UPkgFileInfo@Ogre@@@std@@@std@@QBEIXZ ; std::vector<Ogre::PkgFileInfo,std::allocator<Ogre::PkgFileInfo> >::size
	cmp	DWORD PTR _i$116432[ebp], eax
	jae	SHORT $LN3@open

; 132  : 		{
; 133  : 			PkgFileInfo &info = m_FileTable[i];

	mov	edx, DWORD PTR _i$116432[ebp]
	push	edx
	mov	ecx, DWORD PTR _this$[ebp]
	add	ecx, 36					; 00000024H
	call	??A?$vector@UPkgFileInfo@Ogre@@V?$allocator@UPkgFileInfo@Ogre@@@std@@@std@@QAEAAUPkgFileInfo@Ogre@@I@Z ; std::vector<Ogre::PkgFileInfo,std::allocator<Ogre::PkgFileInfo> >::operator[]
	mov	DWORD PTR _info$116436[ebp], eax

; 134  : 			if (m_MaxOriginSize < info.originsize)

	mov	eax, DWORD PTR _this$[ebp]
	mov	ecx, DWORD PTR _info$116436[ebp]
	mov	edx, DWORD PTR [eax+92]
	cmp	edx, DWORD PTR [ecx+12]
	jae	SHORT $LN2@open

; 135  : 			{
; 136  : 				m_MaxOriginSize = info.originsize;

	mov	eax, DWORD PTR _this$[ebp]
	mov	ecx, DWORD PTR _info$116436[ebp]
	mov	edx, DWORD PTR [ecx+12]
	mov	DWORD PTR [eax+92], edx
$LN2@open:

; 137  : 			}
; 138  : 			if (m_MaxPackSize < info.packsize)

	mov	eax, DWORD PTR _this$[ebp]
	mov	ecx, DWORD PTR _info$116436[ebp]
	mov	edx, DWORD PTR [eax+96]
	cmp	edx, DWORD PTR [ecx+16]
	jae	SHORT $LN1@open

; 139  : 			{
; 140  : 				m_MaxPackSize = info.packsize;

	mov	eax, DWORD PTR _this$[ebp]
	mov	ecx, DWORD PTR _info$116436[ebp]
	mov	edx, DWORD PTR [ecx+16]
	mov	DWORD PTR [eax+96], edx
$LN1@open:

; 141  : 			}
; 142  : 		}

	jmp	SHORT $LN4@open
$LN3@open:

; 143  : 		m_PackBuffer = alloc(m_MaxPackSize);

	mov	eax, DWORD PTR _this$[ebp]
	mov	ecx, DWORD PTR [eax+96]
	push	ecx
	call	?alloc@Ogre@@YAPAXI@Z			; Ogre::alloc
	add	esp, 4
	mov	edx, DWORD PTR _this$[ebp]
	mov	DWORD PTR [edx+100], eax

; 144  : 
; 145  : 		return true;

	mov	al, 1
$LN14@open:

; 146  : 	}

	mov	esp, ebp
	pop	ebp
	ret	8
?open@FilePackage@Ogre@@QAE_NABV?$basic_string@DU?$char_traits@D@std@@V?$allocator@D@2@@std@@_N@Z ENDP ; Ogre::FilePackage::open
_TEXT	ENDS
EXTRN	__imp__fclose:PROC
EXTRN	__imp__fwrite:PROC
; Function compile flags: /Odtp
_TEXT	SEGMENT
_fp$ = -32						; size = 4
_pkgheader$ = -28					; size = 28
_path$ = 8						; size = 4
?NewPackageFile@Ogre@@YA_NPBD@Z PROC			; Ogre::NewPackageFile

; 17   : 	{

	push	ebp
	mov	ebp, esp
	sub	esp, 32					; 00000020H

; 18   : 		FILE *fp = fopen(path, "wb" );

	push	OFFSET $SG116374
	mov	eax, DWORD PTR _path$[ebp]
	push	eax
	call	DWORD PTR __imp__fopen
	add	esp, 8
	mov	DWORD PTR _fp$[ebp], eax

; 19   : 		if(fp == NULL)

	cmp	DWORD PTR _fp$[ebp], 0
	jne	SHORT $LN2@NewPackage

; 20   : 		{
; 21   : 			return false;

	xor	al, al
	jmp	$LN3@NewPackage
$LN2@NewPackage:

; 22   : 		}
; 23   : 
; 24   : 		PackageHeader pkgheader;
; 25   : 		pkgheader.id = 0x56789abc;

	mov	DWORD PTR _pkgheader$[ebp], 1450744508	; 56789abcH

; 26   : 		pkgheader.version = PACKAGE_VERSION;

	mov	DWORD PTR _pkgheader$[ebp+4], 100	; 00000064H

; 27   : 		pkgheader.numfiles = 0;

	mov	DWORD PTR _pkgheader$[ebp+8], 0

; 28   : 		pkgheader.keyoffset = sizeof(pkgheader);

	mov	DWORD PTR _pkgheader$[ebp+12], 28	; 0000001cH

; 29   : 		pkgheader.keylen = 0;

	mov	DWORD PTR _pkgheader$[ebp+16], 0

; 30   : 		pkgheader.dataoffset = sizeof(pkgheader);

	mov	DWORD PTR _pkgheader$[ebp+20], 28	; 0000001cH

; 31   : 		pkgheader.datalen = 0;

	mov	DWORD PTR _pkgheader$[ebp+24], 0

; 32   : 
; 33   : 		if(fwrite(&pkgheader, sizeof(pkgheader), 1, fp) != 1)

	mov	ecx, DWORD PTR _fp$[ebp]
	push	ecx
	push	1
	push	28					; 0000001cH
	lea	edx, DWORD PTR _pkgheader$[ebp]
	push	edx
	call	DWORD PTR __imp__fwrite
	add	esp, 16					; 00000010H
	cmp	eax, 1
	je	SHORT $LN1@NewPackage

; 34   : 		{
; 35   : 			LOG_SEVERE("write pkgfile error");

	push	8
	push	35					; 00000023H
	push	OFFSET $SG116378
	call	?LogSetCurParam@Ogre@@YAXPBDHI@Z	; Ogre::LogSetCurParam
	add	esp, 12					; 0000000cH
	push	OFFSET $SG116379
	call	?LogMessage@Ogre@@YAXPBDZZ		; Ogre::LogMessage
	add	esp, 4

; 36   : 			fclose(fp);

	mov	eax, DWORD PTR _fp$[ebp]
	push	eax
	call	DWORD PTR __imp__fclose
	add	esp, 4

; 37   : 			return false;

	xor	al, al
	jmp	SHORT $LN3@NewPackage
$LN1@NewPackage:

; 38   : 		}
; 39   : 
; 40   : 		fclose(fp);

	mov	ecx, DWORD PTR _fp$[ebp]
	push	ecx
	call	DWORD PTR __imp__fclose
	add	esp, 4

; 41   : 		return true;

	mov	al, 1
$LN3@NewPackage:

; 42   : 	}

	mov	esp, ebp
	pop	ebp
	ret	0
?NewPackageFile@Ogre@@YA_NPBD@Z ENDP			; Ogre::NewPackageFile
_TEXT	ENDS
PUBLIC	?clear@?$vector@PAVPackageDataStreamObject@Ogre@@V?$allocator@PAVPackageDataStreamObject@Ogre@@@std@@@std@@QAEXXZ ; std::vector<Ogre::PackageDataStreamObject *,std::allocator<Ogre::PackageDataStreamObject *> >::clear
PUBLIC	??A?$vector@PAVPackageDataStreamObject@Ogre@@V?$allocator@PAVPackageDataStreamObject@Ogre@@@std@@@std@@QAEAAPAVPackageDataStreamObject@Ogre@@I@Z ; std::vector<Ogre::PackageDataStreamObject *,std::allocator<Ogre::PackageDataStreamObject *> >::operator[]
PUBLIC	?size@?$vector@PAVPackageDataStreamObject@Ogre@@V?$allocator@PAVPackageDataStreamObject@Ogre@@@std@@@std@@QBEIXZ ; std::vector<Ogre::PackageDataStreamObject *,std::allocator<Ogre::PackageDataStreamObject *> >::size
xdata$x	SEGMENT
__unwindtable$?close@FilePackage@Ogre@@QAEXXZ DD 0ffffffffH
	DD	FLAT:__unwindfunclet$?close@FilePackage@Ogre@@QAEXXZ$0
__ehfuncinfo$?close@FilePackage@Ogre@@QAEXXZ DD 019930522H
	DD	01H
	DD	FLAT:__unwindtable$?close@FilePackage@Ogre@@QAEXXZ
	DD	2 DUP(00H)
	DD	2 DUP(00H)
	DD	00H
	DD	00H
; Function compile flags: /Odtp
xdata$x	ENDS
_TEXT	SEGMENT
tv186 = -36						; size = 4
_this$ = -32						; size = 4
$T124110 = -28						; size = 4
$T124109 = -24						; size = 4
_i$116452 = -20						; size = 4
_functor$116451 = -16					; size = 4
__$EHRec$ = -12						; size = 12
?close@FilePackage@Ogre@@QAEXXZ PROC			; Ogre::FilePackage::close
; _this$ = ecx

; 149  : 	{

	push	ebp
	mov	ebp, esp
	push	-1
	push	__ehhandler$?close@FilePackage@Ogre@@QAEXXZ
	mov	eax, DWORD PTR fs:0
	push	eax
	sub	esp, 24					; 00000018H
	mov	eax, DWORD PTR ___security_cookie
	xor	eax, ebp
	push	eax
	lea	eax, DWORD PTR __$EHRec$[ebp]
	mov	DWORD PTR fs:0, eax
	mov	DWORD PTR _this$[ebp], ecx

; 150  : 		if(!m_ReadOnly && m_FP!=NULL && m_PkgDesc.numfiles>0)

	mov	eax, DWORD PTR _this$[ebp]
	movzx	ecx, BYTE PTR [eax]
	test	ecx, ecx
	jne	$LN7@close
	mov	edx, DWORD PTR _this$[ebp]
	cmp	DWORD PTR [edx+4], 0
	je	$LN7@close
	mov	eax, DWORD PTR _this$[ebp]
	cmp	DWORD PTR [eax+16], 0
	jle	$LN7@close

; 151  : 		{
; 152  : 			m_PkgDesc.keyoffset = m_PkgDesc.dataoffset + m_PkgDesc.datalen;

	mov	ecx, DWORD PTR _this$[ebp]
	mov	edx, DWORD PTR [ecx+28]
	mov	eax, DWORD PTR _this$[ebp]
	add	edx, DWORD PTR [eax+32]
	mov	ecx, DWORD PTR _this$[ebp]
	mov	DWORD PTR [ecx+20], edx

; 153  : 			m_PkgDesc.keylen = m_PkgDesc.numfiles*sizeof(PkgFileInfo);

	mov	edx, DWORD PTR _this$[ebp]
	mov	eax, DWORD PTR [edx+16]
	imul	eax, 24					; 00000018H
	mov	ecx, DWORD PTR _this$[ebp]
	mov	DWORD PTR [ecx+24], eax

; 154  : 
; 155  : 			fseek( m_FP, 0, SEEK_SET );

	push	0
	push	0
	mov	edx, DWORD PTR _this$[ebp]
	mov	eax, DWORD PTR [edx+4]
	push	eax
	call	DWORD PTR __imp__fseek
	add	esp, 12					; 0000000cH

; 156  : 			if(1 != fwrite(&m_PkgDesc, sizeof(m_PkgDesc), 1, m_FP))

	mov	ecx, DWORD PTR _this$[ebp]
	mov	edx, DWORD PTR [ecx+4]
	push	edx
	push	1
	push	28					; 0000001cH
	mov	eax, DWORD PTR _this$[ebp]
	add	eax, 8
	push	eax
	call	DWORD PTR __imp__fwrite
	add	esp, 16					; 00000010H
	cmp	eax, 1
	je	SHORT $LN6@close

; 157  : 			{
; 158  : 				LOG_SEVERE("write pkgfile error");

	push	8
	push	158					; 0000009eH
	push	OFFSET $SG116445
	call	?LogSetCurParam@Ogre@@YAXPBDHI@Z	; Ogre::LogSetCurParam
	add	esp, 12					; 0000000cH
	push	OFFSET $SG116446
	call	?LogMessage@Ogre@@YAXPBDZZ		; Ogre::LogMessage
	add	esp, 4
$LN6@close:

; 159  : 			}
; 160  : 
; 161  : 			fseek(m_FP, m_PkgDesc.keyoffset, SEEK_SET);

	push	0
	mov	ecx, DWORD PTR _this$[ebp]
	mov	edx, DWORD PTR [ecx+20]
	push	edx
	mov	eax, DWORD PTR _this$[ebp]
	mov	ecx, DWORD PTR [eax+4]
	push	ecx
	call	DWORD PTR __imp__fseek
	add	esp, 12					; 0000000cH

; 162  : 			if(1!=fwrite(&m_FileTable[0], m_PkgDesc.keylen, 1, m_FP))

	mov	edx, DWORD PTR _this$[ebp]
	mov	eax, DWORD PTR [edx+4]
	push	eax
	push	1
	mov	ecx, DWORD PTR _this$[ebp]
	mov	edx, DWORD PTR [ecx+24]
	push	edx
	push	0
	mov	ecx, DWORD PTR _this$[ebp]
	add	ecx, 36					; 00000024H
	call	??A?$vector@UPkgFileInfo@Ogre@@V?$allocator@UPkgFileInfo@Ogre@@@std@@@std@@QAEAAUPkgFileInfo@Ogre@@I@Z ; std::vector<Ogre::PkgFileInfo,std::allocator<Ogre::PkgFileInfo> >::operator[]
	push	eax
	call	DWORD PTR __imp__fwrite
	add	esp, 16					; 00000010H
	cmp	eax, 1
	je	SHORT $LN7@close

; 163  : 			{
; 164  : 				LOG_SEVERE("write pkgfile error");

	push	8
	push	164					; 000000a4H
	push	OFFSET $SG116448
	call	?LogSetCurParam@Ogre@@YAXPBDHI@Z	; Ogre::LogSetCurParam
	add	esp, 12					; 0000000cH
	push	OFFSET $SG116449
	call	?LogMessage@Ogre@@YAXPBDZZ		; Ogre::LogMessage
	add	esp, 4
$LN7@close:

; 165  : 			}
; 166  : 		}
; 167  : 
; 168  : 		if(m_FP != NULL)

	mov	eax, DWORD PTR _this$[ebp]
	cmp	DWORD PTR [eax+4], 0
	je	SHORT $LN4@close

; 169  : 		{
; 170  : 			fclose(m_FP);

	mov	ecx, DWORD PTR _this$[ebp]
	mov	edx, DWORD PTR [ecx+4]
	push	edx
	call	DWORD PTR __imp__fclose
	add	esp, 4

; 171  : 			m_FP = NULL;

	mov	eax, DWORD PTR _this$[ebp]
	mov	DWORD PTR [eax+4], 0
$LN4@close:

; 172  : 		}
; 173  : 
; 174  : 		release(m_PackBuffer);

	mov	ecx, DWORD PTR _this$[ebp]
	mov	edx, DWORD PTR [ecx+100]
	push	edx
	call	?release@Ogre@@YAXPAX@Z			; Ogre::release
	add	esp, 4

; 175  : 		m_PackBuffer = NULL;

	mov	eax, DWORD PTR _this$[ebp]
	mov	DWORD PTR [eax+100], 0

; 176  : 
; 177  : 		{
; 178  : 			LockFunctor functor(&m_MemListMutex);

	mov	ecx, DWORD PTR _this$[ebp]
	add	ecx, 136				; 00000088H
	push	ecx
	lea	ecx, DWORD PTR _functor$116451[ebp]
	call	??0LockFunctor@Ogre@@QAE@PAVLockSection@1@@Z ; Ogre::LockFunctor::LockFunctor
	mov	DWORD PTR __$EHRec$[ebp+8], 0

; 179  : 			for (size_t i = 0; i < m_OriginMemList.size(); ++i)

	mov	DWORD PTR _i$116452[ebp], 0
	jmp	SHORT $LN3@close
$LN2@close:
	mov	edx, DWORD PTR _i$116452[ebp]
	add	edx, 1
	mov	DWORD PTR _i$116452[ebp], edx
$LN3@close:
	mov	ecx, DWORD PTR _this$[ebp]
	add	ecx, 104				; 00000068H
	call	?size@?$vector@PAVPackageDataStreamObject@Ogre@@V?$allocator@PAVPackageDataStreamObject@Ogre@@@std@@@std@@QBEIXZ ; std::vector<Ogre::PackageDataStreamObject *,std::allocator<Ogre::PackageDataStreamObject *> >::size
	cmp	DWORD PTR _i$116452[ebp], eax
	jae	SHORT $LN1@close

; 180  : 			{
; 181  : 				delete m_OriginMemList[i];

	mov	eax, DWORD PTR _i$116452[ebp]
	push	eax
	mov	ecx, DWORD PTR _this$[ebp]
	add	ecx, 104				; 00000068H
	call	??A?$vector@PAVPackageDataStreamObject@Ogre@@V?$allocator@PAVPackageDataStreamObject@Ogre@@@std@@@std@@QAEAAPAVPackageDataStreamObject@Ogre@@I@Z ; std::vector<Ogre::PackageDataStreamObject *,std::allocator<Ogre::PackageDataStreamObject *> >::operator[]
	mov	ecx, DWORD PTR [eax]
	mov	DWORD PTR $T124110[ebp], ecx
	mov	edx, DWORD PTR $T124110[ebp]
	mov	DWORD PTR $T124109[ebp], edx
	cmp	DWORD PTR $T124109[ebp], 0
	je	SHORT $LN10@close
	push	1
	mov	eax, DWORD PTR $T124109[ebp]
	mov	edx, DWORD PTR [eax]
	mov	ecx, DWORD PTR $T124109[ebp]
	mov	eax, DWORD PTR [edx]
	call	eax
	mov	DWORD PTR tv186[ebp], eax
	jmp	SHORT $LN11@close
$LN10@close:
	mov	DWORD PTR tv186[ebp], 0
$LN11@close:

; 182  : 			}

	jmp	SHORT $LN2@close
$LN1@close:

; 183  : 			m_OriginMemList.clear();

	mov	ecx, DWORD PTR _this$[ebp]
	add	ecx, 104				; 00000068H
	call	?clear@?$vector@PAVPackageDataStreamObject@Ogre@@V?$allocator@PAVPackageDataStreamObject@Ogre@@@std@@@std@@QAEXXZ ; std::vector<Ogre::PackageDataStreamObject *,std::allocator<Ogre::PackageDataStreamObject *> >::clear

; 184  : 		}

	mov	DWORD PTR __$EHRec$[ebp+8], -1
	lea	ecx, DWORD PTR _functor$116451[ebp]
	call	??1LockFunctor@Ogre@@QAE@XZ		; Ogre::LockFunctor::~LockFunctor

; 185  : 		m_BufferObjectCount = 0;

	mov	ecx, DWORD PTR _this$[ebp]
	mov	DWORD PTR [ecx+128], 0

; 186  : 	}

	mov	ecx, DWORD PTR __$EHRec$[ebp]
	mov	DWORD PTR fs:0, ecx
	pop	ecx
	mov	esp, ebp
	pop	ebp
	ret	0
_TEXT	ENDS
text$x	SEGMENT
__unwindfunclet$?close@FilePackage@Ogre@@QAEXXZ$0:
	lea	ecx, DWORD PTR _functor$116451[ebp]
	jmp	??1LockFunctor@Ogre@@QAE@XZ		; Ogre::LockFunctor::~LockFunctor
__ehhandler$?close@FilePackage@Ogre@@QAEXXZ:
	mov	edx, DWORD PTR [esp+8]
	lea	eax, DWORD PTR [edx+12]
	mov	ecx, DWORD PTR [edx-28]
	xor	ecx, eax
	call	@__security_check_cookie@4
	mov	eax, OFFSET __ehfuncinfo$?close@FilePackage@Ogre@@QAEXXZ
	jmp	___CxxFrameHandler3
text$x	ENDS
?close@FilePackage@Ogre@@QAEXXZ ENDP			; Ogre::FilePackage::close
PUBLIC	??_7PkgFileStream@Ogre@@6B@			; Ogre::PkgFileStream::`vftable'
PUBLIC	??0PkgFileStream@Ogre@@QAE@PAVFilePackage@1@II@Z ; Ogre::PkgFileStream::PkgFileStream
PUBLIC	??_R4PkgFileStream@Ogre@@6B@			; Ogre::PkgFileStream::`RTTI Complete Object Locator'
PUBLIC	??_R0?AVPkgFileStream@Ogre@@@8			; Ogre::PkgFileStream `RTTI Type Descriptor'
PUBLIC	??_R3PkgFileStream@Ogre@@8			; Ogre::PkgFileStream::`RTTI Class Hierarchy Descriptor'
PUBLIC	??_R2PkgFileStream@Ogre@@8			; Ogre::PkgFileStream::`RTTI Base Class Array'
PUBLIC	??_R1A@?0A@EA@PkgFileStream@Ogre@@8		; Ogre::PkgFileStream::`RTTI Base Class Descriptor at (0,-1,0,64)'
PUBLIC	?read@PkgFileStream@Ogre@@UAEIPAXI@Z		; Ogre::PkgFileStream::read
PUBLIC	?write@PkgFileStream@Ogre@@UAEIPBXI@Z		; Ogre::PkgFileStream::write
PUBLIC	?skip@PkgFileStream@Ogre@@UAEXJ@Z		; Ogre::PkgFileStream::skip
PUBLIC	?seek@PkgFileStream@Ogre@@UAEXI@Z		; Ogre::PkgFileStream::seek
PUBLIC	?tell@PkgFileStream@Ogre@@UBEIXZ		; Ogre::PkgFileStream::tell
PUBLIC	?eof@PkgFileStream@Ogre@@UBE_NXZ		; Ogre::PkgFileStream::eof
PUBLIC	?close@PkgFileStream@Ogre@@UAEXXZ		; Ogre::PkgFileStream::close
PUBLIC	?getMemoryImage@PkgFileStream@Ogre@@UAEPAXXZ	; Ogre::PkgFileStream::getMemoryImage
EXTRN	??_EPkgFileStream@Ogre@@UAEPAXI@Z:PROC		; Ogre::PkgFileStream::`vector deleting destructor'
;	COMDAT ??_R1A@?0A@EA@PkgFileStream@Ogre@@8
rdata$r	SEGMENT
??_R1A@?0A@EA@PkgFileStream@Ogre@@8 DD FLAT:??_R0?AVPkgFileStream@Ogre@@@8 ; Ogre::PkgFileStream::`RTTI Base Class Descriptor at (0,-1,0,64)'
	DD	01H
	DD	00H
	DD	0ffffffffH
	DD	00H
	DD	040H
	DD	FLAT:??_R3PkgFileStream@Ogre@@8
rdata$r	ENDS
;	COMDAT ??_R2PkgFileStream@Ogre@@8
rdata$r	SEGMENT
??_R2PkgFileStream@Ogre@@8 DD FLAT:??_R1A@?0A@EA@PkgFileStream@Ogre@@8 ; Ogre::PkgFileStream::`RTTI Base Class Array'
	DD	FLAT:??_R1A@?0A@EA@DataStream@Ogre@@8
rdata$r	ENDS
;	COMDAT ??_R3PkgFileStream@Ogre@@8
rdata$r	SEGMENT
??_R3PkgFileStream@Ogre@@8 DD 00H			; Ogre::PkgFileStream::`RTTI Class Hierarchy Descriptor'
	DD	00H
	DD	02H
	DD	FLAT:??_R2PkgFileStream@Ogre@@8
rdata$r	ENDS
;	COMDAT ??_R0?AVPkgFileStream@Ogre@@@8
_DATA	SEGMENT
??_R0?AVPkgFileStream@Ogre@@@8 DD FLAT:??_7type_info@@6B@ ; Ogre::PkgFileStream `RTTI Type Descriptor'
	DD	00H
	DB	'.?AVPkgFileStream@Ogre@@', 00H
_DATA	ENDS
;	COMDAT ??_R4PkgFileStream@Ogre@@6B@
rdata$r	SEGMENT
??_R4PkgFileStream@Ogre@@6B@ DD 00H			; Ogre::PkgFileStream::`RTTI Complete Object Locator'
	DD	00H
	DD	00H
	DD	FLAT:??_R0?AVPkgFileStream@Ogre@@@8
	DD	FLAT:??_R3PkgFileStream@Ogre@@8
rdata$r	ENDS
;	COMDAT ??_7PkgFileStream@Ogre@@6B@
CONST	SEGMENT
??_7PkgFileStream@Ogre@@6B@ DD FLAT:??_R4PkgFileStream@Ogre@@6B@ ; Ogre::PkgFileStream::`vftable'
	DD	FLAT:??_EPkgFileStream@Ogre@@UAEPAXI@Z
	DD	FLAT:?read@PkgFileStream@Ogre@@UAEIPAXI@Z
	DD	FLAT:?write@PkgFileStream@Ogre@@UAEIPBXI@Z
	DD	FLAT:?readLine@DataStream@Ogre@@UAEIPADIABV?$basic_string@DU?$char_traits@D@std@@V?$allocator@D@2@@std@@@Z
	DD	FLAT:?getLine@DataStream@Ogre@@UAE?AV?$basic_string@DU?$char_traits@D@std@@V?$allocator@D@2@@std@@_N@Z
	DD	FLAT:?getAsString@DataStream@Ogre@@UAE?AV?$basic_string@DU?$char_traits@D@std@@V?$allocator@D@2@@std@@XZ
	DD	FLAT:?skipLine@DataStream@Ogre@@UAEIABV?$basic_string@DU?$char_traits@D@std@@V?$allocator@D@2@@std@@@Z
	DD	FLAT:?skip@PkgFileStream@Ogre@@UAEXJ@Z
	DD	FLAT:?seek@PkgFileStream@Ogre@@UAEXI@Z
	DD	FLAT:?tell@PkgFileStream@Ogre@@UBEIXZ
	DD	FLAT:?eof@PkgFileStream@Ogre@@UBE_NXZ
	DD	FLAT:?size@DataStream@Ogre@@UBEIXZ
	DD	FLAT:?close@PkgFileStream@Ogre@@UAEXXZ
	DD	FLAT:?getMemoryImage@PkgFileStream@Ogre@@UAEPAXXZ
CONST	ENDS
xdata$x	SEGMENT
__unwindtable$??0PkgFileStream@Ogre@@QAE@PAVFilePackage@1@II@Z DD 0ffffffffH
	DD	FLAT:__unwindfunclet$??0PkgFileStream@Ogre@@QAE@PAVFilePackage@1@II@Z$0
__ehfuncinfo$??0PkgFileStream@Ogre@@QAE@PAVFilePackage@1@II@Z DD 019930522H
	DD	01H
	DD	FLAT:__unwindtable$??0PkgFileStream@Ogre@@QAE@PAVFilePackage@1@II@Z
	DD	2 DUP(00H)
	DD	2 DUP(00H)
	DD	00H
	DD	00H
; Function compile flags: /Odtp
xdata$x	ENDS
_TEXT	SEGMENT
_this$ = -16						; size = 4
__$EHRec$ = -12						; size = 12
_pkg$ = 8						; size = 4
_pkgoffset$ = 12					; size = 4
_filesize$ = 16						; size = 4
??0PkgFileStream@Ogre@@QAE@PAVFilePackage@1@II@Z PROC	; Ogre::PkgFileStream::PkgFileStream
; _this$ = ecx

; 211  : 	{

	push	ebp
	mov	ebp, esp
	push	-1
	push	__ehhandler$??0PkgFileStream@Ogre@@QAE@PAVFilePackage@1@II@Z
	mov	eax, DWORD PTR fs:0
	push	eax
	push	ecx
	mov	eax, DWORD PTR ___security_cookie
	xor	eax, ebp
	push	eax
	lea	eax, DWORD PTR __$EHRec$[ebp]
	mov	DWORD PTR fs:0, eax
	mov	DWORD PTR _this$[ebp], ecx
	mov	ecx, DWORD PTR _this$[ebp]
	call	??0DataStream@Ogre@@QAE@XZ		; Ogre::DataStream::DataStream
	mov	DWORD PTR __$EHRec$[ebp+8], 0
	mov	eax, DWORD PTR _this$[ebp]
	mov	DWORD PTR [eax], OFFSET ??_7PkgFileStream@Ogre@@6B@
	mov	ecx, DWORD PTR _this$[ebp]
	mov	edx, DWORD PTR _pkg$[ebp]
	mov	DWORD PTR [ecx+36], edx
	mov	eax, DWORD PTR _this$[ebp]
	mov	ecx, DWORD PTR _pkgoffset$[ebp]
	mov	DWORD PTR [eax+40], ecx
	mov	edx, DWORD PTR _this$[ebp]
	mov	DWORD PTR [edx+44], 0
	mov	eax, DWORD PTR _this$[ebp]
	mov	DWORD PTR [eax+48], 0

; 212  : 		mSize = filesize;

	mov	ecx, DWORD PTR _this$[ebp]
	mov	edx, DWORD PTR _filesize$[ebp]
	mov	DWORD PTR [ecx+32], edx

; 213  : 	}

	mov	DWORD PTR __$EHRec$[ebp+8], -1
	mov	eax, DWORD PTR _this$[ebp]
	mov	ecx, DWORD PTR __$EHRec$[ebp]
	mov	DWORD PTR fs:0, ecx
	pop	ecx
	mov	esp, ebp
	pop	ebp
	ret	12					; 0000000cH
_TEXT	ENDS
text$x	SEGMENT
__unwindfunclet$??0PkgFileStream@Ogre@@QAE@PAVFilePackage@1@II@Z$0:
	mov	ecx, DWORD PTR _this$[ebp]
	jmp	??1DataStream@Ogre@@UAE@XZ		; Ogre::DataStream::~DataStream
__ehhandler$??0PkgFileStream@Ogre@@QAE@PAVFilePackage@1@II@Z:
	mov	edx, DWORD PTR [esp+8]
	lea	eax, DWORD PTR [edx+12]
	mov	ecx, DWORD PTR [edx-8]
	xor	ecx, eax
	call	@__security_check_cookie@4
	mov	eax, OFFSET __ehfuncinfo$??0PkgFileStream@Ogre@@QAE@PAVFilePackage@1@II@Z
	jmp	___CxxFrameHandler3
text$x	ENDS
??0PkgFileStream@Ogre@@QAE@PAVFilePackage@1@II@Z ENDP	; Ogre::PkgFileStream::PkgFileStream
PUBLIC	??1PkgFileStream@Ogre@@UAE@XZ			; Ogre::PkgFileStream::~PkgFileStream
; Function compile flags: /Odtp
;	COMDAT ??_GPkgFileStream@Ogre@@UAEPAXI@Z
_TEXT	SEGMENT
_this$ = -4						; size = 4
___flags$ = 8						; size = 4
??_GPkgFileStream@Ogre@@UAEPAXI@Z PROC			; Ogre::PkgFileStream::`scalar deleting destructor', COMDAT
; _this$ = ecx
	push	ebp
	mov	ebp, esp
	push	ecx
	mov	DWORD PTR _this$[ebp], ecx
	mov	ecx, DWORD PTR _this$[ebp]
	call	??1PkgFileStream@Ogre@@UAE@XZ		; Ogre::PkgFileStream::~PkgFileStream
	mov	eax, DWORD PTR ___flags$[ebp]
	and	eax, 1
	je	SHORT $LN1@scalar@8
	mov	ecx, DWORD PTR _this$[ebp]
	push	ecx
	call	??3@YAXPAX@Z				; operator delete
	add	esp, 4
$LN1@scalar@8:
	mov	eax, DWORD PTR _this$[ebp]
	mov	esp, ebp
	pop	ebp
	ret	4
??_GPkgFileStream@Ogre@@UAEPAXI@Z ENDP			; Ogre::PkgFileStream::`scalar deleting destructor'
_TEXT	ENDS
xdata$x	SEGMENT
__unwindtable$??1PkgFileStream@Ogre@@UAE@XZ DD 0ffffffffH
	DD	FLAT:__unwindfunclet$??1PkgFileStream@Ogre@@UAE@XZ$0
__ehfuncinfo$??1PkgFileStream@Ogre@@UAE@XZ DD 019930522H
	DD	01H
	DD	FLAT:__unwindtable$??1PkgFileStream@Ogre@@UAE@XZ
	DD	2 DUP(00H)
	DD	2 DUP(00H)
	DD	00H
	DD	00H
; Function compile flags: /Odtp
xdata$x	ENDS
_TEXT	SEGMENT
_this$ = -16						; size = 4
__$EHRec$ = -12						; size = 12
??1PkgFileStream@Ogre@@UAE@XZ PROC			; Ogre::PkgFileStream::~PkgFileStream
; _this$ = ecx

; 216  : 	{

	push	ebp
	mov	ebp, esp
	push	-1
	push	__ehhandler$??1PkgFileStream@Ogre@@UAE@XZ
	mov	eax, DWORD PTR fs:0
	push	eax
	push	ecx
	mov	eax, DWORD PTR ___security_cookie
	xor	eax, ebp
	push	eax
	lea	eax, DWORD PTR __$EHRec$[ebp]
	mov	DWORD PTR fs:0, eax
	mov	DWORD PTR _this$[ebp], ecx
	mov	eax, DWORD PTR _this$[ebp]
	mov	DWORD PTR [eax], OFFSET ??_7PkgFileStream@Ogre@@6B@
	mov	DWORD PTR __$EHRec$[ebp+8], 0

; 217  : 		close();

	mov	ecx, DWORD PTR _this$[ebp]
	call	?close@PkgFileStream@Ogre@@UAEXXZ	; Ogre::PkgFileStream::close

; 218  : 	}

	mov	DWORD PTR __$EHRec$[ebp+8], -1
	mov	ecx, DWORD PTR _this$[ebp]
	call	??1DataStream@Ogre@@UAE@XZ		; Ogre::DataStream::~DataStream
	mov	ecx, DWORD PTR __$EHRec$[ebp]
	mov	DWORD PTR fs:0, ecx
	pop	ecx
	mov	esp, ebp
	pop	ebp
	ret	0
_TEXT	ENDS
text$x	SEGMENT
__unwindfunclet$??1PkgFileStream@Ogre@@UAE@XZ$0:
	mov	ecx, DWORD PTR _this$[ebp]
	jmp	??1DataStream@Ogre@@UAE@XZ		; Ogre::DataStream::~DataStream
__ehhandler$??1PkgFileStream@Ogre@@UAE@XZ:
	mov	edx, DWORD PTR [esp+8]
	lea	eax, DWORD PTR [edx+12]
	mov	ecx, DWORD PTR [edx-8]
	xor	ecx, eax
	call	@__security_check_cookie@4
	mov	eax, OFFSET __ehfuncinfo$??1PkgFileStream@Ogre@@UAE@XZ
	jmp	___CxxFrameHandler3
text$x	ENDS
??1PkgFileStream@Ogre@@UAE@XZ ENDP			; Ogre::PkgFileStream::~PkgFileStream
PUBLIC	?readFile@FilePackage@Ogre@@QAEIPAXII@Z		; Ogre::FilePackage::readFile
; Function compile flags: /Odtp
_TEXT	SEGMENT
_this$ = -4						; size = 4
_buf$ = 8						; size = 4
_count$ = 12						; size = 4
?read@PkgFileStream@Ogre@@UAEIPAXI@Z PROC		; Ogre::PkgFileStream::read
; _this$ = ecx

; 221  : 	{

	push	ebp
	mov	ebp, esp
	push	ecx
	mov	DWORD PTR _this$[ebp], ecx

; 222  : 		return m_pkg->readFile(buf, m_curPos+m_pkgOffset, (unsigned int )count);

	mov	eax, DWORD PTR _count$[ebp]
	push	eax
	mov	ecx, DWORD PTR _this$[ebp]
	mov	edx, DWORD PTR [ecx+44]
	mov	eax, DWORD PTR _this$[ebp]
	add	edx, DWORD PTR [eax+40]
	push	edx
	mov	ecx, DWORD PTR _buf$[ebp]
	push	ecx
	mov	edx, DWORD PTR _this$[ebp]
	mov	ecx, DWORD PTR [edx+36]
	call	?readFile@FilePackage@Ogre@@QAEIPAXII@Z	; Ogre::FilePackage::readFile

; 223  : 	}

	mov	esp, ebp
	pop	ebp
	ret	8
?read@PkgFileStream@Ogre@@UAEIPAXI@Z ENDP		; Ogre::PkgFileStream::read
; Function compile flags: /Odtp
_this$ = -4						; size = 4
_buf$ = 8						; size = 4
_count$ = 12						; size = 4
?write@PkgFileStream@Ogre@@UAEIPBXI@Z PROC		; Ogre::PkgFileStream::write
; _this$ = ecx

; 226  : 	{

	push	ebp
	mov	ebp, esp
	push	ecx
	mov	DWORD PTR _this$[ebp], ecx

; 227  : 		assert(0);
; 228  : 		return 0;

	xor	eax, eax

; 229  : 	}

	mov	esp, ebp
	pop	ebp
	ret	8
?write@PkgFileStream@Ogre@@UAEIPBXI@Z ENDP		; Ogre::PkgFileStream::write
; Function compile flags: /Odtp
_this$ = -4						; size = 4
_count$ = 8						; size = 4
?skip@PkgFileStream@Ogre@@UAEXJ@Z PROC			; Ogre::PkgFileStream::skip
; _this$ = ecx

; 232  : 	{

	push	ebp
	mov	ebp, esp
	push	ecx
	mov	DWORD PTR _this$[ebp], ecx

; 233  : 		m_curPos += count;

	mov	eax, DWORD PTR _this$[ebp]
	mov	ecx, DWORD PTR [eax+44]
	add	ecx, DWORD PTR _count$[ebp]
	mov	edx, DWORD PTR _this$[ebp]
	mov	DWORD PTR [edx+44], ecx

; 234  : 	}

	mov	esp, ebp
	pop	ebp
	ret	4
?skip@PkgFileStream@Ogre@@UAEXJ@Z ENDP			; Ogre::PkgFileStream::skip
; Function compile flags: /Odtp
_this$ = -4						; size = 4
_pos$ = 8						; size = 4
?seek@PkgFileStream@Ogre@@UAEXI@Z PROC			; Ogre::PkgFileStream::seek
; _this$ = ecx

; 237  : 	{

	push	ebp
	mov	ebp, esp
	push	ecx
	mov	DWORD PTR _this$[ebp], ecx

; 238  : 		m_curPos = (unsigned int)pos;

	mov	eax, DWORD PTR _this$[ebp]
	mov	ecx, DWORD PTR _pos$[ebp]
	mov	DWORD PTR [eax+44], ecx

; 239  : 	}

	mov	esp, ebp
	pop	ebp
	ret	4
?seek@PkgFileStream@Ogre@@UAEXI@Z ENDP			; Ogre::PkgFileStream::seek
; Function compile flags: /Odtp
_this$ = -4						; size = 4
?tell@PkgFileStream@Ogre@@UBEIXZ PROC			; Ogre::PkgFileStream::tell
; _this$ = ecx

; 242  : 	{

	push	ebp
	mov	ebp, esp
	push	ecx
	mov	DWORD PTR _this$[ebp], ecx

; 243  : 		return m_curPos;

	mov	eax, DWORD PTR _this$[ebp]
	mov	eax, DWORD PTR [eax+44]

; 244  : 	}

	mov	esp, ebp
	pop	ebp
	ret	0
?tell@PkgFileStream@Ogre@@UBEIXZ ENDP			; Ogre::PkgFileStream::tell
; Function compile flags: /Odtp
_this$ = -4						; size = 4
?eof@PkgFileStream@Ogre@@UBE_NXZ PROC			; Ogre::PkgFileStream::eof
; _this$ = ecx

; 247  : 	{

	push	ebp
	mov	ebp, esp
	push	ecx
	mov	DWORD PTR _this$[ebp], ecx

; 248  : 		return m_curPos>=mSize;

	mov	eax, DWORD PTR _this$[ebp]
	mov	ecx, DWORD PTR _this$[ebp]
	mov	edx, DWORD PTR [eax+44]
	cmp	edx, DWORD PTR [ecx+32]
	sbb	eax, eax
	add	eax, 1

; 249  : 	}

	mov	esp, ebp
	pop	ebp
	ret	0
?eof@PkgFileStream@Ogre@@UBE_NXZ ENDP			; Ogre::PkgFileStream::eof
; Function compile flags: /Odtp
_this$ = -4						; size = 4
?close@PkgFileStream@Ogre@@UAEXXZ PROC			; Ogre::PkgFileStream::close
; _this$ = ecx

; 252  : 	{

	push	ebp
	mov	ebp, esp
	push	ecx
	mov	DWORD PTR _this$[ebp], ecx

; 253  : 		if(m_pMemImage)

	mov	eax, DWORD PTR _this$[ebp]
	cmp	DWORD PTR [eax+48], 0
	je	SHORT $LN2@close@2

; 254  : 		{
; 255  : 			release(m_pMemImage);

	mov	ecx, DWORD PTR _this$[ebp]
	mov	edx, DWORD PTR [ecx+48]
	push	edx
	call	?release@Ogre@@YAXPAX@Z			; Ogre::release
	add	esp, 4

; 256  : 			m_pMemImage = NULL;

	mov	eax, DWORD PTR _this$[ebp]
	mov	DWORD PTR [eax+48], 0
$LN2@close@2:

; 257  : 		}
; 258  : 	}

	mov	esp, ebp
	pop	ebp
	ret	0
?close@PkgFileStream@Ogre@@UAEXXZ ENDP			; Ogre::PkgFileStream::close
; Function compile flags: /Odtp
_this$ = -4						; size = 4
?getMemoryImage@PkgFileStream@Ogre@@UAEPAXXZ PROC	; Ogre::PkgFileStream::getMemoryImage
; _this$ = ecx

; 261  : 	{

	push	ebp
	mov	ebp, esp
	push	ecx
	mov	DWORD PTR _this$[ebp], ecx

; 262  : 		if(m_pMemImage == NULL)

	mov	eax, DWORD PTR _this$[ebp]
	cmp	DWORD PTR [eax+48], 0
	jne	SHORT $LN1@getMemoryI

; 263  : 		{
; 264  : 			m_pMemImage = alloc(mSize);

	mov	ecx, DWORD PTR _this$[ebp]
	mov	edx, DWORD PTR [ecx+32]
	push	edx
	call	?alloc@Ogre@@YAPAXI@Z			; Ogre::alloc
	add	esp, 4
	mov	ecx, DWORD PTR _this$[ebp]
	mov	DWORD PTR [ecx+48], eax

; 265  : 			m_pkg->readFile(m_pMemImage, m_pkgOffset, (uint)mSize);

	mov	edx, DWORD PTR _this$[ebp]
	mov	eax, DWORD PTR [edx+32]
	push	eax
	mov	ecx, DWORD PTR _this$[ebp]
	mov	edx, DWORD PTR [ecx+40]
	push	edx
	mov	eax, DWORD PTR _this$[ebp]
	mov	ecx, DWORD PTR [eax+48]
	push	ecx
	mov	edx, DWORD PTR _this$[ebp]
	mov	ecx, DWORD PTR [edx+36]
	call	?readFile@FilePackage@Ogre@@QAEIPAXII@Z	; Ogre::FilePackage::readFile
$LN1@getMemoryI:

; 266  : 		}
; 267  : 
; 268  : 		return m_pMemImage;

	mov	eax, DWORD PTR _this$[ebp]
	mov	eax, DWORD PTR [eax+48]

; 269  : 	}

	mov	esp, ebp
	pop	ebp
	ret	0
?getMemoryImage@PkgFileStream@Ogre@@UAEPAXXZ ENDP	; Ogre::PkgFileStream::getMemoryImage
_TEXT	ENDS
PUBLIC	?newBufferObject@FilePackage@Ogre@@QAEPAVPackageDataStreamObject@2@XZ ; Ogre::FilePackage::newBufferObject
PUBLIC	?openFile@FilePackage@Ogre@@QAEPAVDataStream@2@H@Z ; Ogre::FilePackage::openFile
EXTRN	??0ObjectDataStream@Ogre@@QAE@PAVDataStreamObject@1@@Z:PROC ; Ogre::ObjectDataStream::ObjectDataStream
EXTRN	_uncompress:PROC
EXTRN	??2@YAPAXI@Z:PROC				; operator new
xdata$x	SEGMENT
__unwindtable$?openFile@FilePackage@Ogre@@QAEPAVDataStream@2@H@Z DD 0ffffffffH
	DD	FLAT:__unwindfunclet$?openFile@FilePackage@Ogre@@QAEPAVDataStream@2@H@Z$0
	DD	0ffffffffH
	DD	FLAT:__unwindfunclet$?openFile@FilePackage@Ogre@@QAEPAVDataStream@2@H@Z$1
	DD	0ffffffffH
	DD	FLAT:__unwindfunclet$?openFile@FilePackage@Ogre@@QAEPAVDataStream@2@H@Z$2
__ehfuncinfo$?openFile@FilePackage@Ogre@@QAEPAVDataStream@2@H@Z DD 019930522H
	DD	03H
	DD	FLAT:__unwindtable$?openFile@FilePackage@Ogre@@QAEPAVDataStream@2@H@Z
	DD	2 DUP(00H)
	DD	2 DUP(00H)
	DD	00H
	DD	00H
; Function compile flags: /Odtp
xdata$x	ENDS
_TEXT	SEGMENT
tv209 = -64						; size = 4
tv128 = -60						; size = 4
_this$ = -56						; size = 4
$T124146 = -52						; size = 4
$T124145 = -48						; size = 4
$T124142 = -44						; size = 4
$T124141 = -40						; size = 4
_destlen$116573 = -36					; size = 4
_functor$116569 = -32					; size = 4
_pobject$116564 = -28					; size = 4
_result$116565 = -21					; size = 1
_pstream$116558 = -20					; size = 4
_info$ = -16						; size = 4
__$EHRec$ = -12						; size = 12
_file_number$ = 8					; size = 4
?openFile@FilePackage@Ogre@@QAEPAVDataStream@2@H@Z PROC	; Ogre::FilePackage::openFile
; _this$ = ecx

; 272  : 	{

	push	ebp
	mov	ebp, esp
	push	-1
	push	__ehhandler$?openFile@FilePackage@Ogre@@QAEPAVDataStream@2@H@Z
	mov	eax, DWORD PTR fs:0
	push	eax
	sub	esp, 52					; 00000034H
	mov	eax, DWORD PTR ___security_cookie
	xor	eax, ebp
	push	eax
	lea	eax, DWORD PTR __$EHRec$[ebp]
	mov	DWORD PTR fs:0, eax
	mov	DWORD PTR _this$[ebp], ecx

; 273  : 		if(file_number<0 || file_number>(int)m_FileTable.size())

	cmp	DWORD PTR _file_number$[ebp], 0
	jl	SHORT $LN10@openFile
	mov	ecx, DWORD PTR _this$[ebp]
	add	ecx, 36					; 00000024H
	call	?size@?$vector@UPkgFileInfo@Ogre@@V?$allocator@UPkgFileInfo@Ogre@@@std@@@std@@QBEIXZ ; std::vector<Ogre::PkgFileInfo,std::allocator<Ogre::PkgFileInfo> >::size
	cmp	DWORD PTR _file_number$[ebp], eax
	jle	SHORT $LN11@openFile
$LN10@openFile:

; 274  : 		{
; 275  : 			LOG_SEVERE("openFile wrong file_number:%d", file_number);

	push	8
	push	275					; 00000113H
	push	OFFSET $SG116554
	call	?LogSetCurParam@Ogre@@YAXPBDHI@Z	; Ogre::LogSetCurParam
	add	esp, 12					; 0000000cH
	mov	eax, DWORD PTR _file_number$[ebp]
	push	eax
	push	OFFSET $SG116555
	call	?LogMessage@Ogre@@YAXPBDZZ		; Ogre::LogMessage
	add	esp, 8

; 276  : 			return NULL;

	xor	eax, eax
	jmp	$LN12@openFile
$LN11@openFile:

; 277  : 		}
; 278  : 
; 279  : 		const PkgFileInfo &info = m_FileTable[file_number];

	mov	ecx, DWORD PTR _file_number$[ebp]
	push	ecx
	mov	ecx, DWORD PTR _this$[ebp]
	add	ecx, 36					; 00000024H
	call	??A?$vector@UPkgFileInfo@Ogre@@V?$allocator@UPkgFileInfo@Ogre@@@std@@@std@@QAEAAUPkgFileInfo@Ogre@@I@Z ; std::vector<Ogre::PkgFileInfo,std::allocator<Ogre::PkgFileInfo> >::operator[]
	mov	DWORD PTR _info$[ebp], eax

; 280  : 
; 281  : 		if((info.flags&1) == 0) //uncompressed file

	mov	edx, DWORD PTR _info$[ebp]
	mov	eax, DWORD PTR [edx+20]
	and	eax, 1
	jne	SHORT $LN9@openFile

; 282  : 		{
; 283  : 			PkgFileStream *pstream = new PkgFileStream(this, info.offset+m_PkgDesc.dataoffset, info.originsize);

	push	52					; 00000034H
	call	??2@YAPAXI@Z				; operator new
	add	esp, 4
	mov	DWORD PTR $T124142[ebp], eax
	mov	DWORD PTR __$EHRec$[ebp+8], 0
	cmp	DWORD PTR $T124142[ebp], 0
	je	SHORT $LN14@openFile
	mov	ecx, DWORD PTR _info$[ebp]
	mov	edx, DWORD PTR [ecx+12]
	push	edx
	mov	eax, DWORD PTR _info$[ebp]
	mov	ecx, DWORD PTR [eax+8]
	mov	edx, DWORD PTR _this$[ebp]
	add	ecx, DWORD PTR [edx+28]
	push	ecx
	mov	eax, DWORD PTR _this$[ebp]
	push	eax
	mov	ecx, DWORD PTR $T124142[ebp]
	call	??0PkgFileStream@Ogre@@QAE@PAVFilePackage@1@II@Z ; Ogre::PkgFileStream::PkgFileStream
	mov	DWORD PTR tv128[ebp], eax
	jmp	SHORT $LN15@openFile
$LN14@openFile:
	mov	DWORD PTR tv128[ebp], 0
$LN15@openFile:
	mov	ecx, DWORD PTR tv128[ebp]
	mov	DWORD PTR $T124141[ebp], ecx
	mov	DWORD PTR __$EHRec$[ebp+8], -1
	mov	edx, DWORD PTR $T124141[ebp]
	mov	DWORD PTR _pstream$116558[ebp], edx

; 284  : 			return pstream;

	mov	eax, DWORD PTR _pstream$116558[ebp]
	jmp	$LN12@openFile

; 285  : 		}
; 286  : 		else

	jmp	$LN12@openFile
$LN9@openFile:

; 287  : 		{
; 288  : 			PackageDataStreamObject *pobject = newBufferObject();

	mov	ecx, DWORD PTR _this$[ebp]
	call	?newBufferObject@FilePackage@Ogre@@QAEPAVPackageDataStreamObject@2@XZ ; Ogre::FilePackage::newBufferObject
	mov	DWORD PTR _pobject$116564[ebp], eax

; 289  : 
; 290  : 			bool result = false;

	mov	BYTE PTR _result$116565[ebp], 0
$LN7@openFile:

; 291  : 			do 
; 292  : 			{
; 293  : 				LockFunctor functor(&m_PackMutex);

	mov	eax, DWORD PTR _this$[ebp]
	add	eax, 132				; 00000084H
	push	eax
	lea	ecx, DWORD PTR _functor$116569[ebp]
	call	??0LockFunctor@Ogre@@QAE@PAVLockSection@1@@Z ; Ogre::LockFunctor::LockFunctor
	mov	DWORD PTR __$EHRec$[ebp+8], 1

; 294  : 				if(readFile(m_PackBuffer, info.offset, info.packsize) != info.packsize)

	mov	ecx, DWORD PTR _info$[ebp]
	mov	edx, DWORD PTR [ecx+16]
	push	edx
	mov	eax, DWORD PTR _info$[ebp]
	mov	ecx, DWORD PTR [eax+8]
	push	ecx
	mov	edx, DWORD PTR _this$[ebp]
	mov	eax, DWORD PTR [edx+100]
	push	eax
	mov	ecx, DWORD PTR _this$[ebp]
	call	?readFile@FilePackage@Ogre@@QAEIPAXII@Z	; Ogre::FilePackage::readFile
	mov	ecx, DWORD PTR _info$[ebp]
	cmp	eax, DWORD PTR [ecx+16]
	je	SHORT $LN4@openFile

; 295  : 				{
; 296  : 					LOG_SEVERE("read pkgfile error: %d,%d", info.offset, info.packsize);

	push	8
	push	296					; 00000128H
	push	OFFSET $SG116571
	call	?LogSetCurParam@Ogre@@YAXPBDHI@Z	; Ogre::LogSetCurParam
	add	esp, 12					; 0000000cH
	mov	edx, DWORD PTR _info$[ebp]
	mov	eax, DWORD PTR [edx+16]
	push	eax
	mov	ecx, DWORD PTR _info$[ebp]
	mov	edx, DWORD PTR [ecx+8]
	push	edx
	push	OFFSET $SG116572
	call	?LogMessage@Ogre@@YAXPBDZZ		; Ogre::LogMessage
	add	esp, 12					; 0000000cH

; 297  : 					break;

	mov	DWORD PTR __$EHRec$[ebp+8], -1
	lea	ecx, DWORD PTR _functor$116569[ebp]
	call	??1LockFunctor@Ogre@@QAE@XZ		; Ogre::LockFunctor::~LockFunctor
	jmp	$LN5@openFile
$LN4@openFile:

; 298  : 				}
; 299  : 
; 300  : 				uLongf destlen = info.originsize;

	mov	eax, DWORD PTR _info$[ebp]
	mov	ecx, DWORD PTR [eax+12]
	mov	DWORD PTR _destlen$116573[ebp], ecx

; 301  : 				if(uncompress((uchar *)pobject->buffer(), &destlen, (uchar *)m_PackBuffer, info.packsize) != Z_OK || destlen!=info.originsize)

	mov	edx, DWORD PTR _info$[ebp]
	mov	eax, DWORD PTR [edx+16]
	push	eax
	mov	ecx, DWORD PTR _this$[ebp]
	mov	edx, DWORD PTR [ecx+100]
	push	edx
	lea	eax, DWORD PTR _destlen$116573[ebp]
	push	eax
	mov	ecx, DWORD PTR _pobject$116564[ebp]
	mov	edx, DWORD PTR [ecx]
	mov	ecx, DWORD PTR _pobject$116564[ebp]
	mov	eax, DWORD PTR [edx+12]
	call	eax
	push	eax
	call	_uncompress
	add	esp, 16					; 00000010H
	test	eax, eax
	jne	SHORT $LN2@openFile
	mov	ecx, DWORD PTR _info$[ebp]
	mov	edx, DWORD PTR _destlen$116573[ebp]
	cmp	edx, DWORD PTR [ecx+12]
	je	SHORT $LN3@openFile
$LN2@openFile:

; 302  : 				{
; 303  : 					LOG_SEVERE("uncompress data error: %d, %d", destlen, info.originsize);

	push	8
	push	303					; 0000012fH
	push	OFFSET $SG116578
	call	?LogSetCurParam@Ogre@@YAXPBDHI@Z	; Ogre::LogSetCurParam
	add	esp, 12					; 0000000cH
	mov	eax, DWORD PTR _info$[ebp]
	mov	ecx, DWORD PTR [eax+12]
	push	ecx
	mov	edx, DWORD PTR _destlen$116573[ebp]
	push	edx
	push	OFFSET $SG116579
	call	?LogMessage@Ogre@@YAXPBDZZ		; Ogre::LogMessage
	add	esp, 12					; 0000000cH

; 304  : 					break;

	mov	DWORD PTR __$EHRec$[ebp+8], -1
	lea	ecx, DWORD PTR _functor$116569[ebp]
	call	??1LockFunctor@Ogre@@QAE@XZ		; Ogre::LockFunctor::~LockFunctor
	jmp	SHORT $LN5@openFile
$LN3@openFile:

; 305  : 				}
; 306  : 				pobject->shift(destlen);

	mov	eax, DWORD PTR _destlen$116573[ebp]
	push	eax
	mov	ecx, DWORD PTR _pobject$116564[ebp]
	mov	edx, DWORD PTR [ecx]
	mov	ecx, DWORD PTR _pobject$116564[ebp]
	mov	eax, DWORD PTR [edx+24]
	call	eax

; 307  : 				result = true;

	mov	BYTE PTR _result$116565[ebp], 1

; 308  : 			} while (false);

	mov	DWORD PTR __$EHRec$[ebp+8], -1
	lea	ecx, DWORD PTR _functor$116569[ebp]
	call	??1LockFunctor@Ogre@@QAE@XZ		; Ogre::LockFunctor::~LockFunctor
	xor	ecx, ecx
	jne	$LN7@openFile
$LN5@openFile:

; 309  : 			if (result)

	movzx	edx, BYTE PTR _result$116565[ebp]
	test	edx, edx
	je	SHORT $LN1@openFile

; 310  : 			{
; 311  : 				return new ObjectDataStream(pobject);

	push	44					; 0000002cH
	call	??2@YAPAXI@Z				; operator new
	add	esp, 4
	mov	DWORD PTR $T124146[ebp], eax
	mov	DWORD PTR __$EHRec$[ebp+8], 2
	cmp	DWORD PTR $T124146[ebp], 0
	je	SHORT $LN16@openFile
	mov	eax, DWORD PTR _pobject$116564[ebp]
	push	eax
	mov	ecx, DWORD PTR $T124146[ebp]
	call	??0ObjectDataStream@Ogre@@QAE@PAVDataStreamObject@1@@Z ; Ogre::ObjectDataStream::ObjectDataStream
	mov	DWORD PTR tv209[ebp], eax
	jmp	SHORT $LN17@openFile
$LN16@openFile:
	mov	DWORD PTR tv209[ebp], 0
$LN17@openFile:
	mov	ecx, DWORD PTR tv209[ebp]
	mov	DWORD PTR $T124145[ebp], ecx
	mov	DWORD PTR __$EHRec$[ebp+8], -1
	mov	eax, DWORD PTR $T124145[ebp]
	jmp	SHORT $LN12@openFile
$LN1@openFile:

; 312  : 			}
; 313  : 			freeBufferObject(pobject);

	mov	edx, DWORD PTR _pobject$116564[ebp]
	push	edx
	mov	ecx, DWORD PTR _this$[ebp]
	call	?freeBufferObject@FilePackage@Ogre@@QAEXPAVPackageDataStreamObject@2@@Z ; Ogre::FilePackage::freeBufferObject

; 314  : 			return NULL;

	xor	eax, eax
$LN12@openFile:

; 315  : 		}
; 316  : 	}

	mov	ecx, DWORD PTR __$EHRec$[ebp]
	mov	DWORD PTR fs:0, ecx
	pop	ecx
	mov	esp, ebp
	pop	ebp
	ret	4
_TEXT	ENDS
text$x	SEGMENT
__unwindfunclet$?openFile@FilePackage@Ogre@@QAEPAVDataStream@2@H@Z$0:
	mov	eax, DWORD PTR $T124142[ebp]
	push	eax
	call	??3@YAXPAX@Z				; operator delete
	pop	ecx
	ret	0
__unwindfunclet$?openFile@FilePackage@Ogre@@QAEPAVDataStream@2@H@Z$1:
	lea	ecx, DWORD PTR _functor$116569[ebp]
	jmp	??1LockFunctor@Ogre@@QAE@XZ		; Ogre::LockFunctor::~LockFunctor
__unwindfunclet$?openFile@FilePackage@Ogre@@QAEPAVDataStream@2@H@Z$2:
	mov	eax, DWORD PTR $T124146[ebp]
	push	eax
	call	??3@YAXPAX@Z				; operator delete
	pop	ecx
	ret	0
__ehhandler$?openFile@FilePackage@Ogre@@QAEPAVDataStream@2@H@Z:
	mov	edx, DWORD PTR [esp+8]
	lea	eax, DWORD PTR [edx+12]
	mov	ecx, DWORD PTR [edx-56]
	xor	ecx, eax
	call	@__security_check_cookie@4
	mov	eax, OFFSET __ehfuncinfo$?openFile@FilePackage@Ogre@@QAEPAVDataStream@2@H@Z
	jmp	___CxxFrameHandler3
text$x	ENDS
?openFile@FilePackage@Ogre@@QAEPAVDataStream@2@H@Z ENDP	; Ogre::FilePackage::openFile
xdata$x	SEGMENT
__unwindtable$?readFile@FilePackage@Ogre@@QAEIPAXII@Z DD 0ffffffffH
	DD	FLAT:__unwindfunclet$?readFile@FilePackage@Ogre@@QAEIPAXII@Z$0
__ehfuncinfo$?readFile@FilePackage@Ogre@@QAEIPAXII@Z DD 019930522H
	DD	01H
	DD	FLAT:__unwindtable$?readFile@FilePackage@Ogre@@QAEIPAXII@Z
	DD	2 DUP(00H)
	DD	2 DUP(00H)
	DD	00H
	DD	00H
; Function compile flags: /Odtp
xdata$x	ENDS
_TEXT	SEGMENT
_this$ = -24						; size = 4
$T124157 = -20						; size = 4
_lockfunc$ = -16					; size = 4
__$EHRec$ = -12						; size = 12
_pbuf$ = 8						; size = 4
_offset$ = 12						; size = 4
_len$ = 16						; size = 4
?readFile@FilePackage@Ogre@@QAEIPAXII@Z PROC		; Ogre::FilePackage::readFile
; _this$ = ecx

; 319  : 	{

	push	ebp
	mov	ebp, esp
	push	-1
	push	__ehhandler$?readFile@FilePackage@Ogre@@QAEIPAXII@Z
	mov	eax, DWORD PTR fs:0
	push	eax
	sub	esp, 12					; 0000000cH
	mov	eax, DWORD PTR ___security_cookie
	xor	eax, ebp
	push	eax
	lea	eax, DWORD PTR __$EHRec$[ebp]
	mov	DWORD PTR fs:0, eax
	mov	DWORD PTR _this$[ebp], ecx

; 320  : 		LockFunctor lockfunc(&m_Mutex);

	mov	eax, DWORD PTR _this$[ebp]
	add	eax, 60					; 0000003cH
	push	eax
	lea	ecx, DWORD PTR _lockfunc$[ebp]
	call	??0LockFunctor@Ogre@@QAE@PAVLockSection@1@@Z ; Ogre::LockFunctor::LockFunctor
	mov	DWORD PTR __$EHRec$[ebp+8], 0

; 321  : 
; 322  : 		fseek(m_FP, offset, SEEK_SET);

	push	0
	mov	ecx, DWORD PTR _offset$[ebp]
	push	ecx
	mov	edx, DWORD PTR _this$[ebp]
	mov	eax, DWORD PTR [edx+4]
	push	eax
	call	DWORD PTR __imp__fseek
	add	esp, 12					; 0000000cH

; 323  : 		return (unsigned int)fread(pbuf, 1, len, m_FP);

	mov	ecx, DWORD PTR _this$[ebp]
	mov	edx, DWORD PTR [ecx+4]
	push	edx
	mov	eax, DWORD PTR _len$[ebp]
	push	eax
	push	1
	mov	ecx, DWORD PTR _pbuf$[ebp]
	push	ecx
	call	DWORD PTR __imp__fread
	add	esp, 16					; 00000010H
	mov	DWORD PTR $T124157[ebp], eax
	mov	DWORD PTR __$EHRec$[ebp+8], -1
	lea	ecx, DWORD PTR _lockfunc$[ebp]
	call	??1LockFunctor@Ogre@@QAE@XZ		; Ogre::LockFunctor::~LockFunctor
	mov	eax, DWORD PTR $T124157[ebp]

; 324  : 	}

	mov	ecx, DWORD PTR __$EHRec$[ebp]
	mov	DWORD PTR fs:0, ecx
	pop	ecx
	mov	esp, ebp
	pop	ebp
	ret	12					; 0000000cH
_TEXT	ENDS
text$x	SEGMENT
__unwindfunclet$?readFile@FilePackage@Ogre@@QAEIPAXII@Z$0:
	lea	ecx, DWORD PTR _lockfunc$[ebp]
	jmp	??1LockFunctor@Ogre@@QAE@XZ		; Ogre::LockFunctor::~LockFunctor
__ehhandler$?readFile@FilePackage@Ogre@@QAEIPAXII@Z:
	mov	edx, DWORD PTR [esp+8]
	lea	eax, DWORD PTR [edx+12]
	mov	ecx, DWORD PTR [edx-16]
	xor	ecx, eax
	call	@__security_check_cookie@4
	mov	eax, OFFSET __ehfuncinfo$?readFile@FilePackage@Ogre@@QAEIPAXII@Z
	jmp	___CxxFrameHandler3
text$x	ENDS
?readFile@FilePackage@Ogre@@QAEIPAXII@Z ENDP		; Ogre::FilePackage::readFile
PUBLIC	?appendOrReplaceFile@FilePackage@Ogre@@QAE_NIIIPBXII@Z ; Ogre::FilePackage::appendOrReplaceFile
EXTRN	_compress:PROC
EXTRN	??_U@YAPAXI@Z:PROC				; operator new[]
EXTRN	_compressBound:PROC
xdata$x	SEGMENT
__unwindtable$?appendOrReplaceFile@FilePackage@Ogre@@QAE_NIIIPBXII@Z DD 0ffffffffH
	DD	FLAT:__unwindfunclet$?appendOrReplaceFile@FilePackage@Ogre@@QAE_NIIIPBXII@Z$0
__ehfuncinfo$?appendOrReplaceFile@FilePackage@Ogre@@QAE_NIIIPBXII@Z DD 019930522H
	DD	01H
	DD	FLAT:__unwindtable$?appendOrReplaceFile@FilePackage@Ogre@@QAE_NIIIPBXII@Z
	DD	2 DUP(00H)
	DD	2 DUP(00H)
	DD	00H
	DD	00H
; Function compile flags: /Odtp
xdata$x	ENDS
_TEXT	SEGMENT
_this$ = -80						; size = 4
$T124168 = -74						; size = 1
$T124167 = -73						; size = 1
$T124166 = -72						; size = 4
$T124165 = -65						; size = 1
$T124164 = -64						; size = 4
_info2$116628 = -60					; size = 4
_destlen$116607 = -56					; size = 4
_pcompressed$116608 = -52				; size = 4
_lockfunc$ = -48					; size = 4
_info$ = -44						; size = 24
_n$ = -20						; size = 4
_i$ = -16						; size = 4
__$EHRec$ = -12						; size = 12
_key1$ = 8						; size = 4
_key2$ = 12						; size = 4
_flags$ = 16						; size = 4
_pdata$ = 20						; size = 4
_originsize$ = 24					; size = 4
_packsize$ = 28						; size = 4
?appendOrReplaceFile@FilePackage@Ogre@@QAE_NIIIPBXII@Z PROC ; Ogre::FilePackage::appendOrReplaceFile
; _this$ = ecx

; 327  : 	{

	push	ebp
	mov	ebp, esp
	push	-1
	push	__ehhandler$?appendOrReplaceFile@FilePackage@Ogre@@QAE_NIIIPBXII@Z
	mov	eax, DWORD PTR fs:0
	push	eax
	sub	esp, 68					; 00000044H
	mov	eax, DWORD PTR ___security_cookie
	xor	eax, ebp
	push	eax
	lea	eax, DWORD PTR __$EHRec$[ebp]
	mov	DWORD PTR fs:0, eax
	mov	DWORD PTR _this$[ebp], ecx

; 328  : 		LockFunctor lockfunc(&m_Mutex);

	mov	eax, DWORD PTR _this$[ebp]
	add	eax, 60					; 0000003cH
	push	eax
	lea	ecx, DWORD PTR _lockfunc$[ebp]
	call	??0LockFunctor@Ogre@@QAE@PAVLockSection@1@@Z ; Ogre::LockFunctor::LockFunctor
	mov	DWORD PTR __$EHRec$[ebp+8], 0

; 329  : 
; 330  : 		PkgFileInfo info;
; 331  : 		info.key1 = key1;

	mov	ecx, DWORD PTR _key1$[ebp]
	mov	DWORD PTR _info$[ebp], ecx

; 332  : 		info.key2 = key2;

	mov	edx, DWORD PTR _key2$[ebp]
	mov	DWORD PTR _info$[ebp+4], edx

; 333  : 		info.flags = flags;

	mov	eax, DWORD PTR _flags$[ebp]
	mov	DWORD PTR _info$[ebp+20], eax

; 334  : 		info.offset = m_PkgDesc.dataoffset + m_PkgDesc.datalen;

	mov	ecx, DWORD PTR _this$[ebp]
	mov	edx, DWORD PTR [ecx+28]
	mov	eax, DWORD PTR _this$[ebp]
	add	edx, DWORD PTR [eax+32]
	mov	DWORD PTR _info$[ebp+8], edx

; 335  : 
; 336  : 		fseek(m_FP, info.offset, SEEK_SET);

	push	0
	mov	ecx, DWORD PTR _info$[ebp+8]
	push	ecx
	mov	edx, DWORD PTR _this$[ebp]
	mov	eax, DWORD PTR [edx+4]
	push	eax
	call	DWORD PTR __imp__fseek
	add	esp, 12					; 0000000cH

; 337  : 
; 338  : 		size_t n;
; 339  : 		if((flags&1) && packsize==0)// 

	mov	ecx, DWORD PTR _flags$[ebp]
	and	ecx, 1
	je	$LN11@appendOrRe
	cmp	DWORD PTR _packsize$[ebp], 0
	jne	$LN11@appendOrRe

; 340  : 		{
; 341  : 			uLongf destlen = compressBound(originsize);

	mov	edx, DWORD PTR _originsize$[ebp]
	push	edx
	call	_compressBound
	add	esp, 4
	mov	DWORD PTR _destlen$116607[ebp], eax

; 342  : 			unsigned char *pcompressed = new unsigned char[destlen];

	mov	eax, DWORD PTR _destlen$116607[ebp]
	push	eax
	call	??_U@YAPAXI@Z				; operator new[]
	add	esp, 4
	mov	DWORD PTR $T124164[ebp], eax
	mov	ecx, DWORD PTR $T124164[ebp]
	mov	DWORD PTR _pcompressed$116608[ebp], ecx

; 343  : 			if(Z_OK != compress(pcompressed, &destlen, (const Bytef *)pdata, originsize))

	mov	edx, DWORD PTR _originsize$[ebp]
	push	edx
	mov	eax, DWORD PTR _pdata$[ebp]
	push	eax
	lea	ecx, DWORD PTR _destlen$116607[ebp]
	push	ecx
	mov	edx, DWORD PTR _pcompressed$116608[ebp]
	push	edx
	call	_compress
	add	esp, 16					; 00000010H
	test	eax, eax
	je	SHORT $LN10@appendOrRe

; 344  : 			{
; 345  : 				LOG_SEVERE("compress error");

	push	8
	push	345					; 00000159H
	push	OFFSET $SG116613
	call	?LogSetCurParam@Ogre@@YAXPBDHI@Z	; Ogre::LogSetCurParam
	add	esp, 12					; 0000000cH
	push	OFFSET $SG116614
	call	?LogMessage@Ogre@@YAXPBDZZ		; Ogre::LogMessage
	add	esp, 4

; 346  : 				return false;

	mov	BYTE PTR $T124165[ebp], 0
	mov	DWORD PTR __$EHRec$[ebp+8], -1
	lea	ecx, DWORD PTR _lockfunc$[ebp]
	call	??1LockFunctor@Ogre@@QAE@XZ		; Ogre::LockFunctor::~LockFunctor
	mov	al, BYTE PTR $T124165[ebp]
	jmp	$LN12@appendOrRe
$LN10@appendOrRe:

; 347  : 			}
; 348  : 
; 349  : 			n = fwrite(pcompressed, destlen, 1, m_FP);

	mov	eax, DWORD PTR _this$[ebp]
	mov	ecx, DWORD PTR [eax+4]
	push	ecx
	push	1
	mov	edx, DWORD PTR _destlen$116607[ebp]
	push	edx
	mov	eax, DWORD PTR _pcompressed$116608[ebp]
	push	eax
	call	DWORD PTR __imp__fwrite
	add	esp, 16					; 00000010H
	mov	DWORD PTR _n$[ebp], eax

; 350  : 			info.originsize = originsize;

	mov	ecx, DWORD PTR _originsize$[ebp]
	mov	DWORD PTR _info$[ebp+12], ecx

; 351  : 			info.packsize = destlen;

	mov	edx, DWORD PTR _destlen$116607[ebp]
	mov	DWORD PTR _info$[ebp+16], edx

; 352  : 			delete[] pcompressed;

	mov	eax, DWORD PTR _pcompressed$116608[ebp]
	mov	DWORD PTR $T124166[ebp], eax
	mov	ecx, DWORD PTR $T124166[ebp]
	push	ecx
	call	??_V@YAXPAX@Z				; operator delete[]
	add	esp, 4

; 353  : 		}
; 354  : 		else

	jmp	SHORT $LN9@appendOrRe
$LN11@appendOrRe:

; 355  : 		{
; 356  : 			n = fwrite(pdata, originsize, 1, m_FP);

	mov	edx, DWORD PTR _this$[ebp]
	mov	eax, DWORD PTR [edx+4]
	push	eax
	push	1
	mov	ecx, DWORD PTR _originsize$[ebp]
	push	ecx
	mov	edx, DWORD PTR _pdata$[ebp]
	push	edx
	call	DWORD PTR __imp__fwrite
	add	esp, 16					; 00000010H
	mov	DWORD PTR _n$[ebp], eax

; 357  : 			info.originsize = originsize;

	mov	eax, DWORD PTR _originsize$[ebp]
	mov	DWORD PTR _info$[ebp+12], eax

; 358  : 			if(packsize == 0) info.packsize = originsize;

	cmp	DWORD PTR _packsize$[ebp], 0
	jne	SHORT $LN8@appendOrRe
	mov	ecx, DWORD PTR _originsize$[ebp]
	mov	DWORD PTR _info$[ebp+16], ecx
	jmp	SHORT $LN9@appendOrRe
$LN8@appendOrRe:

; 359  : 			else info.packsize = packsize;

	mov	edx, DWORD PTR _packsize$[ebp]
	mov	DWORD PTR _info$[ebp+16], edx
$LN9@appendOrRe:

; 360  : 		}
; 361  : 
; 362  : 		if(n != 1)

	cmp	DWORD PTR _n$[ebp], 1
	je	SHORT $LN6@appendOrRe

; 363  : 		{
; 364  : 			LOG_SEVERE("write pkgfile error: %d, %d", info.packsize, info.originsize);

	push	8
	push	364					; 0000016cH
	push	OFFSET $SG116621
	call	?LogSetCurParam@Ogre@@YAXPBDHI@Z	; Ogre::LogSetCurParam
	add	esp, 12					; 0000000cH
	mov	eax, DWORD PTR _info$[ebp+12]
	push	eax
	mov	ecx, DWORD PTR _info$[ebp+16]
	push	ecx
	push	OFFSET $SG116622
	call	?LogMessage@Ogre@@YAXPBDZZ		; Ogre::LogMessage
	add	esp, 12					; 0000000cH

; 365  : 			return false;

	mov	BYTE PTR $T124167[ebp], 0
	mov	DWORD PTR __$EHRec$[ebp+8], -1
	lea	ecx, DWORD PTR _lockfunc$[ebp]
	call	??1LockFunctor@Ogre@@QAE@XZ		; Ogre::LockFunctor::~LockFunctor
	mov	al, BYTE PTR $T124167[ebp]
	jmp	$LN12@appendOrRe
$LN6@appendOrRe:

; 366  : 		}
; 367  : 
; 368  : 		m_PkgDesc.datalen += info.packsize;

	mov	edx, DWORD PTR _this$[ebp]
	mov	eax, DWORD PTR [edx+32]
	add	eax, DWORD PTR _info$[ebp+16]
	mov	ecx, DWORD PTR _this$[ebp]
	mov	DWORD PTR [ecx+32], eax

; 369  : 
; 370  : 		size_t i;
; 371  : 		for(i=0; i<m_FileTable.size(); i++)

	mov	DWORD PTR _i$[ebp], 0
	jmp	SHORT $LN5@appendOrRe
$LN4@appendOrRe:
	mov	edx, DWORD PTR _i$[ebp]
	add	edx, 1
	mov	DWORD PTR _i$[ebp], edx
$LN5@appendOrRe:
	mov	ecx, DWORD PTR _this$[ebp]
	add	ecx, 36					; 00000024H
	call	?size@?$vector@UPkgFileInfo@Ogre@@V?$allocator@UPkgFileInfo@Ogre@@@std@@@std@@QBEIXZ ; std::vector<Ogre::PkgFileInfo,std::allocator<Ogre::PkgFileInfo> >::size
	cmp	DWORD PTR _i$[ebp], eax
	jae	SHORT $LN3@appendOrRe

; 372  : 		{
; 373  : 			PkgFileInfo &info2 = m_FileTable[i];

	mov	eax, DWORD PTR _i$[ebp]
	push	eax
	mov	ecx, DWORD PTR _this$[ebp]
	add	ecx, 36					; 00000024H
	call	??A?$vector@UPkgFileInfo@Ogre@@V?$allocator@UPkgFileInfo@Ogre@@@std@@@std@@QAEAAUPkgFileInfo@Ogre@@I@Z ; std::vector<Ogre::PkgFileInfo,std::allocator<Ogre::PkgFileInfo> >::operator[]
	mov	DWORD PTR _info2$116628[ebp], eax

; 374  : 			if(info2.key1==key1 && info2.key2==key2)

	mov	ecx, DWORD PTR _info2$116628[ebp]
	mov	edx, DWORD PTR [ecx]
	cmp	edx, DWORD PTR _key1$[ebp]
	jne	SHORT $LN2@appendOrRe
	mov	eax, DWORD PTR _info2$116628[ebp]
	mov	ecx, DWORD PTR [eax+4]
	cmp	ecx, DWORD PTR _key2$[ebp]
	jne	SHORT $LN2@appendOrRe

; 375  : 			{
; 376  : 				break;

	jmp	SHORT $LN3@appendOrRe
$LN2@appendOrRe:

; 377  : 			}
; 378  : 		}

	jmp	SHORT $LN4@appendOrRe
$LN3@appendOrRe:

; 379  : 
; 380  : 		if(i == m_FileTable.size())

	mov	ecx, DWORD PTR _this$[ebp]
	add	ecx, 36					; 00000024H
	call	?size@?$vector@UPkgFileInfo@Ogre@@V?$allocator@UPkgFileInfo@Ogre@@@std@@@std@@QBEIXZ ; std::vector<Ogre::PkgFileInfo,std::allocator<Ogre::PkgFileInfo> >::size
	cmp	DWORD PTR _i$[ebp], eax
	jne	SHORT $LN1@appendOrRe

; 381  : 		{
; 382  : 			m_FileTable.resize(i+1);

	mov	edx, DWORD PTR _i$[ebp]
	add	edx, 1
	push	edx
	mov	ecx, DWORD PTR _this$[ebp]
	add	ecx, 36					; 00000024H
	call	?resize@?$vector@UPkgFileInfo@Ogre@@V?$allocator@UPkgFileInfo@Ogre@@@std@@@std@@QAEXI@Z ; std::vector<Ogre::PkgFileInfo,std::allocator<Ogre::PkgFileInfo> >::resize

; 383  : 			m_PkgDesc.numfiles++;

	mov	eax, DWORD PTR _this$[ebp]
	mov	ecx, DWORD PTR [eax+16]
	add	ecx, 1
	mov	edx, DWORD PTR _this$[ebp]
	mov	DWORD PTR [edx+16], ecx
$LN1@appendOrRe:

; 384  : 		}
; 385  : 
; 386  : 		m_FileTable[i] = info;

	mov	eax, DWORD PTR _i$[ebp]
	push	eax
	mov	ecx, DWORD PTR _this$[ebp]
	add	ecx, 36					; 00000024H
	call	??A?$vector@UPkgFileInfo@Ogre@@V?$allocator@UPkgFileInfo@Ogre@@@std@@@std@@QAEAAUPkgFileInfo@Ogre@@I@Z ; std::vector<Ogre::PkgFileInfo,std::allocator<Ogre::PkgFileInfo> >::operator[]
	mov	ecx, DWORD PTR _info$[ebp]
	mov	DWORD PTR [eax], ecx
	mov	edx, DWORD PTR _info$[ebp+4]
	mov	DWORD PTR [eax+4], edx
	mov	ecx, DWORD PTR _info$[ebp+8]
	mov	DWORD PTR [eax+8], ecx
	mov	edx, DWORD PTR _info$[ebp+12]
	mov	DWORD PTR [eax+12], edx
	mov	ecx, DWORD PTR _info$[ebp+16]
	mov	DWORD PTR [eax+16], ecx
	mov	edx, DWORD PTR _info$[ebp+20]
	mov	DWORD PTR [eax+20], edx

; 387  : 		return true;

	mov	BYTE PTR $T124168[ebp], 1
	mov	DWORD PTR __$EHRec$[ebp+8], -1
	lea	ecx, DWORD PTR _lockfunc$[ebp]
	call	??1LockFunctor@Ogre@@QAE@XZ		; Ogre::LockFunctor::~LockFunctor
	mov	al, BYTE PTR $T124168[ebp]
$LN12@appendOrRe:

; 388  : 	}

	mov	ecx, DWORD PTR __$EHRec$[ebp]
	mov	DWORD PTR fs:0, ecx
	pop	ecx
	mov	esp, ebp
	pop	ebp
	ret	24					; 00000018H
_TEXT	ENDS
text$x	SEGMENT
__unwindfunclet$?appendOrReplaceFile@FilePackage@Ogre@@QAE_NIIIPBXII@Z$0:
	lea	ecx, DWORD PTR _lockfunc$[ebp]
	jmp	??1LockFunctor@Ogre@@QAE@XZ		; Ogre::LockFunctor::~LockFunctor
__ehhandler$?appendOrReplaceFile@FilePackage@Ogre@@QAE_NIIIPBXII@Z:
	mov	edx, DWORD PTR [esp+8]
	lea	eax, DWORD PTR [edx+12]
	mov	ecx, DWORD PTR [edx-72]
	xor	ecx, eax
	call	@__security_check_cookie@4
	mov	eax, OFFSET __ehfuncinfo$?appendOrReplaceFile@FilePackage@Ogre@@QAE_NIIIPBXII@Z
	jmp	___CxxFrameHandler3
text$x	ENDS
?appendOrReplaceFile@FilePackage@Ogre@@QAE_NIIIPBXII@Z ENDP ; Ogre::FilePackage::appendOrReplaceFile
PUBLIC	?appendOrReplaceFile@FilePackage@Ogre@@QAE_NPBD_N@Z ; Ogre::FilePackage::appendOrReplaceFile
EXTRN	?hash@StringUtil@Ogre@@SAIPBDIH@Z:PROC		; Ogre::StringUtil::hash
EXTRN	__imp__ftell:PROC
; Function compile flags: /Odtp
_TEXT	SEGMENT
_this$ = -36						; size = 4
$T124176 = -32						; size = 4
$T124175 = -28						; size = 4
_b$ = -21						; size = 1
_len$ = -20						; size = 4
_key2$ = -16						; size = 4
_fp$ = -12						; size = 4
_key1$ = -8						; size = 4
_pbuf$ = -4						; size = 4
_filename$ = 8						; size = 4
_do_compress$ = 12					; size = 1
?appendOrReplaceFile@FilePackage@Ogre@@QAE_NPBD_N@Z PROC ; Ogre::FilePackage::appendOrReplaceFile
; _this$ = ecx

; 391  : 	{

	push	ebp
	mov	ebp, esp
	sub	esp, 36					; 00000024H
	mov	DWORD PTR _this$[ebp], ecx

; 392  : 		FILE *fp = fopen(filename, "rb");

	push	OFFSET $SG116638
	mov	eax, DWORD PTR _filename$[ebp]
	push	eax
	call	DWORD PTR __imp__fopen
	add	esp, 8
	mov	DWORD PTR _fp$[ebp], eax

; 393  : 		if(fp == NULL)

	cmp	DWORD PTR _fp$[ebp], 0
	jne	SHORT $LN2@appendOrRe@2

; 394  : 		{
; 395  : 			return false;

	xor	al, al
	jmp	$LN3@appendOrRe@2
$LN2@appendOrRe@2:

; 396  : 		}
; 397  : 
; 398  : 		fseek(fp, 0, SEEK_END);

	push	2
	push	0
	mov	ecx, DWORD PTR _fp$[ebp]
	push	ecx
	call	DWORD PTR __imp__fseek
	add	esp, 12					; 0000000cH

; 399  : 		long len = ftell(fp);

	mov	edx, DWORD PTR _fp$[ebp]
	push	edx
	call	DWORD PTR __imp__ftell
	add	esp, 4
	mov	DWORD PTR _len$[ebp], eax

; 400  : 		char *pbuf = new char[len];

	mov	eax, DWORD PTR _len$[ebp]
	push	eax
	call	??_U@YAPAXI@Z				; operator new[]
	add	esp, 4
	mov	DWORD PTR $T124175[ebp], eax
	mov	ecx, DWORD PTR $T124175[ebp]
	mov	DWORD PTR _pbuf$[ebp], ecx

; 401  : 		fseek(fp, 0, SEEK_SET);

	push	0
	push	0
	mov	edx, DWORD PTR _fp$[ebp]
	push	edx
	call	DWORD PTR __imp__fseek
	add	esp, 12					; 0000000cH

; 402  : 		if(fread(pbuf, len, 1, fp) != 1)

	mov	eax, DWORD PTR _fp$[ebp]
	push	eax
	push	1
	mov	ecx, DWORD PTR _len$[ebp]
	push	ecx
	mov	edx, DWORD PTR _pbuf$[ebp]
	push	edx
	call	DWORD PTR __imp__fread
	add	esp, 16					; 00000010H
	cmp	eax, 1
	je	SHORT $LN1@appendOrRe@2

; 403  : 		{
; 404  : 			fclose(fp);

	mov	eax, DWORD PTR _fp$[ebp]
	push	eax
	call	DWORD PTR __imp__fclose
	add	esp, 4

; 405  : 			return false;

	xor	al, al
	jmp	SHORT $LN3@appendOrRe@2
$LN1@appendOrRe@2:

; 406  : 		}
; 407  : 		fclose(fp);

	mov	ecx, DWORD PTR _fp$[ebp]
	push	ecx
	call	DWORD PTR __imp__fclose
	add	esp, 4

; 408  : 
; 409  : 		unsigned int key1 = StringUtil::hash(filename, 1);

	push	-1
	push	1
	mov	edx, DWORD PTR _filename$[ebp]
	push	edx
	call	?hash@StringUtil@Ogre@@SAIPBDIH@Z	; Ogre::StringUtil::hash
	add	esp, 12					; 0000000cH
	mov	DWORD PTR _key1$[ebp], eax

; 410  : 		unsigned int key2 = StringUtil::hash(filename, 2);

	push	-1
	push	2
	mov	eax, DWORD PTR _filename$[ebp]
	push	eax
	call	?hash@StringUtil@Ogre@@SAIPBDIH@Z	; Ogre::StringUtil::hash
	add	esp, 12					; 0000000cH
	mov	DWORD PTR _key2$[ebp], eax

; 411  : 
; 412  : 		bool b = appendOrReplaceFile(key1, key2, do_compress?1:0, pbuf, len, 0);

	push	0
	mov	ecx, DWORD PTR _len$[ebp]
	push	ecx
	mov	edx, DWORD PTR _pbuf$[ebp]
	push	edx
	movzx	eax, BYTE PTR _do_compress$[ebp]
	neg	eax
	sbb	eax, eax
	neg	eax
	push	eax
	mov	ecx, DWORD PTR _key2$[ebp]
	push	ecx
	mov	edx, DWORD PTR _key1$[ebp]
	push	edx
	mov	ecx, DWORD PTR _this$[ebp]
	call	?appendOrReplaceFile@FilePackage@Ogre@@QAE_NIIIPBXII@Z ; Ogre::FilePackage::appendOrReplaceFile
	mov	BYTE PTR _b$[ebp], al

; 413  : 		delete[] pbuf;

	mov	eax, DWORD PTR _pbuf$[ebp]
	mov	DWORD PTR $T124176[ebp], eax
	mov	ecx, DWORD PTR $T124176[ebp]
	push	ecx
	call	??_V@YAXPAX@Z				; operator delete[]
	add	esp, 4

; 414  : 
; 415  : 		return b;

	mov	al, BYTE PTR _b$[ebp]
$LN3@appendOrRe@2:

; 416  : 	}

	mov	esp, ebp
	pop	ebp
	ret	8
?appendOrReplaceFile@FilePackage@Ogre@@QAE_NPBD_N@Z ENDP ; Ogre::FilePackage::appendOrReplaceFile
_TEXT	ENDS
PUBLIC	?pop_back@?$vector@PAVPackageDataStreamObject@Ogre@@V?$allocator@PAVPackageDataStreamObject@Ogre@@@std@@@std@@QAEXXZ ; std::vector<Ogre::PackageDataStreamObject *,std::allocator<Ogre::PackageDataStreamObject *> >::pop_back
PUBLIC	?back@?$vector@PAVPackageDataStreamObject@Ogre@@V?$allocator@PAVPackageDataStreamObject@Ogre@@@std@@@std@@QAEAAPAVPackageDataStreamObject@Ogre@@XZ ; std::vector<Ogre::PackageDataStreamObject *,std::allocator<Ogre::PackageDataStreamObject *> >::back
PUBLIC	?empty@?$vector@PAVPackageDataStreamObject@Ogre@@V?$allocator@PAVPackageDataStreamObject@Ogre@@@std@@@std@@QBE_NXZ ; std::vector<Ogre::PackageDataStreamObject *,std::allocator<Ogre::PackageDataStreamObject *> >::empty
xdata$x	SEGMENT
__unwindtable$?newBufferObject@FilePackage@Ogre@@QAEPAVPackageDataStreamObject@2@XZ DD 0ffffffffH
	DD	FLAT:__unwindfunclet$?newBufferObject@FilePackage@Ogre@@QAEPAVPackageDataStreamObject@2@XZ$0
	DD	0ffffffffH
	DD	FLAT:__unwindfunclet$?newBufferObject@FilePackage@Ogre@@QAEPAVPackageDataStreamObject@2@XZ$1
	DD	01H
	DD	FLAT:__unwindfunclet$?newBufferObject@FilePackage@Ogre@@QAEPAVPackageDataStreamObject@2@XZ$2
__ehfuncinfo$?newBufferObject@FilePackage@Ogre@@QAEPAVPackageDataStreamObject@2@XZ DD 019930522H
	DD	03H
	DD	FLAT:__unwindtable$?newBufferObject@FilePackage@Ogre@@QAEPAVPackageDataStreamObject@2@XZ
	DD	2 DUP(00H)
	DD	2 DUP(00H)
	DD	00H
	DD	00H
; Function compile flags: /Odtp
xdata$x	ENDS
_TEXT	SEGMENT
tv137 = -56						; size = 4
tv82 = -52						; size = 4
_this$ = -48						; size = 4
$T124187 = -44						; size = 4
$T124184 = -40						; size = 4
$T124183 = -36						; size = 4
$T124182 = -32						; size = 4
$T124179 = -28						; size = 4
$T124178 = -24						; size = 4
_pobject$116666 = -20					; size = 4
_functor$116658 = -16					; size = 4
__$EHRec$ = -12						; size = 12
?newBufferObject@FilePackage@Ogre@@QAEPAVPackageDataStreamObject@2@XZ PROC ; Ogre::FilePackage::newBufferObject
; _this$ = ecx

; 419  : 	{

	push	ebp
	mov	ebp, esp
	push	-1
	push	__ehhandler$?newBufferObject@FilePackage@Ogre@@QAEPAVPackageDataStreamObject@2@XZ
	mov	eax, DWORD PTR fs:0
	push	eax
	sub	esp, 44					; 0000002cH
	mov	eax, DWORD PTR ___security_cookie
	xor	eax, ebp
	push	eax
	lea	eax, DWORD PTR __$EHRec$[ebp]
	mov	DWORD PTR fs:0, eax
	mov	DWORD PTR _this$[ebp], ecx

; 420  : 		if (m_OriginMemList.empty())

	mov	ecx, DWORD PTR _this$[ebp]
	add	ecx, 104				; 00000068H
	call	?empty@?$vector@PAVPackageDataStreamObject@Ogre@@V?$allocator@PAVPackageDataStreamObject@Ogre@@@std@@@std@@QBE_NXZ ; std::vector<Ogre::PackageDataStreamObject *,std::allocator<Ogre::PackageDataStreamObject *> >::empty
	movzx	eax, al
	test	eax, eax
	je	SHORT $LN4@newBufferO

; 421  : 		{
; 422  : 			++m_BufferObjectCount;

	mov	ecx, DWORD PTR _this$[ebp]
	mov	edx, DWORD PTR [ecx+128]
	add	edx, 1
	mov	eax, DWORD PTR _this$[ebp]
	mov	DWORD PTR [eax+128], edx

; 423  : 			return new PackageDataStreamObject(this, m_MaxOriginSize);

	push	20					; 00000014H
	call	??2@YAPAXI@Z				; operator new
	add	esp, 4
	mov	DWORD PTR $T124179[ebp], eax
	mov	DWORD PTR __$EHRec$[ebp+8], 0
	cmp	DWORD PTR $T124179[ebp], 0
	je	SHORT $LN7@newBufferO
	mov	ecx, DWORD PTR _this$[ebp]
	mov	edx, DWORD PTR [ecx+92]
	push	edx
	mov	eax, DWORD PTR _this$[ebp]
	push	eax
	mov	ecx, DWORD PTR $T124179[ebp]
	call	??0PackageDataStreamObject@Ogre@@QAE@PAVFilePackage@1@I@Z ; Ogre::PackageDataStreamObject::PackageDataStreamObject
	mov	DWORD PTR tv82[ebp], eax
	jmp	SHORT $LN8@newBufferO
$LN7@newBufferO:
	mov	DWORD PTR tv82[ebp], 0
$LN8@newBufferO:
	mov	ecx, DWORD PTR tv82[ebp]
	mov	DWORD PTR $T124178[ebp], ecx
	mov	DWORD PTR __$EHRec$[ebp+8], -1
	mov	eax, DWORD PTR $T124178[ebp]
	jmp	$LN5@newBufferO

; 424  : 		}
; 425  : 		else

	jmp	$LN5@newBufferO
$LN4@newBufferO:

; 426  : 		{
; 427  : 			LockFunctor functor(&m_MemListMutex);

	mov	edx, DWORD PTR _this$[ebp]
	add	edx, 136				; 00000088H
	push	edx
	lea	ecx, DWORD PTR _functor$116658[ebp]
	call	??0LockFunctor@Ogre@@QAE@PAVLockSection@1@@Z ; Ogre::LockFunctor::LockFunctor
	mov	DWORD PTR __$EHRec$[ebp+8], 1

; 428  : 			if (m_OriginMemList.empty())

	mov	ecx, DWORD PTR _this$[ebp]
	add	ecx, 104				; 00000068H
	call	?empty@?$vector@PAVPackageDataStreamObject@Ogre@@V?$allocator@PAVPackageDataStreamObject@Ogre@@@std@@@std@@QBE_NXZ ; std::vector<Ogre::PackageDataStreamObject *,std::allocator<Ogre::PackageDataStreamObject *> >::empty
	movzx	eax, al
	test	eax, eax
	je	SHORT $LN2@newBufferO

; 429  : 			{
; 430  : 				++m_BufferObjectCount;

	mov	ecx, DWORD PTR _this$[ebp]
	mov	edx, DWORD PTR [ecx+128]
	add	edx, 1
	mov	eax, DWORD PTR _this$[ebp]
	mov	DWORD PTR [eax+128], edx

; 431  : 				return new PackageDataStreamObject(this, m_MaxOriginSize);

	push	20					; 00000014H
	call	??2@YAPAXI@Z				; operator new
	add	esp, 4
	mov	DWORD PTR $T124184[ebp], eax
	mov	BYTE PTR __$EHRec$[ebp+8], 2
	cmp	DWORD PTR $T124184[ebp], 0
	je	SHORT $LN9@newBufferO
	mov	ecx, DWORD PTR _this$[ebp]
	mov	edx, DWORD PTR [ecx+92]
	push	edx
	mov	eax, DWORD PTR _this$[ebp]
	push	eax
	mov	ecx, DWORD PTR $T124184[ebp]
	call	??0PackageDataStreamObject@Ogre@@QAE@PAVFilePackage@1@I@Z ; Ogre::PackageDataStreamObject::PackageDataStreamObject
	mov	DWORD PTR tv137[ebp], eax
	jmp	SHORT $LN10@newBufferO
$LN9@newBufferO:
	mov	DWORD PTR tv137[ebp], 0
$LN10@newBufferO:
	mov	ecx, DWORD PTR tv137[ebp]
	mov	DWORD PTR $T124183[ebp], ecx
	mov	BYTE PTR __$EHRec$[ebp+8], 1
	mov	edx, DWORD PTR $T124183[ebp]
	mov	DWORD PTR $T124182[ebp], edx
	mov	DWORD PTR __$EHRec$[ebp+8], -1
	lea	ecx, DWORD PTR _functor$116658[ebp]
	call	??1LockFunctor@Ogre@@QAE@XZ		; Ogre::LockFunctor::~LockFunctor
	mov	eax, DWORD PTR $T124182[ebp]
	jmp	SHORT $LN5@newBufferO

; 432  : 			}
; 433  : 			else

	jmp	SHORT $LN1@newBufferO
$LN2@newBufferO:

; 434  : 			{
; 435  : 				PackageDataStreamObject *pobject = m_OriginMemList.back();

	mov	ecx, DWORD PTR _this$[ebp]
	add	ecx, 104				; 00000068H
	call	?back@?$vector@PAVPackageDataStreamObject@Ogre@@V?$allocator@PAVPackageDataStreamObject@Ogre@@@std@@@std@@QAEAAPAVPackageDataStreamObject@Ogre@@XZ ; std::vector<Ogre::PackageDataStreamObject *,std::allocator<Ogre::PackageDataStreamObject *> >::back
	mov	eax, DWORD PTR [eax]
	mov	DWORD PTR _pobject$116666[ebp], eax

; 436  : 				m_OriginMemList.pop_back();

	mov	ecx, DWORD PTR _this$[ebp]
	add	ecx, 104				; 00000068H
	call	?pop_back@?$vector@PAVPackageDataStreamObject@Ogre@@V?$allocator@PAVPackageDataStreamObject@Ogre@@@std@@@std@@QAEXXZ ; std::vector<Ogre::PackageDataStreamObject *,std::allocator<Ogre::PackageDataStreamObject *> >::pop_back

; 437  : 				return pobject;

	mov	ecx, DWORD PTR _pobject$116666[ebp]
	mov	DWORD PTR $T124187[ebp], ecx
	mov	DWORD PTR __$EHRec$[ebp+8], -1
	lea	ecx, DWORD PTR _functor$116658[ebp]
	call	??1LockFunctor@Ogre@@QAE@XZ		; Ogre::LockFunctor::~LockFunctor
	mov	eax, DWORD PTR $T124187[ebp]
	jmp	SHORT $LN5@newBufferO
$LN1@newBufferO:

; 438  : 			}
; 439  : 		}

	mov	DWORD PTR __$EHRec$[ebp+8], -1
	lea	ecx, DWORD PTR _functor$116658[ebp]
	call	??1LockFunctor@Ogre@@QAE@XZ		; Ogre::LockFunctor::~LockFunctor
$LN5@newBufferO:

; 440  : 	}

	mov	ecx, DWORD PTR __$EHRec$[ebp]
	mov	DWORD PTR fs:0, ecx
	pop	ecx
	mov	esp, ebp
	pop	ebp
	ret	0
_TEXT	ENDS
text$x	SEGMENT
__unwindfunclet$?newBufferObject@FilePackage@Ogre@@QAEPAVPackageDataStreamObject@2@XZ$0:
	mov	eax, DWORD PTR $T124179[ebp]
	push	eax
	call	??3@YAXPAX@Z				; operator delete
	pop	ecx
	ret	0
__unwindfunclet$?newBufferObject@FilePackage@Ogre@@QAEPAVPackageDataStreamObject@2@XZ$1:
	lea	ecx, DWORD PTR _functor$116658[ebp]
	jmp	??1LockFunctor@Ogre@@QAE@XZ		; Ogre::LockFunctor::~LockFunctor
__unwindfunclet$?newBufferObject@FilePackage@Ogre@@QAEPAVPackageDataStreamObject@2@XZ$2:
	mov	eax, DWORD PTR $T124184[ebp]
	push	eax
	call	??3@YAXPAX@Z				; operator delete
	pop	ecx
	ret	0
__ehhandler$?newBufferObject@FilePackage@Ogre@@QAEPAVPackageDataStreamObject@2@XZ:
	mov	edx, DWORD PTR [esp+8]
	lea	eax, DWORD PTR [edx+12]
	mov	ecx, DWORD PTR [edx-48]
	xor	ecx, eax
	call	@__security_check_cookie@4
	mov	eax, OFFSET __ehfuncinfo$?newBufferObject@FilePackage@Ogre@@QAEPAVPackageDataStreamObject@2@XZ
	jmp	___CxxFrameHandler3
text$x	ENDS
?newBufferObject@FilePackage@Ogre@@QAEPAVPackageDataStreamObject@2@XZ ENDP ; Ogre::FilePackage::newBufferObject
PUBLIC	?push_back@?$vector@PAVPackageDataStreamObject@Ogre@@V?$allocator@PAVPackageDataStreamObject@Ogre@@@std@@@std@@QAEXABQAVPackageDataStreamObject@Ogre@@@Z ; std::vector<Ogre::PackageDataStreamObject *,std::allocator<Ogre::PackageDataStreamObject *> >::push_back
xdata$x	SEGMENT
__unwindtable$?freeBufferObject@FilePackage@Ogre@@QAEXPAVPackageDataStreamObject@2@@Z DD 0ffffffffH
	DD	FLAT:__unwindfunclet$?freeBufferObject@FilePackage@Ogre@@QAEXPAVPackageDataStreamObject@2@@Z$0
__ehfuncinfo$?freeBufferObject@FilePackage@Ogre@@QAEXPAVPackageDataStreamObject@2@@Z DD 019930522H
	DD	01H
	DD	FLAT:__unwindtable$?freeBufferObject@FilePackage@Ogre@@QAEXPAVPackageDataStreamObject@2@@Z
	DD	2 DUP(00H)
	DD	2 DUP(00H)
	DD	00H
	DD	00H
; Function compile flags: /Odtp
xdata$x	ENDS
_TEXT	SEGMENT
_this$ = -20						; size = 4
_functor$ = -16						; size = 4
__$EHRec$ = -12						; size = 12
_object$ = 8						; size = 4
?freeBufferObject@FilePackage@Ogre@@QAEXPAVPackageDataStreamObject@2@@Z PROC ; Ogre::FilePackage::freeBufferObject
; _this$ = ecx

; 443  : 	{

	push	ebp
	mov	ebp, esp
	push	-1
	push	__ehhandler$?freeBufferObject@FilePackage@Ogre@@QAEXPAVPackageDataStreamObject@2@@Z
	mov	eax, DWORD PTR fs:0
	push	eax
	sub	esp, 8
	mov	eax, DWORD PTR ___security_cookie
	xor	eax, ebp
	push	eax
	lea	eax, DWORD PTR __$EHRec$[ebp]
	mov	DWORD PTR fs:0, eax
	mov	DWORD PTR _this$[ebp], ecx

; 444  : 		LockFunctor functor(&m_MemListMutex);

	mov	eax, DWORD PTR _this$[ebp]
	add	eax, 136				; 00000088H
	push	eax
	lea	ecx, DWORD PTR _functor$[ebp]
	call	??0LockFunctor@Ogre@@QAE@PAVLockSection@1@@Z ; Ogre::LockFunctor::LockFunctor
	mov	DWORD PTR __$EHRec$[ebp+8], 0

; 445  : 		m_OriginMemList.push_back(object);

	lea	ecx, DWORD PTR _object$[ebp]
	push	ecx
	mov	ecx, DWORD PTR _this$[ebp]
	add	ecx, 104				; 00000068H
	call	?push_back@?$vector@PAVPackageDataStreamObject@Ogre@@V?$allocator@PAVPackageDataStreamObject@Ogre@@@std@@@std@@QAEXABQAVPackageDataStreamObject@Ogre@@@Z ; std::vector<Ogre::PackageDataStreamObject *,std::allocator<Ogre::PackageDataStreamObject *> >::push_back

; 446  : 	}

	mov	DWORD PTR __$EHRec$[ebp+8], -1
	lea	ecx, DWORD PTR _functor$[ebp]
	call	??1LockFunctor@Ogre@@QAE@XZ		; Ogre::LockFunctor::~LockFunctor
	mov	ecx, DWORD PTR __$EHRec$[ebp]
	mov	DWORD PTR fs:0, ecx
	pop	ecx
	mov	esp, ebp
	pop	ebp
	ret	4
_TEXT	ENDS
text$x	SEGMENT
__unwindfunclet$?freeBufferObject@FilePackage@Ogre@@QAEXPAVPackageDataStreamObject@2@@Z$0:
	lea	ecx, DWORD PTR _functor$[ebp]
	jmp	??1LockFunctor@Ogre@@QAE@XZ		; Ogre::LockFunctor::~LockFunctor
__ehhandler$?freeBufferObject@FilePackage@Ogre@@QAEXPAVPackageDataStreamObject@2@@Z:
	mov	edx, DWORD PTR [esp+8]
	lea	eax, DWORD PTR [edx+12]
	mov	ecx, DWORD PTR [edx-12]
	xor	ecx, eax
	call	@__security_check_cookie@4
	mov	eax, OFFSET __ehfuncinfo$?freeBufferObject@FilePackage@Ogre@@QAEXPAVPackageDataStreamObject@2@@Z
	jmp	___CxxFrameHandler3
text$x	ENDS
?freeBufferObject@FilePackage@Ogre@@QAEXPAVPackageDataStreamObject@2@@Z ENDP ; Ogre::FilePackage::freeBufferObject
PUBLIC	??1?$_Vector_val@UPkgFileInfo@Ogre@@V?$allocator@UPkgFileInfo@Ogre@@@std@@@std@@QAE@XZ ; std::_Vector_val<Ogre::PkgFileInfo,std::allocator<Ogre::PkgFileInfo> >::~_Vector_val<Ogre::PkgFileInfo,std::allocator<Ogre::PkgFileInfo> >
PUBLIC	?_Buy@?$vector@UPkgFileInfo@Ogre@@V?$allocator@UPkgFileInfo@Ogre@@@std@@@std@@IAE_NI@Z ; std::vector<Ogre::PkgFileInfo,std::allocator<Ogre::PkgFileInfo> >::_Buy
PUBLIC	??0?$_Vector_val@UPkgFileInfo@Ogre@@V?$allocator@UPkgFileInfo@Ogre@@@std@@@std@@IAE@V?$allocator@UPkgFileInfo@Ogre@@@1@@Z ; std::_Vector_val<Ogre::PkgFileInfo,std::allocator<Ogre::PkgFileInfo> >::_Vector_val<Ogre::PkgFileInfo,std::allocator<Ogre::PkgFileInfo> >
PUBLIC	??0?$allocator@UPkgFileInfo@Ogre@@@std@@QAE@XZ	; std::allocator<Ogre::PkgFileInfo>::allocator<Ogre::PkgFileInfo>
;	COMDAT xdata$x
; File d:\program files (x86)\microsoft visual studio 9.0\vc\include\vector
xdata$x	SEGMENT
__unwindtable$??0?$vector@UPkgFileInfo@Ogre@@V?$allocator@UPkgFileInfo@Ogre@@@std@@@std@@QAE@XZ DD 0ffffffffH
	DD	FLAT:__unwindfunclet$??0?$vector@UPkgFileInfo@Ogre@@V?$allocator@UPkgFileInfo@Ogre@@@std@@@std@@QAE@XZ$0
__ehfuncinfo$??0?$vector@UPkgFileInfo@Ogre@@V?$allocator@UPkgFileInfo@Ogre@@@std@@@std@@QAE@XZ DD 019930522H
	DD	01H
	DD	FLAT:__unwindtable$??0?$vector@UPkgFileInfo@Ogre@@V?$allocator@UPkgFileInfo@Ogre@@@std@@@std@@QAE@XZ
	DD	2 DUP(00H)
	DD	2 DUP(00H)
	DD	00H
	DD	00H
; Function compile flags: /Odtp
xdata$x	ENDS
;	COMDAT ??0?$vector@UPkgFileInfo@Ogre@@V?$allocator@UPkgFileInfo@Ogre@@@std@@@std@@QAE@XZ
_TEXT	SEGMENT
_this$ = -20						; size = 4
$T124202 = -16						; size = 4
__$EHRec$ = -12						; size = 12
??0?$vector@UPkgFileInfo@Ogre@@V?$allocator@UPkgFileInfo@Ogre@@@std@@@std@@QAE@XZ PROC ; std::vector<Ogre::PkgFileInfo,std::allocator<Ogre::PkgFileInfo> >::vector<Ogre::PkgFileInfo,std::allocator<Ogre::PkgFileInfo> >, COMDAT
; _this$ = ecx

; 470  : 		{	// construct empty vector

	push	ebp
	mov	ebp, esp
	push	-1
	push	__ehhandler$??0?$vector@UPkgFileInfo@Ogre@@V?$allocator@UPkgFileInfo@Ogre@@@std@@@std@@QAE@XZ
	mov	eax, DWORD PTR fs:0
	push	eax
	sub	esp, 8
	mov	eax, DWORD PTR ___security_cookie
	xor	eax, ebp
	push	eax
	lea	eax, DWORD PTR __$EHRec$[ebp]
	mov	DWORD PTR fs:0, eax
	mov	DWORD PTR _this$[ebp], ecx
	push	ecx
	mov	ecx, esp
	mov	DWORD PTR $T124202[ebp], esp
	call	??0?$allocator@UPkgFileInfo@Ogre@@@std@@QAE@XZ ; std::allocator<Ogre::PkgFileInfo>::allocator<Ogre::PkgFileInfo>
	mov	ecx, DWORD PTR _this$[ebp]
	call	??0?$_Vector_val@UPkgFileInfo@Ogre@@V?$allocator@UPkgFileInfo@Ogre@@@std@@@std@@IAE@V?$allocator@UPkgFileInfo@Ogre@@@1@@Z ; std::_Vector_val<Ogre::PkgFileInfo,std::allocator<Ogre::PkgFileInfo> >::_Vector_val<Ogre::PkgFileInfo,std::allocator<Ogre::PkgFileInfo> >
	mov	DWORD PTR __$EHRec$[ebp+8], 0

; 471  : 		_Buy(0);

	push	0
	mov	ecx, DWORD PTR _this$[ebp]
	call	?_Buy@?$vector@UPkgFileInfo@Ogre@@V?$allocator@UPkgFileInfo@Ogre@@@std@@@std@@IAE_NI@Z ; std::vector<Ogre::PkgFileInfo,std::allocator<Ogre::PkgFileInfo> >::_Buy

; 472  : 		}

	mov	DWORD PTR __$EHRec$[ebp+8], -1
	mov	eax, DWORD PTR _this$[ebp]
	mov	ecx, DWORD PTR __$EHRec$[ebp]
	mov	DWORD PTR fs:0, ecx
	pop	ecx
	mov	esp, ebp
	pop	ebp
	ret	0
_TEXT	ENDS
;	COMDAT text$x
text$x	SEGMENT
__unwindfunclet$??0?$vector@UPkgFileInfo@Ogre@@V?$allocator@UPkgFileInfo@Ogre@@@std@@@std@@QAE@XZ$0:
	mov	ecx, DWORD PTR _this$[ebp]
	jmp	??1?$_Vector_val@UPkgFileInfo@Ogre@@V?$allocator@UPkgFileInfo@Ogre@@@std@@@std@@QAE@XZ
__ehhandler$??0?$vector@UPkgFileInfo@Ogre@@V?$allocator@UPkgFileInfo@Ogre@@@std@@@std@@QAE@XZ:
	mov	edx, DWORD PTR [esp+8]
	lea	eax, DWORD PTR [edx+12]
	mov	ecx, DWORD PTR [edx-12]
	xor	ecx, eax
	call	@__security_check_cookie@4
	mov	eax, OFFSET __ehfuncinfo$??0?$vector@UPkgFileInfo@Ogre@@V?$allocator@UPkgFileInfo@Ogre@@@std@@@std@@QAE@XZ
	jmp	___CxxFrameHandler3
text$x	ENDS
??0?$vector@UPkgFileInfo@Ogre@@V?$allocator@UPkgFileInfo@Ogre@@@std@@@std@@QAE@XZ ENDP ; std::vector<Ogre::PkgFileInfo,std::allocator<Ogre::PkgFileInfo> >::vector<Ogre::PkgFileInfo,std::allocator<Ogre::PkgFileInfo> >
PUBLIC	?_Tidy@?$vector@UPkgFileInfo@Ogre@@V?$allocator@UPkgFileInfo@Ogre@@@std@@@std@@IAEXXZ ; std::vector<Ogre::PkgFileInfo,std::allocator<Ogre::PkgFileInfo> >::_Tidy
PUBLIC	??$_Ucopy@V?$_Vector_const_iterator@UPkgFileInfo@Ogre@@V?$allocator@UPkgFileInfo@Ogre@@@std@@@std@@@?$vector@UPkgFileInfo@Ogre@@V?$allocator@UPkgFileInfo@Ogre@@@std@@@std@@IAEPAUPkgFileInfo@Ogre@@V?$_Vector_const_iterator@UPkgFileInfo@Ogre@@V?$allocator@UPkgFileInfo@Ogre@@@std@@@1@0PAU23@@Z ; std::vector<Ogre::PkgFileInfo,std::allocator<Ogre::PkgFileInfo> >::_Ucopy<std::_Vector_const_iterator<Ogre::PkgFileInfo,std::allocator<Ogre::PkgFileInfo> > >
PUBLIC	?begin@?$vector@UPkgFileInfo@Ogre@@V?$allocator@UPkgFileInfo@Ogre@@@std@@@std@@QBE?AV?$_Vector_const_iterator@UPkgFileInfo@Ogre@@V?$allocator@UPkgFileInfo@Ogre@@@std@@@2@XZ ; std::vector<Ogre::PkgFileInfo,std::allocator<Ogre::PkgFileInfo> >::begin
PUBLIC	?end@?$vector@UPkgFileInfo@Ogre@@V?$allocator@UPkgFileInfo@Ogre@@@std@@@std@@QBE?AV?$_Vector_const_iterator@UPkgFileInfo@Ogre@@V?$allocator@UPkgFileInfo@Ogre@@@std@@@2@XZ ; std::vector<Ogre::PkgFileInfo,std::allocator<Ogre::PkgFileInfo> >::end
PUBLIC	??0?$allocator@UPkgFileInfo@Ogre@@@std@@QAE@ABV01@@Z ; std::allocator<Ogre::PkgFileInfo>::allocator<Ogre::PkgFileInfo>
EXTRN	__CxxThrowException@8:PROC
;	COMDAT xdata$x
xdata$x	SEGMENT
__catchsym$??0?$vector@UPkgFileInfo@Ogre@@V?$allocator@UPkgFileInfo@Ogre@@@std@@@std@@QAE@ABV01@@Z$3 DD 00H
	DD	00H
	DD	00H
	DD	FLAT:__catch$??0?$vector@UPkgFileInfo@Ogre@@V?$allocator@UPkgFileInfo@Ogre@@@std@@@std@@QAE@ABV01@@Z$0
__tryblocktable$??0?$vector@UPkgFileInfo@Ogre@@V?$allocator@UPkgFileInfo@Ogre@@@std@@@std@@QAE@ABV01@@Z DD 01H
	DD	01H
	DD	02H
	DD	01H
	DD	FLAT:__catchsym$??0?$vector@UPkgFileInfo@Ogre@@V?$allocator@UPkgFileInfo@Ogre@@@std@@@std@@QAE@ABV01@@Z$3
__unwindtable$??0?$vector@UPkgFileInfo@Ogre@@V?$allocator@UPkgFileInfo@Ogre@@@std@@@std@@QAE@ABV01@@Z DD 0ffffffffH
	DD	FLAT:__unwindfunclet$??0?$vector@UPkgFileInfo@Ogre@@V?$allocator@UPkgFileInfo@Ogre@@@std@@@std@@QAE@ABV01@@Z$2
	DD	00H
	DD	00H
	DD	00H
	DD	00H
__ehfuncinfo$??0?$vector@UPkgFileInfo@Ogre@@V?$allocator@UPkgFileInfo@Ogre@@@std@@@std@@QAE@ABV01@@Z DD 019930522H
	DD	03H
	DD	FLAT:__unwindtable$??0?$vector@UPkgFileInfo@Ogre@@V?$allocator@UPkgFileInfo@Ogre@@@std@@@std@@QAE@ABV01@@Z
	DD	01H
	DD	FLAT:__tryblocktable$??0?$vector@UPkgFileInfo@Ogre@@V?$allocator@UPkgFileInfo@Ogre@@@std@@@std@@QAE@ABV01@@Z
	DD	2 DUP(00H)
	DD	00H
	DD	00H
; Function compile flags: /Odtp
xdata$x	ENDS
;	COMDAT ??0?$vector@UPkgFileInfo@Ogre@@V?$allocator@UPkgFileInfo@Ogre@@@std@@@std@@QAE@ABV01@@Z
_TEXT	SEGMENT
_this$ = -40						; size = 4
$T124214 = -36						; size = 8
$T124213 = -28						; size = 8
$T124212 = -20						; size = 4
__$EHRec$ = -16						; size = 16
__Right$ = 8						; size = 4
??0?$vector@UPkgFileInfo@Ogre@@V?$allocator@UPkgFileInfo@Ogre@@@std@@@std@@QAE@ABV01@@Z PROC ; std::vector<Ogre::PkgFileInfo,std::allocator<Ogre::PkgFileInfo> >::vector<Ogre::PkgFileInfo,std::allocator<Ogre::PkgFileInfo> >, COMDAT
; _this$ = ecx

; 500  : 		{	// construct by copying _Right

	push	ebp
	mov	ebp, esp
	push	-1
	push	__ehhandler$??0?$vector@UPkgFileInfo@Ogre@@V?$allocator@UPkgFileInfo@Ogre@@@std@@@std@@QAE@ABV01@@Z
	mov	eax, DWORD PTR fs:0
	push	eax
	push	ecx
	sub	esp, 24					; 00000018H
	push	ebx
	push	esi
	push	edi
	mov	eax, DWORD PTR ___security_cookie
	xor	eax, ebp
	push	eax
	lea	eax, DWORD PTR __$EHRec$[ebp+4]
	mov	DWORD PTR fs:0, eax
	mov	DWORD PTR __$EHRec$[ebp], esp
	mov	DWORD PTR _this$[ebp], ecx
	mov	eax, DWORD PTR __Right$[ebp]
	add	eax, 8
	push	ecx
	mov	ecx, esp
	mov	DWORD PTR $T124212[ebp], esp
	push	eax
	call	??0?$allocator@UPkgFileInfo@Ogre@@@std@@QAE@ABV01@@Z ; std::allocator<Ogre::PkgFileInfo>::allocator<Ogre::PkgFileInfo>
	mov	ecx, DWORD PTR _this$[ebp]
	call	??0?$_Vector_val@UPkgFileInfo@Ogre@@V?$allocator@UPkgFileInfo@Ogre@@@std@@@std@@IAE@V?$allocator@UPkgFileInfo@Ogre@@@1@@Z ; std::_Vector_val<Ogre::PkgFileInfo,std::allocator<Ogre::PkgFileInfo> >::_Vector_val<Ogre::PkgFileInfo,std::allocator<Ogre::PkgFileInfo> >
	mov	DWORD PTR __$EHRec$[ebp+12], 0

; 501  : 		if (_Buy(_Right.size()))

	mov	ecx, DWORD PTR __Right$[ebp]
	call	?size@?$vector@UPkgFileInfo@Ogre@@V?$allocator@UPkgFileInfo@Ogre@@@std@@@std@@QBEIXZ ; std::vector<Ogre::PkgFileInfo,std::allocator<Ogre::PkgFileInfo> >::size
	push	eax
	mov	ecx, DWORD PTR _this$[ebp]
	call	?_Buy@?$vector@UPkgFileInfo@Ogre@@V?$allocator@UPkgFileInfo@Ogre@@@std@@@std@@IAE_NI@Z ; std::vector<Ogre::PkgFileInfo,std::allocator<Ogre::PkgFileInfo> >::_Buy
	movzx	ecx, al
	test	ecx, ecx
	je	SHORT $LN3@vector@8

; 502  : 			_TRY_BEGIN

	mov	BYTE PTR __$EHRec$[ebp+12], 1

; 503  : 			_Mylast = _Ucopy(_Right.begin(), _Right.end(), _Myfirst);

	mov	edx, DWORD PTR _this$[ebp]
	mov	eax, DWORD PTR [edx+12]
	push	eax
	lea	ecx, DWORD PTR $T124213[ebp]
	push	ecx
	mov	ecx, DWORD PTR __Right$[ebp]
	call	?end@?$vector@UPkgFileInfo@Ogre@@V?$allocator@UPkgFileInfo@Ogre@@@std@@@std@@QBE?AV?$_Vector_const_iterator@UPkgFileInfo@Ogre@@V?$allocator@UPkgFileInfo@Ogre@@@std@@@2@XZ ; std::vector<Ogre::PkgFileInfo,std::allocator<Ogre::PkgFileInfo> >::end
	mov	edx, DWORD PTR [eax+4]
	push	edx
	mov	eax, DWORD PTR [eax]
	push	eax
	lea	ecx, DWORD PTR $T124214[ebp]
	push	ecx
	mov	ecx, DWORD PTR __Right$[ebp]
	call	?begin@?$vector@UPkgFileInfo@Ogre@@V?$allocator@UPkgFileInfo@Ogre@@@std@@@std@@QBE?AV?$_Vector_const_iterator@UPkgFileInfo@Ogre@@V?$allocator@UPkgFileInfo@Ogre@@@std@@@2@XZ ; std::vector<Ogre::PkgFileInfo,std::allocator<Ogre::PkgFileInfo> >::begin
	mov	edx, DWORD PTR [eax+4]
	push	edx
	mov	eax, DWORD PTR [eax]
	push	eax
	mov	ecx, DWORD PTR _this$[ebp]
	call	??$_Ucopy@V?$_Vector_const_iterator@UPkgFileInfo@Ogre@@V?$allocator@UPkgFileInfo@Ogre@@@std@@@std@@@?$vector@UPkgFileInfo@Ogre@@V?$allocator@UPkgFileInfo@Ogre@@@std@@@std@@IAEPAUPkgFileInfo@Ogre@@V?$_Vector_const_iterator@UPkgFileInfo@Ogre@@V?$allocator@UPkgFileInfo@Ogre@@@std@@@1@0PAU23@@Z ; std::vector<Ogre::PkgFileInfo,std::allocator<Ogre::PkgFileInfo> >::_Ucopy<std::_Vector_const_iterator<Ogre::PkgFileInfo,std::allocator<Ogre::PkgFileInfo> > >
	mov	ecx, DWORD PTR _this$[ebp]
	mov	DWORD PTR [ecx+16], eax
	jmp	SHORT $LN5@vector@8
__catch$??0?$vector@UPkgFileInfo@Ogre@@V?$allocator@UPkgFileInfo@Ogre@@@std@@@std@@QAE@ABV01@@Z$0:

; 504  : 			_CATCH_ALL
; 505  : 			_Tidy();

	mov	ecx, DWORD PTR _this$[ebp]
	call	?_Tidy@?$vector@UPkgFileInfo@Ogre@@V?$allocator@UPkgFileInfo@Ogre@@@std@@@std@@IAEXXZ ; std::vector<Ogre::PkgFileInfo,std::allocator<Ogre::PkgFileInfo> >::_Tidy

; 506  : 			_RERAISE;

	push	0
	push	0
	call	__CxxThrowException@8

; 507  : 			_CATCH_END

	mov	DWORD PTR __$EHRec$[ebp+12], 0
	mov	eax, $LN3@vector@8
	ret	0
$LN5@vector@8:
	mov	DWORD PTR __$EHRec$[ebp+12], 0
$LN3@vector@8:

; 508  : 		}

	mov	DWORD PTR __$EHRec$[ebp+12], -1
	mov	eax, DWORD PTR _this$[ebp]
$LN4@vector@8:
	mov	ecx, DWORD PTR __$EHRec$[ebp+4]
	mov	DWORD PTR fs:0, ecx
	pop	ecx
	pop	edi
	pop	esi
	pop	ebx
	mov	esp, ebp
	pop	ebp
	ret	4
_TEXT	ENDS
;	COMDAT text$x
text$x	SEGMENT
__unwindfunclet$??0?$vector@UPkgFileInfo@Ogre@@V?$allocator@UPkgFileInfo@Ogre@@@std@@@std@@QAE@ABV01@@Z$2:
	mov	ecx, DWORD PTR _this$[ebp]
	jmp	??1?$_Vector_val@UPkgFileInfo@Ogre@@V?$allocator@UPkgFileInfo@Ogre@@@std@@@std@@QAE@XZ
__ehhandler$??0?$vector@UPkgFileInfo@Ogre@@V?$allocator@UPkgFileInfo@Ogre@@@std@@@std@@QAE@ABV01@@Z:
	mov	edx, DWORD PTR [esp+8]
	lea	eax, DWORD PTR [edx+12]
	mov	ecx, DWORD PTR [edx-44]
	xor	ecx, eax
	call	@__security_check_cookie@4
	mov	eax, OFFSET __ehfuncinfo$??0?$vector@UPkgFileInfo@Ogre@@V?$allocator@UPkgFileInfo@Ogre@@@std@@@std@@QAE@ABV01@@Z
	jmp	___CxxFrameHandler3
text$x	ENDS
??0?$vector@UPkgFileInfo@Ogre@@V?$allocator@UPkgFileInfo@Ogre@@@std@@@std@@QAE@ABV01@@Z ENDP ; std::vector<Ogre::PkgFileInfo,std::allocator<Ogre::PkgFileInfo> >::vector<Ogre::PkgFileInfo,std::allocator<Ogre::PkgFileInfo> >
;	COMDAT xdata$x
xdata$x	SEGMENT
__unwindtable$??1?$vector@UPkgFileInfo@Ogre@@V?$allocator@UPkgFileInfo@Ogre@@@std@@@std@@QAE@XZ DD 0ffffffffH
	DD	FLAT:__unwindfunclet$??1?$vector@UPkgFileInfo@Ogre@@V?$allocator@UPkgFileInfo@Ogre@@@std@@@std@@QAE@XZ$0
__ehfuncinfo$??1?$vector@UPkgFileInfo@Ogre@@V?$allocator@UPkgFileInfo@Ogre@@@std@@@std@@QAE@XZ DD 019930522H
	DD	01H
	DD	FLAT:__unwindtable$??1?$vector@UPkgFileInfo@Ogre@@V?$allocator@UPkgFileInfo@Ogre@@@std@@@std@@QAE@XZ
	DD	2 DUP(00H)
	DD	2 DUP(00H)
	DD	00H
	DD	00H
; Function compile flags: /Odtp
xdata$x	ENDS
;	COMDAT ??1?$vector@UPkgFileInfo@Ogre@@V?$allocator@UPkgFileInfo@Ogre@@@std@@@std@@QAE@XZ
_TEXT	SEGMENT
_this$ = -16						; size = 4
__$EHRec$ = -12						; size = 12
??1?$vector@UPkgFileInfo@Ogre@@V?$allocator@UPkgFileInfo@Ogre@@@std@@@std@@QAE@XZ PROC ; std::vector<Ogre::PkgFileInfo,std::allocator<Ogre::PkgFileInfo> >::~vector<Ogre::PkgFileInfo,std::allocator<Ogre::PkgFileInfo> >, COMDAT
; _this$ = ecx

; 558  : 		{	// destroy the object

	push	ebp
	mov	ebp, esp
	push	-1
	push	__ehhandler$??1?$vector@UPkgFileInfo@Ogre@@V?$allocator@UPkgFileInfo@Ogre@@@std@@@std@@QAE@XZ
	mov	eax, DWORD PTR fs:0
	push	eax
	push	ecx
	mov	eax, DWORD PTR ___security_cookie
	xor	eax, ebp
	push	eax
	lea	eax, DWORD PTR __$EHRec$[ebp]
	mov	DWORD PTR fs:0, eax
	mov	DWORD PTR _this$[ebp], ecx
	mov	DWORD PTR __$EHRec$[ebp+8], 0

; 559  : 		_Tidy();

	mov	ecx, DWORD PTR _this$[ebp]
	call	?_Tidy@?$vector@UPkgFileInfo@Ogre@@V?$allocator@UPkgFileInfo@Ogre@@@std@@@std@@IAEXXZ ; std::vector<Ogre::PkgFileInfo,std::allocator<Ogre::PkgFileInfo> >::_Tidy

; 560  : 		}

	mov	DWORD PTR __$EHRec$[ebp+8], -1
	mov	ecx, DWORD PTR _this$[ebp]
	call	??1?$_Vector_val@UPkgFileInfo@Ogre@@V?$allocator@UPkgFileInfo@Ogre@@@std@@@std@@QAE@XZ
	mov	ecx, DWORD PTR __$EHRec$[ebp]
	mov	DWORD PTR fs:0, ecx
	pop	ecx
	mov	esp, ebp
	pop	ebp
	ret	0
_TEXT	ENDS
;	COMDAT text$x
text$x	SEGMENT
__unwindfunclet$??1?$vector@UPkgFileInfo@Ogre@@V?$allocator@UPkgFileInfo@Ogre@@@std@@@std@@QAE@XZ$0:
	mov	ecx, DWORD PTR _this$[ebp]
	jmp	??1?$_Vector_val@UPkgFileInfo@Ogre@@V?$allocator@UPkgFileInfo@Ogre@@@std@@@std@@QAE@XZ
__ehhandler$??1?$vector@UPkgFileInfo@Ogre@@V?$allocator@UPkgFileInfo@Ogre@@@std@@@std@@QAE@XZ:
	mov	edx, DWORD PTR [esp+8]
	lea	eax, DWORD PTR [edx+12]
	mov	ecx, DWORD PTR [edx-8]
	xor	ecx, eax
	call	@__security_check_cookie@4
	mov	eax, OFFSET __ehfuncinfo$??1?$vector@UPkgFileInfo@Ogre@@V?$allocator@UPkgFileInfo@Ogre@@@std@@@std@@QAE@XZ
	jmp	___CxxFrameHandler3
text$x	ENDS
??1?$vector@UPkgFileInfo@Ogre@@V?$allocator@UPkgFileInfo@Ogre@@@std@@@std@@QAE@XZ ENDP ; std::vector<Ogre::PkgFileInfo,std::allocator<Ogre::PkgFileInfo> >::~vector<Ogre::PkgFileInfo,std::allocator<Ogre::PkgFileInfo> >
PUBLIC	?deallocate@?$allocator@UPkgFileInfo@Ogre@@@std@@QAEXPAUPkgFileInfo@Ogre@@I@Z ; std::allocator<Ogre::PkgFileInfo>::deallocate
PUBLIC	??$_Ucopy@PAUPkgFileInfo@Ogre@@@?$vector@UPkgFileInfo@Ogre@@V?$allocator@UPkgFileInfo@Ogre@@@std@@@std@@IAEPAUPkgFileInfo@Ogre@@PAU23@00@Z ; std::vector<Ogre::PkgFileInfo,std::allocator<Ogre::PkgFileInfo> >::_Ucopy<Ogre::PkgFileInfo *>
PUBLIC	?capacity@?$vector@UPkgFileInfo@Ogre@@V?$allocator@UPkgFileInfo@Ogre@@@std@@@std@@QBEIXZ ; std::vector<Ogre::PkgFileInfo,std::allocator<Ogre::PkgFileInfo> >::capacity
PUBLIC	?_Destroy@?$vector@UPkgFileInfo@Ogre@@V?$allocator@UPkgFileInfo@Ogre@@@std@@@std@@IAEXPAUPkgFileInfo@Ogre@@0@Z ; std::vector<Ogre::PkgFileInfo,std::allocator<Ogre::PkgFileInfo> >::_Destroy
PUBLIC	??$unchecked_copy@PAUPkgFileInfo@Ogre@@PAU12@@stdext@@YAPAUPkgFileInfo@Ogre@@PAU12@00@Z ; stdext::unchecked_copy<Ogre::PkgFileInfo *,Ogre::PkgFileInfo *>
PUBLIC	?clear@?$vector@UPkgFileInfo@Ogre@@V?$allocator@UPkgFileInfo@Ogre@@@std@@@std@@QAEXXZ ; std::vector<Ogre::PkgFileInfo,std::allocator<Ogre::PkgFileInfo> >::clear
; Function compile flags: /Odtp
;	COMDAT ??4?$vector@UPkgFileInfo@Ogre@@V?$allocator@UPkgFileInfo@Ogre@@@std@@@std@@QAEAAV01@ABV01@@Z
_TEXT	SEGMENT
_this$ = -12						; size = 4
__Ptr$118177 = -8					; size = 4
__Ptr$118167 = -4					; size = 4
__Right$ = 8						; size = 4
??4?$vector@UPkgFileInfo@Ogre@@V?$allocator@UPkgFileInfo@Ogre@@@std@@@std@@QAEAAV01@ABV01@@Z PROC ; std::vector<Ogre::PkgFileInfo,std::allocator<Ogre::PkgFileInfo> >::operator=, COMDAT
; _this$ = ecx

; 563  : 		{	// assign _Right

	push	ebp
	mov	ebp, esp
	sub	esp, 12					; 0000000cH
	push	esi
	mov	DWORD PTR _this$[ebp], ecx

; 564  : 		if (this != &_Right)

	mov	eax, DWORD PTR _this$[ebp]
	cmp	eax, DWORD PTR __Right$[ebp]
	je	$LN9@operator

; 565  : 			{	// worth doing
; 566  : 
; 567  :  #if _HAS_ITERATOR_DEBUGGING
; 568  : 			this->_Orphan_all();
; 569  :  #endif /* _HAS_ITERATOR_DEBUGGING */
; 570  : 
; 571  : 			if (_Right.size() == 0)

	mov	ecx, DWORD PTR __Right$[ebp]
	call	?size@?$vector@UPkgFileInfo@Ogre@@V?$allocator@UPkgFileInfo@Ogre@@@std@@@std@@QBEIXZ ; std::vector<Ogre::PkgFileInfo,std::allocator<Ogre::PkgFileInfo> >::size
	test	eax, eax
	jne	SHORT $LN8@operator

; 572  : 				clear();	// new sequence empty, erase existing sequence

	mov	ecx, DWORD PTR _this$[ebp]
	call	?clear@?$vector@UPkgFileInfo@Ogre@@V?$allocator@UPkgFileInfo@Ogre@@@std@@@std@@QAEXXZ ; std::vector<Ogre::PkgFileInfo,std::allocator<Ogre::PkgFileInfo> >::clear
	jmp	$LN9@operator
$LN8@operator:

; 573  : 			else if (_Right.size() <= size())

	mov	ecx, DWORD PTR __Right$[ebp]
	call	?size@?$vector@UPkgFileInfo@Ogre@@V?$allocator@UPkgFileInfo@Ogre@@@std@@@std@@QBEIXZ ; std::vector<Ogre::PkgFileInfo,std::allocator<Ogre::PkgFileInfo> >::size
	mov	esi, eax
	mov	ecx, DWORD PTR _this$[ebp]
	call	?size@?$vector@UPkgFileInfo@Ogre@@V?$allocator@UPkgFileInfo@Ogre@@@std@@@std@@QBEIXZ ; std::vector<Ogre::PkgFileInfo,std::allocator<Ogre::PkgFileInfo> >::size
	cmp	esi, eax
	ja	SHORT $LN6@operator

; 574  : 				{	// enough elements, copy new and destroy old
; 575  : 				pointer _Ptr = _STDEXT unchecked_copy(_Right._Myfirst, _Right._Mylast,
; 576  : 					_Myfirst);	// copy new

	mov	ecx, DWORD PTR _this$[ebp]
	mov	edx, DWORD PTR [ecx+12]
	push	edx
	mov	eax, DWORD PTR __Right$[ebp]
	mov	ecx, DWORD PTR [eax+16]
	push	ecx
	mov	edx, DWORD PTR __Right$[ebp]
	mov	eax, DWORD PTR [edx+12]
	push	eax
	call	??$unchecked_copy@PAUPkgFileInfo@Ogre@@PAU12@@stdext@@YAPAUPkgFileInfo@Ogre@@PAU12@00@Z ; stdext::unchecked_copy<Ogre::PkgFileInfo *,Ogre::PkgFileInfo *>
	add	esp, 12					; 0000000cH
	mov	DWORD PTR __Ptr$118167[ebp], eax

; 577  : 				_Destroy(_Ptr, _Mylast);	// destroy old

	mov	ecx, DWORD PTR _this$[ebp]
	mov	edx, DWORD PTR [ecx+16]
	push	edx
	mov	eax, DWORD PTR __Ptr$118167[ebp]
	push	eax
	mov	ecx, DWORD PTR _this$[ebp]
	call	?_Destroy@?$vector@UPkgFileInfo@Ogre@@V?$allocator@UPkgFileInfo@Ogre@@@std@@@std@@IAEXPAUPkgFileInfo@Ogre@@0@Z ; std::vector<Ogre::PkgFileInfo,std::allocator<Ogre::PkgFileInfo> >::_Destroy

; 578  : 				_Mylast = _Myfirst + _Right.size();

	mov	ecx, DWORD PTR __Right$[ebp]
	call	?size@?$vector@UPkgFileInfo@Ogre@@V?$allocator@UPkgFileInfo@Ogre@@@std@@@std@@QBEIXZ ; std::vector<Ogre::PkgFileInfo,std::allocator<Ogre::PkgFileInfo> >::size
	imul	eax, 24					; 00000018H
	mov	ecx, DWORD PTR _this$[ebp]
	add	eax, DWORD PTR [ecx+12]
	mov	edx, DWORD PTR _this$[ebp]
	mov	DWORD PTR [edx+16], eax
	jmp	$LN9@operator
$LN6@operator:

; 579  : 				}
; 580  : 			else if (_Right.size() <= capacity())

	mov	ecx, DWORD PTR __Right$[ebp]
	call	?size@?$vector@UPkgFileInfo@Ogre@@V?$allocator@UPkgFileInfo@Ogre@@@std@@@std@@QBEIXZ ; std::vector<Ogre::PkgFileInfo,std::allocator<Ogre::PkgFileInfo> >::size
	mov	esi, eax
	mov	ecx, DWORD PTR _this$[ebp]
	call	?capacity@?$vector@UPkgFileInfo@Ogre@@V?$allocator@UPkgFileInfo@Ogre@@@std@@@std@@QBEIXZ ; std::vector<Ogre::PkgFileInfo,std::allocator<Ogre::PkgFileInfo> >::capacity
	cmp	esi, eax
	ja	SHORT $LN4@operator

; 581  : 				{	// enough room, copy and construct new
; 582  : 				pointer _Ptr = _Right._Myfirst + size();

	mov	ecx, DWORD PTR _this$[ebp]
	call	?size@?$vector@UPkgFileInfo@Ogre@@V?$allocator@UPkgFileInfo@Ogre@@@std@@@std@@QBEIXZ ; std::vector<Ogre::PkgFileInfo,std::allocator<Ogre::PkgFileInfo> >::size
	imul	eax, 24					; 00000018H
	mov	ecx, DWORD PTR __Right$[ebp]
	add	eax, DWORD PTR [ecx+12]
	mov	DWORD PTR __Ptr$118177[ebp], eax

; 583  : 				_STDEXT unchecked_copy(_Right._Myfirst, _Ptr, _Myfirst);

	mov	edx, DWORD PTR _this$[ebp]
	mov	eax, DWORD PTR [edx+12]
	push	eax
	mov	ecx, DWORD PTR __Ptr$118177[ebp]
	push	ecx
	mov	edx, DWORD PTR __Right$[ebp]
	mov	eax, DWORD PTR [edx+12]
	push	eax
	call	??$unchecked_copy@PAUPkgFileInfo@Ogre@@PAU12@@stdext@@YAPAUPkgFileInfo@Ogre@@PAU12@00@Z ; stdext::unchecked_copy<Ogre::PkgFileInfo *,Ogre::PkgFileInfo *>
	add	esp, 12					; 0000000cH

; 584  : 				_Mylast = _Ucopy(_Ptr, _Right._Mylast, _Mylast);

	mov	ecx, DWORD PTR _this$[ebp]
	mov	edx, DWORD PTR [ecx+16]
	push	edx
	mov	eax, DWORD PTR __Right$[ebp]
	mov	ecx, DWORD PTR [eax+16]
	push	ecx
	mov	edx, DWORD PTR __Ptr$118177[ebp]
	push	edx
	mov	ecx, DWORD PTR _this$[ebp]
	call	??$_Ucopy@PAUPkgFileInfo@Ogre@@@?$vector@UPkgFileInfo@Ogre@@V?$allocator@UPkgFileInfo@Ogre@@@std@@@std@@IAEPAUPkgFileInfo@Ogre@@PAU23@00@Z ; std::vector<Ogre::PkgFileInfo,std::allocator<Ogre::PkgFileInfo> >::_Ucopy<Ogre::PkgFileInfo *>
	mov	ecx, DWORD PTR _this$[ebp]
	mov	DWORD PTR [ecx+16], eax

; 585  : 				}
; 586  : 			else

	jmp	$LN9@operator
$LN4@operator:

; 587  : 				{	// not enough room, allocate new array and construct new
; 588  : 				if (_Myfirst != 0)

	mov	edx, DWORD PTR _this$[ebp]
	cmp	DWORD PTR [edx+12], 0
	je	SHORT $LN2@operator

; 589  : 					{	// discard old array
; 590  : 					_Destroy(_Myfirst, _Mylast);

	mov	eax, DWORD PTR _this$[ebp]
	mov	ecx, DWORD PTR [eax+16]
	push	ecx
	mov	edx, DWORD PTR _this$[ebp]
	mov	eax, DWORD PTR [edx+12]
	push	eax
	mov	ecx, DWORD PTR _this$[ebp]
	call	?_Destroy@?$vector@UPkgFileInfo@Ogre@@V?$allocator@UPkgFileInfo@Ogre@@@std@@@std@@IAEXPAUPkgFileInfo@Ogre@@0@Z ; std::vector<Ogre::PkgFileInfo,std::allocator<Ogre::PkgFileInfo> >::_Destroy

; 591  : 					this->_Alval.deallocate(_Myfirst, _Myend - _Myfirst);

	mov	ecx, DWORD PTR _this$[ebp]
	mov	edx, DWORD PTR _this$[ebp]
	mov	eax, DWORD PTR [ecx+20]
	sub	eax, DWORD PTR [edx+12]
	cdq
	mov	ecx, 24					; 00000018H
	idiv	ecx
	push	eax
	mov	edx, DWORD PTR _this$[ebp]
	mov	eax, DWORD PTR [edx+12]
	push	eax
	mov	ecx, DWORD PTR _this$[ebp]
	add	ecx, 8
	call	?deallocate@?$allocator@UPkgFileInfo@Ogre@@@std@@QAEXPAUPkgFileInfo@Ogre@@I@Z ; std::allocator<Ogre::PkgFileInfo>::deallocate
$LN2@operator:

; 592  : 					}
; 593  : 				if (_Buy(_Right.size()))

	mov	ecx, DWORD PTR __Right$[ebp]
	call	?size@?$vector@UPkgFileInfo@Ogre@@V?$allocator@UPkgFileInfo@Ogre@@@std@@@std@@QBEIXZ ; std::vector<Ogre::PkgFileInfo,std::allocator<Ogre::PkgFileInfo> >::size
	push	eax
	mov	ecx, DWORD PTR _this$[ebp]
	call	?_Buy@?$vector@UPkgFileInfo@Ogre@@V?$allocator@UPkgFileInfo@Ogre@@@std@@@std@@IAE_NI@Z ; std::vector<Ogre::PkgFileInfo,std::allocator<Ogre::PkgFileInfo> >::_Buy
	movzx	ecx, al
	test	ecx, ecx
	je	SHORT $LN9@operator

; 594  : 					_Mylast = _Ucopy(_Right._Myfirst, _Right._Mylast,
; 595  : 						_Myfirst);

	mov	edx, DWORD PTR _this$[ebp]
	mov	eax, DWORD PTR [edx+12]
	push	eax
	mov	ecx, DWORD PTR __Right$[ebp]
	mov	edx, DWORD PTR [ecx+16]
	push	edx
	mov	eax, DWORD PTR __Right$[ebp]
	mov	ecx, DWORD PTR [eax+12]
	push	ecx
	mov	ecx, DWORD PTR _this$[ebp]
	call	??$_Ucopy@PAUPkgFileInfo@Ogre@@@?$vector@UPkgFileInfo@Ogre@@V?$allocator@UPkgFileInfo@Ogre@@@std@@@std@@IAEPAUPkgFileInfo@Ogre@@PAU23@00@Z ; std::vector<Ogre::PkgFileInfo,std::allocator<Ogre::PkgFileInfo> >::_Ucopy<Ogre::PkgFileInfo *>
	mov	edx, DWORD PTR _this$[ebp]
	mov	DWORD PTR [edx+16], eax
$LN9@operator:

; 596  : 				}
; 597  : 			}
; 598  : 		return (*this);

	mov	eax, DWORD PTR _this$[ebp]

; 599  : 		}

	pop	esi
	mov	esp, ebp
	pop	ebp
	ret	4
??4?$vector@UPkgFileInfo@Ogre@@V?$allocator@UPkgFileInfo@Ogre@@@std@@@std@@QAEAAV01@ABV01@@Z ENDP ; std::vector<Ogre::PkgFileInfo,std::allocator<Ogre::PkgFileInfo> >::operator=
_TEXT	ENDS
PUBLIC	?resize@?$vector@UPkgFileInfo@Ogre@@V?$allocator@UPkgFileInfo@Ogre@@@std@@@std@@QAEXIUPkgFileInfo@Ogre@@@Z ; std::vector<Ogre::PkgFileInfo,std::allocator<Ogre::PkgFileInfo> >::resize
; Function compile flags: /Odtp
;	COMDAT ?resize@?$vector@UPkgFileInfo@Ogre@@V?$allocator@UPkgFileInfo@Ogre@@@std@@@std@@QAEXI@Z
_TEXT	SEGMENT
_this$ = -28						; size = 4
$T124243 = -24						; size = 24
__Newsize$ = 8						; size = 4
?resize@?$vector@UPkgFileInfo@Ogre@@V?$allocator@UPkgFileInfo@Ogre@@@std@@@std@@QAEXI@Z PROC ; std::vector<Ogre::PkgFileInfo,std::allocator<Ogre::PkgFileInfo> >::resize, COMDAT
; _this$ = ecx

; 712  : 		{	// determine new length, padding with _Ty() elements as needed

	push	ebp
	mov	ebp, esp
	sub	esp, 28					; 0000001cH
	mov	DWORD PTR _this$[ebp], ecx

; 713  : 		resize(_Newsize, _Ty());

	xor	eax, eax
	mov	DWORD PTR $T124243[ebp], eax
	mov	DWORD PTR $T124243[ebp+4], eax
	mov	DWORD PTR $T124243[ebp+8], eax
	mov	DWORD PTR $T124243[ebp+12], eax
	mov	DWORD PTR $T124243[ebp+16], eax
	mov	DWORD PTR $T124243[ebp+20], eax
	sub	esp, 24					; 00000018H
	mov	ecx, esp
	mov	edx, DWORD PTR $T124243[ebp]
	mov	DWORD PTR [ecx], edx
	mov	eax, DWORD PTR $T124243[ebp+4]
	mov	DWORD PTR [ecx+4], eax
	mov	edx, DWORD PTR $T124243[ebp+8]
	mov	DWORD PTR [ecx+8], edx
	mov	eax, DWORD PTR $T124243[ebp+12]
	mov	DWORD PTR [ecx+12], eax
	mov	edx, DWORD PTR $T124243[ebp+16]
	mov	DWORD PTR [ecx+16], edx
	mov	eax, DWORD PTR $T124243[ebp+20]
	mov	DWORD PTR [ecx+20], eax
	mov	ecx, DWORD PTR __Newsize$[ebp]
	push	ecx
	mov	ecx, DWORD PTR _this$[ebp]
	call	?resize@?$vector@UPkgFileInfo@Ogre@@V?$allocator@UPkgFileInfo@Ogre@@@std@@@std@@QAEXIUPkgFileInfo@Ogre@@@Z ; std::vector<Ogre::PkgFileInfo,std::allocator<Ogre::PkgFileInfo> >::resize

; 714  : 		}

	mov	esp, ebp
	pop	ebp
	ret	4
?resize@?$vector@UPkgFileInfo@Ogre@@V?$allocator@UPkgFileInfo@Ogre@@@std@@@std@@QAEXI@Z ENDP ; std::vector<Ogre::PkgFileInfo,std::allocator<Ogre::PkgFileInfo> >::resize
; Function compile flags: /Odtp
_TEXT	ENDS
;	COMDAT ?size@?$vector@UPkgFileInfo@Ogre@@V?$allocator@UPkgFileInfo@Ogre@@@std@@@std@@QBEIXZ
_TEXT	SEGMENT
_this$ = -4						; size = 4
?size@?$vector@UPkgFileInfo@Ogre@@V?$allocator@UPkgFileInfo@Ogre@@@std@@@std@@QBEIXZ PROC ; std::vector<Ogre::PkgFileInfo,std::allocator<Ogre::PkgFileInfo> >::size, COMDAT
; _this$ = ecx

; 725  : 		{	// return length of sequence

	push	ebp
	mov	ebp, esp
	push	ecx
	mov	DWORD PTR _this$[ebp], ecx

; 726  : 		return (_Mylast - _Myfirst);

	mov	eax, DWORD PTR _this$[ebp]
	mov	ecx, DWORD PTR _this$[ebp]
	mov	eax, DWORD PTR [eax+16]
	sub	eax, DWORD PTR [ecx+12]
	cdq
	mov	ecx, 24					; 00000018H
	idiv	ecx

; 727  : 		}

	mov	esp, ebp
	pop	ebp
	ret	0
?size@?$vector@UPkgFileInfo@Ogre@@V?$allocator@UPkgFileInfo@Ogre@@@std@@@std@@QBEIXZ ENDP ; std::vector<Ogre::PkgFileInfo,std::allocator<Ogre::PkgFileInfo> >::size
_TEXT	ENDS
EXTRN	__imp___invalid_parameter_noinfo:PROC
; Function compile flags: /Odtp
;	COMDAT ??A?$vector@UPkgFileInfo@Ogre@@V?$allocator@UPkgFileInfo@Ogre@@@std@@@std@@QAEAAUPkgFileInfo@Ogre@@I@Z
_TEXT	SEGMENT
_this$ = -4						; size = 4
__Pos$ = 8						; size = 4
??A?$vector@UPkgFileInfo@Ogre@@V?$allocator@UPkgFileInfo@Ogre@@@std@@@std@@QAEAAUPkgFileInfo@Ogre@@I@Z PROC ; std::vector<Ogre::PkgFileInfo,std::allocator<Ogre::PkgFileInfo> >::operator[], COMDAT
; _this$ = ecx

; 774  : 		{	// subscript mutable sequence

	push	ebp
	mov	ebp, esp
	push	ecx
	mov	DWORD PTR _this$[ebp], ecx

; 775  : 
; 776  :  #if _HAS_ITERATOR_DEBUGGING
; 777  : 		if (size() <= _Pos)
; 778  : 			{
; 779  : 			_DEBUG_ERROR("vector subscript out of range");
; 780  : 			_SCL_SECURE_OUT_OF_RANGE;
; 781  : 			}
; 782  :  #endif /* _HAS_ITERATOR_DEBUGGING */
; 783  : 		_SCL_SECURE_VALIDATE_RANGE(_Pos < size());

	mov	ecx, DWORD PTR _this$[ebp]
	call	?size@?$vector@UPkgFileInfo@Ogre@@V?$allocator@UPkgFileInfo@Ogre@@@std@@@std@@QBEIXZ ; std::vector<Ogre::PkgFileInfo,std::allocator<Ogre::PkgFileInfo> >::size
	cmp	DWORD PTR __Pos$[ebp], eax
	jb	SHORT $LN1@operator@2
	call	DWORD PTR __imp___invalid_parameter_noinfo
$LN1@operator@2:

; 784  : 
; 785  : 		return (*(_Myfirst + _Pos));

	mov	eax, DWORD PTR __Pos$[ebp]
	imul	eax, 24					; 00000018H
	mov	ecx, DWORD PTR _this$[ebp]
	add	eax, DWORD PTR [ecx+12]

; 786  : 		}

	mov	esp, ebp
	pop	ebp
	ret	4
??A?$vector@UPkgFileInfo@Ogre@@V?$allocator@UPkgFileInfo@Ogre@@@std@@@std@@QAEAAUPkgFileInfo@Ogre@@I@Z ENDP ; std::vector<Ogre::PkgFileInfo,std::allocator<Ogre::PkgFileInfo> >::operator[]
_TEXT	ENDS
PUBLIC	??1?$_Vector_val@PAVPackageDataStreamObject@Ogre@@V?$allocator@PAVPackageDataStreamObject@Ogre@@@std@@@std@@QAE@XZ ; std::_Vector_val<Ogre::PackageDataStreamObject *,std::allocator<Ogre::PackageDataStreamObject *> >::~_Vector_val<Ogre::PackageDataStreamObject *,std::allocator<Ogre::PackageDataStreamObject *> >
PUBLIC	?_Buy@?$vector@PAVPackageDataStreamObject@Ogre@@V?$allocator@PAVPackageDataStreamObject@Ogre@@@std@@@std@@IAE_NI@Z ; std::vector<Ogre::PackageDataStreamObject *,std::allocator<Ogre::PackageDataStreamObject *> >::_Buy
PUBLIC	??0?$_Vector_val@PAVPackageDataStreamObject@Ogre@@V?$allocator@PAVPackageDataStreamObject@Ogre@@@std@@@std@@IAE@V?$allocator@PAVPackageDataStreamObject@Ogre@@@1@@Z ; std::_Vector_val<Ogre::PackageDataStreamObject *,std::allocator<Ogre::PackageDataStreamObject *> >::_Vector_val<Ogre::PackageDataStreamObject *,std::allocator<Ogre::PackageDataStreamObject *> >
PUBLIC	??0?$allocator@PAVPackageDataStreamObject@Ogre@@@std@@QAE@XZ ; std::allocator<Ogre::PackageDataStreamObject *>::allocator<Ogre::PackageDataStreamObject *>
;	COMDAT xdata$x
xdata$x	SEGMENT
__unwindtable$??0?$vector@PAVPackageDataStreamObject@Ogre@@V?$allocator@PAVPackageDataStreamObject@Ogre@@@std@@@std@@QAE@XZ DD 0ffffffffH
	DD	FLAT:__unwindfunclet$??0?$vector@PAVPackageDataStreamObject@Ogre@@V?$allocator@PAVPackageDataStreamObject@Ogre@@@std@@@std@@QAE@XZ$0
__ehfuncinfo$??0?$vector@PAVPackageDataStreamObject@Ogre@@V?$allocator@PAVPackageDataStreamObject@Ogre@@@std@@@std@@QAE@XZ DD 019930522H
	DD	01H
	DD	FLAT:__unwindtable$??0?$vector@PAVPackageDataStreamObject@Ogre@@V?$allocator@PAVPackageDataStreamObject@Ogre@@@std@@@std@@QAE@XZ
	DD	2 DUP(00H)
	DD	2 DUP(00H)
	DD	00H
	DD	00H
; Function compile flags: /Odtp
xdata$x	ENDS
;	COMDAT ??0?$vector@PAVPackageDataStreamObject@Ogre@@V?$allocator@PAVPackageDataStreamObject@Ogre@@@std@@@std@@QAE@XZ
_TEXT	SEGMENT
_this$ = -20						; size = 4
$T124250 = -16						; size = 4
__$EHRec$ = -12						; size = 12
??0?$vector@PAVPackageDataStreamObject@Ogre@@V?$allocator@PAVPackageDataStreamObject@Ogre@@@std@@@std@@QAE@XZ PROC ; std::vector<Ogre::PackageDataStreamObject *,std::allocator<Ogre::PackageDataStreamObject *> >::vector<Ogre::PackageDataStreamObject *,std::allocator<Ogre::PackageDataStreamObject *> >, COMDAT
; _this$ = ecx

; 470  : 		{	// construct empty vector

	push	ebp
	mov	ebp, esp
	push	-1
	push	__ehhandler$??0?$vector@PAVPackageDataStreamObject@Ogre@@V?$allocator@PAVPackageDataStreamObject@Ogre@@@std@@@std@@QAE@XZ
	mov	eax, DWORD PTR fs:0
	push	eax
	sub	esp, 8
	mov	eax, DWORD PTR ___security_cookie
	xor	eax, ebp
	push	eax
	lea	eax, DWORD PTR __$EHRec$[ebp]
	mov	DWORD PTR fs:0, eax
	mov	DWORD PTR _this$[ebp], ecx
	push	ecx
	mov	ecx, esp
	mov	DWORD PTR $T124250[ebp], esp
	call	??0?$allocator@PAVPackageDataStreamObject@Ogre@@@std@@QAE@XZ ; std::allocator<Ogre::PackageDataStreamObject *>::allocator<Ogre::PackageDataStreamObject *>
	mov	ecx, DWORD PTR _this$[ebp]
	call	??0?$_Vector_val@PAVPackageDataStreamObject@Ogre@@V?$allocator@PAVPackageDataStreamObject@Ogre@@@std@@@std@@IAE@V?$allocator@PAVPackageDataStreamObject@Ogre@@@1@@Z ; std::_Vector_val<Ogre::PackageDataStreamObject *,std::allocator<Ogre::PackageDataStreamObject *> >::_Vector_val<Ogre::PackageDataStreamObject *,std::allocator<Ogre::PackageDataStreamObject *> >
	mov	DWORD PTR __$EHRec$[ebp+8], 0

; 471  : 		_Buy(0);

	push	0
	mov	ecx, DWORD PTR _this$[ebp]
	call	?_Buy@?$vector@PAVPackageDataStreamObject@Ogre@@V?$allocator@PAVPackageDataStreamObject@Ogre@@@std@@@std@@IAE_NI@Z ; std::vector<Ogre::PackageDataStreamObject *,std::allocator<Ogre::PackageDataStreamObject *> >::_Buy

; 472  : 		}

	mov	DWORD PTR __$EHRec$[ebp+8], -1
	mov	eax, DWORD PTR _this$[ebp]
	mov	ecx, DWORD PTR __$EHRec$[ebp]
	mov	DWORD PTR fs:0, ecx
	pop	ecx
	mov	esp, ebp
	pop	ebp
	ret	0
_TEXT	ENDS
;	COMDAT text$x
text$x	SEGMENT
__unwindfunclet$??0?$vector@PAVPackageDataStreamObject@Ogre@@V?$allocator@PAVPackageDataStreamObject@Ogre@@@std@@@std@@QAE@XZ$0:
	mov	ecx, DWORD PTR _this$[ebp]
	jmp	??1?$_Vector_val@PAVPackageDataStreamObject@Ogre@@V?$allocator@PAVPackageDataStreamObject@Ogre@@@std@@@std@@QAE@XZ
__ehhandler$??0?$vector@PAVPackageDataStreamObject@Ogre@@V?$allocator@PAVPackageDataStreamObject@Ogre@@@std@@@std@@QAE@XZ:
	mov	edx, DWORD PTR [esp+8]
	lea	eax, DWORD PTR [edx+12]
	mov	ecx, DWORD PTR [edx-12]
	xor	ecx, eax
	call	@__security_check_cookie@4
	mov	eax, OFFSET __ehfuncinfo$??0?$vector@PAVPackageDataStreamObject@Ogre@@V?$allocator@PAVPackageDataStreamObject@Ogre@@@std@@@std@@QAE@XZ
	jmp	___CxxFrameHandler3
text$x	ENDS
??0?$vector@PAVPackageDataStreamObject@Ogre@@V?$allocator@PAVPackageDataStreamObject@Ogre@@@std@@@std@@QAE@XZ ENDP ; std::vector<Ogre::PackageDataStreamObject *,std::allocator<Ogre::PackageDataStreamObject *> >::vector<Ogre::PackageDataStreamObject *,std::allocator<Ogre::PackageDataStreamObject *> >
PUBLIC	?_Tidy@?$vector@PAVPackageDataStreamObject@Ogre@@V?$allocator@PAVPackageDataStreamObject@Ogre@@@std@@@std@@IAEXXZ ; std::vector<Ogre::PackageDataStreamObject *,std::allocator<Ogre::PackageDataStreamObject *> >::_Tidy
PUBLIC	??$_Ucopy@V?$_Vector_const_iterator@PAVPackageDataStreamObject@Ogre@@V?$allocator@PAVPackageDataStreamObject@Ogre@@@std@@@std@@@?$vector@PAVPackageDataStreamObject@Ogre@@V?$allocator@PAVPackageDataStreamObject@Ogre@@@std@@@std@@IAEPAPAVPackageDataStreamObject@Ogre@@V?$_Vector_const_iterator@PAVPackageDataStreamObject@Ogre@@V?$allocator@PAVPackageDataStreamObject@Ogre@@@std@@@1@0PAPAV23@@Z ; std::vector<Ogre::PackageDataStreamObject *,std::allocator<Ogre::PackageDataStreamObject *> >::_Ucopy<std::_Vector_const_iterator<Ogre::PackageDataStreamObject *,std::allocator<Ogre::PackageDataStreamObject *> > >
PUBLIC	?begin@?$vector@PAVPackageDataStreamObject@Ogre@@V?$allocator@PAVPackageDataStreamObject@Ogre@@@std@@@std@@QBE?AV?$_Vector_const_iterator@PAVPackageDataStreamObject@Ogre@@V?$allocator@PAVPackageDataStreamObject@Ogre@@@std@@@2@XZ ; std::vector<Ogre::PackageDataStreamObject *,std::allocator<Ogre::PackageDataStreamObject *> >::begin
PUBLIC	?end@?$vector@PAVPackageDataStreamObject@Ogre@@V?$allocator@PAVPackageDataStreamObject@Ogre@@@std@@@std@@QBE?AV?$_Vector_const_iterator@PAVPackageDataStreamObject@Ogre@@V?$allocator@PAVPackageDataStreamObject@Ogre@@@std@@@2@XZ ; std::vector<Ogre::PackageDataStreamObject *,std::allocator<Ogre::PackageDataStreamObject *> >::end
PUBLIC	??0?$allocator@PAVPackageDataStreamObject@Ogre@@@std@@QAE@ABV01@@Z ; std::allocator<Ogre::PackageDataStreamObject *>::allocator<Ogre::PackageDataStreamObject *>
;	COMDAT xdata$x
xdata$x	SEGMENT
__catchsym$??0?$vector@PAVPackageDataStreamObject@Ogre@@V?$allocator@PAVPackageDataStreamObject@Ogre@@@std@@@std@@QAE@ABV01@@Z$3 DD 00H
	DD	00H
	DD	00H
	DD	FLAT:__catch$??0?$vector@PAVPackageDataStreamObject@Ogre@@V?$allocator@PAVPackageDataStreamObject@Ogre@@@std@@@std@@QAE@ABV01@@Z$0
__tryblocktable$??0?$vector@PAVPackageDataStreamObject@Ogre@@V?$allocator@PAVPackageDataStreamObject@Ogre@@@std@@@std@@QAE@ABV01@@Z DD 01H
	DD	01H
	DD	02H
	DD	01H
	DD	FLAT:__catchsym$??0?$vector@PAVPackageDataStreamObject@Ogre@@V?$allocator@PAVPackageDataStreamObject@Ogre@@@std@@@std@@QAE@ABV01@@Z$3
__unwindtable$??0?$vector@PAVPackageDataStreamObject@Ogre@@V?$allocator@PAVPackageDataStreamObject@Ogre@@@std@@@std@@QAE@ABV01@@Z DD 0ffffffffH
	DD	FLAT:__unwindfunclet$??0?$vector@PAVPackageDataStreamObject@Ogre@@V?$allocator@PAVPackageDataStreamObject@Ogre@@@std@@@std@@QAE@ABV01@@Z$2
	DD	00H
	DD	00H
	DD	00H
	DD	00H
__ehfuncinfo$??0?$vector@PAVPackageDataStreamObject@Ogre@@V?$allocator@PAVPackageDataStreamObject@Ogre@@@std@@@std@@QAE@ABV01@@Z DD 019930522H
	DD	03H
	DD	FLAT:__unwindtable$??0?$vector@PAVPackageDataStreamObject@Ogre@@V?$allocator@PAVPackageDataStreamObject@Ogre@@@std@@@std@@QAE@ABV01@@Z
	DD	01H
	DD	FLAT:__tryblocktable$??0?$vector@PAVPackageDataStreamObject@Ogre@@V?$allocator@PAVPackageDataStreamObject@Ogre@@@std@@@std@@QAE@ABV01@@Z
	DD	2 DUP(00H)
	DD	00H
	DD	00H
; Function compile flags: /Odtp
xdata$x	ENDS
;	COMDAT ??0?$vector@PAVPackageDataStreamObject@Ogre@@V?$allocator@PAVPackageDataStreamObject@Ogre@@@std@@@std@@QAE@ABV01@@Z
_TEXT	SEGMENT
_this$ = -40						; size = 4
$T124262 = -36						; size = 8
$T124261 = -28						; size = 8
$T124260 = -20						; size = 4
__$EHRec$ = -16						; size = 16
__Right$ = 8						; size = 4
??0?$vector@PAVPackageDataStreamObject@Ogre@@V?$allocator@PAVPackageDataStreamObject@Ogre@@@std@@@std@@QAE@ABV01@@Z PROC ; std::vector<Ogre::PackageDataStreamObject *,std::allocator<Ogre::PackageDataStreamObject *> >::vector<Ogre::PackageDataStreamObject *,std::allocator<Ogre::PackageDataStreamObject *> >, COMDAT
; _this$ = ecx

; 500  : 		{	// construct by copying _Right

	push	ebp
	mov	ebp, esp
	push	-1
	push	__ehhandler$??0?$vector@PAVPackageDataStreamObject@Ogre@@V?$allocator@PAVPackageDataStreamObject@Ogre@@@std@@@std@@QAE@ABV01@@Z
	mov	eax, DWORD PTR fs:0
	push	eax
	push	ecx
	sub	esp, 24					; 00000018H
	push	ebx
	push	esi
	push	edi
	mov	eax, DWORD PTR ___security_cookie
	xor	eax, ebp
	push	eax
	lea	eax, DWORD PTR __$EHRec$[ebp+4]
	mov	DWORD PTR fs:0, eax
	mov	DWORD PTR __$EHRec$[ebp], esp
	mov	DWORD PTR _this$[ebp], ecx
	mov	eax, DWORD PTR __Right$[ebp]
	add	eax, 8
	push	ecx
	mov	ecx, esp
	mov	DWORD PTR $T124260[ebp], esp
	push	eax
	call	??0?$allocator@PAVPackageDataStreamObject@Ogre@@@std@@QAE@ABV01@@Z ; std::allocator<Ogre::PackageDataStreamObject *>::allocator<Ogre::PackageDataStreamObject *>
	mov	ecx, DWORD PTR _this$[ebp]
	call	??0?$_Vector_val@PAVPackageDataStreamObject@Ogre@@V?$allocator@PAVPackageDataStreamObject@Ogre@@@std@@@std@@IAE@V?$allocator@PAVPackageDataStreamObject@Ogre@@@1@@Z ; std::_Vector_val<Ogre::PackageDataStreamObject *,std::allocator<Ogre::PackageDataStreamObject *> >::_Vector_val<Ogre::PackageDataStreamObject *,std::allocator<Ogre::PackageDataStreamObject *> >
	mov	DWORD PTR __$EHRec$[ebp+12], 0

; 501  : 		if (_Buy(_Right.size()))

	mov	ecx, DWORD PTR __Right$[ebp]
	call	?size@?$vector@PAVPackageDataStreamObject@Ogre@@V?$allocator@PAVPackageDataStreamObject@Ogre@@@std@@@std@@QBEIXZ ; std::vector<Ogre::PackageDataStreamObject *,std::allocator<Ogre::PackageDataStreamObject *> >::size
	push	eax
	mov	ecx, DWORD PTR _this$[ebp]
	call	?_Buy@?$vector@PAVPackageDataStreamObject@Ogre@@V?$allocator@PAVPackageDataStreamObject@Ogre@@@std@@@std@@IAE_NI@Z ; std::vector<Ogre::PackageDataStreamObject *,std::allocator<Ogre::PackageDataStreamObject *> >::_Buy
	movzx	ecx, al
	test	ecx, ecx
	je	SHORT $LN3@vector@9

; 502  : 			_TRY_BEGIN

	mov	BYTE PTR __$EHRec$[ebp+12], 1

; 503  : 			_Mylast = _Ucopy(_Right.begin(), _Right.end(), _Myfirst);

	mov	edx, DWORD PTR _this$[ebp]
	mov	eax, DWORD PTR [edx+12]
	push	eax
	lea	ecx, DWORD PTR $T124261[ebp]
	push	ecx
	mov	ecx, DWORD PTR __Right$[ebp]
	call	?end@?$vector@PAVPackageDataStreamObject@Ogre@@V?$allocator@PAVPackageDataStreamObject@Ogre@@@std@@@std@@QBE?AV?$_Vector_const_iterator@PAVPackageDataStreamObject@Ogre@@V?$allocator@PAVPackageDataStreamObject@Ogre@@@std@@@2@XZ ; std::vector<Ogre::PackageDataStreamObject *,std::allocator<Ogre::PackageDataStreamObject *> >::end
	mov	edx, DWORD PTR [eax+4]
	push	edx
	mov	eax, DWORD PTR [eax]
	push	eax
	lea	ecx, DWORD PTR $T124262[ebp]
	push	ecx
	mov	ecx, DWORD PTR __Right$[ebp]
	call	?begin@?$vector@PAVPackageDataStreamObject@Ogre@@V?$allocator@PAVPackageDataStreamObject@Ogre@@@std@@@std@@QBE?AV?$_Vector_const_iterator@PAVPackageDataStreamObject@Ogre@@V?$allocator@PAVPackageDataStreamObject@Ogre@@@std@@@2@XZ ; std::vector<Ogre::PackageDataStreamObject *,std::allocator<Ogre::PackageDataStreamObject *> >::begin
	mov	edx, DWORD PTR [eax+4]
	push	edx
	mov	eax, DWORD PTR [eax]
	push	eax
	mov	ecx, DWORD PTR _this$[ebp]
	call	??$_Ucopy@V?$_Vector_const_iterator@PAVPackageDataStreamObject@Ogre@@V?$allocator@PAVPackageDataStreamObject@Ogre@@@std@@@std@@@?$vector@PAVPackageDataStreamObject@Ogre@@V?$allocator@PAVPackageDataStreamObject@Ogre@@@std@@@std@@IAEPAPAVPackageDataStreamObject@Ogre@@V?$_Vector_const_iterator@PAVPackageDataStreamObject@Ogre@@V?$allocator@PAVPackageDataStreamObject@Ogre@@@std@@@1@0PAPAV23@@Z ; std::vector<Ogre::PackageDataStreamObject *,std::allocator<Ogre::PackageDataStreamObject *> >::_Ucopy<std::_Vector_const_iterator<Ogre::PackageDataStreamObject *,std::allocator<Ogre::PackageDataStreamObject *> > >
	mov	ecx, DWORD PTR _this$[ebp]
	mov	DWORD PTR [ecx+16], eax
	jmp	SHORT $LN5@vector@9
__catch$??0?$vector@PAVPackageDataStreamObject@Ogre@@V?$allocator@PAVPackageDataStreamObject@Ogre@@@std@@@std@@QAE@ABV01@@Z$0:

; 504  : 			_CATCH_ALL
; 505  : 			_Tidy();

	mov	ecx, DWORD PTR _this$[ebp]
	call	?_Tidy@?$vector@PAVPackageDataStreamObject@Ogre@@V?$allocator@PAVPackageDataStreamObject@Ogre@@@std@@@std@@IAEXXZ ; std::vector<Ogre::PackageDataStreamObject *,std::allocator<Ogre::PackageDataStreamObject *> >::_Tidy

; 506  : 			_RERAISE;

	push	0
	push	0
	call	__CxxThrowException@8

; 507  : 			_CATCH_END

	mov	DWORD PTR __$EHRec$[ebp+12], 0
	mov	eax, $LN3@vector@9
	ret	0
$LN5@vector@9:
	mov	DWORD PTR __$EHRec$[ebp+12], 0
$LN3@vector@9:

; 508  : 		}

	mov	DWORD PTR __$EHRec$[ebp+12], -1
	mov	eax, DWORD PTR _this$[ebp]
$LN4@vector@9:
	mov	ecx, DWORD PTR __$EHRec$[ebp+4]
	mov	DWORD PTR fs:0, ecx
	pop	ecx
	pop	edi
	pop	esi
	pop	ebx
	mov	esp, ebp
	pop	ebp
	ret	4
_TEXT	ENDS
;	COMDAT text$x
text$x	SEGMENT
__unwindfunclet$??0?$vector@PAVPackageDataStreamObject@Ogre@@V?$allocator@PAVPackageDataStreamObject@Ogre@@@std@@@std@@QAE@ABV01@@Z$2:
	mov	ecx, DWORD PTR _this$[ebp]
	jmp	??1?$_Vector_val@PAVPackageDataStreamObject@Ogre@@V?$allocator@PAVPackageDataStreamObject@Ogre@@@std@@@std@@QAE@XZ
__ehhandler$??0?$vector@PAVPackageDataStreamObject@Ogre@@V?$allocator@PAVPackageDataStreamObject@Ogre@@@std@@@std@@QAE@ABV01@@Z:
	mov	edx, DWORD PTR [esp+8]
	lea	eax, DWORD PTR [edx+12]
	mov	ecx, DWORD PTR [edx-44]
	xor	ecx, eax
	call	@__security_check_cookie@4
	mov	eax, OFFSET __ehfuncinfo$??0?$vector@PAVPackageDataStreamObject@Ogre@@V?$allocator@PAVPackageDataStreamObject@Ogre@@@std@@@std@@QAE@ABV01@@Z
	jmp	___CxxFrameHandler3
text$x	ENDS
??0?$vector@PAVPackageDataStreamObject@Ogre@@V?$allocator@PAVPackageDataStreamObject@Ogre@@@std@@@std@@QAE@ABV01@@Z ENDP ; std::vector<Ogre::PackageDataStreamObject *,std::allocator<Ogre::PackageDataStreamObject *> >::vector<Ogre::PackageDataStreamObject *,std::allocator<Ogre::PackageDataStreamObject *> >
;	COMDAT xdata$x
xdata$x	SEGMENT
__unwindtable$??1?$vector@PAVPackageDataStreamObject@Ogre@@V?$allocator@PAVPackageDataStreamObject@Ogre@@@std@@@std@@QAE@XZ DD 0ffffffffH
	DD	FLAT:__unwindfunclet$??1?$vector@PAVPackageDataStreamObject@Ogre@@V?$allocator@PAVPackageDataStreamObject@Ogre@@@std@@@std@@QAE@XZ$0
__ehfuncinfo$??1?$vector@PAVPackageDataStreamObject@Ogre@@V?$allocator@PAVPackageDataStreamObject@Ogre@@@std@@@std@@QAE@XZ DD 019930522H
	DD	01H
	DD	FLAT:__unwindtable$??1?$vector@PAVPackageDataStreamObject@Ogre@@V?$allocator@PAVPackageDataStreamObject@Ogre@@@std@@@std@@QAE@XZ
	DD	2 DUP(00H)
	DD	2 DUP(00H)
	DD	00H
	DD	00H
; Function compile flags: /Odtp
xdata$x	ENDS
;	COMDAT ??1?$vector@PAVPackageDataStreamObject@Ogre@@V?$allocator@PAVPackageDataStreamObject@Ogre@@@std@@@std@@QAE@XZ
_TEXT	SEGMENT
_this$ = -16						; size = 4
__$EHRec$ = -12						; size = 12
??1?$vector@PAVPackageDataStreamObject@Ogre@@V?$allocator@PAVPackageDataStreamObject@Ogre@@@std@@@std@@QAE@XZ PROC ; std::vector<Ogre::PackageDataStreamObject *,std::allocator<Ogre::PackageDataStreamObject *> >::~vector<Ogre::PackageDataStreamObject *,std::allocator<Ogre::PackageDataStreamObject *> >, COMDAT
; _this$ = ecx

; 558  : 		{	// destroy the object

	push	ebp
	mov	ebp, esp
	push	-1
	push	__ehhandler$??1?$vector@PAVPackageDataStreamObject@Ogre@@V?$allocator@PAVPackageDataStreamObject@Ogre@@@std@@@std@@QAE@XZ
	mov	eax, DWORD PTR fs:0
	push	eax
	push	ecx
	mov	eax, DWORD PTR ___security_cookie
	xor	eax, ebp
	push	eax
	lea	eax, DWORD PTR __$EHRec$[ebp]
	mov	DWORD PTR fs:0, eax
	mov	DWORD PTR _this$[ebp], ecx
	mov	DWORD PTR __$EHRec$[ebp+8], 0

; 559  : 		_Tidy();

	mov	ecx, DWORD PTR _this$[ebp]
	call	?_Tidy@?$vector@PAVPackageDataStreamObject@Ogre@@V?$allocator@PAVPackageDataStreamObject@Ogre@@@std@@@std@@IAEXXZ ; std::vector<Ogre::PackageDataStreamObject *,std::allocator<Ogre::PackageDataStreamObject *> >::_Tidy

; 560  : 		}

	mov	DWORD PTR __$EHRec$[ebp+8], -1
	mov	ecx, DWORD PTR _this$[ebp]
	call	??1?$_Vector_val@PAVPackageDataStreamObject@Ogre@@V?$allocator@PAVPackageDataStreamObject@Ogre@@@std@@@std@@QAE@XZ
	mov	ecx, DWORD PTR __$EHRec$[ebp]
	mov	DWORD PTR fs:0, ecx
	pop	ecx
	mov	esp, ebp
	pop	ebp
	ret	0
_TEXT	ENDS
;	COMDAT text$x
text$x	SEGMENT
__unwindfunclet$??1?$vector@PAVPackageDataStreamObject@Ogre@@V?$allocator@PAVPackageDataStreamObject@Ogre@@@std@@@std@@QAE@XZ$0:
	mov	ecx, DWORD PTR _this$[ebp]
	jmp	??1?$_Vector_val@PAVPackageDataStreamObject@Ogre@@V?$allocator@PAVPackageDataStreamObject@Ogre@@@std@@@std@@QAE@XZ
__ehhandler$??1?$vector@PAVPackageDataStreamObject@Ogre@@V?$allocator@PAVPackageDataStreamObject@Ogre@@@std@@@std@@QAE@XZ:
	mov	edx, DWORD PTR [esp+8]
	lea	eax, DWORD PTR [edx+12]
	mov	ecx, DWORD PTR [edx-8]
	xor	ecx, eax
	call	@__security_check_cookie@4
	mov	eax, OFFSET __ehfuncinfo$??1?$vector@PAVPackageDataStreamObject@Ogre@@V?$allocator@PAVPackageDataStreamObject@Ogre@@@std@@@std@@QAE@XZ
	jmp	___CxxFrameHandler3
text$x	ENDS
??1?$vector@PAVPackageDataStreamObject@Ogre@@V?$allocator@PAVPackageDataStreamObject@Ogre@@@std@@@std@@QAE@XZ ENDP ; std::vector<Ogre::PackageDataStreamObject *,std::allocator<Ogre::PackageDataStreamObject *> >::~vector<Ogre::PackageDataStreamObject *,std::allocator<Ogre::PackageDataStreamObject *> >
PUBLIC	?deallocate@?$allocator@PAVPackageDataStreamObject@Ogre@@@std@@QAEXPAPAVPackageDataStreamObject@Ogre@@I@Z ; std::allocator<Ogre::PackageDataStreamObject *>::deallocate
PUBLIC	??$_Ucopy@PAPAVPackageDataStreamObject@Ogre@@@?$vector@PAVPackageDataStreamObject@Ogre@@V?$allocator@PAVPackageDataStreamObject@Ogre@@@std@@@std@@IAEPAPAVPackageDataStreamObject@Ogre@@PAPAV23@00@Z ; std::vector<Ogre::PackageDataStreamObject *,std::allocator<Ogre::PackageDataStreamObject *> >::_Ucopy<Ogre::PackageDataStreamObject * *>
PUBLIC	?capacity@?$vector@PAVPackageDataStreamObject@Ogre@@V?$allocator@PAVPackageDataStreamObject@Ogre@@@std@@@std@@QBEIXZ ; std::vector<Ogre::PackageDataStreamObject *,std::allocator<Ogre::PackageDataStreamObject *> >::capacity
PUBLIC	?_Destroy@?$vector@PAVPackageDataStreamObject@Ogre@@V?$allocator@PAVPackageDataStreamObject@Ogre@@@std@@@std@@IAEXPAPAVPackageDataStreamObject@Ogre@@0@Z ; std::vector<Ogre::PackageDataStreamObject *,std::allocator<Ogre::PackageDataStreamObject *> >::_Destroy
PUBLIC	??$unchecked_copy@PAPAVPackageDataStreamObject@Ogre@@PAPAV12@@stdext@@YAPAPAVPackageDataStreamObject@Ogre@@PAPAV12@00@Z ; stdext::unchecked_copy<Ogre::PackageDataStreamObject * *,Ogre::PackageDataStreamObject * *>
; Function compile flags: /Odtp
;	COMDAT ??4?$vector@PAVPackageDataStreamObject@Ogre@@V?$allocator@PAVPackageDataStreamObject@Ogre@@@std@@@std@@QAEAAV01@ABV01@@Z
_TEXT	SEGMENT
_this$ = -12						; size = 4
__Ptr$118345 = -8					; size = 4
__Ptr$118335 = -4					; size = 4
__Right$ = 8						; size = 4
??4?$vector@PAVPackageDataStreamObject@Ogre@@V?$allocator@PAVPackageDataStreamObject@Ogre@@@std@@@std@@QAEAAV01@ABV01@@Z PROC ; std::vector<Ogre::PackageDataStreamObject *,std::allocator<Ogre::PackageDataStreamObject *> >::operator=, COMDAT
; _this$ = ecx

; 563  : 		{	// assign _Right

	push	ebp
	mov	ebp, esp
	sub	esp, 12					; 0000000cH
	push	esi
	mov	DWORD PTR _this$[ebp], ecx

; 564  : 		if (this != &_Right)

	mov	eax, DWORD PTR _this$[ebp]
	cmp	eax, DWORD PTR __Right$[ebp]
	je	$LN9@operator@3

; 565  : 			{	// worth doing
; 566  : 
; 567  :  #if _HAS_ITERATOR_DEBUGGING
; 568  : 			this->_Orphan_all();
; 569  :  #endif /* _HAS_ITERATOR_DEBUGGING */
; 570  : 
; 571  : 			if (_Right.size() == 0)

	mov	ecx, DWORD PTR __Right$[ebp]
	call	?size@?$vector@PAVPackageDataStreamObject@Ogre@@V?$allocator@PAVPackageDataStreamObject@Ogre@@@std@@@std@@QBEIXZ ; std::vector<Ogre::PackageDataStreamObject *,std::allocator<Ogre::PackageDataStreamObject *> >::size
	test	eax, eax
	jne	SHORT $LN8@operator@3

; 572  : 				clear();	// new sequence empty, erase existing sequence

	mov	ecx, DWORD PTR _this$[ebp]
	call	?clear@?$vector@PAVPackageDataStreamObject@Ogre@@V?$allocator@PAVPackageDataStreamObject@Ogre@@@std@@@std@@QAEXXZ ; std::vector<Ogre::PackageDataStreamObject *,std::allocator<Ogre::PackageDataStreamObject *> >::clear
	jmp	$LN9@operator@3
$LN8@operator@3:

; 573  : 			else if (_Right.size() <= size())

	mov	ecx, DWORD PTR __Right$[ebp]
	call	?size@?$vector@PAVPackageDataStreamObject@Ogre@@V?$allocator@PAVPackageDataStreamObject@Ogre@@@std@@@std@@QBEIXZ ; std::vector<Ogre::PackageDataStreamObject *,std::allocator<Ogre::PackageDataStreamObject *> >::size
	mov	esi, eax
	mov	ecx, DWORD PTR _this$[ebp]
	call	?size@?$vector@PAVPackageDataStreamObject@Ogre@@V?$allocator@PAVPackageDataStreamObject@Ogre@@@std@@@std@@QBEIXZ ; std::vector<Ogre::PackageDataStreamObject *,std::allocator<Ogre::PackageDataStreamObject *> >::size
	cmp	esi, eax
	ja	SHORT $LN6@operator@3

; 574  : 				{	// enough elements, copy new and destroy old
; 575  : 				pointer _Ptr = _STDEXT unchecked_copy(_Right._Myfirst, _Right._Mylast,
; 576  : 					_Myfirst);	// copy new

	mov	ecx, DWORD PTR _this$[ebp]
	mov	edx, DWORD PTR [ecx+12]
	push	edx
	mov	eax, DWORD PTR __Right$[ebp]
	mov	ecx, DWORD PTR [eax+16]
	push	ecx
	mov	edx, DWORD PTR __Right$[ebp]
	mov	eax, DWORD PTR [edx+12]
	push	eax
