; Listing generated by Microsoft (R) Optimizing Compiler Version 15.00.30729.01 

	TITLE	i:\svnroot\client\OgreMain\OgreMCI.cpp
	.686P
	.XMM
	include listing.inc
	.model	flat

INCLUDELIB MSVCRT
INCLUDELIB OLDNAMES

PUBLIC	?_Value@?$_Is_swap_move@U_Swap_move_tag@std@@@std@@2_NB ; std::_Is_swap_move<std::_Swap_move_tag>::_Value
PUBLIC	?collate@?$_Locbase@H@std@@2HB			; std::_Locbase<int>::collate
PUBLIC	?ctype@?$_Locbase@H@std@@2HB			; std::_Locbase<int>::ctype
PUBLIC	?monetary@?$_Locbase@H@std@@2HB			; std::_Locbase<int>::monetary
PUBLIC	?numeric@?$_Locbase@H@std@@2HB			; std::_Locbase<int>::numeric
PUBLIC	?time@?$_Locbase@H@std@@2HB			; std::_Locbase<int>::time
PUBLIC	?messages@?$_Locbase@H@std@@2HB			; std::_Locbase<int>::messages
PUBLIC	?all@?$_Locbase@H@std@@2HB			; std::_Locbase<int>::all
PUBLIC	?none@?$_Locbase@H@std@@2HB			; std::_Locbase<int>::none
PUBLIC	?skipws@?$_Iosb@H@std@@2W4_Fmtflags@12@B	; std::_Iosb<int>::skipws
PUBLIC	?unitbuf@?$_Iosb@H@std@@2W4_Fmtflags@12@B	; std::_Iosb<int>::unitbuf
PUBLIC	?uppercase@?$_Iosb@H@std@@2W4_Fmtflags@12@B	; std::_Iosb<int>::uppercase
PUBLIC	?showbase@?$_Iosb@H@std@@2W4_Fmtflags@12@B	; std::_Iosb<int>::showbase
PUBLIC	?showpoint@?$_Iosb@H@std@@2W4_Fmtflags@12@B	; std::_Iosb<int>::showpoint
PUBLIC	?showpos@?$_Iosb@H@std@@2W4_Fmtflags@12@B	; std::_Iosb<int>::showpos
PUBLIC	?left@?$_Iosb@H@std@@2W4_Fmtflags@12@B		; std::_Iosb<int>::left
PUBLIC	?right@?$_Iosb@H@std@@2W4_Fmtflags@12@B		; std::_Iosb<int>::right
PUBLIC	?internal@?$_Iosb@H@std@@2W4_Fmtflags@12@B	; std::_Iosb<int>::internal
PUBLIC	?dec@?$_Iosb@H@std@@2W4_Fmtflags@12@B		; std::_Iosb<int>::dec
PUBLIC	?oct@?$_Iosb@H@std@@2W4_Fmtflags@12@B		; std::_Iosb<int>::oct
PUBLIC	?hex@?$_Iosb@H@std@@2W4_Fmtflags@12@B		; std::_Iosb<int>::hex
PUBLIC	?scientific@?$_Iosb@H@std@@2W4_Fmtflags@12@B	; std::_Iosb<int>::scientific
PUBLIC	?fixed@?$_Iosb@H@std@@2W4_Fmtflags@12@B		; std::_Iosb<int>::fixed
PUBLIC	?hexfloat@?$_Iosb@H@std@@2W4_Fmtflags@12@B	; std::_Iosb<int>::hexfloat
PUBLIC	?boolalpha@?$_Iosb@H@std@@2W4_Fmtflags@12@B	; std::_Iosb<int>::boolalpha
PUBLIC	?_Stdio@?$_Iosb@H@std@@2W4_Fmtflags@12@B	; std::_Iosb<int>::_Stdio
PUBLIC	?adjustfield@?$_Iosb@H@std@@2W4_Fmtflags@12@B	; std::_Iosb<int>::adjustfield
PUBLIC	?basefield@?$_Iosb@H@std@@2W4_Fmtflags@12@B	; std::_Iosb<int>::basefield
PUBLIC	?floatfield@?$_Iosb@H@std@@2W4_Fmtflags@12@B	; std::_Iosb<int>::floatfield
PUBLIC	?goodbit@?$_Iosb@H@std@@2W4_Iostate@12@B	; std::_Iosb<int>::goodbit
PUBLIC	?eofbit@?$_Iosb@H@std@@2W4_Iostate@12@B		; std::_Iosb<int>::eofbit
PUBLIC	?failbit@?$_Iosb@H@std@@2W4_Iostate@12@B	; std::_Iosb<int>::failbit
PUBLIC	?badbit@?$_Iosb@H@std@@2W4_Iostate@12@B		; std::_Iosb<int>::badbit
PUBLIC	?_Hardfail@?$_Iosb@H@std@@2W4_Iostate@12@B	; std::_Iosb<int>::_Hardfail
PUBLIC	?in@?$_Iosb@H@std@@2W4_Openmode@12@B		; std::_Iosb<int>::in
PUBLIC	?out@?$_Iosb@H@std@@2W4_Openmode@12@B		; std::_Iosb<int>::out
PUBLIC	?ate@?$_Iosb@H@std@@2W4_Openmode@12@B		; std::_Iosb<int>::ate
PUBLIC	?app@?$_Iosb@H@std@@2W4_Openmode@12@B		; std::_Iosb<int>::app
PUBLIC	?trunc@?$_Iosb@H@std@@2W4_Openmode@12@B		; std::_Iosb<int>::trunc
PUBLIC	?_Nocreate@?$_Iosb@H@std@@2W4_Openmode@12@B	; std::_Iosb<int>::_Nocreate
PUBLIC	?_Noreplace@?$_Iosb@H@std@@2W4_Openmode@12@B	; std::_Iosb<int>::_Noreplace
PUBLIC	?binary@?$_Iosb@H@std@@2W4_Openmode@12@B	; std::_Iosb<int>::binary
PUBLIC	?beg@?$_Iosb@H@std@@2W4_Seekdir@12@B		; std::_Iosb<int>::beg
PUBLIC	?cur@?$_Iosb@H@std@@2W4_Seekdir@12@B		; std::_Iosb<int>::cur
PUBLIC	?end@?$_Iosb@H@std@@2W4_Seekdir@12@B		; std::_Iosb<int>::end
PUBLIC	?value@?$integral_constant@_N$0A@@tr1@std@@2_NB	; std::tr1::integral_constant<bool,0>::value
PUBLIC	?value@?$integral_constant@_N$00@tr1@std@@2_NB	; std::tr1::integral_constant<bool,1>::value
PUBLIC	?ms_Singleton@?$Singleton@VMCIWrap@Ogre@@@Ogre@@1PAVMCIWrap@2@A ; Ogre::Singleton<Ogre::MCIWrap>::ms_Singleton
PUBLIC	?ms_Singleton@?$Singleton@VRenderSystem@Ogre@@@Ogre@@1PAVRenderSystem@2@A ; Ogre::Singleton<Ogre::RenderSystem>::ms_Singleton
;	COMDAT ?ms_Singleton@?$Singleton@VMCIWrap@Ogre@@@Ogre@@1PAVMCIWrap@2@A
_BSS	SEGMENT
?ms_Singleton@?$Singleton@VMCIWrap@Ogre@@@Ogre@@1PAVMCIWrap@2@A DD 01H DUP (?) ; Ogre::Singleton<Ogre::MCIWrap>::ms_Singleton
_BSS	ENDS
;	COMDAT ?ms_Singleton@?$Singleton@VRenderSystem@Ogre@@@Ogre@@1PAVRenderSystem@2@A
_BSS	SEGMENT
?ms_Singleton@?$Singleton@VRenderSystem@Ogre@@@Ogre@@1PAVRenderSystem@2@A DD 01H DUP (?) ; Ogre::Singleton<Ogre::RenderSystem>::ms_Singleton
_BSS	ENDS
;	COMDAT ?value@?$integral_constant@_N$00@tr1@std@@2_NB
CONST	SEGMENT
?value@?$integral_constant@_N$00@tr1@std@@2_NB DB 01H	; std::tr1::integral_constant<bool,1>::value
CONST	ENDS
;	COMDAT ?value@?$integral_constant@_N$0A@@tr1@std@@2_NB
CONST	SEGMENT
?value@?$integral_constant@_N$0A@@tr1@std@@2_NB DB 00H	; std::tr1::integral_constant<bool,0>::value
CONST	ENDS
;	COMDAT ?end@?$_Iosb@H@std@@2W4_Seekdir@12@B
CONST	SEGMENT
?end@?$_Iosb@H@std@@2W4_Seekdir@12@B DD 02H		; std::_Iosb<int>::end
CONST	ENDS
;	COMDAT ?cur@?$_Iosb@H@std@@2W4_Seekdir@12@B
CONST	SEGMENT
?cur@?$_Iosb@H@std@@2W4_Seekdir@12@B DD 01H		; std::_Iosb<int>::cur
CONST	ENDS
;	COMDAT ?beg@?$_Iosb@H@std@@2W4_Seekdir@12@B
CONST	SEGMENT
?beg@?$_Iosb@H@std@@2W4_Seekdir@12@B DD 00H		; std::_Iosb<int>::beg
CONST	ENDS
;	COMDAT ?binary@?$_Iosb@H@std@@2W4_Openmode@12@B
CONST	SEGMENT
?binary@?$_Iosb@H@std@@2W4_Openmode@12@B DD 020H	; std::_Iosb<int>::binary
CONST	ENDS
;	COMDAT ?_Noreplace@?$_Iosb@H@std@@2W4_Openmode@12@B
CONST	SEGMENT
?_Noreplace@?$_Iosb@H@std@@2W4_Openmode@12@B DD 080H	; std::_Iosb<int>::_Noreplace
CONST	ENDS
;	COMDAT ?_Nocreate@?$_Iosb@H@std@@2W4_Openmode@12@B
CONST	SEGMENT
?_Nocreate@?$_Iosb@H@std@@2W4_Openmode@12@B DD 040H	; std::_Iosb<int>::_Nocreate
CONST	ENDS
;	COMDAT ?trunc@?$_Iosb@H@std@@2W4_Openmode@12@B
CONST	SEGMENT
?trunc@?$_Iosb@H@std@@2W4_Openmode@12@B DD 010H		; std::_Iosb<int>::trunc
CONST	ENDS
;	COMDAT ?app@?$_Iosb@H@std@@2W4_Openmode@12@B
CONST	SEGMENT
?app@?$_Iosb@H@std@@2W4_Openmode@12@B DD 08H		; std::_Iosb<int>::app
CONST	ENDS
;	COMDAT ?ate@?$_Iosb@H@std@@2W4_Openmode@12@B
CONST	SEGMENT
?ate@?$_Iosb@H@std@@2W4_Openmode@12@B DD 04H		; std::_Iosb<int>::ate
CONST	ENDS
;	COMDAT ?out@?$_Iosb@H@std@@2W4_Openmode@12@B
CONST	SEGMENT
?out@?$_Iosb@H@std@@2W4_Openmode@12@B DD 02H		; std::_Iosb<int>::out
CONST	ENDS
;	COMDAT ?in@?$_Iosb@H@std@@2W4_Openmode@12@B
CONST	SEGMENT
?in@?$_Iosb@H@std@@2W4_Openmode@12@B DD 01H		; std::_Iosb<int>::in
CONST	ENDS
;	COMDAT ?_Hardfail@?$_Iosb@H@std@@2W4_Iostate@12@B
CONST	SEGMENT
?_Hardfail@?$_Iosb@H@std@@2W4_Iostate@12@B DD 010H	; std::_Iosb<int>::_Hardfail
CONST	ENDS
;	COMDAT ?badbit@?$_Iosb@H@std@@2W4_Iostate@12@B
CONST	SEGMENT
?badbit@?$_Iosb@H@std@@2W4_Iostate@12@B DD 04H		; std::_Iosb<int>::badbit
CONST	ENDS
;	COMDAT ?failbit@?$_Iosb@H@std@@2W4_Iostate@12@B
CONST	SEGMENT
?failbit@?$_Iosb@H@std@@2W4_Iostate@12@B DD 02H		; std::_Iosb<int>::failbit
CONST	ENDS
;	COMDAT ?eofbit@?$_Iosb@H@std@@2W4_Iostate@12@B
CONST	SEGMENT
?eofbit@?$_Iosb@H@std@@2W4_Iostate@12@B DD 01H		; std::_Iosb<int>::eofbit
CONST	ENDS
;	COMDAT ?goodbit@?$_Iosb@H@std@@2W4_Iostate@12@B
CONST	SEGMENT
?goodbit@?$_Iosb@H@std@@2W4_Iostate@12@B DD 00H		; std::_Iosb<int>::goodbit
CONST	ENDS
;	COMDAT ?floatfield@?$_Iosb@H@std@@2W4_Fmtflags@12@B
CONST	SEGMENT
?floatfield@?$_Iosb@H@std@@2W4_Fmtflags@12@B DD 03000H	; std::_Iosb<int>::floatfield
CONST	ENDS
;	COMDAT ?basefield@?$_Iosb@H@std@@2W4_Fmtflags@12@B
CONST	SEGMENT
?basefield@?$_Iosb@H@std@@2W4_Fmtflags@12@B DD 0e00H	; std::_Iosb<int>::basefield
CONST	ENDS
;	COMDAT ?adjustfield@?$_Iosb@H@std@@2W4_Fmtflags@12@B
CONST	SEGMENT
?adjustfield@?$_Iosb@H@std@@2W4_Fmtflags@12@B DD 01c0H	; std::_Iosb<int>::adjustfield
CONST	ENDS
;	COMDAT ?_Stdio@?$_Iosb@H@std@@2W4_Fmtflags@12@B
CONST	SEGMENT
?_Stdio@?$_Iosb@H@std@@2W4_Fmtflags@12@B DD 08000H	; std::_Iosb<int>::_Stdio
CONST	ENDS
;	COMDAT ?boolalpha@?$_Iosb@H@std@@2W4_Fmtflags@12@B
CONST	SEGMENT
?boolalpha@?$_Iosb@H@std@@2W4_Fmtflags@12@B DD 04000H	; std::_Iosb<int>::boolalpha
CONST	ENDS
;	COMDAT ?hexfloat@?$_Iosb@H@std@@2W4_Fmtflags@12@B
CONST	SEGMENT
?hexfloat@?$_Iosb@H@std@@2W4_Fmtflags@12@B DD 03000H	; std::_Iosb<int>::hexfloat
CONST	ENDS
;	COMDAT ?fixed@?$_Iosb@H@std@@2W4_Fmtflags@12@B
CONST	SEGMENT
?fixed@?$_Iosb@H@std@@2W4_Fmtflags@12@B DD 02000H	; std::_Iosb<int>::fixed
CONST	ENDS
;	COMDAT ?scientific@?$_Iosb@H@std@@2W4_Fmtflags@12@B
CONST	SEGMENT
?scientific@?$_Iosb@H@std@@2W4_Fmtflags@12@B DD 01000H	; std::_Iosb<int>::scientific
CONST	ENDS
;	COMDAT ?hex@?$_Iosb@H@std@@2W4_Fmtflags@12@B
CONST	SEGMENT
?hex@?$_Iosb@H@std@@2W4_Fmtflags@12@B DD 0800H		; std::_Iosb<int>::hex
CONST	ENDS
;	COMDAT ?oct@?$_Iosb@H@std@@2W4_Fmtflags@12@B
CONST	SEGMENT
?oct@?$_Iosb@H@std@@2W4_Fmtflags@12@B DD 0400H		; std::_Iosb<int>::oct
CONST	ENDS
;	COMDAT ?dec@?$_Iosb@H@std@@2W4_Fmtflags@12@B
CONST	SEGMENT
?dec@?$_Iosb@H@std@@2W4_Fmtflags@12@B DD 0200H		; std::_Iosb<int>::dec
CONST	ENDS
;	COMDAT ?internal@?$_Iosb@H@std@@2W4_Fmtflags@12@B
CONST	SEGMENT
?internal@?$_Iosb@H@std@@2W4_Fmtflags@12@B DD 0100H	; std::_Iosb<int>::internal
CONST	ENDS
;	COMDAT ?right@?$_Iosb@H@std@@2W4_Fmtflags@12@B
CONST	SEGMENT
?right@?$_Iosb@H@std@@2W4_Fmtflags@12@B DD 080H		; std::_Iosb<int>::right
CONST	ENDS
;	COMDAT ?left@?$_Iosb@H@std@@2W4_Fmtflags@12@B
CONST	SEGMENT
?left@?$_Iosb@H@std@@2W4_Fmtflags@12@B DD 040H		; std::_Iosb<int>::left
CONST	ENDS
;	COMDAT ?showpos@?$_Iosb@H@std@@2W4_Fmtflags@12@B
CONST	SEGMENT
?showpos@?$_Iosb@H@std@@2W4_Fmtflags@12@B DD 020H	; std::_Iosb<int>::showpos
CONST	ENDS
;	COMDAT ?showpoint@?$_Iosb@H@std@@2W4_Fmtflags@12@B
CONST	SEGMENT
?showpoint@?$_Iosb@H@std@@2W4_Fmtflags@12@B DD 010H	; std::_Iosb<int>::showpoint
CONST	ENDS
;	COMDAT ?showbase@?$_Iosb@H@std@@2W4_Fmtflags@12@B
CONST	SEGMENT
?showbase@?$_Iosb@H@std@@2W4_Fmtflags@12@B DD 08H	; std::_Iosb<int>::showbase
CONST	ENDS
;	COMDAT ?uppercase@?$_Iosb@H@std@@2W4_Fmtflags@12@B
CONST	SEGMENT
?uppercase@?$_Iosb@H@std@@2W4_Fmtflags@12@B DD 04H	; std::_Iosb<int>::uppercase
CONST	ENDS
;	COMDAT ?unitbuf@?$_Iosb@H@std@@2W4_Fmtflags@12@B
CONST	SEGMENT
?unitbuf@?$_Iosb@H@std@@2W4_Fmtflags@12@B DD 02H	; std::_Iosb<int>::unitbuf
CONST	ENDS
;	COMDAT ?skipws@?$_Iosb@H@std@@2W4_Fmtflags@12@B
CONST	SEGMENT
?skipws@?$_Iosb@H@std@@2W4_Fmtflags@12@B DD 01H		; std::_Iosb<int>::skipws
CONST	ENDS
;	COMDAT ?none@?$_Locbase@H@std@@2HB
CONST	SEGMENT
?none@?$_Locbase@H@std@@2HB DD 00H			; std::_Locbase<int>::none
CONST	ENDS
;	COMDAT ?all@?$_Locbase@H@std@@2HB
CONST	SEGMENT
?all@?$_Locbase@H@std@@2HB DD 03fH			; std::_Locbase<int>::all
CONST	ENDS
;	COMDAT ?messages@?$_Locbase@H@std@@2HB
CONST	SEGMENT
?messages@?$_Locbase@H@std@@2HB DD 020H			; std::_Locbase<int>::messages
CONST	ENDS
;	COMDAT ?time@?$_Locbase@H@std@@2HB
CONST	SEGMENT
?time@?$_Locbase@H@std@@2HB DD 010H			; std::_Locbase<int>::time
CONST	ENDS
;	COMDAT ?numeric@?$_Locbase@H@std@@2HB
CONST	SEGMENT
?numeric@?$_Locbase@H@std@@2HB DD 08H			; std::_Locbase<int>::numeric
CONST	ENDS
;	COMDAT ?monetary@?$_Locbase@H@std@@2HB
CONST	SEGMENT
?monetary@?$_Locbase@H@std@@2HB DD 04H			; std::_Locbase<int>::monetary
CONST	ENDS
;	COMDAT ?ctype@?$_Locbase@H@std@@2HB
CONST	SEGMENT
?ctype@?$_Locbase@H@std@@2HB DD 02H			; std::_Locbase<int>::ctype
CONST	ENDS
;	COMDAT ?collate@?$_Locbase@H@std@@2HB
CONST	SEGMENT
?collate@?$_Locbase@H@std@@2HB DD 01H			; std::_Locbase<int>::collate
CONST	ENDS
;	COMDAT ?_Value@?$_Is_swap_move@U_Swap_move_tag@std@@@std@@2_NB
CONST	SEGMENT
?_Value@?$_Is_swap_move@U_Swap_move_tag@std@@@std@@2_NB DB 01H ; std::_Is_swap_move<std::_Swap_move_tag>::_Value
CONST	ENDS
_DATA	SEGMENT
__bad_alloc_Message DD FLAT:$SG5714
_DATA	ENDS
CONST	SEGMENT
$SG5714	DB	'bad allocation', 00H
$SG113123 DB	00H
$SG113121 DB	'VideoWnd', 00H
	ORG $+3
$SG113124 DB	'STATIC', 00H
	ORG $+1
$SG113186 DB	'Error while decoding frame', 0aH, 00H
CONST	ENDS
PUBLIC	??4?$Singleton@VMCIWrap@Ogre@@@Ogre@@QAEAAV01@ABV01@@Z ; Ogre::Singleton<Ogre::MCIWrap>::operator=
; Function compile flags: /Odtp
;	COMDAT ??4?$Singleton@VMCIWrap@Ogre@@@Ogre@@QAEAAV01@ABV01@@Z
_TEXT	SEGMENT
_this$ = -4						; size = 4
___that$ = 8						; size = 4
??4?$Singleton@VMCIWrap@Ogre@@@Ogre@@QAEAAV01@ABV01@@Z PROC ; Ogre::Singleton<Ogre::MCIWrap>::operator=, COMDAT
; _this$ = ecx
	push	ebp
	mov	ebp, esp
	push	ecx
	mov	DWORD PTR _this$[ebp], ecx
	mov	eax, DWORD PTR _this$[ebp]
	mov	esp, ebp
	pop	ebp
	ret	4
??4?$Singleton@VMCIWrap@Ogre@@@Ogre@@QAEAAV01@ABV01@@Z ENDP ; Ogre::Singleton<Ogre::MCIWrap>::operator=
_TEXT	ENDS
PUBLIC	??1?$list@V?$basic_string@DU?$char_traits@D@std@@V?$allocator@D@2@@std@@V?$allocator@V?$basic_string@DU?$char_traits@D@std@@V?$allocator@D@2@@std@@@2@@std@@QAE@XZ ; std::list<std::basic_string<char,std::char_traits<char>,std::allocator<char> >,std::allocator<std::basic_string<char,std::char_traits<char>,std::allocator<char> > > >::~list<std::basic_string<char,std::char_traits<char>,std::allocator<char> >,std::allocator<std::basic_string<char,std::char_traits<char>,std::allocator<char> > > >
PUBLIC	??1?$Singleton@VMCIWrap@Ogre@@@Ogre@@QAE@XZ	; Ogre::Singleton<Ogre::MCIWrap>::~Singleton<Ogre::MCIWrap>
PUBLIC	??0?$list@V?$basic_string@DU?$char_traits@D@std@@V?$allocator@D@2@@std@@V?$allocator@V?$basic_string@DU?$char_traits@D@std@@V?$allocator@D@2@@std@@@2@@std@@QAE@ABV01@@Z ; std::list<std::basic_string<char,std::char_traits<char>,std::allocator<char> >,std::allocator<std::basic_string<char,std::char_traits<char>,std::allocator<char> > > >::list<std::basic_string<char,std::char_traits<char>,std::allocator<char> >,std::allocator<std::basic_string<char,std::char_traits<char>,std::allocator<char> > > >
PUBLIC	??0MCIWrap@Ogre@@QAE@ABV01@@Z			; Ogre::MCIWrap::MCIWrap
EXTRN	___security_cookie:DWORD
EXTRN	___CxxFrameHandler3:PROC
EXTRN	@__security_check_cookie@4:PROC
;	COMDAT xdata$x
xdata$x	SEGMENT
__unwindtable$??0MCIWrap@Ogre@@QAE@ABV01@@Z DD 0ffffffffH
	DD	FLAT:__unwindfunclet$??0MCIWrap@Ogre@@QAE@ABV01@@Z$0
	DD	00H
	DD	FLAT:__unwindfunclet$??0MCIWrap@Ogre@@QAE@ABV01@@Z$1
__ehfuncinfo$??0MCIWrap@Ogre@@QAE@ABV01@@Z DD 019930522H
	DD	02H
	DD	FLAT:__unwindtable$??0MCIWrap@Ogre@@QAE@ABV01@@Z
	DD	2 DUP(00H)
	DD	2 DUP(00H)
	DD	00H
	DD	00H
; Function compile flags: /Odtp
xdata$x	ENDS
;	COMDAT ??0MCIWrap@Ogre@@QAE@ABV01@@Z
_TEXT	SEGMENT
_this$ = -16						; size = 4
__$EHRec$ = -12						; size = 12
___that$ = 8						; size = 4
??0MCIWrap@Ogre@@QAE@ABV01@@Z PROC			; Ogre::MCIWrap::MCIWrap, COMDAT
; _this$ = ecx
	push	ebp
	mov	ebp, esp
	push	-1
	push	__ehhandler$??0MCIWrap@Ogre@@QAE@ABV01@@Z
	mov	eax, DWORD PTR fs:0
	push	eax
	push	ecx
	mov	eax, DWORD PTR ___security_cookie
	xor	eax, ebp
	push	eax
	lea	eax, DWORD PTR __$EHRec$[ebp]
	mov	DWORD PTR fs:0, eax
	mov	DWORD PTR _this$[ebp], ecx
	mov	DWORD PTR __$EHRec$[ebp+8], 0
	mov	eax, DWORD PTR ___that$[ebp]
	push	eax
	mov	ecx, DWORD PTR _this$[ebp]
	call	??0?$list@V?$basic_string@DU?$char_traits@D@std@@V?$allocator@D@2@@std@@V?$allocator@V?$basic_string@DU?$char_traits@D@std@@V?$allocator@D@2@@std@@@2@@std@@QAE@ABV01@@Z ; std::list<std::basic_string<char,std::char_traits<char>,std::allocator<char> >,std::allocator<std::basic_string<char,std::char_traits<char>,std::allocator<char> > > >::list<std::basic_string<char,std::char_traits<char>,std::allocator<char> >,std::allocator<std::basic_string<char,std::char_traits<char>,std::allocator<char> > > >
	mov	BYTE PTR __$EHRec$[ebp+8], 1
	mov	ecx, DWORD PTR _this$[ebp]
	mov	edx, DWORD PTR ___that$[ebp]
	mov	eax, DWORD PTR [edx+28]
	mov	DWORD PTR [ecx+28], eax
	mov	ecx, DWORD PTR _this$[ebp]
	mov	edx, DWORD PTR ___that$[ebp]
	mov	al, BYTE PTR [edx+32]
	mov	BYTE PTR [ecx+32], al
	mov	ecx, DWORD PTR _this$[ebp]
	mov	edx, DWORD PTR ___that$[ebp]
	mov	al, BYTE PTR [edx+33]
	mov	BYTE PTR [ecx+33], al
	mov	ecx, DWORD PTR _this$[ebp]
	mov	edx, DWORD PTR ___that$[ebp]
	mov	eax, DWORD PTR [edx+36]
	mov	DWORD PTR [ecx+36], eax
	mov	ecx, DWORD PTR _this$[ebp]
	mov	edx, DWORD PTR ___that$[ebp]
	mov	eax, DWORD PTR [edx+40]
	mov	DWORD PTR [ecx+40], eax
	mov	ecx, DWORD PTR _this$[ebp]
	mov	edx, DWORD PTR ___that$[ebp]
	mov	eax, DWORD PTR [edx+44]
	mov	DWORD PTR [ecx+44], eax
	mov	ecx, DWORD PTR _this$[ebp]
	mov	edx, DWORD PTR ___that$[ebp]
	mov	eax, DWORD PTR [edx+48]
	mov	DWORD PTR [ecx+48], eax
	mov	ecx, DWORD PTR _this$[ebp]
	mov	edx, DWORD PTR ___that$[ebp]
	mov	eax, DWORD PTR [edx+52]
	mov	DWORD PTR [ecx+52], eax
	mov	DWORD PTR __$EHRec$[ebp+8], -1
	mov	eax, DWORD PTR _this$[ebp]
	mov	ecx, DWORD PTR __$EHRec$[ebp]
	mov	DWORD PTR fs:0, ecx
	pop	ecx
	mov	esp, ebp
	pop	ebp
	ret	4
_TEXT	ENDS
;	COMDAT text$x
text$x	SEGMENT
__unwindfunclet$??0MCIWrap@Ogre@@QAE@ABV01@@Z$0:
	mov	ecx, DWORD PTR _this$[ebp]
	jmp	??1?$Singleton@VMCIWrap@Ogre@@@Ogre@@QAE@XZ ; Ogre::Singleton<Ogre::MCIWrap>::~Singleton<Ogre::MCIWrap>
__unwindfunclet$??0MCIWrap@Ogre@@QAE@ABV01@@Z$1:
	mov	ecx, DWORD PTR _this$[ebp]
	jmp	??1?$list@V?$basic_string@DU?$char_traits@D@std@@V?$allocator@D@2@@std@@V?$allocator@V?$basic_string@DU?$char_traits@D@std@@V?$allocator@D@2@@std@@@2@@std@@QAE@XZ ; std::list<std::basic_string<char,std::char_traits<char>,std::allocator<char> >,std::allocator<std::basic_string<char,std::char_traits<char>,std::allocator<char> > > >::~list<std::basic_string<char,std::char_traits<char>,std::allocator<char> >,std::allocator<std::basic_string<char,std::char_traits<char>,std::allocator<char> > > >
__ehhandler$??0MCIWrap@Ogre@@QAE@ABV01@@Z:
	mov	edx, DWORD PTR [esp+8]
	lea	eax, DWORD PTR [edx+12]
	mov	ecx, DWORD PTR [edx-8]
	xor	ecx, eax
	call	@__security_check_cookie@4
	mov	eax, OFFSET __ehfuncinfo$??0MCIWrap@Ogre@@QAE@ABV01@@Z
	jmp	___CxxFrameHandler3
text$x	ENDS
??0MCIWrap@Ogre@@QAE@ABV01@@Z ENDP			; Ogre::MCIWrap::MCIWrap
PUBLIC	??4?$list@V?$basic_string@DU?$char_traits@D@std@@V?$allocator@D@2@@std@@V?$allocator@V?$basic_string@DU?$char_traits@D@std@@V?$allocator@D@2@@std@@@2@@std@@QAEAAV01@ABV01@@Z ; std::list<std::basic_string<char,std::char_traits<char>,std::allocator<char> >,std::allocator<std::basic_string<char,std::char_traits<char>,std::allocator<char> > > >::operator=
PUBLIC	??4MCIWrap@Ogre@@QAEAAV01@ABV01@@Z		; Ogre::MCIWrap::operator=
; Function compile flags: /Odtp
;	COMDAT ??4MCIWrap@Ogre@@QAEAAV01@ABV01@@Z
_TEXT	SEGMENT
_this$ = -4						; size = 4
___that$ = 8						; size = 4
??4MCIWrap@Ogre@@QAEAAV01@ABV01@@Z PROC			; Ogre::MCIWrap::operator=, COMDAT
; _this$ = ecx
	push	ebp
	mov	ebp, esp
	push	ecx
	mov	DWORD PTR _this$[ebp], ecx
	mov	eax, DWORD PTR ___that$[ebp]
	push	eax
	mov	ecx, DWORD PTR _this$[ebp]
	call	??4?$list@V?$basic_string@DU?$char_traits@D@std@@V?$allocator@D@2@@std@@V?$allocator@V?$basic_string@DU?$char_traits@D@std@@V?$allocator@D@2@@std@@@2@@std@@QAEAAV01@ABV01@@Z ; std::list<std::basic_string<char,std::char_traits<char>,std::allocator<char> >,std::allocator<std::basic_string<char,std::char_traits<char>,std::allocator<char> > > >::operator=
	mov	ecx, DWORD PTR _this$[ebp]
	mov	edx, DWORD PTR ___that$[ebp]
	mov	eax, DWORD PTR [edx+28]
	mov	DWORD PTR [ecx+28], eax
	mov	ecx, DWORD PTR _this$[ebp]
	mov	edx, DWORD PTR ___that$[ebp]
	mov	al, BYTE PTR [edx+32]
	mov	BYTE PTR [ecx+32], al
	mov	ecx, DWORD PTR _this$[ebp]
	mov	edx, DWORD PTR ___that$[ebp]
	mov	al, BYTE PTR [edx+33]
	mov	BYTE PTR [ecx+33], al
	mov	ecx, DWORD PTR _this$[ebp]
	mov	edx, DWORD PTR ___that$[ebp]
	mov	eax, DWORD PTR [edx+36]
	mov	DWORD PTR [ecx+36], eax
	mov	ecx, DWORD PTR _this$[ebp]
	mov	edx, DWORD PTR ___that$[ebp]
	mov	eax, DWORD PTR [edx+40]
	mov	DWORD PTR [ecx+40], eax
	mov	ecx, DWORD PTR _this$[ebp]
	mov	edx, DWORD PTR ___that$[ebp]
	mov	eax, DWORD PTR [edx+44]
	mov	DWORD PTR [ecx+44], eax
	mov	ecx, DWORD PTR _this$[ebp]
	mov	edx, DWORD PTR ___that$[ebp]
	mov	eax, DWORD PTR [edx+48]
	mov	DWORD PTR [ecx+48], eax
	mov	ecx, DWORD PTR _this$[ebp]
	mov	edx, DWORD PTR ___that$[ebp]
	mov	eax, DWORD PTR [edx+52]
	mov	DWORD PTR [ecx+52], eax
	mov	eax, DWORD PTR _this$[ebp]
	mov	esp, ebp
	pop	ebp
	ret	4
??4MCIWrap@Ogre@@QAEAAV01@ABV01@@Z ENDP			; Ogre::MCIWrap::operator=
_TEXT	ENDS
PUBLIC	?getCapabilities@RenderSystem@Ogre@@QBEPBVRenderSystemCapabilities@2@XZ ; Ogre::RenderSystem::getCapabilities
; Function compile flags: /Odtp
; File i:\svnroot\client\ogremain\ogrerendersystem.h
;	COMDAT ?getCapabilities@RenderSystem@Ogre@@QBEPBVRenderSystemCapabilities@2@XZ
_TEXT	SEGMENT
_this$ = -4						; size = 4
?getCapabilities@RenderSystem@Ogre@@QBEPBVRenderSystemCapabilities@2@XZ PROC ; Ogre::RenderSystem::getCapabilities, COMDAT
; _this$ = ecx

; 126  : 		const RenderSystemCapabilities* getCapabilities(void) const { return m_Capabilities; }

	push	ebp
	mov	ebp, esp
	push	ecx
	mov	DWORD PTR _this$[ebp], ecx
	mov	eax, DWORD PTR _this$[ebp]
	mov	eax, DWORD PTR [eax+48]
	mov	esp, ebp
	pop	ebp
	ret	0
?getCapabilities@RenderSystem@Ogre@@QBEPBVRenderSystemCapabilities@2@XZ ENDP ; Ogre::RenderSystem::getCapabilities
_TEXT	ENDS
PUBLIC	?getWireframeShader@RenderSystem@Ogre@@QAEPAVShaderTechnique@2@XZ ; Ogre::RenderSystem::getWireframeShader
; Function compile flags: /Odtp
;	COMDAT ?getWireframeShader@RenderSystem@Ogre@@QAEPAVShaderTechnique@2@XZ
_TEXT	SEGMENT
_this$ = -4						; size = 4
?getWireframeShader@RenderSystem@Ogre@@QAEPAVShaderTechnique@2@XZ PROC ; Ogre::RenderSystem::getWireframeShader, COMDAT
; _this$ = ecx

; 129  : 		{

	push	ebp
	mov	ebp, esp
	push	ecx
	mov	DWORD PTR _this$[ebp], ecx

; 130  : 			return m_pWireframeShader;

	mov	eax, DWORD PTR _this$[ebp]
	mov	eax, DWORD PTR [eax+52]

; 131  : 		}

	mov	esp, ebp
	pop	ebp
	ret	0
?getWireframeShader@RenderSystem@Ogre@@QAEPAVShaderTechnique@2@XZ ENDP ; Ogre::RenderSystem::getWireframeShader
_TEXT	ENDS
PUBLIC	?GetRenderLevel@RenderSystem@Ogre@@QAEHXZ	; Ogre::RenderSystem::GetRenderLevel
; Function compile flags: /Odtp
;	COMDAT ?GetRenderLevel@RenderSystem@Ogre@@QAEHXZ
_TEXT	SEGMENT
_this$ = -4						; size = 4
?GetRenderLevel@RenderSystem@Ogre@@QAEHXZ PROC		; Ogre::RenderSystem::GetRenderLevel, COMDAT
; _this$ = ecx

; 134  : 		{

	push	ebp
	mov	ebp, esp
	push	ecx
	mov	DWORD PTR _this$[ebp], ecx

; 135  : 			return m_iLevel;

	mov	eax, DWORD PTR _this$[ebp]
	mov	eax, DWORD PTR [eax+56]

; 136  : 		}

	mov	esp, ebp
	pop	ebp
	ret	0
?GetRenderLevel@RenderSystem@Ogre@@QAEHXZ ENDP		; Ogre::RenderSystem::GetRenderLevel
_TEXT	ENDS
PUBLIC	?SetSaveCompiledShaders@RenderSystem@Ogre@@QAEX_N@Z ; Ogre::RenderSystem::SetSaveCompiledShaders
; Function compile flags: /Odtp
;	COMDAT ?SetSaveCompiledShaders@RenderSystem@Ogre@@QAEX_N@Z
_TEXT	SEGMENT
_this$ = -4						; size = 4
_bSave$ = 8						; size = 1
?SetSaveCompiledShaders@RenderSystem@Ogre@@QAEX_N@Z PROC ; Ogre::RenderSystem::SetSaveCompiledShaders, COMDAT
; _this$ = ecx

; 139  : 		{

	push	ebp
	mov	ebp, esp
	push	ecx
	mov	DWORD PTR _this$[ebp], ecx

; 140  : 			m_bSaveCompiledShader = bSave;

	mov	eax, DWORD PTR _this$[ebp]
	mov	cl, BYTE PTR _bSave$[ebp]
	mov	BYTE PTR [eax+60], cl

; 141  : 		}

	mov	esp, ebp
	pop	ebp
	ret	4
?SetSaveCompiledShaders@RenderSystem@Ogre@@QAEX_N@Z ENDP ; Ogre::RenderSystem::SetSaveCompiledShaders
_TEXT	ENDS
PUBLIC	?IsSaveCompiledShaders@RenderSystem@Ogre@@QAE_NXZ ; Ogre::RenderSystem::IsSaveCompiledShaders
; Function compile flags: /Odtp
;	COMDAT ?IsSaveCompiledShaders@RenderSystem@Ogre@@QAE_NXZ
_TEXT	SEGMENT
_this$ = -4						; size = 4
?IsSaveCompiledShaders@RenderSystem@Ogre@@QAE_NXZ PROC	; Ogre::RenderSystem::IsSaveCompiledShaders, COMDAT
; _this$ = ecx

; 144  : 		{

	push	ebp
	mov	ebp, esp
	push	ecx
	mov	DWORD PTR _this$[ebp], ecx

; 145  : 			return m_bSaveCompiledShader;

	mov	eax, DWORD PTR _this$[ebp]
	mov	al, BYTE PTR [eax+60]

; 146  : 		}

	mov	esp, ebp
	pop	ebp
	ret	0
?IsSaveCompiledShaders@RenderSystem@Ogre@@QAE_NXZ ENDP	; Ogre::RenderSystem::IsSaveCompiledShaders
_TEXT	ENDS
PUBLIC	?SetRestoreLostDeviceCallBack@RenderSystem@Ogre@@QAEXP6AXXZ@Z ; Ogre::RenderSystem::SetRestoreLostDeviceCallBack
; Function compile flags: /Odtp
;	COMDAT ?SetRestoreLostDeviceCallBack@RenderSystem@Ogre@@QAEXP6AXXZ@Z
_TEXT	SEGMENT
_this$ = -4						; size = 4
_pCallBack$ = 8						; size = 4
?SetRestoreLostDeviceCallBack@RenderSystem@Ogre@@QAEXP6AXXZ@Z PROC ; Ogre::RenderSystem::SetRestoreLostDeviceCallBack, COMDAT
; _this$ = ecx

; 148  : 		{

	push	ebp
	mov	ebp, esp
	push	ecx
	mov	DWORD PTR _this$[ebp], ecx

; 149  : 			m_restoreDeviceCallBack = pCallBack;

	mov	eax, DWORD PTR _this$[ebp]
	mov	ecx, DWORD PTR _pCallBack$[ebp]
	mov	DWORD PTR [eax+92], ecx

; 150  : 		}

	mov	esp, ebp
	pop	ebp
	ret	4
?SetRestoreLostDeviceCallBack@RenderSystem@Ogre@@QAEXP6AXXZ@Z ENDP ; Ogre::RenderSystem::SetRestoreLostDeviceCallBack
_TEXT	ENDS
PUBLIC	??4?$Singleton@VRenderSystem@Ogre@@@Ogre@@QAEAAV01@ABV01@@Z ; Ogre::Singleton<Ogre::RenderSystem>::operator=
; Function compile flags: /Odtp
;	COMDAT ??4?$Singleton@VRenderSystem@Ogre@@@Ogre@@QAEAAV01@ABV01@@Z
_TEXT	SEGMENT
_this$ = -4						; size = 4
___that$ = 8						; size = 4
??4?$Singleton@VRenderSystem@Ogre@@@Ogre@@QAEAAV01@ABV01@@Z PROC ; Ogre::Singleton<Ogre::RenderSystem>::operator=, COMDAT
; _this$ = ecx
	push	ebp
	mov	ebp, esp
	push	ecx
	mov	DWORD PTR _this$[ebp], ecx
	mov	eax, DWORD PTR _this$[ebp]
	mov	esp, ebp
	pop	ebp
	ret	4
??4?$Singleton@VRenderSystem@Ogre@@@Ogre@@QAEAAV01@ABV01@@Z ENDP ; Ogre::Singleton<Ogre::RenderSystem>::operator=
_TEXT	ENDS
PUBLIC	??1?$Singleton@VRenderSystem@Ogre@@@Ogre@@QAE@XZ ; Ogre::Singleton<Ogre::RenderSystem>::~Singleton<Ogre::RenderSystem>
PUBLIC	??_7RenderSystem@Ogre@@6B@			; Ogre::RenderSystem::`vftable'
PUBLIC	??0RenderSystem@Ogre@@QAE@ABV01@@Z		; Ogre::RenderSystem::RenderSystem
PUBLIC	??_R4RenderSystem@Ogre@@6B@			; Ogre::RenderSystem::`RTTI Complete Object Locator'
PUBLIC	??_R0?AVRenderSystem@Ogre@@@8			; Ogre::RenderSystem `RTTI Type Descriptor'
PUBLIC	??_R3RenderSystem@Ogre@@8			; Ogre::RenderSystem::`RTTI Class Hierarchy Descriptor'
PUBLIC	??_R2RenderSystem@Ogre@@8			; Ogre::RenderSystem::`RTTI Base Class Array'
PUBLIC	??_R1A@?0A@EA@RenderSystem@Ogre@@8		; Ogre::RenderSystem::`RTTI Base Class Descriptor at (0,-1,0,64)'
PUBLIC	??_R13?0A@EA@?$Singleton@VRenderSystem@Ogre@@@Ogre@@8 ; Ogre::Singleton<Ogre::RenderSystem>::`RTTI Base Class Descriptor at (4,-1,0,64)'
PUBLIC	??_R0?AV?$Singleton@VRenderSystem@Ogre@@@Ogre@@@8 ; Ogre::Singleton<Ogre::RenderSystem> `RTTI Type Descriptor'
PUBLIC	??_R3?$Singleton@VRenderSystem@Ogre@@@Ogre@@8	; Ogre::Singleton<Ogre::RenderSystem>::`RTTI Class Hierarchy Descriptor'
PUBLIC	??_R2?$Singleton@VRenderSystem@Ogre@@@Ogre@@8	; Ogre::Singleton<Ogre::RenderSystem>::`RTTI Base Class Array'
PUBLIC	??_R1A@?0A@EA@?$Singleton@VRenderSystem@Ogre@@@Ogre@@8 ; Ogre::Singleton<Ogre::RenderSystem>::`RTTI Base Class Descriptor at (0,-1,0,64)'
EXTRN	__imp_??1?$basic_string@DU?$char_traits@D@std@@V?$allocator@D@2@@std@@QAE@XZ:PROC
EXTRN	__imp_??0?$basic_string@DU?$char_traits@D@std@@V?$allocator@D@2@@std@@QAE@ABV01@@Z:PROC
EXTRN	??_7type_info@@6B@:QWORD			; type_info::`vftable'
EXTRN	__purecall:PROC
;	COMDAT ??_R1A@?0A@EA@?$Singleton@VRenderSystem@Ogre@@@Ogre@@8
rdata$r	SEGMENT
??_R1A@?0A@EA@?$Singleton@VRenderSystem@Ogre@@@Ogre@@8 DD FLAT:??_R0?AV?$Singleton@VRenderSystem@Ogre@@@Ogre@@@8 ; Ogre::Singleton<Ogre::RenderSystem>::`RTTI Base Class Descriptor at (0,-1,0,64)'
	DD	00H
	DD	00H
	DD	0ffffffffH
	DD	00H
	DD	040H
	DD	FLAT:??_R3?$Singleton@VRenderSystem@Ogre@@@Ogre@@8
rdata$r	ENDS
;	COMDAT ??_R2?$Singleton@VRenderSystem@Ogre@@@Ogre@@8
rdata$r	SEGMENT
??_R2?$Singleton@VRenderSystem@Ogre@@@Ogre@@8 DD FLAT:??_R1A@?0A@EA@?$Singleton@VRenderSystem@Ogre@@@Ogre@@8 ; Ogre::Singleton<Ogre::RenderSystem>::`RTTI Base Class Array'
rdata$r	ENDS
;	COMDAT ??_R3?$Singleton@VRenderSystem@Ogre@@@Ogre@@8
rdata$r	SEGMENT
??_R3?$Singleton@VRenderSystem@Ogre@@@Ogre@@8 DD 00H	; Ogre::Singleton<Ogre::RenderSystem>::`RTTI Class Hierarchy Descriptor'
	DD	00H
	DD	01H
	DD	FLAT:??_R2?$Singleton@VRenderSystem@Ogre@@@Ogre@@8
rdata$r	ENDS
;	COMDAT ??_R0?AV?$Singleton@VRenderSystem@Ogre@@@Ogre@@@8
_DATA	SEGMENT
??_R0?AV?$Singleton@VRenderSystem@Ogre@@@Ogre@@@8 DD FLAT:??_7type_info@@6B@ ; Ogre::Singleton<Ogre::RenderSystem> `RTTI Type Descriptor'
	DD	00H
	DB	'.?AV?$Singleton@VRenderSystem@Ogre@@@Ogre@@', 00H
_DATA	ENDS
;	COMDAT ??_R13?0A@EA@?$Singleton@VRenderSystem@Ogre@@@Ogre@@8
rdata$r	SEGMENT
??_R13?0A@EA@?$Singleton@VRenderSystem@Ogre@@@Ogre@@8 DD FLAT:??_R0?AV?$Singleton@VRenderSystem@Ogre@@@Ogre@@@8 ; Ogre::Singleton<Ogre::RenderSystem>::`RTTI Base Class Descriptor at (4,-1,0,64)'
	DD	00H
	DD	04H
	DD	0ffffffffH
	DD	00H
	DD	040H
	DD	FLAT:??_R3?$Singleton@VRenderSystem@Ogre@@@Ogre@@8
rdata$r	ENDS
;	COMDAT ??_R1A@?0A@EA@RenderSystem@Ogre@@8
rdata$r	SEGMENT
??_R1A@?0A@EA@RenderSystem@Ogre@@8 DD FLAT:??_R0?AVRenderSystem@Ogre@@@8 ; Ogre::RenderSystem::`RTTI Base Class Descriptor at (0,-1,0,64)'
	DD	01H
	DD	00H
	DD	0ffffffffH
	DD	00H
	DD	040H
	DD	FLAT:??_R3RenderSystem@Ogre@@8
rdata$r	ENDS
;	COMDAT ??_R2RenderSystem@Ogre@@8
rdata$r	SEGMENT
??_R2RenderSystem@Ogre@@8 DD FLAT:??_R1A@?0A@EA@RenderSystem@Ogre@@8 ; Ogre::RenderSystem::`RTTI Base Class Array'
	DD	FLAT:??_R13?0A@EA@?$Singleton@VRenderSystem@Ogre@@@Ogre@@8
rdata$r	ENDS
;	COMDAT ??_R3RenderSystem@Ogre@@8
rdata$r	SEGMENT
??_R3RenderSystem@Ogre@@8 DD 00H			; Ogre::RenderSystem::`RTTI Class Hierarchy Descriptor'
	DD	00H
	DD	02H
	DD	FLAT:??_R2RenderSystem@Ogre@@8
rdata$r	ENDS
;	COMDAT ??_R0?AVRenderSystem@Ogre@@@8
_DATA	SEGMENT
??_R0?AVRenderSystem@Ogre@@@8 DD FLAT:??_7type_info@@6B@ ; Ogre::RenderSystem `RTTI Type Descriptor'
	DD	00H
	DB	'.?AVRenderSystem@Ogre@@', 00H
_DATA	ENDS
;	COMDAT ??_R4RenderSystem@Ogre@@6B@
rdata$r	SEGMENT
??_R4RenderSystem@Ogre@@6B@ DD 00H			; Ogre::RenderSystem::`RTTI Complete Object Locator'
	DD	00H
	DD	00H
	DD	FLAT:??_R0?AVRenderSystem@Ogre@@@8
	DD	FLAT:??_R3RenderSystem@Ogre@@8
rdata$r	ENDS
;	COMDAT ??_7RenderSystem@Ogre@@6B@
CONST	SEGMENT
??_7RenderSystem@Ogre@@6B@ DD FLAT:??_R4RenderSystem@Ogre@@6B@ ; Ogre::RenderSystem::`vftable'
	DD	FLAT:__purecall
	DD	FLAT:__purecall
	DD	FLAT:__purecall
	DD	FLAT:__purecall
	DD	FLAT:__purecall
	DD	FLAT:__purecall
	DD	FLAT:__purecall
	DD	FLAT:__purecall
	DD	FLAT:__purecall
	DD	FLAT:__purecall
	DD	FLAT:__purecall
	DD	FLAT:__purecall
	DD	FLAT:__purecall
	DD	FLAT:__purecall
	DD	FLAT:__purecall
	DD	FLAT:__purecall
	DD	FLAT:__purecall
	DD	FLAT:__purecall
	DD	FLAT:__purecall
	DD	FLAT:__purecall
CONST	ENDS
;	COMDAT xdata$x
xdata$x	SEGMENT
__unwindtable$??0RenderSystem@Ogre@@QAE@ABV01@@Z DD 0ffffffffH
	DD	FLAT:__unwindfunclet$??0RenderSystem@Ogre@@QAE@ABV01@@Z$0
	DD	00H
	DD	FLAT:__unwindfunclet$??0RenderSystem@Ogre@@QAE@ABV01@@Z$1
__ehfuncinfo$??0RenderSystem@Ogre@@QAE@ABV01@@Z DD 019930522H
	DD	02H
	DD	FLAT:__unwindtable$??0RenderSystem@Ogre@@QAE@ABV01@@Z
	DD	2 DUP(00H)
	DD	2 DUP(00H)
	DD	00H
	DD	00H
; Function compile flags: /Odtp
xdata$x	ENDS
;	COMDAT ??0RenderSystem@Ogre@@QAE@ABV01@@Z
_TEXT	SEGMENT
tv68 = -20						; size = 4
_this$ = -16						; size = 4
__$EHRec$ = -12						; size = 12
___that$ = 8						; size = 4
??0RenderSystem@Ogre@@QAE@ABV01@@Z PROC			; Ogre::RenderSystem::RenderSystem, COMDAT
; _this$ = ecx
	push	ebp
	mov	ebp, esp
	push	-1
	push	__ehhandler$??0RenderSystem@Ogre@@QAE@ABV01@@Z
	mov	eax, DWORD PTR fs:0
	push	eax
	sub	esp, 8
	push	esi
	push	edi
	mov	eax, DWORD PTR ___security_cookie
	xor	eax, ebp
	push	eax
	lea	eax, DWORD PTR __$EHRec$[ebp]
	mov	DWORD PTR fs:0, eax
	mov	DWORD PTR _this$[ebp], ecx
	cmp	DWORD PTR ___that$[ebp], 0
	je	SHORT $LN3@RenderSyst
	mov	eax, DWORD PTR ___that$[ebp]
	add	eax, 4
	mov	DWORD PTR tv68[ebp], eax
	jmp	SHORT $LN4@RenderSyst
$LN3@RenderSyst:
	mov	DWORD PTR tv68[ebp], 0
$LN4@RenderSyst:
	mov	DWORD PTR __$EHRec$[ebp+8], 0
	mov	ecx, DWORD PTR _this$[ebp]
	mov	DWORD PTR [ecx], OFFSET ??_7RenderSystem@Ogre@@6B@
	mov	esi, DWORD PTR ___that$[ebp]
	add	esi, 4
	mov	edi, DWORD PTR _this$[ebp]
	add	edi, 4
	mov	ecx, 10					; 0000000aH
	rep movsd
	mov	edx, DWORD PTR _this$[ebp]
	mov	eax, DWORD PTR ___that$[ebp]
	mov	cl, BYTE PTR [eax+44]
	mov	BYTE PTR [edx+44], cl
	mov	edx, DWORD PTR _this$[ebp]
	mov	eax, DWORD PTR ___that$[ebp]
	mov	ecx, DWORD PTR [eax+48]
	mov	DWORD PTR [edx+48], ecx
	mov	edx, DWORD PTR _this$[ebp]
	mov	eax, DWORD PTR ___that$[ebp]
	mov	ecx, DWORD PTR [eax+52]
	mov	DWORD PTR [edx+52], ecx
	mov	edx, DWORD PTR _this$[ebp]
	mov	eax, DWORD PTR ___that$[ebp]
	mov	ecx, DWORD PTR [eax+56]
	mov	DWORD PTR [edx+56], ecx
	mov	edx, DWORD PTR _this$[ebp]
	mov	eax, DWORD PTR ___that$[ebp]
	mov	cl, BYTE PTR [eax+60]
	mov	BYTE PTR [edx+60], cl
	mov	edx, DWORD PTR ___that$[ebp]
	add	edx, 64					; 00000040H
	push	edx
	mov	ecx, DWORD PTR _this$[ebp]
	add	ecx, 64					; 00000040H
	call	DWORD PTR __imp_??0?$basic_string@DU?$char_traits@D@std@@V?$allocator@D@2@@std@@QAE@ABV01@@Z
	mov	BYTE PTR __$EHRec$[ebp+8], 1
	mov	eax, DWORD PTR _this$[ebp]
	mov	ecx, DWORD PTR ___that$[ebp]
	mov	edx, DWORD PTR [ecx+92]
	mov	DWORD PTR [eax+92], edx
	mov	DWORD PTR __$EHRec$[ebp+8], -1
	mov	eax, DWORD PTR _this$[ebp]
	mov	ecx, DWORD PTR __$EHRec$[ebp]
	mov	DWORD PTR fs:0, ecx
	pop	ecx
	pop	edi
	pop	esi
	mov	esp, ebp
	pop	ebp
	ret	4
_TEXT	ENDS
;	COMDAT text$x
text$x	SEGMENT
__unwindfunclet$??0RenderSystem@Ogre@@QAE@ABV01@@Z$0:
	mov	ecx, DWORD PTR _this$[ebp]
	add	ecx, 4
	jmp	??1?$Singleton@VRenderSystem@Ogre@@@Ogre@@QAE@XZ ; Ogre::Singleton<Ogre::RenderSystem>::~Singleton<Ogre::RenderSystem>
__unwindfunclet$??0RenderSystem@Ogre@@QAE@ABV01@@Z$1:
	mov	ecx, DWORD PTR _this$[ebp]
	add	ecx, 64					; 00000040H
	jmp	DWORD PTR __imp_??1?$basic_string@DU?$char_traits@D@std@@V?$allocator@D@2@@std@@QAE@XZ
__ehhandler$??0RenderSystem@Ogre@@QAE@ABV01@@Z:
	mov	edx, DWORD PTR [esp+8]
	lea	eax, DWORD PTR [edx+12]
	mov	ecx, DWORD PTR [edx-20]
	xor	ecx, eax
	call	@__security_check_cookie@4
	mov	eax, OFFSET __ehfuncinfo$??0RenderSystem@Ogre@@QAE@ABV01@@Z
	jmp	___CxxFrameHandler3
text$x	ENDS
??0RenderSystem@Ogre@@QAE@ABV01@@Z ENDP			; Ogre::RenderSystem::RenderSystem
PUBLIC	??4RenderSystem@Ogre@@QAEAAV01@ABV01@@Z		; Ogre::RenderSystem::operator=
EXTRN	__imp_??4?$basic_string@DU?$char_traits@D@std@@V?$allocator@D@2@@std@@QAEAAV01@ABV01@@Z:PROC
; Function compile flags: /Odtp
;	COMDAT ??4RenderSystem@Ogre@@QAEAAV01@ABV01@@Z
_TEXT	SEGMENT
_this$ = -4						; size = 4
___that$ = 8						; size = 4
??4RenderSystem@Ogre@@QAEAAV01@ABV01@@Z PROC		; Ogre::RenderSystem::operator=, COMDAT
; _this$ = ecx
	push	ebp
	mov	ebp, esp
	push	ecx
	push	esi
	push	edi
	mov	DWORD PTR _this$[ebp], ecx
	mov	esi, DWORD PTR ___that$[ebp]
	add	esi, 4
	mov	edi, DWORD PTR _this$[ebp]
	add	edi, 4
	mov	ecx, 10					; 0000000aH
	rep movsd
	mov	eax, DWORD PTR _this$[ebp]
	mov	ecx, DWORD PTR ___that$[ebp]
	mov	dl, BYTE PTR [ecx+44]
	mov	BYTE PTR [eax+44], dl
	mov	eax, DWORD PTR _this$[ebp]
	mov	ecx, DWORD PTR ___that$[ebp]
	mov	edx, DWORD PTR [ecx+48]
	mov	DWORD PTR [eax+48], edx
	mov	eax, DWORD PTR _this$[ebp]
	mov	ecx, DWORD PTR ___that$[ebp]
	mov	edx, DWORD PTR [ecx+52]
	mov	DWORD PTR [eax+52], edx
	mov	eax, DWORD PTR _this$[ebp]
	mov	ecx, DWORD PTR ___that$[ebp]
	mov	edx, DWORD PTR [ecx+56]
	mov	DWORD PTR [eax+56], edx
	mov	eax, DWORD PTR _this$[ebp]
	mov	ecx, DWORD PTR ___that$[ebp]
	mov	dl, BYTE PTR [ecx+60]
	mov	BYTE PTR [eax+60], dl
	mov	eax, DWORD PTR ___that$[ebp]
	add	eax, 64					; 00000040H
	push	eax
	mov	ecx, DWORD PTR _this$[ebp]
	add	ecx, 64					; 00000040H
	call	DWORD PTR __imp_??4?$basic_string@DU?$char_traits@D@std@@V?$allocator@D@2@@std@@QAEAAV01@ABV01@@Z
	mov	ecx, DWORD PTR _this$[ebp]
	mov	edx, DWORD PTR ___that$[ebp]
	mov	eax, DWORD PTR [edx+92]
	mov	DWORD PTR [ecx+92], eax
	mov	eax, DWORD PTR _this$[ebp]
	pop	edi
	pop	esi
	mov	esp, ebp
	pop	ebp
	ret	4
??4RenderSystem@Ogre@@QAEAAV01@ABV01@@Z ENDP		; Ogre::RenderSystem::operator=
_TEXT	ENDS
PUBLIC	??4MemoryDelegation@Ogre@@QAEAAV01@ABV01@@Z	; Ogre::MemoryDelegation::operator=
; Function compile flags: /Odtp
;	COMDAT ??4MemoryDelegation@Ogre@@QAEAAV01@ABV01@@Z
_TEXT	SEGMENT
_this$ = -4						; size = 4
___that$ = 8						; size = 4
??4MemoryDelegation@Ogre@@QAEAAV01@ABV01@@Z PROC	; Ogre::MemoryDelegation::operator=, COMDAT
; _this$ = ecx
	push	ebp
	mov	ebp, esp
	push	ecx
	mov	DWORD PTR _this$[ebp], ecx
	mov	eax, DWORD PTR _this$[ebp]
	mov	esp, ebp
	pop	ebp
	ret	4
??4MemoryDelegation@Ogre@@QAEAAV01@ABV01@@Z ENDP	; Ogre::MemoryDelegation::operator=
_TEXT	ENDS
PUBLIC	?getBaseClass@RuntimeClass@Ogre@@QBEPBV12@XZ	; Ogre::RuntimeClass::getBaseClass
; Function compile flags: /Odtp
; File i:\svnroot\client\ogremain\ogrebaseobject.h
;	COMDAT ?getBaseClass@RuntimeClass@Ogre@@QBEPBV12@XZ
_TEXT	SEGMENT
_this$ = -4						; size = 4
?getBaseClass@RuntimeClass@Ogre@@QBEPBV12@XZ PROC	; Ogre::RuntimeClass::getBaseClass, COMDAT
; _this$ = ecx

; 20   : 		{

	push	ebp
	mov	ebp, esp
	push	ecx
	mov	DWORD PTR _this$[ebp], ecx

; 21   : 			return m_pBaseClass;

	mov	eax, DWORD PTR _this$[ebp]
	mov	eax, DWORD PTR [eax+4]

; 22   : 		}

	mov	esp, ebp
	pop	ebp
	ret	0
?getBaseClass@RuntimeClass@Ogre@@QBEPBV12@XZ ENDP	; Ogre::RuntimeClass::getBaseClass
_TEXT	ENDS
PUBLIC	?getClassName@RuntimeClass@Ogre@@QBEPBDXZ	; Ogre::RuntimeClass::getClassName
; Function compile flags: /Odtp
;	COMDAT ?getClassName@RuntimeClass@Ogre@@QBEPBDXZ
_TEXT	SEGMENT
_this$ = -4						; size = 4
?getClassName@RuntimeClass@Ogre@@QBEPBDXZ PROC		; Ogre::RuntimeClass::getClassName, COMDAT
; _this$ = ecx

; 25   : 		{

	push	ebp
	mov	ebp, esp
	push	ecx
	mov	DWORD PTR _this$[ebp], ecx

; 26   : 			return m_pClassName; 

	mov	eax, DWORD PTR _this$[ebp]
	mov	eax, DWORD PTR [eax]

; 27   : 		}

	mov	esp, ebp
	pop	ebp
	ret	0
?getClassName@RuntimeClass@Ogre@@QBEPBDXZ ENDP		; Ogre::RuntimeClass::getClassName
_TEXT	ENDS
PUBLIC	?getVersion@RuntimeClass@Ogre@@QBEHXZ		; Ogre::RuntimeClass::getVersion
; Function compile flags: /Odtp
;	COMDAT ?getVersion@RuntimeClass@Ogre@@QBEHXZ
_TEXT	SEGMENT
_this$ = -4						; size = 4
?getVersion@RuntimeClass@Ogre@@QBEHXZ PROC		; Ogre::RuntimeClass::getVersion, COMDAT
; _this$ = ecx

; 30   : 		{

	push	ebp
	mov	ebp, esp
	push	ecx
	mov	DWORD PTR _this$[ebp], ecx

; 31   : 			return m_Version;

	mov	eax, DWORD PTR _this$[ebp]
	mov	eax, DWORD PTR [eax+8]

; 32   : 		}

	mov	esp, ebp
	pop	ebp
	ret	0
?getVersion@RuntimeClass@Ogre@@QBEHXZ ENDP		; Ogre::RuntimeClass::getVersion
_TEXT	ENDS
PUBLIC	?newObject@RuntimeClass@Ogre@@QAEPAVBaseObject@2@XZ ; Ogre::RuntimeClass::newObject
; Function compile flags: /Odtp
;	COMDAT ?newObject@RuntimeClass@Ogre@@QAEPAVBaseObject@2@XZ
_TEXT	SEGMENT
_this$ = -4						; size = 4
?newObject@RuntimeClass@Ogre@@QAEPAVBaseObject@2@XZ PROC ; Ogre::RuntimeClass::newObject, COMDAT
; _this$ = ecx

; 35   : 		{

	push	ebp
	mov	ebp, esp
	push	ecx
	mov	DWORD PTR _this$[ebp], ecx

; 36   : 			return (*m_pNewFunc)();

	mov	eax, DWORD PTR _this$[ebp]
	mov	ecx, DWORD PTR [eax+12]
	call	ecx

; 37   : 		}

	mov	esp, ebp
	pop	ebp
	ret	0
?newObject@RuntimeClass@Ogre@@QAEPAVBaseObject@2@XZ ENDP ; Ogre::RuntimeClass::newObject
_TEXT	ENDS
PUBLIC	??4RuntimeClass@Ogre@@QAEAAV01@ABV01@@Z		; Ogre::RuntimeClass::operator=
; Function compile flags: /Odtp
;	COMDAT ??4RuntimeClass@Ogre@@QAEAAV01@ABV01@@Z
_TEXT	SEGMENT
_this$ = -4						; size = 4
___that$ = 8						; size = 4
??4RuntimeClass@Ogre@@QAEAAV01@ABV01@@Z PROC		; Ogre::RuntimeClass::operator=, COMDAT
; _this$ = ecx
	push	ebp
	mov	ebp, esp
	push	ecx
	mov	DWORD PTR _this$[ebp], ecx
	mov	eax, DWORD PTR ___that$[ebp]
	mov	ecx, DWORD PTR _this$[ebp]
	mov	edx, DWORD PTR [eax]
	mov	DWORD PTR [ecx], edx
	mov	edx, DWORD PTR [eax+4]
	mov	DWORD PTR [ecx+4], edx
	mov	edx, DWORD PTR [eax+8]
	mov	DWORD PTR [ecx+8], edx
	mov	edx, DWORD PTR [eax+12]
	mov	DWORD PTR [ecx+12], edx
	mov	eax, DWORD PTR [eax+16]
	mov	DWORD PTR [ecx+16], eax
	mov	eax, DWORD PTR _this$[ebp]
	mov	esp, ebp
	pop	ebp
	ret	4
??4RuntimeClass@Ogre@@QAEAAV01@ABV01@@Z ENDP		; Ogre::RuntimeClass::operator=
_TEXT	ENDS
PUBLIC	?getRTTI@BaseObject@Ogre@@UBEPBVRuntimeClass@2@XZ ; Ogre::BaseObject::getRTTI
EXTRN	?m_RTTI@BaseObject@Ogre@@2VRuntimeClass@2@B:BYTE ; Ogre::BaseObject::m_RTTI
; Function compile flags: /Odtp
;	COMDAT ?getRTTI@BaseObject@Ogre@@UBEPBVRuntimeClass@2@XZ
_TEXT	SEGMENT
_this$ = -4						; size = 4
?getRTTI@BaseObject@Ogre@@UBEPBVRuntimeClass@2@XZ PROC	; Ogre::BaseObject::getRTTI, COMDAT
; _this$ = ecx

; 56   : 		{

	push	ebp
	mov	ebp, esp
	push	ecx
	mov	DWORD PTR _this$[ebp], ecx

; 57   : 			return &m_RTTI;

	mov	eax, OFFSET ?m_RTTI@BaseObject@Ogre@@2VRuntimeClass@2@B ; Ogre::BaseObject::m_RTTI

; 58   : 		}

	mov	esp, ebp
	pop	ebp
	ret	0
?getRTTI@BaseObject@Ogre@@UBEPBVRuntimeClass@2@XZ ENDP	; Ogre::BaseObject::getRTTI
_TEXT	ENDS
PUBLIC	?isExactKindOf@BaseObject@Ogre@@QBE_NPBVRuntimeClass@2@@Z ; Ogre::BaseObject::isExactKindOf
; Function compile flags: /Odtp
;	COMDAT ?isExactKindOf@BaseObject@Ogre@@QBE_NPBVRuntimeClass@2@@Z
_TEXT	SEGMENT
_this$ = -4						; size = 4
_prtti$ = 8						; size = 4
?isExactKindOf@BaseObject@Ogre@@QBE_NPBVRuntimeClass@2@@Z PROC ; Ogre::BaseObject::isExactKindOf, COMDAT
; _this$ = ecx

; 61   : 		{

	push	ebp
	mov	ebp, esp
	push	ecx
	mov	DWORD PTR _this$[ebp], ecx

; 62   : 			return (getRTTI() == prtti);

	mov	eax, DWORD PTR _this$[ebp]
	mov	edx, DWORD PTR [eax]
	mov	ecx, DWORD PTR _this$[ebp]
	mov	eax, DWORD PTR [edx]
	call	eax
	xor	ecx, ecx
	cmp	eax, DWORD PTR _prtti$[ebp]
	sete	cl
	mov	al, cl

; 63   : 		}

	mov	esp, ebp
	pop	ebp
	ret	4
?isExactKindOf@BaseObject@Ogre@@QBE_NPBVRuntimeClass@2@@Z ENDP ; Ogre::BaseObject::isExactKindOf
_TEXT	ENDS
PUBLIC	?release@BaseObject@Ogre@@UAEXXZ		; Ogre::BaseObject::release
; Function compile flags: /Odtp
;	COMDAT ?release@BaseObject@Ogre@@UAEXXZ
_TEXT	SEGMENT
_this$ = -4						; size = 4
?release@BaseObject@Ogre@@UAEXXZ PROC			; Ogre::BaseObject::release, COMDAT
; _this$ = ecx

; 68   : 		{

	push	ebp
	mov	ebp, esp
	push	ecx
	mov	DWORD PTR _this$[ebp], ecx

; 69   : 			m_RefCount--;

	mov	eax, DWORD PTR _this$[ebp]
	mov	ecx, DWORD PTR [eax+4]
	sub	ecx, 1
	mov	edx, DWORD PTR _this$[ebp]
	mov	DWORD PTR [edx+4], ecx

; 70   : 			if(m_RefCount <= 0 )

	mov	eax, DWORD PTR _this$[ebp]
	cmp	DWORD PTR [eax+4], 0
	jg	SHORT $LN2@release

; 71   : 			{
; 72   : 				deleteThis();

	mov	ecx, DWORD PTR _this$[ebp]
	mov	edx, DWORD PTR [ecx]
	mov	ecx, DWORD PTR _this$[ebp]
	mov	eax, DWORD PTR [edx+24]
	call	eax
$LN2@release:

; 73   : 			}
; 74   : 		}

	mov	esp, ebp
	pop	ebp
	ret	0
?release@BaseObject@Ogre@@UAEXXZ ENDP			; Ogre::BaseObject::release
_TEXT	ENDS
PUBLIC	?addRef@BaseObject@Ogre@@UAEXXZ			; Ogre::BaseObject::addRef
; Function compile flags: /Odtp
;	COMDAT ?addRef@BaseObject@Ogre@@UAEXXZ
_TEXT	SEGMENT
_this$ = -4						; size = 4
?addRef@BaseObject@Ogre@@UAEXXZ PROC			; Ogre::BaseObject::addRef, COMDAT
; _this$ = ecx

; 77   : 		{

	push	ebp
	mov	ebp, esp
	push	ecx
	mov	DWORD PTR _this$[ebp], ecx

; 78   : 			m_RefCount++;

	mov	eax, DWORD PTR _this$[ebp]
	mov	ecx, DWORD PTR [eax+4]
	add	ecx, 1
	mov	edx, DWORD PTR _this$[ebp]
	mov	DWORD PTR [edx+4], ecx

; 79   : 		}

	mov	esp, ebp
	pop	ebp
	ret	0
?addRef@BaseObject@Ogre@@UAEXXZ ENDP			; Ogre::BaseObject::addRef
_TEXT	ENDS
PUBLIC	?getRefCount@BaseObject@Ogre@@UAEHXZ		; Ogre::BaseObject::getRefCount
; Function compile flags: /Odtp
;	COMDAT ?getRefCount@BaseObject@Ogre@@UAEHXZ
_TEXT	SEGMENT
_this$ = -4						; size = 4
?getRefCount@BaseObject@Ogre@@UAEHXZ PROC		; Ogre::BaseObject::getRefCount, COMDAT
; _this$ = ecx

; 82   : 		{

	push	ebp
	mov	ebp, esp
	push	ecx
	mov	DWORD PTR _this$[ebp], ecx

; 83   : 			return m_RefCount;

	mov	eax, DWORD PTR _this$[ebp]
	mov	eax, DWORD PTR [eax+4]

; 84   : 		}

	mov	esp, ebp
	pop	ebp
	ret	0
?getRefCount@BaseObject@Ogre@@UAEHXZ ENDP		; Ogre::BaseObject::getRefCount
_TEXT	ENDS
PUBLIC	?_serialize@BaseObject@Ogre@@UAEXAAVArchive@2@H@Z ; Ogre::BaseObject::_serialize
; Function compile flags: /Odtp
;	COMDAT ?_serialize@BaseObject@Ogre@@UAEXAAVArchive@2@H@Z
_TEXT	SEGMENT
_this$ = -4						; size = 4
_ar$ = 8						; size = 4
_version$ = 12						; size = 4
?_serialize@BaseObject@Ogre@@UAEXAAVArchive@2@H@Z PROC	; Ogre::BaseObject::_serialize, COMDAT
; _this$ = ecx

; 87   : 		{

	push	ebp
	mov	ebp, esp
	push	ecx
	mov	DWORD PTR _this$[ebp], ecx

; 88   : 		}

	mov	esp, ebp
	pop	ebp
	ret	8
?_serialize@BaseObject@Ogre@@UAEXAAVArchive@2@H@Z ENDP	; Ogre::BaseObject::_serialize
_TEXT	ENDS
PUBLIC	??_7BaseObject@Ogre@@6B@			; Ogre::BaseObject::`vftable'
PUBLIC	??0BaseObject@Ogre@@IAE@XZ			; Ogre::BaseObject::BaseObject
PUBLIC	??_R4BaseObject@Ogre@@6B@			; Ogre::BaseObject::`RTTI Complete Object Locator'
PUBLIC	??_R0?AVBaseObject@Ogre@@@8			; Ogre::BaseObject `RTTI Type Descriptor'
PUBLIC	??_R3BaseObject@Ogre@@8				; Ogre::BaseObject::`RTTI Class Hierarchy Descriptor'
PUBLIC	??_R2BaseObject@Ogre@@8				; Ogre::BaseObject::`RTTI Base Class Array'
PUBLIC	??_R1A@?0A@EA@BaseObject@Ogre@@8		; Ogre::BaseObject::`RTTI Base Class Descriptor at (0,-1,0,64)'
PUBLIC	??_R13?0A@EA@MemoryDelegation@Ogre@@8		; Ogre::MemoryDelegation::`RTTI Base Class Descriptor at (4,-1,0,64)'
PUBLIC	??_R0?AVMemoryDelegation@Ogre@@@8		; Ogre::MemoryDelegation `RTTI Type Descriptor'
PUBLIC	??_R3MemoryDelegation@Ogre@@8			; Ogre::MemoryDelegation::`RTTI Class Hierarchy Descriptor'
PUBLIC	??_R2MemoryDelegation@Ogre@@8			; Ogre::MemoryDelegation::`RTTI Base Class Array'
PUBLIC	??_R1A@?0A@EA@MemoryDelegation@Ogre@@8		; Ogre::MemoryDelegation::`RTTI Base Class Descriptor at (0,-1,0,64)'
PUBLIC	??_EBaseObject@Ogre@@MAEPAXI@Z			; Ogre::BaseObject::`vector deleting destructor'
PUBLIC	?deleteThis@BaseObject@Ogre@@MAEXXZ		; Ogre::BaseObject::deleteThis
;	COMDAT ??_R1A@?0A@EA@MemoryDelegation@Ogre@@8
rdata$r	SEGMENT
??_R1A@?0A@EA@MemoryDelegation@Ogre@@8 DD FLAT:??_R0?AVMemoryDelegation@Ogre@@@8 ; Ogre::MemoryDelegation::`RTTI Base Class Descriptor at (0,-1,0,64)'
	DD	00H
	DD	00H
	DD	0ffffffffH
	DD	00H
	DD	040H
	DD	FLAT:??_R3MemoryDelegation@Ogre@@8
rdata$r	ENDS
;	COMDAT ??_R2MemoryDelegation@Ogre@@8
rdata$r	SEGMENT
??_R2MemoryDelegation@Ogre@@8 DD FLAT:??_R1A@?0A@EA@MemoryDelegation@Ogre@@8 ; Ogre::MemoryDelegation::`RTTI Base Class Array'
rdata$r	ENDS
;	COMDAT ??_R3MemoryDelegation@Ogre@@8
rdata$r	SEGMENT
??_R3MemoryDelegation@Ogre@@8 DD 00H			; Ogre::MemoryDelegation::`RTTI Class Hierarchy Descriptor'
	DD	00H
	DD	01H
	DD	FLAT:??_R2MemoryDelegation@Ogre@@8
rdata$r	ENDS
;	COMDAT ??_R0?AVMemoryDelegation@Ogre@@@8
_DATA	SEGMENT
??_R0?AVMemoryDelegation@Ogre@@@8 DD FLAT:??_7type_info@@6B@ ; Ogre::MemoryDelegation `RTTI Type Descriptor'
	DD	00H
	DB	'.?AVMemoryDelegation@Ogre@@', 00H
_DATA	ENDS
;	COMDAT ??_R13?0A@EA@MemoryDelegation@Ogre@@8
rdata$r	SEGMENT
??_R13?0A@EA@MemoryDelegation@Ogre@@8 DD FLAT:??_R0?AVMemoryDelegation@Ogre@@@8 ; Ogre::MemoryDelegation::`RTTI Base Class Descriptor at (4,-1,0,64)'
	DD	00H
	DD	04H
	DD	0ffffffffH
	DD	00H
	DD	040H
	DD	FLAT:??_R3MemoryDelegation@Ogre@@8
rdata$r	ENDS
;	COMDAT ??_R1A@?0A@EA@BaseObject@Ogre@@8
rdata$r	SEGMENT
??_R1A@?0A@EA@BaseObject@Ogre@@8 DD FLAT:??_R0?AVBaseObject@Ogre@@@8 ; Ogre::BaseObject::`RTTI Base Class Descriptor at (0,-1,0,64)'
	DD	01H
	DD	00H
	DD	0ffffffffH
	DD	00H
	DD	040H
	DD	FLAT:??_R3BaseObject@Ogre@@8
rdata$r	ENDS
;	COMDAT ??_R2BaseObject@Ogre@@8
rdata$r	SEGMENT
??_R2BaseObject@Ogre@@8 DD FLAT:??_R1A@?0A@EA@BaseObject@Ogre@@8 ; Ogre::BaseObject::`RTTI Base Class Array'
	DD	FLAT:??_R13?0A@EA@MemoryDelegation@Ogre@@8
rdata$r	ENDS
;	COMDAT ??_R3BaseObject@Ogre@@8
rdata$r	SEGMENT
??_R3BaseObject@Ogre@@8 DD 00H				; Ogre::BaseObject::`RTTI Class Hierarchy Descriptor'
	DD	00H
	DD	02H
	DD	FLAT:??_R2BaseObject@Ogre@@8
rdata$r	ENDS
;	COMDAT ??_R0?AVBaseObject@Ogre@@@8
_DATA	SEGMENT
??_R0?AVBaseObject@Ogre@@@8 DD FLAT:??_7type_info@@6B@	; Ogre::BaseObject `RTTI Type Descriptor'
	DD	00H
	DB	'.?AVBaseObject@Ogre@@', 00H
_DATA	ENDS
;	COMDAT ??_R4BaseObject@Ogre@@6B@
rdata$r	SEGMENT
??_R4BaseObject@Ogre@@6B@ DD 00H			; Ogre::BaseObject::`RTTI Complete Object Locator'
	DD	00H
	DD	00H
	DD	FLAT:??_R0?AVBaseObject@Ogre@@@8
	DD	FLAT:??_R3BaseObject@Ogre@@8
rdata$r	ENDS
;	COMDAT ??_7BaseObject@Ogre@@6B@
CONST	SEGMENT
??_7BaseObject@Ogre@@6B@ DD FLAT:??_R4BaseObject@Ogre@@6B@ ; Ogre::BaseObject::`vftable'
	DD	FLAT:?getRTTI@BaseObject@Ogre@@UBEPBVRuntimeClass@2@XZ
	DD	FLAT:?release@BaseObject@Ogre@@UAEXXZ
	DD	FLAT:?addRef@BaseObject@Ogre@@UAEXXZ
	DD	FLAT:?getRefCount@BaseObject@Ogre@@UAEHXZ
	DD	FLAT:?_serialize@BaseObject@Ogre@@UAEXAAVArchive@2@H@Z
	DD	FLAT:??_EBaseObject@Ogre@@MAEPAXI@Z
	DD	FLAT:?deleteThis@BaseObject@Ogre@@MAEXXZ
; Function compile flags: /Odtp
CONST	ENDS
;	COMDAT ??0BaseObject@Ogre@@IAE@XZ
_TEXT	SEGMENT
_this$ = -4						; size = 4
??0BaseObject@Ogre@@IAE@XZ PROC				; Ogre::BaseObject::BaseObject, COMDAT
; _this$ = ecx

; 92   : 		{

	push	ebp
	mov	ebp, esp
	push	ecx
	mov	DWORD PTR _this$[ebp], ecx
	mov	eax, DWORD PTR _this$[ebp]
	mov	DWORD PTR [eax], OFFSET ??_7BaseObject@Ogre@@6B@
	mov	ecx, DWORD PTR _this$[ebp]
	mov	DWORD PTR [ecx+4], 1

; 93   : 		}

	mov	eax, DWORD PTR _this$[ebp]
	mov	esp, ebp
	pop	ebp
	ret	0
??0BaseObject@Ogre@@IAE@XZ ENDP				; Ogre::BaseObject::BaseObject
_TEXT	ENDS
PUBLIC	??1BaseObject@Ogre@@MAE@XZ			; Ogre::BaseObject::~BaseObject
; Function compile flags: /Odtp
;	COMDAT ??1BaseObject@Ogre@@MAE@XZ
_TEXT	SEGMENT
_this$ = -4						; size = 4
??1BaseObject@Ogre@@MAE@XZ PROC				; Ogre::BaseObject::~BaseObject, COMDAT
; _this$ = ecx

; 96   : 		{

	push	ebp
	mov	ebp, esp
	push	ecx
	mov	DWORD PTR _this$[ebp], ecx
	mov	eax, DWORD PTR _this$[ebp]
	mov	DWORD PTR [eax], OFFSET ??_7BaseObject@Ogre@@6B@

; 97   : 		}

	mov	esp, ebp
	pop	ebp
	ret	0
??1BaseObject@Ogre@@MAE@XZ ENDP				; Ogre::BaseObject::~BaseObject
; Function compile flags: /Odtp
_TEXT	ENDS
;	COMDAT ?deleteThis@BaseObject@Ogre@@MAEXXZ
_TEXT	SEGMENT
tv70 = -16						; size = 4
_this$ = -12						; size = 4
$T118400 = -8						; size = 4
$T118399 = -4						; size = 4
?deleteThis@BaseObject@Ogre@@MAEXXZ PROC		; Ogre::BaseObject::deleteThis, COMDAT
; _this$ = ecx

; 100  : 		{

	push	ebp
	mov	ebp, esp
	sub	esp, 16					; 00000010H
	mov	DWORD PTR _this$[ebp], ecx

; 101  : 			delete this;

	mov	eax, DWORD PTR _this$[ebp]
	mov	DWORD PTR $T118400[ebp], eax
	mov	ecx, DWORD PTR $T118400[ebp]
	mov	DWORD PTR $T118399[ebp], ecx
	cmp	DWORD PTR $T118399[ebp], 0
	je	SHORT $LN3@deleteThis
	push	1
	mov	edx, DWORD PTR $T118399[ebp]
	mov	eax, DWORD PTR [edx]
	mov	ecx, DWORD PTR $T118399[ebp]
	mov	edx, DWORD PTR [eax+20]
	call	edx
	mov	DWORD PTR tv70[ebp], eax
	jmp	SHORT $LN1@deleteThis
$LN3@deleteThis:
	mov	DWORD PTR tv70[ebp], 0
$LN1@deleteThis:

; 102  : 		}

	mov	esp, ebp
	pop	ebp
	ret	0
?deleteThis@BaseObject@Ogre@@MAEXXZ ENDP		; Ogre::BaseObject::deleteThis
_TEXT	ENDS
PUBLIC	??0BaseObject@Ogre@@QAE@ABV01@@Z		; Ogre::BaseObject::BaseObject
; Function compile flags: /Odtp
;	COMDAT ??0BaseObject@Ogre@@QAE@ABV01@@Z
_TEXT	SEGMENT
tv68 = -8						; size = 4
_this$ = -4						; size = 4
___that$ = 8						; size = 4
??0BaseObject@Ogre@@QAE@ABV01@@Z PROC			; Ogre::BaseObject::BaseObject, COMDAT
; _this$ = ecx
	push	ebp
	mov	ebp, esp
	sub	esp, 8
	mov	DWORD PTR _this$[ebp], ecx
	cmp	DWORD PTR ___that$[ebp], 0
	je	SHORT $LN3@BaseObject
	mov	eax, DWORD PTR ___that$[ebp]
	add	eax, 4
	mov	DWORD PTR tv68[ebp], eax
	jmp	SHORT $LN4@BaseObject
$LN3@BaseObject:
	mov	DWORD PTR tv68[ebp], 0
$LN4@BaseObject:
	mov	ecx, DWORD PTR _this$[ebp]
	mov	DWORD PTR [ecx], OFFSET ??_7BaseObject@Ogre@@6B@
	mov	edx, DWORD PTR _this$[ebp]
	mov	eax, DWORD PTR ___that$[ebp]
	mov	ecx, DWORD PTR [eax+4]
	mov	DWORD PTR [edx+4], ecx
	mov	eax, DWORD PTR _this$[ebp]
	mov	esp, ebp
	pop	ebp
	ret	4
??0BaseObject@Ogre@@QAE@ABV01@@Z ENDP			; Ogre::BaseObject::BaseObject
_TEXT	ENDS
PUBLIC	??4BaseObject@Ogre@@QAEAAV01@ABV01@@Z		; Ogre::BaseObject::operator=
; Function compile flags: /Odtp
;	COMDAT ??4BaseObject@Ogre@@QAEAAV01@ABV01@@Z
_TEXT	SEGMENT
_this$ = -4						; size = 4
___that$ = 8						; size = 4
??4BaseObject@Ogre@@QAEAAV01@ABV01@@Z PROC		; Ogre::BaseObject::operator=, COMDAT
; _this$ = ecx
	push	ebp
	mov	ebp, esp
	push	ecx
	mov	DWORD PTR _this$[ebp], ecx
	mov	eax, DWORD PTR _this$[ebp]
	mov	ecx, DWORD PTR ___that$[ebp]
	mov	edx, DWORD PTR [ecx+4]
	mov	DWORD PTR [eax+4], edx
	mov	eax, DWORD PTR _this$[ebp]
	mov	esp, ebp
	pop	ebp
	ret	4
??4BaseObject@Ogre@@QAEAAV01@ABV01@@Z ENDP		; Ogre::BaseObject::operator=
_TEXT	ENDS
PUBLIC	??_GBaseObject@Ogre@@MAEPAXI@Z			; Ogre::BaseObject::`scalar deleting destructor'
EXTRN	??3MemoryDelegation@Ogre@@SAXPAXI@Z:PROC	; Ogre::MemoryDelegation::operator delete
; Function compile flags: /Odtp
;	COMDAT ??_GBaseObject@Ogre@@MAEPAXI@Z
_TEXT	SEGMENT
_this$ = -4						; size = 4
___flags$ = 8						; size = 4
??_GBaseObject@Ogre@@MAEPAXI@Z PROC			; Ogre::BaseObject::`scalar deleting destructor', COMDAT
; _this$ = ecx
	push	ebp
	mov	ebp, esp
	push	ecx
	mov	DWORD PTR _this$[ebp], ecx
	mov	ecx, DWORD PTR _this$[ebp]
	call	??1BaseObject@Ogre@@MAE@XZ		; Ogre::BaseObject::~BaseObject
	mov	eax, DWORD PTR ___flags$[ebp]
	and	eax, 1
	je	SHORT $LN1@scalar
	push	8
	mov	ecx, DWORD PTR _this$[ebp]
	push	ecx
	call	??3MemoryDelegation@Ogre@@SAXPAXI@Z	; Ogre::MemoryDelegation::operator delete
	add	esp, 8
$LN1@scalar:
	mov	eax, DWORD PTR _this$[ebp]
	mov	esp, ebp
	pop	ebp
	ret	4
??_GBaseObject@Ogre@@MAEPAXI@Z ENDP			; Ogre::BaseObject::`scalar deleting destructor'
_TEXT	ENDS
EXTRN	??_VMemoryDelegation@Ogre@@SAXPAXI@Z:PROC	; Ogre::MemoryDelegation::operator delete[]
EXTRN	??_M@YGXPAXIHP6EX0@Z@Z:PROC			; `eh vector destructor iterator'
; Function compile flags: /Odtp
;	COMDAT ??_EBaseObject@Ogre@@MAEPAXI@Z
_TEXT	SEGMENT
_this$ = -4						; size = 4
___flags$ = 8						; size = 4
??_EBaseObject@Ogre@@MAEPAXI@Z PROC			; Ogre::BaseObject::`vector deleting destructor', COMDAT
; _this$ = ecx
	push	ebp
	mov	ebp, esp
	push	ecx
	mov	DWORD PTR _this$[ebp], ecx
	mov	eax, DWORD PTR ___flags$[ebp]
	and	eax, 2
	je	SHORT $LN3@vector
	push	OFFSET ??1BaseObject@Ogre@@MAE@XZ	; Ogre::BaseObject::~BaseObject
	mov	ecx, DWORD PTR _this$[ebp]
	mov	edx, DWORD PTR [ecx-4]
	push	edx
	push	8
	mov	eax, DWORD PTR _this$[ebp]
	push	eax
	call	??_M@YGXPAXIHP6EX0@Z@Z
	mov	ecx, DWORD PTR ___flags$[ebp]
	and	ecx, 1
	je	SHORT $LN2@vector
	push	8
	mov	edx, DWORD PTR _this$[ebp]
	sub	edx, 4
	push	edx
	call	??_VMemoryDelegation@Ogre@@SAXPAXI@Z	; Ogre::MemoryDelegation::operator delete[]
	add	esp, 8
$LN2@vector:
	mov	eax, DWORD PTR _this$[ebp]
	sub	eax, 4
	jmp	SHORT $LN4@vector
$LN3@vector:
	mov	ecx, DWORD PTR _this$[ebp]
	call	??1BaseObject@Ogre@@MAE@XZ		; Ogre::BaseObject::~BaseObject
	mov	eax, DWORD PTR ___flags$[ebp]
	and	eax, 1
	je	SHORT $LN1@vector
	push	8
	mov	ecx, DWORD PTR _this$[ebp]
	push	ecx
	call	??3MemoryDelegation@Ogre@@SAXPAXI@Z	; Ogre::MemoryDelegation::operator delete
	add	esp, 8
$LN1@vector:
	mov	eax, DWORD PTR _this$[ebp]
$LN4@vector:
	mov	esp, ebp
	pop	ebp
	ret	4
??_EBaseObject@Ogre@@MAEPAXI@Z ENDP			; Ogre::BaseObject::`vector deleting destructor'
_TEXT	ENDS
PUBLIC	?getRTTI@RenderTarget@Ogre@@UBEPBVRuntimeClass@2@XZ ; Ogre::RenderTarget::getRTTI
EXTRN	?m_RTTI@RenderTarget@Ogre@@2VRuntimeClass@2@B:BYTE ; Ogre::RenderTarget::m_RTTI
; Function compile flags: /Odtp
; File i:\svnroot\client\ogremain\ogrerendertarget.h
;	COMDAT ?getRTTI@RenderTarget@Ogre@@UBEPBVRuntimeClass@2@XZ
_TEXT	SEGMENT
_this$ = -4						; size = 4
?getRTTI@RenderTarget@Ogre@@UBEPBVRuntimeClass@2@XZ PROC ; Ogre::RenderTarget::getRTTI, COMDAT
; _this$ = ecx

; 12   : 		DECLARE_RTTI_VIRTUAL(RenderTarget);

	push	ebp
	mov	ebp, esp
	push	ecx
	mov	DWORD PTR _this$[ebp], ecx
	mov	eax, OFFSET ?m_RTTI@RenderTarget@Ogre@@2VRuntimeClass@2@B ; Ogre::RenderTarget::m_RTTI
	mov	esp, ebp
	pop	ebp
	ret	0
?getRTTI@RenderTarget@Ogre@@UBEPBVRuntimeClass@2@XZ ENDP ; Ogre::RenderTarget::getRTTI
_TEXT	ENDS
PUBLIC	??_7RenderTarget@Ogre@@6B@			; Ogre::RenderTarget::`vftable'
PUBLIC	??1RenderTarget@Ogre@@UAE@XZ			; Ogre::RenderTarget::~RenderTarget
PUBLIC	??_R4RenderTarget@Ogre@@6B@			; Ogre::RenderTarget::`RTTI Complete Object Locator'
PUBLIC	??_R0?AVRenderTarget@Ogre@@@8			; Ogre::RenderTarget `RTTI Type Descriptor'
PUBLIC	??_R3RenderTarget@Ogre@@8			; Ogre::RenderTarget::`RTTI Class Hierarchy Descriptor'
PUBLIC	??_R2RenderTarget@Ogre@@8			; Ogre::RenderTarget::`RTTI Base Class Array'
PUBLIC	??_R1A@?0A@EA@RenderTarget@Ogre@@8		; Ogre::RenderTarget::`RTTI Base Class Descriptor at (0,-1,0,64)'
PUBLIC	??_ERenderTarget@Ogre@@UAEPAXI@Z		; Ogre::RenderTarget::`vector deleting destructor'
PUBLIC	?setStretchRect@RenderTarget@Ogre@@UAEXHHHHHHHH@Z ; Ogre::RenderTarget::setStretchRect
EXTRN	?isSuccessCreateRenderTarget@RenderTarget@Ogre@@UAE_NXZ:PROC ; Ogre::RenderTarget::isSuccessCreateRenderTarget
EXTRN	?isSuccessCreateDSBuffer@RenderTarget@Ogre@@UAE_NXZ:PROC ; Ogre::RenderTarget::isSuccessCreateDSBuffer
;	COMDAT ??_R1A@?0A@EA@RenderTarget@Ogre@@8
rdata$r	SEGMENT
??_R1A@?0A@EA@RenderTarget@Ogre@@8 DD FLAT:??_R0?AVRenderTarget@Ogre@@@8 ; Ogre::RenderTarget::`RTTI Base Class Descriptor at (0,-1,0,64)'
	DD	02H
	DD	00H
	DD	0ffffffffH
	DD	00H
	DD	040H
	DD	FLAT:??_R3RenderTarget@Ogre@@8
rdata$r	ENDS
;	COMDAT ??_R2RenderTarget@Ogre@@8
rdata$r	SEGMENT
??_R2RenderTarget@Ogre@@8 DD FLAT:??_R1A@?0A@EA@RenderTarget@Ogre@@8 ; Ogre::RenderTarget::`RTTI Base Class Array'
	DD	FLAT:??_R1A@?0A@EA@BaseObject@Ogre@@8
	DD	FLAT:??_R13?0A@EA@MemoryDelegation@Ogre@@8
rdata$r	ENDS
;	COMDAT ??_R3RenderTarget@Ogre@@8
rdata$r	SEGMENT
??_R3RenderTarget@Ogre@@8 DD 00H			; Ogre::RenderTarget::`RTTI Class Hierarchy Descriptor'
	DD	00H
	DD	03H
	DD	FLAT:??_R2RenderTarget@Ogre@@8
rdata$r	ENDS
;	COMDAT ??_R0?AVRenderTarget@Ogre@@@8
_DATA	SEGMENT
??_R0?AVRenderTarget@Ogre@@@8 DD FLAT:??_7type_info@@6B@ ; Ogre::RenderTarget `RTTI Type Descriptor'
	DD	00H
	DB	'.?AVRenderTarget@Ogre@@', 00H
_DATA	ENDS
;	COMDAT ??_R4RenderTarget@Ogre@@6B@
rdata$r	SEGMENT
??_R4RenderTarget@Ogre@@6B@ DD 00H			; Ogre::RenderTarget::`RTTI Complete Object Locator'
	DD	00H
	DD	00H
	DD	FLAT:??_R0?AVRenderTarget@Ogre@@@8
	DD	FLAT:??_R3RenderTarget@Ogre@@8
rdata$r	ENDS
;	COMDAT ??_7RenderTarget@Ogre@@6B@
CONST	SEGMENT
??_7RenderTarget@Ogre@@6B@ DD FLAT:??_R4RenderTarget@Ogre@@6B@ ; Ogre::RenderTarget::`vftable'
	DD	FLAT:?getRTTI@RenderTarget@Ogre@@UBEPBVRuntimeClass@2@XZ
	DD	FLAT:?release@BaseObject@Ogre@@UAEXXZ
	DD	FLAT:?addRef@BaseObject@Ogre@@UAEXXZ
	DD	FLAT:?getRefCount@BaseObject@Ogre@@UAEHXZ
	DD	FLAT:?_serialize@BaseObject@Ogre@@UAEXAAVArchive@2@H@Z
	DD	FLAT:??_ERenderTarget@Ogre@@UAEPAXI@Z
	DD	FLAT:?deleteThis@BaseObject@Ogre@@MAEXXZ
	DD	FLAT:__purecall
	DD	FLAT:__purecall
	DD	FLAT:__purecall
	DD	FLAT:?isSuccessCreateRenderTarget@RenderTarget@Ogre@@UAE_NXZ
	DD	FLAT:?isSuccessCreateDSBuffer@RenderTarget@Ogre@@UAE_NXZ
	DD	FLAT:?setStretchRect@RenderTarget@Ogre@@UAEXHHHHHHHH@Z
CONST	ENDS
;	COMDAT xdata$x
xdata$x	SEGMENT
__unwindtable$??1RenderTarget@Ogre@@UAE@XZ DD 0ffffffffH
	DD	FLAT:__unwindfunclet$??1RenderTarget@Ogre@@UAE@XZ$0
__ehfuncinfo$??1RenderTarget@Ogre@@UAE@XZ DD 019930522H
	DD	01H
	DD	FLAT:__unwindtable$??1RenderTarget@Ogre@@UAE@XZ
	DD	2 DUP(00H)
	DD	2 DUP(00H)
	DD	00H
	DD	00H
; Function compile flags: /Odtp
xdata$x	ENDS
;	COMDAT ??1RenderTarget@Ogre@@UAE@XZ
_TEXT	SEGMENT
_this$ = -16						; size = 4
__$EHRec$ = -12						; size = 12
??1RenderTarget@Ogre@@UAE@XZ PROC			; Ogre::RenderTarget::~RenderTarget, COMDAT
; _this$ = ecx

; 15   : 		virtual ~RenderTarget() {}

	push	ebp
	mov	ebp, esp
	push	-1
	push	__ehhandler$??1RenderTarget@Ogre@@UAE@XZ
	mov	eax, DWORD PTR fs:0
	push	eax
	push	ecx
	mov	eax, DWORD PTR ___security_cookie
	xor	eax, ebp
	push	eax
	lea	eax, DWORD PTR __$EHRec$[ebp]
	mov	DWORD PTR fs:0, eax
	mov	DWORD PTR _this$[ebp], ecx
	mov	eax, DWORD PTR _this$[ebp]
	mov	DWORD PTR [eax], OFFSET ??_7RenderTarget@Ogre@@6B@
	mov	DWORD PTR __$EHRec$[ebp+8], 0
	mov	DWORD PTR __$EHRec$[ebp+8], -1
	mov	ecx, DWORD PTR _this$[ebp]
	call	??1BaseObject@Ogre@@MAE@XZ		; Ogre::BaseObject::~BaseObject
	mov	ecx, DWORD PTR __$EHRec$[ebp]
	mov	DWORD PTR fs:0, ecx
	pop	ecx
	mov	esp, ebp
	pop	ebp
	ret	0
_TEXT	ENDS
;	COMDAT text$x
text$x	SEGMENT
__unwindfunclet$??1RenderTarget@Ogre@@UAE@XZ$0:
	mov	ecx, DWORD PTR _this$[ebp]
	jmp	??1BaseObject@Ogre@@MAE@XZ		; Ogre::BaseObject::~BaseObject
__ehhandler$??1RenderTarget@Ogre@@UAE@XZ:
	mov	edx, DWORD PTR [esp+8]
	lea	eax, DWORD PTR [edx+12]
	mov	ecx, DWORD PTR [edx-8]
	xor	ecx, eax
	call	@__security_check_cookie@4
	mov	eax, OFFSET __ehfuncinfo$??1RenderTarget@Ogre@@UAE@XZ
	jmp	___CxxFrameHandler3
text$x	ENDS
??1RenderTarget@Ogre@@UAE@XZ ENDP			; Ogre::RenderTarget::~RenderTarget
; Function compile flags: /Odtp
;	COMDAT ?setStretchRect@RenderTarget@Ogre@@UAEXHHHHHHHH@Z
_TEXT	SEGMENT
_this$ = -4						; size = 4
_left$ = 8						; size = 4
_top$ = 12						; size = 4
_right$ = 16						; size = 4
_bottom$ = 20						; size = 4
_dLeft$ = 24						; size = 4
_dTop$ = 28						; size = 4
_dRight$ = 32						; size = 4
_dBottom$ = 36						; size = 4
?setStretchRect@RenderTarget@Ogre@@UAEXHHHHHHHH@Z PROC	; Ogre::RenderTarget::setStretchRect, COMDAT
; _this$ = ecx

; 22   : 		virtual void setStretchRect( int left, int top, int right, int bottom, int dLeft, int dTop, int dRight, int dBottom ){};

	push	ebp
	mov	ebp, esp
	push	ecx
	mov	DWORD PTR _this$[ebp], ecx
	mov	esp, ebp
	pop	ebp
	ret	32					; 00000020H
?setStretchRect@RenderTarget@Ogre@@UAEXHHHHHHHH@Z ENDP	; Ogre::RenderTarget::setStretchRect
_TEXT	ENDS
PUBLIC	??0RenderTarget@Ogre@@QAE@XZ			; Ogre::RenderTarget::RenderTarget
;	COMDAT xdata$x
xdata$x	SEGMENT
__unwindtable$??0RenderTarget@Ogre@@QAE@XZ DD 0ffffffffH
	DD	FLAT:__unwindfunclet$??0RenderTarget@Ogre@@QAE@XZ$0
__ehfuncinfo$??0RenderTarget@Ogre@@QAE@XZ DD 019930522H
	DD	01H
	DD	FLAT:__unwindtable$??0RenderTarget@Ogre@@QAE@XZ
	DD	2 DUP(00H)
	DD	2 DUP(00H)
	DD	00H
	DD	00H
; Function compile flags: /Odtp
xdata$x	ENDS
;	COMDAT ??0RenderTarget@Ogre@@QAE@XZ
_TEXT	SEGMENT
_this$ = -16						; size = 4
__$EHRec$ = -12						; size = 12
??0RenderTarget@Ogre@@QAE@XZ PROC			; Ogre::RenderTarget::RenderTarget, COMDAT
; _this$ = ecx
	push	ebp
	mov	ebp, esp
	push	-1
	push	__ehhandler$??0RenderTarget@Ogre@@QAE@XZ
	mov	eax, DWORD PTR fs:0
	push	eax
	push	ecx
	mov	eax, DWORD PTR ___security_cookie
	xor	eax, ebp
	push	eax
	lea	eax, DWORD PTR __$EHRec$[ebp]
	mov	DWORD PTR fs:0, eax
	mov	DWORD PTR _this$[ebp], ecx
	mov	ecx, DWORD PTR _this$[ebp]
	call	??0BaseObject@Ogre@@IAE@XZ		; Ogre::BaseObject::BaseObject
	mov	DWORD PTR __$EHRec$[ebp+8], 0
	mov	eax, DWORD PTR _this$[ebp]
	mov	DWORD PTR [eax], OFFSET ??_7RenderTarget@Ogre@@6B@
	mov	DWORD PTR __$EHRec$[ebp+8], -1
	mov	eax, DWORD PTR _this$[ebp]
	mov	ecx, DWORD PTR __$EHRec$[ebp]
	mov	DWORD PTR fs:0, ecx
	pop	ecx
	mov	esp, ebp
	pop	ebp
	ret	0
_TEXT	ENDS
;	COMDAT text$x
text$x	SEGMENT
__unwindfunclet$??0RenderTarget@Ogre@@QAE@XZ$0:
	mov	ecx, DWORD PTR _this$[ebp]
	jmp	??1BaseObject@Ogre@@MAE@XZ		; Ogre::BaseObject::~BaseObject
__ehhandler$??0RenderTarget@Ogre@@QAE@XZ:
	mov	edx, DWORD PTR [esp+8]
	lea	eax, DWORD PTR [edx+12]
	mov	ecx, DWORD PTR [edx-8]
	xor	ecx, eax
	call	@__security_check_cookie@4
	mov	eax, OFFSET __ehfuncinfo$??0RenderTarget@Ogre@@QAE@XZ
	jmp	___CxxFrameHandler3
text$x	ENDS
??0RenderTarget@Ogre@@QAE@XZ ENDP			; Ogre::RenderTarget::RenderTarget
PUBLIC	??0RenderTarget@Ogre@@QAE@ABV01@@Z		; Ogre::RenderTarget::RenderTarget
;	COMDAT xdata$x
xdata$x	SEGMENT
__unwindtable$??0RenderTarget@Ogre@@QAE@ABV01@@Z DD 0ffffffffH
	DD	FLAT:__unwindfunclet$??0RenderTarget@Ogre@@QAE@ABV01@@Z$0
__ehfuncinfo$??0RenderTarget@Ogre@@QAE@ABV01@@Z DD 019930522H
	DD	01H
	DD	FLAT:__unwindtable$??0RenderTarget@Ogre@@QAE@ABV01@@Z
	DD	2 DUP(00H)
	DD	2 DUP(00H)
	DD	00H
	DD	00H
; Function compile flags: /Odtp
xdata$x	ENDS
;	COMDAT ??0RenderTarget@Ogre@@QAE@ABV01@@Z
_TEXT	SEGMENT
_this$ = -16						; size = 4
__$EHRec$ = -12						; size = 12
___that$ = 8						; size = 4
??0RenderTarget@Ogre@@QAE@ABV01@@Z PROC			; Ogre::RenderTarget::RenderTarget, COMDAT
; _this$ = ecx
	push	ebp
	mov	ebp, esp
	push	-1
	push	__ehhandler$??0RenderTarget@Ogre@@QAE@ABV01@@Z
	mov	eax, DWORD PTR fs:0
	push	eax
	push	ecx
	mov	eax, DWORD PTR ___security_cookie
	xor	eax, ebp
	push	eax
	lea	eax, DWORD PTR __$EHRec$[ebp]
	mov	DWORD PTR fs:0, eax
	mov	DWORD PTR _this$[ebp], ecx
	mov	eax, DWORD PTR ___that$[ebp]
	push	eax
	mov	ecx, DWORD PTR _this$[ebp]
	call	??0BaseObject@Ogre@@QAE@ABV01@@Z
	mov	DWORD PTR __$EHRec$[ebp+8], 0
	mov	ecx, DWORD PTR _this$[ebp]
	mov	DWORD PTR [ecx], OFFSET ??_7RenderTarget@Ogre@@6B@
	mov	DWORD PTR __$EHRec$[ebp+8], -1
	mov	eax, DWORD PTR _this$[ebp]
	mov	ecx, DWORD PTR __$EHRec$[ebp]
	mov	DWORD PTR fs:0, ecx
	pop	ecx
	mov	esp, ebp
	pop	ebp
	ret	4
_TEXT	ENDS
;	COMDAT text$x
text$x	SEGMENT
__unwindfunclet$??0RenderTarget@Ogre@@QAE@ABV01@@Z$0:
	mov	ecx, DWORD PTR _this$[ebp]
	jmp	??1BaseObject@Ogre@@MAE@XZ		; Ogre::BaseObject::~BaseObject
__ehhandler$??0RenderTarget@Ogre@@QAE@ABV01@@Z:
	mov	edx, DWORD PTR [esp+8]
	lea	eax, DWORD PTR [edx+12]
	mov	ecx, DWORD PTR [edx-8]
	xor	ecx, eax
	call	@__security_check_cookie@4
	mov	eax, OFFSET __ehfuncinfo$??0RenderTarget@Ogre@@QAE@ABV01@@Z
	jmp	___CxxFrameHandler3
text$x	ENDS
??0RenderTarget@Ogre@@QAE@ABV01@@Z ENDP			; Ogre::RenderTarget::RenderTarget
PUBLIC	??4RenderTarget@Ogre@@QAEAAV01@ABV01@@Z		; Ogre::RenderTarget::operator=
; Function compile flags: /Odtp
;	COMDAT ??4RenderTarget@Ogre@@QAEAAV01@ABV01@@Z
_TEXT	SEGMENT
_this$ = -4						; size = 4
___that$ = 8						; size = 4
??4RenderTarget@Ogre@@QAEAAV01@ABV01@@Z PROC		; Ogre::RenderTarget::operator=, COMDAT
; _this$ = ecx
	push	ebp
	mov	ebp, esp
	push	ecx
	mov	DWORD PTR _this$[ebp], ecx
	mov	eax, DWORD PTR ___that$[ebp]
	push	eax
	mov	ecx, DWORD PTR _this$[ebp]
	call	??4BaseObject@Ogre@@QAEAAV01@ABV01@@Z
	mov	eax, DWORD PTR _this$[ebp]
	mov	esp, ebp
	pop	ebp
	ret	4
??4RenderTarget@Ogre@@QAEAAV01@ABV01@@Z ENDP		; Ogre::RenderTarget::operator=
_TEXT	ENDS
PUBLIC	??_GRenderTarget@Ogre@@UAEPAXI@Z		; Ogre::RenderTarget::`scalar deleting destructor'
; Function compile flags: /Odtp
;	COMDAT ??_GRenderTarget@Ogre@@UAEPAXI@Z
_TEXT	SEGMENT
_this$ = -4						; size = 4
___flags$ = 8						; size = 4
??_GRenderTarget@Ogre@@UAEPAXI@Z PROC			; Ogre::RenderTarget::`scalar deleting destructor', COMDAT
; _this$ = ecx
	push	ebp
	mov	ebp, esp
	push	ecx
	mov	DWORD PTR _this$[ebp], ecx
	mov	ecx, DWORD PTR _this$[ebp]
	call	??1RenderTarget@Ogre@@UAE@XZ		; Ogre::RenderTarget::~RenderTarget
	mov	eax, DWORD PTR ___flags$[ebp]
	and	eax, 1
	je	SHORT $LN1@scalar@2
	push	8
	mov	ecx, DWORD PTR _this$[ebp]
	push	ecx
	call	??3MemoryDelegation@Ogre@@SAXPAXI@Z	; Ogre::MemoryDelegation::operator delete
	add	esp, 8
$LN1@scalar@2:
	mov	eax, DWORD PTR _this$[ebp]
	mov	esp, ebp
	pop	ebp
	ret	4
??_GRenderTarget@Ogre@@UAEPAXI@Z ENDP			; Ogre::RenderTarget::`scalar deleting destructor'
; Function compile flags: /Odtp
_TEXT	ENDS
;	COMDAT ??_ERenderTarget@Ogre@@UAEPAXI@Z
_TEXT	SEGMENT
_this$ = -4						; size = 4
___flags$ = 8						; size = 4
??_ERenderTarget@Ogre@@UAEPAXI@Z PROC			; Ogre::RenderTarget::`vector deleting destructor', COMDAT
; _this$ = ecx
	push	ebp
	mov	ebp, esp
	push	ecx
	mov	DWORD PTR _this$[ebp], ecx
	mov	eax, DWORD PTR ___flags$[ebp]
	and	eax, 2
	je	SHORT $LN3@vector@2
	push	OFFSET ??1RenderTarget@Ogre@@UAE@XZ	; Ogre::RenderTarget::~RenderTarget
	mov	ecx, DWORD PTR _this$[ebp]
	mov	edx, DWORD PTR [ecx-4]
	push	edx
	push	8
	mov	eax, DWORD PTR _this$[ebp]
	push	eax
	call	??_M@YGXPAXIHP6EX0@Z@Z
	mov	ecx, DWORD PTR ___flags$[ebp]
	and	ecx, 1
	je	SHORT $LN2@vector@2
	push	8
	mov	edx, DWORD PTR _this$[ebp]
	sub	edx, 4
	push	edx
	call	??_VMemoryDelegation@Ogre@@SAXPAXI@Z	; Ogre::MemoryDelegation::operator delete[]
	add	esp, 8
$LN2@vector@2:
	mov	eax, DWORD PTR _this$[ebp]
	sub	eax, 4
	jmp	SHORT $LN4@vector@2
$LN3@vector@2:
	mov	ecx, DWORD PTR _this$[ebp]
	call	??1RenderTarget@Ogre@@UAE@XZ		; Ogre::RenderTarget::~RenderTarget
	mov	eax, DWORD PTR ___flags$[ebp]
	and	eax, 1
	je	SHORT $LN1@vector@2
	push	8
	mov	ecx, DWORD PTR _this$[ebp]
	push	ecx
	call	??3MemoryDelegation@Ogre@@SAXPAXI@Z	; Ogre::MemoryDelegation::operator delete
	add	esp, 8
$LN1@vector@2:
	mov	eax, DWORD PTR _this$[ebp]
$LN4@vector@2:
	mov	esp, ebp
	pop	ebp
	ret	4
??_ERenderTarget@Ogre@@UAEPAXI@Z ENDP			; Ogre::RenderTarget::`vector deleting destructor'
_TEXT	ENDS
PUBLIC	?getRTTI@TextureRenderTarget@Ogre@@UBEPBVRuntimeClass@2@XZ ; Ogre::TextureRenderTarget::getRTTI
EXTRN	?m_RTTI@TextureRenderTarget@Ogre@@2VRuntimeClass@2@B:BYTE ; Ogre::TextureRenderTarget::m_RTTI
; Function compile flags: /Odtp
;	COMDAT ?getRTTI@TextureRenderTarget@Ogre@@UBEPBVRuntimeClass@2@XZ
_TEXT	SEGMENT
_this$ = -4						; size = 4
?getRTTI@TextureRenderTarget@Ogre@@UBEPBVRuntimeClass@2@XZ PROC ; Ogre::TextureRenderTarget::getRTTI, COMDAT
; _this$ = ecx

; 27   : 		DECLARE_RTTI_VIRTUAL(TextureRenderTarget)

	push	ebp
	mov	ebp, esp
	push	ecx
	mov	DWORD PTR _this$[ebp], ecx
	mov	eax, OFFSET ?m_RTTI@TextureRenderTarget@Ogre@@2VRuntimeClass@2@B ; Ogre::TextureRenderTarget::m_RTTI
	mov	esp, ebp
	pop	ebp
	ret	0
?getRTTI@TextureRenderTarget@Ogre@@UBEPBVRuntimeClass@2@XZ ENDP ; Ogre::TextureRenderTarget::getRTTI
_TEXT	ENDS
PUBLIC	??_7TextureRenderTarget@Ogre@@6B@		; Ogre::TextureRenderTarget::`vftable'
PUBLIC	??1TextureRenderTarget@Ogre@@UAE@XZ		; Ogre::TextureRenderTarget::~TextureRenderTarget
PUBLIC	??_R4TextureRenderTarget@Ogre@@6B@		; Ogre::TextureRenderTarget::`RTTI Complete Object Locator'
PUBLIC	??_R0?AVTextureRenderTarget@Ogre@@@8		; Ogre::TextureRenderTarget `RTTI Type Descriptor'
PUBLIC	??_R3TextureRenderTarget@Ogre@@8		; Ogre::TextureRenderTarget::`RTTI Class Hierarchy Descriptor'
PUBLIC	??_R2TextureRenderTarget@Ogre@@8		; Ogre::TextureRenderTarget::`RTTI Base Class Array'
PUBLIC	??_R1A@?0A@EA@TextureRenderTarget@Ogre@@8	; Ogre::TextureRenderTarget::`RTTI Base Class Descriptor at (0,-1,0,64)'
PUBLIC	??_ETextureRenderTarget@Ogre@@UAEPAXI@Z		; Ogre::TextureRenderTarget::`vector deleting destructor'
;	COMDAT ??_R1A@?0A@EA@TextureRenderTarget@Ogre@@8
rdata$r	SEGMENT
??_R1A@?0A@EA@TextureRenderTarget@Ogre@@8 DD FLAT:??_R0?AVTextureRenderTarget@Ogre@@@8 ; Ogre::TextureRenderTarget::`RTTI Base Class Descriptor at (0,-1,0,64)'
	DD	03H
	DD	00H
	DD	0ffffffffH
	DD	00H
	DD	040H
	DD	FLAT:??_R3TextureRenderTarget@Ogre@@8
rdata$r	ENDS
;	COMDAT ??_R2TextureRenderTarget@Ogre@@8
rdata$r	SEGMENT
??_R2TextureRenderTarget@Ogre@@8 DD FLAT:??_R1A@?0A@EA@TextureRenderTarget@Ogre@@8 ; Ogre::TextureRenderTarget::`RTTI Base Class Array'
	DD	FLAT:??_R1A@?0A@EA@RenderTarget@Ogre@@8
	DD	FLAT:??_R1A@?0A@EA@BaseObject@Ogre@@8
	DD	FLAT:??_R13?0A@EA@MemoryDelegation@Ogre@@8
rdata$r	ENDS
;	COMDAT ??_R3TextureRenderTarget@Ogre@@8
rdata$r	SEGMENT
??_R3TextureRenderTarget@Ogre@@8 DD 00H			; Ogre::TextureRenderTarget::`RTTI Class Hierarchy Descriptor'
	DD	00H
	DD	04H
	DD	FLAT:??_R2TextureRenderTarget@Ogre@@8
rdata$r	ENDS
;	COMDAT ??_R0?AVTextureRenderTarget@Ogre@@@8
_DATA	SEGMENT
??_R0?AVTextureRenderTarget@Ogre@@@8 DD FLAT:??_7type_info@@6B@ ; Ogre::TextureRenderTarget `RTTI Type Descriptor'
	DD	00H
	DB	'.?AVTextureRenderTarget@Ogre@@', 00H
_DATA	ENDS
;	COMDAT ??_R4TextureRenderTarget@Ogre@@6B@
rdata$r	SEGMENT
??_R4TextureRenderTarget@Ogre@@6B@ DD 00H		; Ogre::TextureRenderTarget::`RTTI Complete Object Locator'
	DD	00H
	DD	00H
	DD	FLAT:??_R0?AVTextureRenderTarget@Ogre@@@8
	DD	FLAT:??_R3TextureRenderTarget@Ogre@@8
rdata$r	ENDS
;	COMDAT ??_7TextureRenderTarget@Ogre@@6B@
CONST	SEGMENT
??_7TextureRenderTarget@Ogre@@6B@ DD FLAT:??_R4TextureRenderTarget@Ogre@@6B@ ; Ogre::TextureRenderTarget::`vftable'
	DD	FLAT:?getRTTI@TextureRenderTarget@Ogre@@UBEPBVRuntimeClass@2@XZ
	DD	FLAT:?release@BaseObject@Ogre@@UAEXXZ
	DD	FLAT:?addRef@BaseObject@Ogre@@UAEXXZ
	DD	FLAT:?getRefCount@BaseObject@Ogre@@UAEHXZ
	DD	FLAT:?_serialize@BaseObject@Ogre@@UAEXAAVArchive@2@H@Z
	DD	FLAT:??_ETextureRenderTarget@Ogre@@UAEPAXI@Z
	DD	FLAT:?deleteThis@BaseObject@Ogre@@MAEXXZ
	DD	FLAT:__purecall
	DD	FLAT:__purecall
	DD	FLAT:__purecall
	DD	FLAT:?isSuccessCreateRenderTarget@RenderTarget@Ogre@@UAE_NXZ
	DD	FLAT:?isSuccessCreateDSBuffer@RenderTarget@Ogre@@UAE_NXZ
	DD	FLAT:?setStretchRect@RenderTarget@Ogre@@UAEXHHHHHHHH@Z
	DD	FLAT:__purecall
CONST	ENDS
;	COMDAT xdata$x
xdata$x	SEGMENT
__unwindtable$??1TextureRenderTarget@Ogre@@UAE@XZ DD 0ffffffffH
	DD	FLAT:__unwindfunclet$??1TextureRenderTarget@Ogre@@UAE@XZ$0
__ehfuncinfo$??1TextureRenderTarget@Ogre@@UAE@XZ DD 019930522H
	DD	01H
	DD	FLAT:__unwindtable$??1TextureRenderTarget@Ogre@@UAE@XZ
	DD	2 DUP(00H)
	DD	2 DUP(00H)
	DD	00H
	DD	00H
; Function compile flags: /Odtp
xdata$x	ENDS
;	COMDAT ??1TextureRenderTarget@Ogre@@UAE@XZ
_TEXT	SEGMENT
_this$ = -16						; size = 4
__$EHRec$ = -12						; size = 12
??1TextureRenderTarget@Ogre@@UAE@XZ PROC		; Ogre::TextureRenderTarget::~TextureRenderTarget, COMDAT
; _this$ = ecx

; 29   : 		virtual ~TextureRenderTarget() {}

	push	ebp
	mov	ebp, esp
	push	-1
	push	__ehhandler$??1TextureRenderTarget@Ogre@@UAE@XZ
	mov	eax, DWORD PTR fs:0
	push	eax
	push	ecx
	mov	eax, DWORD PTR ___security_cookie
	xor	eax, ebp
	push	eax
	lea	eax, DWORD PTR __$EHRec$[ebp]
	mov	DWORD PTR fs:0, eax
	mov	DWORD PTR _this$[ebp], ecx
	mov	eax, DWORD PTR _this$[ebp]
	mov	DWORD PTR [eax], OFFSET ??_7TextureRenderTarget@Ogre@@6B@
	mov	DWORD PTR __$EHRec$[ebp+8], 0
	mov	DWORD PTR __$EHRec$[ebp+8], -1
	mov	ecx, DWORD PTR _this$[ebp]
	call	??1RenderTarget@Ogre@@UAE@XZ		; Ogre::RenderTarget::~RenderTarget
	mov	ecx, DWORD PTR __$EHRec$[ebp]
	mov	DWORD PTR fs:0, ecx
	pop	ecx
	mov	esp, ebp
	pop	ebp
	ret	0
_TEXT	ENDS
;	COMDAT text$x
text$x	SEGMENT
__unwindfunclet$??1TextureRenderTarget@Ogre@@UAE@XZ$0:
	mov	ecx, DWORD PTR _this$[ebp]
	jmp	??1RenderTarget@Ogre@@UAE@XZ		; Ogre::RenderTarget::~RenderTarget
__ehhandler$??1TextureRenderTarget@Ogre@@UAE@XZ:
	mov	edx, DWORD PTR [esp+8]
	lea	eax, DWORD PTR [edx+12]
	mov	ecx, DWORD PTR [edx-8]
	xor	ecx, eax
	call	@__security_check_cookie@4
	mov	eax, OFFSET __ehfuncinfo$??1TextureRenderTarget@Ogre@@UAE@XZ
	jmp	___CxxFrameHandler3
text$x	ENDS
??1TextureRenderTarget@Ogre@@UAE@XZ ENDP		; Ogre::TextureRenderTarget::~TextureRenderTarget
PUBLIC	??0TextureRenderTarget@Ogre@@QAE@XZ		; Ogre::TextureRenderTarget::TextureRenderTarget
;	COMDAT xdata$x
xdata$x	SEGMENT
__unwindtable$??0TextureRenderTarget@Ogre@@QAE@XZ DD 0ffffffffH
	DD	FLAT:__unwindfunclet$??0TextureRenderTarget@Ogre@@QAE@XZ$0
__ehfuncinfo$??0TextureRenderTarget@Ogre@@QAE@XZ DD 019930522H
	DD	01H
	DD	FLAT:__unwindtable$??0TextureRenderTarget@Ogre@@QAE@XZ
	DD	2 DUP(00H)
	DD	2 DUP(00H)
	DD	00H
	DD	00H
; Function compile flags: /Odtp
xdata$x	ENDS
;	COMDAT ??0TextureRenderTarget@Ogre@@QAE@XZ
_TEXT	SEGMENT
_this$ = -16						; size = 4
__$EHRec$ = -12						; size = 12
??0TextureRenderTarget@Ogre@@QAE@XZ PROC		; Ogre::TextureRenderTarget::TextureRenderTarget, COMDAT
; _this$ = ecx
	push	ebp
	mov	ebp, esp
	push	-1
	push	__ehhandler$??0TextureRenderTarget@Ogre@@QAE@XZ
	mov	eax, DWORD PTR fs:0
	push	eax
	push	ecx
	mov	eax, DWORD PTR ___security_cookie
	xor	eax, ebp
	push	eax
	lea	eax, DWORD PTR __$EHRec$[ebp]
	mov	DWORD PTR fs:0, eax
	mov	DWORD PTR _this$[ebp], ecx
	mov	ecx, DWORD PTR _this$[ebp]
	call	??0RenderTarget@Ogre@@QAE@XZ
	mov	DWORD PTR __$EHRec$[ebp+8], 0
	mov	eax, DWORD PTR _this$[ebp]
	mov	DWORD PTR [eax], OFFSET ??_7TextureRenderTarget@Ogre@@6B@
	mov	DWORD PTR __$EHRec$[ebp+8], -1
	mov	eax, DWORD PTR _this$[ebp]
	mov	ecx, DWORD PTR __$EHRec$[ebp]
	mov	DWORD PTR fs:0, ecx
	pop	ecx
	mov	esp, ebp
	pop	ebp
	ret	0
_TEXT	ENDS
;	COMDAT text$x
text$x	SEGMENT
__unwindfunclet$??0TextureRenderTarget@Ogre@@QAE@XZ$0:
	mov	ecx, DWORD PTR _this$[ebp]
	jmp	??1RenderTarget@Ogre@@UAE@XZ		; Ogre::RenderTarget::~RenderTarget
__ehhandler$??0TextureRenderTarget@Ogre@@QAE@XZ:
	mov	edx, DWORD PTR [esp+8]
	lea	eax, DWORD PTR [edx+12]
	mov	ecx, DWORD PTR [edx-8]
	xor	ecx, eax
	call	@__security_check_cookie@4
	mov	eax, OFFSET __ehfuncinfo$??0TextureRenderTarget@Ogre@@QAE@XZ
	jmp	___CxxFrameHandler3
text$x	ENDS
??0TextureRenderTarget@Ogre@@QAE@XZ ENDP		; Ogre::TextureRenderTarget::TextureRenderTarget
PUBLIC	??0TextureRenderTarget@Ogre@@QAE@ABV01@@Z	; Ogre::TextureRenderTarget::TextureRenderTarget
;	COMDAT xdata$x
xdata$x	SEGMENT
__unwindtable$??0TextureRenderTarget@Ogre@@QAE@ABV01@@Z DD 0ffffffffH
	DD	FLAT:__unwindfunclet$??0TextureRenderTarget@Ogre@@QAE@ABV01@@Z$0
__ehfuncinfo$??0TextureRenderTarget@Ogre@@QAE@ABV01@@Z DD 019930522H
	DD	01H
	DD	FLAT:__unwindtable$??0TextureRenderTarget@Ogre@@QAE@ABV01@@Z
	DD	2 DUP(00H)
	DD	2 DUP(00H)
	DD	00H
	DD	00H
; Function compile flags: /Odtp
xdata$x	ENDS
;	COMDAT ??0TextureRenderTarget@Ogre@@QAE@ABV01@@Z
_TEXT	SEGMENT
_this$ = -16						; size = 4
__$EHRec$ = -12						; size = 12
___that$ = 8						; size = 4
??0TextureRenderTarget@Ogre@@QAE@ABV01@@Z PROC		; Ogre::TextureRenderTarget::TextureRenderTarget, COMDAT
; _this$ = ecx
	push	ebp
	mov	ebp, esp
	push	-1
	push	__ehhandler$??0TextureRenderTarget@Ogre@@QAE@ABV01@@Z
	mov	eax, DWORD PTR fs:0
	push	eax
	push	ecx
	mov	eax, DWORD PTR ___security_cookie
	xor	eax, ebp
	push	eax
	lea	eax, DWORD PTR __$EHRec$[ebp]
	mov	DWORD PTR fs:0, eax
	mov	DWORD PTR _this$[ebp], ecx
	mov	eax, DWORD PTR ___that$[ebp]
	push	eax
	mov	ecx, DWORD PTR _this$[ebp]
	call	??0RenderTarget@Ogre@@QAE@ABV01@@Z
	mov	DWORD PTR __$EHRec$[ebp+8], 0
	mov	ecx, DWORD PTR _this$[ebp]
	mov	DWORD PTR [ecx], OFFSET ??_7TextureRenderTarget@Ogre@@6B@
	mov	DWORD PTR __$EHRec$[ebp+8], -1
	mov	eax, DWORD PTR _this$[ebp]
	mov	ecx, DWORD PTR __$EHRec$[ebp]
	mov	DWORD PTR fs:0, ecx
	pop	ecx
	mov	esp, ebp
	pop	ebp
	ret	4
_TEXT	ENDS
;	COMDAT text$x
text$x	SEGMENT
__unwindfunclet$??0TextureRenderTarget@Ogre@@QAE@ABV01@@Z$0:
	mov	ecx, DWORD PTR _this$[ebp]
	jmp	??1RenderTarget@Ogre@@UAE@XZ		; Ogre::RenderTarget::~RenderTarget
__ehhandler$??0TextureRenderTarget@Ogre@@QAE@ABV01@@Z:
	mov	edx, DWORD PTR [esp+8]
	lea	eax, DWORD PTR [edx+12]
	mov	ecx, DWORD PTR [edx-8]
	xor	ecx, eax
	call	@__security_check_cookie@4
	mov	eax, OFFSET __ehfuncinfo$??0TextureRenderTarget@Ogre@@QAE@ABV01@@Z
	jmp	___CxxFrameHandler3
text$x	ENDS
??0TextureRenderTarget@Ogre@@QAE@ABV01@@Z ENDP		; Ogre::TextureRenderTarget::TextureRenderTarget
PUBLIC	??4TextureRenderTarget@Ogre@@QAEAAV01@ABV01@@Z	; Ogre::TextureRenderTarget::operator=
; Function compile flags: /Odtp
;	COMDAT ??4TextureRenderTarget@Ogre@@QAEAAV01@ABV01@@Z
_TEXT	SEGMENT
_this$ = -4						; size = 4
___that$ = 8						; size = 4
??4TextureRenderTarget@Ogre@@QAEAAV01@ABV01@@Z PROC	; Ogre::TextureRenderTarget::operator=, COMDAT
; _this$ = ecx
	push	ebp
	mov	ebp, esp
	push	ecx
	mov	DWORD PTR _this$[ebp], ecx
	mov	eax, DWORD PTR ___that$[ebp]
	push	eax
	mov	ecx, DWORD PTR _this$[ebp]
	call	??4RenderTarget@Ogre@@QAEAAV01@ABV01@@Z
	mov	eax, DWORD PTR _this$[ebp]
	mov	esp, ebp
	pop	ebp
	ret	4
??4TextureRenderTarget@Ogre@@QAEAAV01@ABV01@@Z ENDP	; Ogre::TextureRenderTarget::operator=
_TEXT	ENDS
PUBLIC	??_GTextureRenderTarget@Ogre@@UAEPAXI@Z		; Ogre::TextureRenderTarget::`scalar deleting destructor'
; Function compile flags: /Odtp
;	COMDAT ??_GTextureRenderTarget@Ogre@@UAEPAXI@Z
_TEXT	SEGMENT
_this$ = -4						; size = 4
___flags$ = 8						; size = 4
??_GTextureRenderTarget@Ogre@@UAEPAXI@Z PROC		; Ogre::TextureRenderTarget::`scalar deleting destructor', COMDAT
; _this$ = ecx
	push	ebp
	mov	ebp, esp
	push	ecx
	mov	DWORD PTR _this$[ebp], ecx
	mov	ecx, DWORD PTR _this$[ebp]
	call	??1TextureRenderTarget@Ogre@@UAE@XZ	; Ogre::TextureRenderTarget::~TextureRenderTarget
	mov	eax, DWORD PTR ___flags$[ebp]
	and	eax, 1
	je	SHORT $LN1@scalar@3
	push	8
	mov	ecx, DWORD PTR _this$[ebp]
	push	ecx
	call	??3MemoryDelegation@Ogre@@SAXPAXI@Z	; Ogre::MemoryDelegation::operator delete
	add	esp, 8
$LN1@scalar@3:
	mov	eax, DWORD PTR _this$[ebp]
	mov	esp, ebp
	pop	ebp
	ret	4
??_GTextureRenderTarget@Ogre@@UAEPAXI@Z ENDP		; Ogre::TextureRenderTarget::`scalar deleting destructor'
; Function compile flags: /Odtp
_TEXT	ENDS
;	COMDAT ??_ETextureRenderTarget@Ogre@@UAEPAXI@Z
_TEXT	SEGMENT
_this$ = -4						; size = 4
___flags$ = 8						; size = 4
??_ETextureRenderTarget@Ogre@@UAEPAXI@Z PROC		; Ogre::TextureRenderTarget::`vector deleting destructor', COMDAT
; _this$ = ecx
	push	ebp
	mov	ebp, esp
	push	ecx
	mov	DWORD PTR _this$[ebp], ecx
	mov	eax, DWORD PTR ___flags$[ebp]
	and	eax, 2
	je	SHORT $LN3@vector@3
	push	OFFSET ??1TextureRenderTarget@Ogre@@UAE@XZ ; Ogre::TextureRenderTarget::~TextureRenderTarget
	mov	ecx, DWORD PTR _this$[ebp]
	mov	edx, DWORD PTR [ecx-4]
	push	edx
	push	8
	mov	eax, DWORD PTR _this$[ebp]
	push	eax
	call	??_M@YGXPAXIHP6EX0@Z@Z
	mov	ecx, DWORD PTR ___flags$[ebp]
	and	ecx, 1
	je	SHORT $LN2@vector@3
	push	8
	mov	edx, DWORD PTR _this$[ebp]
	sub	edx, 4
	push	edx
	call	??_VMemoryDelegation@Ogre@@SAXPAXI@Z	; Ogre::MemoryDelegation::operator delete[]
	add	esp, 8
$LN2@vector@3:
	mov	eax, DWORD PTR _this$[ebp]
	sub	eax, 4
	jmp	SHORT $LN4@vector@3
$LN3@vector@3:
	mov	ecx, DWORD PTR _this$[ebp]
	call	??1TextureRenderTarget@Ogre@@UAE@XZ	; Ogre::TextureRenderTarget::~TextureRenderTarget
	mov	eax, DWORD PTR ___flags$[ebp]
	and	eax, 1
	je	SHORT $LN1@vector@3
	push	8
	mov	ecx, DWORD PTR _this$[ebp]
	push	ecx
	call	??3MemoryDelegation@Ogre@@SAXPAXI@Z	; Ogre::MemoryDelegation::operator delete
	add	esp, 8
$LN1@vector@3:
	mov	eax, DWORD PTR _this$[ebp]
$LN4@vector@3:
	mov	esp, ebp
	pop	ebp
	ret	4
??_ETextureRenderTarget@Ogre@@UAEPAXI@Z ENDP		; Ogre::TextureRenderTarget::`vector deleting destructor'
_TEXT	ENDS
PUBLIC	?getRTTI@RenderWindow@Ogre@@UBEPBVRuntimeClass@2@XZ ; Ogre::RenderWindow::getRTTI
EXTRN	?m_RTTI@RenderWindow@Ogre@@2VRuntimeClass@2@B:BYTE ; Ogre::RenderWindow::m_RTTI
; Function compile flags: /Odtp
; File i:\svnroot\client\ogremain\ogrerenderwindow.h
;	COMDAT ?getRTTI@RenderWindow@Ogre@@UBEPBVRuntimeClass@2@XZ
_TEXT	SEGMENT
_this$ = -4						; size = 4
?getRTTI@RenderWindow@Ogre@@UBEPBVRuntimeClass@2@XZ PROC ; Ogre::RenderWindow::getRTTI, COMDAT
; _this$ = ecx

; 11   : 		DECLARE_RTTI_VIRTUAL(RenderWindow);

	push	ebp
	mov	ebp, esp
	push	ecx
	mov	DWORD PTR _this$[ebp], ecx
	mov	eax, OFFSET ?m_RTTI@RenderWindow@Ogre@@2VRuntimeClass@2@B ; Ogre::RenderWindow::m_RTTI
	mov	esp, ebp
	pop	ebp
	ret	0
?getRTTI@RenderWindow@Ogre@@UBEPBVRuntimeClass@2@XZ ENDP ; Ogre::RenderWindow::getRTTI
_TEXT	ENDS
PUBLIC	??_7RenderWindow@Ogre@@6B@			; Ogre::RenderWindow::`vftable'
PUBLIC	??0RenderWindow@Ogre@@QAE@XZ			; Ogre::RenderWindow::RenderWindow
PUBLIC	??_R4RenderWindow@Ogre@@6B@			; Ogre::RenderWindow::`RTTI Complete Object Locator'
PUBLIC	??_R0?AVRenderWindow@Ogre@@@8			; Ogre::RenderWindow `RTTI Type Descriptor'
PUBLIC	??_R3RenderWindow@Ogre@@8			; Ogre::RenderWindow::`RTTI Class Hierarchy Descriptor'
PUBLIC	??_R2RenderWindow@Ogre@@8			; Ogre::RenderWindow::`RTTI Base Class Array'
PUBLIC	??_R1A@?0A@EA@RenderWindow@Ogre@@8		; Ogre::RenderWindow::`RTTI Base Class Descriptor at (0,-1,0,64)'
PUBLIC	??_ERenderWindow@Ogre@@UAEPAXI@Z		; Ogre::RenderWindow::`vector deleting destructor'
;	COMDAT ??_R1A@?0A@EA@RenderWindow@Ogre@@8
rdata$r	SEGMENT
??_R1A@?0A@EA@RenderWindow@Ogre@@8 DD FLAT:??_R0?AVRenderWindow@Ogre@@@8 ; Ogre::RenderWindow::`RTTI Base Class Descriptor at (0,-1,0,64)'
	DD	03H
	DD	00H
	DD	0ffffffffH
	DD	00H
	DD	040H
	DD	FLAT:??_R3RenderWindow@Ogre@@8
rdata$r	ENDS
;	COMDAT ??_R2RenderWindow@Ogre@@8
rdata$r	SEGMENT
??_R2RenderWindow@Ogre@@8 DD FLAT:??_R1A@?0A@EA@RenderWindow@Ogre@@8 ; Ogre::RenderWindow::`RTTI Base Class Array'
	DD	FLAT:??_R1A@?0A@EA@RenderTarget@Ogre@@8
	DD	FLAT:??_R1A@?0A@EA@BaseObject@Ogre@@8
	DD	FLAT:??_R13?0A@EA@MemoryDelegation@Ogre@@8
rdata$r	ENDS
;	COMDAT ??_R3RenderWindow@Ogre@@8
rdata$r	SEGMENT
??_R3RenderWindow@Ogre@@8 DD 00H			; Ogre::RenderWindow::`RTTI Class Hierarchy Descriptor'
	DD	00H
	DD	04H
	DD	FLAT:??_R2RenderWindow@Ogre@@8
rdata$r	ENDS
;	COMDAT ??_R0?AVRenderWindow@Ogre@@@8
_DATA	SEGMENT
??_R0?AVRenderWindow@Ogre@@@8 DD FLAT:??_7type_info@@6B@ ; Ogre::RenderWindow `RTTI Type Descriptor'
	DD	00H
	DB	'.?AVRenderWindow@Ogre@@', 00H
_DATA	ENDS
;	COMDAT ??_R4RenderWindow@Ogre@@6B@
rdata$r	SEGMENT
??_R4RenderWindow@Ogre@@6B@ DD 00H			; Ogre::RenderWindow::`RTTI Complete Object Locator'
	DD	00H
	DD	00H
	DD	FLAT:??_R0?AVRenderWindow@Ogre@@@8
	DD	FLAT:??_R3RenderWindow@Ogre@@8
rdata$r	ENDS
;	COMDAT ??_7RenderWindow@Ogre@@6B@
CONST	SEGMENT
??_7RenderWindow@Ogre@@6B@ DD FLAT:??_R4RenderWindow@Ogre@@6B@ ; Ogre::RenderWindow::`vftable'
	DD	FLAT:?getRTTI@RenderWindow@Ogre@@UBEPBVRuntimeClass@2@XZ
	DD	FLAT:?release@BaseObject@Ogre@@UAEXXZ
	DD	FLAT:?addRef@BaseObject@Ogre@@UAEXXZ
	DD	FLAT:?getRefCount@BaseObject@Ogre@@UAEHXZ
	DD	FLAT:?_serialize@BaseObject@Ogre@@UAEXAAVArchive@2@H@Z
	DD	FLAT:??_ERenderWindow@Ogre@@UAEPAXI@Z
	DD	FLAT:?deleteThis@BaseObject@Ogre@@MAEXXZ
	DD	FLAT:__purecall
	DD	FLAT:__purecall
	DD	FLAT:__purecall
	DD	FLAT:?isSuccessCreateRenderTarget@RenderTarget@Ogre@@UAE_NXZ
	DD	FLAT:?isSuccessCreateDSBuffer@RenderTarget@Ogre@@UAE_NXZ
	DD	FLAT:?setStretchRect@RenderTarget@Ogre@@UAEXHHHHHHHH@Z
	DD	FLAT:__purecall
	DD	FLAT:__purecall
	DD	FLAT:__purecall
	DD	FLAT:__purecall
	DD	FLAT:__purecall
	DD	FLAT:__purecall
CONST	ENDS
;	COMDAT xdata$x
xdata$x	SEGMENT
__unwindtable$??0RenderWindow@Ogre@@QAE@XZ DD 0ffffffffH
	DD	FLAT:__unwindfunclet$??0RenderWindow@Ogre@@QAE@XZ$0
__ehfuncinfo$??0RenderWindow@Ogre@@QAE@XZ DD 019930522H
	DD	01H
	DD	FLAT:__unwindtable$??0RenderWindow@Ogre@@QAE@XZ
	DD	2 DUP(00H)
	DD	2 DUP(00H)
	DD	00H
	DD	00H
; Function compile flags: /Odtp
xdata$x	ENDS
;	COMDAT ??0RenderWindow@Ogre@@QAE@XZ
_TEXT	SEGMENT
_this$ = -16						; size = 4
__$EHRec$ = -12						; size = 12
??0RenderWindow@Ogre@@QAE@XZ PROC			; Ogre::RenderWindow::RenderWindow, COMDAT
; _this$ = ecx

; 24   : 		{

	push	ebp
	mov	ebp, esp
	push	-1
	push	__ehhandler$??0RenderWindow@Ogre@@QAE@XZ
	mov	eax, DWORD PTR fs:0
	push	eax
	push	ecx
	mov	eax, DWORD PTR ___security_cookie
	xor	eax, ebp
	push	eax
	lea	eax, DWORD PTR __$EHRec$[ebp]
	mov	DWORD PTR fs:0, eax
	mov	DWORD PTR _this$[ebp], ecx
	mov	ecx, DWORD PTR _this$[ebp]
	call	??0RenderTarget@Ogre@@QAE@XZ
	mov	DWORD PTR __$EHRec$[ebp+8], 0
	mov	eax, DWORD PTR _this$[ebp]
	mov	DWORD PTR [eax], OFFSET ??_7RenderWindow@Ogre@@6B@
	mov	ecx, DWORD PTR _this$[ebp]
	mov	BYTE PTR [ecx+8], 0
	mov	edx, DWORD PTR _this$[ebp]
	mov	BYTE PTR [edx+9], 0
	mov	eax, DWORD PTR _this$[ebp]
	mov	BYTE PTR [eax+10], 1

; 25   : 		}

	mov	DWORD PTR __$EHRec$[ebp+8], -1
	mov	eax, DWORD PTR _this$[ebp]
	mov	ecx, DWORD PTR __$EHRec$[ebp]
	mov	DWORD PTR fs:0, ecx
	pop	ecx
	mov	esp, ebp
	pop	ebp
	ret	0
_TEXT	ENDS
;	COMDAT text$x
text$x	SEGMENT
__unwindfunclet$??0RenderWindow@Ogre@@QAE@XZ$0:
	mov	ecx, DWORD PTR _this$[ebp]
	jmp	??1RenderTarget@Ogre@@UAE@XZ		; Ogre::RenderTarget::~RenderTarget
__ehhandler$??0RenderWindow@Ogre@@QAE@XZ:
	mov	edx, DWORD PTR [esp+8]
	lea	eax, DWORD PTR [edx+12]
	mov	ecx, DWORD PTR [edx-8]
	xor	ecx, eax
	call	@__security_check_cookie@4
	mov	eax, OFFSET __ehfuncinfo$??0RenderWindow@Ogre@@QAE@XZ
	jmp	___CxxFrameHandler3
text$x	ENDS
??0RenderWindow@Ogre@@QAE@XZ ENDP			; Ogre::RenderWindow::RenderWindow
PUBLIC	??1RenderWindow@Ogre@@UAE@XZ			; Ogre::RenderWindow::~RenderWindow
;	COMDAT xdata$x
xdata$x	SEGMENT
__unwindtable$??1RenderWindow@Ogre@@UAE@XZ DD 0ffffffffH
	DD	FLAT:__unwindfunclet$??1RenderWindow@Ogre@@UAE@XZ$0
__ehfuncinfo$??1RenderWindow@Ogre@@UAE@XZ DD 019930522H
	DD	01H
	DD	FLAT:__unwindtable$??1RenderWindow@Ogre@@UAE@XZ
	DD	2 DUP(00H)
	DD	2 DUP(00H)
	DD	00H
	DD	00H
; Function compile flags: /Odtp
xdata$x	ENDS
;	COMDAT ??1RenderWindow@Ogre@@UAE@XZ
_TEXT	SEGMENT
_this$ = -16						; size = 4
__$EHRec$ = -12						; size = 12
??1RenderWindow@Ogre@@UAE@XZ PROC			; Ogre::RenderWindow::~RenderWindow, COMDAT
; _this$ = ecx

; 27   : 		virtual ~RenderWindow() {}

	push	ebp
	mov	ebp, esp
	push	-1
	push	__ehhandler$??1RenderWindow@Ogre@@UAE@XZ
	mov	eax, DWORD PTR fs:0
	push	eax
	push	ecx
	mov	eax, DWORD PTR ___security_cookie
	xor	eax, ebp
	push	eax
	lea	eax, DWORD PTR __$EHRec$[ebp]
	mov	DWORD PTR fs:0, eax
	mov	DWORD PTR _this$[ebp], ecx
	mov	eax, DWORD PTR _this$[ebp]
	mov	DWORD PTR [eax], OFFSET ??_7RenderWindow@Ogre@@6B@
	mov	DWORD PTR __$EHRec$[ebp+8], 0
	mov	DWORD PTR __$EHRec$[ebp+8], -1
	mov	ecx, DWORD PTR _this$[ebp]
	call	??1RenderTarget@Ogre@@UAE@XZ		; Ogre::RenderTarget::~RenderTarget
	mov	ecx, DWORD PTR __$EHRec$[ebp]
	mov	DWORD PTR fs:0, ecx
	pop	ecx
	mov	esp, ebp
	pop	ebp
	ret	0
_TEXT	ENDS
;	COMDAT text$x
text$x	SEGMENT
__unwindfunclet$??1RenderWindow@Ogre@@UAE@XZ$0:
	mov	ecx, DWORD PTR _this$[ebp]
	jmp	??1RenderTarget@Ogre@@UAE@XZ		; Ogre::RenderTarget::~RenderTarget
__ehhandler$??1RenderWindow@Ogre@@UAE@XZ:
	mov	edx, DWORD PTR [esp+8]
	lea	eax, DWORD PTR [edx+12]
	mov	ecx, DWORD PTR [edx-8]
	xor	ecx, eax
	call	@__security_check_cookie@4
	mov	eax, OFFSET __ehfuncinfo$??1RenderWindow@Ogre@@UAE@XZ
	jmp	___CxxFrameHandler3
text$x	ENDS
??1RenderWindow@Ogre@@UAE@XZ ENDP			; Ogre::RenderWindow::~RenderWindow
PUBLIC	?setMaximized@RenderWindow@Ogre@@QAEX_N@Z	; Ogre::RenderWindow::setMaximized
; Function compile flags: /Odtp
;	COMDAT ?setMaximized@RenderWindow@Ogre@@QAEX_N@Z
_TEXT	SEGMENT
_this$ = -4						; size = 4
_b$ = 8							; size = 1
?setMaximized@RenderWindow@Ogre@@QAEX_N@Z PROC		; Ogre::RenderWindow::setMaximized, COMDAT
; _this$ = ecx

; 36   : 		{

	push	ebp
	mov	ebp, esp
	push	ecx
	mov	DWORD PTR _this$[ebp], ecx

; 37   : 			m_bMaximized = b;

	mov	eax, DWORD PTR _this$[ebp]
	mov	cl, BYTE PTR _b$[ebp]
	mov	BYTE PTR [eax+8], cl

; 38   : 		}

	mov	esp, ebp
	pop	ebp
	ret	4
?setMaximized@RenderWindow@Ogre@@QAEX_N@Z ENDP		; Ogre::RenderWindow::setMaximized
_TEXT	ENDS
PUBLIC	?setMinimized@RenderWindow@Ogre@@QAEX_N@Z	; Ogre::RenderWindow::setMinimized
; Function compile flags: /Odtp
;	COMDAT ?setMinimized@RenderWindow@Ogre@@QAEX_N@Z
_TEXT	SEGMENT
_this$ = -4						; size = 4
_b$ = 8							; size = 1
?setMinimized@RenderWindow@Ogre@@QAEX_N@Z PROC		; Ogre::RenderWindow::setMinimized, COMDAT
; _this$ = ecx

; 41   : 		{

	push	ebp
	mov	ebp, esp
	push	ecx
	mov	DWORD PTR _this$[ebp], ecx

; 42   : 			m_bMinimized = b;

	mov	eax, DWORD PTR _this$[ebp]
	mov	cl, BYTE PTR _b$[ebp]
	mov	BYTE PTR [eax+9], cl

; 43   : 		}

	mov	esp, ebp
	pop	ebp
	ret	4
?setMinimized@RenderWindow@Ogre@@QAEX_N@Z ENDP		; Ogre::RenderWindow::setMinimized
_TEXT	ENDS
PUBLIC	?getMaximized@RenderWindow@Ogre@@QAE_NXZ	; Ogre::RenderWindow::getMaximized
; Function compile flags: /Odtp
;	COMDAT ?getMaximized@RenderWindow@Ogre@@QAE_NXZ
_TEXT	SEGMENT
_this$ = -4						; size = 4
?getMaximized@RenderWindow@Ogre@@QAE_NXZ PROC		; Ogre::RenderWindow::getMaximized, COMDAT
; _this$ = ecx

; 46   : 		{

	push	ebp
	mov	ebp, esp
	push	ecx
	mov	DWORD PTR _this$[ebp], ecx

; 47   : 			return m_bMaximized;

	mov	eax, DWORD PTR _this$[ebp]
	mov	al, BYTE PTR [eax+8]

; 48   : 		}

	mov	esp, ebp
	pop	ebp
	ret	0
?getMaximized@RenderWindow@Ogre@@QAE_NXZ ENDP		; Ogre::RenderWindow::getMaximized
_TEXT	ENDS
PUBLIC	?getMinimized@RenderWindow@Ogre@@QAE_NXZ	; Ogre::RenderWindow::getMinimized
; Function compile flags: /Odtp
;	COMDAT ?getMinimized@RenderWindow@Ogre@@QAE_NXZ
_TEXT	SEGMENT
_this$ = -4						; size = 4
?getMinimized@RenderWindow@Ogre@@QAE_NXZ PROC		; Ogre::RenderWindow::getMinimized, COMDAT
; _this$ = ecx

; 51   : 		{

	push	ebp
	mov	ebp, esp
	push	ecx
	mov	DWORD PTR _this$[ebp], ecx

; 52   : 			return m_bMinimized;

	mov	eax, DWORD PTR _this$[ebp]
	mov	al, BYTE PTR [eax+9]

; 53   : 		}

	mov	esp, ebp
	pop	ebp
	ret	0
?getMinimized@RenderWindow@Ogre@@QAE_NXZ ENDP		; Ogre::RenderWindow::getMinimized
_TEXT	ENDS
PUBLIC	?getWindowed@RenderWindow@Ogre@@QAE_NXZ		; Ogre::RenderWindow::getWindowed
; Function compile flags: /Odtp
;	COMDAT ?getWindowed@RenderWindow@Ogre@@QAE_NXZ
_TEXT	SEGMENT
_this$ = -4						; size = 4
?getWindowed@RenderWindow@Ogre@@QAE_NXZ PROC		; Ogre::RenderWindow::getWindowed, COMDAT
; _this$ = ecx

; 56   : 		{

	push	ebp
	mov	ebp, esp
	push	ecx
	mov	DWORD PTR _this$[ebp], ecx

; 57   : 			return m_bWindowed;

	mov	eax, DWORD PTR _this$[ebp]
	mov	al, BYTE PTR [eax+10]

; 58   : 		}

	mov	esp, ebp
	pop	ebp
	ret	0
?getWindowed@RenderWindow@Ogre@@QAE_NXZ ENDP		; Ogre::RenderWindow::getWindowed
_TEXT	ENDS
PUBLIC	??0RenderWindow@Ogre@@QAE@ABV01@@Z		; Ogre::RenderWindow::RenderWindow
;	COMDAT xdata$x
xdata$x	SEGMENT
__unwindtable$??0RenderWindow@Ogre@@QAE@ABV01@@Z DD 0ffffffffH
	DD	FLAT:__unwindfunclet$??0RenderWindow@Ogre@@QAE@ABV01@@Z$0
__ehfuncinfo$??0RenderWindow@Ogre@@QAE@ABV01@@Z DD 019930522H
	DD	01H
	DD	FLAT:__unwindtable$??0RenderWindow@Ogre@@QAE@ABV01@@Z
	DD	2 DUP(00H)
	DD	2 DUP(00H)
	DD	00H
	DD	00H
; Function compile flags: /Odtp
xdata$x	ENDS
;	COMDAT ??0RenderWindow@Ogre@@QAE@ABV01@@Z
_TEXT	SEGMENT
_this$ = -16						; size = 4
__$EHRec$ = -12						; size = 12
___that$ = 8						; size = 4
??0RenderWindow@Ogre@@QAE@ABV01@@Z PROC			; Ogre::RenderWindow::RenderWindow, COMDAT
; _this$ = ecx
	push	ebp
	mov	ebp, esp
	push	-1
	push	__ehhandler$??0RenderWindow@Ogre@@QAE@ABV01@@Z
	mov	eax, DWORD PTR fs:0
	push	eax
	push	ecx
	mov	eax, DWORD PTR ___security_cookie
	xor	eax, ebp
	push	eax
	lea	eax, DWORD PTR __$EHRec$[ebp]
	mov	DWORD PTR fs:0, eax
	mov	DWORD PTR _this$[ebp], ecx
	mov	eax, DWORD PTR ___that$[ebp]
	push	eax
	mov	ecx, DWORD PTR _this$[ebp]
	call	??0RenderTarget@Ogre@@QAE@ABV01@@Z
	mov	DWORD PTR __$EHRec$[ebp+8], 0
	mov	ecx, DWORD PTR _this$[ebp]
	mov	DWORD PTR [ecx], OFFSET ??_7RenderWindow@Ogre@@6B@
	mov	edx, DWORD PTR _this$[ebp]
	mov	eax, DWORD PTR ___that$[ebp]
	mov	cl, BYTE PTR [eax+8]
	mov	BYTE PTR [edx+8], cl
	mov	edx, DWORD PTR _this$[ebp]
	mov	eax, DWORD PTR ___that$[ebp]
	mov	cl, BYTE PTR [eax+9]
	mov	BYTE PTR [edx+9], cl
	mov	edx, DWORD PTR _this$[ebp]
	mov	eax, DWORD PTR ___that$[ebp]
	mov	cl, BYTE PTR [eax+10]
	mov	BYTE PTR [edx+10], cl
	mov	DWORD PTR __$EHRec$[ebp+8], -1
	mov	eax, DWORD PTR _this$[ebp]
	mov	ecx, DWORD PTR __$EHRec$[ebp]
	mov	DWORD PTR fs:0, ecx
	pop	ecx
	mov	esp, ebp
	pop	ebp
	ret	4
_TEXT	ENDS
;	COMDAT text$x
text$x	SEGMENT
__unwindfunclet$??0RenderWindow@Ogre@@QAE@ABV01@@Z$0:
	mov	ecx, DWORD PTR _this$[ebp]
	jmp	??1RenderTarget@Ogre@@UAE@XZ		; Ogre::RenderTarget::~RenderTarget
__ehhandler$??0RenderWindow@Ogre@@QAE@ABV01@@Z:
	mov	edx, DWORD PTR [esp+8]
	lea	eax, DWORD PTR [edx+12]
	mov	ecx, DWORD PTR [edx-8]
	xor	ecx, eax
	call	@__security_check_cookie@4
	mov	eax, OFFSET __ehfuncinfo$??0RenderWindow@Ogre@@QAE@ABV01@@Z
	jmp	___CxxFrameHandler3
text$x	ENDS
??0RenderWindow@Ogre@@QAE@ABV01@@Z ENDP			; Ogre::RenderWindow::RenderWindow
PUBLIC	??4RenderWindow@Ogre@@QAEAAV01@ABV01@@Z		; Ogre::RenderWindow::operator=
; Function compile flags: /Odtp
;	COMDAT ??4RenderWindow@Ogre@@QAEAAV01@ABV01@@Z
_TEXT	SEGMENT
_this$ = -4						; size = 4
___that$ = 8						; size = 4
??4RenderWindow@Ogre@@QAEAAV01@ABV01@@Z PROC		; Ogre::RenderWindow::operator=, COMDAT
; _this$ = ecx
	push	ebp
	mov	ebp, esp
	push	ecx
	mov	DWORD PTR _this$[ebp], ecx
	mov	eax, DWORD PTR ___that$[ebp]
	push	eax
	mov	ecx, DWORD PTR _this$[ebp]
	call	??4RenderTarget@Ogre@@QAEAAV01@ABV01@@Z
	mov	ecx, DWORD PTR _this$[ebp]
	mov	edx, DWORD PTR ___that$[ebp]
	mov	al, BYTE PTR [edx+8]
	mov	BYTE PTR [ecx+8], al
	mov	ecx, DWORD PTR _this$[ebp]
	mov	edx, DWORD PTR ___that$[ebp]
	mov	al, BYTE PTR [edx+9]
	mov	BYTE PTR [ecx+9], al
	mov	ecx, DWORD PTR _this$[ebp]
	mov	edx, DWORD PTR ___that$[ebp]
	mov	al, BYTE PTR [edx+10]
	mov	BYTE PTR [ecx+10], al
	mov	eax, DWORD PTR _this$[ebp]
	mov	esp, ebp
	pop	ebp
	ret	4
??4RenderWindow@Ogre@@QAEAAV01@ABV01@@Z ENDP		; Ogre::RenderWindow::operator=
_TEXT	ENDS
PUBLIC	??_GRenderWindow@Ogre@@UAEPAXI@Z		; Ogre::RenderWindow::`scalar deleting destructor'
; Function compile flags: /Odtp
;	COMDAT ??_GRenderWindow@Ogre@@UAEPAXI@Z
_TEXT	SEGMENT
_this$ = -4						; size = 4
___flags$ = 8						; size = 4
??_GRenderWindow@Ogre@@UAEPAXI@Z PROC			; Ogre::RenderWindow::`scalar deleting destructor', COMDAT
; _this$ = ecx
	push	ebp
	mov	ebp, esp
	push	ecx
	mov	DWORD PTR _this$[ebp], ecx
	mov	ecx, DWORD PTR _this$[ebp]
	call	??1RenderWindow@Ogre@@UAE@XZ		; Ogre::RenderWindow::~RenderWindow
	mov	eax, DWORD PTR ___flags$[ebp]
	and	eax, 1
	je	SHORT $LN1@scalar@4
	push	12					; 0000000cH
	mov	ecx, DWORD PTR _this$[ebp]
	push	ecx
	call	??3MemoryDelegation@Ogre@@SAXPAXI@Z	; Ogre::MemoryDelegation::operator delete
	add	esp, 8
$LN1@scalar@4:
	mov	eax, DWORD PTR _this$[ebp]
	mov	esp, ebp
	pop	ebp
	ret	4
??_GRenderWindow@Ogre@@UAEPAXI@Z ENDP			; Ogre::RenderWindow::`scalar deleting destructor'
; Function compile flags: /Odtp
_TEXT	ENDS
;	COMDAT ??_ERenderWindow@Ogre@@UAEPAXI@Z
_TEXT	SEGMENT
_this$ = -4						; size = 4
___flags$ = 8						; size = 4
??_ERenderWindow@Ogre@@UAEPAXI@Z PROC			; Ogre::RenderWindow::`vector deleting destructor', COMDAT
; _this$ = ecx
	push	ebp
	mov	ebp, esp
	push	ecx
	mov	DWORD PTR _this$[ebp], ecx
	mov	eax, DWORD PTR ___flags$[ebp]
	and	eax, 2
	je	SHORT $LN3@vector@4
	push	OFFSET ??1RenderWindow@Ogre@@UAE@XZ	; Ogre::RenderWindow::~RenderWindow
	mov	ecx, DWORD PTR _this$[ebp]
	mov	edx, DWORD PTR [ecx-4]
	push	edx
	push	12					; 0000000cH
	mov	eax, DWORD PTR _this$[ebp]
	push	eax
	call	??_M@YGXPAXIHP6EX0@Z@Z
	mov	ecx, DWORD PTR ___flags$[ebp]
	and	ecx, 1
	je	SHORT $LN2@vector@4
	push	12					; 0000000cH
	mov	edx, DWORD PTR _this$[ebp]
	sub	edx, 4
	push	edx
	call	??_VMemoryDelegation@Ogre@@SAXPAXI@Z	; Ogre::MemoryDelegation::operator delete[]
	add	esp, 8
$LN2@vector@4:
	mov	eax, DWORD PTR _this$[ebp]
	sub	eax, 4
	jmp	SHORT $LN4@vector@4
$LN3@vector@4:
	mov	ecx, DWORD PTR _this$[ebp]
	call	??1RenderWindow@Ogre@@UAE@XZ		; Ogre::RenderWindow::~RenderWindow
	mov	eax, DWORD PTR ___flags$[ebp]
	and	eax, 1
	je	SHORT $LN1@vector@4
	push	12					; 0000000cH
	mov	ecx, DWORD PTR _this$[ebp]
	push	ecx
	call	??3MemoryDelegation@Ogre@@SAXPAXI@Z	; Ogre::MemoryDelegation::operator delete
	add	esp, 8
$LN1@vector@4:
	mov	eax, DWORD PTR _this$[ebp]
$LN4@vector@4:
	mov	esp, ebp
	pop	ebp
	ret	4
??_ERenderWindow@Ogre@@UAEPAXI@Z ENDP			; Ogre::RenderWindow::`vector deleting destructor'
_TEXT	ENDS
PUBLIC	??0?$list@V?$basic_string@DU?$char_traits@D@std@@V?$allocator@D@2@@std@@V?$allocator@V?$basic_string@DU?$char_traits@D@std@@V?$allocator@D@2@@std@@@2@@std@@QAE@XZ ; std::list<std::basic_string<char,std::char_traits<char>,std::allocator<char> >,std::allocator<std::basic_string<char,std::char_traits<char>,std::allocator<char> > > >::list<std::basic_string<char,std::char_traits<char>,std::allocator<char> >,std::allocator<std::basic_string<char,std::char_traits<char>,std::allocator<char> > > >
PUBLIC	??0?$Singleton@VMCIWrap@Ogre@@@Ogre@@QAE@XZ	; Ogre::Singleton<Ogre::MCIWrap>::Singleton<Ogre::MCIWrap>
PUBLIC	??0MCIWrap@Ogre@@QAE@XZ				; Ogre::MCIWrap::MCIWrap
EXTRN	_av_register_all:PROC
xdata$x	SEGMENT
__unwindtable$??0MCIWrap@Ogre@@QAE@XZ DD 0ffffffffH
	DD	FLAT:__unwindfunclet$??0MCIWrap@Ogre@@QAE@XZ$0
	DD	00H
	DD	FLAT:__unwindfunclet$??0MCIWrap@Ogre@@QAE@XZ$1
__ehfuncinfo$??0MCIWrap@Ogre@@QAE@XZ DD 019930522H
	DD	02H
	DD	FLAT:__unwindtable$??0MCIWrap@Ogre@@QAE@XZ
	DD	2 DUP(00H)
	DD	2 DUP(00H)
	DD	00H
	DD	00H
; Function compile flags: /Odtp
; File i:\svnroot\client\ogremain\ogremci.cpp
xdata$x	ENDS
_TEXT	SEGMENT
_this$ = -16						; size = 4
__$EHRec$ = -12						; size = 12
??0MCIWrap@Ogre@@QAE@XZ PROC				; Ogre::MCIWrap::MCIWrap
; _this$ = ecx

; 16   : {

	push	ebp
	mov	ebp, esp
	push	-1
	push	__ehhandler$??0MCIWrap@Ogre@@QAE@XZ
	mov	eax, DWORD PTR fs:0
	push	eax
	push	ecx
	mov	eax, DWORD PTR ___security_cookie
	xor	eax, ebp
	push	eax
	lea	eax, DWORD PTR __$EHRec$[ebp]
	mov	DWORD PTR fs:0, eax
	mov	DWORD PTR _this$[ebp], ecx
	mov	ecx, DWORD PTR _this$[ebp]
	call	??0?$Singleton@VMCIWrap@Ogre@@@Ogre@@QAE@XZ ; Ogre::Singleton<Ogre::MCIWrap>::Singleton<Ogre::MCIWrap>
	mov	DWORD PTR __$EHRec$[ebp+8], 0
	mov	ecx, DWORD PTR _this$[ebp]
	call	??0?$list@V?$basic_string@DU?$char_traits@D@std@@V?$allocator@D@2@@std@@V?$allocator@V?$basic_string@DU?$char_traits@D@std@@V?$allocator@D@2@@std@@@2@@std@@QAE@XZ ; std::list<std::basic_string<char,std::char_traits<char>,std::allocator<char> >,std::allocator<std::basic_string<char,std::char_traits<char>,std::allocator<char> > > >::list<std::basic_string<char,std::char_traits<char>,std::allocator<char> >,std::allocator<std::basic_string<char,std::char_traits<char>,std::allocator<char> > > >
	mov	BYTE PTR __$EHRec$[ebp+8], 1
	mov	eax, DWORD PTR _this$[ebp]
	mov	DWORD PTR [eax+28], 0
	mov	ecx, DWORD PTR _this$[ebp]
	mov	BYTE PTR [ecx+32], 0
	mov	edx, DWORD PTR _this$[ebp]
	mov	BYTE PTR [edx+33], 1
	mov	eax, DWORD PTR _this$[ebp]
	mov	DWORD PTR [eax+36], 0
	mov	ecx, DWORD PTR _this$[ebp]
	mov	DWORD PTR [ecx+52], 0

; 17   : 	av_register_all();

	call	_av_register_all

; 18   : }

	mov	DWORD PTR __$EHRec$[ebp+8], -1
	mov	eax, DWORD PTR _this$[ebp]
	mov	ecx, DWORD PTR __$EHRec$[ebp]
	mov	DWORD PTR fs:0, ecx
	pop	ecx
	mov	esp, ebp
	pop	ebp
	ret	0
_TEXT	ENDS
text$x	SEGMENT
__unwindfunclet$??0MCIWrap@Ogre@@QAE@XZ$0:
	mov	ecx, DWORD PTR _this$[ebp]
	jmp	??1?$Singleton@VMCIWrap@Ogre@@@Ogre@@QAE@XZ ; Ogre::Singleton<Ogre::MCIWrap>::~Singleton<Ogre::MCIWrap>
__unwindfunclet$??0MCIWrap@Ogre@@QAE@XZ$1:
	mov	ecx, DWORD PTR _this$[ebp]
	jmp	??1?$list@V?$basic_string@DU?$char_traits@D@std@@V?$allocator@D@2@@std@@V?$allocator@V?$basic_string@DU?$char_traits@D@std@@V?$allocator@D@2@@std@@@2@@std@@QAE@XZ ; std::list<std::basic_string<char,std::char_traits<char>,std::allocator<char> >,std::allocator<std::basic_string<char,std::char_traits<char>,std::allocator<char> > > >::~list<std::basic_string<char,std::char_traits<char>,std::allocator<char> >,std::allocator<std::basic_string<char,std::char_traits<char>,std::allocator<char> > > >
__ehhandler$??0MCIWrap@Ogre@@QAE@XZ:
	mov	edx, DWORD PTR [esp+8]
	lea	eax, DWORD PTR [edx+12]
	mov	ecx, DWORD PTR [edx-8]
	xor	ecx, eax
	call	@__security_check_cookie@4
	mov	eax, OFFSET __ehfuncinfo$??0MCIWrap@Ogre@@QAE@XZ
	jmp	___CxxFrameHandler3
text$x	ENDS
??0MCIWrap@Ogre@@QAE@XZ ENDP				; Ogre::MCIWrap::MCIWrap
PUBLIC	?stop@MCIWrap@Ogre@@QAEXXZ			; Ogre::MCIWrap::stop
PUBLIC	??1MCIWrap@Ogre@@QAE@XZ				; Ogre::MCIWrap::~MCIWrap
EXTRN	__imp__DestroyWindow@4:PROC
xdata$x	SEGMENT
__unwindtable$??1MCIWrap@Ogre@@QAE@XZ DD 0ffffffffH
	DD	FLAT:__unwindfunclet$??1MCIWrap@Ogre@@QAE@XZ$0
	DD	00H
	DD	FLAT:__unwindfunclet$??1MCIWrap@Ogre@@QAE@XZ$1
__ehfuncinfo$??1MCIWrap@Ogre@@QAE@XZ DD 019930522H
	DD	02H
	DD	FLAT:__unwindtable$??1MCIWrap@Ogre@@QAE@XZ
	DD	2 DUP(00H)
	DD	2 DUP(00H)
	DD	00H
	DD	00H
; Function compile flags: /Odtp
xdata$x	ENDS
_TEXT	SEGMENT
_this$ = -16						; size = 4
__$EHRec$ = -12						; size = 12
??1MCIWrap@Ogre@@QAE@XZ PROC				; Ogre::MCIWrap::~MCIWrap
; _this$ = ecx

; 21   : {

	push	ebp
	mov	ebp, esp
	push	-1
	push	__ehhandler$??1MCIWrap@Ogre@@QAE@XZ
	mov	eax, DWORD PTR fs:0
	push	eax
	push	ecx
	mov	eax, DWORD PTR ___security_cookie
	xor	eax, ebp
	push	eax
	lea	eax, DWORD PTR __$EHRec$[ebp]
	mov	DWORD PTR fs:0, eax
	mov	DWORD PTR _this$[ebp], ecx
	mov	DWORD PTR __$EHRec$[ebp+8], 1

; 22   : 	stop();

	mov	ecx, DWORD PTR _this$[ebp]
	call	?stop@MCIWrap@Ogre@@QAEXXZ		; Ogre::MCIWrap::stop

; 23   : 	if (drawWnd)

	mov	eax, DWORD PTR _this$[ebp]
	cmp	DWORD PTR [eax+28], 0
	je	SHORT $LN2@MCIWrap

; 24   : 	{
; 25   : 		DestroyWindow(drawWnd);

	mov	ecx, DWORD PTR _this$[ebp]
	mov	edx, DWORD PTR [ecx+28]
	push	edx
	call	DWORD PTR __imp__DestroyWindow@4
$LN2@MCIWrap:

; 26   : 	}
; 27   : }

	mov	BYTE PTR __$EHRec$[ebp+8], 0
	mov	ecx, DWORD PTR _this$[ebp]
	call	??1?$list@V?$basic_string@DU?$char_traits@D@std@@V?$allocator@D@2@@std@@V?$allocator@V?$basic_string@DU?$char_traits@D@std@@V?$allocator@D@2@@std@@@2@@std@@QAE@XZ ; std::list<std::basic_string<char,std::char_traits<char>,std::allocator<char> >,std::allocator<std::basic_string<char,std::char_traits<char>,std::allocator<char> > > >::~list<std::basic_string<char,std::char_traits<char>,std::allocator<char> >,std::allocator<std::basic_string<char,std::char_traits<char>,std::allocator<char> > > >
	mov	DWORD PTR __$EHRec$[ebp+8], -1
	mov	ecx, DWORD PTR _this$[ebp]
	call	??1?$Singleton@VMCIWrap@Ogre@@@Ogre@@QAE@XZ ; Ogre::Singleton<Ogre::MCIWrap>::~Singleton<Ogre::MCIWrap>
	mov	ecx, DWORD PTR __$EHRec$[ebp]
	mov	DWORD PTR fs:0, ecx
	pop	ecx
	mov	esp, ebp
	pop	ebp
	ret	0
_TEXT	ENDS
text$x	SEGMENT
__unwindfunclet$??1MCIWrap@Ogre@@QAE@XZ$0:
	mov	ecx, DWORD PTR _this$[ebp]
	jmp	??1?$Singleton@VMCIWrap@Ogre@@@Ogre@@QAE@XZ ; Ogre::Singleton<Ogre::MCIWrap>::~Singleton<Ogre::MCIWrap>
__unwindfunclet$??1MCIWrap@Ogre@@QAE@XZ$1:
	mov	ecx, DWORD PTR _this$[ebp]
	jmp	??1?$list@V?$basic_string@DU?$char_traits@D@std@@V?$allocator@D@2@@std@@V?$allocator@V?$basic_string@DU?$char_traits@D@std@@V?$allocator@D@2@@std@@@2@@std@@QAE@XZ ; std::list<std::basic_string<char,std::char_traits<char>,std::allocator<char> >,std::allocator<std::basic_string<char,std::char_traits<char>,std::allocator<char> > > >::~list<std::basic_string<char,std::char_traits<char>,std::allocator<char> >,std::allocator<std::basic_string<char,std::char_traits<char>,std::allocator<char> > > >
__ehhandler$??1MCIWrap@Ogre@@QAE@XZ:
	mov	edx, DWORD PTR [esp+8]
	lea	eax, DWORD PTR [edx+12]
	mov	ecx, DWORD PTR [edx-8]
	xor	ecx, eax
	call	@__security_check_cookie@4
	mov	eax, OFFSET __ehfuncinfo$??1MCIWrap@Ogre@@QAE@XZ
	jmp	___CxxFrameHandler3
text$x	ENDS
??1MCIWrap@Ogre@@QAE@XZ ENDP				; Ogre::MCIWrap::~MCIWrap
PUBLIC	?start@MCIWrap@Ogre@@QAEXXZ			; Ogre::MCIWrap::start
PUBLIC	?push_back@?$list@V?$basic_string@DU?$char_traits@D@std@@V?$allocator@D@2@@std@@V?$allocator@V?$basic_string@DU?$char_traits@D@std@@V?$allocator@D@2@@std@@@2@@std@@QAEXABV?$basic_string@DU?$char_traits@D@std@@V?$allocator@D@2@@2@@Z ; std::list<std::basic_string<char,std::char_traits<char>,std::allocator<char> >,std::allocator<std::basic_string<char,std::char_traits<char>,std::allocator<char> > > >::push_back
PUBLIC	?play@MCIWrap@Ogre@@QAEXPBD@Z			; Ogre::MCIWrap::play
EXTRN	__imp_??0?$basic_string@DU?$char_traits@D@std@@V?$allocator@D@2@@std@@QAE@PBD@Z:PROC
xdata$x	SEGMENT
__unwindtable$?play@MCIWrap@Ogre@@QAEXPBD@Z DD 0ffffffffH
	DD	FLAT:__unwindfunclet$?play@MCIWrap@Ogre@@QAEXPBD@Z$0
__ehfuncinfo$?play@MCIWrap@Ogre@@QAEXPBD@Z DD 019930522H
	DD	01H
	DD	FLAT:__unwindtable$?play@MCIWrap@Ogre@@QAEXPBD@Z
	DD	2 DUP(00H)
	DD	2 DUP(00H)
	DD	00H
	DD	00H
; Function compile flags: /Odtp
xdata$x	ENDS
_TEXT	SEGMENT
_this$ = -44						; size = 4
$T118546 = -40						; size = 28
__$EHRec$ = -12						; size = 12
_filename$ = 8						; size = 4
?play@MCIWrap@Ogre@@QAEXPBD@Z PROC			; Ogre::MCIWrap::play
; _this$ = ecx

; 30   : {

	push	ebp
	mov	ebp, esp
	push	-1
	push	__ehhandler$?play@MCIWrap@Ogre@@QAEXPBD@Z
	mov	eax, DWORD PTR fs:0
	push	eax
	sub	esp, 32					; 00000020H
	mov	eax, DWORD PTR ___security_cookie
	xor	eax, ebp
	push	eax
	lea	eax, DWORD PTR __$EHRec$[ebp]
	mov	DWORD PTR fs:0, eax
	mov	DWORD PTR _this$[ebp], ecx

; 31   : 	playList.push_back(filename);

	mov	eax, DWORD PTR _filename$[ebp]
	push	eax
	lea	ecx, DWORD PTR $T118546[ebp]
	call	DWORD PTR __imp_??0?$basic_string@DU?$char_traits@D@std@@V?$allocator@D@2@@std@@QAE@PBD@Z
	mov	DWORD PTR __$EHRec$[ebp+8], 0
	lea	ecx, DWORD PTR $T118546[ebp]
	push	ecx
	mov	ecx, DWORD PTR _this$[ebp]
	call	?push_back@?$list@V?$basic_string@DU?$char_traits@D@std@@V?$allocator@D@2@@std@@V?$allocator@V?$basic_string@DU?$char_traits@D@std@@V?$allocator@D@2@@std@@@2@@std@@QAEXABV?$basic_string@DU?$char_traits@D@std@@V?$allocator@D@2@@2@@Z ; std::list<std::basic_string<char,std::char_traits<char>,std::allocator<char> >,std::allocator<std::basic_string<char,std::char_traits<char>,std::allocator<char> > > >::push_back
	mov	DWORD PTR __$EHRec$[ebp+8], -1
	lea	ecx, DWORD PTR $T118546[ebp]
	call	DWORD PTR __imp_??1?$basic_string@DU?$char_traits@D@std@@V?$allocator@D@2@@std@@QAE@XZ

; 32   : 	start();

	mov	ecx, DWORD PTR _this$[ebp]
	call	?start@MCIWrap@Ogre@@QAEXXZ		; Ogre::MCIWrap::start

; 33   : }

	mov	ecx, DWORD PTR __$EHRec$[ebp]
	mov	DWORD PTR fs:0, ecx
	pop	ecx
	mov	esp, ebp
	pop	ebp
	ret	4
_TEXT	ENDS
text$x	SEGMENT
__unwindfunclet$?play@MCIWrap@Ogre@@QAEXPBD@Z$0:
	lea	ecx, DWORD PTR $T118546[ebp]
	jmp	DWORD PTR __imp_??1?$basic_string@DU?$char_traits@D@std@@V?$allocator@D@2@@std@@QAE@XZ
__ehhandler$?play@MCIWrap@Ogre@@QAEXPBD@Z:
	mov	edx, DWORD PTR [esp+8]
	lea	eax, DWORD PTR [edx+12]
	mov	ecx, DWORD PTR [edx-36]
	xor	ecx, eax
	call	@__security_check_cookie@4
	mov	eax, OFFSET __ehfuncinfo$?play@MCIWrap@Ogre@@QAEXPBD@Z
	jmp	___CxxFrameHandler3
text$x	ENDS
?play@MCIWrap@Ogre@@QAEXPBD@Z ENDP			; Ogre::MCIWrap::play
PUBLIC	?updateWindow@MCIWrap@Ogre@@QAEXXZ		; Ogre::MCIWrap::updateWindow
PUBLIC	?getSingleton@?$Singleton@VRenderSystem@Ogre@@@Ogre@@SAAAVRenderSystem@2@XZ ; Ogre::Singleton<Ogre::RenderSystem>::getSingleton
EXTRN	__imp__ShowWindow@8:PROC
EXTRN	__imp__ReleaseDC@8:PROC
EXTRN	__imp__SetTextAlign@8:PROC
EXTRN	__imp__SetBkColor@8:PROC
EXTRN	__imp__SelectObject@8:PROC
EXTRN	__imp__GetDC@4:PROC
EXTRN	__imp__CreateWindowExA@48:PROC
EXTRN	__imp__RegisterClassExA@4:PROC
EXTRN	__imp__GetStockObject@4:PROC
EXTRN	__imp__DefWindowProcA@16:PROC
; Function compile flags: /Odtp
_TEXT	SEGMENT
tv76 = -68						; size = 4
tv71 = -64						; size = 4
_this$ = -60						; size = 4
_kWC$113118 = -56					; size = 48
_hdc$113125 = -8					; size = 4
_hWnd$113122 = -4					; size = 4
?start@MCIWrap@Ogre@@QAEXXZ PROC			; Ogre::MCIWrap::start
; _this$ = ecx

; 36   : {

	push	ebp
	mov	ebp, esp
	sub	esp, 68					; 00000044H
	mov	DWORD PTR _this$[ebp], ecx

; 37   : 	if (drawWnd == NULL)

	mov	eax, DWORD PTR _this$[ebp]
	cmp	DWORD PTR [eax+28], 0
	jne	$LN1@start

; 38   : 	{
; 39   : 		{
; 40   : 			WNDCLASSEX kWC;
; 41   : 			kWC.cbSize		  = sizeof(WNDCLASSEX);

	mov	DWORD PTR _kWC$113118[ebp], 48		; 00000030H

; 42   : 			kWC.style         = WS_CHILD|WS_CLIPSIBLINGS;

	mov	DWORD PTR _kWC$113118[ebp+4], 1140850688 ; 44000000H

; 43   : 			kWC.lpfnWndProc   = DefWindowProc;

	mov	ecx, DWORD PTR __imp__DefWindowProcA@16
	mov	DWORD PTR _kWC$113118[ebp+8], ecx

; 44   : 			kWC.cbClsExtra    = 0;

	mov	DWORD PTR _kWC$113118[ebp+12], 0

; 45   : 			kWC.cbWndExtra    = 0;

	mov	DWORD PTR _kWC$113118[ebp+16], 0

; 46   : 			kWC.hInstance     = 0;

	mov	DWORD PTR _kWC$113118[ebp+20], 0

; 47   : 			kWC.hCursor       = NULL;

	mov	DWORD PTR _kWC$113118[ebp+28], 0

; 48   : 			kWC.hbrBackground = (HBRUSH)GetStockObject(BLACK_BRUSH);

	push	4
	call	DWORD PTR __imp__GetStockObject@4
	mov	DWORD PTR _kWC$113118[ebp+32], eax

; 49   : 			kWC.lpszClassName = "VideoWnd";

	mov	DWORD PTR _kWC$113118[ebp+40], OFFSET $SG113121

; 50   : 			kWC.lpszMenuName  = 0;

	mov	DWORD PTR _kWC$113118[ebp+36], 0

; 51   : 			RegisterClassEx(&kWC);

	lea	edx, DWORD PTR _kWC$113118[ebp]
	push	edx
	call	DWORD PTR __imp__RegisterClassExA@4

; 52   : 		}
; 53   : 		HWND hWnd = HWND(RenderSystem::getSingleton().getMainWindow()->getHWnd());

	call	?getSingleton@?$Singleton@VRenderSystem@Ogre@@@Ogre@@SAAAVRenderSystem@2@XZ ; Ogre::Singleton<Ogre::RenderSystem>::getSingleton
	mov	DWORD PTR tv71[ebp], eax
	mov	eax, DWORD PTR tv71[ebp]
	mov	edx, DWORD PTR [eax]
	mov	ecx, DWORD PTR tv71[ebp]
	mov	eax, DWORD PTR [edx+32]
	call	eax
	mov	DWORD PTR tv76[ebp], eax
	mov	ecx, DWORD PTR tv76[ebp]
	mov	edx, DWORD PTR [ecx]
	mov	ecx, DWORD PTR tv76[ebp]
	mov	eax, DWORD PTR [edx+56]
	call	eax
	mov	DWORD PTR _hWnd$113122[ebp], eax

; 54   : 		drawWnd = CreateWindowEx(
; 55   : 			WS_EX_NOPARENTNOTIFY|WS_EX_NOACTIVATE,
; 56   : 			"STATIC",
; 57   : 			"",
; 58   : 			WS_CHILD|WS_CLIPSIBLINGS,
; 59   : 			0, 0, 1, 1, hWnd, NULL, NULL, NULL);

	push	0
	push	0
	push	0
	mov	ecx, DWORD PTR _hWnd$113122[ebp]
	push	ecx
	push	1
	push	1
	push	0
	push	0
	push	1140850688				; 44000000H
	push	OFFSET $SG113123
	push	OFFSET $SG113124
	push	134217732				; 08000004H
	call	DWORD PTR __imp__CreateWindowExA@48
	mov	edx, DWORD PTR _this$[ebp]
	mov	DWORD PTR [edx+28], eax

; 60   : 
; 61   : 		HDC hdc = GetDC(drawWnd);

	mov	eax, DWORD PTR _this$[ebp]
	mov	ecx, DWORD PTR [eax+28]
	push	ecx
	call	DWORD PTR __imp__GetDC@4
	mov	DWORD PTR _hdc$113125[ebp], eax

; 62   : 		::SelectObject(hdc, GetStockObject(BLACK_BRUSH));

	push	4
	call	DWORD PTR __imp__GetStockObject@4
	push	eax
	mov	edx, DWORD PTR _hdc$113125[ebp]
	push	edx
	call	DWORD PTR __imp__SelectObject@8

; 63   : 		::SetBkColor(hdc, RGB(0, 0, 0));

	push	0
	mov	eax, DWORD PTR _hdc$113125[ebp]
	push	eax
	call	DWORD PTR __imp__SetBkColor@8

; 64   : 		SetTextAlign(hdc, TA_CENTER|TA_BOTTOM);

	push	14					; 0000000eH
	mov	ecx, DWORD PTR _hdc$113125[ebp]
	push	ecx
	call	DWORD PTR __imp__SetTextAlign@8

; 65   : 		ReleaseDC(drawWnd, hdc);

	mov	edx, DWORD PTR _hdc$113125[ebp]
	push	edx
	mov	eax, DWORD PTR _this$[ebp]
	mov	ecx, DWORD PTR [eax+28]
	push	ecx
	call	DWORD PTR __imp__ReleaseDC@8
$LN1@start:

; 66   : 	}
; 67   : 	running = true;

	mov	edx, DWORD PTR _this$[ebp]
	mov	BYTE PTR [edx+32], 1

; 68   : 	ShowWindow(drawWnd, TRUE);

	push	1
	mov	eax, DWORD PTR _this$[ebp]
	mov	ecx, DWORD PTR [eax+28]
	push	ecx
	call	DWORD PTR __imp__ShowWindow@8

; 69   : 	updateWindow();

	mov	ecx, DWORD PTR _this$[ebp]
	call	?updateWindow@MCIWrap@Ogre@@QAEXXZ	; Ogre::MCIWrap::updateWindow

; 70   : }

	mov	esp, ebp
	pop	ebp
	ret	0
?start@MCIWrap@Ogre@@QAEXXZ ENDP			; Ogre::MCIWrap::start
_TEXT	ENDS
PUBLIC	?pause@MCIWrap@Ogre@@QAEXXZ			; Ogre::MCIWrap::pause
; Function compile flags: /Odtp
_TEXT	SEGMENT
_this$ = -4						; size = 4
?pause@MCIWrap@Ogre@@QAEXXZ PROC			; Ogre::MCIWrap::pause
; _this$ = ecx

; 73   : {

	push	ebp
	mov	ebp, esp
	push	ecx
	mov	DWORD PTR _this$[ebp], ecx

; 74   : 	running = false;

	mov	eax, DWORD PTR _this$[ebp]
	mov	BYTE PTR [eax+32], 0

; 75   : }

	mov	esp, ebp
	pop	ebp
	ret	0
?pause@MCIWrap@Ogre@@QAEXXZ ENDP			; Ogre::MCIWrap::pause
_TEXT	ENDS
EXTRN	_av_close_input_file:PROC
EXTRN	_avcodec_close:PROC
; Function compile flags: /Odtp
_TEXT	SEGMENT
_this$ = -4						; size = 4
?stop@MCIWrap@Ogre@@QAEXXZ PROC				; Ogre::MCIWrap::stop
; _this$ = ecx

; 78   : {

	push	ebp
	mov	ebp, esp
	push	ecx
	mov	DWORD PTR _this$[ebp], ecx

; 79   : 	finish = true;

	mov	eax, DWORD PTR _this$[ebp]
	mov	BYTE PTR [eax+33], 1

; 80   : 	if (drawWnd)

	mov	ecx, DWORD PTR _this$[ebp]
	cmp	DWORD PTR [ecx+28], 0
	je	SHORT $LN3@stop

; 81   : 	{
; 82   : 		ShowWindow(drawWnd, FALSE);

	push	0
	mov	edx, DWORD PTR _this$[ebp]
	mov	eax, DWORD PTR [edx+28]
	push	eax
	call	DWORD PTR __imp__ShowWindow@8
$LN3@stop:

; 83   : 	}
; 84   : 	if (pCodecCtx)

	mov	ecx, DWORD PTR _this$[ebp]
	cmp	DWORD PTR [ecx+52], 0
	je	SHORT $LN2@stop

; 85   : 	{
; 86   : 		avcodec_close(pCodecCtx);

	mov	edx, DWORD PTR _this$[ebp]
	mov	eax, DWORD PTR [edx+52]
	push	eax
	call	_avcodec_close
	add	esp, 4

; 87   : 		pCodecCtx = NULL;

	mov	ecx, DWORD PTR _this$[ebp]
	mov	DWORD PTR [ecx+52], 0
$LN2@stop:

; 88   : 	}
; 89   : 	if (pFormatCtx)

	mov	edx, DWORD PTR _this$[ebp]
	cmp	DWORD PTR [edx+36], 0
	je	SHORT $LN4@stop

; 90   : 	{
; 91   : 		av_close_input_file(pFormatCtx);

	mov	eax, DWORD PTR _this$[ebp]
	mov	ecx, DWORD PTR [eax+36]
	push	ecx
	call	_av_close_input_file
	add	esp, 4

; 92   : 		pFormatCtx = NULL;

	mov	edx, DWORD PTR _this$[ebp]
	mov	DWORD PTR [edx+36], 0
$LN4@stop:

; 93   : 	}
; 94   : }

	mov	esp, ebp
	pop	ebp
	ret	0
?stop@MCIWrap@Ogre@@QAEXXZ ENDP				; Ogre::MCIWrap::stop
_TEXT	ENDS
PUBLIC	?clear@?$list@V?$basic_string@DU?$char_traits@D@std@@V?$allocator@D@2@@std@@V?$allocator@V?$basic_string@DU?$char_traits@D@std@@V?$allocator@D@2@@std@@@2@@std@@QAEXXZ ; std::list<std::basic_string<char,std::char_traits<char>,std::allocator<char> >,std::allocator<std::basic_string<char,std::char_traits<char>,std::allocator<char> > > >::clear
PUBLIC	?reset@MCIWrap@Ogre@@QAEXXZ			; Ogre::MCIWrap::reset
; Function compile flags: /Odtp
_TEXT	SEGMENT
_this$ = -4						; size = 4
?reset@MCIWrap@Ogre@@QAEXXZ PROC			; Ogre::MCIWrap::reset
; _this$ = ecx

; 97   : {

	push	ebp
	mov	ebp, esp
	push	ecx
	mov	DWORD PTR _this$[ebp], ecx

; 98   : 	playList.clear();

	mov	ecx, DWORD PTR _this$[ebp]
	call	?clear@?$list@V?$basic_string@DU?$char_traits@D@std@@V?$allocator@D@2@@std@@V?$allocator@V?$basic_string@DU?$char_traits@D@std@@V?$allocator@D@2@@std@@@2@@std@@QAEXXZ ; std::list<std::basic_string<char,std::char_traits<char>,std::allocator<char> >,std::allocator<std::basic_string<char,std::char_traits<char>,std::allocator<char> > > >::clear

; 99   : 	stop();

	mov	ecx, DWORD PTR _this$[ebp]
	call	?stop@MCIWrap@Ogre@@QAEXXZ		; Ogre::MCIWrap::stop

; 100  : }

	mov	esp, ebp
	pop	ebp
	ret	0
?reset@MCIWrap@Ogre@@QAEXXZ ENDP			; Ogre::MCIWrap::reset
_TEXT	ENDS
PUBLIC	?empty@?$list@V?$basic_string@DU?$char_traits@D@std@@V?$allocator@D@2@@std@@V?$allocator@V?$basic_string@DU?$char_traits@D@std@@V?$allocator@D@2@@std@@@2@@std@@QBE_NXZ ; std::list<std::basic_string<char,std::char_traits<char>,std::allocator<char> >,std::allocator<std::basic_string<char,std::char_traits<char>,std::allocator<char> > > >::empty
PUBLIC	?isPlaying@MCIWrap@Ogre@@QAE_NXZ		; Ogre::MCIWrap::isPlaying
; Function compile flags: /Odtp
_TEXT	SEGMENT
tv71 = -8						; size = 4
_this$ = -4						; size = 4
?isPlaying@MCIWrap@Ogre@@QAE_NXZ PROC			; Ogre::MCIWrap::isPlaying
; _this$ = ecx

; 103  : {

	push	ebp
	mov	ebp, esp
	sub	esp, 8
	mov	DWORD PTR _this$[ebp], ecx

; 104  : 	return running || !playList.empty();

	mov	eax, DWORD PTR _this$[ebp]
	movzx	ecx, BYTE PTR [eax+32]
	test	ecx, ecx
	jne	SHORT $LN3@isPlaying
	mov	ecx, DWORD PTR _this$[ebp]
	call	?empty@?$list@V?$basic_string@DU?$char_traits@D@std@@V?$allocator@D@2@@std@@V?$allocator@V?$basic_string@DU?$char_traits@D@std@@V?$allocator@D@2@@std@@@2@@std@@QBE_NXZ ; std::list<std::basic_string<char,std::char_traits<char>,std::allocator<char> >,std::allocator<std::basic_string<char,std::char_traits<char>,std::allocator<char> > > >::empty
	movzx	edx, al
	test	edx, edx
	je	SHORT $LN3@isPlaying
	mov	DWORD PTR tv71[ebp], 0
	jmp	SHORT $LN4@isPlaying
$LN3@isPlaying:
	mov	DWORD PTR tv71[ebp], 1
$LN4@isPlaying:
	mov	al, BYTE PTR tv71[ebp]

; 105  : }

	mov	esp, ebp
	pop	ebp
	ret	0
?isPlaying@MCIWrap@Ogre@@QAE_NXZ ENDP			; Ogre::MCIWrap::isPlaying
_TEXT	ENDS
PUBLIC	?getSingletonPtr@?$Singleton@VRenderSystem@Ogre@@@Ogre@@SAPAVRenderSystem@2@XZ ; Ogre::Singleton<Ogre::RenderSystem>::getSingletonPtr
EXTRN	__imp__MoveWindow@24:PROC
EXTRN	__imp__GetClientRect@8:PROC
EXTRN	__imp__IsIconic@4:PROC
; Function compile flags: /Odtp
_TEXT	SEGMENT
tv71 = -40						; size = 4
_this$ = -36						; size = 4
_hWnd$ = -32						; size = 4
_rect$ = -28						; size = 16
_h$ = -12						; size = 4
_pRenderSystem$ = -8					; size = 4
_w$ = -4						; size = 4
?updateWindow@MCIWrap@Ogre@@QAEXXZ PROC			; Ogre::MCIWrap::updateWindow
; _this$ = ecx

; 108  : {

	push	ebp
	mov	ebp, esp
	sub	esp, 40					; 00000028H
	mov	DWORD PTR _this$[ebp], ecx

; 109  : 	RenderSystem* pRenderSystem = RenderSystem::getSingletonPtr();

	call	?getSingletonPtr@?$Singleton@VRenderSystem@Ogre@@@Ogre@@SAPAVRenderSystem@2@XZ ; Ogre::Singleton<Ogre::RenderSystem>::getSingletonPtr
	mov	DWORD PTR _pRenderSystem$[ebp], eax

; 110  : 	if ( pRenderSystem == NULL )

	cmp	DWORD PTR _pRenderSystem$[ebp], 0
	jne	SHORT $LN5@updateWind

; 111  : 	{
; 112  : 		return;

	jmp	SHORT $LN6@updateWind
$LN5@updateWind:

; 113  : 	}
; 114  : 	HWND hWnd = HWND(pRenderSystem->getMainWindow()->getHWnd());

	mov	eax, DWORD PTR _pRenderSystem$[ebp]
	mov	edx, DWORD PTR [eax]
	mov	ecx, DWORD PTR _pRenderSystem$[ebp]
	mov	eax, DWORD PTR [edx+32]
	call	eax
	mov	DWORD PTR tv71[ebp], eax
	mov	ecx, DWORD PTR tv71[ebp]
	mov	edx, DWORD PTR [ecx]
	mov	ecx, DWORD PTR tv71[ebp]
	mov	eax, DWORD PTR [edx+56]
	call	eax
	mov	DWORD PTR _hWnd$[ebp], eax

; 115  : 	if (hWnd == NULL || IsIconic(hWnd))

	cmp	DWORD PTR _hWnd$[ebp], 0
	je	SHORT $LN3@updateWind
	mov	ecx, DWORD PTR _hWnd$[ebp]
	push	ecx
	call	DWORD PTR __imp__IsIconic@4
	test	eax, eax
	je	SHORT $LN4@updateWind
$LN3@updateWind:

; 116  : 	{
; 117  : 		return;

	jmp	SHORT $LN6@updateWind
$LN4@updateWind:

; 118  : 	}
; 119  : 	RECT rect;
; 120  : 	GetClientRect(hWnd, &rect);

	lea	edx, DWORD PTR _rect$[ebp]
	push	edx
	mov	eax, DWORD PTR _hWnd$[ebp]
	push	eax
	call	DWORD PTR __imp__GetClientRect@8

; 121  : 
; 122  : 	long w = rect.right - rect.left;

	mov	ecx, DWORD PTR _rect$[ebp+8]
	sub	ecx, DWORD PTR _rect$[ebp]
	mov	DWORD PTR _w$[ebp], ecx

; 123  : 	long h = rect.bottom - rect.top;

	mov	edx, DWORD PTR _rect$[ebp+12]
	sub	edx, DWORD PTR _rect$[ebp+4]
	mov	DWORD PTR _h$[ebp], edx

; 124  : 	if (w == 0 || h == 0)

	cmp	DWORD PTR _w$[ebp], 0
	je	SHORT $LN1@updateWind
	cmp	DWORD PTR _h$[ebp], 0
	jne	SHORT $LN2@updateWind
$LN1@updateWind:

; 125  : 	{
; 126  : 		return;

	jmp	SHORT $LN6@updateWind
$LN2@updateWind:

; 127  : 	}
; 128  : 	MoveWindow(drawWnd, 0, 0, w, h, true);

	push	1
	mov	eax, DWORD PTR _h$[ebp]
	push	eax
	mov	ecx, DWORD PTR _w$[ebp]
	push	ecx
	push	0
	push	0
	mov	edx, DWORD PTR _this$[ebp]
	mov	eax, DWORD PTR [edx+28]
	push	eax
	call	DWORD PTR __imp__MoveWindow@24
$LN6@updateWind:

; 129  : }

	mov	esp, ebp
	pop	ebp
	ret	0
?updateWindow@MCIWrap@Ogre@@QAEXXZ ENDP			; Ogre::MCIWrap::updateWindow
_TEXT	ENDS
PUBLIC	?GetNextFrame@@YA_NPAUAVFormatContext@@PAUAVCodecContext@@HPAUAVFrame@@@Z ; GetNextFrame
EXTRN	_av_read_frame:PROC
EXTRN	__imp__fprintf:PROC
EXTRN	__imp____iob_func:PROC
EXTRN	_avcodec_decode_video:PROC
;	COMDAT ?rawData@?1??GetNextFrame@@YA_NPAUAVFormatContext@@PAUAVCodecContext@@HPAUAVFrame@@@Z@4PAEA
_BSS	SEGMENT
?rawData@?1??GetNextFrame@@YA_NPAUAVFormatContext@@PAUAVCodecContext@@HPAUAVFrame@@@Z@4PAEA DD 01H DUP (?) ; `GetNextFrame'::`2'::rawData
_BSS	ENDS
;	COMDAT ?bytesRemaining@?1??GetNextFrame@@YA_NPAUAVFormatContext@@PAUAVCodecContext@@HPAUAVFrame@@@Z@4HA
_BSS	SEGMENT
?bytesRemaining@?1??GetNextFrame@@YA_NPAUAVFormatContext@@PAUAVCodecContext@@HPAUAVFrame@@@Z@4HA DD 01H DUP (?) ; `GetNextFrame'::`2'::bytesRemaining
_BSS	ENDS
;	COMDAT ?packet@?1??GetNextFrame@@YA_NPAUAVFormatContext@@PAUAVCodecContext@@HPAUAVFrame@@@Z@4UAVPacket@@A
_BSS	SEGMENT
?packet@?1??GetNextFrame@@YA_NPAUAVFormatContext@@PAUAVCodecContext@@HPAUAVFrame@@@Z@4UAVPacket@@A DB 038H DUP (?) ; `GetNextFrame'::`2'::packet
_BSS	ENDS
;	COMDAT ?fFirstTime@?1??GetNextFrame@@YA_NPAUAVFormatContext@@PAUAVCodecContext@@HPAUAVFrame@@@Z@4_NA
_DATA	SEGMENT
?fFirstTime@?1??GetNextFrame@@YA_NPAUAVFormatContext@@PAUAVCodecContext@@HPAUAVFrame@@@Z@4_NA DB 01H ; `GetNextFrame'::`2'::fFirstTime
_DATA	ENDS
xdata$x	SEGMENT
__catchsym$?GetNextFrame@@YA_NPAUAVFormatContext@@PAUAVCodecContext@@HPAUAVFrame@@@Z$3 DD 00H
	DD	00H
	DD	00H
	DD	FLAT:__catch$?GetNextFrame@@YA_NPAUAVFormatContext@@PAUAVCodecContext@@HPAUAVFrame@@@Z$0
__unwindtable$?GetNextFrame@@YA_NPAUAVFormatContext@@PAUAVCodecContext@@HPAUAVFrame@@@Z DD 0ffffffffH
	DD	00H
	DD	0ffffffffH
	DD	00H
__tryblocktable$?GetNextFrame@@YA_NPAUAVFormatContext@@PAUAVCodecContext@@HPAUAVFrame@@@Z DD 00H
	DD	00H
	DD	01H
	DD	01H
	DD	FLAT:__catchsym$?GetNextFrame@@YA_NPAUAVFormatContext@@PAUAVCodecContext@@HPAUAVFrame@@@Z$3
__ehfuncinfo$?GetNextFrame@@YA_NPAUAVFormatContext@@PAUAVCodecContext@@HPAUAVFrame@@@Z DD 019930522H
	DD	02H
	DD	FLAT:__unwindtable$?GetNextFrame@@YA_NPAUAVFormatContext@@PAUAVCodecContext@@HPAUAVFrame@@@Z
	DD	01H
	DD	FLAT:__tryblocktable$?GetNextFrame@@YA_NPAUAVFormatContext@@PAUAVCodecContext@@HPAUAVFrame@@@Z
	DD	2 DUP(00H)
	DD	00H
	DD	00H
; Function compile flags: /Odtp
xdata$x	ENDS
_TEXT	SEGMENT
$T118561 = -25						; size = 1
_frameFinished$ = -24					; size = 4
_bytesDecoded$ = -20					; size = 4
__$EHRec$ = -16						; size = 16
_pFormatCtx$ = 8					; size = 4
_pCodecCtx$ = 12					; size = 4
_videoStream$ = 16					; size = 4
_pFrame$ = 20						; size = 4
?GetNextFrame@@YA_NPAUAVFormatContext@@PAUAVCodecContext@@HPAUAVFrame@@@Z PROC ; GetNextFrame

; 133  : {

	push	ebp
	mov	ebp, esp
	push	-1
	push	__ehhandler$?GetNextFrame@@YA_NPAUAVFormatContext@@PAUAVCodecContext@@HPAUAVFrame@@@Z
	mov	eax, DWORD PTR fs:0
	push	eax
	push	ecx
	sub	esp, 12					; 0000000cH
	push	ebx
	push	esi
	push	edi
	mov	eax, DWORD PTR ___security_cookie
	xor	eax, ebp
	push	eax
	lea	eax, DWORD PTR __$EHRec$[ebp+4]
	mov	DWORD PTR fs:0, eax
	mov	DWORD PTR __$EHRec$[ebp], esp

; 134  : 	static AVPacket packet;
; 135  : 	static int      bytesRemaining=0;
; 136  : 	static uint8_t  *rawData;
; 137  : 	static bool     fFirstTime=true;
; 138  : 	int             bytesDecoded;
; 139  : 	int             frameFinished;
; 140  : 
; 141  : 	// First time we're called, set packet.data to NULL to indicate it
; 142  : 	// doesn't have to be freed
; 143  : 	if(fFirstTime)

	movzx	eax, BYTE PTR ?fFirstTime@?1??GetNextFrame@@YA_NPAUAVFormatContext@@PAUAVCodecContext@@HPAUAVFrame@@@Z@4_NA
	test	eax, eax
	je	SHORT $LN14@GetNextFra

; 144  : 	{
; 145  : 		fFirstTime=false;

	mov	BYTE PTR ?fFirstTime@?1??GetNextFrame@@YA_NPAUAVFormatContext@@PAUAVCodecContext@@HPAUAVFrame@@@Z@4_NA, 0

; 146  : 		packet.data=NULL;

	mov	DWORD PTR ?packet@?1??GetNextFrame@@YA_NPAUAVFormatContext@@PAUAVCodecContext@@HPAUAVFrame@@@Z@4UAVPacket@@A+16, 0
$LN14@GetNextFra:

; 147  : 	}
; 148  : 
; 149  : 	// Decode packets until we have decoded a complete frame
; 150  : 	while(true)

	mov	ecx, 1
	test	ecx, ecx
	je	$loop_exit$113193
$LN12@GetNextFra:

; 151  : 	{
; 152  : 		// Work on the current packet until we have decoded all of it
; 153  : 		while(bytesRemaining > 0)

	cmp	DWORD PTR ?bytesRemaining@?1??GetNextFrame@@YA_NPAUAVFormatContext@@PAUAVCodecContext@@HPAUAVFrame@@@Z@4HA, 0
	jle	$LN7@GetNextFra

; 154  : 		{
; 155  : 			try
; 156  : 			{

	mov	DWORD PTR __$EHRec$[ebp+12], 0

; 157  : 				// Decode the next chunk of data
; 158  : 				bytesDecoded=avcodec_decode_video(pCodecCtx, pFrame,
; 159  : 					&frameFinished, rawData, bytesRemaining);

	mov	edx, DWORD PTR ?bytesRemaining@?1??GetNextFrame@@YA_NPAUAVFormatContext@@PAUAVCodecContext@@HPAUAVFrame@@@Z@4HA
	push	edx
	mov	eax, DWORD PTR ?rawData@?1??GetNextFrame@@YA_NPAUAVFormatContext@@PAUAVCodecContext@@HPAUAVFrame@@@Z@4PAEA
	push	eax
	lea	ecx, DWORD PTR _frameFinished$[ebp]
	push	ecx
	mov	edx, DWORD PTR _pFrame$[ebp]
	push	edx
	mov	eax, DWORD PTR _pCodecCtx$[ebp]
	push	eax
	call	_avcodec_decode_video
	add	esp, 20					; 00000014H
	mov	DWORD PTR _bytesDecoded$[ebp], eax

; 160  : 			}

	jmp	SHORT $LN18@GetNextFra
__catch$?GetNextFrame@@YA_NPAUAVFormatContext@@PAUAVCodecContext@@HPAUAVFrame@@@Z$0:

; 161  : 			catch(...)
; 162  : 			{
; 163  : 				return false;

	mov	BYTE PTR $T118561[ebp], 0
	mov	DWORD PTR __$EHRec$[ebp+12], -1
	mov	eax, $LN21@GetNextFra
	ret	0

; 164  : 			}

	mov	eax, $LN18@GetNextFra
	ret	0
$LN18@GetNextFra:
	mov	DWORD PTR __$EHRec$[ebp+12], -1
	jmp	SHORT $LN20@GetNextFra
$LN21@GetNextFra:

; 161  : 			catch(...)
; 162  : 			{
; 163  : 				return false;

	mov	al, BYTE PTR $T118561[ebp]
	jmp	$LN16@GetNextFra
$LN20@GetNextFra:

; 165  : 
; 166  : 			// Was there an error?
; 167  : 			if(bytesDecoded < 0)

	cmp	DWORD PTR _bytesDecoded$[ebp], 0
	jge	SHORT $LN9@GetNextFra

; 168  : 			{
; 169  : 				fprintf(stderr, "Error while decoding frame\n");

	push	OFFSET $SG113186
	call	DWORD PTR __imp____iob_func
	add	eax, 64					; 00000040H
	push	eax
	call	DWORD PTR __imp__fprintf
	add	esp, 8

; 170  : 				return false;

	xor	al, al
	jmp	$LN16@GetNextFra
$LN9@GetNextFra:

; 171  : 			}
; 172  : 
; 173  : 			bytesRemaining-=bytesDecoded;

	mov	ecx, DWORD PTR ?bytesRemaining@?1??GetNextFrame@@YA_NPAUAVFormatContext@@PAUAVCodecContext@@HPAUAVFrame@@@Z@4HA
	sub	ecx, DWORD PTR _bytesDecoded$[ebp]
	mov	DWORD PTR ?bytesRemaining@?1??GetNextFrame@@YA_NPAUAVFormatContext@@PAUAVCodecContext@@HPAUAVFrame@@@Z@4HA, ecx

; 174  : 			rawData+=bytesDecoded;

	mov	edx, DWORD PTR ?rawData@?1??GetNextFrame@@YA_NPAUAVFormatContext@@PAUAVCodecContext@@HPAUAVFrame@@@Z@4PAEA
	add	edx, DWORD PTR _bytesDecoded$[ebp]
	mov	DWORD PTR ?rawData@?1??GetNextFrame@@YA_NPAUAVFormatContext@@PAUAVCodecContext@@HPAUAVFrame@@@Z@4PAEA, edx

; 175  : 
; 176  : 			// Did we finish the current frame? Then we can return
; 177  : 			if(frameFinished)

	cmp	DWORD PTR _frameFinished$[ebp], 0
	je	SHORT $LN8@GetNextFra

; 178  : 				return true;

	mov	al, 1
	jmp	$LN16@GetNextFra
$LN8@GetNextFra:

; 179  : 		}

	jmp	$LN12@GetNextFra
$LN7@GetNextFra:

; 180  : 
; 181  : 		// Read the next packet, skipping all packets that aren't for this
; 182  : 		// stream
; 183  : 		do
; 184  : 		{
; 185  : 			// Free old packet
; 186  : 			if(packet.data!=NULL)

	cmp	DWORD PTR ?packet@?1??GetNextFrame@@YA_NPAUAVFormatContext@@PAUAVCodecContext@@HPAUAVFrame@@@Z@4UAVPacket@@A+16, 0
	je	SHORT $LN4@GetNextFra

; 187  : 				av_free_packet(&packet);

	push	OFFSET ?packet@?1??GetNextFrame@@YA_NPAUAVFormatContext@@PAUAVCodecContext@@HPAUAVFrame@@@Z@4UAVPacket@@A
	call	_av_free_packet
	add	esp, 4
$LN4@GetNextFra:

; 188  : 			// Read new packet
; 189  : 			if(av_read_frame(pFormatCtx, &packet)<0)

	push	OFFSET ?packet@?1??GetNextFrame@@YA_NPAUAVFormatContext@@PAUAVCodecContext@@HPAUAVFrame@@@Z@4UAVPacket@@A
	mov	eax, DWORD PTR _pFormatCtx$[ebp]
	push	eax
	call	_av_read_frame
	add	esp, 8
	test	eax, eax
	jge	SHORT $LN6@GetNextFra

; 190  : 				goto loop_exit;

	jmp	SHORT $loop_exit$113193
$LN6@GetNextFra:

; 191  : 		} while(packet.stream_index!=videoStream);

	mov	ecx, DWORD PTR ?packet@?1??GetNextFrame@@YA_NPAUAVFormatContext@@PAUAVCodecContext@@HPAUAVFrame@@@Z@4UAVPacket@@A+24
	cmp	ecx, DWORD PTR _videoStream$[ebp]
	jne	SHORT $LN7@GetNextFra

; 192  : 
; 193  : 		bytesRemaining=packet.size;

	mov	edx, DWORD PTR ?packet@?1??GetNextFrame@@YA_NPAUAVFormatContext@@PAUAVCodecContext@@HPAUAVFrame@@@Z@4UAVPacket@@A+20
	mov	DWORD PTR ?bytesRemaining@?1??GetNextFrame@@YA_NPAUAVFormatContext@@PAUAVCodecContext@@HPAUAVFrame@@@Z@4HA, edx

; 194  : 		rawData=packet.data;

	mov	eax, DWORD PTR ?packet@?1??GetNextFrame@@YA_NPAUAVFormatContext@@PAUAVCodecContext@@HPAUAVFrame@@@Z@4UAVPacket@@A+16
	mov	DWORD PTR ?rawData@?1??GetNextFrame@@YA_NPAUAVFormatContext@@PAUAVCodecContext@@HPAUAVFrame@@@Z@4PAEA, eax

; 195  : 	}

	jmp	$LN14@GetNextFra
$loop_exit$113193:

; 196  : 
; 197  : loop_exit:
; 198  : 
; 199  : 	// Decode the rest of the last frame
; 200  : 	bytesDecoded=avcodec_decode_video(pCodecCtx, pFrame, &frameFinished, 
; 201  : 		rawData, bytesRemaining);

	mov	ecx, DWORD PTR ?bytesRemaining@?1??GetNextFrame@@YA_NPAUAVFormatContext@@PAUAVCodecContext@@HPAUAVFrame@@@Z@4HA
	push	ecx
	mov	edx, DWORD PTR ?rawData@?1??GetNextFrame@@YA_NPAUAVFormatContext@@PAUAVCodecContext@@HPAUAVFrame@@@Z@4PAEA
	push	edx
	lea	eax, DWORD PTR _frameFinished$[ebp]
	push	eax
	mov	ecx, DWORD PTR _pFrame$[ebp]
	push	ecx
	mov	edx, DWORD PTR _pCodecCtx$[ebp]
	push	edx
	call	_avcodec_decode_video
	add	esp, 20					; 00000014H
	mov	DWORD PTR _bytesDecoded$[ebp], eax

; 202  : 
; 203  : 	// Free last packet
; 204  : 	if(packet.data!=NULL)

	cmp	DWORD PTR ?packet@?1??GetNextFrame@@YA_NPAUAVFormatContext@@PAUAVCodecContext@@HPAUAVFrame@@@Z@4UAVPacket@@A+16, 0
	je	SHORT $LN1@GetNextFra

; 205  : 		av_free_packet(&packet);

	push	OFFSET ?packet@?1??GetNextFrame@@YA_NPAUAVFormatContext@@PAUAVCodecContext@@HPAUAVFrame@@@Z@4UAVPacket@@A
	call	_av_free_packet
	add	esp, 4
$LN1@GetNextFra:

; 206  : 
; 207  : 	return frameFinished!=0;

	xor	eax, eax
	cmp	DWORD PTR _frameFinished$[ebp], 0
	setne	al
$LN16@GetNextFra:

; 208  : }

	mov	ecx, DWORD PTR __$EHRec$[ebp+4]
	mov	DWORD PTR fs:0, ecx
	pop	ecx
	pop	edi
	pop	esi
	pop	ebx
	mov	esp, ebp
	pop	ebp
	ret	0
_TEXT	ENDS
text$x	SEGMENT
__ehhandler$?GetNextFrame@@YA_NPAUAVFormatContext@@PAUAVCodecContext@@HPAUAVFrame@@@Z:
	mov	edx, DWORD PTR [esp+8]
	lea	eax, DWORD PTR [edx+12]
	mov	ecx, DWORD PTR [edx-32]
	xor	ecx, eax
	call	@__security_check_cookie@4
	mov	eax, OFFSET __ehfuncinfo$?GetNextFrame@@YA_NPAUAVFormatContext@@PAUAVCodecContext@@HPAUAVFrame@@@Z
	jmp	___CxxFrameHandler3
text$x	ENDS
?GetNextFrame@@YA_NPAUAVFormatContext@@PAUAVCodecContext@@HPAUAVFrame@@@Z ENDP ; GetNextFrame
; Function compile flags: /Odtp
; File i:\svnroot\client\sdk\ffmpeg\include\avformat.h
_TEXT	SEGMENT
_pkt$ = 8						; size = 4
_av_free_packet PROC

; 96   : {

	push	ebp
	mov	ebp, esp

; 97   :     if (pkt && pkt->destruct) {

	cmp	DWORD PTR _pkt$[ebp], 0
	je	SHORT $LN2@av_free_pa
	mov	eax, DWORD PTR _pkt$[ebp]
	cmp	DWORD PTR [eax+36], 0
	je	SHORT $LN2@av_free_pa

; 98   :         pkt->destruct(pkt);

	mov	ecx, DWORD PTR _pkt$[ebp]
	push	ecx
	mov	edx, DWORD PTR _pkt$[ebp]
	mov	eax, DWORD PTR [edx+36]
	call	eax
	add	esp, 4
$LN2@av_free_pa:

; 99   :     }
; 100  : }

	pop	ebp
	ret	0
_av_free_packet ENDP
_TEXT	ENDS
PUBLIC	?pop_front@?$list@V?$basic_string@DU?$char_traits@D@std@@V?$allocator@D@2@@std@@V?$allocator@V?$basic_string@DU?$char_traits@D@std@@V?$allocator@D@2@@std@@@2@@std@@QAEXXZ ; std::list<std::basic_string<char,std::char_traits<char>,std::allocator<char> >,std::allocator<std::basic_string<char,std::char_traits<char>,std::allocator<char> > > >::pop_front
PUBLIC	?front@?$list@V?$basic_string@DU?$char_traits@D@std@@V?$allocator@D@2@@std@@V?$allocator@V?$basic_string@DU?$char_traits@D@std@@V?$allocator@D@2@@std@@@2@@std@@QAEAAV?$basic_string@DU?$char_traits@D@std@@V?$allocator@D@2@@2@XZ ; std::list<std::basic_string<char,std::char_traits<char>,std::allocator<char> >,std::allocator<std::basic_string<char,std::char_traits<char>,std::allocator<char> > > >::front
PUBLIC	?update@MCIWrap@Ogre@@QAEXI@Z			; Ogre::MCIWrap::update
EXTRN	__imp__free:PROC
EXTRN	__imp__BitBlt@36:PROC
EXTRN	__imp__DeleteObject@4:PROC
EXTRN	__imp__DeleteDC@4:PROC
EXTRN	__imp__StretchBlt@44:PROC
EXTRN	__imp__SetDIBits@28:PROC
EXTRN	__imp__FillRect@12:PROC
EXTRN	__imp__CreateCompatibleDC@4:PROC
EXTRN	__imp__CreateCompatibleBitmap@12:PROC
EXTRN	_av_free:PROC
EXTRN	_memcpy:PROC
EXTRN	??_V@YAXPAX@Z:PROC				; operator delete[]
EXTRN	_avpicture_layout:PROC
EXTRN	__imp__malloc:PROC
EXTRN	_img_convert:PROC
EXTRN	_avpicture_fill:PROC
EXTRN	_memset:PROC
EXTRN	??_U@YAPAXI@Z:PROC				; operator new[]
EXTRN	_avpicture_get_size:PROC
EXTRN	_avcodec_alloc_frame:PROC
EXTRN	_dump_format:PROC
EXTRN	_av_seek_frame:PROC
EXTRN	_avcodec_open:PROC
EXTRN	_avcodec_find_decoder:PROC
EXTRN	_av_find_stream_info:PROC
EXTRN	_av_open_input_file:PROC
EXTRN	__imp_?c_str@?$basic_string@DU?$char_traits@D@std@@V?$allocator@D@2@@std@@QBEPBDXZ:PROC
EXTRN	__fltused:DWORD
; Function compile flags: /Odtp
; File i:\svnroot\client\ogremain\ogremci.cpp
_TEXT	SEGMENT
_this$ = -180						; size = 4
$T118577 = -176						; size = 4
$T118576 = -172						; size = 4
_memdc$113265 = -168					; size = 4
_backBitmap$113258 = -164				; size = 4
_bitmap$113264 = -160					; size = 4
_b$113267 = -156					; size = 4
_vh$113254 = -152					; size = 4
_vw$113253 = -148					; size = 4
_oldBackbmp$113260 = -144				; size = 4
_oldbmp$113266 = -140					; size = 4
_rect$113255 = -136					; size = 16
_backdc$113259 = -120					; size = 4
_h$113257 = -116					; size = 4
_w$113256 = -112					; size = 4
_i$113245 = -108					; size = 4
_numBytes$113229 = -104					; size = 4
_hdc$113252 = -100					; size = 4
_buffer$113230 = -96					; size = 4
_k$113244 = -92						; size = 4
_binfo$113249 = -88					; size = 44
_size$113236 = -44					; size = 4
_buff111$113237 = -40					; size = 4
_s$113241 = -36						; size = 4
_buff222$113239 = -32					; size = 4
_pFrameRGB$113228 = -28					; size = 4
_pFrame$113226 = -24					; size = 4
_r$113224 = -20						; size = 4
_i$113211 = -16						; size = 4
_pCodec$113220 = -12					; size = 4
_filename$113207 = -8					; size = 4
_result$113208 = -4					; size = 4
_dtick$ = 8						; size = 4
?update@MCIWrap@Ogre@@QAEXI@Z PROC			; Ogre::MCIWrap::update
; _this$ = ecx

; 211  : {

	push	ebp
	mov	ebp, esp
	sub	esp, 180				; 000000b4H
	mov	DWORD PTR _this$[ebp], ecx

; 212  : 	if (!running)

	mov	eax, DWORD PTR _this$[ebp]
	movzx	ecx, BYTE PTR [eax+32]
	test	ecx, ecx
	jne	SHORT $LN29@update

; 213  : 	{
; 214  : 		return;

	jmp	$LN30@update
$LN29@update:

; 215  : 	}
; 216  : 	if (finish)

	mov	edx, DWORD PTR _this$[ebp]
	movzx	eax, BYTE PTR [edx+33]
	test	eax, eax
	je	$LN28@update

; 217  : 	{
; 218  : 		stop();

	mov	ecx, DWORD PTR _this$[ebp]
	call	?stop@MCIWrap@Ogre@@QAEXXZ		; Ogre::MCIWrap::stop

; 219  : 		if (playList.empty())

	mov	ecx, DWORD PTR _this$[ebp]
	call	?empty@?$list@V?$basic_string@DU?$char_traits@D@std@@V?$allocator@D@2@@std@@V?$allocator@V?$basic_string@DU?$char_traits@D@std@@V?$allocator@D@2@@std@@@2@@std@@QBE_NXZ ; std::list<std::basic_string<char,std::char_traits<char>,std::allocator<char> >,std::allocator<std::basic_string<char,std::char_traits<char>,std::allocator<char> > > >::empty
	movzx	ecx, al
	test	ecx, ecx
	je	SHORT $LN27@update

; 220  : 		{
; 221  : 			running = false;

	mov	edx, DWORD PTR _this$[ebp]
	mov	BYTE PTR [edx+32], 0

; 222  : 		}
; 223  : 		else

	jmp	$LN26@update
$LN27@update:

; 224  : 		{
; 225  : 			while (!playList.empty())

	mov	ecx, DWORD PTR _this$[ebp]
	call	?empty@?$list@V?$basic_string@DU?$char_traits@D@std@@V?$allocator@D@2@@std@@V?$allocator@V?$basic_string@DU?$char_traits@D@std@@V?$allocator@D@2@@std@@@2@@std@@QBE_NXZ ; std::list<std::basic_string<char,std::char_traits<char>,std::allocator<char> >,std::allocator<std::basic_string<char,std::char_traits<char>,std::allocator<char> > > >::empty
	movzx	eax, al
	test	eax, eax
	jne	$LN24@update

; 226  : 			{
; 227  : 				const char *filename = playList.front().c_str();

	mov	ecx, DWORD PTR _this$[ebp]
	call	?front@?$list@V?$basic_string@DU?$char_traits@D@std@@V?$allocator@D@2@@std@@V?$allocator@V?$basic_string@DU?$char_traits@D@std@@V?$allocator@D@2@@std@@@2@@std@@QAEAAV?$basic_string@DU?$char_traits@D@std@@V?$allocator@D@2@@2@XZ ; std::list<std::basic_string<char,std::char_traits<char>,std::allocator<char> >,std::allocator<std::basic_string<char,std::char_traits<char>,std::allocator<char> > > >::front
	mov	ecx, eax
	call	DWORD PTR __imp_?c_str@?$basic_string@DU?$char_traits@D@std@@V?$allocator@D@2@@std@@QBEPBDXZ
	mov	DWORD PTR _filename$113207[ebp], eax

; 228  : 				int result = av_open_input_file(&pFormatCtx, filename, NULL, 0, NULL);

	push	0
	push	0
	push	0
	mov	ecx, DWORD PTR _filename$113207[ebp]
	push	ecx
	mov	edx, DWORD PTR _this$[ebp]
	add	edx, 36					; 00000024H
	push	edx
	call	_av_open_input_file
	add	esp, 20					; 00000014H
	mov	DWORD PTR _result$113208[ebp], eax

; 229  : 				playList.pop_front();

	mov	ecx, DWORD PTR _this$[ebp]
	call	?pop_front@?$list@V?$basic_string@DU?$char_traits@D@std@@V?$allocator@D@2@@std@@V?$allocator@V?$basic_string@DU?$char_traits@D@std@@V?$allocator@D@2@@std@@@2@@std@@QAEXXZ ; std::list<std::basic_string<char,std::char_traits<char>,std::allocator<char> >,std::allocator<std::basic_string<char,std::char_traits<char>,std::allocator<char> > > >::pop_front

; 230  : 				if (0 == result)

	cmp	DWORD PTR _result$113208[ebp], 0
	jne	$LN23@update

; 231  : 				{
; 232  : 					if (av_find_stream_info(pFormatCtx) >= 0)

	mov	eax, DWORD PTR _this$[ebp]
	mov	ecx, DWORD PTR [eax+36]
	push	ecx
	call	_av_find_stream_info
	add	esp, 4
	test	eax, eax
	jl	$LN11@update

; 233  : 					{
; 234  : 						videoStream = -1;

	mov	edx, DWORD PTR _this$[ebp]
	mov	DWORD PTR [edx+44], -1

; 235  : 						audioStream = -1;

	mov	eax, DWORD PTR _this$[ebp]
	mov	DWORD PTR [eax+48], -1

; 236  : 						// Find the first video stream
; 237  : 						for (unsigned int i = 0; i < pFormatCtx->nb_streams; ++i)

	mov	DWORD PTR _i$113211[ebp], 0
	jmp	SHORT $LN21@update
$LN20@update:
	mov	ecx, DWORD PTR _i$113211[ebp]
	add	ecx, 1
	mov	DWORD PTR _i$113211[ebp], ecx
$LN21@update:
	mov	edx, DWORD PTR _this$[ebp]
	mov	eax, DWORD PTR [edx+36]
	mov	ecx, DWORD PTR _i$113211[ebp]
	cmp	ecx, DWORD PTR [eax+96]
	jae	SHORT $LN19@update

; 238  : 						{
; 239  : 							if (CODEC_TYPE_VIDEO == pFormatCtx->streams[i]->codec->codec_type)

	mov	edx, DWORD PTR _this$[ebp]
	mov	eax, DWORD PTR [edx+36]
	mov	ecx, DWORD PTR _i$113211[ebp]
	mov	edx, DWORD PTR [eax+ecx*4+100]
	mov	eax, DWORD PTR [edx+8]
	cmp	DWORD PTR [eax+224], 0
	jne	SHORT $LN18@update

; 240  : 							{
; 241  : 								if (-1 == videoStream)

	mov	ecx, DWORD PTR _this$[ebp]
	cmp	DWORD PTR [ecx+44], -1
	jne	SHORT $LN17@update

; 242  : 								{
; 243  : 									videoStream = i;

	mov	edx, DWORD PTR _this$[ebp]
	mov	eax, DWORD PTR _i$113211[ebp]
	mov	DWORD PTR [edx+44], eax
$LN17@update:

; 244  : 								}
; 245  : 							}

	jmp	SHORT $LN14@update
$LN18@update:

; 246  : 							else if (CODEC_TYPE_AUDIO == pFormatCtx->streams[i]->codec->codec_type)

	mov	ecx, DWORD PTR _this$[ebp]
	mov	edx, DWORD PTR [ecx+36]
	mov	eax, DWORD PTR _i$113211[ebp]
	mov	ecx, DWORD PTR [edx+eax*4+100]
	mov	edx, DWORD PTR [ecx+8]
	cmp	DWORD PTR [edx+224], 1
	jne	SHORT $LN14@update

; 247  : 							{
; 248  : 								if (-1 == audioStream)

	mov	eax, DWORD PTR _this$[ebp]
	cmp	DWORD PTR [eax+48], -1
	jne	SHORT $LN14@update

; 249  : 								{
; 250  : 									audioStream = i;

	mov	ecx, DWORD PTR _this$[ebp]
	mov	edx, DWORD PTR _i$113211[ebp]
	mov	DWORD PTR [ecx+48], edx
$LN14@update:

; 251  : 								}
; 252  : 							}
; 253  : 						}

	jmp	$LN20@update
$LN19@update:

; 254  : 						// Get a pointer to the codec context for the video stream
; 255  : 						pCodecCtx = pFormatCtx->streams[videoStream]->codec;

	mov	eax, DWORD PTR _this$[ebp]
	mov	ecx, DWORD PTR [eax+36]
	mov	edx, DWORD PTR _this$[ebp]
	mov	eax, DWORD PTR [edx+44]
	mov	ecx, DWORD PTR [ecx+eax*4+100]
	mov	edx, DWORD PTR _this$[ebp]
	mov	eax, DWORD PTR [ecx+8]
	mov	DWORD PTR [edx+52], eax

; 256  : 						AVCodec *pCodec = avcodec_find_decoder(pCodecCtx->codec_id);

	mov	ecx, DWORD PTR _this$[ebp]
	mov	edx, DWORD PTR [ecx+52]
	mov	eax, DWORD PTR [edx+228]
	push	eax
	call	_avcodec_find_decoder
	add	esp, 4
	mov	DWORD PTR _pCodec$113220[ebp], eax

; 257  : 						if (pCodec)

	cmp	DWORD PTR _pCodec$113220[ebp], 0
	je	SHORT $LN11@update

; 258  : 						{
; 259  : 							if (pCodec->capabilities & CODEC_CAP_TRUNCATED)

	mov	ecx, DWORD PTR _pCodec$113220[ebp]
	mov	edx, DWORD PTR [ecx+32]
	and	edx, 8
	je	SHORT $LN12@update

; 260  : 								pCodecCtx->flags |= CODEC_FLAG_TRUNCATED;

	mov	eax, DWORD PTR _this$[ebp]
	mov	ecx, DWORD PTR [eax+52]
	mov	edx, DWORD PTR [ecx+12]
	or	edx, 65536				; 00010000H
	mov	eax, DWORD PTR _this$[ebp]
	mov	ecx, DWORD PTR [eax+52]
	mov	DWORD PTR [ecx+12], edx
$LN12@update:

; 261  : 
; 262  : 							// Open codec
; 263  : 							if (avcodec_open(pCodecCtx, pCodec) >= 0)

	mov	edx, DWORD PTR _pCodec$113220[ebp]
	push	edx
	mov	eax, DWORD PTR _this$[ebp]
	mov	ecx, DWORD PTR [eax+52]
	push	ecx
	call	_avcodec_open
	add	esp, 8
	test	eax, eax
	jl	SHORT $LN11@update

; 264  : 							{
; 265  : 								int r = av_seek_frame(pFormatCtx, -1, 2 * AV_TIME_BASE, AVSEEK_FLAG_BACKWARD|AVSEEK_FLAG_ANY);

	push	5
	push	0
	push	2000000					; 001e8480H
	push	-1
	mov	edx, DWORD PTR _this$[ebp]
	mov	eax, DWORD PTR [edx+36]
	push	eax
	call	_av_seek_frame
	add	esp, 20					; 00000014H
	mov	DWORD PTR _r$113224[ebp], eax

; 266  : 								finish = false;

	mov	ecx, DWORD PTR _this$[ebp]
	mov	BYTE PTR [ecx+33], 0

; 267  : 								cursor = 0;

	mov	edx, DWORD PTR _this$[ebp]
	mov	DWORD PTR [edx+40], 0

; 268  : 								break;

	jmp	SHORT $LN24@update
$LN11@update:

; 269  : 							}
; 270  : 							//else Could not open codec
; 271  : 						}
; 272  : 					}
; 273  : 					dump_format(pFormatCtx, 0, filename, false);

	push	0
	mov	eax, DWORD PTR _filename$113207[ebp]
	push	eax
	push	0
	mov	ecx, DWORD PTR _this$[ebp]
	mov	edx, DWORD PTR [ecx+36]
	push	edx
	call	_dump_format
	add	esp, 16					; 00000010H

; 274  : 					av_close_input_file(pFormatCtx);

	mov	eax, DWORD PTR _this$[ebp]
	mov	ecx, DWORD PTR [eax+36]
	push	ecx
	call	_av_close_input_file
	add	esp, 4
$LN23@update:

; 275  : 				}
; 276  : 				// LOG_WARNNING
; 277  : 			}

	jmp	$LN27@update
$LN24@update:

; 278  : 			ShowWindow(drawWnd, TRUE);

	push	1
	mov	edx, DWORD PTR _this$[ebp]
	mov	eax, DWORD PTR [edx+28]
	push	eax
	call	DWORD PTR __imp__ShowWindow@8
$LN26@update:

; 279  : 		}
; 280  : 	}
; 281  : 	else

	jmp	$LN10@update
$LN28@update:

; 282  : 	{
; 283  : 		AVFrame *pFrame;
; 284  : 		pFrame = avcodec_alloc_frame();

	call	_avcodec_alloc_frame
	mov	DWORD PTR _pFrame$113226[ebp], eax

; 285  : 		if (GetNextFrame(pFormatCtx, pCodecCtx, videoStream, pFrame))

	mov	ecx, DWORD PTR _pFrame$113226[ebp]
	push	ecx
	mov	edx, DWORD PTR _this$[ebp]
	mov	eax, DWORD PTR [edx+44]
	push	eax
	mov	ecx, DWORD PTR _this$[ebp]
	mov	edx, DWORD PTR [ecx+52]
	push	edx
	mov	eax, DWORD PTR _this$[ebp]
	mov	ecx, DWORD PTR [eax+36]
	push	ecx
	call	?GetNextFrame@@YA_NPAUAVFormatContext@@PAUAVCodecContext@@HPAUAVFrame@@@Z ; GetNextFrame
	add	esp, 16					; 00000010H
	movzx	edx, al
	test	edx, edx
	je	$LN9@update

; 286  : 		{
; 287  : 			AVFrame *pFrameRGB;
; 288  : 			pFrameRGB=avcodec_alloc_frame();

	call	_avcodec_alloc_frame
	mov	DWORD PTR _pFrameRGB$113228[ebp], eax

; 289  : 			int numBytes=avpicture_get_size(PIX_FMT_BGR24, pCodecCtx->width,
; 290  : 				pCodecCtx->height);

	mov	eax, DWORD PTR _this$[ebp]
	mov	ecx, DWORD PTR [eax+52]
	mov	edx, DWORD PTR [ecx+44]
	push	edx
	mov	eax, DWORD PTR _this$[ebp]
	mov	ecx, DWORD PTR [eax+52]
	mov	edx, DWORD PTR [ecx+40]
	push	edx
	push	3
	call	_avpicture_get_size
	add	esp, 12					; 0000000cH
	mov	DWORD PTR _numBytes$113229[ebp], eax

; 291  : 			uint8_t *buffer=new uint8_t[numBytes];

	mov	eax, DWORD PTR _numBytes$113229[ebp]
	push	eax
	call	??_U@YAPAXI@Z				; operator new[]
	add	esp, 4
	mov	DWORD PTR $T118576[ebp], eax
	mov	ecx, DWORD PTR $T118576[ebp]
	mov	DWORD PTR _buffer$113230[ebp], ecx

; 292  : 			memset(buffer, 0, numBytes);

	mov	edx, DWORD PTR _numBytes$113229[ebp]
	push	edx
	push	0
	mov	eax, DWORD PTR _buffer$113230[ebp]
	push	eax
	call	_memset
	add	esp, 12					; 0000000cH

; 293  : 			avpicture_fill((AVPicture *)pFrameRGB, buffer, PIX_FMT_BGR24,
; 294  : 				pCodecCtx->width, pCodecCtx->height);

	mov	ecx, DWORD PTR _this$[ebp]
	mov	edx, DWORD PTR [ecx+52]
	mov	eax, DWORD PTR [edx+44]
	push	eax
	mov	ecx, DWORD PTR _this$[ebp]
	mov	edx, DWORD PTR [ecx+52]
	mov	eax, DWORD PTR [edx+40]
	push	eax
	push	3
	mov	ecx, DWORD PTR _buffer$113230[ebp]
	push	ecx
	mov	edx, DWORD PTR _pFrameRGB$113228[ebp]
	push	edx
	call	_avpicture_fill
	add	esp, 20					; 00000014H

; 295  : 			img_convert((AVPicture *)pFrameRGB, PIX_FMT_BGR24, (AVPicture*)pFrame, 
; 296  : 				pCodecCtx->pix_fmt, pCodecCtx->width, pCodecCtx->height);

	mov	eax, DWORD PTR _this$[ebp]
	mov	ecx, DWORD PTR [eax+52]
	mov	edx, DWORD PTR [ecx+44]
	push	edx
	mov	eax, DWORD PTR _this$[ebp]
	mov	ecx, DWORD PTR [eax+52]
	mov	edx, DWORD PTR [ecx+40]
	push	edx
	mov	eax, DWORD PTR _this$[ebp]
	mov	ecx, DWORD PTR [eax+52]
	mov	edx, DWORD PTR [ecx+52]
	push	edx
	mov	eax, DWORD PTR _pFrame$113226[ebp]
	push	eax
	push	3
	mov	ecx, DWORD PTR _pFrameRGB$113228[ebp]
	push	ecx
	call	_img_convert
	add	esp, 24					; 00000018H

; 297  : 			int size = avpicture_get_size(PIX_FMT_BGR24, pCodecCtx->width, pCodecCtx->height);

	mov	edx, DWORD PTR _this$[ebp]
	mov	eax, DWORD PTR [edx+52]
	mov	ecx, DWORD PTR [eax+44]
	push	ecx
	mov	edx, DWORD PTR _this$[ebp]
	mov	eax, DWORD PTR [edx+52]
	mov	ecx, DWORD PTR [eax+40]
	push	ecx
	push	3
	call	_avpicture_get_size
	add	esp, 12					; 0000000cH
	mov	DWORD PTR _size$113236[ebp], eax

; 298  : 			uint8_t *buff111 = (uint8_t *)malloc(size);

	mov	edx, DWORD PTR _size$113236[ebp]
	push	edx
	call	DWORD PTR __imp__malloc
	add	esp, 4
	mov	DWORD PTR _buff111$113237[ebp], eax

; 299  : 			uint8_t *buff222 = (uint8_t *)malloc(size);

	mov	eax, DWORD PTR _size$113236[ebp]
	push	eax
	call	DWORD PTR __imp__malloc
	add	esp, 4
	mov	DWORD PTR _buff222$113239[ebp], eax

; 300  : 			int s = avpicture_layout((AVPicture*)pFrameRGB, PIX_FMT_BGR24, pCodecCtx->width, pCodecCtx->height, buff111, size);

	mov	ecx, DWORD PTR _size$113236[ebp]
	push	ecx
	mov	edx, DWORD PTR _buff111$113237[ebp]
	push	edx
	mov	eax, DWORD PTR _this$[ebp]
	mov	ecx, DWORD PTR [eax+52]
	mov	edx, DWORD PTR [ecx+44]
	push	edx
	mov	eax, DWORD PTR _this$[ebp]
	mov	ecx, DWORD PTR [eax+52]
	mov	edx, DWORD PTR [ecx+40]
	push	edx
	push	3
	mov	eax, DWORD PTR _pFrameRGB$113228[ebp]
	push	eax
	call	_avpicture_layout
	add	esp, 24					; 00000018H
	mov	DWORD PTR _s$113241[ebp], eax

; 301  : 			delete [] buffer;

	mov	ecx, DWORD PTR _buffer$113230[ebp]
	mov	DWORD PTR $T118577[ebp], ecx
	mov	edx, DWORD PTR $T118577[ebp]
	push	edx
	call	??_V@YAXPAX@Z				; operator delete[]
	add	esp, 4

; 302  : 			int k = size / pCodecCtx->height;

	mov	eax, DWORD PTR _this$[ebp]
	mov	ecx, DWORD PTR [eax+52]
	mov	eax, DWORD PTR _size$113236[ebp]
	cdq
	idiv	DWORD PTR [ecx+44]
	mov	DWORD PTR _k$113244[ebp], eax

; 303  : 			for (int i = 0; i < pCodecCtx->height; ++i)

	mov	DWORD PTR _i$113245[ebp], 0
	jmp	SHORT $LN8@update
$LN7@update:
	mov	edx, DWORD PTR _i$113245[ebp]
	add	edx, 1
	mov	DWORD PTR _i$113245[ebp], edx
$LN8@update:
	mov	eax, DWORD PTR _this$[ebp]
	mov	ecx, DWORD PTR [eax+52]
	mov	edx, DWORD PTR _i$113245[ebp]
	cmp	edx, DWORD PTR [ecx+44]
	jge	SHORT $LN6@update

; 304  : 			{
; 305  : 				memcpy(buff222 + i * k, buff111 + (pCodecCtx->height - 1 - i) * k, k);

	mov	eax, DWORD PTR _k$113244[ebp]
	push	eax
	mov	ecx, DWORD PTR _this$[ebp]
	mov	edx, DWORD PTR [ecx+52]
	mov	eax, DWORD PTR [edx+44]
	sub	eax, 1
	sub	eax, DWORD PTR _i$113245[ebp]
	imul	eax, DWORD PTR _k$113244[ebp]
	add	eax, DWORD PTR _buff111$113237[ebp]
	push	eax
	mov	ecx, DWORD PTR _i$113245[ebp]
	imul	ecx, DWORD PTR _k$113244[ebp]
	add	ecx, DWORD PTR _buff222$113239[ebp]
	push	ecx
	call	_memcpy
	add	esp, 12					; 0000000cH

; 306  : 			}

	jmp	SHORT $LN7@update
$LN6@update:

; 307  : 			av_free(pFrameRGB);

	mov	edx, DWORD PTR _pFrameRGB$113228[ebp]
	push	edx
	call	_av_free
	add	esp, 4

; 308  : 			BITMAPINFO binfo;
; 309  : 			ZeroMemory(&binfo,sizeof(BITMAPINFO));

	push	44					; 0000002cH
	push	0
	lea	eax, DWORD PTR _binfo$113249[ebp]
	push	eax
	call	_memset
	add	esp, 12					; 0000000cH

; 310  : 			binfo.bmiHeader.biBitCount=24;	//24bit

	mov	ecx, 24					; 00000018H
	mov	WORD PTR _binfo$113249[ebp+14], cx

; 311  : 			binfo.bmiHeader.biCompression=BI_RGB;

	mov	DWORD PTR _binfo$113249[ebp+16], 0

; 312  : 			binfo.bmiHeader.biHeight=pCodecCtx->height;

	mov	edx, DWORD PTR _this$[ebp]
	mov	eax, DWORD PTR [edx+52]
	mov	ecx, DWORD PTR [eax+44]
	mov	DWORD PTR _binfo$113249[ebp+8], ecx

; 313  : 			binfo.bmiHeader.biPlanes=1;

	mov	edx, 1
	mov	WORD PTR _binfo$113249[ebp+12], dx

; 314  : 			binfo.bmiHeader.biSizeImage=0;

	mov	DWORD PTR _binfo$113249[ebp+20], 0

; 315  : 			binfo.bmiHeader.biSize=sizeof(BITMAPINFOHEADER);

	mov	DWORD PTR _binfo$113249[ebp], 40	; 00000028H

; 316  : 			binfo.bmiHeader.biWidth=pCodecCtx->width;

	mov	eax, DWORD PTR _this$[ebp]
	mov	ecx, DWORD PTR [eax+52]
	mov	edx, DWORD PTR [ecx+40]
	mov	DWORD PTR _binfo$113249[ebp+4], edx

; 317  : 			HDC hdc = GetDC(drawWnd);

	mov	eax, DWORD PTR _this$[ebp]
	mov	ecx, DWORD PTR [eax+28]
	push	ecx
	call	DWORD PTR __imp__GetDC@4
	mov	DWORD PTR _hdc$113252[ebp], eax

; 318  : 			{
; 319  : 				long vw = pCodecCtx->width, vh = pCodecCtx->height;

	mov	edx, DWORD PTR _this$[ebp]
	mov	eax, DWORD PTR [edx+52]
	mov	ecx, DWORD PTR [eax+40]
	mov	DWORD PTR _vw$113253[ebp], ecx
	mov	edx, DWORD PTR _this$[ebp]
	mov	eax, DWORD PTR [edx+52]
	mov	ecx, DWORD PTR [eax+44]
	mov	DWORD PTR _vh$113254[ebp], ecx

; 320  : 				RECT rect;
; 321  : 				GetClientRect(drawWnd, &rect);

	lea	edx, DWORD PTR _rect$113255[ebp]
	push	edx
	mov	eax, DWORD PTR _this$[ebp]
	mov	ecx, DWORD PTR [eax+28]
	push	ecx
	call	DWORD PTR __imp__GetClientRect@8

; 322  : 				long w = rect.right - rect.left;

	mov	edx, DWORD PTR _rect$113255[ebp+8]
	sub	edx, DWORD PTR _rect$113255[ebp]
	mov	DWORD PTR _w$113256[ebp], edx

; 323  : 				long h = rect.bottom - rect.top;

	mov	eax, DWORD PTR _rect$113255[ebp+12]
	sub	eax, DWORD PTR _rect$113255[ebp+4]
	mov	DWORD PTR _h$113257[ebp], eax

; 324  : 
; 325  : 				HBITMAP backBitmap = CreateCompatibleBitmap(hdc, w, h);

	mov	ecx, DWORD PTR _h$113257[ebp]
	push	ecx
	mov	edx, DWORD PTR _w$113256[ebp]
	push	edx
	mov	eax, DWORD PTR _hdc$113252[ebp]
	push	eax
	call	DWORD PTR __imp__CreateCompatibleBitmap@12
	mov	DWORD PTR _backBitmap$113258[ebp], eax

; 326  : 				HDC backdc=::CreateCompatibleDC(hdc);

	mov	ecx, DWORD PTR _hdc$113252[ebp]
	push	ecx
	call	DWORD PTR __imp__CreateCompatibleDC@4
	mov	DWORD PTR _backdc$113259[ebp], eax

; 327  : 				HGDIOBJ oldBackbmp=::SelectObject(backdc, backBitmap);

	mov	edx, DWORD PTR _backBitmap$113258[ebp]
	push	edx
	mov	eax, DWORD PTR _backdc$113259[ebp]
	push	eax
	call	DWORD PTR __imp__SelectObject@8
	mov	DWORD PTR _oldBackbmp$113260[ebp], eax

; 328  : 				::FillRect(backdc, &rect, (HBRUSH)GetStockObject(BLACK_BRUSH));

	push	4
	call	DWORD PTR __imp__GetStockObject@4
	push	eax
	lea	ecx, DWORD PTR _rect$113255[ebp]
	push	ecx
	mov	edx, DWORD PTR _backdc$113259[ebp]
	push	edx
	call	DWORD PTR __imp__FillRect@12

; 329  : 				{
; 330  : 					if (float(w) / h < float(vw) / vh)

	fild	DWORD PTR _w$113256[ebp]
	fidiv	DWORD PTR _h$113257[ebp]
	fild	DWORD PTR _vw$113253[ebp]
	fidiv	DWORD PTR _vh$113254[ebp]
	fcompp
	fnstsw	ax
	test	ah, 65					; 00000041H
	jne	SHORT $LN5@update

; 331  : 					{
; 332  : 						vh = vh * w / vw;

	mov	eax, DWORD PTR _vh$113254[ebp]
	imul	eax, DWORD PTR _w$113256[ebp]
	cdq
	idiv	DWORD PTR _vw$113253[ebp]
	mov	DWORD PTR _vh$113254[ebp], eax

; 333  : 						vw = w;

	mov	eax, DWORD PTR _w$113256[ebp]
	mov	DWORD PTR _vw$113253[ebp], eax

; 334  : 					}
; 335  : 					else

	jmp	SHORT $LN4@update
$LN5@update:

; 336  : 					{
; 337  : 						vw = vw * h / vh;

	mov	eax, DWORD PTR _vw$113253[ebp]
	imul	eax, DWORD PTR _h$113257[ebp]
	cdq
	idiv	DWORD PTR _vh$113254[ebp]
	mov	DWORD PTR _vw$113253[ebp], eax

; 338  : 						vh = h;

	mov	ecx, DWORD PTR _h$113257[ebp]
	mov	DWORD PTR _vh$113254[ebp], ecx
$LN4@update:

; 339  : 					}
; 340  : 					w = (w - vw) / 2;

	mov	eax, DWORD PTR _w$113256[ebp]
	sub	eax, DWORD PTR _vw$113253[ebp]
	cdq
	sub	eax, edx
	sar	eax, 1
	mov	DWORD PTR _w$113256[ebp], eax

; 341  : 					h = (h - vh) / 2;

	mov	eax, DWORD PTR _h$113257[ebp]
	sub	eax, DWORD PTR _vh$113254[ebp]
	cdq
	sub	eax, edx
	sar	eax, 1
	mov	DWORD PTR _h$113257[ebp], eax

; 342  : 				}
; 343  : 				HBITMAP bitmap = CreateCompatibleBitmap(hdc, pCodecCtx->width, pCodecCtx->height);

	mov	edx, DWORD PTR _this$[ebp]
	mov	eax, DWORD PTR [edx+52]
	mov	ecx, DWORD PTR [eax+44]
	push	ecx
	mov	edx, DWORD PTR _this$[ebp]
	mov	eax, DWORD PTR [edx+52]
	mov	ecx, DWORD PTR [eax+40]
	push	ecx
	mov	edx, DWORD PTR _hdc$113252[ebp]
	push	edx
	call	DWORD PTR __imp__CreateCompatibleBitmap@12
	mov	DWORD PTR _bitmap$113264[ebp], eax

; 344  : 				SetDIBits(hdc, bitmap, 0, pCodecCtx->height, buff222, &binfo, DIB_RGB_COLORS);

	push	0
	lea	eax, DWORD PTR _binfo$113249[ebp]
	push	eax
	mov	ecx, DWORD PTR _buff222$113239[ebp]
	push	ecx
	mov	edx, DWORD PTR _this$[ebp]
	mov	eax, DWORD PTR [edx+52]
	mov	ecx, DWORD PTR [eax+44]
	push	ecx
	push	0
	mov	edx, DWORD PTR _bitmap$113264[ebp]
	push	edx
	mov	eax, DWORD PTR _hdc$113252[ebp]
	push	eax
	call	DWORD PTR __imp__SetDIBits@28

; 345  : 				HDC memdc=::CreateCompatibleDC(hdc);

	mov	ecx, DWORD PTR _hdc$113252[ebp]
	push	ecx
	call	DWORD PTR __imp__CreateCompatibleDC@4
	mov	DWORD PTR _memdc$113265[ebp], eax

; 346  : 				HGDIOBJ oldbmp=::SelectObject(memdc, bitmap);

	mov	edx, DWORD PTR _bitmap$113264[ebp]
	push	edx
	mov	eax, DWORD PTR _memdc$113265[ebp]
	push	eax
	call	DWORD PTR __imp__SelectObject@8
	mov	DWORD PTR _oldbmp$113266[ebp], eax

; 347  : 				BOOL b = ::StretchBlt(backdc, w, h, vw, vh, memdc, 0, 0, pCodecCtx->width, pCodecCtx->height,SRCCOPY);

	push	13369376				; 00cc0020H
	mov	ecx, DWORD PTR _this$[ebp]
	mov	edx, DWORD PTR [ecx+52]
	mov	eax, DWORD PTR [edx+44]
	push	eax
	mov	ecx, DWORD PTR _this$[ebp]
	mov	edx, DWORD PTR [ecx+52]
	mov	eax, DWORD PTR [edx+40]
	push	eax
	push	0
	push	0
	mov	ecx, DWORD PTR _memdc$113265[ebp]
	push	ecx
	mov	edx, DWORD PTR _vh$113254[ebp]
	push	edx
	mov	eax, DWORD PTR _vw$113253[ebp]
	push	eax
	mov	ecx, DWORD PTR _h$113257[ebp]
	push	ecx
	mov	edx, DWORD PTR _w$113256[ebp]
	push	edx
	mov	eax, DWORD PTR _backdc$113259[ebp]
	push	eax
	call	DWORD PTR __imp__StretchBlt@44
	mov	DWORD PTR _b$113267[ebp], eax

; 348  : 				if (oldbmp)

	cmp	DWORD PTR _oldbmp$113266[ebp], 0
	je	SHORT $LN3@update

; 349  : 					::SelectObject(memdc, oldbmp);

	mov	ecx, DWORD PTR _oldbmp$113266[ebp]
	push	ecx
	mov	edx, DWORD PTR _memdc$113265[ebp]
	push	edx
	call	DWORD PTR __imp__SelectObject@8
$LN3@update:

; 350  : 				DeleteDC(memdc);

	mov	eax, DWORD PTR _memdc$113265[ebp]
	push	eax
	call	DWORD PTR __imp__DeleteDC@4

; 351  : 				DeleteObject(bitmap);

	mov	ecx, DWORD PTR _bitmap$113264[ebp]
	push	ecx
	call	DWORD PTR __imp__DeleteObject@4

; 352  : 				::BitBlt(hdc, 0, 0, rect.right - rect.left, rect.bottom - rect.top, backdc, 0, 0, SRCCOPY);

	push	13369376				; 00cc0020H
	push	0
	push	0
	mov	edx, DWORD PTR _backdc$113259[ebp]
	push	edx
	mov	eax, DWORD PTR _rect$113255[ebp+12]
	sub	eax, DWORD PTR _rect$113255[ebp+4]
	push	eax
	mov	ecx, DWORD PTR _rect$113255[ebp+8]
	sub	ecx, DWORD PTR _rect$113255[ebp]
	push	ecx
	push	0
	push	0
	mov	edx, DWORD PTR _hdc$113252[ebp]
	push	edx
	call	DWORD PTR __imp__BitBlt@36

; 353  : 				if (oldBackbmp)

	cmp	DWORD PTR _oldBackbmp$113260[ebp], 0
	je	SHORT $LN2@update

; 354  : 					::SelectObject(backdc, oldBackbmp);

	mov	eax, DWORD PTR _oldBackbmp$113260[ebp]
	push	eax
	mov	ecx, DWORD PTR _backdc$113259[ebp]
	push	ecx
	call	DWORD PTR __imp__SelectObject@8
$LN2@update:

; 355  : 				DeleteDC(backdc);

	mov	edx, DWORD PTR _backdc$113259[ebp]
	push	edx
	call	DWORD PTR __imp__DeleteDC@4

; 356  : 				DeleteObject(backBitmap);

	mov	eax, DWORD PTR _backBitmap$113258[ebp]
	push	eax
	call	DWORD PTR __imp__DeleteObject@4

; 357  : 				free(buff222);

	mov	ecx, DWORD PTR _buff222$113239[ebp]
	push	ecx
	call	DWORD PTR __imp__free
	add	esp, 4

; 358  : 				free(buff111);

	mov	edx, DWORD PTR _buff111$113237[ebp]
	push	edx
	call	DWORD PTR __imp__free
	add	esp, 4

; 359  : 			}
; 360  : 			ReleaseDC(drawWnd, hdc);

	mov	eax, DWORD PTR _hdc$113252[ebp]
	push	eax
	mov	ecx, DWORD PTR _this$[ebp]
	mov	edx, DWORD PTR [ecx+28]
	push	edx
	call	DWORD PTR __imp__ReleaseDC@8

; 361  : 		}
; 362  : 		else

	jmp	SHORT $LN1@update
$LN9@update:

; 363  : 		{
; 364  : 			finish = true;

	mov	eax, DWORD PTR _this$[ebp]
	mov	BYTE PTR [eax+33], 1
$LN1@update:

; 365  : 		}
; 366  : 		av_free(pFrame);

	mov	ecx, DWORD PTR _pFrame$113226[ebp]
	push	ecx
	call	_av_free
	add	esp, 4
$LN10@update:
$LN30@update:

; 367  : 	}
; 368  : }

	mov	esp, ebp
	pop	ebp
	ret	4
?update@MCIWrap@Ogre@@QAEXI@Z ENDP			; Ogre::MCIWrap::update
; Function compile flags: /Odtp
; File i:\svnroot\client\ogremain\ogresingleton.h
_TEXT	ENDS
;	COMDAT ??0?$Singleton@VMCIWrap@Ogre@@@Ogre@@QAE@XZ
_TEXT	SEGMENT
_this$ = -4						; size = 4
??0?$Singleton@VMCIWrap@Ogre@@@Ogre@@QAE@XZ PROC	; Ogre::Singleton<Ogre::MCIWrap>::Singleton<Ogre::MCIWrap>, COMDAT
; _this$ = ecx

; 64   : 		Singleton( void )

	push	ebp
	mov	ebp, esp
	push	ecx
	mov	DWORD PTR _this$[ebp], ecx

; 65   : 		{
; 66   : 			assert( !ms_Singleton );
; 67   : #if defined( _MSC_VER ) && _MSC_VER < 1200	 
; 68   : 			int offset = (int)(T*)1 - (int)(Singleton <T>*)(T*)1;
; 69   : 			ms_Singleton = (T*)((int)this + offset);
; 70   : #else
; 71   : 			ms_Singleton = static_cast< T* >( this );

	mov	eax, DWORD PTR _this$[ebp]
	mov	DWORD PTR ?ms_Singleton@?$Singleton@VMCIWrap@Ogre@@@Ogre@@1PAVMCIWrap@2@A, eax ; Ogre::Singleton<Ogre::MCIWrap>::ms_Singleton

; 72   : #endif
; 73   : 		}

	mov	eax, DWORD PTR _this$[ebp]
	mov	esp, ebp
	pop	ebp
	ret	0
??0?$Singleton@VMCIWrap@Ogre@@@Ogre@@QAE@XZ ENDP	; Ogre::Singleton<Ogre::MCIWrap>::Singleton<Ogre::MCIWrap>
; Function compile flags: /Odtp
_TEXT	ENDS
;	COMDAT ??1?$Singleton@VMCIWrap@Ogre@@@Ogre@@QAE@XZ
_TEXT	SEGMENT
_this$ = -4						; size = 4
??1?$Singleton@VMCIWrap@Ogre@@@Ogre@@QAE@XZ PROC	; Ogre::Singleton<Ogre::MCIWrap>::~Singleton<Ogre::MCIWrap>, COMDAT
; _this$ = ecx

; 75   : 		{  assert( ms_Singleton );  ms_Singleton = 0;  }

	push	ebp
	mov	ebp, esp
	push	ecx
	mov	DWORD PTR _this$[ebp], ecx
	mov	DWORD PTR ?ms_Singleton@?$Singleton@VMCIWrap@Ogre@@@Ogre@@1PAVMCIWrap@2@A, 0 ; Ogre::Singleton<Ogre::MCIWrap>::ms_Singleton
	mov	esp, ebp
	pop	ebp
	ret	0
??1?$Singleton@VMCIWrap@Ogre@@@Ogre@@QAE@XZ ENDP	; Ogre::Singleton<Ogre::MCIWrap>::~Singleton<Ogre::MCIWrap>
_TEXT	ENDS
PUBLIC	?getSingleton@?$Singleton@VMCIWrap@Ogre@@@Ogre@@SAAAVMCIWrap@2@XZ ; Ogre::Singleton<Ogre::MCIWrap>::getSingleton
; Function compile flags: /Odtp
;	COMDAT ?getSingleton@?$Singleton@VMCIWrap@Ogre@@@Ogre@@SAAAVMCIWrap@2@XZ
_TEXT	SEGMENT
?getSingleton@?$Singleton@VMCIWrap@Ogre@@@Ogre@@SAAAVMCIWrap@2@XZ PROC ; Ogre::Singleton<Ogre::MCIWrap>::getSingleton, COMDAT

; 77   : 		{	assert( ms_Singleton );  return ( *ms_Singleton ); }

	push	ebp
	mov	ebp, esp
	mov	eax, DWORD PTR ?ms_Singleton@?$Singleton@VMCIWrap@Ogre@@@Ogre@@1PAVMCIWrap@2@A ; Ogre::Singleton<Ogre::MCIWrap>::ms_Singleton
	pop	ebp
	ret	0
?getSingleton@?$Singleton@VMCIWrap@Ogre@@@Ogre@@SAAAVMCIWrap@2@XZ ENDP ; Ogre::Singleton<Ogre::MCIWrap>::getSingleton
_TEXT	ENDS
PUBLIC	?getSingletonPtr@?$Singleton@VMCIWrap@Ogre@@@Ogre@@SAPAVMCIWrap@2@XZ ; Ogre::Singleton<Ogre::MCIWrap>::getSingletonPtr
; Function compile flags: /Odtp
;	COMDAT ?getSingletonPtr@?$Singleton@VMCIWrap@Ogre@@@Ogre@@SAPAVMCIWrap@2@XZ
_TEXT	SEGMENT
?getSingletonPtr@?$Singleton@VMCIWrap@Ogre@@@Ogre@@SAPAVMCIWrap@2@XZ PROC ; Ogre::Singleton<Ogre::MCIWrap>::getSingletonPtr, COMDAT

; 79   : 		{ return ms_Singleton; }

	push	ebp
	mov	ebp, esp
	mov	eax, DWORD PTR ?ms_Singleton@?$Singleton@VMCIWrap@Ogre@@@Ogre@@1PAVMCIWrap@2@A ; Ogre::Singleton<Ogre::MCIWrap>::ms_Singleton
	pop	ebp
	ret	0
?getSingletonPtr@?$Singleton@VMCIWrap@Ogre@@@Ogre@@SAPAVMCIWrap@2@XZ ENDP ; Ogre::Singleton<Ogre::MCIWrap>::getSingletonPtr
_TEXT	ENDS
PUBLIC	??1?$_List_val@V?$basic_string@DU?$char_traits@D@std@@V?$allocator@D@2@@std@@V?$allocator@V?$basic_string@DU?$char_traits@D@std@@V?$allocator@D@2@@std@@@2@@std@@QAE@XZ ; std::_List_val<std::basic_string<char,std::char_traits<char>,std::allocator<char> >,std::allocator<std::basic_string<char,std::char_traits<char>,std::allocator<char> > > >::~_List_val<std::basic_string<char,std::char_traits<char>,std::allocator<char> >,std::allocator<std::basic_string<char,std::char_traits<char>,std::allocator<char> > > >
PUBLIC	?_Buynode@?$list@V?$basic_string@DU?$char_traits@D@std@@V?$allocator@D@2@@std@@V?$allocator@V?$basic_string@DU?$char_traits@D@std@@V?$allocator@D@2@@std@@@2@@std@@IAEPAU_Node@?$_List_nod@V?$basic_string@DU?$char_traits@D@std@@V?$allocator@D@2@@std@@V?$allocator@V?$basic_string@DU?$char_traits@D@std@@V?$allocator@D@2@@std@@@2@@2@XZ ; std::list<std::basic_string<char,std::char_traits<char>,std::allocator<char> >,std::allocator<std::basic_string<char,std::char_traits<char>,std::allocator<char> > > >::_Buynode
PUBLIC	??0?$_List_val@V?$basic_string@DU?$char_traits@D@std@@V?$allocator@D@2@@std@@V?$allocator@V?$basic_string@DU?$char_traits@D@std@@V?$allocator@D@2@@std@@@2@@std@@QAE@V?$allocator@V?$basic_string@DU?$char_traits@D@std@@V?$allocator@D@2@@std@@@1@@Z ; std::_List_val<std::basic_string<char,std::char_traits<char>,std::allocator<char> >,std::allocator<std::basic_string<char,std::char_traits<char>,std::allocator<char> > > >::_List_val<std::basic_string<char,std::char_traits<char>,std::allocator<char> >,std::allocator<std::basic_string<char,std::char_traits<char>,std::allocator<char> > > >
PUBLIC	??0?$allocator@V?$basic_string@DU?$char_traits@D@std@@V?$allocator@D@2@@std@@@std@@QAE@XZ ; std::allocator<std::basic_string<char,std::char_traits<char>,std::allocator<char> > >::allocator<std::basic_string<char,std::char_traits<char>,std::allocator<char> > >
;	COMDAT xdata$x
; File d:\program files (x86)\microsoft visual studio 9.0\vc\include\list
xdata$x	SEGMENT
__unwindtable$??0?$list@V?$basic_string@DU?$char_traits@D@std@@V?$allocator@D@2@@std@@V?$allocator@V?$basic_string@DU?$char_traits@D@std@@V?$allocator@D@2@@std@@@2@@std@@QAE@XZ DD 0ffffffffH
	DD	FLAT:__unwindfunclet$??0?$list@V?$basic_string@DU?$char_traits@D@std@@V?$allocator@D@2@@std@@V?$allocator@V?$basic_string@DU?$char_traits@D@std@@V?$allocator@D@2@@std@@@2@@std@@QAE@XZ$0
__ehfuncinfo$??0?$list@V?$basic_string@DU?$char_traits@D@std@@V?$allocator@D@2@@std@@V?$allocator@V?$basic_string@DU?$char_traits@D@std@@V?$allocator@D@2@@std@@@2@@std@@QAE@XZ DD 019930522H
	DD	01H
	DD	FLAT:__unwindtable$??0?$list@V?$basic_string@DU?$char_traits@D@std@@V?$allocator@D@2@@std@@V?$allocator@V?$basic_string@DU?$char_traits@D@std@@V?$allocator@D@2@@std@@@2@@std@@QAE@XZ
	DD	2 DUP(00H)
	DD	2 DUP(00H)
	DD	00H
	DD	00H
; Function compile flags: /Odtp
xdata$x	ENDS
;	COMDAT ??0?$list@V?$basic_string@DU?$char_traits@D@std@@V?$allocator@D@2@@std@@V?$allocator@V?$basic_string@DU?$char_traits@D@std@@V?$allocator@D@2@@std@@@2@@std@@QAE@XZ
_TEXT	SEGMENT
_this$ = -20						; size = 4
$T118588 = -16						; size = 4
__$EHRec$ = -12						; size = 12
??0?$list@V?$basic_string@DU?$char_traits@D@std@@V?$allocator@D@2@@std@@V?$allocator@V?$basic_string@DU?$char_traits@D@std@@V?$allocator@D@2@@std@@@2@@std@@QAE@XZ PROC ; std::list<std::basic_string<char,std::char_traits<char>,std::allocator<char> >,std::allocator<std::basic_string<char,std::char_traits<char>,std::allocator<char> > > >::list<std::basic_string<char,std::char_traits<char>,std::allocator<char> >,std::allocator<std::basic_string<char,std::char_traits<char>,std::allocator<char> > > >, COMDAT
; _this$ = ecx

; 436  : 		{	// construct empty list

	push	ebp
	mov	ebp, esp
	push	-1
	push	__ehhandler$??0?$list@V?$basic_string@DU?$char_traits@D@std@@V?$allocator@D@2@@std@@V?$allocator@V?$basic_string@DU?$char_traits@D@std@@V?$allocator@D@2@@std@@@2@@std@@QAE@XZ
	mov	eax, DWORD PTR fs:0
	push	eax
	sub	esp, 8
	mov	eax, DWORD PTR ___security_cookie
	xor	eax, ebp
	push	eax
	lea	eax, DWORD PTR __$EHRec$[ebp]
	mov	DWORD PTR fs:0, eax
	mov	DWORD PTR _this$[ebp], ecx
	push	ecx
	mov	ecx, esp
	mov	DWORD PTR $T118588[ebp], esp
	call	??0?$allocator@V?$basic_string@DU?$char_traits@D@std@@V?$allocator@D@2@@std@@@std@@QAE@XZ ; std::allocator<std::basic_string<char,std::char_traits<char>,std::allocator<char> > >::allocator<std::basic_string<char,std::char_traits<char>,std::allocator<char> > >
	mov	ecx, DWORD PTR _this$[ebp]
	call	??0?$_List_val@V?$basic_string@DU?$char_traits@D@std@@V?$allocator@D@2@@std@@V?$allocator@V?$basic_string@DU?$char_traits@D@std@@V?$allocator@D@2@@std@@@2@@std@@QAE@V?$allocator@V?$basic_string@DU?$char_traits@D@std@@V?$allocator@D@2@@std@@@1@@Z ; std::_List_val<std::basic_string<char,std::char_traits<char>,std::allocator<char> >,std::allocator<std::basic_string<char,std::char_traits<char>,std::allocator<char> > > >::_List_val<std::basic_string<char,std::char_traits<char>,std::allocator<char> >,std::allocator<std::basic_string<char,std::char_traits<char>,std::allocator<char> > > >
	mov	DWORD PTR __$EHRec$[ebp+8], 0
	mov	ecx, DWORD PTR _this$[ebp]
	call	?_Buynode@?$list@V?$basic_string@DU?$char_traits@D@std@@V?$allocator@D@2@@std@@V?$allocator@V?$basic_string@DU?$char_traits@D@std@@V?$allocator@D@2@@std@@@2@@std@@IAEPAU_Node@?$_List_nod@V?$basic_string@DU?$char_traits@D@std@@V?$allocator@D@2@@std@@V?$allocator@V?$basic_string@DU?$char_traits@D@std@@V?$allocator@D@2@@std@@@2@@2@XZ ; std::list<std::basic_string<char,std::char_traits<char>,std::allocator<char> >,std::allocator<std::basic_string<char,std::char_traits<char>,std::allocator<char> > > >::_Buynode
	mov	ecx, DWORD PTR _this$[ebp]
	mov	DWORD PTR [ecx+20], eax
	mov	edx, DWORD PTR _this$[ebp]
	mov	DWORD PTR [edx+24], 0

; 437  : 		}

	mov	DWORD PTR __$EHRec$[ebp+8], -1
	mov	eax, DWORD PTR _this$[ebp]
	mov	ecx, DWORD PTR __$EHRec$[ebp]
	mov	DWORD PTR fs:0, ecx
	pop	ecx
	mov	esp, ebp
	pop	ebp
	ret	0
_TEXT	ENDS
;	COMDAT text$x
text$x	SEGMENT
__unwindfunclet$??0?$list@V?$basic_string@DU?$char_traits@D@std@@V?$allocator@D@2@@std@@V?$allocator@V?$basic_string@DU?$char_traits@D@std@@V?$allocator@D@2@@std@@@2@@std@@QAE@XZ$0:
	mov	ecx, DWORD PTR _this$[ebp]
	jmp	??1?$_List_val@V?$basic_string@DU?$char_traits@D@std@@V?$allocator@D@2@@std@@V?$allocator@V?$basic_string@DU?$char_traits@D@std@@V?$allocator@D@2@@std@@@2@@std@@QAE@XZ
__ehhandler$??0?$list@V?$basic_string@DU?$char_traits@D@std@@V?$allocator@D@2@@std@@V?$allocator@V?$basic_string@DU?$char_traits@D@std@@V?$allocator@D@2@@std@@@2@@std@@QAE@XZ:
	mov	edx, DWORD PTR [esp+8]
	lea	eax, DWORD PTR [edx+12]
	mov	ecx, DWORD PTR [edx-12]
	xor	ecx, eax
	call	@__security_check_cookie@4
	mov	eax, OFFSET __ehfuncinfo$??0?$list@V?$basic_string@DU?$char_traits@D@std@@V?$allocator@D@2@@std@@V?$allocator@V?$basic_string@DU?$char_traits@D@std@@V?$allocator@D@2@@std@@@2@@std@@QAE@XZ
	jmp	___CxxFrameHandler3
text$x	ENDS
??0?$list@V?$basic_string@DU?$char_traits@D@std@@V?$allocator@D@2@@std@@V?$allocator@V?$basic_string@DU?$char_traits@D@std@@V?$allocator@D@2@@std@@@2@@std@@QAE@XZ ENDP ; std::list<std::basic_string<char,std::char_traits<char>,std::allocator<char> >,std::allocator<std::basic_string<char,std::char_traits<char>,std::allocator<char> > > >::list<std::basic_string<char,std::char_traits<char>,std::allocator<char> >,std::allocator<std::basic_string<char,std::char_traits<char>,std::allocator<char> > > >
PUBLIC	?_Tidy@?$list@V?$basic_string@DU?$char_traits@D@std@@V?$allocator@D@2@@std@@V?$allocator@V?$basic_string@DU?$char_traits@D@std@@V?$allocator@D@2@@std@@@2@@std@@IAEXXZ ; std::list<std::basic_string<char,std::char_traits<char>,std::allocator<char> >,std::allocator<std::basic_string<char,std::char_traits<char>,std::allocator<char> > > >::_Tidy
PUBLIC	??$insert@V?$_Const_iterator@$00@?$list@V?$basic_string@DU?$char_traits@D@std@@V?$allocator@D@2@@std@@V?$allocator@V?$basic_string@DU?$char_traits@D@std@@V?$allocator@D@2@@std@@@2@@std@@@?$list@V?$basic_string@DU?$char_traits@D@std@@V?$allocator@D@2@@std@@V?$allocator@V?$basic_string@DU?$char_traits@D@std@@V?$allocator@D@2@@std@@@2@@std@@QAEXV?$_Const_iterator@$00@01@00@Z ; std::list<std::basic_string<char,std::char_traits<char>,std::allocator<char> >,std::allocator<std::basic_string<char,std::char_traits<char>,std::allocator<char> > > >::insert<std::list<std::basic_string<char,std::char_traits<char>,std::allocator<char> >,std::allocator<std::basic_string<char,std::char_traits<char>,std::allocator<char> > > >::_Const_iterator<1> >
PUBLIC	?begin@?$list@V?$basic_string@DU?$char_traits@D@std@@V?$allocator@D@2@@std@@V?$allocator@V?$basic_string@DU?$char_traits@D@std@@V?$allocator@D@2@@std@@@2@@std@@QBE?AV?$_Const_iterator@$00@12@XZ ; std::list<std::basic_string<char,std::char_traits<char>,std::allocator<char> >,std::allocator<std::basic_string<char,std::char_traits<char>,std::allocator<char> > > >::begin
PUBLIC	?end@?$list@V?$basic_string@DU?$char_traits@D@std@@V?$allocator@D@2@@std@@V?$allocator@V?$basic_string@DU?$char_traits@D@std@@V?$allocator@D@2@@std@@@2@@std@@QBE?AV?$_Const_iterator@$00@12@XZ ; std::list<std::basic_string<char,std::char_traits<char>,std::allocator<char> >,std::allocator<std::basic_string<char,std::char_traits<char>,std::allocator<char> > > >::end
PUBLIC	?begin@?$list@V?$basic_string@DU?$char_traits@D@std@@V?$allocator@D@2@@std@@V?$allocator@V?$basic_string@DU?$char_traits@D@std@@V?$allocator@D@2@@std@@@2@@std@@QAE?AV?$_Iterator@$00@12@XZ ; std::list<std::basic_string<char,std::char_traits<char>,std::allocator<char> >,std::allocator<std::basic_string<char,std::char_traits<char>,std::allocator<char> > > >::begin
PUBLIC	??0?$allocator@V?$basic_string@DU?$char_traits@D@std@@V?$allocator@D@2@@std@@@std@@QAE@ABV01@@Z ; std::allocator<std::basic_string<char,std::char_traits<char>,std::allocator<char> > >::allocator<std::basic_string<char,std::char_traits<char>,std::allocator<char> > >
EXTRN	__CxxThrowException@8:PROC
;	COMDAT xdata$x
xdata$x	SEGMENT
__catchsym$??0?$list@V?$basic_string@DU?$char_traits@D@std@@V?$allocator@D@2@@std@@V?$allocator@V?$basic_string@DU?$char_traits@D@std@@V?$allocator@D@2@@std@@@2@@std@@QAE@ABV01@@Z$3 DD 00H
	DD	00H
	DD	00H
	DD	FLAT:__catch$??0?$list@V?$basic_string@DU?$char_traits@D@std@@V?$allocator@D@2@@std@@V?$allocator@V?$basic_string@DU?$char_traits@D@std@@V?$allocator@D@2@@std@@@2@@std@@QAE@ABV01@@Z$0
__tryblocktable$??0?$list@V?$basic_string@DU?$char_traits@D@std@@V?$allocator@D@2@@std@@V?$allocator@V?$basic_string@DU?$char_traits@D@std@@V?$allocator@D@2@@std@@@2@@std@@QAE@ABV01@@Z DD 01H
	DD	01H
	DD	02H
	DD	01H
	DD	FLAT:__catchsym$??0?$list@V?$basic_string@DU?$char_traits@D@std@@V?$allocator@D@2@@std@@V?$allocator@V?$basic_string@DU?$char_traits@D@std@@V?$allocator@D@2@@std@@@2@@std@@QAE@ABV01@@Z$3
__unwindtable$??0?$list@V?$basic_string@DU?$char_traits@D@std@@V?$allocator@D@2@@std@@V?$allocator@V?$basic_string@DU?$char_traits@D@std@@V?$allocator@D@2@@std@@@2@@std@@QAE@ABV01@@Z DD 0ffffffffH
	DD	FLAT:__unwindfunclet$??0?$list@V?$basic_string@DU?$char_traits@D@std@@V?$allocator@D@2@@std@@V?$allocator@V?$basic_string@DU?$char_traits@D@std@@V?$allocator@D@2@@std@@@2@@std@@QAE@ABV01@@Z$2
	DD	00H
	DD	00H
	DD	00H
	DD	00H
__ehfuncinfo$??0?$list@V?$basic_string@DU?$char_traits@D@std@@V?$allocator@D@2@@std@@V?$allocator@V?$basic_string@DU?$char_traits@D@std@@V?$allocator@D@2@@std@@@2@@std@@QAE@ABV01@@Z DD 019930522H
	DD	03H
	DD	FLAT:__unwindtable$??0?$list@V?$basic_string@DU?$char_traits@D@std@@V?$allocator@D@2@@std@@V?$allocator@V?$basic_string@DU?$char_traits@D@std@@V?$allocator@D@2@@std@@@2@@std@@QAE@ABV01@@Z
	DD	01H
	DD	FLAT:__tryblocktable$??0?$list@V?$basic_string@DU?$char_traits@D@std@@V?$allocator@D@2@@std@@V?$allocator@V?$basic_string@DU?$char_traits@D@std@@V?$allocator@D@2@@std@@@2@@std@@QAE@ABV01@@Z
	DD	2 DUP(00H)
	DD	00H
	DD	00H
; Function compile flags: /Odtp
xdata$x	ENDS
;	COMDAT ??0?$list@V?$basic_string@DU?$char_traits@D@std@@V?$allocator@D@2@@std@@V?$allocator@V?$basic_string@DU?$char_traits@D@std@@V?$allocator@D@2@@std@@@2@@std@@QAE@ABV01@@Z
_TEXT	SEGMENT
_this$ = -56						; size = 4
$T118602 = -52						; size = 8
$T118601 = -44						; size = 8
$T118600 = -36						; size = 8
$T118599 = -28						; size = 8
$T118598 = -20						; size = 4
__$EHRec$ = -16						; size = 16
__Right$ = 8						; size = 4
??0?$list@V?$basic_string@DU?$char_traits@D@std@@V?$allocator@D@2@@std@@V?$allocator@V?$basic_string@DU?$char_traits@D@std@@V?$allocator@D@2@@std@@@2@@std@@QAE@ABV01@@Z PROC ; std::list<std::basic_string<char,std::char_traits<char>,std::allocator<char> >,std::allocator<std::basic_string<char,std::char_traits<char>,std::allocator<char> > > >::list<std::basic_string<char,std::char_traits<char>,std::allocator<char> >,std::allocator<std::basic_string<char,std::char_traits<char>,std::allocator<char> > > >, COMDAT
; _this$ = ecx

; 467  : 		{	// construct list by copying _Right

	push	ebp
	mov	ebp, esp
	push	-1
	push	__ehhandler$??0?$list@V?$basic_string@DU?$char_traits@D@std@@V?$allocator@D@2@@std@@V?$allocator@V?$basic_string@DU?$char_traits@D@std@@V?$allocator@D@2@@std@@@2@@std@@QAE@ABV01@@Z
	mov	eax, DWORD PTR fs:0
	push	eax
	push	ecx
	sub	esp, 40					; 00000028H
	push	ebx
	push	esi
	push	edi
	mov	eax, DWORD PTR ___security_cookie
	xor	eax, ebp
	push	eax
	lea	eax, DWORD PTR __$EHRec$[ebp+4]
	mov	DWORD PTR fs:0, eax
	mov	DWORD PTR __$EHRec$[ebp], esp
	mov	DWORD PTR _this$[ebp], ecx
	mov	eax, DWORD PTR __Right$[ebp]
	add	eax, 16					; 00000010H
	push	ecx
	mov	ecx, esp
	mov	DWORD PTR $T118598[ebp], esp
	push	eax
	call	??0?$allocator@V?$basic_string@DU?$char_traits@D@std@@V?$allocator@D@2@@std@@@std@@QAE@ABV01@@Z ; std::allocator<std::basic_string<char,std::char_traits<char>,std::allocator<char> > >::allocator<std::basic_string<char,std::char_traits<char>,std::allocator<char> > >
	mov	ecx, DWORD PTR _this$[ebp]
	call	??0?$_List_val@V?$basic_string@DU?$char_traits@D@std@@V?$allocator@D@2@@std@@V?$allocator@V?$basic_string@DU?$char_traits@D@std@@V?$allocator@D@2@@std@@@2@@std@@QAE@V?$allocator@V?$basic_string@DU?$char_traits@D@std@@V?$allocator@D@2@@std@@@1@@Z ; std::_List_val<std::basic_string<char,std::char_traits<char>,std::allocator<char> >,std::allocator<std::basic_string<char,std::char_traits<char>,std::allocator<char> > > >::_List_val<std::basic_string<char,std::char_traits<char>,std::allocator<char> >,std::allocator<std::basic_string<char,std::char_traits<char>,std::allocator<char> > > >
	mov	DWORD PTR __$EHRec$[ebp+12], 0
	mov	ecx, DWORD PTR _this$[ebp]
	call	?_Buynode@?$list@V?$basic_string@DU?$char_traits@D@std@@V?$allocator@D@2@@std@@V?$allocator@V?$basic_string@DU?$char_traits@D@std@@V?$allocator@D@2@@std@@@2@@std@@IAEPAU_Node@?$_List_nod@V?$basic_string@DU?$char_traits@D@std@@V?$allocator@D@2@@std@@V?$allocator@V?$basic_string@DU?$char_traits@D@std@@V?$allocator@D@2@@std@@@2@@2@XZ ; std::list<std::basic_string<char,std::char_traits<char>,std::allocator<char> >,std::allocator<std::basic_string<char,std::char_traits<char>,std::allocator<char> > > >::_Buynode
	mov	ecx, DWORD PTR _this$[ebp]
	mov	DWORD PTR [ecx+20], eax
	mov	edx, DWORD PTR _this$[ebp]
	mov	DWORD PTR [edx+24], 0

; 468  : 		_TRY_BEGIN

	mov	BYTE PTR __$EHRec$[ebp+12], 1

; 469  : 		insert(begin(), _Right.begin(), _Right.end());

	lea	eax, DWORD PTR $T118602[ebp]
	push	eax
	mov	ecx, DWORD PTR _this$[ebp]
	call	?begin@?$list@V?$basic_string@DU?$char_traits@D@std@@V?$allocator@D@2@@std@@V?$allocator@V?$basic_string@DU?$char_traits@D@std@@V?$allocator@D@2@@std@@@2@@std@@QAE?AV?$_Iterator@$00@12@XZ ; std::list<std::basic_string<char,std::char_traits<char>,std::allocator<char> >,std::allocator<std::basic_string<char,std::char_traits<char>,std::allocator<char> > > >::begin
	mov	ecx, DWORD PTR [eax]
	mov	edx, DWORD PTR [eax+4]
	mov	DWORD PTR $T118601[ebp], ecx
	mov	DWORD PTR $T118601[ebp+4], edx
	lea	eax, DWORD PTR $T118599[ebp]
	push	eax
	mov	ecx, DWORD PTR __Right$[ebp]
	call	?end@?$list@V?$basic_string@DU?$char_traits@D@std@@V?$allocator@D@2@@std@@V?$allocator@V?$basic_string@DU?$char_traits@D@std@@V?$allocator@D@2@@std@@@2@@std@@QBE?AV?$_Const_iterator@$00@12@XZ ; std::list<std::basic_string<char,std::char_traits<char>,std::allocator<char> >,std::allocator<std::basic_string<char,std::char_traits<char>,std::allocator<char> > > >::end
	mov	ecx, DWORD PTR [eax+4]
	push	ecx
	mov	edx, DWORD PTR [eax]
	push	edx
	lea	eax, DWORD PTR $T118600[ebp]
	push	eax
	mov	ecx, DWORD PTR __Right$[ebp]
	call	?begin@?$list@V?$basic_string@DU?$char_traits@D@std@@V?$allocator@D@2@@std@@V?$allocator@V?$basic_string@DU?$char_traits@D@std@@V?$allocator@D@2@@std@@@2@@std@@QBE?AV?$_Const_iterator@$00@12@XZ ; std::list<std::basic_string<char,std::char_traits<char>,std::allocator<char> >,std::allocator<std::basic_string<char,std::char_traits<char>,std::allocator<char> > > >::begin
	mov	ecx, DWORD PTR [eax+4]
	push	ecx
	mov	edx, DWORD PTR [eax]
	push	edx
	mov	eax, DWORD PTR $T118601[ebp+4]
	push	eax
	mov	ecx, DWORD PTR $T118601[ebp]
	push	ecx
	mov	ecx, DWORD PTR _this$[ebp]
	call	??$insert@V?$_Const_iterator@$00@?$list@V?$basic_string@DU?$char_traits@D@std@@V?$allocator@D@2@@std@@V?$allocator@V?$basic_string@DU?$char_traits@D@std@@V?$allocator@D@2@@std@@@2@@std@@@?$list@V?$basic_string@DU?$char_traits@D@std@@V?$allocator@D@2@@std@@V?$allocator@V?$basic_string@DU?$char_traits@D@std@@V?$allocator@D@2@@std@@@2@@std@@QAEXV?$_Const_iterator@$00@01@00@Z ; std::list<std::basic_string<char,std::char_traits<char>,std::allocator<char> >,std::allocator<std::basic_string<char,std::char_traits<char>,std::allocator<char> > > >::insert<std::list<std::basic_string<char,std::char_traits<char>,std::allocator<char> >,std::allocator<std::basic_string<char,std::char_traits<char>,std::allocator<char> > > >::_Const_iterator<1> >
	jmp	SHORT $LN4@list
__catch$??0?$list@V?$basic_string@DU?$char_traits@D@std@@V?$allocator@D@2@@std@@V?$allocator@V?$basic_string@DU?$char_traits@D@std@@V?$allocator@D@2@@std@@@2@@std@@QAE@ABV01@@Z$0:

; 470  : 		_CATCH_ALL
; 471  : 		_Tidy();

	mov	ecx, DWORD PTR _this$[ebp]
	call	?_Tidy@?$list@V?$basic_string@DU?$char_traits@D@std@@V?$allocator@D@2@@std@@V?$allocator@V?$basic_string@DU?$char_traits@D@std@@V?$allocator@D@2@@std@@@2@@std@@IAEXXZ ; std::list<std::basic_string<char,std::char_traits<char>,std::allocator<char> >,std::allocator<std::basic_string<char,std::char_traits<char>,std::allocator<char> > > >::_Tidy

; 472  : 		_RERAISE;

	push	0
	push	0
	call	__CxxThrowException@8

; 473  : 		_CATCH_END

	mov	DWORD PTR __$EHRec$[ebp+12], 0
	mov	eax, $LN2@list
	ret	0
$LN4@list:
	mov	DWORD PTR __$EHRec$[ebp+12], 0
$LN2@list:

; 474  : 		}

	mov	DWORD PTR __$EHRec$[ebp+12], -1
	mov	eax, DWORD PTR _this$[ebp]
$LN3@list:
	mov	ecx, DWORD PTR __$EHRec$[ebp+4]
	mov	DWORD PTR fs:0, ecx
	pop	ecx
	pop	edi
	pop	esi
	pop	ebx
	mov	esp, ebp
	pop	ebp
	ret	4
_TEXT	ENDS
;	COMDAT text$x
text$x	SEGMENT
__unwindfunclet$??0?$list@V?$basic_string@DU?$char_traits@D@std@@V?$allocator@D@2@@std@@V?$allocator@V?$basic_string@DU?$char_traits@D@std@@V?$allocator@D@2@@std@@@2@@std@@QAE@ABV01@@Z$2:
	mov	ecx, DWORD PTR _this$[ebp]
	jmp	??1?$_List_val@V?$basic_string@DU?$char_traits@D@std@@V?$allocator@D@2@@std@@V?$allocator@V?$basic_string@DU?$char_traits@D@std@@V?$allocator@D@2@@std@@@2@@std@@QAE@XZ
__ehhandler$??0?$list@V?$basic_string@DU?$char_traits@D@std@@V?$allocator@D@2@@std@@V?$allocator@V?$basic_string@DU?$char_traits@D@std@@V?$allocator@D@2@@std@@@2@@std@@QAE@ABV01@@Z:
	mov	edx, DWORD PTR [esp+8]
	lea	eax, DWORD PTR [edx+12]
	mov	ecx, DWORD PTR [edx-60]
	xor	ecx, eax
	call	@__security_check_cookie@4
	mov	eax, OFFSET __ehfuncinfo$??0?$list@V?$basic_string@DU?$char_traits@D@std@@V?$allocator@D@2@@std@@V?$allocator@V?$basic_string@DU?$char_traits@D@std@@V?$allocator@D@2@@std@@@2@@std@@QAE@ABV01@@Z
	jmp	___CxxFrameHandler3
text$x	ENDS
??0?$list@V?$basic_string@DU?$char_traits@D@std@@V?$allocator@D@2@@std@@V?$allocator@V?$basic_string@DU?$char_traits@D@std@@V?$allocator@D@2@@std@@@2@@std@@QAE@ABV01@@Z ENDP ; std::list<std::basic_string<char,std::char_traits<char>,std::allocator<char> >,std::allocator<std::basic_string<char,std::char_traits<char>,std::allocator<char> > > >::list<std::basic_string<char,std::char_traits<char>,std::allocator<char> >,std::allocator<std::basic_string<char,std::char_traits<char>,std::allocator<char> > > >
;	COMDAT xdata$x
xdata$x	SEGMENT
__unwindtable$??1?$list@V?$basic_string@DU?$char_traits@D@std@@V?$allocator@D@2@@std@@V?$allocator@V?$basic_string@DU?$char_traits@D@std@@V?$allocator@D@2@@std@@@2@@std@@QAE@XZ DD 0ffffffffH
	DD	FLAT:__unwindfunclet$??1?$list@V?$basic_string@DU?$char_traits@D@std@@V?$allocator@D@2@@std@@V?$allocator@V?$basic_string@DU?$char_traits@D@std@@V?$allocator@D@2@@std@@@2@@std@@QAE@XZ$0
__ehfuncinfo$??1?$list@V?$basic_string@DU?$char_traits@D@std@@V?$allocator@D@2@@std@@V?$allocator@V?$basic_string@DU?$char_traits@D@std@@V?$allocator@D@2@@std@@@2@@std@@QAE@XZ DD 019930522H
	DD	01H
	DD	FLAT:__unwindtable$??1?$list@V?$basic_string@DU?$char_traits@D@std@@V?$allocator@D@2@@std@@V?$allocator@V?$basic_string@DU?$char_traits@D@std@@V?$allocator@D@2@@std@@@2@@std@@QAE@XZ
	DD	2 DUP(00H)
	DD	2 DUP(00H)
	DD	00H
	DD	00H
; Function compile flags: /Odtp
xdata$x	ENDS
;	COMDAT ??1?$list@V?$basic_string@DU?$char_traits@D@std@@V?$allocator@D@2@@std@@V?$allocator@V?$basic_string@DU?$char_traits@D@std@@V?$allocator@D@2@@std@@@2@@std@@QAE@XZ
_TEXT	SEGMENT
_this$ = -16						; size = 4
__$EHRec$ = -12						; size = 12
??1?$list@V?$basic_string@DU?$char_traits@D@std@@V?$allocator@D@2@@std@@V?$allocator@V?$basic_string@DU?$char_traits@D@std@@V?$allocator@D@2@@std@@@2@@std@@QAE@XZ PROC ; std::list<std::basic_string<char,std::char_traits<char>,std::allocator<char> >,std::allocator<std::basic_string<char,std::char_traits<char>,std::allocator<char> > > >::~list<std::basic_string<char,std::char_traits<char>,std::allocator<char> >,std::allocator<std::basic_string<char,std::char_traits<char>,std::allocator<char> > > >, COMDAT
; _this$ = ecx

; 520  : 		{	// destroy the object

	push	ebp
	mov	ebp, esp
	push	-1
	push	__ehhandler$??1?$list@V?$basic_string@DU?$char_traits@D@std@@V?$allocator@D@2@@std@@V?$allocator@V?$basic_string@DU?$char_traits@D@std@@V?$allocator@D@2@@std@@@2@@std@@QAE@XZ
	mov	eax, DWORD PTR fs:0
	push	eax
	push	ecx
	mov	eax, DWORD PTR ___security_cookie
	xor	eax, ebp
	push	eax
	lea	eax, DWORD PTR __$EHRec$[ebp]
	mov	DWORD PTR fs:0, eax
	mov	DWORD PTR _this$[ebp], ecx
	mov	DWORD PTR __$EHRec$[ebp+8], 0

; 521  : 		_Tidy();

	mov	ecx, DWORD PTR _this$[ebp]
	call	?_Tidy@?$list@V?$basic_string@DU?$char_traits@D@std@@V?$allocator@D@2@@std@@V?$allocator@V?$basic_string@DU?$char_traits@D@std@@V?$allocator@D@2@@std@@@2@@std@@IAEXXZ ; std::list<std::basic_string<char,std::char_traits<char>,std::allocator<char> >,std::allocator<std::basic_string<char,std::char_traits<char>,std::allocator<char> > > >::_Tidy

; 522  : 		}

	mov	DWORD PTR __$EHRec$[ebp+8], -1
	mov	ecx, DWORD PTR _this$[ebp]
	call	??1?$_List_val@V?$basic_string@DU?$char_traits@D@std@@V?$allocator@D@2@@std@@V?$allocator@V?$basic_string@DU?$char_traits@D@std@@V?$allocator@D@2@@std@@@2@@std@@QAE@XZ
	mov	ecx, DWORD PTR __$EHRec$[ebp]
	mov	DWORD PTR fs:0, ecx
	pop	ecx
	mov	esp, ebp
	pop	ebp
	ret	0
_TEXT	ENDS
;	COMDAT text$x
text$x	SEGMENT
__unwindfunclet$??1?$list@V?$basic_string@DU?$char_traits@D@std@@V?$allocator@D@2@@std@@V?$allocator@V?$basic_string@DU?$char_traits@D@std@@V?$allocator@D@2@@std@@@2@@std@@QAE@XZ$0:
	mov	ecx, DWORD PTR _this$[ebp]
	jmp	??1?$_List_val@V?$basic_string@DU?$char_traits@D@std@@V?$allocator@D@2@@std@@V?$allocator@V?$basic_string@DU?$char_traits@D@std@@V?$allocator@D@2@@std@@@2@@std@@QAE@XZ
__ehhandler$??1?$list@V?$basic_string@DU?$char_traits@D@std@@V?$allocator@D@2@@std@@V?$allocator@V?$basic_string@DU?$char_traits@D@std@@V?$allocator@D@2@@std@@@2@@std@@QAE@XZ:
	mov	edx, DWORD PTR [esp+8]
	lea	eax, DWORD PTR [edx+12]
	mov	ecx, DWORD PTR [edx-8]
	xor	ecx, eax
	call	@__security_check_cookie@4
	mov	eax, OFFSET __ehfuncinfo$??1?$list@V?$basic_string@DU?$char_traits@D@std@@V?$allocator@D@2@@std@@V?$allocator@V?$basic_string@DU?$char_traits@D@std@@V?$allocator@D@2@@std@@@2@@std@@QAE@XZ
	jmp	___CxxFrameHandler3
text$x	ENDS
??1?$list@V?$basic_string@DU?$char_traits@D@std@@V?$allocator@D@2@@std@@V?$allocator@V?$basic_string@DU?$char_traits@D@std@@V?$allocator@D@2@@std@@@2@@std@@QAE@XZ ENDP ; std::list<std::basic_string<char,std::char_traits<char>,std::allocator<char> >,std::allocator<std::basic_string<char,std::char_traits<char>,std::allocator<char> > > >::~list<std::basic_string<char,std::char_traits<char>,std::allocator<char> >,std::allocator<std::basic_string<char,std::char_traits<char>,std::allocator<char> > > >
PUBLIC	??$assign@V?$_Const_iterator@$00@?$list@V?$basic_string@DU?$char_traits@D@std@@V?$allocator@D@2@@std@@V?$allocator@V?$basic_string@DU?$char_traits@D@std@@V?$allocator@D@2@@std@@@2@@std@@@?$list@V?$basic_string@DU?$char_traits@D@std@@V?$allocator@D@2@@std@@V?$allocator@V?$basic_string@DU?$char_traits@D@std@@V?$allocator@D@2@@std@@@2@@std@@QAEXV?$_Const_iterator@$00@01@0@Z ; std::list<std::basic_string<char,std::char_traits<char>,std::allocator<char> >,std::allocator<std::basic_string<char,std::char_traits<char>,std::allocator<char> > > >::assign<std::list<std::basic_string<char,std::char_traits<char>,std::allocator<char> >,std::allocator<std::basic_string<char,std::char_traits<char>,std::allocator<char> > > >::_Const_iterator<1> >
; Function compile flags: /Odtp
;	COMDAT ??4?$list@V?$basic_string@DU?$char_traits@D@std@@V?$allocator@D@2@@std@@V?$allocator@V?$basic_string@DU?$char_traits@D@std@@V?$allocator@D@2@@std@@@2@@std@@QAEAAV01@ABV01@@Z
_TEXT	SEGMENT
_this$ = -20						; size = 4
$T118630 = -16						; size = 8
$T118629 = -8						; size = 8
__Right$ = 8						; size = 4
??4?$list@V?$basic_string@DU?$char_traits@D@std@@V?$allocator@D@2@@std@@V?$allocator@V?$basic_string@DU?$char_traits@D@std@@V?$allocator@D@2@@std@@@2@@std@@QAEAAV01@ABV01@@Z PROC ; std::list<std::basic_string<char,std::char_traits<char>,std::allocator<char> >,std::allocator<std::basic_string<char,std::char_traits<char>,std::allocator<char> > > >::operator=, COMDAT
; _this$ = ecx

; 525  : 		{	// assign _Right

	push	ebp
	mov	ebp, esp
	sub	esp, 20					; 00000014H
	mov	DWORD PTR _this$[ebp], ecx

; 526  : 		if (this != &_Right)

	mov	eax, DWORD PTR _this$[ebp]
	cmp	eax, DWORD PTR __Right$[ebp]
	je	SHORT $LN1@operator

; 527  : 			assign(_Right.begin(), _Right.end());

	lea	ecx, DWORD PTR $T118629[ebp]
	push	ecx
	mov	ecx, DWORD PTR __Right$[ebp]
	call	?end@?$list@V?$basic_string@DU?$char_traits@D@std@@V?$allocator@D@2@@std@@V?$allocator@V?$basic_string@DU?$char_traits@D@std@@V?$allocator@D@2@@std@@@2@@std@@QBE?AV?$_Const_iterator@$00@12@XZ ; std::list<std::basic_string<char,std::char_traits<char>,std::allocator<char> >,std::allocator<std::basic_string<char,std::char_traits<char>,std::allocator<char> > > >::end
	mov	edx, DWORD PTR [eax+4]
	push	edx
	mov	eax, DWORD PTR [eax]
	push	eax
	lea	ecx, DWORD PTR $T118630[ebp]
	push	ecx
	mov	ecx, DWORD PTR __Right$[ebp]
	call	?begin@?$list@V?$basic_string@DU?$char_traits@D@std@@V?$allocator@D@2@@std@@V?$allocator@V?$basic_string@DU?$char_traits@D@std@@V?$allocator@D@2@@std@@@2@@std@@QBE?AV?$_Const_iterator@$00@12@XZ ; std::list<std::basic_string<char,std::char_traits<char>,std::allocator<char> >,std::allocator<std::basic_string<char,std::char_traits<char>,std::allocator<char> > > >::begin
	mov	edx, DWORD PTR [eax+4]
	push	edx
	mov	eax, DWORD PTR [eax]
	push	eax
	mov	ecx, DWORD PTR _this$[ebp]
	call	??$assign@V?$_Const_iterator@$00@?$list@V?$basic_string@DU?$char_traits@D@std@@V?$allocator@D@2@@std@@V?$allocator@V?$basic_string@DU?$char_traits@D@std@@V?$allocator@D@2@@std@@@2@@std@@@?$list@V?$basic_string@DU?$char_traits@D@std@@V?$allocator@D@2@@std@@V?$allocator@V?$basic_string@DU?$char_traits@D@std@@V?$allocator@D@2@@std@@@2@@std@@QAEXV?$_Const_iterator@$00@01@0@Z ; std::list<std::basic_string<char,std::char_traits<char>,std::allocator<char> >,std::allocator<std::basic_string<char,std::char_traits<char>,std::allocator<char> > > >::assign<std::list<std::basic_string<char,std::char_traits<char>,std::allocator<char> >,std::allocator<std::basic_string<char,std::char_traits<char>,std::allocator<char> > > >::_Const_iterator<1> >
$LN1@operator:

; 528  : 		return (*this);

	mov	eax, DWORD PTR _this$[ebp]

; 529  : 		}

	mov	esp, ebp
	pop	ebp
	ret	4
??4?$list@V?$basic_string@DU?$char_traits@D@std@@V?$allocator@D@2@@std@@V?$allocator@V?$basic_string@DU?$char_traits@D@std@@V?$allocator@D@2@@std@@@2@@std@@QAEAAV01@ABV01@@Z ENDP ; std::list<std::basic_string<char,std::char_traits<char>,std::allocator<char> >,std::allocator<std::basic_string<char,std::char_traits<char>,std::allocator<char> > > >::operator=
; Function compile flags: /Odtp
_TEXT	ENDS
;	COMDAT ?empty@?$list@V?$basic_string@DU?$char_traits@D@std@@V?$allocator@D@2@@std@@V?$allocator@V?$basic_string@DU?$char_traits@D@std@@V?$allocator@D@2@@std@@@2@@std@@QBE_NXZ
_TEXT	SEGMENT
_this$ = -4						; size = 4
?empty@?$list@V?$basic_string@DU?$char_traits@D@std@@V?$allocator@D@2@@std@@V?$allocator@V?$basic_string@DU?$char_traits@D@std@@V?$allocator@D@2@@std@@@2@@std@@QBE_NXZ PROC ; std::list<std::basic_string<char,std::char_traits<char>,std::allocator<char> >,std::allocator<std::basic_string<char,std::char_traits<char>,std::allocator<char> > > >::empty, COMDAT
; _this$ = ecx

; 629  : 		{	// test if sequence is empty

	push	ebp
	mov	ebp, esp
	push	ecx
	mov	DWORD PTR _this$[ebp], ecx

; 630  : 		return (_Mysize == 0);

	mov	eax, DWORD PTR _this$[ebp]
	xor	ecx, ecx
	cmp	DWORD PTR [eax+24], 0
	sete	cl
	mov	al, cl

; 631  : 		}

	mov	esp, ebp
	pop	ebp
	ret	0
?empty@?$list@V?$basic_string@DU?$char_traits@D@std@@V?$allocator@D@2@@std@@V?$allocator@V?$basic_string@DU?$char_traits@D@std@@V?$allocator@D@2@@std@@@2@@std@@QBE_NXZ ENDP ; std::list<std::basic_string<char,std::char_traits<char>,std::allocator<char> >,std::allocator<std::basic_string<char,std::char_traits<char>,std::allocator<char> > > >::empty
_TEXT	ENDS
PUBLIC	??D?$_Iterator@$00@?$list@V?$basic_string@DU?$char_traits@D@std@@V?$allocator@D@2@@std@@V?$allocator@V?$basic_string@DU?$char_traits@D@std@@V?$allocator@D@2@@std@@@2@@std@@QBEAAV?$basic_string@DU?$char_traits@D@std@@V?$allocator@D@2@@2@XZ ; std::list<std::basic_string<char,std::char_traits<char>,std::allocator<char> >,std::allocator<std::basic_string<char,std::char_traits<char>,std::allocator<char> > > >::_Iterator<1>::operator*
; Function compile flags: /Odtp
;	COMDAT ?front@?$list@V?$basic_string@DU?$char_traits@D@std@@V?$allocator@D@2@@std@@V?$allocator@V?$basic_string@DU?$char_traits@D@std@@V?$allocator@D@2@@std@@@2@@std@@QAEAAV?$basic_string@DU?$char_traits@D@std@@V?$allocator@D@2@@2@XZ
_TEXT	SEGMENT
_this$ = -12						; size = 4
$T118635 = -8						; size = 8
?front@?$list@V?$basic_string@DU?$char_traits@D@std@@V?$allocator@D@2@@std@@V?$allocator@V?$basic_string@DU?$char_traits@D@std@@V?$allocator@D@2@@std@@@2@@std@@QAEAAV?$basic_string@DU?$char_traits@D@std@@V?$allocator@D@2@@2@XZ PROC ; std::list<std::basic_string<char,std::char_traits<char>,std::allocator<char> >,std::allocator<std::basic_string<char,std::char_traits<char>,std::allocator<char> > > >::front, COMDAT
; _this$ = ecx

; 639  : 		{	// return first element of mutable sequence

	push	ebp
	mov	ebp, esp
	sub	esp, 12					; 0000000cH
	mov	DWORD PTR _this$[ebp], ecx

; 640  : 		return (*begin());

	lea	eax, DWORD PTR $T118635[ebp]
	push	eax
	mov	ecx, DWORD PTR _this$[ebp]
	call	?begin@?$list@V?$basic_string@DU?$char_traits@D@std@@V?$allocator@D@2@@std@@V?$allocator@V?$basic_string@DU?$char_traits@D@std@@V?$allocator@D@2@@std@@@2@@std@@QAE?AV?$_Iterator@$00@12@XZ ; std::list<std::basic_string<char,std::char_traits<char>,std::allocator<char> >,std::allocator<std::basic_string<char,std::char_traits<char>,std::allocator<char> > > >::begin
	mov	ecx, eax
	call	??D?$_Iterator@$00@?$list@V?$basic_string@DU?$char_traits@D@std@@V?$allocator@D@2@@std@@V?$allocator@V?$basic_string@DU?$char_traits@D@std@@V?$allocator@D@2@@std@@@2@@std@@QBEAAV?$basic_string@DU?$char_traits@D@std@@V?$allocator@D@2@@2@XZ ; std::list<std::basic_string<char,std::char_traits<char>,std::allocator<char> >,std::allocator<std::basic_string<char,std::char_traits<char>,std::allocator<char> > > >::_Iterator<1>::operator*

; 641  : 		}

	mov	esp, ebp
	pop	ebp
	ret	0
?front@?$list@V?$basic_string@DU?$char_traits@D@std@@V?$allocator@D@2@@std@@V?$allocator@V?$basic_string@DU?$char_traits@D@std@@V?$allocator@D@2@@std@@@2@@std@@QAEAAV?$basic_string@DU?$char_traits@D@std@@V?$allocator@D@2@@2@XZ ENDP ; std::list<std::basic_string<char,std::char_traits<char>,std::allocator<char> >,std::allocator<std::basic_string<char,std::char_traits<char>,std::allocator<char> > > >::front
_TEXT	ENDS
PUBLIC	?erase@?$list@V?$basic_string@DU?$char_traits@D@std@@V?$allocator@D@2@@std@@V?$allocator@V?$basic_string@DU?$char_traits@D@std@@V?$allocator@D@2@@std@@@2@@std@@QAE?AV?$_Iterator@$00@12@V?$_Const_iterator@$00@12@@Z ; std::list<std::basic_string<char,std::char_traits<char>,std::allocator<char> >,std::allocator<std::basic_string<char,std::char_traits<char>,std::allocator<char> > > >::erase
; Function compile flags: /Odtp
;	COMDAT ?pop_front@?$list@V?$basic_string@DU?$char_traits@D@std@@V?$allocator@D@2@@std@@V?$allocator@V?$basic_string@DU?$char_traits@D@std@@V?$allocator@D@2@@std@@@2@@std@@QAEXXZ
_TEXT	SEGMENT
_this$ = -28						; size = 4
$T118640 = -24						; size = 8
$T118639 = -16						; size = 8
$T118638 = -8						; size = 8
?pop_front@?$list@V?$basic_string@DU?$char_traits@D@std@@V?$allocator@D@2@@std@@V?$allocator@V?$basic_string@DU?$char_traits@D@std@@V?$allocator@D@2@@std@@@2@@std@@QAEXXZ PROC ; std::list<std::basic_string<char,std::char_traits<char>,std::allocator<char> >,std::allocator<std::basic_string<char,std::char_traits<char>,std::allocator<char> > > >::pop_front, COMDAT
; _this$ = ecx

; 664  : 		{	// erase element at beginning

	push	ebp
	mov	ebp, esp
	sub	esp, 28					; 0000001cH
	mov	DWORD PTR _this$[ebp], ecx

; 665  : 		erase(begin());

	lea	eax, DWORD PTR $T118639[ebp]
	push	eax
	mov	ecx, DWORD PTR _this$[ebp]
	call	?begin@?$list@V?$basic_string@DU?$char_traits@D@std@@V?$allocator@D@2@@std@@V?$allocator@V?$basic_string@DU?$char_traits@D@std@@V?$allocator@D@2@@std@@@2@@std@@QAE?AV?$_Iterator@$00@12@XZ ; std::list<std::basic_string<char,std::char_traits<char>,std::allocator<char> >,std::allocator<std::basic_string<char,std::char_traits<char>,std::allocator<char> > > >::begin
	mov	ecx, DWORD PTR [eax]
	mov	edx, DWORD PTR [eax+4]
	mov	DWORD PTR $T118638[ebp], ecx
	mov	DWORD PTR $T118638[ebp+4], edx
	mov	eax, DWORD PTR $T118638[ebp+4]
	push	eax
	mov	ecx, DWORD PTR $T118638[ebp]
	push	ecx
	lea	edx, DWORD PTR $T118640[ebp]
	push	edx
	mov	ecx, DWORD PTR _this$[ebp]
	call	?erase@?$list@V?$basic_string@DU?$char_traits@D@std@@V?$allocator@D@2@@std@@V?$allocator@V?$basic_string@DU?$char_traits@D@std@@V?$allocator@D@2@@std@@@2@@std@@QAE?AV?$_Iterator@$00@12@V?$_Const_iterator@$00@12@@Z ; std::list<std::basic_string<char,std::char_traits<char>,std::allocator<char> >,std::allocator<std::basic_string<char,std::char_traits<char>,std::allocator<char> > > >::erase

; 666  : 		}

	mov	esp, ebp
	pop	ebp
	ret	0
?pop_front@?$list@V?$basic_string@DU?$char_traits@D@std@@V?$allocator@D@2@@std@@V?$allocator@V?$basic_string@DU?$char_traits@D@std@@V?$allocator@D@2@@std@@@2@@std@@QAEXXZ ENDP ; std::list<std::basic_string<char,std::char_traits<char>,std::allocator<char> >,std::allocator<std::basic_string<char,std::char_traits<char>,std::allocator<char> > > >::pop_front
_TEXT	ENDS
PUBLIC	?_Insert@?$list@V?$basic_string@DU?$char_traits@D@std@@V?$allocator@D@2@@std@@V?$allocator@V?$basic_string@DU?$char_traits@D@std@@V?$allocator@D@2@@std@@@2@@std@@QAEXV?$_Const_iterator@$00@12@ABV?$basic_string@DU?$char_traits@D@std@@V?$allocator@D@2@@2@@Z ; std::list<std::basic_string<char,std::char_traits<char>,std::allocator<char> >,std::allocator<std::basic_string<char,std::char_traits<char>,std::allocator<char> > > >::_Insert
PUBLIC	?end@?$list@V?$basic_string@DU?$char_traits@D@std@@V?$allocator@D@2@@std@@V?$allocator@V?$basic_string@DU?$char_traits@D@std@@V?$allocator@D@2@@std@@@2@@std@@QAE?AV?$_Iterator@$00@12@XZ ; std::list<std::basic_string<char,std::char_traits<char>,std::allocator<char> >,std::allocator<std::basic_string<char,std::char_traits<char>,std::allocator<char> > > >::end
; Function compile flags: /Odtp
;	COMDAT ?push_back@?$list@V?$basic_string@DU?$char_traits@D@std@@V?$allocator@D@2@@std@@V?$allocator@V?$basic_string@DU?$char_traits@D@std@@V?$allocator@D@2@@std@@@2@@std@@QAEXABV?$basic_string@DU?$char_traits@D@std@@V?$allocator@D@2@@2@@Z
_TEXT	SEGMENT
_this$ = -20						; size = 4
$T118644 = -16						; size = 8
$T118643 = -8						; size = 8
__Val$ = 8						; size = 4
?push_back@?$list@V?$basic_string@DU?$char_traits@D@std@@V?$allocator@D@2@@std@@V?$allocator@V?$basic_string@DU?$char_traits@D@std@@V?$allocator@D@2@@std@@@2@@std@@QAEXABV?$basic_string@DU?$char_traits@D@std@@V?$allocator@D@2@@2@@Z PROC ; std::list<std::basic_string<char,std::char_traits<char>,std::allocator<char> >,std::allocator<std::basic_string<char,std::char_traits<char>,std::allocator<char> > > >::push_back, COMDAT
; _this$ = ecx

; 669  : 		{	// insert element at end

	push	ebp
	mov	ebp, esp
	sub	esp, 20					; 00000014H
	mov	DWORD PTR _this$[ebp], ecx

; 670  : 		_Insert(end(), _Val);

	lea	eax, DWORD PTR $T118644[ebp]
	push	eax
	mov	ecx, DWORD PTR _this$[ebp]
	call	?end@?$list@V?$basic_string@DU?$char_traits@D@std@@V?$allocator@D@2@@std@@V?$allocator@V?$basic_string@DU?$char_traits@D@std@@V?$allocator@D@2@@std@@@2@@std@@QAE?AV?$_Iterator@$00@12@XZ ; std::list<std::basic_string<char,std::char_traits<char>,std::allocator<char> >,std::allocator<std::basic_string<char,std::char_traits<char>,std::allocator<char> > > >::end
	mov	ecx, DWORD PTR [eax]
	mov	edx, DWORD PTR [eax+4]
	mov	DWORD PTR $T118643[ebp], ecx
	mov	DWORD PTR $T118643[ebp+4], edx
	mov	eax, DWORD PTR __Val$[ebp]
	push	eax
	mov	ecx, DWORD PTR $T118643[ebp+4]
	push	ecx
	mov	edx, DWORD PTR $T118643[ebp]
	push	edx
	mov	ecx, DWORD PTR _this$[ebp]
	call	?_Insert@?$list@V?$basic_string@DU?$char_traits@D@std@@V?$allocator@D@2@@std@@V?$allocator@V?$basic_string@DU?$char_traits@D@std@@V?$allocator@D@2@@std@@@2@@std@@QAEXV?$_Const_iterator@$00@12@ABV?$basic_string@DU?$char_traits@D@std@@V?$allocator@D@2@@2@@Z ; std::list<std::basic_string<char,std::char_traits<char>,std::allocator<char> >,std::allocator<std::basic_string<char,std::char_traits<char>,std::allocator<char> > > >::_Insert

; 671  : 		}

	mov	esp, ebp
	pop	ebp
	ret	4
?push_back@?$list@V?$basic_string@DU?$char_traits@D@std@@V?$allocator@D@2@@std@@V?$allocator@V?$basic_string@DU?$char_traits@D@std@@V?$allocator@D@2@@std@@@2@@std@@QAEXABV?$basic_string@DU?$char_traits@D@std@@V?$allocator@D@2@@2@@Z ENDP ; std::list<std::basic_string<char,std::char_traits<char>,std::allocator<char> >,std::allocator<std::basic_string<char,std::char_traits<char>,std::allocator<char> > > >::push_back
_TEXT	ENDS
PUBLIC	?deallocate@?$allocator@U_Node@?$_List_nod@V?$basic_string@DU?$char_traits@D@std@@V?$allocator@D@2@@std@@V?$allocator@V?$basic_string@DU?$char_traits@D@std@@V?$allocator@D@2@@std@@@2@@std@@@std@@QAEXPAU_Node@?$_List_nod@V?$basic_string@DU?$char_traits@D@std@@V?$allocator@D@2@@std@@V?$allocator@V?$basic_string@DU?$char_traits@D@std@@V?$allocator@D@2@@std@@@2@@2@I@Z ; std::allocator<std::_List_nod<std::basic_string<char,std::char_traits<char>,std::allocator<char> >,std::allocator<std::basic_string<char,std::char_traits<char>,std::allocator<char> > > >::_Node>::deallocate
PUBLIC	?destroy@?$allocator@U_Node@?$_List_nod@V?$basic_string@DU?$char_traits@D@std@@V?$allocator@D@2@@std@@V?$allocator@V?$basic_string@DU?$char_traits@D@std@@V?$allocator@D@2@@std@@@2@@std@@@std@@QAEXPAU_Node@?$_List_nod@V?$basic_string@DU?$char_traits@D@std@@V?$allocator@D@2@@std@@V?$allocator@V?$basic_string@DU?$char_traits@D@std@@V?$allocator@D@2@@std@@@2@@2@@Z ; std::allocator<std::_List_nod<std::basic_string<char,std::char_traits<char>,std::allocator<char> >,std::allocator<std::basic_string<char,std::char_traits<char>,std::allocator<char> > > >::_Node>::destroy
PUBLIC	?_Prevnode@?$list@V?$basic_string@DU?$char_traits@D@std@@V?$allocator@D@2@@std@@V?$allocator@V?$basic_string@DU?$char_traits@D@std@@V?$allocator@D@2@@std@@@2@@std@@KAAAPAU_Node@?$_List_nod@V?$basic_string@DU?$char_traits@D@std@@V?$allocator@D@2@@std@@V?$allocator@V?$basic_string@DU?$char_traits@D@std@@V?$allocator@D@2@@std@@@2@@2@PAU342@@Z ; std::list<std::basic_string<char,std::char_traits<char>,std::allocator<char> >,std::allocator<std::basic_string<char,std::char_traits<char>,std::allocator<char> > > >::_Prevnode
PUBLIC	?_Nextnode@?$list@V?$basic_string@DU?$char_traits@D@std@@V?$allocator@D@2@@std@@V?$allocator@V?$basic_string@DU?$char_traits@D@std@@V?$allocator@D@2@@std@@@2@@std@@KAAAPAU_Node@?$_List_nod@V?$basic_string@DU?$char_traits@D@std@@V?$allocator@D@2@@std@@V?$allocator@V?$basic_string@DU?$char_traits@D@std@@V?$allocator@D@2@@std@@@2@@2@PAU342@@Z ; std::list<std::basic_string<char,std::char_traits<char>,std::allocator<char> >,std::allocator<std::basic_string<char,std::char_traits<char>,std::allocator<char> > > >::_Nextnode
; Function compile flags: /Odtp
;	COMDAT ?clear@?$list@V?$basic_string@DU?$char_traits@D@std@@V?$allocator@D@2@@std@@V?$allocator@V?$basic_string@DU?$char_traits@D@std@@V?$allocator@D@2@@std@@@2@@std@@QAEXXZ
_TEXT	SEGMENT
_this$ = -12						; size = 4
__Pnext$ = -8						; size = 4
__Pnode$ = -4						; size = 4
?clear@?$list@V?$basic_string@DU?$char_traits@D@std@@V?$allocator@D@2@@std@@V?$allocator@V?$basic_string@DU?$char_traits@D@std@@V?$allocator@D@2@@std@@@2@@std@@QAEXXZ PROC ; std::list<std::basic_string<char,std::char_traits<char>,std::allocator<char> >,std::allocator<std::basic_string<char,std::char_traits<char>,std::allocator<char> > > >::clear, COMDAT
; _this$ = ecx

; 825  : 		{	// erase all

	push	ebp
	mov	ebp, esp
	sub	esp, 12					; 0000000cH
	mov	DWORD PTR _this$[ebp], ecx

; 826  : 
; 827  :  #if _HAS_ITERATOR_DEBUGGING
; 828  : 		this->_Orphan_ptr(*this, 0);
; 829  :  #endif /* _HAS_ITERATOR_DEBUGGING */
; 830  : 
; 831  : 		_Nodeptr _Pnext;
; 832  : 		_Nodeptr _Pnode = _Nextnode(_Myhead);

	mov	eax, DWORD PTR _this$[ebp]
	mov	ecx, DWORD PTR [eax+20]
	push	ecx
	call	?_Nextnode@?$list@V?$basic_string@DU?$char_traits@D@std@@V?$allocator@D@2@@std@@V?$allocator@V?$basic_string@DU?$char_traits@D@std@@V?$allocator@D@2@@std@@@2@@std@@KAAAPAU_Node@?$_List_nod@V?$basic_string@DU?$char_traits@D@std@@V?$allocator@D@2@@std@@V?$allocator@V?$basic_string@DU?$char_traits@D@std@@V?$allocator@D@2@@std@@@2@@2@PAU342@@Z ; std::list<std::basic_string<char,std::char_traits<char>,std::allocator<char> >,std::allocator<std::basic_string<char,std::char_traits<char>,std::allocator<char> > > >::_Nextnode
	add	esp, 4
	mov	edx, DWORD PTR [eax]
	mov	DWORD PTR __Pnode$[ebp], edx

; 833  : 		_Nextnode(_Myhead) = _Myhead;

	mov	eax, DWORD PTR _this$[ebp]
	mov	ecx, DWORD PTR [eax+20]
	push	ecx
	call	?_Nextnode@?$list@V?$basic_string@DU?$char_traits@D@std@@V?$allocator@D@2@@std@@V?$allocator@V?$basic_string@DU?$char_traits@D@std@@V?$allocator@D@2@@std@@@2@@std@@KAAAPAU_Node@?$_List_nod@V?$basic_string@DU?$char_traits@D@std@@V?$allocator@D@2@@std@@V?$allocator@V?$basic_string@DU?$char_traits@D@std@@V?$allocator@D@2@@std@@@2@@2@PAU342@@Z ; std::list<std::basic_string<char,std::char_traits<char>,std::allocator<char> >,std::allocator<std::basic_string<char,std::char_traits<char>,std::allocator<char> > > >::_Nextnode
	add	esp, 4
	mov	edx, DWORD PTR _this$[ebp]
	mov	ecx, DWORD PTR [edx+20]
	mov	DWORD PTR [eax], ecx

; 834  : 		_Prevnode(_Myhead) = _Myhead;

	mov	edx, DWORD PTR _this$[ebp]
	mov	eax, DWORD PTR [edx+20]
	push	eax
	call	?_Prevnode@?$list@V?$basic_string@DU?$char_traits@D@std@@V?$allocator@D@2@@std@@V?$allocator@V?$basic_string@DU?$char_traits@D@std@@V?$allocator@D@2@@std@@@2@@std@@KAAAPAU_Node@?$_List_nod@V?$basic_string@DU?$char_traits@D@std@@V?$allocator@D@2@@std@@V?$allocator@V?$basic_string@DU?$char_traits@D@std@@V?$allocator@D@2@@std@@@2@@2@PAU342@@Z ; std::list<std::basic_string<char,std::char_traits<char>,std::allocator<char> >,std::allocator<std::basic_string<char,std::char_traits<char>,std::allocator<char> > > >::_Prevnode
	add	esp, 4
	mov	ecx, DWORD PTR _this$[ebp]
	mov	edx, DWORD PTR [ecx+20]
	mov	DWORD PTR [eax], edx

; 835  : 		_Mysize = 0;

	mov	eax, DWORD PTR _this$[ebp]
	mov	DWORD PTR [eax+24], 0

; 836  : 
; 837  : 		for (; _Pnode != _Myhead; _Pnode = _Pnext)

	jmp	SHORT $LN3@clear
$LN2@clear:
	mov	ecx, DWORD PTR __Pnext$[ebp]
	mov	DWORD PTR __Pnode$[ebp], ecx
$LN3@clear:
	mov	edx, DWORD PTR _this$[ebp]
	mov	eax, DWORD PTR __Pnode$[ebp]
	cmp	eax, DWORD PTR [edx+20]
	je	SHORT $LN4@clear

; 838  : 			{	// delete an element
; 839  : 			_Pnext = _Nextnode(_Pnode);

	mov	ecx, DWORD PTR __Pnode$[ebp]
	push	ecx
	call	?_Nextnode@?$list@V?$basic_string@DU?$char_traits@D@std@@V?$allocator@D@2@@std@@V?$allocator@V?$basic_string@DU?$char_traits@D@std@@V?$allocator@D@2@@std@@@2@@std@@KAAAPAU_Node@?$_List_nod@V?$basic_string@DU?$char_traits@D@std@@V?$allocator@D@2@@std@@V?$allocator@V?$basic_string@DU?$char_traits@D@std@@V?$allocator@D@2@@std@@@2@@2@PAU342@@Z ; std::list<std::basic_string<char,std::char_traits<char>,std::allocator<char> >,std::allocator<std::basic_string<char,std::char_traits<char>,std::allocator<char> > > >::_Nextnode
	add	esp, 4
	mov	edx, DWORD PTR [eax]
	mov	DWORD PTR __Pnext$[ebp], edx

; 840  : 			this->_Alnod.destroy(_Pnode);

	mov	eax, DWORD PTR __Pnode$[ebp]
	push	eax
	mov	ecx, DWORD PTR _this$[ebp]
	add	ecx, 8
	call	?destroy@?$allocator@U_Node@?$_List_nod@V?$basic_string@DU?$char_traits@D@std@@V?$allocator@D@2@@std@@V?$allocator@V?$basic_string@DU?$char_traits@D@std@@V?$allocator@D@2@@std@@@2@@std@@@std@@QAEXPAU_Node@?$_List_nod@V?$basic_string@DU?$char_traits@D@std@@V?$allocator@D@2@@std@@V?$allocator@V?$basic_string@DU?$char_traits@D@std@@V?$allocator@D@2@@std@@@2@@2@@Z ; std::allocator<std::_List_nod<std::basic_string<char,std::char_traits<char>,std::allocator<char> >,std::allocator<std::basic_string<char,std::char_traits<char>,std::allocator<char> > > >::_Node>::destroy

; 841  : 			this->_Alnod.deallocate(_Pnode, 1);

	push	1
	mov	ecx, DWORD PTR __Pnode$[ebp]
	push	ecx
	mov	ecx, DWORD PTR _this$[ebp]
	add	ecx, 8
	call	?deallocate@?$allocator@U_Node@?$_List_nod@V?$basic_string@DU?$char_traits@D@std@@V?$allocator@D@2@@std@@V?$allocator@V?$basic_string@DU?$char_traits@D@std@@V?$allocator@D@2@@std@@@2@@std@@@std@@QAEXPAU_Node@?$_List_nod@V?$basic_string@DU?$char_traits@D@std@@V?$allocator@D@2@@std@@V?$allocator@V?$basic_string@DU?$char_traits@D@std@@V?$allocator@D@2@@std@@@2@@2@I@Z ; std::allocator<std::_List_nod<std::basic_string<char,std::char_traits<char>,std::allocator<char> >,std::allocator<std::basic_string<char,std::char_traits<char>,std::allocator<char> > > >::_Node>::deallocate

; 842  : 			}

	jmp	SHORT $LN2@clear
$LN4@clear:

; 843  : 		}

	mov	esp, ebp
	pop	ebp
	ret	0
?clear@?$list@V?$basic_string@DU?$char_traits@D@std@@V?$allocator@D@2@@std@@V?$allocator@V?$basic_string@DU?$char_traits@D@std@@V?$allocator@D@2@@std@@@2@@std@@QAEXXZ ENDP ; std::list<std::basic_string<char,std::char_traits<char>,std::allocator<char> >,std::allocator<std::basic_string<char,std::char_traits<char>,std::allocator<char> > > >::clear
_TEXT	ENDS
PUBLIC	??0?$Singleton@VRenderSystem@Ogre@@@Ogre@@QAE@XZ ; Ogre::Singleton<Ogre::RenderSystem>::Singleton<Ogre::RenderSystem>
; Function compile flags: /Odtp
; File i:\svnroot\client\ogremain\ogresingleton.h
;	COMDAT ??0?$Singleton@VRenderSystem@Ogre@@@Ogre@@QAE@XZ
_TEXT	SEGMENT
tv68 = -8						; size = 4
_this$ = -4						; size = 4
??0?$Singleton@VRenderSystem@Ogre@@@Ogre@@QAE@XZ PROC	; Ogre::Singleton<Ogre::RenderSystem>::Singleton<Ogre::RenderSystem>, COMDAT
; _this$ = ecx

; 64   : 		Singleton( void )

	push	ebp
	mov	ebp, esp
	sub	esp, 8
	mov	DWORD PTR _this$[ebp], ecx

; 65   : 		{
; 66   : 			assert( !ms_Singleton );
; 67   : #if defined( _MSC_VER ) && _MSC_VER < 1200	 
; 68   : 			int offset = (int)(T*)1 - (int)(Singleton <T>*)(T*)1;
; 69   : 			ms_Singleton = (T*)((int)this + offset);
; 70   : #else
; 71   : 			ms_Singleton = static_cast< T* >( this );

	cmp	DWORD PTR _this$[ebp], 0
	je	SHORT $LN3@Singleton
	mov	eax, DWORD PTR _this$[ebp]
	sub	eax, 4
	mov	DWORD PTR tv68[ebp], eax
	jmp	SHORT $LN4@Singleton
$LN3@Singleton:
	mov	DWORD PTR tv68[ebp], 0
$LN4@Singleton:
	mov	ecx, DWORD PTR tv68[ebp]
	mov	DWORD PTR ?ms_Singleton@?$Singleton@VRenderSystem@Ogre@@@Ogre@@1PAVRenderSystem@2@A, ecx ; Ogre::Singleton<Ogre::RenderSystem>::ms_Singleton

; 72   : #endif
; 73   : 		}

	mov	eax, DWORD PTR _this$[ebp]
	mov	esp, ebp
	pop	ebp
	ret	0
??0?$Singleton@VRenderSystem@Ogre@@@Ogre@@QAE@XZ ENDP	; Ogre::Singleton<Ogre::RenderSystem>::Singleton<Ogre::RenderSystem>
; Function compile flags: /Odtp
_TEXT	ENDS
;	COMDAT ??1?$Singleton@VRenderSystem@Ogre@@@Ogre@@QAE@XZ
_TEXT	SEGMENT
_this$ = -4						; size = 4
??1?$Singleton@VRenderSystem@Ogre@@@Ogre@@QAE@XZ PROC	; Ogre::Singleton<Ogre::RenderSystem>::~Singleton<Ogre::RenderSystem>, COMDAT
; _this$ = ecx

; 75   : 		{  assert( ms_Singleton );  ms_Singleton = 0;  }

	push	ebp
	mov	ebp, esp
	push	ecx
	mov	DWORD PTR _this$[ebp], ecx
	mov	DWORD PTR ?ms_Singleton@?$Singleton@VRenderSystem@Ogre@@@Ogre@@1PAVRenderSystem@2@A, 0 ; Ogre::Singleton<Ogre::RenderSystem>::ms_Singleton
	mov	esp, ebp
	pop	ebp
	ret	0
??1?$Singleton@VRenderSystem@Ogre@@@Ogre@@QAE@XZ ENDP	; Ogre::Singleton<Ogre::RenderSystem>::~Singleton<Ogre::RenderSystem>
; Function compile flags: /Odtp
_TEXT	ENDS
;	COMDAT ?getSingleton@?$Singleton@VRenderSystem@Ogre@@@Ogre@@SAAAVRenderSystem@2@XZ
_TEXT	SEGMENT
?getSingleton@?$Singleton@VRenderSystem@Ogre@@@Ogre@@SAAAVRenderSystem@2@XZ PROC ; Ogre::Singleton<Ogre::RenderSystem>::getSingleton, COMDAT

; 77   : 		{	assert( ms_Singleton );  return ( *ms_Singleton ); }

	push	ebp
	mov	ebp, esp
	mov	eax, DWORD PTR ?ms_Singleton@?$Singleton@VRenderSystem@Ogre@@@Ogre@@1PAVRenderSystem@2@A ; Ogre::Singleton<Ogre::RenderSystem>::ms_Singleton
	pop	ebp
	ret	0
?getSingleton@?$Singleton@VRenderSystem@Ogre@@@Ogre@@SAAAVRenderSystem@2@XZ ENDP ; Ogre::Singleton<Ogre::RenderSystem>::getSingleton
; Function compile flags: /Odtp
_TEXT	ENDS
;	COMDAT ?getSingletonPtr@?$Singleton@VRenderSystem@Ogre@@@Ogre@@SAPAVRenderSystem@2@XZ
_TEXT	SEGMENT
?getSingletonPtr@?$Singleton@VRenderSystem@Ogre@@@Ogre@@SAPAVRenderSystem@2@XZ PROC ; Ogre::Singleton<Ogre::RenderSystem>::getSingletonPtr, COMDAT

; 79   : 		{ return ms_Singleton; }

	push	ebp
	mov	ebp, esp
	mov	eax, DWORD PTR ?ms_Singleton@?$Singleton@VRenderSystem@Ogre@@@Ogre@@1PAVRenderSystem@2@A ; Ogre::Singleton<Ogre::RenderSystem>::ms_Singleton
	pop	ebp
	ret	0
?getSingletonPtr@?$Singleton@VRenderSystem@Ogre@@@Ogre@@SAPAVRenderSystem@2@XZ ENDP ; Ogre::Singleton<Ogre::RenderSystem>::getSingletonPtr
_TEXT	ENDS
PUBLIC	??1?$_List_ptr@V?$basic_string@DU?$char_traits@D@std@@V?$allocator@D@2@@std@@V?$allocator@V?$basic_string@DU?$char_traits@D@std@@V?$allocator@D@2@@std@@@2@@std@@QAE@XZ ; std::_List_ptr<std::basic_string<char,std::char_traits<char>,std::allocator<char> >,std::allocator<std::basic_string<char,std::char_traits<char>,std::allocator<char> > > >::~_List_ptr<std::basic_string<char,std::char_traits<char>,std::allocator<char> >,std::allocator<std::basic_string<char,std::char_traits<char>,std::allocator<char> > > >
;	COMDAT xdata$x
xdata$x	SEGMENT
__unwindtable$??1?$_List_val@V?$basic_string@DU?$char_traits@D@std@@V?$allocator@D@2@@std@@V?$allocator@V?$basic_string@DU?$char_traits@D@std@@V?$allocator@D@2@@std@@@2@@std@@QAE@XZ DD 0ffffffffH
	DD	FLAT:__unwindfunclet$??1?$_List_val@V?$basic_string@DU?$char_traits@D@std@@V?$allocator@D@2@@std@@V?$allocator@V?$basic_string@DU?$char_traits@D@std@@V?$allocator@D@2@@std@@@2@@std@@QAE@XZ$0
__ehfuncinfo$??1?$_List_val@V?$basic_string@DU?$char_traits@D@std@@V?$allocator@D@2@@std@@V?$allocator@V?$basic_string@DU?$char_traits@D@std@@V?$allocator@D@2@@std@@@2@@std@@QAE@XZ DD 019930522H
	DD	01H
	DD	FLAT:__unwindtable$??1?$_List_val@V?$basic_string@DU?$char_traits@D@std@@V?$allocator@D@2@@std@@V?$allocator@V?$basic_string@DU?$char_traits@D@std@@V?$allocator@D@2@@std@@@2@@std@@QAE@XZ
	DD	2 DUP(00H)
	DD	2 DUP(00H)
	DD	00H
	DD	00H
; Function compile flags: /Odtp
xdata$x	ENDS
;	COMDAT ??1?$_List_val@V?$basic_string@DU?$char_traits@D@std@@V?$allocator@D@2@@std@@V?$allocator@V?$basic_string@DU?$char_traits@D@std@@V?$allocator@D@2@@std@@@2@@std@@QAE@XZ
_TEXT	SEGMENT
_this$ = -16						; size = 4
__$EHRec$ = -12						; size = 12
??1?$_List_val@V?$basic_string@DU?$char_traits@D@std@@V?$allocator@D@2@@std@@V?$allocator@V?$basic_string@DU?$char_traits@D@std@@V?$allocator@D@2@@std@@@2@@std@@QAE@XZ PROC ; std::_List_val<std::basic_string<char,std::char_traits<char>,std::allocator<char> >,std::allocator<std::basic_string<char,std::char_traits<char>,std::allocator<char> > > >::~_List_val<std::basic_string<char,std::char_traits<char>,std::allocator<char> >,std::allocator<std::basic_string<char,std::char_traits<char>,std::allocator<char> > > >, COMDAT
; _this$ = ecx
	push	ebp
	mov	ebp, esp
	push	-1
	push	__ehhandler$??1?$_List_val@V?$basic_string@DU?$char_traits@D@std@@V?$allocator@D@2@@std@@V?$allocator@V?$basic_string@DU?$char_traits@D@std@@V?$allocator@D@2@@std@@@2@@std@@QAE@XZ
	mov	eax, DWORD PTR fs:0
	push	eax
	push	ecx
	mov	eax, DWORD PTR ___security_cookie
	xor	eax, ebp
	push	eax
	lea	eax, DWORD PTR __$EHRec$[ebp]
	mov	DWORD PTR fs:0, eax
	mov	DWORD PTR _this$[ebp], ecx
	mov	DWORD PTR __$EHRec$[ebp+8], 0
	mov	DWORD PTR __$EHRec$[ebp+8], -1
	mov	ecx, DWORD PTR _this$[ebp]
	call	??1?$_List_ptr@V?$basic_string@DU?$char_traits@D@std@@V?$allocator@D@2@@std@@V?$allocator@V?$basic_string@DU?$char_traits@D@std@@V?$allocator@D@2@@std@@@2@@std@@QAE@XZ
	mov	ecx, DWORD PTR __$EHRec$[ebp]
	mov	DWORD PTR fs:0, ecx
	pop	ecx
	mov	esp, ebp
	pop	ebp
	ret	0
_TEXT	ENDS
;	COMDAT text$x
text$x	SEGMENT
__unwindfunclet$??1?$_List_val@V?$basic_string@DU?$char_traits@D@std@@V?$allocator@D@2@@std@@V?$allocator@V?$basic_string@DU?$char_traits@D@std@@V?$allocator@D@2@@std@@@2@@std@@QAE@XZ$0:
	mov	ecx, DWORD PTR _this$[ebp]
	jmp	??1?$_List_ptr@V?$basic_string@DU?$char_traits@D@std@@V?$allocator@D@2@@std@@V?$allocator@V?$basic_string@DU?$char_traits@D@std@@V?$allocator@D@2@@std@@@2@@std@@QAE@XZ
__ehhandler$??1?$_List_val@V?$basic_string@DU?$char_traits@D@std@@V?$allocator@D@2@@std@@V?$allocator@V?$basic_string@DU?$char_traits@D@std@@V?$allocator@D@2@@std@@@2@@std@@QAE@XZ:
	mov	edx, DWORD PTR [esp+8]
	lea	eax, DWORD PTR [edx+12]
	mov	ecx, DWORD PTR [edx-8]
	xor	ecx, eax
	call	@__security_check_cookie@4
	mov	eax, OFFSET __ehfuncinfo$??1?$_List_val@V?$basic_string@DU?$char_traits@D@std@@V?$allocator@D@2@@std@@V?$allocator@V?$basic_string@DU?$char_traits@D@std@@V?$allocator@D@2@@std@@@2@@std@@QAE@XZ
	jmp	___CxxFrameHandler3
text$x	ENDS
??1?$_List_val@V?$basic_string@DU?$char_traits@D@std@@V?$allocator@D@2@@std@@V?$allocator@V?$basic_string@DU?$char_traits@D@std@@V?$allocator@D@2@@std@@@2@@std@@QAE@XZ ENDP ; std::_List_val<std::basic_string<char,std::char_traits<char>,std::allocator<char> >,std::allocator<std::basic_string<char,std::char_traits<char>,std::allocator<char> > > >::~_List_val<std::basic_string<char,std::char_traits<char>,std::allocator<char> >,std::allocator<std::basic_string<char,std::char_traits<char>,std::allocator<char> > > >
PUBLIC	??1?$_List_nod@V?$basic_string@DU?$char_traits@D@std@@V?$allocator@D@2@@std@@V?$allocator@V?$basic_string@DU?$char_traits@D@std@@V?$allocator@D@2@@std@@@2@@std@@QAE@XZ ; std::_List_nod<std::basic_string<char,std::char_traits<char>,std::allocator<char> >,std::allocator<std::basic_string<char,std::char_traits<char>,std::allocator<char> > > >::~_List_nod<std::basic_string<char,std::char_traits<char>,std::allocator<char> >,std::allocator<std::basic_string<char,std::char_traits<char>,std::allocator<char> > > >
;	COMDAT xdata$x
xdata$x	SEGMENT
__unwindtable$??1?$_List_ptr@V?$basic_string@DU?$char_traits@D@std@@V?$allocator@D@2@@std@@V?$allocator@V?$basic_string@DU?$char_traits@D@std@@V?$allocator@D@2@@std@@@2@@std@@QAE@XZ DD 0ffffffffH
	DD	FLAT:__unwindfunclet$??1?$_List_ptr@V?$basic_string@DU?$char_traits@D@std@@V?$allocator@D@2@@std@@V?$allocator@V?$basic_string@DU?$char_traits@D@std@@V?$allocator@D@2@@std@@@2@@std@@QAE@XZ$0
__ehfuncinfo$??1?$_List_ptr@V?$basic_string@DU?$char_traits@D@std@@V?$allocator@D@2@@std@@V?$allocator@V?$basic_string@DU?$char_traits@D@std@@V?$allocator@D@2@@std@@@2@@std@@QAE@XZ DD 019930522H
	DD	01H
	DD	FLAT:__unwindtable$??1?$_List_ptr@V?$basic_string@DU?$char_traits@D@std@@V?$allocator@D@2@@std@@V?$allocator@V?$basic_string@DU?$char_traits@D@std@@V?$allocator@D@2@@std@@@2@@std@@QAE@XZ
	DD	2 DUP(00H)
	DD	2 DUP(00H)
	DD	00H
	DD	00H
; Function compile flags: /Odtp
xdata$x	ENDS
;	COMDAT ??1?$_List_ptr@V?$basic_string@DU?$char_traits@D@std@@V?$allocator@D@2@@std@@V?$allocator@V?$basic_string@DU?$char_traits@D@std@@V?$allocator@D@2@@std@@@2@@std@@QAE@XZ
_TEXT	SEGMENT
_this$ = -16						; size = 4
__$EHRec$ = -12						; size = 12
??1?$_List_ptr@V?$basic_string@DU?$char_traits@D@std@@V?$allocator@D@2@@std@@V?$allocator@V?$basic_string@DU?$char_traits@D@std@@V?$allocator@D@2@@std@@@2@@std@@QAE@XZ PROC ; std::_List_ptr<std::basic_string<char,std::char_traits<char>,std::allocator<char> >,std::allocator<std::basic_string<char,std::char_traits<char>,std::allocator<char> > > >::~_List_ptr<std::basic_string<char,std::char_traits<char>,std::allocator<char> >,std::allocator<std::basic_string<char,std::char_traits<char>,std::allocator<char> > > >, COMDAT
; _this$ = ecx
	push	ebp
	mov	ebp, esp
	push	-1
	push	__ehhandler$??1?$_List_ptr@V?$basic_string@DU?$char_traits@D@std@@V?$allocator@D@2@@std@@V?$allocator@V?$basic_string@DU?$char_traits@D@std@@V?$allocator@D@2@@std@@@2@@std@@QAE@XZ
	mov	eax, DWORD PTR fs:0
	push	eax
	push	ecx
	mov	eax, DWORD PTR ___security_cookie
	xor	eax, ebp
	push	eax
	lea	eax, DWORD PTR __$EHRec$[ebp]
	mov	DWORD PTR fs:0, eax
	mov	DWORD PTR _this$[ebp], ecx
	mov	DWORD PTR __$EHRec$[ebp+8], 0
	mov	DWORD PTR __$EHRec$[ebp+8], -1
	mov	ecx, DWORD PTR _this$[ebp]
	call	??1?$_List_nod@V?$basic_string@DU?$char_traits@D@std@@V?$allocator@D@2@@std@@V?$allocator@V?$basic_string@DU?$char_traits@D@std@@V?$allocator@D@2@@std@@@2@@std@@QAE@XZ
	mov	ecx, DWORD PTR __$EHRec$[ebp]
	mov	DWORD PTR fs:0, ecx
	pop	ecx
	mov	esp, ebp
	pop	ebp
	ret	0
_TEXT	ENDS
;	COMDAT text$x
text$x	SEGMENT
__unwindfunclet$??1?$_List_ptr@V?$basic_string@DU?$char_traits@D@std@@V?$allocator@D@2@@std@@V?$allocator@V?$basic_string@DU?$char_traits@D@std@@V?$allocator@D@2@@std@@@2@@std@@QAE@XZ$0:
	mov	ecx, DWORD PTR _this$[ebp]
	jmp	??1?$_List_nod@V?$basic_string@DU?$char_traits@D@std@@V?$allocator@D@2@@std@@V?$allocator@V?$basic_string@DU?$char_traits@D@std@@V?$allocator@D@2@@std@@@2@@std@@QAE@XZ
__ehhandler$??1?$_List_ptr@V?$basic_string@DU?$char_traits@D@std@@V?$allocator@D@2@@std@@V?$allocator@V?$basic_string@DU?$char_traits@D@std@@V?$allocator@D@2@@std@@@2@@std@@QAE@XZ:
	mov	edx, DWORD PTR [esp+8]
	lea	eax, DWORD PTR [edx+12]
	mov	ecx, DWORD PTR [edx-8]
	xor	ecx, eax
	call	@__security_check_cookie@4
	mov	eax, OFFSET __ehfuncinfo$??1?$_List_ptr@V?$basic_string@DU?$char_traits@D@std@@V?$allocator@D@2@@std@@V?$allocator@V?$basic_string@DU?$char_traits@D@std@@V?$allocator@D@2@@std@@@2@@std@@QAE@XZ
	jmp	___CxxFrameHandler3
text$x	ENDS
??1?$_List_ptr@V?$basic_string@DU?$char_traits@D@std@@V?$allocator@D@2@@std@@V?$allocator@V?$basic_string@DU?$char_traits@D@std@@V?$allocator@D@2@@std@@@2@@std@@QAE@XZ ENDP ; std::_List_ptr<std::basic_string<char,std::char_traits<char>,std::allocator<char> >,std::allocator<std::basic_string<char,std::char_traits<char>,std::allocator<char> > > >::~_List_ptr<std::basic_string<char,std::char_traits<char>,std::allocator<char> >,std::allocator<std::basic_string<char,std::char_traits<char>,std::allocator<char> > > >
PUBLIC	??1?$_Container_base_aux_alloc_real@V?$allocator@V?$basic_string@DU?$char_traits@D@std@@V?$allocator@D@2@@std@@@std@@@std@@IAE@XZ ; std::_Container_base_aux_alloc_real<std::allocator<std::basic_string<char,std::char_traits<char>,std::allocator<char> > > >::~_Container_base_aux_alloc_real<std::allocator<std::basic_string<char,std::char_traits<char>,std::allocator<char> > > >
;	COMDAT xdata$x
xdata$x	SEGMENT
__unwindtable$??1?$_List_nod@V?$basic_string@DU?$char_traits@D@std@@V?$allocator@D@2@@std@@V?$allocator@V?$basic_string@DU?$char_traits@D@std@@V?$allocator@D@2@@std@@@2@@std@@QAE@XZ DD 0ffffffffH
	DD	FLAT:__unwindfunclet$??1?$_List_nod@V?$basic_string@DU?$char_traits@D@std@@V?$allocator@D@2@@std@@V?$allocator@V?$basic_string@DU?$char_traits@D@std@@V?$allocator@D@2@@std@@@2@@std@@QAE@XZ$0
__ehfuncinfo$??1?$_List_nod@V?$basic_string@DU?$char_traits@D@std@@V?$allocator@D@2@@std@@V?$allocator@V?$basic_string@DU?$char_traits@D@std@@V?$allocator@D@2@@std@@@2@@std@@QAE@XZ DD 019930522H
	DD	01H
	DD	FLAT:__unwindtable$??1?$_List_nod@V?$basic_string@DU?$char_traits@D@std@@V?$allocator@D@2@@std@@V?$allocator@V?$basic_string@DU?$char_traits@D@std@@V?$allocator@D@2@@std@@@2@@std@@QAE@XZ
	DD	2 DUP(00H)
	DD	2 DUP(00H)
	DD	00H
	DD	00H
; Function compile flags: /Odtp
xdata$x	ENDS
;	COMDAT ??1?$_List_nod@V?$basic_string@DU?$char_traits@D@std@@V?$allocator@D@2@@std@@V?$allocator@V?$basic_string@DU?$char_traits@D@std@@V?$allocator@D@2@@std@@@2@@std@@QAE@XZ
_TEXT	SEGMENT
_this$ = -16						; size = 4
__$EHRec$ = -12						; size = 12
??1?$_List_nod@V?$basic_string@DU?$char_traits@D@std@@V?$allocator@D@2@@std@@V?$allocator@V?$basic_string@DU?$char_traits@D@std@@V?$allocator@D@2@@std@@@2@@std@@QAE@XZ PROC ; std::_List_nod<std::basic_string<char,std::char_traits<char>,std::allocator<char> >,std::allocator<std::basic_string<char,std::char_traits<char>,std::allocator<char> > > >::~_List_nod<std::basic_string<char,std::char_traits<char>,std::allocator<char> >,std::allocator<std::basic_string<char,std::char_traits<char>,std::allocator<char> > > >, COMDAT
; _this$ = ecx
	push	ebp
	mov	ebp, esp
	push	-1
	push	__ehhandler$??1?$_List_nod@V?$basic_string@DU?$char_traits@D@std@@V?$allocator@D@2@@std@@V?$allocator@V?$basic_string@DU?$char_traits@D@std@@V?$allocator@D@2@@std@@@2@@std@@QAE@XZ
	mov	eax, DWORD PTR fs:0
	push	eax
	push	ecx
	mov	eax, DWORD PTR ___security_cookie
	xor	eax, ebp
	push	eax
	lea	eax, DWORD PTR __$EHRec$[ebp]
	mov	DWORD PTR fs:0, eax
	mov	DWORD PTR _this$[ebp], ecx
	mov	DWORD PTR __$EHRec$[ebp+8], 0
	mov	DWORD PTR __$EHRec$[ebp+8], -1
	mov	ecx, DWORD PTR _this$[ebp]
	call	??1?$_Container_base_aux_alloc_real@V?$allocator@V?$basic_string@DU?$char_traits@D@std@@V?$allocator@D@2@@std@@@std@@@std@@IAE@XZ ; std::_Container_base_aux_alloc_real<std::allocator<std::basic_string<char,std::char_traits<char>,std::allocator<char> > > >::~_Container_base_aux_alloc_real<std::allocator<std::basic_string<char,std::char_traits<char>,std::allocator<char> > > >
	mov	ecx, DWORD PTR __$EHRec$[ebp]
	mov	DWORD PTR fs:0, ecx
	pop	ecx
	mov	esp, ebp
	pop	ebp
	ret	0
_TEXT	ENDS
;	COMDAT text$x
text$x	SEGMENT
__unwindfunclet$??1?$_List_nod@V?$basic_string@DU?$char_traits@D@std@@V?$allocator@D@2@@std@@V?$allocator@V?$basic_string@DU?$char_traits@D@std@@V?$allocator@D@2@@std@@@2@@std@@QAE@XZ$0:
	mov	ecx, DWORD PTR _this$[ebp]
	jmp	??1?$_Container_base_aux_alloc_real@V?$allocator@V?$basic_string@DU?$char_traits@D@std@@V?$allocator@D@2@@std@@@std@@@std@@IAE@XZ ; std::_Container_base_aux_alloc_real<std::allocator<std::basic_string<char,std::char_traits<char>,std::allocator<char> > > >::~_Container_base_aux_alloc_real<std::allocator<std::basic_string<char,std::char_traits<char>,std::allocator<char> > > >
__ehhandler$??1?$_List_nod@V?$basic_string@DU?$char_traits@D@std@@V?$allocator@D@2@@std@@V?$allocator@V?$basic_string@DU?$char_traits@D@std@@V?$allocator@D@2@@std@@@2@@std@@QAE@XZ:
	mov	edx, DWORD PTR [esp+8]
	lea	eax, DWORD PTR [edx+12]
	mov	ecx, DWORD PTR [edx-8]
	xor	ecx, eax
	call	@__security_check_cookie@4
	mov	eax, OFFSET __ehfuncinfo$??1?$_List_nod@V?$basic_string@DU?$char_traits@D@std@@V?$allocator@D@2@@std@@V?$allocator@V?$basic_string@DU?$char_traits@D@std@@V?$allocator@D@2@@std@@@2@@std@@QAE@XZ
	jmp	___CxxFrameHandler3
text$x	ENDS
??1?$_List_nod@V?$basic_string@DU?$char_traits@D@std@@V?$allocator@D@2@@std@@V?$allocator@V?$basic_string@DU?$char_traits@D@std@@V?$allocator@D@2@@std@@@2@@std@@QAE@XZ ENDP ; std::_List_nod<std::basic_string<char,std::char_traits<char>,std::allocator<char> >,std::allocator<std::basic_string<char,std::char_traits<char>,std::allocator<char> > > >::~_List_nod<std::basic_string<char,std::char_traits<char>,std::allocator<char> >,std::allocator<std::basic_string<char,std::char_traits<char>,std::allocator<char> > > >
; Function compile flags: /Odtp
; File d:\program files (x86)\microsoft visual studio 9.0\vc\include\list
;	COMDAT ?_Nextnode@?$list@V?$basic_string@DU?$char_traits@D@std@@V?$allocator@D@2@@std@@V?$allocator@V?$basic_string@DU?$char_traits@D@std@@V?$allocator@D@2@@std@@@2@@std@@KAAAPAU_Node@?$_List_nod@V?$basic_string@DU?$char_traits@D@std@@V?$allocator@D@2@@std@@V?$allocator@V?$basic_string@DU?$char_traits@D@std@@V?$allocator@D@2@@std@@@2@@2@PAU342@@Z
_TEXT	SEGMENT
__Pnode$ = 8						; size = 4
?_Nextnode@?$list@V?$basic_string@DU?$char_traits@D@std@@V?$allocator@D@2@@std@@V?$allocator@V?$basic_string@DU?$char_traits@D@std@@V?$allocator@D@2@@std@@@2@@std@@KAAAPAU_Node@?$_List_nod@V?$basic_string@DU?$char_traits@D@std@@V?$allocator@D@2@@std@@V?$allocator@V?$basic_string@DU?$char_traits@D@std@@V?$allocator@D@2@@std@@@2@@2@PAU342@@Z PROC ; std::list<std::basic_string<char,std::char_traits<char>,std::allocator<char> >,std::allocator<std::basic_string<char,std::char_traits<char>,std::allocator<char> > > >::_Nextnode, COMDAT

; 114  : 		{	// return reference to successor pointer in node

	push	ebp
	mov	ebp, esp

; 115  : 		return ((_Nodepref)(*_Pnode)._Next);

	mov	eax, DWORD PTR __Pnode$[ebp]

; 116  : 		}

	pop	ebp
	ret	0
?_Nextnode@?$list@V?$basic_string@DU?$char_traits@D@std@@V?$allocator@D@2@@std@@V?$allocator@V?$basic_string@DU?$char_traits@D@std@@V?$allocator@D@2@@std@@@2@@std@@KAAAPAU_Node@?$_List_nod@V?$basic_string@DU?$char_traits@D@std@@V?$allocator@D@2@@std@@V?$allocator@V?$basic_string@DU?$char_traits@D@std@@V?$allocator@D@2@@std@@@2@@2@PAU342@@Z ENDP ; std::list<std::basic_string<char,std::char_traits<char>,std::allocator<char> >,std::allocator<std::basic_string<char,std::char_traits<char>,std::allocator<char> > > >::_Nextnode
; Function compile flags: /Odtp
_TEXT	ENDS
;	COMDAT ?_Prevnode@?$list@V?$basic_string@DU?$char_traits@D@std@@V?$allocator@D@2@@std@@V?$allocator@V?$basic_string@DU?$char_traits@D@std@@V?$allocator@D@2@@std@@@2@@std@@KAAAPAU_Node@?$_List_nod@V?$basic_string@DU?$char_traits@D@std@@V?$allocator@D@2@@std@@V?$allocator@V?$basic_string@DU?$char_traits@D@std@@V?$allocator@D@2@@std@@@2@@2@PAU342@@Z
_TEXT	SEGMENT
__Pnode$ = 8						; size = 4
?_Prevnode@?$list@V?$basic_string@DU?$char_traits@D@std@@V?$allocator@D@2@@std@@V?$allocator@V?$basic_string@DU?$char_traits@D@std@@V?$allocator@D@2@@std@@@2@@std@@KAAAPAU_Node@?$_List_nod@V?$basic_string@DU?$char_traits@D@std@@V?$allocator@D@2@@std@@V?$allocator@V?$basic_string@DU?$char_traits@D@std@@V?$allocator@D@2@@std@@@2@@2@PAU342@@Z PROC ; std::list<std::basic_string<char,std::char_traits<char>,std::allocator<char> >,std::allocator<std::basic_string<char,std::char_traits<char>,std::allocator<char> > > >::_Prevnode, COMDAT

; 119  : 		{	// return reference to predecessor pointer in node

	push	ebp
	mov	ebp, esp

; 120  : 		return ((_Nodepref)(*_Pnode)._Prev);

	mov	eax, DWORD PTR __Pnode$[ebp]
	add	eax, 4

; 121  : 		}

	pop	ebp
	ret	0
?_Prevnode@?$list@V?$basic_string@DU?$char_traits@D@std@@V?$allocator@D@2@@std@@V?$allocator@V?$basic_string@DU?$char_traits@D@std@@V?$allocator@D@2@@std@@@2@@std@@KAAAPAU_Node@?$_List_nod@V?$basic_string@DU?$char_traits@D@std@@V?$allocator@D@2@@std@@V?$allocator@V?$basic_string@DU?$char_traits@D@std@@V?$allocator@D@2@@std@@@2@@2@PAU342@@Z ENDP ; std::list<std::basic_string<char,std::char_traits<char>,std::allocator<char> >,std::allocator<std::basic_string<char,std::char_traits<char>,std::allocator<char> > > >::_Prevnode
_TEXT	ENDS
PUBLIC	??0?$_Iterator@$00@?$list@V?$basic_string@DU?$char_traits@D@std@@V?$allocator@D@2@@std@@V?$allocator@V?$basic_string@DU?$char_traits@D@std@@V?$allocator@D@2@@std@@@2@@std@@QAE@PAU_Node@?$_List_nod@V?$basic_string@DU?$char_traits@D@std@@V?$allocator@D@2@@std@@V?$allocator@V?$basic_string@DU?$char_traits@D@std@@V?$allocator@D@2@@std@@@2@@2@PBV12@@Z ; std::list<std::basic_string<char,std::char_traits<char>,std::allocator<char> >,std::allocator<std::basic_string<char,std::char_traits<char>,std::allocator<char> > > >::_Iterator<1>::_Iterator<1>
; Function compile flags: /Odtp
;	COMDAT ?begin@?$list@V?$basic_string@DU?$char_traits@D@std@@V?$allocator@D@2@@std@@V?$allocator@V?$basic_string@DU?$char_traits@D@std@@V?$allocator@D@2@@std@@@2@@std@@QAE?AV?$_Iterator@$00@12@XZ
_TEXT	SEGMENT
_this$ = -4						; size = 4
___$ReturnUdt$ = 8					; size = 4
?begin@?$list@V?$basic_string@DU?$char_traits@D@std@@V?$allocator@D@2@@std@@V?$allocator@V?$basic_string@DU?$char_traits@D@std@@V?$allocator@D@2@@std@@@2@@std@@QAE?AV?$_Iterator@$00@12@XZ PROC ; std::list<std::basic_string<char,std::char_traits<char>,std::allocator<char> >,std::allocator<std::basic_string<char,std::char_traits<char>,std::allocator<char> > > >::begin, COMDAT
; _this$ = ecx

; 533  : 		{	// return iterator for beginning of mutable sequence

	push	ebp
	mov	ebp, esp
	push	ecx
	mov	DWORD PTR _this$[ebp], ecx

; 534  : 		return (iterator(_Nextnode(_Myhead), this));

	mov	eax, DWORD PTR _this$[ebp]
	push	eax
	mov	ecx, DWORD PTR _this$[ebp]
	mov	edx, DWORD PTR [ecx+20]
	push	edx
	call	?_Nextnode@?$list@V?$basic_string@DU?$char_traits@D@std@@V?$allocator@D@2@@std@@V?$allocator@V?$basic_string@DU?$char_traits@D@std@@V?$allocator@D@2@@std@@@2@@std@@KAAAPAU_Node@?$_List_nod@V?$basic_string@DU?$char_traits@D@std@@V?$allocator@D@2@@std@@V?$allocator@V?$basic_string@DU?$char_traits@D@std@@V?$allocator@D@2@@std@@@2@@2@PAU342@@Z ; std::list<std::basic_string<char,std::char_traits<char>,std::allocator<char> >,std::allocator<std::basic_string<char,std::char_traits<char>,std::allocator<char> > > >::_Nextnode
	add	esp, 4
	mov	eax, DWORD PTR [eax]
	push	eax
	mov	ecx, DWORD PTR ___$ReturnUdt$[ebp]
	call	??0?$_Iterator@$00@?$list@V?$basic_string@DU?$char_traits@D@std@@V?$allocator@D@2@@std@@V?$allocator@V?$basic_string@DU?$char_traits@D@std@@V?$allocator@D@2@@std@@@2@@std@@QAE@PAU_Node@?$_List_nod@V?$basic_string@DU?$char_traits@D@std@@V?$allocator@D@2@@std@@V?$allocator@V?$basic_string@DU?$char_traits@D@std@@V?$allocator@D@2@@std@@@2@@2@PBV12@@Z ; std::list<std::basic_string<char,std::char_traits<char>,std::allocator<char> >,std::allocator<std::basic_string<char,std::char_traits<char>,std::allocator<char> > > >::_Iterator<1>::_Iterator<1>
	mov	eax, DWORD PTR ___$ReturnUdt$[ebp]

; 535  : 		}

	mov	esp, ebp
	pop	ebp
	ret	4
?begin@?$list@V?$basic_string@DU?$char_traits@D@std@@V?$allocator@D@2@@std@@V?$allocator@V?$basic_string@DU?$char_traits@D@std@@V?$allocator@D@2@@std@@@2@@std@@QAE?AV?$_Iterator@$00@12@XZ ENDP ; std::list<std::basic_string<char,std::char_traits<char>,std::allocator<char> >,std::allocator<std::basic_string<char,std::char_traits<char>,std::allocator<char> > > >::begin
_TEXT	ENDS
PUBLIC	??0?$_Const_iterator@$00@?$list@V?$basic_string@DU?$char_traits@D@std@@V?$allocator@D@2@@std@@V?$allocator@V?$basic_string@DU?$char_traits@D@std@@V?$allocator@D@2@@std@@@2@@std@@QAE@PAU_Node@?$_List_nod@V?$basic_string@DU?$char_traits@D@std@@V?$allocator@D@2@@std@@V?$allocator@V?$basic_string@DU?$char_traits@D@std@@V?$allocator@D@2@@std@@@2@@2@PBV12@@Z ; std::list<std::basic_string<char,std::char_traits<char>,std::allocator<char> >,std::allocator<std::basic_string<char,std::char_traits<char>,std::allocator<char> > > >::_Const_iterator<1>::_Const_iterator<1>
; Function compile flags: /Odtp
;	COMDAT ?begin@?$list@V?$basic_string@DU?$char_traits@D@std@@V?$allocator@D@2@@std@@V?$allocator@V?$basic_string@DU?$char_traits@D@std@@V?$allocator@D@2@@std@@@2@@std@@QBE?AV?$_Const_iterator@$00@12@XZ
_TEXT	SEGMENT
_this$ = -4						; size = 4
___$ReturnUdt$ = 8					; size = 4
?begin@?$list@V?$basic_string@DU?$char_traits@D@std@@V?$allocator@D@2@@std@@V?$allocator@V?$basic_string@DU?$char_traits@D@std@@V?$allocator@D@2@@std@@@2@@std@@QBE?AV?$_Const_iterator@$00@12@XZ PROC ; std::list<std::basic_string<char,std::char_traits<char>,std::allocator<char> >,std::allocator<std::basic_string<char,std::char_traits<char>,std::allocator<char> > > >::begin, COMDAT
; _this$ = ecx

; 538  : 		{	// return iterator for beginning of nonmutable sequence

	push	ebp
	mov	ebp, esp
	push	ecx
	mov	DWORD PTR _this$[ebp], ecx

; 539  : 		return (const_iterator(_Nextnode(_Myhead), this));

	mov	eax, DWORD PTR _this$[ebp]
	push	eax
	mov	ecx, DWORD PTR _this$[ebp]
	mov	edx, DWORD PTR [ecx+20]
	push	edx
	call	?_Nextnode@?$list@V?$basic_string@DU?$char_traits@D@std@@V?$allocator@D@2@@std@@V?$allocator@V?$basic_string@DU?$char_traits@D@std@@V?$allocator@D@2@@std@@@2@@std@@KAAAPAU_Node@?$_List_nod@V?$basic_string@DU?$char_traits@D@std@@V?$allocator@D@2@@std@@V?$allocator@V?$basic_string@DU?$char_traits@D@std@@V?$allocator@D@2@@std@@@2@@2@PAU342@@Z ; std::list<std::basic_string<char,std::char_traits<char>,std::allocator<char> >,std::allocator<std::basic_string<char,std::char_traits<char>,std::allocator<char> > > >::_Nextnode
	add	esp, 4
	mov	eax, DWORD PTR [eax]
	push	eax
	mov	ecx, DWORD PTR ___$ReturnUdt$[ebp]
	call	??0?$_Const_iterator@$00@?$list@V?$basic_string@DU?$char_traits@D@std@@V?$allocator@D@2@@std@@V?$allocator@V?$basic_string@DU?$char_traits@D@std@@V?$allocator@D@2@@std@@@2@@std@@QAE@PAU_Node@?$_List_nod@V?$basic_string@DU?$char_traits@D@std@@V?$allocator@D@2@@std@@V?$allocator@V?$basic_string@DU?$char_traits@D@std@@V?$allocator@D@2@@std@@@2@@2@PBV12@@Z ; std::list<std::basic_string<char,std::char_traits<char>,std::allocator<char> >,std::allocator<std::basic_string<char,std::char_traits<char>,std::allocator<char> > > >::_Const_iterator<1>::_Const_iterator<1>
	mov	eax, DWORD PTR ___$ReturnUdt$[ebp]

; 540  : 		}

	mov	esp, ebp
	pop	ebp
	ret	4
?begin@?$list@V?$basic_string@DU?$char_traits@D@std@@V?$allocator@D@2@@std@@V?$allocator@V?$basic_string@DU?$char_traits@D@std@@V?$allocator@D@2@@std@@@2@@std@@QBE?AV?$_Const_iterator@$00@12@XZ ENDP ; std::list<std::basic_string<char,std::char_traits<char>,std::allocator<char> >,std::allocator<std::basic_string<char,std::char_traits<char>,std::allocator<char> > > >::begin
; Function compile flags: /Odtp
_TEXT	ENDS
;	COMDAT ?end@?$list@V?$basic_string@DU?$char_traits@D@std@@V?$allocator@D@2@@std@@V?$allocator@V?$basic_string@DU?$char_traits@D@std@@V?$allocator@D@2@@std@@@2@@std@@QAE?AV?$_Iterator@$00@12@XZ
_TEXT	SEGMENT
_this$ = -4						; size = 4
___$ReturnUdt$ = 8					; size = 4
?end@?$list@V?$basic_string@DU?$char_traits@D@std@@V?$allocator@D@2@@std@@V?$allocator@V?$basic_string@DU?$char_traits@D@std@@V?$allocator@D@2@@std@@@2@@std@@QAE?AV?$_Iterator@$00@12@XZ PROC ; std::list<std::basic_string<char,std::char_traits<char>,std::allocator<char> >,std::allocator<std::basic_string<char,std::char_traits<char>,std::allocator<char> > > >::end, COMDAT
; _this$ = ecx

; 543  : 		{	// return iterator for end of mutable sequence

	push	ebp
	mov	ebp, esp
	push	ecx
	mov	DWORD PTR _this$[ebp], ecx

; 544  : 		return (iterator(_Myhead, this));

	mov	eax, DWORD PTR _this$[ebp]
	push	eax
	mov	ecx, DWORD PTR _this$[ebp]
	mov	edx, DWORD PTR [ecx+20]
	push	edx
	mov	ecx, DWORD PTR ___$ReturnUdt$[ebp]
	call	??0?$_Iterator@$00@?$list@V?$basic_string@DU?$char_traits@D@std@@V?$allocator@D@2@@std@@V?$allocator@V?$basic_string@DU?$char_traits@D@std@@V?$allocator@D@2@@std@@@2@@std@@QAE@PAU_Node@?$_List_nod@V?$basic_string@DU?$char_traits@D@std@@V?$allocator@D@2@@std@@V?$allocator@V?$basic_string@DU?$char_traits@D@std@@V?$allocator@D@2@@std@@@2@@2@PBV12@@Z ; std::list<std::basic_string<char,std::char_traits<char>,std::allocator<char> >,std::allocator<std::basic_string<char,std::char_traits<char>,std::allocator<char> > > >::_Iterator<1>::_Iterator<1>
	mov	eax, DWORD PTR ___$ReturnUdt$[ebp]

; 545  : 		}

	mov	esp, ebp
	pop	ebp
	ret	4
?end@?$list@V?$basic_string@DU?$char_traits@D@std@@V?$allocator@D@2@@std@@V?$allocator@V?$basic_string@DU?$char_traits@D@std@@V?$allocator@D@2@@std@@@2@@std@@QAE?AV?$_Iterator@$00@12@XZ ENDP ; std::list<std::basic_string<char,std::char_traits<char>,std::allocator<char> >,std::allocator<std::basic_string<char,std::char_traits<char>,std::allocator<char> > > >::end
; Function compile flags: /Odtp
_TEXT	ENDS
;	COMDAT ?end@?$list@V?$basic_string@DU?$char_traits@D@std@@V?$allocator@D@2@@std@@V?$allocator@V?$basic_string@DU?$char_traits@D@std@@V?$allocator@D@2@@std@@@2@@std@@QBE?AV?$_Const_iterator@$00@12@XZ
_TEXT	SEGMENT
_this$ = -4						; size = 4
___$ReturnUdt$ = 8					; size = 4
?end@?$list@V?$basic_string@DU?$char_traits@D@std@@V?$allocator@D@2@@std@@V?$allocator@V?$basic_string@DU?$char_traits@D@std@@V?$allocator@D@2@@std@@@2@@std@@QBE?AV?$_Const_iterator@$00@12@XZ PROC ; std::list<std::basic_string<char,std::char_traits<char>,std::allocator<char> >,std::allocator<std::basic_string<char,std::char_traits<char>,std::allocator<char> > > >::end, COMDAT
; _this$ = ecx

; 548  : 		{	// return iterator for end of nonmutable sequence

	push	ebp
	mov	ebp, esp
	push	ecx
	mov	DWORD PTR _this$[ebp], ecx

; 549  : 		return (const_iterator(_Myhead, this));

	mov	eax, DWORD PTR _this$[ebp]
	push	eax
	mov	ecx, DWORD PTR _this$[ebp]
	mov	edx, DWORD PTR [ecx+20]
	push	edx
	mov	ecx, DWORD PTR ___$ReturnUdt$[ebp]
	call	??0?$_Const_iterator@$00@?$list@V?$basic_string@DU?$char_traits@D@std@@V?$allocator@D@2@@std@@V?$allocator@V?$basic_string@DU?$char_traits@D@std@@V?$allocator@D@2@@std@@@2@@std@@QAE@PAU_Node@?$_List_nod@V?$basic_string@DU?$char_traits@D@std@@V?$allocator@D@2@@std@@V?$allocator@V?$basic_string@DU?$char_traits@D@std@@V?$allocator@D@2@@std@@@2@@2@PBV12@@Z ; std::list<std::basic_string<char,std::char_traits<char>,std::allocator<char> >,std::allocator<std::basic_string<char,std::char_traits<char>,std::allocator<char> > > >::_Const_iterator<1>::_Const_iterator<1>
	mov	eax, DWORD PTR ___$ReturnUdt$[ebp]

; 550  : 		}

	mov	esp, ebp
	pop	ebp
	ret	4
?end@?$list@V?$basic_string@DU?$char_traits@D@std@@V?$allocator@D@2@@std@@V?$allocator@V?$basic_string@DU?$char_traits@D@std@@V?$allocator@D@2@@std@@@2@@std@@QBE?AV?$_Const_iterator@$00@12@XZ ENDP ; std::list<std::basic_string<char,std::char_traits<char>,std::allocator<char> >,std::allocator<std::basic_string<char,std::char_traits<char>,std::allocator<char> > > >::end
_TEXT	ENDS
PUBLIC	?_Incsize@?$list@V?$basic_string@DU?$char_traits@D@std@@V?$allocator@D@2@@std@@V?$allocator@V?$basic_string@DU?$char_traits@D@std@@V?$allocator@D@2@@std@@@2@@std@@IAEXI@Z ; std::list<std::basic_string<char,std::char_traits<char>,std::allocator<char> >,std::allocator<std::basic_string<char,std::char_traits<char>,std::allocator<char> > > >::_Incsize
PUBLIC	?_Buynode@?$list@V?$basic_string@DU?$char_traits@D@std@@V?$allocator@D@2@@std@@V?$allocator@V?$basic_string@DU?$char_traits@D@std@@V?$allocator@D@2@@std@@@2@@std@@IAEPAU_Node@?$_List_nod@V?$basic_string@DU?$char_traits@D@std@@V?$allocator@D@2@@std@@V?$allocator@V?$basic_string@DU?$char_traits@D@std@@V?$allocator@D@2@@std@@@2@@2@PAU342@0ABV?$basic_string@DU?$char_traits@D@std@@V?$allocator@D@2@@2@@Z ; std::list<std::basic_string<char,std::char_traits<char>,std::allocator<char> >,std::allocator<std::basic_string<char,std::char_traits<char>,std::allocator<char> > > >::_Buynode
PUBLIC	?_Mynode@?$_Const_iterator@$00@?$list@V?$basic_string@DU?$char_traits@D@std@@V?$allocator@D@2@@std@@V?$allocator@V?$basic_string@DU?$char_traits@D@std@@V?$allocator@D@2@@std@@@2@@std@@QBEPAU_Node@?$_List_nod@V?$basic_string@DU?$char_traits@D@std@@V?$allocator@D@2@@std@@V?$allocator@V?$basic_string@DU?$char_traits@D@std@@V?$allocator@D@2@@std@@@2@@3@XZ ; std::list<std::basic_string<char,std::char_traits<char>,std::allocator<char> >,std::allocator<std::basic_string<char,std::char_traits<char>,std::allocator<char> > > >::_Const_iterator<1>::_Mynode
; Function compile flags: /Odtp
;	COMDAT ?_Insert@?$list@V?$basic_string@DU?$char_traits@D@std@@V?$allocator@D@2@@std@@V?$allocator@V?$basic_string@DU?$char_traits@D@std@@V?$allocator@D@2@@std@@@2@@std@@QAEXV?$_Const_iterator@$00@12@ABV?$basic_string@DU?$char_traits@D@std@@V?$allocator@D@2@@2@@Z
_TEXT	SEGMENT
_this$ = -12						; size = 4
__Pnode$ = -8						; size = 4
__Newnode$ = -4						; size = 4
__Where$ = 8						; size = 8
__Val$ = 16						; size = 4
?_Insert@?$list@V?$basic_string@DU?$char_traits@D@std@@V?$allocator@D@2@@std@@V?$allocator@V?$basic_string@DU?$char_traits@D@std@@V?$allocator@D@2@@std@@@2@@std@@QAEXV?$_Const_iterator@$00@12@ABV?$basic_string@DU?$char_traits@D@std@@V?$allocator@D@2@@2@@Z PROC ; std::list<std::basic_string<char,std::char_traits<char>,std::allocator<char> >,std::allocator<std::basic_string<char,std::char_traits<char>,std::allocator<char> > > >::_Insert, COMDAT
; _this$ = ecx

; 710  : 		{	// insert _Val at _Where

	push	ebp
	mov	ebp, esp
	sub	esp, 12					; 0000000cH
	mov	DWORD PTR _this$[ebp], ecx

; 711  : 
; 712  :  #if _HAS_ITERATOR_DEBUGGING
; 713  : 		if (_Where._Mycont != this)
; 714  : 			_DEBUG_ERROR("list insert iterator outside range");
; 715  :  #endif /* _HAS_ITERATOR_DEBUGGING */
; 716  : 
; 717  : 		_Nodeptr _Pnode = _Where._Mynode();

	lea	ecx, DWORD PTR __Where$[ebp]
	call	?_Mynode@?$_Const_iterator@$00@?$list@V?$basic_string@DU?$char_traits@D@std@@V?$allocator@D@2@@std@@V?$allocator@V?$basic_string@DU?$char_traits@D@std@@V?$allocator@D@2@@std@@@2@@std@@QBEPAU_Node@?$_List_nod@V?$basic_string@DU?$char_traits@D@std@@V?$allocator@D@2@@std@@V?$allocator@V?$basic_string@DU?$char_traits@D@std@@V?$allocator@D@2@@std@@@2@@3@XZ ; std::list<std::basic_string<char,std::char_traits<char>,std::allocator<char> >,std::allocator<std::basic_string<char,std::char_traits<char>,std::allocator<char> > > >::_Const_iterator<1>::_Mynode
	mov	DWORD PTR __Pnode$[ebp], eax

; 718  : 		_Nodeptr _Newnode = _Buynode(_Pnode, _Prevnode(_Pnode), _Val);

	mov	eax, DWORD PTR __Val$[ebp]
	push	eax
	mov	ecx, DWORD PTR __Pnode$[ebp]
	push	ecx
	call	?_Prevnode@?$list@V?$basic_string@DU?$char_traits@D@std@@V?$allocator@D@2@@std@@V?$allocator@V?$basic_string@DU?$char_traits@D@std@@V?$allocator@D@2@@std@@@2@@std@@KAAAPAU_Node@?$_List_nod@V?$basic_string@DU?$char_traits@D@std@@V?$allocator@D@2@@std@@V?$allocator@V?$basic_string@DU?$char_traits@D@std@@V?$allocator@D@2@@std@@@2@@2@PAU342@@Z ; std::list<std::basic_string<char,std::char_traits<char>,std::allocator<char> >,std::allocator<std::basic_string<char,std::char_traits<char>,std::allocator<char> > > >::_Prevnode
	add	esp, 4
	mov	edx, DWORD PTR [eax]
	push	edx
	mov	eax, DWORD PTR __Pnode$[ebp]
	push	eax
	mov	ecx, DWORD PTR _this$[ebp]
	call	?_Buynode@?$list@V?$basic_string@DU?$char_traits@D@std@@V?$allocator@D@2@@std@@V?$allocator@V?$basic_string@DU?$char_traits@D@std@@V?$allocator@D@2@@std@@@2@@std@@IAEPAU_Node@?$_List_nod@V?$basic_string@DU?$char_traits@D@std@@V?$allocator@D@2@@std@@V?$allocator@V?$basic_string@DU?$char_traits@D@std@@V?$allocator@D@2@@std@@@2@@2@PAU342@0ABV?$basic_string@DU?$char_traits@D@std@@V?$allocator@D@2@@2@@Z ; std::list<std::basic_string<char,std::char_traits<char>,std::allocator<char> >,std::allocator<std::basic_string<char,std::char_traits<char>,std::allocator<char> > > >::_Buynode
	mov	DWORD PTR __Newnode$[ebp], eax

; 719  : 		_Incsize(1);

	push	1
	mov	ecx, DWORD PTR _this$[ebp]
	call	?_Incsize@?$list@V?$basic_string@DU?$char_traits@D@std@@V?$allocator@D@2@@std@@V?$allocator@V?$basic_string@DU?$char_traits@D@std@@V?$allocator@D@2@@std@@@2@@std@@IAEXI@Z ; std::list<std::basic_string<char,std::char_traits<char>,std::allocator<char> >,std::allocator<std::basic_string<char,std::char_traits<char>,std::allocator<char> > > >::_Incsize

; 720  : 		_Prevnode(_Pnode) = _Newnode;

	mov	ecx, DWORD PTR __Pnode$[ebp]
	push	ecx
	call	?_Prevnode@?$list@V?$basic_string@DU?$char_traits@D@std@@V?$allocator@D@2@@std@@V?$allocator@V?$basic_string@DU?$char_traits@D@std@@V?$allocator@D@2@@std@@@2@@std@@KAAAPAU_Node@?$_List_nod@V?$basic_string@DU?$char_traits@D@std@@V?$allocator@D@2@@std@@V?$allocator@V?$basic_string@DU?$char_traits@D@std@@V?$allocator@D@2@@std@@@2@@2@PAU342@@Z ; std::list<std::basic_string<char,std::char_traits<char>,std::allocator<char> >,std::allocator<std::basic_string<char,std::char_traits<char>,std::allocator<char> > > >::_Prevnode
	add	esp, 4
	mov	edx, DWORD PTR __Newnode$[ebp]
	mov	DWORD PTR [eax], edx

; 721  : 		_Nextnode(_Prevnode(_Newnode)) = _Newnode;

	mov	eax, DWORD PTR __Newnode$[ebp]
	push	eax
	call	?_Prevnode@?$list@V?$basic_string@DU?$char_traits@D@std@@V?$allocator@D@2@@std@@V?$allocator@V?$basic_string@DU?$char_traits@D@std@@V?$allocator@D@2@@std@@@2@@std@@KAAAPAU_Node@?$_List_nod@V?$basic_string@DU?$char_traits@D@std@@V?$allocator@D@2@@std@@V?$allocator@V?$basic_string@DU?$char_traits@D@std@@V?$allocator@D@2@@std@@@2@@2@PAU342@@Z ; std::list<std::basic_string<char,std::char_traits<char>,std::allocator<char> >,std::allocator<std::basic_string<char,std::char_traits<char>,std::allocator<char> > > >::_Prevnode
	add	esp, 4
	mov	ecx, DWORD PTR [eax]
	push	ecx
	call	?_Nextnode@?$list@V?$basic_string@DU?$char_traits@D@std@@V?$allocator@D@2@@std@@V?$allocator@V?$basic_string@DU?$char_traits@D@std@@V?$allocator@D@2@@std@@@2@@std@@KAAAPAU_Node@?$_List_nod@V?$basic_string@DU?$char_traits@D@std@@V?$allocator@D@2@@std@@V?$allocator@V?$basic_string@DU?$char_traits@D@std@@V?$allocator@D@2@@std@@@2@@2@PAU342@@Z ; std::list<std::basic_string<char,std::char_traits<char>,std::allocator<char> >,std::allocator<std::basic_string<char,std::char_traits<char>,std::allocator<char> > > >::_Nextnode
	add	esp, 4
	mov	edx, DWORD PTR __Newnode$[ebp]
	mov	DWORD PTR [eax], edx

; 722  : 		}

	mov	esp, ebp
	pop	ebp
	ret	12					; 0000000cH
?_Insert@?$list@V?$basic_string@DU?$char_traits@D@std@@V?$allocator@D@2@@std@@V?$allocator@V?$basic_string@DU?$char_traits@D@std@@V?$allocator@D@2@@std@@@2@@std@@QAEXV?$_Const_iterator@$00@12@ABV?$basic_string@DU?$char_traits@D@std@@V?$allocator@D@2@@2@@Z ENDP ; std::list<std::basic_string<char,std::char_traits<char>,std::allocator<char> >,std::allocator<std::basic_string<char,std::char_traits<char>,std::allocator<char> > > >::_Insert
_TEXT	ENDS
PUBLIC	?_Make_iter@?$list@V?$basic_string@DU?$char_traits@D@std@@V?$allocator@D@2@@std@@V?$allocator@V?$basic_string@DU?$char_traits@D@std@@V?$allocator@D@2@@std@@@2@@std@@QBE?AV?$_Iterator@$00@12@V?$_Const_iterator@$00@12@@Z ; std::list<std::basic_string<char,std::char_traits<char>,std::allocator<char> >,std::allocator<std::basic_string<char,std::char_traits<char>,std::allocator<char> > > >::_Make_iter
PUBLIC	??E?$_Const_iterator@$00@?$list@V?$basic_string@DU?$char_traits@D@std@@V?$allocator@D@2@@std@@V?$allocator@V?$basic_string@DU?$char_traits@D@std@@V?$allocator@D@2@@std@@@2@@std@@QAE?AV012@H@Z ; std::list<std::basic_string<char,std::char_traits<char>,std::allocator<char> >,std::allocator<std::basic_string<char,std::char_traits<char>,std::allocator<char> > > >::_Const_iterator<1>::operator++
; Function compile flags: /Odtp
;	COMDAT ?erase@?$list@V?$basic_string@DU?$char_traits@D@std@@V?$allocator@D@2@@std@@V?$allocator@V?$basic_string@DU?$char_traits@D@std@@V?$allocator@D@2@@std@@@2@@std@@QAE?AV?$_Iterator@$00@12@V?$_Const_iterator@$00@12@@Z
_TEXT	SEGMENT
_this$ = -16						; size = 4
$T118700 = -12						; size = 8
__Pnode$ = -4						; size = 4
___$ReturnUdt$ = 8					; size = 4
__Where$ = 12						; size = 8
?erase@?$list@V?$basic_string@DU?$char_traits@D@std@@V?$allocator@D@2@@std@@V?$allocator@V?$basic_string@DU?$char_traits@D@std@@V?$allocator@D@2@@std@@@2@@std@@QAE?AV?$_Iterator@$00@12@V?$_Const_iterator@$00@12@@Z PROC ; std::list<std::basic_string<char,std::char_traits<char>,std::allocator<char> >,std::allocator<std::basic_string<char,std::char_traits<char>,std::allocator<char> > > >::erase, COMDAT
; _this$ = ecx

; 786  : 		{	// erase element at _Where

	push	ebp
	mov	ebp, esp
	sub	esp, 16					; 00000010H
	push	esi
	mov	DWORD PTR _this$[ebp], ecx

; 787  : 
; 788  :  #if _HAS_ITERATOR_DEBUGGING
; 789  : 		if (_Where._Mycont != this || _Where._Ptr == _Myhead)
; 790  : 			_DEBUG_ERROR("list erase iterator outside range");
; 791  : 		_Nodeptr _Pnode = (_Where++)._Mynode();
; 792  : 		_Orphan_ptr(*this, _Pnode);
; 793  : 
; 794  :  #else /* _HAS_ITERATOR_DEBUGGING */
; 795  : 		_Nodeptr _Pnode = (_Where++)._Mynode();

	push	0
	lea	eax, DWORD PTR $T118700[ebp]
	push	eax
	lea	ecx, DWORD PTR __Where$[ebp]
	call	??E?$_Const_iterator@$00@?$list@V?$basic_string@DU?$char_traits@D@std@@V?$allocator@D@2@@std@@V?$allocator@V?$basic_string@DU?$char_traits@D@std@@V?$allocator@D@2@@std@@@2@@std@@QAE?AV012@H@Z ; std::list<std::basic_string<char,std::char_traits<char>,std::allocator<char> >,std::allocator<std::basic_string<char,std::char_traits<char>,std::allocator<char> > > >::_Const_iterator<1>::operator++
	mov	ecx, eax
