 RenderSystem_Direct3D9

 Timestamp is 53c3b863 (Mon Jul 14 19:00:51 2014)

 Preferred load address is 10000000

 Start         Length     Name                   Class
 0001:00000000 00029e48H .text                   CODE
 0001:00029e50 00001b38H .text$x                 CODE
 0001:0002b990 000001e7H .text$yc                CODE
 0001:0002bb80 00000010H .text$yd                CODE
 0002:00000000 00000314H .idata$5                DATA
 0002:00000314 00000004H .CRT$XCA                DATA
 0002:00000318 0000003cH .CRT$XCU                DATA
 0002:00000354 00000004H .CRT$XCZ                DATA
 0002:00000358 00000004H .CRT$XIA                DATA
 0002:0000035c 00000004H .CRT$XIAA               DATA
 0002:00000360 00000004H .CRT$XIZ                DATA
 0002:00000370 000029e0H .rdata                  DATA
 0002:00002d50 00000042H .rdata$debug            DATA
 0002:00002d94 00001538H .rdata$r                DATA
 0002:000042d0 00000220H .rdata$sxdata           DATA
 0002:000044f0 00000004H .rtc$IAA                DATA
 0002:000044f4 00000004H .rtc$IZZ                DATA
 0002:000044f8 00000004H .rtc$TAA                DATA
 0002:000044fc 00000004H .rtc$TZZ                DATA
 0002:00004500 00002344H .xdata$x                DATA
 0002:00006844 000000a0H .idata$2                DATA
 0002:000068e4 00000014H .idata$3                DATA
 0002:000068f8 00000314H .idata$4                DATA
 0002:00006c0c 00001a0eH .idata$6                DATA
 0002:00008620 00000074H .edata                  DATA
 0003:00000000 00000ca8H .data                   DATA
 0003:00000ca8 00000408H .bss                    DATA
 0004:00000000 00000058H .rsrc$01                DATA
 0004:00000060 000002f0H .rsrc$02                DATA

  Address         Publics by Value              Rva+Base       Lib:Object

 0000:00000000       __except_list              00000000     <absolute>
 0000:00000088       ___safe_se_handler_count   00000088     <absolute>
 0000:00009876       __fltused                  00009876     <absolute>
 0000:00009876       __ldused                   00009876     <absolute>
 0000:00000000       ___ImageBase               10000000     <linker-defined>
 0001:00000000       ?Process@CMd5@@AAEXPBE@Z   10001000 f   Md5.obj
 0001:00000e20       ?Begin@CMd5@@QAEXXZ        10001e20 f   Md5.obj
 0001:00000e70       ?Append@CMd5@@QAEXPBEI@Z   10001e70 f   Md5.obj
 0001:00000fa0       ?End@CMd5@@QAEXQAE@Z       10001fa0 f   Md5.obj
 0001:00001070       ?GetMD5Base16Str@CMd5@@QAEXPAD@Z 10002070 f   Md5.obj
 0001:000011d0       ??1D3DDEVICEINFO_T@Ogre@@QAE@XZ 100021d0 f   OgreD3D9DriverEnum.obj
 0001:00001290       ??1D3DADAPTER_T@Ogre@@QAE@XZ 10002290 f   OgreD3D9DriverEnum.obj
 0001:00001360       ??0D3DEnumeration@Ogre@@QAE@XZ 10002360 f   OgreD3D9DriverEnum.obj
 0001:000014a0       ??1D3DEnumeration@Ogre@@QAE@XZ 100024a0 f   OgreD3D9DriverEnum.obj
 0001:00001560       ?Enumerate@D3DEnumeration@Ogre@@QAEHPAUIDirect3D9@@P6AHPAU_D3DCAPS9@@W4VERTPROCESS_T@2@W4_D3DFORMAT@@3@Z@Z 10002560 f   OgreD3D9DriverEnum.obj
 0001:000019a0       ?EnumerateDevices@D3DEnumeration@Ogre@@AAEXPAUD3DADAPTER_T@2@AAV?$vector@W4_D3DFORMAT@@V?$allocator@W4_D3DFORMAT@@@std@@@std@@@Z 100029a0 f   OgreD3D9DriverEnum.obj
 0001:00001b20       ?EnumerateDeviceCombo@D3DEnumeration@Ogre@@AAEXPAUD3DDEVICEINFO_T@2@AAV?$vector@W4_D3DFORMAT@@V?$allocator@W4_D3DFORMAT@@@std@@@std@@@Z 10002b20 f   OgreD3D9DriverEnum.obj
 0001:00001ce0       ?ComputeDeviceCombo@D3DEnumeration@Ogre@@AAEPAUD3DDEVCOMBO_T@2@PAUD3DDEVICEINFO_T@2@W4_D3DFORMAT@@1H@Z 10002ce0 f   OgreD3D9DriverEnum.obj
 0001:00001f10       ?BuildDepthStencilFormatList@D3DEnumeration@Ogre@@AAEXPAUD3DDEVCOMBO_T@2@@Z 10002f10 f   OgreD3D9DriverEnum.obj
 0001:00002120       ?BuildMultiSampleTypeList@D3DEnumeration@Ogre@@AAEXPAUD3DDEVCOMBO_T@2@@Z 10003120 f   OgreD3D9DriverEnum.obj
 0001:00002230       ?BuildDSMSConflictList@D3DEnumeration@Ogre@@AAEXPAUD3DDEVCOMBO_T@2@@Z 10003230 f   OgreD3D9DriverEnum.obj
 0001:00002310       ?ConfirmDevice@D3DEnumeration@Ogre@@AAEXPAUD3DDEVICEINFO_T@2@PAUD3DDEVCOMBO_T@2@W4VERTPROCESS_T@2@@Z 10003310 f   OgreD3D9DriverEnum.obj
 0001:00002360       ?BuildVertexProcessingTypeList@D3DEnumeration@Ogre@@AAEXPAUD3DDEVICEINFO_T@2@PAUD3DDEVCOMBO_T@2@@Z 10003360 f   OgreD3D9DriverEnum.obj
 0001:000023e0       ?BuildPresentIntervalList@D3DEnumeration@Ogre@@AAEXPAUD3DDEVICEINFO_T@2@PAUD3DDEVCOMBO_T@2@@Z 100033e0 f   OgreD3D9DriverEnum.obj
 0001:00002480       ?ChooseD3DSettings@D3DEnumeration@Ogre@@QAEABUD3DSETTING_T@2@ABUInitDesc@RenderSystem@2@@Z 10003480 f   OgreD3D9DriverEnum.obj
 0001:00002660       ?MultiSampleConvert@Ogre@@YA?AW4_D3DMULTISAMPLE_TYPE@@H@Z 10003660 f   OgreD3D9DriverEnum.obj
 0001:000026b0       ?GetRenderTargetFormat@D3DEnumeration@Ogre@@QAE_NAAW4_D3DFORMAT@@AAW4_D3DMULTISAMPLE_TYPE@@W43@HHH@Z 100036b0 f   OgreD3D9DriverEnum.obj
 0001:000029c0       ?FindBestWindowMode@D3DEnumeration@Ogre@@AAEXABUInitDesc@RenderSystem@2@@Z 100039c0 f   OgreD3D9DriverEnum.obj
 0001:00002b00       ?FindBestFullscreenMode@D3DEnumeration@Ogre@@AAEXABUInitDesc@RenderSystem@2@@Z 10003b00 f   OgreD3D9DriverEnum.obj
 0001:00002d80       ??_GD3DDEVCOMBO_T@Ogre@@QAEPAXI@Z 10003d80 f i OgreD3D9DriverEnum.obj
 0001:00002db0       ??1D3DDEVCOMBO_T@Ogre@@QAE@XZ 10003db0 f i OgreD3D9DriverEnum.obj
 0001:00002e50       ??_GD3DDEVICEINFO_T@Ogre@@QAEPAXI@Z 10003e50 f i OgreD3D9DriverEnum.obj
 0001:00002e80       ??_GD3DADAPTER_T@Ogre@@QAEPAXI@Z 10003e80 f i OgreD3D9DriverEnum.obj
 0001:00002eb0       ??0D3DADAPTER_T@Ogre@@QAE@XZ 10003eb0 f i OgreD3D9DriverEnum.obj
 0001:00002f20       ??0D3DDEVICEINFO_T@Ogre@@QAE@XZ 10003f20 f i OgreD3D9DriverEnum.obj
 0001:00002f80       ?Dismiss@ScopeGuardImplBase@Ogre@@QBEXXZ 10003f80 f i OgreD3D9DriverEnum.obj
 0001:00002fa0       ??0D3DDEVCOMBO_T@Ogre@@QAE@XZ 10003fa0 f i OgreD3D9DriverEnum.obj
 0001:00003040       ?size@?$vector@PAVCompiledShader@Ogre@@V?$allocator@PAVCompiledShader@Ogre@@@std@@@std@@QBEIXZ 10004040 f i OgreD3D9ShaderManager.obj
 0001:00003040       ?size@?$vector@W4_D3DMULTISAMPLE_TYPE@@V?$allocator@W4_D3DMULTISAMPLE_TYPE@@@std@@@std@@QBEIXZ 10004040 f i OgreD3D9DriverEnum.obj
 0001:00003040       ?size@?$vector@PAVD3D9TextureRenderTarget@Ogre@@V?$allocator@PAVD3D9TextureRenderTarget@Ogre@@@std@@@std@@QBEIXZ 10004040 f i OgreD3D9HardwarePixelBuffer.obj
 0001:00003040       ?size@?$vector@IV?$allocator@I@std@@@std@@QBEIXZ 10004040 f i OgreD3D9DriverEnum.obj
 0001:00003040       ?size@?$vector@PAVD3DRenderWindow@Ogre@@V?$allocator@PAVD3DRenderWindow@Ogre@@@std@@@std@@QBEIXZ 10004040 f i OgreD3D9RenderSystem.obj
 0001:00003040       ?size@?$vector@PAVD3D9VertexDecl@Ogre@@V?$allocator@PAVD3D9VertexDecl@Ogre@@@std@@@std@@QBEIXZ 10004040 f i OgreD3D9RenderSystem.obj
 0001:00003040       ?size@?$vector@PAUD3DDEVICEINFO_T@Ogre@@V?$allocator@PAUD3DDEVICEINFO_T@Ogre@@@std@@@std@@QBEIXZ 10004040 f i OgreD3D9DriverEnum.obj
 0001:00003040       ?size@?$vector@PAUTechniqueDesc@Ogre@@V?$allocator@PAUTechniqueDesc@Ogre@@@std@@@std@@QBEIXZ 10004040 f i OgreD3D9ShaderManager.obj
 0001:00003040       ?size@?$vector@W4_D3DFORMAT@@V?$allocator@W4_D3DFORMAT@@@std@@@std@@QBEIXZ 10004040 f i OgreD3D9DriverEnum.obj
 0001:00003040       ?size@?$vector@PAUD3DDEVCOMBO_T@Ogre@@V?$allocator@PAUD3DDEVCOMBO_T@Ogre@@@std@@@std@@QBEIXZ 10004040 f i OgreD3D9DriverEnum.obj
 0001:00003040       ?size@?$vector@PAUTechCache@D3DMaterialTemplate@Ogre@@V?$allocator@PAUTechCache@D3DMaterialTemplate@Ogre@@@std@@@std@@QBEIXZ 10004040 f i OgreD3DMaterialTemplate.obj
 0001:00003040       ?size@?$vector@W4VERTPROCESS_T@Ogre@@V?$allocator@W4VERTPROCESS_T@Ogre@@@std@@@std@@QBEIXZ 10004040 f i OgreD3D9DriverEnum.obj
 0001:00003040       ?size@?$vector@PAUD3DADAPTER_T@Ogre@@V?$allocator@PAUD3DADAPTER_T@Ogre@@@std@@@std@@QBEIXZ 10004040 f i OgreD3D9DriverEnum.obj
 0001:00003060       ?push_back@?$vector@W4VERTPROCESS_T@Ogre@@V?$allocator@W4VERTPROCESS_T@Ogre@@@std@@@std@@QAEXABW4VERTPROCESS_T@Ogre@@@Z 10004060 f i OgreD3D9DriverEnum.obj
 0001:00003060       ?push_back@?$vector@W4_D3DFORMAT@@V?$allocator@W4_D3DFORMAT@@@std@@@std@@QAEXABW4_D3DFORMAT@@@Z 10004060 f i OgreD3D9DriverEnum.obj
 0001:00003060       ?push_back@?$vector@W4_D3DMULTISAMPLE_TYPE@@V?$allocator@W4_D3DMULTISAMPLE_TYPE@@@std@@@std@@QAEXABW4_D3DMULTISAMPLE_TYPE@@@Z 10004060 f i OgreD3D9DriverEnum.obj
 0001:000030e0       ??1?$vector@W4_D3DMULTISAMPLE_TYPE@@V?$allocator@W4_D3DMULTISAMPLE_TYPE@@@std@@@std@@QAE@XZ 100040e0 f i OgreD3D9DriverEnum.obj
 0001:000030e0       ??1?$vector@W4VERTPROCESS_T@Ogre@@V?$allocator@W4VERTPROCESS_T@Ogre@@@std@@@std@@QAE@XZ 100040e0 f i OgreD3D9DriverEnum.obj
 0001:000030e0       ??1?$vector@W4_D3DFORMAT@@V?$allocator@W4_D3DFORMAT@@@std@@@std@@QAE@XZ 100040e0 f i OgreD3D9DriverEnum.obj
 0001:00003140       ?push_back@?$vector@U_D3DXMACRO@@V?$allocator@U_D3DXMACRO@@@std@@@std@@QAEXABU_D3DXMACRO@@@Z 10004140 f i OgreD3D9ShaderManager.obj
 0001:00003140       ?push_back@?$vector@UD3DSMSCONFLICT_T@Ogre@@V?$allocator@UD3DSMSCONFLICT_T@Ogre@@@std@@@std@@QAEXABUD3DSMSCONFLICT_T@Ogre@@@Z 10004140 f i OgreD3D9DriverEnum.obj
 0001:000031c0       ??1?$vector@PAUTechniqueDesc@Ogre@@V?$allocator@PAUTechniqueDesc@Ogre@@@std@@@std@@QAE@XZ 100041c0 f i OgreD3D9ShaderManager.obj
 0001:000031c0       ??1?$vector@IV?$allocator@I@std@@@std@@QAE@XZ 100041c0 f i OgreD3D9DriverEnum.obj
 0001:000031c0       ??1?$vector@PAUD3DDEVCOMBO_T@Ogre@@V?$allocator@PAUD3DDEVCOMBO_T@Ogre@@@std@@@std@@QAE@XZ 100041c0 f i OgreD3D9DriverEnum.obj
 0001:000031c0       ??1?$vector@PAVD3D9VertexDecl@Ogre@@V?$allocator@PAVD3D9VertexDecl@Ogre@@@std@@@std@@QAE@XZ 100041c0 f i OgreD3D9RenderSystem.obj
 0001:000031c0       ??1?$vector@PAUTechCache@D3DMaterialTemplate@Ogre@@V?$allocator@PAUTechCache@D3DMaterialTemplate@Ogre@@@std@@@std@@QAE@XZ 100041c0 f i OgreD3DMaterialTemplate.obj
 0001:000031c0       ??1?$vector@PAUD3DDEVICEINFO_T@Ogre@@V?$allocator@PAUD3DDEVICEINFO_T@Ogre@@@std@@@std@@QAE@XZ 100041c0 f i OgreD3D9DriverEnum.obj
 0001:000031c0       ??1?$vector@PAUD3DADAPTER_T@Ogre@@V?$allocator@PAUD3DADAPTER_T@Ogre@@@std@@@std@@QAE@XZ 100041c0 f i OgreD3D9DriverEnum.obj
 0001:000031c0       ??1?$vector@PAVD3D9TextureRenderTarget@Ogre@@V?$allocator@PAVD3D9TextureRenderTarget@Ogre@@@std@@@std@@QAE@XZ 100041c0 f i OgreD3D9HardwarePixelBuffer.obj
 0001:000031c0       ??1?$vector@PAUIDirect3DBaseTexture9@@V?$allocator@PAUIDirect3DBaseTexture9@@@std@@@std@@QAE@XZ 100041c0 f i OgreD3D9HardwarePixelBuffer.obj
 0001:000031c0       ??1?$vector@PAVCompiledShader@Ogre@@V?$allocator@PAVCompiledShader@Ogre@@@std@@@std@@QAE@XZ 100041c0 f i OgreD3D9ShaderManager.obj
 0001:000031c0       ??1?$vector@PAVD3DRenderWindow@Ogre@@V?$allocator@PAVD3DRenderWindow@Ogre@@@std@@@std@@QAE@XZ 100041c0 f i OgreD3D9RenderSystem.obj
 0001:00003220       ?empty@?$vector@PAUTechCache@D3DMaterialTemplate@Ogre@@V?$allocator@PAUTechCache@D3DMaterialTemplate@Ogre@@@std@@@std@@QBE_NXZ 10004220 f i OgreD3DMaterialTemplate.obj
 0001:00003220       ?empty@?$vector@W4VERTPROCESS_T@Ogre@@V?$allocator@W4VERTPROCESS_T@Ogre@@@std@@@std@@QBE_NXZ 10004220 f i OgreD3D9DriverEnum.obj
 0001:00003220       ?empty@?$vector@W4_D3DMULTISAMPLE_TYPE@@V?$allocator@W4_D3DMULTISAMPLE_TYPE@@@std@@@std@@QBE_NXZ 10004220 f i OgreD3D9DriverEnum.obj
 0001:00003220       ?empty@?$vector@PAUD3DDEVCOMBO_T@Ogre@@V?$allocator@PAUD3DDEVCOMBO_T@Ogre@@@std@@@std@@QBE_NXZ 10004220 f i OgreD3D9DriverEnum.obj
 0001:00003220       ?empty@?$vector@W4_D3DFORMAT@@V?$allocator@W4_D3DFORMAT@@@std@@@std@@QBE_NXZ 10004220 f i OgreD3D9DriverEnum.obj
 0001:00003240       ??0?$vector@U_D3DDISPLAYMODE@@V?$allocator@U_D3DDISPLAYMODE@@@std@@@std@@QAE@XZ 10004240 f i OgreD3D9DriverEnum.obj
 0001:00003240       ??0?$vector@TShaderEnvKey@Ogre@@V?$allocator@TShaderEnvKey@Ogre@@@std@@@std@@QAE@XZ 10004240 f i OgreD3D9ShaderManager.obj
 0001:000032b0       ?size@?$vector@U_D3DDISPLAYMODE@@V?$allocator@U_D3DDISPLAYMODE@@@std@@@std@@QBEIXZ 100042b0 f i OgreD3D9DriverEnum.obj
 0001:000032b0       ?size@?$vector@TShaderEnvKey@Ogre@@V?$allocator@TShaderEnvKey@Ogre@@@std@@@std@@QBEIXZ 100042b0 f i OgreD3D9ShaderManager.obj
 0001:000032d0       ?push_back@?$vector@U_D3DDISPLAYMODE@@V?$allocator@U_D3DDISPLAYMODE@@@std@@@std@@QAEXABU_D3DDISPLAYMODE@@@Z 100042d0 f i OgreD3D9DriverEnum.obj
 0001:00003350       ??1?$PtrScopeGuardImpl@UD3DDEVCOMBO_T@Ogre@@@Ogre@@QAE@XZ 10004350 f i OgreD3D9DriverEnum.obj
 0001:000033b0       ?insert@?$vector@W4_D3DFORMAT@@V?$allocator@W4_D3DFORMAT@@@std@@@std@@QAE?AV?$_Vector_iterator@W4_D3DFORMAT@@V?$allocator@W4_D3DFORMAT@@@std@@@2@V?$_Vector_const_iterator@W4_D3DFORMAT@@V?$allocator@W4_D3DFORMAT@@@std@@@2@ABW4_D3DFORMAT@@@Z 100043b0 f i OgreD3D9DriverEnum.obj
 0001:000033b0       ?insert@?$vector@W4VERTPROCESS_T@Ogre@@V?$allocator@W4VERTPROCESS_T@Ogre@@@std@@@std@@QAE?AV?$_Vector_iterator@W4VERTPROCESS_T@Ogre@@V?$allocator@W4VERTPROCESS_T@Ogre@@@std@@@2@V?$_Vector_const_iterator@W4VERTPROCESS_T@Ogre@@V?$allocator@W4VERTPROCESS_T@Ogre@@@std@@@2@ABW4VERTPROCESS_T@Ogre@@@Z 100043b0 f i OgreD3D9DriverEnum.obj
 0001:000033b0       ?insert@?$vector@W4_D3DMULTISAMPLE_TYPE@@V?$allocator@W4_D3DMULTISAMPLE_TYPE@@@std@@@std@@QAE?AV?$_Vector_iterator@W4_D3DMULTISAMPLE_TYPE@@V?$allocator@W4_D3DMULTISAMPLE_TYPE@@@std@@@2@V?$_Vector_const_iterator@W4_D3DMULTISAMPLE_TYPE@@V?$allocator@W4_D3DMULTISAMPLE_TYPE@@@std@@@2@ABW4_D3DMULTISAMPLE_TYPE@@@Z 100043b0 f i OgreD3D9DriverEnum.obj
 0001:00003430       ?_Buy@?$vector@W4_D3DFORMAT@@V?$allocator@W4_D3DFORMAT@@@std@@@std@@IAE_NI@Z 10004430 f i OgreD3D9DriverEnum.obj
 0001:00003430       ?_Buy@?$vector@PAUTechniqueDesc@Ogre@@V?$allocator@PAUTechniqueDesc@Ogre@@@std@@@std@@IAE_NI@Z 10004430 f i OgreD3D9ShaderManager.obj
 0001:00003430       ?_Buy@?$vector@W4_D3DMULTISAMPLE_TYPE@@V?$allocator@W4_D3DMULTISAMPLE_TYPE@@@std@@@std@@IAE_NI@Z 10004430 f i OgreD3D9DriverEnum.obj
 0001:00003430       ?_Buy@?$vector@W4VERTPROCESS_T@Ogre@@V?$allocator@W4VERTPROCESS_T@Ogre@@@std@@@std@@IAE_NI@Z 10004430 f i OgreD3D9DriverEnum.obj
 0001:00003430       ?_Buy@?$vector@PAUTechCache@D3DMaterialTemplate@Ogre@@V?$allocator@PAUTechCache@D3DMaterialTemplate@Ogre@@@std@@@std@@IAE_NI@Z 10004430 f i OgreD3DMaterialTemplate.obj
 0001:00003430       ?_Buy@?$vector@PAVCompiledShader@Ogre@@V?$allocator@PAVCompiledShader@Ogre@@@std@@@std@@IAE_NI@Z 10004430 f i OgreD3D9ShaderManager.obj
 0001:00003430       ?_Buy@?$vector@PAVD3D9TextureRenderTarget@Ogre@@V?$allocator@PAVD3D9TextureRenderTarget@Ogre@@@std@@@std@@IAE_NI@Z 10004430 f i OgreD3D9HardwarePixelBuffer.obj
 0001:00003430       ?_Buy@?$vector@PAVD3DRenderWindow@Ogre@@V?$allocator@PAVD3DRenderWindow@Ogre@@@std@@@std@@IAE_NI@Z 10004430 f i OgreD3D9RenderSystem.obj
 0001:00003430       ?_Buy@?$vector@PAUIDirect3DBaseTexture9@@V?$allocator@PAUIDirect3DBaseTexture9@@@std@@@std@@IAE_NI@Z 10004430 f i OgreD3D9HardwarePixelBuffer.obj
 0001:00003430       ?_Buy@?$vector@PAVD3D9VertexDecl@Ogre@@V?$allocator@PAVD3D9VertexDecl@Ogre@@@std@@@std@@IAE_NI@Z 10004430 f i OgreD3D9RenderSystem.obj
 0001:00003430       ?_Buy@?$vector@PAUD3DDEVCOMBO_T@Ogre@@V?$allocator@PAUD3DDEVCOMBO_T@Ogre@@@std@@@std@@IAE_NI@Z 10004430 f i OgreD3D9DriverEnum.obj
 0001:00003430       ?_Buy@?$vector@IV?$allocator@I@std@@@std@@IAE_NI@Z 10004430 f i OgreD3D9DriverEnum.obj
 0001:00003430       ?_Buy@?$vector@PAUD3DADAPTER_T@Ogre@@V?$allocator@PAUD3DADAPTER_T@Ogre@@@std@@@std@@IAE_NI@Z 10004430 f i OgreD3D9DriverEnum.obj
 0001:00003430       ?_Buy@?$vector@PAUD3DDEVICEINFO_T@Ogre@@V?$allocator@PAUD3DDEVICEINFO_T@Ogre@@@std@@@std@@IAE_NI@Z 10004430 f i OgreD3D9DriverEnum.obj
 0001:000034b0       ?_Tidy@?$vector@W4_D3DMULTISAMPLE_TYPE@@V?$allocator@W4_D3DMULTISAMPLE_TYPE@@@std@@@std@@IAEXXZ 100044b0 f i OgreD3D9DriverEnum.obj
 0001:000034b0       ?_Tidy@?$vector@W4VERTPROCESS_T@Ogre@@V?$allocator@W4VERTPROCESS_T@Ogre@@@std@@@std@@IAEXXZ 100044b0 f i OgreD3D9DriverEnum.obj
 0001:000034b0       ?_Tidy@?$vector@W4_D3DFORMAT@@V?$allocator@W4_D3DFORMAT@@@std@@@std@@IAEXXZ 100044b0 f i OgreD3D9DriverEnum.obj
 0001:00003520       ?_Ufill@?$vector@W4_D3DFORMAT@@V?$allocator@W4_D3DFORMAT@@@std@@@std@@IAEPAW4_D3DFORMAT@@PAW43@IABW43@@Z 10004520 f i OgreD3D9DriverEnum.obj
 0001:00003520       ?_Ufill@?$vector@W4_D3DMULTISAMPLE_TYPE@@V?$allocator@W4_D3DMULTISAMPLE_TYPE@@@std@@@std@@IAEPAW4_D3DMULTISAMPLE_TYPE@@PAW43@IABW43@@Z 10004520 f i OgreD3D9DriverEnum.obj
 0001:00003520       ?_Ufill@?$vector@W4VERTPROCESS_T@Ogre@@V?$allocator@W4VERTPROCESS_T@Ogre@@@std@@@std@@IAEPAW4VERTPROCESS_T@Ogre@@PAW434@IABW434@@Z 10004520 f i OgreD3D9DriverEnum.obj
 0001:00003560       ?capacity@?$vector@U_D3DXMACRO@@V?$allocator@U_D3DXMACRO@@@std@@@std@@QBEIXZ 10004560 f i OgreD3D9ShaderManager.obj
 0001:00003560       ?capacity@?$vector@UD3DSMSCONFLICT_T@Ogre@@V?$allocator@UD3DSMSCONFLICT_T@Ogre@@@std@@@std@@QBEIXZ 10004560 f i OgreD3D9DriverEnum.obj
 0001:000035a0       ?insert@?$vector@UD3DSMSCONFLICT_T@Ogre@@V?$allocator@UD3DSMSCONFLICT_T@Ogre@@@std@@@std@@QAE?AV?$_Vector_iterator@UD3DSMSCONFLICT_T@Ogre@@V?$allocator@UD3DSMSCONFLICT_T@Ogre@@@std@@@2@V?$_Vector_const_iterator@UD3DSMSCONFLICT_T@Ogre@@V?$allocator@UD3DSMSCONFLICT_T@Ogre@@@std@@@2@ABUD3DSMSCONFLICT_T@Ogre@@@Z 100045a0 f i OgreD3D9DriverEnum.obj
 0001:000035a0       ?insert@?$vector@U_D3DXMACRO@@V?$allocator@U_D3DXMACRO@@@std@@@std@@QAE?AV?$_Vector_iterator@U_D3DXMACRO@@V?$allocator@U_D3DXMACRO@@@std@@@2@V?$_Vector_const_iterator@U_D3DXMACRO@@V?$allocator@U_D3DXMACRO@@@std@@@2@ABU_D3DXMACRO@@@Z 100045a0 f i OgreD3D9ShaderManager.obj
 0001:00003620       ??0?$allocator@PAUD3DDEVICEINFO_T@Ogre@@@std@@QAE@XZ 10004620 f i OgreD3D9DriverEnum.obj
 0001:00003620       ??0?$allocator@I@std@@QAE@XZ 10004620 f i OgreD3D9DriverEnum.obj
 0001:00003620       ??0?$allocator@PAVCompiledShader@Ogre@@@std@@QAE@XZ 10004620 f i OgreD3D9ShaderManager.obj
 0001:00003620       ??0?$allocator@PAVD3D9VertexDecl@Ogre@@@std@@QAE@XZ 10004620 f i OgreD3D9RenderSystem.obj
 0001:00003620       ??0?$allocator@PAUIDirect3DBaseTexture9@@@std@@QAE@XZ 10004620 f i OgreD3D9HardwarePixelBuffer.obj
 0001:00003620       ??0?$allocator@PAVD3D9TextureRenderTarget@Ogre@@@std@@QAE@XZ 10004620 f i OgreD3D9HardwarePixelBuffer.obj
 0001:00003620       ??0?$allocator@PAVD3DRenderWindow@Ogre@@@std@@QAE@XZ 10004620 f i OgreD3D9RenderSystem.obj
 0001:00003620       ??0_Container_base_aux@std@@QAE@XZ 10004620 f i OgreD3D9DriverEnum.obj
 0001:00003620       ??0ID3DXInclude@@QAE@XZ    10004620 f i OgreD3D9RenderSystem.obj
 0001:00003620       ??0?$allocator@U_D3DXMACRO@@@std@@QAE@XZ 10004620 f i OgreD3D9ShaderManager.obj
 0001:00003620       ??0?$allocator@UPassDesc@Ogre@@@std@@QAE@XZ 10004620 f i OgreD3D9ShaderManager.obj
 0001:00003620       ??0?$allocator@W4_D3DFORMAT@@@std@@QAE@XZ 10004620 f i OgreD3D9DriverEnum.obj
 0001:00003620       ??0?$allocator@U?$pair@$$CBTShaderEnvKey2@Ogre@@PAVD3DShaderTechnique@2@@std@@@std@@QAE@XZ 10004620 f i OgreD3DMaterialTemplate.obj
 0001:00003620       ??0?$allocator@UD3DSMSCONFLICT_T@Ogre@@@std@@QAE@XZ 10004620 f i OgreD3D9DriverEnum.obj
 0001:00003620       ??0?$allocator@UDSBuffer@D3D9HardwarePixelBufferManager@Ogre@@@std@@QAE@XZ 10004620 f i OgreD3D9HardwarePixelBuffer.obj
 0001:00003620       ??0?$allocator@UPassData@D3DShaderTechnique@Ogre@@@std@@QAE@XZ 10004620 f i OgreD3D9ShaderManager.obj
 0001:00003620       ??0?$allocator@PAUTechniqueDesc@Ogre@@@std@@QAE@XZ 10004620 f i OgreD3D9ShaderManager.obj
 0001:00003620       ??0?$allocator@URTBuffer@D3D9HardwarePixelBufferManager@Ogre@@@std@@QAE@XZ 10004620 f i OgreD3D9HardwarePixelBuffer.obj
 0001:00003620       ??0?$allocator@U?$pair@$$CBTShaderEnvKey@Ogre@@PAVD3DTech@2@@std@@@std@@QAE@XZ 10004620 f i OgreD3DMaterialTemplate.obj
 0001:00003620       ??0?$allocator@PAUTechCache@D3DMaterialTemplate@Ogre@@@std@@QAE@XZ 10004620 f i OgreD3DMaterialTemplate.obj
 0001:00003620       ??0?$allocator@W4VERTPROCESS_T@Ogre@@@std@@QAE@XZ 10004620 f i OgreD3D9DriverEnum.obj
 0001:00003620       ??0?$allocator@U?$pair@$$CBVFixedString@Ogre@@PAVCompiledShaderGroup@2@@std@@@std@@QAE@XZ 10004620 f i OgreD3DMaterialTemplate.obj
 0001:00003620       ??0?$allocator@U_D3DDISPLAYMODE@@@std@@QAE@XZ 10004620 f i OgreD3D9DriverEnum.obj
 0001:00003620       ??0?$allocator@TShaderEnvKey@Ogre@@@std@@QAE@XZ 10004620 f i OgreD3D9ShaderManager.obj
 0001:00003620       ??0?$allocator@PAUD3DADAPTER_T@Ogre@@@std@@QAE@XZ 10004620 f i OgreD3D9DriverEnum.obj
 0001:00003620       ??0?$allocator@W4_D3DMULTISAMPLE_TYPE@@@std@@QAE@XZ 10004620 f i OgreD3D9DriverEnum.obj
 0001:00003620       ??0?$allocator@PAUD3DDEVCOMBO_T@Ogre@@@std@@QAE@XZ 10004620 f i OgreD3D9DriverEnum.obj
 0001:00003620       ??0?$allocator@U?$pair@$$CBTShaderEnvKey@Ogre@@PAVCompiledShader@2@@std@@@std@@QAE@XZ 10004620 f i OgreD3D9ShaderManager.obj
 0001:00003630       ?capacity@?$vector@U_D3DDISPLAYMODE@@V?$allocator@U_D3DDISPLAYMODE@@@std@@@std@@QBEIXZ 10004630 f i OgreD3D9DriverEnum.obj
 0001:00003630       ?capacity@?$vector@TShaderEnvKey@Ogre@@V?$allocator@TShaderEnvKey@Ogre@@@std@@@std@@QBEIXZ 10004630 f i OgreD3D9ShaderManager.obj
 0001:00003670       ?insert@?$vector@U_D3DDISPLAYMODE@@V?$allocator@U_D3DDISPLAYMODE@@@std@@@std@@QAE?AV?$_Vector_iterator@U_D3DDISPLAYMODE@@V?$allocator@U_D3DDISPLAYMODE@@@std@@@2@V?$_Vector_const_iterator@U_D3DDISPLAYMODE@@V?$allocator@U_D3DDISPLAYMODE@@@std@@@2@ABU_D3DDISPLAYMODE@@@Z 10004670 f i OgreD3D9DriverEnum.obj
 0001:000036f0       ?_Buy@?$vector@TShaderEnvKey@Ogre@@V?$allocator@TShaderEnvKey@Ogre@@@std@@@std@@IAE_NI@Z 100046f0 f i OgreD3D9ShaderManager.obj
 0001:000036f0       ?_Buy@?$vector@U_D3DDISPLAYMODE@@V?$allocator@U_D3DDISPLAYMODE@@@std@@@std@@IAE_NI@Z 100046f0 f i OgreD3D9DriverEnum.obj
 0001:00003770       ?_Tidy@?$vector@TShaderEnvKey@Ogre@@V?$allocator@TShaderEnvKey@Ogre@@@std@@@std@@IAEXXZ 10004770 f i OgreD3D9ShaderManager.obj
 0001:00003770       ?_Tidy@?$vector@U_D3DDISPLAYMODE@@V?$allocator@U_D3DDISPLAYMODE@@@std@@@std@@IAEXXZ 10004770 f i OgreD3D9DriverEnum.obj
 0001:000037e0       ?_Tidy@?$vector@PAVCompiledShader@Ogre@@V?$allocator@PAVCompiledShader@Ogre@@@std@@@std@@IAEXXZ 100047e0 f i OgreD3D9ShaderManager.obj
 0001:000037e0       ?_Tidy@?$vector@IV?$allocator@I@std@@@std@@IAEXXZ 100047e0 f i OgreD3D9DriverEnum.obj
 0001:000037e0       ?_Tidy@?$vector@PAUD3DDEVICEINFO_T@Ogre@@V?$allocator@PAUD3DDEVICEINFO_T@Ogre@@@std@@@std@@IAEXXZ 100047e0 f i OgreD3D9DriverEnum.obj
 0001:000037e0       ?_Tidy@?$vector@PAVD3D9VertexDecl@Ogre@@V?$allocator@PAVD3D9VertexDecl@Ogre@@@std@@@std@@IAEXXZ 100047e0 f i OgreD3D9RenderSystem.obj
 0001:000037e0       ?_Tidy@?$vector@PAUTechCache@D3DMaterialTemplate@Ogre@@V?$allocator@PAUTechCache@D3DMaterialTemplate@Ogre@@@std@@@std@@IAEXXZ 100047e0 f i OgreD3DMaterialTemplate.obj
 0001:000037e0       ?_Tidy@?$vector@PAVD3DRenderWindow@Ogre@@V?$allocator@PAVD3DRenderWindow@Ogre@@@std@@@std@@IAEXXZ 100047e0 f i OgreD3D9RenderSystem.obj
 0001:000037e0       ?_Tidy@?$vector@PAUIDirect3DBaseTexture9@@V?$allocator@PAUIDirect3DBaseTexture9@@@std@@@std@@IAEXXZ 100047e0 f i OgreD3D9HardwarePixelBuffer.obj
 0001:000037e0       ?_Tidy@?$vector@PAUD3DDEVCOMBO_T@Ogre@@V?$allocator@PAUD3DDEVCOMBO_T@Ogre@@@std@@@std@@IAEXXZ 100047e0 f i OgreD3D9DriverEnum.obj
 0001:000037e0       ?_Tidy@?$vector@PAUD3DADAPTER_T@Ogre@@V?$allocator@PAUD3DADAPTER_T@Ogre@@@std@@@std@@IAEXXZ 100047e0 f i OgreD3D9DriverEnum.obj
 0001:000037e0       ?_Tidy@?$vector@PAVD3D9TextureRenderTarget@Ogre@@V?$allocator@PAVD3D9TextureRenderTarget@Ogre@@@std@@@std@@IAEXXZ 100047e0 f i OgreD3D9HardwarePixelBuffer.obj
 0001:000037e0       ?_Tidy@?$vector@PAUTechniqueDesc@Ogre@@V?$allocator@PAUTechniqueDesc@Ogre@@@std@@@std@@IAEXXZ 100047e0 f i OgreD3D9ShaderManager.obj
 0001:00003850       ?_Destroy@?$vector@W4VERTPROCESS_T@Ogre@@V?$allocator@W4VERTPROCESS_T@Ogre@@@std@@@std@@IAEXPAW4VERTPROCESS_T@Ogre@@0@Z 10004850 f i OgreD3D9DriverEnum.obj
 0001:00003850       ?_Destroy@?$vector@W4_D3DFORMAT@@V?$allocator@W4_D3DFORMAT@@@std@@@std@@IAEXPAW4_D3DFORMAT@@0@Z 10004850 f i OgreD3D9DriverEnum.obj
 0001:00003850       ?_Destroy@?$vector@W4_D3DMULTISAMPLE_TYPE@@V?$allocator@W4_D3DMULTISAMPLE_TYPE@@@std@@@std@@IAEXPAW4_D3DMULTISAMPLE_TYPE@@0@Z 10004850 f i OgreD3D9DriverEnum.obj
 0001:00003880       ?_Insert_n@?$vector@W4_D3DMULTISAMPLE_TYPE@@V?$allocator@W4_D3DMULTISAMPLE_TYPE@@@std@@@std@@IAEXV?$_Vector_const_iterator@W4_D3DMULTISAMPLE_TYPE@@V?$allocator@W4_D3DMULTISAMPLE_TYPE@@@std@@@2@IABW4_D3DMULTISAMPLE_TYPE@@@Z 10004880 f i OgreD3D9DriverEnum.obj
 0001:00003880       ?_Insert_n@?$vector@W4VERTPROCESS_T@Ogre@@V?$allocator@W4VERTPROCESS_T@Ogre@@@std@@@std@@IAEXV?$_Vector_const_iterator@W4VERTPROCESS_T@Ogre@@V?$allocator@W4VERTPROCESS_T@Ogre@@@std@@@2@IABW4VERTPROCESS_T@Ogre@@@Z 10004880 f i OgreD3D9DriverEnum.obj
 0001:00003880       ?_Insert_n@?$vector@W4_D3DFORMAT@@V?$allocator@W4_D3DFORMAT@@@std@@@std@@IAEXV?$_Vector_const_iterator@W4_D3DFORMAT@@V?$allocator@W4_D3DFORMAT@@@std@@@2@IABW4_D3DFORMAT@@@Z 10004880 f i OgreD3D9DriverEnum.obj
 0001:00003c30       ??0length_error@std@@QAE@ABV?$basic_string@DU?$char_traits@D@std@@V?$allocator@D@2@@1@@Z 10004c30 f i OgreD3D9DriverEnum.obj
 0001:00003c90       ??0logic_error@std@@QAE@ABV?$basic_string@DU?$char_traits@D@std@@V?$allocator@D@2@@1@@Z 10004c90 f i OgreD3D9DriverEnum.obj
 0001:00003d00       ??1logic_error@std@@UAE@XZ 10004d00 f i OgreD3D9DriverEnum.obj
 0001:00003d70       ?what@logic_error@std@@UBEPBDXZ 10004d70 f i OgreD3D9DriverEnum.obj
 0001:00003d90       ??_Glogic_error@std@@UAEPAXI@Z 10004d90 f i OgreD3D9DriverEnum.obj
 0001:00003d90       ??_Elogic_error@std@@UAEPAXI@Z 10004d90 f i OgreD3D9DriverEnum.obj
 0001:00003dc0       ??1length_error@std@@UAE@XZ 10004dc0 f i OgreD3D9DriverEnum.obj
 0001:00003e20       ??_Elength_error@std@@UAEPAXI@Z 10004e20 f i OgreD3D9DriverEnum.obj
 0001:00003e20       ??_Glength_error@std@@UAEPAXI@Z 10004e20 f i OgreD3D9DriverEnum.obj
 0001:00003e50       ??0logic_error@std@@QAE@ABV01@@Z 10004e50 f i OgreD3D9DriverEnum.obj
 0001:00003ed0       ??2@YAPAXIPAX@Z            10004ed0 f i OgreD3D9DriverEnum.obj
 0001:00003ee0       ??0_Aux_cont@std@@QAE@QBV_Container_base_aux@1@@Z 10004ee0 f i OgreD3D9DriverEnum.obj
 0001:00003f00       ?max_size@?$vector@U_D3DXMACRO@@V?$allocator@U_D3DXMACRO@@@std@@@std@@QBEIXZ 10004f00 f i OgreD3D9ShaderManager.obj
 0001:00003f00       ?max_size@?$vector@UD3DSMSCONFLICT_T@Ogre@@V?$allocator@UD3DSMSCONFLICT_T@Ogre@@@std@@@std@@QBEIXZ 10004f00 f i OgreD3D9DriverEnum.obj
 0001:00003f20       ?_Insert_n@?$vector@U_D3DXMACRO@@V?$allocator@U_D3DXMACRO@@@std@@@std@@IAEXV?$_Vector_const_iterator@U_D3DXMACRO@@V?$allocator@U_D3DXMACRO@@@std@@@2@IABU_D3DXMACRO@@@Z 10004f20 f i OgreD3D9ShaderManager.obj
 0001:00003f20       ?_Insert_n@?$vector@UD3DSMSCONFLICT_T@Ogre@@V?$allocator@UD3DSMSCONFLICT_T@Ogre@@@std@@@std@@IAEXV?$_Vector_const_iterator@UD3DSMSCONFLICT_T@Ogre@@V?$allocator@UD3DSMSCONFLICT_T@Ogre@@@std@@@2@IABUD3DSMSCONFLICT_T@Ogre@@@Z 10004f20 f i OgreD3D9DriverEnum.obj
 0001:000042d0       ?deallocate@?$allocator@U_D3DDISPLAYMODE@@@std@@QAEXPAU_D3DDISPLAYMODE@@I@Z 100052d0 f i OgreD3D9DriverEnum.obj
 0001:000042d0       ?deallocate@?$allocator@U_Node@?$_Tree_nod@V?$_Tmap_traits@TShaderEnvKey2@Ogre@@PAVD3DShaderTechnique@2@U?$less@TShaderEnvKey2@Ogre@@@std@@V?$allocator@U?$pair@$$CBTShaderEnvKey2@Ogre@@PAVD3DShaderTechnique@2@@std@@@5@$0A@@std@@@std@@@std@@QAEXPAU_Node@?$_Tree_nod@V?$_Tmap_traits@TShaderEnvKey2@Ogre@@PAVD3DShaderTechnique@2@U?$less@TShaderEnvKey2@Ogre@@@std@@V?$allocator@U?$pair@$$CBTShaderEnvKey2@Ogre@@PAVD3DShaderTechnique@2@@std@@@5@$0A@@std@@@2@I@Z 100052d0 f i OgreD3DMaterialTemplate.obj
 0001:000042d0       ?deallocate@?$allocator@W4_D3DMULTISAMPLE_TYPE@@@std@@QAEXPAW4_D3DMULTISAMPLE_TYPE@@I@Z 100052d0 f i OgreD3D9DriverEnum.obj
 0001:000042d0       ?deallocate@?$allocator@UPassDesc@Ogre@@@std@@QAEXPAUPassDesc@Ogre@@I@Z 100052d0 f i OgreD3D9ShaderManager.obj
 0001:000042d0       ?deallocate@?$allocator@U_Node@?$_Tree_nod@V?$_Tmap_traits@VFixedString@Ogre@@PAVCompiledShaderGroup@2@U?$less@VFixedString@Ogre@@@std@@V?$allocator@U?$pair@$$CBVFixedString@Ogre@@PAVCompiledShaderGroup@2@@std@@@5@$0A@@std@@@std@@@std@@QAEXPAU_Node@?$_Tree_nod@V?$_Tmap_traits@VFixedString@Ogre@@PAVCompiledShaderGroup@2@U?$less@VFixedString@Ogre@@@std@@V?$allocator@U?$pair@$$CBVFixedString@Ogre@@PAVCompiledShaderGroup@2@@std@@@5@$0A@@std@@@2@I@Z 100052d0 f i OgreD3DMaterialTemplate.obj
 0001:000042d0       ?deallocate@?$allocator@UD3DSMSCONFLICT_T@Ogre@@@std@@QAEXPAUD3DSMSCONFLICT_T@Ogre@@I@Z 100052d0 f i OgreD3D9DriverEnum.obj
 0001:000042d0       ?deallocate@?$allocator@PAVD3DRenderWindow@Ogre@@@std@@QAEXPAPAVD3DRenderWindow@Ogre@@I@Z 100052d0 f i OgreD3D9RenderSystem.obj
 0001:000042d0       ?deallocate@?$allocator@UDSBuffer@D3D9HardwarePixelBufferManager@Ogre@@@std@@QAEXPAUDSBuffer@D3D9HardwarePixelBufferManager@Ogre@@I@Z 100052d0 f i OgreD3D9HardwarePixelBuffer.obj
 0001:000042d0       ?deallocate@?$allocator@PAUTechCache@D3DMaterialTemplate@Ogre@@@std@@QAEXPAPAUTechCache@D3DMaterialTemplate@Ogre@@I@Z 100052d0 f i OgreD3DMaterialTemplate.obj
 0001:000042d0       ?deallocate@?$allocator@U_Node@?$_Tree_nod@V?$_Tmap_traits@TShaderEnvKey@Ogre@@PAVD3DTech@2@U?$less@TShaderEnvKey@Ogre@@@std@@V?$allocator@U?$pair@$$CBTShaderEnvKey@Ogre@@PAVD3DTech@2@@std@@@5@$0A@@std@@@std@@@std@@QAEXPAU_Node@?$_Tree_nod@V?$_Tmap_traits@TShaderEnvKey@Ogre@@PAVD3DTech@2@U?$less@TShaderEnvKey@Ogre@@@std@@V?$allocator@U?$pair@$$CBTShaderEnvKey@Ogre@@PAVD3DTech@2@@std@@@5@$0A@@std@@@2@I@Z 100052d0 f i OgreD3DMaterialTemplate.obj
 0001:000042d0       ?deallocate@?$allocator@PAUIDirect3DBaseTexture9@@@std@@QAEXPAPAUIDirect3DBaseTexture9@@I@Z 100052d0 f i OgreD3D9HardwarePixelBuffer.obj
 0001:000042d0       ?deallocate@?$allocator@UPassData@D3DShaderTechnique@Ogre@@@std@@QAEXPAUPassData@D3DShaderTechnique@Ogre@@I@Z 100052d0 f i OgreD3D9ShaderManager.obj
 0001:000042d0       ?deallocate@?$allocator@PAVD3D9TextureRenderTarget@Ogre@@@std@@QAEXPAPAVD3D9TextureRenderTarget@Ogre@@I@Z 100052d0 f i OgreD3D9HardwarePixelBuffer.obj
 0001:000042d0       ?deallocate@?$allocator@PAVD3D9VertexDecl@Ogre@@@std@@QAEXPAPAVD3D9VertexDecl@Ogre@@I@Z 100052d0 f i OgreD3D9RenderSystem.obj
 0001:000042d0       ?deallocate@?$allocator@URTBuffer@D3D9HardwarePixelBufferManager@Ogre@@@std@@QAEXPAURTBuffer@D3D9HardwarePixelBufferManager@Ogre@@I@Z 100052d0 f i OgreD3D9HardwarePixelBuffer.obj
 0001:000042d0       ?deallocate@?$allocator@PAUD3DDEVICEINFO_T@Ogre@@@std@@QAEXPAPAUD3DDEVICEINFO_T@Ogre@@I@Z 100052d0 f i OgreD3D9DriverEnum.obj
 0001:000042d0       ?deallocate@?$allocator@PAVCompiledShader@Ogre@@@std@@QAEXPAPAVCompiledShader@Ogre@@I@Z 100052d0 f i OgreD3D9ShaderManager.obj
 0001:000042d0       ?deallocate@?$allocator@PAUD3DDEVCOMBO_T@Ogre@@@std@@QAEXPAPAUD3DDEVCOMBO_T@Ogre@@I@Z 100052d0 f i OgreD3D9DriverEnum.obj
 0001:000042d0       ?deallocate@?$allocator@I@std@@QAEXPAII@Z 100052d0 f i OgreD3D9DriverEnum.obj
 0001:000042d0       ?deallocate@?$allocator@TShaderEnvKey@Ogre@@@std@@QAEXPATShaderEnvKey@Ogre@@I@Z 100052d0 f i OgreD3D9ShaderManager.obj
 0001:000042d0       ?deallocate@?$allocator@U_D3DXMACRO@@@std@@QAEXPAU_D3DXMACRO@@I@Z 100052d0 f i OgreD3D9ShaderManager.obj
 0001:000042d0       ?deallocate@?$allocator@PAUTechniqueDesc@Ogre@@@std@@QAEXPAPAUTechniqueDesc@Ogre@@I@Z 100052d0 f i OgreD3D9ShaderManager.obj
 0001:000042d0       ?deallocate@?$allocator@PAUD3DADAPTER_T@Ogre@@@std@@QAEXPAPAUD3DADAPTER_T@Ogre@@I@Z 100052d0 f i OgreD3D9DriverEnum.obj
 0001:000042d0       ?deallocate@?$allocator@W4_D3DFORMAT@@@std@@QAEXPAW4_D3DFORMAT@@I@Z 100052d0 f i OgreD3D9DriverEnum.obj
 0001:000042d0       ?deallocate@?$allocator@U_Node@?$_Tree_nod@V?$_Tmap_traits@TShaderEnvKey@Ogre@@PAVCompiledShader@2@U?$less@TShaderEnvKey@Ogre@@@std@@V?$allocator@U?$pair@$$CBTShaderEnvKey@Ogre@@PAVCompiledShader@2@@std@@@5@$0A@@std@@@std@@@std@@QAEXPAU_Node@?$_Tree_nod@V?$_Tmap_traits@TShaderEnvKey@Ogre@@PAVCompiledShader@2@U?$less@TShaderEnvKey@Ogre@@@std@@V?$allocator@U?$pair@$$CBTShaderEnvKey@Ogre@@PAVCompiledShader@2@@std@@@5@$0A@@std@@@2@I@Z 100052d0 f i OgreD3D9ShaderManager.obj
 0001:000042d0       ?deallocate@?$allocator@UShaderEnv@Ogre@@@std@@QAEXPAUShaderEnv@Ogre@@I@Z 100052d0 f i OgreD3DMaterialTemplate.obj
 0001:000042d0       ?deallocate@?$allocator@W4VERTPROCESS_T@Ogre@@@std@@QAEXPAW4VERTPROCESS_T@Ogre@@I@Z 100052d0 f i OgreD3D9DriverEnum.obj
 0001:000042d0       ?deallocate@?$allocator@V_Aux_cont@std@@@std@@QAEXPAV_Aux_cont@2@I@Z 100052d0 f i OgreD3D9DriverEnum.obj
 0001:000042f0       ?_Insert_n@?$vector@U_D3DDISPLAYMODE@@V?$allocator@U_D3DDISPLAYMODE@@@std@@@std@@IAEXV?$_Vector_const_iterator@U_D3DDISPLAYMODE@@V?$allocator@U_D3DDISPLAYMODE@@@std@@@2@IABU_D3DDISPLAYMODE@@@Z 100052f0 f i OgreD3D9DriverEnum.obj
 0001:000046c0       ?allocate@?$allocator@TShaderEnvKey@Ogre@@@std@@QAEPATShaderEnvKey@Ogre@@I@Z 100056c0 f i OgreD3D9ShaderManager.obj
 0001:000046c0       ?allocate@?$allocator@U_D3DDISPLAYMODE@@@std@@QAEPAU_D3DDISPLAYMODE@@I@Z 100056c0 f i OgreD3D9DriverEnum.obj
 0001:000046e0       ?allocate@?$allocator@W4_D3DFORMAT@@@std@@QAEPAW4_D3DFORMAT@@I@Z 100056e0 f i OgreD3D9DriverEnum.obj
 0001:000046e0       ?allocate@?$allocator@I@std@@QAEPAII@Z 100056e0 f i OgreD3D9DriverEnum.obj
 0001:000046e0       ?allocate@?$allocator@PAVD3D9TextureRenderTarget@Ogre@@@std@@QAEPAPAVD3D9TextureRenderTarget@Ogre@@I@Z 100056e0 f i OgreD3D9HardwarePixelBuffer.obj
 0001:000046e0       ?allocate@?$allocator@PAUD3DADAPTER_T@Ogre@@@std@@QAEPAPAUD3DADAPTER_T@Ogre@@I@Z 100056e0 f i OgreD3D9DriverEnum.obj
 0001:000046e0       ?allocate@?$allocator@V_Aux_cont@std@@@std@@QAEPAV_Aux_cont@2@I@Z 100056e0 f i OgreD3D9DriverEnum.obj
 0001:000046e0       ?allocate@?$allocator@PAUTechCache@D3DMaterialTemplate@Ogre@@@std@@QAEPAPAUTechCache@D3DMaterialTemplate@Ogre@@I@Z 100056e0 f i OgreD3DMaterialTemplate.obj
 0001:000046e0       ?allocate@?$allocator@PAUTechniqueDesc@Ogre@@@std@@QAEPAPAUTechniqueDesc@Ogre@@I@Z 100056e0 f i OgreD3D9ShaderManager.obj
 0001:000046e0       ?allocate@?$allocator@PAVD3D9VertexDecl@Ogre@@@std@@QAEPAPAVD3D9VertexDecl@Ogre@@I@Z 100056e0 f i OgreD3D9RenderSystem.obj
 0001:000046e0       ?allocate@?$allocator@PAVCompiledShader@Ogre@@@std@@QAEPAPAVCompiledShader@Ogre@@I@Z 100056e0 f i OgreD3D9ShaderManager.obj
 0001:000046e0       ?allocate@?$allocator@W4VERTPROCESS_T@Ogre@@@std@@QAEPAW4VERTPROCESS_T@Ogre@@I@Z 100056e0 f i OgreD3D9DriverEnum.obj
 0001:000046e0       ?allocate@?$allocator@PAUD3DDEVICEINFO_T@Ogre@@@std@@QAEPAPAUD3DDEVICEINFO_T@Ogre@@I@Z 100056e0 f i OgreD3D9DriverEnum.obj
 0001:000046e0       ?allocate@?$allocator@PAUD3DDEVCOMBO_T@Ogre@@@std@@QAEPAPAUD3DDEVCOMBO_T@Ogre@@I@Z 100056e0 f i OgreD3D9DriverEnum.obj
 0001:000046e0       ?allocate@?$allocator@PAUIDirect3DBaseTexture9@@@std@@QAEPAPAUIDirect3DBaseTexture9@@I@Z 100056e0 f i OgreD3D9HardwarePixelBuffer.obj
 0001:000046e0       ?allocate@?$allocator@PAVD3DRenderWindow@Ogre@@@std@@QAEPAPAVD3DRenderWindow@Ogre@@I@Z 100056e0 f i OgreD3D9RenderSystem.obj
 0001:000046e0       ?allocate@?$allocator@W4_D3DMULTISAMPLE_TYPE@@@std@@QAEPAW4_D3DMULTISAMPLE_TYPE@@I@Z 100056e0 f i OgreD3D9DriverEnum.obj
 0001:00004700       ?_Same_container@_Iterator_base_aux@std@@QBE_NABV12@@Z 10005700 f i OgreD3D9DriverEnum.obj
 0001:00004720       ?_Has_container@_Iterator_base_aux@std@@QBE_NXZ 10005720 f i OgreD3D9DriverEnum.obj
 0001:00004740       ??0?$_Vector_iterator@W4_D3DMULTISAMPLE_TYPE@@V?$allocator@W4_D3DMULTISAMPLE_TYPE@@@std@@@std@@QAE@PAW4_D3DMULTISAMPLE_TYPE@@PBV_Container_base_aux@1@@Z 10005740 f i OgreD3D9DriverEnum.obj
 0001:00004740       ??0?$_Vector_iterator@U_D3DDISPLAYMODE@@V?$allocator@U_D3DDISPLAYMODE@@@std@@@std@@QAE@PAU_D3DDISPLAYMODE@@PBV_Container_base_aux@1@@Z 10005740 f i OgreD3D9DriverEnum.obj
 0001:00004740       ??0?$_Vector_iterator@PAVHardwarePixelBuffer@Ogre@@V?$allocator@PAVHardwarePixelBuffer@Ogre@@@std@@@std@@QAE@PAPAVHardwarePixelBuffer@Ogre@@PBV_Container_base_aux@1@@Z 10005740 f i OgreD3D9HardwarePixelBuffer.obj
 0001:00004740       ??0?$_Vector_iterator@PAUTechniqueDesc@Ogre@@V?$allocator@PAUTechniqueDesc@Ogre@@@std@@@std@@QAE@PAPAUTechniqueDesc@Ogre@@PBV_Container_base_aux@1@@Z 10005740 f i OgreD3D9ShaderManager.obj
 0001:00004740       ??0?$_Vector_iterator@PAUD3DDEVICEINFO_T@Ogre@@V?$allocator@PAUD3DDEVICEINFO_T@Ogre@@@std@@@std@@QAE@PAPAUD3DDEVICEINFO_T@Ogre@@PBV_Container_base_aux@1@@Z 10005740 f i OgreD3D9DriverEnum.obj
 0001:00004740       ??0?$_Vector_iterator@TShaderEnvKey@Ogre@@V?$allocator@TShaderEnvKey@Ogre@@@std@@@std@@QAE@PATShaderEnvKey@Ogre@@PBV_Container_base_aux@1@@Z 10005740 f i OgreD3D9ShaderManager.obj
 0001:00004740       ??0?$_Vector_iterator@PAVD3D9VertexDecl@Ogre@@V?$allocator@PAVD3D9VertexDecl@Ogre@@@std@@@std@@QAE@PAPAVD3D9VertexDecl@Ogre@@PBV_Container_base_aux@1@@Z 10005740 f i OgreD3D9RenderSystem.obj
 0001:00004740       ??0?$_Vector_iterator@W4VERTPROCESS_T@Ogre@@V?$allocator@W4VERTPROCESS_T@Ogre@@@std@@@std@@QAE@PAW4VERTPROCESS_T@Ogre@@PBV_Container_base_aux@1@@Z 10005740 f i OgreD3D9DriverEnum.obj
 0001:00004740       ??0?$_Vector_iterator@UPassDesc@Ogre@@V?$allocator@UPassDesc@Ogre@@@std@@@std@@QAE@PAUPassDesc@Ogre@@PBV_Container_base_aux@1@@Z 10005740 f i OgreD3D9ShaderManager.obj
 0001:00004740       ??0?$_Vector_iterator@URTBuffer@D3D9HardwarePixelBufferManager@Ogre@@V?$allocator@URTBuffer@D3D9HardwarePixelBufferManager@Ogre@@@std@@@std@@QAE@PAURTBuffer@D3D9HardwarePixelBufferManager@Ogre@@PBV_Container_base_aux@1@@Z 10005740 f i OgreD3D9HardwarePixelBuffer.obj
 0001:00004740       ??0?$_Vector_iterator@PAVCompiledShader@Ogre@@V?$allocator@PAVCompiledShader@Ogre@@@std@@@std@@QAE@PAPAVCompiledShader@Ogre@@PBV_Container_base_aux@1@@Z 10005740 f i OgreD3D9ShaderManager.obj
 0001:00004740       ??0?$_Vector_iterator@PAVD3D9TextureRenderTarget@Ogre@@V?$allocator@PAVD3D9TextureRenderTarget@Ogre@@@std@@@std@@QAE@PAPAVD3D9TextureRenderTarget@Ogre@@PBV_Container_base_aux@1@@Z 10005740 f i OgreD3D9HardwarePixelBuffer.obj
 0001:00004740       ??0?$_Vector_iterator@PAUD3DDEVCOMBO_T@Ogre@@V?$allocator@PAUD3DDEVCOMBO_T@Ogre@@@std@@@std@@QAE@PAPAUD3DDEVCOMBO_T@Ogre@@PBV_Container_base_aux@1@@Z 10005740 f i OgreD3D9DriverEnum.obj
 0001:00004740       ??0?$_Vector_iterator@PAVD3DRenderWindow@Ogre@@V?$allocator@PAVD3DRenderWindow@Ogre@@@std@@@std@@QAE@PAPAVD3DRenderWindow@Ogre@@PBV_Container_base_aux@1@@Z 10005740 f i OgreD3D9RenderSystem.obj
 0001:00004740       ??0?$_Vector_iterator@UDSBuffer@D3D9HardwarePixelBufferManager@Ogre@@V?$allocator@UDSBuffer@D3D9HardwarePixelBufferManager@Ogre@@@std@@@std@@QAE@PAUDSBuffer@D3D9HardwarePixelBufferManager@Ogre@@PBV_Container_base_aux@1@@Z 10005740 f i OgreD3D9HardwarePixelBuffer.obj
 0001:00004740       ??0?$_Vector_iterator@UShaderEnv@Ogre@@V?$allocator@UShaderEnv@Ogre@@@std@@@std@@QAE@PAUShaderEnv@Ogre@@PBV_Container_base_aux@1@@Z 10005740 f i OgreD3DMaterialTemplate.obj
 0001:00004740       ??0?$_Vector_iterator@UD3DSMSCONFLICT_T@Ogre@@V?$allocator@UD3DSMSCONFLICT_T@Ogre@@@std@@@std@@QAE@PAUD3DSMSCONFLICT_T@Ogre@@PBV_Container_base_aux@1@@Z 10005740 f i OgreD3D9DriverEnum.obj
 0001:00004740       ??0?$_Vector_iterator@PAUD3DADAPTER_T@Ogre@@V?$allocator@PAUD3DADAPTER_T@Ogre@@@std@@@std@@QAE@PAPAUD3DADAPTER_T@Ogre@@PBV_Container_base_aux@1@@Z 10005740 f i OgreD3D9DriverEnum.obj
 0001:00004740       ??0?$_Vector_iterator@W4_D3DFORMAT@@V?$allocator@W4_D3DFORMAT@@@std@@@std@@QAE@PAW4_D3DFORMAT@@PBV_Container_base_aux@1@@Z 10005740 f i OgreD3D9DriverEnum.obj
 0001:00004740       ??0?$_Vector_iterator@UPassData@D3DShaderTechnique@Ogre@@V?$allocator@UPassData@D3DShaderTechnique@Ogre@@@std@@@std@@QAE@PAUPassData@D3DShaderTechnique@Ogre@@PBV_Container_base_aux@1@@Z 10005740 f i OgreD3D9ShaderManager.obj
 0001:00004740       ??0?$_Vector_iterator@PAUTechCache@D3DMaterialTemplate@Ogre@@V?$allocator@PAUTechCache@D3DMaterialTemplate@Ogre@@@std@@@std@@QAE@PAPAUTechCache@D3DMaterialTemplate@Ogre@@PBV_Container_base_aux@1@@Z 10005740 f i OgreD3DMaterialTemplate.obj
 0001:00004740       ??0?$_Vector_iterator@DV?$allocator@D@std@@@std@@QAE@PADPBV_Container_base_aux@1@@Z 10005740 f i OgreD3D9ShaderManager.obj
 0001:00004740       ??0?$_Vector_iterator@IV?$allocator@I@std@@@std@@QAE@PAIPBV_Container_base_aux@1@@Z 10005740 f i OgreD3D9DriverEnum.obj
 0001:00004740       ??0?$_Vector_iterator@U_D3DXMACRO@@V?$allocator@U_D3DXMACRO@@@std@@@std@@QAE@PAU_D3DXMACRO@@PBV_Container_base_aux@1@@Z 10005740 f i OgreD3D9ShaderManager.obj
 0001:00004760       ??H?$_Vector_iterator@U_D3DDISPLAYMODE@@V?$allocator@U_D3DDISPLAYMODE@@@std@@@std@@QBE?AV01@H@Z 10005760 f i OgreD3D9DriverEnum.obj
 0001:00004760       ??H?$_Vector_iterator@TShaderEnvKey@Ogre@@V?$allocator@TShaderEnvKey@Ogre@@@std@@@std@@QBE?AV01@H@Z 10005760 f i OgreD3D9ShaderManager.obj
 0001:000047a0       ??H?$_Vector_iterator@PAVD3DRenderWindow@Ogre@@V?$allocator@PAVD3DRenderWindow@Ogre@@@std@@@std@@QBE?AV01@H@Z 100057a0 f i OgreD3D9RenderSystem.obj
 0001:000047a0       ??H?$_Vector_iterator@PAUTechniqueDesc@Ogre@@V?$allocator@PAUTechniqueDesc@Ogre@@@std@@@std@@QBE?AV01@H@Z 100057a0 f i OgreD3D9ShaderManager.obj
 0001:000047a0       ??H?$_Vector_iterator@W4VERTPROCESS_T@Ogre@@V?$allocator@W4VERTPROCESS_T@Ogre@@@std@@@std@@QBE?AV01@H@Z 100057a0 f i OgreD3D9DriverEnum.obj
 0001:000047a0       ??H?$_Vector_iterator@PAUD3DADAPTER_T@Ogre@@V?$allocator@PAUD3DADAPTER_T@Ogre@@@std@@@std@@QBE?AV01@H@Z 100057a0 f i OgreD3D9DriverEnum.obj
 0001:000047a0       ??H?$_Vector_iterator@PAUD3DDEVICEINFO_T@Ogre@@V?$allocator@PAUD3DDEVICEINFO_T@Ogre@@@std@@@std@@QBE?AV01@H@Z 100057a0 f i OgreD3D9DriverEnum.obj
 0001:000047a0       ??H?$_Vector_iterator@W4_D3DMULTISAMPLE_TYPE@@V?$allocator@W4_D3DMULTISAMPLE_TYPE@@@std@@@std@@QBE?AV01@H@Z 100057a0 f i OgreD3D9DriverEnum.obj
 0001:000047a0       ??H?$_Vector_iterator@PAVCompiledShader@Ogre@@V?$allocator@PAVCompiledShader@Ogre@@@std@@@std@@QBE?AV01@H@Z 100057a0 f i OgreD3D9ShaderManager.obj
 0001:000047a0       ??H?$_Vector_iterator@PAVD3D9VertexDecl@Ogre@@V?$allocator@PAVD3D9VertexDecl@Ogre@@@std@@@std@@QBE?AV01@H@Z 100057a0 f i OgreD3D9RenderSystem.obj
 0001:000047a0       ??H?$_Vector_iterator@PAUTechCache@D3DMaterialTemplate@Ogre@@V?$allocator@PAUTechCache@D3DMaterialTemplate@Ogre@@@std@@@std@@QBE?AV01@H@Z 100057a0 f i OgreD3DMaterialTemplate.obj
 0001:000047a0       ??H?$_Vector_iterator@IV?$allocator@I@std@@@std@@QBE?AV01@H@Z 100057a0 f i OgreD3D9DriverEnum.obj
 0001:000047a0       ??H?$_Vector_iterator@W4_D3DFORMAT@@V?$allocator@W4_D3DFORMAT@@@std@@@std@@QBE?AV01@H@Z 100057a0 f i OgreD3D9DriverEnum.obj
 0001:000047a0       ??H?$_Vector_iterator@PAUD3DDEVCOMBO_T@Ogre@@V?$allocator@PAUD3DDEVCOMBO_T@Ogre@@@std@@@std@@QBE?AV01@H@Z 100057a0 f i OgreD3D9DriverEnum.obj
 0001:000047a0       ??H?$_Vector_iterator@PAVD3D9TextureRenderTarget@Ogre@@V?$allocator@PAVD3D9TextureRenderTarget@Ogre@@@std@@@std@@QBE?AV01@H@Z 100057a0 f i OgreD3D9HardwarePixelBuffer.obj
 0001:000047e0       ??0length_error@std@@QAE@ABV01@@Z 100057e0 f i OgreD3D9DriverEnum.obj
 0001:00004840       ?max_size@?$allocator@U_D3DDISPLAYMODE@@@std@@QBEIXZ 10005840 f i OgreD3D9DriverEnum.obj
 0001:00004840       ?max_size@?$allocator@TShaderEnvKey@Ogre@@@std@@QBEIXZ 10005840 f i OgreD3D9ShaderManager.obj
 0001:00004870       ?max_size@?$allocator@W4_D3DMULTISAMPLE_TYPE@@@std@@QBEIXZ 10005870 f i OgreD3D9DriverEnum.obj
 0001:00004870       ?max_size@?$allocator@W4_D3DFORMAT@@@std@@QBEIXZ 10005870 f i OgreD3D9DriverEnum.obj
 0001:00004870       ?max_size@?$allocator@PAUD3DDEVICEINFO_T@Ogre@@@std@@QBEIXZ 10005870 f i OgreD3D9DriverEnum.obj
 0001:00004870       ?max_size@?$allocator@PAUTechniqueDesc@Ogre@@@std@@QBEIXZ 10005870 f i OgreD3D9ShaderManager.obj
 0001:00004870       ?max_size@?$allocator@PAVCompiledShader@Ogre@@@std@@QBEIXZ 10005870 f i OgreD3D9ShaderManager.obj
 0001:00004870       ?max_size@?$allocator@PAVD3DRenderWindow@Ogre@@@std@@QBEIXZ 10005870 f i OgreD3D9RenderSystem.obj
 0001:00004870       ?max_size@?$allocator@I@std@@QBEIXZ 10005870 f i OgreD3D9DriverEnum.obj
 0001:00004870       ?max_size@?$allocator@PAVD3D9VertexDecl@Ogre@@@std@@QBEIXZ 10005870 f i OgreD3D9RenderSystem.obj
 0001:00004870       ?max_size@?$allocator@PAUIDirect3DBaseTexture9@@@std@@QBEIXZ 10005870 f i OgreD3D9HardwarePixelBuffer.obj
 0001:00004870       ?max_size@?$allocator@PAUD3DADAPTER_T@Ogre@@@std@@QBEIXZ 10005870 f i OgreD3D9DriverEnum.obj
 0001:00004870       ?max_size@?$allocator@W4VERTPROCESS_T@Ogre@@@std@@QBEIXZ 10005870 f i OgreD3D9DriverEnum.obj
 0001:00004870       ?max_size@?$allocator@PAUD3DDEVCOMBO_T@Ogre@@@std@@QBEIXZ 10005870 f i OgreD3D9DriverEnum.obj
 0001:00004870       ?max_size@?$allocator@PAVD3D9TextureRenderTarget@Ogre@@@std@@QBEIXZ 10005870 f i OgreD3D9HardwarePixelBuffer.obj
 0001:00004870       ?max_size@?$allocator@PAUTechCache@D3DMaterialTemplate@Ogre@@@std@@QBEIXZ 10005870 f i OgreD3DMaterialTemplate.obj
 0001:000048a0       ?_Set_container@_Iterator_base_aux@std@@QAEXQBV_Container_base_aux@2@@Z 100058a0 f i OgreD3D9DriverEnum.obj
 0001:000048c0       ??Y?$_Vector_iterator@U_D3DXMACRO@@V?$allocator@U_D3DXMACRO@@@std@@@std@@QAEAAV01@H@Z 100058c0 f i OgreD3D9ShaderManager.obj
 0001:000048c0       ??Y?$_Vector_iterator@UD3DSMSCONFLICT_T@Ogre@@V?$allocator@UD3DSMSCONFLICT_T@Ogre@@@std@@@std@@QAEAAV01@H@Z 100058c0 f i OgreD3D9DriverEnum.obj
 0001:000048e0       ??0?$_Vector_const_iterator@W4_D3DFORMAT@@V?$allocator@W4_D3DFORMAT@@@std@@@std@@QAE@PAW4_D3DFORMAT@@PBV_Container_base_aux@1@@Z 100058e0 f i OgreD3D9DriverEnum.obj
 0001:000048e0       ??0?$_Vector_const_iterator@PAVD3D9TextureRenderTarget@Ogre@@V?$allocator@PAVD3D9TextureRenderTarget@Ogre@@@std@@@std@@QAE@PAPAVD3D9TextureRenderTarget@Ogre@@PBV_Container_base_aux@1@@Z 100058e0 f i OgreD3D9HardwarePixelBuffer.obj
 0001:000048e0       ??0?$_Vector_const_iterator@URTBuffer@D3D9HardwarePixelBufferManager@Ogre@@V?$allocator@URTBuffer@D3D9HardwarePixelBufferManager@Ogre@@@std@@@std@@QAE@PAURTBuffer@D3D9HardwarePixelBufferManager@Ogre@@PBV_Container_base_aux@1@@Z 100058e0 f i OgreD3D9HardwarePixelBuffer.obj
 0001:000048e0       ??0?$_Vector_const_iterator@PAVD3D9VertexDecl@Ogre@@V?$allocator@PAVD3D9VertexDecl@Ogre@@@std@@@std@@QAE@PAPAVD3D9VertexDecl@Ogre@@PBV_Container_base_aux@1@@Z 100058e0 f i OgreD3D9RenderSystem.obj
 0001:000048e0       ??0?$_Vector_const_iterator@PAUD3DADAPTER_T@Ogre@@V?$allocator@PAUD3DADAPTER_T@Ogre@@@std@@@std@@QAE@PAPAUD3DADAPTER_T@Ogre@@PBV_Container_base_aux@1@@Z 100058e0 f i OgreD3D9DriverEnum.obj
 0001:000048e0       ??0?$_Vector_const_iterator@UD3DSMSCONFLICT_T@Ogre@@V?$allocator@UD3DSMSCONFLICT_T@Ogre@@@std@@@std@@QAE@PAUD3DSMSCONFLICT_T@Ogre@@PBV_Container_base_aux@1@@Z 100058e0 f i OgreD3D9DriverEnum.obj
 0001:000048e0       ??0?$_Vector_const_iterator@DV?$allocator@D@std@@@std@@QAE@PADPBV_Container_base_aux@1@@Z 100058e0 f i OgreD3D9ShaderManager.obj
 0001:000048e0       ??0?$_Vector_const_iterator@W4VERTPROCESS_T@Ogre@@V?$allocator@W4VERTPROCESS_T@Ogre@@@std@@@std@@QAE@PAW4VERTPROCESS_T@Ogre@@PBV_Container_base_aux@1@@Z 100058e0 f i OgreD3D9DriverEnum.obj
 0001:000048e0       ??0?$_Vector_const_iterator@W4_D3DMULTISAMPLE_TYPE@@V?$allocator@W4_D3DMULTISAMPLE_TYPE@@@std@@@std@@QAE@PAW4_D3DMULTISAMPLE_TYPE@@PBV_Container_base_aux@1@@Z 100058e0 f i OgreD3D9DriverEnum.obj
 0001:000048e0       ??0?$_Vector_const_iterator@PAUTechCache@D3DMaterialTemplate@Ogre@@V?$allocator@PAUTechCache@D3DMaterialTemplate@Ogre@@@std@@@std@@QAE@PAPAUTechCache@D3DMaterialTemplate@Ogre@@PBV_Container_base_aux@1@@Z 100058e0 f i OgreD3DMaterialTemplate.obj
 0001:000048e0       ??0?$_Vector_const_iterator@UPassDesc@Ogre@@V?$allocator@UPassDesc@Ogre@@@std@@@std@@QAE@PAUPassDesc@Ogre@@PBV_Container_base_aux@1@@Z 100058e0 f i OgreD3D9ShaderManager.obj
 0001:000048e0       ??0?$_Vector_const_iterator@U_D3DXMACRO@@V?$allocator@U_D3DXMACRO@@@std@@@std@@QAE@PAU_D3DXMACRO@@PBV_Container_base_aux@1@@Z 100058e0 f i OgreD3D9ShaderManager.obj
 0001:000048e0       ??0?$_Vector_const_iterator@TShaderEnvKey@Ogre@@V?$allocator@TShaderEnvKey@Ogre@@@std@@@std@@QAE@PATShaderEnvKey@Ogre@@PBV_Container_base_aux@1@@Z 100058e0 f i OgreD3D9ShaderManager.obj
 0001:000048e0       ??0?$_Vector_const_iterator@UDSBuffer@D3D9HardwarePixelBufferManager@Ogre@@V?$allocator@UDSBuffer@D3D9HardwarePixelBufferManager@Ogre@@@std@@@std@@QAE@PAUDSBuffer@D3D9HardwarePixelBufferManager@Ogre@@PBV_Container_base_aux@1@@Z 100058e0 f i OgreD3D9HardwarePixelBuffer.obj
 0001:000048e0       ??0?$_Vector_const_iterator@UPassData@D3DShaderTechnique@Ogre@@V?$allocator@UPassData@D3DShaderTechnique@Ogre@@@std@@@std@@QAE@PAUPassData@D3DShaderTechnique@Ogre@@PBV_Container_base_aux@1@@Z 100058e0 f i OgreD3D9ShaderManager.obj
 0001:000048e0       ??0?$_Vector_const_iterator@U_D3DDISPLAYMODE@@V?$allocator@U_D3DDISPLAYMODE@@@std@@@std@@QAE@PAU_D3DDISPLAYMODE@@PBV_Container_base_aux@1@@Z 100058e0 f i OgreD3D9DriverEnum.obj
 0001:000048e0       ??0?$_Vector_const_iterator@PAUD3DDEVICEINFO_T@Ogre@@V?$allocator@PAUD3DDEVICEINFO_T@Ogre@@@std@@@std@@QAE@PAPAUD3DDEVICEINFO_T@Ogre@@PBV_Container_base_aux@1@@Z 100058e0 f i OgreD3D9DriverEnum.obj
 0001:000048e0       ??0?$_Vector_const_iterator@IV?$allocator@I@std@@@std@@QAE@PAIPBV_Container_base_aux@1@@Z 100058e0 f i OgreD3D9DriverEnum.obj
 0001:000048e0       ??0?$_Vector_const_iterator@UShaderEnv@Ogre@@V?$allocator@UShaderEnv@Ogre@@@std@@@std@@QAE@PAUShaderEnv@Ogre@@PBV_Container_base_aux@1@@Z 100058e0 f i OgreD3DMaterialTemplate.obj
 0001:000048e0       ??0?$_Vector_const_iterator@PAVHardwarePixelBuffer@Ogre@@V?$allocator@PAVHardwarePixelBuffer@Ogre@@@std@@@std@@QAE@PAPAVHardwarePixelBuffer@Ogre@@PBV_Container_base_aux@1@@Z 100058e0 f i OgreD3D9HardwarePixelBuffer.obj
 0001:000048e0       ??0?$_Vector_const_iterator@PAUTechniqueDesc@Ogre@@V?$allocator@PAUTechniqueDesc@Ogre@@@std@@@std@@QAE@PAPAUTechniqueDesc@Ogre@@PBV_Container_base_aux@1@@Z 100058e0 f i OgreD3D9ShaderManager.obj
 0001:000048e0       ??0?$_Vector_const_iterator@PAVD3DRenderWindow@Ogre@@V?$allocator@PAVD3DRenderWindow@Ogre@@@std@@@std@@QAE@PAPAVD3DRenderWindow@Ogre@@PBV_Container_base_aux@1@@Z 100058e0 f i OgreD3D9RenderSystem.obj
 0001:000048e0       ??0?$_Vector_const_iterator@PAUD3DDEVCOMBO_T@Ogre@@V?$allocator@PAUD3DDEVCOMBO_T@Ogre@@@std@@@std@@QAE@PAPAUD3DDEVCOMBO_T@Ogre@@PBV_Container_base_aux@1@@Z 100058e0 f i OgreD3D9DriverEnum.obj
 0001:000048e0       ??0?$_Vector_const_iterator@PAVCompiledShader@Ogre@@V?$allocator@PAVCompiledShader@Ogre@@@std@@@std@@QAE@PAPAVCompiledShader@Ogre@@PBV_Container_base_aux@1@@Z 100058e0 f i OgreD3D9ShaderManager.obj
 0001:00004930       ??Y?$_Vector_iterator@W4VERTPROCESS_T@Ogre@@V?$allocator@W4VERTPROCESS_T@Ogre@@@std@@@std@@QAEAAV01@H@Z 10005930 f i OgreD3D9DriverEnum.obj
 0001:00004930       ??Y?$_Vector_iterator@PAUTechniqueDesc@Ogre@@V?$allocator@PAUTechniqueDesc@Ogre@@@std@@@std@@QAEAAV01@H@Z 10005930 f i OgreD3D9ShaderManager.obj
 0001:00004930       ??Y?$_Vector_iterator@PAVD3D9TextureRenderTarget@Ogre@@V?$allocator@PAVD3D9TextureRenderTarget@Ogre@@@std@@@std@@QAEAAV01@H@Z 10005930 f i OgreD3D9HardwarePixelBuffer.obj
 0001:00004930       ??Y?$_Vector_iterator@PAUTechCache@D3DMaterialTemplate@Ogre@@V?$allocator@PAUTechCache@D3DMaterialTemplate@Ogre@@@std@@@std@@QAEAAV01@H@Z 10005930 f i OgreD3DMaterialTemplate.obj
 0001:00004930       ??Y?$_Vector_iterator@PAVCompiledShader@Ogre@@V?$allocator@PAVCompiledShader@Ogre@@@std@@@std@@QAEAAV01@H@Z 10005930 f i OgreD3D9ShaderManager.obj
 0001:00004930       ??Y?$_Vector_iterator@PAVD3DRenderWindow@Ogre@@V?$allocator@PAVD3DRenderWindow@Ogre@@@std@@@std@@QAEAAV01@H@Z 10005930 f i OgreD3D9RenderSystem.obj
 0001:00004930       ??Y?$_Vector_iterator@W4_D3DFORMAT@@V?$allocator@W4_D3DFORMAT@@@std@@@std@@QAEAAV01@H@Z 10005930 f i OgreD3D9DriverEnum.obj
 0001:00004930       ??Y?$_Vector_iterator@PAUD3DADAPTER_T@Ogre@@V?$allocator@PAUD3DADAPTER_T@Ogre@@@std@@@std@@QAEAAV01@H@Z 10005930 f i OgreD3D9DriverEnum.obj
 0001:00004930       ??Y?$_Vector_iterator@PAUD3DDEVCOMBO_T@Ogre@@V?$allocator@PAUD3DDEVCOMBO_T@Ogre@@@std@@@std@@QAEAAV01@H@Z 10005930 f i OgreD3D9DriverEnum.obj
 0001:00004930       ??Y?$_Vector_iterator@W4_D3DMULTISAMPLE_TYPE@@V?$allocator@W4_D3DMULTISAMPLE_TYPE@@@std@@@std@@QAEAAV01@H@Z 10005930 f i OgreD3D9DriverEnum.obj
 0001:00004930       ??Y?$_Vector_iterator@IV?$allocator@I@std@@@std@@QAEAAV01@H@Z 10005930 f i OgreD3D9DriverEnum.obj
 0001:00004930       ??Y?$_Vector_iterator@PAVD3D9VertexDecl@Ogre@@V?$allocator@PAVD3D9VertexDecl@Ogre@@@std@@@std@@QAEAAV01@H@Z 10005930 f i OgreD3D9RenderSystem.obj
 0001:00004930       ??Y?$_Vector_iterator@PAUD3DDEVICEINFO_T@Ogre@@V?$allocator@PAUD3DDEVICEINFO_T@Ogre@@@std@@@std@@QAEAAV01@H@Z 10005930 f i OgreD3D9DriverEnum.obj
 0001:00004950       ??0_Iterator_base_aux@std@@QAE@XZ 10005950 f i OgreD3D9DriverEnum.obj
 0001:00004970       ?_Getmycont@_Iterator_base_aux@std@@QBEPBV_Container_base_aux@2@XZ 10005970 f i OgreD3D9DriverEnum.obj
 0001:000049a0       ?_Getcont@_Aux_cont@std@@QBEPBV_Container_base_aux@2@XZ 100059a0 f i OgreD3D9DriverEnum.obj
 0001:000049b0       ??Y?$_Vector_const_iterator@U_D3DXMACRO@@V?$allocator@U_D3DXMACRO@@@std@@@std@@QAEAAV01@H@Z 100059b0 f i OgreD3D9ShaderManager.obj
 0001:000049b0       ??Y?$_Vector_const_iterator@UD3DSMSCONFLICT_T@Ogre@@V?$allocator@UD3DSMSCONFLICT_T@Ogre@@@std@@@std@@QAEAAV01@H@Z 100059b0 f i OgreD3D9DriverEnum.obj
 0001:00004a30       ??Y?$_Vector_const_iterator@W4_D3DFORMAT@@V?$allocator@W4_D3DFORMAT@@@std@@@std@@QAEAAV01@H@Z 10005a30 f i OgreD3D9DriverEnum.obj
 0001:00004a30       ??Y?$_Vector_const_iterator@IV?$allocator@I@std@@@std@@QAEAAV01@H@Z 10005a30 f i OgreD3D9DriverEnum.obj
 0001:00004a30       ??Y?$_Vector_const_iterator@W4_D3DMULTISAMPLE_TYPE@@V?$allocator@W4_D3DMULTISAMPLE_TYPE@@@std@@@std@@QAEAAV01@H@Z 10005a30 f i OgreD3D9DriverEnum.obj
 0001:00004a30       ??Y?$_Vector_const_iterator@PAVD3DRenderWindow@Ogre@@V?$allocator@PAVD3DRenderWindow@Ogre@@@std@@@std@@QAEAAV01@H@Z 10005a30 f i OgreD3D9RenderSystem.obj
 0001:00004a30       ??Y?$_Vector_const_iterator@PAUTechniqueDesc@Ogre@@V?$allocator@PAUTechniqueDesc@Ogre@@@std@@@std@@QAEAAV01@H@Z 10005a30 f i OgreD3D9ShaderManager.obj
 0001:00004a30       ??Y?$_Vector_const_iterator@PAUD3DDEVICEINFO_T@Ogre@@V?$allocator@PAUD3DDEVICEINFO_T@Ogre@@@std@@@std@@QAEAAV01@H@Z 10005a30 f i OgreD3D9DriverEnum.obj
 0001:00004a30       ??Y?$_Vector_const_iterator@PAUD3DDEVCOMBO_T@Ogre@@V?$allocator@PAUD3DDEVCOMBO_T@Ogre@@@std@@@std@@QAEAAV01@H@Z 10005a30 f i OgreD3D9DriverEnum.obj
 0001:00004a30       ??Y?$_Vector_const_iterator@PAUTechCache@D3DMaterialTemplate@Ogre@@V?$allocator@PAUTechCache@D3DMaterialTemplate@Ogre@@@std@@@std@@QAEAAV01@H@Z 10005a30 f i OgreD3DMaterialTemplate.obj
 0001:00004a30       ??Y?$_Vector_const_iterator@PAUD3DADAPTER_T@Ogre@@V?$allocator@PAUD3DADAPTER_T@Ogre@@@std@@@std@@QAEAAV01@H@Z 10005a30 f i OgreD3D9DriverEnum.obj
 0001:00004a30       ??Y?$_Vector_const_iterator@W4VERTPROCESS_T@Ogre@@V?$allocator@W4VERTPROCESS_T@Ogre@@@std@@@std@@QAEAAV01@H@Z 10005a30 f i OgreD3D9DriverEnum.obj
 0001:00004a30       ??Y?$_Vector_const_iterator@PAVCompiledShader@Ogre@@V?$allocator@PAVCompiledShader@Ogre@@@std@@@std@@QAEAAV01@H@Z 10005a30 f i OgreD3D9ShaderManager.obj
 0001:00004a30       ??Y?$_Vector_const_iterator@PAVD3D9VertexDecl@Ogre@@V?$allocator@PAVD3D9VertexDecl@Ogre@@@std@@@std@@QAEAAV01@H@Z 10005a30 f i OgreD3D9RenderSystem.obj
 0001:00004a30       ??Y?$_Vector_const_iterator@PAVD3D9TextureRenderTarget@Ogre@@V?$allocator@PAVD3D9TextureRenderTarget@Ogre@@@std@@@std@@QAEAAV01@H@Z 10005a30 f i OgreD3D9HardwarePixelBuffer.obj
 0001:00004ab0       ??$IsVectorContain@W4_D3DFORMAT@@@Ogre@@YAHAAV?$vector@W4_D3DFORMAT@@V?$allocator@W4_D3DFORMAT@@@std@@@std@@ABW4_D3DFORMAT@@@Z 10005ab0 f i OgreD3D9DriverEnum.obj
 0001:00004b10       ??$MakePtrGuard@UD3DDEVCOMBO_T@Ogre@@@Ogre@@YA?AV?$PtrScopeGuardImpl@UD3DDEVCOMBO_T@Ogre@@@0@PAUD3DDEVCOMBO_T@0@@Z 10005b10 f i OgreD3D9DriverEnum.obj
 0001:00004b70       ??$IsValueInArray@W4_D3DMULTISAMPLE_TYPE@@@Ogre@@YA_NW4_D3DMULTISAMPLE_TYPE@@AAV?$vector@W4_D3DMULTISAMPLE_TYPE@@V?$allocator@W4_D3DMULTISAMPLE_TYPE@@@std@@@std@@@Z 10005b70 f i OgreD3D9DriverEnum.obj
 0001:00004b70       ??$IsValueInArray@W4VERTPROCESS_T@Ogre@@@Ogre@@YA_NW4VERTPROCESS_T@0@AAV?$vector@W4VERTPROCESS_T@Ogre@@V?$allocator@W4VERTPROCESS_T@Ogre@@@std@@@std@@@Z 10005b70 f i OgreD3D9DriverEnum.obj
 0001:00004bc0       ??$SafeExecute@V?$PtrScopeGuardImpl@UD3DDEVCOMBO_T@Ogre@@@Ogre@@@ScopeGuardImplBase@Ogre@@KAXAAV?$PtrScopeGuardImpl@UD3DDEVCOMBO_T@Ogre@@@1@@Z 10005bc0 f i OgreD3D9DriverEnum.obj
 0001:00004c30       ??$unchecked_uninitialized_fill_n@PAW4_D3DFORMAT@@IW41@V?$allocator@W4_D3DFORMAT@@@std@@@stdext@@YAXPAW4_D3DFORMAT@@IABW41@AAV?$allocator@W4_D3DFORMAT@@@std@@@Z 10005c30 f i OgreD3D9DriverEnum.obj
 0001:00004c30       ??$unchecked_uninitialized_fill_n@PAW4_D3DMULTISAMPLE_TYPE@@IW41@V?$allocator@W4_D3DMULTISAMPLE_TYPE@@@std@@@stdext@@YAXPAW4_D3DMULTISAMPLE_TYPE@@IABW41@AAV?$allocator@W4_D3DMULTISAMPLE_TYPE@@@std@@@Z 10005c30 f i OgreD3D9DriverEnum.obj
 0001:00004c30       ??$unchecked_uninitialized_fill_n@PAW4VERTPROCESS_T@Ogre@@IW412@V?$allocator@W4VERTPROCESS_T@Ogre@@@std@@@stdext@@YAXPAW4VERTPROCESS_T@Ogre@@IABW412@AAV?$allocator@W4VERTPROCESS_T@Ogre@@@std@@@Z 10005c30 f i OgreD3D9DriverEnum.obj
 0001:00004c80       ??$_Destroy_range@V?$allocator@W4_D3DMULTISAMPLE_TYPE@@@std@@@std@@YAXPAW4_D3DMULTISAMPLE_TYPE@@0AAV?$allocator@W4_D3DMULTISAMPLE_TYPE@@@0@@Z 10005c80 f i OgreD3D9DriverEnum.obj
 0001:00004c80       ??$_Destroy_range@V?$allocator@W4VERTPROCESS_T@Ogre@@@std@@@std@@YAXPAW4VERTPROCESS_T@Ogre@@0AAV?$allocator@W4VERTPROCESS_T@Ogre@@@0@@Z 10005c80 f i OgreD3D9DriverEnum.obj
 0001:00004c80       ??$_Destroy_range@V?$allocator@W4_D3DFORMAT@@@std@@@std@@YAXPAW4_D3DFORMAT@@0AAV?$allocator@W4_D3DFORMAT@@@0@@Z 10005c80 f i OgreD3D9DriverEnum.obj
 0001:00004cc0       ??0bad_alloc@std@@QAE@PBD@Z 10005cc0 f i OgreD3D9DriverEnum.obj
 0001:00004d20       ??1bad_alloc@std@@UAE@XZ   10005d20 f i OgreD3D9DriverEnum.obj
 0001:00004d80       ??_Gbad_alloc@std@@UAEPAXI@Z 10005d80 f i OgreD3D9DriverEnum.obj
 0001:00004d80       ??_Ebad_alloc@std@@UAEPAXI@Z 10005d80 f i OgreD3D9DriverEnum.obj
 0001:00004db0       ??$_Umove@PAW4_D3DMULTISAMPLE_TYPE@@@?$vector@W4_D3DMULTISAMPLE_TYPE@@V?$allocator@W4_D3DMULTISAMPLE_TYPE@@@std@@@std@@IAEPAW4_D3DMULTISAMPLE_TYPE@@PAW42@00@Z 10005db0 f i OgreD3D9DriverEnum.obj
 0001:00004db0       ??$_Umove@PAW4VERTPROCESS_T@Ogre@@@?$vector@W4VERTPROCESS_T@Ogre@@V?$allocator@W4VERTPROCESS_T@Ogre@@@std@@@std@@IAEPAW4VERTPROCESS_T@Ogre@@PAW423@00@Z 10005db0 f i OgreD3D9DriverEnum.obj
 0001:00004db0       ??$_Umove@PAW4_D3DFORMAT@@@?$vector@W4_D3DFORMAT@@V?$allocator@W4_D3DFORMAT@@@std@@@std@@IAEPAW4_D3DFORMAT@@PAW42@00@Z 10005db0 f i OgreD3D9DriverEnum.obj
 0001:00004de0       ??$_Unchecked_move_backward@PAPAVD3DRenderWindow@Ogre@@PAPAV12@@stdext@@YAPAPAVD3DRenderWindow@Ogre@@PAPAV12@00@Z 10005de0 f i OgreD3D9RenderSystem.obj
 0001:00004de0       ??$_Unchecked_move_backward@PAPAVD3D9TextureRenderTarget@Ogre@@PAPAV12@@stdext@@YAPAPAVD3D9TextureRenderTarget@Ogre@@PAPAV12@00@Z 10005de0 f i OgreD3D9HardwarePixelBuffer.obj
 0001:00004de0       ??$_Unchecked_move_backward@PAPAUTechniqueDesc@Ogre@@PAPAU12@@stdext@@YAPAPAUTechniqueDesc@Ogre@@PAPAU12@00@Z 10005de0 f i OgreD3D9ShaderManager.obj
 0001:00004de0       ??$_Unchecked_move_backward@PAPAUD3DADAPTER_T@Ogre@@PAPAU12@@stdext@@YAPAPAUD3DADAPTER_T@Ogre@@PAPAU12@00@Z 10005de0 f i OgreD3D9DriverEnum.obj
 0001:00004de0       ??$_Unchecked_move_backward@PAPAVCompiledShader@Ogre@@PAPAV12@@stdext@@YAPAPAVCompiledShader@Ogre@@PAPAV12@00@Z 10005de0 f i OgreD3D9ShaderManager.obj
 0001:00004de0       ??$_Unchecked_move_backward@PAPAVD3D9VertexDecl@Ogre@@PAPAV12@@stdext@@YAPAPAVD3D9VertexDecl@Ogre@@PAPAV12@00@Z 10005de0 f i OgreD3D9RenderSystem.obj
 0001:00004de0       ??$_Unchecked_move_backward@PAPAUD3DDEVICEINFO_T@Ogre@@PAPAU12@@stdext@@YAPAPAUD3DDEVICEINFO_T@Ogre@@PAPAU12@00@Z 10005de0 f i OgreD3D9DriverEnum.obj
 0001:00004de0       ??$_Unchecked_move_backward@PAIPAI@stdext@@YAPAIPAI00@Z 10005de0 f i OgreD3D9DriverEnum.obj
 0001:00004de0       ??$_Unchecked_move_backward@PAPAUD3DDEVCOMBO_T@Ogre@@PAPAU12@@stdext@@YAPAPAUD3DDEVCOMBO_T@Ogre@@PAPAU12@00@Z 10005de0 f i OgreD3D9DriverEnum.obj
 0001:00004de0       ??$_Unchecked_move_backward@PAPAUTechCache@D3DMaterialTemplate@Ogre@@PAPAU123@@stdext@@YAPAPAUTechCache@D3DMaterialTemplate@Ogre@@PAPAU123@00@Z 10005de0 f i OgreD3DMaterialTemplate.obj
 0001:00004e50       ??$_Unchecked_move_backward@PAUD3DSMSCONFLICT_T@Ogre@@PAU12@@stdext@@YAPAUD3DSMSCONFLICT_T@Ogre@@PAU12@00@Z 10005e50 f i OgreD3D9DriverEnum.obj
 0001:00004e50       ??$_Unchecked_move_backward@PAU_D3DXMACRO@@PAU1@@stdext@@YAPAU_D3DXMACRO@@PAU1@00@Z 10005e50 f i OgreD3D9ShaderManager.obj
 0001:00004ec0       ??$_Unchecked_move_backward@PAW4_D3DMULTISAMPLE_TYPE@@PAW41@@stdext@@YAPAW4_D3DMULTISAMPLE_TYPE@@PAW41@00@Z 10005ec0 f i OgreD3D9DriverEnum.obj
 0001:00004ec0       ??$_Unchecked_move_backward@PAW4VERTPROCESS_T@Ogre@@PAW412@@stdext@@YAPAW4VERTPROCESS_T@Ogre@@PAW412@00@Z 10005ec0 f i OgreD3D9DriverEnum.obj
 0001:00004ec0       ??$_Unchecked_move_backward@PAW4_D3DFORMAT@@PAW41@@stdext@@YAPAW4_D3DFORMAT@@PAW41@00@Z 10005ec0 f i OgreD3D9DriverEnum.obj
 0001:00004f30       ??$_Umove@PAU_D3DDISPLAYMODE@@@?$vector@U_D3DDISPLAYMODE@@V?$allocator@U_D3DDISPLAYMODE@@@std@@@std@@IAEPAU_D3DDISPLAYMODE@@PAU2@00@Z 10005f30 f i OgreD3D9DriverEnum.obj
 0001:00004f30       ??$_Umove@PATShaderEnvKey@Ogre@@@?$vector@TShaderEnvKey@Ogre@@V?$allocator@TShaderEnvKey@Ogre@@@std@@@std@@IAEPATShaderEnvKey@Ogre@@PAT23@00@Z 10005f30 f i OgreD3D9ShaderManager.obj
 0001:00004f60       ??$fill@PATShaderEnvKey@Ogre@@T12@@std@@YAXPATShaderEnvKey@Ogre@@0ABT12@@Z 10005f60 f i OgreD3D9ShaderManager.obj
 0001:00004f60       ??$fill@PAU_D3DDISPLAYMODE@@U1@@std@@YAXPAU_D3DDISPLAYMODE@@0ABU1@@Z 10005f60 f i OgreD3D9DriverEnum.obj
 0001:00004f90       ??$_Allocate@U_D3DDISPLAYMODE@@@std@@YAPAU_D3DDISPLAYMODE@@IPAU1@@Z 10005f90 f i OgreD3D9DriverEnum.obj
 0001:00004f90       ??$_Allocate@TShaderEnvKey@Ogre@@@std@@YAPATShaderEnvKey@Ogre@@IPAT12@@Z 10005f90 f i OgreD3D9ShaderManager.obj
 0001:00004fe0       ??$_Allocate@I@std@@YAPAIIPAI@Z 10005fe0 f i OgreD3D9DriverEnum.obj
 0001:00004fe0       ??$_Allocate@W4VERTPROCESS_T@Ogre@@@std@@YAPAW4VERTPROCESS_T@Ogre@@IPAW412@@Z 10005fe0 f i OgreD3D9DriverEnum.obj
 0001:00004fe0       ??$_Allocate@PAVD3DRenderWindow@Ogre@@@std@@YAPAPAVD3DRenderWindow@Ogre@@IPAPAV12@@Z 10005fe0 f i OgreD3D9RenderSystem.obj
 0001:00004fe0       ??$_Allocate@PAUD3DADAPTER_T@Ogre@@@std@@YAPAPAUD3DADAPTER_T@Ogre@@IPAPAU12@@Z 10005fe0 f i OgreD3D9DriverEnum.obj
 0001:00004fe0       ??$_Allocate@PAUTechCache@D3DMaterialTemplate@Ogre@@@std@@YAPAPAUTechCache@D3DMaterialTemplate@Ogre@@IPAPAU123@@Z 10005fe0 f i OgreD3DMaterialTemplate.obj
 0001:00004fe0       ??$_Allocate@PAUD3DDEVICEINFO_T@Ogre@@@std@@YAPAPAUD3DDEVICEINFO_T@Ogre@@IPAPAU12@@Z 10005fe0 f i OgreD3D9DriverEnum.obj
 0001:00004fe0       ??$_Allocate@W4_D3DFORMAT@@@std@@YAPAW4_D3DFORMAT@@IPAW41@@Z 10005fe0 f i OgreD3D9DriverEnum.obj
 0001:00004fe0       ??$_Allocate@PAUTechniqueDesc@Ogre@@@std@@YAPAPAUTechniqueDesc@Ogre@@IPAPAU12@@Z 10005fe0 f i OgreD3D9ShaderManager.obj
 0001:00004fe0       ??$_Allocate@W4_D3DMULTISAMPLE_TYPE@@@std@@YAPAW4_D3DMULTISAMPLE_TYPE@@IPAW41@@Z 10005fe0 f i OgreD3D9DriverEnum.obj
 0001:00004fe0       ??$_Allocate@PAUD3DDEVCOMBO_T@Ogre@@@std@@YAPAPAUD3DDEVCOMBO_T@Ogre@@IPAPAU12@@Z 10005fe0 f i OgreD3D9DriverEnum.obj
 0001:00004fe0       ??$_Allocate@PAUIDirect3DBaseTexture9@@@std@@YAPAPAUIDirect3DBaseTexture9@@IPAPAU1@@Z 10005fe0 f i OgreD3D9HardwarePixelBuffer.obj
 0001:00004fe0       ??$_Allocate@PAVD3D9VertexDecl@Ogre@@@std@@YAPAPAVD3D9VertexDecl@Ogre@@IPAPAV12@@Z 10005fe0 f i OgreD3D9RenderSystem.obj
 0001:00004fe0       ??$_Allocate@PAVD3D9TextureRenderTarget@Ogre@@@std@@YAPAPAVD3D9TextureRenderTarget@Ogre@@IPAPAV12@@Z 10005fe0 f i OgreD3D9HardwarePixelBuffer.obj
 0001:00004fe0       ??$_Allocate@PAVCompiledShader@Ogre@@@std@@YAPAPAVCompiledShader@Ogre@@IPAPAV12@@Z 10005fe0 f i OgreD3D9ShaderManager.obj
 0001:00004fe0       ??$_Allocate@V_Aux_cont@std@@@std@@YAPAV_Aux_cont@0@IPAV10@@Z 10005fe0 f i OgreD3D9DriverEnum.obj
 0001:00005030       ??$_Umove@PAPAUD3DDEVCOMBO_T@Ogre@@@?$vector@PAUD3DDEVCOMBO_T@Ogre@@V?$allocator@PAUD3DDEVCOMBO_T@Ogre@@@std@@@std@@IAEPAPAUD3DDEVCOMBO_T@Ogre@@PAPAU23@00@Z 10006030 f i OgreD3D9DriverEnum.obj
 0001:00005030       ??$_Umove@PAPAUTechniqueDesc@Ogre@@@?$vector@PAUTechniqueDesc@Ogre@@V?$allocator@PAUTechniqueDesc@Ogre@@@std@@@std@@IAEPAPAUTechniqueDesc@Ogre@@PAPAU23@00@Z 10006030 f i OgreD3D9ShaderManager.obj
 0001:00005030       ??$_Umove@PAPAUD3DDEVICEINFO_T@Ogre@@@?$vector@PAUD3DDEVICEINFO_T@Ogre@@V?$allocator@PAUD3DDEVICEINFO_T@Ogre@@@std@@@std@@IAEPAPAUD3DDEVICEINFO_T@Ogre@@PAPAU23@00@Z 10006030 f i OgreD3D9DriverEnum.obj
 0001:00005030       ??$_Umove@PAPAUD3DADAPTER_T@Ogre@@@?$vector@PAUD3DADAPTER_T@Ogre@@V?$allocator@PAUD3DADAPTER_T@Ogre@@@std@@@std@@IAEPAPAUD3DADAPTER_T@Ogre@@PAPAU23@00@Z 10006030 f i OgreD3D9DriverEnum.obj
 0001:00005030       ??$_Umove@PAI@?$vector@IV?$allocator@I@std@@@std@@IAEPAIPAI00@Z 10006030 f i OgreD3D9DriverEnum.obj
 0001:00005030       ??$_Umove@PAPAVD3D9TextureRenderTarget@Ogre@@@?$vector@PAVD3D9TextureRenderTarget@Ogre@@V?$allocator@PAVD3D9TextureRenderTarget@Ogre@@@std@@@std@@IAEPAPAVD3D9TextureRenderTarget@Ogre@@PAPAV23@00@Z 10006030 f i OgreD3D9HardwarePixelBuffer.obj
 0001:00005030       ??$_Umove@PAPAUTechCache@D3DMaterialTemplate@Ogre@@@?$vector@PAUTechCache@D3DMaterialTemplate@Ogre@@V?$allocator@PAUTechCache@D3DMaterialTemplate@Ogre@@@std@@@std@@IAEPAPAUTechCache@D3DMaterialTemplate@Ogre@@PAPAU234@00@Z 10006030 f i OgreD3DMaterialTemplate.obj
 0001:00005030       ??$_Umove@PAPAVD3DRenderWindow@Ogre@@@?$vector@PAVD3DRenderWindow@Ogre@@V?$allocator@PAVD3DRenderWindow@Ogre@@@std@@@std@@IAEPAPAVD3DRenderWindow@Ogre@@PAPAV23@00@Z 10006030 f i OgreD3D9RenderSystem.obj
 0001:00005030       ??$_Umove@PAPAVCompiledShader@Ogre@@@?$vector@PAVCompiledShader@Ogre@@V?$allocator@PAVCompiledShader@Ogre@@@std@@@std@@IAEPAPAVCompiledShader@Ogre@@PAPAV23@00@Z 10006030 f i OgreD3D9ShaderManager.obj
 0001:00005030       ??$_Umove@PAPAVD3D9VertexDecl@Ogre@@@?$vector@PAVD3D9VertexDecl@Ogre@@V?$allocator@PAVD3D9VertexDecl@Ogre@@@std@@@std@@IAEPAPAVD3D9VertexDecl@Ogre@@PAPAV23@00@Z 10006030 f i OgreD3D9RenderSystem.obj
 0001:00005060       ??0bad_alloc@std@@QAE@ABV01@@Z 10006060 f i OgreD3D9DriverEnum.obj
 0001:000050c0       ?MakePtrGuard@?$PtrScopeGuardImpl@UD3DDEVCOMBO_T@Ogre@@@Ogre@@SA?AV12@PAUD3DDEVCOMBO_T@2@@Z 100060c0 f i OgreD3D9DriverEnum.obj
 0001:00005120       ?Execute@?$PtrScopeGuardImpl@UD3DDEVCOMBO_T@Ogre@@@Ogre@@QAEXXZ 10006120 f i OgreD3D9DriverEnum.obj
 0001:00005160       ??0?$PtrScopeGuardImpl@UD3DDEVCOMBO_T@Ogre@@@Ogre@@IAE@PAUD3DDEVCOMBO_T@1@@Z 10006160 f i OgreD3D9DriverEnum.obj
 0001:000051c0       ??0ScopeGuardImplBase@Ogre@@QAE@XZ 100061c0 f i OgreD3D9DriverEnum.obj
 0001:000051e0       ??$_Uninit_fill_n@PAW4_D3DFORMAT@@IW41@V?$allocator@W4_D3DFORMAT@@@std@@@std@@YAXPAW4_D3DFORMAT@@IABW41@AAV?$allocator@W4_D3DFORMAT@@@0@U_Nonscalar_ptr_iterator_tag@0@U_Range_checked_iterator_tag@0@@Z 100061e0 f i OgreD3D9DriverEnum.obj
 0001:000051e0       ??$_Uninit_fill_n@PAW4_D3DMULTISAMPLE_TYPE@@IW41@V?$allocator@W4_D3DMULTISAMPLE_TYPE@@@std@@@std@@YAXPAW4_D3DMULTISAMPLE_TYPE@@IABW41@AAV?$allocator@W4_D3DMULTISAMPLE_TYPE@@@0@U_Nonscalar_ptr_iterator_tag@0@U_Range_checked_iterator_tag@0@@Z 100061e0 f i OgreD3D9DriverEnum.obj
 0001:000051e0       ??$_Uninit_fill_n@PAW4VERTPROCESS_T@Ogre@@IW412@V?$allocator@W4VERTPROCESS_T@Ogre@@@std@@@std@@YAXPAW4VERTPROCESS_T@Ogre@@IABW412@AAV?$allocator@W4VERTPROCESS_T@Ogre@@@0@U_Nonscalar_ptr_iterator_tag@0@U_Range_checked_iterator_tag@0@@Z 100061e0 f i OgreD3D9DriverEnum.obj
 0001:000052a0       ??$_Uninit_fill_n@PAPAVD3D9VertexDecl@Ogre@@IPAV12@V?$allocator@PAVD3D9VertexDecl@Ogre@@@std@@@std@@YAXPAPAVD3D9VertexDecl@Ogre@@IABQAV12@AAV?$allocator@PAVD3D9VertexDecl@Ogre@@@0@U_Scalar_ptr_iterator_tag@0@U_Range_checked_iterator_tag@0@@Z 100062a0 f i OgreD3D9RenderSystem.obj
 0001:000052a0       ??$_Uninit_fill_n@PAPAUD3DDEVCOMBO_T@Ogre@@IPAU12@V?$allocator@PAUD3DDEVCOMBO_T@Ogre@@@std@@@std@@YAXPAPAUD3DDEVCOMBO_T@Ogre@@IABQAU12@AAV?$allocator@PAUD3DDEVCOMBO_T@Ogre@@@0@U_Scalar_ptr_iterator_tag@0@U_Range_checked_iterator_tag@0@@Z 100062a0 f i OgreD3D9DriverEnum.obj
 0001:000052a0       ??$_Uninit_fill_n@PAIIIV?$allocator@I@std@@@std@@YAXPAIIABIAAV?$allocator@I@0@U_Scalar_ptr_iterator_tag@0@U_Range_checked_iterator_tag@0@@Z 100062a0 f i OgreD3D9DriverEnum.obj
 0001:000052a0       ??$_Uninit_fill_n@PAPAUD3DDEVICEINFO_T@Ogre@@IPAU12@V?$allocator@PAUD3DDEVICEINFO_T@Ogre@@@std@@@std@@YAXPAPAUD3DDEVICEINFO_T@Ogre@@IABQAU12@AAV?$allocator@PAUD3DDEVICEINFO_T@Ogre@@@0@U_Scalar_ptr_iterator_tag@0@U_Range_checked_iterator_tag@0@@Z 100062a0 f i OgreD3D9DriverEnum.obj
 0001:000052a0       ??$_Uninit_fill_n@PAPAVCompiledShader@Ogre@@IPAV12@V?$allocator@PAVCompiledShader@Ogre@@@std@@@std@@YAXPAPAVCompiledShader@Ogre@@IABQAV12@AAV?$allocator@PAVCompiledShader@Ogre@@@0@U_Scalar_ptr_iterator_tag@0@U_Range_checked_iterator_tag@0@@Z 100062a0 f i OgreD3D9ShaderManager.obj
 0001:000052a0       ??$_Uninit_fill_n@PAPAUTechniqueDesc@Ogre@@IPAU12@V?$allocator@PAUTechniqueDesc@Ogre@@@std@@@std@@YAXPAPAUTechniqueDesc@Ogre@@IABQAU12@AAV?$allocator@PAUTechniqueDesc@Ogre@@@0@U_Scalar_ptr_iterator_tag@0@U_Range_checked_iterator_tag@0@@Z 100062a0 f i OgreD3D9ShaderManager.obj
 0001:000052a0       ??$_Uninit_fill_n@PAPAUTechCache@D3DMaterialTemplate@Ogre@@IPAU123@V?$allocator@PAUTechCache@D3DMaterialTemplate@Ogre@@@std@@@std@@YAXPAPAUTechCache@D3DMaterialTemplate@Ogre@@IABQAU123@AAV?$allocator@PAUTechCache@D3DMaterialTemplate@Ogre@@@0@U_Scalar_ptr_iterator_tag@0@U_Range_checked_iterator_tag@0@@Z 100062a0 f i OgreD3DMaterialTemplate.obj
 0001:000052a0       ??$_Uninit_fill_n@PAPAVD3DRenderWindow@Ogre@@IPAV12@V?$allocator@PAVD3DRenderWindow@Ogre@@@std@@@std@@YAXPAPAVD3DRenderWindow@Ogre@@IABQAV12@AAV?$allocator@PAVD3DRenderWindow@Ogre@@@0@U_Scalar_ptr_iterator_tag@0@U_Range_checked_iterator_tag@0@@Z 100062a0 f i OgreD3D9RenderSystem.obj
 0001:000052a0       ??$_Uninit_fill_n@PAPAVD3D9TextureRenderTarget@Ogre@@IPAV12@V?$allocator@PAVD3D9TextureRenderTarget@Ogre@@@std@@@std@@YAXPAPAVD3D9TextureRenderTarget@Ogre@@IABQAV12@AAV?$allocator@PAVD3D9TextureRenderTarget@Ogre@@@0@U_Scalar_ptr_iterator_tag@0@U_Range_checked_iterator_tag@0@@Z 100062a0 f i OgreD3D9HardwarePixelBuffer.obj
 0001:000052a0       ??$_Uninit_fill_n@PAPAUD3DADAPTER_T@Ogre@@IPAU12@V?$allocator@PAUD3DADAPTER_T@Ogre@@@std@@@std@@YAXPAPAUD3DADAPTER_T@Ogre@@IABQAU12@AAV?$allocator@PAUD3DADAPTER_T@Ogre@@@0@U_Scalar_ptr_iterator_tag@0@U_Range_checked_iterator_tag@0@@Z 100062a0 f i OgreD3D9DriverEnum.obj
 0001:000052c0       ??$_Destroy_range@V?$allocator@W4_D3DFORMAT@@@std@@@std@@YAXPAW4_D3DFORMAT@@0AAV?$allocator@W4_D3DFORMAT@@@0@U_Nonscalar_ptr_iterator_tag@0@@Z 100062c0 f i OgreD3D9DriverEnum.obj
 0001:000052c0       ??$_Destroy_range@V?$allocator@W4VERTPROCESS_T@Ogre@@@std@@@std@@YAXPAW4VERTPROCESS_T@Ogre@@0AAV?$allocator@W4VERTPROCESS_T@Ogre@@@0@U_Nonscalar_ptr_iterator_tag@0@@Z 100062c0 f i OgreD3D9DriverEnum.obj
 0001:000052c0       ??$_Destroy_range@V?$allocator@W4_D3DMULTISAMPLE_TYPE@@@std@@@std@@YAXPAW4_D3DMULTISAMPLE_TYPE@@0AAV?$allocator@W4_D3DMULTISAMPLE_TYPE@@@0@U_Nonscalar_ptr_iterator_tag@0@@Z 100062c0 f i OgreD3D9DriverEnum.obj
 0001:000052f0       ??$_Unchecked_uninitialized_move@PAW4VERTPROCESS_T@Ogre@@PAW412@V?$allocator@W4VERTPROCESS_T@Ogre@@@std@@@stdext@@YAPAW4VERTPROCESS_T@Ogre@@PAW412@00AAV?$allocator@W4VERTPROCESS_T@Ogre@@@std@@@Z 100062f0 f i OgreD3D9DriverEnum.obj
 0001:000052f0       ??$_Unchecked_uninitialized_move@PAW4_D3DFORMAT@@PAW41@V?$allocator@W4_D3DFORMAT@@@std@@@stdext@@YAPAW4_D3DFORMAT@@PAW41@00AAV?$allocator@W4_D3DFORMAT@@@std@@@Z 100062f0 f i OgreD3D9DriverEnum.obj
 0001:000052f0       ??$_Unchecked_uninitialized_move@PAW4_D3DMULTISAMPLE_TYPE@@PAW41@V?$allocator@W4_D3DMULTISAMPLE_TYPE@@@std@@@stdext@@YAPAW4_D3DMULTISAMPLE_TYPE@@PAW41@00AAV?$allocator@W4_D3DMULTISAMPLE_TYPE@@@std@@@Z 100062f0 f i OgreD3D9DriverEnum.obj
 0001:00005340       ??$_Move_backward_opt@PAW4VERTPROCESS_T@Ogre@@PAW412@Urandom_access_iterator_tag@std@@U_Undefined_move_tag@4@@std@@YAPAW4VERTPROCESS_T@Ogre@@PAW412@00Urandom_access_iterator_tag@0@U_Undefined_move_tag@0@U_Range_checked_iterator_tag@0@@Z 10006340 f i OgreD3D9DriverEnum.obj
 0001:00005340       ??$_Move_backward_opt@PAW4_D3DMULTISAMPLE_TYPE@@PAW41@Urandom_access_iterator_tag@std@@U_Undefined_move_tag@3@@std@@YAPAW4_D3DMULTISAMPLE_TYPE@@PAW41@00Urandom_access_iterator_tag@0@U_Undefined_move_tag@0@U_Range_checked_iterator_tag@0@@Z 10006340 f i OgreD3D9DriverEnum.obj
 0001:00005340       ??$_Move_backward_opt@PAW4_D3DFORMAT@@PAW41@Urandom_access_iterator_tag@std@@U_Undefined_move_tag@3@@std@@YAPAW4_D3DFORMAT@@PAW41@00Urandom_access_iterator_tag@0@U_Undefined_move_tag@0@U_Range_checked_iterator_tag@0@@Z 10006340 f i OgreD3D9DriverEnum.obj
 0001:00005390       ??$_Unchecked_uninitialized_move@PATShaderEnvKey@Ogre@@PAT12@V?$allocator@TShaderEnvKey@Ogre@@@std@@@stdext@@YAPATShaderEnvKey@Ogre@@PAT12@00AAV?$allocator@TShaderEnvKey@Ogre@@@std@@@Z 10006390 f i OgreD3D9ShaderManager.obj
 0001:00005390       ??$_Unchecked_uninitialized_move@PAU_D3DDISPLAYMODE@@PAU1@V?$allocator@U_D3DDISPLAYMODE@@@std@@@stdext@@YAPAU_D3DDISPLAYMODE@@PAU1@00AAV?$allocator@U_D3DDISPLAYMODE@@@std@@@Z 10006390 f i OgreD3D9DriverEnum.obj
 0001:000053e0       ??$_Fill@PAU_D3DDISPLAYMODE@@U1@@std@@YAXPAU_D3DDISPLAYMODE@@0ABU1@@Z 100063e0 f i OgreD3D9DriverEnum.obj
 0001:000053e0       ??$_Fill@PATShaderEnvKey@Ogre@@T12@@std@@YAXPATShaderEnvKey@Ogre@@0ABT12@@Z 100063e0 f i OgreD3D9ShaderManager.obj
 0001:00005420       ??$_Unchecked_uninitialized_move@PAPAVD3D9TextureRenderTarget@Ogre@@PAPAV12@V?$allocator@PAVD3D9TextureRenderTarget@Ogre@@@std@@@stdext@@YAPAPAVD3D9TextureRenderTarget@Ogre@@PAPAV12@00AAV?$allocator@PAVD3D9TextureRenderTarget@Ogre@@@std@@@Z 10006420 f i OgreD3D9HardwarePixelBuffer.obj
 0001:00005420       ??$_Unchecked_uninitialized_move@PAPAUD3DDEVCOMBO_T@Ogre@@PAPAU12@V?$allocator@PAUD3DDEVCOMBO_T@Ogre@@@std@@@stdext@@YAPAPAUD3DDEVCOMBO_T@Ogre@@PAPAU12@00AAV?$allocator@PAUD3DDEVCOMBO_T@Ogre@@@std@@@Z 10006420 f i OgreD3D9DriverEnum.obj
 0001:00005420       ??$_Unchecked_uninitialized_move@PAPAUTechCache@D3DMaterialTemplate@Ogre@@PAPAU123@V?$allocator@PAUTechCache@D3DMaterialTemplate@Ogre@@@std@@@stdext@@YAPAPAUTechCache@D3DMaterialTemplate@Ogre@@PAPAU123@00AAV?$allocator@PAUTechCache@D3DMaterialTemplate@Ogre@@@std@@@Z 10006420 f i OgreD3DMaterialTemplate.obj
 0001:00005420       ??$_Unchecked_uninitialized_move@PAPAVCompiledShader@Ogre@@PAPAV12@V?$allocator@PAVCompiledShader@Ogre@@@std@@@stdext@@YAPAPAVCompiledShader@Ogre@@PAPAV12@00AAV?$allocator@PAVCompiledShader@Ogre@@@std@@@Z 10006420 f i OgreD3D9ShaderManager.obj
 0001:00005420       ??$_Unchecked_uninitialized_move@PAPAVD3D9VertexDecl@Ogre@@PAPAV12@V?$allocator@PAVD3D9VertexDecl@Ogre@@@std@@@stdext@@YAPAPAVD3D9VertexDecl@Ogre@@PAPAV12@00AAV?$allocator@PAVD3D9VertexDecl@Ogre@@@std@@@Z 10006420 f i OgreD3D9RenderSystem.obj
 0001:00005420       ??$_Unchecked_uninitialized_move@PAPAUTechniqueDesc@Ogre@@PAPAU12@V?$allocator@PAUTechniqueDesc@Ogre@@@std@@@stdext@@YAPAPAUTechniqueDesc@Ogre@@PAPAU12@00AAV?$allocator@PAUTechniqueDesc@Ogre@@@std@@@Z 10006420 f i OgreD3D9ShaderManager.obj
 0001:00005420       ??$_Unchecked_uninitialized_move@PAPAVD3DRenderWindow@Ogre@@PAPAV12@V?$allocator@PAVD3DRenderWindow@Ogre@@@std@@@stdext@@YAPAPAVD3DRenderWindow@Ogre@@PAPAV12@00AAV?$allocator@PAVD3DRenderWindow@Ogre@@@std@@@Z 10006420 f i OgreD3D9RenderSystem.obj
 0001:00005420       ??$_Unchecked_uninitialized_move@PAIPAIV?$allocator@I@std@@@stdext@@YAPAIPAI00AAV?$allocator@I@std@@@Z 10006420 f i OgreD3D9DriverEnum.obj
 0001:00005420       ??$_Unchecked_uninitialized_move@PAPAUD3DADAPTER_T@Ogre@@PAPAU12@V?$allocator@PAUD3DADAPTER_T@Ogre@@@std@@@stdext@@YAPAPAUD3DADAPTER_T@Ogre@@PAPAU12@00AAV?$allocator@PAUD3DADAPTER_T@Ogre@@@std@@@Z 10006420 f i OgreD3D9DriverEnum.obj
 0001:00005420       ??$_Unchecked_uninitialized_move@PAPAUD3DDEVICEINFO_T@Ogre@@PAPAU12@V?$allocator@PAUD3DDEVICEINFO_T@Ogre@@@std@@@stdext@@YAPAPAUD3DDEVICEINFO_T@Ogre@@PAPAU12@00AAV?$allocator@PAUD3DDEVICEINFO_T@Ogre@@@std@@@Z 10006420 f i OgreD3D9DriverEnum.obj
 0001:00005470       ?construct@?$allocator@UD3DSMSCONFLICT_T@Ogre@@@std@@QAEXPAUD3DSMSCONFLICT_T@Ogre@@ABU34@@Z 10006470 f i OgreD3D9DriverEnum.obj
 0001:00005470       ?construct@?$allocator@U_D3DXMACRO@@@std@@QAEXPAU_D3DXMACRO@@ABU3@@Z 10006470 f i OgreD3D9ShaderManager.obj
 0001:00005490       ??$unchecked_fill_n@PAPAUD3DDEVCOMBO_T@Ogre@@IPAU12@@stdext@@YAXPAPAUD3DDEVCOMBO_T@Ogre@@IABQAU12@@Z 10006490 f i OgreD3D9DriverEnum.obj
 0001:00005490       ??$unchecked_fill_n@PAPAUD3DDEVICEINFO_T@Ogre@@IPAU12@@stdext@@YAXPAPAUD3DDEVICEINFO_T@Ogre@@IABQAU12@@Z 10006490 f i OgreD3D9DriverEnum.obj
 0001:00005490       ??$unchecked_fill_n@PAIII@stdext@@YAXPAIIABI@Z 10006490 f i OgreD3D9DriverEnum.obj
 0001:00005490       ??$unchecked_fill_n@PAPAVD3D9VertexDecl@Ogre@@IPAV12@@stdext@@YAXPAPAVD3D9VertexDecl@Ogre@@IABQAV12@@Z 10006490 f i OgreD3D9RenderSystem.obj
 0001:00005490       ??$unchecked_fill_n@PAPAUTechniqueDesc@Ogre@@IPAU12@@stdext@@YAXPAPAUTechniqueDesc@Ogre@@IABQAU12@@Z 10006490 f i OgreD3D9ShaderManager.obj
 0001:00005490       ??$unchecked_fill_n@PAPAVCompiledShader@Ogre@@IPAV12@@stdext@@YAXPAPAVCompiledShader@Ogre@@IABQAV12@@Z 10006490 f i OgreD3D9ShaderManager.obj
 0001:00005490       ??$unchecked_fill_n@PAPAUTechCache@D3DMaterialTemplate@Ogre@@IPAU123@@stdext@@YAXPAPAUTechCache@D3DMaterialTemplate@Ogre@@IABQAU123@@Z 10006490 f i OgreD3DMaterialTemplate.obj
 0001:00005490       ??$unchecked_fill_n@PAPAVD3DRenderWindow@Ogre@@IPAV12@@stdext@@YAXPAPAVD3DRenderWindow@Ogre@@IABQAV12@@Z 10006490 f i OgreD3D9RenderSystem.obj
 0001:00005490       ??$unchecked_fill_n@PAPAUD3DADAPTER_T@Ogre@@IPAU12@@stdext@@YAXPAPAUD3DADAPTER_T@Ogre@@IABQAU12@@Z 10006490 f i OgreD3D9DriverEnum.obj
 0001:00005490       ??$unchecked_fill_n@PAPAVD3D9TextureRenderTarget@Ogre@@IPAV12@@stdext@@YAXPAPAVD3D9TextureRenderTarget@Ogre@@IABQAV12@@Z 10006490 f i OgreD3D9HardwarePixelBuffer.obj
 0001:000054d0       ??$_Copy_backward_opt@PAW4_D3DFORMAT@@PAW41@@std@@YAPAW4_D3DFORMAT@@PAW41@00Urandom_access_iterator_tag@0@U_Nonscalar_ptr_iterator_tag@0@U_Range_checked_iterator_tag@0@@Z 100064d0 f i OgreD3D9DriverEnum.obj
 0001:000054d0       ??$_Copy_backward_opt@PAW4_D3DMULTISAMPLE_TYPE@@PAW41@@std@@YAPAW4_D3DMULTISAMPLE_TYPE@@PAW41@00Urandom_access_iterator_tag@0@U_Nonscalar_ptr_iterator_tag@0@U_Range_checked_iterator_tag@0@@Z 100064d0 f i OgreD3D9DriverEnum.obj
 0001:000054d0       ??$_Copy_backward_opt@PAW4VERTPROCESS_T@Ogre@@PAW412@@std@@YAPAW4VERTPROCESS_T@Ogre@@PAW412@00Urandom_access_iterator_tag@0@U_Nonscalar_ptr_iterator_tag@0@U_Range_checked_iterator_tag@0@@Z 100064d0 f i OgreD3D9DriverEnum.obj
 0001:00005530       ??$_Uninit_move@PAU_D3DXMACRO@@PAU1@V?$allocator@U_D3DXMACRO@@@std@@U_Undefined_move_tag@3@@std@@YAPAU_D3DXMACRO@@PAU1@00AAV?$allocator@U_D3DXMACRO@@@0@U_Undefined_move_tag@0@U_Range_checked_iterator_tag@0@@Z 10006530 f i OgreD3D9ShaderManager.obj
 0001:00005530       ??$_Uninit_move@PAUD3DSMSCONFLICT_T@Ogre@@PAU12@V?$allocator@UD3DSMSCONFLICT_T@Ogre@@@std@@U_Undefined_move_tag@4@@std@@YAPAUD3DSMSCONFLICT_T@Ogre@@PAU12@00AAV?$allocator@UD3DSMSCONFLICT_T@Ogre@@@0@U_Undefined_move_tag@0@U_Range_checked_iterator_tag@0@@Z 10006530 f i OgreD3D9DriverEnum.obj
 0001:00005550       ??$_Uninit_move@PAW4VERTPROCESS_T@Ogre@@PAW412@V?$allocator@W4VERTPROCESS_T@Ogre@@@std@@U_Undefined_move_tag@4@@std@@YAPAW4VERTPROCESS_T@Ogre@@PAW412@00AAV?$allocator@W4VERTPROCESS_T@Ogre@@@0@U_Undefined_move_tag@0@U_Range_checked_iterator_tag@0@@Z 10006550 f i OgreD3D9DriverEnum.obj
 0001:00005550       ??$_Uninit_move@PAW4_D3DFORMAT@@PAW41@V?$allocator@W4_D3DFORMAT@@@std@@U_Undefined_move_tag@3@@std@@YAPAW4_D3DFORMAT@@PAW41@00AAV?$allocator@W4_D3DFORMAT@@@0@U_Undefined_move_tag@0@U_Range_checked_iterator_tag@0@@Z 10006550 f i OgreD3D9DriverEnum.obj
 0001:00005550       ??$_Uninit_move@PAW4_D3DMULTISAMPLE_TYPE@@PAW41@V?$allocator@W4_D3DMULTISAMPLE_TYPE@@@std@@U_Undefined_move_tag@3@@std@@YAPAW4_D3DMULTISAMPLE_TYPE@@PAW41@00AAV?$allocator@W4_D3DMULTISAMPLE_TYPE@@@0@U_Undefined_move_tag@0@U_Range_checked_iterator_tag@0@@Z 10006550 f i OgreD3D9DriverEnum.obj
 0001:00005570       ??$_Uninit_move@PATShaderEnvKey@Ogre@@PAT12@V?$allocator@TShaderEnvKey@Ogre@@@std@@U_Undefined_move_tag@4@@std@@YAPATShaderEnvKey@Ogre@@PAT12@00AAV?$allocator@TShaderEnvKey@Ogre@@@0@U_Undefined_move_tag@0@U_Range_checked_iterator_tag@0@@Z 10006570 f i OgreD3D9ShaderManager.obj
 0001:00005570       ??$_Uninit_move@PAU_D3DDISPLAYMODE@@PAU1@V?$allocator@U_D3DDISPLAYMODE@@@std@@U_Undefined_move_tag@3@@std@@YAPAU_D3DDISPLAYMODE@@PAU1@00AAV?$allocator@U_D3DDISPLAYMODE@@@0@U_Undefined_move_tag@0@U_Range_checked_iterator_tag@0@@Z 10006570 f i OgreD3D9DriverEnum.obj
 0001:00005590       ??$_Uninit_move@PAPAUTechniqueDesc@Ogre@@PAPAU12@V?$allocator@PAUTechniqueDesc@Ogre@@@std@@U_Undefined_move_tag@4@@std@@YAPAPAUTechniqueDesc@Ogre@@PAPAU12@00AAV?$allocator@PAUTechniqueDesc@Ogre@@@0@U_Undefined_move_tag@0@U_Range_checked_iterator_tag@0@@Z 10006590 f i OgreD3D9ShaderManager.obj
 0001:00005590       ??$_Uninit_move@PAPAUD3DADAPTER_T@Ogre@@PAPAU12@V?$allocator@PAUD3DADAPTER_T@Ogre@@@std@@U_Undefined_move_tag@4@@std@@YAPAPAUD3DADAPTER_T@Ogre@@PAPAU12@00AAV?$allocator@PAUD3DADAPTER_T@Ogre@@@0@U_Undefined_move_tag@0@U_Range_checked_iterator_tag@0@@Z 10006590 f i OgreD3D9DriverEnum.obj
 0001:00005590       ??$_Uninit_move@PAPAUD3DDEVICEINFO_T@Ogre@@PAPAU12@V?$allocator@PAUD3DDEVICEINFO_T@Ogre@@@std@@U_Undefined_move_tag@4@@std@@YAPAPAUD3DDEVICEINFO_T@Ogre@@PAPAU12@00AAV?$allocator@PAUD3DDEVICEINFO_T@Ogre@@@0@U_Undefined_move_tag@0@U_Range_checked_iterator_tag@0@@Z 10006590 f i OgreD3D9DriverEnum.obj
 0001:00005590       ??$_Uninit_move@PAIPAIV?$allocator@I@std@@U_Undefined_move_tag@2@@std@@YAPAIPAI00AAV?$allocator@I@0@U_Undefined_move_tag@0@U_Range_checked_iterator_tag@0@@Z 10006590 f i OgreD3D9DriverEnum.obj
 0001:00005590       ??$_Uninit_move@PAPAUD3DDEVCOMBO_T@Ogre@@PAPAU12@V?$allocator@PAUD3DDEVCOMBO_T@Ogre@@@std@@U_Undefined_move_tag@4@@std@@YAPAPAUD3DDEVCOMBO_T@Ogre@@PAPAU12@00AAV?$allocator@PAUD3DDEVCOMBO_T@Ogre@@@0@U_Undefined_move_tag@0@U_Range_checked_iterator_tag@0@@Z 10006590 f i OgreD3D9DriverEnum.obj
 0001:00005590       ??$_Uninit_move@PAPAVD3D9VertexDecl@Ogre@@PAPAV12@V?$allocator@PAVD3D9VertexDecl@Ogre@@@std@@U_Undefined_move_tag@4@@std@@YAPAPAVD3D9VertexDecl@Ogre@@PAPAV12@00AAV?$allocator@PAVD3D9VertexDecl@Ogre@@@0@U_Undefined_move_tag@0@U_Range_checked_iterator_tag@0@@Z 10006590 f i OgreD3D9RenderSystem.obj
 0001:00005590       ??$_Uninit_move@PAPAUTechCache@D3DMaterialTemplate@Ogre@@PAPAU123@V?$allocator@PAUTechCache@D3DMaterialTemplate@Ogre@@@std@@U_Undefined_move_tag@5@@std@@YAPAPAUTechCache@D3DMaterialTemplate@Ogre@@PAPAU123@00AAV?$allocator@PAUTechCache@D3DMaterialTemplate@Ogre@@@0@U_Undefined_move_tag@0@U_Range_checked_iterator_tag@0@@Z 10006590 f i OgreD3DMaterialTemplate.obj
 0001:00005590       ??$_Uninit_move@PAPAVD3DRenderWindow@Ogre@@PAPAV12@V?$allocator@PAVD3DRenderWindow@Ogre@@@std@@U_Undefined_move_tag@4@@std@@YAPAPAVD3DRenderWindow@Ogre@@PAPAV12@00AAV?$allocator@PAVD3DRenderWindow@Ogre@@@0@U_Undefined_move_tag@0@U_Range_checked_iterator_tag@0@@Z 10006590 f i OgreD3D9RenderSystem.obj
 0001:00005590       ??$_Uninit_move@PAPAVCompiledShader@Ogre@@PAPAV12@V?$allocator@PAVCompiledShader@Ogre@@@std@@U_Undefined_move_tag@4@@std@@YAPAPAVCompiledShader@Ogre@@PAPAV12@00AAV?$allocator@PAVCompiledShader@Ogre@@@0@U_Undefined_move_tag@0@U_Range_checked_iterator_tag@0@@Z 10006590 f i OgreD3D9ShaderManager.obj
 0001:00005590       ??$_Uninit_move@PAPAVD3D9TextureRenderTarget@Ogre@@PAPAV12@V?$allocator@PAVD3D9TextureRenderTarget@Ogre@@@std@@U_Undefined_move_tag@4@@std@@YAPAPAVD3D9TextureRenderTarget@Ogre@@PAPAV12@00AAV?$allocator@PAVD3D9TextureRenderTarget@Ogre@@@0@U_Undefined_move_tag@0@U_Range_checked_iterator_tag@0@@Z 10006590 f i OgreD3D9HardwarePixelBuffer.obj
 0001:000055b0       ??$_Construct@U_D3DXMACRO@@U1@@std@@YAXPAU_D3DXMACRO@@ABU1@@Z 100065b0 f i OgreD3D9ShaderManager.obj
 0001:000055b0       ??$_Construct@UD3DSMSCONFLICT_T@Ogre@@U12@@std@@YAXPAUD3DSMSCONFLICT_T@Ogre@@ABU12@@Z 100065b0 f i OgreD3D9DriverEnum.obj
 0001:00005600       ??$_Fill_n@PAPAUD3DDEVICEINFO_T@Ogre@@IPAU12@@std@@YAXPAPAUD3DDEVICEINFO_T@Ogre@@IABQAU12@Urandom_access_iterator_tag@0@U_Range_checked_iterator_tag@0@@Z 10006600 f i OgreD3D9DriverEnum.obj
 0001:00005600       ??$_Fill_n@PAIII@std@@YAXPAIIABIUrandom_access_iterator_tag@0@U_Range_checked_iterator_tag@0@@Z 10006600 f i OgreD3D9DriverEnum.obj
 0001:00005600       ??$_Fill_n@PAPAUTechniqueDesc@Ogre@@IPAU12@@std@@YAXPAPAUTechniqueDesc@Ogre@@IABQAU12@Urandom_access_iterator_tag@0@U_Range_checked_iterator_tag@0@@Z 10006600 f i OgreD3D9ShaderManager.obj
 0001:00005600       ??$_Fill_n@PAPAVCompiledShader@Ogre@@IPAV12@@std@@YAXPAPAVCompiledShader@Ogre@@IABQAV12@Urandom_access_iterator_tag@0@U_Range_checked_iterator_tag@0@@Z 10006600 f i OgreD3D9ShaderManager.obj
 0001:00005600       ??$_Fill_n@PAPAVD3D9TextureRenderTarget@Ogre@@IPAV12@@std@@YAXPAPAVD3D9TextureRenderTarget@Ogre@@IABQAV12@Urandom_access_iterator_tag@0@U_Range_checked_iterator_tag@0@@Z 10006600 f i OgreD3D9HardwarePixelBuffer.obj
 0001:00005600       ??$_Fill_n@PAPAUD3DADAPTER_T@Ogre@@IPAU12@@std@@YAXPAPAUD3DADAPTER_T@Ogre@@IABQAU12@Urandom_access_iterator_tag@0@U_Range_checked_iterator_tag@0@@Z 10006600 f i OgreD3D9DriverEnum.obj
 0001:00005600       ??$_Fill_n@PAPAVD3D9VertexDecl@Ogre@@IPAV12@@std@@YAXPAPAVD3D9VertexDecl@Ogre@@IABQAV12@Urandom_access_iterator_tag@0@U_Range_checked_iterator_tag@0@@Z 10006600 f i OgreD3D9RenderSystem.obj
 0001:00005600       ??$_Fill_n@PAPAUTechCache@D3DMaterialTemplate@Ogre@@IPAU123@@std@@YAXPAPAUTechCache@D3DMaterialTemplate@Ogre@@IABQAU123@Urandom_access_iterator_tag@0@U_Range_checked_iterator_tag@0@@Z 10006600 f i OgreD3DMaterialTemplate.obj
 0001:00005600       ??$_Fill_n@PAPAVD3DRenderWindow@Ogre@@IPAV12@@std@@YAXPAPAVD3DRenderWindow@Ogre@@IABQAV12@Urandom_access_iterator_tag@0@U_Range_checked_iterator_tag@0@@Z 10006600 f i OgreD3D9RenderSystem.obj
 0001:00005600       ??$_Fill_n@PAPAUD3DDEVCOMBO_T@Ogre@@IPAU12@@std@@YAXPAPAUD3DDEVCOMBO_T@Ogre@@IABQAU12@Urandom_access_iterator_tag@0@U_Range_checked_iterator_tag@0@@Z 10006600 f i OgreD3D9DriverEnum.obj
 0001:00005640       ??$unchecked_uninitialized_copy@PAUD3DSMSCONFLICT_T@Ogre@@PAU12@V?$allocator@UD3DSMSCONFLICT_T@Ogre@@@std@@@stdext@@YAPAUD3DSMSCONFLICT_T@Ogre@@PAU12@00AAV?$allocator@UD3DSMSCONFLICT_T@Ogre@@@std@@@Z 10006640 f i OgreD3D9DriverEnum.obj
 0001:00005640       ??$unchecked_uninitialized_copy@PAU_D3DXMACRO@@PAU1@V?$allocator@U_D3DXMACRO@@@std@@@stdext@@YAPAU_D3DXMACRO@@PAU1@00AAV?$allocator@U_D3DXMACRO@@@std@@@Z 10006640 f i OgreD3D9ShaderManager.obj
 0001:000056a0       ??$_Copy_backward_opt@PAU_D3DXMACRO@@PAU1@Uforward_iterator_tag@std@@@std@@YAPAU_D3DXMACRO@@PAU1@00Uforward_iterator_tag@0@U_Nonscalar_ptr_iterator_tag@0@U_Range_checked_iterator_tag@0@@Z 100066a0 f i OgreD3D9ShaderManager.obj
 0001:000056a0       ??$_Copy_backward_opt@PAUD3DSMSCONFLICT_T@Ogre@@PAU12@Uforward_iterator_tag@std@@@std@@YAPAUD3DSMSCONFLICT_T@Ogre@@PAU12@00Uforward_iterator_tag@0@U_Nonscalar_ptr_iterator_tag@0@U_Range_checked_iterator_tag@0@@Z 100066a0 f i OgreD3D9DriverEnum.obj
 0001:000056e0       ??$unchecked_uninitialized_copy@PAW4VERTPROCESS_T@Ogre@@PAW412@V?$allocator@W4VERTPROCESS_T@Ogre@@@std@@@stdext@@YAPAW4VERTPROCESS_T@Ogre@@PAW412@00AAV?$allocator@W4VERTPROCESS_T@Ogre@@@std@@@Z 100066e0 f i OgreD3D9DriverEnum.obj
 0001:000056e0       ??$unchecked_uninitialized_copy@PAW4_D3DFORMAT@@PAW41@V?$allocator@W4_D3DFORMAT@@@std@@@stdext@@YAPAW4_D3DFORMAT@@PAW41@00AAV?$allocator@W4_D3DFORMAT@@@std@@@Z 100066e0 f i OgreD3D9DriverEnum.obj
 0001:000056e0       ??$unchecked_uninitialized_copy@PAW4_D3DMULTISAMPLE_TYPE@@PAW41@V?$allocator@W4_D3DMULTISAMPLE_TYPE@@@std@@@stdext@@YAPAW4_D3DMULTISAMPLE_TYPE@@PAW41@00AAV?$allocator@W4_D3DMULTISAMPLE_TYPE@@@std@@@Z 100066e0 f i OgreD3D9DriverEnum.obj
 0001:00005740       ??$_Copy_backward_opt@PAW4_D3DMULTISAMPLE_TYPE@@PAW41@Uforward_iterator_tag@std@@@std@@YAPAW4_D3DMULTISAMPLE_TYPE@@PAW41@00Uforward_iterator_tag@0@U_Nonscalar_ptr_iterator_tag@0@U_Range_checked_iterator_tag@0@@Z 10006740 f i OgreD3D9DriverEnum.obj
 0001:00005740       ??$_Copy_backward_opt@PAW4_D3DFORMAT@@PAW41@Uforward_iterator_tag@std@@@std@@YAPAW4_D3DFORMAT@@PAW41@00Uforward_iterator_tag@0@U_Nonscalar_ptr_iterator_tag@0@U_Range_checked_iterator_tag@0@@Z 10006740 f i OgreD3D9DriverEnum.obj
 0001:00005740       ??$_Copy_backward_opt@PAW4VERTPROCESS_T@Ogre@@PAW412@Uforward_iterator_tag@std@@@std@@YAPAW4VERTPROCESS_T@Ogre@@PAW412@00Uforward_iterator_tag@0@U_Nonscalar_ptr_iterator_tag@0@U_Range_checked_iterator_tag@0@@Z 10006740 f i OgreD3D9DriverEnum.obj
 0001:00005770       ??$unchecked_uninitialized_copy@PAU_D3DDISPLAYMODE@@PAU1@V?$allocator@U_D3DDISPLAYMODE@@@std@@@stdext@@YAPAU_D3DDISPLAYMODE@@PAU1@00AAV?$allocator@U_D3DDISPLAYMODE@@@std@@@Z 10006770 f i OgreD3D9DriverEnum.obj
 0001:00005770       ??$unchecked_uninitialized_copy@PATShaderEnvKey@Ogre@@PAT12@V?$allocator@TShaderEnvKey@Ogre@@@std@@@stdext@@YAPATShaderEnvKey@Ogre@@PAT12@00AAV?$allocator@TShaderEnvKey@Ogre@@@std@@@Z 10006770 f i OgreD3D9ShaderManager.obj
 0001:000057d0       ??$_Copy_backward_opt@PAU_D3DDISPLAYMODE@@PAU1@Uforward_iterator_tag@std@@@std@@YAPAU_D3DDISPLAYMODE@@PAU1@00Uforward_iterator_tag@0@U_Nonscalar_ptr_iterator_tag@0@U_Range_checked_iterator_tag@0@@Z 100067d0 f i OgreD3D9DriverEnum.obj
 0001:000057d0       ??$_Copy_backward_opt@PATShaderEnvKey@Ogre@@PAT12@Uforward_iterator_tag@std@@@std@@YAPATShaderEnvKey@Ogre@@PAT12@00Uforward_iterator_tag@0@U_Nonscalar_ptr_iterator_tag@0@U_Range_checked_iterator_tag@0@@Z 100067d0 f i OgreD3D9ShaderManager.obj
 0001:00005810       ??$unchecked_uninitialized_copy@PAPAUD3DADAPTER_T@Ogre@@PAPAU12@V?$allocator@PAUD3DADAPTER_T@Ogre@@@std@@@stdext@@YAPAPAUD3DADAPTER_T@Ogre@@PAPAU12@00AAV?$allocator@PAUD3DADAPTER_T@Ogre@@@std@@@Z 10006810 f i OgreD3D9DriverEnum.obj
 0001:00005810       ??$unchecked_uninitialized_copy@PAPAVCompiledShader@Ogre@@PAPAV12@V?$allocator@PAVCompiledShader@Ogre@@@std@@@stdext@@YAPAPAVCompiledShader@Ogre@@PAPAV12@00AAV?$allocator@PAVCompiledShader@Ogre@@@std@@@Z 10006810 f i OgreD3D9ShaderManager.obj
 0001:00005810       ??$unchecked_uninitialized_copy@PAPAUTechniqueDesc@Ogre@@PAPAU12@V?$allocator@PAUTechniqueDesc@Ogre@@@std@@@stdext@@YAPAPAUTechniqueDesc@Ogre@@PAPAU12@00AAV?$allocator@PAUTechniqueDesc@Ogre@@@std@@@Z 10006810 f i OgreD3D9ShaderManager.obj
 0001:00005810       ??$unchecked_uninitialized_copy@PAPAVD3D9VertexDecl@Ogre@@PAPAV12@V?$allocator@PAVD3D9VertexDecl@Ogre@@@std@@@stdext@@YAPAPAVD3D9VertexDecl@Ogre@@PAPAV12@00AAV?$allocator@PAVD3D9VertexDecl@Ogre@@@std@@@Z 10006810 f i OgreD3D9RenderSystem.obj
 0001:00005810       ??$unchecked_uninitialized_copy@PAPAUD3DDEVICEINFO_T@Ogre@@PAPAU12@V?$allocator@PAUD3DDEVICEINFO_T@Ogre@@@std@@@stdext@@YAPAPAUD3DDEVICEINFO_T@Ogre@@PAPAU12@00AAV?$allocator@PAUD3DDEVICEINFO_T@Ogre@@@std@@@Z 10006810 f i OgreD3D9DriverEnum.obj
 0001:00005810       ??$unchecked_uninitialized_copy@PAIPAIV?$allocator@I@std@@@stdext@@YAPAIPAI00AAV?$allocator@I@std@@@Z 10006810 f i OgreD3D9DriverEnum.obj
 0001:00005810       ??$unchecked_uninitialized_copy@PAPAUD3DDEVCOMBO_T@Ogre@@PAPAU12@V?$allocator@PAUD3DDEVCOMBO_T@Ogre@@@std@@@stdext@@YAPAPAUD3DDEVCOMBO_T@Ogre@@PAPAU12@00AAV?$allocator@PAUD3DDEVCOMBO_T@Ogre@@@std@@@Z 10006810 f i OgreD3D9DriverEnum.obj
 0001:00005810       ??$unchecked_uninitialized_copy@PAPAVD3DRenderWindow@Ogre@@PAPAV12@V?$allocator@PAVD3DRenderWindow@Ogre@@@std@@@stdext@@YAPAPAVD3DRenderWindow@Ogre@@PAPAV12@00AAV?$allocator@PAVD3DRenderWindow@Ogre@@@std@@@Z 10006810 f i OgreD3D9RenderSystem.obj
 0001:00005810       ??$unchecked_uninitialized_copy@PAPAUTechCache@D3DMaterialTemplate@Ogre@@PAPAU123@V?$allocator@PAUTechCache@D3DMaterialTemplate@Ogre@@@std@@@stdext@@YAPAPAUTechCache@D3DMaterialTemplate@Ogre@@PAPAU123@00AAV?$allocator@PAUTechCache@D3DMaterialTemplate@Ogre@@@std@@@Z 10006810 f i OgreD3DMaterialTemplate.obj
 0001:00005810       ??$unchecked_uninitialized_copy@PAPAVD3D9TextureRenderTarget@Ogre@@PAPAV12@V?$allocator@PAVD3D9TextureRenderTarget@Ogre@@@std@@@stdext@@YAPAPAVD3D9TextureRenderTarget@Ogre@@PAPAV12@00AAV?$allocator@PAVD3D9TextureRenderTarget@Ogre@@@std@@@Z 10006810 f i OgreD3D9HardwarePixelBuffer.obj
 0001:00005870       ??$_Uninit_copy@PAU_D3DXMACRO@@PAU1@V?$allocator@U_D3DXMACRO@@@std@@@std@@YAPAU_D3DXMACRO@@PAU1@00AAV?$allocator@U_D3DXMACRO@@@0@U_Nonscalar_ptr_iterator_tag@0@U_Range_checked_iterator_tag@0@@Z 10006870 f i OgreD3D9ShaderManager.obj
 0001:00005870       ??$_Uninit_copy@PAUD3DSMSCONFLICT_T@Ogre@@PAU12@V?$allocator@UD3DSMSCONFLICT_T@Ogre@@@std@@@std@@YAPAUD3DSMSCONFLICT_T@Ogre@@PAU12@00AAV?$allocator@UD3DSMSCONFLICT_T@Ogre@@@0@U_Nonscalar_ptr_iterator_tag@0@U_Range_checked_iterator_tag@0@@Z 10006870 f i OgreD3D9DriverEnum.obj
 0001:00005930       ??$_Uninit_copy@PAW4_D3DFORMAT@@PAW41@V?$allocator@W4_D3DFORMAT@@@std@@@std@@YAPAW4_D3DFORMAT@@PAW41@00AAV?$allocator@W4_D3DFORMAT@@@0@U_Nonscalar_ptr_iterator_tag@0@U_Range_checked_iterator_tag@0@@Z 10006930 f i OgreD3D9DriverEnum.obj
 0001:00005930       ??$_Uninit_copy@PAW4_D3DMULTISAMPLE_TYPE@@PAW41@V?$allocator@W4_D3DMULTISAMPLE_TYPE@@@std@@@std@@YAPAW4_D3DMULTISAMPLE_TYPE@@PAW41@00AAV?$allocator@W4_D3DMULTISAMPLE_TYPE@@@0@U_Nonscalar_ptr_iterator_tag@0@U_Range_checked_iterator_tag@0@@Z 10006930 f i OgreD3D9DriverEnum.obj
 0001:00005930       ??$_Uninit_copy@PAW4VERTPROCESS_T@Ogre@@PAW412@V?$allocator@W4VERTPROCESS_T@Ogre@@@std@@@std@@YAPAW4VERTPROCESS_T@Ogre@@PAW412@00AAV?$allocator@W4VERTPROCESS_T@Ogre@@@0@U_Nonscalar_ptr_iterator_tag@0@U_Range_checked_iterator_tag@0@@Z 10006930 f i OgreD3D9DriverEnum.obj
 0001:000059f0       ??$_Uninit_copy@PATShaderEnvKey@Ogre@@PAT12@V?$allocator@TShaderEnvKey@Ogre@@@std@@@std@@YAPATShaderEnvKey@Ogre@@PAT12@00AAV?$allocator@TShaderEnvKey@Ogre@@@0@U_Nonscalar_ptr_iterator_tag@0@U_Range_checked_iterator_tag@0@@Z 100069f0 f i OgreD3D9ShaderManager.obj
 0001:000059f0       ??$_Uninit_copy@PAU_D3DDISPLAYMODE@@PAU1@V?$allocator@U_D3DDISPLAYMODE@@@std@@@std@@YAPAU_D3DDISPLAYMODE@@PAU1@00AAV?$allocator@U_D3DDISPLAYMODE@@@0@U_Nonscalar_ptr_iterator_tag@0@U_Range_checked_iterator_tag@0@@Z 100069f0 f i OgreD3D9DriverEnum.obj
 0001:00005ab0       ??$_Uninit_copy@PAPAVCompiledShader@Ogre@@PAPAV12@V?$allocator@PAVCompiledShader@Ogre@@@std@@@std@@YAPAPAVCompiledShader@Ogre@@PAPAV12@00AAV?$allocator@PAVCompiledShader@Ogre@@@0@U_Scalar_ptr_iterator_tag@0@U_Range_checked_iterator_tag@0@@Z 10006ab0 f i OgreD3D9ShaderManager.obj
 0001:00005ab0       ??$_Uninit_copy@PAPAUTechniqueDesc@Ogre@@PAPAU12@V?$allocator@PAUTechniqueDesc@Ogre@@@std@@@std@@YAPAPAUTechniqueDesc@Ogre@@PAPAU12@00AAV?$allocator@PAUTechniqueDesc@Ogre@@@0@U_Scalar_ptr_iterator_tag@0@U_Range_checked_iterator_tag@0@@Z 10006ab0 f i OgreD3D9ShaderManager.obj
 0001:00005ab0       ??$_Uninit_copy@PAPAVD3DRenderWindow@Ogre@@PAPAV12@V?$allocator@PAVD3DRenderWindow@Ogre@@@std@@@std@@YAPAPAVD3DRenderWindow@Ogre@@PAPAV12@00AAV?$allocator@PAVD3DRenderWindow@Ogre@@@0@U_Scalar_ptr_iterator_tag@0@U_Range_checked_iterator_tag@0@@Z 10006ab0 f i OgreD3D9RenderSystem.obj
 0001:00005ab0       ??$_Uninit_copy@PAPAUD3DADAPTER_T@Ogre@@PAPAU12@V?$allocator@PAUD3DADAPTER_T@Ogre@@@std@@@std@@YAPAPAUD3DADAPTER_T@Ogre@@PAPAU12@00AAV?$allocator@PAUD3DADAPTER_T@Ogre@@@0@U_Scalar_ptr_iterator_tag@0@U_Range_checked_iterator_tag@0@@Z 10006ab0 f i OgreD3D9DriverEnum.obj
 0001:00005ab0       ??$_Uninit_copy@PAPAUD3DDEVCOMBO_T@Ogre@@PAPAU12@V?$allocator@PAUD3DDEVCOMBO_T@Ogre@@@std@@@std@@YAPAPAUD3DDEVCOMBO_T@Ogre@@PAPAU12@00AAV?$allocator@PAUD3DDEVCOMBO_T@Ogre@@@0@U_Scalar_ptr_iterator_tag@0@U_Range_checked_iterator_tag@0@@Z 10006ab0 f i OgreD3D9DriverEnum.obj
 0001:00005ab0       ??$_Uninit_copy@PAPAUD3DDEVICEINFO_T@Ogre@@PAPAU12@V?$allocator@PAUD3DDEVICEINFO_T@Ogre@@@std@@@std@@YAPAPAUD3DDEVICEINFO_T@Ogre@@PAPAU12@00AAV?$allocator@PAUD3DDEVICEINFO_T@Ogre@@@0@U_Scalar_ptr_iterator_tag@0@U_Range_checked_iterator_tag@0@@Z 10006ab0 f i OgreD3D9DriverEnum.obj
 0001:00005ab0       ??$_Uninit_copy@PAPAVD3D9VertexDecl@Ogre@@PAPAV12@V?$allocator@PAVD3D9VertexDecl@Ogre@@@std@@@std@@YAPAPAVD3D9VertexDecl@Ogre@@PAPAV12@00AAV?$allocator@PAVD3D9VertexDecl@Ogre@@@0@U_Scalar_ptr_iterator_tag@0@U_Range_checked_iterator_tag@0@@Z 10006ab0 f i OgreD3D9RenderSystem.obj
 0001:00005ab0       ??$_Uninit_copy@PAPAVD3D9TextureRenderTarget@Ogre@@PAPAV12@V?$allocator@PAVD3D9TextureRenderTarget@Ogre@@@std@@@std@@YAPAPAVD3D9TextureRenderTarget@Ogre@@PAPAV12@00AAV?$allocator@PAVD3D9TextureRenderTarget@Ogre@@@0@U_Scalar_ptr_iterator_tag@0@U_Range_checked_iterator_tag@0@@Z 10006ab0 f i OgreD3D9HardwarePixelBuffer.obj
 0001:00005ab0       ??$_Uninit_copy@PAIPAIV?$allocator@I@std@@@std@@YAPAIPAI00AAV?$allocator@I@0@U_Scalar_ptr_iterator_tag@0@U_Range_checked_iterator_tag@0@@Z 10006ab0 f i OgreD3D9DriverEnum.obj
 0001:00005ab0       ??$_Uninit_copy@PAPAUTechCache@D3DMaterialTemplate@Ogre@@PAPAU123@V?$allocator@PAUTechCache@D3DMaterialTemplate@Ogre@@@std@@@std@@YAPAPAUTechCache@D3DMaterialTemplate@Ogre@@PAPAU123@00AAV?$allocator@PAUTechCache@D3DMaterialTemplate@Ogre@@@0@U_Scalar_ptr_iterator_tag@0@U_Range_checked_iterator_tag@0@@Z 10006ab0 f i OgreD3DMaterialTemplate.obj
 0001:00005b00       _dllStartPlugin            10006b00 f   OgreD3D9EngineDll.obj
 0001:00005b90       _dllStopPlugin             10006b90 f   OgreD3D9EngineDll.obj
 0001:00005be0       ??0D3D9PixelBufferPool@Ogre@@QAE@PAVD3D9RenderSystem@1@W4HardwareBufferUsage@1@ABUTextureDesc@1@@Z 10006be0 f   OgreD3D9HardwarePixelBuffer.obj
 0001:00005c90       ??1D3D9PixelBufferPool@Ogre@@UAE@XZ 10006c90 f   OgreD3D9HardwarePixelBuffer.obj
 0001:00005df0       ?createPixelBufferSysTexture@D3D9PixelBufferPool@Ogre@@QAEXPAVD3D9HardwarePixelBuffer@2@@Z 10006df0 f   OgreD3D9HardwarePixelBuffer.obj
 0001:00005ed0       ?releasePixelBufferSysTexture@D3D9PixelBufferPool@Ogre@@QAEXPAVD3D9HardwarePixelBuffer@2@@Z 10006ed0 f   OgreD3D9HardwarePixelBuffer.obj
 0001:00005fb0       ?onLostDevice@D3D9PixelBufferPool@Ogre@@QAEXXZ 10006fb0 f   OgreD3D9HardwarePixelBuffer.obj
 0001:000060e0       ?onResetDevice@D3D9PixelBufferPool@Ogre@@QAE_NXZ 100070e0 f   OgreD3D9HardwarePixelBuffer.obj
 0001:00006270       ?newPixelBuffer@D3D9PixelBufferPool@Ogre@@UAEPAVHardwarePixelBuffer@2@XZ 10007270 f   OgreD3D9HardwarePixelBuffer.obj
 0001:00006300       ?lock@D3D9PixelBufferPool@Ogre@@UAEPAXPAVHardwarePixelBuffer@2@IW4HardwareBufferLockOpt@2@AAULockResult@2@@Z 10007300 f   OgreD3D9HardwarePixelBuffer.obj
 0001:00006420       ?unlock@D3D9PixelBufferPool@Ogre@@UAEXPAVHardwarePixelBuffer@2@I@Z 10007420 f   OgreD3D9HardwarePixelBuffer.obj
 0001:000064b0       ?loadSurfaceData@D3D9PixelBufferPool@Ogre@@UAEXPAVHardwarePixelBuffer@2@IPAVSurfaceData@2@@Z 100074b0 f   OgreD3D9HardwarePixelBuffer.obj
 0001:00006690       ?getSupportedParam@D3D9PixelBufferPool@Ogre@@QAE_NW4HardwareBufferUsage@2@ABUTextureDesc@2@@Z 10007690 f   OgreD3D9HardwarePixelBuffer.obj
 0001:00006920       ?createRenderTarget@D3D9PixelBufferPool@Ogre@@UAEPAVTextureRenderTarget@2@PAVHardwarePixelBuffer@2@IHH@Z 10007920 f   OgreD3D9HardwarePixelBuffer.obj
 0001:000069f0       ?createDepthStencil@D3D9PixelBufferPool@Ogre@@UAEPAVTextureRenderTarget@2@PAVHardwarePixelBuffer@2@I@Z 100079f0 f   OgreD3D9HardwarePixelBuffer.obj
 0001:00006ac0       ?releaseRenderTarget@D3D9PixelBufferPool@Ogre@@QAEXPAVD3D9TextureRenderTarget@2@@Z 10007ac0 f   OgreD3D9HardwarePixelBuffer.obj
 0001:00006b60       ?getSurfaceSize@D3D9PixelBufferPool@Ogre@@QAEXIAAI0@Z 10007b60 f   OgreD3D9HardwarePixelBuffer.obj
 0001:00006bc0       ?getSurface@D3D9PixelBufferPool@Ogre@@QAEPAUIDirect3DSurface9@@PAVHardwarePixelBuffer@2@I@Z 10007bc0 f   OgreD3D9HardwarePixelBuffer.obj
 0001:00006c50       ??1D3D9HardwarePixelBuffer@Ogre@@EAE@XZ 10007c50 f   OgreD3D9HardwarePixelBuffer.obj
 0001:00006cc0       ?dumpToDDS@D3D9HardwarePixelBuffer@Ogre@@UAEXPBD@Z 10007cc0 f   OgreD3D9HardwarePixelBuffer.obj
 0001:00006d20       ?dumpToBuffer@D3D9HardwarePixelBuffer@Ogre@@UAEPAXPBDAAI@Z 10007d20 f   OgreD3D9HardwarePixelBuffer.obj
 0001:00006dd0       ?getColorBit@D3D9HardwarePixelBuffer@Ogre@@UAEXPAK@Z 10007dd0 f   OgreD3D9HardwarePixelBuffer.obj
 0001:00006ef0       ??0D3D9TextureRenderTarget@Ogre@@QAE@PAVD3D9RenderSystem@1@PAVD3D9HardwarePixelBuffer@1@IHW4RenderTargetType@01@H@Z 10007ef0 f   OgreD3D9HardwarePixelBuffer.obj
 0001:000070e0       ??1D3D9TextureRenderTarget@Ogre@@UAE@XZ 100080e0 f   OgreD3D9HardwarePixelBuffer.obj
 0001:00007160       ?isSuccessCreateRenderTarget@D3D9TextureRenderTarget@Ogre@@UAE_NXZ 10008160 f   OgreD3D9HardwarePixelBuffer.obj
 0001:000071a0       ?isSuccessCreateDSBuffer@D3D9TextureRenderTarget@Ogre@@UAE_NXZ 100081a0 f   OgreD3D9HardwarePixelBuffer.obj
 0001:000071e0       ?requireOrReleaseDSBuffer@D3D9TextureRenderTarget@Ogre@@QAEX_N@Z 100081e0 f   OgreD3D9HardwarePixelBuffer.obj
 0001:00007250       ?requireOrReleaseRenderTarget@D3D9TextureRenderTarget@Ogre@@QAEX_N@Z 10008250 f   OgreD3D9HardwarePixelBuffer.obj
 0001:000072c0       ?beginScene@D3D9TextureRenderTarget@Ogre@@UAE_NXZ 100082c0 f   OgreD3D9HardwarePixelBuffer.obj
 0001:000074f0       ?endScene@D3D9TextureRenderTarget@Ogre@@UAEXXZ 100084f0 f   OgreD3D9HardwarePixelBuffer.obj
 0001:00007590       ?setStretchRect@D3D9TextureRenderTarget@Ogre@@UAEXHHHHHHHH@Z 10008590 f   OgreD3D9HardwarePixelBuffer.obj
 0001:000075f0       ??0D3D9HardwarePixelBufferManager@Ogre@@QAE@PAVD3D9RenderSystem@1@@Z 100085f0 f   OgreD3D9HardwarePixelBuffer.obj
 0001:00007680       ??1D3D9HardwarePixelBufferManager@Ogre@@UAE@XZ 10008680 f   OgreD3D9HardwarePixelBuffer.obj
 0001:00007700       ?newPixelBufferPool@D3D9HardwarePixelBufferManager@Ogre@@UAEPAVHardwarePixelBufferPool@2@W4HardwareBufferUsage@2@ABUTextureDesc@2@@Z 10008700 f   OgreD3D9HardwarePixelBuffer.obj
 0001:00007790       ?hasDSBuffer@D3D9HardwarePixelBufferManager@Ogre@@QAE_NIIW4_D3DFORMAT@@W4_D3DMULTISAMPLE_TYPE@@@Z 10008790 f   OgreD3D9HardwarePixelBuffer.obj
 0001:00007810       ?requireDSBuffer@D3D9HardwarePixelBufferManager@Ogre@@QAEPAUIDirect3DSurface9@@IIW4_D3DFORMAT@@W4_D3DMULTISAMPLE_TYPE@@@Z 10008810 f   OgreD3D9HardwarePixelBuffer.obj
 0001:00007990       ?hasRenderTarget@D3D9HardwarePixelBufferManager@Ogre@@QAE_NIIW4_D3DFORMAT@@W4_D3DMULTISAMPLE_TYPE@@@Z 10008990 f   OgreD3D9HardwarePixelBuffer.obj
 0001:00007a10       ?getCreateRenderTargetErrcode@Ogre@@YAPBDJ@Z 10008a10 f   OgreD3D9HardwarePixelBuffer.obj
 0001:00007a70       ?requireRenderTarget@D3D9HardwarePixelBufferManager@Ogre@@QAEPAUIDirect3DSurface9@@IIW4_D3DFORMAT@@W4_D3DMULTISAMPLE_TYPE@@@Z 10008a70 f   OgreD3D9HardwarePixelBuffer.obj
 0001:00007bf0       ?releaseDSBuffer@D3D9HardwarePixelBufferManager@Ogre@@QAEXPAUIDirect3DSurface9@@@Z 10008bf0 f   OgreD3D9HardwarePixelBuffer.obj
 0001:00007c50       ?releaseRenderTarget@D3D9HardwarePixelBufferManager@Ogre@@QAEXPAUIDirect3DSurface9@@@Z 10008c50 f   OgreD3D9HardwarePixelBuffer.obj
 0001:00007cb0       ?onLostDevice@D3D9HardwarePixelBufferManager@Ogre@@QAEXXZ 10008cb0 f   OgreD3D9HardwarePixelBuffer.obj
 0001:00007e10       ?onResetDevice@D3D9HardwarePixelBufferManager@Ogre@@QAE_NXZ 10008e10 f   OgreD3D9HardwarePixelBuffer.obj
 0001:00007e80       ??_GD3D9PixelBufferPool@Ogre@@UAEPAXI@Z 10008e80 f i OgreD3D9HardwarePixelBuffer.obj
 0001:00007e80       ??_ED3D9PixelBufferPool@Ogre@@UAEPAXI@Z 10008e80 f i OgreD3D9HardwarePixelBuffer.obj
 0001:00007eb0       ??0D3D9HardwarePixelBuffer@Ogre@@QAE@XZ 10008eb0 f i OgreD3D9HardwarePixelBuffer.obj
 0001:00007f20       ??_ED3D9HardwarePixelBuffer@Ogre@@EAEPAXI@Z 10008f20 f i OgreD3D9HardwarePixelBuffer.obj
 0001:00007f20       ??_GD3D9HardwarePixelBuffer@Ogre@@EAEPAXI@Z 10008f20 f i OgreD3D9HardwarePixelBuffer.obj
 0001:00007f50       ?getD3DDevice@D3D9RenderSystem@Ogre@@QAEPAUIDirect3DDevice9@@XZ 10008f50 f i OgreD3D9HardwarePixelBuffer.obj
 0001:00007f70       ?getSurface@D3D9HardwarePixelBuffer@Ogre@@QAEPAUIDirect3DSurface9@@I@Z 10008f70 f i OgreD3D9HardwarePixelBuffer.obj
 0001:00007f90       ?getSize@D3D9TextureRenderTarget@Ogre@@UAEXAAI0@Z 10008f90 f i OgreD3D9HardwarePixelBuffer.obj
 0001:00007fc0       ?getSysTexture@D3D9HardwarePixelBuffer@Ogre@@QAEPAUIDirect3DBaseTexture9@@XZ 10008fc0 f i OgreD3D9HardwarePixelBuffer.obj
 0001:00007fc0       ?getColorTexture@D3D9TextureRenderTarget@Ogre@@UAEPAVHardwarePixelBuffer@2@XZ 10008fc0 f i OgreD3D9HardwarePixelBuffer.obj
 0001:00007fe0       ?deleteThis@D3D9TextureRenderTarget@Ogre@@UAEXXZ 10008fe0 f i OgreD3D9HardwarePixelBuffer.obj
 0001:00008000       ??_ED3D9TextureRenderTarget@Ogre@@UAEPAXI@Z 10009000 f i OgreD3D9HardwarePixelBuffer.obj
 0001:00008000       ??_GD3D9TextureRenderTarget@Ogre@@UAEPAXI@Z 10009000 f i OgreD3D9HardwarePixelBuffer.obj
 0001:00008030       ??_GD3D9HardwarePixelBufferManager@Ogre@@UAEPAXI@Z 10009030 f i OgreD3D9HardwarePixelBuffer.obj
 0001:00008030       ??_ED3D9HardwarePixelBufferManager@Ogre@@UAEPAXI@Z 10009030 f i OgreD3D9HardwarePixelBuffer.obj
 0001:00008060       ?end@?$_Tree@V?$_Tmap_traits@IPAVHardwareBufferPool@Ogre@@U?$less@I@std@@V?$allocator@U?$pair@$$CBIPAVHardwareBufferPool@Ogre@@@std@@@4@$0A@@std@@@std@@QAE?AViterator@12@XZ 10009060 f i OgreD3DHardwareBuffer.obj
 0001:00008060       ?end@?$_Tree@V?$_Tmap_traits@TShaderEnvKey@Ogre@@PAVCompiledShader@2@U?$less@TShaderEnvKey@Ogre@@@std@@V?$allocator@U?$pair@$$CBTShaderEnvKey@Ogre@@PAVCompiledShader@2@@std@@@5@$0A@@std@@@std@@QAE?AViterator@12@XZ 10009060 f i OgreD3D9ShaderManager.obj
 0001:00008060       ?end@?$_Tree@V?$_Tmap_traits@IPAVHardwarePixelBufferPool@Ogre@@U?$less@I@std@@V?$allocator@U?$pair@$$CBIPAVHardwarePixelBufferPool@Ogre@@@std@@@4@$0A@@std@@@std@@QAE?AViterator@12@XZ 10009060 f i OgreD3D9HardwarePixelBuffer.obj
 0001:00008060       ?end@?$_Tree@V?$_Tmap_traits@VFixedString@Ogre@@PAVMaterialTemplate@2@U?$less@VFixedString@Ogre@@@std@@V?$allocator@U?$pair@$$CBVFixedString@Ogre@@PAVMaterialTemplate@2@@std@@@5@$0A@@std@@@std@@QAE?AViterator@12@XZ 10009060 f i OgreD3DMaterialTemplate.obj
 0001:00008060       ?end@?$_Tree@V?$_Tmap_traits@VFixedString@Ogre@@PAVCompiledShaderGroup@2@U?$less@VFixedString@Ogre@@@std@@V?$allocator@U?$pair@$$CBVFixedString@Ogre@@PAVCompiledShaderGroup@2@@std@@@5@$0A@@std@@@std@@QAE?AViterator@12@XZ 10009060 f i OgreD3DMaterialTemplate.obj
 0001:00008060       ?end@?$_Tree@V?$_Tmap_traits@TShaderEnvKey@Ogre@@PAVD3DTech@2@U?$less@TShaderEnvKey@Ogre@@@std@@V?$allocator@U?$pair@$$CBTShaderEnvKey@Ogre@@PAVD3DTech@2@@std@@@5@$0A@@std@@@std@@QAE?AViterator@12@XZ 10009060 f i OgreD3DMaterialTemplate.obj
 0001:00008060       ?end@?$_Tree@V?$_Tmap_traits@TShaderEnvKey2@Ogre@@PAVD3DShaderTechnique@2@U?$less@TShaderEnvKey2@Ogre@@@std@@V?$allocator@U?$pair@$$CBTShaderEnvKey2@Ogre@@PAVD3DShaderTechnique@2@@std@@@5@$0A@@std@@@std@@QAE?AViterator@12@XZ 10009060 f i OgreD3DMaterialTemplate.obj
 0001:00008090       ?begin@?$vector@PAUD3DDEVCOMBO_T@Ogre@@V?$allocator@PAUD3DDEVCOMBO_T@Ogre@@@std@@@std@@QAE?AV?$_Vector_iterator@PAUD3DDEVCOMBO_T@Ogre@@V?$allocator@PAUD3DDEVCOMBO_T@Ogre@@@std@@@2@XZ 10009090 f i OgreD3D9DriverEnum.obj
 0001:00008090       ?begin@?$vector@URTBuffer@D3D9HardwarePixelBufferManager@Ogre@@V?$allocator@URTBuffer@D3D9HardwarePixelBufferManager@Ogre@@@std@@@std@@QAE?AV?$_Vector_iterator@URTBuffer@D3D9HardwarePixelBufferManager@Ogre@@V?$allocator@URTBuffer@D3D9HardwarePixelBufferManager@Ogre@@@std@@@2@XZ 10009090 f i OgreD3D9HardwarePixelBuffer.obj
 0001:00008090       ?begin@?$vector@UDSBuffer@D3D9HardwarePixelBufferManager@Ogre@@V?$allocator@UDSBuffer@D3D9HardwarePixelBufferManager@Ogre@@@std@@@std@@QAE?AV?$_Vector_iterator@UDSBuffer@D3D9HardwarePixelBufferManager@Ogre@@V?$allocator@UDSBuffer@D3D9HardwarePixelBufferManager@Ogre@@@std@@@2@XZ 10009090 f i OgreD3D9HardwarePixelBuffer.obj
 0001:00008090       ?begin@?$vector@IV?$allocator@I@std@@@std@@QAE?AV?$_Vector_iterator@IV?$allocator@I@std@@@2@XZ 10009090 f i OgreD3D9DriverEnum.obj
 0001:00008090       ?begin@?$vector@W4_D3DMULTISAMPLE_TYPE@@V?$allocator@W4_D3DMULTISAMPLE_TYPE@@@std@@@std@@QAE?AV?$_Vector_iterator@W4_D3DMULTISAMPLE_TYPE@@V?$allocator@W4_D3DMULTISAMPLE_TYPE@@@std@@@2@XZ 10009090 f i OgreD3D9DriverEnum.obj
 0001:00008090       ?begin@?$vector@TShaderEnvKey@Ogre@@V?$allocator@TShaderEnvKey@Ogre@@@std@@@std@@QAE?AV?$_Vector_iterator@TShaderEnvKey@Ogre@@V?$allocator@TShaderEnvKey@Ogre@@@std@@@2@XZ 10009090 f i OgreD3D9ShaderManager.obj
 0001:00008090       ?begin@?$vector@PAUTechniqueDesc@Ogre@@V?$allocator@PAUTechniqueDesc@Ogre@@@std@@@std@@QAE?AV?$_Vector_iterator@PAUTechniqueDesc@Ogre@@V?$allocator@PAUTechniqueDesc@Ogre@@@std@@@2@XZ 10009090 f i OgreD3D9ShaderManager.obj
 0001:00008090       ?begin@?$vector@PAVD3D9VertexDecl@Ogre@@V?$allocator@PAVD3D9VertexDecl@Ogre@@@std@@@std@@QAE?AV?$_Vector_iterator@PAVD3D9VertexDecl@Ogre@@V?$allocator@PAVD3D9VertexDecl@Ogre@@@std@@@2@XZ 10009090 f i OgreD3D9RenderSystem.obj
 0001:00008090       ?begin@?$vector@PAVD3D9TextureRenderTarget@Ogre@@V?$allocator@PAVD3D9TextureRenderTarget@Ogre@@@std@@@std@@QAE?AV?$_Vector_iterator@PAVD3D9TextureRenderTarget@Ogre@@V?$allocator@PAVD3D9TextureRenderTarget@Ogre@@@std@@@2@XZ 10009090 f i OgreD3D9HardwarePixelBuffer.obj
 0001:00008090       ?begin@?$vector@PAUD3DDEVICEINFO_T@Ogre@@V?$allocator@PAUD3DDEVICEINFO_T@Ogre@@@std@@@std@@QAE?AV?$_Vector_iterator@PAUD3DDEVICEINFO_T@Ogre@@V?$allocator@PAUD3DDEVICEINFO_T@Ogre@@@std@@@2@XZ 10009090 f i OgreD3D9DriverEnum.obj
 0001:00008090       ?begin@?$vector@U_D3DXMACRO@@V?$allocator@U_D3DXMACRO@@@std@@@std@@QAE?AV?$_Vector_iterator@U_D3DXMACRO@@V?$allocator@U_D3DXMACRO@@@std@@@2@XZ 10009090 f i OgreD3D9ShaderManager.obj
 0001:00008090       ?begin@?$vector@PAUD3DADAPTER_T@Ogre@@V?$allocator@PAUD3DADAPTER_T@Ogre@@@std@@@std@@QAE?AV?$_Vector_iterator@PAUD3DADAPTER_T@Ogre@@V?$allocator@PAUD3DADAPTER_T@Ogre@@@std@@@2@XZ 10009090 f i OgreD3D9DriverEnum.obj
 0001:00008090       ?begin@?$vector@UPassDesc@Ogre@@V?$allocator@UPassDesc@Ogre@@@std@@@std@@QAE?AV?$_Vector_iterator@UPassDesc@Ogre@@V?$allocator@UPassDesc@Ogre@@@std@@@2@XZ 10009090 f i OgreD3D9ShaderManager.obj
 0001:00008090       ?begin@?$vector@UShaderEnv@Ogre@@V?$allocator@UShaderEnv@Ogre@@@std@@@std@@QAE?AV?$_Vector_iterator@UShaderEnv@Ogre@@V?$allocator@UShaderEnv@Ogre@@@std@@@2@XZ 10009090 f i OgreD3DMaterialTemplate.obj
 0001:00008090       ?begin@?$vector@U_D3DDISPLAYMODE@@V?$allocator@U_D3DDISPLAYMODE@@@std@@@std@@QAE?AV?$_Vector_iterator@U_D3DDISPLAYMODE@@V?$allocator@U_D3DDISPLAYMODE@@@std@@@2@XZ 10009090 f i OgreD3D9DriverEnum.obj
 0001:00008090       ?begin@?$vector@UPassData@D3DShaderTechnique@Ogre@@V?$allocator@UPassData@D3DShaderTechnique@Ogre@@@std@@@std@@QAE?AV?$_Vector_iterator@UPassData@D3DShaderTechnique@Ogre@@V?$allocator@UPassData@D3DShaderTechnique@Ogre@@@std@@@2@XZ 10009090 f i OgreD3D9ShaderManager.obj
 0001:00008090       ?begin@?$vector@W4_D3DFORMAT@@V?$allocator@W4_D3DFORMAT@@@std@@@std@@QAE?AV?$_Vector_iterator@W4_D3DFORMAT@@V?$allocator@W4_D3DFORMAT@@@std@@@2@XZ 10009090 f i OgreD3D9DriverEnum.obj
 0001:00008090       ?begin@?$vector@UD3DSMSCONFLICT_T@Ogre@@V?$allocator@UD3DSMSCONFLICT_T@Ogre@@@std@@@std@@QAE?AV?$_Vector_iterator@UD3DSMSCONFLICT_T@Ogre@@V?$allocator@UD3DSMSCONFLICT_T@Ogre@@@std@@@2@XZ 10009090 f i OgreD3D9DriverEnum.obj
 0001:00008090       ?begin@?$vector@PAVHardwarePixelBuffer@Ogre@@V?$allocator@PAVHardwarePixelBuffer@Ogre@@@std@@@std@@QAE?AV?$_Vector_iterator@PAVHardwarePixelBuffer@Ogre@@V?$allocator@PAVHardwarePixelBuffer@Ogre@@@std@@@2@XZ 10009090 f i OgreD3D9HardwarePixelBuffer.obj
 0001:00008090       ?begin@?$vector@PAVD3DRenderWindow@Ogre@@V?$allocator@PAVD3DRenderWindow@Ogre@@@std@@@std@@QAE?AV?$_Vector_iterator@PAVD3DRenderWindow@Ogre@@V?$allocator@PAVD3DRenderWindow@Ogre@@@std@@@2@XZ 10009090 f i OgreD3D9RenderSystem.obj
 0001:00008090       ?begin@?$vector@W4VERTPROCESS_T@Ogre@@V?$allocator@W4VERTPROCESS_T@Ogre@@@std@@@std@@QAE?AV?$_Vector_iterator@W4VERTPROCESS_T@Ogre@@V?$allocator@W4VERTPROCESS_T@Ogre@@@std@@@2@XZ 10009090 f i OgreD3D9DriverEnum.obj
 0001:00008090       ?begin@?$vector@PAUTechCache@D3DMaterialTemplate@Ogre@@V?$allocator@PAUTechCache@D3DMaterialTemplate@Ogre@@@std@@@std@@QAE?AV?$_Vector_iterator@PAUTechCache@D3DMaterialTemplate@Ogre@@V?$allocator@PAUTechCache@D3DMaterialTemplate@Ogre@@@std@@@2@XZ 10009090 f i OgreD3DMaterialTemplate.obj
 0001:00008090       ?begin@?$vector@DV?$allocator@D@std@@@std@@QAE?AV?$_Vector_iterator@DV?$allocator@D@std@@@2@XZ 10009090 f i OgreD3D9ShaderManager.obj
 0001:00008090       ?begin@?$vector@PAVCompiledShader@Ogre@@V?$allocator@PAVCompiledShader@Ogre@@@std@@@std@@QAE?AV?$_Vector_iterator@PAVCompiledShader@Ogre@@V?$allocator@PAVCompiledShader@Ogre@@@std@@@2@XZ 10009090 f i OgreD3D9ShaderManager.obj
 0001:000080c0       ?resize@?$vector@PAVD3D9TextureRenderTarget@Ogre@@V?$allocator@PAVD3D9TextureRenderTarget@Ogre@@@std@@@std@@QAEXI@Z 100090c0 f i OgreD3D9HardwarePixelBuffer.obj
 0001:000080e0       ??0?$vector@UDSBuffer@D3D9HardwarePixelBufferManager@Ogre@@V?$allocator@UDSBuffer@D3D9HardwarePixelBufferManager@Ogre@@@std@@@std@@QAE@XZ 100090e0 f i OgreD3D9HardwarePixelBuffer.obj
 0001:000080e0       ??0?$vector@URTBuffer@D3D9HardwarePixelBufferManager@Ogre@@V?$allocator@URTBuffer@D3D9HardwarePixelBufferManager@Ogre@@@std@@@std@@QAE@XZ 100090e0 f i OgreD3D9HardwarePixelBuffer.obj
 0001:00008150       ?resize@?$vector@UDSBuffer@D3D9HardwarePixelBufferManager@Ogre@@V?$allocator@UDSBuffer@D3D9HardwarePixelBufferManager@Ogre@@@std@@@std@@QAEXI@Z 10009150 f i OgreD3D9HardwarePixelBuffer.obj
 0001:00008150       ?resize@?$vector@URTBuffer@D3D9HardwarePixelBufferManager@Ogre@@V?$allocator@URTBuffer@D3D9HardwarePixelBufferManager@Ogre@@@std@@@std@@QAEXI@Z 10009150 f i OgreD3D9HardwarePixelBuffer.obj
 0001:000081b0       ??1?$vector@URTBuffer@D3D9HardwarePixelBufferManager@Ogre@@V?$allocator@URTBuffer@D3D9HardwarePixelBufferManager@Ogre@@@std@@@std@@QAE@XZ 100091b0 f i OgreD3D9HardwarePixelBuffer.obj
 0001:000081b0       ??1?$vector@UDSBuffer@D3D9HardwarePixelBufferManager@Ogre@@V?$allocator@UDSBuffer@D3D9HardwarePixelBufferManager@Ogre@@@std@@@std@@QAE@XZ 100091b0 f i OgreD3D9HardwarePixelBuffer.obj
 0001:00008210       ?push_back@?$vector@URTBuffer@D3D9HardwarePixelBufferManager@Ogre@@V?$allocator@URTBuffer@D3D9HardwarePixelBufferManager@Ogre@@@std@@@std@@QAEXABURTBuffer@D3D9HardwarePixelBufferManager@Ogre@@@Z 10009210 f i OgreD3D9HardwarePixelBuffer.obj
 0001:00008210       ?push_back@?$vector@UDSBuffer@D3D9HardwarePixelBufferManager@Ogre@@V?$allocator@UDSBuffer@D3D9HardwarePixelBufferManager@Ogre@@@std@@@std@@QAEXABUDSBuffer@D3D9HardwarePixelBufferManager@Ogre@@@Z 10009210 f i OgreD3D9HardwarePixelBuffer.obj
 0001:00008290       ?resize@?$vector@PAVD3D9TextureRenderTarget@Ogre@@V?$allocator@PAVD3D9TextureRenderTarget@Ogre@@@std@@@std@@QAEXIPAVD3D9TextureRenderTarget@Ogre@@@Z 10009290 f i OgreD3D9HardwarePixelBuffer.obj
 0001:00008350       ?resize@?$vector@UDSBuffer@D3D9HardwarePixelBufferManager@Ogre@@V?$allocator@UDSBuffer@D3D9HardwarePixelBufferManager@Ogre@@@std@@@std@@QAEXIUDSBuffer@D3D9HardwarePixelBufferManager@Ogre@@@Z 10009350 f i OgreD3D9HardwarePixelBuffer.obj
 0001:00008350       ?resize@?$vector@URTBuffer@D3D9HardwarePixelBufferManager@Ogre@@V?$allocator@URTBuffer@D3D9HardwarePixelBufferManager@Ogre@@@std@@@std@@QAEXIURTBuffer@D3D9HardwarePixelBufferManager@Ogre@@@Z 10009350 f i OgreD3D9HardwarePixelBuffer.obj
 0001:00008410       ?_Buy@?$vector@URTBuffer@D3D9HardwarePixelBufferManager@Ogre@@V?$allocator@URTBuffer@D3D9HardwarePixelBufferManager@Ogre@@@std@@@std@@IAE_NI@Z 10009410 f i OgreD3D9HardwarePixelBuffer.obj
 0001:00008410       ?_Buy@?$vector@UDSBuffer@D3D9HardwarePixelBufferManager@Ogre@@V?$allocator@UDSBuffer@D3D9HardwarePixelBufferManager@Ogre@@@std@@@std@@IAE_NI@Z 10009410 f i OgreD3D9HardwarePixelBuffer.obj
 0001:00008490       ?insert@?$vector@URTBuffer@D3D9HardwarePixelBufferManager@Ogre@@V?$allocator@URTBuffer@D3D9HardwarePixelBufferManager@Ogre@@@std@@@std@@QAE?AV?$_Vector_iterator@URTBuffer@D3D9HardwarePixelBufferManager@Ogre@@V?$allocator@URTBuffer@D3D9HardwarePixelBufferManager@Ogre@@@std@@@2@V?$_Vector_const_iterator@URTBuffer@D3D9HardwarePixelBufferManager@Ogre@@V?$allocator@URTBuffer@D3D9HardwarePixelBufferManager@Ogre@@@std@@@2@ABURTBuffer@D3D9HardwarePixelBufferManager@Ogre@@@Z 10009490 f i OgreD3D9HardwarePixelBuffer.obj
 0001:00008490       ?insert@?$vector@UDSBuffer@D3D9HardwarePixelBufferManager@Ogre@@V?$allocator@UDSBuffer@D3D9HardwarePixelBufferManager@Ogre@@@std@@@std@@QAE?AV?$_Vector_iterator@UDSBuffer@D3D9HardwarePixelBufferManager@Ogre@@V?$allocator@UDSBuffer@D3D9HardwarePixelBufferManager@Ogre@@@std@@@2@V?$_Vector_const_iterator@UDSBuffer@D3D9HardwarePixelBufferManager@Ogre@@V?$allocator@UDSBuffer@D3D9HardwarePixelBufferManager@Ogre@@@std@@@2@ABUDSBuffer@D3D9HardwarePixelBufferManager@Ogre@@@Z 10009490 f i OgreD3D9HardwarePixelBuffer.obj
 0001:00008510       ?_Tidy@?$vector@UDSBuffer@D3D9HardwarePixelBufferManager@Ogre@@V?$allocator@UDSBuffer@D3D9HardwarePixelBufferManager@Ogre@@@std@@@std@@IAEXXZ 10009510 f i OgreD3D9HardwarePixelBuffer.obj
 0001:00008510       ?_Tidy@?$vector@URTBuffer@D3D9HardwarePixelBufferManager@Ogre@@V?$allocator@URTBuffer@D3D9HardwarePixelBufferManager@Ogre@@@std@@@std@@IAEXXZ 10009510 f i OgreD3D9HardwarePixelBuffer.obj
 0001:00008590       ?_Ufill@?$vector@UShaderEnv@Ogre@@V?$allocator@UShaderEnv@Ogre@@@std@@@std@@IAEPAUShaderEnv@Ogre@@PAU34@IABU34@@Z 10009590 f i OgreD3DMaterialTemplate.obj
 0001:00008590       ?_Ufill@?$vector@URTBuffer@D3D9HardwarePixelBufferManager@Ogre@@V?$allocator@URTBuffer@D3D9HardwarePixelBufferManager@Ogre@@@std@@@std@@IAEPAURTBuffer@D3D9HardwarePixelBufferManager@Ogre@@PAU345@IABU345@@Z 10009590 f i OgreD3D9HardwarePixelBuffer.obj
 0001:00008590       ?_Ufill@?$vector@UDSBuffer@D3D9HardwarePixelBufferManager@Ogre@@V?$allocator@UDSBuffer@D3D9HardwarePixelBufferManager@Ogre@@@std@@@std@@IAEPAUDSBuffer@D3D9HardwarePixelBufferManager@Ogre@@PAU345@IABU345@@Z 10009590 f i OgreD3D9HardwarePixelBuffer.obj
 0001:000085d0       ??0iterator@?$_Tree@V?$_Tmap_traits@VFixedString@Ogre@@PAVMaterialTemplate@2@U?$less@VFixedString@Ogre@@@std@@V?$allocator@U?$pair@$$CBVFixedString@Ogre@@PAVMaterialTemplate@2@@std@@@5@$0A@@std@@@std@@QAE@PAU_Node@?$_Tree_nod@V?$_Tmap_traits@VFixedString@Ogre@@PAVMaterialTemplate@2@U?$less@VFixedString@Ogre@@@std@@V?$allocator@U?$pair@$$CBVFixedString@Ogre@@PAVMaterialTemplate@2@@std@@@5@$0A@@std@@@2@PBV12@@Z 100095d0 f i OgreD3DMaterialTemplate.obj
 0001:000085d0       ??0iterator@?$_Tree@V?$_Tmap_traits@TShaderEnvKey@Ogre@@PAVCompiledShader@2@U?$less@TShaderEnvKey@Ogre@@@std@@V?$allocator@U?$pair@$$CBTShaderEnvKey@Ogre@@PAVCompiledShader@2@@std@@@5@$0A@@std@@@std@@QAE@PAU_Node@?$_Tree_nod@V?$_Tmap_traits@TShaderEnvKey@Ogre@@PAVCompiledShader@2@U?$less@TShaderEnvKey@Ogre@@@std@@V?$allocator@U?$pair@$$CBTShaderEnvKey@Ogre@@PAVCompiledShader@2@@std@@@5@$0A@@std@@@2@PBV12@@Z 100095d0 f i OgreD3D9ShaderManager.obj
 0001:000085d0       ??0iterator@?$_Tree@V?$_Tmap_traits@IPAVHardwareBufferPool@Ogre@@U?$less@I@std@@V?$allocator@U?$pair@$$CBIPAVHardwareBufferPool@Ogre@@@std@@@4@$0A@@std@@@std@@QAE@PAU_Node@?$_Tree_nod@V?$_Tmap_traits@IPAVHardwareBufferPool@Ogre@@U?$less@I@std@@V?$allocator@U?$pair@$$CBIPAVHardwareBufferPool@Ogre@@@std@@@4@$0A@@std@@@2@PBV12@@Z 100095d0 f i OgreD3DHardwareBuffer.obj
 0001:000085d0       ??0iterator@?$_Tree@V?$_Tmap_traits@TShaderEnvKey2@Ogre@@PAVD3DShaderTechnique@2@U?$less@TShaderEnvKey2@Ogre@@@std@@V?$allocator@U?$pair@$$CBTShaderEnvKey2@Ogre@@PAVD3DShaderTechnique@2@@std@@@5@$0A@@std@@@std@@QAE@PAU_Node@?$_Tree_nod@V?$_Tmap_traits@TShaderEnvKey2@Ogre@@PAVD3DShaderTechnique@2@U?$less@TShaderEnvKey2@Ogre@@@std@@V?$allocator@U?$pair@$$CBTShaderEnvKey2@Ogre@@PAVD3DShaderTechnique@2@@std@@@5@$0A@@std@@@2@PBV12@@Z 100095d0 f i OgreD3DMaterialTemplate.obj
 0001:000085d0       ??0iterator@?$_Tree@V?$_Tmap_traits@VFixedString@Ogre@@PAVCompiledShaderGroup@2@U?$less@VFixedString@Ogre@@@std@@V?$allocator@U?$pair@$$CBVFixedString@Ogre@@PAVCompiledShaderGroup@2@@std@@@5@$0A@@std@@@std@@QAE@PAU_Node@?$_Tree_nod@V?$_Tmap_traits@VFixedString@Ogre@@PAVCompiledShaderGroup@2@U?$less@VFixedString@Ogre@@@std@@V?$allocator@U?$pair@$$CBVFixedString@Ogre@@PAVCompiledShaderGroup@2@@std@@@5@$0A@@std@@@2@PBV12@@Z 100095d0 f i OgreD3DMaterialTemplate.obj
 0001:000085d0       ??0iterator@?$_Tree@V?$_Tmap_traits@IPAVHardwarePixelBufferPool@Ogre@@U?$less@I@std@@V?$allocator@U?$pair@$$CBIPAVHardwarePixelBufferPool@Ogre@@@std@@@4@$0A@@std@@@std@@QAE@PAU_Node@?$_Tree_nod@V?$_Tmap_traits@IPAVHardwarePixelBufferPool@Ogre@@U?$less@I@std@@V?$allocator@U?$pair@$$CBIPAVHardwarePixelBufferPool@Ogre@@@std@@@4@$0A@@std@@@2@PBV12@@Z 100095d0 f i OgreD3D9HardwarePixelBuffer.obj
 0001:000085d0       ??0iterator@?$_Tree@V?$_Tmap_traits@TShaderEnvKey@Ogre@@PAVD3DTech@2@U?$less@TShaderEnvKey@Ogre@@@std@@V?$allocator@U?$pair@$$CBTShaderEnvKey@Ogre@@PAVD3DTech@2@@std@@@5@$0A@@std@@@std@@QAE@PAU_Node@?$_Tree_nod@V?$_Tmap_traits@TShaderEnvKey@Ogre@@PAVD3DTech@2@U?$less@TShaderEnvKey@Ogre@@@std@@V?$allocator@U?$pair@$$CBTShaderEnvKey@Ogre@@PAVD3DTech@2@@std@@@5@$0A@@std@@@2@PBV12@@Z 100095d0 f i OgreD3DMaterialTemplate.obj
 0001:000085f0       ?_Destroy@?$vector@PAVD3D9TextureRenderTarget@Ogre@@V?$allocator@PAVD3D9TextureRenderTarget@Ogre@@@std@@@std@@IAEXPAPAVD3D9TextureRenderTarget@Ogre@@0@Z 100095f0 f i OgreD3D9HardwarePixelBuffer.obj
 0001:000085f0       ?_Destroy@?$vector@PAVD3DRenderWindow@Ogre@@V?$allocator@PAVD3DRenderWindow@Ogre@@@std@@@std@@IAEXPAPAVD3DRenderWindow@Ogre@@0@Z 100095f0 f i OgreD3D9RenderSystem.obj
 0001:000085f0       ?_Destroy@?$vector@PAVD3D9VertexDecl@Ogre@@V?$allocator@PAVD3D9VertexDecl@Ogre@@@std@@@std@@IAEXPAPAVD3D9VertexDecl@Ogre@@0@Z 100095f0 f i OgreD3D9RenderSystem.obj
 0001:000085f0       ?_Destroy@?$vector@PAUTechCache@D3DMaterialTemplate@Ogre@@V?$allocator@PAUTechCache@D3DMaterialTemplate@Ogre@@@std@@@std@@IAEXPAPAUTechCache@D3DMaterialTemplate@Ogre@@0@Z 100095f0 f i OgreD3DMaterialTemplate.obj
 0001:000085f0       ?_Destroy@?$vector@PAVCompiledShader@Ogre@@V?$allocator@PAVCompiledShader@Ogre@@@std@@@std@@IAEXPAPAVCompiledShader@Ogre@@0@Z 100095f0 f i OgreD3D9ShaderManager.obj
 0001:000085f0       ?_Destroy@?$vector@DV?$allocator@D@std@@@std@@IAEXPAD0@Z 100095f0 f i OgreD3D9ShaderManager.obj
 0001:000085f0       ?_Destroy@?$vector@PAUD3DDEVCOMBO_T@Ogre@@V?$allocator@PAUD3DDEVCOMBO_T@Ogre@@@std@@@std@@IAEXPAPAUD3DDEVCOMBO_T@Ogre@@0@Z 100095f0 f i OgreD3D9DriverEnum.obj
 0001:000085f0       ?_Destroy@?$vector@PAUD3DDEVICEINFO_T@Ogre@@V?$allocator@PAUD3DDEVICEINFO_T@Ogre@@@std@@@std@@IAEXPAPAUD3DDEVICEINFO_T@Ogre@@0@Z 100095f0 f i OgreD3D9DriverEnum.obj
 0001:000085f0       ?_Destroy@?$vector@IV?$allocator@I@std@@@std@@IAEXPAI0@Z 100095f0 f i OgreD3D9DriverEnum.obj
 0001:000085f0       ?_Destroy@?$vector@PAUD3DADAPTER_T@Ogre@@V?$allocator@PAUD3DADAPTER_T@Ogre@@@std@@@std@@IAEXPAPAUD3DADAPTER_T@Ogre@@0@Z 100095f0 f i OgreD3D9DriverEnum.obj
 0001:000085f0       ?_Destroy@?$vector@PAUTechniqueDesc@Ogre@@V?$allocator@PAUTechniqueDesc@Ogre@@@std@@@std@@IAEXPAPAUTechniqueDesc@Ogre@@0@Z 100095f0 f i OgreD3D9ShaderManager.obj
 0001:000085f0       ?_Destroy@?$vector@PAUIDirect3DBaseTexture9@@V?$allocator@PAUIDirect3DBaseTexture9@@@std@@@std@@IAEXPAPAUIDirect3DBaseTexture9@@0@Z 100095f0 f i OgreD3D9HardwarePixelBuffer.obj
 0001:00008620       ?erase@?$vector@PAVD3D9VertexDecl@Ogre@@V?$allocator@PAVD3D9VertexDecl@Ogre@@@std@@@std@@QAE?AV?$_Vector_iterator@PAVD3D9VertexDecl@Ogre@@V?$allocator@PAVD3D9VertexDecl@Ogre@@@std@@@2@V?$_Vector_const_iterator@PAVD3D9VertexDecl@Ogre@@V?$allocator@PAVD3D9VertexDecl@Ogre@@@std@@@2@0@Z 10009620 f i OgreD3D9RenderSystem.obj
 0001:00008620       ?erase@?$vector@PAVD3D9TextureRenderTarget@Ogre@@V?$allocator@PAVD3D9TextureRenderTarget@Ogre@@@std@@@std@@QAE?AV?$_Vector_iterator@PAVD3D9TextureRenderTarget@Ogre@@V?$allocator@PAVD3D9TextureRenderTarget@Ogre@@@std@@@2@V?$_Vector_const_iterator@PAVD3D9TextureRenderTarget@Ogre@@V?$allocator@PAVD3D9TextureRenderTarget@Ogre@@@std@@@2@0@Z 10009620 f i OgreD3D9HardwarePixelBuffer.obj
 0001:000086c0       ?max_size@?$vector@URTBuffer@D3D9HardwarePixelBufferManager@Ogre@@V?$allocator@URTBuffer@D3D9HardwarePixelBufferManager@Ogre@@@std@@@std@@QBEIXZ 100096c0 f i OgreD3D9HardwarePixelBuffer.obj
 0001:000086c0       ?max_size@?$vector@UDSBuffer@D3D9HardwarePixelBufferManager@Ogre@@V?$allocator@UDSBuffer@D3D9HardwarePixelBufferManager@Ogre@@@std@@@std@@QBEIXZ 100096c0 f i OgreD3D9HardwarePixelBuffer.obj
 0001:000086c0       ?max_size@?$vector@UShaderEnv@Ogre@@V?$allocator@UShaderEnv@Ogre@@@std@@@std@@QBEIXZ 100096c0 f i OgreD3DMaterialTemplate.obj
 0001:000086e0       ?erase@?$vector@URTBuffer@D3D9HardwarePixelBufferManager@Ogre@@V?$allocator@URTBuffer@D3D9HardwarePixelBufferManager@Ogre@@@std@@@std@@QAE?AV?$_Vector_iterator@URTBuffer@D3D9HardwarePixelBufferManager@Ogre@@V?$allocator@URTBuffer@D3D9HardwarePixelBufferManager@Ogre@@@std@@@2@V?$_Vector_const_iterator@URTBuffer@D3D9HardwarePixelBufferManager@Ogre@@V?$allocator@URTBuffer@D3D9HardwarePixelBufferManager@Ogre@@@std@@@2@0@Z 100096e0 f i OgreD3D9HardwarePixelBuffer.obj
 0001:000086e0       ?erase@?$vector@UDSBuffer@D3D9HardwarePixelBufferManager@Ogre@@V?$allocator@UDSBuffer@D3D9HardwarePixelBufferManager@Ogre@@@std@@@std@@QAE?AV?$_Vector_iterator@UDSBuffer@D3D9HardwarePixelBufferManager@Ogre@@V?$allocator@UDSBuffer@D3D9HardwarePixelBufferManager@Ogre@@@std@@@2@V?$_Vector_const_iterator@UDSBuffer@D3D9HardwarePixelBufferManager@Ogre@@V?$allocator@UDSBuffer@D3D9HardwarePixelBufferManager@Ogre@@@std@@@2@0@Z 100096e0 f i OgreD3D9HardwarePixelBuffer.obj
 0001:00008780       ?_Destroy@?$vector@URTBuffer@D3D9HardwarePixelBufferManager@Ogre@@V?$allocator@URTBuffer@D3D9HardwarePixelBufferManager@Ogre@@@std@@@std@@IAEXPAURTBuffer@D3D9HardwarePixelBufferManager@Ogre@@0@Z 10009780 f i OgreD3D9HardwarePixelBuffer.obj
 0001:00008780       ?_Destroy@?$vector@UDSBuffer@D3D9HardwarePixelBufferManager@Ogre@@V?$allocator@UDSBuffer@D3D9HardwarePixelBufferManager@Ogre@@@std@@@std@@IAEXPAUDSBuffer@D3D9HardwarePixelBufferManager@Ogre@@0@Z 10009780 f i OgreD3D9HardwarePixelBuffer.obj
 0001:00008780       ?_Destroy@?$vector@UShaderEnv@Ogre@@V?$allocator@UShaderEnv@Ogre@@@std@@@std@@IAEXPAUShaderEnv@Ogre@@0@Z 10009780 f i OgreD3DMaterialTemplate.obj
 0001:000087b0       ?_Insert_n@?$vector@URTBuffer@D3D9HardwarePixelBufferManager@Ogre@@V?$allocator@URTBuffer@D3D9HardwarePixelBufferManager@Ogre@@@std@@@std@@IAEXV?$_Vector_const_iterator@URTBuffer@D3D9HardwarePixelBufferManager@Ogre@@V?$allocator@URTBuffer@D3D9HardwarePixelBufferManager@Ogre@@@std@@@2@IABURTBuffer@D3D9HardwarePixelBufferManager@Ogre@@@Z 100097b0 f i OgreD3D9HardwarePixelBuffer.obj
 0001:000087b0       ?_Insert_n@?$vector@UDSBuffer@D3D9HardwarePixelBufferManager@Ogre@@V?$allocator@UDSBuffer@D3D9HardwarePixelBufferManager@Ogre@@@std@@@std@@IAEXV?$_Vector_const_iterator@UDSBuffer@D3D9HardwarePixelBufferManager@Ogre@@V?$allocator@UDSBuffer@D3D9HardwarePixelBufferManager@Ogre@@@std@@@2@IABUDSBuffer@D3D9HardwarePixelBufferManager@Ogre@@@Z 100097b0 f i OgreD3D9HardwarePixelBuffer.obj
 0001:00008bb0       ??$?0U?$pair@$$CBTShaderEnvKey@Ogre@@PAVCompiledShader@2@@std@@@?$allocator@PAU_Node@?$_Tree_nod@V?$_Tmap_traits@TShaderEnvKey@Ogre@@PAVCompiledShader@2@U?$less@TShaderEnvKey@Ogre@@@std@@V?$allocator@U?$pair@$$CBTShaderEnvKey@Ogre@@PAVCompiledShader@2@@std@@@5@$0A@@std@@@std@@@std@@QAE@ABV?$allocator@U?$pair@$$CBTShaderEnvKey@Ogre@@PAVCompiledShader@2@@std@@@1@@Z 10009bb0 f i OgreD3D9ShaderManager.obj
 0001:00008bb0       ??$?0PAVD3DRenderWindow@Ogre@@@?$allocator@V_Aux_cont@std@@@std@@QAE@ABV?$allocator@PAVD3DRenderWindow@Ogre@@@1@@Z 10009bb0 f i OgreD3D9RenderSystem.obj
 0001:00008bb0       ??$?0I@?$allocator@V_Aux_cont@std@@@std@@QAE@ABV?$allocator@I@1@@Z 10009bb0 f i OgreD3D9DriverEnum.obj
 0001:00008bb0       ??$?0W4_D3DMULTISAMPLE_TYPE@@@?$allocator@V_Aux_cont@std@@@std@@QAE@ABV?$allocator@W4_D3DMULTISAMPLE_TYPE@@@1@@Z 10009bb0 f i OgreD3D9DriverEnum.obj
 0001:00008bb0       ??$?0U?$pair@$$CBTShaderEnvKey@Ogre@@PAVCompiledShader@2@@std@@@?$allocator@U_Node@?$_Tree_nod@V?$_Tmap_traits@TShaderEnvKey@Ogre@@PAVCompiledShader@2@U?$less@TShaderEnvKey@Ogre@@@std@@V?$allocator@U?$pair@$$CBTShaderEnvKey@Ogre@@PAVCompiledShader@2@@std@@@5@$0A@@std@@@std@@@std@@QAE@ABV?$allocator@U?$pair@$$CBTShaderEnvKey@Ogre@@PAVCompiledShader@2@@std@@@1@@Z 10009bb0 f i OgreD3D9ShaderManager.obj
 0001:00008bb0       ??0?$allocator@U?$pair@$$CBTShaderEnvKey2@Ogre@@PAVD3DShaderTechnique@2@@std@@@std@@QAE@ABV01@@Z 10009bb0 f i OgreD3DMaterialTemplate.obj
 0001:00008bb0       ??0?$allocator@PAUD3DADAPTER_T@Ogre@@@std@@QAE@ABV01@@Z 10009bb0 f i OgreD3D9DriverEnum.obj
 0001:00008bb0       ??$?0PAUTechniqueDesc@Ogre@@@?$allocator@V_Aux_cont@std@@@std@@QAE@ABV?$allocator@PAUTechniqueDesc@Ogre@@@1@@Z 10009bb0 f i OgreD3D9ShaderManager.obj
 0001:00008bb0       ??$?0PAUD3DDEVCOMBO_T@Ogre@@@?$allocator@V_Aux_cont@std@@@std@@QAE@ABV?$allocator@PAUD3DDEVCOMBO_T@Ogre@@@1@@Z 10009bb0 f i OgreD3D9DriverEnum.obj
 0001:00008bb0       ??$?0W4_D3DFORMAT@@@?$allocator@V_Aux_cont@std@@@std@@QAE@ABV?$allocator@W4_D3DFORMAT@@@1@@Z 10009bb0 f i OgreD3D9DriverEnum.obj
 0001:00008bb0       ??0?$allocator@W4_D3DFORMAT@@@std@@QAE@ABV01@@Z 10009bb0 f i OgreD3D9DriverEnum.obj
 0001:00008bb0       ??$?0U?$pair@$$CBVFixedString@Ogre@@PAVCompiledShaderGroup@2@@std@@@?$allocator@V_Aux_cont@std@@@std@@QAE@ABV?$allocator@U?$pair@$$CBVFixedString@Ogre@@PAVCompiledShaderGroup@2@@std@@@1@@Z 10009bb0 f i OgreD3DMaterialTemplate.obj
 0001:00008bb0       ??$?0PAUTechCache@D3DMaterialTemplate@Ogre@@@?$allocator@V_Aux_cont@std@@@std@@QAE@ABV?$allocator@PAUTechCache@D3DMaterialTemplate@Ogre@@@1@@Z 10009bb0 f i OgreD3DMaterialTemplate.obj
 0001:00008bb0       ??0?$allocator@U_D3DDISPLAYMODE@@@std@@QAE@ABV01@@Z 10009bb0 f i OgreD3D9DriverEnum.obj
 0001:00008bb0       ??$?0PAUD3DADAPTER_T@Ogre@@@?$allocator@V_Aux_cont@std@@@std@@QAE@ABV?$allocator@PAUD3DADAPTER_T@Ogre@@@1@@Z 10009bb0 f i OgreD3D9DriverEnum.obj
 0001:00008bb0       ??$?0U?$pair@$$CBVFixedString@Ogre@@PAVCompiledShaderGroup@2@@std@@@?$allocator@PAU_Node@?$_Tree_nod@V?$_Tmap_traits@VFixedString@Ogre@@PAVCompiledShaderGroup@2@U?$less@VFixedString@Ogre@@@std@@V?$allocator@U?$pair@$$CBVFixedString@Ogre@@PAVCompiledShaderGroup@2@@std@@@5@$0A@@std@@@std@@@std@@QAE@ABV?$allocator@U?$pair@$$CBVFixedString@Ogre@@PAVCompiledShaderGroup@2@@std@@@1@@Z 10009bb0 f i OgreD3DMaterialTemplate.obj
 0001:00008bb0       ??0?$allocator@PAVD3D9TextureRenderTarget@Ogre@@@std@@QAE@ABV01@@Z 10009bb0 f i OgreD3D9HardwarePixelBuffer.obj
 0001:00008bb0       ??0?$allocator@PAUD3DDEVCOMBO_T@Ogre@@@std@@QAE@ABV01@@Z 10009bb0 f i OgreD3D9DriverEnum.obj
 0001:00008bb0       ??$?0U?$pair@$$CBVFixedString@Ogre@@PAVCompiledShaderGroup@2@@std@@@?$allocator@U_Node@?$_Tree_nod@V?$_Tmap_traits@VFixedString@Ogre@@PAVCompiledShaderGroup@2@U?$less@VFixedString@Ogre@@@std@@V?$allocator@U?$pair@$$CBVFixedString@Ogre@@PAVCompiledShaderGroup@2@@std@@@5@$0A@@std@@@std@@@std@@QAE@ABV?$allocator@U?$pair@$$CBVFixedString@Ogre@@PAVCompiledShaderGroup@2@@std@@@1@@Z 10009bb0 f i OgreD3DMaterialTemplate.obj
 0001:00008bb0       ??0?$allocator@U?$pair@$$CBVFixedString@Ogre@@PAVCompiledShaderGroup@2@@std@@@std@@QAE@ABV01@@Z 10009bb0 f i OgreD3DMaterialTemplate.obj
 0001:00008bb0       ??0?$allocator@W4VERTPROCESS_T@Ogre@@@std@@QAE@ABV01@@Z 10009bb0 f i OgreD3D9DriverEnum.obj
 0001:00008bb0       ??$?0U?$pair@$$CBTShaderEnvKey@Ogre@@PAVD3DTech@2@@std@@@?$allocator@PAU_Node@?$_Tree_nod@V?$_Tmap_traits@TShaderEnvKey@Ogre@@PAVD3DTech@2@U?$less@TShaderEnvKey@Ogre@@@std@@V?$allocator@U?$pair@$$CBTShaderEnvKey@Ogre@@PAVD3DTech@2@@std@@@5@$0A@@std@@@std@@@std@@QAE@ABV?$allocator@U?$pair@$$CBTShaderEnvKey@Ogre@@PAVD3DTech@2@@std@@@1@@Z 10009bb0 f i OgreD3DMaterialTemplate.obj
 0001:00008bb0       ??0?$allocator@UD3DSMSCONFLICT_T@Ogre@@@std@@QAE@ABV01@@Z 10009bb0 f i OgreD3D9DriverEnum.obj
 0001:00008bb0       ??$?0UPassDesc@Ogre@@@?$allocator@V_Aux_cont@std@@@std@@QAE@ABV?$allocator@UPassDesc@Ogre@@@1@@Z 10009bb0 f i OgreD3D9ShaderManager.obj
 0001:00008bb0       ??$?0U_D3DXMACRO@@@?$allocator@V_Aux_cont@std@@@std@@QAE@ABV?$allocator@U_D3DXMACRO@@@1@@Z 10009bb0 f i OgreD3D9ShaderManager.obj
 0001:00008bb0       ??0?$allocator@U?$pair@$$CBTShaderEnvKey@Ogre@@PAVD3DTech@2@@std@@@std@@QAE@ABV01@@Z 10009bb0 f i OgreD3DMaterialTemplate.obj
 0001:00008bb0       ??0?$allocator@PAVD3DRenderWindow@Ogre@@@std@@QAE@ABV01@@Z 10009bb0 f i OgreD3D9RenderSystem.obj
 0001:00008bb0       ??$?0PAUD3DDEVICEINFO_T@Ogre@@@?$allocator@V_Aux_cont@std@@@std@@QAE@ABV?$allocator@PAUD3DDEVICEINFO_T@Ogre@@@1@@Z 10009bb0 f i OgreD3D9DriverEnum.obj
 0001:00008bb0       ??$?0U?$pair@$$CBTShaderEnvKey2@Ogre@@PAVD3DShaderTechnique@2@@std@@@?$allocator@V_Aux_cont@std@@@std@@QAE@ABV?$allocator@U?$pair@$$CBTShaderEnvKey2@Ogre@@PAVD3DShaderTechnique@2@@std@@@1@@Z 10009bb0 f i OgreD3DMaterialTemplate.obj
 0001:00008bb0       ??0?$allocator@W4_D3DMULTISAMPLE_TYPE@@@std@@QAE@ABV01@@Z 10009bb0 f i OgreD3D9DriverEnum.obj
 0001:00008bb0       ??$?0W4VERTPROCESS_T@Ogre@@@?$allocator@V_Aux_cont@std@@@std@@QAE@ABV?$allocator@W4VERTPROCESS_T@Ogre@@@1@@Z 10009bb0 f i OgreD3D9DriverEnum.obj
 0001:00008bb0       ??$?0URTBuffer@D3D9HardwarePixelBufferManager@Ogre@@@?$allocator@V_Aux_cont@std@@@std@@QAE@ABV?$allocator@URTBuffer@D3D9HardwarePixelBufferManager@Ogre@@@1@@Z 10009bb0 f i OgreD3D9HardwarePixelBuffer.obj
 0001:00008bb0       ??0?$allocator@U?$pair@$$CBTShaderEnvKey@Ogre@@PAVCompiledShader@2@@std@@@std@@QAE@ABV01@@Z 10009bb0 f i OgreD3D9ShaderManager.obj
 0001:00008bb0       ??0?$allocator@U_D3DXMACRO@@@std@@QAE@ABV01@@Z 10009bb0 f i OgreD3D9ShaderManager.obj
 0001:00008bb0       ??$?0U?$pair@$$CBTShaderEnvKey2@Ogre@@PAVD3DShaderTechnique@2@@std@@@?$allocator@U_Node@?$_Tree_nod@V?$_Tmap_traits@TShaderEnvKey2@Ogre@@PAVD3DShaderTechnique@2@U?$less@TShaderEnvKey2@Ogre@@@std@@V?$allocator@U?$pair@$$CBTShaderEnvKey2@Ogre@@PAVD3DShaderTechnique@2@@std@@@5@$0A@@std@@@std@@@std@@QAE@ABV?$allocator@U?$pair@$$CBTShaderEnvKey2@Ogre@@PAVD3DShaderTechnique@2@@std@@@1@@Z 10009bb0 f i OgreD3DMaterialTemplate.obj
 0001:00008bb0       ??0?$allocator@PAVCompiledShader@Ogre@@@std@@QAE@ABV01@@Z 10009bb0 f i OgreD3D9ShaderManager.obj
 0001:00008bb0       ??$?0PAVD3D9TextureRenderTarget@Ogre@@@?$allocator@V_Aux_cont@std@@@std@@QAE@ABV?$allocator@PAVD3D9TextureRenderTarget@Ogre@@@1@@Z 10009bb0 f i OgreD3D9HardwarePixelBuffer.obj
 0001:00008bb0       ??0?$allocator@I@std@@QAE@ABV01@@Z 10009bb0 f i OgreD3D9DriverEnum.obj
 0001:00008bb0       ??0?$allocator@PAVD3D9VertexDecl@Ogre@@@std@@QAE@ABV01@@Z 10009bb0 f i OgreD3D9RenderSystem.obj
 0001:00008bb0       ??0?$allocator@TShaderEnvKey@Ogre@@@std@@QAE@ABV01@@Z 10009bb0 f i OgreD3D9ShaderManager.obj
 0001:00008bb0       ??$?0U?$pair@$$CBTShaderEnvKey@Ogre@@PAVD3DTech@2@@std@@@?$allocator@V_Aux_cont@std@@@std@@QAE@ABV?$allocator@U?$pair@$$CBTShaderEnvKey@Ogre@@PAVD3DTech@2@@std@@@1@@Z 10009bb0 f i OgreD3DMaterialTemplate.obj
 0001:00008bb0       ??$?0PAUIDirect3DBaseTexture9@@@?$allocator@V_Aux_cont@std@@@std@@QAE@ABV?$allocator@PAUIDirect3DBaseTexture9@@@1@@Z 10009bb0 f i OgreD3D9HardwarePixelBuffer.obj
 0001:00008bb0       ??0?$allocator@PAUD3DDEVICEINFO_T@Ogre@@@std@@QAE@ABV01@@Z 10009bb0 f i OgreD3D9DriverEnum.obj
 0001:00008bb0       ??$?0U_D3DDISPLAYMODE@@@?$allocator@V_Aux_cont@std@@@std@@QAE@ABV?$allocator@U_D3DDISPLAYMODE@@@1@@Z 10009bb0 f i OgreD3D9DriverEnum.obj
 0001:00008bb0       ??$?0U?$pair@$$CBTShaderEnvKey@Ogre@@PAVD3DTech@2@@std@@@?$allocator@U_Node@?$_Tree_nod@V?$_Tmap_traits@TShaderEnvKey@Ogre@@PAVD3DTech@2@U?$less@TShaderEnvKey@Ogre@@@std@@V?$allocator@U?$pair@$$CBTShaderEnvKey@Ogre@@PAVD3DTech@2@@std@@@5@$0A@@std@@@std@@@std@@QAE@ABV?$allocator@U?$pair@$$CBTShaderEnvKey@Ogre@@PAVD3DTech@2@@std@@@1@@Z 10009bb0 f i OgreD3DMaterialTemplate.obj
 0001:00008bb0       ??0?$allocator@UPassData@D3DShaderTechnique@Ogre@@@std@@QAE@ABV01@@Z 10009bb0 f i OgreD3D9ShaderManager.obj
 0001:00008bb0       ??0?$allocator@PAUIDirect3DBaseTexture9@@@std@@QAE@ABV01@@Z 10009bb0 f i OgreD3D9HardwarePixelBuffer.obj
 0001:00008bb0       ??$?0PAVD3D9VertexDecl@Ogre@@@?$allocator@V_Aux_cont@std@@@std@@QAE@ABV?$allocator@PAVD3D9VertexDecl@Ogre@@@1@@Z 10009bb0 f i OgreD3D9RenderSystem.obj
 0001:00008bb0       ??0?$allocator@PAUTechCache@D3DMaterialTemplate@Ogre@@@std@@QAE@ABV01@@Z 10009bb0 f i OgreD3DMaterialTemplate.obj
 0001:00008bb0       ??$?0D@?$allocator@V_Aux_cont@std@@@std@@QAE@ABV?$allocator@D@1@@Z 10009bb0 f i OgreD3D9ShaderManager.obj
 0001:00008bb0       ??$?0U?$pair@$$CBTShaderEnvKey2@Ogre@@PAVD3DShaderTechnique@2@@std@@@?$allocator@PAU_Node@?$_Tree_nod@V?$_Tmap_traits@TShaderEnvKey2@Ogre@@PAVD3DShaderTechnique@2@U?$less@TShaderEnvKey2@Ogre@@@std@@V?$allocator@U?$pair@$$CBTShaderEnvKey2@Ogre@@PAVD3DShaderTechnique@2@@std@@@5@$0A@@std@@@std@@@std@@QAE@ABV?$allocator@U?$pair@$$CBTShaderEnvKey2@Ogre@@PAVD3DShaderTechnique@2@@std@@@1@@Z 10009bb0 f i OgreD3DMaterialTemplate.obj
 0001:00008bb0       ??0?$allocator@URTBuffer@D3D9HardwarePixelBufferManager@Ogre@@@std@@QAE@ABV01@@Z 10009bb0 f i OgreD3D9HardwarePixelBuffer.obj
 0001:00008bb0       ??0?$allocator@PAUTechniqueDesc@Ogre@@@std@@QAE@ABV01@@Z 10009bb0 f i OgreD3D9ShaderManager.obj
 0001:00008bb0       ??$?0UD3DSMSCONFLICT_T@Ogre@@@?$allocator@V_Aux_cont@std@@@std@@QAE@ABV?$allocator@UD3DSMSCONFLICT_T@Ogre@@@1@@Z 10009bb0 f i OgreD3D9DriverEnum.obj
 0001:00008bb0       ??$?0TShaderEnvKey@Ogre@@@?$allocator@V_Aux_cont@std@@@std@@QAE@ABV?$allocator@TShaderEnvKey@Ogre@@@1@@Z 10009bb0 f i OgreD3D9ShaderManager.obj
 0001:00008bb0       ??$?0UDSBuffer@D3D9HardwarePixelBufferManager@Ogre@@@?$allocator@V_Aux_cont@std@@@std@@QAE@ABV?$allocator@UDSBuffer@D3D9HardwarePixelBufferManager@Ogre@@@1@@Z 10009bb0 f i OgreD3D9HardwarePixelBuffer.obj
 0001:00008bb0       ??$?0UPassData@D3DShaderTechnique@Ogre@@@?$allocator@V_Aux_cont@std@@@std@@QAE@ABV?$allocator@UPassData@D3DShaderTechnique@Ogre@@@1@@Z 10009bb0 f i OgreD3D9ShaderManager.obj
 0001:00008bb0       ??0?$allocator@UDSBuffer@D3D9HardwarePixelBufferManager@Ogre@@@std@@QAE@ABV01@@Z 10009bb0 f i OgreD3D9HardwarePixelBuffer.obj
 0001:00008bb0       ??$?0U?$pair@$$CBTShaderEnvKey@Ogre@@PAVCompiledShader@2@@std@@@?$allocator@V_Aux_cont@std@@@std@@QAE@ABV?$allocator@U?$pair@$$CBTShaderEnvKey@Ogre@@PAVCompiledShader@2@@std@@@1@@Z 10009bb0 f i OgreD3D9ShaderManager.obj
 0001:00008bb0       ??$?0PAVCompiledShader@Ogre@@@?$allocator@V_Aux_cont@std@@@std@@QAE@ABV?$allocator@PAVCompiledShader@Ogre@@@1@@Z 10009bb0 f i OgreD3D9ShaderManager.obj
 0001:00008bb0       ??0?$allocator@UPassDesc@Ogre@@@std@@QAE@ABV01@@Z 10009bb0 f i OgreD3D9ShaderManager.obj
 0001:00008bc0       ??0const_iterator@?$_Tree@V?$_Tmap_traits@TShaderEnvKey2@Ogre@@PAVD3DShaderTechnique@2@U?$less@TShaderEnvKey2@Ogre@@@std@@V?$allocator@U?$pair@$$CBTShaderEnvKey2@Ogre@@PAVD3DShaderTechnique@2@@std@@@5@$0A@@std@@@std@@QAE@PAU_Node@?$_Tree_nod@V?$_Tmap_traits@TShaderEnvKey2@Ogre@@PAVD3DShaderTechnique@2@U?$less@TShaderEnvKey2@Ogre@@@std@@V?$allocator@U?$pair@$$CBTShaderEnvKey2@Ogre@@PAVD3DShaderTechnique@2@@std@@@5@$0A@@std@@@2@PBV12@@Z 10009bc0 f i OgreD3DMaterialTemplate.obj
 0001:00008bc0       ??0const_iterator@?$_Tree@V?$_Tmap_traits@IPAVHardwarePixelBufferPool@Ogre@@U?$less@I@std@@V?$allocator@U?$pair@$$CBIPAVHardwarePixelBufferPool@Ogre@@@std@@@4@$0A@@std@@@std@@QAE@PAU_Node@?$_Tree_nod@V?$_Tmap_traits@IPAVHardwarePixelBufferPool@Ogre@@U?$less@I@std@@V?$allocator@U?$pair@$$CBIPAVHardwarePixelBufferPool@Ogre@@@std@@@4@$0A@@std@@@2@PBV12@@Z 10009bc0 f i OgreD3D9HardwarePixelBuffer.obj
 0001:00008bc0       ??0const_iterator@?$_Tree@V?$_Tmap_traits@IPAVHardwareBufferPool@Ogre@@U?$less@I@std@@V?$allocator@U?$pair@$$CBIPAVHardwareBufferPool@Ogre@@@std@@@4@$0A@@std@@@std@@QAE@PAU_Node@?$_Tree_nod@V?$_Tmap_traits@IPAVHardwareBufferPool@Ogre@@U?$less@I@std@@V?$allocator@U?$pair@$$CBIPAVHardwareBufferPool@Ogre@@@std@@@4@$0A@@std@@@2@PBV12@@Z 10009bc0 f i OgreD3DHardwareBuffer.obj
 0001:00008bc0       ??0const_iterator@?$_Tree@V?$_Tmap_traits@VFixedString@Ogre@@PAVMaterialTemplate@2@U?$less@VFixedString@Ogre@@@std@@V?$allocator@U?$pair@$$CBVFixedString@Ogre@@PAVMaterialTemplate@2@@std@@@5@$0A@@std@@@std@@QAE@PAU_Node@?$_Tree_nod@V?$_Tmap_traits@VFixedString@Ogre@@PAVMaterialTemplate@2@U?$less@VFixedString@Ogre@@@std@@V?$allocator@U?$pair@$$CBVFixedString@Ogre@@PAVMaterialTemplate@2@@std@@@5@$0A@@std@@@2@PBV12@@Z 10009bc0 f i OgreD3DMaterialTemplate.obj
 0001:00008bc0       ??0const_iterator@?$_Tree@V?$_Tmap_traits@TShaderEnvKey@Ogre@@PAVCompiledShader@2@U?$less@TShaderEnvKey@Ogre@@@std@@V?$allocator@U?$pair@$$CBTShaderEnvKey@Ogre@@PAVCompiledShader@2@@std@@@5@$0A@@std@@@std@@QAE@PAU_Node@?$_Tree_nod@V?$_Tmap_traits@TShaderEnvKey@Ogre@@PAVCompiledShader@2@U?$less@TShaderEnvKey@Ogre@@@std@@V?$allocator@U?$pair@$$CBTShaderEnvKey@Ogre@@PAVCompiledShader@2@@std@@@5@$0A@@std@@@2@PBV12@@Z 10009bc0 f i OgreD3D9ShaderManager.obj
 0001:00008bc0       ??0const_iterator@?$_Tree@V?$_Tmap_traits@VFixedString@Ogre@@PAVCompiledShaderGroup@2@U?$less@VFixedString@Ogre@@@std@@V?$allocator@U?$pair@$$CBVFixedString@Ogre@@PAVCompiledShaderGroup@2@@std@@@5@$0A@@std@@@std@@QAE@PAU_Node@?$_Tree_nod@V?$_Tmap_traits@VFixedString@Ogre@@PAVCompiledShaderGroup@2@U?$less@VFixedString@Ogre@@@std@@V?$allocator@U?$pair@$$CBVFixedString@Ogre@@PAVCompiledShaderGroup@2@@std@@@5@$0A@@std@@@2@PBV12@@Z 10009bc0 f i OgreD3DMaterialTemplate.obj
 0001:00008bc0       ??0const_iterator@?$_Tree@V?$_Tmap_traits@TShaderEnvKey@Ogre@@PAVD3DTech@2@U?$less@TShaderEnvKey@Ogre@@@std@@V?$allocator@U?$pair@$$CBTShaderEnvKey@Ogre@@PAVD3DTech@2@@std@@@5@$0A@@std@@@std@@QAE@PAU_Node@?$_Tree_nod@V?$_Tmap_traits@TShaderEnvKey@Ogre@@PAVD3DTech@2@U?$less@TShaderEnvKey@Ogre@@@std@@V?$allocator@U?$pair@$$CBTShaderEnvKey@Ogre@@PAVD3DTech@2@@std@@@5@$0A@@std@@@2@PBV12@@Z 10009bc0 f i OgreD3DMaterialTemplate.obj
 0001:00008c00       ??H?$_Vector_iterator@UShaderEnv@Ogre@@V?$allocator@UShaderEnv@Ogre@@@std@@@std@@QBE?AV01@H@Z 10009c00 f i OgreD3DMaterialTemplate.obj
 0001:00008c00       ??H?$_Vector_iterator@UDSBuffer@D3D9HardwarePixelBufferManager@Ogre@@V?$allocator@UDSBuffer@D3D9HardwarePixelBufferManager@Ogre@@@std@@@std@@QBE?AV01@H@Z 10009c00 f i OgreD3D9HardwarePixelBuffer.obj
 0001:00008c00       ??H?$_Vector_iterator@URTBuffer@D3D9HardwarePixelBufferManager@Ogre@@V?$allocator@URTBuffer@D3D9HardwarePixelBufferManager@Ogre@@@std@@@std@@QBE?AV01@H@Z 10009c00 f i OgreD3D9HardwarePixelBuffer.obj
 0001:00008c40       ??G?$_Vector_const_iterator@URTBuffer@D3D9HardwarePixelBufferManager@Ogre@@V?$allocator@URTBuffer@D3D9HardwarePixelBufferManager@Ogre@@@std@@@std@@QBEHABV01@@Z 10009c40 f i OgreD3D9HardwarePixelBuffer.obj
 0001:00008c40       ??G?$_Vector_const_iterator@UDSBuffer@D3D9HardwarePixelBufferManager@Ogre@@V?$allocator@UDSBuffer@D3D9HardwarePixelBufferManager@Ogre@@@std@@@std@@QBEHABV01@@Z 10009c40 f i OgreD3D9HardwarePixelBuffer.obj
 0001:00008c40       ??G?$_Vector_const_iterator@UShaderEnv@Ogre@@V?$allocator@UShaderEnv@Ogre@@@std@@@std@@QBEHABV01@@Z 10009c40 f i OgreD3DMaterialTemplate.obj
 0001:00008c90       ?_Make_iter@?$vector@URTBuffer@D3D9HardwarePixelBufferManager@Ogre@@V?$allocator@URTBuffer@D3D9HardwarePixelBufferManager@Ogre@@@std@@@std@@QBE?AV?$_Vector_iterator@URTBuffer@D3D9HardwarePixelBufferManager@Ogre@@V?$allocator@URTBuffer@D3D9HardwarePixelBufferManager@Ogre@@@std@@@2@V?$_Vector_const_iterator@URTBuffer@D3D9HardwarePixelBufferManager@Ogre@@V?$allocator@URTBuffer@D3D9HardwarePixelBufferManager@Ogre@@@std@@@2@@Z 10009c90 f i OgreD3D9HardwarePixelBuffer.obj
 0001:00008c90       ?_Make_iter@?$vector@PAVD3DRenderWindow@Ogre@@V?$allocator@PAVD3DRenderWindow@Ogre@@@std@@@std@@QBE?AV?$_Vector_iterator@PAVD3DRenderWindow@Ogre@@V?$allocator@PAVD3DRenderWindow@Ogre@@@std@@@2@V?$_Vector_const_iterator@PAVD3DRenderWindow@Ogre@@V?$allocator@PAVD3DRenderWindow@Ogre@@@std@@@2@@Z 10009c90 f i OgreD3D9RenderSystem.obj
 0001:00008c90       ?_Make_iter@?$vector@UDSBuffer@D3D9HardwarePixelBufferManager@Ogre@@V?$allocator@UDSBuffer@D3D9HardwarePixelBufferManager@Ogre@@@std@@@std@@QBE?AV?$_Vector_iterator@UDSBuffer@D3D9HardwarePixelBufferManager@Ogre@@V?$allocator@UDSBuffer@D3D9HardwarePixelBufferManager@Ogre@@@std@@@2@V?$_Vector_const_iterator@UDSBuffer@D3D9HardwarePixelBufferManager@Ogre@@V?$allocator@UDSBuffer@D3D9HardwarePixelBufferManager@Ogre@@@std@@@2@@Z 10009c90 f i OgreD3D9HardwarePixelBuffer.obj
 0001:00008c90       ?_Make_iter@?$vector@UPassData@D3DShaderTechnique@Ogre@@V?$allocator@UPassData@D3DShaderTechnique@Ogre@@@std@@@std@@QBE?AV?$_Vector_iterator@UPassData@D3DShaderTechnique@Ogre@@V?$allocator@UPassData@D3DShaderTechnique@Ogre@@@std@@@2@V?$_Vector_const_iterator@UPassData@D3DShaderTechnique@Ogre@@V?$allocator@UPassData@D3DShaderTechnique@Ogre@@@std@@@2@@Z 10009c90 f i OgreD3D9ShaderManager.obj
 0001:00008c90       ?_Make_iter@?$vector@DV?$allocator@D@std@@@std@@QBE?AV?$_Vector_iterator@DV?$allocator@D@std@@@2@V?$_Vector_const_iterator@DV?$allocator@D@std@@@2@@Z 10009c90 f i OgreD3D9ShaderManager.obj
 0001:00008c90       ?_Make_iter@?$vector@UPassDesc@Ogre@@V?$allocator@UPassDesc@Ogre@@@std@@@std@@QBE?AV?$_Vector_iterator@UPassDesc@Ogre@@V?$allocator@UPassDesc@Ogre@@@std@@@2@V?$_Vector_const_iterator@UPassDesc@Ogre@@V?$allocator@UPassDesc@Ogre@@@std@@@2@@Z 10009c90 f i OgreD3D9ShaderManager.obj
 0001:00008c90       ?_Make_iter@?$vector@PAVD3D9TextureRenderTarget@Ogre@@V?$allocator@PAVD3D9TextureRenderTarget@Ogre@@@std@@@std@@QBE?AV?$_Vector_iterator@PAVD3D9TextureRenderTarget@Ogre@@V?$allocator@PAVD3D9TextureRenderTarget@Ogre@@@std@@@2@V?$_Vector_const_iterator@PAVD3D9TextureRenderTarget@Ogre@@V?$allocator@PAVD3D9TextureRenderTarget@Ogre@@@std@@@2@@Z 10009c90 f i OgreD3D9HardwarePixelBuffer.obj
 0001:00008c90       ?_Make_iter@?$vector@PAVD3D9VertexDecl@Ogre@@V?$allocator@PAVD3D9VertexDecl@Ogre@@@std@@@std@@QBE?AV?$_Vector_iterator@PAVD3D9VertexDecl@Ogre@@V?$allocator@PAVD3D9VertexDecl@Ogre@@@std@@@2@V?$_Vector_const_iterator@PAVD3D9VertexDecl@Ogre@@V?$allocator@PAVD3D9VertexDecl@Ogre@@@std@@@2@@Z 10009c90 f i OgreD3D9RenderSystem.obj
 0001:00008cb0       ??$remove@V?$_Vector_iterator@PAVD3D9TextureRenderTarget@Ogre@@V?$allocator@PAVD3D9TextureRenderTarget@Ogre@@@std@@@std@@PAVD3D9TextureRenderTarget@Ogre@@@std@@YA?AV?$_Vector_iterator@PAVD3D9TextureRenderTarget@Ogre@@V?$allocator@PAVD3D9TextureRenderTarget@Ogre@@@std@@@0@V10@0ABQAVD3D9TextureRenderTarget@Ogre@@@Z 10009cb0 f i OgreD3D9HardwarePixelBuffer.obj
 0001:00008d50       ??$unchecked_uninitialized_fill_n@PAUShaderEnv@Ogre@@IU12@V?$allocator@UShaderEnv@Ogre@@@std@@@stdext@@YAXPAUShaderEnv@Ogre@@IABU12@AAV?$allocator@UShaderEnv@Ogre@@@std@@@Z 10009d50 f i OgreD3DMaterialTemplate.obj
 0001:00008d50       ??$unchecked_uninitialized_fill_n@PAUDSBuffer@D3D9HardwarePixelBufferManager@Ogre@@IU123@V?$allocator@UDSBuffer@D3D9HardwarePixelBufferManager@Ogre@@@std@@@stdext@@YAXPAUDSBuffer@D3D9HardwarePixelBufferManager@Ogre@@IABU123@AAV?$allocator@UDSBuffer@D3D9HardwarePixelBufferManager@Ogre@@@std@@@Z 10009d50 f i OgreD3D9HardwarePixelBuffer.obj
 0001:00008d50       ??$unchecked_uninitialized_fill_n@PAURTBuffer@D3D9HardwarePixelBufferManager@Ogre@@IU123@V?$allocator@URTBuffer@D3D9HardwarePixelBufferManager@Ogre@@@std@@@stdext@@YAXPAURTBuffer@D3D9HardwarePixelBufferManager@Ogre@@IABU123@AAV?$allocator@URTBuffer@D3D9HardwarePixelBufferManager@Ogre@@@std@@@Z 10009d50 f i OgreD3D9HardwarePixelBuffer.obj
 0001:00008da0       ??$_Destroy_range@V?$allocator@PAVD3D9VertexDecl@Ogre@@@std@@@std@@YAXPAPAVD3D9VertexDecl@Ogre@@0AAV?$allocator@PAVD3D9VertexDecl@Ogre@@@0@@Z 10009da0 f i OgreD3D9RenderSystem.obj
 0001:00008da0       ??$_Destroy_range@V?$allocator@PAUD3DDEVICEINFO_T@Ogre@@@std@@@std@@YAXPAPAUD3DDEVICEINFO_T@Ogre@@0AAV?$allocator@PAUD3DDEVICEINFO_T@Ogre@@@0@@Z 10009da0 f i OgreD3D9DriverEnum.obj
 0001:00008da0       ??$_Destroy_range@V?$allocator@PAVCompiledShader@Ogre@@@std@@@std@@YAXPAPAVCompiledShader@Ogre@@0AAV?$allocator@PAVCompiledShader@Ogre@@@0@@Z 10009da0 f i OgreD3D9ShaderManager.obj
 0001:00008da0       ??$_Destroy_range@V?$allocator@PAUTechniqueDesc@Ogre@@@std@@@std@@YAXPAPAUTechniqueDesc@Ogre@@0AAV?$allocator@PAUTechniqueDesc@Ogre@@@0@@Z 10009da0 f i OgreD3D9ShaderManager.obj
 0001:00008da0       ??$_Destroy_range@V?$allocator@PAUD3DADAPTER_T@Ogre@@@std@@@std@@YAXPAPAUD3DADAPTER_T@Ogre@@0AAV?$allocator@PAUD3DADAPTER_T@Ogre@@@0@@Z 10009da0 f i OgreD3D9DriverEnum.obj
 0001:00008da0       ??$_Destroy_range@V?$allocator@PAVD3D9TextureRenderTarget@Ogre@@@std@@@std@@YAXPAPAVD3D9TextureRenderTarget@Ogre@@0AAV?$allocator@PAVD3D9TextureRenderTarget@Ogre@@@0@@Z 10009da0 f i OgreD3D9HardwarePixelBuffer.obj
 0001:00008da0       ??$_Destroy_range@V?$allocator@PAUIDirect3DBaseTexture9@@@std@@@std@@YAXPAPAUIDirect3DBaseTexture9@@0AAV?$allocator@PAUIDirect3DBaseTexture9@@@0@@Z 10009da0 f i OgreD3D9HardwarePixelBuffer.obj
 0001:00008da0       ??$_Destroy_range@V?$allocator@PAUTechCache@D3DMaterialTemplate@Ogre@@@std@@@std@@YAXPAPAUTechCache@D3DMaterialTemplate@Ogre@@0AAV?$allocator@PAUTechCache@D3DMaterialTemplate@Ogre@@@0@@Z 10009da0 f i OgreD3DMaterialTemplate.obj
 0001:00008da0       ??$_Destroy_range@V?$allocator@PAVD3DRenderWindow@Ogre@@@std@@@std@@YAXPAPAVD3DRenderWindow@Ogre@@0AAV?$allocator@PAVD3DRenderWindow@Ogre@@@0@@Z 10009da0 f i OgreD3D9RenderSystem.obj
 0001:00008da0       ??$_Destroy_range@V?$allocator@I@std@@@std@@YAXPAI0AAV?$allocator@I@0@@Z 10009da0 f i OgreD3D9DriverEnum.obj
 0001:00008da0       ??$_Destroy_range@V?$allocator@PAUD3DDEVCOMBO_T@Ogre@@@std@@@std@@YAXPAPAUD3DDEVCOMBO_T@Ogre@@0AAV?$allocator@PAUD3DDEVCOMBO_T@Ogre@@@0@@Z 10009da0 f i OgreD3D9DriverEnum.obj
 0001:00008da0       ??$_Destroy_range@V?$allocator@D@std@@@std@@YAXPAD0AAV?$allocator@D@0@@Z 10009da0 f i OgreD3D9ShaderManager.obj
 0001:00008de0       ??$unchecked_copy@PAPAVD3D9TextureRenderTarget@Ogre@@PAPAV12@@stdext@@YAPAPAVD3D9TextureRenderTarget@Ogre@@PAPAV12@00@Z 10009de0 f i OgreD3D9HardwarePixelBuffer.obj
 0001:00008de0       ??$unchecked_copy@PAPAVD3DRenderWindow@Ogre@@PAPAV12@@stdext@@YAPAPAVD3DRenderWindow@Ogre@@PAPAV12@00@Z 10009de0 f i OgreD3D9RenderSystem.obj
 0001:00008de0       ??$unchecked_copy@PAPAVD3D9VertexDecl@Ogre@@PAPAV12@@stdext@@YAPAPAVD3D9VertexDecl@Ogre@@PAPAV12@00@Z 10009de0 f i OgreD3D9RenderSystem.obj
 0001:00008e50       ??$_Destroy_range@V?$allocator@UDSBuffer@D3D9HardwarePixelBufferManager@Ogre@@@std@@@std@@YAXPAUDSBuffer@D3D9HardwarePixelBufferManager@Ogre@@0AAV?$allocator@UDSBuffer@D3D9HardwarePixelBufferManager@Ogre@@@0@@Z 10009e50 f i OgreD3D9HardwarePixelBuffer.obj
 0001:00008e50       ??$_Destroy_range@V?$allocator@UShaderEnv@Ogre@@@std@@@std@@YAXPAUShaderEnv@Ogre@@0AAV?$allocator@UShaderEnv@Ogre@@@0@@Z 10009e50 f i OgreD3DMaterialTemplate.obj
 0001:00008e50       ??$_Destroy_range@V?$allocator@URTBuffer@D3D9HardwarePixelBufferManager@Ogre@@@std@@@std@@YAXPAURTBuffer@D3D9HardwarePixelBufferManager@Ogre@@0AAV?$allocator@URTBuffer@D3D9HardwarePixelBufferManager@Ogre@@@0@@Z 10009e50 f i OgreD3D9HardwarePixelBuffer.obj
 0001:00008e90       ??$_Unchecked_move_backward@PAUDSBuffer@D3D9HardwarePixelBufferManager@Ogre@@PAU123@@stdext@@YAPAUDSBuffer@D3D9HardwarePixelBufferManager@Ogre@@PAU123@00@Z 10009e90 f i OgreD3D9HardwarePixelBuffer.obj
 0001:00008e90       ??$_Unchecked_move_backward@PAURTBuffer@D3D9HardwarePixelBufferManager@Ogre@@PAU123@@stdext@@YAPAURTBuffer@D3D9HardwarePixelBufferManager@Ogre@@PAU123@00@Z 10009e90 f i OgreD3D9HardwarePixelBuffer.obj
 0001:00008e90       ??$_Unchecked_move_backward@PAUShaderEnv@Ogre@@PAU12@@stdext@@YAPAUShaderEnv@Ogre@@PAU12@00@Z 10009e90 f i OgreD3DMaterialTemplate.obj
 0001:00008f00       ??$unchecked_copy@PAURTBuffer@D3D9HardwarePixelBufferManager@Ogre@@PAU123@@stdext@@YAPAURTBuffer@D3D9HardwarePixelBufferManager@Ogre@@PAU123@00@Z 10009f00 f i OgreD3D9HardwarePixelBuffer.obj
 0001:00008f00       ??$unchecked_copy@PAUDSBuffer@D3D9HardwarePixelBufferManager@Ogre@@PAU123@@stdext@@YAPAUDSBuffer@D3D9HardwarePixelBufferManager@Ogre@@PAU123@00@Z 10009f00 f i OgreD3D9HardwarePixelBuffer.obj
 0001:00008f70       ??$_Umove@PAUDSBuffer@D3D9HardwarePixelBufferManager@Ogre@@@?$vector@UDSBuffer@D3D9HardwarePixelBufferManager@Ogre@@V?$allocator@UDSBuffer@D3D9HardwarePixelBufferManager@Ogre@@@std@@@std@@IAEPAUDSBuffer@D3D9HardwarePixelBufferManager@Ogre@@PAU234@00@Z 10009f70 f i OgreD3D9HardwarePixelBuffer.obj
 0001:00008f70       ??$_Umove@PAURTBuffer@D3D9HardwarePixelBufferManager@Ogre@@@?$vector@URTBuffer@D3D9HardwarePixelBufferManager@Ogre@@V?$allocator@URTBuffer@D3D9HardwarePixelBufferManager@Ogre@@@std@@@std@@IAEPAURTBuffer@D3D9HardwarePixelBufferManager@Ogre@@PAU234@00@Z 10009f70 f i OgreD3D9HardwarePixelBuffer.obj
 0001:00008f70       ??$_Umove@PAUShaderEnv@Ogre@@@?$vector@UShaderEnv@Ogre@@V?$allocator@UShaderEnv@Ogre@@@std@@@std@@IAEPAUShaderEnv@Ogre@@PAU23@00@Z 10009f70 f i OgreD3DMaterialTemplate.obj
 0001:00008fa0       ??$find@V?$_Vector_iterator@PAVD3D9TextureRenderTarget@Ogre@@V?$allocator@PAVD3D9TextureRenderTarget@Ogre@@@std@@@std@@PAVD3D9TextureRenderTarget@Ogre@@@std@@YA?AV?$_Vector_iterator@PAVD3D9TextureRenderTarget@Ogre@@V?$allocator@PAVD3D9TextureRenderTarget@Ogre@@@std@@@0@V10@0ABQAVD3D9TextureRenderTarget@Ogre@@@Z 10009fa0 f i OgreD3D9HardwarePixelBuffer.obj
 0001:00009000       ??$unchecked_remove_copy@V?$_Vector_iterator@PAVD3D9TextureRenderTarget@Ogre@@V?$allocator@PAVD3D9TextureRenderTarget@Ogre@@@std@@@std@@V12@PAVD3D9TextureRenderTarget@Ogre@@@stdext@@YA?AV?$_Vector_iterator@PAVD3D9TextureRenderTarget@Ogre@@V?$allocator@PAVD3D9TextureRenderTarget@Ogre@@@std@@@std@@V12@00ABQAVD3D9TextureRenderTarget@Ogre@@@Z 1000a000 f i OgreD3D9HardwarePixelBuffer.obj
 0001:00009050       ??$_Uninit_fill_n@PAURTBuffer@D3D9HardwarePixelBufferManager@Ogre@@IU123@V?$allocator@URTBuffer@D3D9HardwarePixelBufferManager@Ogre@@@std@@@std@@YAXPAURTBuffer@D3D9HardwarePixelBufferManager@Ogre@@IABU123@AAV?$allocator@URTBuffer@D3D9HardwarePixelBufferManager@Ogre@@@0@U_Nonscalar_ptr_iterator_tag@0@U_Range_checked_iterator_tag@0@@Z 1000a050 f i OgreD3D9HardwarePixelBuffer.obj
 0001:00009050       ??$_Uninit_fill_n@PAUDSBuffer@D3D9HardwarePixelBufferManager@Ogre@@IU123@V?$allocator@UDSBuffer@D3D9HardwarePixelBufferManager@Ogre@@@std@@@std@@YAXPAUDSBuffer@D3D9HardwarePixelBufferManager@Ogre@@IABU123@AAV?$allocator@UDSBuffer@D3D9HardwarePixelBufferManager@Ogre@@@0@U_Nonscalar_ptr_iterator_tag@0@U_Range_checked_iterator_tag@0@@Z 1000a050 f i OgreD3D9HardwarePixelBuffer.obj
 0001:00009050       ??$_Uninit_fill_n@PAUShaderEnv@Ogre@@IU12@V?$allocator@UShaderEnv@Ogre@@@std@@@std@@YAXPAUShaderEnv@Ogre@@IABU12@AAV?$allocator@UShaderEnv@Ogre@@@0@U_Nonscalar_ptr_iterator_tag@0@U_Range_checked_iterator_tag@0@@Z 1000a050 f i OgreD3DMaterialTemplate.obj
 0001:00009110       ??$_Copy_opt@PAURTBuffer@D3D9HardwarePixelBufferManager@Ogre@@PAU123@@std@@YAPAURTBuffer@D3D9HardwarePixelBufferManager@Ogre@@PAU123@00Urandom_access_iterator_tag@0@U_Nonscalar_ptr_iterator_tag@0@U_Range_checked_iterator_tag@0@@Z 1000a110 f i OgreD3D9HardwarePixelBuffer.obj
 0001:00009110       ??$_Copy_opt@PAUDSBuffer@D3D9HardwarePixelBufferManager@Ogre@@PAU123@@std@@YAPAUDSBuffer@D3D9HardwarePixelBufferManager@Ogre@@PAU123@00Urandom_access_iterator_tag@0@U_Nonscalar_ptr_iterator_tag@0@U_Range_checked_iterator_tag@0@@Z 1000a110 f i OgreD3D9HardwarePixelBuffer.obj
 0001:00009170       ??$_Destroy_range@V?$allocator@UShaderEnv@Ogre@@@std@@@std@@YAXPAUShaderEnv@Ogre@@0AAV?$allocator@UShaderEnv@Ogre@@@0@U_Nonscalar_ptr_iterator_tag@0@@Z 1000a170 f i OgreD3DMaterialTemplate.obj
 0001:00009170       ??$_Destroy_range@V?$allocator@URTBuffer@D3D9HardwarePixelBufferManager@Ogre@@@std@@@std@@YAXPAURTBuffer@D3D9HardwarePixelBufferManager@Ogre@@0AAV?$allocator@URTBuffer@D3D9HardwarePixelBufferManager@Ogre@@@0@U_Nonscalar_ptr_iterator_tag@0@@Z 1000a170 f i OgreD3D9HardwarePixelBuffer.obj
 0001:00009170       ??$_Destroy_range@V?$allocator@UDSBuffer@D3D9HardwarePixelBufferManager@Ogre@@@std@@@std@@YAXPAUDSBuffer@D3D9HardwarePixelBufferManager@Ogre@@0AAV?$allocator@UDSBuffer@D3D9HardwarePixelBufferManager@Ogre@@@0@U_Nonscalar_ptr_iterator_tag@0@@Z 1000a170 f i OgreD3D9HardwarePixelBuffer.obj
 0001:000091a0       ??$_Unchecked_uninitialized_move@PAURTBuffer@D3D9HardwarePixelBufferManager@Ogre@@PAU123@V?$allocator@URTBuffer@D3D9HardwarePixelBufferManager@Ogre@@@std@@@stdext@@YAPAURTBuffer@D3D9HardwarePixelBufferManager@Ogre@@PAU123@00AAV?$allocator@URTBuffer@D3D9HardwarePixelBufferManager@Ogre@@@std@@@Z 1000a1a0 f i OgreD3D9HardwarePixelBuffer.obj
 0001:000091a0       ??$_Unchecked_uninitialized_move@PAUShaderEnv@Ogre@@PAU12@V?$allocator@UShaderEnv@Ogre@@@std@@@stdext@@YAPAUShaderEnv@Ogre@@PAU12@00AAV?$allocator@UShaderEnv@Ogre@@@std@@@Z 1000a1a0 f i OgreD3DMaterialTemplate.obj
 0001:000091a0       ??$_Unchecked_uninitialized_move@PAUDSBuffer@D3D9HardwarePixelBufferManager@Ogre@@PAU123@V?$allocator@UDSBuffer@D3D9HardwarePixelBufferManager@Ogre@@@std@@@stdext@@YAPAUDSBuffer@D3D9HardwarePixelBufferManager@Ogre@@PAU123@00AAV?$allocator@UDSBuffer@D3D9HardwarePixelBufferManager@Ogre@@@std@@@Z 1000a1a0 f i OgreD3D9HardwarePixelBuffer.obj
 0001:000091f0       ??$_Fill@PAUDSBuffer@D3D9HardwarePixelBufferManager@Ogre@@U123@@std@@YAXPAUDSBuffer@D3D9HardwarePixelBufferManager@Ogre@@0ABU123@@Z 1000a1f0 f i OgreD3D9HardwarePixelBuffer.obj
 0001:000091f0       ??$_Fill@PAURTBuffer@D3D9HardwarePixelBufferManager@Ogre@@U123@@std@@YAXPAURTBuffer@D3D9HardwarePixelBufferManager@Ogre@@0ABU123@@Z 1000a1f0 f i OgreD3D9HardwarePixelBuffer.obj
 0001:000091f0       ??$_Fill@PAUShaderEnv@Ogre@@U12@@std@@YAXPAUShaderEnv@Ogre@@0ABU12@@Z 1000a1f0 f i OgreD3DMaterialTemplate.obj
 0001:00009240       ??$_Move_backward_opt@PAUShaderEnv@Ogre@@PAU12@Urandom_access_iterator_tag@std@@U_Undefined_move_tag@4@@std@@YAPAUShaderEnv@Ogre@@PAU12@00Urandom_access_iterator_tag@0@U_Undefined_move_tag@0@U_Range_checked_iterator_tag@0@@Z 1000a240 f i OgreD3DMaterialTemplate.obj
 0001:00009240       ??$_Move_backward_opt@PAUDSBuffer@D3D9HardwarePixelBufferManager@Ogre@@PAU123@Urandom_access_iterator_tag@std@@U_Undefined_move_tag@5@@std@@YAPAUDSBuffer@D3D9HardwarePixelBufferManager@Ogre@@PAU123@00Urandom_access_iterator_tag@0@U_Undefined_move_tag@0@U_Range_checked_iterator_tag@0@@Z 1000a240 f i OgreD3D9HardwarePixelBuffer.obj
 0001:00009240       ??$_Move_backward_opt@PAURTBuffer@D3D9HardwarePixelBufferManager@Ogre@@PAU123@Urandom_access_iterator_tag@std@@U_Undefined_move_tag@5@@std@@YAPAURTBuffer@D3D9HardwarePixelBufferManager@Ogre@@PAU123@00Urandom_access_iterator_tag@0@U_Undefined_move_tag@0@U_Range_checked_iterator_tag@0@@Z 1000a240 f i OgreD3D9HardwarePixelBuffer.obj
 0001:00009290       ??$_Checked_base@V?$_Vector_iterator@PAVD3D9TextureRenderTarget@Ogre@@V?$allocator@PAVD3D9TextureRenderTarget@Ogre@@@std@@@std@@@std@@YAPAPAVD3D9TextureRenderTarget@Ogre@@AAV?$_Vector_iterator@PAVD3D9TextureRenderTarget@Ogre@@V?$allocator@PAVD3D9TextureRenderTarget@Ogre@@@std@@@0@@Z 1000a290 f i OgreD3D9HardwarePixelBuffer.obj
 0001:000092b0       ??$_Find@PAPAVD3D9TextureRenderTarget@Ogre@@PAV12@@std@@YAPAPAVD3D9TextureRenderTarget@Ogre@@PAPAV12@0ABQAV12@@Z 1000a2b0 f i OgreD3D9HardwarePixelBuffer.obj
 0001:000092e0       ??$_Checked_assign_from_base@V?$_Vector_iterator@PAVD3D9TextureRenderTarget@Ogre@@V?$allocator@PAVD3D9TextureRenderTarget@Ogre@@@std@@@std@@PAPAVD3D9TextureRenderTarget@Ogre@@@std@@YAXAAV?$_Vector_iterator@PAVD3D9TextureRenderTarget@Ogre@@V?$allocator@PAVD3D9TextureRenderTarget@Ogre@@@std@@@0@ABQAPAVD3D9TextureRenderTarget@Ogre@@@Z 1000a2e0 f i OgreD3D9HardwarePixelBuffer.obj
 0001:00009300       ??$_Remove_copy@PAPAVD3D9TextureRenderTarget@Ogre@@V?$_Vector_iterator@PAVD3D9TextureRenderTarget@Ogre@@V?$allocator@PAVD3D9TextureRenderTarget@Ogre@@@std@@@std@@PAV12@@std@@YA?AV?$_Vector_iterator@PAVD3D9TextureRenderTarget@Ogre@@V?$allocator@PAVD3D9TextureRenderTarget@Ogre@@@std@@@0@PAPAVD3D9TextureRenderTarget@Ogre@@0V10@ABQAV23@U_Range_checked_iterator_tag@0@@Z 1000a300 f i OgreD3D9HardwarePixelBuffer.obj
 0001:00009360       ??$_Copy_opt@PAURTBuffer@D3D9HardwarePixelBufferManager@Ogre@@PAU123@Uforward_iterator_tag@std@@@std@@YAPAURTBuffer@D3D9HardwarePixelBufferManager@Ogre@@PAU123@00Uforward_iterator_tag@0@U_Nonscalar_ptr_iterator_tag@0@U_Range_checked_iterator_tag@0@@Z 1000a360 f i OgreD3D9HardwarePixelBuffer.obj
 0001:00009360       ??$_Copy_opt@PAUDSBuffer@D3D9HardwarePixelBufferManager@Ogre@@PAU123@Uforward_iterator_tag@std@@@std@@YAPAUDSBuffer@D3D9HardwarePixelBufferManager@Ogre@@PAU123@00Uforward_iterator_tag@0@U_Nonscalar_ptr_iterator_tag@0@U_Range_checked_iterator_tag@0@@Z 1000a360 f i OgreD3D9HardwarePixelBuffer.obj
 0001:000093b0       ??$_Uninit_move@PAUShaderEnv@Ogre@@PAU12@V?$allocator@UShaderEnv@Ogre@@@std@@U_Undefined_move_tag@4@@std@@YAPAUShaderEnv@Ogre@@PAU12@00AAV?$allocator@UShaderEnv@Ogre@@@0@U_Undefined_move_tag@0@U_Range_checked_iterator_tag@0@@Z 1000a3b0 f i OgreD3DMaterialTemplate.obj
 0001:000093b0       ??$_Uninit_move@PAURTBuffer@D3D9HardwarePixelBufferManager@Ogre@@PAU123@V?$allocator@URTBuffer@D3D9HardwarePixelBufferManager@Ogre@@@std@@U_Undefined_move_tag@5@@std@@YAPAURTBuffer@D3D9HardwarePixelBufferManager@Ogre@@PAU123@00AAV?$allocator@URTBuffer@D3D9HardwarePixelBufferManager@Ogre@@@0@U_Undefined_move_tag@0@U_Range_checked_iterator_tag@0@@Z 1000a3b0 f i OgreD3D9HardwarePixelBuffer.obj
 0001:000093b0       ??$_Uninit_move@PAUDSBuffer@D3D9HardwarePixelBufferManager@Ogre@@PAU123@V?$allocator@UDSBuffer@D3D9HardwarePixelBufferManager@Ogre@@@std@@U_Undefined_move_tag@5@@std@@YAPAUDSBuffer@D3D9HardwarePixelBufferManager@Ogre@@PAU123@00AAV?$allocator@UDSBuffer@D3D9HardwarePixelBufferManager@Ogre@@@0@U_Undefined_move_tag@0@U_Range_checked_iterator_tag@0@@Z 1000a3b0 f i OgreD3D9HardwarePixelBuffer.obj
 0001:000093d0       ??$_Copy_backward_opt@PAURTBuffer@D3D9HardwarePixelBufferManager@Ogre@@PAU123@@std@@YAPAURTBuffer@D3D9HardwarePixelBufferManager@Ogre@@PAU123@00Urandom_access_iterator_tag@0@U_Nonscalar_ptr_iterator_tag@0@U_Range_checked_iterator_tag@0@@Z 1000a3d0 f i OgreD3D9HardwarePixelBuffer.obj
 0001:000093d0       ??$_Copy_backward_opt@PAUShaderEnv@Ogre@@PAU12@@std@@YAPAUShaderEnv@Ogre@@PAU12@00Urandom_access_iterator_tag@0@U_Nonscalar_ptr_iterator_tag@0@U_Range_checked_iterator_tag@0@@Z 1000a3d0 f i OgreD3DMaterialTemplate.obj
 0001:000093d0       ??$_Copy_backward_opt@PAUDSBuffer@D3D9HardwarePixelBufferManager@Ogre@@PAU123@@std@@YAPAUDSBuffer@D3D9HardwarePixelBufferManager@Ogre@@PAU123@00Urandom_access_iterator_tag@0@U_Nonscalar_ptr_iterator_tag@0@U_Range_checked_iterator_tag@0@@Z 1000a3d0 f i OgreD3D9HardwarePixelBuffer.obj
 0001:00009430       ?_Checked_iterator_assign_from_base@?$_Vector_iterator@PAVD3D9TextureRenderTarget@Ogre@@V?$allocator@PAVD3D9TextureRenderTarget@Ogre@@@std@@@std@@QAEXPAPAVD3D9TextureRenderTarget@Ogre@@@Z 1000a430 f i OgreD3D9HardwarePixelBuffer.obj
 0001:00009450       ??D?$_Vector_iterator@PAVD3DRenderWindow@Ogre@@V?$allocator@PAVD3DRenderWindow@Ogre@@@std@@@std@@QBEAAPAVD3DRenderWindow@Ogre@@XZ 1000a450 f i OgreD3D9RenderSystem.obj
 0001:00009450       ??D?$_Vector_iterator@PAVD3D9TextureRenderTarget@Ogre@@V?$allocator@PAVD3D9TextureRenderTarget@Ogre@@@std@@@std@@QBEAAPAVD3D9TextureRenderTarget@Ogre@@XZ 1000a450 f i OgreD3D9HardwarePixelBuffer.obj
 0001:00009450       ??D?$_Vector_iterator@PAVHardwarePixelBuffer@Ogre@@V?$allocator@PAVHardwarePixelBuffer@Ogre@@@std@@@std@@QBEAAPAVHardwarePixelBuffer@Ogre@@XZ 1000a450 f i OgreD3D9HardwarePixelBuffer.obj
 0001:00009450       ??D?$_Vector_iterator@PAVD3D9VertexDecl@Ogre@@V?$allocator@PAVD3D9VertexDecl@Ogre@@@std@@@std@@QBEAAPAVD3D9VertexDecl@Ogre@@XZ 1000a450 f i OgreD3D9RenderSystem.obj
 0001:00009470       ??E?$_Vector_iterator@PAVD3DRenderWindow@Ogre@@V?$allocator@PAVD3DRenderWindow@Ogre@@@std@@@std@@QAE?AV01@H@Z 1000a470 f i OgreD3D9RenderSystem.obj
 0001:00009470       ??E?$_Vector_iterator@PAVD3D9VertexDecl@Ogre@@V?$allocator@PAVD3D9VertexDecl@Ogre@@@std@@@std@@QAE?AV01@H@Z 1000a470 f i OgreD3D9RenderSystem.obj
 0001:00009470       ??E?$_Vector_iterator@PAVD3D9TextureRenderTarget@Ogre@@V?$allocator@PAVD3D9TextureRenderTarget@Ogre@@@std@@@std@@QAE?AV01@H@Z 1000a470 f i OgreD3D9HardwarePixelBuffer.obj
 0001:000094b0       ??D?$_Vector_const_iterator@PAVD3D9VertexDecl@Ogre@@V?$allocator@PAVD3D9VertexDecl@Ogre@@@std@@@std@@QBEABQAVD3D9VertexDecl@Ogre@@XZ 1000a4b0 f i OgreD3D9RenderSystem.obj
 0001:000094b0       ??D?$_Vector_const_iterator@PAVHardwarePixelBuffer@Ogre@@V?$allocator@PAVHardwarePixelBuffer@Ogre@@@std@@@std@@QBEABQAVHardwarePixelBuffer@Ogre@@XZ 1000a4b0 f i OgreD3D9HardwarePixelBuffer.obj
 0001:000094b0       ??D?$_Vector_const_iterator@PAVD3DRenderWindow@Ogre@@V?$allocator@PAVD3DRenderWindow@Ogre@@@std@@@std@@QBEABQAVD3DRenderWindow@Ogre@@XZ 1000a4b0 f i OgreD3D9RenderSystem.obj
 0001:000094b0       ??D?$_Vector_const_iterator@PAVD3D9TextureRenderTarget@Ogre@@V?$allocator@PAVD3D9TextureRenderTarget@Ogre@@@std@@@std@@QBEABQAVD3D9TextureRenderTarget@Ogre@@XZ 1000a4b0 f i OgreD3D9HardwarePixelBuffer.obj
 0001:000094f0       ??$_Checked_base@V?$_Vector_iterator@PAVD3D9TextureRenderTarget@Ogre@@V?$allocator@PAVD3D9TextureRenderTarget@Ogre@@@std@@@std@@U_Different_checked_iterator_base_type_tag@2@@std@@YAPAPAVD3D9TextureRenderTarget@Ogre@@AAV?$_Vector_iterator@PAVD3D9TextureRenderTarget@Ogre@@V?$allocator@PAVD3D9TextureRenderTarget@Ogre@@@std@@@0@U_Different_checked_iterator_base_type_tag@0@@Z 1000a4f0 f i OgreD3D9HardwarePixelBuffer.obj
 0001:00009500       ??$unchecked_uninitialized_copy@PAUDSBuffer@D3D9HardwarePixelBufferManager@Ogre@@PAU123@V?$allocator@UDSBuffer@D3D9HardwarePixelBufferManager@Ogre@@@std@@@stdext@@YAPAUDSBuffer@D3D9HardwarePixelBufferManager@Ogre@@PAU123@00AAV?$allocator@UDSBuffer@D3D9HardwarePixelBufferManager@Ogre@@@std@@@Z 1000a500 f i OgreD3D9HardwarePixelBuffer.obj
 0001:00009500       ??$unchecked_uninitialized_copy@PAUShaderEnv@Ogre@@PAU12@V?$allocator@UShaderEnv@Ogre@@@std@@@stdext@@YAPAUShaderEnv@Ogre@@PAU12@00AAV?$allocator@UShaderEnv@Ogre@@@std@@@Z 1000a500 f i OgreD3DMaterialTemplate.obj
 0001:00009500       ??$unchecked_uninitialized_copy@PAURTBuffer@D3D9HardwarePixelBufferManager@Ogre@@PAU123@V?$allocator@URTBuffer@D3D9HardwarePixelBufferManager@Ogre@@@std@@@stdext@@YAPAURTBuffer@D3D9HardwarePixelBufferManager@Ogre@@PAU123@00AAV?$allocator@URTBuffer@D3D9HardwarePixelBufferManager@Ogre@@@std@@@Z 1000a500 f i OgreD3D9HardwarePixelBuffer.obj
 0001:00009560       ??$_Copy_backward_opt@PAUShaderEnv@Ogre@@PAU12@Uforward_iterator_tag@std@@@std@@YAPAUShaderEnv@Ogre@@PAU12@00Uforward_iterator_tag@0@U_Nonscalar_ptr_iterator_tag@0@U_Range_checked_iterator_tag@0@@Z 1000a560 f i OgreD3DMaterialTemplate.obj
 0001:00009560       ??$_Copy_backward_opt@PAUDSBuffer@D3D9HardwarePixelBufferManager@Ogre@@PAU123@Uforward_iterator_tag@std@@@std@@YAPAUDSBuffer@D3D9HardwarePixelBufferManager@Ogre@@PAU123@00Uforward_iterator_tag@0@U_Nonscalar_ptr_iterator_tag@0@U_Range_checked_iterator_tag@0@@Z 1000a560 f i OgreD3D9HardwarePixelBuffer.obj
 0001:00009560       ??$_Copy_backward_opt@PAURTBuffer@D3D9HardwarePixelBufferManager@Ogre@@PAU123@Uforward_iterator_tag@std@@@std@@YAPAURTBuffer@D3D9HardwarePixelBufferManager@Ogre@@PAU123@00Uforward_iterator_tag@0@U_Nonscalar_ptr_iterator_tag@0@U_Range_checked_iterator_tag@0@@Z 1000a560 f i OgreD3D9HardwarePixelBuffer.obj
 0001:000095b0       ??$_Uninit_copy@PAURTBuffer@D3D9HardwarePixelBufferManager@Ogre@@PAU123@V?$allocator@URTBuffer@D3D9HardwarePixelBufferManager@Ogre@@@std@@@std@@YAPAURTBuffer@D3D9HardwarePixelBufferManager@Ogre@@PAU123@00AAV?$allocator@URTBuffer@D3D9HardwarePixelBufferManager@Ogre@@@0@U_Nonscalar_ptr_iterator_tag@0@U_Range_checked_iterator_tag@0@@Z 1000a5b0 f i OgreD3D9HardwarePixelBuffer.obj
 0001:000095b0       ??$_Uninit_copy@PAUShaderEnv@Ogre@@PAU12@V?$allocator@UShaderEnv@Ogre@@@std@@@std@@YAPAUShaderEnv@Ogre@@PAU12@00AAV?$allocator@UShaderEnv@Ogre@@@0@U_Nonscalar_ptr_iterator_tag@0@U_Range_checked_iterator_tag@0@@Z 1000a5b0 f i OgreD3DMaterialTemplate.obj
 0001:000095b0       ??$_Uninit_copy@PAUDSBuffer@D3D9HardwarePixelBufferManager@Ogre@@PAU123@V?$allocator@UDSBuffer@D3D9HardwarePixelBufferManager@Ogre@@@std@@@std@@YAPAUDSBuffer@D3D9HardwarePixelBufferManager@Ogre@@PAU123@00AAV?$allocator@UDSBuffer@D3D9HardwarePixelBufferManager@Ogre@@@0@U_Nonscalar_ptr_iterator_tag@0@U_Range_checked_iterator_tag@0@@Z 1000a5b0 f i OgreD3D9HardwarePixelBuffer.obj
 0001:00009670       ??0D3D9Plugin@Ogre@@QAE@XZ 1000a670 f   OgreD3D9Plugin.obj
 0001:000096e0       ?getName@D3D9Plugin@Ogre@@UBEABV?$basic_string@DU?$char_traits@D@std@@V?$allocator@D@2@@std@@XZ 1000a6e0 f   OgreD3D9Plugin.obj
 0001:000096f0       ?install@D3D9Plugin@Ogre@@UAEXXZ 1000a6f0 f   OgreD3D9Plugin.obj
 0001:00009780       ?initialise@D3D9Plugin@Ogre@@UAEXXZ 1000a780 f   OgreD3D9Plugin.obj
 0001:00009790       ?shutdown@D3D9Plugin@Ogre@@UAEXXZ 1000a790 f   OgreD3D9Plugin.obj
 0001:000097a0       ?uninstall@D3D9Plugin@Ogre@@UAEXXZ 1000a7a0 f   OgreD3D9Plugin.obj
 0001:000097e0       ??_GD3D9Plugin@Ogre@@UAEPAXI@Z 1000a7e0 f i OgreD3D9Plugin.obj
 0001:000097e0       ??_ED3D9Plugin@Ogre@@UAEPAXI@Z 1000a7e0 f i OgreD3D9Plugin.obj
 0001:00009810       ??1D3D9Plugin@Ogre@@UAE@XZ 1000a810 f i OgreD3D9Plugin.obj
 0001:00009860       ??_GD3D9RenderSystem@Ogre@@QAEPAXI@Z 1000a860 f i OgreD3D9Plugin.obj
 0001:00009890       ?GetBehaviorFlags@Ogre@@YAKW4VERTPROCESS_T@1@@Z 1000a890 f   OgreD3D9RenderSystem.obj
 0001:000098e0       ??0D3D9RenderSystem@Ogre@@QAE@PAUHINSTANCE__@@@Z 1000a8e0 f   OgreD3D9RenderSystem.obj
 0001:000099f0       ??1D3D9RenderSystem@Ogre@@QAE@XZ 1000a9f0 f   OgreD3D9RenderSystem.obj
 0001:00009ab0       ?CreateShaderTechniqueFromRawFile@D3D9RenderSystem@Ogre@@UAEPAVShaderTechnique@2@PBD@Z 1000aab0 f   OgreD3D9RenderSystem.obj
 0001:00009ac0       ?setContextQueDesc@D3D9RenderSystem@Ogre@@UAEXABUContextQueDesc@2@@Z 1000aac0 f   OgreD3D9RenderSystem.obj
 0001:00009bc0       ?setCursorProperty@D3D9RenderSystem@Ogre@@UAEXPAVTextureData@2@HHHHHH@Z 1000abc0 f   OgreD3D9RenderSystem.obj
 0001:00009d40       ?setCursorPosition@D3D9RenderSystem@Ogre@@UAEXHH@Z 1000ad40 f   OgreD3D9RenderSystem.obj
 0001:00009d70       ?showCursor@D3D9RenderSystem@Ogre@@UAEX_N@Z 1000ad70 f   OgreD3D9RenderSystem.obj
 0001:00009da0       ?initialise@D3D9RenderSystem@Ogre@@UAE_NABUInitDesc@RenderSystem@2@@Z 1000ada0 f   OgreD3D9RenderSystem.obj
 0001:0000a510       ?findRenderWindowByHWnd@D3D9RenderSystem@Ogre@@QAEPAVD3DRenderWindow@2@PAUHWND__@@@Z 1000b510 f   OgreD3D9RenderSystem.obj
 0001:0000a590       ?removeD3DRenderWindow@D3D9RenderSystem@Ogre@@QAEXPAVD3DRenderWindow@2@@Z 1000b590 f   OgreD3D9RenderSystem.obj
 0001:0000a620       ?createD3DDevice@D3D9RenderSystem@Ogre@@QAE_NPAUHWND__@@ABUD3DSETTING_T@2@AAU_D3DPRESENT_PARAMETERS_@@@Z 1000b620 f   OgreD3D9RenderSystem.obj
 0001:0000a790       ?destroyD3DDevice@D3D9RenderSystem@Ogre@@QAEXXZ 1000b790 f   OgreD3D9RenderSystem.obj
 0001:0000a800       ?shutdown@D3D9RenderSystem@Ogre@@UAEXXZ 1000b800 f   OgreD3D9RenderSystem.obj
 0001:0000a9c0       ?createRenderWindow@D3D9RenderSystem@Ogre@@UAEPAVRenderWindow@2@ABUInitDesc@RenderSystem@2@@Z 1000b9c0 f   OgreD3D9RenderSystem.obj
 0001:0000aaa0       ?clear@D3D9RenderSystem@Ogre@@UAEXIIMI@Z 1000baa0 f   OgreD3D9RenderSystem.obj
 0001:0000ab20       ?setViewport@D3D9RenderSystem@Ogre@@UAEXABUViewport@2@@Z 1000bb20 f   OgreD3D9RenderSystem.obj
 0001:0000ae70       ?beginFrame@D3D9RenderSystem@Ogre@@UAE_NXZ 1000be70 f   OgreD3D9RenderSystem.obj
 0001:0000aed0       ?endFrame@D3D9RenderSystem@Ogre@@UAEXXZ 1000bed0 f   OgreD3D9RenderSystem.obj
 0001:0000af30       ?getMainWindow@D3D9RenderSystem@Ogre@@UAEPAVRenderWindow@2@XZ 1000bf30 f   OgreD3D9RenderSystem.obj
 0001:0000af50       ?present@D3D9RenderSystem@Ogre@@UAEHXZ 1000bf50 f   OgreD3D9RenderSystem.obj
 0001:0000afe0       ?getInputLayout@D3D9RenderSystem@Ogre@@UAEIABVVertexFormat@2@@Z 1000bfe0 f   OgreD3D9RenderSystem.obj
 0001:0000b130       ?testDeviceReset@D3D9RenderSystem@Ogre@@UAEHXZ 1000c130 f   OgreD3D9RenderSystem.obj
 0001:0000b1b0       ?resetDevice@D3D9RenderSystem@Ogre@@UAEHXZ 1000c1b0 f   OgreD3D9RenderSystem.obj
 0001:0000b240       ?restoreLostDevice@D3D9RenderSystem@Ogre@@UAE_NXZ 1000c240 f   OgreD3D9RenderSystem.obj
 0001:0000b460       ?findRenderWindow@D3D9RenderSystem@Ogre@@UAEPAVRenderWindow@2@PAX@Z 1000c460 f   OgreD3D9RenderSystem.obj
 0001:0000b480       ?fromPixelFormat@D3D9RenderSystem@Ogre@@QAE?AW4_D3DFORMAT@@W4PixelFormat@2@@Z 1000c480 f   OgreD3D9RenderSystem.obj
 0001:0000b660       ?toPixelFormat@D3D9RenderSystem@Ogre@@QAE?AW4PixelFormat@2@W4_D3DFORMAT@@@Z 1000c660 f   OgreD3D9RenderSystem.obj
 0001:0000b8e0       ?isFormatSupported@D3D9RenderSystem@Ogre@@QAE_NW4_D3DFORMAT@@KW4_D3DRESOURCETYPE@@@Z 1000c8e0 f   OgreD3D9RenderSystem.obj
 0001:0000b950       ?isTargetFormatSupported@D3D9RenderSystem@Ogre@@QAE_NW4_D3DFORMAT@@0@Z 1000c950 f   OgreD3D9RenderSystem.obj
 0001:0000b9c0       ?isTargetMultiSampleSupported@D3D9RenderSystem@Ogre@@QAE_NW4_D3DFORMAT@@0W4_D3DMULTISAMPLE_TYPE@@@Z 1000c9c0 f   OgreD3D9RenderSystem.obj
 0001:0000ba80       ?getProperTargetDepthFormat@D3D9RenderSystem@Ogre@@QAE_NAAW4_D3DFORMAT@@W4_D3DMULTISAMPLE_TYPE@@W43@H@Z 1000ca80 f   OgreD3D9RenderSystem.obj
 0001:0000bb90       ?getProperTargetColorFormat@D3D9RenderSystem@Ogre@@QAE_NAAW4_D3DFORMAT@@W4_D3DMULTISAMPLE_TYPE@@W43@@Z 1000cb90 f   OgreD3D9RenderSystem.obj
 0001:0000bc30       ?hbu2PoolUsage@D3D9RenderSystem@Ogre@@QAEXAAKAAW4_D3DPOOL@@W4HardwareBufferUsage@2@@Z 1000cc30 f   OgreD3D9RenderSystem.obj
 0001:0000bcd0       ?createTexture@D3D9RenderSystem@Ogre@@QAEPAUIDirect3DBaseTexture9@@W4_D3DRESOURCETYPE@@W4_D3DFORMAT@@KW4_D3DPOOL@@IIII@Z 1000ccd0 f   OgreD3D9RenderSystem.obj
 0001:0000bde0       ?lockOpt2D3DFlags@D3D9RenderSystem@Ogre@@QAEKW4HardwareBufferLockOpt@2@K@Z 1000cde0 f   OgreD3D9RenderSystem.obj
 0001:0000be50       ?Open@MyShaderInclude@Ogre@@UAGJW4_D3DXINCLUDE_TYPE@@PBDPBXPAPBXPAI@Z 1000ce50 f   OgreD3D9RenderSystem.obj
 0001:0000bfb0       ?Close@MyShaderInclude@Ogre@@UAGJPBX@Z 1000cfb0 f   OgreD3D9RenderSystem.obj
 0001:0000bff0       ?compileCode@D3D9RenderSystem@Ogre@@QAEPAUID3DXBuffer@@PBDIPBU_D3DXMACRO@@00PAPAUID3DXConstantTable@@@Z 1000cff0 f   OgreD3D9RenderSystem.obj
 0001:0000c390       ?createD3DXEffect@D3D9RenderSystem@Ogre@@QAEPAUID3DXEffect@@PAUID3DXBuffer@@@Z 1000d390 f   OgreD3D9RenderSystem.obj
 0001:0000c3f0       ?createVertexShader@D3D9RenderSystem@Ogre@@QAEPAUIDirect3DVertexShader9@@PAUID3DXBuffer@@@Z 1000d3f0 f   OgreD3D9RenderSystem.obj
 0001:0000c450       ?createPixelShader@D3D9RenderSystem@Ogre@@QAEPAUIDirect3DPixelShader9@@PAUID3DXBuffer@@@Z 1000d450 f   OgreD3D9RenderSystem.obj
 0001:0000c4b0       ?createD3DXEffect@D3D9RenderSystem@Ogre@@QAEPAUID3DXEffect@@PAXI@Z 1000d4b0 f   OgreD3D9RenderSystem.obj
 0001:0000c500       ?createVertexShader@D3D9RenderSystem@Ogre@@QAEPAUIDirect3DVertexShader9@@PAXI@Z 1000d500 f   OgreD3D9RenderSystem.obj
 0001:0000c550       ?createPixelShader@D3D9RenderSystem@Ogre@@QAEPAUIDirect3DPixelShader9@@PAXI@Z 1000d550 f   OgreD3D9RenderSystem.obj
 0001:0000c5a0       ?snapShotAll@D3D9RenderSystem@Ogre@@UAEXPBD@Z 1000d5a0 f   OgreD3D9RenderSystem.obj
 0001:0000c5d0       ?snapShot@D3D9RenderSystem@Ogre@@UAEXXZ 1000d5d0 f   OgreD3D9RenderSystem.obj
 0001:0000c690       ??_GD3DEnumeration@Ogre@@QAEPAXI@Z 1000d690 f i OgreD3D9RenderSystem.obj
 0001:0000c6c0       ??0D3D9HardwareBufferManager@Ogre@@QAE@PAVD3D9RenderSystem@1@@Z 1000d6c0 f i OgreD3D9RenderSystem.obj
 0001:0000c730       ??_GD3D9HardwareBufferManager@Ogre@@UAEPAXI@Z 1000d730 f i OgreD3D9RenderSystem.obj
 0001:0000c730       ??_ED3D9HardwareBufferManager@Ogre@@UAEPAXI@Z 1000d730 f i OgreD3D9RenderSystem.obj
 0001:0000c760       ??1D3D9HardwareBufferManager@Ogre@@UAE@XZ 1000d760 f i OgreD3D9RenderSystem.obj
 0001:0000c7b0       ?strstr@@YAPADPADPBD@Z     1000d7b0 f i OgreD3D9RenderSystem.obj
 0001:0000c7d0       ??_GD3D9VertexDecl@Ogre@@QAEPAXI@Z 1000d7d0 f i OgreD3D9RenderSystem.obj
 0001:0000c800       ?GetSettings@D3DEnumeration@Ogre@@QAEABUD3DSETTING_T@2@XZ 1000d800 f i OgreD3D9RenderSystem.obj
 0001:0000c820       ??0MyShaderInclude@Ogre@@QAE@XZ 1000d820 f i OgreD3D9RenderSystem.obj
 0001:0000c840       ?erase@?$vector@PAVD3DRenderWindow@Ogre@@V?$allocator@PAVD3DRenderWindow@Ogre@@@std@@@std@@QAE?AV?$_Vector_iterator@PAVD3DRenderWindow@Ogre@@V?$allocator@PAVD3DRenderWindow@Ogre@@@std@@@2@V?$_Vector_const_iterator@PAVD3DRenderWindow@Ogre@@V?$allocator@PAVD3DRenderWindow@Ogre@@@std@@@2@@Z 1000d840 f i OgreD3D9RenderSystem.obj
 0001:0000c8b0       ??0?$vector@W4_D3DMULTISAMPLE_TYPE@@V?$allocator@W4_D3DMULTISAMPLE_TYPE@@@std@@@std@@QAE@XZ 1000d8b0 f i OgreD3D9DriverEnum.obj
 0001:0000c8b0       ??0?$vector@PAVD3DRenderWindow@Ogre@@V?$allocator@PAVD3DRenderWindow@Ogre@@@std@@@std@@QAE@XZ 1000d8b0 f i OgreD3D9RenderSystem.obj
 0001:0000c8b0       ??0?$vector@W4VERTPROCESS_T@Ogre@@V?$allocator@W4VERTPROCESS_T@Ogre@@@std@@@std@@QAE@XZ 1000d8b0 f i OgreD3D9DriverEnum.obj
 0001:0000c8b0       ??0?$vector@PAUD3DDEVCOMBO_T@Ogre@@V?$allocator@PAUD3DDEVCOMBO_T@Ogre@@@std@@@std@@QAE@XZ 1000d8b0 f i OgreD3D9DriverEnum.obj
 0001:0000c8b0       ??0?$vector@PAUIDirect3DBaseTexture9@@V?$allocator@PAUIDirect3DBaseTexture9@@@std@@@std@@QAE@XZ 1000d8b0 f i OgreD3D9HardwarePixelBuffer.obj
 0001:0000c8b0       ??0?$vector@PAVD3D9VertexDecl@Ogre@@V?$allocator@PAVD3D9VertexDecl@Ogre@@@std@@@std@@QAE@XZ 1000d8b0 f i OgreD3D9RenderSystem.obj
 0001:0000c8b0       ??0?$vector@PAUD3DDEVICEINFO_T@Ogre@@V?$allocator@PAUD3DDEVICEINFO_T@Ogre@@@std@@@std@@QAE@XZ 1000d8b0 f i OgreD3D9DriverEnum.obj
 0001:0000c8b0       ??0?$vector@PAVD3D9TextureRenderTarget@Ogre@@V?$allocator@PAVD3D9TextureRenderTarget@Ogre@@@std@@@std@@QAE@XZ 1000d8b0 f i OgreD3D9HardwarePixelBuffer.obj
 0001:0000c8b0       ??0?$vector@IV?$allocator@I@std@@@std@@QAE@XZ 1000d8b0 f i OgreD3D9DriverEnum.obj
 0001:0000c8b0       ??0?$vector@PAUD3DADAPTER_T@Ogre@@V?$allocator@PAUD3DADAPTER_T@Ogre@@@std@@@std@@QAE@XZ 1000d8b0 f i OgreD3D9DriverEnum.obj
 0001:0000c8b0       ??0?$vector@PAUTechniqueDesc@Ogre@@V?$allocator@PAUTechniqueDesc@Ogre@@@std@@@std@@QAE@XZ 1000d8b0 f i OgreD3D9ShaderManager.obj
 0001:0000c8b0       ??0?$vector@PAVCompiledShader@Ogre@@V?$allocator@PAVCompiledShader@Ogre@@@std@@@std@@QAE@XZ 1000d8b0 f i OgreD3D9ShaderManager.obj
 0001:0000c8b0       ??0?$vector@PAUTechCache@D3DMaterialTemplate@Ogre@@V?$allocator@PAUTechCache@D3DMaterialTemplate@Ogre@@@std@@@std@@QAE@XZ 1000d8b0 f i OgreD3DMaterialTemplate.obj
 0001:0000c8b0       ??0?$vector@W4_D3DFORMAT@@V?$allocator@W4_D3DFORMAT@@@std@@@std@@QAE@XZ 1000d8b0 f i OgreD3D9DriverEnum.obj
 0001:0000c920       ??1?$_Vector_val@PAVD3D9TextureRenderTarget@Ogre@@V?$allocator@PAVD3D9TextureRenderTarget@Ogre@@@std@@@std@@QAE@XZ 1000d920 f i OgreD3D9HardwarePixelBuffer.obj
 0001:0000c920       ??1?$_Vector_val@PAUTechCache@D3DMaterialTemplate@Ogre@@V?$allocator@PAUTechCache@D3DMaterialTemplate@Ogre@@@std@@@std@@QAE@XZ 1000d920 f i OgreD3DMaterialTemplate.obj
 0001:0000c920       ??1?$_Vector_val@UD3DSMSCONFLICT_T@Ogre@@V?$allocator@UD3DSMSCONFLICT_T@Ogre@@@std@@@std@@QAE@XZ 1000d920 f i OgreD3D9DriverEnum.obj
 0001:0000c920       ??1?$_Vector_val@PAVD3D9VertexDecl@Ogre@@V?$allocator@PAVD3D9VertexDecl@Ogre@@@std@@@std@@QAE@XZ 1000d920 f i OgreD3D9RenderSystem.obj
 0001:0000c920       ??1?$_Vector_val@PAUTechniqueDesc@Ogre@@V?$allocator@PAUTechniqueDesc@Ogre@@@std@@@std@@QAE@XZ 1000d920 f i OgreD3D9ShaderManager.obj
 0001:0000c920       ??1?$_Vector_val@U_D3DDISPLAYMODE@@V?$allocator@U_D3DDISPLAYMODE@@@std@@@std@@QAE@XZ 1000d920 f i OgreD3D9DriverEnum.obj
 0001:0000c920       ??1?$_Vector_val@W4_D3DFORMAT@@V?$allocator@W4_D3DFORMAT@@@std@@@std@@QAE@XZ 1000d920 f i OgreD3D9DriverEnum.obj
 0001:0000c920       ??1?$_Tmap_traits@TShaderEnvKey@Ogre@@PAVD3DTech@2@U?$less@TShaderEnvKey@Ogre@@@std@@V?$allocator@U?$pair@$$CBTShaderEnvKey@Ogre@@PAVD3DTech@2@@std@@@5@$0A@@std@@QAE@XZ 1000d920 f i OgreD3DMaterialTemplate.obj
 0001:0000c920       ??1?$_Vector_val@IV?$allocator@I@std@@@std@@QAE@XZ 1000d920 f i OgreD3D9DriverEnum.obj
 0001:0000c920       ??1?$_Vector_val@PAUD3DADAPTER_T@Ogre@@V?$allocator@PAUD3DADAPTER_T@Ogre@@@std@@@std@@QAE@XZ 1000d920 f i OgreD3D9DriverEnum.obj
 0001:0000c920       ??1?$_Vector_val@URTBuffer@D3D9HardwarePixelBufferManager@Ogre@@V?$allocator@URTBuffer@D3D9HardwarePixelBufferManager@Ogre@@@std@@@std@@QAE@XZ 1000d920 f i OgreD3D9HardwarePixelBuffer.obj
 0001:0000c920       ??1?$_Vector_val@PAVD3DRenderWindow@Ogre@@V?$allocator@PAVD3DRenderWindow@Ogre@@@std@@@std@@QAE@XZ 1000d920 f i OgreD3D9RenderSystem.obj
 0001:0000c920       ??1?$_Vector_val@W4VERTPROCESS_T@Ogre@@V?$allocator@W4VERTPROCESS_T@Ogre@@@std@@@std@@QAE@XZ 1000d920 f i OgreD3D9DriverEnum.obj
 0001:0000c920       ??1?$_Vector_val@UPassData@D3DShaderTechnique@Ogre@@V?$allocator@UPassData@D3DShaderTechnique@Ogre@@@std@@@std@@QAE@XZ 1000d920 f i OgreD3D9ShaderManager.obj
 0001:0000c920       ??1?$_Vector_val@W4_D3DMULTISAMPLE_TYPE@@V?$allocator@W4_D3DMULTISAMPLE_TYPE@@@std@@@std@@QAE@XZ 1000d920 f i OgreD3D9DriverEnum.obj
 0001:0000c920       ??1?$_Vector_val@PAUD3DDEVCOMBO_T@Ogre@@V?$allocator@PAUD3DDEVCOMBO_T@Ogre@@@std@@@std@@QAE@XZ 1000d920 f i OgreD3D9DriverEnum.obj
 0001:0000c920       ??1?$_Vector_val@PAVCompiledShader@Ogre@@V?$allocator@PAVCompiledShader@Ogre@@@std@@@std@@QAE@XZ 1000d920 f i OgreD3D9ShaderManager.obj
 0001:0000c920       ??1?$_Tmap_traits@TShaderEnvKey@Ogre@@PAVCompiledShader@2@U?$less@TShaderEnvKey@Ogre@@@std@@V?$allocator@U?$pair@$$CBTShaderEnvKey@Ogre@@PAVCompiledShader@2@@std@@@5@$0A@@std@@QAE@XZ 1000d920 f i OgreD3D9ShaderManager.obj
 0001:0000c920       ??1?$_Tmap_traits@TShaderEnvKey2@Ogre@@PAVD3DShaderTechnique@2@U?$less@TShaderEnvKey2@Ogre@@@std@@V?$allocator@U?$pair@$$CBTShaderEnvKey2@Ogre@@PAVD3DShaderTechnique@2@@std@@@5@$0A@@std@@QAE@XZ 1000d920 f i OgreD3DMaterialTemplate.obj
 0001:0000c920       ??1?$_Vector_val@PAUIDirect3DBaseTexture9@@V?$allocator@PAUIDirect3DBaseTexture9@@@std@@@std@@QAE@XZ 1000d920 f i OgreD3D9HardwarePixelBuffer.obj
 0001:0000c920       ??1?$_Vector_val@TShaderEnvKey@Ogre@@V?$allocator@TShaderEnvKey@Ogre@@@std@@@std@@QAE@XZ 1000d920 f i OgreD3D9ShaderManager.obj
 0001:0000c920       ??1?$_Tmap_traits@VFixedString@Ogre@@PAVCompiledShaderGroup@2@U?$less@VFixedString@Ogre@@@std@@V?$allocator@U?$pair@$$CBVFixedString@Ogre@@PAVCompiledShaderGroup@2@@std@@@5@$0A@@std@@QAE@XZ 1000d920 f i OgreD3DMaterialTemplate.obj
 0001:0000c920       ??1?$_Vector_val@U_D3DXMACRO@@V?$allocator@U_D3DXMACRO@@@std@@@std@@QAE@XZ 1000d920 f i OgreD3D9ShaderManager.obj
 0001:0000c920       ??1?$_Vector_val@UDSBuffer@D3D9HardwarePixelBufferManager@Ogre@@V?$allocator@UDSBuffer@D3D9HardwarePixelBufferManager@Ogre@@@std@@@std@@QAE@XZ 1000d920 f i OgreD3D9HardwarePixelBuffer.obj
 0001:0000c920       ??1?$_Vector_val@PAUD3DDEVICEINFO_T@Ogre@@V?$allocator@PAUD3DDEVICEINFO_T@Ogre@@@std@@@std@@QAE@XZ 1000d920 f i OgreD3D9DriverEnum.obj
 0001:0000c920       ??1?$_Vector_val@DV?$allocator@D@std@@@std@@QAE@XZ 1000d920 f i OgreD3D9ShaderManager.obj
 0001:0000c920       ??1?$_Vector_val@UPassDesc@Ogre@@V?$allocator@UPassDesc@Ogre@@@std@@@std@@QAE@XZ 1000d920 f i OgreD3D9ShaderManager.obj
 0001:0000c970       ?capacity@?$vector@W4_D3DFORMAT@@V?$allocator@W4_D3DFORMAT@@@std@@@std@@QBEIXZ 1000d970 f i OgreD3D9DriverEnum.obj
 0001:0000c970       ?capacity@?$vector@PAUD3DADAPTER_T@Ogre@@V?$allocator@PAUD3DADAPTER_T@Ogre@@@std@@@std@@QBEIXZ 1000d970 f i OgreD3D9DriverEnum.obj
 0001:0000c970       ?capacity@?$vector@IV?$allocator@I@std@@@std@@QBEIXZ 1000d970 f i OgreD3D9DriverEnum.obj
 0001:0000c970       ?capacity@?$vector@W4VERTPROCESS_T@Ogre@@V?$allocator@W4VERTPROCESS_T@Ogre@@@std@@@std@@QBEIXZ 1000d970 f i OgreD3D9DriverEnum.obj
 0001:0000c970       ?capacity@?$vector@W4_D3DMULTISAMPLE_TYPE@@V?$allocator@W4_D3DMULTISAMPLE_TYPE@@@std@@@std@@QBEIXZ 1000d970 f i OgreD3D9DriverEnum.obj
 0001:0000c970       ?capacity@?$vector@PAVCompiledShader@Ogre@@V?$allocator@PAVCompiledShader@Ogre@@@std@@@std@@QBEIXZ 1000d970 f i OgreD3D9ShaderManager.obj
 0001:0000c970       ?capacity@?$vector@PAVD3D9TextureRenderTarget@Ogre@@V?$allocator@PAVD3D9TextureRenderTarget@Ogre@@@std@@@std@@QBEIXZ 1000d970 f i OgreD3D9HardwarePixelBuffer.obj
 0001:0000c970       ?capacity@?$vector@PAUTechniqueDesc@Ogre@@V?$allocator@PAUTechniqueDesc@Ogre@@@std@@@std@@QBEIXZ 1000d970 f i OgreD3D9ShaderManager.obj
 0001:0000c970       ?capacity@?$vector@PAVD3D9VertexDecl@Ogre@@V?$allocator@PAVD3D9VertexDecl@Ogre@@@std@@@std@@QBEIXZ 1000d970 f i OgreD3D9RenderSystem.obj
 0001:0000c970       ?capacity@?$vector@PAVD3DRenderWindow@Ogre@@V?$allocator@PAVD3DRenderWindow@Ogre@@@std@@@std@@QBEIXZ 1000d970 f i OgreD3D9RenderSystem.obj
 0001:0000c970       ?capacity@?$vector@PAUD3DDEVCOMBO_T@Ogre@@V?$allocator@PAUD3DDEVCOMBO_T@Ogre@@@std@@@std@@QBEIXZ 1000d970 f i OgreD3D9DriverEnum.obj
 0001:0000c970       ?capacity@?$vector@PAUTechCache@D3DMaterialTemplate@Ogre@@V?$allocator@PAUTechCache@D3DMaterialTemplate@Ogre@@@std@@@std@@QBEIXZ 1000d970 f i OgreD3DMaterialTemplate.obj
 0001:0000c970       ?capacity@?$vector@PAUD3DDEVICEINFO_T@Ogre@@V?$allocator@PAUD3DDEVICEINFO_T@Ogre@@@std@@@std@@QBEIXZ 1000d970 f i OgreD3D9DriverEnum.obj
 0001:0000c9b0       ??0?$_Vector_val@UPassDesc@Ogre@@V?$allocator@UPassDesc@Ogre@@@std@@@std@@IAE@V?$allocator@UPassDesc@Ogre@@@1@@Z 1000d9b0 f i OgreD3D9ShaderManager.obj
 0001:0000c9b0       ??0?$_Vector_val@UDSBuffer@D3D9HardwarePixelBufferManager@Ogre@@V?$allocator@UDSBuffer@D3D9HardwarePixelBufferManager@Ogre@@@std@@@std@@IAE@V?$allocator@UDSBuffer@D3D9HardwarePixelBufferManager@Ogre@@@1@@Z 1000d9b0 f i OgreD3D9HardwarePixelBuffer.obj
 0001:0000c9b0       ??0?$_Vector_val@UPassData@D3DShaderTechnique@Ogre@@V?$allocator@UPassData@D3DShaderTechnique@Ogre@@@std@@@std@@IAE@V?$allocator@UPassData@D3DShaderTechnique@Ogre@@@1@@Z 1000d9b0 f i OgreD3D9ShaderManager.obj
 0001:0000c9b0       ??0?$_Vector_val@W4_D3DMULTISAMPLE_TYPE@@V?$allocator@W4_D3DMULTISAMPLE_TYPE@@@std@@@std@@IAE@V?$allocator@W4_D3DMULTISAMPLE_TYPE@@@1@@Z 1000d9b0 f i OgreD3D9DriverEnum.obj
 0001:0000c9b0       ??0?$_Vector_val@UD3DSMSCONFLICT_T@Ogre@@V?$allocator@UD3DSMSCONFLICT_T@Ogre@@@std@@@std@@IAE@V?$allocator@UD3DSMSCONFLICT_T@Ogre@@@1@@Z 1000d9b0 f i OgreD3D9DriverEnum.obj
 0001:0000c9b0       ??0?$_Vector_val@PAUTechniqueDesc@Ogre@@V?$allocator@PAUTechniqueDesc@Ogre@@@std@@@std@@IAE@V?$allocator@PAUTechniqueDesc@Ogre@@@1@@Z 1000d9b0 f i OgreD3D9ShaderManager.obj
 0001:0000c9b0       ??0?$_Vector_val@PAUIDirect3DBaseTexture9@@V?$allocator@PAUIDirect3DBaseTexture9@@@std@@@std@@IAE@V?$allocator@PAUIDirect3DBaseTexture9@@@1@@Z 1000d9b0 f i OgreD3D9HardwarePixelBuffer.obj
 0001:0000c9b0       ??0?$_Vector_val@URTBuffer@D3D9HardwarePixelBufferManager@Ogre@@V?$allocator@URTBuffer@D3D9HardwarePixelBufferManager@Ogre@@@std@@@std@@IAE@V?$allocator@URTBuffer@D3D9HardwarePixelBufferManager@Ogre@@@1@@Z 1000d9b0 f i OgreD3D9HardwarePixelBuffer.obj
 0001:0000c9b0       ??0?$_Vector_val@PAVD3D9VertexDecl@Ogre@@V?$allocator@PAVD3D9VertexDecl@Ogre@@@std@@@std@@IAE@V?$allocator@PAVD3D9VertexDecl@Ogre@@@1@@Z 1000d9b0 f i OgreD3D9RenderSystem.obj
 0001:0000c9b0       ??0?$_Vector_val@W4_D3DFORMAT@@V?$allocator@W4_D3DFORMAT@@@std@@@std@@IAE@V?$allocator@W4_D3DFORMAT@@@1@@Z 1000d9b0 f i OgreD3D9DriverEnum.obj
 0001:0000c9b0       ??0?$_Vector_val@PAVD3DRenderWindow@Ogre@@V?$allocator@PAVD3DRenderWindow@Ogre@@@std@@@std@@IAE@V?$allocator@PAVD3DRenderWindow@Ogre@@@1@@Z 1000d9b0 f i OgreD3D9RenderSystem.obj
 0001:0000c9b0       ??0?$_Vector_val@W4VERTPROCESS_T@Ogre@@V?$allocator@W4VERTPROCESS_T@Ogre@@@std@@@std@@IAE@V?$allocator@W4VERTPROCESS_T@Ogre@@@1@@Z 1000d9b0 f i OgreD3D9DriverEnum.obj
 0001:0000c9b0       ??0?$_Vector_val@PAUD3DDEVCOMBO_T@Ogre@@V?$allocator@PAUD3DDEVCOMBO_T@Ogre@@@std@@@std@@IAE@V?$allocator@PAUD3DDEVCOMBO_T@Ogre@@@1@@Z 1000d9b0 f i OgreD3D9DriverEnum.obj
 0001:0000c9b0       ??0?$_Vector_val@PAUTechCache@D3DMaterialTemplate@Ogre@@V?$allocator@PAUTechCache@D3DMaterialTemplate@Ogre@@@std@@@std@@IAE@V?$allocator@PAUTechCache@D3DMaterialTemplate@Ogre@@@1@@Z 1000d9b0 f i OgreD3DMaterialTemplate.obj
 0001:0000c9b0       ??0?$_Vector_val@U_D3DXMACRO@@V?$allocator@U_D3DXMACRO@@@std@@@std@@IAE@V?$allocator@U_D3DXMACRO@@@1@@Z 1000d9b0 f i OgreD3D9ShaderManager.obj
 0001:0000c9b0       ??0?$_Vector_val@PAUD3DADAPTER_T@Ogre@@V?$allocator@PAUD3DADAPTER_T@Ogre@@@std@@@std@@IAE@V?$allocator@PAUD3DADAPTER_T@Ogre@@@1@@Z 1000d9b0 f i OgreD3D9DriverEnum.obj
 0001:0000c9b0       ??0?$_Vector_val@TShaderEnvKey@Ogre@@V?$allocator@TShaderEnvKey@Ogre@@@std@@@std@@IAE@V?$allocator@TShaderEnvKey@Ogre@@@1@@Z 1000d9b0 f i OgreD3D9ShaderManager.obj
 0001:0000c9b0       ??0?$_Vector_val@PAVD3D9TextureRenderTarget@Ogre@@V?$allocator@PAVD3D9TextureRenderTarget@Ogre@@@std@@@std@@IAE@V?$allocator@PAVD3D9TextureRenderTarget@Ogre@@@1@@Z 1000d9b0 f i OgreD3D9HardwarePixelBuffer.obj
 0001:0000c9b0       ??0?$_Vector_val@U_D3DDISPLAYMODE@@V?$allocator@U_D3DDISPLAYMODE@@@std@@@std@@IAE@V?$allocator@U_D3DDISPLAYMODE@@@1@@Z 1000d9b0 f i OgreD3D9DriverEnum.obj
 0001:0000c9b0       ??0?$_Vector_val@PAVCompiledShader@Ogre@@V?$allocator@PAVCompiledShader@Ogre@@@std@@@std@@IAE@V?$allocator@PAVCompiledShader@Ogre@@@1@@Z 1000d9b0 f i OgreD3D9ShaderManager.obj
 0001:0000c9b0       ??0?$_Vector_val@IV?$allocator@I@std@@@std@@IAE@V?$allocator@I@1@@Z 1000d9b0 f i OgreD3D9DriverEnum.obj
 0001:0000c9b0       ??0?$_Vector_val@PAUD3DDEVICEINFO_T@Ogre@@V?$allocator@PAUD3DDEVICEINFO_T@Ogre@@@std@@@std@@IAE@V?$allocator@PAUD3DDEVICEINFO_T@Ogre@@@1@@Z 1000d9b0 f i OgreD3D9DriverEnum.obj
 0001:0000ca20       ??1?$_Container_base_aux_alloc_real@V?$allocator@U_D3DDISPLAYMODE@@@std@@@std@@IAE@XZ 1000da20 f i OgreD3D9DriverEnum.obj
 0001:0000ca20       ??1?$_Container_base_aux_alloc_real@V?$allocator@PAUIDirect3DBaseTexture9@@@std@@@std@@IAE@XZ 1000da20 f i OgreD3D9HardwarePixelBuffer.obj
 0001:0000ca20       ??1?$_Container_base_aux_alloc_real@V?$allocator@W4VERTPROCESS_T@Ogre@@@std@@@std@@IAE@XZ 1000da20 f i OgreD3D9DriverEnum.obj
 0001:0000ca20       ??1?$_Container_base_aux_alloc_real@V?$allocator@PAUD3DDEVCOMBO_T@Ogre@@@std@@@std@@IAE@XZ 1000da20 f i OgreD3D9DriverEnum.obj
 0001:0000ca20       ??1?$_Container_base_aux_alloc_real@V?$allocator@URTBuffer@D3D9HardwarePixelBufferManager@Ogre@@@std@@@std@@IAE@XZ 1000da20 f i OgreD3D9HardwarePixelBuffer.obj
 0001:0000ca20       ??1?$_Container_base_aux_alloc_real@V?$allocator@PAUD3DDEVICEINFO_T@Ogre@@@std@@@std@@IAE@XZ 1000da20 f i OgreD3D9DriverEnum.obj
 0001:0000ca20       ??1?$_Container_base_aux_alloc_real@V?$allocator@PAVCompiledShader@Ogre@@@std@@@std@@IAE@XZ 1000da20 f i OgreD3D9ShaderManager.obj
 0001:0000ca20       ??1?$_Container_base_aux_alloc_real@V?$allocator@UPassDesc@Ogre@@@std@@@std@@IAE@XZ 1000da20 f i OgreD3D9ShaderManager.obj
 0001:0000ca20       ??1?$_Container_base_aux_alloc_real@V?$allocator@TShaderEnvKey@Ogre@@@std@@@std@@IAE@XZ 1000da20 f i OgreD3D9ShaderManager.obj
 0001:0000ca20       ??1?$_Container_base_aux_alloc_real@V?$allocator@PAVD3D9TextureRenderTarget@Ogre@@@std@@@std@@IAE@XZ 1000da20 f i OgreD3D9HardwarePixelBuffer.obj
 0001:0000ca20       ??1?$_Container_base_aux_alloc_real@V?$allocator@U_D3DXMACRO@@@std@@@std@@IAE@XZ 1000da20 f i OgreD3D9ShaderManager.obj
 0001:0000ca20       ??1?$_Container_base_aux_alloc_real@V?$allocator@U?$pair@$$CBTShaderEnvKey@Ogre@@PAVD3DTech@2@@std@@@std@@@std@@IAE@XZ 1000da20 f i OgreD3DMaterialTemplate.obj
 0001:0000ca20       ??1?$_Container_base_aux_alloc_real@V?$allocator@D@std@@@std@@IAE@XZ 1000da20 f i OgreD3D9ShaderManager.obj
 0001:0000ca20       ??1?$_Container_base_aux_alloc_real@V?$allocator@W4_D3DMULTISAMPLE_TYPE@@@std@@@std@@IAE@XZ 1000da20 f i OgreD3D9DriverEnum.obj
 0001:0000ca20       ??1?$_Container_base_aux_alloc_real@V?$allocator@PAUTechCache@D3DMaterialTemplate@Ogre@@@std@@@std@@IAE@XZ 1000da20 f i OgreD3DMaterialTemplate.obj
 0001:0000ca20       ??1?$_Container_base_aux_alloc_real@V?$allocator@W4_D3DFORMAT@@@std@@@std@@IAE@XZ 1000da20 f i OgreD3D9DriverEnum.obj
 0001:0000ca20       ??1?$_Container_base_aux_alloc_real@V?$allocator@PAUTechniqueDesc@Ogre@@@std@@@std@@IAE@XZ 1000da20 f i OgreD3D9ShaderManager.obj
 0001:0000ca20       ??1?$_Container_base_aux_alloc_real@V?$allocator@UDSBuffer@D3D9HardwarePixelBufferManager@Ogre@@@std@@@std@@IAE@XZ 1000da20 f i OgreD3D9HardwarePixelBuffer.obj
 0001:0000ca20       ??1?$_Container_base_aux_alloc_real@V?$allocator@PAVD3DRenderWindow@Ogre@@@std@@@std@@IAE@XZ 1000da20 f i OgreD3D9RenderSystem.obj
 0001:0000ca20       ??1?$_Container_base_aux_alloc_real@V?$allocator@U?$pair@$$CBVFixedString@Ogre@@PAVCompiledShaderGroup@2@@std@@@std@@@std@@IAE@XZ 1000da20 f i OgreD3DMaterialTemplate.obj
 0001:0000ca20       ??1?$_Container_base_aux_alloc_real@V?$allocator@UPassData@D3DShaderTechnique@Ogre@@@std@@@std@@IAE@XZ 1000da20 f i OgreD3D9ShaderManager.obj
 0001:0000ca20       ??1?$_Container_base_aux_alloc_real@V?$allocator@PAUD3DADAPTER_T@Ogre@@@std@@@std@@IAE@XZ 1000da20 f i OgreD3D9DriverEnum.obj
 0001:0000ca20       ??1?$_Container_base_aux_alloc_real@V?$allocator@U?$pair@$$CBTShaderEnvKey@Ogre@@PAVCompiledShader@2@@std@@@std@@@std@@IAE@XZ 1000da20 f i OgreD3D9ShaderManager.obj
 0001:0000ca20       ??1?$_Container_base_aux_alloc_real@V?$allocator@I@std@@@std@@IAE@XZ 1000da20 f i OgreD3D9DriverEnum.obj
 0001:0000ca20       ??1?$_Container_base_aux_alloc_real@V?$allocator@PAVD3D9VertexDecl@Ogre@@@std@@@std@@IAE@XZ 1000da20 f i OgreD3D9RenderSystem.obj
 0001:0000ca20       ??1?$_Container_base_aux_alloc_real@V?$allocator@UD3DSMSCONFLICT_T@Ogre@@@std@@@std@@IAE@XZ 1000da20 f i OgreD3D9DriverEnum.obj
 0001:0000ca20       ??1?$_Container_base_aux_alloc_real@V?$allocator@U?$pair@$$CBTShaderEnvKey2@Ogre@@PAVD3DShaderTechnique@2@@std@@@std@@@std@@IAE@XZ 1000da20 f i OgreD3DMaterialTemplate.obj
 0001:0000ca80       ??E?$_Vector_iterator@PAVHardwarePixelBuffer@Ogre@@V?$allocator@PAVHardwarePixelBuffer@Ogre@@@std@@@std@@QAEAAV01@XZ 1000da80 f i OgreD3D9HardwarePixelBuffer.obj
 0001:0000ca80       ??E?$_Vector_iterator@PAVD3D9VertexDecl@Ogre@@V?$allocator@PAVD3D9VertexDecl@Ogre@@@std@@@std@@QAEAAV01@XZ 1000da80 f i OgreD3D9RenderSystem.obj
 0001:0000ca80       ??E?$_Vector_iterator@PAVD3D9TextureRenderTarget@Ogre@@V?$allocator@PAVD3D9TextureRenderTarget@Ogre@@@std@@@std@@QAEAAV01@XZ 1000da80 f i OgreD3D9HardwarePixelBuffer.obj
 0001:0000ca80       ??E?$_Vector_iterator@PAVD3DRenderWindow@Ogre@@V?$allocator@PAVD3DRenderWindow@Ogre@@@std@@@std@@QAEAAV01@XZ 1000da80 f i OgreD3D9RenderSystem.obj
 0001:0000caa0       ?max_size@?$vector@W4VERTPROCESS_T@Ogre@@V?$allocator@W4VERTPROCESS_T@Ogre@@@std@@@std@@QBEIXZ 1000daa0 f i OgreD3D9DriverEnum.obj
 0001:0000caa0       ?max_size@?$vector@W4_D3DFORMAT@@V?$allocator@W4_D3DFORMAT@@@std@@@std@@QBEIXZ 1000daa0 f i OgreD3D9DriverEnum.obj
 0001:0000caa0       ?max_size@?$vector@PAUTechniqueDesc@Ogre@@V?$allocator@PAUTechniqueDesc@Ogre@@@std@@@std@@QBEIXZ 1000daa0 f i OgreD3D9ShaderManager.obj
 0001:0000caa0       ?max_size@?$vector@PAVD3DRenderWindow@Ogre@@V?$allocator@PAVD3DRenderWindow@Ogre@@@std@@@std@@QBEIXZ 1000daa0 f i OgreD3D9RenderSystem.obj
 0001:0000caa0       ?max_size@?$vector@PAVD3D9TextureRenderTarget@Ogre@@V?$allocator@PAVD3D9TextureRenderTarget@Ogre@@@std@@@std@@QBEIXZ 1000daa0 f i OgreD3D9HardwarePixelBuffer.obj
 0001:0000caa0       ?max_size@?$vector@PAVD3D9VertexDecl@Ogre@@V?$allocator@PAVD3D9VertexDecl@Ogre@@@std@@@std@@QBEIXZ 1000daa0 f i OgreD3D9RenderSystem.obj
 0001:0000caa0       ?max_size@?$vector@PAUIDirect3DBaseTexture9@@V?$allocator@PAUIDirect3DBaseTexture9@@@std@@@std@@QBEIXZ 1000daa0 f i OgreD3D9HardwarePixelBuffer.obj
 0001:0000caa0       ?max_size@?$vector@PAUD3DDEVCOMBO_T@Ogre@@V?$allocator@PAUD3DDEVCOMBO_T@Ogre@@@std@@@std@@QBEIXZ 1000daa0 f i OgreD3D9DriverEnum.obj
 0001:0000caa0       ?max_size@?$vector@PAUD3DADAPTER_T@Ogre@@V?$allocator@PAUD3DADAPTER_T@Ogre@@@std@@@std@@QBEIXZ 1000daa0 f i OgreD3D9DriverEnum.obj
 0001:0000caa0       ?max_size@?$vector@PAVCompiledShader@Ogre@@V?$allocator@PAVCompiledShader@Ogre@@@std@@@std@@QBEIXZ 1000daa0 f i OgreD3D9ShaderManager.obj
 0001:0000caa0       ?max_size@?$vector@PAUTechCache@D3DMaterialTemplate@Ogre@@V?$allocator@PAUTechCache@D3DMaterialTemplate@Ogre@@@std@@@std@@QBEIXZ 1000daa0 f i OgreD3DMaterialTemplate.obj
 0001:0000caa0       ?max_size@?$vector@IV?$allocator@I@std@@@std@@QBEIXZ 1000daa0 f i OgreD3D9DriverEnum.obj
 0001:0000caa0       ?max_size@?$vector@PAUD3DDEVICEINFO_T@Ogre@@V?$allocator@PAUD3DDEVICEINFO_T@Ogre@@@std@@@std@@QBEIXZ 1000daa0 f i OgreD3D9DriverEnum.obj
 0001:0000caa0       ?max_size@?$vector@W4_D3DMULTISAMPLE_TYPE@@V?$allocator@W4_D3DMULTISAMPLE_TYPE@@@std@@@std@@QBEIXZ 1000daa0 f i OgreD3D9DriverEnum.obj
 0001:0000cac0       ??E?$_Vector_const_iterator@PAVHardwarePixelBuffer@Ogre@@V?$allocator@PAVHardwarePixelBuffer@Ogre@@@std@@@std@@QAEAAV01@XZ 1000dac0 f i OgreD3D9HardwarePixelBuffer.obj
 0001:0000cac0       ??E?$_Vector_const_iterator@PAVD3DRenderWindow@Ogre@@V?$allocator@PAVD3DRenderWindow@Ogre@@@std@@@std@@QAEAAV01@XZ 1000dac0 f i OgreD3D9RenderSystem.obj
 0001:0000cac0       ??E?$_Vector_const_iterator@PAVD3D9TextureRenderTarget@Ogre@@V?$allocator@PAVD3D9TextureRenderTarget@Ogre@@@std@@@std@@QAEAAV01@XZ 1000dac0 f i OgreD3D9HardwarePixelBuffer.obj
 0001:0000cac0       ??E?$_Vector_const_iterator@PAVD3D9VertexDecl@Ogre@@V?$allocator@PAVD3D9VertexDecl@Ogre@@@std@@@std@@QAEAAV01@XZ 1000dac0 f i OgreD3D9RenderSystem.obj
 0001:0000cb10       ??$DeletePointerArray@VD3D9VertexDecl@Ogre@@@Ogre@@YAXAAV?$vector@PAVD3D9VertexDecl@Ogre@@V?$allocator@PAVD3D9VertexDecl@Ogre@@@std@@@std@@@Z 1000db10 f i OgreD3D9RenderSystem.obj
 0001:0000cb80       ??$_snprintf_s@$0BAA@@@YAHAAY0BAA@DIPBDZZ 1000db80 f i OgreD3D9RenderSystem.obj
 0001:0000cbb0       ??A?$vector@PAUTechCache@D3DMaterialTemplate@Ogre@@V?$allocator@PAUTechCache@D3DMaterialTemplate@Ogre@@@std@@@std@@QAEAAPAUTechCache@D3DMaterialTemplate@Ogre@@I@Z 1000dbb0 f i OgreD3DMaterialTemplate.obj
 0001:0000cbb0       ??A?$vector@W4_D3DFORMAT@@V?$allocator@W4_D3DFORMAT@@@std@@@std@@QAEAAW4_D3DFORMAT@@I@Z 1000dbb0 f i OgreD3D9DriverEnum.obj
 0001:0000cbb0       ??A?$vector@W4_D3DMULTISAMPLE_TYPE@@V?$allocator@W4_D3DMULTISAMPLE_TYPE@@@std@@@std@@QAEAAW4_D3DMULTISAMPLE_TYPE@@I@Z 1000dbb0 f i OgreD3D9DriverEnum.obj
 0001:0000cbb0       ??A?$vector@PAUD3DADAPTER_T@Ogre@@V?$allocator@PAUD3DADAPTER_T@Ogre@@@std@@@std@@QAEAAPAUD3DADAPTER_T@Ogre@@I@Z 1000dbb0 f i OgreD3D9DriverEnum.obj
 0001:0000cbb0       ??A?$vector@PAUD3DDEVCOMBO_T@Ogre@@V?$allocator@PAUD3DDEVCOMBO_T@Ogre@@@std@@@std@@QAEAAPAUD3DDEVCOMBO_T@Ogre@@I@Z 1000dbb0 f i OgreD3D9DriverEnum.obj
 0001:0000cbb0       ??A?$vector@PAVCompiledShader@Ogre@@V?$allocator@PAVCompiledShader@Ogre@@@std@@@std@@QAEAAPAVCompiledShader@Ogre@@I@Z 1000dbb0 f i OgreD3D9ShaderManager.obj
 0001:0000cbb0       ??A?$vector@PAUD3DDEVICEINFO_T@Ogre@@V?$allocator@PAUD3DDEVICEINFO_T@Ogre@@@std@@@std@@QAEAAPAUD3DDEVICEINFO_T@Ogre@@I@Z 1000dbb0 f i OgreD3D9DriverEnum.obj
 0001:0000cbb0       ??A?$vector@PAVD3DRenderWindow@Ogre@@V?$allocator@PAVD3DRenderWindow@Ogre@@@std@@@std@@QAEAAPAVD3DRenderWindow@Ogre@@I@Z 1000dbb0 f i OgreD3D9RenderSystem.obj
 0001:0000cbb0       ??A?$vector@PAVD3D9VertexDecl@Ogre@@V?$allocator@PAVD3D9VertexDecl@Ogre@@@std@@@std@@QAEAAPAVD3D9VertexDecl@Ogre@@I@Z 1000dbb0 f i OgreD3D9RenderSystem.obj
 0001:0000cbb0       ??A?$vector@PAUTechniqueDesc@Ogre@@V?$allocator@PAUTechniqueDesc@Ogre@@@std@@@std@@QAEAAPAUTechniqueDesc@Ogre@@I@Z 1000dbb0 f i OgreD3D9ShaderManager.obj
 0001:0000cbb0       ??A?$vector@W4VERTPROCESS_T@Ogre@@V?$allocator@W4VERTPROCESS_T@Ogre@@@std@@@std@@QAEAAW4VERTPROCESS_T@Ogre@@I@Z 1000dbb0 f i OgreD3D9DriverEnum.obj
 0001:0000cbe0       ?clear@?$vector@PAVD3D9VertexDecl@Ogre@@V?$allocator@PAVD3D9VertexDecl@Ogre@@@std@@@std@@QAEXXZ 1000dbe0 f i OgreD3D9RenderSystem.obj
 0001:0000cc40       ??$_Move_backward_opt@PAIPAIUrandom_access_iterator_tag@std@@U_Undefined_move_tag@2@@std@@YAPAIPAI00Urandom_access_iterator_tag@0@U_Undefined_move_tag@0@U_Range_checked_iterator_tag@0@@Z 1000dc40 f i OgreD3D9DriverEnum.obj
 0001:0000cc40       ??$_Move_backward_opt@PAPAUD3DDEVCOMBO_T@Ogre@@PAPAU12@Urandom_access_iterator_tag@std@@U_Undefined_move_tag@4@@std@@YAPAPAUD3DDEVCOMBO_T@Ogre@@PAPAU12@00Urandom_access_iterator_tag@0@U_Undefined_move_tag@0@U_Range_checked_iterator_tag@0@@Z 1000dc40 f i OgreD3D9DriverEnum.obj
 0001:0000cc40       ??$_Move_backward_opt@PAPAUD3DDEVICEINFO_T@Ogre@@PAPAU12@Urandom_access_iterator_tag@std@@U_Undefined_move_tag@4@@std@@YAPAPAUD3DDEVICEINFO_T@Ogre@@PAPAU12@00Urandom_access_iterator_tag@0@U_Undefined_move_tag@0@U_Range_checked_iterator_tag@0@@Z 1000dc40 f i OgreD3D9DriverEnum.obj
 0001:0000cc40       ??$_Move_backward_opt@PAPAVD3D9VertexDecl@Ogre@@PAPAV12@Urandom_access_iterator_tag@std@@U_Undefined_move_tag@4@@std@@YAPAPAVD3D9VertexDecl@Ogre@@PAPAV12@00Urandom_access_iterator_tag@0@U_Undefined_move_tag@0@U_Range_checked_iterator_tag@0@@Z 1000dc40 f i OgreD3D9RenderSystem.obj
 0001:0000cc40       ??$_Move_backward_opt@PAPAVD3D9TextureRenderTarget@Ogre@@PAPAV12@Urandom_access_iterator_tag@std@@U_Undefined_move_tag@4@@std@@YAPAPAVD3D9TextureRenderTarget@Ogre@@PAPAV12@00Urandom_access_iterator_tag@0@U_Undefined_move_tag@0@U_Range_checked_iterator_tag@0@@Z 1000dc40 f i OgreD3D9HardwarePixelBuffer.obj
 0001:0000cc40       ??$_Move_backward_opt@PAPAVCompiledShader@Ogre@@PAPAV12@Urandom_access_iterator_tag@std@@U_Undefined_move_tag@4@@std@@YAPAPAVCompiledShader@Ogre@@PAPAV12@00Urandom_access_iterator_tag@0@U_Undefined_move_tag@0@U_Range_checked_iterator_tag@0@@Z 1000dc40 f i OgreD3D9ShaderManager.obj
 0001:0000cc40       ??$_Move_backward_opt@PAPAUTechniqueDesc@Ogre@@PAPAU12@Urandom_access_iterator_tag@std@@U_Undefined_move_tag@4@@std@@YAPAPAUTechniqueDesc@Ogre@@PAPAU12@00Urandom_access_iterator_tag@0@U_Undefined_move_tag@0@U_Range_checked_iterator_tag@0@@Z 1000dc40 f i OgreD3D9ShaderManager.obj
 0001:0000cc40       ??$_Move_backward_opt@PAPAUD3DADAPTER_T@Ogre@@PAPAU12@Urandom_access_iterator_tag@std@@U_Undefined_move_tag@4@@std@@YAPAPAUD3DADAPTER_T@Ogre@@PAPAU12@00Urandom_access_iterator_tag@0@U_Undefined_move_tag@0@U_Range_checked_iterator_tag@0@@Z 1000dc40 f i OgreD3D9DriverEnum.obj
 0001:0000cc40       ??$_Move_backward_opt@PAPAVD3DRenderWindow@Ogre@@PAPAV12@Urandom_access_iterator_tag@std@@U_Undefined_move_tag@4@@std@@YAPAPAVD3DRenderWindow@Ogre@@PAPAV12@00Urandom_access_iterator_tag@0@U_Undefined_move_tag@0@U_Range_checked_iterator_tag@0@@Z 1000dc40 f i OgreD3D9RenderSystem.obj
 0001:0000cc40       ??$_Move_backward_opt@PAPAUTechCache@D3DMaterialTemplate@Ogre@@PAPAU123@Urandom_access_iterator_tag@std@@U_Undefined_move_tag@5@@std@@YAPAPAUTechCache@D3DMaterialTemplate@Ogre@@PAPAU123@00Urandom_access_iterator_tag@0@U_Undefined_move_tag@0@U_Range_checked_iterator_tag@0@@Z 1000dc40 f i OgreD3DMaterialTemplate.obj
 0001:0000cc90       ??$_Move_cat@PAPAVD3D9VertexDecl@Ogre@@@std@@YA?AU_Undefined_move_tag@0@ABQAPAVD3D9VertexDecl@Ogre@@@Z 1000dc90 f i OgreD3D9RenderSystem.obj
 0001:0000cc90       ??$_Move_cat@PAPAUTechniqueDesc@Ogre@@@std@@YA?AU_Undefined_move_tag@0@ABQAPAUTechniqueDesc@Ogre@@@Z 1000dc90 f i OgreD3D9ShaderManager.obj
 0001:0000cc90       ??$_Ptr_cat@PAU_D3DDISPLAYMODE@@PAU1@@std@@YA?AU_Nonscalar_ptr_iterator_tag@0@AAPAU_D3DDISPLAYMODE@@0@Z 1000dc90 f i OgreD3D9DriverEnum.obj
 0001:0000cc90       ??$_Ptr_cat@PAW4VERTPROCESS_T@Ogre@@PAW412@@std@@YA?AU_Nonscalar_ptr_iterator_tag@0@AAPAW4VERTPROCESS_T@Ogre@@0@Z 1000dc90 f i OgreD3D9DriverEnum.obj
 0001:0000cc90       ??$_Move_cat@PAW4VERTPROCESS_T@Ogre@@@std@@YA?AU_Undefined_move_tag@0@ABQAW4VERTPROCESS_T@Ogre@@@Z 1000dc90 f i OgreD3D9DriverEnum.obj
 0001:0000cc90       ??$_Ptr_cat@PAPAUD3DDEVICEINFO_T@Ogre@@PAPAU12@@std@@YA?AU_Scalar_ptr_iterator_tag@0@AAPAPAUD3DDEVICEINFO_T@Ogre@@0@Z 1000dc90 f i OgreD3D9DriverEnum.obj
 0001:0000cc90       ??$_Ptr_cat@PAUPassDesc@Ogre@@PAU12@@std@@YA?AU_Nonscalar_ptr_iterator_tag@0@AAPAUPassDesc@Ogre@@0@Z 1000dc90 f i OgreD3D9ShaderManager.obj
 0001:0000cc90       ??$_Ptr_cat@PAUShaderEnv@Ogre@@PAU12@@std@@YA?AU_Nonscalar_ptr_iterator_tag@0@AAPAUShaderEnv@Ogre@@0@Z 1000dc90 f i OgreD3DMaterialTemplate.obj
 0001:0000cc90       ??$_Ptr_cat@PAU_D3DXMACRO@@PAU1@@std@@YA?AU_Nonscalar_ptr_iterator_tag@0@AAPAU_D3DXMACRO@@0@Z 1000dc90 f i OgreD3D9ShaderManager.obj
 0001:0000cc90       ??$_Ptr_cat@PAUDSBuffer@D3D9HardwarePixelBufferManager@Ogre@@PAU123@@std@@YA?AU_Nonscalar_ptr_iterator_tag@0@AAPAUDSBuffer@D3D9HardwarePixelBufferManager@Ogre@@0@Z 1000dc90 f i OgreD3D9HardwarePixelBuffer.obj
 0001:0000cc90       ??$_Ptr_cat@PAPAUIDirect3DBaseTexture9@@PAPAU1@@std@@YA?AU_Scalar_ptr_iterator_tag@0@AAPAPAUIDirect3DBaseTexture9@@0@Z 1000dc90 f i OgreD3D9HardwarePixelBuffer.obj
 0001:0000cc90       ??$_Ptr_cat@PAPAUTechniqueDesc@Ogre@@PAPAU12@@std@@YA?AU_Scalar_ptr_iterator_tag@0@AAPAPAUTechniqueDesc@Ogre@@0@Z 1000dc90 f i OgreD3D9ShaderManager.obj
 0001:0000cc90       ??$_Ptr_cat@PAIPAI@std@@YA?AU_Scalar_ptr_iterator_tag@0@AAPAI0@Z 1000dc90 f i OgreD3D9DriverEnum.obj
 0001:0000cc90       ??$_Move_cat@PAPAUD3DADAPTER_T@Ogre@@@std@@YA?AU_Undefined_move_tag@0@ABQAPAUD3DADAPTER_T@Ogre@@@Z 1000dc90 f i OgreD3D9DriverEnum.obj
 0001:0000cc90       ??$_Ptr_cat@PAUD3DSMSCONFLICT_T@Ogre@@PAU12@@std@@YA?AU_Nonscalar_ptr_iterator_tag@0@AAPAUD3DSMSCONFLICT_T@Ogre@@0@Z 1000dc90 f i OgreD3D9DriverEnum.obj
 0001:0000cc90       ??$_Move_cat@PAI@std@@YA?AU_Undefined_move_tag@0@ABQAI@Z 1000dc90 f i OgreD3D9DriverEnum.obj
 0001:0000cc90       ??$_Move_cat@PAU_D3DXMACRO@@@std@@YA?AU_Undefined_move_tag@0@ABQAU_D3DXMACRO@@@Z 1000dc90 f i OgreD3D9ShaderManager.obj
 0001:0000cc90       ??$_Ptr_cat@PAPAVD3DRenderWindow@Ogre@@PAPAV12@@std@@YA?AU_Scalar_ptr_iterator_tag@0@AAPAPAVD3DRenderWindow@Ogre@@0@Z 1000dc90 f i OgreD3D9RenderSystem.obj
 0001:0000cc90       ??$_Ptr_cat@PAW4_D3DFORMAT@@PAW41@@std@@YA?AU_Nonscalar_ptr_iterator_tag@0@AAPAW4_D3DFORMAT@@0@Z 1000dc90 f i OgreD3D9DriverEnum.obj
 0001:0000cc90       ??$_Ptr_cat@PAPAVD3D9TextureRenderTarget@Ogre@@PAPAV12@@std@@YA?AU_Scalar_ptr_iterator_tag@0@AAPAPAVD3D9TextureRenderTarget@Ogre@@0@Z 1000dc90 f i OgreD3D9HardwarePixelBuffer.obj
 0001:0000cc90       ??$_Ptr_cat@PADPAD@std@@YA?AU_Scalar_ptr_iterator_tag@0@AAPAD0@Z 1000dc90 f i OgreD3D9ShaderManager.obj
 0001:0000cc90       ??$_Move_cat@PAPAVD3DRenderWindow@Ogre@@@std@@YA?AU_Undefined_move_tag@0@ABQAPAVD3DRenderWindow@Ogre@@@Z 1000dc90 f i OgreD3D9RenderSystem.obj
 0001:0000cc90       ??$_Ptr_cat@PAPAUD3DDEVCOMBO_T@Ogre@@PAPAU12@@std@@YA?AU_Scalar_ptr_iterator_tag@0@AAPAPAUD3DDEVCOMBO_T@Ogre@@0@Z 1000dc90 f i OgreD3D9DriverEnum.obj
 0001:0000cc90       ??$_Move_cat@PAW4_D3DMULTISAMPLE_TYPE@@@std@@YA?AU_Undefined_move_tag@0@ABQAW4_D3DMULTISAMPLE_TYPE@@@Z 1000dc90 f i OgreD3D9DriverEnum.obj
 0001:0000cc90       ??$_Ptr_cat@PAPAUD3DADAPTER_T@Ogre@@PAPAU12@@std@@YA?AU_Scalar_ptr_iterator_tag@0@AAPAPAUD3DADAPTER_T@Ogre@@0@Z 1000dc90 f i OgreD3D9DriverEnum.obj
 0001:0000cc90       ??$_Move_cat@PAPAUD3DDEVICEINFO_T@Ogre@@@std@@YA?AU_Undefined_move_tag@0@ABQAPAUD3DDEVICEINFO_T@Ogre@@@Z 1000dc90 f i OgreD3D9DriverEnum.obj
 0001:0000cc90       ??$_Move_cat@PAPAUD3DDEVCOMBO_T@Ogre@@@std@@YA?AU_Undefined_move_tag@0@ABQAPAUD3DDEVCOMBO_T@Ogre@@@Z 1000dc90 f i OgreD3D9DriverEnum.obj
 0001:0000cc90       ??$_Move_cat@PAURTBuffer@D3D9HardwarePixelBufferManager@Ogre@@@std@@YA?AU_Undefined_move_tag@0@ABQAURTBuffer@D3D9HardwarePixelBufferManager@Ogre@@@Z 1000dc90 f i OgreD3D9HardwarePixelBuffer.obj
 0001:0000cc90       ??$_Ptr_cat@PATShaderEnvKey@Ogre@@PAT12@@std@@YA?AU_Nonscalar_ptr_iterator_tag@0@AAPATShaderEnvKey@Ogre@@0@Z 1000dc90 f i OgreD3D9ShaderManager.obj
 0001:0000cc90       ??$_Move_cat@PAUDSBuffer@D3D9HardwarePixelBufferManager@Ogre@@@std@@YA?AU_Undefined_move_tag@0@ABQAUDSBuffer@D3D9HardwarePixelBufferManager@Ogre@@@Z 1000dc90 f i OgreD3D9HardwarePixelBuffer.obj
 0001:0000cc90       ??$_Move_cat@PAPAVCompiledShader@Ogre@@@std@@YA?AU_Undefined_move_tag@0@ABQAPAVCompiledShader@Ogre@@@Z 1000dc90 f i OgreD3D9ShaderManager.obj
 0001:0000cc90       ??$_Move_cat@PAW4_D3DFORMAT@@@std@@YA?AU_Undefined_move_tag@0@ABQAW4_D3DFORMAT@@@Z 1000dc90 f i OgreD3D9DriverEnum.obj
 0001:0000cc90       ??$_Move_cat@PAUPassDesc@Ogre@@@std@@YA?AU_Undefined_move_tag@0@ABQAUPassDesc@Ogre@@@Z 1000dc90 f i OgreD3D9ShaderManager.obj
 0001:0000cc90       ??$_Move_cat@PAU_D3DDISPLAYMODE@@@std@@YA?AU_Undefined_move_tag@0@ABQAU_D3DDISPLAYMODE@@@Z 1000dc90 f i OgreD3D9DriverEnum.obj
 0001:0000cc90       ??$_Ptr_cat@PAPAUTechCache@D3DMaterialTemplate@Ogre@@PAPAU123@@std@@YA?AU_Scalar_ptr_iterator_tag@0@AAPAPAUTechCache@D3DMaterialTemplate@Ogre@@0@Z 1000dc90 f i OgreD3DMaterialTemplate.obj
 0001:0000cc90       ??$_Move_cat@PAUPassData@D3DShaderTechnique@Ogre@@@std@@YA?AU_Undefined_move_tag@0@ABQAUPassData@D3DShaderTechnique@Ogre@@@Z 1000dc90 f i OgreD3D9ShaderManager.obj
 0001:0000cc90       ??$_Move_cat@PATShaderEnvKey@Ogre@@@std@@YA?AU_Undefined_move_tag@0@ABQATShaderEnvKey@Ogre@@@Z 1000dc90 f i OgreD3D9ShaderManager.obj
 0001:0000cc90       ??$_Ptr_cat@PAW4_D3DMULTISAMPLE_TYPE@@PAW41@@std@@YA?AU_Nonscalar_ptr_iterator_tag@0@AAPAW4_D3DMULTISAMPLE_TYPE@@0@Z 1000dc90 f i OgreD3D9DriverEnum.obj
 0001:0000cc90       ??$_Move_cat@PAPAUTechCache@D3DMaterialTemplate@Ogre@@@std@@YA?AU_Undefined_move_tag@0@ABQAPAUTechCache@D3DMaterialTemplate@Ogre@@@Z 1000dc90 f i OgreD3DMaterialTemplate.obj
 0001:0000cc90       ??$_Ptr_cat@PAUPassData@D3DShaderTechnique@Ogre@@PAU123@@std@@YA?AU_Nonscalar_ptr_iterator_tag@0@AAPAUPassData@D3DShaderTechnique@Ogre@@0@Z 1000dc90 f i OgreD3D9ShaderManager.obj
 0001:0000cc90       ??$_Ptr_cat@PAPAVD3D9VertexDecl@Ogre@@PAPAV12@@std@@YA?AU_Scalar_ptr_iterator_tag@0@AAPAPAVD3D9VertexDecl@Ogre@@0@Z 1000dc90 f i OgreD3D9RenderSystem.obj
 0001:0000cc90       ??$_Move_cat@PAD@std@@YA?AU_Undefined_move_tag@0@ABQAD@Z 1000dc90 f i OgreD3D9ShaderManager.obj
 0001:0000cc90       ??$_Ptr_cat@PAPAVCompiledShader@Ogre@@PAPAV12@@std@@YA?AU_Scalar_ptr_iterator_tag@0@AAPAPAVCompiledShader@Ogre@@0@Z 1000dc90 f i OgreD3D9ShaderManager.obj
 0001:0000cc90       ??$_Move_cat@PAPAVD3D9TextureRenderTarget@Ogre@@@std@@YA?AU_Undefined_move_tag@0@ABQAPAVD3D9TextureRenderTarget@Ogre@@@Z 1000dc90 f i OgreD3D9HardwarePixelBuffer.obj
 0001:0000cc90       ??$_Move_cat@PAUD3DSMSCONFLICT_T@Ogre@@@std@@YA?AU_Undefined_move_tag@0@ABQAUD3DSMSCONFLICT_T@Ogre@@@Z 1000dc90 f i OgreD3D9DriverEnum.obj
 0001:0000cc90       ??$_Ptr_cat@PAURTBuffer@D3D9HardwarePixelBufferManager@Ogre@@PAU123@@std@@YA?AU_Nonscalar_ptr_iterator_tag@0@AAPAURTBuffer@D3D9HardwarePixelBufferManager@Ogre@@0@Z 1000dc90 f i OgreD3D9HardwarePixelBuffer.obj
 0001:0000cc90       ??$_Move_cat@PAUShaderEnv@Ogre@@@std@@YA?AU_Undefined_move_tag@0@ABQAUShaderEnv@Ogre@@@Z 1000dc90 f i OgreD3DMaterialTemplate.obj
 0001:0000cca0       ??$_Copy_backward_opt@PAPAUTechCache@D3DMaterialTemplate@Ogre@@PAPAU123@Urandom_access_iterator_tag@std@@@std@@YAPAPAUTechCache@D3DMaterialTemplate@Ogre@@PAPAU123@00Urandom_access_iterator_tag@0@U_Scalar_ptr_iterator_tag@0@U_Range_checked_iterator_tag@0@@Z 1000dca0 f i OgreD3DMaterialTemplate.obj
 0001:0000cca0       ??$_Copy_backward_opt@PAPAVD3D9TextureRenderTarget@Ogre@@PAPAV12@Urandom_access_iterator_tag@std@@@std@@YAPAPAVD3D9TextureRenderTarget@Ogre@@PAPAV12@00Urandom_access_iterator_tag@0@U_Scalar_ptr_iterator_tag@0@U_Range_checked_iterator_tag@0@@Z 1000dca0 f i OgreD3D9HardwarePixelBuffer.obj
 0001:0000cca0       ??$_Copy_backward_opt@PAPAUD3DDEVICEINFO_T@Ogre@@PAPAU12@Urandom_access_iterator_tag@std@@@std@@YAPAPAUD3DDEVICEINFO_T@Ogre@@PAPAU12@00Urandom_access_iterator_tag@0@U_Scalar_ptr_iterator_tag@0@U_Range_checked_iterator_tag@0@@Z 1000dca0 f i OgreD3D9DriverEnum.obj
 0001:0000cca0       ??$_Copy_backward_opt@PAPAVD3D9VertexDecl@Ogre@@PAPAV12@Urandom_access_iterator_tag@std@@@std@@YAPAPAVD3D9VertexDecl@Ogre@@PAPAV12@00Urandom_access_iterator_tag@0@U_Scalar_ptr_iterator_tag@0@U_Range_checked_iterator_tag@0@@Z 1000dca0 f i OgreD3D9RenderSystem.obj
 0001:0000cca0       ??$_Copy_backward_opt@PAPAUTechniqueDesc@Ogre@@PAPAU12@Urandom_access_iterator_tag@std@@@std@@YAPAPAUTechniqueDesc@Ogre@@PAPAU12@00Urandom_access_iterator_tag@0@U_Scalar_ptr_iterator_tag@0@U_Range_checked_iterator_tag@0@@Z 1000dca0 f i OgreD3D9ShaderManager.obj
 0001:0000cca0       ??$_Copy_backward_opt@PAPAUD3DDEVCOMBO_T@Ogre@@PAPAU12@Urandom_access_iterator_tag@std@@@std@@YAPAPAUD3DDEVCOMBO_T@Ogre@@PAPAU12@00Urandom_access_iterator_tag@0@U_Scalar_ptr_iterator_tag@0@U_Range_checked_iterator_tag@0@@Z 1000dca0 f i OgreD3D9DriverEnum.obj
 0001:0000cca0       ??$_Copy_backward_opt@PAPAVD3DRenderWindow@Ogre@@PAPAV12@Urandom_access_iterator_tag@std@@@std@@YAPAPAVD3DRenderWindow@Ogre@@PAPAV12@00Urandom_access_iterator_tag@0@U_Scalar_ptr_iterator_tag@0@U_Range_checked_iterator_tag@0@@Z 1000dca0 f i OgreD3D9RenderSystem.obj
 0001:0000cca0       ??$_Copy_backward_opt@PAIPAIUrandom_access_iterator_tag@std@@@std@@YAPAIPAI00Urandom_access_iterator_tag@0@U_Scalar_ptr_iterator_tag@0@U_Range_checked_iterator_tag@0@@Z 1000dca0 f i OgreD3D9DriverEnum.obj
 0001:0000cca0       ??$_Copy_backward_opt@PAPAUD3DADAPTER_T@Ogre@@PAPAU12@Urandom_access_iterator_tag@std@@@std@@YAPAPAUD3DADAPTER_T@Ogre@@PAPAU12@00Urandom_access_iterator_tag@0@U_Scalar_ptr_iterator_tag@0@U_Range_checked_iterator_tag@0@@Z 1000dca0 f i OgreD3D9DriverEnum.obj
 0001:0000cca0       ??$_Copy_backward_opt@PAPAVCompiledShader@Ogre@@PAPAV12@Urandom_access_iterator_tag@std@@@std@@YAPAPAVCompiledShader@Ogre@@PAPAV12@00Urandom_access_iterator_tag@0@U_Scalar_ptr_iterator_tag@0@U_Range_checked_iterator_tag@0@@Z 1000dca0 f i OgreD3D9ShaderManager.obj
 0001:0000ccf0       ??$_Copy_opt@PAPAVD3D9TextureRenderTarget@Ogre@@PAPAV12@Urandom_access_iterator_tag@std@@@std@@YAPAPAVD3D9TextureRenderTarget@Ogre@@PAPAV12@00Urandom_access_iterator_tag@0@U_Scalar_ptr_iterator_tag@0@U_Range_checked_iterator_tag@0@@Z 1000dcf0 f i OgreD3D9HardwarePixelBuffer.obj
 0001:0000ccf0       ??$_Copy_opt@PAPAVD3DRenderWindow@Ogre@@PAPAV12@Urandom_access_iterator_tag@std@@@std@@YAPAPAVD3DRenderWindow@Ogre@@PAPAV12@00Urandom_access_iterator_tag@0@U_Scalar_ptr_iterator_tag@0@U_Range_checked_iterator_tag@0@@Z 1000dcf0 f i OgreD3D9RenderSystem.obj
 0001:0000ccf0       ??$_Copy_opt@PAPAVD3D9VertexDecl@Ogre@@PAPAV12@Urandom_access_iterator_tag@std@@@std@@YAPAPAVD3D9VertexDecl@Ogre@@PAPAV12@00Urandom_access_iterator_tag@0@U_Scalar_ptr_iterator_tag@0@U_Range_checked_iterator_tag@0@@Z 1000dcf0 f i OgreD3D9RenderSystem.obj
 0001:0000cd40       ??0ShaderMacroMgr@Ogre@@QAE@XZ 1000dd40 f   OgreD3D9ShaderManager.obj
 0001:0000cdc0       ??1ShaderMacroMgr@Ogre@@QAE@XZ 1000ddc0 f   OgreD3D9ShaderManager.obj
 0001:0000ce70       ?AddMacro@ShaderMacroMgr@Ogre@@QAEXPBDH@Z 1000de70 f   OgreD3D9ShaderManager.obj
 0001:0000cf20       ?createFromShaderEnv@ShaderMacroMgr@Ogre@@QAEXABUShaderEnvFlags@2@@Z 1000df20 f   OgreD3D9ShaderManager.obj
 0001:0000d270       ??0CompiledShader@Ogre@@QAE@PAVD3DMaterialTemplate@1@W4COMPILED_TYPE@1@@Z 1000e270 f   OgreD3D9ShaderManager.obj
 0001:0000d4b0       ??1CompiledShader@Ogre@@QAE@XZ 1000e4b0 f   OgreD3D9ShaderManager.obj
 0001:0000d650       ?getTechnique@CompiledShader@Ogre@@QAEPAUTechniqueDesc@2@IW4RenderUsage@2@@Z 1000e650 f   OgreD3D9ShaderManager.obj
 0001:0000d6e0       ?cacheParamHandle@CompiledShader@Ogre@@QAEXXZ 1000e6e0 f   OgreD3D9ShaderManager.obj
 0001:0000d870       ?setConstant@CompiledShader@Ogre@@QAEXPBDPBXI@Z 1000e870 f   OgreD3D9ShaderManager.obj
 0001:0000d930       ?setConstant@CompiledShader@Ogre@@QAEXW4ShaderParamUsage@2@PBXI@Z 1000e930 f   OgreD3D9ShaderManager.obj
 0001:0000da80       ?hasConstant@CompiledShader@Ogre@@QAE_NW4ShaderParamUsage@2@PBD@Z 1000ea80 f   OgreD3D9ShaderManager.obj
 0001:0000db10       ?cacheTechnique@CompiledShader@Ogre@@QAEXXZ 1000eb10 f   OgreD3D9ShaderManager.obj
 0001:0000de10       ?paramUsage2Handle@CompiledShader@Ogre@@QAEPBDW4ShaderParamUsage@2@@Z 1000ee10 f   OgreD3D9ShaderManager.obj
 0001:0000de60       ?onLostDevice@CompiledShader@Ogre@@QAEXXZ 1000ee60 f   OgreD3D9ShaderManager.obj
 0001:0000df10       ?onResetDevice@CompiledShader@Ogre@@QAE_NXZ 1000ef10 f   OgreD3D9ShaderManager.obj
 0001:0000e040       ?create@CompiledShader@Ogre@@QAE_NXZ 1000f040 f   OgreD3D9ShaderManager.obj
 0001:0000e1f0       ??0CompiledShaderGroup@Ogre@@QAE@W4COMPILED_TYPE@1@PAVD3DMaterialTemplate@1@ABVFixedString@1@@Z 1000f1f0 f   OgreD3D9ShaderManager.obj
 0001:0000e280       ??1CompiledShaderGroup@Ogre@@QAE@XZ 1000f280 f   OgreD3D9ShaderManager.obj
 0001:0000e350       ?onLostDevice@CompiledShaderGroup@Ogre@@QAEXXZ 1000f350 f   OgreD3D9ShaderManager.obj
 0001:0000e3a0       ?onResetDevice@CompiledShaderGroup@Ogre@@QAE_NXZ 1000f3a0 f   OgreD3D9ShaderManager.obj
 0001:0000e400       ?getCompiledShader@CompiledShaderGroup@Ogre@@QAEPAVCompiledShader@2@ABUShaderEnvFlags@2@ABUMaterialMacro@2@@Z 1000f400 f   OgreD3D9ShaderManager.obj
 0001:0000e5b0       ?createCompiledShader@CompiledShaderGroup@Ogre@@QAEPAVCompiledShader@2@ABUShaderEnvFlags@2@ABUMaterialMacro@2@@Z 1000f5b0 f   OgreD3D9ShaderManager.obj
 0001:0000eaf0       ?compileAllShaders@CompiledShaderGroup@Ogre@@QAEXXZ 1000faf0 f   OgreD3D9ShaderManager.obj
 0001:0000eb50       ??0D3DShaderTechnique@Ogre@@QAE@PAVD3DMaterialTemplate@1@ABUShaderEnvFlags@1@ABUMaterialMacro@1@IW4RenderUsage@1@@Z 1000fb50 f   OgreD3D9ShaderManager.obj
 0001:0000ee60       ??1D3DShaderTechnique@Ogre@@UAE@XZ 1000fe60 f   OgreD3D9ShaderManager.obj
 0001:0000eed0       ?begin@D3DShaderTechnique@Ogre@@UAEIXZ 1000fed0 f   OgreD3D9ShaderManager.obj
 0001:0000ef40       ?end@D3DShaderTechnique@Ogre@@UAEXXZ 1000ff40 f   OgreD3D9ShaderManager.obj
 0001:0000ef90       ?beginPass@D3DShaderTechnique@Ogre@@UAEXI@Z 1000ff90 f   OgreD3D9ShaderManager.obj
 0001:0000f0a0       ?endPass@D3DShaderTechnique@Ogre@@UAEXXZ 100100a0 f   OgreD3D9ShaderManager.obj
 0001:0000f0e0       ?setConstant@D3DShaderTechnique@Ogre@@UAEXPBDPBXI@Z 100100e0 f   OgreD3D9ShaderManager.obj
 0001:0000f170       ?setConstant@D3DShaderTechnique@Ogre@@UAEXW4ShaderParamUsage@2@PBXI@Z 10010170 f   OgreD3D9ShaderManager.obj
 0001:0000f200       ?setTexture@D3DShaderTechnique@Ogre@@UAEXPBDPAVHardwarePixelBuffer@2@@Z 10010200 f   OgreD3D9ShaderManager.obj
 0001:0000f2a0       ?setTexture@D3DShaderTechnique@Ogre@@UAEXW4ShaderParamUsage@2@PAVHardwarePixelBuffer@2@@Z 100102a0 f   OgreD3D9ShaderManager.obj
 0001:0000f330       ?setStreamInput@D3DShaderTechnique@Ogre@@UAEXIPAPAVHardwareVertexBuffer@2@PAI@Z 10010330 f   OgreD3D9ShaderManager.obj
 0001:0000f420       ?setStreamInput@D3DShaderTechnique@Ogre@@UAEXIPAPAVHardwareVertexBuffer@2@HPAI@Z 10010420 f   OgreD3D9ShaderManager.obj
 0001:0000f510       ?setStreamInput@D3DShaderTechnique@Ogre@@UAEXIPAVHardwareVertexBuffer@2@I@Z 10010510 f   OgreD3D9ShaderManager.obj
 0001:0000f5a0       ?draw@D3DShaderTechnique@Ogre@@UAEXW4PrimitiveType@2@II@Z 100105a0 f   OgreD3D9ShaderManager.obj
 0001:0000f690       ?draw@D3DShaderTechnique@Ogre@@UAEXW4PrimitiveType@2@IIPAVHardwareIndexBuffer@2@II@Z 10010690 f   OgreD3D9ShaderManager.obj
 0001:0000f750       ?commitChanges@D3DShaderTechnique@Ogre@@UAEXXZ 10010750 f   OgreD3D9ShaderManager.obj
 0001:0000f7a0       ?getRequiredParams@D3DShaderTechnique@Ogre@@UAEIPAW4ShaderParamUsage@2@I@Z 100107a0 f   OgreD3D9ShaderManager.obj
 0001:0000f7e0       ?GetEnvLightType@Ogre@@YAHABUShaderEnvFlags@1@H@Z 100107e0 f i OgreD3D9ShaderManager.obj
 0001:0000f830       ?GetEnvLightShadow@Ogre@@YAHABUShaderEnvFlags@1@H@Z 10010830 f i OgreD3D9ShaderManager.obj
 0001:0000f880       ?GetEnvLightSpecular@Ogre@@YAHABUShaderEnvFlags@1@H@Z 10010880 f i OgreD3D9ShaderManager.obj
 0001:0000f8d0       ??_GTechniqueDesc@Ogre@@QAEPAXI@Z 100108d0 f i OgreD3D9ShaderManager.obj
 0001:0000f900       ??1TechniqueDesc@Ogre@@QAE@XZ 10010900 f i OgreD3D9ShaderManager.obj
 0001:0000f950       ??0TechniqueDesc@Ogre@@QAE@XZ 10010950 f i OgreD3D9ShaderManager.obj
 0001:0000f9b0       ??1?$map@TShaderEnvKey@Ogre@@PAVD3DTech@2@U?$less@TShaderEnvKey@Ogre@@@std@@V?$allocator@U?$pair@$$CBTShaderEnvKey@Ogre@@PAVD3DTech@2@@std@@@5@@std@@QAE@XZ 100109b0 f i OgreD3DMaterialTemplate.obj
 0001:0000f9b0       ??1?$map@TShaderEnvKey@Ogre@@PAVCompiledShader@2@U?$less@TShaderEnvKey@Ogre@@@std@@V?$allocator@U?$pair@$$CBTShaderEnvKey@Ogre@@PAVCompiledShader@2@@std@@@5@@std@@QAE@XZ 100109b0 f i OgreD3D9ShaderManager.obj
 0001:0000fa00       ??_GCompiledShader@Ogre@@QAEPAXI@Z 10010a00 f i OgreD3D9ShaderManager.obj
 0001:0000fa30       ??0ShaderEnvKey@Ogre@@QAE@XZ 10010a30 f i OgreD3D9ShaderManager.obj
 0001:0000fa60       ?addShaderKey@CompiledShader@Ogre@@QAEXTShaderEnvKey@2@@Z 10010a60 f i OgreD3D9ShaderManager.obj
 0001:0000fab0       ?hasShaderKey@CompiledShader@Ogre@@QAE_NTShaderEnvKey@2@@Z 10010ab0 f i OgreD3D9ShaderManager.obj
 0001:0000fb20       ??8Ogre@@YA_NABTShaderEnvKey@0@0@Z 10010b20 f i OgreD3D9ShaderManager.obj
 0001:0000fb90       ?GetMacros@ShaderMacroMgr@Ogre@@QAEPBU_D3DXMACRO@@XZ 10010b90 f i OgreD3D9ShaderManager.obj
 0001:0000fbb0       ??1ShaderTechnique@Ogre@@MAE@XZ 10010bb0 f i OgreD3D9ShaderManager.obj
 0001:0000fbd0       ??_EShaderTechnique@Ogre@@MAEPAXI@Z 10010bd0 f i OgreD3D9ShaderManager.obj
 0001:0000fbd0       ??_GShaderTechnique@Ogre@@MAEPAXI@Z 10010bd0 f i OgreD3D9ShaderManager.obj
 0001:0000fc00       ??_GD3DShaderTechnique@Ogre@@UAEPAXI@Z 10010c00 f i OgreD3D9ShaderManager.obj
 0001:0000fc00       ??_ED3DShaderTechnique@Ogre@@UAEPAXI@Z 10010c00 f i OgreD3D9ShaderManager.obj
 0001:0000fc30       ??0ShaderTechnique@Ogre@@QAE@XZ 10010c30 f i OgreD3D9ShaderManager.obj
 0001:0000fc50       ?getSysBuf@D3DIndexBufferPool@Ogre@@QAEPAUIDirect3DIndexBuffer9@@XZ 10010c50 f i OgreD3D9ShaderManager.obj
 0001:0000fc50       ?getSysBuf@D3DVertexBufferPool@Ogre@@QAEPAUIDirect3DVertexBuffer9@@XZ 10010c50 f i OgreD3D9ShaderManager.obj
 0001:0000fc70       ?size@?$vector@URTBuffer@D3D9HardwarePixelBufferManager@Ogre@@V?$allocator@URTBuffer@D3D9HardwarePixelBufferManager@Ogre@@@std@@@std@@QBEIXZ 10010c70 f i OgreD3D9HardwarePixelBuffer.obj
 0001:0000fc70       ?size@?$vector@UShaderEnv@Ogre@@V?$allocator@UShaderEnv@Ogre@@@std@@@std@@QBEIXZ 10010c70 f i OgreD3D9ShaderManager.obj
 0001:0000fc70       ?size@?$vector@UDSBuffer@D3D9HardwarePixelBufferManager@Ogre@@V?$allocator@UDSBuffer@D3D9HardwarePixelBufferManager@Ogre@@@std@@@std@@QBEIXZ 10010c70 f i OgreD3D9HardwarePixelBuffer.obj
 0001:0000fc90       ??A?$vector@UShaderEnv@Ogre@@V?$allocator@UShaderEnv@Ogre@@@std@@@std@@QAEAAUShaderEnv@Ogre@@I@Z 10010c90 f i OgreD3D9ShaderManager.obj
 0001:0000fc90       ??A?$vector@URTBuffer@D3D9HardwarePixelBufferManager@Ogre@@V?$allocator@URTBuffer@D3D9HardwarePixelBufferManager@Ogre@@@std@@@std@@QAEAAURTBuffer@D3D9HardwarePixelBufferManager@Ogre@@I@Z 10010c90 f i OgreD3D9HardwarePixelBuffer.obj
 0001:0000fc90       ??A?$vector@UDSBuffer@D3D9HardwarePixelBufferManager@Ogre@@V?$allocator@UDSBuffer@D3D9HardwarePixelBufferManager@Ogre@@@std@@@std@@QAEAAUDSBuffer@D3D9HardwarePixelBufferManager@Ogre@@I@Z 10010c90 f i OgreD3D9HardwarePixelBuffer.obj
 0001:0000fcc0       ??0?$vector@UPassDesc@Ogre@@V?$allocator@UPassDesc@Ogre@@@std@@@std@@QAE@XZ 10010cc0 f i OgreD3D9ShaderManager.obj
 0001:0000fd30       ??1?$vector@UPassDesc@Ogre@@V?$allocator@UPassDesc@Ogre@@@std@@@std@@QAE@XZ 10010d30 f i OgreD3D9ShaderManager.obj
 0001:0000fd90       ?resize@?$vector@UPassDesc@Ogre@@V?$allocator@UPassDesc@Ogre@@@std@@@std@@QAEXI@Z 10010d90 f i OgreD3D9ShaderManager.obj
 0001:0000fde0       ?size@?$vector@UPassDesc@Ogre@@V?$allocator@UPassDesc@Ogre@@@std@@@std@@QBEIXZ 10010de0 f i OgreD3D9ShaderManager.obj
 0001:0000fe00       ??A?$vector@UPassDesc@Ogre@@V?$allocator@UPassDesc@Ogre@@@std@@@std@@QAEAAUPassDesc@Ogre@@I@Z 10010e00 f i OgreD3D9ShaderManager.obj
 0001:0000fe30       ??0?$vector@DV?$allocator@D@std@@@std@@QAE@XZ 10010e30 f i OgreD3D9ShaderManager.obj
 0001:0000fea0       ??1?$vector@DV?$allocator@D@std@@@std@@QAE@XZ 10010ea0 f i OgreD3D9ShaderManager.obj
 0001:0000ff00       ?resize@?$vector@DV?$allocator@D@std@@@std@@QAEXI@Z 10010f00 f i OgreD3D9ShaderManager.obj
 0001:0000ff20       ?size@?$vector@DV?$allocator@D@std@@@std@@QBEIXZ 10010f20 f i OgreD3D9ShaderManager.obj
 0001:0000ff40       ??A?$vector@DV?$allocator@D@std@@@std@@QAEAADI@Z 10010f40 f i OgreD3D9ShaderManager.obj
 0001:0000ff70       ??1?$vector@TShaderEnvKey@Ogre@@V?$allocator@TShaderEnvKey@Ogre@@@std@@@std@@QAE@XZ 10010f70 f i OgreD3D9ShaderManager.obj
 0001:0000ff70       ??1?$vector@U_D3DDISPLAYMODE@@V?$allocator@U_D3DDISPLAYMODE@@@std@@@std@@QAE@XZ 10010f70 f i OgreD3D9DriverEnum.obj
 0001:0000ffd0       ??A?$vector@U_D3DDISPLAYMODE@@V?$allocator@U_D3DDISPLAYMODE@@@std@@@std@@QAEAAU_D3DDISPLAYMODE@@I@Z 10010fd0 f i OgreD3D9DriverEnum.obj
 0001:0000ffd0       ??A?$vector@TShaderEnvKey@Ogre@@V?$allocator@TShaderEnvKey@Ogre@@@std@@@std@@QAEAATShaderEnvKey@Ogre@@I@Z 10010fd0 f i OgreD3D9ShaderManager.obj
 0001:00010000       ?push_back@?$vector@TShaderEnvKey@Ogre@@V?$allocator@TShaderEnvKey@Ogre@@@std@@@std@@QAEXABTShaderEnvKey@Ogre@@@Z 10011000 f i OgreD3D9ShaderManager.obj
 0001:00010080       ??1?$_Tree@V?$_Tmap_traits@TShaderEnvKey@Ogre@@PAVD3DTech@2@U?$less@TShaderEnvKey@Ogre@@@std@@V?$allocator@U?$pair@$$CBTShaderEnvKey@Ogre@@PAVD3DTech@2@@std@@@5@$0A@@std@@@std@@QAE@XZ 10011080 f i OgreD3DMaterialTemplate.obj
 0001:00010080       ??1?$_Tree@V?$_Tmap_traits@TShaderEnvKey@Ogre@@PAVCompiledShader@2@U?$less@TShaderEnvKey@Ogre@@@std@@V?$allocator@U?$pair@$$CBTShaderEnvKey@Ogre@@PAVCompiledShader@2@@std@@@5@$0A@@std@@@std@@QAE@XZ 10011080 f i OgreD3D9ShaderManager.obj
 0001:000100e0       ?find@?$_Tree@V?$_Tmap_traits@TShaderEnvKey@Ogre@@PAVCompiledShader@2@U?$less@TShaderEnvKey@Ogre@@@std@@V?$allocator@U?$pair@$$CBTShaderEnvKey@Ogre@@PAVCompiledShader@2@@std@@@5@$0A@@std@@@std@@QAE?AViterator@12@ABTShaderEnvKey@Ogre@@@Z 100110e0 f i OgreD3D9ShaderManager.obj
 0001:000100e0       ?find@?$_Tree@V?$_Tmap_traits@TShaderEnvKey@Ogre@@PAVD3DTech@2@U?$less@TShaderEnvKey@Ogre@@@std@@V?$allocator@U?$pair@$$CBTShaderEnvKey@Ogre@@PAVD3DTech@2@@std@@@5@$0A@@std@@@std@@QAE?AViterator@12@ABTShaderEnvKey@Ogre@@@Z 100110e0 f i OgreD3DMaterialTemplate.obj
 0001:00010180       ??0?$vector@UPassData@D3DShaderTechnique@Ogre@@V?$allocator@UPassData@D3DShaderTechnique@Ogre@@@std@@@std@@QAE@XZ 10011180 f i OgreD3D9ShaderManager.obj
 0001:000101f0       ??1?$vector@UPassData@D3DShaderTechnique@Ogre@@V?$allocator@UPassData@D3DShaderTechnique@Ogre@@@std@@@std@@QAE@XZ 100111f0 f i OgreD3D9ShaderManager.obj
 0001:00010250       ?resize@?$vector@UPassData@D3DShaderTechnique@Ogre@@V?$allocator@UPassData@D3DShaderTechnique@Ogre@@@std@@@std@@QAEXI@Z 10011250 f i OgreD3D9ShaderManager.obj
 0001:00010290       ??A?$vector@UPassData@D3DShaderTechnique@Ogre@@V?$allocator@UPassData@D3DShaderTechnique@Ogre@@@std@@@std@@QAEAAUPassData@D3DShaderTechnique@Ogre@@I@Z 10011290 f i OgreD3D9ShaderManager.obj
 0001:000102c0       ??0?$vector@UD3DSMSCONFLICT_T@Ogre@@V?$allocator@UD3DSMSCONFLICT_T@Ogre@@@std@@@std@@QAE@XZ 100112c0 f i OgreD3D9DriverEnum.obj
 0001:000102c0       ??0?$vector@U_D3DXMACRO@@V?$allocator@U_D3DXMACRO@@@std@@@std@@QAE@XZ 100112c0 f i OgreD3D9ShaderManager.obj
 0001:00010330       ??1?$vector@UD3DSMSCONFLICT_T@Ogre@@V?$allocator@UD3DSMSCONFLICT_T@Ogre@@@std@@@std@@QAE@XZ 10011330 f i OgreD3D9DriverEnum.obj
 0001:00010330       ??1?$vector@U_D3DXMACRO@@V?$allocator@U_D3DXMACRO@@@std@@@std@@QAE@XZ 10011330 f i OgreD3D9ShaderManager.obj
 0001:00010390       ?size@?$vector@U_D3DXMACRO@@V?$allocator@U_D3DXMACRO@@@std@@@std@@QBEIXZ 10011390 f i OgreD3D9ShaderManager.obj
 0001:00010390       ?size@?$vector@UD3DSMSCONFLICT_T@Ogre@@V?$allocator@UD3DSMSCONFLICT_T@Ogre@@@std@@@std@@QBEIXZ 10011390 f i OgreD3D9DriverEnum.obj
 0001:000103b0       ??A?$vector@UD3DSMSCONFLICT_T@Ogre@@V?$allocator@UD3DSMSCONFLICT_T@Ogre@@@std@@@std@@QAEAAUD3DSMSCONFLICT_T@Ogre@@I@Z 100113b0 f i OgreD3D9DriverEnum.obj
 0001:000103b0       ??A?$vector@U_D3DXMACRO@@V?$allocator@U_D3DXMACRO@@@std@@@std@@QAEAAU_D3DXMACRO@@I@Z 100113b0 f i OgreD3D9ShaderManager.obj
 0001:000103e0       ??Eiterator@?$_Tree@V?$_Tmap_traits@TShaderEnvKey@Ogre@@PAVD3DTech@2@U?$less@TShaderEnvKey@Ogre@@@std@@V?$allocator@U?$pair@$$CBTShaderEnvKey@Ogre@@PAVD3DTech@2@@std@@@5@$0A@@std@@@std@@QAE?AV012@H@Z 100113e0 f i OgreD3DMaterialTemplate.obj
 0001:000103e0       ??Eiterator@?$_Tree@V?$_Tmap_traits@TShaderEnvKey@Ogre@@PAVCompiledShader@2@U?$less@TShaderEnvKey@Ogre@@@std@@V?$allocator@U?$pair@$$CBTShaderEnvKey@Ogre@@PAVCompiledShader@2@@std@@@5@$0A@@std@@@std@@QAE?AV012@H@Z 100113e0 f i OgreD3D9ShaderManager.obj
 0001:00010420       ??1?$_Tree_ptr@V?$_Tmap_traits@TShaderEnvKey@Ogre@@PAVD3DTech@2@U?$less@TShaderEnvKey@Ogre@@@std@@V?$allocator@U?$pair@$$CBTShaderEnvKey@Ogre@@PAVD3DTech@2@@std@@@5@$0A@@std@@@std@@QAE@XZ 10011420 f i OgreD3DMaterialTemplate.obj
 0001:00010420       ??1?$_Tree_ptr@V?$_Tmap_traits@VFixedString@Ogre@@PAVCompiledShaderGroup@2@U?$less@VFixedString@Ogre@@@std@@V?$allocator@U?$pair@$$CBVFixedString@Ogre@@PAVCompiledShaderGroup@2@@std@@@5@$0A@@std@@@std@@QAE@XZ 10011420 f i OgreD3DMaterialTemplate.obj
 0001:00010420       ??1?$_Tree_ptr@V?$_Tmap_traits@TShaderEnvKey2@Ogre@@PAVD3DShaderTechnique@2@U?$less@TShaderEnvKey2@Ogre@@@std@@V?$allocator@U?$pair@$$CBTShaderEnvKey2@Ogre@@PAVD3DShaderTechnique@2@@std@@@5@$0A@@std@@@std@@QAE@XZ 10011420 f i OgreD3DMaterialTemplate.obj
 0001:00010420       ??1?$_Tree_ptr@V?$_Tmap_traits@TShaderEnvKey@Ogre@@PAVCompiledShader@2@U?$less@TShaderEnvKey@Ogre@@@std@@V?$allocator@U?$pair@$$CBTShaderEnvKey@Ogre@@PAVCompiledShader@2@@std@@@5@$0A@@std@@@std@@QAE@XZ 10011420 f i OgreD3D9ShaderManager.obj
 0001:00010470       ??R?$less@TShaderEnvKey@Ogre@@@std@@QBE_NABTShaderEnvKey@Ogre@@0@Z 10011470 f i OgreD3D9ShaderManager.obj
 0001:00010490       ??MOgre@@YA_NABTShaderEnvKey@0@0@Z 10011490 f i OgreD3D9ShaderManager.obj
 0001:00010540       ?resize@?$vector@UPassDesc@Ogre@@V?$allocator@UPassDesc@Ogre@@@std@@@std@@QAEXIUPassDesc@Ogre@@@Z 10011540 f i OgreD3D9ShaderManager.obj
 0001:00010600       ?_Buy@?$vector@UPassDesc@Ogre@@V?$allocator@UPassDesc@Ogre@@@std@@@std@@IAE_NI@Z 10011600 f i OgreD3D9ShaderManager.obj
 0001:00010680       ?_Tidy@?$vector@UPassDesc@Ogre@@V?$allocator@UPassDesc@Ogre@@@std@@@std@@IAEXXZ 10011680 f i OgreD3D9ShaderManager.obj
 0001:000106f0       ?resize@?$vector@DV?$allocator@D@std@@@std@@QAEXID@Z 100116f0 f i OgreD3D9ShaderManager.obj
 0001:000107b0       ?_Buy@?$vector@DV?$allocator@D@std@@@std@@IAE_NI@Z 100117b0 f i OgreD3D9ShaderManager.obj
 0001:00010830       ?_Tidy@?$vector@DV?$allocator@D@std@@@std@@IAEXXZ 10011830 f i OgreD3D9ShaderManager.obj
 0001:000108a0       ??0?$_Vector_val@DV?$allocator@D@std@@@std@@IAE@V?$allocator@D@1@@Z 100118a0 f i OgreD3D9ShaderManager.obj
 0001:00010920       ?_Ufill@?$vector@PAVD3D9TextureRenderTarget@Ogre@@V?$allocator@PAVD3D9TextureRenderTarget@Ogre@@@std@@@std@@IAEPAPAVD3D9TextureRenderTarget@Ogre@@PAPAV34@IABQAV34@@Z 10011920 f i OgreD3D9HardwarePixelBuffer.obj
 0001:00010920       ?_Ufill@?$vector@PAUTechCache@D3DMaterialTemplate@Ogre@@V?$allocator@PAUTechCache@D3DMaterialTemplate@Ogre@@@std@@@std@@IAEPAPAUTechCache@D3DMaterialTemplate@Ogre@@PAPAU345@IABQAU345@@Z 10011920 f i OgreD3DMaterialTemplate.obj
 0001:00010920       ?_Ufill@?$vector@PAVCompiledShader@Ogre@@V?$allocator@PAVCompiledShader@Ogre@@@std@@@std@@IAEPAPAVCompiledShader@Ogre@@PAPAV34@IABQAV34@@Z 10011920 f i OgreD3D9ShaderManager.obj
 0001:00010920       ?_Ufill@?$vector@PAVD3DRenderWindow@Ogre@@V?$allocator@PAVD3DRenderWindow@Ogre@@@std@@@std@@IAEPAPAVD3DRenderWindow@Ogre@@PAPAV34@IABQAV34@@Z 10011920 f i OgreD3D9RenderSystem.obj
 0001:00010920       ?_Ufill@?$vector@PAUD3DDEVCOMBO_T@Ogre@@V?$allocator@PAUD3DDEVCOMBO_T@Ogre@@@std@@@std@@IAEPAPAUD3DDEVCOMBO_T@Ogre@@PAPAU34@IABQAU34@@Z 10011920 f i OgreD3D9DriverEnum.obj
 0001:00010920       ?_Ufill@?$vector@PAVD3D9VertexDecl@Ogre@@V?$allocator@PAVD3D9VertexDecl@Ogre@@@std@@@std@@IAEPAPAVD3D9VertexDecl@Ogre@@PAPAV34@IABQAV34@@Z 10011920 f i OgreD3D9RenderSystem.obj
 0001:00010920       ?_Ufill@?$vector@PAUTechniqueDesc@Ogre@@V?$allocator@PAUTechniqueDesc@Ogre@@@std@@@std@@IAEPAPAUTechniqueDesc@Ogre@@PAPAU34@IABQAU34@@Z 10011920 f i OgreD3D9ShaderManager.obj
 0001:00010920       ?_Ufill@?$vector@PAUD3DADAPTER_T@Ogre@@V?$allocator@PAUD3DADAPTER_T@Ogre@@@std@@@std@@IAEPAPAUD3DADAPTER_T@Ogre@@PAPAU34@IABQAU34@@Z 10011920 f i OgreD3D9DriverEnum.obj
 0001:00010920       ?_Ufill@?$vector@PAUD3DDEVICEINFO_T@Ogre@@V?$allocator@PAUD3DDEVICEINFO_T@Ogre@@@std@@@std@@IAEPAPAUD3DDEVICEINFO_T@Ogre@@PAPAU34@IABQAU34@@Z 10011920 f i OgreD3D9DriverEnum.obj
 0001:00010920       ?_Ufill@?$vector@IV?$allocator@I@std@@@std@@IAEPAIPAIIABI@Z 10011920 f i OgreD3D9DriverEnum.obj
 0001:00010960       ?insert@?$vector@TShaderEnvKey@Ogre@@V?$allocator@TShaderEnvKey@Ogre@@@std@@@std@@QAE?AV?$_Vector_iterator@TShaderEnvKey@Ogre@@V?$allocator@TShaderEnvKey@Ogre@@@std@@@2@V?$_Vector_const_iterator@TShaderEnvKey@Ogre@@V?$allocator@TShaderEnvKey@Ogre@@@std@@@2@ABTShaderEnvKey@Ogre@@@Z 10011960 f i OgreD3D9ShaderManager.obj
 0001:000109e0       ?_Ufill@?$vector@U_D3DDISPLAYMODE@@V?$allocator@U_D3DDISPLAYMODE@@@std@@@std@@IAEPAU_D3DDISPLAYMODE@@PAU3@IABU3@@Z 100119e0 f i OgreD3D9DriverEnum.obj
 0001:000109e0       ?_Ufill@?$vector@TShaderEnvKey@Ogre@@V?$allocator@TShaderEnvKey@Ogre@@@std@@@std@@IAEPATShaderEnvKey@Ogre@@PAT34@IABT34@@Z 100119e0 f i OgreD3D9ShaderManager.obj
 0001:00010a20       ?lower_bound@?$_Tree@V?$_Tmap_traits@TShaderEnvKey@Ogre@@PAVCompiledShader@2@U?$less@TShaderEnvKey@Ogre@@@std@@V?$allocator@U?$pair@$$CBTShaderEnvKey@Ogre@@PAVCompiledShader@2@@std@@@5@$0A@@std@@@std@@QAE?AViterator@12@ABTShaderEnvKey@Ogre@@@Z 10011a20 f i OgreD3D9ShaderManager.obj
 0001:00010a20       ?lower_bound@?$_Tree@V?$_Tmap_traits@TShaderEnvKey@Ogre@@PAVD3DTech@2@U?$less@TShaderEnvKey@Ogre@@@std@@V?$allocator@U?$pair@$$CBTShaderEnvKey@Ogre@@PAVD3DTech@2@@std@@@5@$0A@@std@@@std@@QAE?AViterator@12@ABTShaderEnvKey@Ogre@@@Z 10011a20 f i OgreD3DMaterialTemplate.obj
 0001:00010a50       ?_Tidy@?$_Tree@V?$_Tmap_traits@TShaderEnvKey@Ogre@@PAVCompiledShader@2@U?$less@TShaderEnvKey@Ogre@@@std@@V?$allocator@U?$pair@$$CBTShaderEnvKey@Ogre@@PAVCompiledShader@2@@std@@@5@$0A@@std@@@std@@IAEXXZ 10011a50 f i OgreD3D9ShaderManager.obj
 0001:00010a50       ?_Tidy@?$_Tree@V?$_Tmap_traits@TShaderEnvKey@Ogre@@PAVD3DTech@2@U?$less@TShaderEnvKey@Ogre@@@std@@V?$allocator@U?$pair@$$CBTShaderEnvKey@Ogre@@PAVD3DTech@2@@std@@@5@$0A@@std@@@std@@IAEXXZ 10011a50 f i OgreD3DMaterialTemplate.obj
 0001:00010b20       ?resize@?$vector@UPassData@D3DShaderTechnique@Ogre@@V?$allocator@UPassData@D3DShaderTechnique@Ogre@@@std@@@std@@QAEXIUPassData@D3DShaderTechnique@Ogre@@@Z 10011b20 f i OgreD3D9ShaderManager.obj
 0001:00010be0       ?size@?$vector@UPassData@D3DShaderTechnique@Ogre@@V?$allocator@UPassData@D3DShaderTechnique@Ogre@@@std@@@std@@QBEIXZ 10011be0 f i OgreD3D9ShaderManager.obj
 0001:00010c00       ?_Buy@?$vector@UPassData@D3DShaderTechnique@Ogre@@V?$allocator@UPassData@D3DShaderTechnique@Ogre@@@std@@@std@@IAE_NI@Z 10011c00 f i OgreD3D9ShaderManager.obj
 0001:00010c80       ?_Tidy@?$vector@UPassData@D3DShaderTechnique@Ogre@@V?$allocator@UPassData@D3DShaderTechnique@Ogre@@@std@@@std@@IAEXXZ 10011c80 f i OgreD3D9ShaderManager.obj
 0001:00010d00       ?_Buy@?$vector@U_D3DXMACRO@@V?$allocator@U_D3DXMACRO@@@std@@@std@@IAE_NI@Z 10011d00 f i OgreD3D9ShaderManager.obj
 0001:00010d00       ?_Buy@?$vector@UD3DSMSCONFLICT_T@Ogre@@V?$allocator@UD3DSMSCONFLICT_T@Ogre@@@std@@@std@@IAE_NI@Z 10011d00 f i OgreD3D9DriverEnum.obj
 0001:00010d80       ?_Tidy@?$vector@U_D3DXMACRO@@V?$allocator@U_D3DXMACRO@@@std@@@std@@IAEXXZ 10011d80 f i OgreD3D9ShaderManager.obj
 0001:00010d80       ?_Tidy@?$vector@UD3DSMSCONFLICT_T@Ogre@@V?$allocator@UD3DSMSCONFLICT_T@Ogre@@@std@@@std@@IAEXXZ 10011d80 f i OgreD3D9DriverEnum.obj
 0001:00010df0       ?_Ufill@?$vector@U_D3DXMACRO@@V?$allocator@U_D3DXMACRO@@@std@@@std@@IAEPAU_D3DXMACRO@@PAU3@IABU3@@Z 10011df0 f i OgreD3D9ShaderManager.obj
 0001:00010df0       ?_Ufill@?$vector@UD3DSMSCONFLICT_T@Ogre@@V?$allocator@UD3DSMSCONFLICT_T@Ogre@@@std@@@std@@IAEPAUD3DSMSCONFLICT_T@Ogre@@PAU34@IABU34@@Z 10011df0 f i OgreD3D9DriverEnum.obj
 0001:00010e30       ??0?$pair@$$CBTShaderEnvKey@Ogre@@PAVCompiledShader@2@@std@@QAE@ABTShaderEnvKey@Ogre@@ABQAVCompiledShader@3@@Z 10011e30 f i OgreD3D9ShaderManager.obj
 0001:00010e30       ??0?$pair@$$CBTShaderEnvKey@Ogre@@PAVD3DTech@2@@std@@QAE@ABTShaderEnvKey@Ogre@@ABQAVD3DTech@3@@Z 10011e30 f i OgreD3DMaterialTemplate.obj
 0001:00010e70       ?max_size@?$vector@UPassDesc@Ogre@@V?$allocator@UPassDesc@Ogre@@@std@@@std@@QBEIXZ 10011e70 f i OgreD3D9ShaderManager.obj
 0001:00010e90       ?erase@?$vector@UPassDesc@Ogre@@V?$allocator@UPassDesc@Ogre@@@std@@@std@@QAE?AV?$_Vector_iterator@UPassDesc@Ogre@@V?$allocator@UPassDesc@Ogre@@@std@@@2@V?$_Vector_const_iterator@UPassDesc@Ogre@@V?$allocator@UPassDesc@Ogre@@@std@@@2@0@Z 10011e90 f i OgreD3D9ShaderManager.obj
 0001:00010f30       ?_Destroy@?$vector@UPassDesc@Ogre@@V?$allocator@UPassDesc@Ogre@@@std@@@std@@IAEXPAUPassDesc@Ogre@@0@Z 10011f30 f i OgreD3D9ShaderManager.obj
 0001:00010f60       ?_Insert_n@?$vector@UPassDesc@Ogre@@V?$allocator@UPassDesc@Ogre@@@std@@@std@@IAEXV?$_Vector_const_iterator@UPassDesc@Ogre@@V?$allocator@UPassDesc@Ogre@@@std@@@2@IABUPassDesc@Ogre@@@Z 10011f60 f i OgreD3D9ShaderManager.obj
 0001:00011320       ?allocate@?$allocator@UPassDesc@Ogre@@@std@@QAEPAUPassDesc@Ogre@@I@Z 10012320 f i OgreD3D9ShaderManager.obj
 0001:00011340       ?max_size@?$vector@DV?$allocator@D@std@@@std@@QBEIXZ 10012340 f i OgreD3D9ShaderManager.obj
 0001:00011360       ?erase@?$vector@DV?$allocator@D@std@@@std@@QAE?AV?$_Vector_iterator@DV?$allocator@D@std@@@2@V?$_Vector_const_iterator@DV?$allocator@D@std@@@2@0@Z 10012360 f i OgreD3D9ShaderManager.obj
 0001:00011400       ?_Insert_n@?$vector@DV?$allocator@D@std@@@std@@IAEXV?$_Vector_const_iterator@DV?$allocator@D@std@@@2@IABD@Z 10012400 f i OgreD3D9ShaderManager.obj
 0001:00011770       ??0?$_Container_base_aux_alloc_real@V?$allocator@UPassDesc@Ogre@@@std@@@std@@IAE@V?$allocator@UPassDesc@Ogre@@@1@@Z 10012770 f i OgreD3D9ShaderManager.obj
 0001:00011770       ??0?$_Container_base_aux_alloc_real@V?$allocator@PAUD3DADAPTER_T@Ogre@@@std@@@std@@IAE@V?$allocator@PAUD3DADAPTER_T@Ogre@@@1@@Z 10012770 f i OgreD3D9DriverEnum.obj
 0001:00011770       ??0?$_Container_base_aux_alloc_real@V?$allocator@PAVCompiledShader@Ogre@@@std@@@std@@IAE@V?$allocator@PAVCompiledShader@Ogre@@@1@@Z 10012770 f i OgreD3D9ShaderManager.obj
 0001:00011770       ??0?$_Container_base_aux_alloc_real@V?$allocator@D@std@@@std@@IAE@V?$allocator@D@1@@Z 10012770 f i OgreD3D9ShaderManager.obj
 0001:00011770       ??0?$_Container_base_aux_alloc_real@V?$allocator@PAVD3D9TextureRenderTarget@Ogre@@@std@@@std@@IAE@V?$allocator@PAVD3D9TextureRenderTarget@Ogre@@@1@@Z 10012770 f i OgreD3D9HardwarePixelBuffer.obj
 0001:00011770       ??0?$_Container_base_aux_alloc_real@V?$allocator@UDSBuffer@D3D9HardwarePixelBufferManager@Ogre@@@std@@@std@@IAE@V?$allocator@UDSBuffer@D3D9HardwarePixelBufferManager@Ogre@@@1@@Z 10012770 f i OgreD3D9HardwarePixelBuffer.obj
 0001:00011770       ??0?$_Container_base_aux_alloc_real@V?$allocator@U_D3DXMACRO@@@std@@@std@@IAE@V?$allocator@U_D3DXMACRO@@@1@@Z 10012770 f i OgreD3D9ShaderManager.obj
 0001:00011770       ??0?$_Container_base_aux_alloc_real@V?$allocator@U?$pair@$$CBTShaderEnvKey@Ogre@@PAVCompiledShader@2@@std@@@std@@@std@@IAE@V?$allocator@U?$pair@$$CBTShaderEnvKey@Ogre@@PAVCompiledShader@2@@std@@@1@@Z 10012770 f i OgreD3D9ShaderManager.obj
 0001:00011770       ??0?$_Container_base_aux_alloc_real@V?$allocator@U?$pair@$$CBTShaderEnvKey2@Ogre@@PAVD3DShaderTechnique@2@@std@@@std@@@std@@IAE@V?$allocator@U?$pair@$$CBTShaderEnvKey2@Ogre@@PAVD3DShaderTechnique@2@@std@@@1@@Z 10012770 f i OgreD3DMaterialTemplate.obj
 0001:00011770       ??0?$_Container_base_aux_alloc_real@V?$allocator@PAUTechCache@D3DMaterialTemplate@Ogre@@@std@@@std@@IAE@V?$allocator@PAUTechCache@D3DMaterialTemplate@Ogre@@@1@@Z 10012770 f i OgreD3DMaterialTemplate.obj
 0001:00011770       ??0?$_Container_base_aux_alloc_real@V?$allocator@W4_D3DMULTISAMPLE_TYPE@@@std@@@std@@IAE@V?$allocator@W4_D3DMULTISAMPLE_TYPE@@@1@@Z 10012770 f i OgreD3D9DriverEnum.obj
 0001:00011770       ??0?$_Container_base_aux_alloc_real@V?$allocator@UD3DSMSCONFLICT_T@Ogre@@@std@@@std@@IAE@V?$allocator@UD3DSMSCONFLICT_T@Ogre@@@1@@Z 10012770 f i OgreD3D9DriverEnum.obj
 0001:00011770       ??0?$_Container_base_aux_alloc_real@V?$allocator@PAVD3DRenderWindow@Ogre@@@std@@@std@@IAE@V?$allocator@PAVD3DRenderWindow@Ogre@@@1@@Z 10012770 f i OgreD3D9RenderSystem.obj
 0001:00011770       ??0?$_Container_base_aux_alloc_real@V?$allocator@PAVD3D9VertexDecl@Ogre@@@std@@@std@@IAE@V?$allocator@PAVD3D9VertexDecl@Ogre@@@1@@Z 10012770 f i OgreD3D9RenderSystem.obj
 0001:00011770       ??0?$_Container_base_aux_alloc_real@V?$allocator@UPassData@D3DShaderTechnique@Ogre@@@std@@@std@@IAE@V?$allocator@UPassData@D3DShaderTechnique@Ogre@@@1@@Z 10012770 f i OgreD3D9ShaderManager.obj
 0001:00011770       ??0?$_Container_base_aux_alloc_real@V?$allocator@PAUTechniqueDesc@Ogre@@@std@@@std@@IAE@V?$allocator@PAUTechniqueDesc@Ogre@@@1@@Z 10012770 f i OgreD3D9ShaderManager.obj
 0001:00011770       ??0?$_Container_base_aux_alloc_real@V?$allocator@PAUD3DDEVCOMBO_T@Ogre@@@std@@@std@@IAE@V?$allocator@PAUD3DDEVCOMBO_T@Ogre@@@1@@Z 10012770 f i OgreD3D9DriverEnum.obj
 0001:00011770       ??0?$_Container_base_aux_alloc_real@V?$allocator@TShaderEnvKey@Ogre@@@std@@@std@@IAE@V?$allocator@TShaderEnvKey@Ogre@@@1@@Z 10012770 f i OgreD3D9ShaderManager.obj
 0001:00011770       ??0?$_Container_base_aux_alloc_real@V?$allocator@W4_D3DFORMAT@@@std@@@std@@IAE@V?$allocator@W4_D3DFORMAT@@@1@@Z 10012770 f i OgreD3D9DriverEnum.obj
 0001:00011770       ??0?$_Container_base_aux_alloc_real@V?$allocator@I@std@@@std@@IAE@V?$allocator@I@1@@Z 10012770 f i OgreD3D9DriverEnum.obj
 0001:00011770       ??0?$_Container_base_aux_alloc_real@V?$allocator@U_D3DDISPLAYMODE@@@std@@@std@@IAE@V?$allocator@U_D3DDISPLAYMODE@@@1@@Z 10012770 f i OgreD3D9DriverEnum.obj
 0001:00011770       ??0?$_Container_base_aux_alloc_real@V?$allocator@W4VERTPROCESS_T@Ogre@@@std@@@std@@IAE@V?$allocator@W4VERTPROCESS_T@Ogre@@@1@@Z 10012770 f i OgreD3D9DriverEnum.obj
 0001:00011770       ??0?$_Container_base_aux_alloc_real@V?$allocator@U?$pair@$$CBTShaderEnvKey@Ogre@@PAVD3DTech@2@@std@@@std@@@std@@IAE@V?$allocator@U?$pair@$$CBTShaderEnvKey@Ogre@@PAVD3DTech@2@@std@@@1@@Z 10012770 f i OgreD3DMaterialTemplate.obj
 0001:00011770       ??0?$_Container_base_aux_alloc_real@V?$allocator@PAUIDirect3DBaseTexture9@@@std@@@std@@IAE@V?$allocator@PAUIDirect3DBaseTexture9@@@1@@Z 10012770 f i OgreD3D9HardwarePixelBuffer.obj
 0001:00011770       ??0?$_Container_base_aux_alloc_real@V?$allocator@U?$pair@$$CBVFixedString@Ogre@@PAVCompiledShaderGroup@2@@std@@@std@@@std@@IAE@V?$allocator@U?$pair@$$CBVFixedString@Ogre@@PAVCompiledShaderGroup@2@@std@@@1@@Z 10012770 f i OgreD3DMaterialTemplate.obj
 0001:00011770       ??0?$_Container_base_aux_alloc_real@V?$allocator@PAUD3DDEVICEINFO_T@Ogre@@@std@@@std@@IAE@V?$allocator@PAUD3DDEVICEINFO_T@Ogre@@@1@@Z 10012770 f i OgreD3D9DriverEnum.obj
 0001:00011770       ??0?$_Container_base_aux_alloc_real@V?$allocator@URTBuffer@D3D9HardwarePixelBufferManager@Ogre@@@std@@@std@@IAE@V?$allocator@URTBuffer@D3D9HardwarePixelBufferManager@Ogre@@@1@@Z 10012770 f i OgreD3D9HardwarePixelBuffer.obj
 0001:00011830       ?max_size@?$vector@U_D3DDISPLAYMODE@@V?$allocator@U_D3DDISPLAYMODE@@@std@@@std@@QBEIXZ 10012830 f i OgreD3D9DriverEnum.obj
 0001:00011830       ?max_size@?$vector@TShaderEnvKey@Ogre@@V?$allocator@TShaderEnvKey@Ogre@@@std@@@std@@QBEIXZ 10012830 f i OgreD3D9ShaderManager.obj
 0001:00011850       ?_Destroy@?$vector@U_D3DDISPLAYMODE@@V?$allocator@U_D3DDISPLAYMODE@@@std@@@std@@IAEXPAU_D3DDISPLAYMODE@@0@Z 10012850 f i OgreD3D9DriverEnum.obj
 0001:00011850       ?_Destroy@?$vector@TShaderEnvKey@Ogre@@V?$allocator@TShaderEnvKey@Ogre@@@std@@@std@@IAEXPATShaderEnvKey@Ogre@@0@Z 10012850 f i OgreD3D9ShaderManager.obj
 0001:00011880       ?_Insert_n@?$vector@TShaderEnvKey@Ogre@@V?$allocator@TShaderEnvKey@Ogre@@@std@@@std@@IAEXV?$_Vector_const_iterator@TShaderEnvKey@Ogre@@V?$allocator@TShaderEnvKey@Ogre@@@std@@@2@IABTShaderEnvKey@Ogre@@@Z 10012880 f i OgreD3D9ShaderManager.obj
 0001:00011c50       ?erase@?$_Tree@V?$_Tmap_traits@TShaderEnvKey@Ogre@@PAVCompiledShader@2@U?$less@TShaderEnvKey@Ogre@@@std@@V?$allocator@U?$pair@$$CBTShaderEnvKey@Ogre@@PAVCompiledShader@2@@std@@@5@$0A@@std@@@std@@QAE?AViterator@12@Vconst_iterator@12@0@Z 10012c50 f i OgreD3D9ShaderManager.obj
 0001:00011c50       ?erase@?$_Tree@V?$_Tmap_traits@TShaderEnvKey@Ogre@@PAVD3DTech@2@U?$less@TShaderEnvKey@Ogre@@@std@@V?$allocator@U?$pair@$$CBTShaderEnvKey@Ogre@@PAVD3DTech@2@@std@@@5@$0A@@std@@@std@@QAE?AViterator@12@Vconst_iterator@12@0@Z 10012c50 f i OgreD3DMaterialTemplate.obj
 0001:00011d00       ?_Lbound@?$_Tree@V?$_Tmap_traits@TShaderEnvKey@Ogre@@PAVCompiledShader@2@U?$less@TShaderEnvKey@Ogre@@@std@@V?$allocator@U?$pair@$$CBTShaderEnvKey@Ogre@@PAVCompiledShader@2@@std@@@5@$0A@@std@@@std@@IBEPAU_Node@?$_Tree_nod@V?$_Tmap_traits@TShaderEnvKey@Ogre@@PAVCompiledShader@2@U?$less@TShaderEnvKey@Ogre@@@std@@V?$allocator@U?$pair@$$CBTShaderEnvKey@Ogre@@PAVCompiledShader@2@@std@@@5@$0A@@std@@@2@ABTShaderEnvKey@Ogre@@@Z 10012d00 f i OgreD3D9ShaderManager.obj
 0001:00011d00       ?_Lbound@?$_Tree@V?$_Tmap_traits@TShaderEnvKey@Ogre@@PAVD3DTech@2@U?$less@TShaderEnvKey@Ogre@@@std@@V?$allocator@U?$pair@$$CBTShaderEnvKey@Ogre@@PAVD3DTech@2@@std@@@5@$0A@@std@@@std@@IBEPAU_Node@?$_Tree_nod@V?$_Tmap_traits@TShaderEnvKey@Ogre@@PAVD3DTech@2@U?$less@TShaderEnvKey@Ogre@@@std@@V?$allocator@U?$pair@$$CBTShaderEnvKey@Ogre@@PAVD3DTech@2@@std@@@5@$0A@@std@@@2@ABTShaderEnvKey@Ogre@@@Z 10012d00 f i OgreD3DMaterialTemplate.obj
 0001:00011d90       ?end@?$vector@PAUD3DDEVCOMBO_T@Ogre@@V?$allocator@PAUD3DDEVCOMBO_T@Ogre@@@std@@@std@@QAE?AV?$_Vector_iterator@PAUD3DDEVCOMBO_T@Ogre@@V?$allocator@PAUD3DDEVCOMBO_T@Ogre@@@std@@@2@XZ 10012d90 f i OgreD3D9DriverEnum.obj
 0001:00011d90       ?end@?$vector@IV?$allocator@I@std@@@std@@QAE?AV?$_Vector_iterator@IV?$allocator@I@std@@@2@XZ 10012d90 f i OgreD3D9DriverEnum.obj
 0001:00011d90       ?end@?$vector@DV?$allocator@D@std@@@std@@QAE?AV?$_Vector_iterator@DV?$allocator@D@std@@@2@XZ 10012d90 f i OgreD3D9ShaderManager.obj
 0001:00011d90       ?end@?$vector@UPassDesc@Ogre@@V?$allocator@UPassDesc@Ogre@@@std@@@std@@QAE?AV?$_Vector_iterator@UPassDesc@Ogre@@V?$allocator@UPassDesc@Ogre@@@std@@@2@XZ 10012d90 f i OgreD3D9ShaderManager.obj
 0001:00011d90       ?end@?$vector@PAUD3DADAPTER_T@Ogre@@V?$allocator@PAUD3DADAPTER_T@Ogre@@@std@@@std@@QAE?AV?$_Vector_iterator@PAUD3DADAPTER_T@Ogre@@V?$allocator@PAUD3DADAPTER_T@Ogre@@@std@@@2@XZ 10012d90 f i OgreD3D9DriverEnum.obj
 0001:00011d90       ?end@?$vector@URTBuffer@D3D9HardwarePixelBufferManager@Ogre@@V?$allocator@URTBuffer@D3D9HardwarePixelBufferManager@Ogre@@@std@@@std@@QAE?AV?$_Vector_iterator@URTBuffer@D3D9HardwarePixelBufferManager@Ogre@@V?$allocator@URTBuffer@D3D9HardwarePixelBufferManager@Ogre@@@std@@@2@XZ 10012d90 f i OgreD3D9HardwarePixelBuffer.obj
 0001:00011d90       ?end@?$vector@PAVD3D9TextureRenderTarget@Ogre@@V?$allocator@PAVD3D9TextureRenderTarget@Ogre@@@std@@@std@@QAE?AV?$_Vector_iterator@PAVD3D9TextureRenderTarget@Ogre@@V?$allocator@PAVD3D9TextureRenderTarget@Ogre@@@std@@@2@XZ 10012d90 f i OgreD3D9HardwarePixelBuffer.obj
 0001:00011d90       ?end@?$vector@U_D3DDISPLAYMODE@@V?$allocator@U_D3DDISPLAYMODE@@@std@@@std@@QAE?AV?$_Vector_iterator@U_D3DDISPLAYMODE@@V?$allocator@U_D3DDISPLAYMODE@@@std@@@2@XZ 10012d90 f i OgreD3D9DriverEnum.obj
 0001:00011d90       ?end@?$vector@PAUTechniqueDesc@Ogre@@V?$allocator@PAUTechniqueDesc@Ogre@@@std@@@std@@QAE?AV?$_Vector_iterator@PAUTechniqueDesc@Ogre@@V?$allocator@PAUTechniqueDesc@Ogre@@@std@@@2@XZ 10012d90 f i OgreD3D9ShaderManager.obj
 0001:00011d90       ?end@?$vector@U_D3DXMACRO@@V?$allocator@U_D3DXMACRO@@@std@@@std@@QAE?AV?$_Vector_iterator@U_D3DXMACRO@@V?$allocator@U_D3DXMACRO@@@std@@@2@XZ 10012d90 f i OgreD3D9ShaderManager.obj
 0001:00011d90       ?end@?$vector@PAVD3DRenderWindow@Ogre@@V?$allocator@PAVD3DRenderWindow@Ogre@@@std@@@std@@QAE?AV?$_Vector_iterator@PAVD3DRenderWindow@Ogre@@V?$allocator@PAVD3DRenderWindow@Ogre@@@std@@@2@XZ 10012d90 f i OgreD3D9RenderSystem.obj
 0001:00011d90       ?end@?$vector@UShaderEnv@Ogre@@V?$allocator@UShaderEnv@Ogre@@@std@@@std@@QAE?AV?$_Vector_iterator@UShaderEnv@Ogre@@V?$allocator@UShaderEnv@Ogre@@@std@@@2@XZ 10012d90 f i OgreD3DMaterialTemplate.obj
 0001:00011d90       ?end@?$vector@TShaderEnvKey@Ogre@@V?$allocator@TShaderEnvKey@Ogre@@@std@@@std@@QAE?AV?$_Vector_iterator@TShaderEnvKey@Ogre@@V?$allocator@TShaderEnvKey@Ogre@@@std@@@2@XZ 10012d90 f i OgreD3D9ShaderManager.obj
 0001:00011d90       ?end@?$vector@PAVHardwarePixelBuffer@Ogre@@V?$allocator@PAVHardwarePixelBuffer@Ogre@@@std@@@std@@QAE?AV?$_Vector_iterator@PAVHardwarePixelBuffer@Ogre@@V?$allocator@PAVHardwarePixelBuffer@Ogre@@@std@@@2@XZ 10012d90 f i OgreD3D9HardwarePixelBuffer.obj
 0001:00011d90       ?end@?$vector@PAUTechCache@D3DMaterialTemplate@Ogre@@V?$allocator@PAUTechCache@D3DMaterialTemplate@Ogre@@@std@@@std@@QAE?AV?$_Vector_iterator@PAUTechCache@D3DMaterialTemplate@Ogre@@V?$allocator@PAUTechCache@D3DMaterialTemplate@Ogre@@@std@@@2@XZ 10012d90 f i OgreD3DMaterialTemplate.obj
 0001:00011d90       ?end@?$vector@W4VERTPROCESS_T@Ogre@@V?$allocator@W4VERTPROCESS_T@Ogre@@@std@@@std@@QAE?AV?$_Vector_iterator@W4VERTPROCESS_T@Ogre@@V?$allocator@W4VERTPROCESS_T@Ogre@@@std@@@2@XZ 10012d90 f i OgreD3D9DriverEnum.obj
 0001:00011d90       ?end@?$vector@UPassData@D3DShaderTechnique@Ogre@@V?$allocator@UPassData@D3DShaderTechnique@Ogre@@@std@@@std@@QAE?AV?$_Vector_iterator@UPassData@D3DShaderTechnique@Ogre@@V?$allocator@UPassData@D3DShaderTechnique@Ogre@@@std@@@2@XZ 10012d90 f i OgreD3D9ShaderManager.obj
 0001:00011d90       ?end@?$vector@PAUD3DDEVICEINFO_T@Ogre@@V?$allocator@PAUD3DDEVICEINFO_T@Ogre@@@std@@@std@@QAE?AV?$_Vector_iterator@PAUD3DDEVICEINFO_T@Ogre@@V?$allocator@PAUD3DDEVICEINFO_T@Ogre@@@std@@@2@XZ 10012d90 f i OgreD3D9DriverEnum.obj
 0001:00011d90       ?end@?$vector@PAVCompiledShader@Ogre@@V?$allocator@PAVCompiledShader@Ogre@@@std@@@std@@QAE?AV?$_Vector_iterator@PAVCompiledShader@Ogre@@V?$allocator@PAVCompiledShader@Ogre@@@std@@@2@XZ 10012d90 f i OgreD3D9ShaderManager.obj
 0001:00011d90       ?end@?$vector@W4_D3DFORMAT@@V?$allocator@W4_D3DFORMAT@@@std@@@std@@QAE?AV?$_Vector_iterator@W4_D3DFORMAT@@V?$allocator@W4_D3DFORMAT@@@std@@@2@XZ 10012d90 f i OgreD3D9DriverEnum.obj
 0001:00011d90       ?end@?$vector@UD3DSMSCONFLICT_T@Ogre@@V?$allocator@UD3DSMSCONFLICT_T@Ogre@@@std@@@std@@QAE?AV?$_Vector_iterator@UD3DSMSCONFLICT_T@Ogre@@V?$allocator@UD3DSMSCONFLICT_T@Ogre@@@std@@@2@XZ 10012d90 f i OgreD3D9DriverEnum.obj
 0001:00011d90       ?end@?$vector@UDSBuffer@D3D9HardwarePixelBufferManager@Ogre@@V?$allocator@UDSBuffer@D3D9HardwarePixelBufferManager@Ogre@@@std@@@std@@QAE?AV?$_Vector_iterator@UDSBuffer@D3D9HardwarePixelBufferManager@Ogre@@V?$allocator@UDSBuffer@D3D9HardwarePixelBufferManager@Ogre@@@std@@@2@XZ 10012d90 f i OgreD3D9HardwarePixelBuffer.obj
 0001:00011d90       ?end@?$vector@W4_D3DMULTISAMPLE_TYPE@@V?$allocator@W4_D3DMULTISAMPLE_TYPE@@@std@@@std@@QAE?AV?$_Vector_iterator@W4_D3DMULTISAMPLE_TYPE@@V?$allocator@W4_D3DMULTISAMPLE_TYPE@@@std@@@2@XZ 10012d90 f i OgreD3D9DriverEnum.obj
 0001:00011d90       ?end@?$vector@PAVD3D9VertexDecl@Ogre@@V?$allocator@PAVD3D9VertexDecl@Ogre@@@std@@@std@@QAE?AV?$_Vector_iterator@PAVD3D9VertexDecl@Ogre@@V?$allocator@PAVD3D9VertexDecl@Ogre@@@std@@@2@XZ 10012d90 f i OgreD3D9RenderSystem.obj
 0001:00011dc0       ?max_size@?$vector@UPassData@D3DShaderTechnique@Ogre@@V?$allocator@UPassData@D3DShaderTechnique@Ogre@@@std@@@std@@QBEIXZ 10012dc0 f i OgreD3D9ShaderManager.obj
 0001:00011de0       ?erase@?$vector@UPassData@D3DShaderTechnique@Ogre@@V?$allocator@UPassData@D3DShaderTechnique@Ogre@@@std@@@std@@QAE?AV?$_Vector_iterator@UPassData@D3DShaderTechnique@Ogre@@V?$allocator@UPassData@D3DShaderTechnique@Ogre@@@std@@@2@V?$_Vector_const_iterator@UPassData@D3DShaderTechnique@Ogre@@V?$allocator@UPassData@D3DShaderTechnique@Ogre@@@std@@@2@0@Z 10012de0 f i OgreD3D9ShaderManager.obj
 0001:00011e80       ?_Destroy@?$vector@UPassData@D3DShaderTechnique@Ogre@@V?$allocator@UPassData@D3DShaderTechnique@Ogre@@@std@@@std@@IAEXPAUPassData@D3DShaderTechnique@Ogre@@0@Z 10012e80 f i OgreD3D9ShaderManager.obj
 0001:00011eb0       ?_Insert_n@?$vector@UPassData@D3DShaderTechnique@Ogre@@V?$allocator@UPassData@D3DShaderTechnique@Ogre@@@std@@@std@@IAEXV?$_Vector_const_iterator@UPassData@D3DShaderTechnique@Ogre@@V?$allocator@UPassData@D3DShaderTechnique@Ogre@@@std@@@2@IABUPassData@D3DShaderTechnique@Ogre@@@Z 10012eb0 f i OgreD3D9ShaderManager.obj
 0001:00012280       ?allocate@?$allocator@UPassData@D3DShaderTechnique@Ogre@@@std@@QAEPAUPassData@D3DShaderTechnique@Ogre@@I@Z 10013280 f i OgreD3D9ShaderManager.obj
 0001:000122a0       ?_Destroy@?$vector@UD3DSMSCONFLICT_T@Ogre@@V?$allocator@UD3DSMSCONFLICT_T@Ogre@@@std@@@std@@IAEXPAUD3DSMSCONFLICT_T@Ogre@@0@Z 100132a0 f i OgreD3D9DriverEnum.obj
 0001:000122a0       ?_Destroy@?$vector@U_D3DXMACRO@@V?$allocator@U_D3DXMACRO@@@std@@@std@@IAEXPAU_D3DXMACRO@@0@Z 100132a0 f i OgreD3D9ShaderManager.obj
 0001:000122d0       ?_Xlen@?$vector@PAUTechCache@D3DMaterialTemplate@Ogre@@V?$allocator@PAUTechCache@D3DMaterialTemplate@Ogre@@@std@@@std@@KAXXZ 100132d0 f i OgreD3DMaterialTemplate.obj
 0001:000122d0       ?_Xlen@?$vector@U_D3DDISPLAYMODE@@V?$allocator@U_D3DDISPLAYMODE@@@std@@@std@@KAXXZ 100132d0 f i OgreD3D9DriverEnum.obj
 0001:000122d0       ?_Xlen@?$vector@PAUD3DDEVICEINFO_T@Ogre@@V?$allocator@PAUD3DDEVICEINFO_T@Ogre@@@std@@@std@@KAXXZ 100132d0 f i OgreD3D9DriverEnum.obj
 0001:000122d0       ?_Xlen@?$vector@PAUD3DDEVCOMBO_T@Ogre@@V?$allocator@PAUD3DDEVCOMBO_T@Ogre@@@std@@@std@@KAXXZ 100132d0 f i OgreD3D9DriverEnum.obj
 0001:000122d0       ?_Xlen@?$vector@U_D3DXMACRO@@V?$allocator@U_D3DXMACRO@@@std@@@std@@KAXXZ 100132d0 f i OgreD3D9ShaderManager.obj
 0001:000122d0       ?_Xlen@?$vector@W4_D3DFORMAT@@V?$allocator@W4_D3DFORMAT@@@std@@@std@@KAXXZ 100132d0 f i OgreD3D9DriverEnum.obj
 0001:000122d0       ?_Xlen@?$vector@URTBuffer@D3D9HardwarePixelBufferManager@Ogre@@V?$allocator@URTBuffer@D3D9HardwarePixelBufferManager@Ogre@@@std@@@std@@KAXXZ 100132d0 f i OgreD3D9HardwarePixelBuffer.obj
 0001:000122d0       ?_Xlen@?$vector@PAVD3D9TextureRenderTarget@Ogre@@V?$allocator@PAVD3D9TextureRenderTarget@Ogre@@@std@@@std@@KAXXZ 100132d0 f i OgreD3D9HardwarePixelBuffer.obj
 0001:000122d0       ?_Xlen@?$vector@PAUTechniqueDesc@Ogre@@V?$allocator@PAUTechniqueDesc@Ogre@@@std@@@std@@KAXXZ 100132d0 f i OgreD3D9ShaderManager.obj
 0001:000122d0       ?_Xlen@?$vector@UShaderEnv@Ogre@@V?$allocator@UShaderEnv@Ogre@@@std@@@std@@KAXXZ 100132d0 f i OgreD3DMaterialTemplate.obj
 0001:000122d0       ?_Xlen@?$vector@W4_D3DMULTISAMPLE_TYPE@@V?$allocator@W4_D3DMULTISAMPLE_TYPE@@@std@@@std@@KAXXZ 100132d0 f i OgreD3D9DriverEnum.obj
 0001:000122d0       ?_Xlen@?$vector@PAUIDirect3DBaseTexture9@@V?$allocator@PAUIDirect3DBaseTexture9@@@std@@@std@@KAXXZ 100132d0 f i OgreD3D9HardwarePixelBuffer.obj
 0001:000122d0       ?_Xlen@?$vector@UD3DSMSCONFLICT_T@Ogre@@V?$allocator@UD3DSMSCONFLICT_T@Ogre@@@std@@@std@@KAXXZ 100132d0 f i OgreD3D9DriverEnum.obj
 0001:000122d0       ?_Xlen@?$vector@PAVCompiledShader@Ogre@@V?$allocator@PAVCompiledShader@Ogre@@@std@@@std@@KAXXZ 100132d0 f i OgreD3D9ShaderManager.obj
 0001:000122d0       ?_Xlen@?$vector@IV?$allocator@I@std@@@std@@KAXXZ 100132d0 f i OgreD3D9DriverEnum.obj
 0001:000122d0       ?_Xlen@?$vector@PAUD3DADAPTER_T@Ogre@@V?$allocator@PAUD3DADAPTER_T@Ogre@@@std@@@std@@KAXXZ 100132d0 f i OgreD3D9DriverEnum.obj
 0001:000122d0       ?_Xlen@?$vector@PAVD3DRenderWindow@Ogre@@V?$allocator@PAVD3DRenderWindow@Ogre@@@std@@@std@@KAXXZ 100132d0 f i OgreD3D9RenderSystem.obj
 0001:000122d0       ?_Xlen@?$vector@TShaderEnvKey@Ogre@@V?$allocator@TShaderEnvKey@Ogre@@@std@@@std@@KAXXZ 100132d0 f i OgreD3D9ShaderManager.obj
 0001:000122d0       ?_Xlen@?$vector@DV?$allocator@D@std@@@std@@KAXXZ 100132d0 f i OgreD3D9ShaderManager.obj
 0001:000122d0       ?_Xlen@?$vector@UPassDesc@Ogre@@V?$allocator@UPassDesc@Ogre@@@std@@@std@@KAXXZ 100132d0 f i OgreD3D9ShaderManager.obj
 0001:000122d0       ?_Xlen@?$vector@W4VERTPROCESS_T@Ogre@@V?$allocator@W4VERTPROCESS_T@Ogre@@@std@@@std@@KAXXZ 100132d0 f i OgreD3D9DriverEnum.obj
 0001:000122d0       ?_Xlen@?$vector@UDSBuffer@D3D9HardwarePixelBufferManager@Ogre@@V?$allocator@UDSBuffer@D3D9HardwarePixelBufferManager@Ogre@@@std@@@std@@KAXXZ 100132d0 f i OgreD3D9HardwarePixelBuffer.obj
 0001:000122d0       ?_Xlen@?$vector@PAVD3D9VertexDecl@Ogre@@V?$allocator@PAVD3D9VertexDecl@Ogre@@@std@@@std@@KAXXZ 100132d0 f i OgreD3D9RenderSystem.obj
 0001:000122d0       ?_Xlen@?$vector@UPassData@D3DShaderTechnique@Ogre@@V?$allocator@UPassData@D3DShaderTechnique@Ogre@@@std@@@std@@KAXXZ 100132d0 f i OgreD3D9ShaderManager.obj
 0001:00012350       ?allocate@?$allocator@UD3DSMSCONFLICT_T@Ogre@@@std@@QAEPAUD3DSMSCONFLICT_T@Ogre@@I@Z 10013350 f i OgreD3D9DriverEnum.obj
 0001:00012350       ?allocate@?$allocator@U_D3DXMACRO@@@std@@QAEPAU_D3DXMACRO@@I@Z 10013350 f i OgreD3D9ShaderManager.obj
 0001:00012370       ??Econst_iterator@?$_Tree@V?$_Tmap_traits@TShaderEnvKey@Ogre@@PAVCompiledShader@2@U?$less@TShaderEnvKey@Ogre@@@std@@V?$allocator@U?$pair@$$CBTShaderEnvKey@Ogre@@PAVCompiledShader@2@@std@@@5@$0A@@std@@@std@@QAEAAV012@XZ 10013370 f i OgreD3D9ShaderManager.obj
 0001:00012370       ??Econst_iterator@?$_Tree@V?$_Tmap_traits@TShaderEnvKey@Ogre@@PAVD3DTech@2@U?$less@TShaderEnvKey@Ogre@@@std@@V?$allocator@U?$pair@$$CBTShaderEnvKey@Ogre@@PAVD3DTech@2@@std@@@5@$0A@@std@@@std@@QAEAAV012@XZ 10013370 f i OgreD3DMaterialTemplate.obj
 0001:00012390       ??G?$_Vector_const_iterator@U_D3DDISPLAYMODE@@V?$allocator@U_D3DDISPLAYMODE@@@std@@@std@@QBEHABV01@@Z 10013390 f i OgreD3D9DriverEnum.obj
 0001:00012390       ??G?$_Vector_const_iterator@TShaderEnvKey@Ogre@@V?$allocator@TShaderEnvKey@Ogre@@@std@@@std@@QBEHABV01@@Z 10013390 f i OgreD3D9ShaderManager.obj
 0001:000123e0       ??H?$_Vector_iterator@U_D3DXMACRO@@V?$allocator@U_D3DXMACRO@@@std@@@std@@QBE?AV01@H@Z 100133e0 f i OgreD3D9ShaderManager.obj
 0001:000123e0       ??H?$_Vector_iterator@UD3DSMSCONFLICT_T@Ogre@@V?$allocator@UD3DSMSCONFLICT_T@Ogre@@@std@@@std@@QBE?AV01@H@Z 100133e0 f i OgreD3D9DriverEnum.obj
 0001:00012420       ??G?$_Vector_const_iterator@U_D3DXMACRO@@V?$allocator@U_D3DXMACRO@@@std@@@std@@QBEHABV01@@Z 10013420 f i OgreD3D9ShaderManager.obj
 0001:00012420       ??G?$_Vector_const_iterator@UD3DSMSCONFLICT_T@Ogre@@V?$allocator@UD3DSMSCONFLICT_T@Ogre@@@std@@@std@@QBEHABV01@@Z 10013420 f i OgreD3D9DriverEnum.obj
 0001:00012470       ??H?$_Vector_iterator@UPassDesc@Ogre@@V?$allocator@UPassDesc@Ogre@@@std@@@std@@QBE?AV01@H@Z 10013470 f i OgreD3D9ShaderManager.obj
 0001:000124b0       ??H?$_Vector_iterator@DV?$allocator@D@std@@@std@@QBE?AV01@H@Z 100134b0 f i OgreD3D9ShaderManager.obj
 0001:000124f0       ??H?$_Vector_iterator@UPassData@D3DShaderTechnique@Ogre@@V?$allocator@UPassData@D3DShaderTechnique@Ogre@@@std@@@std@@QBE?AV01@H@Z 100134f0 f i OgreD3D9ShaderManager.obj
 0001:00012530       ?capacity@?$vector@UPassDesc@Ogre@@V?$allocator@UPassDesc@Ogre@@@std@@@std@@QBEIXZ 10013530 f i OgreD3D9ShaderManager.obj
 0001:00012570       ?_Ufill@?$vector@UPassDesc@Ogre@@V?$allocator@UPassDesc@Ogre@@@std@@@std@@IAEPAUPassDesc@Ogre@@PAU34@IABU34@@Z 10013570 f i OgreD3D9ShaderManager.obj
 0001:000125b0       ?max_size@?$allocator@U?$pair@$$CBTShaderEnvKey2@Ogre@@PAVD3DShaderTechnique@2@@std@@@std@@QBEIXZ 100135b0 f i OgreD3DMaterialTemplate.obj
 0001:000125b0       ?max_size@?$allocator@UPassDesc@Ogre@@@std@@QBEIXZ 100135b0 f i OgreD3D9ShaderManager.obj
 0001:000125e0       ?capacity@?$vector@DV?$allocator@D@std@@@std@@QBEIXZ 100135e0 f i OgreD3D9ShaderManager.obj
 0001:00012620       ?_Ufill@?$vector@DV?$allocator@D@std@@@std@@IAEPADPADIABD@Z 10013620 f i OgreD3D9ShaderManager.obj
 0001:00012650       ?_Make_iter@?$_Tree@V?$_Tmap_traits@VFixedString@Ogre@@PAVCompiledShaderGroup@2@U?$less@VFixedString@Ogre@@@std@@V?$allocator@U?$pair@$$CBVFixedString@Ogre@@PAVCompiledShaderGroup@2@@std@@@5@$0A@@std@@@std@@QBE?AViterator@12@Vconst_iterator@12@@Z 10013650 f i OgreD3DMaterialTemplate.obj
 0001:00012650       ?_Make_iter@?$_Tree@V?$_Tmap_traits@TShaderEnvKey@Ogre@@PAVD3DTech@2@U?$less@TShaderEnvKey@Ogre@@@std@@V?$allocator@U?$pair@$$CBTShaderEnvKey@Ogre@@PAVD3DTech@2@@std@@@5@$0A@@std@@@std@@QBE?AViterator@12@Vconst_iterator@12@@Z 10013650 f i OgreD3DMaterialTemplate.obj
 0001:00012650       ?_Make_iter@?$_Tree@V?$_Tmap_traits@TShaderEnvKey@Ogre@@PAVCompiledShader@2@U?$less@TShaderEnvKey@Ogre@@@std@@V?$allocator@U?$pair@$$CBTShaderEnvKey@Ogre@@PAVCompiledShader@2@@std@@@5@$0A@@std@@@std@@QBE?AViterator@12@Vconst_iterator@12@@Z 10013650 f i OgreD3D9ShaderManager.obj
 0001:00012650       ?_Make_iter@?$_Tree@V?$_Tmap_traits@TShaderEnvKey2@Ogre@@PAVD3DShaderTechnique@2@U?$less@TShaderEnvKey2@Ogre@@@std@@V?$allocator@U?$pair@$$CBTShaderEnvKey2@Ogre@@PAVD3DShaderTechnique@2@@std@@@5@$0A@@std@@@std@@QBE?AViterator@12@Vconst_iterator@12@@Z 10013650 f i OgreD3DMaterialTemplate.obj
 0001:00012680       ?max_size@?$_Tree@V?$_Tmap_traits@TShaderEnvKey@Ogre@@PAVCompiledShader@2@U?$less@TShaderEnvKey@Ogre@@@std@@V?$allocator@U?$pair@$$CBTShaderEnvKey@Ogre@@PAVCompiledShader@2@@std@@@5@$0A@@std@@@std@@QBEIXZ 10013680 f i OgreD3D9ShaderManager.obj
 0001:00012680       ?max_size@?$_Tree@V?$_Tmap_traits@TShaderEnvKey@Ogre@@PAVD3DTech@2@U?$less@TShaderEnvKey@Ogre@@@std@@V?$allocator@U?$pair@$$CBTShaderEnvKey@Ogre@@PAVD3DTech@2@@std@@@5@$0A@@std@@@std@@QBEIXZ 10013680 f i OgreD3DMaterialTemplate.obj
 0001:000126a0       ?erase@?$_Tree@V?$_Tmap_traits@TShaderEnvKey@Ogre@@PAVCompiledShader@2@U?$less@TShaderEnvKey@Ogre@@@std@@V?$allocator@U?$pair@$$CBTShaderEnvKey@Ogre@@PAVCompiledShader@2@@std@@@5@$0A@@std@@@std@@QAE?AViterator@12@Vconst_iterator@12@@Z 100136a0 f i OgreD3D9ShaderManager.obj
 0001:000126a0       ?erase@?$_Tree@V?$_Tmap_traits@TShaderEnvKey@Ogre@@PAVD3DTech@2@U?$less@TShaderEnvKey@Ogre@@@std@@V?$allocator@U?$pair@$$CBTShaderEnvKey@Ogre@@PAVD3DTech@2@@std@@@5@$0A@@std@@@std@@QAE?AViterator@12@Vconst_iterator@12@@Z 100136a0 f i OgreD3DMaterialTemplate.obj
 0001:00012e80       ??0out_of_range@std@@QAE@ABV?$basic_string@DU?$char_traits@D@std@@V?$allocator@D@2@@1@@Z 10013e80 f i OgreD3D9ShaderManager.obj
 0001:00012ee0       ??1out_of_range@std@@UAE@XZ 10013ee0 f i OgreD3D9ShaderManager.obj
 0001:00012f40       ??_Gout_of_range@std@@UAEPAXI@Z 10013f40 f i OgreD3D9ShaderManager.obj
 0001:00012f40       ??_Eout_of_range@std@@UAEPAXI@Z 10013f40 f i OgreD3D9ShaderManager.obj
 0001:00012f70       ??0out_of_range@std@@QAE@ABV01@@Z 10013f70 f i OgreD3D9ShaderManager.obj
 0001:00012fd0       ?clear@?$_Tree@V?$_Tmap_traits@TShaderEnvKey@Ogre@@PAVD3DTech@2@U?$less@TShaderEnvKey@Ogre@@@std@@V?$allocator@U?$pair@$$CBTShaderEnvKey@Ogre@@PAVD3DTech@2@@std@@@5@$0A@@std@@@std@@QAEXXZ 10013fd0 f i OgreD3DMaterialTemplate.obj
 0001:00012fd0       ?clear@?$_Tree@V?$_Tmap_traits@TShaderEnvKey@Ogre@@PAVCompiledShader@2@U?$less@TShaderEnvKey@Ogre@@@std@@V?$allocator@U?$pair@$$CBTShaderEnvKey@Ogre@@PAVCompiledShader@2@@std@@@5@$0A@@std@@@std@@QAEXXZ 10013fd0 f i OgreD3D9ShaderManager.obj
 0001:00013030       ?capacity@?$vector@UPassData@D3DShaderTechnique@Ogre@@V?$allocator@UPassData@D3DShaderTechnique@Ogre@@@std@@@std@@QBEIXZ 10014030 f i OgreD3D9ShaderManager.obj
 0001:00013070       ?_Ufill@?$vector@UPassData@D3DShaderTechnique@Ogre@@V?$allocator@UPassData@D3DShaderTechnique@Ogre@@@std@@@std@@IAEPAUPassData@D3DShaderTechnique@Ogre@@PAU345@IABU345@@Z 10014070 f i OgreD3D9ShaderManager.obj
 0001:000130b0       ?max_size@?$allocator@UPassData@D3DShaderTechnique@Ogre@@@std@@QBEIXZ 100140b0 f i OgreD3D9ShaderManager.obj
 0001:000130e0       ?_Inc@const_iterator@?$_Tree@V?$_Tmap_traits@TShaderEnvKey@Ogre@@PAVCompiledShader@2@U?$less@TShaderEnvKey@Ogre@@@std@@V?$allocator@U?$pair@$$CBTShaderEnvKey@Ogre@@PAVCompiledShader@2@@std@@@5@$0A@@std@@@std@@QAEXXZ 100140e0 f i OgreD3D9ShaderManager.obj
 0001:000130e0       ?_Inc@const_iterator@?$_Tree@V?$_Tmap_traits@TShaderEnvKey@Ogre@@PAVD3DTech@2@U?$less@TShaderEnvKey@Ogre@@@std@@V?$allocator@U?$pair@$$CBTShaderEnvKey@Ogre@@PAVD3DTech@2@@std@@@5@$0A@@std@@@std@@QAEXXZ 100140e0 f i OgreD3DMaterialTemplate.obj
 0001:000131c0       ??Y?$_Vector_iterator@U_D3DDISPLAYMODE@@V?$allocator@U_D3DDISPLAYMODE@@@std@@@std@@QAEAAV01@H@Z 100141c0 f i OgreD3D9DriverEnum.obj
 0001:000131c0       ??Y?$_Vector_iterator@TShaderEnvKey@Ogre@@V?$allocator@TShaderEnvKey@Ogre@@@std@@@std@@QAEAAV01@H@Z 100141c0 f i OgreD3D9ShaderManager.obj
 0001:000131e0       ??Y?$_Vector_iterator@UPassDesc@Ogre@@V?$allocator@UPassDesc@Ogre@@@std@@@std@@QAEAAV01@H@Z 100141e0 f i OgreD3D9ShaderManager.obj
 0001:00013200       ??Y?$_Vector_iterator@DV?$allocator@D@std@@@std@@QAEAAV01@H@Z 10014200 f i OgreD3D9ShaderManager.obj
 0001:00013220       ??Y?$_Vector_iterator@UPassData@D3DShaderTechnique@Ogre@@V?$allocator@UPassData@D3DShaderTechnique@Ogre@@@std@@@std@@QAEAAV01@H@Z 10014220 f i OgreD3D9ShaderManager.obj
 0001:00013240       ?_Erase@?$_Tree@V?$_Tmap_traits@TShaderEnvKey@Ogre@@PAVD3DTech@2@U?$less@TShaderEnvKey@Ogre@@@std@@V?$allocator@U?$pair@$$CBTShaderEnvKey@Ogre@@PAVD3DTech@2@@std@@@5@$0A@@std@@@std@@IAEXPAU_Node@?$_Tree_nod@V?$_Tmap_traits@TShaderEnvKey@Ogre@@PAVD3DTech@2@U?$less@TShaderEnvKey@Ogre@@@std@@V?$allocator@U?$pair@$$CBTShaderEnvKey@Ogre@@PAVD3DTech@2@@std@@@5@$0A@@std@@@2@@Z 10014240 f i OgreD3DMaterialTemplate.obj
 0001:00013240       ?_Erase@?$_Tree@V?$_Tmap_traits@TShaderEnvKey@Ogre@@PAVCompiledShader@2@U?$less@TShaderEnvKey@Ogre@@@std@@V?$allocator@U?$pair@$$CBTShaderEnvKey@Ogre@@PAVCompiledShader@2@@std@@@5@$0A@@std@@@std@@IAEXPAU_Node@?$_Tree_nod@V?$_Tmap_traits@TShaderEnvKey@Ogre@@PAVCompiledShader@2@U?$less@TShaderEnvKey@Ogre@@@std@@V?$allocator@U?$pair@$$CBTShaderEnvKey@Ogre@@PAVCompiledShader@2@@std@@@5@$0A@@std@@@2@@Z 10014240 f i OgreD3D9ShaderManager.obj
 0001:000132c0       ?_Min@?$_Tree@V?$_Tmap_traits@TShaderEnvKey@Ogre@@PAVCompiledShader@2@U?$less@TShaderEnvKey@Ogre@@@std@@V?$allocator@U?$pair@$$CBTShaderEnvKey@Ogre@@PAVCompiledShader@2@@std@@@5@$0A@@std@@@std@@KAPAU_Node@?$_Tree_nod@V?$_Tmap_traits@TShaderEnvKey@Ogre@@PAVCompiledShader@2@U?$less@TShaderEnvKey@Ogre@@@std@@V?$allocator@U?$pair@$$CBTShaderEnvKey@Ogre@@PAVCompiledShader@2@@std@@@5@$0A@@std@@@2@PAU342@@Z 100142c0 f i OgreD3D9ShaderManager.obj
 0001:000132c0       ?_Min@?$_Tree@V?$_Tmap_traits@TShaderEnvKey@Ogre@@PAVD3DTech@2@U?$less@TShaderEnvKey@Ogre@@@std@@V?$allocator@U?$pair@$$CBTShaderEnvKey@Ogre@@PAVD3DTech@2@@std@@@5@$0A@@std@@@std@@KAPAU_Node@?$_Tree_nod@V?$_Tmap_traits@TShaderEnvKey@Ogre@@PAVD3DTech@2@U?$less@TShaderEnvKey@Ogre@@@std@@V?$allocator@U?$pair@$$CBTShaderEnvKey@Ogre@@PAVD3DTech@2@@std@@@5@$0A@@std@@@2@PAU342@@Z 100142c0 f i OgreD3DMaterialTemplate.obj
 0001:00013300       ??Y?$_Vector_const_iterator@TShaderEnvKey@Ogre@@V?$allocator@TShaderEnvKey@Ogre@@@std@@@std@@QAEAAV01@H@Z 10014300 f i OgreD3D9ShaderManager.obj
 0001:00013300       ??Y?$_Vector_const_iterator@U_D3DDISPLAYMODE@@V?$allocator@U_D3DDISPLAYMODE@@@std@@@std@@QAEAAV01@H@Z 10014300 f i OgreD3D9DriverEnum.obj
 0001:00013380       ??Y?$_Vector_const_iterator@UPassDesc@Ogre@@V?$allocator@UPassDesc@Ogre@@@std@@@std@@QAEAAV01@H@Z 10014380 f i OgreD3D9ShaderManager.obj
 0001:00013400       ??Y?$_Vector_const_iterator@DV?$allocator@D@std@@@std@@QAEAAV01@H@Z 10014400 f i OgreD3D9ShaderManager.obj
 0001:00013470       ??Y?$_Vector_const_iterator@UPassData@D3DShaderTechnique@Ogre@@V?$allocator@UPassData@D3DShaderTechnique@Ogre@@@std@@@std@@QAEAAV01@H@Z 10014470 f i OgreD3D9ShaderManager.obj
 0001:000134f0       ??0_Node@?$_Tree_nod@V?$_Tmap_traits@TShaderEnvKey@Ogre@@PAVD3DTech@2@U?$less@TShaderEnvKey@Ogre@@@std@@V?$allocator@U?$pair@$$CBTShaderEnvKey@Ogre@@PAVD3DTech@2@@std@@@5@$0A@@std@@@std@@QAE@PAU012@00ABU?$pair@$$CBTShaderEnvKey@Ogre@@PAVD3DTech@2@@2@D@Z 100144f0 f i OgreD3DMaterialTemplate.obj
 0001:000134f0       ??0_Node@?$_Tree_nod@V?$_Tmap_traits@TShaderEnvKey@Ogre@@PAVCompiledShader@2@U?$less@TShaderEnvKey@Ogre@@@std@@V?$allocator@U?$pair@$$CBTShaderEnvKey@Ogre@@PAVCompiledShader@2@@std@@@5@$0A@@std@@@std@@QAE@PAU012@00ABU?$pair@$$CBTShaderEnvKey@Ogre@@PAVCompiledShader@2@@2@D@Z 100144f0 f i OgreD3D9ShaderManager.obj
 0001:00013560       ??0?$_Ranit@DHPBDABD@std@@QAE@XZ 10014560 f i OgreD3D9ShaderManager.obj
 0001:00013560       ??0?$_Bidit@U?$pair@$$CBTShaderEnvKey@Ogre@@PAVD3DTech@2@@std@@HPBU12@ABU12@@std@@QAE@XZ 10014560 f i OgreD3DMaterialTemplate.obj
 0001:00013560       ??0?$_Ranit@UPassData@D3DShaderTechnique@Ogre@@HPBU123@ABU123@@std@@QAE@XZ 10014560 f i OgreD3D9ShaderManager.obj
 0001:00013560       ??0?$_Ranit@PAUD3DDEVCOMBO_T@Ogre@@HPBQAU12@ABQAU12@@std@@QAE@XZ 10014560 f i OgreD3D9DriverEnum.obj
 0001:00013560       ??0?$_Bidit@U?$pair@$$CBIPAVHardwarePixelBufferPool@Ogre@@@std@@HPBU12@ABU12@@std@@QAE@XZ 10014560 f i OgreD3D9HardwarePixelBuffer.obj
 0001:00013560       ??0?$_Ranit@PAVD3D9TextureRenderTarget@Ogre@@HPBQAV12@ABQAV12@@std@@QAE@XZ 10014560 f i OgreD3D9HardwarePixelBuffer.obj
 0001:00013560       ??0?$_Ranit@UShaderEnv@Ogre@@HPBU12@ABU12@@std@@QAE@XZ 10014560 f i OgreD3DMaterialTemplate.obj
 0001:00013560       ??0?$_Ranit@U_D3DXMACRO@@HPBU1@ABU1@@std@@QAE@XZ 10014560 f i OgreD3D9ShaderManager.obj
 0001:00013560       ??0?$_Ranit@UDSBuffer@D3D9HardwarePixelBufferManager@Ogre@@HPBU123@ABU123@@std@@QAE@XZ 10014560 f i OgreD3D9HardwarePixelBuffer.obj
 0001:00013560       ??0?$_Ranit@UD3DSMSCONFLICT_T@Ogre@@HPBU12@ABU12@@std@@QAE@XZ 10014560 f i OgreD3D9DriverEnum.obj
 0001:00013560       ??0?$_Ranit@PAUD3DADAPTER_T@Ogre@@HPBQAU12@ABQAU12@@std@@QAE@XZ 10014560 f i OgreD3D9DriverEnum.obj
 0001:00013560       ??0?$_Ranit@W4_D3DFORMAT@@HPBW41@ABW41@@std@@QAE@XZ 10014560 f i OgreD3D9DriverEnum.obj
 0001:00013560       ??0?$_Bidit@U?$pair@$$CBIPAVHardwareBufferPool@Ogre@@@std@@HPBU12@ABU12@@std@@QAE@XZ 10014560 f i OgreD3DHardwareBuffer.obj
 0001:00013560       ??0?$_Bidit@U?$pair@$$CBVFixedString@Ogre@@PAVCompiledShaderGroup@2@@std@@HPBU12@ABU12@@std@@QAE@XZ 10014560 f i OgreD3DMaterialTemplate.obj
 0001:00013560       ??0?$_Ranit@UPassDesc@Ogre@@HPBU12@ABU12@@std@@QAE@XZ 10014560 f i OgreD3D9ShaderManager.obj
 0001:00013560       ??0?$_Ranit@PAVD3DRenderWindow@Ogre@@HPBQAV12@ABQAV12@@std@@QAE@XZ 10014560 f i OgreD3D9RenderSystem.obj
 0001:00013560       ??0?$_Ranit@PAVHardwarePixelBuffer@Ogre@@HPBQAV12@ABQAV12@@std@@QAE@XZ 10014560 f i OgreD3D9HardwarePixelBuffer.obj
 0001:00013560       ??0?$_Ranit@PAVCompiledShader@Ogre@@HPBQAV12@ABQAV12@@std@@QAE@XZ 10014560 f i OgreD3D9ShaderManager.obj
 0001:00013560       ??0?$_Bidit@U?$pair@$$CBTShaderEnvKey@Ogre@@PAVCompiledShader@2@@std@@HPBU12@ABU12@@std@@QAE@XZ 10014560 f i OgreD3D9ShaderManager.obj
 0001:00013560       ??0?$_Ranit@PAUD3DDEVICEINFO_T@Ogre@@HPBQAU12@ABQAU12@@std@@QAE@XZ 10014560 f i OgreD3D9DriverEnum.obj
 0001:00013560       ??0?$_Ranit@W4_D3DMULTISAMPLE_TYPE@@HPBW41@ABW41@@std@@QAE@XZ 10014560 f i OgreD3D9DriverEnum.obj
 0001:00013560       ??0?$_Ranit@U_D3DDISPLAYMODE@@HPBU1@ABU1@@std@@QAE@XZ 10014560 f i OgreD3D9DriverEnum.obj
 0001:00013560       ??0?$_Ranit@URTBuffer@D3D9HardwarePixelBufferManager@Ogre@@HPBU123@ABU123@@std@@QAE@XZ 10014560 f i OgreD3D9HardwarePixelBuffer.obj
 0001:00013560       ??0?$_Ranit@IHPBIABI@std@@QAE@XZ 10014560 f i OgreD3D9DriverEnum.obj
 0001:00013560       ??0?$_Bidit@U?$pair@$$CBTShaderEnvKey2@Ogre@@PAVD3DShaderTechnique@2@@std@@HPBU12@ABU12@@std@@QAE@XZ 10014560 f i OgreD3DMaterialTemplate.obj
 0001:00013560       ??0?$_Bidit@U?$pair@$$CBVFixedString@Ogre@@PAVMaterialTemplate@2@@std@@HPBU12@ABU12@@std@@QAE@XZ 10014560 f i OgreD3DMaterialTemplate.obj
 0001:00013560       ??0?$_Ranit@W4VERTPROCESS_T@Ogre@@HPBW412@ABW412@@std@@QAE@XZ 10014560 f i OgreD3D9DriverEnum.obj
 0001:00013560       ??0?$_Ranit@PAUTechCache@D3DMaterialTemplate@Ogre@@HPBQAU123@ABQAU123@@std@@QAE@XZ 10014560 f i OgreD3DMaterialTemplate.obj
 0001:00013560       ??0?$_Ranit@PAVD3D9VertexDecl@Ogre@@HPBQAV12@ABQAV12@@std@@QAE@XZ 10014560 f i OgreD3D9RenderSystem.obj
 0001:00013560       ??0?$_Ranit@TShaderEnvKey@Ogre@@HPBT12@ABT12@@std@@QAE@XZ 10014560 f i OgreD3D9ShaderManager.obj
 0001:00013560       ??0?$_Ranit@PAUTechniqueDesc@Ogre@@HPBQAU12@ABQAU12@@std@@QAE@XZ 10014560 f i OgreD3D9ShaderManager.obj
 0001:00013580       ??0?$_Iterator_with_base@Urandom_access_iterator_tag@std@@U_D3DXMACRO@@HPBU3@ABU3@V_Iterator_base_aux@2@@std@@QAE@XZ 10014580 f i OgreD3D9ShaderManager.obj
 0001:00013580       ??0?$_Iterator_with_base@Ubidirectional_iterator_tag@std@@U?$pair@$$CBIPAVHardwareBufferPool@Ogre@@@2@HPBU32@ABU32@V_Iterator_base_aux@2@@std@@QAE@XZ 10014580 f i OgreD3DHardwareBuffer.obj
 0001:00013580       ??0?$_Iterator_with_base@Ubidirectional_iterator_tag@std@@U?$pair@$$CBIPAVHardwarePixelBufferPool@Ogre@@@2@HPBU32@ABU32@V_Iterator_base_aux@2@@std@@QAE@XZ 10014580 f i OgreD3D9HardwarePixelBuffer.obj
 0001:00013580       ??0?$_Iterator_with_base@Urandom_access_iterator_tag@std@@URTBuffer@D3D9HardwarePixelBufferManager@Ogre@@HPBU345@ABU345@V_Iterator_base_aux@2@@std@@QAE@XZ 10014580 f i OgreD3D9HardwarePixelBuffer.obj
 0001:00013580       ??0?$_Iterator_with_base@Urandom_access_iterator_tag@std@@PAVD3DRenderWindow@Ogre@@HPBQAV34@ABQAV34@V_Iterator_base_aux@2@@std@@QAE@XZ 10014580 f i OgreD3D9RenderSystem.obj
 0001:00013580       ??0?$_Iterator_with_base@Urandom_access_iterator_tag@std@@PAUD3DDEVCOMBO_T@Ogre@@HPBQAU34@ABQAU34@V_Iterator_base_aux@2@@std@@QAE@XZ 10014580 f i OgreD3D9DriverEnum.obj
 0001:00013580       ??0?$_Iterator_with_base@Urandom_access_iterator_tag@std@@W4_D3DMULTISAMPLE_TYPE@@HPBW43@ABW43@V_Iterator_base_aux@2@@std@@QAE@XZ 10014580 f i OgreD3D9DriverEnum.obj
 0001:00013580       ??0?$_Iterator_with_base@Urandom_access_iterator_tag@std@@DHPBDABDV_Iterator_base_aux@2@@std@@QAE@XZ 10014580 f i OgreD3D9ShaderManager.obj
 0001:00013580       ??0?$_Iterator_with_base@Urandom_access_iterator_tag@std@@PAUD3DDEVICEINFO_T@Ogre@@HPBQAU34@ABQAU34@V_Iterator_base_aux@2@@std@@QAE@XZ 10014580 f i OgreD3D9DriverEnum.obj
 0001:00013580       ??0?$_Iterator_with_base@Urandom_access_iterator_tag@std@@W4_D3DFORMAT@@HPBW43@ABW43@V_Iterator_base_aux@2@@std@@QAE@XZ 10014580 f i OgreD3D9DriverEnum.obj
 0001:00013580       ??0?$_Iterator_with_base@Urandom_access_iterator_tag@std@@PAVHardwarePixelBuffer@Ogre@@HPBQAV34@ABQAV34@V_Iterator_base_aux@2@@std@@QAE@XZ 10014580 f i OgreD3D9HardwarePixelBuffer.obj
 0001:00013580       ??0?$_Iterator_with_base@Urandom_access_iterator_tag@std@@UPassData@D3DShaderTechnique@Ogre@@HPBU345@ABU345@V_Iterator_base_aux@2@@std@@QAE@XZ 10014580 f i OgreD3D9ShaderManager.obj
 0001:00013580       ??0?$_Iterator_with_base@Urandom_access_iterator_tag@std@@TShaderEnvKey@Ogre@@HPBT34@ABT34@V_Iterator_base_aux@2@@std@@QAE@XZ 10014580 f i OgreD3D9ShaderManager.obj
 0001:00013580       ??0?$_Iterator_with_base@Ubidirectional_iterator_tag@std@@U?$pair@$$CBTShaderEnvKey@Ogre@@PAVCompiledShader@2@@2@HPBU32@ABU32@V_Iterator_base_aux@2@@std@@QAE@XZ 10014580 f i OgreD3D9ShaderManager.obj
 0001:00013580       ??0?$_Iterator_with_base@Urandom_access_iterator_tag@std@@UShaderEnv@Ogre@@HPBU34@ABU34@V_Iterator_base_aux@2@@std@@QAE@XZ 10014580 f i OgreD3DMaterialTemplate.obj
 0001:00013580       ??0?$_Iterator_with_base@Ubidirectional_iterator_tag@std@@U?$pair@$$CBVFixedString@Ogre@@PAVMaterialTemplate@2@@2@HPBU32@ABU32@V_Iterator_base_aux@2@@std@@QAE@XZ 10014580 f i OgreD3DMaterialTemplate.obj
 0001:00013580       ??0?$_Iterator_with_base@Urandom_access_iterator_tag@std@@PAVD3D9VertexDecl@Ogre@@HPBQAV34@ABQAV34@V_Iterator_base_aux@2@@std@@QAE@XZ 10014580 f i OgreD3D9RenderSystem.obj
 0001:00013580       ??0?$_Iterator_with_base@Urandom_access_iterator_tag@std@@IHPBIABIV_Iterator_base_aux@2@@std@@QAE@XZ 10014580 f i OgreD3D9DriverEnum.obj
 0001:00013580       ??0?$_Iterator_with_base@Urandom_access_iterator_tag@std@@PAVCompiledShader@Ogre@@HPBQAV34@ABQAV34@V_Iterator_base_aux@2@@std@@QAE@XZ 10014580 f i OgreD3D9ShaderManager.obj
 0001:00013580       ??0?$_Iterator_with_base@Urandom_access_iterator_tag@std@@PAVD3D9TextureRenderTarget@Ogre@@HPBQAV34@ABQAV34@V_Iterator_base_aux@2@@std@@QAE@XZ 10014580 f i OgreD3D9HardwarePixelBuffer.obj
 0001:00013580       ??0?$_Iterator_with_base@Urandom_access_iterator_tag@std@@UPassDesc@Ogre@@HPBU34@ABU34@V_Iterator_base_aux@2@@std@@QAE@XZ 10014580 f i OgreD3D9ShaderManager.obj
 0001:00013580       ??0?$_Iterator_with_base@Urandom_access_iterator_tag@std@@U_D3DDISPLAYMODE@@HPBU3@ABU3@V_Iterator_base_aux@2@@std@@QAE@XZ 10014580 f i OgreD3D9DriverEnum.obj
 0001:00013580       ??0?$_Iterator_with_base@Urandom_access_iterator_tag@std@@PAUD3DADAPTER_T@Ogre@@HPBQAU34@ABQAU34@V_Iterator_base_aux@2@@std@@QAE@XZ 10014580 f i OgreD3D9DriverEnum.obj
 0001:00013580       ??0?$_Iterator_with_base@Ubidirectional_iterator_tag@std@@U?$pair@$$CBTShaderEnvKey@Ogre@@PAVD3DTech@2@@2@HPBU32@ABU32@V_Iterator_base_aux@2@@std@@QAE@XZ 10014580 f i OgreD3DMaterialTemplate.obj
 0001:00013580       ??0?$_Iterator_with_base@Urandom_access_iterator_tag@std@@W4VERTPROCESS_T@Ogre@@HPBW434@ABW434@V_Iterator_base_aux@2@@std@@QAE@XZ 10014580 f i OgreD3D9DriverEnum.obj
 0001:00013580       ??0?$_Iterator_with_base@Urandom_access_iterator_tag@std@@UD3DSMSCONFLICT_T@Ogre@@HPBU34@ABU34@V_Iterator_base_aux@2@@std@@QAE@XZ 10014580 f i OgreD3D9DriverEnum.obj
 0001:00013580       ??0?$_Iterator_with_base@Urandom_access_iterator_tag@std@@PAUTechniqueDesc@Ogre@@HPBQAU34@ABQAU34@V_Iterator_base_aux@2@@std@@QAE@XZ 10014580 f i OgreD3D9ShaderManager.obj
 0001:00013580       ??0?$_Iterator_with_base@Urandom_access_iterator_tag@std@@UDSBuffer@D3D9HardwarePixelBufferManager@Ogre@@HPBU345@ABU345@V_Iterator_base_aux@2@@std@@QAE@XZ 10014580 f i OgreD3D9HardwarePixelBuffer.obj
 0001:00013580       ??0?$_Iterator_with_base@Ubidirectional_iterator_tag@std@@U?$pair@$$CBVFixedString@Ogre@@PAVCompiledShaderGroup@2@@2@HPBU32@ABU32@V_Iterator_base_aux@2@@std@@QAE@XZ 10014580 f i OgreD3DMaterialTemplate.obj
 0001:00013580       ??0?$_Iterator_with_base@Urandom_access_iterator_tag@std@@PAUTechCache@D3DMaterialTemplate@Ogre@@HPBQAU345@ABQAU345@V_Iterator_base_aux@2@@std@@QAE@XZ 10014580 f i OgreD3DMaterialTemplate.obj
 0001:00013580       ??0?$_Iterator_with_base@Ubidirectional_iterator_tag@std@@U?$pair@$$CBTShaderEnvKey2@Ogre@@PAVD3DShaderTechnique@2@@2@HPBU32@ABU32@V_Iterator_base_aux@2@@std@@QAE@XZ 10014580 f i OgreD3DMaterialTemplate.obj
 0001:000135a0       ??$unchecked_uninitialized_fill_n@PAIIIV?$allocator@I@std@@@stdext@@YAXPAIIABIAAV?$allocator@I@std@@@Z 100145a0 f i OgreD3D9DriverEnum.obj
 0001:000135a0       ??$unchecked_uninitialized_fill_n@PAPAUD3DADAPTER_T@Ogre@@IPAU12@V?$allocator@PAUD3DADAPTER_T@Ogre@@@std@@@stdext@@YAXPAPAUD3DADAPTER_T@Ogre@@IABQAU12@AAV?$allocator@PAUD3DADAPTER_T@Ogre@@@std@@@Z 100145a0 f i OgreD3D9DriverEnum.obj
 0001:000135a0       ??$unchecked_uninitialized_fill_n@PAPAVD3D9TextureRenderTarget@Ogre@@IPAV12@V?$allocator@PAVD3D9TextureRenderTarget@Ogre@@@std@@@stdext@@YAXPAPAVD3D9TextureRenderTarget@Ogre@@IABQAV12@AAV?$allocator@PAVD3D9TextureRenderTarget@Ogre@@@std@@@Z 100145a0 f i OgreD3D9HardwarePixelBuffer.obj
 0001:000135a0       ??$unchecked_uninitialized_fill_n@PAPAUD3DDEVICEINFO_T@Ogre@@IPAU12@V?$allocator@PAUD3DDEVICEINFO_T@Ogre@@@std@@@stdext@@YAXPAPAUD3DDEVICEINFO_T@Ogre@@IABQAU12@AAV?$allocator@PAUD3DDEVICEINFO_T@Ogre@@@std@@@Z 100145a0 f i OgreD3D9DriverEnum.obj
 0001:000135a0       ??$unchecked_uninitialized_fill_n@PAPAVD3D9VertexDecl@Ogre@@IPAV12@V?$allocator@PAVD3D9VertexDecl@Ogre@@@std@@@stdext@@YAXPAPAVD3D9VertexDecl@Ogre@@IABQAV12@AAV?$allocator@PAVD3D9VertexDecl@Ogre@@@std@@@Z 100145a0 f i OgreD3D9RenderSystem.obj
 0001:000135a0       ??$unchecked_uninitialized_fill_n@PAPAVD3DRenderWindow@Ogre@@IPAV12@V?$allocator@PAVD3DRenderWindow@Ogre@@@std@@@stdext@@YAXPAPAVD3DRenderWindow@Ogre@@IABQAV12@AAV?$allocator@PAVD3DRenderWindow@Ogre@@@std@@@Z 100145a0 f i OgreD3D9RenderSystem.obj
 0001:000135a0       ??$unchecked_uninitialized_fill_n@PAPAVCompiledShader@Ogre@@IPAV12@V?$allocator@PAVCompiledShader@Ogre@@@std@@@stdext@@YAXPAPAVCompiledShader@Ogre@@IABQAV12@AAV?$allocator@PAVCompiledShader@Ogre@@@std@@@Z 100145a0 f i OgreD3D9ShaderManager.obj
 0001:000135a0       ??$unchecked_uninitialized_fill_n@PAPAUD3DDEVCOMBO_T@Ogre@@IPAU12@V?$allocator@PAUD3DDEVCOMBO_T@Ogre@@@std@@@stdext@@YAXPAPAUD3DDEVCOMBO_T@Ogre@@IABQAU12@AAV?$allocator@PAUD3DDEVCOMBO_T@Ogre@@@std@@@Z 100145a0 f i OgreD3D9DriverEnum.obj
 0001:000135a0       ??$unchecked_uninitialized_fill_n@PAPAUTechCache@D3DMaterialTemplate@Ogre@@IPAU123@V?$allocator@PAUTechCache@D3DMaterialTemplate@Ogre@@@std@@@stdext@@YAXPAPAUTechCache@D3DMaterialTemplate@Ogre@@IABQAU123@AAV?$allocator@PAUTechCache@D3DMaterialTemplate@Ogre@@@std@@@Z 100145a0 f i OgreD3DMaterialTemplate.obj
 0001:000135a0       ??$unchecked_uninitialized_fill_n@PAPAUTechniqueDesc@Ogre@@IPAU12@V?$allocator@PAUTechniqueDesc@Ogre@@@std@@@stdext@@YAXPAPAUTechniqueDesc@Ogre@@IABQAU12@AAV?$allocator@PAUTechniqueDesc@Ogre@@@std@@@Z 100145a0 f i OgreD3D9ShaderManager.obj
 0001:000135f0       ??$unchecked_uninitialized_fill_n@PAU_D3DDISPLAYMODE@@IU1@V?$allocator@U_D3DDISPLAYMODE@@@std@@@stdext@@YAXPAU_D3DDISPLAYMODE@@IABU1@AAV?$allocator@U_D3DDISPLAYMODE@@@std@@@Z 100145f0 f i OgreD3D9DriverEnum.obj
 0001:000135f0       ??$unchecked_uninitialized_fill_n@PATShaderEnvKey@Ogre@@IT12@V?$allocator@TShaderEnvKey@Ogre@@@std@@@stdext@@YAXPATShaderEnvKey@Ogre@@IABT12@AAV?$allocator@TShaderEnvKey@Ogre@@@std@@@Z 100145f0 f i OgreD3D9ShaderManager.obj
 0001:00013640       ??$unchecked_uninitialized_fill_n@PAU_D3DXMACRO@@IU1@V?$allocator@U_D3DXMACRO@@@std@@@stdext@@YAXPAU_D3DXMACRO@@IABU1@AAV?$allocator@U_D3DXMACRO@@@std@@@Z 10014640 f i OgreD3D9ShaderManager.obj
 0001:00013640       ??$unchecked_uninitialized_fill_n@PAUD3DSMSCONFLICT_T@Ogre@@IU12@V?$allocator@UD3DSMSCONFLICT_T@Ogre@@@std@@@stdext@@YAXPAUD3DSMSCONFLICT_T@Ogre@@IABU12@AAV?$allocator@UD3DSMSCONFLICT_T@Ogre@@@std@@@Z 10014640 f i OgreD3D9DriverEnum.obj
 0001:00013690       ??$unchecked_copy@PAUPassDesc@Ogre@@PAU12@@stdext@@YAPAUPassDesc@Ogre@@PAU12@00@Z 10014690 f i OgreD3D9ShaderManager.obj
 0001:00013700       ??$_Destroy_range@V?$allocator@UPassDesc@Ogre@@@std@@@std@@YAXPAUPassDesc@Ogre@@0AAV?$allocator@UPassDesc@Ogre@@@0@@Z 10014700 f i OgreD3D9ShaderManager.obj
 0001:00013740       ??$_Umove@PAUPassDesc@Ogre@@@?$vector@UPassDesc@Ogre@@V?$allocator@UPassDesc@Ogre@@@std@@@std@@IAEPAUPassDesc@Ogre@@PAU23@00@Z 10014740 f i OgreD3D9ShaderManager.obj
 0001:00013770       ??$fill@PAUPassDesc@Ogre@@U12@@std@@YAXPAUPassDesc@Ogre@@0ABU12@@Z 10014770 f i OgreD3D9ShaderManager.obj
 0001:000137a0       ??$_Unchecked_move_backward@PAUPassDesc@Ogre@@PAU12@@stdext@@YAPAUPassDesc@Ogre@@PAU12@00@Z 100147a0 f i OgreD3D9ShaderManager.obj
 0001:00013810       ??$_Allocate@UPassDesc@Ogre@@@std@@YAPAUPassDesc@Ogre@@IPAU12@@Z 10014810 f i OgreD3D9ShaderManager.obj
 0001:00013860       ??$unchecked_copy@PADPAD@stdext@@YAPADPAD00@Z 10014860 f i OgreD3D9ShaderManager.obj
 0001:000138d0       ??$_Umove@PAD@?$vector@DV?$allocator@D@std@@@std@@IAEPADPAD00@Z 100148d0 f i OgreD3D9ShaderManager.obj
 0001:00013900       ??$fill@PADD@std@@YAXPAD0ABD@Z 10014900 f i OgreD3D9ShaderManager.obj
 0001:00013930       ??$_Unchecked_move_backward@PADPAD@stdext@@YAPADPAD00@Z 10014930 f i OgreD3D9ShaderManager.obj
 0001:000139a0       ??$_Destroy_range@V?$allocator@TShaderEnvKey@Ogre@@@std@@@std@@YAXPATShaderEnvKey@Ogre@@0AAV?$allocator@TShaderEnvKey@Ogre@@@0@@Z 100149a0 f i OgreD3D9ShaderManager.obj
 0001:000139a0       ??$_Destroy_range@V?$allocator@U_D3DDISPLAYMODE@@@std@@@std@@YAXPAU_D3DDISPLAYMODE@@0AAV?$allocator@U_D3DDISPLAYMODE@@@0@@Z 100149a0 f i OgreD3D9DriverEnum.obj
 0001:000139e0       ??$_Unchecked_move_backward@PATShaderEnvKey@Ogre@@PAT12@@stdext@@YAPATShaderEnvKey@Ogre@@PAT12@00@Z 100149e0 f i OgreD3D9ShaderManager.obj
 0001:000139e0       ??$_Unchecked_move_backward@PAU_D3DDISPLAYMODE@@PAU1@@stdext@@YAPAU_D3DDISPLAYMODE@@PAU1@00@Z 100149e0 f i OgreD3D9DriverEnum.obj
 0001:00013a50       ??$unchecked_copy@PAUPassData@D3DShaderTechnique@Ogre@@PAU123@@stdext@@YAPAUPassData@D3DShaderTechnique@Ogre@@PAU123@00@Z 10014a50 f i OgreD3D9ShaderManager.obj
 0001:00013ac0       ??$_Destroy_range@V?$allocator@UPassData@D3DShaderTechnique@Ogre@@@std@@@std@@YAXPAUPassData@D3DShaderTechnique@Ogre@@0AAV?$allocator@UPassData@D3DShaderTechnique@Ogre@@@0@@Z 10014ac0 f i OgreD3D9ShaderManager.obj
 0001:00013b00       ??$_Umove@PAUPassData@D3DShaderTechnique@Ogre@@@?$vector@UPassData@D3DShaderTechnique@Ogre@@V?$allocator@UPassData@D3DShaderTechnique@Ogre@@@std@@@std@@IAEPAUPassData@D3DShaderTechnique@Ogre@@PAU234@00@Z 10014b00 f i OgreD3D9ShaderManager.obj
 0001:00013b30       ??$fill@PAUPassData@D3DShaderTechnique@Ogre@@U123@@std@@YAXPAUPassData@D3DShaderTechnique@Ogre@@0ABU123@@Z 10014b30 f i OgreD3D9ShaderManager.obj
 0001:00013b60       ??$_Unchecked_move_backward@PAUPassData@D3DShaderTechnique@Ogre@@PAU123@@stdext@@YAPAUPassData@D3DShaderTechnique@Ogre@@PAU123@00@Z 10014b60 f i OgreD3D9ShaderManager.obj
 0001:00013bd0       ??$_Allocate@UPassData@D3DShaderTechnique@Ogre@@@std@@YAPAUPassData@D3DShaderTechnique@Ogre@@IPAU123@@Z 10014bd0 f i OgreD3D9ShaderManager.obj
 0001:00013c20       ??$_Destroy_range@V?$allocator@UD3DSMSCONFLICT_T@Ogre@@@std@@@std@@YAXPAUD3DSMSCONFLICT_T@Ogre@@0AAV?$allocator@UD3DSMSCONFLICT_T@Ogre@@@0@@Z 10014c20 f i OgreD3D9DriverEnum.obj
 0001:00013c20       ??$_Destroy_range@V?$allocator@U_D3DXMACRO@@@std@@@std@@YAXPAU_D3DXMACRO@@0AAV?$allocator@U_D3DXMACRO@@@0@@Z 10014c20 f i OgreD3D9ShaderManager.obj
 0001:00013c60       ??$_Umove@PAUD3DSMSCONFLICT_T@Ogre@@@?$vector@UD3DSMSCONFLICT_T@Ogre@@V?$allocator@UD3DSMSCONFLICT_T@Ogre@@@std@@@std@@IAEPAUD3DSMSCONFLICT_T@Ogre@@PAU23@00@Z 10014c60 f i OgreD3D9DriverEnum.obj
 0001:00013c60       ??$_Umove@PAU_D3DXMACRO@@@?$vector@U_D3DXMACRO@@V?$allocator@U_D3DXMACRO@@@std@@@std@@IAEPAU_D3DXMACRO@@PAU2@00@Z 10014c60 f i OgreD3D9ShaderManager.obj
 0001:00013c90       ??$fill@PAU_D3DXMACRO@@U1@@std@@YAXPAU_D3DXMACRO@@0ABU1@@Z 10014c90 f i OgreD3D9ShaderManager.obj
 0001:00013c90       ??$fill@PAUD3DSMSCONFLICT_T@Ogre@@U12@@std@@YAXPAUD3DSMSCONFLICT_T@Ogre@@0ABU12@@Z 10014c90 f i OgreD3D9DriverEnum.obj
 0001:00013cc0       ??$_Allocate@U_D3DXMACRO@@@std@@YAPAU_D3DXMACRO@@IPAU1@@Z 10014cc0 f i OgreD3D9ShaderManager.obj
 0001:00013cc0       ??$_Allocate@UD3DSMSCONFLICT_T@Ogre@@@std@@YAPAUD3DSMSCONFLICT_T@Ogre@@IPAU12@@Z 10014cc0 f i OgreD3D9DriverEnum.obj
 0001:00013d10       ??$unchecked_uninitialized_fill_n@PAUPassDesc@Ogre@@IU12@V?$allocator@UPassDesc@Ogre@@@std@@@stdext@@YAXPAUPassDesc@Ogre@@IABU12@AAV?$allocator@UPassDesc@Ogre@@@std@@@Z 10014d10 f i OgreD3D9ShaderManager.obj
 0001:00013d60       ??$unchecked_uninitialized_fill_n@PADIDV?$allocator@D@std@@@stdext@@YAXPADIABDAAV?$allocator@D@std@@@Z 10014d60 f i OgreD3D9ShaderManager.obj
 0001:00013db0       ??$swap@D@std@@YAXAAD0@Z   10014db0 f i OgreD3D9ShaderManager.obj
 0001:00013de0       ??$unchecked_uninitialized_fill_n@PAUPassData@D3DShaderTechnique@Ogre@@IU123@V?$allocator@UPassData@D3DShaderTechnique@Ogre@@@std@@@stdext@@YAXPAUPassData@D3DShaderTechnique@Ogre@@IABU123@AAV?$allocator@UPassData@D3DShaderTechnique@Ogre@@@std@@@Z 10014de0 f i OgreD3D9ShaderManager.obj
 0001:00013e30       ??$_Uninit_fill_n@PATShaderEnvKey@Ogre@@IT12@V?$allocator@TShaderEnvKey@Ogre@@@std@@@std@@YAXPATShaderEnvKey@Ogre@@IABT12@AAV?$allocator@TShaderEnvKey@Ogre@@@0@U_Nonscalar_ptr_iterator_tag@0@U_Range_checked_iterator_tag@0@@Z 10014e30 f i OgreD3D9ShaderManager.obj
 0001:00013e30       ??$_Uninit_fill_n@PAU_D3DDISPLAYMODE@@IU1@V?$allocator@U_D3DDISPLAYMODE@@@std@@@std@@YAXPAU_D3DDISPLAYMODE@@IABU1@AAV?$allocator@U_D3DDISPLAYMODE@@@0@U_Nonscalar_ptr_iterator_tag@0@U_Range_checked_iterator_tag@0@@Z 10014e30 f i OgreD3D9DriverEnum.obj
 0001:00013ef0       ??$_Uninit_fill_n@PAU_D3DXMACRO@@IU1@V?$allocator@U_D3DXMACRO@@@std@@@std@@YAXPAU_D3DXMACRO@@IABU1@AAV?$allocator@U_D3DXMACRO@@@0@U_Nonscalar_ptr_iterator_tag@0@U_Range_checked_iterator_tag@0@@Z 10014ef0 f i OgreD3D9ShaderManager.obj
 0001:00013ef0       ??$_Uninit_fill_n@PAUD3DSMSCONFLICT_T@Ogre@@IU12@V?$allocator@UD3DSMSCONFLICT_T@Ogre@@@std@@@std@@YAXPAUD3DSMSCONFLICT_T@Ogre@@IABU12@AAV?$allocator@UD3DSMSCONFLICT_T@Ogre@@@0@U_Nonscalar_ptr_iterator_tag@0@U_Range_checked_iterator_tag@0@@Z 10014ef0 f i OgreD3D9DriverEnum.obj
 0001:00013fb0       ??$_Checked_base@PAPAUTechniqueDesc@Ogre@@@std@@YAPAPAUTechniqueDesc@Ogre@@AAPAPAU12@@Z 10014fb0 f i OgreD3D9ShaderManager.obj
 0001:00013fb0       ??$_Checked_base@PAUShaderEnv@Ogre@@@std@@YAPAUShaderEnv@Ogre@@AAPAU12@@Z 10014fb0 f i OgreD3DMaterialTemplate.obj
 0001:00013fb0       ??$_Checked_base@PAU_D3DDISPLAYMODE@@@std@@YAPAU_D3DDISPLAYMODE@@AAPAU1@@Z 10014fb0 f i OgreD3D9DriverEnum.obj
 0001:00013fb0       ??$_Checked_base@PAW4VERTPROCESS_T@Ogre@@@std@@YAPAW4VERTPROCESS_T@Ogre@@AAPAW412@@Z 10014fb0 f i OgreD3D9DriverEnum.obj
 0001:00013fb0       ??$_Checked_base@PAUPassDesc@Ogre@@@std@@YAPAUPassDesc@Ogre@@AAPAU12@@Z 10014fb0 f i OgreD3D9ShaderManager.obj
 0001:00013fb0       ??$_Checked_base@PAPAVD3DRenderWindow@Ogre@@@std@@YAPAPAVD3DRenderWindow@Ogre@@AAPAPAV12@@Z 10014fb0 f i OgreD3D9RenderSystem.obj
 0001:00013fb0       ??$_Checked_base@PAUDSBuffer@D3D9HardwarePixelBufferManager@Ogre@@@std@@YAPAUDSBuffer@D3D9HardwarePixelBufferManager@Ogre@@AAPAU123@@Z 10014fb0 f i OgreD3D9HardwarePixelBuffer.obj
 0001:00013fb0       ??$_Checked_base@PAPAUD3DADAPTER_T@Ogre@@@std@@YAPAPAUD3DADAPTER_T@Ogre@@AAPAPAU12@@Z 10014fb0 f i OgreD3D9DriverEnum.obj
 0001:00013fb0       ??$_Checked_base@PAPAVCompiledShader@Ogre@@@std@@YAPAPAVCompiledShader@Ogre@@AAPAPAV12@@Z 10014fb0 f i OgreD3D9ShaderManager.obj
 0001:00013fb0       ??$_Checked_base@PAUPassData@D3DShaderTechnique@Ogre@@@std@@YAPAUPassData@D3DShaderTechnique@Ogre@@AAPAU123@@Z 10014fb0 f i OgreD3D9ShaderManager.obj
 0001:00013fb0       ??$_Checked_base@PAU_D3DXMACRO@@@std@@YAPAU_D3DXMACRO@@AAPAU1@@Z 10014fb0 f i OgreD3D9ShaderManager.obj
 0001:00013fb0       ??$_Checked_base@PAD@std@@YAPADAAPAD@Z 10014fb0 f i OgreD3D9ShaderManager.obj
 0001:00013fb0       ??$_Checked_base@PAI@std@@YAPAIAAPAI@Z 10014fb0 f i OgreD3D9DriverEnum.obj
 0001:00013fb0       ??$_Checked_base@PAW4_D3DMULTISAMPLE_TYPE@@@std@@YAPAW4_D3DMULTISAMPLE_TYPE@@AAPAW41@@Z 10014fb0 f i OgreD3D9DriverEnum.obj
 0001:00013fb0       ??$_Checked_base@PAUD3DSMSCONFLICT_T@Ogre@@@std@@YAPAUD3DSMSCONFLICT_T@Ogre@@AAPAU12@@Z 10014fb0 f i OgreD3D9DriverEnum.obj
 0001:00013fb0       ??$_Checked_base@PAPAVD3D9TextureRenderTarget@Ogre@@@std@@YAPAPAVD3D9TextureRenderTarget@Ogre@@AAPAPAV12@@Z 10014fb0 f i OgreD3D9HardwarePixelBuffer.obj
 0001:00013fb0       ??$_Checked_base@PAPAUD3DDEVCOMBO_T@Ogre@@@std@@YAPAPAUD3DDEVCOMBO_T@Ogre@@AAPAPAU12@@Z 10014fb0 f i OgreD3D9DriverEnum.obj
 0001:00013fb0       ??$_Checked_base@PATShaderEnvKey@Ogre@@@std@@YAPATShaderEnvKey@Ogre@@AAPAT12@@Z 10014fb0 f i OgreD3D9ShaderManager.obj
 0001:00013fb0       ??$_Checked_base@PAPAUD3DDEVICEINFO_T@Ogre@@@std@@YAPAPAUD3DDEVICEINFO_T@Ogre@@AAPAPAU12@@Z 10014fb0 f i OgreD3D9DriverEnum.obj
 0001:00013fb0       ??$_Checked_base@PAPAUTechCache@D3DMaterialTemplate@Ogre@@@std@@YAPAPAUTechCache@D3DMaterialTemplate@Ogre@@AAPAPAU123@@Z 10014fb0 f i OgreD3DMaterialTemplate.obj
 0001:00013fb0       ??$_Checked_base@PAW4_D3DFORMAT@@@std@@YAPAW4_D3DFORMAT@@AAPAW41@@Z 10014fb0 f i OgreD3D9DriverEnum.obj
 0001:00013fb0       ??$_Checked_base@PAPAVD3D9VertexDecl@Ogre@@@std@@YAPAPAVD3D9VertexDecl@Ogre@@AAPAPAV12@@Z 10014fb0 f i OgreD3D9RenderSystem.obj
 0001:00013fb0       ??$_Checked_base@PAURTBuffer@D3D9HardwarePixelBufferManager@Ogre@@@std@@YAPAURTBuffer@D3D9HardwarePixelBufferManager@Ogre@@AAPAU123@@Z 10014fb0 f i OgreD3D9HardwarePixelBuffer.obj
 0001:00013fd0       ??$_Copy_opt@PAUPassDesc@Ogre@@PAU12@@std@@YAPAUPassDesc@Ogre@@PAU12@00Urandom_access_iterator_tag@0@U_Nonscalar_ptr_iterator_tag@0@U_Range_checked_iterator_tag@0@@Z 10014fd0 f i OgreD3D9ShaderManager.obj
 0001:00014030       ??$_Destroy_range@V?$allocator@UPassDesc@Ogre@@@std@@@std@@YAXPAUPassDesc@Ogre@@0AAV?$allocator@UPassDesc@Ogre@@@0@U_Nonscalar_ptr_iterator_tag@0@@Z 10015030 f i OgreD3D9ShaderManager.obj
 0001:00014060       ??$_Unchecked_uninitialized_move@PAUPassDesc@Ogre@@PAU12@V?$allocator@UPassDesc@Ogre@@@std@@@stdext@@YAPAUPassDesc@Ogre@@PAU12@00AAV?$allocator@UPassDesc@Ogre@@@std@@@Z 10015060 f i OgreD3D9ShaderManager.obj
 0001:000140b0       ??$_Fill@PAUPassDesc@Ogre@@U12@@std@@YAXPAUPassDesc@Ogre@@0ABU12@@Z 100150b0 f i OgreD3D9ShaderManager.obj
 0001:000140e0       ??$_Move_backward_opt@PAUPassDesc@Ogre@@PAU12@Urandom_access_iterator_tag@std@@U_Undefined_move_tag@4@@std@@YAPAUPassDesc@Ogre@@PAU12@00Urandom_access_iterator_tag@0@U_Undefined_move_tag@0@U_Range_checked_iterator_tag@0@@Z 100150e0 f i OgreD3D9ShaderManager.obj
 0001:00014130       ??$_Copy_opt@PADPADUrandom_access_iterator_tag@std@@@std@@YAPADPAD00Urandom_access_iterator_tag@0@U_Scalar_ptr_iterator_tag@0@U_Range_checked_iterator_tag@0@@Z 10015130 f i OgreD3D9ShaderManager.obj
 0001:00014170       ??$_Unchecked_uninitialized_move@PADPADV?$allocator@D@std@@@stdext@@YAPADPAD00AAV?$allocator@D@std@@@Z 10015170 f i OgreD3D9ShaderManager.obj
 0001:000141c0       ??$_Fill@PADD@std@@YAXPAD0ABD@Z 100151c0 f i OgreD3D9ShaderManager.obj
 0001:000141f0       ??$_Move_backward_opt@PADPADUrandom_access_iterator_tag@std@@U_Undefined_move_tag@2@@std@@YAPADPAD00Urandom_access_iterator_tag@0@U_Undefined_move_tag@0@U_Range_checked_iterator_tag@0@@Z 100151f0 f i OgreD3D9ShaderManager.obj
 0001:00014240       ??$_Destroy_range@V?$allocator@TShaderEnvKey@Ogre@@@std@@@std@@YAXPATShaderEnvKey@Ogre@@0AAV?$allocator@TShaderEnvKey@Ogre@@@0@U_Nonscalar_ptr_iterator_tag@0@@Z 10015240 f i OgreD3D9ShaderManager.obj
 0001:00014240       ??$_Destroy_range@V?$allocator@U_D3DDISPLAYMODE@@@std@@@std@@YAXPAU_D3DDISPLAYMODE@@0AAV?$allocator@U_D3DDISPLAYMODE@@@0@U_Nonscalar_ptr_iterator_tag@0@@Z 10015240 f i OgreD3D9DriverEnum.obj
 0001:00014270       ??$_Move_backward_opt@PATShaderEnvKey@Ogre@@PAT12@Urandom_access_iterator_tag@std@@U_Undefined_move_tag@4@@std@@YAPATShaderEnvKey@Ogre@@PAT12@00Urandom_access_iterator_tag@0@U_Undefined_move_tag@0@U_Range_checked_iterator_tag@0@@Z 10015270 f i OgreD3D9ShaderManager.obj
 0001:00014270       ??$_Move_backward_opt@PAU_D3DDISPLAYMODE@@PAU1@Urandom_access_iterator_tag@std@@U_Undefined_move_tag@3@@std@@YAPAU_D3DDISPLAYMODE@@PAU1@00Urandom_access_iterator_tag@0@U_Undefined_move_tag@0@U_Range_checked_iterator_tag@0@@Z 10015270 f i OgreD3D9DriverEnum.obj
 0001:000142c0       ??$_Copy_opt@PAUPassData@D3DShaderTechnique@Ogre@@PAU123@@std@@YAPAUPassData@D3DShaderTechnique@Ogre@@PAU123@00Urandom_access_iterator_tag@0@U_Nonscalar_ptr_iterator_tag@0@U_Range_checked_iterator_tag@0@@Z 100152c0 f i OgreD3D9ShaderManager.obj
 0001:00014320       ??$_Destroy_range@V?$allocator@UPassData@D3DShaderTechnique@Ogre@@@std@@@std@@YAXPAUPassData@D3DShaderTechnique@Ogre@@0AAV?$allocator@UPassData@D3DShaderTechnique@Ogre@@@0@U_Nonscalar_ptr_iterator_tag@0@@Z 10015320 f i OgreD3D9ShaderManager.obj
 0001:00014350       ??$_Unchecked_uninitialized_move@PAUPassData@D3DShaderTechnique@Ogre@@PAU123@V?$allocator@UPassData@D3DShaderTechnique@Ogre@@@std@@@stdext@@YAPAUPassData@D3DShaderTechnique@Ogre@@PAU123@00AAV?$allocator@UPassData@D3DShaderTechnique@Ogre@@@std@@@Z 10015350 f i OgreD3D9ShaderManager.obj
 0001:000143a0       ??$_Fill@PAUPassData@D3DShaderTechnique@Ogre@@U123@@std@@YAXPAUPassData@D3DShaderTechnique@Ogre@@0ABU123@@Z 100153a0 f i OgreD3D9ShaderManager.obj
 0001:000143d0       ??$_Move_backward_opt@PAUPassData@D3DShaderTechnique@Ogre@@PAU123@Urandom_access_iterator_tag@std@@U_Undefined_move_tag@5@@std@@YAPAUPassData@D3DShaderTechnique@Ogre@@PAU123@00Urandom_access_iterator_tag@0@U_Undefined_move_tag@0@U_Range_checked_iterator_tag@0@@Z 100153d0 f i OgreD3D9ShaderManager.obj
 0001:00014420       ??$_Destroy_range@V?$allocator@U_D3DXMACRO@@@std@@@std@@YAXPAU_D3DXMACRO@@0AAV?$allocator@U_D3DXMACRO@@@0@U_Nonscalar_ptr_iterator_tag@0@@Z 10015420 f i OgreD3D9ShaderManager.obj
 0001:00014420       ??$_Destroy_range@V?$allocator@UD3DSMSCONFLICT_T@Ogre@@@std@@@std@@YAXPAUD3DSMSCONFLICT_T@Ogre@@0AAV?$allocator@UD3DSMSCONFLICT_T@Ogre@@@0@U_Nonscalar_ptr_iterator_tag@0@@Z 10015420 f i OgreD3D9DriverEnum.obj
 0001:00014450       ??$_Unchecked_uninitialized_move@PAU_D3DXMACRO@@PAU1@V?$allocator@U_D3DXMACRO@@@std@@@stdext@@YAPAU_D3DXMACRO@@PAU1@00AAV?$allocator@U_D3DXMACRO@@@std@@@Z 10015450 f i OgreD3D9ShaderManager.obj
 0001:00014450       ??$_Unchecked_uninitialized_move@PAUD3DSMSCONFLICT_T@Ogre@@PAU12@V?$allocator@UD3DSMSCONFLICT_T@Ogre@@@std@@@stdext@@YAPAUD3DSMSCONFLICT_T@Ogre@@PAU12@00AAV?$allocator@UD3DSMSCONFLICT_T@Ogre@@@std@@@Z 10015450 f i OgreD3D9DriverEnum.obj
 0001:000144a0       ??$_Fill@PAUD3DSMSCONFLICT_T@Ogre@@U12@@std@@YAXPAUD3DSMSCONFLICT_T@Ogre@@0ABU12@@Z 100154a0 f i OgreD3D9DriverEnum.obj
 0001:000144a0       ??$_Fill@PAU_D3DXMACRO@@U1@@std@@YAXPAU_D3DXMACRO@@0ABU1@@Z 100154a0 f i OgreD3D9ShaderManager.obj
 0001:000144d0       ??$_Move_backward_opt@PAUD3DSMSCONFLICT_T@Ogre@@PAU12@Urandom_access_iterator_tag@std@@U_Undefined_move_tag@4@@std@@YAPAUD3DSMSCONFLICT_T@Ogre@@PAU12@00Urandom_access_iterator_tag@0@U_Undefined_move_tag@0@U_Range_checked_iterator_tag@0@@Z 100154d0 f i OgreD3D9DriverEnum.obj
 0001:000144d0       ??$_Move_backward_opt@PAU_D3DXMACRO@@PAU1@Urandom_access_iterator_tag@std@@U_Undefined_move_tag@3@@std@@YAPAU_D3DXMACRO@@PAU1@00Urandom_access_iterator_tag@0@U_Undefined_move_tag@0@U_Range_checked_iterator_tag@0@@Z 100154d0 f i OgreD3D9ShaderManager.obj
 0001:00014520       ??$_Uninit_fill_n@PAUPassDesc@Ogre@@IU12@V?$allocator@UPassDesc@Ogre@@@std@@@std@@YAXPAUPassDesc@Ogre@@IABU12@AAV?$allocator@UPassDesc@Ogre@@@0@U_Nonscalar_ptr_iterator_tag@0@U_Range_checked_iterator_tag@0@@Z 10015520 f i OgreD3D9ShaderManager.obj
 0001:000145e0       ??$_Uninit_fill_n@PADIDV?$allocator@D@std@@@std@@YAXPADIABDAAV?$allocator@D@0@U_Scalar_ptr_iterator_tag@0@U_Range_checked_iterator_tag@0@@Z 100155e0 f i OgreD3D9ShaderManager.obj
 0001:00014600       ??$_Uninit_fill_n@PAUPassData@D3DShaderTechnique@Ogre@@IU123@V?$allocator@UPassData@D3DShaderTechnique@Ogre@@@std@@@std@@YAXPAUPassData@D3DShaderTechnique@Ogre@@IABU123@AAV?$allocator@UPassData@D3DShaderTechnique@Ogre@@@0@U_Nonscalar_ptr_iterator_tag@0@U_Range_checked_iterator_tag@0@@Z 10015600 f i OgreD3D9ShaderManager.obj
 0001:000146c0       ?construct@?$allocator@TShaderEnvKey@Ogre@@@std@@QAEXPATShaderEnvKey@Ogre@@ABT34@@Z 100156c0 f i OgreD3D9ShaderManager.obj
 0001:000146c0       ?construct@?$allocator@U_D3DDISPLAYMODE@@@std@@QAEXPAU_D3DDISPLAYMODE@@ABU3@@Z 100156c0 f i OgreD3D9DriverEnum.obj
 0001:000146e0       ?destroy@?$allocator@UShaderEnv@Ogre@@@std@@QAEXPAUShaderEnv@Ogre@@@Z 100156e0 f i OgreD3DMaterialTemplate.obj
 0001:000146e0       ?destroy@?$allocator@PAU_Node@?$_Tree_nod@V?$_Tmap_traits@TShaderEnvKey@Ogre@@PAVCompiledShader@2@U?$less@TShaderEnvKey@Ogre@@@std@@V?$allocator@U?$pair@$$CBTShaderEnvKey@Ogre@@PAVCompiledShader@2@@std@@@5@$0A@@std@@@std@@@std@@QAEXPAPAU_Node@?$_Tree_nod@V?$_Tmap_traits@TShaderEnvKey@Ogre@@PAVCompiledShader@2@U?$less@TShaderEnvKey@Ogre@@@std@@V?$allocator@U?$pair@$$CBTShaderEnvKey@Ogre@@PAVCompiledShader@2@@std@@@5@$0A@@std@@@2@@Z 100156e0 f i OgreD3D9ShaderManager.obj
 0001:000146e0       ?destroy@?$allocator@UDSBuffer@D3D9HardwarePixelBufferManager@Ogre@@@std@@QAEXPAUDSBuffer@D3D9HardwarePixelBufferManager@Ogre@@@Z 100156e0 f i OgreD3D9HardwarePixelBuffer.obj
 0001:000146e0       ?destroy@?$allocator@U_Node@?$_Tree_nod@V?$_Tmap_traits@TShaderEnvKey@Ogre@@PAVCompiledShader@2@U?$less@TShaderEnvKey@Ogre@@@std@@V?$allocator@U?$pair@$$CBTShaderEnvKey@Ogre@@PAVCompiledShader@2@@std@@@5@$0A@@std@@@std@@@std@@QAEXPAU_Node@?$_Tree_nod@V?$_Tmap_traits@TShaderEnvKey@Ogre@@PAVCompiledShader@2@U?$less@TShaderEnvKey@Ogre@@@std@@V?$allocator@U?$pair@$$CBTShaderEnvKey@Ogre@@PAVCompiledShader@2@@std@@@5@$0A@@std@@@2@@Z 100156e0 f i OgreD3D9ShaderManager.obj
 0001:000146e0       ?destroy@?$allocator@W4_D3DFORMAT@@@std@@QAEXPAW4_D3DFORMAT@@@Z 100156e0 f i OgreD3D9DriverEnum.obj
 0001:000146e0       ?destroy@?$allocator@TShaderEnvKey@Ogre@@@std@@QAEXPATShaderEnvKey@Ogre@@@Z 100156e0 f i OgreD3D9ShaderManager.obj
 0001:000146e0       ?destroy@?$allocator@W4VERTPROCESS_T@Ogre@@@std@@QAEXPAW4VERTPROCESS_T@Ogre@@@Z 100156e0 f i OgreD3D9DriverEnum.obj
 0001:000146e0       ?destroy@?$allocator@PAU_Node@?$_Tree_nod@V?$_Tmap_traits@TShaderEnvKey2@Ogre@@PAVD3DShaderTechnique@2@U?$less@TShaderEnvKey2@Ogre@@@std@@V?$allocator@U?$pair@$$CBTShaderEnvKey2@Ogre@@PAVD3DShaderTechnique@2@@std@@@5@$0A@@std@@@std@@@std@@QAEXPAPAU_Node@?$_Tree_nod@V?$_Tmap_traits@TShaderEnvKey2@Ogre@@PAVD3DShaderTechnique@2@U?$less@TShaderEnvKey2@Ogre@@@std@@V?$allocator@U?$pair@$$CBTShaderEnvKey2@Ogre@@PAVD3DShaderTechnique@2@@std@@@5@$0A@@std@@@2@@Z 100156e0 f i OgreD3DMaterialTemplate.obj
 0001:000146e0       ?destroy@?$allocator@PAU_Node@?$_Tree_nod@V?$_Tmap_traits@TShaderEnvKey@Ogre@@PAVD3DTech@2@U?$less@TShaderEnvKey@Ogre@@@std@@V?$allocator@U?$pair@$$CBTShaderEnvKey@Ogre@@PAVD3DTech@2@@std@@@5@$0A@@std@@@std@@@std@@QAEXPAPAU_Node@?$_Tree_nod@V?$_Tmap_traits@TShaderEnvKey@Ogre@@PAVD3DTech@2@U?$less@TShaderEnvKey@Ogre@@@std@@V?$allocator@U?$pair@$$CBTShaderEnvKey@Ogre@@PAVD3DTech@2@@std@@@5@$0A@@std@@@2@@Z 100156e0 f i OgreD3DMaterialTemplate.obj
 0001:000146e0       ?destroy@?$allocator@PAU_Node@?$_Tree_nod@V?$_Tmap_traits@VFixedString@Ogre@@PAVCompiledShaderGroup@2@U?$less@VFixedString@Ogre@@@std@@V?$allocator@U?$pair@$$CBVFixedString@Ogre@@PAVCompiledShaderGroup@2@@std@@@5@$0A@@std@@@std@@@std@@QAEXPAPAU_Node@?$_Tree_nod@V?$_Tmap_traits@VFixedString@Ogre@@PAVCompiledShaderGroup@2@U?$less@VFixedString@Ogre@@@std@@V?$allocator@U?$pair@$$CBVFixedString@Ogre@@PAVCompiledShaderGroup@2@@std@@@5@$0A@@std@@@2@@Z 100156e0 f i OgreD3DMaterialTemplate.obj
 0001:000146e0       ?destroy@?$allocator@U_D3DXMACRO@@@std@@QAEXPAU_D3DXMACRO@@@Z 100156e0 f i OgreD3D9ShaderManager.obj
 0001:000146e0       ?destroy@?$allocator@URTBuffer@D3D9HardwarePixelBufferManager@Ogre@@@std@@QAEXPAURTBuffer@D3D9HardwarePixelBufferManager@Ogre@@@Z 100156e0 f i OgreD3D9HardwarePixelBuffer.obj
 0001:000146e0       ?destroy@?$allocator@W4_D3DMULTISAMPLE_TYPE@@@std@@QAEXPAW4_D3DMULTISAMPLE_TYPE@@@Z 100156e0 f i OgreD3D9DriverEnum.obj
 0001:000146e0       ?destroy@?$allocator@UPassDesc@Ogre@@@std@@QAEXPAUPassDesc@Ogre@@@Z 100156e0 f i OgreD3D9ShaderManager.obj
 0001:000146e0       ?destroy@?$allocator@U_Node@?$_Tree_nod@V?$_Tmap_traits@TShaderEnvKey@Ogre@@PAVD3DTech@2@U?$less@TShaderEnvKey@Ogre@@@std@@V?$allocator@U?$pair@$$CBTShaderEnvKey@Ogre@@PAVD3DTech@2@@std@@@5@$0A@@std@@@std@@@std@@QAEXPAU_Node@?$_Tree_nod@V?$_Tmap_traits@TShaderEnvKey@Ogre@@PAVD3DTech@2@U?$less@TShaderEnvKey@Ogre@@@std@@V?$allocator@U?$pair@$$CBTShaderEnvKey@Ogre@@PAVD3DTech@2@@std@@@5@$0A@@std@@@2@@Z 100156e0 f i OgreD3DMaterialTemplate.obj
 0001:000146e0       ?destroy@?$allocator@UPassData@D3DShaderTechnique@Ogre@@@std@@QAEXPAUPassData@D3DShaderTechnique@Ogre@@@Z 100156e0 f i OgreD3D9ShaderManager.obj
 0001:000146e0       ?destroy@?$allocator@UD3DSMSCONFLICT_T@Ogre@@@std@@QAEXPAUD3DSMSCONFLICT_T@Ogre@@@Z 100156e0 f i OgreD3D9DriverEnum.obj
 0001:000146e0       ?destroy@?$allocator@U_Node@?$_Tree_nod@V?$_Tmap_traits@TShaderEnvKey2@Ogre@@PAVD3DShaderTechnique@2@U?$less@TShaderEnvKey2@Ogre@@@std@@V?$allocator@U?$pair@$$CBTShaderEnvKey2@Ogre@@PAVD3DShaderTechnique@2@@std@@@5@$0A@@std@@@std@@@std@@QAEXPAU_Node@?$_Tree_nod@V?$_Tmap_traits@TShaderEnvKey2@Ogre@@PAVD3DShaderTechnique@2@U?$less@TShaderEnvKey2@Ogre@@@std@@V?$allocator@U?$pair@$$CBTShaderEnvKey2@Ogre@@PAVD3DShaderTechnique@2@@std@@@5@$0A@@std@@@2@@Z 100156e0 f i OgreD3DMaterialTemplate.obj
 0001:000146e0       ?destroy@?$allocator@U_D3DDISPLAYMODE@@@std@@QAEXPAU_D3DDISPLAYMODE@@@Z 100156e0 f i OgreD3D9DriverEnum.obj
 0001:00014700       ?construct@?$allocator@UPassDesc@Ogre@@@std@@QAEXPAUPassDesc@Ogre@@ABU34@@Z 10015700 f i OgreD3D9ShaderManager.obj
 0001:00014720       ?construct@?$allocator@UPassData@D3DShaderTechnique@Ogre@@@std@@QAEXPAUPassData@D3DShaderTechnique@Ogre@@ABU345@@Z 10015720 f i OgreD3D9ShaderManager.obj
 0001:00014740       ??$_Copy_opt@PAUPassDesc@Ogre@@PAU12@Uforward_iterator_tag@std@@@std@@YAPAUPassDesc@Ogre@@PAU12@00Uforward_iterator_tag@0@U_Nonscalar_ptr_iterator_tag@0@U_Range_checked_iterator_tag@0@@Z 10015740 f i OgreD3D9ShaderManager.obj
 0001:00014780       ??$_Uninit_move@PAUPassDesc@Ogre@@PAU12@V?$allocator@UPassDesc@Ogre@@@std@@U_Undefined_move_tag@4@@std@@YAPAUPassDesc@Ogre@@PAU12@00AAV?$allocator@UPassDesc@Ogre@@@0@U_Undefined_move_tag@0@U_Range_checked_iterator_tag@0@@Z 10015780 f i OgreD3D9ShaderManager.obj
 0001:000147a0       ??$_Copy_backward_opt@PAUPassDesc@Ogre@@PAU12@@std@@YAPAUPassDesc@Ogre@@PAU12@00Urandom_access_iterator_tag@0@U_Nonscalar_ptr_iterator_tag@0@U_Range_checked_iterator_tag@0@@Z 100157a0 f i OgreD3D9ShaderManager.obj
 0001:00014800       ??$_Uninit_move@PADPADV?$allocator@D@std@@U_Undefined_move_tag@2@@std@@YAPADPAD00AAV?$allocator@D@0@U_Undefined_move_tag@0@U_Range_checked_iterator_tag@0@@Z 10015800 f i OgreD3D9ShaderManager.obj
 0001:00014820       ??$_Copy_backward_opt@PADPADUrandom_access_iterator_tag@std@@@std@@YAPADPAD00Urandom_access_iterator_tag@0@U_Scalar_ptr_iterator_tag@0@U_Range_checked_iterator_tag@0@@Z 10015820 f i OgreD3D9ShaderManager.obj
 0001:00014860       ??$_Copy_backward_opt@PATShaderEnvKey@Ogre@@PAT12@@std@@YAPATShaderEnvKey@Ogre@@PAT12@00Urandom_access_iterator_tag@0@U_Nonscalar_ptr_iterator_tag@0@U_Range_checked_iterator_tag@0@@Z 10015860 f i OgreD3D9ShaderManager.obj
 0001:00014860       ??$_Copy_backward_opt@PAU_D3DDISPLAYMODE@@PAU1@@std@@YAPAU_D3DDISPLAYMODE@@PAU1@00Urandom_access_iterator_tag@0@U_Nonscalar_ptr_iterator_tag@0@U_Range_checked_iterator_tag@0@@Z 10015860 f i OgreD3D9DriverEnum.obj
 0001:000148c0       ??$_Checked_base@PAUDSBuffer@D3D9HardwarePixelBufferManager@Ogre@@@std@@YAPAUDSBuffer@D3D9HardwarePixelBufferManager@Ogre@@AAPAU123@U_Unchanged_checked_iterator_base_type_tag@0@@Z 100158c0 f i OgreD3D9HardwarePixelBuffer.obj
 0001:000148c0       ??$_Checked_base@PAW4_D3DMULTISAMPLE_TYPE@@@std@@YAPAW4_D3DMULTISAMPLE_TYPE@@AAPAW41@U_Unchanged_checked_iterator_base_type_tag@0@@Z 100158c0 f i OgreD3D9DriverEnum.obj
 0001:000148c0       ??$_Checked_base@PAW4VERTPROCESS_T@Ogre@@@std@@YAPAW4VERTPROCESS_T@Ogre@@AAPAW412@U_Unchanged_checked_iterator_base_type_tag@0@@Z 100158c0 f i OgreD3D9DriverEnum.obj
 0001:000148c0       ??$_Checked_base@PAPAUD3DDEVCOMBO_T@Ogre@@@std@@YAPAPAUD3DDEVCOMBO_T@Ogre@@AAPAPAU12@U_Unchanged_checked_iterator_base_type_tag@0@@Z 100158c0 f i OgreD3D9DriverEnum.obj
 0001:000148c0       ??$_Checked_base@PAI@std@@YAPAIAAPAIU_Unchanged_checked_iterator_base_type_tag@0@@Z 100158c0 f i OgreD3D9DriverEnum.obj
 0001:000148c0       ??$_Checked_base@PAPAVD3DRenderWindow@Ogre@@@std@@YAPAPAVD3DRenderWindow@Ogre@@AAPAPAV12@U_Unchanged_checked_iterator_base_type_tag@0@@Z 100158c0 f i OgreD3D9RenderSystem.obj
 0001:000148c0       ??$_Checked_base@PAPAVCompiledShader@Ogre@@@std@@YAPAPAVCompiledShader@Ogre@@AAPAPAV12@U_Unchanged_checked_iterator_base_type_tag@0@@Z 100158c0 f i OgreD3D9ShaderManager.obj
 0001:000148c0       ??$_Checked_base@PAUPassDesc@Ogre@@@std@@YAPAUPassDesc@Ogre@@AAPAU12@U_Unchanged_checked_iterator_base_type_tag@0@@Z 100158c0 f i OgreD3D9ShaderManager.obj
 0001:000148c0       ??$_Checked_base@PAW4_D3DFORMAT@@@std@@YAPAW4_D3DFORMAT@@AAPAW41@U_Unchanged_checked_iterator_base_type_tag@0@@Z 100158c0 f i OgreD3D9DriverEnum.obj
 0001:000148c0       ??$_Checked_base@PAUPassData@D3DShaderTechnique@Ogre@@@std@@YAPAUPassData@D3DShaderTechnique@Ogre@@AAPAU123@U_Unchanged_checked_iterator_base_type_tag@0@@Z 100158c0 f i OgreD3D9ShaderManager.obj
 0001:000148c0       ??$_Checked_base@PAU_D3DXMACRO@@@std@@YAPAU_D3DXMACRO@@AAPAU1@U_Unchanged_checked_iterator_base_type_tag@0@@Z 100158c0 f i OgreD3D9ShaderManager.obj
 0001:000148c0       ??$_Checked_base@PATShaderEnvKey@Ogre@@@std@@YAPATShaderEnvKey@Ogre@@AAPAT12@U_Unchanged_checked_iterator_base_type_tag@0@@Z 100158c0 f i OgreD3D9ShaderManager.obj
 0001:000148c0       ??$_Checked_base@PAPAVD3D9VertexDecl@Ogre@@@std@@YAPAPAVD3D9VertexDecl@Ogre@@AAPAPAV12@U_Unchanged_checked_iterator_base_type_tag@0@@Z 100158c0 f i OgreD3D9RenderSystem.obj
 0001:000148c0       ??$_Checked_base@PAPAUD3DDEVICEINFO_T@Ogre@@@std@@YAPAPAUD3DDEVICEINFO_T@Ogre@@AAPAPAU12@U_Unchanged_checked_iterator_base_type_tag@0@@Z 100158c0 f i OgreD3D9DriverEnum.obj
 0001:000148c0       ??$_Checked_base@PAPAUD3DADAPTER_T@Ogre@@@std@@YAPAPAUD3DADAPTER_T@Ogre@@AAPAPAU12@U_Unchanged_checked_iterator_base_type_tag@0@@Z 100158c0 f i OgreD3D9DriverEnum.obj
 0001:000148c0       ??$_Checked_base@PAUShaderEnv@Ogre@@@std@@YAPAUShaderEnv@Ogre@@AAPAU12@U_Unchanged_checked_iterator_base_type_tag@0@@Z 100158c0 f i OgreD3DMaterialTemplate.obj
 0001:000148c0       ??$_Checked_base@PAPAUTechniqueDesc@Ogre@@@std@@YAPAPAUTechniqueDesc@Ogre@@AAPAPAU12@U_Unchanged_checked_iterator_base_type_tag@0@@Z 100158c0 f i OgreD3D9ShaderManager.obj
 0001:000148c0       ??$_Checked_base@PAU_D3DDISPLAYMODE@@@std@@YAPAU_D3DDISPLAYMODE@@AAPAU1@U_Unchanged_checked_iterator_base_type_tag@0@@Z 100158c0 f i OgreD3D9DriverEnum.obj
 0001:000148c0       ??$_Checked_base@PAURTBuffer@D3D9HardwarePixelBufferManager@Ogre@@@std@@YAPAURTBuffer@D3D9HardwarePixelBufferManager@Ogre@@AAPAU123@U_Unchanged_checked_iterator_base_type_tag@0@@Z 100158c0 f i OgreD3D9HardwarePixelBuffer.obj
 0001:000148c0       ??$_Checked_base@PAPAUTechCache@D3DMaterialTemplate@Ogre@@@std@@YAPAPAUTechCache@D3DMaterialTemplate@Ogre@@AAPAPAU123@U_Unchanged_checked_iterator_base_type_tag@0@@Z 100158c0 f i OgreD3DMaterialTemplate.obj
 0001:000148c0       ??$_Checked_base@PAUD3DSMSCONFLICT_T@Ogre@@@std@@YAPAUD3DSMSCONFLICT_T@Ogre@@AAPAU12@U_Unchanged_checked_iterator_base_type_tag@0@@Z 100158c0 f i OgreD3D9DriverEnum.obj
 0001:000148c0       ??$_Checked_base@PAPAVD3D9TextureRenderTarget@Ogre@@@std@@YAPAPAVD3D9TextureRenderTarget@Ogre@@AAPAPAV12@U_Unchanged_checked_iterator_base_type_tag@0@@Z 100158c0 f i OgreD3D9HardwarePixelBuffer.obj
 0001:000148c0       ??$_Checked_base@PAD@std@@YAPADAAPADU_Unchanged_checked_iterator_base_type_tag@0@@Z 100158c0 f i OgreD3D9ShaderManager.obj
 0001:000148d0       ??$_Copy_opt@PAUPassData@D3DShaderTechnique@Ogre@@PAU123@Uforward_iterator_tag@std@@@std@@YAPAUPassData@D3DShaderTechnique@Ogre@@PAU123@00Uforward_iterator_tag@0@U_Nonscalar_ptr_iterator_tag@0@U_Range_checked_iterator_tag@0@@Z 100158d0 f i OgreD3D9ShaderManager.obj
 0001:00014910       ??$_Uninit_move@PAUPassData@D3DShaderTechnique@Ogre@@PAU123@V?$allocator@UPassData@D3DShaderTechnique@Ogre@@@std@@U_Undefined_move_tag@5@@std@@YAPAUPassData@D3DShaderTechnique@Ogre@@PAU123@00AAV?$allocator@UPassData@D3DShaderTechnique@Ogre@@@0@U_Undefined_move_tag@0@U_Range_checked_iterator_tag@0@@Z 10015910 f i OgreD3D9ShaderManager.obj
 0001:00014930       ??$_Copy_backward_opt@PAUPassData@D3DShaderTechnique@Ogre@@PAU123@@std@@YAPAUPassData@D3DShaderTechnique@Ogre@@PAU123@00Urandom_access_iterator_tag@0@U_Nonscalar_ptr_iterator_tag@0@U_Range_checked_iterator_tag@0@@Z 10015930 f i OgreD3D9ShaderManager.obj
 0001:00014990       ??$_Copy_backward_opt@PAU_D3DXMACRO@@PAU1@@std@@YAPAU_D3DXMACRO@@PAU1@00Urandom_access_iterator_tag@0@U_Nonscalar_ptr_iterator_tag@0@U_Range_checked_iterator_tag@0@@Z 10015990 f i OgreD3D9ShaderManager.obj
 0001:00014990       ??$_Copy_backward_opt@PAUD3DSMSCONFLICT_T@Ogre@@PAU12@@std@@YAPAUD3DSMSCONFLICT_T@Ogre@@PAU12@00Urandom_access_iterator_tag@0@U_Nonscalar_ptr_iterator_tag@0@U_Range_checked_iterator_tag@0@@Z 10015990 f i OgreD3D9DriverEnum.obj
 0001:000149f0       ??$unchecked_fill_n@PADID@stdext@@YAXPADIABD@Z 100159f0 f i OgreD3D9ShaderManager.obj
 0001:00014a30       ??$_Construct@TShaderEnvKey@Ogre@@T12@@std@@YAXPATShaderEnvKey@Ogre@@ABT12@@Z 10015a30 f i OgreD3D9ShaderManager.obj
 0001:00014a30       ??$_Construct@U_D3DDISPLAYMODE@@U1@@std@@YAXPAU_D3DDISPLAYMODE@@ABU1@@Z 10015a30 f i OgreD3D9DriverEnum.obj
 0001:00014a90       ??$_Construct@UPassDesc@Ogre@@U12@@std@@YAXPAUPassDesc@Ogre@@ABU12@@Z 10015a90 f i OgreD3D9ShaderManager.obj
 0001:00014ae0       ??$_Construct@UPassData@D3DShaderTechnique@Ogre@@U123@@std@@YAXPAUPassData@D3DShaderTechnique@Ogre@@ABU123@@Z 10015ae0 f i OgreD3D9ShaderManager.obj
 0001:00014b30       ??$unchecked_uninitialized_copy@PAUPassDesc@Ogre@@PAU12@V?$allocator@UPassDesc@Ogre@@@std@@@stdext@@YAPAUPassDesc@Ogre@@PAU12@00AAV?$allocator@UPassDesc@Ogre@@@std@@@Z 10015b30 f i OgreD3D9ShaderManager.obj
 0001:00014b90       ??$_Copy_backward_opt@PAUPassDesc@Ogre@@PAU12@Uforward_iterator_tag@std@@@std@@YAPAUPassDesc@Ogre@@PAU12@00Uforward_iterator_tag@0@U_Nonscalar_ptr_iterator_tag@0@U_Range_checked_iterator_tag@0@@Z 10015b90 f i OgreD3D9ShaderManager.obj
 0001:00014bd0       ??$unchecked_uninitialized_copy@PADPADV?$allocator@D@std@@@stdext@@YAPADPAD00AAV?$allocator@D@std@@@Z 10015bd0 f i OgreD3D9ShaderManager.obj
 0001:00014c30       ??$unchecked_uninitialized_copy@PAUPassData@D3DShaderTechnique@Ogre@@PAU123@V?$allocator@UPassData@D3DShaderTechnique@Ogre@@@std@@@stdext@@YAPAUPassData@D3DShaderTechnique@Ogre@@PAU123@00AAV?$allocator@UPassData@D3DShaderTechnique@Ogre@@@std@@@Z 10015c30 f i OgreD3D9ShaderManager.obj
 0001:00014c90       ??$_Copy_backward_opt@PAUPassData@D3DShaderTechnique@Ogre@@PAU123@Uforward_iterator_tag@std@@@std@@YAPAUPassData@D3DShaderTechnique@Ogre@@PAU123@00Uforward_iterator_tag@0@U_Nonscalar_ptr_iterator_tag@0@U_Range_checked_iterator_tag@0@@Z 10015c90 f i OgreD3D9ShaderManager.obj
 0001:00014cd0       ??$_Fill_n@PADID@std@@YAXPADIABDUrandom_access_iterator_tag@0@U_Range_checked_iterator_tag@0@@Z 10015cd0 f i OgreD3D9ShaderManager.obj
 0001:00014d10       ??$_Fill_n@PAIII@std@@YAXPAIIABIU_Range_checked_iterator_tag@0@@Z 10015d10 f i OgreD3D9DriverEnum.obj
 0001:00014d10       ??$_Fill_n@PAPAVCompiledShader@Ogre@@IPAV12@@std@@YAXPAPAVCompiledShader@Ogre@@IABQAV12@U_Range_checked_iterator_tag@0@@Z 10015d10 f i OgreD3D9ShaderManager.obj
 0001:00014d10       ??$_Fill_n@PAPAVD3DRenderWindow@Ogre@@IPAV12@@std@@YAXPAPAVD3DRenderWindow@Ogre@@IABQAV12@U_Range_checked_iterator_tag@0@@Z 10015d10 f i OgreD3D9RenderSystem.obj
 0001:00014d10       ??$_Fill_n@PAPAUD3DADAPTER_T@Ogre@@IPAU12@@std@@YAXPAPAUD3DADAPTER_T@Ogre@@IABQAU12@U_Range_checked_iterator_tag@0@@Z 10015d10 f i OgreD3D9DriverEnum.obj
 0001:00014d10       ??$_Fill_n@PAPAUTechCache@D3DMaterialTemplate@Ogre@@IPAU123@@std@@YAXPAPAUTechCache@D3DMaterialTemplate@Ogre@@IABQAU123@U_Range_checked_iterator_tag@0@@Z 10015d10 f i OgreD3DMaterialTemplate.obj
 0001:00014d10       ??$_Fill_n@PAPAUD3DDEVICEINFO_T@Ogre@@IPAU12@@std@@YAXPAPAUD3DDEVICEINFO_T@Ogre@@IABQAU12@U_Range_checked_iterator_tag@0@@Z 10015d10 f i OgreD3D9DriverEnum.obj
 0001:00014d10       ??$_Fill_n@PAPAVD3D9TextureRenderTarget@Ogre@@IPAV12@@std@@YAXPAPAVD3D9TextureRenderTarget@Ogre@@IABQAV12@U_Range_checked_iterator_tag@0@@Z 10015d10 f i OgreD3D9HardwarePixelBuffer.obj
 0001:00014d10       ??$_Fill_n@PAPAUTechniqueDesc@Ogre@@IPAU12@@std@@YAXPAPAUTechniqueDesc@Ogre@@IABQAU12@U_Range_checked_iterator_tag@0@@Z 10015d10 f i OgreD3D9ShaderManager.obj
 0001:00014d10       ??$_Fill_n@PAPAVD3D9VertexDecl@Ogre@@IPAV12@@std@@YAXPAPAVD3D9VertexDecl@Ogre@@IABQAV12@U_Range_checked_iterator_tag@0@@Z 10015d10 f i OgreD3D9RenderSystem.obj
 0001:00014d10       ??$_Fill_n@PAPAUD3DDEVCOMBO_T@Ogre@@IPAU12@@std@@YAXPAPAUD3DDEVCOMBO_T@Ogre@@IABQAU12@U_Range_checked_iterator_tag@0@@Z 10015d10 f i OgreD3D9DriverEnum.obj
 0001:00014d40       ??$_Uninit_copy@PAUPassDesc@Ogre@@PAU12@V?$allocator@UPassDesc@Ogre@@@std@@@std@@YAPAUPassDesc@Ogre@@PAU12@00AAV?$allocator@UPassDesc@Ogre@@@0@U_Nonscalar_ptr_iterator_tag@0@U_Range_checked_iterator_tag@0@@Z 10015d40 f i OgreD3D9ShaderManager.obj
 0001:00014e00       ??$_Uninit_copy@PADPADV?$allocator@D@std@@@std@@YAPADPAD00AAV?$allocator@D@0@U_Scalar_ptr_iterator_tag@0@U_Range_checked_iterator_tag@0@@Z 10015e00 f i OgreD3D9ShaderManager.obj
 0001:00014e40       ??$_Uninit_copy@PAUPassData@D3DShaderTechnique@Ogre@@PAU123@V?$allocator@UPassData@D3DShaderTechnique@Ogre@@@std@@@std@@YAPAUPassData@D3DShaderTechnique@Ogre@@PAU123@00AAV?$allocator@UPassData@D3DShaderTechnique@Ogre@@@0@U_Nonscalar_ptr_iterator_tag@0@U_Range_checked_iterator_tag@0@@Z 10015e40 f i OgreD3D9ShaderManager.obj
 0001:00014f00       ??$_Fill_n@PADID@std@@YAXPADIABDU_Range_checked_iterator_tag@0@@Z 10015f00 f i OgreD3D9ShaderManager.obj
 0001:00014f30       ??0D3DTech@Ogre@@QAE@XZ    10015f30 f   OgreD3D9Technique.obj
 0001:00014fd0       ?isEqual@D3DTech@Ogre@@QAE_NPAV12@@Z 10015fd0 f   OgreD3D9Technique.obj
 0001:00015070       ?setTexture@D3DTech@Ogre@@UAEXW4ShaderParamUsage@2@PAVHardwarePixelBuffer@2@@Z 10016070 f   OgreD3D9Technique.obj
 0001:00015110       ?setConstant@D3DTech@Ogre@@UAEXW4ShaderParamUsage@2@PBXI@Z 10016110 f   OgreD3D9Technique.obj
 0001:00015180       ?getRequiredParams@D3DTech@Ogre@@UAEIPAW4ShaderParamUsage@2@I@Z 10016180 f   OgreD3D9Technique.obj
 0001:000151c0       ?applyVSPS@D3DTech@Ogre@@IAEXI@Z 100161c0 f   OgreD3D9Technique.obj
 0001:000152d0       ?isParamUsed@D3DTech@Ogre@@IAE_NW4ShaderParamUsage@2@@Z 100162d0 f   OgreD3D9Technique.obj
 0001:000153a0       ?initParams@D3DTech@Ogre@@IAEXXZ 100163a0 f   OgreD3D9Technique.obj
 0001:00015420       ?setStreamInput@D3DTech@Ogre@@UAEXIPAPAVHardwareVertexBuffer@2@PAI@Z 10016420 f   OgreD3D9Technique.obj
 0001:00015510       ?setStreamInput@D3DTech@Ogre@@UAEXIPAPAVHardwareVertexBuffer@2@HPAI@Z 10016510 f   OgreD3D9Technique.obj
 0001:00015600       ?setStreamInput@D3DTech@Ogre@@UAEXIPAVHardwareVertexBuffer@2@I@Z 10016600 f   OgreD3D9Technique.obj
 0001:00015690       ?draw@D3DTech@Ogre@@UAEXW4PrimitiveType@2@II@Z 10016690 f   OgreD3D9Technique.obj
 0001:00015770       ?draw@D3DTech@Ogre@@UAEXW4PrimitiveType@2@IIPAVHardwareIndexBuffer@2@II@Z 10016770 f   OgreD3D9Technique.obj
 0001:00015820       ?begin@D3DTech@Ogre@@UAEIXZ 10016820 f i OgreD3D9Technique.obj
 0001:00015840       ?setConstant@D3DTech@Ogre@@UAEXPBDPBXI@Z 10016840 f i OgreD3D9Technique.obj
 0001:00015850       ?setTexture@D3DTech@Ogre@@UAEXPBDPAVHardwarePixelBuffer@2@@Z 10016850 f i OgreD3D9Technique.obj
 0001:00015860       ??_ED3DTech@Ogre@@UAEPAXI@Z 10016860 f i OgreD3D9Technique.obj
 0001:00015860       ??_GD3DTech@Ogre@@UAEPAXI@Z 10016860 f i OgreD3D9Technique.obj
 0001:00015890       ??1D3DTech@Ogre@@UAE@XZ    10016890 f i OgreD3D9Technique.obj
 0001:000158e0       ?CreateD3DTech@Ogre@@YAPAVD3DTech@1@PBD@Z 100168e0 f   OgreD3D9Technique_Impl.obj
 0001:000166c0       ??0D3DTech_Back0_lod0@Ogre@@QAE@XZ 100176c0 f i OgreD3D9Technique_Impl.obj
 0001:00016720       ?clone@D3DTech_Back0_lod0@Ogre@@UAEPAVD3DTech@2@XZ 10017720 f i OgreD3D9Technique_Impl.obj
 0001:000167a0       ?init@D3DTech_Back0_lod0@Ogre@@UAEXABUShaderEnvFlags@2@ABUMaterialMacro@2@@Z 100177a0 f i OgreD3D9Technique_Impl.obj
 0001:000168b0       ?begin@D3DTech_Back1_lod0@Ogre@@UAEIXZ 100178b0 f i OgreD3D9Technique_Impl.obj
 0001:000168b0       ?begin@D3DTech_Particle_lod0@Ogre@@UAEIXZ 100178b0 f i OgreD3D9Technique_Impl.obj
 0001:000168b0       ?begin@D3DTech_Back0_lod0@Ogre@@UAEIXZ 100178b0 f i OgreD3D9Technique_Impl.obj
 0001:000168c0       ?beginPass@D3DTech_Back0_lod0@Ogre@@UAEXI@Z 100178c0 f i OgreD3D9Technique_Impl.obj
 0001:00016a30       ?SamplerState_Wrap@Ogre@@YAXPAUIDirect3DDevice9@@H@Z 10017a30 f i OgreD3D9Technique_Impl.obj
 0001:00016ac0       ?SetBlendState@Ogre@@YAXPAUIDirect3DDevice9@@HH@Z 10017ac0 f i OgreD3D9Technique_Impl.obj
 0001:00016d90       ?endPass@D3DTech_Back0_lod0@Ogre@@UAEXXZ 10017d90 f i OgreD3D9Technique_Impl.obj
 0001:00016e30       ??0D3DTech_Back1_lod0@Ogre@@QAE@XZ 10017e30 f i OgreD3D9Technique_Impl.obj
 0001:00016e90       ?clone@D3DTech_Back1_lod0@Ogre@@UAEPAVD3DTech@2@XZ 10017e90 f i OgreD3D9Technique_Impl.obj
 0001:00016f10       ?beginPass@D3DTech_Back1_lod0@Ogre@@UAEXI@Z 10017f10 f i OgreD3D9Technique_Impl.obj
 0001:000170e0       ?endPass@D3DTech_Back1_lod0@Ogre@@UAEXXZ 100180e0 f i OgreD3D9Technique_Impl.obj
 0001:00017190       ??0D3DTech_Border_lod0@Ogre@@QAE@XZ 10018190 f i OgreD3D9Technique_Impl.obj
 0001:000171f0       ?clone@D3DTech_Border_lod0@Ogre@@UAEPAVD3DTech@2@XZ 100181f0 f i OgreD3D9Technique_Impl.obj
 0001:00017270       ?beginPass@D3DTech_Border_lod0@Ogre@@UAEXI@Z 10018270 f i OgreD3D9Technique_Impl.obj
 0001:00017380       ??0D3DTech_Border1_lod0@Ogre@@QAE@XZ 10018380 f i OgreD3D9Technique_Impl.obj
 0001:000173e0       ?clone@D3DTech_Border1_lod0@Ogre@@UAEPAVD3DTech@2@XZ 100183e0 f i OgreD3D9Technique_Impl.obj
 0001:00017460       ?init@D3DTech_Border1_lod0@Ogre@@UAEXABUShaderEnvFlags@2@ABUMaterialMacro@2@@Z 10018460 f i OgreD3D9Technique_Impl.obj
 0001:00017540       ?beginPass@D3DTech_Border1_lod0@Ogre@@UAEXI@Z 10018540 f i OgreD3D9Technique_Impl.obj
 0001:00017680       ?endPass@D3DTech_Border1_lod0@Ogre@@UAEXXZ 10018680 f i OgreD3D9Technique_Impl.obj
 0001:000176c0       ??0D3DTech_Overlay_lod0@Ogre@@QAE@XZ 100186c0 f i OgreD3D9Technique_Impl.obj
 0001:00017720       ?clone@D3DTech_Overlay_lod0@Ogre@@UAEPAVD3DTech@2@XZ 10018720 f i OgreD3D9Technique_Impl.obj
 0001:000177a0       ?init@D3DTech_Overlay_lod0@Ogre@@UAEXABUShaderEnvFlags@2@ABUMaterialMacro@2@@Z 100187a0 f i OgreD3D9Technique_Impl.obj
 0001:00017890       ?beginPass@D3DTech_Overlay_lod0@Ogre@@UAEXI@Z 10018890 f i OgreD3D9Technique_Impl.obj
 0001:00017960       ?endPass@D3DTech_Overlay_lod0@Ogre@@UAEXXZ 10018960 f i OgreD3D9Technique_Impl.obj
 0001:000179e0       ??0D3DTech_Particle_lod0@Ogre@@QAE@XZ 100189e0 f i OgreD3D9Technique_Impl.obj
 0001:00017a40       ?clone@D3DTech_Particle_lod0@Ogre@@UAEPAVD3DTech@2@XZ 10018a40 f i OgreD3D9Technique_Impl.obj
 0001:00017ac0       ?init@D3DTech_Particle_lod0@Ogre@@UAEXABUShaderEnvFlags@2@ABUMaterialMacro@2@@Z 10018ac0 f i OgreD3D9Technique_Impl.obj
 0001:00017c40       ?end@D3DTech_Back0_lod0@Ogre@@UAEXXZ 10018c40 f i OgreD3D9Technique_Impl.obj
 0001:00017c40       ?endPass@D3DTech_decal_distort@Ogre@@UAEXXZ 10018c40 f i OgreD3D9Technique_Impl.obj
 0001:00017c40       ?commitChanges@D3DTech@Ogre@@UAEXXZ 10018c40 f i OgreD3D9Technique.obj
 0001:00017c40       ?endPass@D3DTech_UvanimBlend_lod0@Ogre@@UAEXXZ 10018c40 f i OgreD3D9Technique_Impl.obj
 0001:00017c40       ?endPass@D3DTech_UvanimSelfillum_lod0@Ogre@@UAEXXZ 10018c40 f i OgreD3D9Technique_Impl.obj
 0001:00017c40       ?end@D3DTech@Ogre@@UAEXXZ  10018c40 f i OgreD3D9Technique.obj
 0001:00017c40       ?endPass@D3DTech_Particle_lod0@Ogre@@UAEXXZ 10018c40 f i OgreD3D9Technique_Impl.obj
 0001:00017c40       ?endPass@D3DTech_sky_stdmtl_lod0@Ogre@@UAEXXZ 10018c40 f i OgreD3D9Technique_Impl.obj
 0001:00017c40       ?end@D3DTech_Particle_lod0@Ogre@@UAEXXZ 10018c40 f i OgreD3D9Technique_Impl.obj
 0001:00017c40       ?end@D3DTech_Back1_lod0@Ogre@@UAEXXZ 10018c40 f i OgreD3D9Technique_Impl.obj
 0001:00017c40       ??1ScopeGuardImplBase@Ogre@@IAE@XZ 10018c40 f i OgreD3D9DriverEnum.obj
 0001:00017c40       ?endPass@D3DTech_particle_distort@Ogre@@UAEXXZ 10018c40 f i OgreD3D9Technique_Impl.obj
 0001:00017c40       ?endPass@D3DTech_Uvanim2Layer_lod0@Ogre@@UAEXXZ 10018c40 f i OgreD3D9Technique_Impl.obj
 0001:00017c40       ??1_Container_base_aux@std@@QAE@XZ 10018c40 f i OgreD3D9DriverEnum.obj
 0001:00017c50       ?beginPass@D3DTech_Particle_lod0@Ogre@@UAEXI@Z 10018c50 f i OgreD3D9Technique_Impl.obj
 0001:00017e60       ?SamplerState_Clamp@Ogre@@YAXPAUIDirect3DDevice9@@H@Z 10018e60 f i OgreD3D9Technique_Impl.obj
 0001:00017ef0       ??0D3DTech_particle_distort@Ogre@@QAE@XZ 10018ef0 f i OgreD3D9Technique_Impl.obj
 0001:00017f50       ?clone@D3DTech_particle_distort@Ogre@@UAEPAVD3DTech@2@XZ 10018f50 f i OgreD3D9Technique_Impl.obj
 0001:00017fd0       ?init@D3DTech_particle_distort@Ogre@@UAEXABUShaderEnvFlags@2@ABUMaterialMacro@2@@Z 10018fd0 f i OgreD3D9Technique_Impl.obj
 0001:00018120       ?beginPass@D3DTech_particle_distort@Ogre@@UAEXI@Z 10019120 f i OgreD3D9Technique_Impl.obj
 0001:000181c0       ??0D3DTech_Uvanim_lod0@Ogre@@QAE@XZ 100191c0 f i OgreD3D9Technique_Impl.obj
 0001:00018220       ?clone@D3DTech_Uvanim_lod0@Ogre@@UAEPAVD3DTech@2@XZ 10019220 f i OgreD3D9Technique_Impl.obj
 0001:000182a0       ?init@D3DTech_Uvanim_lod0@Ogre@@UAEXABUShaderEnvFlags@2@ABUMaterialMacro@2@@Z 100192a0 f i OgreD3D9Technique_Impl.obj
 0001:00018490       ?beginPass@D3DTech_Uvanim_lod0@Ogre@@UAEXI@Z 10019490 f i OgreD3D9Technique_Impl.obj
 0001:000185c0       ?SamplerState_DMap@Ogre@@YAXPAUIDirect3DDevice9@@H@Z 100195c0 f i OgreD3D9Technique_Impl.obj
 0001:00018660       ?endPass@D3DTech_Uvanim_lod0@Ogre@@UAEXXZ 10019660 f i OgreD3D9Technique_Impl.obj
 0001:000186c0       ??0D3DTech_Uvanim2Layer_lod0@Ogre@@QAE@XZ 100196c0 f i OgreD3D9Technique_Impl.obj
 0001:00018720       ?clone@D3DTech_Uvanim2Layer_lod0@Ogre@@UAEPAVD3DTech@2@XZ 10019720 f i OgreD3D9Technique_Impl.obj
 0001:000187a0       ?init@D3DTech_Uvanim2Layer_lod0@Ogre@@UAEXABUShaderEnvFlags@2@ABUMaterialMacro@2@@Z 100197a0 f i OgreD3D9Technique_Impl.obj
 0001:000187a0       ?init@D3DTech_UvanimBlend_lod0@Ogre@@UAEXABUShaderEnvFlags@2@ABUMaterialMacro@2@@Z 100197a0 f i OgreD3D9Technique_Impl.obj
 0001:00018830       ?beginPass@D3DTech_Uvanim2Layer_lod0@Ogre@@UAEXI@Z 10019830 f i OgreD3D9Technique_Impl.obj
 0001:000188c0       ??0D3DTech_UvanimBlend_lod0@Ogre@@QAE@XZ 100198c0 f i OgreD3D9Technique_Impl.obj
 0001:00018920       ?clone@D3DTech_UvanimBlend_lod0@Ogre@@UAEPAVD3DTech@2@XZ 10019920 f i OgreD3D9Technique_Impl.obj
 0001:000189a0       ?beginPass@D3DTech_UvanimSelfillum_lod0@Ogre@@UAEXI@Z 100199a0 f i OgreD3D9Technique_Impl.obj
 0001:000189a0       ?beginPass@D3DTech_UvanimBlend_lod0@Ogre@@UAEXI@Z 100199a0 f i OgreD3D9Technique_Impl.obj
 0001:00018a20       ??0D3DTech_UvanimSelfillum_lod0@Ogre@@QAE@XZ 10019a20 f i OgreD3D9Technique_Impl.obj
 0001:00018a80       ?clone@D3DTech_UvanimSelfillum_lod0@Ogre@@UAEPAVD3DTech@2@XZ 10019a80 f i OgreD3D9Technique_Impl.obj
 0001:00018b00       ?init@D3DTech_UvanimSelfillum_lod0@Ogre@@UAEXABUShaderEnvFlags@2@ABUMaterialMacro@2@@Z 10019b00 f i OgreD3D9Technique_Impl.obj
 0001:00018b70       ??0D3DTech_cloth_lod0@Ogre@@QAE@XZ 10019b70 f i OgreD3D9Technique_Impl.obj
 0001:00018bd0       ?clone@D3DTech_cloth_lod0@Ogre@@UAEPAVD3DTech@2@XZ 10019bd0 f i OgreD3D9Technique_Impl.obj
 0001:00018c50       ?init@D3DTech_cloth_lod0@Ogre@@UAEXABUShaderEnvFlags@2@ABUMaterialMacro@2@@Z 10019c50 f i OgreD3D9Technique_Impl.obj
 0001:00018e70       ?beginPass@D3DTech_cloth_lod0@Ogre@@UAEXI@Z 10019e70 f i OgreD3D9Technique_Impl.obj
 0001:00019070       ?endPass@D3DTech_cloth_lod0@Ogre@@UAEXXZ 1001a070 f i OgreD3D9Technique_Impl.obj
 0001:00019110       ??0D3DTech_cloth_shadowgen@Ogre@@QAE@XZ 1001a110 f i OgreD3D9Technique_Impl.obj
 0001:00019170       ?clone@D3DTech_cloth_shadowgen@Ogre@@UAEPAVD3DTech@2@XZ 1001a170 f i OgreD3D9Technique_Impl.obj
 0001:000191f0       ?init@D3DTech_stdmtl_shadowgen@Ogre@@UAEXABUShaderEnvFlags@2@ABUMaterialMacro@2@@Z 1001a1f0 f i OgreD3D9Technique_Impl.obj
 0001:000191f0       ?init@D3DTech_cloth_shadowgen@Ogre@@UAEXABUShaderEnvFlags@2@ABUMaterialMacro@2@@Z 1001a1f0 f i OgreD3D9Technique_Impl.obj
 0001:000192d0       ?endPass@D3DTech_Border_lod0@Ogre@@UAEXXZ 1001a2d0 f i OgreD3D9Technique_Impl.obj
 0001:000192d0       ?endPass@D3DTech_cloth_shadowgen@Ogre@@UAEXXZ 1001a2d0 f i OgreD3D9Technique_Impl.obj
 0001:00019300       ??0D3DTech_stdmtl_lod0@Ogre@@QAE@XZ 1001a300 f i OgreD3D9Technique_Impl.obj
 0001:00019360       ?clone@D3DTech_stdmtl_lod0@Ogre@@UAEPAVD3DTech@2@XZ 1001a360 f i OgreD3D9Technique_Impl.obj
 0001:000193e0       ?init@D3DTech_stdmtl_lod0@Ogre@@UAEXABUShaderEnvFlags@2@ABUMaterialMacro@2@@Z 1001a3e0 f i OgreD3D9Technique_Impl.obj
 0001:000195f0       ?beginPass@D3DTech_stdmtl_lod0@Ogre@@UAEXI@Z 1001a5f0 f i OgreD3D9Technique_Impl.obj
 0001:000197e0       ?endPass@D3DTech_stdmtl_lod0@Ogre@@UAEXXZ 1001a7e0 f i OgreD3D9Technique_Impl.obj
 0001:00019870       ??0D3DTech_stdmtl_shadowgen@Ogre@@QAE@XZ 1001a870 f i OgreD3D9Technique_Impl.obj
 0001:000198d0       ?clone@D3DTech_stdmtl_shadowgen@Ogre@@UAEPAVD3DTech@2@XZ 1001a8d0 f i OgreD3D9Technique_Impl.obj
 0001:00019950       ?beginPass@D3DTech_cloth_shadowgen@Ogre@@UAEXI@Z 1001a950 f i OgreD3D9Technique_Impl.obj
 0001:00019950       ?beginPass@D3DTech_stdmtl_shadowgen@Ogre@@UAEXI@Z 1001a950 f i OgreD3D9Technique_Impl.obj
 0001:00019a20       ?endPass@D3DTech_stdmtl_shadowgen@Ogre@@UAEXXZ 1001aa20 f i OgreD3D9Technique_Impl.obj
 0001:00019a70       ??0D3DTech_terrain_all_lod0@Ogre@@QAE@XZ 1001aa70 f i OgreD3D9Technique_Impl.obj
 0001:00019ad0       ?clone@D3DTech_terrain_all_lod0@Ogre@@UAEPAVD3DTech@2@XZ 1001aad0 f i OgreD3D9Technique_Impl.obj
 0001:00019b50       ?init@D3DTech_terrain_all_lod0@Ogre@@UAEXABUShaderEnvFlags@2@ABUMaterialMacro@2@@Z 1001ab50 f i OgreD3D9Technique_Impl.obj
 0001:00019cb0       ?beginPass@D3DTech_terrain_all_lod0@Ogre@@UAEXI@Z 1001acb0 f i OgreD3D9Technique_Impl.obj
 0001:00019f00       ?endPass@D3DTech_terrain_all_lod0@Ogre@@UAEXXZ 1001af00 f i OgreD3D9Technique_Impl.obj
 0001:0001a080       ??0D3DTech_terrain_colormask_lod0@Ogre@@QAE@XZ 1001b080 f i OgreD3D9Technique_Impl.obj
 0001:0001a0e0       ?clone@D3DTech_terrain_colormask_lod0@Ogre@@UAEPAVD3DTech@2@XZ 1001b0e0 f i OgreD3D9Technique_Impl.obj
 0001:0001a160       ?beginPass@D3DTech_terrain_colormask_lod0@Ogre@@UAEXI@Z 1001b160 f i OgreD3D9Technique_Impl.obj
 0001:0001a280       ??0D3DTech_general_water_lod0@Ogre@@QAE@XZ 1001b280 f i OgreD3D9Technique_Impl.obj
 0001:0001a2e0       ?clone@D3DTech_general_water_lod0@Ogre@@UAEPAVD3DTech@2@XZ 1001b2e0 f i OgreD3D9Technique_Impl.obj
 0001:0001a360       ?init@D3DTech_general_water_lod0@Ogre@@UAEXABUShaderEnvFlags@2@ABUMaterialMacro@2@@Z 1001b360 f i OgreD3D9Technique_Impl.obj
 0001:0001a450       ?beginPass@D3DTech_general_water_lod0@Ogre@@UAEXI@Z 1001b450 f i OgreD3D9Technique_Impl.obj
 0001:0001a560       ??0D3DTech_water_reflect_lod0@Ogre@@QAE@XZ 1001b560 f i OgreD3D9Technique_Impl.obj
 0001:0001a5c0       ?clone@D3DTech_water_reflect_lod0@Ogre@@UAEPAVD3DTech@2@XZ 1001b5c0 f i OgreD3D9Technique_Impl.obj
 0001:0001a640       ?init@D3DTech_water_reflect_lod0@Ogre@@UAEXABUShaderEnvFlags@2@ABUMaterialMacro@2@@Z 1001b640 f i OgreD3D9Technique_Impl.obj
 0001:0001a6e0       ?beginPass@D3DTech_water_reflect_lod0@Ogre@@UAEXI@Z 1001b6e0 f i OgreD3D9Technique_Impl.obj
 0001:0001a7a0       ?endPass@D3DTech_general_water_lod0@Ogre@@UAEXXZ 1001b7a0 f i OgreD3D9Technique_Impl.obj
 0001:0001a7a0       ?endPass@D3DTech_footprint_lod0@Ogre@@UAEXXZ 1001b7a0 f i OgreD3D9Technique_Impl.obj
 0001:0001a7a0       ?endPass@D3DTech_terrain_colormask_lod0@Ogre@@UAEXXZ 1001b7a0 f i OgreD3D9Technique_Impl.obj
 0001:0001a7a0       ?endPass@D3DTech_water_reflect_lod0@Ogre@@UAEXXZ 1001b7a0 f i OgreD3D9Technique_Impl.obj
 0001:0001a7d0       ??0D3DTech_plant_lod0@Ogre@@QAE@XZ 1001b7d0 f i OgreD3D9Technique_Impl.obj
 0001:0001a830       ?clone@D3DTech_plant_lod0@Ogre@@UAEPAVD3DTech@2@XZ 1001b830 f i OgreD3D9Technique_Impl.obj
 0001:0001a8b0       ?init@D3DTech_plant_lod0@Ogre@@UAEXABUShaderEnvFlags@2@ABUMaterialMacro@2@@Z 1001b8b0 f i OgreD3D9Technique_Impl.obj
 0001:0001a940       ?beginPass@D3DTech_plant_lod0@Ogre@@UAEXI@Z 1001b940 f i OgreD3D9Technique_Impl.obj
 0001:0001a9f0       ?endPass@D3DTech_plant_lod0@Ogre@@UAEXXZ 1001b9f0 f i OgreD3D9Technique_Impl.obj
 0001:0001aa20       ??0D3DTech_uielement_lod0@Ogre@@QAE@XZ 1001ba20 f i OgreD3D9Technique_Impl.obj
 0001:0001aa80       ?clone@D3DTech_uielement_lod0@Ogre@@UAEPAVD3DTech@2@XZ 1001ba80 f i OgreD3D9Technique_Impl.obj
 0001:0001ab00       ?init@D3DTech_uielement_lod0@Ogre@@UAEXABUShaderEnvFlags@2@ABUMaterialMacro@2@@Z 1001bb00 f i OgreD3D9Technique_Impl.obj
 0001:0001ac40       ?beginPass@D3DTech_uielement_lod0@Ogre@@UAEXI@Z 1001bc40 f i OgreD3D9Technique_Impl.obj
 0001:0001add0       ?endPass@D3DTech_uielement_lod0@Ogre@@UAEXXZ 1001bdd0 f i OgreD3D9Technique_Impl.obj
 0001:0001ae10       ??_GD3DTech_footprint_lod0@Ogre@@UAEPAXI@Z 1001be10 f i OgreD3D9Technique_Impl.obj
 0001:0001ae10       ??_GD3DTech_plant_lod0@Ogre@@UAEPAXI@Z 1001be10 f i OgreD3D9Technique_Impl.obj
 0001:0001ae10       ??_ED3DTech_plant_lod0@Ogre@@UAEPAXI@Z 1001be10 f i OgreD3D9Technique_Impl.obj
 0001:0001ae10       ??_GD3DTech_stdmtl_lod0@Ogre@@UAEPAXI@Z 1001be10 f i OgreD3D9Technique_Impl.obj
 0001:0001ae10       ??_ED3DTech_decal_lod0@Ogre@@UAEPAXI@Z 1001be10 f i OgreD3D9Technique_Impl.obj
 0001:0001ae10       ??_ED3DTech_Back0_lod0@Ogre@@UAEPAXI@Z 1001be10 f i OgreD3D9Technique_Impl.obj
 0001:0001ae10       ??_ED3DTech_UvanimSelfillum_lod0@Ogre@@UAEPAXI@Z 1001be10 f i OgreD3D9Technique_Impl.obj
 0001:0001ae10       ??_ED3DTech_sky_stdmtl_shadowgen@Ogre@@UAEPAXI@Z 1001be10 f i OgreD3D9Technique_Impl.obj
 0001:0001ae10       ??_ED3DTech_decal_distort@Ogre@@UAEPAXI@Z 1001be10 f i OgreD3D9Technique_Impl.obj
 0001:0001ae10       ??_ED3DTech_terrain_colormask_lod0@Ogre@@UAEPAXI@Z 1001be10 f i OgreD3D9Technique_Impl.obj
 0001:0001ae10       ??_ED3DTech_sky_stdmtl_lod0@Ogre@@UAEPAXI@Z 1001be10 f i OgreD3D9Technique_Impl.obj
 0001:0001ae10       ??_GD3DTech_water_reflect_lod0@Ogre@@UAEPAXI@Z 1001be10 f i OgreD3D9Technique_Impl.obj
 0001:0001ae10       ??_GD3DTech_cloth_lod0@Ogre@@UAEPAXI@Z 1001be10 f i OgreD3D9Technique_Impl.obj
 0001:0001ae10       ??_GD3DTech_beach_lod0@Ogre@@UAEPAXI@Z 1001be10 f i OgreD3D9Technique_Impl.obj
 0001:0001ae10       ??_GD3DTech_Particle_lod0@Ogre@@UAEPAXI@Z 1001be10 f i OgreD3D9Technique_Impl.obj
 0001:0001ae10       ??_GD3DTech_terrain_colormask_lod0@Ogre@@UAEPAXI@Z 1001be10 f i OgreD3D9Technique_Impl.obj
 0001:0001ae10       ??_GD3DTech_Line_lod0@Ogre@@UAEPAXI@Z 1001be10 f i OgreD3D9Technique_Impl.obj
 0001:0001ae10       ??_ED3DTech_water_reflect_lod0@Ogre@@UAEPAXI@Z 1001be10 f i OgreD3D9Technique_Impl.obj
 0001:0001ae10       ??_ED3DTech_distort_lod0@Ogre@@UAEPAXI@Z 1001be10 f i OgreD3D9Technique_Impl.obj
 0001:0001ae10       ??_ED3DTech_UvanimBlend_lod0@Ogre@@UAEPAXI@Z 1001be10 f i OgreD3D9Technique_Impl.obj
 0001:0001ae10       ??_GD3DTech_Uvanim2Layer_lod0@Ogre@@UAEPAXI@Z 1001be10 f i OgreD3D9Technique_Impl.obj
 0001:0001ae10       ??_ED3DTech_Particle_lod0@Ogre@@UAEPAXI@Z 1001be10 f i OgreD3D9Technique_Impl.obj
 0001:0001ae10       ??_ED3DTech_Uvanim2Layer_lod0@Ogre@@UAEPAXI@Z 1001be10 f i OgreD3D9Technique_Impl.obj
 0001:0001ae10       ??_ED3DTech_uielement_lod0@Ogre@@UAEPAXI@Z 1001be10 f i OgreD3D9Technique_Impl.obj
 0001:0001ae10       ??_ED3DTech_stdmtl_lod0@Ogre@@UAEPAXI@Z 1001be10 f i OgreD3D9Technique_Impl.obj
 0001:0001ae10       ??_GD3DTech_Border1_lod0@Ogre@@UAEPAXI@Z 1001be10 f i OgreD3D9Technique_Impl.obj
 0001:0001ae10       ??_GD3DTech_decal_distort@Ogre@@UAEPAXI@Z 1001be10 f i OgreD3D9Technique_Impl.obj
 0001:0001ae10       ??_ED3DTech_Uvanim_lod0@Ogre@@UAEPAXI@Z 1001be10 f i OgreD3D9Technique_Impl.obj
 0001:0001ae10       ??_GD3DTech_stdmtl_shadowgen@Ogre@@UAEPAXI@Z 1001be10 f i OgreD3D9Technique_Impl.obj
 0001:0001ae10       ??_ED3DTech_beach_lod0@Ogre@@UAEPAXI@Z 1001be10 f i OgreD3D9Technique_Impl.obj
 0001:0001ae10       ??_GD3DTech_decal_lod0@Ogre@@UAEPAXI@Z 1001be10 f i OgreD3D9Technique_Impl.obj
 0001:0001ae10       ??_ED3DTech_dirdecal_lod0@Ogre@@UAEPAXI@Z 1001be10 f i OgreD3D9Technique_Impl.obj
 0001:0001ae10       ??_GD3DTech_UvanimSelfillum_lod0@Ogre@@UAEPAXI@Z 1001be10 f i OgreD3D9Technique_Impl.obj
 0001:0001ae10       ??_ED3DTech_Line_lod0@Ogre@@UAEPAXI@Z 1001be10 f i OgreD3D9Technique_Impl.obj
 0001:0001ae10       ??_GD3DTech_distort_lod0@Ogre@@UAEPAXI@Z 1001be10 f i OgreD3D9Technique_Impl.obj
 0001:0001ae10       ??_GD3DTech_Back1_lod0@Ogre@@UAEPAXI@Z 1001be10 f i OgreD3D9Technique_Impl.obj
 0001:0001ae10       ??_ED3DTech_particle_distort@Ogre@@UAEPAXI@Z 1001be10 f i OgreD3D9Technique_Impl.obj
 0001:0001ae10       ??_ED3DTech_cloth_lod0@Ogre@@UAEPAXI@Z 1001be10 f i OgreD3D9Technique_Impl.obj
 0001:0001ae10       ??_ED3DTech_cloth_shadowgen@Ogre@@UAEPAXI@Z 1001be10 f i OgreD3D9Technique_Impl.obj
 0001:0001ae10       ??_ED3DTech_footprint_lod0@Ogre@@UAEPAXI@Z 1001be10 f i OgreD3D9Technique_Impl.obj
 0001:0001ae10       ??_GD3DTech_bloom_lod0@Ogre@@UAEPAXI@Z 1001be10 f i OgreD3D9Technique_Impl.obj
 0001:0001ae10       ??_GD3DTech_UvanimBlend_lod0@Ogre@@UAEPAXI@Z 1001be10 f i OgreD3D9Technique_Impl.obj
 0001:0001ae10       ??_ED3DTech_bloom_lod0@Ogre@@UAEPAXI@Z 1001be10 f i OgreD3D9Technique_Impl.obj
 0001:0001ae10       ??_GD3DTech_cloth_shadowgen@Ogre@@UAEPAXI@Z 1001be10 f i OgreD3D9Technique_Impl.obj
 0001:0001ae10       ??_ED3DTech_terrain_all_lod0@Ogre@@UAEPAXI@Z 1001be10 f i OgreD3D9Technique_Impl.obj
 0001:0001ae10       ??_GD3DTech_Overlay_lod0@Ogre@@UAEPAXI@Z 1001be10 f i OgreD3D9Technique_Impl.obj
 0001:0001ae10       ??_GD3DTech_particle_distort@Ogre@@UAEPAXI@Z 1001be10 f i OgreD3D9Technique_Impl.obj
 0001:0001ae10       ??_ED3DTech_Border_lod0@Ogre@@UAEPAXI@Z 1001be10 f i OgreD3D9Technique_Impl.obj
 0001:0001ae10       ??_GD3DTech_general_water_lod0@Ogre@@UAEPAXI@Z 1001be10 f i OgreD3D9Technique_Impl.obj
 0001:0001ae10       ??_GD3DTech_Back0_lod0@Ogre@@UAEPAXI@Z 1001be10 f i OgreD3D9Technique_Impl.obj
 0001:0001ae10       ??_GD3DTech_terrain_all_lod0@Ogre@@UAEPAXI@Z 1001be10 f i OgreD3D9Technique_Impl.obj
 0001:0001ae10       ??_ED3DTech_Border1_lod0@Ogre@@UAEPAXI@Z 1001be10 f i OgreD3D9Technique_Impl.obj
 0001:0001ae10       ??_ED3DTech_Overlay_lod0@Ogre@@UAEPAXI@Z 1001be10 f i OgreD3D9Technique_Impl.obj
 0001:0001ae10       ??_GD3DTech_Uvanim_lod0@Ogre@@UAEPAXI@Z 1001be10 f i OgreD3D9Technique_Impl.obj
 0001:0001ae10       ??_GD3DTech_Border_lod0@Ogre@@UAEPAXI@Z 1001be10 f i OgreD3D9Technique_Impl.obj
 0001:0001ae10       ??_ED3DTech_general_water_lod0@Ogre@@UAEPAXI@Z 1001be10 f i OgreD3D9Technique_Impl.obj
 0001:0001ae10       ??_ED3DTech_stdmtl_shadowgen@Ogre@@UAEPAXI@Z 1001be10 f i OgreD3D9Technique_Impl.obj
 0001:0001ae10       ??_GD3DTech_sky_stdmtl_shadowgen@Ogre@@UAEPAXI@Z 1001be10 f i OgreD3D9Technique_Impl.obj
 0001:0001ae10       ??_GD3DTech_dirdecal_lod0@Ogre@@UAEPAXI@Z 1001be10 f i OgreD3D9Technique_Impl.obj
 0001:0001ae10       ??_GD3DTech_uielement_lod0@Ogre@@UAEPAXI@Z 1001be10 f i OgreD3D9Technique_Impl.obj
 0001:0001ae10       ??_ED3DTech_Back1_lod0@Ogre@@UAEPAXI@Z 1001be10 f i OgreD3D9Technique_Impl.obj
 0001:0001ae10       ??_GD3DTech_sky_stdmtl_lod0@Ogre@@UAEPAXI@Z 1001be10 f i OgreD3D9Technique_Impl.obj
 0001:0001ae40       ??1D3DTech_decal_distort@Ogre@@UAE@XZ 1001be40 f i OgreD3D9Technique_Impl.obj
 0001:0001ae40       ??1D3DTech_terrain_all_lod0@Ogre@@UAE@XZ 1001be40 f i OgreD3D9Technique_Impl.obj
 0001:0001ae40       ??1D3DTech_decal_lod0@Ogre@@UAE@XZ 1001be40 f i OgreD3D9Technique_Impl.obj
 0001:0001ae40       ??1D3DTech_terrain_colormask_lod0@Ogre@@UAE@XZ 1001be40 f i OgreD3D9Technique_Impl.obj
 0001:0001ae40       ??1D3DTech_UvanimSelfillum_lod0@Ogre@@UAE@XZ 1001be40 f i OgreD3D9Technique_Impl.obj
 0001:0001ae40       ??1D3DTech_distort_lod0@Ogre@@UAE@XZ 1001be40 f i OgreD3D9Technique_Impl.obj
 0001:0001ae40       ??1D3DTech_Overlay_lod0@Ogre@@UAE@XZ 1001be40 f i OgreD3D9Technique_Impl.obj
 0001:0001ae40       ??1D3DTech_Back1_lod0@Ogre@@UAE@XZ 1001be40 f i OgreD3D9Technique_Impl.obj
 0001:0001ae40       ??1D3DTech_bloom_lod0@Ogre@@UAE@XZ 1001be40 f i OgreD3D9Technique_Impl.obj
 0001:0001ae40       ??1D3DTech_Back0_lod0@Ogre@@UAE@XZ 1001be40 f i OgreD3D9Technique_Impl.obj
 0001:0001ae40       ??1D3DTech_Uvanim_lod0@Ogre@@UAE@XZ 1001be40 f i OgreD3D9Technique_Impl.obj
 0001:0001ae40       ??1D3DTech_Border_lod0@Ogre@@UAE@XZ 1001be40 f i OgreD3D9Technique_Impl.obj
 0001:0001ae40       ??1D3DTech_Uvanim2Layer_lod0@Ogre@@UAE@XZ 1001be40 f i OgreD3D9Technique_Impl.obj
 0001:0001ae40       ??1D3DTech_Line_lod0@Ogre@@UAE@XZ 1001be40 f i OgreD3D9Technique_Impl.obj
 0001:0001ae40       ??1D3DTech_cloth_lod0@Ogre@@UAE@XZ 1001be40 f i OgreD3D9Technique_Impl.obj
 0001:0001ae40       ??1D3DTech_UvanimBlend_lod0@Ogre@@UAE@XZ 1001be40 f i OgreD3D9Technique_Impl.obj
 0001:0001ae40       ??1D3DTech_stdmtl_shadowgen@Ogre@@UAE@XZ 1001be40 f i OgreD3D9Technique_Impl.obj
 0001:0001ae40       ??1D3DTech_Border1_lod0@Ogre@@UAE@XZ 1001be40 f i OgreD3D9Technique_Impl.obj
 0001:0001ae40       ??1D3DTech_sky_stdmtl_shadowgen@Ogre@@UAE@XZ 1001be40 f i OgreD3D9Technique_Impl.obj
 0001:0001ae40       ??1D3DTech_cloth_shadowgen@Ogre@@UAE@XZ 1001be40 f i OgreD3D9Technique_Impl.obj
 0001:0001ae40       ??1D3DTech_particle_distort@Ogre@@UAE@XZ 1001be40 f i OgreD3D9Technique_Impl.obj
 0001:0001ae40       ??1D3DTech_sky_stdmtl_lod0@Ogre@@UAE@XZ 1001be40 f i OgreD3D9Technique_Impl.obj
 0001:0001ae40       ??1D3DTech_plant_lod0@Ogre@@UAE@XZ 1001be40 f i OgreD3D9Technique_Impl.obj
 0001:0001ae40       ??1D3DTech_beach_lod0@Ogre@@UAE@XZ 1001be40 f i OgreD3D9Technique_Impl.obj
 0001:0001ae40       ??1D3DTech_footprint_lod0@Ogre@@UAE@XZ 1001be40 f i OgreD3D9Technique_Impl.obj
 0001:0001ae40       ??1D3DTech_uielement_lod0@Ogre@@UAE@XZ 1001be40 f i OgreD3D9Technique_Impl.obj
 0001:0001ae40       ??1D3DTech_stdmtl_lod0@Ogre@@UAE@XZ 1001be40 f i OgreD3D9Technique_Impl.obj
 0001:0001ae40       ??1D3DTech_Particle_lod0@Ogre@@UAE@XZ 1001be40 f i OgreD3D9Technique_Impl.obj
 0001:0001ae40       ??1D3DTech_dirdecal_lod0@Ogre@@UAE@XZ 1001be40 f i OgreD3D9Technique_Impl.obj
 0001:0001ae40       ??1D3DTech_general_water_lod0@Ogre@@UAE@XZ 1001be40 f i OgreD3D9Technique_Impl.obj
 0001:0001ae40       ??1D3DTech_water_reflect_lod0@Ogre@@UAE@XZ 1001be40 f i OgreD3D9Technique_Impl.obj
 0001:0001ae90       ??0D3DTech_sky_stdmtl_lod0@Ogre@@QAE@XZ 1001be90 f i OgreD3D9Technique_Impl.obj
 0001:0001aef0       ?clone@D3DTech_sky_stdmtl_lod0@Ogre@@UAEPAVD3DTech@2@XZ 1001bef0 f i OgreD3D9Technique_Impl.obj
 0001:0001af70       ?beginPass@D3DTech_sky_stdmtl_lod0@Ogre@@UAEXI@Z 1001bf70 f i OgreD3D9Technique_Impl.obj
 0001:0001afe0       ??0D3DTech_sky_stdmtl_shadowgen@Ogre@@QAE@XZ 1001bfe0 f i OgreD3D9Technique_Impl.obj
 0001:0001b040       ?clone@D3DTech_sky_stdmtl_shadowgen@Ogre@@UAEPAVD3DTech@2@XZ 1001c040 f i OgreD3D9Technique_Impl.obj
 0001:0001b0c0       ?init@D3DTech_Border_lod0@Ogre@@UAEXABUShaderEnvFlags@2@ABUMaterialMacro@2@@Z 1001c0c0 f i OgreD3D9Technique_Impl.obj
 0001:0001b0c0       ?init@D3DTech_sky_stdmtl_lod0@Ogre@@UAEXABUShaderEnvFlags@2@ABUMaterialMacro@2@@Z 1001c0c0 f i OgreD3D9Technique_Impl.obj
 0001:0001b0c0       ?init@D3DTech_Back1_lod0@Ogre@@UAEXABUShaderEnvFlags@2@ABUMaterialMacro@2@@Z 1001c0c0 f i OgreD3D9Technique_Impl.obj
 0001:0001b0c0       ?init@D3DTech_terrain_colormask_lod0@Ogre@@UAEXABUShaderEnvFlags@2@ABUMaterialMacro@2@@Z 1001c0c0 f i OgreD3D9Technique_Impl.obj
 0001:0001b0c0       ?init@D3DTech_footprint_lod0@Ogre@@UAEXABUShaderEnvFlags@2@ABUMaterialMacro@2@@Z 1001c0c0 f i OgreD3D9Technique_Impl.obj
 0001:0001b0c0       ?init@D3DTech_sky_stdmtl_shadowgen@Ogre@@UAEXABUShaderEnvFlags@2@ABUMaterialMacro@2@@Z 1001c0c0 f i OgreD3D9Technique_Impl.obj
 0001:0001b140       ?beginPass@D3DTech_sky_stdmtl_shadowgen@Ogre@@UAEXI@Z 1001c140 f i OgreD3D9Technique_Impl.obj
 0001:0001b1e0       ?endPass@D3DTech_sky_stdmtl_shadowgen@Ogre@@UAEXXZ 1001c1e0 f i OgreD3D9Technique_Impl.obj
 0001:0001b230       ??0D3DTech_decal_lod0@Ogre@@QAE@XZ 1001c230 f i OgreD3D9Technique_Impl.obj
 0001:0001b290       ?clone@D3DTech_decal_lod0@Ogre@@UAEPAVD3DTech@2@XZ 1001c290 f i OgreD3D9Technique_Impl.obj
 0001:0001b310       ?init@D3DTech_decal_lod0@Ogre@@UAEXABUShaderEnvFlags@2@ABUMaterialMacro@2@@Z 1001c310 f i OgreD3D9Technique_Impl.obj
 0001:0001b410       ?beginPass@D3DTech_decal_lod0@Ogre@@UAEXI@Z 1001c410 f i OgreD3D9Technique_Impl.obj
 0001:0001b5b0       ?SamplerState_Border@Ogre@@YAXPAUIDirect3DDevice9@@HI@Z 1001c5b0 f i OgreD3D9Technique_Impl.obj
 0001:0001b650       ?endPass@D3DTech_decal_lod0@Ogre@@UAEXXZ 1001c650 f i OgreD3D9Technique_Impl.obj
 0001:0001b650       ?endPass@D3DTech_distort_lod0@Ogre@@UAEXXZ 1001c650 f i OgreD3D9Technique_Impl.obj
 0001:0001b690       ??0D3DTech_decal_distort@Ogre@@QAE@XZ 1001c690 f i OgreD3D9Technique_Impl.obj
 0001:0001b6f0       ?clone@D3DTech_decal_distort@Ogre@@UAEPAVD3DTech@2@XZ 1001c6f0 f i OgreD3D9Technique_Impl.obj
 0001:0001b770       ?init@D3DTech_decal_distort@Ogre@@UAEXABUShaderEnvFlags@2@ABUMaterialMacro@2@@Z 1001c770 f i OgreD3D9Technique_Impl.obj
 0001:0001b800       ?beginPass@D3DTech_decal_distort@Ogre@@UAEXI@Z 1001c800 f i OgreD3D9Technique_Impl.obj
 0001:0001b880       ??0D3DTech_footprint_lod0@Ogre@@QAE@XZ 1001c880 f i OgreD3D9Technique_Impl.obj
 0001:0001b8e0       ?clone@D3DTech_footprint_lod0@Ogre@@UAEPAVD3DTech@2@XZ 1001c8e0 f i OgreD3D9Technique_Impl.obj
 0001:0001b960       ?beginPass@D3DTech_footprint_lod0@Ogre@@UAEXI@Z 1001c960 f i OgreD3D9Technique_Impl.obj
 0001:0001b9f0       ??0D3DTech_distort_lod0@Ogre@@QAE@XZ 1001c9f0 f i OgreD3D9Technique_Impl.obj
 0001:0001ba50       ?clone@D3DTech_distort_lod0@Ogre@@UAEPAVD3DTech@2@XZ 1001ca50 f i OgreD3D9Technique_Impl.obj
 0001:0001bad0       ?init@D3DTech_distort_lod0@Ogre@@UAEXABUShaderEnvFlags@2@ABUMaterialMacro@2@@Z 1001cad0 f i OgreD3D9Technique_Impl.obj
 0001:0001bb50       ?beginPass@D3DTech_distort_lod0@Ogre@@UAEXI@Z 1001cb50 f i OgreD3D9Technique_Impl.obj
 0001:0001bbf0       ??0D3DTech_bloom_lod0@Ogre@@QAE@XZ 1001cbf0 f i OgreD3D9Technique_Impl.obj
 0001:0001bc50       ?clone@D3DTech_bloom_lod0@Ogre@@UAEPAVD3DTech@2@XZ 1001cc50 f i OgreD3D9Technique_Impl.obj
 0001:0001bcd0       ?init@D3DTech_bloom_lod0@Ogre@@UAEXABUShaderEnvFlags@2@ABUMaterialMacro@2@@Z 1001ccd0 f i OgreD3D9Technique_Impl.obj
 0001:0001bea0       ?beginPass@D3DTech_bloom_lod0@Ogre@@UAEXI@Z 1001cea0 f i OgreD3D9Technique_Impl.obj
 0001:0001bfe0       ?SetDefaultState@Ogre@@YAXPAUIDirect3DDevice9@@@Z 1001cfe0 f i OgreD3D9Technique_Impl.obj
 0001:0001c200       ?endPass@D3DTech_bloom_lod0@Ogre@@UAEXXZ 1001d200 f i OgreD3D9Technique_Impl.obj
 0001:0001c250       ??0D3DTech_dirdecal_lod0@Ogre@@QAE@XZ 1001d250 f i OgreD3D9Technique_Impl.obj
 0001:0001c2b0       ?clone@D3DTech_dirdecal_lod0@Ogre@@UAEPAVD3DTech@2@XZ 1001d2b0 f i OgreD3D9Technique_Impl.obj
 0001:0001c330       ?init@D3DTech_dirdecal_lod0@Ogre@@UAEXABUShaderEnvFlags@2@ABUMaterialMacro@2@@Z 1001d330 f i OgreD3D9Technique_Impl.obj
 0001:0001c420       ?beginPass@D3DTech_dirdecal_lod0@Ogre@@UAEXI@Z 1001d420 f i OgreD3D9Technique_Impl.obj
 0001:0001c4b0       ?endPass@D3DTech_beach_lod0@Ogre@@UAEXXZ 1001d4b0 f i OgreD3D9Technique_Impl.obj
 0001:0001c4b0       ?endPass@D3DTech_dirdecal_lod0@Ogre@@UAEXXZ 1001d4b0 f i OgreD3D9Technique_Impl.obj
 0001:0001c4d0       ??0D3DTech_beach_lod0@Ogre@@QAE@XZ 1001d4d0 f i OgreD3D9Technique_Impl.obj
 0001:0001c530       ?clone@D3DTech_beach_lod0@Ogre@@UAEPAVD3DTech@2@XZ 1001d530 f i OgreD3D9Technique_Impl.obj
 0001:0001c5b0       ?init@D3DTech_beach_lod0@Ogre@@UAEXABUShaderEnvFlags@2@ABUMaterialMacro@2@@Z 1001d5b0 f i OgreD3D9Technique_Impl.obj
 0001:0001c6b0       ?beginPass@D3DTech_beach_lod0@Ogre@@UAEXI@Z 1001d6b0 f i OgreD3D9Technique_Impl.obj
 0001:0001c750       ??0D3DTech_Line_lod0@Ogre@@QAE@XZ 1001d750 f i OgreD3D9Technique_Impl.obj
 0001:0001c7b0       ?clone@D3DTech_Line_lod0@Ogre@@UAEPAVD3DTech@2@XZ 1001d7b0 f i OgreD3D9Technique_Impl.obj
 0001:0001c830       ?init@D3DTech_Line_lod0@Ogre@@UAEXABUShaderEnvFlags@2@ABUMaterialMacro@2@@Z 1001d830 f i OgreD3D9Technique_Impl.obj
 0001:0001c880       ?beginPass@D3DTech_Line_lod0@Ogre@@UAEXI@Z 1001d880 f i OgreD3D9Technique_Impl.obj
 0001:0001c920       ?endPass@D3DTech_Line_lod0@Ogre@@UAEXXZ 1001d920 f i OgreD3D9Technique_Impl.obj
 0001:0001c960       ??0D3D9VertexDecl@Ogre@@QAE@PAVD3D9RenderSystem@1@ABVVertexFormat@1@@Z 1001d960 f   OgreD3D9VertexDecl.obj
 0001:0001c9d0       ??1D3D9VertexDecl@Ogre@@QAE@XZ 1001d9d0 f   OgreD3D9VertexDecl.obj
 0001:0001ca50       ?create@D3D9VertexDecl@Ogre@@QAE_NXZ 1001da50 f   OgreD3D9VertexDecl.obj
 0001:0001cc90       ?onLostDevice@D3D9VertexDecl@Ogre@@QAEXXZ 1001dc90 f   OgreD3D9VertexDecl.obj
 0001:0001ccd0       ?onResetDevice@D3D9VertexDecl@Ogre@@QAE_NXZ 1001dcd0 f   OgreD3D9VertexDecl.obj
 0001:0001ccf0       ??0D3DVertexBufferPool@Ogre@@QAE@PAVD3D9RenderSystem@1@W4HardwareBufferUsage@1@I@Z 1001dcf0 f   OgreD3DHardwareBuffer.obj
 0001:0001cdd0       ??1D3DVertexBufferPool@Ogre@@UAE@XZ 1001ddd0 f   OgreD3DHardwareBuffer.obj
 0001:0001ce50       ?create@D3DVertexBufferPool@Ogre@@UAE_NXZ 1001de50 f   OgreD3DHardwareBuffer.obj
 0001:0001cee0       ?onLostDevice@D3DVertexBufferPool@Ogre@@UAEXXZ 1001dee0 f   OgreD3DHardwareBuffer.obj
 0001:0001cf40       ?onResetDevice@D3DVertexBufferPool@Ogre@@UAE_NXZ 1001df40 f   OgreD3DHardwareBuffer.obj
 0001:0001cf70       ?lock@D3DVertexBufferPool@Ogre@@UAEPAXIIW4HardwareBufferLockOpt@2@@Z 1001df70 f   OgreD3DHardwareBuffer.obj
 0001:0001d020       ?unlock@D3DVertexBufferPool@Ogre@@UAEXXZ 1001e020 f   OgreD3DHardwareBuffer.obj
 0001:0001d040       ??0D3DIndexBufferPool@Ogre@@QAE@PAVD3D9RenderSystem@1@W4HardwareBufferUsage@1@II@Z 1001e040 f   OgreD3DHardwareBuffer.obj
 0001:0001d130       ??1D3DIndexBufferPool@Ogre@@UAE@XZ 1001e130 f   OgreD3DHardwareBuffer.obj
 0001:0001d1b0       ?create@D3DIndexBufferPool@Ogre@@UAE_NXZ 1001e1b0 f   OgreD3DHardwareBuffer.obj
 0001:0001d240       ?onLostDevice@D3DIndexBufferPool@Ogre@@UAEXXZ 1001e240 f   OgreD3DHardwareBuffer.obj
 0001:0001d2b0       ?onResetDevice@D3DIndexBufferPool@Ogre@@UAE_NXZ 1001e2b0 f   OgreD3DHardwareBuffer.obj
 0001:0001d2e0       ?lock@D3DIndexBufferPool@Ogre@@UAEPAXIIW4HardwareBufferLockOpt@2@@Z 1001e2e0 f   OgreD3DHardwareBuffer.obj
 0001:0001d340       ?unlock@D3DIndexBufferPool@Ogre@@UAEXXZ 1001e340 f   OgreD3DHardwareBuffer.obj
 0001:0001d360       ?newPool@D3D9HardwareBufferManager@Ogre@@UAEPAVHardwareBufferPool@2@_NW4HardwareBufferUsage@2@II@Z 1001e360 f   OgreD3DHardwareBuffer.obj
 0001:0001d4f0       ?onLostDevice@D3D9HardwareBufferManager@Ogre@@QAEXXZ 1001e4f0 f   OgreD3DHardwareBuffer.obj
 0001:0001d580       ?onResetDevice@D3D9HardwareBufferManager@Ogre@@QAE_NXZ 1001e580 f   OgreD3DHardwareBuffer.obj
 0001:0001d610       ??0D3D9BufferPool@Ogre@@QAE@_NI0@Z 1001e610 f i OgreD3DHardwareBuffer.obj
 0001:0001d680       ??1D3D9BufferPool@Ogre@@UAE@XZ 1001e680 f i OgreD3DHardwareBuffer.obj
 0001:0001d6e0       ??_GD3D9BufferPool@Ogre@@UAEPAXI@Z 1001e6e0 f i OgreD3DHardwareBuffer.obj
 0001:0001d6e0       ??_ED3D9BufferPool@Ogre@@UAEPAXI@Z 1001e6e0 f i OgreD3DHardwareBuffer.obj
 0001:0001d710       ?getCreateFlags@D3D9RenderSystem@Ogre@@QAEKXZ 1001e710 f i OgreD3DHardwareBuffer.obj
 0001:0001d730       ??_GD3DVertexBufferPool@Ogre@@UAEPAXI@Z 1001e730 f i OgreD3DHardwareBuffer.obj
 0001:0001d730       ??_ED3DVertexBufferPool@Ogre@@UAEPAXI@Z 1001e730 f i OgreD3DHardwareBuffer.obj
 0001:0001d760       ?isDeviceLost@D3D9RenderSystem@Ogre@@QAE_NXZ 1001e760 f i OgreD3DHardwareBuffer.obj
 0001:0001d780       ??_GD3DIndexBufferPool@Ogre@@UAEPAXI@Z 1001e780 f i OgreD3DHardwareBuffer.obj
 0001:0001d780       ??_ED3DIndexBufferPool@Ogre@@UAEPAXI@Z 1001e780 f i OgreD3DHardwareBuffer.obj
 0001:0001d7b0       ??Eiterator@?$_Tree@V?$_Tmap_traits@VFixedString@Ogre@@PAVCompiledShaderGroup@2@U?$less@VFixedString@Ogre@@@std@@V?$allocator@U?$pair@$$CBVFixedString@Ogre@@PAVCompiledShaderGroup@2@@std@@@5@$0A@@std@@@std@@QAE?AV012@H@Z 1001e7b0 f i OgreD3DMaterialTemplate.obj
 0001:0001d7b0       ??Eiterator@?$_Tree@V?$_Tmap_traits@IPAVHardwarePixelBufferPool@Ogre@@U?$less@I@std@@V?$allocator@U?$pair@$$CBIPAVHardwarePixelBufferPool@Ogre@@@std@@@4@$0A@@std@@@std@@QAE?AV012@H@Z 1001e7b0 f i OgreD3D9HardwarePixelBuffer.obj
 0001:0001d7b0       ??Eiterator@?$_Tree@V?$_Tmap_traits@VFixedString@Ogre@@PAVMaterialTemplate@2@U?$less@VFixedString@Ogre@@@std@@V?$allocator@U?$pair@$$CBVFixedString@Ogre@@PAVMaterialTemplate@2@@std@@@5@$0A@@std@@@std@@QAE?AV012@H@Z 1001e7b0 f i OgreD3DMaterialTemplate.obj
 0001:0001d7b0       ??Eiterator@?$_Tree@V?$_Tmap_traits@IPAVHardwareBufferPool@Ogre@@U?$less@I@std@@V?$allocator@U?$pair@$$CBIPAVHardwareBufferPool@Ogre@@@std@@@4@$0A@@std@@@std@@QAE?AV012@H@Z 1001e7b0 f i OgreD3DHardwareBuffer.obj
 0001:0001d7f0       ?_Kfn@?$_Tmap_traits@VFixedString@Ogre@@PAVCompiledShaderGroup@2@U?$less@VFixedString@Ogre@@@std@@V?$allocator@U?$pair@$$CBVFixedString@Ogre@@PAVCompiledShaderGroup@2@@std@@@5@$0A@@std@@SAABVFixedString@Ogre@@ABU?$pair@$$CBVFixedString@Ogre@@PAVCompiledShaderGroup@2@@2@@Z 1001e7f0 f i OgreD3DMaterialTemplate.obj
 0001:0001d7f0       ?_Left@?$_Tree@V?$_Tmap_traits@IPAVHardwarePixelBufferPool@Ogre@@U?$less@I@std@@V?$allocator@U?$pair@$$CBIPAVHardwarePixelBufferPool@Ogre@@@std@@@4@$0A@@std@@@std@@KAAAPAU_Node@?$_Tree_nod@V?$_Tmap_traits@IPAVHardwarePixelBufferPool@Ogre@@U?$less@I@std@@V?$allocator@U?$pair@$$CBIPAVHardwarePixelBufferPool@Ogre@@@std@@@4@$0A@@std@@@2@PAU342@@Z 1001e7f0 f i OgreD3D9HardwarePixelBuffer.obj
 0001:0001d7f0       ?_Kfn@?$_Tmap_traits@TShaderEnvKey2@Ogre@@PAVD3DShaderTechnique@2@U?$less@TShaderEnvKey2@Ogre@@@std@@V?$allocator@U?$pair@$$CBTShaderEnvKey2@Ogre@@PAVD3DShaderTechnique@2@@std@@@5@$0A@@std@@SAABTShaderEnvKey2@Ogre@@ABU?$pair@$$CBTShaderEnvKey2@Ogre@@PAVD3DShaderTechnique@2@@2@@Z 1001e7f0 f i OgreD3DMaterialTemplate.obj
 0001:0001d7f0       ?_Left@?$_Tree@V?$_Tmap_traits@TShaderEnvKey@Ogre@@PAVD3DTech@2@U?$less@TShaderEnvKey@Ogre@@@std@@V?$allocator@U?$pair@$$CBTShaderEnvKey@Ogre@@PAVD3DTech@2@@std@@@5@$0A@@std@@@std@@KAAAPAU_Node@?$_Tree_nod@V?$_Tmap_traits@TShaderEnvKey@Ogre@@PAVD3DTech@2@U?$less@TShaderEnvKey@Ogre@@@std@@V?$allocator@U?$pair@$$CBTShaderEnvKey@Ogre@@PAVD3DTech@2@@std@@@5@$0A@@std@@@2@PAU342@@Z 1001e7f0 f i OgreD3DMaterialTemplate.obj
 0001:0001d7f0       ?_Kfn@?$_Tmap_traits@TShaderEnvKey@Ogre@@PAVD3DTech@2@U?$less@TShaderEnvKey@Ogre@@@std@@V?$allocator@U?$pair@$$CBTShaderEnvKey@Ogre@@PAVD3DTech@2@@std@@@5@$0A@@std@@SAABTShaderEnvKey@Ogre@@ABU?$pair@$$CBTShaderEnvKey@Ogre@@PAVD3DTech@2@@2@@Z 1001e7f0 f i OgreD3DMaterialTemplate.obj
 0001:0001d7f0       ?_Left@?$_Tree@V?$_Tmap_traits@TShaderEnvKey2@Ogre@@PAVD3DShaderTechnique@2@U?$less@TShaderEnvKey2@Ogre@@@std@@V?$allocator@U?$pair@$$CBTShaderEnvKey2@Ogre@@PAVD3DShaderTechnique@2@@std@@@5@$0A@@std@@@std@@KAAAPAU_Node@?$_Tree_nod@V?$_Tmap_traits@TShaderEnvKey2@Ogre@@PAVD3DShaderTechnique@2@U?$less@TShaderEnvKey2@Ogre@@@std@@V?$allocator@U?$pair@$$CBTShaderEnvKey2@Ogre@@PAVD3DShaderTechnique@2@@std@@@5@$0A@@std@@@2@PAU342@@Z 1001e7f0 f i OgreD3DMaterialTemplate.obj
 0001:0001d7f0       ?_Kfn@?$_Tmap_traits@TShaderEnvKey@Ogre@@PAVCompiledShader@2@U?$less@TShaderEnvKey@Ogre@@@std@@V?$allocator@U?$pair@$$CBTShaderEnvKey@Ogre@@PAVCompiledShader@2@@std@@@5@$0A@@std@@SAABTShaderEnvKey@Ogre@@ABU?$pair@$$CBTShaderEnvKey@Ogre@@PAVCompiledShader@2@@2@@Z 1001e7f0 f i OgreD3D9ShaderManager.obj
 0001:0001d7f0       ?_Left@?$_Tree@V?$_Tmap_traits@IPAVHardwareBufferPool@Ogre@@U?$less@I@std@@V?$allocator@U?$pair@$$CBIPAVHardwareBufferPool@Ogre@@@std@@@4@$0A@@std@@@std@@KAAAPAU_Node@?$_Tree_nod@V?$_Tmap_traits@IPAVHardwareBufferPool@Ogre@@U?$less@I@std@@V?$allocator@U?$pair@$$CBIPAVHardwareBufferPool@Ogre@@@std@@@4@$0A@@std@@@2@PAU342@@Z 1001e7f0 f i OgreD3DHardwareBuffer.obj
 0001:0001d7f0       ?_Left@?$_Tree@V?$_Tmap_traits@VFixedString@Ogre@@PAVMaterialTemplate@2@U?$less@VFixedString@Ogre@@@std@@V?$allocator@U?$pair@$$CBVFixedString@Ogre@@PAVMaterialTemplate@2@@std@@@5@$0A@@std@@@std@@KAAAPAU_Node@?$_Tree_nod@V?$_Tmap_traits@VFixedString@Ogre@@PAVMaterialTemplate@2@U?$less@VFixedString@Ogre@@@std@@V?$allocator@U?$pair@$$CBVFixedString@Ogre@@PAVMaterialTemplate@2@@std@@@5@$0A@@std@@@2@PAU342@@Z 1001e7f0 f i OgreD3DMaterialTemplate.obj
 0001:0001d7f0       ?_Left@?$_Tree@V?$_Tmap_traits@TShaderEnvKey@Ogre@@PAVCompiledShader@2@U?$less@TShaderEnvKey@Ogre@@@std@@V?$allocator@U?$pair@$$CBTShaderEnvKey@Ogre@@PAVCompiledShader@2@@std@@@5@$0A@@std@@@std@@KAAAPAU_Node@?$_Tree_nod@V?$_Tmap_traits@TShaderEnvKey@Ogre@@PAVCompiledShader@2@U?$less@TShaderEnvKey@Ogre@@@std@@V?$allocator@U?$pair@$$CBTShaderEnvKey@Ogre@@PAVCompiledShader@2@@std@@@5@$0A@@std@@@2@PAU342@@Z 1001e7f0 f i OgreD3D9ShaderManager.obj
 0001:0001d7f0       ?_Left@?$_Tree@V?$_Tmap_traits@VFixedString@Ogre@@PAVCompiledShaderGroup@2@U?$less@VFixedString@Ogre@@@std@@V?$allocator@U?$pair@$$CBVFixedString@Ogre@@PAVCompiledShaderGroup@2@@std@@@5@$0A@@std@@@std@@KAAAPAU_Node@?$_Tree_nod@V?$_Tmap_traits@VFixedString@Ogre@@PAVCompiledShaderGroup@2@U?$less@VFixedString@Ogre@@@std@@V?$allocator@U?$pair@$$CBVFixedString@Ogre@@PAVCompiledShaderGroup@2@@std@@@5@$0A@@std@@@2@PAU342@@Z 1001e7f0 f i OgreD3DMaterialTemplate.obj
 0001:0001d800       ?_Parent@?$_Tree@V?$_Tmap_traits@IPAVHardwareBufferPool@Ogre@@U?$less@I@std@@V?$allocator@U?$pair@$$CBIPAVHardwareBufferPool@Ogre@@@std@@@4@$0A@@std@@@std@@KAAAPAU_Node@?$_Tree_nod@V?$_Tmap_traits@IPAVHardwareBufferPool@Ogre@@U?$less@I@std@@V?$allocator@U?$pair@$$CBIPAVHardwareBufferPool@Ogre@@@std@@@4@$0A@@std@@@2@PAU342@@Z 1001e800 f i OgreD3DHardwareBuffer.obj
 0001:0001d800       ?_Parent@?$_Tree@V?$_Tmap_traits@TShaderEnvKey@Ogre@@PAVCompiledShader@2@U?$less@TShaderEnvKey@Ogre@@@std@@V?$allocator@U?$pair@$$CBTShaderEnvKey@Ogre@@PAVCompiledShader@2@@std@@@5@$0A@@std@@@std@@KAAAPAU_Node@?$_Tree_nod@V?$_Tmap_traits@TShaderEnvKey@Ogre@@PAVCompiledShader@2@U?$less@TShaderEnvKey@Ogre@@@std@@V?$allocator@U?$pair@$$CBTShaderEnvKey@Ogre@@PAVCompiledShader@2@@std@@@5@$0A@@std@@@2@PAU342@@Z 1001e800 f i OgreD3D9ShaderManager.obj
 0001:0001d800       ?_Parent@?$_Tree@V?$_Tmap_traits@TShaderEnvKey@Ogre@@PAVD3DTech@2@U?$less@TShaderEnvKey@Ogre@@@std@@V?$allocator@U?$pair@$$CBTShaderEnvKey@Ogre@@PAVD3DTech@2@@std@@@5@$0A@@std@@@std@@KAAAPAU_Node@?$_Tree_nod@V?$_Tmap_traits@TShaderEnvKey@Ogre@@PAVD3DTech@2@U?$less@TShaderEnvKey@Ogre@@@std@@V?$allocator@U?$pair@$$CBTShaderEnvKey@Ogre@@PAVD3DTech@2@@std@@@5@$0A@@std@@@2@PAU342@@Z 1001e800 f i OgreD3DMaterialTemplate.obj
 0001:0001d800       ?_Parent@?$_Tree@V?$_Tmap_traits@TShaderEnvKey2@Ogre@@PAVD3DShaderTechnique@2@U?$less@TShaderEnvKey2@Ogre@@@std@@V?$allocator@U?$pair@$$CBTShaderEnvKey2@Ogre@@PAVD3DShaderTechnique@2@@std@@@5@$0A@@std@@@std@@KAAAPAU_Node@?$_Tree_nod@V?$_Tmap_traits@TShaderEnvKey2@Ogre@@PAVD3DShaderTechnique@2@U?$less@TShaderEnvKey2@Ogre@@@std@@V?$allocator@U?$pair@$$CBTShaderEnvKey2@Ogre@@PAVD3DShaderTechnique@2@@std@@@5@$0A@@std@@@2@PAU342@@Z 1001e800 f i OgreD3DMaterialTemplate.obj
 0001:0001d800       ?_Parent@?$_Tree@V?$_Tmap_traits@VFixedString@Ogre@@PAVMaterialTemplate@2@U?$less@VFixedString@Ogre@@@std@@V?$allocator@U?$pair@$$CBVFixedString@Ogre@@PAVMaterialTemplate@2@@std@@@5@$0A@@std@@@std@@KAAAPAU_Node@?$_Tree_nod@V?$_Tmap_traits@VFixedString@Ogre@@PAVMaterialTemplate@2@U?$less@VFixedString@Ogre@@@std@@V?$allocator@U?$pair@$$CBVFixedString@Ogre@@PAVMaterialTemplate@2@@std@@@5@$0A@@std@@@2@PAU342@@Z 1001e800 f i OgreD3DMaterialTemplate.obj
 0001:0001d800       ?_Parent@?$_Tree@V?$_Tmap_traits@VFixedString@Ogre@@PAVCompiledShaderGroup@2@U?$less@VFixedString@Ogre@@@std@@V?$allocator@U?$pair@$$CBVFixedString@Ogre@@PAVCompiledShaderGroup@2@@std@@@5@$0A@@std@@@std@@KAAAPAU_Node@?$_Tree_nod@V?$_Tmap_traits@VFixedString@Ogre@@PAVCompiledShaderGroup@2@U?$less@VFixedString@Ogre@@@std@@V?$allocator@U?$pair@$$CBVFixedString@Ogre@@PAVCompiledShaderGroup@2@@std@@@5@$0A@@std@@@2@PAU342@@Z 1001e800 f i OgreD3DMaterialTemplate.obj
 0001:0001d800       ?_Parent@?$_Tree@V?$_Tmap_traits@IPAVHardwarePixelBufferPool@Ogre@@U?$less@I@std@@V?$allocator@U?$pair@$$CBIPAVHardwarePixelBufferPool@Ogre@@@std@@@4@$0A@@std@@@std@@KAAAPAU_Node@?$_Tree_nod@V?$_Tmap_traits@IPAVHardwarePixelBufferPool@Ogre@@U?$less@I@std@@V?$allocator@U?$pair@$$CBIPAVHardwarePixelBufferPool@Ogre@@@std@@@4@$0A@@std@@@2@PAU342@@Z 1001e800 f i OgreD3D9HardwarePixelBuffer.obj
 0001:0001d810       ??0D3DMaterialTemplate@Ogre@@QAE@PAVD3D9RenderSystem@1@ABVFixedString@1@@Z 1001e810 f   OgreD3DMaterialTemplate.obj
 0001:0001d8d0       ??1D3DMaterialTemplate@Ogre@@UAE@XZ 1001e8d0 f   OgreD3DMaterialTemplate.obj
 0001:0001da80       ?init@D3DMaterialTemplate@Ogre@@UAE_NVXMLNode@2@@Z 1001ea80 f   OgreD3DMaterialTemplate.obj
 0001:0001dcb0       ?getCompiledVSPS@D3DMaterialTemplate@Ogre@@QAEPAVCompiledShader@2@W4COMPILED_TYPE@2@PBDABUShaderEnvFlags@2@ABUMaterialMacro@2@@Z 1001ecb0 f   OgreD3DMaterialTemplate.obj
 0001:0001dfc0       ?getShaderTechnique_old@D3DMaterialTemplate@Ogre@@QAEPAVShaderTechnique@2@ABUShaderEnvFlags@2@ABUMaterialMacro@2@IW4RenderUsage@2@@Z 1001efc0 f   OgreD3DMaterialTemplate.obj
 0001:0001e120       ?getRequiredParams_old@D3DMaterialTemplate@Ogre@@QAEIPAW4ShaderParamUsage@2@IABUShaderEnvFlags@2@ABUMaterialMacro@2@IW4RenderUsage@2@@Z 1001f120 f   OgreD3DMaterialTemplate.obj
 0001:0001e280       ?findTechCache@D3DMaterialTemplate@Ogre@@AAEPAUTechCache@12@IW4RenderUsage@2@@Z 1001f280 f   OgreD3DMaterialTemplate.obj
 0001:0001e310       ?getShaderTechnique@D3DMaterialTemplate@Ogre@@UAEPAVShaderTechnique@2@ABUShaderEnvFlags@2@ABUMaterialMacro@2@IW4RenderUsage@2@@Z 1001f310 f   OgreD3DMaterialTemplate.obj
 0001:0001e570       ?getRequiredParams@D3DMaterialTemplate@Ogre@@UAEIPAW4ShaderParamUsage@2@IABUShaderEnvFlags@2@ABUMaterialMacro@2@IW4RenderUsage@2@@Z 1001f570 f   OgreD3DMaterialTemplate.obj
 0001:0001e730       ?onLostDevice@D3DMaterialTemplate@Ogre@@QAEXXZ 1001f730 f   OgreD3DMaterialTemplate.obj
 0001:0001e7b0       ?onResetDevice@D3DMaterialTemplate@Ogre@@QAE_NXZ 1001f7b0 f   OgreD3DMaterialTemplate.obj
 0001:0001e840       ?compileAllShaders@D3DMaterialTemplate@Ogre@@UAEXXZ 1001f840 f   OgreD3DMaterialTemplate.obj
 0001:0001e8c0       ?loadCompiledShaders@D3DMaterialTemplate@Ogre@@QAEXPAU_iobuf@@AAVCMd5@@@Z 1001f8c0 f   OgreD3DMaterialTemplate.obj
 0001:0001efe0       ?saveCompiledShaders@D3DMaterialTemplate@Ogre@@QAEXPAU_iobuf@@AAVCMd5@@@Z 1001ffe0 f   OgreD3DMaterialTemplate.obj
 0001:0001f4d0       ?loadShaderEnvKeysFromDataStream@D3DMaterialTemplate@Ogre@@QAEXPAVDataStream@2@@Z 100204d0 f   OgreD3DMaterialTemplate.obj
 0001:0001f6d0       ?saveShaderEnvKeys@D3DMaterialTemplate@Ogre@@QAEXPAU_iobuf@@@Z 100206d0 f   OgreD3DMaterialTemplate.obj
 0001:0001f940       ?loadCompiledShadersFromDataStream@D3DMaterialTemplate@Ogre@@QAEXPAVDataStream@2@@Z 10020940 f   OgreD3DMaterialTemplate.obj
 0001:00020040       ??0D3D9MaterialManager@Ogre@@QAE@PAVD3D9RenderSystem@1@@Z 10021040 f   OgreD3DMaterialTemplate.obj
 0001:000200b0       ??1D3D9MaterialManager@Ogre@@UAE@XZ 100210b0 f   OgreD3DMaterialTemplate.obj
 0001:00020110       ?onLostDevice@D3D9MaterialManager@Ogre@@QAEXXZ 10021110 f   OgreD3DMaterialTemplate.obj
 0001:00020180       ?onResetDevice@D3D9MaterialManager@Ogre@@QAE_NXZ 10021180 f   OgreD3DMaterialTemplate.obj
 0001:000201f0       ?saveCompiledShaders@D3D9MaterialManager@Ogre@@QAEXXZ 100211f0 f   OgreD3DMaterialTemplate.obj
 0001:00020440       ?loadShaderEnvKeys@D3D9MaterialManager@Ogre@@QAEXXZ 10021440 f   OgreD3DMaterialTemplate.obj
 0001:00020660       ?saveShaderEnvKeys@D3D9MaterialManager@Ogre@@QAEXXZ 10021660 f   OgreD3DMaterialTemplate.obj
 0001:000207e0       ?loadCompiledShaders@D3D9MaterialManager@Ogre@@QAEXXZ 100217e0 f   OgreD3DMaterialTemplate.obj
 0001:000207f0       ?loadCompiledSahdersFromDataStream@D3D9MaterialManager@Ogre@@QAEXXZ 100217f0 f   OgreD3DMaterialTemplate.obj
 0001:00021150       ?saveCompiledSahdersToDataStream@D3D9MaterialManager@Ogre@@QAEXXZ 10022150 f   OgreD3DMaterialTemplate.obj
 0001:00021160       ??_ED3DMaterialTemplate@Ogre@@UAEPAXI@Z 10022160 f i OgreD3DMaterialTemplate.obj
 0001:00021160       ??_GD3DMaterialTemplate@Ogre@@UAEPAXI@Z 10022160 f i OgreD3DMaterialTemplate.obj
 0001:00021190       ??1?$map@VFixedString@Ogre@@PAVCompiledShaderGroup@2@U?$less@VFixedString@Ogre@@@std@@V?$allocator@U?$pair@$$CBVFixedString@Ogre@@PAVCompiledShaderGroup@2@@std@@@5@@std@@QAE@XZ 10022190 f i OgreD3DMaterialTemplate.obj
 0001:000211e0       ??1?$map@TShaderEnvKey2@Ogre@@PAVD3DShaderTechnique@2@U?$less@TShaderEnvKey2@Ogre@@@std@@V?$allocator@U?$pair@$$CBTShaderEnvKey2@Ogre@@PAVD3DShaderTechnique@2@@std@@@5@@std@@QAE@XZ 100221e0 f i OgreD3DMaterialTemplate.obj
 0001:00021230       ??_GCompiledShaderGroup@Ogre@@QAEPAXI@Z 10022230 f i OgreD3DMaterialTemplate.obj
 0001:00021260       ??0TechCache@D3DMaterialTemplate@Ogre@@QAE@XZ 10022260 f i OgreD3DMaterialTemplate.obj
 0001:000212d0       ??0ShaderEnvKey2@Ogre@@QAE@XZ 100222d0 f i OgreD3DMaterialTemplate.obj
 0001:00021310       ??0ShaderEnv@Ogre@@QAE@XZ  10022310 f i OgreD3DMaterialTemplate.obj
 0001:00021330       ?newMtlTemplate@D3D9MaterialManager@Ogre@@UAEPAVMaterialTemplate@2@ABVFixedString@2@@Z 10022330 f i OgreD3DMaterialTemplate.obj
 0001:000213c0       ?createRawShader@D3D9MaterialManager@Ogre@@UAEPAVShaderTechnique@2@ABVFixedString@2@@Z 100223c0 f i OgreD3DMaterialTemplate.obj
 0001:000213d0       ??_ED3D9MaterialManager@Ogre@@UAEPAXI@Z 100223d0 f i OgreD3DMaterialTemplate.obj
 0001:000213d0       ??_GD3D9MaterialManager@Ogre@@UAEPAXI@Z 100223d0 f i OgreD3DMaterialTemplate.obj
 0001:00021400       ?push_back@?$vector@UShaderEnv@Ogre@@V?$allocator@UShaderEnv@Ogre@@@std@@@std@@QAEXABUShaderEnv@Ogre@@@Z 10022400 f i OgreD3DMaterialTemplate.obj
 0001:00021480       ?size@?$_Tree@V?$_Tmap_traits@VFixedString@Ogre@@PAVMaterialTemplate@2@U?$less@VFixedString@Ogre@@@std@@V?$allocator@U?$pair@$$CBVFixedString@Ogre@@PAVMaterialTemplate@2@@std@@@5@$0A@@std@@@std@@QBEIXZ 10022480 f i OgreD3DMaterialTemplate.obj
 0001:00021480       ?size@?$_Tree@V?$_Tmap_traits@TShaderEnvKey@Ogre@@PAVCompiledShader@2@U?$less@TShaderEnvKey@Ogre@@@std@@V?$allocator@U?$pair@$$CBTShaderEnvKey@Ogre@@PAVCompiledShader@2@@std@@@5@$0A@@std@@@std@@QBEIXZ 10022480 f i OgreD3D9ShaderManager.obj
 0001:00021480       ?size@?$_Tree@V?$_Tmap_traits@VFixedString@Ogre@@PAVCompiledShaderGroup@2@U?$less@VFixedString@Ogre@@@std@@V?$allocator@U?$pair@$$CBVFixedString@Ogre@@PAVCompiledShaderGroup@2@@std@@@5@$0A@@std@@@std@@QBEIXZ 10022480 f i OgreD3DMaterialTemplate.obj
 0001:00021480       ?size@?$_Tree@V?$_Tmap_traits@TShaderEnvKey@Ogre@@PAVD3DTech@2@U?$less@TShaderEnvKey@Ogre@@@std@@V?$allocator@U?$pair@$$CBTShaderEnvKey@Ogre@@PAVD3DTech@2@@std@@@5@$0A@@std@@@std@@QBEIXZ 10022480 f i OgreD3DMaterialTemplate.obj
 0001:00021480       ?size@?$_Tree@V?$_Tmap_traits@TShaderEnvKey2@Ogre@@PAVD3DShaderTechnique@2@U?$less@TShaderEnvKey2@Ogre@@@std@@V?$allocator@U?$pair@$$CBTShaderEnvKey2@Ogre@@PAVD3DShaderTechnique@2@@std@@@5@$0A@@std@@@std@@QBEIXZ 10022480 f i OgreD3DMaterialTemplate.obj
 0001:000214a0       ??0?$map@TShaderEnvKey@Ogre@@PAVD3DTech@2@U?$less@TShaderEnvKey@Ogre@@@std@@V?$allocator@U?$pair@$$CBTShaderEnvKey@Ogre@@PAVD3DTech@2@@std@@@5@@std@@QAE@XZ 100224a0 f i OgreD3DMaterialTemplate.obj
 0001:000214a0       ??0?$map@TShaderEnvKey@Ogre@@PAVCompiledShader@2@U?$less@TShaderEnvKey@Ogre@@@std@@V?$allocator@U?$pair@$$CBTShaderEnvKey@Ogre@@PAVCompiledShader@2@@std@@@5@@std@@QAE@XZ 100224a0 f i OgreD3D9ShaderManager.obj
 0001:00021500       ??A?$map@TShaderEnvKey@Ogre@@PAVD3DTech@2@U?$less@TShaderEnvKey@Ogre@@@std@@V?$allocator@U?$pair@$$CBTShaderEnvKey@Ogre@@PAVD3DTech@2@@std@@@5@@std@@QAEAAPAVD3DTech@Ogre@@ABTShaderEnvKey@3@@Z 10022500 f i OgreD3DMaterialTemplate.obj
 0001:00021500       ??A?$map@TShaderEnvKey@Ogre@@PAVCompiledShader@2@U?$less@TShaderEnvKey@Ogre@@@std@@V?$allocator@U?$pair@$$CBTShaderEnvKey@Ogre@@PAVCompiledShader@2@@std@@@5@@std@@QAEAAPAVCompiledShader@Ogre@@ABTShaderEnvKey@3@@Z 10022500 f i OgreD3D9ShaderManager.obj
 0001:000215c0       ??0?$map@VFixedString@Ogre@@PAVCompiledShaderGroup@2@U?$less@VFixedString@Ogre@@@std@@V?$allocator@U?$pair@$$CBVFixedString@Ogre@@PAVCompiledShaderGroup@2@@std@@@5@@std@@QAE@XZ 100225c0 f i OgreD3DMaterialTemplate.obj
 0001:00021620       ??A?$map@VFixedString@Ogre@@PAVCompiledShaderGroup@2@U?$less@VFixedString@Ogre@@@std@@V?$allocator@U?$pair@$$CBVFixedString@Ogre@@PAVCompiledShaderGroup@2@@std@@@5@@std@@QAEAAPAVCompiledShaderGroup@Ogre@@ABVFixedString@3@@Z 10022620 f i OgreD3DMaterialTemplate.obj
 0001:00021720       ??1?$_Tree@V?$_Tmap_traits@VFixedString@Ogre@@PAVCompiledShaderGroup@2@U?$less@VFixedString@Ogre@@@std@@V?$allocator@U?$pair@$$CBVFixedString@Ogre@@PAVCompiledShaderGroup@2@@std@@@5@$0A@@std@@@std@@QAE@XZ 10022720 f i OgreD3DMaterialTemplate.obj
 0001:00021780       ?find@?$_Tree@V?$_Tmap_traits@VFixedString@Ogre@@PAVCompiledShaderGroup@2@U?$less@VFixedString@Ogre@@@std@@V?$allocator@U?$pair@$$CBVFixedString@Ogre@@PAVCompiledShaderGroup@2@@std@@@5@$0A@@std@@@std@@QAE?AViterator@12@ABVFixedString@Ogre@@@Z 10022780 f i OgreD3DMaterialTemplate.obj
 0001:00021820       ??0?$map@TShaderEnvKey2@Ogre@@PAVD3DShaderTechnique@2@U?$less@TShaderEnvKey2@Ogre@@@std@@V?$allocator@U?$pair@$$CBTShaderEnvKey2@Ogre@@PAVD3DShaderTechnique@2@@std@@@5@@std@@QAE@XZ 10022820 f i OgreD3DMaterialTemplate.obj
 0001:00021880       ??A?$map@TShaderEnvKey2@Ogre@@PAVD3DShaderTechnique@2@U?$less@TShaderEnvKey2@Ogre@@@std@@V?$allocator@U?$pair@$$CBTShaderEnvKey2@Ogre@@PAVD3DShaderTechnique@2@@std@@@5@@std@@QAEAAPAVD3DShaderTechnique@Ogre@@ABTShaderEnvKey2@3@@Z 10022880 f i OgreD3DMaterialTemplate.obj
 0001:00021940       ??1?$_Tree@V?$_Tmap_traits@TShaderEnvKey2@Ogre@@PAVD3DShaderTechnique@2@U?$less@TShaderEnvKey2@Ogre@@@std@@V?$allocator@U?$pair@$$CBTShaderEnvKey2@Ogre@@PAVD3DShaderTechnique@2@@std@@@5@$0A@@std@@@std@@QAE@XZ 10022940 f i OgreD3DMaterialTemplate.obj
 0001:000219a0       ?begin@?$_Tree@V?$_Tmap_traits@IPAVHardwareBufferPool@Ogre@@U?$less@I@std@@V?$allocator@U?$pair@$$CBIPAVHardwareBufferPool@Ogre@@@std@@@4@$0A@@std@@@std@@QAE?AViterator@12@XZ 100229a0 f i OgreD3DHardwareBuffer.obj
 0001:000219a0       ?begin@?$_Tree@V?$_Tmap_traits@VFixedString@Ogre@@PAVCompiledShaderGroup@2@U?$less@VFixedString@Ogre@@@std@@V?$allocator@U?$pair@$$CBVFixedString@Ogre@@PAVCompiledShaderGroup@2@@std@@@5@$0A@@std@@@std@@QAE?AViterator@12@XZ 100229a0 f i OgreD3DMaterialTemplate.obj
 0001:000219a0       ?begin@?$_Tree@V?$_Tmap_traits@TShaderEnvKey@Ogre@@PAVD3DTech@2@U?$less@TShaderEnvKey@Ogre@@@std@@V?$allocator@U?$pair@$$CBTShaderEnvKey@Ogre@@PAVD3DTech@2@@std@@@5@$0A@@std@@@std@@QAE?AViterator@12@XZ 100229a0 f i OgreD3DMaterialTemplate.obj
 0001:000219a0       ?begin@?$_Tree@V?$_Tmap_traits@IPAVHardwarePixelBufferPool@Ogre@@U?$less@I@std@@V?$allocator@U?$pair@$$CBIPAVHardwarePixelBufferPool@Ogre@@@std@@@4@$0A@@std@@@std@@QAE?AViterator@12@XZ 100229a0 f i OgreD3D9HardwarePixelBuffer.obj
 0001:000219a0       ?begin@?$_Tree@V?$_Tmap_traits@TShaderEnvKey@Ogre@@PAVCompiledShader@2@U?$less@TShaderEnvKey@Ogre@@@std@@V?$allocator@U?$pair@$$CBTShaderEnvKey@Ogre@@PAVCompiledShader@2@@std@@@5@$0A@@std@@@std@@QAE?AViterator@12@XZ 100229a0 f i OgreD3D9ShaderManager.obj
 0001:000219a0       ?begin@?$_Tree@V?$_Tmap_traits@TShaderEnvKey2@Ogre@@PAVD3DShaderTechnique@2@U?$less@TShaderEnvKey2@Ogre@@@std@@V?$allocator@U?$pair@$$CBTShaderEnvKey2@Ogre@@PAVD3DShaderTechnique@2@@std@@@5@$0A@@std@@@std@@QAE?AViterator@12@XZ 100229a0 f i OgreD3DMaterialTemplate.obj
 0001:000219a0       ?begin@?$_Tree@V?$_Tmap_traits@VFixedString@Ogre@@PAVMaterialTemplate@2@U?$less@VFixedString@Ogre@@@std@@V?$allocator@U?$pair@$$CBVFixedString@Ogre@@PAVMaterialTemplate@2@@std@@@5@$0A@@std@@@std@@QAE?AViterator@12@XZ 100229a0 f i OgreD3DMaterialTemplate.obj
 0001:000219d0       ?find@?$_Tree@V?$_Tmap_traits@TShaderEnvKey2@Ogre@@PAVD3DShaderTechnique@2@U?$less@TShaderEnvKey2@Ogre@@@std@@V?$allocator@U?$pair@$$CBTShaderEnvKey2@Ogre@@PAVD3DShaderTechnique@2@@std@@@5@$0A@@std@@@std@@QAE?AViterator@12@ABTShaderEnvKey2@Ogre@@@Z 100229d0 f i OgreD3DMaterialTemplate.obj
 0001:00021a70       ?push_back@?$vector@PAUD3DDEVICEINFO_T@Ogre@@V?$allocator@PAUD3DDEVICEINFO_T@Ogre@@@std@@@std@@QAEXABQAUD3DDEVICEINFO_T@Ogre@@@Z 10022a70 f i OgreD3D9DriverEnum.obj
 0001:00021a70       ?push_back@?$vector@PAVD3D9VertexDecl@Ogre@@V?$allocator@PAVD3D9VertexDecl@Ogre@@@std@@@std@@QAEXABQAVD3D9VertexDecl@Ogre@@@Z 10022a70 f i OgreD3D9RenderSystem.obj
 0001:00021a70       ?push_back@?$vector@PAUD3DDEVCOMBO_T@Ogre@@V?$allocator@PAUD3DDEVCOMBO_T@Ogre@@@std@@@std@@QAEXABQAUD3DDEVCOMBO_T@Ogre@@@Z 10022a70 f i OgreD3D9DriverEnum.obj
 0001:00021a70       ?push_back@?$vector@PAUTechniqueDesc@Ogre@@V?$allocator@PAUTechniqueDesc@Ogre@@@std@@@std@@QAEXABQAUTechniqueDesc@Ogre@@@Z 10022a70 f i OgreD3D9ShaderManager.obj
 0001:00021a70       ?push_back@?$vector@IV?$allocator@I@std@@@std@@QAEXABI@Z 10022a70 f i OgreD3D9DriverEnum.obj
 0001:00021a70       ?push_back@?$vector@PAVD3DRenderWindow@Ogre@@V?$allocator@PAVD3DRenderWindow@Ogre@@@std@@@std@@QAEXABQAVD3DRenderWindow@Ogre@@@Z 10022a70 f i OgreD3D9RenderSystem.obj
 0001:00021a70       ?push_back@?$vector@PAUTechCache@D3DMaterialTemplate@Ogre@@V?$allocator@PAUTechCache@D3DMaterialTemplate@Ogre@@@std@@@std@@QAEXABQAUTechCache@D3DMaterialTemplate@Ogre@@@Z 10022a70 f i OgreD3DMaterialTemplate.obj
 0001:00021a70       ?push_back@?$vector@PAUD3DADAPTER_T@Ogre@@V?$allocator@PAUD3DADAPTER_T@Ogre@@@std@@@std@@QAEXABQAUD3DADAPTER_T@Ogre@@@Z 10022a70 f i OgreD3D9DriverEnum.obj
 0001:00021a70       ?push_back@?$vector@PAVCompiledShader@Ogre@@V?$allocator@PAVCompiledShader@Ogre@@@std@@@std@@QAEXABQAVCompiledShader@Ogre@@@Z 10022a70 f i OgreD3D9ShaderManager.obj
 0001:00021a70       ?push_back@?$vector@PAVD3D9TextureRenderTarget@Ogre@@V?$allocator@PAVD3D9TextureRenderTarget@Ogre@@@std@@@std@@QAEXABQAVD3D9TextureRenderTarget@Ogre@@@Z 10022a70 f i OgreD3D9HardwarePixelBuffer.obj
 0001:00021af0       ??Citerator@?$_Tree@V?$_Tmap_traits@TShaderEnvKey@Ogre@@PAVCompiledShader@2@U?$less@TShaderEnvKey@Ogre@@@std@@V?$allocator@U?$pair@$$CBTShaderEnvKey@Ogre@@PAVCompiledShader@2@@std@@@5@$0A@@std@@@std@@QBEPAU?$pair@$$CBTShaderEnvKey@Ogre@@PAVCompiledShader@2@@2@XZ 10022af0 f i OgreD3D9ShaderManager.obj
 0001:00021af0       ??Citerator@?$_Tree@V?$_Tmap_traits@TShaderEnvKey2@Ogre@@PAVD3DShaderTechnique@2@U?$less@TShaderEnvKey2@Ogre@@@std@@V?$allocator@U?$pair@$$CBTShaderEnvKey2@Ogre@@PAVD3DShaderTechnique@2@@std@@@5@$0A@@std@@@std@@QBEPAU?$pair@$$CBTShaderEnvKey2@Ogre@@PAVD3DShaderTechnique@2@@2@XZ 10022af0 f i OgreD3DMaterialTemplate.obj
 0001:00021af0       ??Citerator@?$_Tree@V?$_Tmap_traits@TShaderEnvKey@Ogre@@PAVD3DTech@2@U?$less@TShaderEnvKey@Ogre@@@std@@V?$allocator@U?$pair@$$CBTShaderEnvKey@Ogre@@PAVD3DTech@2@@std@@@5@$0A@@std@@@std@@QBEPAU?$pair@$$CBTShaderEnvKey@Ogre@@PAVD3DTech@2@@2@XZ 10022af0 f i OgreD3DMaterialTemplate.obj
 0001:00021b10       ??Eiterator@?$_Tree@V?$_Tmap_traits@TShaderEnvKey2@Ogre@@PAVD3DShaderTechnique@2@U?$less@TShaderEnvKey2@Ogre@@@std@@V?$allocator@U?$pair@$$CBTShaderEnvKey2@Ogre@@PAVD3DShaderTechnique@2@@std@@@5@$0A@@std@@@std@@QAE?AV012@H@Z 10022b10 f i OgreD3DMaterialTemplate.obj
 0001:00021b50       ??9const_iterator@?$_Tree@V?$_Tmap_traits@IPAVHardwareBufferPool@Ogre@@U?$less@I@std@@V?$allocator@U?$pair@$$CBIPAVHardwareBufferPool@Ogre@@@std@@@4@$0A@@std@@@std@@QBE_NABV012@@Z 10022b50 f i OgreD3DHardwareBuffer.obj
 0001:00021b50       ??9?$_Vector_const_iterator@PAVD3DRenderWindow@Ogre@@V?$allocator@PAVD3DRenderWindow@Ogre@@@std@@@std@@QBE_NABV01@@Z 10022b50 f i OgreD3D9RenderSystem.obj
 0001:00021b50       ??9?$_Vector_const_iterator@PAVHardwarePixelBuffer@Ogre@@V?$allocator@PAVHardwarePixelBuffer@Ogre@@@std@@@std@@QBE_NABV01@@Z 10022b50 f i OgreD3D9HardwarePixelBuffer.obj
 0001:00021b50       ??9?$_Vector_const_iterator@PAVD3D9TextureRenderTarget@Ogre@@V?$allocator@PAVD3D9TextureRenderTarget@Ogre@@@std@@@std@@QBE_NABV01@@Z 10022b50 f i OgreD3D9HardwarePixelBuffer.obj
 0001:00021b50       ??9?$_Vector_const_iterator@PAVD3D9VertexDecl@Ogre@@V?$allocator@PAVD3D9VertexDecl@Ogre@@@std@@@std@@QBE_NABV01@@Z 10022b50 f i OgreD3D9RenderSystem.obj
 0001:00021b50       ??9?$_Vector_const_iterator@DV?$allocator@D@std@@@std@@QBE_NABV01@@Z 10022b50 f i OgreD3D9ShaderManager.obj
 0001:00021b50       ??9const_iterator@?$_Tree@V?$_Tmap_traits@TShaderEnvKey2@Ogre@@PAVD3DShaderTechnique@2@U?$less@TShaderEnvKey2@Ogre@@@std@@V?$allocator@U?$pair@$$CBTShaderEnvKey2@Ogre@@PAVD3DShaderTechnique@2@@std@@@5@$0A@@std@@@std@@QBE_NABV012@@Z 10022b50 f i OgreD3DMaterialTemplate.obj
 0001:00021b50       ??9?$_Vector_const_iterator@UPassData@D3DShaderTechnique@Ogre@@V?$allocator@UPassData@D3DShaderTechnique@Ogre@@@std@@@std@@QBE_NABV01@@Z 10022b50 f i OgreD3D9ShaderManager.obj
 0001:00021b50       ??9const_iterator@?$_Tree@V?$_Tmap_traits@VFixedString@Ogre@@PAVMaterialTemplate@2@U?$less@VFixedString@Ogre@@@std@@V?$allocator@U?$pair@$$CBVFixedString@Ogre@@PAVMaterialTemplate@2@@std@@@5@$0A@@std@@@std@@QBE_NABV012@@Z 10022b50 f i OgreD3DMaterialTemplate.obj
 0001:00021b50       ??9const_iterator@?$_Tree@V?$_Tmap_traits@TShaderEnvKey@Ogre@@PAVD3DTech@2@U?$less@TShaderEnvKey@Ogre@@@std@@V?$allocator@U?$pair@$$CBTShaderEnvKey@Ogre@@PAVD3DTech@2@@std@@@5@$0A@@std@@@std@@QBE_NABV012@@Z 10022b50 f i OgreD3DMaterialTemplate.obj
 0001:00021b50       ??9?$_Vector_const_iterator@URTBuffer@D3D9HardwarePixelBufferManager@Ogre@@V?$allocator@URTBuffer@D3D9HardwarePixelBufferManager@Ogre@@@std@@@std@@QBE_NABV01@@Z 10022b50 f i OgreD3D9HardwarePixelBuffer.obj
 0001:00021b50       ??9const_iterator@?$_Tree@V?$_Tmap_traits@IPAVHardwarePixelBufferPool@Ogre@@U?$less@I@std@@V?$allocator@U?$pair@$$CBIPAVHardwarePixelBufferPool@Ogre@@@std@@@4@$0A@@std@@@std@@QBE_NABV012@@Z 10022b50 f i OgreD3D9HardwarePixelBuffer.obj
 0001:00021b50       ??9const_iterator@?$_Tree@V?$_Tmap_traits@VFixedString@Ogre@@PAVCompiledShaderGroup@2@U?$less@VFixedString@Ogre@@@std@@V?$allocator@U?$pair@$$CBVFixedString@Ogre@@PAVCompiledShaderGroup@2@@std@@@5@$0A@@std@@@std@@QBE_NABV012@@Z 10022b50 f i OgreD3DMaterialTemplate.obj
 0001:00021b50       ??9?$_Vector_const_iterator@UPassDesc@Ogre@@V?$allocator@UPassDesc@Ogre@@@std@@@std@@QBE_NABV01@@Z 10022b50 f i OgreD3D9ShaderManager.obj
 0001:00021b50       ??9?$_Vector_const_iterator@UDSBuffer@D3D9HardwarePixelBufferManager@Ogre@@V?$allocator@UDSBuffer@D3D9HardwarePixelBufferManager@Ogre@@@std@@@std@@QBE_NABV01@@Z 10022b50 f i OgreD3D9HardwarePixelBuffer.obj
 0001:00021b50       ??9const_iterator@?$_Tree@V?$_Tmap_traits@TShaderEnvKey@Ogre@@PAVCompiledShader@2@U?$less@TShaderEnvKey@Ogre@@@std@@V?$allocator@U?$pair@$$CBTShaderEnvKey@Ogre@@PAVCompiledShader@2@@std@@@5@$0A@@std@@@std@@QBE_NABV012@@Z 10022b50 f i OgreD3D9ShaderManager.obj
 0001:00021b80       ??Citerator@?$_Tree@V?$_Tmap_traits@IPAVHardwareBufferPool@Ogre@@U?$less@I@std@@V?$allocator@U?$pair@$$CBIPAVHardwareBufferPool@Ogre@@@std@@@4@$0A@@std@@@std@@QBEPAU?$pair@$$CBIPAVHardwareBufferPool@Ogre@@@2@XZ 10022b80 f i OgreD3DHardwareBuffer.obj
 0001:00021b80       ??Citerator@?$_Tree@V?$_Tmap_traits@IPAVHardwarePixelBufferPool@Ogre@@U?$less@I@std@@V?$allocator@U?$pair@$$CBIPAVHardwarePixelBufferPool@Ogre@@@std@@@4@$0A@@std@@@std@@QBEPAU?$pair@$$CBIPAVHardwarePixelBufferPool@Ogre@@@2@XZ 10022b80 f i OgreD3D9HardwarePixelBuffer.obj
 0001:00021b80       ??Citerator@?$_Tree@V?$_Tmap_traits@VFixedString@Ogre@@PAVCompiledShaderGroup@2@U?$less@VFixedString@Ogre@@@std@@V?$allocator@U?$pair@$$CBVFixedString@Ogre@@PAVCompiledShaderGroup@2@@std@@@5@$0A@@std@@@std@@QBEPAU?$pair@$$CBVFixedString@Ogre@@PAVCompiledShaderGroup@2@@2@XZ 10022b80 f i OgreD3DMaterialTemplate.obj
 0001:00021b80       ??Citerator@?$_Tree@V?$_Tmap_traits@VFixedString@Ogre@@PAVMaterialTemplate@2@U?$less@VFixedString@Ogre@@@std@@V?$allocator@U?$pair@$$CBVFixedString@Ogre@@PAVMaterialTemplate@2@@std@@@5@$0A@@std@@@std@@QBEPAU?$pair@$$CBVFixedString@Ogre@@PAVMaterialTemplate@2@@2@XZ 10022b80 f i OgreD3DMaterialTemplate.obj
 0001:00021ba0       ??1?$pair@$$CBVFixedString@Ogre@@PAVCompiledShaderGroup@2@@std@@QAE@XZ 10022ba0 f i OgreD3DMaterialTemplate.obj
 0001:00021bf0       ??1?$_Tree_val@V?$_Tmap_traits@VFixedString@Ogre@@PAVCompiledShaderGroup@2@U?$less@VFixedString@Ogre@@@std@@V?$allocator@U?$pair@$$CBVFixedString@Ogre@@PAVCompiledShaderGroup@2@@std@@@5@$0A@@std@@@std@@QAE@XZ 10022bf0 f i OgreD3DMaterialTemplate.obj
 0001:00021bf0       ??1?$_Tree_val@V?$_Tmap_traits@TShaderEnvKey2@Ogre@@PAVD3DShaderTechnique@2@U?$less@TShaderEnvKey2@Ogre@@@std@@V?$allocator@U?$pair@$$CBTShaderEnvKey2@Ogre@@PAVD3DShaderTechnique@2@@std@@@5@$0A@@std@@@std@@QAE@XZ 10022bf0 f i OgreD3DMaterialTemplate.obj
 0001:00021bf0       ??1?$_Tree_val@V?$_Tmap_traits@TShaderEnvKey@Ogre@@PAVCompiledShader@2@U?$less@TShaderEnvKey@Ogre@@@std@@V?$allocator@U?$pair@$$CBTShaderEnvKey@Ogre@@PAVCompiledShader@2@@std@@@5@$0A@@std@@@std@@QAE@XZ 10022bf0 f i OgreD3D9ShaderManager.obj
 0001:00021bf0       ??1?$_Tree_val@V?$_Tmap_traits@TShaderEnvKey@Ogre@@PAVD3DTech@2@U?$less@TShaderEnvKey@Ogre@@@std@@V?$allocator@U?$pair@$$CBTShaderEnvKey@Ogre@@PAVD3DTech@2@@std@@@5@$0A@@std@@@std@@QAE@XZ 10022bf0 f i OgreD3DMaterialTemplate.obj
 0001:00021c40       ??1?$_Tree_nod@V?$_Tmap_traits@TShaderEnvKey@Ogre@@PAVD3DTech@2@U?$less@TShaderEnvKey@Ogre@@@std@@V?$allocator@U?$pair@$$CBTShaderEnvKey@Ogre@@PAVD3DTech@2@@std@@@5@$0A@@std@@@std@@QAE@XZ 10022c40 f i OgreD3DMaterialTemplate.obj
 0001:00021c40       ??1?$_Tree_nod@V?$_Tmap_traits@TShaderEnvKey2@Ogre@@PAVD3DShaderTechnique@2@U?$less@TShaderEnvKey2@Ogre@@@std@@V?$allocator@U?$pair@$$CBTShaderEnvKey2@Ogre@@PAVD3DShaderTechnique@2@@std@@@5@$0A@@std@@@std@@QAE@XZ 10022c40 f i OgreD3DMaterialTemplate.obj
 0001:00021c40       ??1?$_Tree_nod@V?$_Tmap_traits@TShaderEnvKey@Ogre@@PAVCompiledShader@2@U?$less@TShaderEnvKey@Ogre@@@std@@V?$allocator@U?$pair@$$CBTShaderEnvKey@Ogre@@PAVCompiledShader@2@@std@@@5@$0A@@std@@@std@@QAE@XZ 10022c40 f i OgreD3D9ShaderManager.obj
 0001:00021c40       ??1?$_Tree_nod@V?$_Tmap_traits@VFixedString@Ogre@@PAVCompiledShaderGroup@2@U?$less@VFixedString@Ogre@@@std@@V?$allocator@U?$pair@$$CBVFixedString@Ogre@@PAVCompiledShaderGroup@2@@std@@@5@$0A@@std@@@std@@QAE@XZ 10022c40 f i OgreD3DMaterialTemplate.obj
 0001:00021c90       ?capacity@?$vector@UDSBuffer@D3D9HardwarePixelBufferManager@Ogre@@V?$allocator@UDSBuffer@D3D9HardwarePixelBufferManager@Ogre@@@std@@@std@@QBEIXZ 10022c90 f i OgreD3D9HardwarePixelBuffer.obj
 0001:00021c90       ?capacity@?$vector@URTBuffer@D3D9HardwarePixelBufferManager@Ogre@@V?$allocator@URTBuffer@D3D9HardwarePixelBufferManager@Ogre@@@std@@@std@@QBEIXZ 10022c90 f i OgreD3D9HardwarePixelBuffer.obj
 0001:00021c90       ?capacity@?$vector@UShaderEnv@Ogre@@V?$allocator@UShaderEnv@Ogre@@@std@@@std@@QBEIXZ 10022c90 f i OgreD3DMaterialTemplate.obj
 0001:00021cd0       ?insert@?$vector@UShaderEnv@Ogre@@V?$allocator@UShaderEnv@Ogre@@@std@@@std@@QAE?AV?$_Vector_iterator@UShaderEnv@Ogre@@V?$allocator@UShaderEnv@Ogre@@@std@@@2@V?$_Vector_const_iterator@UShaderEnv@Ogre@@V?$allocator@UShaderEnv@Ogre@@@std@@@2@ABUShaderEnv@Ogre@@@Z 10022cd0 f i OgreD3DMaterialTemplate.obj
 0001:00021d50       ??R?$less@VFixedString@Ogre@@@std@@QBE_NABVFixedString@Ogre@@0@Z 10022d50 f i OgreD3DMaterialTemplate.obj
 0001:00021d80       ??0?$_Tree@V?$_Tmap_traits@TShaderEnvKey@Ogre@@PAVCompiledShader@2@U?$less@TShaderEnvKey@Ogre@@@std@@V?$allocator@U?$pair@$$CBTShaderEnvKey@Ogre@@PAVCompiledShader@2@@std@@@5@$0A@@std@@@std@@QAE@ABU?$less@TShaderEnvKey@Ogre@@@1@ABV?$allocator@U?$pair@$$CBTShaderEnvKey@Ogre@@PAVCompiledShader@2@@std@@@1@@Z 10022d80 f i OgreD3D9ShaderManager.obj
 0001:00021d80       ??0?$_Tree@V?$_Tmap_traits@TShaderEnvKey@Ogre@@PAVD3DTech@2@U?$less@TShaderEnvKey@Ogre@@@std@@V?$allocator@U?$pair@$$CBTShaderEnvKey@Ogre@@PAVD3DTech@2@@std@@@5@$0A@@std@@@std@@QAE@ABU?$less@TShaderEnvKey@Ogre@@@1@ABV?$allocator@U?$pair@$$CBTShaderEnvKey@Ogre@@PAVD3DTech@2@@std@@@1@@Z 10022d80 f i OgreD3DMaterialTemplate.obj
 0001:00021df0       ?insert@?$_Tree@V?$_Tmap_traits@TShaderEnvKey@Ogre@@PAVD3DTech@2@U?$less@TShaderEnvKey@Ogre@@@std@@V?$allocator@U?$pair@$$CBTShaderEnvKey@Ogre@@PAVD3DTech@2@@std@@@5@$0A@@std@@@std@@QAE?AViterator@12@Vconst_iterator@12@ABU?$pair@$$CBTShaderEnvKey@Ogre@@PAVD3DTech@2@@2@@Z 10022df0 f i OgreD3DMaterialTemplate.obj
 0001:00021df0       ?insert@?$_Tree@V?$_Tmap_traits@TShaderEnvKey@Ogre@@PAVCompiledShader@2@U?$less@TShaderEnvKey@Ogre@@@std@@V?$allocator@U?$pair@$$CBTShaderEnvKey@Ogre@@PAVCompiledShader@2@@std@@@5@$0A@@std@@@std@@QAE?AViterator@12@Vconst_iterator@12@ABU?$pair@$$CBTShaderEnvKey@Ogre@@PAVCompiledShader@2@@2@@Z 10022df0 f i OgreD3D9ShaderManager.obj
 0001:00022410       ?_Key@?$_Tree@V?$_Tmap_traits@VFixedString@Ogre@@PAVCompiledShaderGroup@2@U?$less@VFixedString@Ogre@@@std@@V?$allocator@U?$pair@$$CBVFixedString@Ogre@@PAVCompiledShaderGroup@2@@std@@@5@$0A@@std@@@std@@KAABVFixedString@Ogre@@PAU_Node@?$_Tree_nod@V?$_Tmap_traits@VFixedString@Ogre@@PAVCompiledShaderGroup@2@U?$less@VFixedString@Ogre@@@std@@V?$allocator@U?$pair@$$CBVFixedString@Ogre@@PAVCompiledShaderGroup@2@@std@@@5@$0A@@std@@@2@@Z 10023410 f i OgreD3DMaterialTemplate.obj
 0001:00022430       ??0?$_Tree@V?$_Tmap_traits@VFixedString@Ogre@@PAVCompiledShaderGroup@2@U?$less@VFixedString@Ogre@@@std@@V?$allocator@U?$pair@$$CBVFixedString@Ogre@@PAVCompiledShaderGroup@2@@std@@@5@$0A@@std@@@std@@QAE@ABU?$less@VFixedString@Ogre@@@1@ABV?$allocator@U?$pair@$$CBVFixedString@Ogre@@PAVCompiledShaderGroup@2@@std@@@1@@Z 10023430 f i OgreD3DMaterialTemplate.obj
 0001:000224a0       ?insert@?$_Tree@V?$_Tmap_traits@VFixedString@Ogre@@PAVCompiledShaderGroup@2@U?$less@VFixedString@Ogre@@@std@@V?$allocator@U?$pair@$$CBVFixedString@Ogre@@PAVCompiledShaderGroup@2@@std@@@5@$0A@@std@@@std@@QAE?AViterator@12@Vconst_iterator@12@ABU?$pair@$$CBVFixedString@Ogre@@PAVCompiledShaderGroup@2@@2@@Z 100234a0 f i OgreD3DMaterialTemplate.obj
 0001:00022ac0       ?lower_bound@?$_Tree@V?$_Tmap_traits@VFixedString@Ogre@@PAVCompiledShaderGroup@2@U?$less@VFixedString@Ogre@@@std@@V?$allocator@U?$pair@$$CBVFixedString@Ogre@@PAVCompiledShaderGroup@2@@std@@@5@$0A@@std@@@std@@QAE?AViterator@12@ABVFixedString@Ogre@@@Z 10023ac0 f i OgreD3DMaterialTemplate.obj
 0001:00022af0       ?_Lmost@?$_Tree@V?$_Tmap_traits@VFixedString@Ogre@@PAVMaterialTemplate@2@U?$less@VFixedString@Ogre@@@std@@V?$allocator@U?$pair@$$CBVFixedString@Ogre@@PAVMaterialTemplate@2@@std@@@5@$0A@@std@@@std@@IBEAAPAU_Node@?$_Tree_nod@V?$_Tmap_traits@VFixedString@Ogre@@PAVMaterialTemplate@2@U?$less@VFixedString@Ogre@@@std@@V?$allocator@U?$pair@$$CBVFixedString@Ogre@@PAVMaterialTemplate@2@@std@@@5@$0A@@std@@@2@XZ 10023af0 f i OgreD3DMaterialTemplate.obj
 0001:00022af0       ?_Lmost@?$_Tree@V?$_Tmap_traits@VFixedString@Ogre@@PAVCompiledShaderGroup@2@U?$less@VFixedString@Ogre@@@std@@V?$allocator@U?$pair@$$CBVFixedString@Ogre@@PAVCompiledShaderGroup@2@@std@@@5@$0A@@std@@@std@@IBEAAPAU_Node@?$_Tree_nod@V?$_Tmap_traits@VFixedString@Ogre@@PAVCompiledShaderGroup@2@U?$less@VFixedString@Ogre@@@std@@V?$allocator@U?$pair@$$CBVFixedString@Ogre@@PAVCompiledShaderGroup@2@@std@@@5@$0A@@std@@@2@XZ 10023af0 f i OgreD3DMaterialTemplate.obj
 0001:00022af0       ?_Lmost@?$_Tree@V?$_Tmap_traits@TShaderEnvKey@Ogre@@PAVD3DTech@2@U?$less@TShaderEnvKey@Ogre@@@std@@V?$allocator@U?$pair@$$CBTShaderEnvKey@Ogre@@PAVD3DTech@2@@std@@@5@$0A@@std@@@std@@IBEAAPAU_Node@?$_Tree_nod@V?$_Tmap_traits@TShaderEnvKey@Ogre@@PAVD3DTech@2@U?$less@TShaderEnvKey@Ogre@@@std@@V?$allocator@U?$pair@$$CBTShaderEnvKey@Ogre@@PAVD3DTech@2@@std@@@5@$0A@@std@@@2@XZ 10023af0 f i OgreD3DMaterialTemplate.obj
 0001:00022af0       ?_Lmost@?$_Tree@V?$_Tmap_traits@IPAVHardwareBufferPool@Ogre@@U?$less@I@std@@V?$allocator@U?$pair@$$CBIPAVHardwareBufferPool@Ogre@@@std@@@4@$0A@@std@@@std@@IBEAAPAU_Node@?$_Tree_nod@V?$_Tmap_traits@IPAVHardwareBufferPool@Ogre@@U?$less@I@std@@V?$allocator@U?$pair@$$CBIPAVHardwareBufferPool@Ogre@@@std@@@4@$0A@@std@@@2@XZ 10023af0 f i OgreD3DHardwareBuffer.obj
 0001:00022af0       ?_Lmost@?$_Tree@V?$_Tmap_traits@TShaderEnvKey2@Ogre@@PAVD3DShaderTechnique@2@U?$less@TShaderEnvKey2@Ogre@@@std@@V?$allocator@U?$pair@$$CBTShaderEnvKey2@Ogre@@PAVD3DShaderTechnique@2@@std@@@5@$0A@@std@@@std@@IBEAAPAU_Node@?$_Tree_nod@V?$_Tmap_traits@TShaderEnvKey2@Ogre@@PAVD3DShaderTechnique@2@U?$less@TShaderEnvKey2@Ogre@@@std@@V?$allocator@U?$pair@$$CBTShaderEnvKey2@Ogre@@PAVD3DShaderTechnique@2@@std@@@5@$0A@@std@@@2@XZ 10023af0 f i OgreD3DMaterialTemplate.obj
 0001:00022af0       ?_Lmost@?$_Tree@V?$_Tmap_traits@TShaderEnvKey@Ogre@@PAVCompiledShader@2@U?$less@TShaderEnvKey@Ogre@@@std@@V?$allocator@U?$pair@$$CBTShaderEnvKey@Ogre@@PAVCompiledShader@2@@std@@@5@$0A@@std@@@std@@IBEAAPAU_Node@?$_Tree_nod@V?$_Tmap_traits@TShaderEnvKey@Ogre@@PAVCompiledShader@2@U?$less@TShaderEnvKey@Ogre@@@std@@V?$allocator@U?$pair@$$CBTShaderEnvKey@Ogre@@PAVCompiledShader@2@@std@@@5@$0A@@std@@@2@XZ 10023af0 f i OgreD3D9ShaderManager.obj
 0001:00022af0       ?_Lmost@?$_Tree@V?$_Tmap_traits@IPAVHardwarePixelBufferPool@Ogre@@U?$less@I@std@@V?$allocator@U?$pair@$$CBIPAVHardwarePixelBufferPool@Ogre@@@std@@@4@$0A@@std@@@std@@IBEAAPAU_Node@?$_Tree_nod@V?$_Tmap_traits@IPAVHardwarePixelBufferPool@Ogre@@U?$less@I@std@@V?$allocator@U?$pair@$$CBIPAVHardwarePixelBufferPool@Ogre@@@std@@@4@$0A@@std@@@2@XZ 10023af0 f i OgreD3D9HardwarePixelBuffer.obj
 0001:00022b10       ?_Tidy@?$_Tree@V?$_Tmap_traits@VFixedString@Ogre@@PAVCompiledShaderGroup@2@U?$less@VFixedString@Ogre@@@std@@V?$allocator@U?$pair@$$CBVFixedString@Ogre@@PAVCompiledShaderGroup@2@@std@@@5@$0A@@std@@@std@@IAEXXZ 10023b10 f i OgreD3DMaterialTemplate.obj
 0001:00022be0       ?_Key@?$_Tree@V?$_Tmap_traits@TShaderEnvKey@Ogre@@PAVD3DTech@2@U?$less@TShaderEnvKey@Ogre@@@std@@V?$allocator@U?$pair@$$CBTShaderEnvKey@Ogre@@PAVD3DTech@2@@std@@@5@$0A@@std@@@std@@KAABTShaderEnvKey@Ogre@@PAU_Node@?$_Tree_nod@V?$_Tmap_traits@TShaderEnvKey@Ogre@@PAVD3DTech@2@U?$less@TShaderEnvKey@Ogre@@@std@@V?$allocator@U?$pair@$$CBTShaderEnvKey@Ogre@@PAVD3DTech@2@@std@@@5@$0A@@std@@@2@@Z 10023be0 f i OgreD3DMaterialTemplate.obj
 0001:00022be0       ?_Key@?$_Tree@V?$_Tmap_traits@TShaderEnvKey2@Ogre@@PAVD3DShaderTechnique@2@U?$less@TShaderEnvKey2@Ogre@@@std@@V?$allocator@U?$pair@$$CBTShaderEnvKey2@Ogre@@PAVD3DShaderTechnique@2@@std@@@5@$0A@@std@@@std@@KAABTShaderEnvKey2@Ogre@@PAU_Node@?$_Tree_nod@V?$_Tmap_traits@TShaderEnvKey2@Ogre@@PAVD3DShaderTechnique@2@U?$less@TShaderEnvKey2@Ogre@@@std@@V?$allocator@U?$pair@$$CBTShaderEnvKey2@Ogre@@PAVD3DShaderTechnique@2@@std@@@5@$0A@@std@@@2@@Z 10023be0 f i OgreD3DMaterialTemplate.obj
 0001:00022be0       ?_Key@?$_Tree@V?$_Tmap_traits@TShaderEnvKey@Ogre@@PAVCompiledShader@2@U?$less@TShaderEnvKey@Ogre@@@std@@V?$allocator@U?$pair@$$CBTShaderEnvKey@Ogre@@PAVCompiledShader@2@@std@@@5@$0A@@std@@@std@@KAABTShaderEnvKey@Ogre@@PAU_Node@?$_Tree_nod@V?$_Tmap_traits@TShaderEnvKey@Ogre@@PAVCompiledShader@2@U?$less@TShaderEnvKey@Ogre@@@std@@V?$allocator@U?$pair@$$CBTShaderEnvKey@Ogre@@PAVCompiledShader@2@@std@@@5@$0A@@std@@@2@@Z 10023be0 f i OgreD3D9ShaderManager.obj
 0001:00022c00       ??0?$_Tree@V?$_Tmap_traits@TShaderEnvKey2@Ogre@@PAVD3DShaderTechnique@2@U?$less@TShaderEnvKey2@Ogre@@@std@@V?$allocator@U?$pair@$$CBTShaderEnvKey2@Ogre@@PAVD3DShaderTechnique@2@@std@@@5@$0A@@std@@@std@@QAE@ABU?$less@TShaderEnvKey2@Ogre@@@1@ABV?$allocator@U?$pair@$$CBTShaderEnvKey2@Ogre@@PAVD3DShaderTechnique@2@@std@@@1@@Z 10023c00 f i OgreD3DMaterialTemplate.obj
 0001:00022c70       ?insert@?$_Tree@V?$_Tmap_traits@TShaderEnvKey2@Ogre@@PAVD3DShaderTechnique@2@U?$less@TShaderEnvKey2@Ogre@@@std@@V?$allocator@U?$pair@$$CBTShaderEnvKey2@Ogre@@PAVD3DShaderTechnique@2@@std@@@5@$0A@@std@@@std@@QAE?AViterator@12@Vconst_iterator@12@ABU?$pair@$$CBTShaderEnvKey2@Ogre@@PAVD3DShaderTechnique@2@@2@@Z 10023c70 f i OgreD3DMaterialTemplate.obj
 0001:00023290       ?lower_bound@?$_Tree@V?$_Tmap_traits@TShaderEnvKey2@Ogre@@PAVD3DShaderTechnique@2@U?$less@TShaderEnvKey2@Ogre@@@std@@V?$allocator@U?$pair@$$CBTShaderEnvKey2@Ogre@@PAVD3DShaderTechnique@2@@std@@@5@$0A@@std@@@std@@QAE?AViterator@12@ABTShaderEnvKey2@Ogre@@@Z 10024290 f i OgreD3DMaterialTemplate.obj
 0001:000232c0       ?_Tidy@?$_Tree@V?$_Tmap_traits@TShaderEnvKey2@Ogre@@PAVD3DShaderTechnique@2@U?$less@TShaderEnvKey2@Ogre@@@std@@V?$allocator@U?$pair@$$CBTShaderEnvKey2@Ogre@@PAVD3DShaderTechnique@2@@std@@@5@$0A@@std@@@std@@IAEXXZ 100242c0 f i OgreD3DMaterialTemplate.obj
 0001:00023390       ??R?$less@TShaderEnvKey2@Ogre@@@std@@QBE_NABTShaderEnvKey2@Ogre@@0@Z 10024390 f i OgreD3DMaterialTemplate.obj
 0001:000233b0       ??MOgre@@YA_NABTShaderEnvKey2@0@0@Z 100243b0 f i OgreD3DMaterialTemplate.obj
 0001:000234c0       ?insert@?$vector@PAVD3D9VertexDecl@Ogre@@V?$allocator@PAVD3D9VertexDecl@Ogre@@@std@@@std@@QAE?AV?$_Vector_iterator@PAVD3D9VertexDecl@Ogre@@V?$allocator@PAVD3D9VertexDecl@Ogre@@@std@@@2@V?$_Vector_const_iterator@PAVD3D9VertexDecl@Ogre@@V?$allocator@PAVD3D9VertexDecl@Ogre@@@std@@@2@ABQAVD3D9VertexDecl@Ogre@@@Z 100244c0 f i OgreD3D9RenderSystem.obj
 0001:000234c0       ?insert@?$vector@PAVD3D9TextureRenderTarget@Ogre@@V?$allocator@PAVD3D9TextureRenderTarget@Ogre@@@std@@@std@@QAE?AV?$_Vector_iterator@PAVD3D9TextureRenderTarget@Ogre@@V?$allocator@PAVD3D9TextureRenderTarget@Ogre@@@std@@@2@V?$_Vector_const_iterator@PAVD3D9TextureRenderTarget@Ogre@@V?$allocator@PAVD3D9TextureRenderTarget@Ogre@@@std@@@2@ABQAVD3D9TextureRenderTarget@Ogre@@@Z 100244c0 f i OgreD3D9HardwarePixelBuffer.obj
 0001:000234c0       ?insert@?$vector@IV?$allocator@I@std@@@std@@QAE?AV?$_Vector_iterator@IV?$allocator@I@std@@@2@V?$_Vector_const_iterator@IV?$allocator@I@std@@@2@ABI@Z 100244c0 f i OgreD3D9DriverEnum.obj
 0001:000234c0       ?insert@?$vector@PAUD3DDEVCOMBO_T@Ogre@@V?$allocator@PAUD3DDEVCOMBO_T@Ogre@@@std@@@std@@QAE?AV?$_Vector_iterator@PAUD3DDEVCOMBO_T@Ogre@@V?$allocator@PAUD3DDEVCOMBO_T@Ogre@@@std@@@2@V?$_Vector_const_iterator@PAUD3DDEVCOMBO_T@Ogre@@V?$allocator@PAUD3DDEVCOMBO_T@Ogre@@@std@@@2@ABQAUD3DDEVCOMBO_T@Ogre@@@Z 100244c0 f i OgreD3D9DriverEnum.obj
 0001:000234c0       ?insert@?$vector@PAUD3DADAPTER_T@Ogre@@V?$allocator@PAUD3DADAPTER_T@Ogre@@@std@@@std@@QAE?AV?$_Vector_iterator@PAUD3DADAPTER_T@Ogre@@V?$allocator@PAUD3DADAPTER_T@Ogre@@@std@@@2@V?$_Vector_const_iterator@PAUD3DADAPTER_T@Ogre@@V?$allocator@PAUD3DADAPTER_T@Ogre@@@std@@@2@ABQAUD3DADAPTER_T@Ogre@@@Z 100244c0 f i OgreD3D9DriverEnum.obj
 0001:000234c0       ?insert@?$vector@PAUTechniqueDesc@Ogre@@V?$allocator@PAUTechniqueDesc@Ogre@@@std@@@std@@QAE?AV?$_Vector_iterator@PAUTechniqueDesc@Ogre@@V?$allocator@PAUTechniqueDesc@Ogre@@@std@@@2@V?$_Vector_const_iterator@PAUTechniqueDesc@Ogre@@V?$allocator@PAUTechniqueDesc@Ogre@@@std@@@2@ABQAUTechniqueDesc@Ogre@@@Z 100244c0 f i OgreD3D9ShaderManager.obj
 0001:000234c0       ?insert@?$vector@PAVD3DRenderWindow@Ogre@@V?$allocator@PAVD3DRenderWindow@Ogre@@@std@@@std@@QAE?AV?$_Vector_iterator@PAVD3DRenderWindow@Ogre@@V?$allocator@PAVD3DRenderWindow@Ogre@@@std@@@2@V?$_Vector_const_iterator@PAVD3DRenderWindow@Ogre@@V?$allocator@PAVD3DRenderWindow@Ogre@@@std@@@2@ABQAVD3DRenderWindow@Ogre@@@Z 100244c0 f i OgreD3D9RenderSystem.obj
 0001:000234c0       ?insert@?$vector@PAVCompiledShader@Ogre@@V?$allocator@PAVCompiledShader@Ogre@@@std@@@std@@QAE?AV?$_Vector_iterator@PAVCompiledShader@Ogre@@V?$allocator@PAVCompiledShader@Ogre@@@std@@@2@V?$_Vector_const_iterator@PAVCompiledShader@Ogre@@V?$allocator@PAVCompiledShader@Ogre@@@std@@@2@ABQAVCompiledShader@Ogre@@@Z 100244c0 f i OgreD3D9ShaderManager.obj
 0001:000234c0       ?insert@?$vector@PAUD3DDEVICEINFO_T@Ogre@@V?$allocator@PAUD3DDEVICEINFO_T@Ogre@@@std@@@std@@QAE?AV?$_Vector_iterator@PAUD3DDEVICEINFO_T@Ogre@@V?$allocator@PAUD3DDEVICEINFO_T@Ogre@@@std@@@2@V?$_Vector_const_iterator@PAUD3DDEVICEINFO_T@Ogre@@V?$allocator@PAUD3DDEVICEINFO_T@Ogre@@@std@@@2@ABQAUD3DDEVICEINFO_T@Ogre@@@Z 100244c0 f i OgreD3D9DriverEnum.obj
 0001:000234c0       ?insert@?$vector@PAUTechCache@D3DMaterialTemplate@Ogre@@V?$allocator@PAUTechCache@D3DMaterialTemplate@Ogre@@@std@@@std@@QAE?AV?$_Vector_iterator@PAUTechCache@D3DMaterialTemplate@Ogre@@V?$allocator@PAUTechCache@D3DMaterialTemplate@Ogre@@@std@@@2@V?$_Vector_const_iterator@PAUTechCache@D3DMaterialTemplate@Ogre@@V?$allocator@PAUTechCache@D3DMaterialTemplate@Ogre@@@std@@@2@ABQAUTechCache@D3DMaterialTemplate@Ogre@@@Z 100244c0 f i OgreD3DMaterialTemplate.obj
 0001:00023540       ??Diterator@?$_Tree@V?$_Tmap_traits@IPAVHardwareBufferPool@Ogre@@U?$less@I@std@@V?$allocator@U?$pair@$$CBIPAVHardwareBufferPool@Ogre@@@std@@@4@$0A@@std@@@std@@QBEAAU?$pair@$$CBIPAVHardwareBufferPool@Ogre@@@2@XZ 10024540 f i OgreD3DHardwareBuffer.obj
 0001:00023540       ??Diterator@?$_Tree@V?$_Tmap_traits@IPAVHardwarePixelBufferPool@Ogre@@U?$less@I@std@@V?$allocator@U?$pair@$$CBIPAVHardwarePixelBufferPool@Ogre@@@std@@@4@$0A@@std@@@std@@QBEAAU?$pair@$$CBIPAVHardwarePixelBufferPool@Ogre@@@2@XZ 10024540 f i OgreD3D9HardwarePixelBuffer.obj
 0001:00023540       ??Diterator@?$_Tree@V?$_Tmap_traits@VFixedString@Ogre@@PAVMaterialTemplate@2@U?$less@VFixedString@Ogre@@@std@@V?$allocator@U?$pair@$$CBVFixedString@Ogre@@PAVMaterialTemplate@2@@std@@@5@$0A@@std@@@std@@QBEAAU?$pair@$$CBVFixedString@Ogre@@PAVMaterialTemplate@2@@2@XZ 10024540 f i OgreD3DMaterialTemplate.obj
 0001:00023540       ??Diterator@?$_Tree@V?$_Tmap_traits@VFixedString@Ogre@@PAVCompiledShaderGroup@2@U?$less@VFixedString@Ogre@@@std@@V?$allocator@U?$pair@$$CBVFixedString@Ogre@@PAVCompiledShaderGroup@2@@std@@@5@$0A@@std@@@std@@QBEAAU?$pair@$$CBVFixedString@Ogre@@PAVCompiledShaderGroup@2@@2@XZ 10024540 f i OgreD3DMaterialTemplate.obj
 0001:00023560       ??0?$pair@$$CBVFixedString@Ogre@@PAVCompiledShaderGroup@2@@std@@QAE@ABVFixedString@Ogre@@ABQAVCompiledShaderGroup@3@@Z 10024560 f i OgreD3DMaterialTemplate.obj
 0001:000235c0       ??Diterator@?$_Tree@V?$_Tmap_traits@TShaderEnvKey@Ogre@@PAVD3DTech@2@U?$less@TShaderEnvKey@Ogre@@@std@@V?$allocator@U?$pair@$$CBTShaderEnvKey@Ogre@@PAVD3DTech@2@@std@@@5@$0A@@std@@@std@@QBEAAU?$pair@$$CBTShaderEnvKey@Ogre@@PAVD3DTech@2@@2@XZ 100245c0 f i OgreD3DMaterialTemplate.obj
 0001:000235c0       ??Diterator@?$_Tree@V?$_Tmap_traits@TShaderEnvKey2@Ogre@@PAVD3DShaderTechnique@2@U?$less@TShaderEnvKey2@Ogre@@@std@@V?$allocator@U?$pair@$$CBTShaderEnvKey2@Ogre@@PAVD3DShaderTechnique@2@@std@@@5@$0A@@std@@@std@@QBEAAU?$pair@$$CBTShaderEnvKey2@Ogre@@PAVD3DShaderTechnique@2@@2@XZ 100245c0 f i OgreD3DMaterialTemplate.obj
 0001:000235c0       ??Diterator@?$_Tree@V?$_Tmap_traits@TShaderEnvKey@Ogre@@PAVCompiledShader@2@U?$less@TShaderEnvKey@Ogre@@@std@@V?$allocator@U?$pair@$$CBTShaderEnvKey@Ogre@@PAVCompiledShader@2@@std@@@5@$0A@@std@@@std@@QBEAAU?$pair@$$CBTShaderEnvKey@Ogre@@PAVCompiledShader@2@@2@XZ 100245c0 f i OgreD3D9ShaderManager.obj
 0001:000235e0       ??Eiterator@?$_Tree@V?$_Tmap_traits@TShaderEnvKey2@Ogre@@PAVD3DShaderTechnique@2@U?$less@TShaderEnvKey2@Ogre@@@std@@V?$allocator@U?$pair@$$CBTShaderEnvKey2@Ogre@@PAVD3DShaderTechnique@2@@std@@@5@$0A@@std@@@std@@QAEAAV012@XZ 100245e0 f i OgreD3DMaterialTemplate.obj
 0001:00023600       ??8?$_Vector_const_iterator@UPassDesc@Ogre@@V?$allocator@UPassDesc@Ogre@@@std@@@std@@QBE_NABV01@@Z 10024600 f i OgreD3D9ShaderManager.obj
 0001:00023600       ??8const_iterator@?$_Tree@V?$_Tmap_traits@VFixedString@Ogre@@PAVMaterialTemplate@2@U?$less@VFixedString@Ogre@@@std@@V?$allocator@U?$pair@$$CBVFixedString@Ogre@@PAVMaterialTemplate@2@@std@@@5@$0A@@std@@@std@@QBE_NABV012@@Z 10024600 f i OgreD3DMaterialTemplate.obj
 0001:00023600       ??8?$_Vector_const_iterator@PAVD3D9VertexDecl@Ogre@@V?$allocator@PAVD3D9VertexDecl@Ogre@@@std@@@std@@QBE_NABV01@@Z 10024600 f i OgreD3D9RenderSystem.obj
 0001:00023600       ??8const_iterator@?$_Tree@V?$_Tmap_traits@IPAVHardwarePixelBufferPool@Ogre@@U?$less@I@std@@V?$allocator@U?$pair@$$CBIPAVHardwarePixelBufferPool@Ogre@@@std@@@4@$0A@@std@@@std@@QBE_NABV012@@Z 10024600 f i OgreD3D9HardwarePixelBuffer.obj
 0001:00023600       ??8?$_Vector_const_iterator@DV?$allocator@D@std@@@std@@QBE_NABV01@@Z 10024600 f i OgreD3D9ShaderManager.obj
 0001:00023600       ??8?$_Vector_const_iterator@PAVD3DRenderWindow@Ogre@@V?$allocator@PAVD3DRenderWindow@Ogre@@@std@@@std@@QBE_NABV01@@Z 10024600 f i OgreD3D9RenderSystem.obj
 0001:00023600       ??8const_iterator@?$_Tree@V?$_Tmap_traits@IPAVHardwareBufferPool@Ogre@@U?$less@I@std@@V?$allocator@U?$pair@$$CBIPAVHardwareBufferPool@Ogre@@@std@@@4@$0A@@std@@@std@@QBE_NABV012@@Z 10024600 f i OgreD3DHardwareBuffer.obj
 0001:00023600       ??8?$_Vector_const_iterator@PAVHardwarePixelBuffer@Ogre@@V?$allocator@PAVHardwarePixelBuffer@Ogre@@@std@@@std@@QBE_NABV01@@Z 10024600 f i OgreD3D9HardwarePixelBuffer.obj
 0001:00023600       ??8const_iterator@?$_Tree@V?$_Tmap_traits@TShaderEnvKey@Ogre@@PAVCompiledShader@2@U?$less@TShaderEnvKey@Ogre@@@std@@V?$allocator@U?$pair@$$CBTShaderEnvKey@Ogre@@PAVCompiledShader@2@@std@@@5@$0A@@std@@@std@@QBE_NABV012@@Z 10024600 f i OgreD3D9ShaderManager.obj
 0001:00023600       ??8?$_Vector_const_iterator@UDSBuffer@D3D9HardwarePixelBufferManager@Ogre@@V?$allocator@UDSBuffer@D3D9HardwarePixelBufferManager@Ogre@@@std@@@std@@QBE_NABV01@@Z 10024600 f i OgreD3D9HardwarePixelBuffer.obj
 0001:00023600       ??8?$_Vector_const_iterator@URTBuffer@D3D9HardwarePixelBufferManager@Ogre@@V?$allocator@URTBuffer@D3D9HardwarePixelBufferManager@Ogre@@@std@@@std@@QBE_NABV01@@Z 10024600 f i OgreD3D9HardwarePixelBuffer.obj
 0001:00023600       ??8const_iterator@?$_Tree@V?$_Tmap_traits@VFixedString@Ogre@@PAVCompiledShaderGroup@2@U?$less@VFixedString@Ogre@@@std@@V?$allocator@U?$pair@$$CBVFixedString@Ogre@@PAVCompiledShaderGroup@2@@std@@@5@$0A@@std@@@std@@QBE_NABV012@@Z 10024600 f i OgreD3DMaterialTemplate.obj
 0001:00023600       ??8?$_Vector_const_iterator@UPassData@D3DShaderTechnique@Ogre@@V?$allocator@UPassData@D3DShaderTechnique@Ogre@@@std@@@std@@QBE_NABV01@@Z 10024600 f i OgreD3D9ShaderManager.obj
 0001:00023600       ??8const_iterator@?$_Tree@V?$_Tmap_traits@TShaderEnvKey@Ogre@@PAVD3DTech@2@U?$less@TShaderEnvKey@Ogre@@@std@@V?$allocator@U?$pair@$$CBTShaderEnvKey@Ogre@@PAVD3DTech@2@@std@@@5@$0A@@std@@@std@@QBE_NABV012@@Z 10024600 f i OgreD3DMaterialTemplate.obj
 0001:00023600       ??8?$_Vector_const_iterator@PAVD3D9TextureRenderTarget@Ogre@@V?$allocator@PAVD3D9TextureRenderTarget@Ogre@@@std@@@std@@QBE_NABV01@@Z 10024600 f i OgreD3D9HardwarePixelBuffer.obj
 0001:00023600       ??8const_iterator@?$_Tree@V?$_Tmap_traits@TShaderEnvKey2@Ogre@@PAVD3DShaderTechnique@2@U?$less@TShaderEnvKey2@Ogre@@@std@@V?$allocator@U?$pair@$$CBTShaderEnvKey2@Ogre@@PAVD3DShaderTechnique@2@@std@@@5@$0A@@std@@@std@@QBE_NABV012@@Z 10024600 f i OgreD3DMaterialTemplate.obj
 0001:00023650       ??0?$pair@$$CBTShaderEnvKey2@Ogre@@PAVD3DShaderTechnique@2@@std@@QAE@ABTShaderEnvKey2@Ogre@@ABQAVD3DShaderTechnique@3@@Z 10024650 f i OgreD3DMaterialTemplate.obj
 0001:000236a0       ??Eiterator@?$_Tree@V?$_Tmap_traits@TShaderEnvKey@Ogre@@PAVD3DTech@2@U?$less@TShaderEnvKey@Ogre@@@std@@V?$allocator@U?$pair@$$CBTShaderEnvKey@Ogre@@PAVD3DTech@2@@std@@@5@$0A@@std@@@std@@QAEAAV012@XZ 100246a0 f i OgreD3DMaterialTemplate.obj
 0001:000236a0       ??Eiterator@?$_Tree@V?$_Tmap_traits@TShaderEnvKey@Ogre@@PAVCompiledShader@2@U?$less@TShaderEnvKey@Ogre@@@std@@V?$allocator@U?$pair@$$CBTShaderEnvKey@Ogre@@PAVCompiledShader@2@@std@@@5@$0A@@std@@@std@@QAEAAV012@XZ 100246a0 f i OgreD3D9ShaderManager.obj
 0001:000236c0       ?_Mynode@const_iterator@?$_Tree@V?$_Tmap_traits@VFixedString@Ogre@@PAVCompiledShaderGroup@2@U?$less@VFixedString@Ogre@@@std@@V?$allocator@U?$pair@$$CBVFixedString@Ogre@@PAVCompiledShaderGroup@2@@std@@@5@$0A@@std@@@std@@QBEPAU_Node@?$_Tree_nod@V?$_Tmap_traits@VFixedString@Ogre@@PAVCompiledShaderGroup@2@U?$less@VFixedString@Ogre@@@std@@V?$allocator@U?$pair@$$CBVFixedString@Ogre@@PAVCompiledShaderGroup@2@@std@@@5@$0A@@std@@@3@XZ 100246c0 f i OgreD3DMaterialTemplate.obj
 0001:000236c0       ?_Checked_iterator_base@?$_Vector_iterator@PAVD3D9TextureRenderTarget@Ogre@@V?$allocator@PAVD3D9TextureRenderTarget@Ogre@@@std@@@std@@QBEPAPAVD3D9TextureRenderTarget@Ogre@@XZ 100246c0 f i OgreD3D9HardwarePixelBuffer.obj
 0001:000236c0       ?_Mynode@const_iterator@?$_Tree@V?$_Tmap_traits@TShaderEnvKey2@Ogre@@PAVD3DShaderTechnique@2@U?$less@TShaderEnvKey2@Ogre@@@std@@V?$allocator@U?$pair@$$CBTShaderEnvKey2@Ogre@@PAVD3DShaderTechnique@2@@std@@@5@$0A@@std@@@std@@QBEPAU_Node@?$_Tree_nod@V?$_Tmap_traits@TShaderEnvKey2@Ogre@@PAVD3DShaderTechnique@2@U?$less@TShaderEnvKey2@Ogre@@@std@@V?$allocator@U?$pair@$$CBTShaderEnvKey2@Ogre@@PAVD3DShaderTechnique@2@@std@@@5@$0A@@std@@@3@XZ 100246c0 f i OgreD3DMaterialTemplate.obj
 0001:000236c0       ?_Mynode@const_iterator@?$_Tree@V?$_Tmap_traits@TShaderEnvKey@Ogre@@PAVD3DTech@2@U?$less@TShaderEnvKey@Ogre@@@std@@V?$allocator@U?$pair@$$CBTShaderEnvKey@Ogre@@PAVD3DTech@2@@std@@@5@$0A@@std@@@std@@QBEPAU_Node@?$_Tree_nod@V?$_Tmap_traits@TShaderEnvKey@Ogre@@PAVD3DTech@2@U?$less@TShaderEnvKey@Ogre@@@std@@V?$allocator@U?$pair@$$CBTShaderEnvKey@Ogre@@PAVD3DTech@2@@std@@@5@$0A@@std@@@3@XZ 100246c0 f i OgreD3DMaterialTemplate.obj
 0001:000236c0       ?_Mynode@const_iterator@?$_Tree@V?$_Tmap_traits@TShaderEnvKey@Ogre@@PAVCompiledShader@2@U?$less@TShaderEnvKey@Ogre@@@std@@V?$allocator@U?$pair@$$CBTShaderEnvKey@Ogre@@PAVCompiledShader@2@@std@@@5@$0A@@std@@@std@@QBEPAU_Node@?$_Tree_nod@V?$_Tmap_traits@TShaderEnvKey@Ogre@@PAVCompiledShader@2@U?$less@TShaderEnvKey@Ogre@@@std@@V?$allocator@U?$pair@$$CBTShaderEnvKey@Ogre@@PAVCompiledShader@2@@std@@@5@$0A@@std@@@3@XZ 100246c0 f i OgreD3D9ShaderManager.obj
 0001:000236e0       ??Eiterator@?$_Tree@V?$_Tmap_traits@VFixedString@Ogre@@PAVMaterialTemplate@2@U?$less@VFixedString@Ogre@@@std@@V?$allocator@U?$pair@$$CBVFixedString@Ogre@@PAVMaterialTemplate@2@@std@@@5@$0A@@std@@@std@@QAEAAV012@XZ 100246e0 f i OgreD3DMaterialTemplate.obj
 0001:000236e0       ??Eiterator@?$_Tree@V?$_Tmap_traits@VFixedString@Ogre@@PAVCompiledShaderGroup@2@U?$less@VFixedString@Ogre@@@std@@V?$allocator@U?$pair@$$CBVFixedString@Ogre@@PAVCompiledShaderGroup@2@@std@@@5@$0A@@std@@@std@@QAEAAV012@XZ 100246e0 f i OgreD3DMaterialTemplate.obj
 0001:000236e0       ??Eiterator@?$_Tree@V?$_Tmap_traits@IPAVHardwarePixelBufferPool@Ogre@@U?$less@I@std@@V?$allocator@U?$pair@$$CBIPAVHardwarePixelBufferPool@Ogre@@@std@@@4@$0A@@std@@@std@@QAEAAV012@XZ 100246e0 f i OgreD3D9HardwarePixelBuffer.obj
 0001:000236e0       ??Eiterator@?$_Tree@V?$_Tmap_traits@IPAVHardwareBufferPool@Ogre@@U?$less@I@std@@V?$allocator@U?$pair@$$CBIPAVHardwareBufferPool@Ogre@@@std@@@4@$0A@@std@@@std@@QAEAAV012@XZ 100246e0 f i OgreD3DHardwareBuffer.obj
 0001:00023700       ?_Insert_n@?$vector@UShaderEnv@Ogre@@V?$allocator@UShaderEnv@Ogre@@@std@@@std@@IAEXV?$_Vector_const_iterator@UShaderEnv@Ogre@@V?$allocator@UShaderEnv@Ogre@@@std@@@2@IABUShaderEnv@Ogre@@@Z 10024700 f i OgreD3DMaterialTemplate.obj
 0001:00023b00       ?_Isnil@?$_Tree@V?$_Tmap_traits@TShaderEnvKey@Ogre@@PAVD3DTech@2@U?$less@TShaderEnvKey@Ogre@@@std@@V?$allocator@U?$pair@$$CBTShaderEnvKey@Ogre@@PAVD3DTech@2@@std@@@5@$0A@@std@@@std@@KAAADPAU_Node@?$_Tree_nod@V?$_Tmap_traits@TShaderEnvKey@Ogre@@PAVD3DTech@2@U?$less@TShaderEnvKey@Ogre@@@std@@V?$allocator@U?$pair@$$CBTShaderEnvKey@Ogre@@PAVD3DTech@2@@std@@@5@$0A@@std@@@2@@Z 10024b00 f i OgreD3DMaterialTemplate.obj
 0001:00023b00       ?_Isnil@?$_Tree@V?$_Tmap_traits@TShaderEnvKey@Ogre@@PAVCompiledShader@2@U?$less@TShaderEnvKey@Ogre@@@std@@V?$allocator@U?$pair@$$CBTShaderEnvKey@Ogre@@PAVCompiledShader@2@@std@@@5@$0A@@std@@@std@@KAAADPAU_Node@?$_Tree_nod@V?$_Tmap_traits@TShaderEnvKey@Ogre@@PAVCompiledShader@2@U?$less@TShaderEnvKey@Ogre@@@std@@V?$allocator@U?$pair@$$CBTShaderEnvKey@Ogre@@PAVCompiledShader@2@@std@@@5@$0A@@std@@@2@@Z 10024b00 f i OgreD3D9ShaderManager.obj
 0001:00023b10       ?insert@?$_Tree@V?$_Tmap_traits@TShaderEnvKey@Ogre@@PAVD3DTech@2@U?$less@TShaderEnvKey@Ogre@@@std@@V?$allocator@U?$pair@$$CBTShaderEnvKey@Ogre@@PAVD3DTech@2@@std@@@5@$0A@@std@@@std@@QAE?AU?$pair@Viterator@?$_Tree@V?$_Tmap_traits@TShaderEnvKey@Ogre@@PAVD3DTech@2@U?$less@TShaderEnvKey@Ogre@@@std@@V?$allocator@U?$pair@$$CBTShaderEnvKey@Ogre@@PAVD3DTech@2@@std@@@5@$0A@@std@@@std@@_N@2@ABU?$pair@$$CBTShaderEnvKey@Ogre@@PAVD3DTech@2@@2@@Z 10024b10 f i OgreD3DMaterialTemplate.obj
 0001:00023b10       ?insert@?$_Tree@V?$_Tmap_traits@TShaderEnvKey@Ogre@@PAVCompiledShader@2@U?$less@TShaderEnvKey@Ogre@@@std@@V?$allocator@U?$pair@$$CBTShaderEnvKey@Ogre@@PAVCompiledShader@2@@std@@@5@$0A@@std@@@std@@QAE?AU?$pair@Viterator@?$_Tree@V?$_Tmap_traits@TShaderEnvKey@Ogre@@PAVCompiledShader@2@U?$less@TShaderEnvKey@Ogre@@@std@@V?$allocator@U?$pair@$$CBTShaderEnvKey@Ogre@@PAVCompiledShader@2@@std@@@5@$0A@@std@@@std@@_N@2@ABU?$pair@$$CBTShaderEnvKey@Ogre@@PAVCompiledShader@2@@2@@Z 10024b10 f i OgreD3D9ShaderManager.obj
 0001:00023ce0       ?_Init@?$_Tree@V?$_Tmap_traits@TShaderEnvKey@Ogre@@PAVD3DTech@2@U?$less@TShaderEnvKey@Ogre@@@std@@V?$allocator@U?$pair@$$CBTShaderEnvKey@Ogre@@PAVD3DTech@2@@std@@@5@$0A@@std@@@std@@IAEXXZ 10024ce0 f i OgreD3DMaterialTemplate.obj
 0001:00023ce0       ?_Init@?$_Tree@V?$_Tmap_traits@TShaderEnvKey@Ogre@@PAVCompiledShader@2@U?$less@TShaderEnvKey@Ogre@@@std@@V?$allocator@U?$pair@$$CBTShaderEnvKey@Ogre@@PAVCompiledShader@2@@std@@@5@$0A@@std@@@std@@IAEXXZ 10024ce0 f i OgreD3D9ShaderManager.obj
 0001:00023d50       ?_Insert@?$_Tree@V?$_Tmap_traits@TShaderEnvKey@Ogre@@PAVCompiledShader@2@U?$less@TShaderEnvKey@Ogre@@@std@@V?$allocator@U?$pair@$$CBTShaderEnvKey@Ogre@@PAVCompiledShader@2@@std@@@5@$0A@@std@@@std@@IAE?AViterator@12@_NPAU_Node@?$_Tree_nod@V?$_Tmap_traits@TShaderEnvKey@Ogre@@PAVCompiledShader@2@U?$less@TShaderEnvKey@Ogre@@@std@@V?$allocator@U?$pair@$$CBTShaderEnvKey@Ogre@@PAVCompiledShader@2@@std@@@5@$0A@@std@@@2@ABU?$pair@$$CBTShaderEnvKey@Ogre@@PAVCompiledShader@2@@2@@Z 10024d50 f i OgreD3D9ShaderManager.obj
 0001:00023d50       ?_Insert@?$_Tree@V?$_Tmap_traits@TShaderEnvKey@Ogre@@PAVD3DTech@2@U?$less@TShaderEnvKey@Ogre@@@std@@V?$allocator@U?$pair@$$CBTShaderEnvKey@Ogre@@PAVD3DTech@2@@std@@@5@$0A@@std@@@std@@IAE?AViterator@12@_NPAU_Node@?$_Tree_nod@V?$_Tmap_traits@TShaderEnvKey@Ogre@@PAVD3DTech@2@U?$less@TShaderEnvKey@Ogre@@@std@@V?$allocator@U?$pair@$$CBTShaderEnvKey@Ogre@@PAVD3DTech@2@@std@@@5@$0A@@std@@@2@ABU?$pair@$$CBTShaderEnvKey@Ogre@@PAVD3DTech@2@@2@@Z 10024d50 f i OgreD3DMaterialTemplate.obj
 0001:000241d0       ?_Isnil@?$_Tree@V?$_Tmap_traits@IPAVHardwareBufferPool@Ogre@@U?$less@I@std@@V?$allocator@U?$pair@$$CBIPAVHardwareBufferPool@Ogre@@@std@@@4@$0A@@std@@@std@@KAAADPAU_Node@?$_Tree_nod@V?$_Tmap_traits@IPAVHardwareBufferPool@Ogre@@U?$less@I@std@@V?$allocator@U?$pair@$$CBIPAVHardwareBufferPool@Ogre@@@std@@@4@$0A@@std@@@2@@Z 100251d0 f i OgreD3DHardwareBuffer.obj
 0001:000241d0       ?_Isnil@?$_Tree@V?$_Tmap_traits@VFixedString@Ogre@@PAVCompiledShaderGroup@2@U?$less@VFixedString@Ogre@@@std@@V?$allocator@U?$pair@$$CBVFixedString@Ogre@@PAVCompiledShaderGroup@2@@std@@@5@$0A@@std@@@std@@KAAADPAU_Node@?$_Tree_nod@V?$_Tmap_traits@VFixedString@Ogre@@PAVCompiledShaderGroup@2@U?$less@VFixedString@Ogre@@@std@@V?$allocator@U?$pair@$$CBVFixedString@Ogre@@PAVCompiledShaderGroup@2@@std@@@5@$0A@@std@@@2@@Z 100251d0 f i OgreD3DMaterialTemplate.obj
 0001:000241d0       ?_Isnil@?$_Tree@V?$_Tmap_traits@IPAVHardwarePixelBufferPool@Ogre@@U?$less@I@std@@V?$allocator@U?$pair@$$CBIPAVHardwarePixelBufferPool@Ogre@@@std@@@4@$0A@@std@@@std@@KAAADPAU_Node@?$_Tree_nod@V?$_Tmap_traits@IPAVHardwarePixelBufferPool@Ogre@@U?$less@I@std@@V?$allocator@U?$pair@$$CBIPAVHardwarePixelBufferPool@Ogre@@@std@@@4@$0A@@std@@@2@@Z 100251d0 f i OgreD3D9HardwarePixelBuffer.obj
 0001:000241d0       ?_Isnil@?$_Tree@V?$_Tmap_traits@VFixedString@Ogre@@PAVMaterialTemplate@2@U?$less@VFixedString@Ogre@@@std@@V?$allocator@U?$pair@$$CBVFixedString@Ogre@@PAVMaterialTemplate@2@@std@@@5@$0A@@std@@@std@@KAAADPAU_Node@?$_Tree_nod@V?$_Tmap_traits@VFixedString@Ogre@@PAVMaterialTemplate@2@U?$less@VFixedString@Ogre@@@std@@V?$allocator@U?$pair@$$CBVFixedString@Ogre@@PAVMaterialTemplate@2@@std@@@5@$0A@@std@@@2@@Z 100251d0 f i OgreD3DMaterialTemplate.obj
 0001:000241e0       ?_Myval@?$_Tree@V?$_Tmap_traits@IPAVHardwareBufferPool@Ogre@@U?$less@I@std@@V?$allocator@U?$pair@$$CBIPAVHardwareBufferPool@Ogre@@@std@@@4@$0A@@std@@@std@@KAAAU?$pair@$$CBIPAVHardwareBufferPool@Ogre@@@2@PAU_Node@?$_Tree_nod@V?$_Tmap_traits@IPAVHardwareBufferPool@Ogre@@U?$less@I@std@@V?$allocator@U?$pair@$$CBIPAVHardwareBufferPool@Ogre@@@std@@@4@$0A@@std@@@2@@Z 100251e0 f i OgreD3DHardwareBuffer.obj
 0001:000241e0       ?_Myval@?$_Tree@V?$_Tmap_traits@VFixedString@Ogre@@PAVCompiledShaderGroup@2@U?$less@VFixedString@Ogre@@@std@@V?$allocator@U?$pair@$$CBVFixedString@Ogre@@PAVCompiledShaderGroup@2@@std@@@5@$0A@@std@@@std@@KAAAU?$pair@$$CBVFixedString@Ogre@@PAVCompiledShaderGroup@2@@2@PAU_Node@?$_Tree_nod@V?$_Tmap_traits@VFixedString@Ogre@@PAVCompiledShaderGroup@2@U?$less@VFixedString@Ogre@@@std@@V?$allocator@U?$pair@$$CBVFixedString@Ogre@@PAVCompiledShaderGroup@2@@std@@@5@$0A@@std@@@2@@Z 100251e0 f i OgreD3DMaterialTemplate.obj
 0001:000241e0       ?_Myval@?$_Tree@V?$_Tmap_traits@VFixedString@Ogre@@PAVMaterialTemplate@2@U?$less@VFixedString@Ogre@@@std@@V?$allocator@U?$pair@$$CBVFixedString@Ogre@@PAVMaterialTemplate@2@@std@@@5@$0A@@std@@@std@@KAAAU?$pair@$$CBVFixedString@Ogre@@PAVMaterialTemplate@2@@2@PAU_Node@?$_Tree_nod@V?$_Tmap_traits@VFixedString@Ogre@@PAVMaterialTemplate@2@U?$less@VFixedString@Ogre@@@std@@V?$allocator@U?$pair@$$CBVFixedString@Ogre@@PAVMaterialTemplate@2@@std@@@5@$0A@@std@@@2@@Z 100251e0 f i OgreD3DMaterialTemplate.obj
 0001:000241e0       ?_Myval@?$_Tree@V?$_Tmap_traits@IPAVHardwarePixelBufferPool@Ogre@@U?$less@I@std@@V?$allocator@U?$pair@$$CBIPAVHardwarePixelBufferPool@Ogre@@@std@@@4@$0A@@std@@@std@@KAAAU?$pair@$$CBIPAVHardwarePixelBufferPool@Ogre@@@2@PAU_Node@?$_Tree_nod@V?$_Tmap_traits@IPAVHardwarePixelBufferPool@Ogre@@U?$less@I@std@@V?$allocator@U?$pair@$$CBIPAVHardwarePixelBufferPool@Ogre@@@std@@@4@$0A@@std@@@2@@Z 100251e0 f i OgreD3D9HardwarePixelBuffer.obj
 0001:000241f0       ?insert@?$_Tree@V?$_Tmap_traits@VFixedString@Ogre@@PAVCompiledShaderGroup@2@U?$less@VFixedString@Ogre@@@std@@V?$allocator@U?$pair@$$CBVFixedString@Ogre@@PAVCompiledShaderGroup@2@@std@@@5@$0A@@std@@@std@@QAE?AU?$pair@Viterator@?$_Tree@V?$_Tmap_traits@VFixedString@Ogre@@PAVCompiledShaderGroup@2@U?$less@VFixedString@Ogre@@@std@@V?$allocator@U?$pair@$$CBVFixedString@Ogre@@PAVCompiledShaderGroup@2@@std@@@5@$0A@@std@@@std@@_N@2@ABU?$pair@$$CBVFixedString@Ogre@@PAVCompiledShaderGroup@2@@2@@Z 100251f0 f i OgreD3DMaterialTemplate.obj
 0001:000243c0       ?erase@?$_Tree@V?$_Tmap_traits@VFixedString@Ogre@@PAVCompiledShaderGroup@2@U?$less@VFixedString@Ogre@@@std@@V?$allocator@U?$pair@$$CBVFixedString@Ogre@@PAVCompiledShaderGroup@2@@std@@@5@$0A@@std@@@std@@QAE?AViterator@12@Vconst_iterator@12@0@Z 100253c0 f i OgreD3DMaterialTemplate.obj
 0001:00024470       ?_Init@?$_Tree@V?$_Tmap_traits@VFixedString@Ogre@@PAVCompiledShaderGroup@2@U?$less@VFixedString@Ogre@@@std@@V?$allocator@U?$pair@$$CBVFixedString@Ogre@@PAVCompiledShaderGroup@2@@std@@@5@$0A@@std@@@std@@IAEXXZ 10025470 f i OgreD3DMaterialTemplate.obj
 0001:000244e0       ?_Insert@?$_Tree@V?$_Tmap_traits@VFixedString@Ogre@@PAVCompiledShaderGroup@2@U?$less@VFixedString@Ogre@@@std@@V?$allocator@U?$pair@$$CBVFixedString@Ogre@@PAVCompiledShaderGroup@2@@std@@@5@$0A@@std@@@std@@IAE?AViterator@12@_NPAU_Node@?$_Tree_nod@V?$_Tmap_traits@VFixedString@Ogre@@PAVCompiledShaderGroup@2@U?$less@VFixedString@Ogre@@@std@@V?$allocator@U?$pair@$$CBVFixedString@Ogre@@PAVCompiledShaderGroup@2@@std@@@5@$0A@@std@@@2@ABU?$pair@$$CBVFixedString@Ogre@@PAVCompiledShaderGroup@2@@2@@Z 100254e0 f i OgreD3DMaterialTemplate.obj
 0001:00024960       ?_Lbound@?$_Tree@V?$_Tmap_traits@VFixedString@Ogre@@PAVCompiledShaderGroup@2@U?$less@VFixedString@Ogre@@@std@@V?$allocator@U?$pair@$$CBVFixedString@Ogre@@PAVCompiledShaderGroup@2@@std@@@5@$0A@@std@@@std@@IBEPAU_Node@?$_Tree_nod@V?$_Tmap_traits@VFixedString@Ogre@@PAVCompiledShaderGroup@2@U?$less@VFixedString@Ogre@@@std@@V?$allocator@U?$pair@$$CBVFixedString@Ogre@@PAVCompiledShaderGroup@2@@std@@@5@$0A@@std@@@2@ABVFixedString@Ogre@@@Z 10025960 f i OgreD3DMaterialTemplate.obj
 0001:000249f0       ?_Rmost@?$_Tree@V?$_Tmap_traits@TShaderEnvKey2@Ogre@@PAVD3DShaderTechnique@2@U?$less@TShaderEnvKey2@Ogre@@@std@@V?$allocator@U?$pair@$$CBTShaderEnvKey2@Ogre@@PAVD3DShaderTechnique@2@@std@@@5@$0A@@std@@@std@@IBEAAPAU_Node@?$_Tree_nod@V?$_Tmap_traits@TShaderEnvKey2@Ogre@@PAVD3DShaderTechnique@2@U?$less@TShaderEnvKey2@Ogre@@@std@@V?$allocator@U?$pair@$$CBTShaderEnvKey2@Ogre@@PAVD3DShaderTechnique@2@@std@@@5@$0A@@std@@@2@XZ 100259f0 f i OgreD3DMaterialTemplate.obj
 0001:000249f0       ?_Rmost@?$_Tree@V?$_Tmap_traits@TShaderEnvKey@Ogre@@PAVD3DTech@2@U?$less@TShaderEnvKey@Ogre@@@std@@V?$allocator@U?$pair@$$CBTShaderEnvKey@Ogre@@PAVD3DTech@2@@std@@@5@$0A@@std@@@std@@IBEAAPAU_Node@?$_Tree_nod@V?$_Tmap_traits@TShaderEnvKey@Ogre@@PAVD3DTech@2@U?$less@TShaderEnvKey@Ogre@@@std@@V?$allocator@U?$pair@$$CBTShaderEnvKey@Ogre@@PAVD3DTech@2@@std@@@5@$0A@@std@@@2@XZ 100259f0 f i OgreD3DMaterialTemplate.obj
 0001:000249f0       ?_Rmost@?$_Tree@V?$_Tmap_traits@VFixedString@Ogre@@PAVCompiledShaderGroup@2@U?$less@VFixedString@Ogre@@@std@@V?$allocator@U?$pair@$$CBVFixedString@Ogre@@PAVCompiledShaderGroup@2@@std@@@5@$0A@@std@@@std@@IBEAAPAU_Node@?$_Tree_nod@V?$_Tmap_traits@VFixedString@Ogre@@PAVCompiledShaderGroup@2@U?$less@VFixedString@Ogre@@@std@@V?$allocator@U?$pair@$$CBVFixedString@Ogre@@PAVCompiledShaderGroup@2@@std@@@5@$0A@@std@@@2@XZ 100259f0 f i OgreD3DMaterialTemplate.obj
 0001:000249f0       ?_Rmost@?$_Tree@V?$_Tmap_traits@TShaderEnvKey@Ogre@@PAVCompiledShader@2@U?$less@TShaderEnvKey@Ogre@@@std@@V?$allocator@U?$pair@$$CBTShaderEnvKey@Ogre@@PAVCompiledShader@2@@std@@@5@$0A@@std@@@std@@IBEAAPAU_Node@?$_Tree_nod@V?$_Tmap_traits@TShaderEnvKey@Ogre@@PAVCompiledShader@2@U?$less@TShaderEnvKey@Ogre@@@std@@V?$allocator@U?$pair@$$CBTShaderEnvKey@Ogre@@PAVCompiledShader@2@@std@@@5@$0A@@std@@@2@XZ 100259f0 f i OgreD3D9ShaderManager.obj
 0001:00024a10       ?_Isnil@?$_Tree@V?$_Tmap_traits@TShaderEnvKey2@Ogre@@PAVD3DShaderTechnique@2@U?$less@TShaderEnvKey2@Ogre@@@std@@V?$allocator@U?$pair@$$CBTShaderEnvKey2@Ogre@@PAVD3DShaderTechnique@2@@std@@@5@$0A@@std@@@std@@KAAADPAU_Node@?$_Tree_nod@V?$_Tmap_traits@TShaderEnvKey2@Ogre@@PAVD3DShaderTechnique@2@U?$less@TShaderEnvKey2@Ogre@@@std@@V?$allocator@U?$pair@$$CBTShaderEnvKey2@Ogre@@PAVD3DShaderTechnique@2@@std@@@5@$0A@@std@@@2@@Z 10025a10 f i OgreD3DMaterialTemplate.obj
 0001:00024a20       ?_Myval@?$_Tree@V?$_Tmap_traits@TShaderEnvKey2@Ogre@@PAVD3DShaderTechnique@2@U?$less@TShaderEnvKey2@Ogre@@@std@@V?$allocator@U?$pair@$$CBTShaderEnvKey2@Ogre@@PAVD3DShaderTechnique@2@@std@@@5@$0A@@std@@@std@@KAAAU?$pair@$$CBTShaderEnvKey2@Ogre@@PAVD3DShaderTechnique@2@@2@PAU_Node@?$_Tree_nod@V?$_Tmap_traits@TShaderEnvKey2@Ogre@@PAVD3DShaderTechnique@2@U?$less@TShaderEnvKey2@Ogre@@@std@@V?$allocator@U?$pair@$$CBTShaderEnvKey2@Ogre@@PAVD3DShaderTechnique@2@@std@@@5@$0A@@std@@@2@@Z 10025a20 f i OgreD3DMaterialTemplate.obj
 0001:00024a20       ?_Myval@?$_Tree@V?$_Tmap_traits@TShaderEnvKey@Ogre@@PAVD3DTech@2@U?$less@TShaderEnvKey@Ogre@@@std@@V?$allocator@U?$pair@$$CBTShaderEnvKey@Ogre@@PAVD3DTech@2@@std@@@5@$0A@@std@@@std@@KAAAU?$pair@$$CBTShaderEnvKey@Ogre@@PAVD3DTech@2@@2@PAU_Node@?$_Tree_nod@V?$_Tmap_traits@TShaderEnvKey@Ogre@@PAVD3DTech@2@U?$less@TShaderEnvKey@Ogre@@@std@@V?$allocator@U?$pair@$$CBTShaderEnvKey@Ogre@@PAVD3DTech@2@@std@@@5@$0A@@std@@@2@@Z 10025a20 f i OgreD3DMaterialTemplate.obj
 0001:00024a20       ?_Myval@?$_Tree@V?$_Tmap_traits@TShaderEnvKey@Ogre@@PAVCompiledShader@2@U?$less@TShaderEnvKey@Ogre@@@std@@V?$allocator@U?$pair@$$CBTShaderEnvKey@Ogre@@PAVCompiledShader@2@@std@@@5@$0A@@std@@@std@@KAAAU?$pair@$$CBTShaderEnvKey@Ogre@@PAVCompiledShader@2@@2@PAU_Node@?$_Tree_nod@V?$_Tmap_traits@TShaderEnvKey@Ogre@@PAVCompiledShader@2@U?$less@TShaderEnvKey@Ogre@@@std@@V?$allocator@U?$pair@$$CBTShaderEnvKey@Ogre@@PAVCompiledShader@2@@std@@@5@$0A@@std@@@2@@Z 10025a20 f i OgreD3D9ShaderManager.obj
 0001:00024a30       ?insert@?$_Tree@V?$_Tmap_traits@TShaderEnvKey2@Ogre@@PAVD3DShaderTechnique@2@U?$less@TShaderEnvKey2@Ogre@@@std@@V?$allocator@U?$pair@$$CBTShaderEnvKey2@Ogre@@PAVD3DShaderTechnique@2@@std@@@5@$0A@@std@@@std@@QAE?AU?$pair@Viterator@?$_Tree@V?$_Tmap_traits@TShaderEnvKey2@Ogre@@PAVD3DShaderTechnique@2@U?$less@TShaderEnvKey2@Ogre@@@std@@V?$allocator@U?$pair@$$CBTShaderEnvKey2@Ogre@@PAVD3DShaderTechnique@2@@std@@@5@$0A@@std@@@std@@_N@2@ABU?$pair@$$CBTShaderEnvKey2@Ogre@@PAVD3DShaderTechnique@2@@2@@Z 10025a30 f i OgreD3DMaterialTemplate.obj
 0001:00024c00       ?erase@?$_Tree@V?$_Tmap_traits@TShaderEnvKey2@Ogre@@PAVD3DShaderTechnique@2@U?$less@TShaderEnvKey2@Ogre@@@std@@V?$allocator@U?$pair@$$CBTShaderEnvKey2@Ogre@@PAVD3DShaderTechnique@2@@std@@@5@$0A@@std@@@std@@QAE?AViterator@12@Vconst_iterator@12@0@Z 10025c00 f i OgreD3DMaterialTemplate.obj
 0001:00024cb0       ?_Init@?$_Tree@V?$_Tmap_traits@TShaderEnvKey2@Ogre@@PAVD3DShaderTechnique@2@U?$less@TShaderEnvKey2@Ogre@@@std@@V?$allocator@U?$pair@$$CBTShaderEnvKey2@Ogre@@PAVD3DShaderTechnique@2@@std@@@5@$0A@@std@@@std@@IAEXXZ 10025cb0 f i OgreD3DMaterialTemplate.obj
 0001:00024d20       ?_Insert@?$_Tree@V?$_Tmap_traits@TShaderEnvKey2@Ogre@@PAVD3DShaderTechnique@2@U?$less@TShaderEnvKey2@Ogre@@@std@@V?$allocator@U?$pair@$$CBTShaderEnvKey2@Ogre@@PAVD3DShaderTechnique@2@@std@@@5@$0A@@std@@@std@@IAE?AViterator@12@_NPAU_Node@?$_Tree_nod@V?$_Tmap_traits@TShaderEnvKey2@Ogre@@PAVD3DShaderTechnique@2@U?$less@TShaderEnvKey2@Ogre@@@std@@V?$allocator@U?$pair@$$CBTShaderEnvKey2@Ogre@@PAVD3DShaderTechnique@2@@std@@@5@$0A@@std@@@2@ABU?$pair@$$CBTShaderEnvKey2@Ogre@@PAVD3DShaderTechnique@2@@2@@Z 10025d20 f i OgreD3DMaterialTemplate.obj
 0001:000251a0       ?_Lbound@?$_Tree@V?$_Tmap_traits@TShaderEnvKey2@Ogre@@PAVD3DShaderTechnique@2@U?$less@TShaderEnvKey2@Ogre@@@std@@V?$allocator@U?$pair@$$CBTShaderEnvKey2@Ogre@@PAVD3DShaderTechnique@2@@std@@@5@$0A@@std@@@std@@IBEPAU_Node@?$_Tree_nod@V?$_Tmap_traits@TShaderEnvKey2@Ogre@@PAVD3DShaderTechnique@2@U?$less@TShaderEnvKey2@Ogre@@@std@@V?$allocator@U?$pair@$$CBTShaderEnvKey2@Ogre@@PAVD3DShaderTechnique@2@@std@@@5@$0A@@std@@@2@ABTShaderEnvKey2@Ogre@@@Z 100261a0 f i OgreD3DMaterialTemplate.obj
 0001:00025230       ??0?$_Tree_val@V?$_Tmap_traits@TShaderEnvKey2@Ogre@@PAVD3DShaderTechnique@2@U?$less@TShaderEnvKey2@Ogre@@@std@@V?$allocator@U?$pair@$$CBTShaderEnvKey2@Ogre@@PAVD3DShaderTechnique@2@@std@@@5@$0A@@std@@@std@@IAE@ABU?$less@TShaderEnvKey2@Ogre@@@1@V?$allocator@U?$pair@$$CBTShaderEnvKey2@Ogre@@PAVD3DShaderTechnique@2@@std@@@1@@Z 10026230 f i OgreD3DMaterialTemplate.obj
 0001:00025230       ??0?$_Tree_val@V?$_Tmap_traits@VFixedString@Ogre@@PAVCompiledShaderGroup@2@U?$less@VFixedString@Ogre@@@std@@V?$allocator@U?$pair@$$CBVFixedString@Ogre@@PAVCompiledShaderGroup@2@@std@@@5@$0A@@std@@@std@@IAE@ABU?$less@VFixedString@Ogre@@@1@V?$allocator@U?$pair@$$CBVFixedString@Ogre@@PAVCompiledShaderGroup@2@@std@@@1@@Z 10026230 f i OgreD3DMaterialTemplate.obj
 0001:00025230       ??0?$_Tree_val@V?$_Tmap_traits@TShaderEnvKey@Ogre@@PAVD3DTech@2@U?$less@TShaderEnvKey@Ogre@@@std@@V?$allocator@U?$pair@$$CBTShaderEnvKey@Ogre@@PAVD3DTech@2@@std@@@5@$0A@@std@@@std@@IAE@ABU?$less@TShaderEnvKey@Ogre@@@1@V?$allocator@U?$pair@$$CBTShaderEnvKey@Ogre@@PAVD3DTech@2@@std@@@1@@Z 10026230 f i OgreD3DMaterialTemplate.obj
 0001:00025230       ??0?$_Tree_val@V?$_Tmap_traits@TShaderEnvKey@Ogre@@PAVCompiledShader@2@U?$less@TShaderEnvKey@Ogre@@@std@@V?$allocator@U?$pair@$$CBTShaderEnvKey@Ogre@@PAVCompiledShader@2@@std@@@5@$0A@@std@@@std@@IAE@ABU?$less@TShaderEnvKey@Ogre@@@1@V?$allocator@U?$pair@$$CBTShaderEnvKey@Ogre@@PAVCompiledShader@2@@std@@@1@@Z 10026230 f i OgreD3D9ShaderManager.obj
 0001:000252b0       ?_Insert_n@?$vector@IV?$allocator@I@std@@@std@@IAEXV?$_Vector_const_iterator@IV?$allocator@I@std@@@2@IABI@Z 100262b0 f i OgreD3D9DriverEnum.obj
 0001:000252b0       ?_Insert_n@?$vector@PAUTechniqueDesc@Ogre@@V?$allocator@PAUTechniqueDesc@Ogre@@@std@@@std@@IAEXV?$_Vector_const_iterator@PAUTechniqueDesc@Ogre@@V?$allocator@PAUTechniqueDesc@Ogre@@@std@@@2@IABQAUTechniqueDesc@Ogre@@@Z 100262b0 f i OgreD3D9ShaderManager.obj
 0001:000252b0       ?_Insert_n@?$vector@PAVD3D9VertexDecl@Ogre@@V?$allocator@PAVD3D9VertexDecl@Ogre@@@std@@@std@@IAEXV?$_Vector_const_iterator@PAVD3D9VertexDecl@Ogre@@V?$allocator@PAVD3D9VertexDecl@Ogre@@@std@@@2@IABQAVD3D9VertexDecl@Ogre@@@Z 100262b0 f i OgreD3D9RenderSystem.obj
 0001:000252b0       ?_Insert_n@?$vector@PAUD3DDEVCOMBO_T@Ogre@@V?$allocator@PAUD3DDEVCOMBO_T@Ogre@@@std@@@std@@IAEXV?$_Vector_const_iterator@PAUD3DDEVCOMBO_T@Ogre@@V?$allocator@PAUD3DDEVCOMBO_T@Ogre@@@std@@@2@IABQAUD3DDEVCOMBO_T@Ogre@@@Z 100262b0 f i OgreD3D9DriverEnum.obj
 0001:000252b0       ?_Insert_n@?$vector@PAUD3DADAPTER_T@Ogre@@V?$allocator@PAUD3DADAPTER_T@Ogre@@@std@@@std@@IAEXV?$_Vector_const_iterator@PAUD3DADAPTER_T@Ogre@@V?$allocator@PAUD3DADAPTER_T@Ogre@@@std@@@2@IABQAUD3DADAPTER_T@Ogre@@@Z 100262b0 f i OgreD3D9DriverEnum.obj
 0001:000252b0       ?_Insert_n@?$vector@PAVCompiledShader@Ogre@@V?$allocator@PAVCompiledShader@Ogre@@@std@@@std@@IAEXV?$_Vector_const_iterator@PAVCompiledShader@Ogre@@V?$allocator@PAVCompiledShader@Ogre@@@std@@@2@IABQAVCompiledShader@Ogre@@@Z 100262b0 f i OgreD3D9ShaderManager.obj
 0001:000252b0       ?_Insert_n@?$vector@PAVD3DRenderWindow@Ogre@@V?$allocator@PAVD3DRenderWindow@Ogre@@@std@@@std@@IAEXV?$_Vector_const_iterator@PAVD3DRenderWindow@Ogre@@V?$allocator@PAVD3DRenderWindow@Ogre@@@std@@@2@IABQAVD3DRenderWindow@Ogre@@@Z 100262b0 f i OgreD3D9RenderSystem.obj
 0001:000252b0       ?_Insert_n@?$vector@PAVD3D9TextureRenderTarget@Ogre@@V?$allocator@PAVD3D9TextureRenderTarget@Ogre@@@std@@@std@@IAEXV?$_Vector_const_iterator@PAVD3D9TextureRenderTarget@Ogre@@V?$allocator@PAVD3D9TextureRenderTarget@Ogre@@@std@@@2@IABQAVD3D9TextureRenderTarget@Ogre@@@Z 100262b0 f i OgreD3D9HardwarePixelBuffer.obj
 0001:000252b0       ?_Insert_n@?$vector@PAUD3DDEVICEINFO_T@Ogre@@V?$allocator@PAUD3DDEVICEINFO_T@Ogre@@@std@@@std@@IAEXV?$_Vector_const_iterator@PAUD3DDEVICEINFO_T@Ogre@@V?$allocator@PAUD3DDEVICEINFO_T@Ogre@@@std@@@2@IABQAUD3DDEVICEINFO_T@Ogre@@@Z 100262b0 f i OgreD3D9DriverEnum.obj
 0001:000252b0       ?_Insert_n@?$vector@PAUTechCache@D3DMaterialTemplate@Ogre@@V?$allocator@PAUTechCache@D3DMaterialTemplate@Ogre@@@std@@@std@@IAEXV?$_Vector_const_iterator@PAUTechCache@D3DMaterialTemplate@Ogre@@V?$allocator@PAUTechCache@D3DMaterialTemplate@Ogre@@@std@@@2@IABQAUTechCache@D3DMaterialTemplate@Ogre@@@Z 100262b0 f i OgreD3DMaterialTemplate.obj
 0001:00025660       ??0const_iterator@?$_Tree@V?$_Tmap_traits@VFixedString@Ogre@@PAVCompiledShaderGroup@2@U?$less@VFixedString@Ogre@@@std@@V?$allocator@U?$pair@$$CBVFixedString@Ogre@@PAVCompiledShaderGroup@2@@std@@@5@$0A@@std@@@std@@QAE@XZ 10026660 f i OgreD3DMaterialTemplate.obj
 0001:00025660       ??0const_iterator@?$_Tree@V?$_Tmap_traits@TShaderEnvKey@Ogre@@PAVCompiledShader@2@U?$less@TShaderEnvKey@Ogre@@@std@@V?$allocator@U?$pair@$$CBTShaderEnvKey@Ogre@@PAVCompiledShader@2@@std@@@5@$0A@@std@@@std@@QAE@XZ 10026660 f i OgreD3D9ShaderManager.obj
 0001:00025660       ??0const_iterator@?$_Tree@V?$_Tmap_traits@TShaderEnvKey@Ogre@@PAVD3DTech@2@U?$less@TShaderEnvKey@Ogre@@@std@@V?$allocator@U?$pair@$$CBTShaderEnvKey@Ogre@@PAVD3DTech@2@@std@@@5@$0A@@std@@@std@@QAE@XZ 10026660 f i OgreD3DMaterialTemplate.obj
 0001:00025660       ??0const_iterator@?$_Tree@V?$_Tmap_traits@TShaderEnvKey2@Ogre@@PAVD3DShaderTechnique@2@U?$less@TShaderEnvKey2@Ogre@@@std@@V?$allocator@U?$pair@$$CBTShaderEnvKey2@Ogre@@PAVD3DShaderTechnique@2@@std@@@5@$0A@@std@@@std@@QAE@XZ 10026660 f i OgreD3DMaterialTemplate.obj
 0001:00025680       ??Dconst_iterator@?$_Tree@V?$_Tmap_traits@VFixedString@Ogre@@PAVCompiledShaderGroup@2@U?$less@VFixedString@Ogre@@@std@@V?$allocator@U?$pair@$$CBVFixedString@Ogre@@PAVCompiledShaderGroup@2@@std@@@5@$0A@@std@@@std@@QBEABU?$pair@$$CBVFixedString@Ogre@@PAVCompiledShaderGroup@2@@2@XZ 10026680 f i OgreD3DMaterialTemplate.obj
 0001:00025680       ??Dconst_iterator@?$_Tree@V?$_Tmap_traits@VFixedString@Ogre@@PAVMaterialTemplate@2@U?$less@VFixedString@Ogre@@@std@@V?$allocator@U?$pair@$$CBVFixedString@Ogre@@PAVMaterialTemplate@2@@std@@@5@$0A@@std@@@std@@QBEABU?$pair@$$CBVFixedString@Ogre@@PAVMaterialTemplate@2@@2@XZ 10026680 f i OgreD3DMaterialTemplate.obj
 0001:00025680       ??Dconst_iterator@?$_Tree@V?$_Tmap_traits@IPAVHardwareBufferPool@Ogre@@U?$less@I@std@@V?$allocator@U?$pair@$$CBIPAVHardwareBufferPool@Ogre@@@std@@@4@$0A@@std@@@std@@QBEABU?$pair@$$CBIPAVHardwareBufferPool@Ogre@@@2@XZ 10026680 f i OgreD3DHardwareBuffer.obj
 0001:00025680       ??Dconst_iterator@?$_Tree@V?$_Tmap_traits@IPAVHardwarePixelBufferPool@Ogre@@U?$less@I@std@@V?$allocator@U?$pair@$$CBIPAVHardwarePixelBufferPool@Ogre@@@std@@@4@$0A@@std@@@std@@QBEABU?$pair@$$CBIPAVHardwarePixelBufferPool@Ogre@@@2@XZ 10026680 f i OgreD3D9HardwarePixelBuffer.obj
 0001:000256d0       ??Econst_iterator@?$_Tree@V?$_Tmap_traits@VFixedString@Ogre@@PAVMaterialTemplate@2@U?$less@VFixedString@Ogre@@@std@@V?$allocator@U?$pair@$$CBVFixedString@Ogre@@PAVMaterialTemplate@2@@std@@@5@$0A@@std@@@std@@QAEAAV012@XZ 100266d0 f i OgreD3DMaterialTemplate.obj
 0001:000256d0       ??Econst_iterator@?$_Tree@V?$_Tmap_traits@IPAVHardwarePixelBufferPool@Ogre@@U?$less@I@std@@V?$allocator@U?$pair@$$CBIPAVHardwarePixelBufferPool@Ogre@@@std@@@4@$0A@@std@@@std@@QAEAAV012@XZ 100266d0 f i OgreD3D9HardwarePixelBuffer.obj
 0001:000256d0       ??Econst_iterator@?$_Tree@V?$_Tmap_traits@IPAVHardwareBufferPool@Ogre@@U?$less@I@std@@V?$allocator@U?$pair@$$CBIPAVHardwareBufferPool@Ogre@@@std@@@4@$0A@@std@@@std@@QAEAAV012@XZ 100266d0 f i OgreD3DHardwareBuffer.obj
 0001:000256d0       ??Econst_iterator@?$_Tree@V?$_Tmap_traits@VFixedString@Ogre@@PAVCompiledShaderGroup@2@U?$less@VFixedString@Ogre@@@std@@V?$allocator@U?$pair@$$CBVFixedString@Ogre@@PAVCompiledShaderGroup@2@@std@@@5@$0A@@std@@@std@@QAEAAV012@XZ 100266d0 f i OgreD3DMaterialTemplate.obj
 0001:000256f0       ??Fconst_iterator@?$_Tree@V?$_Tmap_traits@VFixedString@Ogre@@PAVCompiledShaderGroup@2@U?$less@VFixedString@Ogre@@@std@@V?$allocator@U?$pair@$$CBVFixedString@Ogre@@PAVCompiledShaderGroup@2@@std@@@5@$0A@@std@@@std@@QAEAAV012@XZ 100266f0 f i OgreD3DMaterialTemplate.obj
 0001:00025710       ??Dconst_iterator@?$_Tree@V?$_Tmap_traits@TShaderEnvKey@Ogre@@PAVCompiledShader@2@U?$less@TShaderEnvKey@Ogre@@@std@@V?$allocator@U?$pair@$$CBTShaderEnvKey@Ogre@@PAVCompiledShader@2@@std@@@5@$0A@@std@@@std@@QBEABU?$pair@$$CBTShaderEnvKey@Ogre@@PAVCompiledShader@2@@2@XZ 10026710 f i OgreD3D9ShaderManager.obj
 0001:00025710       ??Dconst_iterator@?$_Tree@V?$_Tmap_traits@TShaderEnvKey@Ogre@@PAVD3DTech@2@U?$less@TShaderEnvKey@Ogre@@@std@@V?$allocator@U?$pair@$$CBTShaderEnvKey@Ogre@@PAVD3DTech@2@@std@@@5@$0A@@std@@@std@@QBEABU?$pair@$$CBTShaderEnvKey@Ogre@@PAVD3DTech@2@@2@XZ 10026710 f i OgreD3DMaterialTemplate.obj
 0001:00025710       ??Dconst_iterator@?$_Tree@V?$_Tmap_traits@TShaderEnvKey2@Ogre@@PAVD3DShaderTechnique@2@U?$less@TShaderEnvKey2@Ogre@@@std@@V?$allocator@U?$pair@$$CBTShaderEnvKey2@Ogre@@PAVD3DShaderTechnique@2@@std@@@5@$0A@@std@@@std@@QBEABU?$pair@$$CBTShaderEnvKey2@Ogre@@PAVD3DShaderTechnique@2@@2@XZ 10026710 f i OgreD3DMaterialTemplate.obj
 0001:00025760       ??Econst_iterator@?$_Tree@V?$_Tmap_traits@TShaderEnvKey2@Ogre@@PAVD3DShaderTechnique@2@U?$less@TShaderEnvKey2@Ogre@@@std@@V?$allocator@U?$pair@$$CBTShaderEnvKey2@Ogre@@PAVD3DShaderTechnique@2@@std@@@5@$0A@@std@@@std@@QAEAAV012@XZ 10026760 f i OgreD3DMaterialTemplate.obj
 0001:00025780       ??Fconst_iterator@?$_Tree@V?$_Tmap_traits@TShaderEnvKey2@Ogre@@PAVD3DShaderTechnique@2@U?$less@TShaderEnvKey2@Ogre@@@std@@V?$allocator@U?$pair@$$CBTShaderEnvKey2@Ogre@@PAVD3DShaderTechnique@2@@std@@@5@$0A@@std@@@std@@QAEAAV012@XZ 10026780 f i OgreD3DMaterialTemplate.obj
 0001:000257a0       ??Fconst_iterator@?$_Tree@V?$_Tmap_traits@TShaderEnvKey@Ogre@@PAVD3DTech@2@U?$less@TShaderEnvKey@Ogre@@@std@@V?$allocator@U?$pair@$$CBTShaderEnvKey@Ogre@@PAVD3DTech@2@@std@@@5@$0A@@std@@@std@@QAEAAV012@XZ 100267a0 f i OgreD3DMaterialTemplate.obj
 0001:000257a0       ??Fconst_iterator@?$_Tree@V?$_Tmap_traits@TShaderEnvKey@Ogre@@PAVCompiledShader@2@U?$less@TShaderEnvKey@Ogre@@@std@@V?$allocator@U?$pair@$$CBTShaderEnvKey@Ogre@@PAVCompiledShader@2@@std@@@5@$0A@@std@@@std@@QAEAAV012@XZ 100267a0 f i OgreD3D9ShaderManager.obj
 0001:000257c0       ??G?$_Vector_const_iterator@PAUD3DADAPTER_T@Ogre@@V?$allocator@PAUD3DADAPTER_T@Ogre@@@std@@@std@@QBEHABV01@@Z 100267c0 f i OgreD3D9DriverEnum.obj
 0001:000257c0       ??G?$_Vector_const_iterator@W4_D3DFORMAT@@V?$allocator@W4_D3DFORMAT@@@std@@@std@@QBEHABV01@@Z 100267c0 f i OgreD3D9DriverEnum.obj
 0001:000257c0       ??G?$_Vector_const_iterator@PAVD3D9VertexDecl@Ogre@@V?$allocator@PAVD3D9VertexDecl@Ogre@@@std@@@std@@QBEHABV01@@Z 100267c0 f i OgreD3D9RenderSystem.obj
 0001:000257c0       ??G?$_Vector_const_iterator@W4VERTPROCESS_T@Ogre@@V?$allocator@W4VERTPROCESS_T@Ogre@@@std@@@std@@QBEHABV01@@Z 100267c0 f i OgreD3D9DriverEnum.obj
 0001:000257c0       ??G?$_Vector_const_iterator@W4_D3DMULTISAMPLE_TYPE@@V?$allocator@W4_D3DMULTISAMPLE_TYPE@@@std@@@std@@QBEHABV01@@Z 100267c0 f i OgreD3D9DriverEnum.obj
 0001:000257c0       ??G?$_Vector_const_iterator@PAUTechniqueDesc@Ogre@@V?$allocator@PAUTechniqueDesc@Ogre@@@std@@@std@@QBEHABV01@@Z 100267c0 f i OgreD3D9ShaderManager.obj
 0001:000257c0       ??G?$_Vector_const_iterator@PAVD3DRenderWindow@Ogre@@V?$allocator@PAVD3DRenderWindow@Ogre@@@std@@@std@@QBEHABV01@@Z 100267c0 f i OgreD3D9RenderSystem.obj
 0001:000257c0       ??G?$_Vector_const_iterator@PAUD3DDEVICEINFO_T@Ogre@@V?$allocator@PAUD3DDEVICEINFO_T@Ogre@@@std@@@std@@QBEHABV01@@Z 100267c0 f i OgreD3D9DriverEnum.obj
 0001:000257c0       ??G?$_Vector_const_iterator@PAUTechCache@D3DMaterialTemplate@Ogre@@V?$allocator@PAUTechCache@D3DMaterialTemplate@Ogre@@@std@@@std@@QBEHABV01@@Z 100267c0 f i OgreD3DMaterialTemplate.obj
 0001:000257c0       ??G?$_Vector_const_iterator@IV?$allocator@I@std@@@std@@QBEHABV01@@Z 100267c0 f i OgreD3D9DriverEnum.obj
 0001:000257c0       ??G?$_Vector_const_iterator@PAUD3DDEVCOMBO_T@Ogre@@V?$allocator@PAUD3DDEVCOMBO_T@Ogre@@@std@@@std@@QBEHABV01@@Z 100267c0 f i OgreD3D9DriverEnum.obj
 0001:000257c0       ??G?$_Vector_const_iterator@PAVCompiledShader@Ogre@@V?$allocator@PAVCompiledShader@Ogre@@@std@@@std@@QBEHABV01@@Z 100267c0 f i OgreD3D9ShaderManager.obj
 0001:000257c0       ??G?$_Vector_const_iterator@PAVD3D9TextureRenderTarget@Ogre@@V?$allocator@PAVD3D9TextureRenderTarget@Ogre@@@std@@@std@@QBEHABV01@@Z 100267c0 f i OgreD3D9HardwarePixelBuffer.obj
 0001:00025810       ?_Color@?$_Tree@V?$_Tmap_traits@TShaderEnvKey@Ogre@@PAVD3DTech@2@U?$less@TShaderEnvKey@Ogre@@@std@@V?$allocator@U?$pair@$$CBTShaderEnvKey@Ogre@@PAVD3DTech@2@@std@@@5@$0A@@std@@@std@@KAAADPAU_Node@?$_Tree_nod@V?$_Tmap_traits@TShaderEnvKey@Ogre@@PAVD3DTech@2@U?$less@TShaderEnvKey@Ogre@@@std@@V?$allocator@U?$pair@$$CBTShaderEnvKey@Ogre@@PAVD3DTech@2@@std@@@5@$0A@@std@@@2@@Z 10026810 f i OgreD3DMaterialTemplate.obj
 0001:00025810       ?_Color@?$_Tree@V?$_Tmap_traits@TShaderEnvKey@Ogre@@PAVCompiledShader@2@U?$less@TShaderEnvKey@Ogre@@@std@@V?$allocator@U?$pair@$$CBTShaderEnvKey@Ogre@@PAVCompiledShader@2@@std@@@5@$0A@@std@@@std@@KAAADPAU_Node@?$_Tree_nod@V?$_Tmap_traits@TShaderEnvKey@Ogre@@PAVCompiledShader@2@U?$less@TShaderEnvKey@Ogre@@@std@@V?$allocator@U?$pair@$$CBTShaderEnvKey@Ogre@@PAVCompiledShader@2@@std@@@5@$0A@@std@@@2@@Z 10026810 f i OgreD3D9ShaderManager.obj
 0001:00025820       ?_Lrotate@?$_Tree@V?$_Tmap_traits@TShaderEnvKey@Ogre@@PAVCompiledShader@2@U?$less@TShaderEnvKey@Ogre@@@std@@V?$allocator@U?$pair@$$CBTShaderEnvKey@Ogre@@PAVCompiledShader@2@@std@@@5@$0A@@std@@@std@@IAEXPAU_Node@?$_Tree_nod@V?$_Tmap_traits@TShaderEnvKey@Ogre@@PAVCompiledShader@2@U?$less@TShaderEnvKey@Ogre@@@std@@V?$allocator@U?$pair@$$CBTShaderEnvKey@Ogre@@PAVCompiledShader@2@@std@@@5@$0A@@std@@@2@@Z 10026820 f i OgreD3D9ShaderManager.obj
 0001:00025820       ?_Lrotate@?$_Tree@V?$_Tmap_traits@TShaderEnvKey@Ogre@@PAVD3DTech@2@U?$less@TShaderEnvKey@Ogre@@@std@@V?$allocator@U?$pair@$$CBTShaderEnvKey@Ogre@@PAVD3DTech@2@@std@@@5@$0A@@std@@@std@@IAEXPAU_Node@?$_Tree_nod@V?$_Tmap_traits@TShaderEnvKey@Ogre@@PAVD3DTech@2@U?$less@TShaderEnvKey@Ogre@@@std@@V?$allocator@U?$pair@$$CBTShaderEnvKey@Ogre@@PAVD3DTech@2@@std@@@5@$0A@@std@@@2@@Z 10026820 f i OgreD3DMaterialTemplate.obj
 0001:00025950       ?_Rrotate@?$_Tree@V?$_Tmap_traits@TShaderEnvKey@Ogre@@PAVCompiledShader@2@U?$less@TShaderEnvKey@Ogre@@@std@@V?$allocator@U?$pair@$$CBTShaderEnvKey@Ogre@@PAVCompiledShader@2@@std@@@5@$0A@@std@@@std@@IAEXPAU_Node@?$_Tree_nod@V?$_Tmap_traits@TShaderEnvKey@Ogre@@PAVCompiledShader@2@U?$less@TShaderEnvKey@Ogre@@@std@@V?$allocator@U?$pair@$$CBTShaderEnvKey@Ogre@@PAVCompiledShader@2@@std@@@5@$0A@@std@@@2@@Z 10026950 f i OgreD3D9ShaderManager.obj
 0001:00025950       ?_Rrotate@?$_Tree@V?$_Tmap_traits@TShaderEnvKey@Ogre@@PAVD3DTech@2@U?$less@TShaderEnvKey@Ogre@@@std@@V?$allocator@U?$pair@$$CBTShaderEnvKey@Ogre@@PAVD3DTech@2@@std@@@5@$0A@@std@@@std@@IAEXPAU_Node@?$_Tree_nod@V?$_Tmap_traits@TShaderEnvKey@Ogre@@PAVD3DTech@2@U?$less@TShaderEnvKey@Ogre@@@std@@V?$allocator@U?$pair@$$CBTShaderEnvKey@Ogre@@PAVD3DTech@2@@std@@@5@$0A@@std@@@2@@Z 10026950 f i OgreD3DMaterialTemplate.obj
 0001:00025a80       ?_Buynode@?$_Tree@V?$_Tmap_traits@TShaderEnvKey@Ogre@@PAVD3DTech@2@U?$less@TShaderEnvKey@Ogre@@@std@@V?$allocator@U?$pair@$$CBTShaderEnvKey@Ogre@@PAVD3DTech@2@@std@@@5@$0A@@std@@@std@@IAEPAU_Node@?$_Tree_nod@V?$_Tmap_traits@TShaderEnvKey@Ogre@@PAVD3DTech@2@U?$less@TShaderEnvKey@Ogre@@@std@@V?$allocator@U?$pair@$$CBTShaderEnvKey@Ogre@@PAVD3DTech@2@@std@@@5@$0A@@std@@@2@XZ 10026a80 f i OgreD3DMaterialTemplate.obj
 0001:00025a80       ?_Buynode@?$_Tree@V?$_Tmap_traits@TShaderEnvKey@Ogre@@PAVCompiledShader@2@U?$less@TShaderEnvKey@Ogre@@@std@@V?$allocator@U?$pair@$$CBTShaderEnvKey@Ogre@@PAVCompiledShader@2@@std@@@5@$0A@@std@@@std@@IAEPAU_Node@?$_Tree_nod@V?$_Tmap_traits@TShaderEnvKey@Ogre@@PAVCompiledShader@2@U?$less@TShaderEnvKey@Ogre@@@std@@V?$allocator@U?$pair@$$CBTShaderEnvKey@Ogre@@PAVCompiledShader@2@@std@@@5@$0A@@std@@@2@XZ 10026a80 f i OgreD3D9ShaderManager.obj
 0001:00025bf0       ?_Buynode@?$_Tree@V?$_Tmap_traits@TShaderEnvKey@Ogre@@PAVD3DTech@2@U?$less@TShaderEnvKey@Ogre@@@std@@V?$allocator@U?$pair@$$CBTShaderEnvKey@Ogre@@PAVD3DTech@2@@std@@@5@$0A@@std@@@std@@IAEPAU_Node@?$_Tree_nod@V?$_Tmap_traits@TShaderEnvKey@Ogre@@PAVD3DTech@2@U?$less@TShaderEnvKey@Ogre@@@std@@V?$allocator@U?$pair@$$CBTShaderEnvKey@Ogre@@PAVD3DTech@2@@std@@@5@$0A@@std@@@2@PAU342@00ABU?$pair@$$CBTShaderEnvKey@Ogre@@PAVD3DTech@2@@2@D@Z 10026bf0 f i OgreD3DMaterialTemplate.obj
 0001:00025bf0       ?_Buynode@?$_Tree@V?$_Tmap_traits@TShaderEnvKey@Ogre@@PAVCompiledShader@2@U?$less@TShaderEnvKey@Ogre@@@std@@V?$allocator@U?$pair@$$CBTShaderEnvKey@Ogre@@PAVCompiledShader@2@@std@@@5@$0A@@std@@@std@@IAEPAU_Node@?$_Tree_nod@V?$_Tmap_traits@TShaderEnvKey@Ogre@@PAVCompiledShader@2@U?$less@TShaderEnvKey@Ogre@@@std@@V?$allocator@U?$pair@$$CBTShaderEnvKey@Ogre@@PAVCompiledShader@2@@std@@@5@$0A@@std@@@2@PAU342@00ABU?$pair@$$CBTShaderEnvKey@Ogre@@PAVCompiledShader@2@@2@D@Z 10026bf0 f i OgreD3D9ShaderManager.obj
 0001:00025cd0       ?_Color@?$_Tree@V?$_Tmap_traits@VFixedString@Ogre@@PAVCompiledShaderGroup@2@U?$less@VFixedString@Ogre@@@std@@V?$allocator@U?$pair@$$CBVFixedString@Ogre@@PAVCompiledShaderGroup@2@@std@@@5@$0A@@std@@@std@@KAAADPAU_Node@?$_Tree_nod@V?$_Tmap_traits@VFixedString@Ogre@@PAVCompiledShaderGroup@2@U?$less@VFixedString@Ogre@@@std@@V?$allocator@U?$pair@$$CBVFixedString@Ogre@@PAVCompiledShaderGroup@2@@std@@@5@$0A@@std@@@2@@Z 10026cd0 f i OgreD3DMaterialTemplate.obj
 0001:00025ce0       ?max_size@?$_Tree@V?$_Tmap_traits@VFixedString@Ogre@@PAVCompiledShaderGroup@2@U?$less@VFixedString@Ogre@@@std@@V?$allocator@U?$pair@$$CBVFixedString@Ogre@@PAVCompiledShaderGroup@2@@std@@@5@$0A@@std@@@std@@QBEIXZ 10026ce0 f i OgreD3DMaterialTemplate.obj
 0001:00025d00       ?erase@?$_Tree@V?$_Tmap_traits@VFixedString@Ogre@@PAVCompiledShaderGroup@2@U?$less@VFixedString@Ogre@@@std@@V?$allocator@U?$pair@$$CBVFixedString@Ogre@@PAVCompiledShaderGroup@2@@std@@@5@$0A@@std@@@std@@QAE?AViterator@12@Vconst_iterator@12@@Z 10026d00 f i OgreD3DMaterialTemplate.obj
 0001:000264e0       ?clear@?$_Tree@V?$_Tmap_traits@VFixedString@Ogre@@PAVCompiledShaderGroup@2@U?$less@VFixedString@Ogre@@@std@@V?$allocator@U?$pair@$$CBVFixedString@Ogre@@PAVCompiledShaderGroup@2@@std@@@5@$0A@@std@@@std@@QAEXXZ 100274e0 f i OgreD3DMaterialTemplate.obj
 0001:00026540       ?_Lrotate@?$_Tree@V?$_Tmap_traits@VFixedString@Ogre@@PAVCompiledShaderGroup@2@U?$less@VFixedString@Ogre@@@std@@V?$allocator@U?$pair@$$CBVFixedString@Ogre@@PAVCompiledShaderGroup@2@@std@@@5@$0A@@std@@@std@@IAEXPAU_Node@?$_Tree_nod@V?$_Tmap_traits@VFixedString@Ogre@@PAVCompiledShaderGroup@2@U?$less@VFixedString@Ogre@@@std@@V?$allocator@U?$pair@$$CBVFixedString@Ogre@@PAVCompiledShaderGroup@2@@std@@@5@$0A@@std@@@2@@Z 10027540 f i OgreD3DMaterialTemplate.obj
 0001:00026670       ?_Root@?$_Tree@V?$_Tmap_traits@TShaderEnvKey@Ogre@@PAVCompiledShader@2@U?$less@TShaderEnvKey@Ogre@@@std@@V?$allocator@U?$pair@$$CBTShaderEnvKey@Ogre@@PAVCompiledShader@2@@std@@@5@$0A@@std@@@std@@IBEAAPAU_Node@?$_Tree_nod@V?$_Tmap_traits@TShaderEnvKey@Ogre@@PAVCompiledShader@2@U?$less@TShaderEnvKey@Ogre@@@std@@V?$allocator@U?$pair@$$CBTShaderEnvKey@Ogre@@PAVCompiledShader@2@@std@@@5@$0A@@std@@@2@XZ 10027670 f i OgreD3D9ShaderManager.obj
 0001:00026670       ?_Root@?$_Tree@V?$_Tmap_traits@TShaderEnvKey@Ogre@@PAVD3DTech@2@U?$less@TShaderEnvKey@Ogre@@@std@@V?$allocator@U?$pair@$$CBTShaderEnvKey@Ogre@@PAVD3DTech@2@@std@@@5@$0A@@std@@@std@@IBEAAPAU_Node@?$_Tree_nod@V?$_Tmap_traits@TShaderEnvKey@Ogre@@PAVD3DTech@2@U?$less@TShaderEnvKey@Ogre@@@std@@V?$allocator@U?$pair@$$CBTShaderEnvKey@Ogre@@PAVD3DTech@2@@std@@@5@$0A@@std@@@2@XZ 10027670 f i OgreD3DMaterialTemplate.obj
 0001:00026670       ?_Root@?$_Tree@V?$_Tmap_traits@TShaderEnvKey2@Ogre@@PAVD3DShaderTechnique@2@U?$less@TShaderEnvKey2@Ogre@@@std@@V?$allocator@U?$pair@$$CBTShaderEnvKey2@Ogre@@PAVD3DShaderTechnique@2@@std@@@5@$0A@@std@@@std@@IBEAAPAU_Node@?$_Tree_nod@V?$_Tmap_traits@TShaderEnvKey2@Ogre@@PAVD3DShaderTechnique@2@U?$less@TShaderEnvKey2@Ogre@@@std@@V?$allocator@U?$pair@$$CBTShaderEnvKey2@Ogre@@PAVD3DShaderTechnique@2@@std@@@5@$0A@@std@@@2@XZ 10027670 f i OgreD3DMaterialTemplate.obj
 0001:00026670       ?_Root@?$_Tree@V?$_Tmap_traits@VFixedString@Ogre@@PAVCompiledShaderGroup@2@U?$less@VFixedString@Ogre@@@std@@V?$allocator@U?$pair@$$CBVFixedString@Ogre@@PAVCompiledShaderGroup@2@@std@@@5@$0A@@std@@@std@@IBEAAPAU_Node@?$_Tree_nod@V?$_Tmap_traits@VFixedString@Ogre@@PAVCompiledShaderGroup@2@U?$less@VFixedString@Ogre@@@std@@V?$allocator@U?$pair@$$CBVFixedString@Ogre@@PAVCompiledShaderGroup@2@@std@@@5@$0A@@std@@@2@XZ 10027670 f i OgreD3DMaterialTemplate.obj
 0001:00026690       ?_Rrotate@?$_Tree@V?$_Tmap_traits@VFixedString@Ogre@@PAVCompiledShaderGroup@2@U?$less@VFixedString@Ogre@@@std@@V?$allocator@U?$pair@$$CBVFixedString@Ogre@@PAVCompiledShaderGroup@2@@std@@@5@$0A@@std@@@std@@IAEXPAU_Node@?$_Tree_nod@V?$_Tmap_traits@VFixedString@Ogre@@PAVCompiledShaderGroup@2@U?$less@VFixedString@Ogre@@@std@@V?$allocator@U?$pair@$$CBVFixedString@Ogre@@PAVCompiledShaderGroup@2@@std@@@5@$0A@@std@@@2@@Z 10027690 f i OgreD3DMaterialTemplate.obj
 0001:000267c0       ?_Buynode@?$_Tree@V?$_Tmap_traits@VFixedString@Ogre@@PAVCompiledShaderGroup@2@U?$less@VFixedString@Ogre@@@std@@V?$allocator@U?$pair@$$CBVFixedString@Ogre@@PAVCompiledShaderGroup@2@@std@@@5@$0A@@std@@@std@@IAEPAU_Node@?$_Tree_nod@V?$_Tmap_traits@VFixedString@Ogre@@PAVCompiledShaderGroup@2@U?$less@VFixedString@Ogre@@@std@@V?$allocator@U?$pair@$$CBVFixedString@Ogre@@PAVCompiledShaderGroup@2@@std@@@5@$0A@@std@@@2@XZ 100277c0 f i OgreD3DMaterialTemplate.obj
 0001:00026930       ?_Buynode@?$_Tree@V?$_Tmap_traits@VFixedString@Ogre@@PAVCompiledShaderGroup@2@U?$less@VFixedString@Ogre@@@std@@V?$allocator@U?$pair@$$CBVFixedString@Ogre@@PAVCompiledShaderGroup@2@@std@@@5@$0A@@std@@@std@@IAEPAU_Node@?$_Tree_nod@V?$_Tmap_traits@VFixedString@Ogre@@PAVCompiledShaderGroup@2@U?$less@VFixedString@Ogre@@@std@@V?$allocator@U?$pair@$$CBVFixedString@Ogre@@PAVCompiledShaderGroup@2@@std@@@5@$0A@@std@@@2@PAU342@00ABU?$pair@$$CBVFixedString@Ogre@@PAVCompiledShaderGroup@2@@2@D@Z 10027930 f i OgreD3DMaterialTemplate.obj
 0001:00026a10       ?_Color@?$_Tree@V?$_Tmap_traits@TShaderEnvKey2@Ogre@@PAVD3DShaderTechnique@2@U?$less@TShaderEnvKey2@Ogre@@@std@@V?$allocator@U?$pair@$$CBTShaderEnvKey2@Ogre@@PAVD3DShaderTechnique@2@@std@@@5@$0A@@std@@@std@@KAAADPAU_Node@?$_Tree_nod@V?$_Tmap_traits@TShaderEnvKey2@Ogre@@PAVD3DShaderTechnique@2@U?$less@TShaderEnvKey2@Ogre@@@std@@V?$allocator@U?$pair@$$CBTShaderEnvKey2@Ogre@@PAVD3DShaderTechnique@2@@std@@@5@$0A@@std@@@2@@Z 10027a10 f i OgreD3DMaterialTemplate.obj
 0001:00026a20       ?max_size@?$_Tree@V?$_Tmap_traits@TShaderEnvKey2@Ogre@@PAVD3DShaderTechnique@2@U?$less@TShaderEnvKey2@Ogre@@@std@@V?$allocator@U?$pair@$$CBTShaderEnvKey2@Ogre@@PAVD3DShaderTechnique@2@@std@@@5@$0A@@std@@@std@@QBEIXZ 10027a20 f i OgreD3DMaterialTemplate.obj
 0001:00026a40       ?erase@?$_Tree@V?$_Tmap_traits@TShaderEnvKey2@Ogre@@PAVD3DShaderTechnique@2@U?$less@TShaderEnvKey2@Ogre@@@std@@V?$allocator@U?$pair@$$CBTShaderEnvKey2@Ogre@@PAVD3DShaderTechnique@2@@std@@@5@$0A@@std@@@std@@QAE?AViterator@12@Vconst_iterator@12@@Z 10027a40 f i OgreD3DMaterialTemplate.obj
 0001:00027220       ?clear@?$_Tree@V?$_Tmap_traits@TShaderEnvKey2@Ogre@@PAVD3DShaderTechnique@2@U?$less@TShaderEnvKey2@Ogre@@@std@@V?$allocator@U?$pair@$$CBTShaderEnvKey2@Ogre@@PAVD3DShaderTechnique@2@@std@@@5@$0A@@std@@@std@@QAEXXZ 10028220 f i OgreD3DMaterialTemplate.obj
 0001:00027280       ?_Lrotate@?$_Tree@V?$_Tmap_traits@TShaderEnvKey2@Ogre@@PAVD3DShaderTechnique@2@U?$less@TShaderEnvKey2@Ogre@@@std@@V?$allocator@U?$pair@$$CBTShaderEnvKey2@Ogre@@PAVD3DShaderTechnique@2@@std@@@5@$0A@@std@@@std@@IAEXPAU_Node@?$_Tree_nod@V?$_Tmap_traits@TShaderEnvKey2@Ogre@@PAVD3DShaderTechnique@2@U?$less@TShaderEnvKey2@Ogre@@@std@@V?$allocator@U?$pair@$$CBTShaderEnvKey2@Ogre@@PAVD3DShaderTechnique@2@@std@@@5@$0A@@std@@@2@@Z 10028280 f i OgreD3DMaterialTemplate.obj
 0001:000273b0       ?_Rrotate@?$_Tree@V?$_Tmap_traits@TShaderEnvKey2@Ogre@@PAVD3DShaderTechnique@2@U?$less@TShaderEnvKey2@Ogre@@@std@@V?$allocator@U?$pair@$$CBTShaderEnvKey2@Ogre@@PAVD3DShaderTechnique@2@@std@@@5@$0A@@std@@@std@@IAEXPAU_Node@?$_Tree_nod@V?$_Tmap_traits@TShaderEnvKey2@Ogre@@PAVD3DShaderTechnique@2@U?$less@TShaderEnvKey2@Ogre@@@std@@V?$allocator@U?$pair@$$CBTShaderEnvKey2@Ogre@@PAVD3DShaderTechnique@2@@std@@@5@$0A@@std@@@2@@Z 100283b0 f i OgreD3DMaterialTemplate.obj
 0001:000274e0       ?_Buynode@?$_Tree@V?$_Tmap_traits@TShaderEnvKey2@Ogre@@PAVD3DShaderTechnique@2@U?$less@TShaderEnvKey2@Ogre@@@std@@V?$allocator@U?$pair@$$CBTShaderEnvKey2@Ogre@@PAVD3DShaderTechnique@2@@std@@@5@$0A@@std@@@std@@IAEPAU_Node@?$_Tree_nod@V?$_Tmap_traits@TShaderEnvKey2@Ogre@@PAVD3DShaderTechnique@2@U?$less@TShaderEnvKey2@Ogre@@@std@@V?$allocator@U?$pair@$$CBTShaderEnvKey2@Ogre@@PAVD3DShaderTechnique@2@@std@@@5@$0A@@std@@@2@XZ 100284e0 f i OgreD3DMaterialTemplate.obj
 0001:00027650       ?_Buynode@?$_Tree@V?$_Tmap_traits@TShaderEnvKey2@Ogre@@PAVD3DShaderTechnique@2@U?$less@TShaderEnvKey2@Ogre@@@std@@V?$allocator@U?$pair@$$CBTShaderEnvKey2@Ogre@@PAVD3DShaderTechnique@2@@std@@@5@$0A@@std@@@std@@IAEPAU_Node@?$_Tree_nod@V?$_Tmap_traits@TShaderEnvKey2@Ogre@@PAVD3DShaderTechnique@2@U?$less@TShaderEnvKey2@Ogre@@@std@@V?$allocator@U?$pair@$$CBTShaderEnvKey2@Ogre@@PAVD3DShaderTechnique@2@@std@@@5@$0A@@std@@@2@PAU342@00ABU?$pair@$$CBTShaderEnvKey2@Ogre@@PAVD3DShaderTechnique@2@@2@D@Z 10028650 f i OgreD3DMaterialTemplate.obj
 0001:00027730       ??0?$_Tree_ptr@V?$_Tmap_traits@TShaderEnvKey@Ogre@@PAVD3DTech@2@U?$less@TShaderEnvKey@Ogre@@@std@@V?$allocator@U?$pair@$$CBTShaderEnvKey@Ogre@@PAVD3DTech@2@@std@@@5@$0A@@std@@@std@@IAE@ABU?$less@TShaderEnvKey@Ogre@@@1@V?$allocator@U?$pair@$$CBTShaderEnvKey@Ogre@@PAVD3DTech@2@@std@@@1@@Z 10028730 f i OgreD3DMaterialTemplate.obj
 0001:00027730       ??0?$_Tree_ptr@V?$_Tmap_traits@VFixedString@Ogre@@PAVCompiledShaderGroup@2@U?$less@VFixedString@Ogre@@@std@@V?$allocator@U?$pair@$$CBVFixedString@Ogre@@PAVCompiledShaderGroup@2@@std@@@5@$0A@@std@@@std@@IAE@ABU?$less@VFixedString@Ogre@@@1@V?$allocator@U?$pair@$$CBVFixedString@Ogre@@PAVCompiledShaderGroup@2@@std@@@1@@Z 10028730 f i OgreD3DMaterialTemplate.obj
 0001:00027730       ??0?$_Tree_ptr@V?$_Tmap_traits@TShaderEnvKey2@Ogre@@PAVD3DShaderTechnique@2@U?$less@TShaderEnvKey2@Ogre@@@std@@V?$allocator@U?$pair@$$CBTShaderEnvKey2@Ogre@@PAVD3DShaderTechnique@2@@std@@@5@$0A@@std@@@std@@IAE@ABU?$less@TShaderEnvKey2@Ogre@@@1@V?$allocator@U?$pair@$$CBTShaderEnvKey2@Ogre@@PAVD3DShaderTechnique@2@@std@@@1@@Z 10028730 f i OgreD3DMaterialTemplate.obj
 0001:00027730       ??0?$_Tree_ptr@V?$_Tmap_traits@TShaderEnvKey@Ogre@@PAVCompiledShader@2@U?$less@TShaderEnvKey@Ogre@@@std@@V?$allocator@U?$pair@$$CBTShaderEnvKey@Ogre@@PAVCompiledShader@2@@std@@@5@$0A@@std@@@std@@IAE@ABU?$less@TShaderEnvKey@Ogre@@@1@V?$allocator@U?$pair@$$CBTShaderEnvKey@Ogre@@PAVCompiledShader@2@@std@@@1@@Z 10028730 f i OgreD3D9ShaderManager.obj
 0001:000277b0       ??Fiterator@?$_Tree@V?$_Tmap_traits@VFixedString@Ogre@@PAVCompiledShaderGroup@2@U?$less@VFixedString@Ogre@@@std@@V?$allocator@U?$pair@$$CBVFixedString@Ogre@@PAVCompiledShaderGroup@2@@std@@@5@$0A@@std@@@std@@QAEAAV012@XZ 100287b0 f i OgreD3DMaterialTemplate.obj
 0001:000277d0       ??Econst_iterator@?$_Tree@V?$_Tmap_traits@VFixedString@Ogre@@PAVCompiledShaderGroup@2@U?$less@VFixedString@Ogre@@@std@@V?$allocator@U?$pair@$$CBVFixedString@Ogre@@PAVCompiledShaderGroup@2@@std@@@5@$0A@@std@@@std@@QAE?AV012@H@Z 100287d0 f i OgreD3DMaterialTemplate.obj
 0001:00027810       ?_Dec@const_iterator@?$_Tree@V?$_Tmap_traits@VFixedString@Ogre@@PAVCompiledShaderGroup@2@U?$less@VFixedString@Ogre@@@std@@V?$allocator@U?$pair@$$CBVFixedString@Ogre@@PAVCompiledShaderGroup@2@@std@@@5@$0A@@std@@@std@@QAEXXZ 10028810 f i OgreD3DMaterialTemplate.obj
 0001:00027940       ?_Inc@const_iterator@?$_Tree@V?$_Tmap_traits@IPAVHardwareBufferPool@Ogre@@U?$less@I@std@@V?$allocator@U?$pair@$$CBIPAVHardwareBufferPool@Ogre@@@std@@@4@$0A@@std@@@std@@QAEXXZ 10028940 f i OgreD3DHardwareBuffer.obj
 0001:00027940       ?_Inc@const_iterator@?$_Tree@V?$_Tmap_traits@VFixedString@Ogre@@PAVMaterialTemplate@2@U?$less@VFixedString@Ogre@@@std@@V?$allocator@U?$pair@$$CBVFixedString@Ogre@@PAVMaterialTemplate@2@@std@@@5@$0A@@std@@@std@@QAEXXZ 10028940 f i OgreD3DMaterialTemplate.obj
 0001:00027940       ?_Inc@const_iterator@?$_Tree@V?$_Tmap_traits@IPAVHardwarePixelBufferPool@Ogre@@U?$less@I@std@@V?$allocator@U?$pair@$$CBIPAVHardwarePixelBufferPool@Ogre@@@std@@@4@$0A@@std@@@std@@QAEXXZ 10028940 f i OgreD3D9HardwarePixelBuffer.obj
 0001:00027940       ?_Inc@const_iterator@?$_Tree@V?$_Tmap_traits@VFixedString@Ogre@@PAVCompiledShaderGroup@2@U?$less@VFixedString@Ogre@@@std@@V?$allocator@U?$pair@$$CBVFixedString@Ogre@@PAVCompiledShaderGroup@2@@std@@@5@$0A@@std@@@std@@QAEXXZ 10028940 f i OgreD3DMaterialTemplate.obj
 0001:00027a20       ??Fiterator@?$_Tree@V?$_Tmap_traits@TShaderEnvKey2@Ogre@@PAVD3DShaderTechnique@2@U?$less@TShaderEnvKey2@Ogre@@@std@@V?$allocator@U?$pair@$$CBTShaderEnvKey2@Ogre@@PAVD3DShaderTechnique@2@@std@@@5@$0A@@std@@@std@@QAEAAV012@XZ 10028a20 f i OgreD3DMaterialTemplate.obj
 0001:00027a40       ??Econst_iterator@?$_Tree@V?$_Tmap_traits@TShaderEnvKey2@Ogre@@PAVD3DShaderTechnique@2@U?$less@TShaderEnvKey2@Ogre@@@std@@V?$allocator@U?$pair@$$CBTShaderEnvKey2@Ogre@@PAVD3DShaderTechnique@2@@std@@@5@$0A@@std@@@std@@QAE?AV012@H@Z 10028a40 f i OgreD3DMaterialTemplate.obj
 0001:00027a80       ?_Dec@const_iterator@?$_Tree@V?$_Tmap_traits@TShaderEnvKey2@Ogre@@PAVD3DShaderTechnique@2@U?$less@TShaderEnvKey2@Ogre@@@std@@V?$allocator@U?$pair@$$CBTShaderEnvKey2@Ogre@@PAVD3DShaderTechnique@2@@std@@@5@$0A@@std@@@std@@QAEXXZ 10028a80 f i OgreD3DMaterialTemplate.obj
 0001:00027bb0       ?_Inc@const_iterator@?$_Tree@V?$_Tmap_traits@TShaderEnvKey2@Ogre@@PAVD3DShaderTechnique@2@U?$less@TShaderEnvKey2@Ogre@@@std@@V?$allocator@U?$pair@$$CBTShaderEnvKey2@Ogre@@PAVD3DShaderTechnique@2@@std@@@5@$0A@@std@@@std@@QAEXXZ 10028bb0 f i OgreD3DMaterialTemplate.obj
 0001:00027c90       ??Fiterator@?$_Tree@V?$_Tmap_traits@TShaderEnvKey@Ogre@@PAVD3DTech@2@U?$less@TShaderEnvKey@Ogre@@@std@@V?$allocator@U?$pair@$$CBTShaderEnvKey@Ogre@@PAVD3DTech@2@@std@@@5@$0A@@std@@@std@@QAEAAV012@XZ 10028c90 f i OgreD3DMaterialTemplate.obj
 0001:00027c90       ??Fiterator@?$_Tree@V?$_Tmap_traits@TShaderEnvKey@Ogre@@PAVCompiledShader@2@U?$less@TShaderEnvKey@Ogre@@@std@@V?$allocator@U?$pair@$$CBTShaderEnvKey@Ogre@@PAVCompiledShader@2@@std@@@5@$0A@@std@@@std@@QAEAAV012@XZ 10028c90 f i OgreD3D9ShaderManager.obj
 0001:00027cb0       ??Econst_iterator@?$_Tree@V?$_Tmap_traits@TShaderEnvKey@Ogre@@PAVD3DTech@2@U?$less@TShaderEnvKey@Ogre@@@std@@V?$allocator@U?$pair@$$CBTShaderEnvKey@Ogre@@PAVD3DTech@2@@std@@@5@$0A@@std@@@std@@QAE?AV012@H@Z 10028cb0 f i OgreD3DMaterialTemplate.obj
 0001:00027cb0       ??Econst_iterator@?$_Tree@V?$_Tmap_traits@TShaderEnvKey@Ogre@@PAVCompiledShader@2@U?$less@TShaderEnvKey@Ogre@@@std@@V?$allocator@U?$pair@$$CBTShaderEnvKey@Ogre@@PAVCompiledShader@2@@std@@@5@$0A@@std@@@std@@QAE?AV012@H@Z 10028cb0 f i OgreD3D9ShaderManager.obj
 0001:00027cf0       ?_Dec@const_iterator@?$_Tree@V?$_Tmap_traits@TShaderEnvKey@Ogre@@PAVCompiledShader@2@U?$less@TShaderEnvKey@Ogre@@@std@@V?$allocator@U?$pair@$$CBTShaderEnvKey@Ogre@@PAVCompiledShader@2@@std@@@5@$0A@@std@@@std@@QAEXXZ 10028cf0 f i OgreD3D9ShaderManager.obj
 0001:00027cf0       ?_Dec@const_iterator@?$_Tree@V?$_Tmap_traits@TShaderEnvKey@Ogre@@PAVD3DTech@2@U?$less@TShaderEnvKey@Ogre@@@std@@V?$allocator@U?$pair@$$CBTShaderEnvKey@Ogre@@PAVD3DTech@2@@std@@@5@$0A@@std@@@std@@QAEXXZ 10028cf0 f i OgreD3DMaterialTemplate.obj
 0001:00027e20       ??Y?$_Vector_iterator@UShaderEnv@Ogre@@V?$allocator@UShaderEnv@Ogre@@@std@@@std@@QAEAAV01@H@Z 10028e20 f i OgreD3DMaterialTemplate.obj
 0001:00027e20       ??Y?$_Vector_iterator@UDSBuffer@D3D9HardwarePixelBufferManager@Ogre@@V?$allocator@UDSBuffer@D3D9HardwarePixelBufferManager@Ogre@@@std@@@std@@QAEAAV01@H@Z 10028e20 f i OgreD3D9HardwarePixelBuffer.obj
 0001:00027e20       ??Y?$_Vector_iterator@URTBuffer@D3D9HardwarePixelBufferManager@Ogre@@V?$allocator@URTBuffer@D3D9HardwarePixelBufferManager@Ogre@@@std@@@std@@QAEAAV01@H@Z 10028e20 f i OgreD3D9HardwarePixelBuffer.obj
 0001:00027e40       ??0?$pair@Viterator@?$_Tree@V?$_Tmap_traits@TShaderEnvKey2@Ogre@@PAVD3DShaderTechnique@2@U?$less@TShaderEnvKey2@Ogre@@@std@@V?$allocator@U?$pair@$$CBTShaderEnvKey2@Ogre@@PAVD3DShaderTechnique@2@@std@@@5@$0A@@std@@@std@@_N@std@@QAE@ABViterator@?$_Tree@V?$_Tmap_traits@TShaderEnvKey2@Ogre@@PAVD3DShaderTechnique@2@U?$less@TShaderEnvKey2@Ogre@@@std@@V?$allocator@U?$pair@$$CBTShaderEnvKey2@Ogre@@PAVD3DShaderTechnique@2@@std@@@5@$0A@@std@@@1@AB_N@Z 10028e40 f i OgreD3DMaterialTemplate.obj
 0001:00027e40       ??0?$pair@Viterator@?$_Tree@V?$_Tmap_traits@TShaderEnvKey@Ogre@@PAVCompiledShader@2@U?$less@TShaderEnvKey@Ogre@@@std@@V?$allocator@U?$pair@$$CBTShaderEnvKey@Ogre@@PAVCompiledShader@2@@std@@@5@$0A@@std@@@std@@_N@std@@QAE@ABViterator@?$_Tree@V?$_Tmap_traits@TShaderEnvKey@Ogre@@PAVCompiledShader@2@U?$less@TShaderEnvKey@Ogre@@@std@@V?$allocator@U?$pair@$$CBTShaderEnvKey@Ogre@@PAVCompiledShader@2@@std@@@5@$0A@@std@@@1@AB_N@Z 10028e40 f i OgreD3D9ShaderManager.obj
 0001:00027e40       ??0?$pair@Viterator@?$_Tree@V?$_Tmap_traits@TShaderEnvKey@Ogre@@PAVD3DTech@2@U?$less@TShaderEnvKey@Ogre@@@std@@V?$allocator@U?$pair@$$CBTShaderEnvKey@Ogre@@PAVD3DTech@2@@std@@@5@$0A@@std@@@std@@_N@std@@QAE@ABViterator@?$_Tree@V?$_Tmap_traits@TShaderEnvKey@Ogre@@PAVD3DTech@2@U?$less@TShaderEnvKey@Ogre@@@std@@V?$allocator@U?$pair@$$CBTShaderEnvKey@Ogre@@PAVD3DTech@2@@std@@@5@$0A@@std@@@1@AB_N@Z 10028e40 f i OgreD3DMaterialTemplate.obj
 0001:00027e40       ??0?$pair@Viterator@?$_Tree@V?$_Tmap_traits@VFixedString@Ogre@@PAVCompiledShaderGroup@2@U?$less@VFixedString@Ogre@@@std@@V?$allocator@U?$pair@$$CBVFixedString@Ogre@@PAVCompiledShaderGroup@2@@std@@@5@$0A@@std@@@std@@_N@std@@QAE@ABViterator@?$_Tree@V?$_Tmap_traits@VFixedString@Ogre@@PAVCompiledShaderGroup@2@U?$less@VFixedString@Ogre@@@std@@V?$allocator@U?$pair@$$CBVFixedString@Ogre@@PAVCompiledShaderGroup@2@@std@@@5@$0A@@std@@@1@AB_N@Z 10028e40 f i OgreD3DMaterialTemplate.obj
 0001:00027e70       ?_Right@?$_Tree@V?$_Tmap_traits@IPAVHardwareBufferPool@Ogre@@U?$less@I@std@@V?$allocator@U?$pair@$$CBIPAVHardwareBufferPool@Ogre@@@std@@@4@$0A@@std@@@std@@KAAAPAU_Node@?$_Tree_nod@V?$_Tmap_traits@IPAVHardwareBufferPool@Ogre@@U?$less@I@std@@V?$allocator@U?$pair@$$CBIPAVHardwareBufferPool@Ogre@@@std@@@4@$0A@@std@@@2@PAU342@@Z 10028e70 f i OgreD3DHardwareBuffer.obj
 0001:00027e70       ?_Right@?$_Tree@V?$_Tmap_traits@VFixedString@Ogre@@PAVCompiledShaderGroup@2@U?$less@VFixedString@Ogre@@@std@@V?$allocator@U?$pair@$$CBVFixedString@Ogre@@PAVCompiledShaderGroup@2@@std@@@5@$0A@@std@@@std@@KAAAPAU_Node@?$_Tree_nod@V?$_Tmap_traits@VFixedString@Ogre@@PAVCompiledShaderGroup@2@U?$less@VFixedString@Ogre@@@std@@V?$allocator@U?$pair@$$CBVFixedString@Ogre@@PAVCompiledShaderGroup@2@@std@@@5@$0A@@std@@@2@PAU342@@Z 10028e70 f i OgreD3DMaterialTemplate.obj
 0001:00027e70       ?_Right@?$_Tree@V?$_Tmap_traits@IPAVHardwarePixelBufferPool@Ogre@@U?$less@I@std@@V?$allocator@U?$pair@$$CBIPAVHardwarePixelBufferPool@Ogre@@@std@@@4@$0A@@std@@@std@@KAAAPAU_Node@?$_Tree_nod@V?$_Tmap_traits@IPAVHardwarePixelBufferPool@Ogre@@U?$less@I@std@@V?$allocator@U?$pair@$$CBIPAVHardwarePixelBufferPool@Ogre@@@std@@@4@$0A@@std@@@2@PAU342@@Z 10028e70 f i OgreD3D9HardwarePixelBuffer.obj
 0001:00027e70       ?_Right@?$_Tree@V?$_Tmap_traits@TShaderEnvKey@Ogre@@PAVD3DTech@2@U?$less@TShaderEnvKey@Ogre@@@std@@V?$allocator@U?$pair@$$CBTShaderEnvKey@Ogre@@PAVD3DTech@2@@std@@@5@$0A@@std@@@std@@KAAAPAU_Node@?$_Tree_nod@V?$_Tmap_traits@TShaderEnvKey@Ogre@@PAVD3DTech@2@U?$less@TShaderEnvKey@Ogre@@@std@@V?$allocator@U?$pair@$$CBTShaderEnvKey@Ogre@@PAVD3DTech@2@@std@@@5@$0A@@std@@@2@PAU342@@Z 10028e70 f i OgreD3DMaterialTemplate.obj
 0001:00027e70       ?_Right@?$_Tree@V?$_Tmap_traits@VFixedString@Ogre@@PAVMaterialTemplate@2@U?$less@VFixedString@Ogre@@@std@@V?$allocator@U?$pair@$$CBVFixedString@Ogre@@PAVMaterialTemplate@2@@std@@@5@$0A@@std@@@std@@KAAAPAU_Node@?$_Tree_nod@V?$_Tmap_traits@VFixedString@Ogre@@PAVMaterialTemplate@2@U?$less@VFixedString@Ogre@@@std@@V?$allocator@U?$pair@$$CBVFixedString@Ogre@@PAVMaterialTemplate@2@@std@@@5@$0A@@std@@@2@PAU342@@Z 10028e70 f i OgreD3DMaterialTemplate.obj
 0001:00027e70       ?_Right@?$_Tree@V?$_Tmap_traits@TShaderEnvKey2@Ogre@@PAVD3DShaderTechnique@2@U?$less@TShaderEnvKey2@Ogre@@@std@@V?$allocator@U?$pair@$$CBTShaderEnvKey2@Ogre@@PAVD3DShaderTechnique@2@@std@@@5@$0A@@std@@@std@@KAAAPAU_Node@?$_Tree_nod@V?$_Tmap_traits@TShaderEnvKey2@Ogre@@PAVD3DShaderTechnique@2@U?$less@TShaderEnvKey2@Ogre@@@std@@V?$allocator@U?$pair@$$CBTShaderEnvKey2@Ogre@@PAVD3DShaderTechnique@2@@std@@@5@$0A@@std@@@2@PAU342@@Z 10028e70 f i OgreD3DMaterialTemplate.obj
 0001:00027e70       ?_Right@?$_Tree@V?$_Tmap_traits@TShaderEnvKey@Ogre@@PAVCompiledShader@2@U?$less@TShaderEnvKey@Ogre@@@std@@V?$allocator@U?$pair@$$CBTShaderEnvKey@Ogre@@PAVCompiledShader@2@@std@@@5@$0A@@std@@@std@@KAAAPAU_Node@?$_Tree_nod@V?$_Tmap_traits@TShaderEnvKey@Ogre@@PAVCompiledShader@2@U?$less@TShaderEnvKey@Ogre@@@std@@V?$allocator@U?$pair@$$CBTShaderEnvKey@Ogre@@PAVCompiledShader@2@@std@@@5@$0A@@std@@@2@PAU342@@Z 10028e70 f i OgreD3D9ShaderManager.obj
 0001:00027e80       ?_Max@?$_Tree@V?$_Tmap_traits@TShaderEnvKey@Ogre@@PAVCompiledShader@2@U?$less@TShaderEnvKey@Ogre@@@std@@V?$allocator@U?$pair@$$CBTShaderEnvKey@Ogre@@PAVCompiledShader@2@@std@@@5@$0A@@std@@@std@@KAPAU_Node@?$_Tree_nod@V?$_Tmap_traits@TShaderEnvKey@Ogre@@PAVCompiledShader@2@U?$less@TShaderEnvKey@Ogre@@@std@@V?$allocator@U?$pair@$$CBTShaderEnvKey@Ogre@@PAVCompiledShader@2@@std@@@5@$0A@@std@@@2@PAU342@@Z 10028e80 f i OgreD3D9ShaderManager.obj
 0001:00027e80       ?_Max@?$_Tree@V?$_Tmap_traits@TShaderEnvKey@Ogre@@PAVD3DTech@2@U?$less@TShaderEnvKey@Ogre@@@std@@V?$allocator@U?$pair@$$CBTShaderEnvKey@Ogre@@PAVD3DTech@2@@std@@@5@$0A@@std@@@std@@KAPAU_Node@?$_Tree_nod@V?$_Tmap_traits@TShaderEnvKey@Ogre@@PAVD3DTech@2@U?$less@TShaderEnvKey@Ogre@@@std@@V?$allocator@U?$pair@$$CBTShaderEnvKey@Ogre@@PAVD3DTech@2@@std@@@5@$0A@@std@@@2@PAU342@@Z 10028e80 f i OgreD3DMaterialTemplate.obj
 0001:00027ec0       ?max_size@?$allocator@URTBuffer@D3D9HardwarePixelBufferManager@Ogre@@@std@@QBEIXZ 10028ec0 f i OgreD3D9HardwarePixelBuffer.obj
 0001:00027ec0       ?max_size@?$allocator@UDSBuffer@D3D9HardwarePixelBufferManager@Ogre@@@std@@QBEIXZ 10028ec0 f i OgreD3D9HardwarePixelBuffer.obj
 0001:00027ec0       ?max_size@?$allocator@UShaderEnv@Ogre@@@std@@QBEIXZ 10028ec0 f i OgreD3DMaterialTemplate.obj
 0001:00027ec0       ?max_size@?$allocator@U?$pair@$$CBTShaderEnvKey@Ogre@@PAVD3DTech@2@@std@@@std@@QBEIXZ 10028ec0 f i OgreD3DMaterialTemplate.obj
 0001:00027ec0       ?max_size@?$allocator@U?$pair@$$CBTShaderEnvKey@Ogre@@PAVCompiledShader@2@@std@@@std@@QBEIXZ 10028ec0 f i OgreD3D9ShaderManager.obj
 0001:00027ef0       ?allocate@?$allocator@U_Node@?$_Tree_nod@V?$_Tmap_traits@TShaderEnvKey@Ogre@@PAVD3DTech@2@U?$less@TShaderEnvKey@Ogre@@@std@@V?$allocator@U?$pair@$$CBTShaderEnvKey@Ogre@@PAVD3DTech@2@@std@@@5@$0A@@std@@@std@@@std@@QAEPAU_Node@?$_Tree_nod@V?$_Tmap_traits@TShaderEnvKey@Ogre@@PAVD3DTech@2@U?$less@TShaderEnvKey@Ogre@@@std@@V?$allocator@U?$pair@$$CBTShaderEnvKey@Ogre@@PAVD3DTech@2@@std@@@5@$0A@@std@@@2@I@Z 10028ef0 f i OgreD3DMaterialTemplate.obj
 0001:00027ef0       ?allocate@?$allocator@U_Node@?$_Tree_nod@V?$_Tmap_traits@TShaderEnvKey@Ogre@@PAVCompiledShader@2@U?$less@TShaderEnvKey@Ogre@@@std@@V?$allocator@U?$pair@$$CBTShaderEnvKey@Ogre@@PAVCompiledShader@2@@std@@@5@$0A@@std@@@std@@@std@@QAEPAU_Node@?$_Tree_nod@V?$_Tmap_traits@TShaderEnvKey@Ogre@@PAVCompiledShader@2@U?$less@TShaderEnvKey@Ogre@@@std@@V?$allocator@U?$pair@$$CBTShaderEnvKey@Ogre@@PAVCompiledShader@2@@std@@@5@$0A@@std@@@2@I@Z 10028ef0 f i OgreD3D9ShaderManager.obj
 0001:00027f10       ?_Erase@?$_Tree@V?$_Tmap_traits@VFixedString@Ogre@@PAVCompiledShaderGroup@2@U?$less@VFixedString@Ogre@@@std@@V?$allocator@U?$pair@$$CBVFixedString@Ogre@@PAVCompiledShaderGroup@2@@std@@@5@$0A@@std@@@std@@IAEXPAU_Node@?$_Tree_nod@V?$_Tmap_traits@VFixedString@Ogre@@PAVCompiledShaderGroup@2@U?$less@VFixedString@Ogre@@@std@@V?$allocator@U?$pair@$$CBVFixedString@Ogre@@PAVCompiledShaderGroup@2@@std@@@5@$0A@@std@@@2@@Z 10028f10 f i OgreD3DMaterialTemplate.obj
 0001:00027f90       ?_Max@?$_Tree@V?$_Tmap_traits@VFixedString@Ogre@@PAVCompiledShaderGroup@2@U?$less@VFixedString@Ogre@@@std@@V?$allocator@U?$pair@$$CBVFixedString@Ogre@@PAVCompiledShaderGroup@2@@std@@@5@$0A@@std@@@std@@KAPAU_Node@?$_Tree_nod@V?$_Tmap_traits@VFixedString@Ogre@@PAVCompiledShaderGroup@2@U?$less@VFixedString@Ogre@@@std@@V?$allocator@U?$pair@$$CBVFixedString@Ogre@@PAVCompiledShaderGroup@2@@std@@@5@$0A@@std@@@2@PAU342@@Z 10028f90 f i OgreD3DMaterialTemplate.obj
 0001:00027fd0       ?_Min@?$_Tree@V?$_Tmap_traits@IPAVHardwareBufferPool@Ogre@@U?$less@I@std@@V?$allocator@U?$pair@$$CBIPAVHardwareBufferPool@Ogre@@@std@@@4@$0A@@std@@@std@@KAPAU_Node@?$_Tree_nod@V?$_Tmap_traits@IPAVHardwareBufferPool@Ogre@@U?$less@I@std@@V?$allocator@U?$pair@$$CBIPAVHardwareBufferPool@Ogre@@@std@@@4@$0A@@std@@@2@PAU342@@Z 10028fd0 f i OgreD3DHardwareBuffer.obj
 0001:00027fd0       ?_Min@?$_Tree@V?$_Tmap_traits@VFixedString@Ogre@@PAVCompiledShaderGroup@2@U?$less@VFixedString@Ogre@@@std@@V?$allocator@U?$pair@$$CBVFixedString@Ogre@@PAVCompiledShaderGroup@2@@std@@@5@$0A@@std@@@std@@KAPAU_Node@?$_Tree_nod@V?$_Tmap_traits@VFixedString@Ogre@@PAVCompiledShaderGroup@2@U?$less@VFixedString@Ogre@@@std@@V?$allocator@U?$pair@$$CBVFixedString@Ogre@@PAVCompiledShaderGroup@2@@std@@@5@$0A@@std@@@2@PAU342@@Z 10028fd0 f i OgreD3DMaterialTemplate.obj
 0001:00027fd0       ?_Min@?$_Tree@V?$_Tmap_traits@IPAVHardwarePixelBufferPool@Ogre@@U?$less@I@std@@V?$allocator@U?$pair@$$CBIPAVHardwarePixelBufferPool@Ogre@@@std@@@4@$0A@@std@@@std@@KAPAU_Node@?$_Tree_nod@V?$_Tmap_traits@IPAVHardwarePixelBufferPool@Ogre@@U?$less@I@std@@V?$allocator@U?$pair@$$CBIPAVHardwarePixelBufferPool@Ogre@@@std@@@4@$0A@@std@@@2@PAU342@@Z 10028fd0 f i OgreD3D9HardwarePixelBuffer.obj
 0001:00027fd0       ?_Min@?$_Tree@V?$_Tmap_traits@VFixedString@Ogre@@PAVMaterialTemplate@2@U?$less@VFixedString@Ogre@@@std@@V?$allocator@U?$pair@$$CBVFixedString@Ogre@@PAVMaterialTemplate@2@@std@@@5@$0A@@std@@@std@@KAPAU_Node@?$_Tree_nod@V?$_Tmap_traits@VFixedString@Ogre@@PAVMaterialTemplate@2@U?$less@VFixedString@Ogre@@@std@@V?$allocator@U?$pair@$$CBVFixedString@Ogre@@PAVMaterialTemplate@2@@std@@@5@$0A@@std@@@2@PAU342@@Z 10028fd0 f i OgreD3DMaterialTemplate.obj
 0001:00028010       ?max_size@?$allocator@U_D3DXMACRO@@@std@@QBEIXZ 10029010 f i OgreD3D9ShaderManager.obj
 0001:00028010       ?max_size@?$allocator@U?$pair@$$CBVFixedString@Ogre@@PAVCompiledShaderGroup@2@@std@@@std@@QBEIXZ 10029010 f i OgreD3DMaterialTemplate.obj
 0001:00028010       ?max_size@?$allocator@UD3DSMSCONFLICT_T@Ogre@@@std@@QBEIXZ 10029010 f i OgreD3D9DriverEnum.obj
 0001:00028040       ?allocate@?$allocator@UDSBuffer@D3D9HardwarePixelBufferManager@Ogre@@@std@@QAEPAUDSBuffer@D3D9HardwarePixelBufferManager@Ogre@@I@Z 10029040 f i OgreD3D9HardwarePixelBuffer.obj
 0001:00028040       ?allocate@?$allocator@U_Node@?$_Tree_nod@V?$_Tmap_traits@VFixedString@Ogre@@PAVCompiledShaderGroup@2@U?$less@VFixedString@Ogre@@@std@@V?$allocator@U?$pair@$$CBVFixedString@Ogre@@PAVCompiledShaderGroup@2@@std@@@5@$0A@@std@@@std@@@std@@QAEPAU_Node@?$_Tree_nod@V?$_Tmap_traits@VFixedString@Ogre@@PAVCompiledShaderGroup@2@U?$less@VFixedString@Ogre@@@std@@V?$allocator@U?$pair@$$CBVFixedString@Ogre@@PAVCompiledShaderGroup@2@@std@@@5@$0A@@std@@@2@I@Z 10029040 f i OgreD3DMaterialTemplate.obj
 0001:00028040       ?allocate@?$allocator@URTBuffer@D3D9HardwarePixelBufferManager@Ogre@@@std@@QAEPAURTBuffer@D3D9HardwarePixelBufferManager@Ogre@@I@Z 10029040 f i OgreD3D9HardwarePixelBuffer.obj
 0001:00028040       ?allocate@?$allocator@UShaderEnv@Ogre@@@std@@QAEPAUShaderEnv@Ogre@@I@Z 10029040 f i OgreD3DMaterialTemplate.obj
 0001:00028060       ?destroy@?$allocator@U_Node@?$_Tree_nod@V?$_Tmap_traits@VFixedString@Ogre@@PAVCompiledShaderGroup@2@U?$less@VFixedString@Ogre@@@std@@V?$allocator@U?$pair@$$CBVFixedString@Ogre@@PAVCompiledShaderGroup@2@@std@@@5@$0A@@std@@@std@@@std@@QAEXPAU_Node@?$_Tree_nod@V?$_Tmap_traits@VFixedString@Ogre@@PAVCompiledShaderGroup@2@U?$less@VFixedString@Ogre@@@std@@V?$allocator@U?$pair@$$CBVFixedString@Ogre@@PAVCompiledShaderGroup@2@@std@@@5@$0A@@std@@@2@@Z 10029060 f i OgreD3DMaterialTemplate.obj
 0001:00028080       ?_Erase@?$_Tree@V?$_Tmap_traits@TShaderEnvKey2@Ogre@@PAVD3DShaderTechnique@2@U?$less@TShaderEnvKey2@Ogre@@@std@@V?$allocator@U?$pair@$$CBTShaderEnvKey2@Ogre@@PAVD3DShaderTechnique@2@@std@@@5@$0A@@std@@@std@@IAEXPAU_Node@?$_Tree_nod@V?$_Tmap_traits@TShaderEnvKey2@Ogre@@PAVD3DShaderTechnique@2@U?$less@TShaderEnvKey2@Ogre@@@std@@V?$allocator@U?$pair@$$CBTShaderEnvKey2@Ogre@@PAVD3DShaderTechnique@2@@std@@@5@$0A@@std@@@2@@Z 10029080 f i OgreD3DMaterialTemplate.obj
 0001:00028100       ?_Max@?$_Tree@V?$_Tmap_traits@TShaderEnvKey2@Ogre@@PAVD3DShaderTechnique@2@U?$less@TShaderEnvKey2@Ogre@@@std@@V?$allocator@U?$pair@$$CBTShaderEnvKey2@Ogre@@PAVD3DShaderTechnique@2@@std@@@5@$0A@@std@@@std@@KAPAU_Node@?$_Tree_nod@V?$_Tmap_traits@TShaderEnvKey2@Ogre@@PAVD3DShaderTechnique@2@U?$less@TShaderEnvKey2@Ogre@@@std@@V?$allocator@U?$pair@$$CBTShaderEnvKey2@Ogre@@PAVD3DShaderTechnique@2@@std@@@5@$0A@@std@@@2@PAU342@@Z 10029100 f i OgreD3DMaterialTemplate.obj
 0001:00028140       ?_Min@?$_Tree@V?$_Tmap_traits@TShaderEnvKey2@Ogre@@PAVD3DShaderTechnique@2@U?$less@TShaderEnvKey2@Ogre@@@std@@V?$allocator@U?$pair@$$CBTShaderEnvKey2@Ogre@@PAVD3DShaderTechnique@2@@std@@@5@$0A@@std@@@std@@KAPAU_Node@?$_Tree_nod@V?$_Tmap_traits@TShaderEnvKey2@Ogre@@PAVD3DShaderTechnique@2@U?$less@TShaderEnvKey2@Ogre@@@std@@V?$allocator@U?$pair@$$CBTShaderEnvKey2@Ogre@@PAVD3DShaderTechnique@2@@std@@@5@$0A@@std@@@2@PAU342@@Z 10029140 f i OgreD3DMaterialTemplate.obj
 0001:00028180       ??0?$_Tree_nod@V?$_Tmap_traits@TShaderEnvKey@Ogre@@PAVCompiledShader@2@U?$less@TShaderEnvKey@Ogre@@@std@@V?$allocator@U?$pair@$$CBTShaderEnvKey@Ogre@@PAVCompiledShader@2@@std@@@5@$0A@@std@@@std@@IAE@ABU?$less@TShaderEnvKey@Ogre@@@1@V?$allocator@U?$pair@$$CBTShaderEnvKey@Ogre@@PAVCompiledShader@2@@std@@@1@@Z 10029180 f i OgreD3D9ShaderManager.obj
 0001:00028180       ??0?$_Tree_nod@V?$_Tmap_traits@VFixedString@Ogre@@PAVCompiledShaderGroup@2@U?$less@VFixedString@Ogre@@@std@@V?$allocator@U?$pair@$$CBVFixedString@Ogre@@PAVCompiledShaderGroup@2@@std@@@5@$0A@@std@@@std@@IAE@ABU?$less@VFixedString@Ogre@@@1@V?$allocator@U?$pair@$$CBVFixedString@Ogre@@PAVCompiledShaderGroup@2@@std@@@1@@Z 10029180 f i OgreD3DMaterialTemplate.obj
 0001:00028180       ??0?$_Tree_nod@V?$_Tmap_traits@TShaderEnvKey@Ogre@@PAVD3DTech@2@U?$less@TShaderEnvKey@Ogre@@@std@@V?$allocator@U?$pair@$$CBTShaderEnvKey@Ogre@@PAVD3DTech@2@@std@@@5@$0A@@std@@@std@@IAE@ABU?$less@TShaderEnvKey@Ogre@@@1@V?$allocator@U?$pair@$$CBTShaderEnvKey@Ogre@@PAVD3DTech@2@@std@@@1@@Z 10029180 f i OgreD3DMaterialTemplate.obj
 0001:00028180       ??0?$_Tree_nod@V?$_Tmap_traits@TShaderEnvKey2@Ogre@@PAVD3DShaderTechnique@2@U?$less@TShaderEnvKey2@Ogre@@@std@@V?$allocator@U?$pair@$$CBTShaderEnvKey2@Ogre@@PAVD3DShaderTechnique@2@@std@@@5@$0A@@std@@@std@@IAE@ABU?$less@TShaderEnvKey2@Ogre@@@1@V?$allocator@U?$pair@$$CBTShaderEnvKey2@Ogre@@PAVD3DShaderTechnique@2@@std@@@1@@Z 10029180 f i OgreD3DMaterialTemplate.obj
 0001:00028200       ?allocate@?$allocator@U_Node@?$_Tree_nod@V?$_Tmap_traits@TShaderEnvKey2@Ogre@@PAVD3DShaderTechnique@2@U?$less@TShaderEnvKey2@Ogre@@@std@@V?$allocator@U?$pair@$$CBTShaderEnvKey2@Ogre@@PAVD3DShaderTechnique@2@@std@@@5@$0A@@std@@@std@@@std@@QAEPAU_Node@?$_Tree_nod@V?$_Tmap_traits@TShaderEnvKey2@Ogre@@PAVD3DShaderTechnique@2@U?$less@TShaderEnvKey2@Ogre@@@std@@V?$allocator@U?$pair@$$CBTShaderEnvKey2@Ogre@@PAVD3DShaderTechnique@2@@std@@@5@$0A@@std@@@2@I@Z 10029200 f i OgreD3DMaterialTemplate.obj
 0001:00028220       ?construct@?$allocator@PAU_Node@?$_Tree_nod@V?$_Tmap_traits@VFixedString@Ogre@@PAVCompiledShaderGroup@2@U?$less@VFixedString@Ogre@@@std@@V?$allocator@U?$pair@$$CBVFixedString@Ogre@@PAVCompiledShaderGroup@2@@std@@@5@$0A@@std@@@std@@@std@@QAEXPAPAU_Node@?$_Tree_nod@V?$_Tmap_traits@VFixedString@Ogre@@PAVCompiledShaderGroup@2@U?$less@VFixedString@Ogre@@@std@@V?$allocator@U?$pair@$$CBVFixedString@Ogre@@PAVCompiledShaderGroup@2@@std@@@5@$0A@@std@@@2@ABQAU342@@Z 10029220 f i OgreD3DMaterialTemplate.obj
 0001:00028220       ?construct@?$allocator@W4VERTPROCESS_T@Ogre@@@std@@QAEXPAW4VERTPROCESS_T@Ogre@@ABW434@@Z 10029220 f i OgreD3D9DriverEnum.obj
 0001:00028220       ?construct@?$allocator@W4_D3DFORMAT@@@std@@QAEXPAW4_D3DFORMAT@@ABW43@@Z 10029220 f i OgreD3D9DriverEnum.obj
 0001:00028220       ?construct@?$allocator@PAU_Node@?$_Tree_nod@V?$_Tmap_traits@TShaderEnvKey@Ogre@@PAVD3DTech@2@U?$less@TShaderEnvKey@Ogre@@@std@@V?$allocator@U?$pair@$$CBTShaderEnvKey@Ogre@@PAVD3DTech@2@@std@@@5@$0A@@std@@@std@@@std@@QAEXPAPAU_Node@?$_Tree_nod@V?$_Tmap_traits@TShaderEnvKey@Ogre@@PAVD3DTech@2@U?$less@TShaderEnvKey@Ogre@@@std@@V?$allocator@U?$pair@$$CBTShaderEnvKey@Ogre@@PAVD3DTech@2@@std@@@5@$0A@@std@@@2@ABQAU342@@Z 10029220 f i OgreD3DMaterialTemplate.obj
 0001:00028220       ?construct@?$allocator@W4_D3DMULTISAMPLE_TYPE@@@std@@QAEXPAW4_D3DMULTISAMPLE_TYPE@@ABW43@@Z 10029220 f i OgreD3D9DriverEnum.obj
 0001:00028220       ?construct@?$allocator@PAU_Node@?$_Tree_nod@V?$_Tmap_traits@TShaderEnvKey2@Ogre@@PAVD3DShaderTechnique@2@U?$less@TShaderEnvKey2@Ogre@@@std@@V?$allocator@U?$pair@$$CBTShaderEnvKey2@Ogre@@PAVD3DShaderTechnique@2@@std@@@5@$0A@@std@@@std@@@std@@QAEXPAPAU_Node@?$_Tree_nod@V?$_Tmap_traits@TShaderEnvKey2@Ogre@@PAVD3DShaderTechnique@2@U?$less@TShaderEnvKey2@Ogre@@@std@@V?$allocator@U?$pair@$$CBTShaderEnvKey2@Ogre@@PAVD3DShaderTechnique@2@@std@@@5@$0A@@std@@@2@ABQAU342@@Z 10029220 f i OgreD3DMaterialTemplate.obj
 0001:00028220       ?construct@?$allocator@PAU_Node@?$_Tree_nod@V?$_Tmap_traits@TShaderEnvKey@Ogre@@PAVCompiledShader@2@U?$less@TShaderEnvKey@Ogre@@@std@@V?$allocator@U?$pair@$$CBTShaderEnvKey@Ogre@@PAVCompiledShader@2@@std@@@5@$0A@@std@@@std@@@std@@QAEXPAPAU_Node@?$_Tree_nod@V?$_Tmap_traits@TShaderEnvKey@Ogre@@PAVCompiledShader@2@U?$less@TShaderEnvKey@Ogre@@@std@@V?$allocator@U?$pair@$$CBTShaderEnvKey@Ogre@@PAVCompiledShader@2@@std@@@5@$0A@@std@@@2@ABQAU342@@Z 10029220 f i OgreD3D9ShaderManager.obj
 0001:00028240       ??Y?$_Vector_const_iterator@UDSBuffer@D3D9HardwarePixelBufferManager@Ogre@@V?$allocator@UDSBuffer@D3D9HardwarePixelBufferManager@Ogre@@@std@@@std@@QAEAAV01@H@Z 10029240 f i OgreD3D9HardwarePixelBuffer.obj
 0001:00028240       ??Y?$_Vector_const_iterator@URTBuffer@D3D9HardwarePixelBufferManager@Ogre@@V?$allocator@URTBuffer@D3D9HardwarePixelBufferManager@Ogre@@@std@@@std@@QAEAAV01@H@Z 10029240 f i OgreD3D9HardwarePixelBuffer.obj
 0001:00028240       ??Y?$_Vector_const_iterator@UShaderEnv@Ogre@@V?$allocator@UShaderEnv@Ogre@@@std@@@std@@QAEAAV01@H@Z 10029240 f i OgreD3DMaterialTemplate.obj
 0001:000282c0       ??0_Node@?$_Tree_nod@V?$_Tmap_traits@VFixedString@Ogre@@PAVCompiledShaderGroup@2@U?$less@VFixedString@Ogre@@@std@@V?$allocator@U?$pair@$$CBVFixedString@Ogre@@PAVCompiledShaderGroup@2@@std@@@5@$0A@@std@@@std@@QAE@PAU012@00ABU?$pair@$$CBVFixedString@Ogre@@PAVCompiledShaderGroup@2@@2@D@Z 100292c0 f i OgreD3DMaterialTemplate.obj
 0001:00028350       ??0_Node@?$_Tree_nod@V?$_Tmap_traits@TShaderEnvKey2@Ogre@@PAVD3DShaderTechnique@2@U?$less@TShaderEnvKey2@Ogre@@@std@@V?$allocator@U?$pair@$$CBTShaderEnvKey2@Ogre@@PAVD3DShaderTechnique@2@@std@@@5@$0A@@std@@@std@@QAE@PAU012@00ABU?$pair@$$CBTShaderEnvKey2@Ogre@@PAVD3DShaderTechnique@2@@2@D@Z 10029350 f i OgreD3DMaterialTemplate.obj
 0001:000283a0       ??0?$pair@$$CBVFixedString@Ogre@@PAVCompiledShaderGroup@2@@std@@QAE@ABU01@@Z 100293a0 f i OgreD3DMaterialTemplate.obj
 0001:00028410       ??0?$_Tmap_traits@TShaderEnvKey@Ogre@@PAVCompiledShader@2@U?$less@TShaderEnvKey@Ogre@@@std@@V?$allocator@U?$pair@$$CBTShaderEnvKey@Ogre@@PAVCompiledShader@2@@std@@@5@$0A@@std@@QAE@U?$less@TShaderEnvKey@Ogre@@@1@V?$allocator@U?$pair@$$CBTShaderEnvKey@Ogre@@PAVCompiledShader@2@@std@@@1@@Z 10029410 f i OgreD3D9ShaderManager.obj
 0001:00028410       ??0?$_Tmap_traits@TShaderEnvKey@Ogre@@PAVD3DTech@2@U?$less@TShaderEnvKey@Ogre@@@std@@V?$allocator@U?$pair@$$CBTShaderEnvKey@Ogre@@PAVD3DTech@2@@std@@@5@$0A@@std@@QAE@U?$less@TShaderEnvKey@Ogre@@@1@V?$allocator@U?$pair@$$CBTShaderEnvKey@Ogre@@PAVD3DTech@2@@std@@@1@@Z 10029410 f i OgreD3DMaterialTemplate.obj
 0001:00028410       ??0?$_Tmap_traits@TShaderEnvKey2@Ogre@@PAVD3DShaderTechnique@2@U?$less@TShaderEnvKey2@Ogre@@@std@@V?$allocator@U?$pair@$$CBTShaderEnvKey2@Ogre@@PAVD3DShaderTechnique@2@@std@@@5@$0A@@std@@QAE@U?$less@TShaderEnvKey2@Ogre@@@1@V?$allocator@U?$pair@$$CBTShaderEnvKey2@Ogre@@PAVD3DShaderTechnique@2@@std@@@1@@Z 10029410 f i OgreD3DMaterialTemplate.obj
 0001:00028410       ??0?$_Tmap_traits@VFixedString@Ogre@@PAVCompiledShaderGroup@2@U?$less@VFixedString@Ogre@@@std@@V?$allocator@U?$pair@$$CBVFixedString@Ogre@@PAVCompiledShaderGroup@2@@std@@@5@$0A@@std@@QAE@U?$less@VFixedString@Ogre@@@1@V?$allocator@U?$pair@$$CBVFixedString@Ogre@@PAVCompiledShaderGroup@2@@std@@@1@@Z 10029410 f i OgreD3DMaterialTemplate.obj
 0001:00028480       ??$fill@PAUDSBuffer@D3D9HardwarePixelBufferManager@Ogre@@U123@@std@@YAXPAUDSBuffer@D3D9HardwarePixelBufferManager@Ogre@@0ABU123@@Z 10029480 f i OgreD3D9HardwarePixelBuffer.obj
 0001:00028480       ??$fill@PAURTBuffer@D3D9HardwarePixelBufferManager@Ogre@@U123@@std@@YAXPAURTBuffer@D3D9HardwarePixelBufferManager@Ogre@@0ABU123@@Z 10029480 f i OgreD3D9HardwarePixelBuffer.obj
 0001:00028480       ??$fill@PAUShaderEnv@Ogre@@U12@@std@@YAXPAUShaderEnv@Ogre@@0ABU12@@Z 10029480 f i OgreD3DMaterialTemplate.obj
 0001:000284b0       ??$fill@PAPAUTechCache@D3DMaterialTemplate@Ogre@@PAU123@@std@@YAXPAPAUTechCache@D3DMaterialTemplate@Ogre@@0ABQAU123@@Z 100294b0 f i OgreD3DMaterialTemplate.obj
 0001:000284b0       ??$fill@PAPAVD3DRenderWindow@Ogre@@PAV12@@std@@YAXPAPAVD3DRenderWindow@Ogre@@0ABQAV12@@Z 100294b0 f i OgreD3D9RenderSystem.obj
 0001:000284b0       ??$fill@PAPAVD3D9VertexDecl@Ogre@@PAV12@@std@@YAXPAPAVD3D9VertexDecl@Ogre@@0ABQAV12@@Z 100294b0 f i OgreD3D9RenderSystem.obj
 0001:000284b0       ??$fill@PAPAUD3DDEVICEINFO_T@Ogre@@PAU12@@std@@YAXPAPAUD3DDEVICEINFO_T@Ogre@@0ABQAU12@@Z 100294b0 f i OgreD3D9DriverEnum.obj
 0001:000284b0       ??$fill@PAPAUD3DADAPTER_T@Ogre@@PAU12@@std@@YAXPAPAUD3DADAPTER_T@Ogre@@0ABQAU12@@Z 100294b0 f i OgreD3D9DriverEnum.obj
 0001:000284b0       ??$fill@PAPAVD3D9TextureRenderTarget@Ogre@@PAV12@@std@@YAXPAPAVD3D9TextureRenderTarget@Ogre@@0ABQAV12@@Z 100294b0 f i OgreD3D9HardwarePixelBuffer.obj
 0001:000284b0       ??$fill@PAW4_D3DFORMAT@@W41@@std@@YAXPAW4_D3DFORMAT@@0ABW41@@Z 100294b0 f i OgreD3D9DriverEnum.obj
 0001:000284b0       ??$fill@PAPAVCompiledShader@Ogre@@PAV12@@std@@YAXPAPAVCompiledShader@Ogre@@0ABQAV12@@Z 100294b0 f i OgreD3D9ShaderManager.obj
 0001:000284b0       ??$fill@PAW4VERTPROCESS_T@Ogre@@W412@@std@@YAXPAW4VERTPROCESS_T@Ogre@@0ABW412@@Z 100294b0 f i OgreD3D9DriverEnum.obj
 0001:000284b0       ??$fill@PAW4_D3DMULTISAMPLE_TYPE@@W41@@std@@YAXPAW4_D3DMULTISAMPLE_TYPE@@0ABW41@@Z 100294b0 f i OgreD3D9DriverEnum.obj
 0001:000284b0       ??$fill@PAPAUD3DDEVCOMBO_T@Ogre@@PAU12@@std@@YAXPAPAUD3DDEVCOMBO_T@Ogre@@0ABQAU12@@Z 100294b0 f i OgreD3D9DriverEnum.obj
 0001:000284b0       ??$fill@PAII@std@@YAXPAI0ABI@Z 100294b0 f i OgreD3D9DriverEnum.obj
 0001:000284b0       ??$fill@PAPAUTechniqueDesc@Ogre@@PAU12@@std@@YAXPAPAUTechniqueDesc@Ogre@@0ABQAU12@@Z 100294b0 f i OgreD3D9ShaderManager.obj
 0001:000284e0       ??$_Allocate@U_Node@?$_Tree_nod@V?$_Tmap_traits@TShaderEnvKey@Ogre@@PAVCompiledShader@2@U?$less@TShaderEnvKey@Ogre@@@std@@V?$allocator@U?$pair@$$CBTShaderEnvKey@Ogre@@PAVCompiledShader@2@@std@@@5@$0A@@std@@@std@@@std@@YAPAU_Node@?$_Tree_nod@V?$_Tmap_traits@TShaderEnvKey@Ogre@@PAVCompiledShader@2@U?$less@TShaderEnvKey@Ogre@@@std@@V?$allocator@U?$pair@$$CBTShaderEnvKey@Ogre@@PAVCompiledShader@2@@std@@@5@$0A@@std@@@0@IPAU120@@Z 100294e0 f i OgreD3D9ShaderManager.obj
 0001:000284e0       ??$_Allocate@U_Node@?$_Tree_nod@V?$_Tmap_traits@TShaderEnvKey@Ogre@@PAVD3DTech@2@U?$less@TShaderEnvKey@Ogre@@@std@@V?$allocator@U?$pair@$$CBTShaderEnvKey@Ogre@@PAVD3DTech@2@@std@@@5@$0A@@std@@@std@@@std@@YAPAU_Node@?$_Tree_nod@V?$_Tmap_traits@TShaderEnvKey@Ogre@@PAVD3DTech@2@U?$less@TShaderEnvKey@Ogre@@@std@@V?$allocator@U?$pair@$$CBTShaderEnvKey@Ogre@@PAVD3DTech@2@@std@@@5@$0A@@std@@@0@IPAU120@@Z 100294e0 f i OgreD3DMaterialTemplate.obj
 0001:00028530       ??$_Destroy_range@V?$allocator@PAUIDirect3DBaseTexture9@@@std@@@std@@YAXPAPAUIDirect3DBaseTexture9@@0AAV?$allocator@PAUIDirect3DBaseTexture9@@@0@U_Scalar_ptr_iterator_tag@0@@Z 10029530 f i OgreD3D9HardwarePixelBuffer.obj
 0001:00028530       ??$_Destroy@UShaderEnv@Ogre@@@std@@YAXPAUShaderEnv@Ogre@@@Z 10029530 f i OgreD3DMaterialTemplate.obj
 0001:00028530       ??$_Destroy@U_Node@?$_Tree_nod@V?$_Tmap_traits@TShaderEnvKey@Ogre@@PAVCompiledShader@2@U?$less@TShaderEnvKey@Ogre@@@std@@V?$allocator@U?$pair@$$CBTShaderEnvKey@Ogre@@PAVCompiledShader@2@@std@@@5@$0A@@std@@@std@@@std@@YAXPAU_Node@?$_Tree_nod@V?$_Tmap_traits@TShaderEnvKey@Ogre@@PAVCompiledShader@2@U?$less@TShaderEnvKey@Ogre@@@std@@V?$allocator@U?$pair@$$CBTShaderEnvKey@Ogre@@PAVCompiledShader@2@@std@@@5@$0A@@std@@@0@@Z 10029530 f i OgreD3D9ShaderManager.obj
 0001:00028530       ??$_Destroy@UPassDesc@Ogre@@@std@@YAXPAUPassDesc@Ogre@@@Z 10029530 f i OgreD3D9ShaderManager.obj
 0001:00028530       ??$_Destroy_range@V?$allocator@PAUTechCache@D3DMaterialTemplate@Ogre@@@std@@@std@@YAXPAPAUTechCache@D3DMaterialTemplate@Ogre@@0AAV?$allocator@PAUTechCache@D3DMaterialTemplate@Ogre@@@0@U_Scalar_ptr_iterator_tag@0@@Z 10029530 f i OgreD3DMaterialTemplate.obj
 0001:00028530       ??$_Destroy@UPassData@D3DShaderTechnique@Ogre@@@std@@YAXPAUPassData@D3DShaderTechnique@Ogre@@@Z 10029530 f i OgreD3D9ShaderManager.obj
 0001:00028530       ??$_Destroy_range@V?$allocator@D@std@@@std@@YAXPAD0AAV?$allocator@D@0@U_Scalar_ptr_iterator_tag@0@@Z 10029530 f i OgreD3D9ShaderManager.obj
 0001:00028530       ??$_Destroy_range@V?$allocator@PAUD3DDEVICEINFO_T@Ogre@@@std@@@std@@YAXPAPAUD3DDEVICEINFO_T@Ogre@@0AAV?$allocator@PAUD3DDEVICEINFO_T@Ogre@@@0@U_Scalar_ptr_iterator_tag@0@@Z 10029530 f i OgreD3D9DriverEnum.obj
 0001:00028530       ??$_Destroy@U_Node@?$_Tree_nod@V?$_Tmap_traits@TShaderEnvKey@Ogre@@PAVD3DTech@2@U?$less@TShaderEnvKey@Ogre@@@std@@V?$allocator@U?$pair@$$CBTShaderEnvKey@Ogre@@PAVD3DTech@2@@std@@@5@$0A@@std@@@std@@@std@@YAXPAU_Node@?$_Tree_nod@V?$_Tmap_traits@TShaderEnvKey@Ogre@@PAVD3DTech@2@U?$less@TShaderEnvKey@Ogre@@@std@@V?$allocator@U?$pair@$$CBTShaderEnvKey@Ogre@@PAVD3DTech@2@@std@@@5@$0A@@std@@@0@@Z 10029530 f i OgreD3DMaterialTemplate.obj
 0001:00028530       ??$_Destroy_range@V?$allocator@PAVD3D9TextureRenderTarget@Ogre@@@std@@@std@@YAXPAPAVD3D9TextureRenderTarget@Ogre@@0AAV?$allocator@PAVD3D9TextureRenderTarget@Ogre@@@0@U_Scalar_ptr_iterator_tag@0@@Z 10029530 f i OgreD3D9HardwarePixelBuffer.obj
 0001:00028530       ??$_Destroy_range@V?$allocator@PAUD3DDEVCOMBO_T@Ogre@@@std@@@std@@YAXPAPAUD3DDEVCOMBO_T@Ogre@@0AAV?$allocator@PAUD3DDEVCOMBO_T@Ogre@@@0@U_Scalar_ptr_iterator_tag@0@@Z 10029530 f i OgreD3D9DriverEnum.obj
 0001:00028530       ??$_Destroy@TShaderEnvKey@Ogre@@@std@@YAXPATShaderEnvKey@Ogre@@@Z 10029530 f i OgreD3D9ShaderManager.obj
 0001:00028530       ??$_Destroy_range@V?$allocator@PAUD3DADAPTER_T@Ogre@@@std@@@std@@YAXPAPAUD3DADAPTER_T@Ogre@@0AAV?$allocator@PAUD3DADAPTER_T@Ogre@@@0@U_Scalar_ptr_iterator_tag@0@@Z 10029530 f i OgreD3D9DriverEnum.obj
 0001:00028530       ??$_Destroy_range@V?$allocator@PAVD3D9VertexDecl@Ogre@@@std@@@std@@YAXPAPAVD3D9VertexDecl@Ogre@@0AAV?$allocator@PAVD3D9VertexDecl@Ogre@@@0@U_Scalar_ptr_iterator_tag@0@@Z 10029530 f i OgreD3D9RenderSystem.obj
 0001:00028530       ??$_Destroy@U_Node@?$_Tree_nod@V?$_Tmap_traits@TShaderEnvKey2@Ogre@@PAVD3DShaderTechnique@2@U?$less@TShaderEnvKey2@Ogre@@@std@@V?$allocator@U?$pair@$$CBTShaderEnvKey2@Ogre@@PAVD3DShaderTechnique@2@@std@@@5@$0A@@std@@@std@@@std@@YAXPAU_Node@?$_Tree_nod@V?$_Tmap_traits@TShaderEnvKey2@Ogre@@PAVD3DShaderTechnique@2@U?$less@TShaderEnvKey2@Ogre@@@std@@V?$allocator@U?$pair@$$CBTShaderEnvKey2@Ogre@@PAVD3DShaderTechnique@2@@std@@@5@$0A@@std@@@0@@Z 10029530 f i OgreD3DMaterialTemplate.obj
 0001:00028530       ??$_Destroy_range@V?$allocator@PAVCompiledShader@Ogre@@@std@@@std@@YAXPAPAVCompiledShader@Ogre@@0AAV?$allocator@PAVCompiledShader@Ogre@@@0@U_Scalar_ptr_iterator_tag@0@@Z 10029530 f i OgreD3D9ShaderManager.obj
 0001:00028530       ??$_Destroy_range@V?$allocator@PAUTechniqueDesc@Ogre@@@std@@@std@@YAXPAPAUTechniqueDesc@Ogre@@0AAV?$allocator@PAUTechniqueDesc@Ogre@@@0@U_Scalar_ptr_iterator_tag@0@@Z 10029530 f i OgreD3D9ShaderManager.obj
 0001:00028530       ??$_Destroy@UDSBuffer@D3D9HardwarePixelBufferManager@Ogre@@@std@@YAXPAUDSBuffer@D3D9HardwarePixelBufferManager@Ogre@@@Z 10029530 f i OgreD3D9HardwarePixelBuffer.obj
 0001:00028530       ??$_Destroy@W4VERTPROCESS_T@Ogre@@@std@@YAXPAW4VERTPROCESS_T@Ogre@@@Z 10029530 f i OgreD3D9DriverEnum.obj
 0001:00028530       ??$_Destroy@PAU_Node@?$_Tree_nod@V?$_Tmap_traits@TShaderEnvKey@Ogre@@PAVCompiledShader@2@U?$less@TShaderEnvKey@Ogre@@@std@@V?$allocator@U?$pair@$$CBTShaderEnvKey@Ogre@@PAVCompiledShader@2@@std@@@5@$0A@@std@@@std@@@std@@YAXPAPAU_Node@?$_Tree_nod@V?$_Tmap_traits@TShaderEnvKey@Ogre@@PAVCompiledShader@2@U?$less@TShaderEnvKey@Ogre@@@std@@V?$allocator@U?$pair@$$CBTShaderEnvKey@Ogre@@PAVCompiledShader@2@@std@@@5@$0A@@std@@@0@@Z 10029530 f i OgreD3D9ShaderManager.obj
 0001:00028530       ??$_Destroy@PAU_Node@?$_Tree_nod@V?$_Tmap_traits@TShaderEnvKey2@Ogre@@PAVD3DShaderTechnique@2@U?$less@TShaderEnvKey2@Ogre@@@std@@V?$allocator@U?$pair@$$CBTShaderEnvKey2@Ogre@@PAVD3DShaderTechnique@2@@std@@@5@$0A@@std@@@std@@@std@@YAXPAPAU_Node@?$_Tree_nod@V?$_Tmap_traits@TShaderEnvKey2@Ogre@@PAVD3DShaderTechnique@2@U?$less@TShaderEnvKey2@Ogre@@@std@@V?$allocator@U?$pair@$$CBTShaderEnvKey2@Ogre@@PAVD3DShaderTechnique@2@@std@@@5@$0A@@std@@@0@@Z 10029530 f i OgreD3DMaterialTemplate.obj
 0001:00028530       ??$_Destroy@UD3DSMSCONFLICT_T@Ogre@@@std@@YAXPAUD3DSMSCONFLICT_T@Ogre@@@Z 10029530 f i OgreD3D9DriverEnum.obj
 0001:00028530       ??$_Destroy@PAU_Node@?$_Tree_nod@V?$_Tmap_traits@VFixedString@Ogre@@PAVCompiledShaderGroup@2@U?$less@VFixedString@Ogre@@@std@@V?$allocator@U?$pair@$$CBVFixedString@Ogre@@PAVCompiledShaderGroup@2@@std@@@5@$0A@@std@@@std@@@std@@YAXPAPAU_Node@?$_Tree_nod@V?$_Tmap_traits@VFixedString@Ogre@@PAVCompiledShaderGroup@2@U?$less@VFixedString@Ogre@@@std@@V?$allocator@U?$pair@$$CBVFixedString@Ogre@@PAVCompiledShaderGroup@2@@std@@@5@$0A@@std@@@0@@Z 10029530 f i OgreD3DMaterialTemplate.obj
 0001:00028530       ??$_Destroy@URTBuffer@D3D9HardwarePixelBufferManager@Ogre@@@std@@YAXPAURTBuffer@D3D9HardwarePixelBufferManager@Ogre@@@Z 10029530 f i OgreD3D9HardwarePixelBuffer.obj
 0001:00028530       ??$_Destroy@PAU_Node@?$_Tree_nod@V?$_Tmap_traits@TShaderEnvKey@Ogre@@PAVD3DTech@2@U?$less@TShaderEnvKey@Ogre@@@std@@V?$allocator@U?$pair@$$CBTShaderEnvKey@Ogre@@PAVD3DTech@2@@std@@@5@$0A@@std@@@std@@@std@@YAXPAPAU_Node@?$_Tree_nod@V?$_Tmap_traits@TShaderEnvKey@Ogre@@PAVD3DTech@2@U?$less@TShaderEnvKey@Ogre@@@std@@V?$allocator@U?$pair@$$CBTShaderEnvKey@Ogre@@PAVD3DTech@2@@std@@@5@$0A@@std@@@0@@Z 10029530 f i OgreD3DMaterialTemplate.obj
 0001:00028530       ??$_Destroy_range@V?$allocator@I@std@@@std@@YAXPAI0AAV?$allocator@I@0@U_Scalar_ptr_iterator_tag@0@@Z 10029530 f i OgreD3D9DriverEnum.obj
 0001:00028530       ??$_Destroy@U_D3DDISPLAYMODE@@@std@@YAXPAU_D3DDISPLAYMODE@@@Z 10029530 f i OgreD3D9DriverEnum.obj
 0001:00028530       ??$_Destroy_range@V?$allocator@PAVD3DRenderWindow@Ogre@@@std@@@std@@YAXPAPAVD3DRenderWindow@Ogre@@0AAV?$allocator@PAVD3DRenderWindow@Ogre@@@0@U_Scalar_ptr_iterator_tag@0@@Z 10029530 f i OgreD3D9RenderSystem.obj
 0001:00028530       ??3@YAXPAX0@Z              10029530 f i OgreD3D9DriverEnum.obj
 0001:00028530       ??$_Destroy@U_D3DXMACRO@@@std@@YAXPAU_D3DXMACRO@@@Z 10029530 f i OgreD3D9ShaderManager.obj
 0001:00028530       ??$_Destroy@W4_D3DFORMAT@@@std@@YAXPAW4_D3DFORMAT@@@Z 10029530 f i OgreD3D9DriverEnum.obj
 0001:00028530       ??$_Destroy@W4_D3DMULTISAMPLE_TYPE@@@std@@YAXPAW4_D3DMULTISAMPLE_TYPE@@@Z 10029530 f i OgreD3D9DriverEnum.obj
 0001:00028540       ??$_Allocate@UDSBuffer@D3D9HardwarePixelBufferManager@Ogre@@@std@@YAPAUDSBuffer@D3D9HardwarePixelBufferManager@Ogre@@IPAU123@@Z 10029540 f i OgreD3D9HardwarePixelBuffer.obj
 0001:00028540       ??$_Allocate@URTBuffer@D3D9HardwarePixelBufferManager@Ogre@@@std@@YAPAURTBuffer@D3D9HardwarePixelBufferManager@Ogre@@IPAU123@@Z 10029540 f i OgreD3D9HardwarePixelBuffer.obj
 0001:00028540       ??$_Allocate@U_Node@?$_Tree_nod@V?$_Tmap_traits@VFixedString@Ogre@@PAVCompiledShaderGroup@2@U?$less@VFixedString@Ogre@@@std@@V?$allocator@U?$pair@$$CBVFixedString@Ogre@@PAVCompiledShaderGroup@2@@std@@@5@$0A@@std@@@std@@@std@@YAPAU_Node@?$_Tree_nod@V?$_Tmap_traits@VFixedString@Ogre@@PAVCompiledShaderGroup@2@U?$less@VFixedString@Ogre@@@std@@V?$allocator@U?$pair@$$CBVFixedString@Ogre@@PAVCompiledShaderGroup@2@@std@@@5@$0A@@std@@@0@IPAU120@@Z 10029540 f i OgreD3DMaterialTemplate.obj
 0001:00028540       ??$_Allocate@UShaderEnv@Ogre@@@std@@YAPAUShaderEnv@Ogre@@IPAU12@@Z 10029540 f i OgreD3DMaterialTemplate.obj
 0001:00028590       ??$_Destroy@U_Node@?$_Tree_nod@V?$_Tmap_traits@VFixedString@Ogre@@PAVCompiledShaderGroup@2@U?$less@VFixedString@Ogre@@@std@@V?$allocator@U?$pair@$$CBVFixedString@Ogre@@PAVCompiledShaderGroup@2@@std@@@5@$0A@@std@@@std@@@std@@YAXPAU_Node@?$_Tree_nod@V?$_Tmap_traits@VFixedString@Ogre@@PAVCompiledShaderGroup@2@U?$less@VFixedString@Ogre@@@std@@V?$allocator@U?$pair@$$CBVFixedString@Ogre@@PAVCompiledShaderGroup@2@@std@@@5@$0A@@std@@@0@@Z 10029590 f i OgreD3DMaterialTemplate.obj
 0001:000285a0       ??$_Allocate@U_Node@?$_Tree_nod@V?$_Tmap_traits@TShaderEnvKey2@Ogre@@PAVD3DShaderTechnique@2@U?$less@TShaderEnvKey2@Ogre@@@std@@V?$allocator@U?$pair@$$CBTShaderEnvKey2@Ogre@@PAVD3DShaderTechnique@2@@std@@@5@$0A@@std@@@std@@@std@@YAPAU_Node@?$_Tree_nod@V?$_Tmap_traits@TShaderEnvKey2@Ogre@@PAVD3DShaderTechnique@2@U?$less@TShaderEnvKey2@Ogre@@@std@@V?$allocator@U?$pair@$$CBTShaderEnvKey2@Ogre@@PAVD3DShaderTechnique@2@@std@@@5@$0A@@std@@@0@IPAU120@@Z 100295a0 f i OgreD3DMaterialTemplate.obj
 0001:000285f0       ??$_Construct@W4_D3DMULTISAMPLE_TYPE@@W41@@std@@YAXPAW4_D3DMULTISAMPLE_TYPE@@ABW41@@Z 100295f0 f i OgreD3D9DriverEnum.obj
 0001:000285f0       ??$_Construct@W4_D3DFORMAT@@W41@@std@@YAXPAW4_D3DFORMAT@@ABW41@@Z 100295f0 f i OgreD3D9DriverEnum.obj
 0001:000285f0       ??$_Construct@PAU_Node@?$_Tree_nod@V?$_Tmap_traits@TShaderEnvKey@Ogre@@PAVCompiledShader@2@U?$less@TShaderEnvKey@Ogre@@@std@@V?$allocator@U?$pair@$$CBTShaderEnvKey@Ogre@@PAVCompiledShader@2@@std@@@5@$0A@@std@@@std@@PAU123@@std@@YAXPAPAU_Node@?$_Tree_nod@V?$_Tmap_traits@TShaderEnvKey@Ogre@@PAVCompiledShader@2@U?$less@TShaderEnvKey@Ogre@@@std@@V?$allocator@U?$pair@$$CBTShaderEnvKey@Ogre@@PAVCompiledShader@2@@std@@@5@$0A@@std@@@0@ABQAU120@@Z 100295f0 f i OgreD3D9ShaderManager.obj
 0001:000285f0       ??$_Construct@PAU_Node@?$_Tree_nod@V?$_Tmap_traits@VFixedString@Ogre@@PAVCompiledShaderGroup@2@U?$less@VFixedString@Ogre@@@std@@V?$allocator@U?$pair@$$CBVFixedString@Ogre@@PAVCompiledShaderGroup@2@@std@@@5@$0A@@std@@@std@@PAU123@@std@@YAXPAPAU_Node@?$_Tree_nod@V?$_Tmap_traits@VFixedString@Ogre@@PAVCompiledShaderGroup@2@U?$less@VFixedString@Ogre@@@std@@V?$allocator@U?$pair@$$CBVFixedString@Ogre@@PAVCompiledShaderGroup@2@@std@@@5@$0A@@std@@@0@ABQAU120@@Z 100295f0 f i OgreD3DMaterialTemplate.obj
 0001:000285f0       ??$_Construct@PAU_Node@?$_Tree_nod@V?$_Tmap_traits@TShaderEnvKey2@Ogre@@PAVD3DShaderTechnique@2@U?$less@TShaderEnvKey2@Ogre@@@std@@V?$allocator@U?$pair@$$CBTShaderEnvKey2@Ogre@@PAVD3DShaderTechnique@2@@std@@@5@$0A@@std@@@std@@PAU123@@std@@YAXPAPAU_Node@?$_Tree_nod@V?$_Tmap_traits@TShaderEnvKey2@Ogre@@PAVD3DShaderTechnique@2@U?$less@TShaderEnvKey2@Ogre@@@std@@V?$allocator@U?$pair@$$CBTShaderEnvKey2@Ogre@@PAVD3DShaderTechnique@2@@std@@@5@$0A@@std@@@0@ABQAU120@@Z 100295f0 f i OgreD3DMaterialTemplate.obj
 0001:000285f0       ??$_Construct@W4VERTPROCESS_T@Ogre@@W412@@std@@YAXPAW4VERTPROCESS_T@Ogre@@ABW412@@Z 100295f0 f i OgreD3D9DriverEnum.obj
 0001:000285f0       ??$_Construct@PAU_Node@?$_Tree_nod@V?$_Tmap_traits@TShaderEnvKey@Ogre@@PAVD3DTech@2@U?$less@TShaderEnvKey@Ogre@@@std@@V?$allocator@U?$pair@$$CBTShaderEnvKey@Ogre@@PAVD3DTech@2@@std@@@5@$0A@@std@@@std@@PAU123@@std@@YAXPAPAU_Node@?$_Tree_nod@V?$_Tmap_traits@TShaderEnvKey@Ogre@@PAVD3DTech@2@U?$less@TShaderEnvKey@Ogre@@@std@@V?$allocator@U?$pair@$$CBTShaderEnvKey@Ogre@@PAVD3DTech@2@@std@@@5@$0A@@std@@@0@ABQAU120@@Z 100295f0 f i OgreD3DMaterialTemplate.obj
 0001:00028630       ??_G_Node@?$_Tree_nod@V?$_Tmap_traits@VFixedString@Ogre@@PAVCompiledShaderGroup@2@U?$less@VFixedString@Ogre@@@std@@V?$allocator@U?$pair@$$CBVFixedString@Ogre@@PAVCompiledShaderGroup@2@@std@@@5@$0A@@std@@@std@@QAEPAXI@Z 10029630 f i OgreD3DMaterialTemplate.obj
 0001:00028660       ??1_Node@?$_Tree_nod@V?$_Tmap_traits@VFixedString@Ogre@@PAVCompiledShaderGroup@2@U?$less@VFixedString@Ogre@@@std@@V?$allocator@U?$pair@$$CBVFixedString@Ogre@@PAVCompiledShaderGroup@2@@std@@@5@$0A@@std@@@std@@QAE@XZ 10029660 f i OgreD3DMaterialTemplate.obj
 0001:000286b0       ??$_Fill@PAPAVD3D9VertexDecl@Ogre@@PAV12@@std@@YAXPAPAVD3D9VertexDecl@Ogre@@0ABQAV12@@Z 100296b0 f i OgreD3D9RenderSystem.obj
 0001:000286b0       ??$_Fill@PAII@std@@YAXPAI0ABI@Z 100296b0 f i OgreD3D9DriverEnum.obj
 0001:000286b0       ??$_Fill@PAPAUTechCache@D3DMaterialTemplate@Ogre@@PAU123@@std@@YAXPAPAUTechCache@D3DMaterialTemplate@Ogre@@0ABQAU123@@Z 100296b0 f i OgreD3DMaterialTemplate.obj
 0001:000286b0       ??$_Fill@PAPAUTechniqueDesc@Ogre@@PAU12@@std@@YAXPAPAUTechniqueDesc@Ogre@@0ABQAU12@@Z 100296b0 f i OgreD3D9ShaderManager.obj
 0001:000286b0       ??$_Fill@PAPAUD3DADAPTER_T@Ogre@@PAU12@@std@@YAXPAPAUD3DADAPTER_T@Ogre@@0ABQAU12@@Z 100296b0 f i OgreD3D9DriverEnum.obj
 0001:000286b0       ??$_Fill@PAW4VERTPROCESS_T@Ogre@@W412@@std@@YAXPAW4VERTPROCESS_T@Ogre@@0ABW412@@Z 100296b0 f i OgreD3D9DriverEnum.obj
 0001:000286b0       ??$_Fill@PAW4_D3DFORMAT@@W41@@std@@YAXPAW4_D3DFORMAT@@0ABW41@@Z 100296b0 f i OgreD3D9DriverEnum.obj
 0001:000286b0       ??$_Fill@PAPAVCompiledShader@Ogre@@PAV12@@std@@YAXPAPAVCompiledShader@Ogre@@0ABQAV12@@Z 100296b0 f i OgreD3D9ShaderManager.obj
 0001:000286b0       ??$_Fill@PAPAVD3DRenderWindow@Ogre@@PAV12@@std@@YAXPAPAVD3DRenderWindow@Ogre@@0ABQAV12@@Z 100296b0 f i OgreD3D9RenderSystem.obj
 0001:000286b0       ??$_Fill@PAPAVD3D9TextureRenderTarget@Ogre@@PAV12@@std@@YAXPAPAVD3D9TextureRenderTarget@Ogre@@0ABQAV12@@Z 100296b0 f i OgreD3D9HardwarePixelBuffer.obj
 0001:000286b0       ??$_Fill@PAPAUD3DDEVCOMBO_T@Ogre@@PAU12@@std@@YAXPAPAUD3DDEVCOMBO_T@Ogre@@0ABQAU12@@Z 100296b0 f i OgreD3D9DriverEnum.obj
 0001:000286b0       ??$_Fill@PAW4_D3DMULTISAMPLE_TYPE@@W41@@std@@YAXPAW4_D3DMULTISAMPLE_TYPE@@0ABW41@@Z 100296b0 f i OgreD3D9DriverEnum.obj
 0001:000286b0       ??$_Fill@PAPAUD3DDEVICEINFO_T@Ogre@@PAU12@@std@@YAXPAPAUD3DDEVICEINFO_T@Ogre@@0ABQAU12@@Z 100296b0 f i OgreD3D9DriverEnum.obj
 0001:000286e0       ?construct@?$allocator@URTBuffer@D3D9HardwarePixelBufferManager@Ogre@@@std@@QAEXPAURTBuffer@D3D9HardwarePixelBufferManager@Ogre@@ABU345@@Z 100296e0 f i OgreD3D9HardwarePixelBuffer.obj
 0001:000286e0       ?construct@?$allocator@UShaderEnv@Ogre@@@std@@QAEXPAUShaderEnv@Ogre@@ABU34@@Z 100296e0 f i OgreD3DMaterialTemplate.obj
 0001:000286e0       ?construct@?$allocator@UDSBuffer@D3D9HardwarePixelBufferManager@Ogre@@@std@@QAEXPAUDSBuffer@D3D9HardwarePixelBufferManager@Ogre@@ABU345@@Z 100296e0 f i OgreD3D9HardwarePixelBuffer.obj
 0001:00028700       ??$_Construct@URTBuffer@D3D9HardwarePixelBufferManager@Ogre@@U123@@std@@YAXPAURTBuffer@D3D9HardwarePixelBufferManager@Ogre@@ABU123@@Z 10029700 f i OgreD3D9HardwarePixelBuffer.obj
 0001:00028700       ??$_Construct@UShaderEnv@Ogre@@U12@@std@@YAXPAUShaderEnv@Ogre@@ABU12@@Z 10029700 f i OgreD3DMaterialTemplate.obj
 0001:00028700       ??$_Construct@UDSBuffer@D3D9HardwarePixelBufferManager@Ogre@@U123@@std@@YAXPAUDSBuffer@D3D9HardwarePixelBufferManager@Ogre@@ABU123@@Z 10029700 f i OgreD3D9HardwarePixelBuffer.obj
 0001:00028760       ??$_Iter_cat@PAD@std@@YA?AUrandom_access_iterator_tag@0@ABQAD@Z 10029760 f i OgreD3D9ShaderManager.obj
 0001:00028760       ??$_Iter_random@PAUPassDesc@Ogre@@PAU12@@std@@YA?AUrandom_access_iterator_tag@0@ABQAUPassDesc@Ogre@@0@Z 10029760 f i OgreD3D9ShaderManager.obj
 0001:00028760       ??$_Iter_random@PAW4VERTPROCESS_T@Ogre@@PAW412@@std@@YA?AUrandom_access_iterator_tag@0@ABQAW4VERTPROCESS_T@Ogre@@0@Z 10029760 f i OgreD3D9DriverEnum.obj
 0001:00028760       ??$_Iter_random@PAW4_D3DFORMAT@@PAW41@@std@@YA?AUrandom_access_iterator_tag@0@ABQAW4_D3DFORMAT@@0@Z 10029760 f i OgreD3D9DriverEnum.obj
 0001:00028760       ??$_Iter_random@PAURTBuffer@D3D9HardwarePixelBufferManager@Ogre@@PAU123@@std@@YA?AUrandom_access_iterator_tag@0@ABQAURTBuffer@D3D9HardwarePixelBufferManager@Ogre@@0@Z 10029760 f i OgreD3D9HardwarePixelBuffer.obj
 0001:00028760       ??$_Iter_random@PAPAVCompiledShader@Ogre@@PAPAV12@@std@@YA?AUrandom_access_iterator_tag@0@ABQAPAVCompiledShader@Ogre@@0@Z 10029760 f i OgreD3D9ShaderManager.obj
 0001:00028760       ??$_Iter_cat@PAPAVD3DRenderWindow@Ogre@@@std@@YA?AUrandom_access_iterator_tag@0@ABQAPAVD3DRenderWindow@Ogre@@@Z 10029760 f i OgreD3D9RenderSystem.obj
 0001:00028760       ??$_Iter_random@PAPAVD3DRenderWindow@Ogre@@PAPAV12@@std@@YA?AUrandom_access_iterator_tag@0@ABQAPAVD3DRenderWindow@Ogre@@0@Z 10029760 f i OgreD3D9RenderSystem.obj
 0001:00028760       ??$_Iter_random@PAPAUTechCache@D3DMaterialTemplate@Ogre@@PAPAU123@@std@@YA?AUrandom_access_iterator_tag@0@ABQAPAUTechCache@D3DMaterialTemplate@Ogre@@0@Z 10029760 f i OgreD3DMaterialTemplate.obj
 0001:00028760       ??$_Iter_random@PAU_D3DDISPLAYMODE@@PAU1@@std@@YA?AUrandom_access_iterator_tag@0@ABQAU_D3DDISPLAYMODE@@0@Z 10029760 f i OgreD3D9DriverEnum.obj
 0001:00028760       ??$_Iter_random@PAPAVD3D9VertexDecl@Ogre@@PAPAV12@@std@@YA?AUrandom_access_iterator_tag@0@ABQAPAVD3D9VertexDecl@Ogre@@0@Z 10029760 f i OgreD3D9RenderSystem.obj
 0001:00028760       ??$_Iter_random@PAW4_D3DMULTISAMPLE_TYPE@@PAW41@@std@@YA?AUrandom_access_iterator_tag@0@ABQAW4_D3DMULTISAMPLE_TYPE@@0@Z 10029760 f i OgreD3D9DriverEnum.obj
 0001:00028760       ??$_Iter_random@PADPAD@std@@YA?AUrandom_access_iterator_tag@0@ABQAD0@Z 10029760 f i OgreD3D9ShaderManager.obj
 0001:00028760       ??$_Iter_cat@PAPAUD3DDEVICEINFO_T@Ogre@@@std@@YA?AUrandom_access_iterator_tag@0@ABQAPAUD3DDEVICEINFO_T@Ogre@@@Z 10029760 f i OgreD3D9DriverEnum.obj
 0001:00028760       ??$_Iter_random@PAUDSBuffer@D3D9HardwarePixelBufferManager@Ogre@@PAU123@@std@@YA?AUrandom_access_iterator_tag@0@ABQAUDSBuffer@D3D9HardwarePixelBufferManager@Ogre@@0@Z 10029760 f i OgreD3D9HardwarePixelBuffer.obj
 0001:00028760       ??$_Iter_random@PAIPAI@std@@YA?AUrandom_access_iterator_tag@0@ABQAI0@Z 10029760 f i OgreD3D9DriverEnum.obj
 0001:00028760       ??$_Iter_random@PAU_D3DXMACRO@@PAU1@@std@@YA?AUrandom_access_iterator_tag@0@ABQAU_D3DXMACRO@@0@Z 10029760 f i OgreD3D9ShaderManager.obj
 0001:00028760       ??$_Iter_random@PAUShaderEnv@Ogre@@PAU12@@std@@YA?AUrandom_access_iterator_tag@0@ABQAUShaderEnv@Ogre@@0@Z 10029760 f i OgreD3DMaterialTemplate.obj
 0001:00028760       ??$_Iter_random@PAUPassData@D3DShaderTechnique@Ogre@@PAU123@@std@@YA?AUrandom_access_iterator_tag@0@ABQAUPassData@D3DShaderTechnique@Ogre@@0@Z 10029760 f i OgreD3D9ShaderManager.obj
 0001:00028760       ??$_Iter_random@PAPAVD3D9TextureRenderTarget@Ogre@@PAPAV12@@std@@YA?AUrandom_access_iterator_tag@0@ABQAPAVD3D9TextureRenderTarget@Ogre@@0@Z 10029760 f i OgreD3D9HardwarePixelBuffer.obj
 0001:00028760       ??$_Iter_random@PAPAUTechniqueDesc@Ogre@@PAPAU12@@std@@YA?AUrandom_access_iterator_tag@0@ABQAPAUTechniqueDesc@Ogre@@0@Z 10029760 f i OgreD3D9ShaderManager.obj
 0001:00028760       ??$_Iter_random@PATShaderEnvKey@Ogre@@PAT12@@std@@YA?AUrandom_access_iterator_tag@0@ABQATShaderEnvKey@Ogre@@0@Z 10029760 f i OgreD3D9ShaderManager.obj
 0001:00028760       ??$_Iter_cat@PAPAUD3DADAPTER_T@Ogre@@@std@@YA?AUrandom_access_iterator_tag@0@ABQAPAUD3DADAPTER_T@Ogre@@@Z 10029760 f i OgreD3D9DriverEnum.obj
 0001:00028760       ??$_Iter_cat@PAI@std@@YA?AUrandom_access_iterator_tag@0@ABQAI@Z 10029760 f i OgreD3D9DriverEnum.obj
 0001:00028760       ??$_Iter_random@PAPAUD3DDEVCOMBO_T@Ogre@@PAPAU12@@std@@YA?AUrandom_access_iterator_tag@0@ABQAPAUD3DDEVCOMBO_T@Ogre@@0@Z 10029760 f i OgreD3D9DriverEnum.obj
 0001:00028760       ??$_Iter_cat@PAPAUD3DDEVCOMBO_T@Ogre@@@std@@YA?AUrandom_access_iterator_tag@0@ABQAPAUD3DDEVCOMBO_T@Ogre@@@Z 10029760 f i OgreD3D9DriverEnum.obj
 0001:00028760       ??$_Iter_random@PAUD3DSMSCONFLICT_T@Ogre@@PAU12@@std@@YA?AUrandom_access_iterator_tag@0@ABQAUD3DSMSCONFLICT_T@Ogre@@0@Z 10029760 f i OgreD3D9DriverEnum.obj
 0001:00028760       ??$_Iter_cat@PAPAVCompiledShader@Ogre@@@std@@YA?AUrandom_access_iterator_tag@0@ABQAPAVCompiledShader@Ogre@@@Z 10029760 f i OgreD3D9ShaderManager.obj
 0001:00028760       ??$_Iter_random@PAPAUD3DDEVICEINFO_T@Ogre@@PAPAU12@@std@@YA?AUrandom_access_iterator_tag@0@ABQAPAUD3DDEVICEINFO_T@Ogre@@0@Z 10029760 f i OgreD3D9DriverEnum.obj
 0001:00028760       ??$_Iter_cat@PAPAVD3D9TextureRenderTarget@Ogre@@@std@@YA?AUrandom_access_iterator_tag@0@ABQAPAVD3D9TextureRenderTarget@Ogre@@@Z 10029760 f i OgreD3D9HardwarePixelBuffer.obj
 0001:00028760       ??$_Iter_cat@PAPAUTechniqueDesc@Ogre@@@std@@YA?AUrandom_access_iterator_tag@0@ABQAPAUTechniqueDesc@Ogre@@@Z 10029760 f i OgreD3D9ShaderManager.obj
 0001:00028760       ??$_Iter_cat@PAPAUTechCache@D3DMaterialTemplate@Ogre@@@std@@YA?AUrandom_access_iterator_tag@0@ABQAPAUTechCache@D3DMaterialTemplate@Ogre@@@Z 10029760 f i OgreD3DMaterialTemplate.obj
 0001:00028760       ??$_Iter_random@PAPAUD3DADAPTER_T@Ogre@@PAPAU12@@std@@YA?AUrandom_access_iterator_tag@0@ABQAPAUD3DADAPTER_T@Ogre@@0@Z 10029760 f i OgreD3D9DriverEnum.obj
 0001:00028760       ??$_Iter_cat@PAPAVD3D9VertexDecl@Ogre@@@std@@YA?AUrandom_access_iterator_tag@0@ABQAPAVD3D9VertexDecl@Ogre@@@Z 10029760 f i OgreD3D9RenderSystem.obj
 0001:00028770       ??0D3DRenderWindow@Ogre@@QAE@PAVD3D9RenderSystem@1@ABUInitDesc@RenderSystem@1@_N@Z 10029770 f   OgreD3DRenderWindow.obj
 0001:00028890       ??1D3DRenderWindow@Ogre@@UAE@XZ 10029890 f   OgreD3DRenderWindow.obj
 0001:000288f0       ?onInitialise@D3DRenderWindow@Ogre@@QAE_NXZ 100298f0 f   OgreD3DRenderWindow.obj
 0001:00028ac0       ?onShutdown@D3DRenderWindow@Ogre@@QAEXXZ 10029ac0 f   OgreD3DRenderWindow.obj
 0001:00028b20       ?createDeviceObj@D3DRenderWindow@Ogre@@AAE_NXZ 10029b20 f   OgreD3DRenderWindow.obj
 0001:00028c00       ?destroyDeviceObj@D3DRenderWindow@Ogre@@AAEXXZ 10029c00 f   OgreD3DRenderWindow.obj
 0001:00028c80       ?onLostDevice@D3DRenderWindow@Ogre@@QAEXXZ 10029c80 f   OgreD3DRenderWindow.obj
 0001:00028cc0       ?getResetDeviceErrcode@Ogre@@YAPBDJ@Z 10029cc0 f   OgreD3DRenderWindow.obj
 0001:00028d40       ?onResetDevice@D3DRenderWindow@Ogre@@QAE_NXZ 10029d40 f   OgreD3DRenderWindow.obj
 0001:00028eb0       ?deleteThis@D3DRenderWindow@Ogre@@UAEXXZ 10029eb0 f   OgreD3DRenderWindow.obj
 0001:00028f00       ?onSizeOrMove@D3DRenderWindow@Ogre@@UAEXXZ 10029f00 f   OgreD3DRenderWindow.obj
 0001:00029010       ?forceReset@D3DRenderWindow@Ogre@@UAEXXZ 1002a010 f   OgreD3DRenderWindow.obj
 0001:00029030       ?setSyncRefresh@D3DRenderWindow@Ogre@@UAEX_N@Z 1002a030 f   OgreD3DRenderWindow.obj
 0001:00029050       ?setMultiSampleLevel@D3DRenderWindow@Ogre@@UAEXH@Z 1002a050 f   OgreD3DRenderWindow.obj
 0001:00029070       ?buildPresentParams@D3DRenderWindow@Ogre@@AAEXAAU_D3DPRESENT_PARAMETERS_@@ABUD3DSETTING_T@2@@Z 1002a070 f   OgreD3DRenderWindow.obj
 0001:00029170       ?getSize@D3DRenderWindow@Ogre@@UAEXAAI0@Z 1002a170 f   OgreD3DRenderWindow.obj
 0001:000291a0       ?beginScene@D3DRenderWindow@Ogre@@UAE_NXZ 1002a1a0 f   OgreD3DRenderWindow.obj
 0001:00029200       ?endScene@D3DRenderWindow@Ogre@@UAEXXZ 1002a200 f   OgreD3DRenderWindow.obj
 0001:00029210       ?present@D3DRenderWindow@Ogre@@UAEHXZ 1002a210 f   OgreD3DRenderWindow.obj
 0001:00029300       ?getColorBuffer@D3DRenderWindow@Ogre@@QAEPAUIDirect3DSurface9@@XZ 1002a300 f   OgreD3DRenderWindow.obj
 0001:00029320       ?getHWnd@D3DRenderWindow@Ogre@@UAEPAXXZ 1002a320 f i OgreD3DRenderWindow.obj
 0001:00029340       ??_GD3DRenderWindow@Ogre@@UAEPAXI@Z 1002a340 f i OgreD3DRenderWindow.obj
 0001:00029340       ??_ED3DRenderWindow@Ogre@@UAEPAXI@Z 1002a340 f i OgreD3DRenderWindow.obj
 0001:00029380       ?getD3DEnum@D3D9RenderSystem@Ogre@@QAEPAVD3DEnumeration@2@XZ 1002a380 f i OgreD3DRenderWindow.obj
 0001:00029394       ?getRTTI@TextureRenderTarget@Ogre@@UBEPBVRuntimeClass@2@XZ 1002a394 f   OgreMain:OgreMain.dll
 0001:0002939a       ?release@BaseObject@Ogre@@UAEXXZ 1002a39a f   OgreMain:OgreMain.dll
 0001:000293a0       ?addRef@BaseObject@Ogre@@UAEXXZ 1002a3a0 f   OgreMain:OgreMain.dll
 0001:000293a6       ?getRefCount@BaseObject@Ogre@@UAEHXZ 1002a3a6 f   OgreMain:OgreMain.dll
 0001:000293ac       ?_serialize@BaseObject@Ogre@@UAEXAAVArchive@2@H@Z 1002a3ac f   OgreMain:OgreMain.dll
 0001:000293b2       ?compileAllShaders@MaterialManager@Ogre@@UAEXXZ 1002a3b2 f   OgreMain:OgreMain.dll
 0001:000293b8       ?getRTTI@RenderWindow@Ogre@@UBEPBVRuntimeClass@2@XZ 1002a3b8 f   OgreMain:OgreMain.dll
 0001:000293be       ?isSuccessCreateRenderTarget@RenderTarget@Ogre@@UAE_NXZ 1002a3be f   OgreMain:OgreMain.dll
 0001:000293c4       ?isSuccessCreateDSBuffer@RenderTarget@Ogre@@UAE_NXZ 1002a3c4 f   OgreMain:OgreMain.dll
 0001:000293ca       ?setStretchRect@RenderTarget@Ogre@@UAEXHHHHHHHH@Z 1002a3ca f   OgreMain:OgreMain.dll
 0001:000293d0       _memcpy                    1002a3d0 f   MSVCRT:MSVCR90.dll
 0001:000293d6       @__security_check_cookie@4 1002a3d6 f   MSVCRT:secchk.obj
 0001:000293e6       ___CxxFrameHandler3        1002a3e6 f   MSVCRT:MSVCR90.dll
 0001:000293ec       ??3@YAXPAX@Z               1002a3ec f   MSVCRT:MSVCR90.dll
 0001:000293f2       _memset                    1002a3f2 f   MSVCRT:MSVCR90.dll
 0001:000293f8       ??2@YAPAXI@Z               1002a3f8 f   MSVCRT:MSVCR90.dll
 0001:000293fe       __CxxThrowException@8      1002a3fe f   MSVCRT:MSVCR90.dll
 0001:00029404       ??_Etype_info@@UAEPAXI@Z   1002a404 f i MSVCRT:ti_inst.obj
 0001:00029450       ??0exception@std@@QAE@ABV01@@Z 1002a450 f   MSVCRT:MSVCR90.dll
 0001:00029456       _memcmp                    1002a456 f   MSVCRT:MSVCR90.dll
 0001:0002945c       ?what@exception@std@@UBEPBDXZ 1002a45c f   MSVCRT:MSVCR90.dll
 0001:00029462       _strcmp                    1002a462 f   MSVCRT:MSVCR90.dll
 0001:00029470       __onexit                   1002a470 f   MSVCRT:atonexit.obj
 0001:00029515       _atexit                    1002a515 f   MSVCRT:atonexit.obj
 0001:0002952c       _strcpy                    1002a52c f   MSVCRT:MSVCR90.dll
 0001:00029532       ??_V@YAXPAX@Z              1002a532 f   MSVCRT:MSVCR90.dll
 0001:00029538       ??_U@YAPAXI@Z              1002a538 f   MSVCRT:MSVCR90.dll
 0001:0002953e       __purecall                 1002a53e f   MSVCRT:MSVCR90.dll
 0001:00029544       _strlen                    1002a544 f   MSVCRT:MSVCR90.dll
 0001:00029599       __CRT_INIT@12              1002a599 f   MSVCRT:crtdll.obj
 0001:000298d5       __DllMainCRTStartup@12     1002a8d5 f   MSVCRT:crtdll.obj
 0001:000298f8       ___report_gsfailure        1002a8f8 f   MSVCRT:gs_report.obj
 0001:000299fe       ?__ArrayUnwind@@YGXPAXIHP6EX0@Z@Z 1002a9fe f   MSVCRT:ehvecdtr.obj
 0001:00029a5c       ??_M@YGXPAXIHP6EX0@Z@Z     1002aa5c f   MSVCRT:ehvecdtr.obj
 0001:00029ac0       __unlock                   1002aac0 f   MSVCRT:MSVCR90.dll
 0001:00029ac6       ___dllonexit               1002aac6 f   MSVCRT:MSVCR90.dll
 0001:00029acc       __lock                     1002aacc f   MSVCRT:MSVCR90.dll
 0001:00029ad4       __SEH_prolog4              1002aad4 f   MSVCRT:sehprolg4.obj
 0001:00029b19       __SEH_epilog4              1002ab19 f   MSVCRT:sehprolg4.obj
 0001:00029b2d       __except_handler4          1002ab2d f   MSVCRT:chandler4gs.obj
 0001:00029b52       ___clean_type_info_names   1002ab52 f   MSVCRT:tncleanup.obj
 0001:00029b5e       __RTC_Initialize           1002ab5e f   MSVCRT:_initsect_.obj
 0001:00029b84       __RTC_Terminate            1002ab84 f   MSVCRT:_initsect_.obj
 0001:00029bb0       __ValidateImageBase        1002abb0 f   MSVCRT:pesect.obj
 0001:00029bf0       __FindPESection            1002abf0 f   MSVCRT:pesect.obj
 0001:00029c40       __IsNonwritableInCurrentImage 1002ac40 f   MSVCRT:pesect.obj
 0001:00029cfe       __initterm                 1002acfe f   MSVCRT:MSVCR90.dll
 0001:00029d04       __initterm_e               1002ad04 f   MSVCRT:MSVCR90.dll
 0001:00029d0a       __amsg_exit                1002ad0a f   MSVCRT:MSVCR90.dll
 0001:00029d10       ___CppXcptFilter           1002ad10 f   MSVCRT:MSVCR90.dll
 0001:00029d16       _DllMain@12                1002ad16 f   MSVCRT:dllmain.obj
 0001:00029d3a       ___security_init_cookie    1002ad3a f   MSVCRT:gs_support.obj
 0001:00029dd0       __crt_debugger_hook        1002add0 f   MSVCRT:MSVCR90.dll
 0001:00029dd6       ?terminate@@YAXXZ          1002add6 f   MSVCRT:MSVCR90.dll
 0001:00029ddc       ??1type_info@@UAE@XZ       1002addc f   MSVCRT:MSVCR90.dll
 0001:00029ddc       ?_type_info_dtor_internal_method@type_info@@QAEXXZ 1002addc f   MSVCRT:MSVCR90.dll
 0001:00029de2       __except_handler4_common   1002ade2 f   MSVCRT:MSVCR90.dll
 0001:00029de8       ___clean_type_info_names_internal 1002ade8 f   MSVCRT:MSVCR90.dll
 0001:00029dee       _Direct3DCreate9@4         1002adee f   d3d9:d3d9.dll
 0001:00029df4       _D3DXLoadVolumeFromMemory@44 1002adf4 f   d3dx9:d3dx9_36.dll
 0001:00029dfa       _D3DXLoadSurfaceFromMemory@40 1002adfa f   d3dx9:d3dx9_36.dll
 0001:00029e00       _D3DXCheckVolumeTextureRequirements@32 1002ae00 f   d3dx9:d3dx9_36.dll
 0001:00029e06       _D3DXCheckCubeTextureRequirements@24 1002ae06 f   d3dx9:d3dx9_36.dll
 0001:00029e0c       _D3DXCheckTextureRequirements@28 1002ae0c f   d3dx9:d3dx9_36.dll
 0001:00029e12       _D3DXSaveTextureToFileA@16 1002ae12 f   d3dx9:d3dx9_36.dll
 0001:00029e18       _D3DXSaveTextureToFileInMemory@16 1002ae18 f   d3dx9:d3dx9_36.dll
 0001:00029e1e       _D3DXLoadSurfaceFromSurface@32 1002ae1e f   d3dx9:d3dx9_36.dll
 0001:00029e24       _D3DXCompileShader@40      1002ae24 f   d3dx9:d3dx9_36.dll
 0001:00029e2a       _D3DXCreateEffectCompiler@28 1002ae2a f   d3dx9:d3dx9_36.dll
 0001:00029e30       _D3DXCreateEffect@36       1002ae30 f   d3dx9:d3dx9_36.dll
 0001:00029e36       _D3DXSaveSurfaceToFileA@20 1002ae36 f   d3dx9:d3dx9_36.dll
 0001:00029e3c       _D3DXGetShaderConstantTable@8 1002ae3c f   d3dx9:d3dx9_36.dll
 0001:00029e42       _D3DXCreateEffectFromFileA@32 1002ae42 f   d3dx9:d3dx9_36.dll
 0002:00000000       __imp__GetSystemTimeAsFileTime@4 1002d000     kernel32:KERNEL32.dll
 0002:00000004       __imp__Sleep@4             1002d004     kernel32:KERNEL32.dll
 0002:00000008       __imp__InterlockedCompareExchange@12 1002d008     kernel32:KERNEL32.dll
 0002:0000000c       __imp__TerminateProcess@8  1002d00c     kernel32:KERNEL32.dll
 0002:00000010       __imp__GetCurrentProcess@0 1002d010     kernel32:KERNEL32.dll
 0002:00000014       __imp__UnhandledExceptionFilter@4 1002d014     kernel32:KERNEL32.dll
 0002:00000018       __imp__SetUnhandledExceptionFilter@4 1002d018     kernel32:KERNEL32.dll
 0002:0000001c       __imp__IsDebuggerPresent@0 1002d01c     kernel32:KERNEL32.dll
 0002:00000020       __imp__DisableThreadLibraryCalls@4 1002d020     kernel32:KERNEL32.dll
 0002:00000024       __imp__QueryPerformanceCounter@4 1002d024     kernel32:KERNEL32.dll
 0002:00000028       __imp__GetTickCount@0      1002d028     kernel32:KERNEL32.dll
 0002:0000002c       __imp__GetCurrentThreadId@0 1002d02c     kernel32:KERNEL32.dll
 0002:00000030       __imp__GetCurrentProcessId@0 1002d030     kernel32:KERNEL32.dll
 0002:00000034       __imp__GetCurrentDirectoryA@8 1002d034     kernel32:KERNEL32.dll
 0002:00000038       __imp__GetLocalTime@4      1002d038     kernel32:KERNEL32.dll
 0002:0000003c       __imp__GetVersionExA@4     1002d03c     kernel32:KERNEL32.dll
 0002:00000040       __imp__GlobalMemoryStatus@4 1002d040     kernel32:KERNEL32.dll
 0002:00000044       __imp__GetModuleHandleA@4  1002d044     kernel32:KERNEL32.dll
 0002:00000048       __imp__InterlockedExchange@8 1002d048     kernel32:KERNEL32.dll
 0002:0000004c       \177KERNEL32_NULL_THUNK_DATA 1002d04c     kernel32:KERNEL32.dll
 0002:00000050       __imp_??0?$allocator@D@std@@QAE@ABV01@@Z 1002d050     msvcprt:MSVCP90.dll
 0002:00000054       __imp_?deallocate@?$allocator@D@std@@QAEXPADI@Z 1002d054     msvcprt:MSVCP90.dll
 0002:00000058       __imp_?allocate@?$allocator@D@std@@QAEPADI@Z 1002d058     msvcprt:MSVCP90.dll
 0002:0000005c       __imp_??0?$allocator@D@std@@QAE@XZ 1002d05c     msvcprt:MSVCP90.dll
 0002:00000060       __imp_??4?$basic_string@DU?$char_traits@D@std@@V?$allocator@D@2@@std@@QAEAAV01@PBD@Z 1002d060     msvcprt:MSVCP90.dll
 0002:00000064       __imp_??0?$basic_string@DU?$char_traits@D@std@@V?$allocator@D@2@@std@@QAE@XZ 1002d064     msvcprt:MSVCP90.dll
 0002:00000068       __imp_?c_str@?$basic_string@DU?$char_traits@D@std@@V?$allocator@D@2@@std@@QBEPBDXZ 1002d068     msvcprt:MSVCP90.dll
 0002:0000006c       __imp_??0?$basic_string@DU?$char_traits@D@std@@V?$allocator@D@2@@std@@QAE@ABV01@@Z 1002d06c     msvcprt:MSVCP90.dll
 0002:00000070       __imp_??0?$basic_string@DU?$char_traits@D@std@@V?$allocator@D@2@@std@@QAE@PBD@Z 1002d070     msvcprt:MSVCP90.dll
 0002:00000074       __imp_??1?$basic_string@DU?$char_traits@D@std@@V?$allocator@D@2@@std@@QAE@XZ 1002d074     msvcprt:MSVCP90.dll
 0002:00000078       __imp_?max_size@?$allocator@D@std@@QBEIXZ 1002d078     msvcprt:MSVCP90.dll
 0002:0000007c       \177MSVCP90_NULL_THUNK_DATA 1002d07c     msvcprt:MSVCP90.dll
 0002:00000080       __imp____clean_type_info_names_internal 1002d080     MSVCRT:MSVCR90.dll
 0002:00000084       __imp_?_type_info_dtor_internal_method@type_info@@QAEXXZ 1002d084     MSVCRT:MSVCR90.dll
 0002:00000088       __imp_?terminate@@YAXXZ    1002d088     MSVCRT:MSVCR90.dll
 0002:0000008c       __imp___crt_debugger_hook  1002d08c     MSVCRT:MSVCR90.dll
 0002:00000090       __imp____CppXcptFilter     1002d090     MSVCRT:MSVCR90.dll
 0002:00000094       __imp___adjust_fdiv        1002d094     MSVCRT:MSVCR90.dll
 0002:00000098       __imp___amsg_exit          1002d098     MSVCRT:MSVCR90.dll
 0002:0000009c       __imp___initterm_e         1002d09c     MSVCRT:MSVCR90.dll
 0002:000000a0       __imp___initterm           1002d0a0     MSVCRT:MSVCR90.dll
 0002:000000a4       __imp___encoded_null       1002d0a4     MSVCRT:MSVCR90.dll
 0002:000000a8       __imp___malloc_crt         1002d0a8     MSVCRT:MSVCR90.dll
 0002:000000ac       __imp___decode_pointer     1002d0ac     MSVCRT:MSVCR90.dll
 0002:000000b0       __imp___onexit             1002d0b0     MSVCRT:MSVCR90.dll
 0002:000000b4       __imp___lock               1002d0b4     MSVCRT:MSVCR90.dll
 0002:000000b8       __imp___encode_pointer     1002d0b8     MSVCRT:MSVCR90.dll
 0002:000000bc       __imp____dllonexit         1002d0bc     MSVCRT:MSVCR90.dll
 0002:000000c0       __imp___unlock             1002d0c0     MSVCRT:MSVCR90.dll
 0002:000000c4       __imp__strlen              1002d0c4     MSVCRT:MSVCR90.dll
 0002:000000c8       __imp__fread               1002d0c8     MSVCRT:MSVCR90.dll
 0002:000000cc       __imp__sprintf             1002d0cc     MSVCRT:MSVCR90.dll
 0002:000000d0       __imp___purecall           1002d0d0     MSVCRT:MSVCR90.dll
 0002:000000d4       __imp_??_U@YAPAXI@Z        1002d0d4     MSVCRT:MSVCR90.dll
 0002:000000d8       __imp_??_V@YAXPAX@Z        1002d0d8     MSVCRT:MSVCR90.dll
 0002:000000dc       __imp__strcpy              1002d0dc     MSVCRT:MSVCR90.dll
 0002:000000e0       __imp___strdup             1002d0e0     MSVCRT:MSVCR90.dll
 0002:000000e4       __imp__free                1002d0e4     MSVCRT:MSVCR90.dll
 0002:000000e8       __imp___vsnprintf_s        1002d0e8     MSVCRT:MSVCR90.dll
 0002:000000ec       __imp__fopen_s             1002d0ec     MSVCRT:MSVCR90.dll
 0002:000000f0       __imp__fwrite              1002d0f0     MSVCRT:MSVCR90.dll
 0002:000000f4       __imp__fclose              1002d0f4     MSVCRT:MSVCR90.dll
 0002:000000f8       __imp__strstr              1002d0f8     MSVCRT:MSVCR90.dll
 0002:000000fc       __imp__strcmp              1002d0fc     MSVCRT:MSVCR90.dll
 0002:00000100       __imp__malloc              1002d100     MSVCRT:MSVCR90.dll
 0002:00000104       __imp__memmove_s           1002d104     MSVCRT:MSVCR90.dll
 0002:00000108       __imp_?what@exception@std@@UBEPBDXZ 1002d108     MSVCRT:MSVCR90.dll
 0002:0000010c       __imp_??0exception@std@@QAE@ABQBD@Z 1002d10c     MSVCRT:MSVCR90.dll
 0002:00000110       __imp__memcmp              1002d110     MSVCRT:MSVCR90.dll
 0002:00000114       __imp_??0exception@std@@QAE@XZ 1002d114     MSVCRT:MSVCR90.dll
 0002:00000118       __imp_??1exception@std@@UAE@XZ 1002d118     MSVCRT:MSVCR90.dll
 0002:0000011c       __imp_??0exception@std@@QAE@ABV01@@Z 1002d11c     MSVCRT:MSVCR90.dll
 0002:00000120       __imp___CxxThrowException@8 1002d120     MSVCRT:MSVCR90.dll
 0002:00000124       __imp___invalid_parameter_noinfo 1002d124     MSVCRT:MSVCR90.dll
 0002:00000128       __imp__exit                1002d128     MSVCRT:MSVCR90.dll
 0002:0000012c       __imp_??2@YAPAXI@Z         1002d12c     MSVCRT:MSVCR90.dll
 0002:00000130       __imp__qsort               1002d130     MSVCRT:MSVCR90.dll
 0002:00000134       __imp__memset              1002d134     MSVCRT:MSVCR90.dll
 0002:00000138       __imp_??3@YAXPAX@Z         1002d138     MSVCRT:MSVCR90.dll
 0002:0000013c       __imp____CxxFrameHandler3  1002d13c     MSVCRT:MSVCR90.dll
 0002:00000140       __imp__memcpy              1002d140     MSVCRT:MSVCR90.dll
 0002:00000144       __imp___except_handler4_common 1002d144     MSVCRT:MSVCR90.dll
 0002:00000148       \177MSVCR90_NULL_THUNK_DATA 1002d148     MSVCRT:MSVCR90.dll
 0002:0000014c       __imp_?getRTTI@RenderWindow@Ogre@@UBEPBVRuntimeClass@2@XZ 1002d14c     OgreMain:OgreMain.dll
 0002:00000150       __imp_?isSuccessCreateRenderTarget@RenderTarget@Ogre@@UAE_NXZ 1002d150     OgreMain:OgreMain.dll
 0002:00000154       __imp_?getRTTI@TextureRenderTarget@Ogre@@UBEPBVRuntimeClass@2@XZ 1002d154     OgreMain:OgreMain.dll
 0002:00000158       __imp_?setStretchRect@RenderTarget@Ogre@@UAEXHHHHHHHH@Z 1002d158     OgreMain:OgreMain.dll
 0002:0000015c       __imp_??0TextureRenderTarget@Ogre@@QAE@XZ 1002d15c     OgreMain:OgreMain.dll
 0002:00000160       __imp_?addRef@HardwarePixelBuffer@Ogre@@QAEXXZ 1002d160     OgreMain:OgreMain.dll
 0002:00000164       __imp_??1TextureRenderTarget@Ogre@@UAE@XZ 1002d164     OgreMain:OgreMain.dll
 0002:00000168       __imp_??0RenderWindow@Ogre@@QAE@XZ 1002d168     OgreMain:OgreMain.dll
 0002:0000016c       __imp_??3MemoryDelegation@Ogre@@SAXPAXI@Z 1002d16c     OgreMain:OgreMain.dll
 0002:00000170       __imp_?getBits@SurfaceData@Ogre@@QAEPAXXZ 1002d170     OgreMain:OgreMain.dll
 0002:00000174       __imp_??0HardwarePixelBuffer@Ogre@@IAE@XZ 1002d174     OgreMain:OgreMain.dll
 0002:00000178       __imp_??1HardwarePixelBuffer@Ogre@@MAE@XZ 1002d178     OgreMain:OgreMain.dll
 0002:0000017c       __imp_?getMemorySize@PixelUtil@Ogre@@SAIIIIW4PixelFormat@2@@Z 1002d17c     OgreMain:OgreMain.dll
 0002:00000180       __imp_??0LockFunctor@Ogre@@QAE@PAVLockSection@1@@Z 1002d180     OgreMain:OgreMain.dll
 0002:00000184       __imp_?LogMessage@Ogre@@YAXPBDZZ 1002d184     OgreMain:OgreMain.dll
 0002:00000188       __imp_?deleteThis@HardwarePixelBuffer@Ogre@@QAEXXZ 1002d188     OgreMain:OgreMain.dll
 0002:0000018c       __imp_??1LockFunctor@Ogre@@QAE@XZ 1002d18c     OgreMain:OgreMain.dll
 0002:00000190       __imp_??1RenderWindow@Ogre@@UAE@XZ 1002d190     OgreMain:OgreMain.dll
 0002:00000194       __imp_?openLocalFileStream@ResourceManager@Ogre@@QAEPAVDataStream@2@ABV?$basic_string@DU?$char_traits@D@std@@V?$allocator@D@2@@std@@_N@Z 1002d194     OgreMain:OgreMain.dll
 0002:00000198       __imp_?getMtlTemplate@MaterialManager@Ogre@@QAEPAVMaterialTemplate@2@ABVFixedString@2@@Z 1002d198     OgreMain:OgreMain.dll
 0002:0000019c       __imp_?getShadowmapSize@Root@Ogre@@QAEHXZ 1002d19c     OgreMain:OgreMain.dll
 0002:000001a0       __imp_?compileAllShaders@MaterialManager@Ogre@@UAEXXZ 1002d1a0     OgreMain:OgreMain.dll
 0002:000001a4       __imp_??0MaterialManager@Ogre@@QAE@XZ 1002d1a4     OgreMain:OgreMain.dll
 0002:000001a8       __imp_??1MaterialManager@Ogre@@UAE@XZ 1002d1a8     OgreMain:OgreMain.dll
 0002:000001ac       __imp_?length@FixedString@Ogre@@QBEIXZ 1002d1ac     OgreMain:OgreMain.dll
 0002:000001b0       __imp_??0FixedString@Ogre@@QAE@PBD@Z 1002d1b0     OgreMain:OgreMain.dll
 0002:000001b4       __imp_??0FixedString@Ogre@@QAE@XZ 1002d1b4     OgreMain:OgreMain.dll
 0002:000001b8       __imp_?init@MaterialTemplate@Ogre@@UAE_NVXMLNode@2@@Z 1002d1b8     OgreMain:OgreMain.dll
 0002:000001bc       __imp_?iterateChild@XMLNode@Ogre@@QAE?AV12@XZ 1002d1bc     OgreMain:OgreMain.dll
 0002:000001c0       __imp_?isNull@XMLNode@Ogre@@QAE_NXZ 1002d1c0     OgreMain:OgreMain.dll
 0002:000001c4       __imp_?getName@XMLNode@Ogre@@QAEPBDXZ 1002d1c4     OgreMain:OgreMain.dll
 0002:000001c8       __imp_?attribToInt@XMLNode@Ogre@@QAEHPBD@Z 1002d1c8     OgreMain:OgreMain.dll
 0002:000001cc       __imp_?attribToString@XMLNode@Ogre@@QAEPBDPBD@Z 1002d1cc     OgreMain:OgreMain.dll
 0002:000001d0       __imp_?iterateChild@XMLNode@Ogre@@QAE?AV12@V12@@Z 1002d1d0     OgreMain:OgreMain.dll
 0002:000001d4       __imp_??0MaterialTemplate@Ogre@@QAE@ABVFixedString@1@@Z 1002d1d4     OgreMain:OgreMain.dll
 0002:000001d8       __imp_??0LockSection@Ogre@@QAE@XZ 1002d1d8     OgreMain:OgreMain.dll
 0002:000001dc       __imp_??1MaterialTemplate@Ogre@@UAE@XZ 1002d1dc     OgreMain:OgreMain.dll
 0002:000001e0       __imp_??1LockSection@Ogre@@QAE@XZ 1002d1e0     OgreMain:OgreMain.dll
 0002:000001e4       __imp_?onDataInvalidate@HardwareBufferPool@Ogre@@QAEXXZ 1002d1e4     OgreMain:OgreMain.dll
 0002:000001e8       __imp_??0HardwareBufferPool@Ogre@@QAE@_NI0@Z 1002d1e8     OgreMain:OgreMain.dll
 0002:000001ec       __imp_??1HardwareBufferPool@Ogre@@UAE@XZ 1002d1ec     OgreMain:OgreMain.dll
 0002:000001f0       __imp_?getNumElements@VertexFormat@Ogre@@QBEIXZ 1002d1f0     OgreMain:OgreMain.dll
 0002:000001f4       __imp_?getElement@VertexFormat@Ogre@@QBEABVVertexElement@2@I@Z 1002d1f4     OgreMain:OgreMain.dll
 0002:000001f8       __imp_??0VertexFormat@Ogre@@QAE@ABV01@@Z 1002d1f8     OgreMain:OgreMain.dll
 0002:000001fc       __imp_??1VertexFormat@Ogre@@QAE@XZ 1002d1fc     OgreMain:OgreMain.dll
 0002:00000200       __imp_?getStartIndex@HardwareIndexBuffer@Ogre@@QAEIXZ 1002d200     OgreMain:OgreMain.dll
 0002:00000204       __imp_?getPool@HardwareBuffer@Ogre@@QAEPAVHardwareBufferPool@2@XZ 1002d204     OgreMain:OgreMain.dll
 0002:00000208       __imp_?getStart@HardwareBuffer@Ogre@@QAEIXZ 1002d208     OgreMain:OgreMain.dll
 0002:0000020c       __imp_?hash@StringUtil@Ogre@@SAIPBDIH@Z 1002d20c     OgreMain:OgreMain.dll
 0002:00000210       __imp_?isCompileShaderEnvKeys@Root@Ogre@@QAE_NXZ 1002d210     OgreMain:OgreMain.dll
 0002:00000214       __imp_??0FixedString@Ogre@@QAE@ABV01@@Z 1002d214     OgreMain:OgreMain.dll
 0002:00000218       __imp_??1FixedString@Ogre@@QAE@XZ 1002d218     OgreMain:OgreMain.dll
 0002:0000021c       __imp_?getNumParam@MaterialTemplate@Ogre@@QAEIXZ 1002d21c     OgreMain:OgreMain.dll
 0002:00000220       __imp_?getParam@MaterialTemplate@Ogre@@QAEPAUParamDefine@12@I@Z 1002d220     OgreMain:OgreMain.dll
 0002:00000224       __imp_??BFixedString@Ogre@@QBEPBDXZ 1002d224     OgreMain:OgreMain.dll
 0002:00000228       __imp_?getSingletonPtr@?$Singleton@VRenderSystem@Ogre@@@Ogre@@SAPAVRenderSystem@2@XZ 1002d228     OgreMain:OgreMain.dll
 0002:0000022c       __imp_?getName@MaterialTemplate@Ogre@@QAEABVFixedString@2@XZ 1002d22c     OgreMain:OgreMain.dll
 0002:00000230       __imp_??8Ogre@@YA_NABVFixedString@0@PBD@Z 1002d230     OgreMain:OgreMain.dll
 0002:00000234       __imp_?getSingleton@?$Singleton@VResourceManager@Ogre@@@Ogre@@SAAAVResourceManager@2@XZ 1002d234     OgreMain:OgreMain.dll
 0002:00000238       __imp_?openFileStream@ResourceManager@Ogre@@QAEPAVDataStream@2@ABV?$basic_string@DU?$char_traits@D@std@@V?$allocator@D@2@@std@@_N@Z 1002d238     OgreMain:OgreMain.dll
 0002:0000023c       __imp_??8VertexFormat@Ogre@@QBE_NABV01@@Z 1002d23c     OgreMain:OgreMain.dll
 0002:00000240       __imp_?isSaveShaderEnvKeys@Root@Ogre@@QAE_NXZ 1002d240     OgreMain:OgreMain.dll
 0002:00000244       __imp_??0HardwareBufferManager@Ogre@@QAE@XZ 1002d244     OgreMain:OgreMain.dll
 0002:00000248       __imp_??1HardwareBufferManager@Ogre@@UAE@XZ 1002d248     OgreMain:OgreMain.dll
 0002:0000024c       __imp_?loadTemplates@MaterialManager@Ogre@@QAE_NABV?$basic_string@DU?$char_traits@D@std@@V?$allocator@D@2@@std@@@Z 1002d24c     OgreMain:OgreMain.dll
 0002:00000250       __imp_?getSingletonPtr@?$Singleton@VRoot@Ogre@@@Ogre@@SAPAVRoot@2@XZ 1002d250     OgreMain:OgreMain.dll
 0002:00000254       __imp_??0RenderSystem@Ogre@@QAE@XZ 1002d254     OgreMain:OgreMain.dll
 0002:00000258       __imp_?isLoadShaderCache@Root@Ogre@@QAE_NXZ 1002d258     OgreMain:OgreMain.dll
 0002:0000025c       __imp_??1RenderSystem@Ogre@@QAE@XZ 1002d25c     OgreMain:OgreMain.dll
 0002:00000260       __imp_??0Plugin@Ogre@@QAE@XZ 1002d260     OgreMain:OgreMain.dll
 0002:00000264       __imp_??1Plugin@Ogre@@UAE@XZ 1002d264     OgreMain:OgreMain.dll
 0002:00000268       __imp_??0HardwarePixelBufferManager@Ogre@@QAE@XZ 1002d268     OgreMain:OgreMain.dll
 0002:0000026c       __imp_??1HardwarePixelBufferManager@Ogre@@UAE@XZ 1002d26c     OgreMain:OgreMain.dll
 0002:00000270       __imp_?getSingletonPtr@?$Singleton@VHardwarePixelBufferManager@Ogre@@@Ogre@@SAPAVHardwarePixelBufferManager@2@XZ 1002d270     OgreMain:OgreMain.dll
 0002:00000274       __imp_?release@HardwarePixelBuffer@Ogre@@QAEXXZ 1002d274     OgreMain:OgreMain.dll
 0002:00000278       __imp_?_serialize@BaseObject@Ogre@@UAEXAAVArchive@2@H@Z 1002d278     OgreMain:OgreMain.dll
 0002:0000027c       __imp_?getRefCount@BaseObject@Ogre@@UAEHXZ 1002d27c     OgreMain:OgreMain.dll
 0002:00000280       __imp_?addRef@BaseObject@Ogre@@UAEXXZ 1002d280     OgreMain:OgreMain.dll
 0002:00000284       __imp_??2MemoryDelegation@Ogre@@SAPAXI@Z 1002d284     OgreMain:OgreMain.dll
 0002:00000288       __imp_?release@BaseObject@Ogre@@UAEXXZ 1002d288     OgreMain:OgreMain.dll
 0002:0000028c       __imp_??0HardwarePixelBufferPool@Ogre@@QAE@W4HardwareBufferUsage@1@ABUTextureDesc@1@@Z 1002d28c     OgreMain:OgreMain.dll
 0002:00000290       __imp_??1HardwarePixelBufferPool@Ogre@@UAE@XZ 1002d290     OgreMain:OgreMain.dll
 0002:00000294       __imp_?uninstallPlugin@Root@Ogre@@QAEXPAVPlugin@2@@Z 1002d294     OgreMain:OgreMain.dll
 0002:00000298       __imp_?getSingleton@?$Singleton@VRoot@Ogre@@@Ogre@@SAAAVRoot@2@XZ 1002d298     OgreMain:OgreMain.dll
 0002:0000029c       __imp_?installPlugin@Root@Ogre@@QAEXPAVPlugin@2@@Z 1002d29c     OgreMain:OgreMain.dll
 0002:000002a0       __imp_?LogSetCurParam@Ogre@@YAXPBDHI@Z 1002d2a0     OgreMain:OgreMain.dll
 0002:000002a4       __imp_?isSuccessCreateDSBuffer@RenderTarget@Ogre@@UAE_NXZ 1002d2a4     OgreMain:OgreMain.dll
 0002:000002a8       \177OgreMain_NULL_THUNK_DATA 1002d2a8     OgreMain:OgreMain.dll
 0002:000002ac       __imp__SetWindowPos@28     1002d2ac     user32:USER32.dll
 0002:000002b0       __imp__GetClientRect@8     1002d2b0     user32:USER32.dll
 0002:000002b4       __imp__GetWindowRect@8     1002d2b4     user32:USER32.dll
 0002:000002b8       __imp__GetWindowLongA@8    1002d2b8     user32:USER32.dll
 0002:000002bc       __imp__IsIconic@4          1002d2bc     user32:USER32.dll
 0002:000002c0       __imp__MessageBoxA@16      1002d2c0     user32:USER32.dll
 0002:000002c4       \177USER32_NULL_THUNK_DATA 1002d2c4     user32:USER32.dll
 0002:000002c8       __imp__timeGetTime@0       1002d2c8     Winmm:WINMM.dll
 0002:000002cc       \177WINMM_NULL_THUNK_DATA  1002d2cc     Winmm:WINMM.dll
 0002:000002d0       __imp__Direct3DCreate9@4   1002d2d0     d3d9:d3d9.dll
 0002:000002d4       \177d3d9_NULL_THUNK_DATA   1002d2d4     d3d9:d3d9.dll
 0002:000002d8       __imp__D3DXCreateEffectCompiler@28 1002d2d8     d3dx9:d3dx9_36.dll
 0002:000002dc       __imp__D3DXCreateEffectFromFileA@32 1002d2dc     d3dx9:d3dx9_36.dll
 0002:000002e0       __imp__D3DXLoadVolumeFromMemory@44 1002d2e0     d3dx9:d3dx9_36.dll
 0002:000002e4       __imp__D3DXGetShaderConstantTable@8 1002d2e4     d3dx9:d3dx9_36.dll
 0002:000002e8       __imp__D3DXCreateEffect@36 1002d2e8     d3dx9:d3dx9_36.dll
 0002:000002ec       __imp__D3DXSaveSurfaceToFileA@20 1002d2ec     d3dx9:d3dx9_36.dll
 0002:000002f0       __imp__D3DXLoadSurfaceFromMemory@40 1002d2f0     d3dx9:d3dx9_36.dll
 0002:000002f4       __imp__D3DXCompileShader@40 1002d2f4     d3dx9:d3dx9_36.dll
 0002:000002f8       __imp__D3DXLoadSurfaceFromSurface@32 1002d2f8     d3dx9:d3dx9_36.dll
 0002:000002fc       __imp__D3DXSaveTextureToFileInMemory@16 1002d2fc     d3dx9:d3dx9_36.dll
 0002:00000300       __imp__D3DXSaveTextureToFileA@16 1002d300     d3dx9:d3dx9_36.dll
 0002:00000304       __imp__D3DXCheckTextureRequirements@28 1002d304     d3dx9:d3dx9_36.dll
 0002:00000308       __imp__D3DXCheckVolumeTextureRequirements@32 1002d308     d3dx9:d3dx9_36.dll
 0002:0000030c       __imp__D3DXCheckCubeTextureRequirements@24 1002d30c     d3dx9:d3dx9_36.dll
 0002:00000310       \177d3dx9_36_NULL_THUNK_DATA 1002d310     d3dx9:d3dx9_36.dll
 0002:00000314       ___xc_a                    1002d314     MSVCRT:cinitexe.obj
 0002:00000354       ___xc_z                    1002d354     MSVCRT:cinitexe.obj
 0002:00000358       ___xi_a                    1002d358     MSVCRT:cinitexe.obj
 0002:00000360       ___xi_z                    1002d360     MSVCRT:cinitexe.obj
 0002:000004b8       ??_C@_0BD@OLBABOEK@vector?$DMT?$DO?5too?5long?$AA@ 1002d4b8     OgreD3D9DriverEnum.obj
 0002:000004d0       ??_7length_error@std@@6B@  1002d4d0     OgreD3D9DriverEnum.obj
 0002:000004dc       ??_7logic_error@std@@6B@   1002d4dc     OgreD3D9DriverEnum.obj
 0002:000004e8       ??_7bad_alloc@std@@6B@     1002d4e8     OgreD3D9DriverEnum.obj
 0002:000008a4       ??_7D3D9PixelBufferPool@Ogre@@6B@ 1002d8a4     OgreD3D9HardwarePixelBuffer.obj
 0002:000008c4       ??_7D3D9HardwarePixelBuffer@Ogre@@6B@ 1002d8c4     OgreD3D9HardwarePixelBuffer.obj
 0002:000008d8       ??_7D3D9TextureRenderTarget@Ogre@@6B@ 1002d8d8     OgreD3D9HardwarePixelBuffer.obj
 0002:00000914       ??_7D3D9HardwarePixelBufferManager@Ogre@@6B@ 1002d914     OgreD3D9HardwarePixelBuffer.obj
 0002:00000974       ??_7D3D9Plugin@Ogre@@6B@   1002d974     OgreD3D9Plugin.obj
 0002:00000990       __real@3fe0000000000000    1002d990     OgreD3D9Plugin.obj
 0002:00000dac       ??_7D3D9RenderSystem@Ogre@@6B@ 1002ddac     OgreD3D9RenderSystem.obj
 0002:00000e04       ??_7D3D9HardwareBufferManager@Ogre@@6B@ 1002de04     OgreD3D9RenderSystem.obj
 0002:00000e10       __real@3ff0000000000000    1002de10     OgreD3D9RenderSystem.obj
 0002:00000e1c       ??_7MyShaderInclude@Ogre@@6B@ 1002de1c     OgreD3D9RenderSystem.obj
 0002:00001274       ??_7D3DShaderTechnique@Ogre@@6B@ 1002e274     OgreD3D9ShaderManager.obj
 0002:000012bc       ??_7ShaderTechnique@Ogre@@6B@ 1002e2bc     OgreD3D9ShaderManager.obj
 0002:000012fc       ??_C@_0BE@JONHPENG@map?1set?$DMT?$DO?5too?5long?$AA@ 1002e2fc     OgreD3D9ShaderManager.obj
 0002:00001310       ??_C@_0BM@PAPJHAGI@invalid?5map?1set?$DMT?$DO?5iterator?$AA@ 1002e310     OgreD3D9ShaderManager.obj
 0002:00001330       ??_7out_of_range@std@@6B@  1002e330     OgreD3D9ShaderManager.obj
 0002:00001364       ??_7D3DTech@Ogre@@6B@      1002e364     OgreD3D9Technique.obj
 0002:000015cc       ??_7D3DTech_Back0_lod0@Ogre@@6B@ 1002e5cc     OgreD3D9Technique_Impl.obj
 0002:00001614       ??_C@_04KGFMLCPK@Main?$AA@ 1002e614     OgreD3D9Technique_Impl.obj
 0002:00001624       ??_7D3DTech_Back1_lod0@Ogre@@6B@ 1002e624     OgreD3D9Technique_Impl.obj
 0002:00001674       ??_7D3DTech_Border_lod0@Ogre@@6B@ 1002e674     OgreD3D9Technique_Impl.obj
 0002:000016c4       ??_7D3DTech_Border1_lod0@Ogre@@6B@ 1002e6c4     OgreD3D9Technique_Impl.obj
 0002:0000170c       ??_C@_05JLJDEAAC@Main1?$AA@ 1002e70c     OgreD3D9Technique_Impl.obj
 0002:0000171c       ??_7D3DTech_Overlay_lod0@Ogre@@6B@ 1002e71c     OgreD3D9Technique_Impl.obj
 0002:0000176c       ??_7D3DTech_Particle_lod0@Ogre@@6B@ 1002e76c     OgreD3D9Technique_Impl.obj
 0002:000017bc       ??_7D3DTech_particle_distort@Ogre@@6B@ 1002e7bc     OgreD3D9Technique_Impl.obj
 0002:00001804       ??_C@_07NHKDDLEO@Distort?$AA@ 1002e804     OgreD3D9Technique_Impl.obj
 0002:00001814       ??_7D3DTech_Uvanim_lod0@Ogre@@6B@ 1002e814     OgreD3D9Technique_Impl.obj
 0002:00001864       ??_7D3DTech_Uvanim2Layer_lod0@Ogre@@6B@ 1002e864     OgreD3D9Technique_Impl.obj
 0002:000018b4       ??_7D3DTech_UvanimBlend_lod0@Ogre@@6B@ 1002e8b4     OgreD3D9Technique_Impl.obj
 0002:00001904       ??_7D3DTech_UvanimSelfillum_lod0@Ogre@@6B@ 1002e904     OgreD3D9Technique_Impl.obj
 0002:00001954       ??_7D3DTech_cloth_lod0@Ogre@@6B@ 1002e954     OgreD3D9Technique_Impl.obj
 0002:000019a4       ??_7D3DTech_cloth_shadowgen@Ogre@@6B@ 1002e9a4     OgreD3D9Technique_Impl.obj
 0002:000019ec       ??_C@_09MLKEOPJL@ShadowGen?$AA@ 1002e9ec     OgreD3D9Technique_Impl.obj
 0002:000019fc       ??_7D3DTech_stdmtl_lod0@Ogre@@6B@ 1002e9fc     OgreD3D9Technique_Impl.obj
 0002:00001a4c       ??_7D3DTech_stdmtl_shadowgen@Ogre@@6B@ 1002ea4c     OgreD3D9Technique_Impl.obj
 0002:00001a9c       ??_7D3DTech_terrain_all_lod0@Ogre@@6B@ 1002ea9c     OgreD3D9Technique_Impl.obj
 0002:00001ae4       __real@bf333333            1002eae4     OgreD3D9Technique_Impl.obj
 0002:00001aec       ??_7D3DTech_terrain_colormask_lod0@Ogre@@6B@ 1002eaec     OgreD3D9Technique_Impl.obj
 0002:00001b3c       ??_7D3DTech_general_water_lod0@Ogre@@6B@ 1002eb3c     OgreD3D9Technique_Impl.obj
 0002:00001b8c       ??_7D3DTech_water_reflect_lod0@Ogre@@6B@ 1002eb8c     OgreD3D9Technique_Impl.obj
 0002:00001bdc       ??_7D3DTech_plant_lod0@Ogre@@6B@ 1002ebdc     OgreD3D9Technique_Impl.obj
 0002:00001c2c       ??_7D3DTech_uielement_lod0@Ogre@@6B@ 1002ec2c     OgreD3D9Technique_Impl.obj
 0002:00001c7c       ??_7D3DTech_sky_stdmtl_lod0@Ogre@@6B@ 1002ec7c     OgreD3D9Technique_Impl.obj
 0002:00001ccc       ??_7D3DTech_sky_stdmtl_shadowgen@Ogre@@6B@ 1002eccc     OgreD3D9Technique_Impl.obj
 0002:00001d1c       ??_7D3DTech_decal_lod0@Ogre@@6B@ 1002ed1c     OgreD3D9Technique_Impl.obj
 0002:00001d6c       ??_7D3DTech_decal_distort@Ogre@@6B@ 1002ed6c     OgreD3D9Technique_Impl.obj
 0002:00001dbc       ??_7D3DTech_footprint_lod0@Ogre@@6B@ 1002edbc     OgreD3D9Technique_Impl.obj
 0002:00001e0c       ??_7D3DTech_distort_lod0@Ogre@@6B@ 1002ee0c     OgreD3D9Technique_Impl.obj
 0002:00001e5c       ??_7D3DTech_bloom_lod0@Ogre@@6B@ 1002ee5c     OgreD3D9Technique_Impl.obj
 0002:00001ea4       ??_C@_0N@HHBMEODH@FinalPSBloom?$AA@ 1002eea4     OgreD3D9Technique_Impl.obj
 0002:00001eb4       ??_C@_08MDKPIMGB@BloomPS2?$AA@ 1002eeb4     OgreD3D9Technique_Impl.obj
 0002:00001ec0       ??_C@_08OIICNPKC@BloomPS1?$AA@ 1002eec0     OgreD3D9Technique_Impl.obj
 0002:00001ecc       ??_C@_08LMANELIJ@BrightPS?$AA@ 1002eecc     OgreD3D9Technique_Impl.obj
 0002:00001ed8       ??_C@_0M@BKEJMBLI@DownScenePS?$AA@ 1002eed8     OgreD3D9Technique_Impl.obj
 0002:00001eec       ??_7D3DTech_dirdecal_lod0@Ogre@@6B@ 1002eeec     OgreD3D9Technique_Impl.obj
 0002:00001f3c       ??_7D3DTech_beach_lod0@Ogre@@6B@ 1002ef3c     OgreD3D9Technique_Impl.obj
 0002:00001f8c       ??_7D3DTech_Line_lod0@Ogre@@6B@ 1002ef8c     OgreD3D9Technique_Impl.obj
 0002:00002094       ??_7D3DVertexBufferPool@Ogre@@6B@ 1002f094     OgreD3DHardwareBuffer.obj
 0002:000020b0       ??_7D3D9BufferPool@Ogre@@6B@ 1002f0b0     OgreD3DHardwareBuffer.obj
 0002:000020cc       ??_7D3DIndexBufferPool@Ogre@@6B@ 1002f0cc     OgreD3DHardwareBuffer.obj
 0002:0000285c       ??_7D3DMaterialTemplate@Ogre@@6B@ 1002f85c     OgreD3DMaterialTemplate.obj
 0002:00002874       ??_7D3D9MaterialManager@Ogre@@6B@ 1002f874     OgreD3DMaterialTemplate.obj
 0002:00002ca4       ??_7D3DRenderWindow@Ogre@@6B@ 1002fca4     OgreD3DRenderWindow.obj
 0002:00002cf4       ??_7type_info@@6B@         1002fcf4     MSVCRT:ti_inst.obj
 0002:00002cf8       __pDefaultRawDllMain       1002fcf8     MSVCRT:crtdll.obj
 0002:00002cf8       __pRawDllMain              1002fcf8     MSVCRT:crtdll.obj
 0002:00002d08       __load_config_used         1002fd08     MSVCRT:loadcfg.obj
 0002:00002d94       ??_R4length_error@std@@6B@ 1002fd94     OgreD3D9DriverEnum.obj
 0002:00002da8       ??_R3length_error@std@@8   1002fda8     OgreD3D9DriverEnum.obj
 0002:00002db8       ??_R2length_error@std@@8   1002fdb8     OgreD3D9DriverEnum.obj
 0002:00002dc8       ??_R1A@?0A@EA@length_error@std@@8 1002fdc8     OgreD3D9DriverEnum.obj
 0002:00002de4       ??_R1A@?0A@EA@logic_error@std@@8 1002fde4     OgreD3D9DriverEnum.obj
 0002:00002e00       ??_R3logic_error@std@@8    1002fe00     OgreD3D9DriverEnum.obj
 0002:00002e10       ??_R2logic_error@std@@8    1002fe10     OgreD3D9DriverEnum.obj
 0002:00002e1c       ??_R1A@?0A@EA@exception@std@@8 1002fe1c     OgreD3D9DriverEnum.obj
 0002:00002e38       ??_R3exception@std@@8      1002fe38     OgreD3D9DriverEnum.obj
 0002:00002e48       ??_R2exception@std@@8      1002fe48     OgreD3D9DriverEnum.obj
 0002:00002e50       ??_R4logic_error@std@@6B@  1002fe50     OgreD3D9DriverEnum.obj
 0002:00002e64       ??_R4bad_alloc@std@@6B@    1002fe64     OgreD3D9DriverEnum.obj
 0002:00002e78       ??_R3bad_alloc@std@@8      1002fe78     OgreD3D9DriverEnum.obj
 0002:00002e88       ??_R2bad_alloc@std@@8      1002fe88     OgreD3D9DriverEnum.obj
 0002:00002e94       ??_R1A@?0A@EA@bad_alloc@std@@8 1002fe94     OgreD3D9DriverEnum.obj
 0002:00002eb0       ??_R4D3D9PixelBufferPool@Ogre@@6B@ 1002feb0     OgreD3D9HardwarePixelBuffer.obj
 0002:00002ec4       ??_R3D3D9PixelBufferPool@Ogre@@8 1002fec4     OgreD3D9HardwarePixelBuffer.obj
 0002:00002ed4       ??_R2D3D9PixelBufferPool@Ogre@@8 1002fed4     OgreD3D9HardwarePixelBuffer.obj
 0002:00002ee0       ??_R1A@?0A@EA@D3D9PixelBufferPool@Ogre@@8 1002fee0     OgreD3D9HardwarePixelBuffer.obj
 0002:00002efc       ??_R1A@?0A@EA@HardwarePixelBufferPool@Ogre@@8 1002fefc     OgreD3D9HardwarePixelBuffer.obj
 0002:00002f18       ??_R3HardwarePixelBufferPool@Ogre@@8 1002ff18     OgreD3D9HardwarePixelBuffer.obj
 0002:00002f28       ??_R2HardwarePixelBufferPool@Ogre@@8 1002ff28     OgreD3D9HardwarePixelBuffer.obj
 0002:00002f30       ??_R4D3D9HardwarePixelBuffer@Ogre@@6B@ 1002ff30     OgreD3D9HardwarePixelBuffer.obj
 0002:00002f44       ??_R3D3D9HardwarePixelBuffer@Ogre@@8 1002ff44     OgreD3D9HardwarePixelBuffer.obj
 0002:00002f54       ??_R2D3D9HardwarePixelBuffer@Ogre@@8 1002ff54     OgreD3D9HardwarePixelBuffer.obj
 0002:00002f60       ??_R1A@?0A@EA@D3D9HardwarePixelBuffer@Ogre@@8 1002ff60     OgreD3D9HardwarePixelBuffer.obj
 0002:00002f7c       ??_R1A@?0A@EA@HardwarePixelBuffer@Ogre@@8 1002ff7c     OgreD3D9HardwarePixelBuffer.obj
 0002:00002f98       ??_R3HardwarePixelBuffer@Ogre@@8 1002ff98     OgreD3D9HardwarePixelBuffer.obj
 0002:00002fa8       ??_R2HardwarePixelBuffer@Ogre@@8 1002ffa8     OgreD3D9HardwarePixelBuffer.obj
 0002:00002fb0       ??_R4D3D9TextureRenderTarget@Ogre@@6B@ 1002ffb0     OgreD3D9HardwarePixelBuffer.obj
 0002:00002fc4       ??_R3D3D9TextureRenderTarget@Ogre@@8 1002ffc4     OgreD3D9HardwarePixelBuffer.obj
 0002:00002fd4       ??_R2D3D9TextureRenderTarget@Ogre@@8 1002ffd4     OgreD3D9HardwarePixelBuffer.obj
 0002:00002fec       ??_R1A@?0A@EA@D3D9TextureRenderTarget@Ogre@@8 1002ffec     OgreD3D9HardwarePixelBuffer.obj
 0002:00003008       ??_R1A@?0A@EA@TextureRenderTarget@Ogre@@8 10030008     OgreD3D9HardwarePixelBuffer.obj
 0002:00003024       ??_R3TextureRenderTarget@Ogre@@8 10030024     OgreD3D9HardwarePixelBuffer.obj
 0002:00003034       ??_R2TextureRenderTarget@Ogre@@8 10030034     OgreD3D9HardwarePixelBuffer.obj
 0002:00003048       ??_R1A@?0A@EA@RenderTarget@Ogre@@8 10030048     OgreD3D9HardwarePixelBuffer.obj
 0002:00003064       ??_R3RenderTarget@Ogre@@8  10030064     OgreD3D9HardwarePixelBuffer.obj
 0002:00003074       ??_R2RenderTarget@Ogre@@8  10030074     OgreD3D9HardwarePixelBuffer.obj
 0002:00003084       ??_R1A@?0A@EA@BaseObject@Ogre@@8 10030084     OgreD3D9HardwarePixelBuffer.obj
 0002:000030a0       ??_R3BaseObject@Ogre@@8    100300a0     OgreD3D9HardwarePixelBuffer.obj
 0002:000030b0       ??_R2BaseObject@Ogre@@8    100300b0     OgreD3D9HardwarePixelBuffer.obj
 0002:000030bc       ??_R13?0A@EA@MemoryDelegation@Ogre@@8 100300bc     OgreD3D9HardwarePixelBuffer.obj
 0002:000030d8       ??_R3MemoryDelegation@Ogre@@8 100300d8     OgreD3D9HardwarePixelBuffer.obj
 0002:000030e8       ??_R2MemoryDelegation@Ogre@@8 100300e8     OgreD3D9HardwarePixelBuffer.obj
 0002:000030f0       ??_R1A@?0A@EA@MemoryDelegation@Ogre@@8 100300f0     OgreD3D9HardwarePixelBuffer.obj
 0002:0000310c       ??_R4D3D9HardwarePixelBufferManager@Ogre@@6B@ 1003010c     OgreD3D9HardwarePixelBuffer.obj
 0002:00003120       ??_R3D3D9HardwarePixelBufferManager@Ogre@@8 10030120     OgreD3D9HardwarePixelBuffer.obj
 0002:00003130       ??_R2D3D9HardwarePixelBufferManager@Ogre@@8 10030130     OgreD3D9HardwarePixelBuffer.obj
 0002:00003140       ??_R1A@?0A@EA@D3D9HardwarePixelBufferManager@Ogre@@8 10030140     OgreD3D9HardwarePixelBuffer.obj
 0002:0000315c       ??_R1A@?0A@EA@HardwarePixelBufferManager@Ogre@@8 1003015c     OgreD3D9HardwarePixelBuffer.obj
 0002:00003178       ??_R3HardwarePixelBufferManager@Ogre@@8 10030178     OgreD3D9HardwarePixelBuffer.obj
 0002:00003188       ??_R2HardwarePixelBufferManager@Ogre@@8 10030188     OgreD3D9HardwarePixelBuffer.obj
 0002:00003194       ??_R13?0A@EA@?$Singleton@VHardwarePixelBufferManager@Ogre@@@Ogre@@8 10030194     OgreD3D9HardwarePixelBuffer.obj
 0002:000031b0       ??_R3?$Singleton@VHardwarePixelBufferManager@Ogre@@@Ogre@@8 100301b0     OgreD3D9HardwarePixelBuffer.obj
 0002:000031c0       ??_R2?$Singleton@VHardwarePixelBufferManager@Ogre@@@Ogre@@8 100301c0     OgreD3D9HardwarePixelBuffer.obj
 0002:000031c8       ??_R1A@?0A@EA@?$Singleton@VHardwarePixelBufferManager@Ogre@@@Ogre@@8 100301c8     OgreD3D9HardwarePixelBuffer.obj
 0002:000031e4       ??_R4D3D9Plugin@Ogre@@6B@  100301e4     OgreD3D9Plugin.obj
 0002:000031f8       ??_R3D3D9Plugin@Ogre@@8    100301f8     OgreD3D9Plugin.obj
 0002:00003208       ??_R2D3D9Plugin@Ogre@@8    10030208     OgreD3D9Plugin.obj
 0002:00003214       ??_R1A@?0A@EA@D3D9Plugin@Ogre@@8 10030214     OgreD3D9Plugin.obj
 0002:00003230       ??_R1A@?0A@EA@Plugin@Ogre@@8 10030230     OgreD3D9Plugin.obj
 0002:0000324c       ??_R3Plugin@Ogre@@8        1003024c     OgreD3D9Plugin.obj
 0002:0000325c       ??_R2Plugin@Ogre@@8        1003025c     OgreD3D9Plugin.obj
 0002:00003264       ??_R4D3D9RenderSystem@Ogre@@6B@ 10030264     OgreD3D9RenderSystem.obj
 0002:00003278       ??_R3D3D9RenderSystem@Ogre@@8 10030278     OgreD3D9RenderSystem.obj
 0002:00003288       ??_R2D3D9RenderSystem@Ogre@@8 10030288     OgreD3D9RenderSystem.obj
 0002:00003298       ??_R1A@?0A@EA@D3D9RenderSystem@Ogre@@8 10030298     OgreD3D9RenderSystem.obj
 0002:000032b4       ??_R1A@?0A@EA@RenderSystem@Ogre@@8 100302b4     OgreD3D9RenderSystem.obj
 0002:000032d0       ??_R3RenderSystem@Ogre@@8  100302d0     OgreD3D9RenderSystem.obj
 0002:000032e0       ??_R2RenderSystem@Ogre@@8  100302e0     OgreD3D9RenderSystem.obj
 0002:000032ec       ??_R13?0A@EA@?$Singleton@VRenderSystem@Ogre@@@Ogre@@8 100302ec     OgreD3D9RenderSystem.obj
 0002:00003308       ??_R3?$Singleton@VRenderSystem@Ogre@@@Ogre@@8 10030308     OgreD3D9RenderSystem.obj
 0002:00003318       ??_R2?$Singleton@VRenderSystem@Ogre@@@Ogre@@8 10030318     OgreD3D9RenderSystem.obj
 0002:00003320       ??_R1A@?0A@EA@?$Singleton@VRenderSystem@Ogre@@@Ogre@@8 10030320     OgreD3D9RenderSystem.obj
 0002:0000333c       ??_R4D3D9HardwareBufferManager@Ogre@@6B@ 1003033c     OgreD3D9RenderSystem.obj
 0002:00003350       ??_R3D3D9HardwareBufferManager@Ogre@@8 10030350     OgreD3D9RenderSystem.obj
 0002:00003360       ??_R2D3D9HardwareBufferManager@Ogre@@8 10030360     OgreD3D9RenderSystem.obj
 0002:00003370       ??_R1A@?0A@EA@D3D9HardwareBufferManager@Ogre@@8 10030370     OgreD3D9RenderSystem.obj
 0002:0000338c       ??_R1A@?0A@EA@HardwareBufferManager@Ogre@@8 1003038c     OgreD3D9RenderSystem.obj
 0002:000033a8       ??_R3HardwareBufferManager@Ogre@@8 100303a8     OgreD3D9RenderSystem.obj
 0002:000033b8       ??_R2HardwareBufferManager@Ogre@@8 100303b8     OgreD3D9RenderSystem.obj
 0002:000033c4       ??_R13?0A@EA@?$Singleton@VHardwareBufferManager@Ogre@@@Ogre@@8 100303c4     OgreD3D9RenderSystem.obj
 0002:000033e0       ??_R3?$Singleton@VHardwareBufferManager@Ogre@@@Ogre@@8 100303e0     OgreD3D9RenderSystem.obj
 0002:000033f0       ??_R2?$Singleton@VHardwareBufferManager@Ogre@@@Ogre@@8 100303f0     OgreD3D9RenderSystem.obj
 0002:000033f8       ??_R1A@?0A@EA@?$Singleton@VHardwareBufferManager@Ogre@@@Ogre@@8 100303f8     OgreD3D9RenderSystem.obj
 0002:00003414       ??_R4MyShaderInclude@Ogre@@6B@ 10030414     OgreD3D9RenderSystem.obj
 0002:00003428       ??_R3MyShaderInclude@Ogre@@8 10030428     OgreD3D9RenderSystem.obj
 0002:00003438       ??_R2MyShaderInclude@Ogre@@8 10030438     OgreD3D9RenderSystem.obj
 0002:00003444       ??_R1A@?0A@EA@MyShaderInclude@Ogre@@8 10030444     OgreD3D9RenderSystem.obj
 0002:00003460       ??_R1A@?0A@EA@ID3DXInclude@@8 10030460     OgreD3D9RenderSystem.obj
 0002:0000347c       ??_R3ID3DXInclude@@8       1003047c     OgreD3D9RenderSystem.obj
 0002:0000348c       ??_R2ID3DXInclude@@8       1003048c     OgreD3D9RenderSystem.obj
 0002:00003494       ??_R4D3DShaderTechnique@Ogre@@6B@ 10030494     OgreD3D9ShaderManager.obj
 0002:000034a8       ??_R3D3DShaderTechnique@Ogre@@8 100304a8     OgreD3D9ShaderManager.obj
 0002:000034b8       ??_R2D3DShaderTechnique@Ogre@@8 100304b8     OgreD3D9ShaderManager.obj
 0002:000034c4       ??_R1A@?0A@EA@D3DShaderTechnique@Ogre@@8 100304c4     OgreD3D9ShaderManager.obj
 0002:000034e0       ??_R1A@?0A@EA@ShaderTechnique@Ogre@@8 100304e0     OgreD3D9ShaderManager.obj
 0002:000034fc       ??_R3ShaderTechnique@Ogre@@8 100304fc     OgreD3D9ShaderManager.obj
 0002:0000350c       ??_R2ShaderTechnique@Ogre@@8 1003050c     OgreD3D9ShaderManager.obj
 0002:00003514       ??_R4ShaderTechnique@Ogre@@6B@ 10030514     OgreD3D9ShaderManager.obj
 0002:00003528       ??_R4out_of_range@std@@6B@ 10030528     OgreD3D9ShaderManager.obj
 0002:0000353c       ??_R3out_of_range@std@@8   1003053c     OgreD3D9ShaderManager.obj
 0002:0000354c       ??_R2out_of_range@std@@8   1003054c     OgreD3D9ShaderManager.obj
 0002:0000355c       ??_R1A@?0A@EA@out_of_range@std@@8 1003055c     OgreD3D9ShaderManager.obj
 0002:00003578       ??_R4D3DTech@Ogre@@6B@     10030578     OgreD3D9Technique.obj
 0002:0000358c       ??_R3D3DTech@Ogre@@8       1003058c     OgreD3D9Technique.obj
 0002:0000359c       ??_R2D3DTech@Ogre@@8       1003059c     OgreD3D9Technique.obj
 0002:000035a8       ??_R1A@?0A@EA@D3DTech@Ogre@@8 100305a8     OgreD3D9Technique.obj
 0002:000035c4       ??_R4D3DTech_Back0_lod0@Ogre@@6B@ 100305c4     OgreD3D9Technique_Impl.obj
 0002:000035d8       ??_R3D3DTech_Back0_lod0@Ogre@@8 100305d8     OgreD3D9Technique_Impl.obj
 0002:000035e8       ??_R2D3DTech_Back0_lod0@Ogre@@8 100305e8     OgreD3D9Technique_Impl.obj
 0002:000035f8       ??_R1A@?0A@EA@D3DTech_Back0_lod0@Ogre@@8 100305f8     OgreD3D9Technique_Impl.obj
 0002:00003614       ??_R4D3DTech_Back1_lod0@Ogre@@6B@ 10030614     OgreD3D9Technique_Impl.obj
 0002:00003628       ??_R3D3DTech_Back1_lod0@Ogre@@8 10030628     OgreD3D9Technique_Impl.obj
 0002:00003638       ??_R2D3DTech_Back1_lod0@Ogre@@8 10030638     OgreD3D9Technique_Impl.obj
 0002:00003648       ??_R1A@?0A@EA@D3DTech_Back1_lod0@Ogre@@8 10030648     OgreD3D9Technique_Impl.obj
 0002:00003664       ??_R4D3DTech_Border_lod0@Ogre@@6B@ 10030664     OgreD3D9Technique_Impl.obj
 0002:00003678       ??_R3D3DTech_Border_lod0@Ogre@@8 10030678     OgreD3D9Technique_Impl.obj
 0002:00003688       ??_R2D3DTech_Border_lod0@Ogre@@8 10030688     OgreD3D9Technique_Impl.obj
 0002:00003698       ??_R1A@?0A@EA@D3DTech_Border_lod0@Ogre@@8 10030698     OgreD3D9Technique_Impl.obj
 0002:000036b4       ??_R4D3DTech_Border1_lod0@Ogre@@6B@ 100306b4     OgreD3D9Technique_Impl.obj
 0002:000036c8       ??_R3D3DTech_Border1_lod0@Ogre@@8 100306c8     OgreD3D9Technique_Impl.obj
 0002:000036d8       ??_R2D3DTech_Border1_lod0@Ogre@@8 100306d8     OgreD3D9Technique_Impl.obj
 0002:000036e8       ??_R1A@?0A@EA@D3DTech_Border1_lod0@Ogre@@8 100306e8     OgreD3D9Technique_Impl.obj
 0002:00003704       ??_R4D3DTech_Overlay_lod0@Ogre@@6B@ 10030704     OgreD3D9Technique_Impl.obj
 0002:00003718       ??_R3D3DTech_Overlay_lod0@Ogre@@8 10030718     OgreD3D9Technique_Impl.obj
 0002:00003728       ??_R2D3DTech_Overlay_lod0@Ogre@@8 10030728     OgreD3D9Technique_Impl.obj
 0002:00003738       ??_R1A@?0A@EA@D3DTech_Overlay_lod0@Ogre@@8 10030738     OgreD3D9Technique_Impl.obj
 0002:00003754       ??_R4D3DTech_Particle_lod0@Ogre@@6B@ 10030754     OgreD3D9Technique_Impl.obj
 0002:00003768       ??_R3D3DTech_Particle_lod0@Ogre@@8 10030768     OgreD3D9Technique_Impl.obj
 0002:00003778       ??_R2D3DTech_Particle_lod0@Ogre@@8 10030778     OgreD3D9Technique_Impl.obj
 0002:00003788       ??_R1A@?0A@EA@D3DTech_Particle_lod0@Ogre@@8 10030788     OgreD3D9Technique_Impl.obj
 0002:000037a4       ??_R4D3DTech_particle_distort@Ogre@@6B@ 100307a4     OgreD3D9Technique_Impl.obj
 0002:000037b8       ??_R3D3DTech_particle_distort@Ogre@@8 100307b8     OgreD3D9Technique_Impl.obj
 0002:000037c8       ??_R2D3DTech_particle_distort@Ogre@@8 100307c8     OgreD3D9Technique_Impl.obj
 0002:000037d8       ??_R1A@?0A@EA@D3DTech_particle_distort@Ogre@@8 100307d8     OgreD3D9Technique_Impl.obj
 0002:000037f4       ??_R4D3DTech_Uvanim_lod0@Ogre@@6B@ 100307f4     OgreD3D9Technique_Impl.obj
 0002:00003808       ??_R3D3DTech_Uvanim_lod0@Ogre@@8 10030808     OgreD3D9Technique_Impl.obj
 0002:00003818       ??_R2D3DTech_Uvanim_lod0@Ogre@@8 10030818     OgreD3D9Technique_Impl.obj
 0002:00003828       ??_R1A@?0A@EA@D3DTech_Uvanim_lod0@Ogre@@8 10030828     OgreD3D9Technique_Impl.obj
 0002:00003844       ??_R4D3DTech_Uvanim2Layer_lod0@Ogre@@6B@ 10030844     OgreD3D9Technique_Impl.obj
 0002:00003858       ??_R3D3DTech_Uvanim2Layer_lod0@Ogre@@8 10030858     OgreD3D9Technique_Impl.obj
 0002:00003868       ??_R2D3DTech_Uvanim2Layer_lod0@Ogre@@8 10030868     OgreD3D9Technique_Impl.obj
 0002:00003878       ??_R1A@?0A@EA@D3DTech_Uvanim2Layer_lod0@Ogre@@8 10030878     OgreD3D9Technique_Impl.obj
 0002:00003894       ??_R4D3DTech_UvanimBlend_lod0@Ogre@@6B@ 10030894     OgreD3D9Technique_Impl.obj
 0002:000038a8       ??_R3D3DTech_UvanimBlend_lod0@Ogre@@8 100308a8     OgreD3D9Technique_Impl.obj
 0002:000038b8       ??_R2D3DTech_UvanimBlend_lod0@Ogre@@8 100308b8     OgreD3D9Technique_Impl.obj
 0002:000038c8       ??_R1A@?0A@EA@D3DTech_UvanimBlend_lod0@Ogre@@8 100308c8     OgreD3D9Technique_Impl.obj
 0002:000038e4       ??_R4D3DTech_UvanimSelfillum_lod0@Ogre@@6B@ 100308e4     OgreD3D9Technique_Impl.obj
 0002:000038f8       ??_R3D3DTech_UvanimSelfillum_lod0@Ogre@@8 100308f8     OgreD3D9Technique_Impl.obj
 0002:00003908       ??_R2D3DTech_UvanimSelfillum_lod0@Ogre@@8 10030908     OgreD3D9Technique_Impl.obj
 0002:00003918       ??_R1A@?0A@EA@D3DTech_UvanimSelfillum_lod0@Ogre@@8 10030918     OgreD3D9Technique_Impl.obj
 0002:00003934       ??_R4D3DTech_cloth_lod0@Ogre@@6B@ 10030934     OgreD3D9Technique_Impl.obj
 0002:00003948       ??_R3D3DTech_cloth_lod0@Ogre@@8 10030948     OgreD3D9Technique_Impl.obj
 0002:00003958       ??_R2D3DTech_cloth_lod0@Ogre@@8 10030958     OgreD3D9Technique_Impl.obj
 0002:00003968       ??_R1A@?0A@EA@D3DTech_cloth_lod0@Ogre@@8 10030968     OgreD3D9Technique_Impl.obj
 0002:00003984       ??_R4D3DTech_cloth_shadowgen@Ogre@@6B@ 10030984     OgreD3D9Technique_Impl.obj
 0002:00003998       ??_R3D3DTech_cloth_shadowgen@Ogre@@8 10030998     OgreD3D9Technique_Impl.obj
 0002:000039a8       ??_R2D3DTech_cloth_shadowgen@Ogre@@8 100309a8     OgreD3D9Technique_Impl.obj
 0002:000039b8       ??_R1A@?0A@EA@D3DTech_cloth_shadowgen@Ogre@@8 100309b8     OgreD3D9Technique_Impl.obj
 0002:000039d4       ??_R4D3DTech_stdmtl_lod0@Ogre@@6B@ 100309d4     OgreD3D9Technique_Impl.obj
 0002:000039e8       ??_R3D3DTech_stdmtl_lod0@Ogre@@8 100309e8     OgreD3D9Technique_Impl.obj
 0002:000039f8       ??_R2D3DTech_stdmtl_lod0@Ogre@@8 100309f8     OgreD3D9Technique_Impl.obj
 0002:00003a08       ??_R1A@?0A@EA@D3DTech_stdmtl_lod0@Ogre@@8 10030a08     OgreD3D9Technique_Impl.obj
 0002:00003a24       ??_R4D3DTech_stdmtl_shadowgen@Ogre@@6B@ 10030a24     OgreD3D9Technique_Impl.obj
 0002:00003a38       ??_R3D3DTech_stdmtl_shadowgen@Ogre@@8 10030a38     OgreD3D9Technique_Impl.obj
 0002:00003a48       ??_R2D3DTech_stdmtl_shadowgen@Ogre@@8 10030a48     OgreD3D9Technique_Impl.obj
 0002:00003a58       ??_R1A@?0A@EA@D3DTech_stdmtl_shadowgen@Ogre@@8 10030a58     OgreD3D9Technique_Impl.obj
 0002:00003a74       ??_R4D3DTech_terrain_all_lod0@Ogre@@6B@ 10030a74     OgreD3D9Technique_Impl.obj
 0002:00003a88       ??_R3D3DTech_terrain_all_lod0@Ogre@@8 10030a88     OgreD3D9Technique_Impl.obj
 0002:00003a98       ??_R2D3DTech_terrain_all_lod0@Ogre@@8 10030a98     OgreD3D9Technique_Impl.obj
 0002:00003aa8       ??_R1A@?0A@EA@D3DTech_terrain_all_lod0@Ogre@@8 10030aa8     OgreD3D9Technique_Impl.obj
 0002:00003ac4       ??_R4D3DTech_terrain_colormask_lod0@Ogre@@6B@ 10030ac4     OgreD3D9Technique_Impl.obj
 0002:00003ad8       ??_R3D3DTech_terrain_colormask_lod0@Ogre@@8 10030ad8     OgreD3D9Technique_Impl.obj
 0002:00003ae8       ??_R2D3DTech_terrain_colormask_lod0@Ogre@@8 10030ae8     OgreD3D9Technique_Impl.obj
 0002:00003af8       ??_R1A@?0A@EA@D3DTech_terrain_colormask_lod0@Ogre@@8 10030af8     OgreD3D9Technique_Impl.obj
 0002:00003b14       ??_R4D3DTech_general_water_lod0@Ogre@@6B@ 10030b14     OgreD3D9Technique_Impl.obj
 0002:00003b28       ??_R3D3DTech_general_water_lod0@Ogre@@8 10030b28     OgreD3D9Technique_Impl.obj
 0002:00003b38       ??_R2D3DTech_general_water_lod0@Ogre@@8 10030b38     OgreD3D9Technique_Impl.obj
 0002:00003b48       ??_R1A@?0A@EA@D3DTech_general_water_lod0@Ogre@@8 10030b48     OgreD3D9Technique_Impl.obj
 0002:00003b64       ??_R4D3DTech_water_reflect_lod0@Ogre@@6B@ 10030b64     OgreD3D9Technique_Impl.obj
 0002:00003b78       ??_R3D3DTech_water_reflect_lod0@Ogre@@8 10030b78     OgreD3D9Technique_Impl.obj
 0002:00003b88       ??_R2D3DTech_water_reflect_lod0@Ogre@@8 10030b88     OgreD3D9Technique_Impl.obj
 0002:00003b98       ??_R1A@?0A@EA@D3DTech_water_reflect_lod0@Ogre@@8 10030b98     OgreD3D9Technique_Impl.obj
 0002:00003bb4       ??_R4D3DTech_plant_lod0@Ogre@@6B@ 10030bb4     OgreD3D9Technique_Impl.obj
 0002:00003bc8       ??_R3D3DTech_plant_lod0@Ogre@@8 10030bc8     OgreD3D9Technique_Impl.obj
 0002:00003bd8       ??_R2D3DTech_plant_lod0@Ogre@@8 10030bd8     OgreD3D9Technique_Impl.obj
 0002:00003be8       ??_R1A@?0A@EA@D3DTech_plant_lod0@Ogre@@8 10030be8     OgreD3D9Technique_Impl.obj
 0002:00003c04       ??_R4D3DTech_uielement_lod0@Ogre@@6B@ 10030c04     OgreD3D9Technique_Impl.obj
 0002:00003c18       ??_R3D3DTech_uielement_lod0@Ogre@@8 10030c18     OgreD3D9Technique_Impl.obj
 0002:00003c28       ??_R2D3DTech_uielement_lod0@Ogre@@8 10030c28     OgreD3D9Technique_Impl.obj
 0002:00003c38       ??_R1A@?0A@EA@D3DTech_uielement_lod0@Ogre@@8 10030c38     OgreD3D9Technique_Impl.obj
 0002:00003c54       ??_R4D3DTech_sky_stdmtl_lod0@Ogre@@6B@ 10030c54     OgreD3D9Technique_Impl.obj
 0002:00003c68       ??_R3D3DTech_sky_stdmtl_lod0@Ogre@@8 10030c68     OgreD3D9Technique_Impl.obj
 0002:00003c78       ??_R2D3DTech_sky_stdmtl_lod0@Ogre@@8 10030c78     OgreD3D9Technique_Impl.obj
 0002:00003c88       ??_R1A@?0A@EA@D3DTech_sky_stdmtl_lod0@Ogre@@8 10030c88     OgreD3D9Technique_Impl.obj
 0002:00003ca4       ??_R4D3DTech_sky_stdmtl_shadowgen@Ogre@@6B@ 10030ca4     OgreD3D9Technique_Impl.obj
 0002:00003cb8       ??_R3D3DTech_sky_stdmtl_shadowgen@Ogre@@8 10030cb8     OgreD3D9Technique_Impl.obj
 0002:00003cc8       ??_R2D3DTech_sky_stdmtl_shadowgen@Ogre@@8 10030cc8     OgreD3D9Technique_Impl.obj
 0002:00003cd8       ??_R1A@?0A@EA@D3DTech_sky_stdmtl_shadowgen@Ogre@@8 10030cd8     OgreD3D9Technique_Impl.obj
 0002:00003cf4       ??_R4D3DTech_decal_lod0@Ogre@@6B@ 10030cf4     OgreD3D9Technique_Impl.obj
 0002:00003d08       ??_R3D3DTech_decal_lod0@Ogre@@8 10030d08     OgreD3D9Technique_Impl.obj
 0002:00003d18       ??_R2D3DTech_decal_lod0@Ogre@@8 10030d18     OgreD3D9Technique_Impl.obj
 0002:00003d28       ??_R1A@?0A@EA@D3DTech_decal_lod0@Ogre@@8 10030d28     OgreD3D9Technique_Impl.obj
 0002:00003d44       ??_R4D3DTech_decal_distort@Ogre@@6B@ 10030d44     OgreD3D9Technique_Impl.obj
 0002:00003d58       ??_R3D3DTech_decal_distort@Ogre@@8 10030d58     OgreD3D9Technique_Impl.obj
 0002:00003d68       ??_R2D3DTech_decal_distort@Ogre@@8 10030d68     OgreD3D9Technique_Impl.obj
 0002:00003d78       ??_R1A@?0A@EA@D3DTech_decal_distort@Ogre@@8 10030d78     OgreD3D9Technique_Impl.obj
 0002:00003d94       ??_R4D3DTech_footprint_lod0@Ogre@@6B@ 10030d94     OgreD3D9Technique_Impl.obj
 0002:00003da8       ??_R3D3DTech_footprint_lod0@Ogre@@8 10030da8     OgreD3D9Technique_Impl.obj
 0002:00003db8       ??_R2D3DTech_footprint_lod0@Ogre@@8 10030db8     OgreD3D9Technique_Impl.obj
 0002:00003dc8       ??_R1A@?0A@EA@D3DTech_footprint_lod0@Ogre@@8 10030dc8     OgreD3D9Technique_Impl.obj
 0002:00003de4       ??_R4D3DTech_distort_lod0@Ogre@@6B@ 10030de4     OgreD3D9Technique_Impl.obj
 0002:00003df8       ??_R3D3DTech_distort_lod0@Ogre@@8 10030df8     OgreD3D9Technique_Impl.obj
 0002:00003e08       ??_R2D3DTech_distort_lod0@Ogre@@8 10030e08     OgreD3D9Technique_Impl.obj
 0002:00003e18       ??_R1A@?0A@EA@D3DTech_distort_lod0@Ogre@@8 10030e18     OgreD3D9Technique_Impl.obj
 0002:00003e34       ??_R4D3DTech_bloom_lod0@Ogre@@6B@ 10030e34     OgreD3D9Technique_Impl.obj
 0002:00003e48       ??_R3D3DTech_bloom_lod0@Ogre@@8 10030e48     OgreD3D9Technique_Impl.obj
 0002:00003e58       ??_R2D3DTech_bloom_lod0@Ogre@@8 10030e58     OgreD3D9Technique_Impl.obj
 0002:00003e68       ??_R1A@?0A@EA@D3DTech_bloom_lod0@Ogre@@8 10030e68     OgreD3D9Technique_Impl.obj
 0002:00003e84       ??_R4D3DTech_dirdecal_lod0@Ogre@@6B@ 10030e84     OgreD3D9Technique_Impl.obj
 0002:00003e98       ??_R3D3DTech_dirdecal_lod0@Ogre@@8 10030e98     OgreD3D9Technique_Impl.obj
 0002:00003ea8       ??_R2D3DTech_dirdecal_lod0@Ogre@@8 10030ea8     OgreD3D9Technique_Impl.obj
 0002:00003eb8       ??_R1A@?0A@EA@D3DTech_dirdecal_lod0@Ogre@@8 10030eb8     OgreD3D9Technique_Impl.obj
 0002:00003ed4       ??_R4D3DTech_beach_lod0@Ogre@@6B@ 10030ed4     OgreD3D9Technique_Impl.obj
 0002:00003ee8       ??_R3D3DTech_beach_lod0@Ogre@@8 10030ee8     OgreD3D9Technique_Impl.obj
 0002:00003ef8       ??_R2D3DTech_beach_lod0@Ogre@@8 10030ef8     OgreD3D9Technique_Impl.obj
 0002:00003f08       ??_R1A@?0A@EA@D3DTech_beach_lod0@Ogre@@8 10030f08     OgreD3D9Technique_Impl.obj
 0002:00003f24       ??_R4D3DTech_Line_lod0@Ogre@@6B@ 10030f24     OgreD3D9Technique_Impl.obj
 0002:00003f38       ??_R3D3DTech_Line_lod0@Ogre@@8 10030f38     OgreD3D9Technique_Impl.obj
 0002:00003f48       ??_R2D3DTech_Line_lod0@Ogre@@8 10030f48     OgreD3D9Technique_Impl.obj
 0002:00003f58       ??_R1A@?0A@EA@D3DTech_Line_lod0@Ogre@@8 10030f58     OgreD3D9Technique_Impl.obj
 0002:00003f74       ??_R4D3DVertexBufferPool@Ogre@@6B@ 10030f74     OgreD3DHardwareBuffer.obj
 0002:00003f88       ??_R3D3DVertexBufferPool@Ogre@@8 10030f88     OgreD3DHardwareBuffer.obj
 0002:00003f98       ??_R2D3DVertexBufferPool@Ogre@@8 10030f98     OgreD3DHardwareBuffer.obj
 0002:00003fa8       ??_R1A@?0A@EA@D3DVertexBufferPool@Ogre@@8 10030fa8     OgreD3DHardwareBuffer.obj
 0002:00003fc4       ??_R1A@?0A@EA@D3D9BufferPool@Ogre@@8 10030fc4     OgreD3DHardwareBuffer.obj
 0002:00003fe0       ??_R3D3D9BufferPool@Ogre@@8 10030fe0     OgreD3DHardwareBuffer.obj
 0002:00003ff0       ??_R2D3D9BufferPool@Ogre@@8 10030ff0     OgreD3DHardwareBuffer.obj
 0002:00003ffc       ??_R1A@?0A@EA@HardwareBufferPool@Ogre@@8 10030ffc     OgreD3DHardwareBuffer.obj
 0002:00004018       ??_R3HardwareBufferPool@Ogre@@8 10031018     OgreD3DHardwareBuffer.obj
 0002:00004028       ??_R2HardwareBufferPool@Ogre@@8 10031028     OgreD3DHardwareBuffer.obj
 0002:00004030       ??_R4D3D9BufferPool@Ogre@@6B@ 10031030     OgreD3DHardwareBuffer.obj
 0002:00004044       ??_R4D3DIndexBufferPool@Ogre@@6B@ 10031044     OgreD3DHardwareBuffer.obj
 0002:00004058       ??_R3D3DIndexBufferPool@Ogre@@8 10031058     OgreD3DHardwareBuffer.obj
 0002:00004068       ??_R2D3DIndexBufferPool@Ogre@@8 10031068     OgreD3DHardwareBuffer.obj
 0002:00004078       ??_R1A@?0A@EA@D3DIndexBufferPool@Ogre@@8 10031078     OgreD3DHardwareBuffer.obj
 0002:00004094       ??_R4D3DMaterialTemplate@Ogre@@6B@ 10031094     OgreD3DMaterialTemplate.obj
 0002:000040a8       ??_R3D3DMaterialTemplate@Ogre@@8 100310a8     OgreD3DMaterialTemplate.obj
 0002:000040b8       ??_R2D3DMaterialTemplate@Ogre@@8 100310b8     OgreD3DMaterialTemplate.obj
 0002:000040c4       ??_R1A@?0A@EA@D3DMaterialTemplate@Ogre@@8 100310c4     OgreD3DMaterialTemplate.obj
 0002:000040e0       ??_R1A@?0A@EA@MaterialTemplate@Ogre@@8 100310e0     OgreD3DMaterialTemplate.obj
 0002:000040fc       ??_R3MaterialTemplate@Ogre@@8 100310fc     OgreD3DMaterialTemplate.obj
 0002:0000410c       ??_R2MaterialTemplate@Ogre@@8 1003110c     OgreD3DMaterialTemplate.obj
 0002:00004114       ??_R4D3D9MaterialManager@Ogre@@6B@ 10031114     OgreD3DMaterialTemplate.obj
 0002:00004128       ??_R3D3D9MaterialManager@Ogre@@8 10031128     OgreD3DMaterialTemplate.obj
 0002:00004138       ??_R2D3D9MaterialManager@Ogre@@8 10031138     OgreD3DMaterialTemplate.obj
 0002:00004148       ??_R1A@?0A@EA@D3D9MaterialManager@Ogre@@8 10031148     OgreD3DMaterialTemplate.obj
 0002:00004164       ??_R1A@?0A@EA@MaterialManager@Ogre@@8 10031164     OgreD3DMaterialTemplate.obj
 0002:00004180       ??_R3MaterialManager@Ogre@@8 10031180     OgreD3DMaterialTemplate.obj
 0002:00004190       ??_R2MaterialManager@Ogre@@8 10031190     OgreD3DMaterialTemplate.obj
 0002:0000419c       ??_R13?0A@EA@?$Singleton@VMaterialManager@Ogre@@@Ogre@@8 1003119c     OgreD3DMaterialTemplate.obj
 0002:000041b8       ??_R3?$Singleton@VMaterialManager@Ogre@@@Ogre@@8 100311b8     OgreD3DMaterialTemplate.obj
 0002:000041c8       ??_R2?$Singleton@VMaterialManager@Ogre@@@Ogre@@8 100311c8     OgreD3DMaterialTemplate.obj
 0002:000041d0       ??_R1A@?0A@EA@?$Singleton@VMaterialManager@Ogre@@@Ogre@@8 100311d0     OgreD3DMaterialTemplate.obj
 0002:000041ec       ??_R4D3DRenderWindow@Ogre@@6B@ 100311ec     OgreD3DRenderWindow.obj
 0002:00004200       ??_R3D3DRenderWindow@Ogre@@8 10031200     OgreD3DRenderWindow.obj
 0002:00004210       ??_R2D3DRenderWindow@Ogre@@8 10031210     OgreD3DRenderWindow.obj
 0002:00004228       ??_R1A@?0A@EA@D3DRenderWindow@Ogre@@8 10031228     OgreD3DRenderWindow.obj
 0002:00004244       ??_R1A@?0A@EA@RenderWindow@Ogre@@8 10031244     OgreD3DRenderWindow.obj
 0002:00004260       ??_R3RenderWindow@Ogre@@8  10031260     OgreD3DRenderWindow.obj
 0002:00004270       ??_R2RenderWindow@Ogre@@8  10031270     OgreD3DRenderWindow.obj
 0002:00004284       ??_R4type_info@@6B@        10031284     MSVCRT:ti_inst.obj
 0002:00004298       ??_R3type_info@@8          10031298     MSVCRT:ti_inst.obj
 0002:000042a8       ??_R2type_info@@8          100312a8     MSVCRT:ti_inst.obj
 0002:000042b0       ??_R1A@?0A@EA@type_info@@8 100312b0     MSVCRT:ti_inst.obj
 0002:000042d0       ___safe_se_handler_table   100312d0     <linker-defined>
 0002:000044f0       ___rtc_iaa                 100314f0     MSVCRT:_initsect_.obj
 0002:000044f4       ___rtc_izz                 100314f4     MSVCRT:_initsect_.obj
 0002:000044f8       ___rtc_taa                 100314f8     MSVCRT:_initsect_.obj
 0002:000044fc       ___rtc_tzz                 100314fc     MSVCRT:_initsect_.obj
 0002:0000479c       __TI3?AVlength_error@std@@ 1003179c     OgreD3D9DriverEnum.obj
 0002:000047ac       __CTA3?AVlength_error@std@@ 100317ac     OgreD3D9DriverEnum.obj
 0002:000047bc       __CT??_R0?AVlength_error@std@@@8??0length_error@std@@QAE@ABV01@@Z40 100317bc     OgreD3D9DriverEnum.obj
 0002:000047d8       __CT??_R0?AVlogic_error@std@@@8??0logic_error@std@@QAE@ABV01@@Z40 100317d8     OgreD3D9DriverEnum.obj
 0002:000047f4       __CT??_R0?AVexception@std@@@8??0exception@std@@QAE@ABV01@@Z12 100317f4     OgreD3D9DriverEnum.obj
 0002:000049b4       __TI2?AVbad_alloc@std@@    100319b4     OgreD3D9DriverEnum.obj
 0002:000049c4       __CTA2?AVbad_alloc@std@@   100319c4     OgreD3D9DriverEnum.obj
 0002:000049d0       __CT??_R0?AVbad_alloc@std@@@8??0bad_alloc@std@@QAE@ABV01@@Z12 100319d0     OgreD3D9DriverEnum.obj
 0002:00005810       __TI3?AVout_of_range@std@@ 10032810     OgreD3D9ShaderManager.obj
 0002:00005820       __CTA3?AVout_of_range@std@@ 10032820     OgreD3D9ShaderManager.obj
 0002:00005830       __CT??_R0?AVout_of_range@std@@@8??0out_of_range@std@@QAE@ABV01@@Z40 10032830     OgreD3D9ShaderManager.obj
 0002:00006844       __IMPORT_DESCRIPTOR_OgreMain 10033844     OgreMain:OgreMain.dll
 0002:00006858       __IMPORT_DESCRIPTOR_KERNEL32 10033858     kernel32:KERNEL32.dll
 0002:0000686c       __IMPORT_DESCRIPTOR_USER32 1003386c     user32:USER32.dll
 0002:00006880       __IMPORT_DESCRIPTOR_MSVCR90 10033880     MSVCRT:MSVCR90.dll
 0002:00006894       __IMPORT_DESCRIPTOR_MSVCP90 10033894     msvcprt:MSVCP90.dll
 0002:000068a8       __IMPORT_DESCRIPTOR_WINMM  100338a8     Winmm:WINMM.dll
 0002:000068bc       __IMPORT_DESCRIPTOR_d3d9   100338bc     d3d9:d3d9.dll
 0002:000068d0       __IMPORT_DESCRIPTOR_d3dx9_36 100338d0     d3dx9:d3dx9_36.dll
 0002:000068e4       __NULL_IMPORT_DESCRIPTOR   100338e4     OgreMain:OgreMain.dll
 0003:00000004       ??_R0?AVlength_error@std@@@8 10036004     OgreD3D9DriverEnum.obj
 0003:00000024       ??_R0?AVlogic_error@std@@@8 10036024     OgreD3D9DriverEnum.obj
 0003:00000044       ??_R0?AVexception@std@@@8  10036044     OgreD3D9DriverEnum.obj
 0003:00000060       ??_R0?AVbad_alloc@std@@@8  10036060     OgreD3D9DriverEnum.obj
 0003:00000084       ??_R0?AVD3D9PixelBufferPool@Ogre@@@8 10036084     OgreD3D9HardwarePixelBuffer.obj
 0003:000000ac       ??_R0?AVHardwarePixelBufferPool@Ogre@@@8 100360ac     OgreD3D9HardwarePixelBuffer.obj
 0003:000000d8       ??_R0?AVD3D9HardwarePixelBuffer@Ogre@@@8 100360d8     OgreD3D9HardwarePixelBuffer.obj
 0003:00000104       ??_R0?AVHardwarePixelBuffer@Ogre@@@8 10036104     OgreD3D9HardwarePixelBuffer.obj
 0003:0000012c       ??_R0?AVD3D9TextureRenderTarget@Ogre@@@8 1003612c     OgreD3D9HardwarePixelBuffer.obj
 0003:00000158       ??_R0?AVTextureRenderTarget@Ogre@@@8 10036158     OgreD3D9HardwarePixelBuffer.obj
 0003:00000180       ??_R0?AVRenderTarget@Ogre@@@8 10036180     OgreD3D9HardwarePixelBuffer.obj
 0003:000001a0       ??_R0?AVBaseObject@Ogre@@@8 100361a0     OgreD3D9HardwarePixelBuffer.obj
 0003:000001c0       ??_R0?AVMemoryDelegation@Ogre@@@8 100361c0     OgreD3D9HardwarePixelBuffer.obj
 0003:000001e4       ??_R0?AVD3D9HardwarePixelBufferManager@Ogre@@@8 100361e4     OgreD3D9HardwarePixelBuffer.obj
 0003:00000218       ??_R0?AVHardwarePixelBufferManager@Ogre@@@8 10036218     OgreD3D9HardwarePixelBuffer.obj
 0003:00000248       ??_R0?AV?$Singleton@VHardwarePixelBufferManager@Ogre@@@Ogre@@@8 10036248     OgreD3D9HardwarePixelBuffer.obj
 0003:00000290       ??_R0?AVD3D9Plugin@Ogre@@@8 10036290     OgreD3D9Plugin.obj
 0003:000002b0       ??_R0?AVPlugin@Ogre@@@8    100362b0     OgreD3D9Plugin.obj
 0003:000002d0       ??_R0?AVD3D9RenderSystem@Ogre@@@8 100362d0     OgreD3D9RenderSystem.obj
 0003:000002f4       ??_R0?AVRenderSystem@Ogre@@@8 100362f4     OgreD3D9RenderSystem.obj
 0003:00000314       ??_R0?AV?$Singleton@VRenderSystem@Ogre@@@Ogre@@@8 10036314     OgreD3D9RenderSystem.obj
 0003:00000348       ??_R0?AVD3D9HardwareBufferManager@Ogre@@@8 10036348     OgreD3D9RenderSystem.obj
 0003:00000378       ??_R0?AVHardwareBufferManager@Ogre@@@8 10036378     OgreD3D9RenderSystem.obj
 0003:000003a4       ??_R0?AV?$Singleton@VHardwareBufferManager@Ogre@@@Ogre@@@8 100363a4     OgreD3D9RenderSystem.obj
 0003:000003e4       ??_R0?AVMyShaderInclude@Ogre@@@8 100363e4     OgreD3D9RenderSystem.obj
 0003:00000408       ??_R0?AUID3DXInclude@@@8   10036408     OgreD3D9RenderSystem.obj
 0003:000004f0       ??_R0?AVD3DShaderTechnique@Ogre@@@8 100364f0     OgreD3D9ShaderManager.obj
 0003:00000518       ??_R0?AVShaderTechnique@Ogre@@@8 10036518     OgreD3D9ShaderManager.obj
 0003:0000053c       ??_R0?AVout_of_range@std@@@8 1003653c     OgreD3D9ShaderManager.obj
 0003:00000560       ??_R0?AVD3DTech@Ogre@@@8   10036560     OgreD3D9Technique.obj
 0003:00000580       ??_R0?AVD3DTech_Back0_lod0@Ogre@@@8 10036580     OgreD3D9Technique_Impl.obj
 0003:000005a8       ??_R0?AVD3DTech_Back1_lod0@Ogre@@@8 100365a8     OgreD3D9Technique_Impl.obj
 0003:000005d0       ??_R0?AVD3DTech_Border_lod0@Ogre@@@8 100365d0     OgreD3D9Technique_Impl.obj
 0003:000005f8       ??_R0?AVD3DTech_Border1_lod0@Ogre@@@8 100365f8     OgreD3D9Technique_Impl.obj
 0003:00000620       ??_R0?AVD3DTech_Overlay_lod0@Ogre@@@8 10036620     OgreD3D9Technique_Impl.obj
 0003:00000648       ??_R0?AVD3DTech_Particle_lod0@Ogre@@@8 10036648     OgreD3D9Technique_Impl.obj
 0003:00000674       ??_R0?AVD3DTech_particle_distort@Ogre@@@8 10036674     OgreD3D9Technique_Impl.obj
 0003:000006a0       ??_R0?AVD3DTech_Uvanim_lod0@Ogre@@@8 100366a0     OgreD3D9Technique_Impl.obj
 0003:000006c8       ??_R0?AVD3DTech_Uvanim2Layer_lod0@Ogre@@@8 100366c8     OgreD3D9Technique_Impl.obj
 0003:000006f8       ??_R0?AVD3DTech_UvanimBlend_lod0@Ogre@@@8 100366f8     OgreD3D9Technique_Impl.obj
 0003:00000724       ??_R0?AVD3DTech_UvanimSelfillum_lod0@Ogre@@@8 10036724     OgreD3D9Technique_Impl.obj
 0003:00000754       ??_R0?AVD3DTech_cloth_lod0@Ogre@@@8 10036754     OgreD3D9Technique_Impl.obj
 0003:0000077c       ??_R0?AVD3DTech_cloth_shadowgen@Ogre@@@8 1003677c     OgreD3D9Technique_Impl.obj
 0003:000007a8       ??_R0?AVD3DTech_stdmtl_lod0@Ogre@@@8 100367a8     OgreD3D9Technique_Impl.obj
 0003:000007d0       ??_R0?AVD3DTech_stdmtl_shadowgen@Ogre@@@8 100367d0     OgreD3D9Technique_Impl.obj
 0003:000007fc       ??_R0?AVD3DTech_terrain_all_lod0@Ogre@@@8 100367fc     OgreD3D9Technique_Impl.obj
 0003:00000828       ??_R0?AVD3DTech_terrain_colormask_lod0@Ogre@@@8 10036828     OgreD3D9Technique_Impl.obj
 0003:0000085c       ??_R0?AVD3DTech_general_water_lod0@Ogre@@@8 1003685c     OgreD3D9Technique_Impl.obj
 0003:0000088c       ??_R0?AVD3DTech_water_reflect_lod0@Ogre@@@8 1003688c     OgreD3D9Technique_Impl.obj
 0003:000008bc       ??_R0?AVD3DTech_plant_lod0@Ogre@@@8 100368bc     OgreD3D9Technique_Impl.obj
 0003:000008e4       ??_R0?AVD3DTech_uielement_lod0@Ogre@@@8 100368e4     OgreD3D9Technique_Impl.obj
 0003:00000910       ??_R0?AVD3DTech_sky_stdmtl_lod0@Ogre@@@8 10036910     OgreD3D9Technique_Impl.obj
 0003:0000093c       ??_R0?AVD3DTech_sky_stdmtl_shadowgen@Ogre@@@8 1003693c     OgreD3D9Technique_Impl.obj
 0003:0000096c       ??_R0?AVD3DTech_decal_lod0@Ogre@@@8 1003696c     OgreD3D9Technique_Impl.obj
 0003:00000994       ??_R0?AVD3DTech_decal_distort@Ogre@@@8 10036994     OgreD3D9Technique_Impl.obj
 0003:000009c0       ??_R0?AVD3DTech_footprint_lod0@Ogre@@@8 100369c0     OgreD3D9Technique_Impl.obj
 0003:000009ec       ??_R0?AVD3DTech_distort_lod0@Ogre@@@8 100369ec     OgreD3D9Technique_Impl.obj
 0003:00000a14       ??_R0?AVD3DTech_bloom_lod0@Ogre@@@8 10036a14     OgreD3D9Technique_Impl.obj
 0003:00000a3c       ??_R0?AVD3DTech_dirdecal_lod0@Ogre@@@8 10036a3c     OgreD3D9Technique_Impl.obj
 0003:00000a68       ??_R0?AVD3DTech_beach_lod0@Ogre@@@8 10036a68     OgreD3D9Technique_Impl.obj
 0003:00000a90       ??_R0?AVD3DTech_Line_lod0@Ogre@@@8 10036a90     OgreD3D9Technique_Impl.obj
 0003:00000ac8       ??_R0?AVD3DVertexBufferPool@Ogre@@@8 10036ac8     OgreD3DHardwareBuffer.obj
 0003:00000af0       ??_R0?AVD3D9BufferPool@Ogre@@@8 10036af0     OgreD3DHardwareBuffer.obj
 0003:00000b14       ??_R0?AVHardwareBufferPool@Ogre@@@8 10036b14     OgreD3DHardwareBuffer.obj
 0003:00000b3c       ??_R0?AVD3DIndexBufferPool@Ogre@@@8 10036b3c     OgreD3DHardwareBuffer.obj
 0003:00000b68       ??_R0?AVD3DMaterialTemplate@Ogre@@@8 10036b68     OgreD3DMaterialTemplate.obj
 0003:00000b90       ??_R0?AVMaterialTemplate@Ogre@@@8 10036b90     OgreD3DMaterialTemplate.obj
 0003:00000bb4       ??_R0?AVD3D9MaterialManager@Ogre@@@8 10036bb4     OgreD3DMaterialTemplate.obj
 0003:00000bdc       ??_R0?AVMaterialManager@Ogre@@@8 10036bdc     OgreD3DMaterialTemplate.obj
 0003:00000c00       ??_R0?AV?$Singleton@VMaterialManager@Ogre@@@Ogre@@@8 10036c00     OgreD3DMaterialTemplate.obj
 0003:00000c3c       ??_R0?AVD3DRenderWindow@Ogre@@@8 10036c3c     OgreD3DRenderWindow.obj
 0003:00000c60       ??_R0?AVRenderWindow@Ogre@@@8 10036c60     OgreD3DRenderWindow.obj
 0003:00000c80       ___security_cookie         10036c80     MSVCRT:gs_cookie.obj
 0003:00000c84       ___security_cookie_complement 10036c84     MSVCRT:gs_cookie.obj
 0003:00000c88       ??_R0?AVtype_info@@@8      10036c88     MSVCRT:ti_inst.obj
 0003:00000ca0       ___native_dllmain_reason   10036ca0     MSVCRT:natstart.obj
 0003:00000ca4       ___native_vcclrit_reason   10036ca4     MSVCRT:natstart.obj
 0003:00000ca8       ?plugin@Ogre@@3PAVD3D9Plugin@1@A 10036ca8     OgreD3D9EngineDll.obj
 0003:00000cd8       ?ms_MaxLightNum@CompiledShader@Ogre@@2HA 10036cd8     OgreD3D9ShaderManager.obj
 0003:00000cdc       ?ms_MaxSkinNum@CompiledShader@Ogre@@2HA 10036cdc     OgreD3D9ShaderManager.obj
 0003:00000ce0       ?ms_EffectNum@CompiledShader@Ogre@@2HA 10036ce0     OgreD3D9ShaderManager.obj
 0003:00000ce4       ?ms_EffectMemorySize@CompiledShader@Ogre@@2HA 10036ce4     OgreD3D9ShaderManager.obj
 0003:00000ce8       ?ms_StdEffectNum@CompiledShader@Ogre@@2HA 10036ce8     OgreD3D9ShaderManager.obj
 0003:00000cec       ?ms_BorderEffectNum@CompiledShader@Ogre@@2HA 10036cec     OgreD3D9ShaderManager.obj
 0003:00000cf0       ?ms_EffectCompileTime@CompiledShader@Ogre@@2HA 10036cf0     OgreD3D9ShaderManager.obj
 0003:00000cf4       ?ms_VSNum@CompiledShader@Ogre@@2HA 10036cf4     OgreD3D9ShaderManager.obj
 0003:00000cf8       ?ms_VSMemorySize@CompiledShader@Ogre@@2HA 10036cf8     OgreD3D9ShaderManager.obj
 0003:00000cfc       ?ms_StdVSNum@CompiledShader@Ogre@@2HA 10036cfc     OgreD3D9ShaderManager.obj
 0003:00000d00       ?ms_BorderVSNum@CompiledShader@Ogre@@2HA 10036d00     OgreD3D9ShaderManager.obj
 0003:00000d04       ?ms_VSCompileTime@CompiledShader@Ogre@@2HA 10036d04     OgreD3D9ShaderManager.obj
 0003:00000d08       ?ms_PSNum@CompiledShader@Ogre@@2HA 10036d08     OgreD3D9ShaderManager.obj
 0003:00000d0c       ?ms_PSMemorySize@CompiledShader@Ogre@@2HA 10036d0c     OgreD3D9ShaderManager.obj
 0003:00000d10       ?ms_StdPSNum@CompiledShader@Ogre@@2HA 10036d10     OgreD3D9ShaderManager.obj
 0003:00000d14       ?ms_BorderPSNum@CompiledShader@Ogre@@2HA 10036d14     OgreD3D9ShaderManager.obj
 0003:00000d18       ?ms_PSCompileTime@CompiledShader@Ogre@@2HA 10036d18     OgreD3D9ShaderManager.obj
 0003:00000d1c       ?ms_ProcessParamsTime@CompiledShader@Ogre@@2HA 10036d1c     OgreD3D9ShaderManager.obj
 0003:00000d20       ?ms_CacheTechniqueTime@CompiledShader@Ogre@@2HA 10036d20     OgreD3D9ShaderManager.obj
 0003:00000d24       ?ms_CacheParamHandleTime@CompiledShader@Ogre@@2HA 10036d24     OgreD3D9ShaderManager.obj
 0003:00000d30       ?m_pDevice@D3DTech@Ogre@@2PAUIDirect3DDevice9@@A 10036d30     OgreD3D9Technique.obj
 0003:00000d34       ?m_pEffect@D3DTech@Ogre@@2PAUID3DXEffect@@A 10036d34     OgreD3D9Technique.obj
 0003:00000d38       ?ms_pCurVS@D3DTech@Ogre@@2PAUIDirect3DVertexShader9@@A 10036d38     OgreD3D9Technique.obj
 0003:00000d3c       ?ms_pCurPS@D3DTech@Ogre@@2PAUIDirect3DPixelShader9@@A 10036d3c     OgreD3D9Technique.obj
 0003:0000108c       __forceCRTManifestRTM      1003708c     MSVCRT:crtmanifestrtm.obj
 0003:00001090       ?__type_info_root_node@@3U__type_info_node@@A 10037090     MSVCRT:tncleanup.obj
 0003:00001098       __adjust_fdiv              10037098     <common>
 0003:0000109c       ___native_startup_state    1003709c     <common>
 0003:000010a0       ___native_startup_lock     100370a0     <common>
 0003:000010a4       ___dyn_tls_init_callback   100370a4     <common>
 0003:000010a8       ___onexitend               100370a8     <common>
 0003:000010ac       ___onexitbegin             100370ac     <common>

 entry point at        0001:000298d5

 Static symbols

 0001:00000de0       ?ROTATE_LEFT@@YAIII@Z      10001de0 f   Md5.obj
 0001:00000e00       ?F@@YAIIII@Z               10001e00 f   Md5.obj
 0001:000010c0       ?ArkUint82Base16@@YAIPBEIPADI@Z 100020c0 f   Md5.obj
 0001:00001810       ?ColorChannelBits@Ogre@@YAIW4_D3DFORMAT@@@Z 10002810 f   OgreD3D9DriverEnum.obj
 0001:000018d0       ?SortModeCallback@Ogre@@YAHPBX0@Z 100028d0 f   OgreD3D9DriverEnum.obj
 0001:00001c30       ?AlphaChannelBits@Ogre@@YAIW4_D3DFORMAT@@@Z 10002c30 f   OgreD3D9DriverEnum.obj
 0001:00002020       ?DepthBits@Ogre@@YAIW4_D3DFORMAT@@@Z 10003020 f   OgreD3D9DriverEnum.obj
 0001:000020a0       ?StencilBits@Ogre@@YAIW4_D3DFORMAT@@@Z 100030a0 f   OgreD3D9DriverEnum.obj
 0001:00002780       ?GetBestDSFmtAndMSType@Ogre@@YAXAAW4_D3DFORMAT@@AAW4_D3DMULTISAMPLE_TYPE@@PAUD3DDEVCOMBO_T@1@HHH@Z 10003780 f   OgreD3D9DriverEnum.obj
 0001:00002830       ?GetProperDSFmt@Ogre@@YA?AW4_D3DFORMAT@@W4_D3DMULTISAMPLE_TYPE@@PAUD3DDEVCOMBO_T@1@HH@Z 10003830 f   OgreD3D9DriverEnum.obj
 0001:00002960       ?IsConflicted@Ogre@@YA_NW4_D3DMULTISAMPLE_TYPE@@W4_D3DFORMAT@@PAUD3DDEVCOMBO_T@1@@Z 10003960 f   OgreD3D9DriverEnum.obj
 0001:000039dc       __catch$?_Insert_n@?$vector@W4_D3DMULTISAMPLE_TYPE@@V?$allocator@W4_D3DMULTISAMPLE_TYPE@@@std@@@std@@IAEXV?$_Vector_const_iterator@W4_D3DMULTISAMPLE_TYPE@@V?$allocator@W4_D3DMULTISAMPLE_TYPE@@@std@@@2@IABW4_D3DMULTISAMPLE_TYPE@@@Z$0 100049dc f i OgreD3D9DriverEnum.obj
 0001:000039dc       __catch$?_Insert_n@?$vector@W4_D3DFORMAT@@V?$allocator@W4_D3DFORMAT@@@std@@@std@@IAEXV?$_Vector_const_iterator@W4_D3DFORMAT@@V?$allocator@W4_D3DFORMAT@@@std@@@2@IABW4_D3DFORMAT@@@Z$0 100049dc f i OgreD3D9DriverEnum.obj
 0001:000039dc       __catch$?_Insert_n@?$vector@W4VERTPROCESS_T@Ogre@@V?$allocator@W4VERTPROCESS_T@Ogre@@@std@@@std@@IAEXV?$_Vector_const_iterator@W4VERTPROCESS_T@Ogre@@V?$allocator@W4VERTPROCESS_T@Ogre@@@std@@@2@IABW4VERTPROCESS_T@Ogre@@@Z$0 100049dc f i OgreD3D9DriverEnum.obj
 0001:00003b33       __catch$?_Insert_n@?$vector@W4_D3DMULTISAMPLE_TYPE@@V?$allocator@W4_D3DMULTISAMPLE_TYPE@@@std@@@std@@IAEXV?$_Vector_const_iterator@W4_D3DMULTISAMPLE_TYPE@@V?$allocator@W4_D3DMULTISAMPLE_TYPE@@@std@@@2@IABW4_D3DMULTISAMPLE_TYPE@@@Z$2 10004b33 f i OgreD3D9DriverEnum.obj
 0001:00003b33       __catch$?_Insert_n@?$vector@W4VERTPROCESS_T@Ogre@@V?$allocator@W4VERTPROCESS_T@Ogre@@@std@@@std@@IAEXV?$_Vector_const_iterator@W4VERTPROCESS_T@Ogre@@V?$allocator@W4VERTPROCESS_T@Ogre@@@std@@@2@IABW4VERTPROCESS_T@Ogre@@@Z$2 10004b33 f i OgreD3D9DriverEnum.obj
 0001:00003b33       __catch$?_Insert_n@?$vector@W4_D3DFORMAT@@V?$allocator@W4_D3DFORMAT@@@std@@@std@@IAEXV?$_Vector_const_iterator@W4_D3DFORMAT@@V?$allocator@W4_D3DFORMAT@@@std@@@2@IABW4_D3DFORMAT@@@Z$2 10004b33 f i OgreD3D9DriverEnum.obj
 0001:0000407c       __catch$?_Insert_n@?$vector@UD3DSMSCONFLICT_T@Ogre@@V?$allocator@UD3DSMSCONFLICT_T@Ogre@@@std@@@std@@IAEXV?$_Vector_const_iterator@UD3DSMSCONFLICT_T@Ogre@@V?$allocator@UD3DSMSCONFLICT_T@Ogre@@@std@@@2@IABUD3DSMSCONFLICT_T@Ogre@@@Z$0 1000507c f i OgreD3D9DriverEnum.obj
 0001:0000407c       __catch$?_Insert_n@?$vector@U_D3DXMACRO@@V?$allocator@U_D3DXMACRO@@@std@@@std@@IAEXV?$_Vector_const_iterator@U_D3DXMACRO@@V?$allocator@U_D3DXMACRO@@@std@@@2@IABU_D3DXMACRO@@@Z$0 1000507c f i OgreD3D9DriverEnum.obj
 0001:000041d9       __catch$?_Insert_n@?$vector@U_D3DXMACRO@@V?$allocator@U_D3DXMACRO@@@std@@@std@@IAEXV?$_Vector_const_iterator@U_D3DXMACRO@@V?$allocator@U_D3DXMACRO@@@std@@@2@IABU_D3DXMACRO@@@Z$2 100051d9 f i OgreD3D9DriverEnum.obj
 0001:000041d9       __catch$?_Insert_n@?$vector@UD3DSMSCONFLICT_T@Ogre@@V?$allocator@UD3DSMSCONFLICT_T@Ogre@@@std@@@std@@IAEXV?$_Vector_const_iterator@UD3DSMSCONFLICT_T@Ogre@@V?$allocator@UD3DSMSCONFLICT_T@Ogre@@@std@@@2@IABUD3DSMSCONFLICT_T@Ogre@@@Z$2 100051d9 f i OgreD3D9DriverEnum.obj
 0001:0000444c       __catch$?_Insert_n@?$vector@U_D3DDISPLAYMODE@@V?$allocator@U_D3DDISPLAYMODE@@@std@@@std@@IAEXV?$_Vector_const_iterator@U_D3DDISPLAYMODE@@V?$allocator@U_D3DDISPLAYMODE@@@std@@@2@IABU_D3DDISPLAYMODE@@@Z$0 1000544c f i OgreD3D9DriverEnum.obj
 0001:000045b7       __catch$?_Insert_n@?$vector@U_D3DDISPLAYMODE@@V?$allocator@U_D3DDISPLAYMODE@@@std@@@std@@IAEXV?$_Vector_const_iterator@U_D3DDISPLAYMODE@@V?$allocator@U_D3DDISPLAYMODE@@@std@@@2@IABU_D3DDISPLAYMODE@@@Z$2 100055b7 f i OgreD3D9DriverEnum.obj
 0001:00004c04       __catch$??$SafeExecute@V?$PtrScopeGuardImpl@UD3DDEVCOMBO_T@Ogre@@@Ogre@@@ScopeGuardImplBase@Ogre@@KAXAAV?$PtrScopeGuardImpl@UD3DDEVCOMBO_T@Ogre@@@1@@Z$0 10005c04 f i OgreD3D9DriverEnum.obj
 0001:00005245       __catch$??$_Uninit_fill_n@PAW4_D3DFORMAT@@IW41@V?$allocator@W4_D3DFORMAT@@@std@@@std@@YAXPAW4_D3DFORMAT@@IABW41@AAV?$allocator@W4_D3DFORMAT@@@0@U_Nonscalar_ptr_iterator_tag@0@U_Range_checked_iterator_tag@0@@Z$0 10006245 f i OgreD3D9DriverEnum.obj
 0001:00005245       __catch$??$_Uninit_fill_n@PAW4VERTPROCESS_T@Ogre@@IW412@V?$allocator@W4VERTPROCESS_T@Ogre@@@std@@@std@@YAXPAW4VERTPROCESS_T@Ogre@@IABW412@AAV?$allocator@W4VERTPROCESS_T@Ogre@@@0@U_Nonscalar_ptr_iterator_tag@0@U_Range_checked_iterator_tag@0@@Z$0 10006245 f i OgreD3D9DriverEnum.obj
 0001:00005245       __catch$??$_Uninit_fill_n@PAW4_D3DMULTISAMPLE_TYPE@@IW41@V?$allocator@W4_D3DMULTISAMPLE_TYPE@@@std@@@std@@YAXPAW4_D3DMULTISAMPLE_TYPE@@IABW41@AAV?$allocator@W4_D3DMULTISAMPLE_TYPE@@@0@U_Nonscalar_ptr_iterator_tag@0@U_Range_checked_iterator_tag@0@@Z$0 10006245 f i OgreD3D9DriverEnum.obj
 0001:000058d7       __catch$??$_Uninit_copy@PAUD3DSMSCONFLICT_T@Ogre@@PAU12@V?$allocator@UD3DSMSCONFLICT_T@Ogre@@@std@@@std@@YAPAUD3DSMSCONFLICT_T@Ogre@@PAU12@00AAV?$allocator@UD3DSMSCONFLICT_T@Ogre@@@0@U_Nonscalar_ptr_iterator_tag@0@U_Range_checked_iterator_tag@0@@Z$0 100068d7 f i OgreD3D9DriverEnum.obj
 0001:000058d7       __catch$??$_Uninit_copy@PAU_D3DXMACRO@@PAU1@V?$allocator@U_D3DXMACRO@@@std@@@std@@YAPAU_D3DXMACRO@@PAU1@00AAV?$allocator@U_D3DXMACRO@@@0@U_Nonscalar_ptr_iterator_tag@0@U_Range_checked_iterator_tag@0@@Z$0 100068d7 f i OgreD3D9DriverEnum.obj
 0001:00005997       __catch$??$_Uninit_copy@PAW4VERTPROCESS_T@Ogre@@PAW412@V?$allocator@W4VERTPROCESS_T@Ogre@@@std@@@std@@YAPAW4VERTPROCESS_T@Ogre@@PAW412@00AAV?$allocator@W4VERTPROCESS_T@Ogre@@@0@U_Nonscalar_ptr_iterator_tag@0@U_Range_checked_iterator_tag@0@@Z$0 10006997 f i OgreD3D9DriverEnum.obj
 0001:00005997       __catch$??$_Uninit_copy@PAW4_D3DFORMAT@@PAW41@V?$allocator@W4_D3DFORMAT@@@std@@@std@@YAPAW4_D3DFORMAT@@PAW41@00AAV?$allocator@W4_D3DFORMAT@@@0@U_Nonscalar_ptr_iterator_tag@0@U_Range_checked_iterator_tag@0@@Z$0 10006997 f i OgreD3D9DriverEnum.obj
 0001:00005997       __catch$??$_Uninit_copy@PAW4_D3DMULTISAMPLE_TYPE@@PAW41@V?$allocator@W4_D3DMULTISAMPLE_TYPE@@@std@@@std@@YAPAW4_D3DMULTISAMPLE_TYPE@@PAW41@00AAV?$allocator@W4_D3DMULTISAMPLE_TYPE@@@0@U_Nonscalar_ptr_iterator_tag@0@U_Range_checked_iterator_tag@0@@Z$0 10006997 f i OgreD3D9DriverEnum.obj
 0001:00005a57       __catch$??$_Uninit_copy@PAU_D3DDISPLAYMODE@@PAU1@V?$allocator@U_D3DDISPLAYMODE@@@std@@@std@@YAPAU_D3DDISPLAYMODE@@PAU1@00AAV?$allocator@U_D3DDISPLAYMODE@@@0@U_Nonscalar_ptr_iterator_tag@0@U_Range_checked_iterator_tag@0@@Z$0 10006a57 f i OgreD3D9DriverEnum.obj
 0001:00005a57       __catch$??$_Uninit_copy@PATShaderEnvKey@Ogre@@PAT12@V?$allocator@TShaderEnvKey@Ogre@@@std@@@std@@YAPATShaderEnvKey@Ogre@@PAT12@00AAV?$allocator@TShaderEnvKey@Ogre@@@0@U_Nonscalar_ptr_iterator_tag@0@U_Range_checked_iterator_tag@0@@Z$0 10006a57 f i OgreD3D9DriverEnum.obj
 0001:00008911       __catch$?_Insert_n@?$vector@UDSBuffer@D3D9HardwarePixelBufferManager@Ogre@@V?$allocator@UDSBuffer@D3D9HardwarePixelBufferManager@Ogre@@@std@@@std@@IAEXV?$_Vector_const_iterator@UDSBuffer@D3D9HardwarePixelBufferManager@Ogre@@V?$allocator@UDSBuffer@D3D9HardwarePixelBufferManager@Ogre@@@std@@@2@IABUDSBuffer@D3D9HardwarePixelBufferManager@Ogre@@@Z$0 10009911 f i OgreD3D9HardwarePixelBuffer.obj
 0001:00008911       __catch$?_Insert_n@?$vector@URTBuffer@D3D9HardwarePixelBufferManager@Ogre@@V?$allocator@URTBuffer@D3D9HardwarePixelBufferManager@Ogre@@@std@@@std@@IAEXV?$_Vector_const_iterator@URTBuffer@D3D9HardwarePixelBufferManager@Ogre@@V?$allocator@URTBuffer@D3D9HardwarePixelBufferManager@Ogre@@@std@@@2@IABURTBuffer@D3D9HardwarePixelBufferManager@Ogre@@@Z$0 10009911 f i OgreD3D9HardwarePixelBuffer.obj
 0001:00008a97       __catch$?_Insert_n@?$vector@URTBuffer@D3D9HardwarePixelBufferManager@Ogre@@V?$allocator@URTBuffer@D3D9HardwarePixelBufferManager@Ogre@@@std@@@std@@IAEXV?$_Vector_const_iterator@URTBuffer@D3D9HardwarePixelBufferManager@Ogre@@V?$allocator@URTBuffer@D3D9HardwarePixelBufferManager@Ogre@@@std@@@2@IABURTBuffer@D3D9HardwarePixelBufferManager@Ogre@@@Z$2 10009a97 f i OgreD3D9HardwarePixelBuffer.obj
 0001:00008a97       __catch$?_Insert_n@?$vector@UDSBuffer@D3D9HardwarePixelBufferManager@Ogre@@V?$allocator@UDSBuffer@D3D9HardwarePixelBufferManager@Ogre@@@std@@@std@@IAEXV?$_Vector_const_iterator@UDSBuffer@D3D9HardwarePixelBufferManager@Ogre@@V?$allocator@UDSBuffer@D3D9HardwarePixelBufferManager@Ogre@@@std@@@2@IABUDSBuffer@D3D9HardwarePixelBufferManager@Ogre@@@Z$2 10009a97 f i OgreD3D9HardwarePixelBuffer.obj
 0001:000090b5       __catch$??$_Uninit_fill_n@PAURTBuffer@D3D9HardwarePixelBufferManager@Ogre@@IU123@V?$allocator@URTBuffer@D3D9HardwarePixelBufferManager@Ogre@@@std@@@std@@YAXPAURTBuffer@D3D9HardwarePixelBufferManager@Ogre@@IABU123@AAV?$allocator@URTBuffer@D3D9HardwarePixelBufferManager@Ogre@@@0@U_Nonscalar_ptr_iterator_tag@0@U_Range_checked_iterator_tag@0@@Z$0 1000a0b5 f i OgreD3D9HardwarePixelBuffer.obj
 0001:000090b5       __catch$??$_Uninit_fill_n@PAUDSBuffer@D3D9HardwarePixelBufferManager@Ogre@@IU123@V?$allocator@UDSBuffer@D3D9HardwarePixelBufferManager@Ogre@@@std@@@std@@YAXPAUDSBuffer@D3D9HardwarePixelBufferManager@Ogre@@IABU123@AAV?$allocator@UDSBuffer@D3D9HardwarePixelBufferManager@Ogre@@@0@U_Nonscalar_ptr_iterator_tag@0@U_Range_checked_iterator_tag@0@@Z$0 1000a0b5 f i OgreD3D9HardwarePixelBuffer.obj
 0001:000090b5       __catch$??$_Uninit_fill_n@PAUShaderEnv@Ogre@@IU12@V?$allocator@UShaderEnv@Ogre@@@std@@@std@@YAXPAUShaderEnv@Ogre@@IABU12@AAV?$allocator@UShaderEnv@Ogre@@@0@U_Nonscalar_ptr_iterator_tag@0@U_Range_checked_iterator_tag@0@@Z$0 1000a0b5 f i OgreD3D9HardwarePixelBuffer.obj
 0001:00009617       __catch$??$_Uninit_copy@PAURTBuffer@D3D9HardwarePixelBufferManager@Ogre@@PAU123@V?$allocator@URTBuffer@D3D9HardwarePixelBufferManager@Ogre@@@std@@@std@@YAPAURTBuffer@D3D9HardwarePixelBufferManager@Ogre@@PAU123@00AAV?$allocator@URTBuffer@D3D9HardwarePixelBufferManager@Ogre@@@0@U_Nonscalar_ptr_iterator_tag@0@U_Range_checked_iterator_tag@0@@Z$0 1000a617 f i OgreD3D9HardwarePixelBuffer.obj
 0001:00009617       __catch$??$_Uninit_copy@PAUDSBuffer@D3D9HardwarePixelBufferManager@Ogre@@PAU123@V?$allocator@UDSBuffer@D3D9HardwarePixelBufferManager@Ogre@@@std@@@std@@YAPAUDSBuffer@D3D9HardwarePixelBufferManager@Ogre@@PAU123@00AAV?$allocator@UDSBuffer@D3D9HardwarePixelBufferManager@Ogre@@@0@U_Nonscalar_ptr_iterator_tag@0@U_Range_checked_iterator_tag@0@@Z$0 1000a617 f i OgreD3D9HardwarePixelBuffer.obj
 0001:00009617       __catch$??$_Uninit_copy@PAUShaderEnv@Ogre@@PAU12@V?$allocator@UShaderEnv@Ogre@@@std@@@std@@YAPAUShaderEnv@Ogre@@PAU12@00AAV?$allocator@UShaderEnv@Ogre@@@0@U_Nonscalar_ptr_iterator_tag@0@U_Range_checked_iterator_tag@0@@Z$0 1000a617 f i OgreD3D9HardwarePixelBuffer.obj
 0001:0000a4c0       ?ConfirmDeviceHelper@Ogre@@YAHPAU_D3DCAPS9@@W4VERTPROCESS_T@1@W4_D3DFORMAT@@2@Z 1000b4c0 f   OgreD3D9RenderSystem.obj
 0001:0000dd60       ?GetTechniqueAnnotation@Ogre@@YAHPAUID3DXEffect@@PBD1@Z 1000ed60 f   OgreD3D9ShaderManager.obj
 0001:0000ddb0       ?GetAnnotationStr@Ogre@@YAPBDPAUID3DXEffect@@PBD1@Z 1000edb0 f   OgreD3D9ShaderManager.obj
 0001:0000f620       ?Topo2D3DPrim@Ogre@@YA?AW4_D3DPRIMITIVETYPE@@W4PrimitiveType@1@@Z 10010620 f   OgreD3D9ShaderManager.obj
 0001:000110bf       __catch$?_Insert_n@?$vector@UPassDesc@Ogre@@V?$allocator@UPassDesc@Ogre@@@std@@@std@@IAEXV?$_Vector_const_iterator@UPassDesc@Ogre@@V?$allocator@UPassDesc@Ogre@@@std@@@2@IABUPassDesc@Ogre@@@Z$0 100120bf f i OgreD3D9ShaderManager.obj
 0001:0001121d       __catch$?_Insert_n@?$vector@UPassDesc@Ogre@@V?$allocator@UPassDesc@Ogre@@@std@@@std@@IAEXV?$_Vector_const_iterator@UPassDesc@Ogre@@V?$allocator@UPassDesc@Ogre@@@std@@@2@IABUPassDesc@Ogre@@@Z$2 1001221d f i OgreD3D9ShaderManager.obj
 0001:00011554       __catch$?_Insert_n@?$vector@DV?$allocator@D@std@@@std@@IAEXV?$_Vector_const_iterator@DV?$allocator@D@std@@@2@IABD@Z$0 10012554 f i OgreD3D9ShaderManager.obj
 0001:0001168f       __catch$?_Insert_n@?$vector@DV?$allocator@D@std@@@std@@IAEXV?$_Vector_const_iterator@DV?$allocator@D@std@@@2@IABD@Z$2 1001268f f i OgreD3D9ShaderManager.obj
 0001:000119dc       __catch$?_Insert_n@?$vector@TShaderEnvKey@Ogre@@V?$allocator@TShaderEnvKey@Ogre@@@std@@@std@@IAEXV?$_Vector_const_iterator@TShaderEnvKey@Ogre@@V?$allocator@TShaderEnvKey@Ogre@@@std@@@2@IABTShaderEnvKey@Ogre@@@Z$0 100129dc f i OgreD3D9ShaderManager.obj
 0001:00011b47       __catch$?_Insert_n@?$vector@TShaderEnvKey@Ogre@@V?$allocator@TShaderEnvKey@Ogre@@@std@@@std@@IAEXV?$_Vector_const_iterator@TShaderEnvKey@Ogre@@V?$allocator@TShaderEnvKey@Ogre@@@std@@@2@IABTShaderEnvKey@Ogre@@@Z$2 10012b47 f i OgreD3D9ShaderManager.obj
 0001:00012011       __catch$?_Insert_n@?$vector@UPassData@D3DShaderTechnique@Ogre@@V?$allocator@UPassData@D3DShaderTechnique@Ogre@@@std@@@std@@IAEXV?$_Vector_const_iterator@UPassData@D3DShaderTechnique@Ogre@@V?$allocator@UPassData@D3DShaderTechnique@Ogre@@@std@@@2@IABUPassData@D3DShaderTechnique@Ogre@@@Z$0 10013011 f i OgreD3D9ShaderManager.obj
 0001:00012185       __catch$?_Insert_n@?$vector@UPassData@D3DShaderTechnique@Ogre@@V?$allocator@UPassData@D3DShaderTechnique@Ogre@@@std@@@std@@IAEXV?$_Vector_const_iterator@UPassData@D3DShaderTechnique@Ogre@@V?$allocator@UPassData@D3DShaderTechnique@Ogre@@@std@@@2@IABUPassData@D3DShaderTechnique@Ogre@@@Z$2 10013185 f i OgreD3D9ShaderManager.obj
 0001:00013e95       __catch$??$_Uninit_fill_n@PATShaderEnvKey@Ogre@@IT12@V?$allocator@TShaderEnvKey@Ogre@@@std@@@std@@YAXPATShaderEnvKey@Ogre@@IABT12@AAV?$allocator@TShaderEnvKey@Ogre@@@0@U_Nonscalar_ptr_iterator_tag@0@U_Range_checked_iterator_tag@0@@Z$0 10014e95 f i OgreD3D9ShaderManager.obj
 0001:00013e95       __catch$??$_Uninit_fill_n@PAU_D3DDISPLAYMODE@@IU1@V?$allocator@U_D3DDISPLAYMODE@@@std@@@std@@YAXPAU_D3DDISPLAYMODE@@IABU1@AAV?$allocator@U_D3DDISPLAYMODE@@@0@U_Nonscalar_ptr_iterator_tag@0@U_Range_checked_iterator_tag@0@@Z$0 10014e95 f i OgreD3D9ShaderManager.obj
 0001:00013f55       __catch$??$_Uninit_fill_n@PAUD3DSMSCONFLICT_T@Ogre@@IU12@V?$allocator@UD3DSMSCONFLICT_T@Ogre@@@std@@@std@@YAXPAUD3DSMSCONFLICT_T@Ogre@@IABU12@AAV?$allocator@UD3DSMSCONFLICT_T@Ogre@@@0@U_Nonscalar_ptr_iterator_tag@0@U_Range_checked_iterator_tag@0@@Z$0 10014f55 f i OgreD3D9ShaderManager.obj
 0001:00013f55       __catch$??$_Uninit_fill_n@PAU_D3DXMACRO@@IU1@V?$allocator@U_D3DXMACRO@@@std@@@std@@YAXPAU_D3DXMACRO@@IABU1@AAV?$allocator@U_D3DXMACRO@@@0@U_Nonscalar_ptr_iterator_tag@0@U_Range_checked_iterator_tag@0@@Z$0 10014f55 f i OgreD3D9ShaderManager.obj
 0001:00014585       __catch$??$_Uninit_fill_n@PAUPassDesc@Ogre@@IU12@V?$allocator@UPassDesc@Ogre@@@std@@@std@@YAXPAUPassDesc@Ogre@@IABU12@AAV?$allocator@UPassDesc@Ogre@@@0@U_Nonscalar_ptr_iterator_tag@0@U_Range_checked_iterator_tag@0@@Z$0 10015585 f i OgreD3D9ShaderManager.obj
 0001:00014665       __catch$??$_Uninit_fill_n@PAUPassData@D3DShaderTechnique@Ogre@@IU123@V?$allocator@UPassData@D3DShaderTechnique@Ogre@@@std@@@std@@YAXPAUPassData@D3DShaderTechnique@Ogre@@IABU123@AAV?$allocator@UPassData@D3DShaderTechnique@Ogre@@@0@U_Nonscalar_ptr_iterator_tag@0@U_Range_checked_iterator_tag@0@@Z$0 10015665 f i OgreD3D9ShaderManager.obj
 0001:00014da7       __catch$??$_Uninit_copy@PAUPassDesc@Ogre@@PAU12@V?$allocator@UPassDesc@Ogre@@@std@@@std@@YAPAUPassDesc@Ogre@@PAU12@00AAV?$allocator@UPassDesc@Ogre@@@0@U_Nonscalar_ptr_iterator_tag@0@U_Range_checked_iterator_tag@0@@Z$0 10015da7 f i OgreD3D9ShaderManager.obj
 0001:00014ea7       __catch$??$_Uninit_copy@PAUPassData@D3DShaderTechnique@Ogre@@PAU123@V?$allocator@UPassData@D3DShaderTechnique@Ogre@@@std@@@std@@YAPAUPassData@D3DShaderTechnique@Ogre@@PAU123@00AAV?$allocator@UPassData@D3DShaderTechnique@Ogre@@@0@U_Nonscalar_ptr_iterator_tag@0@U_Range_checked_iterator_tag@0@@Z$0 10015ea7 f i OgreD3D9ShaderManager.obj
 0001:00015700       ?Topo2D3DPrim@Ogre@@YA?AW4_D3DPRIMITIVETYPE@@W4PrimitiveType@1@@Z 10016700 f   OgreD3D9Technique.obj
 0001:0001cb30       ?ConvertVertElement@Ogre@@YAXAAU_D3DVERTEXELEMENT9@@ABVVertexElement@1@@Z 1001db30 f   OgreD3D9VertexDecl.obj
 0001:0001cfd0       ?GetLockFlags@Ogre@@YAKW4HardwareBufferLockOpt@1@KI@Z 1001dfd0 f   OgreD3DHardwareBuffer.obj
 0001:00023861       __catch$?_Insert_n@?$vector@UShaderEnv@Ogre@@V?$allocator@UShaderEnv@Ogre@@@std@@@std@@IAEXV?$_Vector_const_iterator@UShaderEnv@Ogre@@V?$allocator@UShaderEnv@Ogre@@@std@@@2@IABUShaderEnv@Ogre@@@Z$0 10024861 f i OgreD3DMaterialTemplate.obj
 0001:000239e7       __catch$?_Insert_n@?$vector@UShaderEnv@Ogre@@V?$allocator@UShaderEnv@Ogre@@@std@@@std@@IAEXV?$_Vector_const_iterator@UShaderEnv@Ogre@@V?$allocator@UShaderEnv@Ogre@@@std@@@2@IABUShaderEnv@Ogre@@@Z$2 100249e7 f i OgreD3DMaterialTemplate.obj
 0001:0002540c       __catch$?_Insert_n@?$vector@PAUD3DDEVICEINFO_T@Ogre@@V?$allocator@PAUD3DDEVICEINFO_T@Ogre@@@std@@@std@@IAEXV?$_Vector_const_iterator@PAUD3DDEVICEINFO_T@Ogre@@V?$allocator@PAUD3DDEVICEINFO_T@Ogre@@@std@@@2@IABQAUD3DDEVICEINFO_T@Ogre@@@Z$0 1002640c f i OgreD3DMaterialTemplate.obj
 0001:0002540c       __catch$?_Insert_n@?$vector@PAVD3D9VertexDecl@Ogre@@V?$allocator@PAVD3D9VertexDecl@Ogre@@@std@@@std@@IAEXV?$_Vector_const_iterator@PAVD3D9VertexDecl@Ogre@@V?$allocator@PAVD3D9VertexDecl@Ogre@@@std@@@2@IABQAVD3D9VertexDecl@Ogre@@@Z$0 1002640c f i OgreD3DMaterialTemplate.obj
 0001:0002540c       __catch$?_Insert_n@?$vector@PAUD3DDEVCOMBO_T@Ogre@@V?$allocator@PAUD3DDEVCOMBO_T@Ogre@@@std@@@std@@IAEXV?$_Vector_const_iterator@PAUD3DDEVCOMBO_T@Ogre@@V?$allocator@PAUD3DDEVCOMBO_T@Ogre@@@std@@@2@IABQAUD3DDEVCOMBO_T@Ogre@@@Z$0 1002640c f i OgreD3DMaterialTemplate.obj
 0001:0002540c       __catch$?_Insert_n@?$vector@PAVCompiledShader@Ogre@@V?$allocator@PAVCompiledShader@Ogre@@@std@@@std@@IAEXV?$_Vector_const_iterator@PAVCompiledShader@Ogre@@V?$allocator@PAVCompiledShader@Ogre@@@std@@@2@IABQAVCompiledShader@Ogre@@@Z$0 1002640c f i OgreD3DMaterialTemplate.obj
 0001:0002540c       __catch$?_Insert_n@?$vector@PAVD3D9TextureRenderTarget@Ogre@@V?$allocator@PAVD3D9TextureRenderTarget@Ogre@@@std@@@std@@IAEXV?$_Vector_const_iterator@PAVD3D9TextureRenderTarget@Ogre@@V?$allocator@PAVD3D9TextureRenderTarget@Ogre@@@std@@@2@IABQAVD3D9TextureRenderTarget@Ogre@@@Z$0 1002640c f i OgreD3DMaterialTemplate.obj
 0001:0002540c       __catch$?_Insert_n@?$vector@PAVD3DRenderWindow@Ogre@@V?$allocator@PAVD3DRenderWindow@Ogre@@@std@@@std@@IAEXV?$_Vector_const_iterator@PAVD3DRenderWindow@Ogre@@V?$allocator@PAVD3DRenderWindow@Ogre@@@std@@@2@IABQAVD3DRenderWindow@Ogre@@@Z$0 1002640c f i OgreD3DMaterialTemplate.obj
 0001:0002540c       __catch$?_Insert_n@?$vector@PAUD3DADAPTER_T@Ogre@@V?$allocator@PAUD3DADAPTER_T@Ogre@@@std@@@std@@IAEXV?$_Vector_const_iterator@PAUD3DADAPTER_T@Ogre@@V?$allocator@PAUD3DADAPTER_T@Ogre@@@std@@@2@IABQAUD3DADAPTER_T@Ogre@@@Z$0 1002640c f i OgreD3DMaterialTemplate.obj
 0001:0002540c       __catch$?_Insert_n@?$vector@PAUTechniqueDesc@Ogre@@V?$allocator@PAUTechniqueDesc@Ogre@@@std@@@std@@IAEXV?$_Vector_const_iterator@PAUTechniqueDesc@Ogre@@V?$allocator@PAUTechniqueDesc@Ogre@@@std@@@2@IABQAUTechniqueDesc@Ogre@@@Z$0 1002640c f i OgreD3DMaterialTemplate.obj
 0001:0002540c       __catch$?_Insert_n@?$vector@PAUTechCache@D3DMaterialTemplate@Ogre@@V?$allocator@PAUTechCache@D3DMaterialTemplate@Ogre@@@std@@@std@@IAEXV?$_Vector_const_iterator@PAUTechCache@D3DMaterialTemplate@Ogre@@V?$allocator@PAUTechCache@D3DMaterialTemplate@Ogre@@@std@@@2@IABQAUTechCache@D3DMaterialTemplate@Ogre@@@Z$0 1002640c f i OgreD3DMaterialTemplate.obj
 0001:0002540c       __catch$?_Insert_n@?$vector@IV?$allocator@I@std@@@std@@IAEXV?$_Vector_const_iterator@IV?$allocator@I@std@@@2@IABI@Z$0 1002640c f i OgreD3DMaterialTemplate.obj
 0001:00025563       __catch$?_Insert_n@?$vector@PAUTechniqueDesc@Ogre@@V?$allocator@PAUTechniqueDesc@Ogre@@@std@@@std@@IAEXV?$_Vector_const_iterator@PAUTechniqueDesc@Ogre@@V?$allocator@PAUTechniqueDesc@Ogre@@@std@@@2@IABQAUTechniqueDesc@Ogre@@@Z$2 10026563 f i OgreD3DMaterialTemplate.obj
 0001:00025563       __catch$?_Insert_n@?$vector@IV?$allocator@I@std@@@std@@IAEXV?$_Vector_const_iterator@IV?$allocator@I@std@@@2@IABI@Z$2 10026563 f i OgreD3DMaterialTemplate.obj
 0001:00025563       __catch$?_Insert_n@?$vector@PAUD3DDEVCOMBO_T@Ogre@@V?$allocator@PAUD3DDEVCOMBO_T@Ogre@@@std@@@std@@IAEXV?$_Vector_const_iterator@PAUD3DDEVCOMBO_T@Ogre@@V?$allocator@PAUD3DDEVCOMBO_T@Ogre@@@std@@@2@IABQAUD3DDEVCOMBO_T@Ogre@@@Z$2 10026563 f i OgreD3DMaterialTemplate.obj
 0001:00025563       __catch$?_Insert_n@?$vector@PAVD3DRenderWindow@Ogre@@V?$allocator@PAVD3DRenderWindow@Ogre@@@std@@@std@@IAEXV?$_Vector_const_iterator@PAVD3DRenderWindow@Ogre@@V?$allocator@PAVD3DRenderWindow@Ogre@@@std@@@2@IABQAVD3DRenderWindow@Ogre@@@Z$2 10026563 f i OgreD3DMaterialTemplate.obj
 0001:00025563       __catch$?_Insert_n@?$vector@PAVCompiledShader@Ogre@@V?$allocator@PAVCompiledShader@Ogre@@@std@@@std@@IAEXV?$_Vector_const_iterator@PAVCompiledShader@Ogre@@V?$allocator@PAVCompiledShader@Ogre@@@std@@@2@IABQAVCompiledShader@Ogre@@@Z$2 10026563 f i OgreD3DMaterialTemplate.obj
 0001:00025563       __catch$?_Insert_n@?$vector@PAUD3DADAPTER_T@Ogre@@V?$allocator@PAUD3DADAPTER_T@Ogre@@@std@@@std@@IAEXV?$_Vector_const_iterator@PAUD3DADAPTER_T@Ogre@@V?$allocator@PAUD3DADAPTER_T@Ogre@@@std@@@2@IABQAUD3DADAPTER_T@Ogre@@@Z$2 10026563 f i OgreD3DMaterialTemplate.obj
 0001:00025563       __catch$?_Insert_n@?$vector@PAVD3D9VertexDecl@Ogre@@V?$allocator@PAVD3D9VertexDecl@Ogre@@@std@@@std@@IAEXV?$_Vector_const_iterator@PAVD3D9VertexDecl@Ogre@@V?$allocator@PAVD3D9VertexDecl@Ogre@@@std@@@2@IABQAVD3D9VertexDecl@Ogre@@@Z$2 10026563 f i OgreD3DMaterialTemplate.obj
 0001:00025563       __catch$?_Insert_n@?$vector@PAVD3D9TextureRenderTarget@Ogre@@V?$allocator@PAVD3D9TextureRenderTarget@Ogre@@@std@@@std@@IAEXV?$_Vector_const_iterator@PAVD3D9TextureRenderTarget@Ogre@@V?$allocator@PAVD3D9TextureRenderTarget@Ogre@@@std@@@2@IABQAVD3D9TextureRenderTarget@Ogre@@@Z$2 10026563 f i OgreD3DMaterialTemplate.obj
 0001:00025563       __catch$?_Insert_n@?$vector@PAUD3DDEVICEINFO_T@Ogre@@V?$allocator@PAUD3DDEVICEINFO_T@Ogre@@@std@@@std@@IAEXV?$_Vector_const_iterator@PAUD3DDEVICEINFO_T@Ogre@@V?$allocator@PAUD3DDEVICEINFO_T@Ogre@@@std@@@2@IABQAUD3DDEVICEINFO_T@Ogre@@@Z$2 10026563 f i OgreD3DMaterialTemplate.obj
 0001:00025563       __catch$?_Insert_n@?$vector@PAUTechCache@D3DMaterialTemplate@Ogre@@V?$allocator@PAUTechCache@D3DMaterialTemplate@Ogre@@@std@@@std@@IAEXV?$_Vector_const_iterator@PAUTechCache@D3DMaterialTemplate@Ogre@@V?$allocator@PAUTechCache@D3DMaterialTemplate@Ogre@@@std@@@2@IABQAUTechCache@D3DMaterialTemplate@Ogre@@@Z$2 10026563 f i OgreD3DMaterialTemplate.obj
 0001:00025b4a       __catch$?_Buynode@?$_Tree@V?$_Tmap_traits@TShaderEnvKey@Ogre@@PAVD3DTech@2@U?$less@TShaderEnvKey@Ogre@@@std@@V?$allocator@U?$pair@$$CBTShaderEnvKey@Ogre@@PAVD3DTech@2@@std@@@5@$0A@@std@@@std@@IAEPAU_Node@?$_Tree_nod@V?$_Tmap_traits@TShaderEnvKey@Ogre@@PAVD3DTech@2@U?$less@TShaderEnvKey@Ogre@@@std@@V?$allocator@U?$pair@$$CBTShaderEnvKey@Ogre@@PAVD3DTech@2@@std@@@5@$0A@@std@@@2@XZ$0 10026b4a f i OgreD3DMaterialTemplate.obj
 0001:00025b4a       __catch$?_Buynode@?$_Tree@V?$_Tmap_traits@TShaderEnvKey@Ogre@@PAVCompiledShader@2@U?$less@TShaderEnvKey@Ogre@@@std@@V?$allocator@U?$pair@$$CBTShaderEnvKey@Ogre@@PAVCompiledShader@2@@std@@@5@$0A@@std@@@std@@IAEPAU_Node@?$_Tree_nod@V?$_Tmap_traits@TShaderEnvKey@Ogre@@PAVCompiledShader@2@U?$less@TShaderEnvKey@Ogre@@@std@@V?$allocator@U?$pair@$$CBTShaderEnvKey@Ogre@@PAVCompiledShader@2@@std@@@5@$0A@@std@@@2@XZ$0 10026b4a f i OgreD3DMaterialTemplate.obj
 0001:00025c86       __catch$?_Buynode@?$_Tree@V?$_Tmap_traits@TShaderEnvKey@Ogre@@PAVD3DTech@2@U?$less@TShaderEnvKey@Ogre@@@std@@V?$allocator@U?$pair@$$CBTShaderEnvKey@Ogre@@PAVD3DTech@2@@std@@@5@$0A@@std@@@std@@IAEPAU_Node@?$_Tree_nod@V?$_Tmap_traits@TShaderEnvKey@Ogre@@PAVD3DTech@2@U?$less@TShaderEnvKey@Ogre@@@std@@V?$allocator@U?$pair@$$CBTShaderEnvKey@Ogre@@PAVD3DTech@2@@std@@@5@$0A@@std@@@2@PAU342@00ABU?$pair@$$CBTShaderEnvKey@Ogre@@PAVD3DTech@2@@2@D@Z$0 10026c86 f i OgreD3DMaterialTemplate.obj
 0001:00025c86       __catch$?_Buynode@?$_Tree@V?$_Tmap_traits@TShaderEnvKey@Ogre@@PAVCompiledShader@2@U?$less@TShaderEnvKey@Ogre@@@std@@V?$allocator@U?$pair@$$CBTShaderEnvKey@Ogre@@PAVCompiledShader@2@@std@@@5@$0A@@std@@@std@@IAEPAU_Node@?$_Tree_nod@V?$_Tmap_traits@TShaderEnvKey@Ogre@@PAVCompiledShader@2@U?$less@TShaderEnvKey@Ogre@@@std@@V?$allocator@U?$pair@$$CBTShaderEnvKey@Ogre@@PAVCompiledShader@2@@std@@@5@$0A@@std@@@2@PAU342@00ABU?$pair@$$CBTShaderEnvKey@Ogre@@PAVCompiledShader@2@@2@D@Z$0 10026c86 f i OgreD3DMaterialTemplate.obj
 0001:0002688a       __catch$?_Buynode@?$_Tree@V?$_Tmap_traits@VFixedString@Ogre@@PAVCompiledShaderGroup@2@U?$less@VFixedString@Ogre@@@std@@V?$allocator@U?$pair@$$CBVFixedString@Ogre@@PAVCompiledShaderGroup@2@@std@@@5@$0A@@std@@@std@@IAEPAU_Node@?$_Tree_nod@V?$_Tmap_traits@VFixedString@Ogre@@PAVCompiledShaderGroup@2@U?$less@VFixedString@Ogre@@@std@@V?$allocator@U?$pair@$$CBVFixedString@Ogre@@PAVCompiledShaderGroup@2@@std@@@5@$0A@@std@@@2@XZ$0 1002788a f i OgreD3DMaterialTemplate.obj
 0001:000269c6       __catch$?_Buynode@?$_Tree@V?$_Tmap_traits@VFixedString@Ogre@@PAVCompiledShaderGroup@2@U?$less@VFixedString@Ogre@@@std@@V?$allocator@U?$pair@$$CBVFixedString@Ogre@@PAVCompiledShaderGroup@2@@std@@@5@$0A@@std@@@std@@IAEPAU_Node@?$_Tree_nod@V?$_Tmap_traits@VFixedString@Ogre@@PAVCompiledShaderGroup@2@U?$less@VFixedString@Ogre@@@std@@V?$allocator@U?$pair@$$CBVFixedString@Ogre@@PAVCompiledShaderGroup@2@@std@@@5@$0A@@std@@@2@PAU342@00ABU?$pair@$$CBVFixedString@Ogre@@PAVCompiledShaderGroup@2@@2@D@Z$0 100279c6 f i OgreD3DMaterialTemplate.obj
 0001:000275aa       __catch$?_Buynode@?$_Tree@V?$_Tmap_traits@TShaderEnvKey2@Ogre@@PAVD3DShaderTechnique@2@U?$less@TShaderEnvKey2@Ogre@@@std@@V?$allocator@U?$pair@$$CBTShaderEnvKey2@Ogre@@PAVD3DShaderTechnique@2@@std@@@5@$0A@@std@@@std@@IAEPAU_Node@?$_Tree_nod@V?$_Tmap_traits@TShaderEnvKey2@Ogre@@PAVD3DShaderTechnique@2@U?$less@TShaderEnvKey2@Ogre@@@std@@V?$allocator@U?$pair@$$CBTShaderEnvKey2@Ogre@@PAVD3DShaderTechnique@2@@std@@@5@$0A@@std@@@2@XZ$0 100285aa f i OgreD3DMaterialTemplate.obj
 0001:000276e6       __catch$?_Buynode@?$_Tree@V?$_Tmap_traits@TShaderEnvKey2@Ogre@@PAVD3DShaderTechnique@2@U?$less@TShaderEnvKey2@Ogre@@@std@@V?$allocator@U?$pair@$$CBTShaderEnvKey2@Ogre@@PAVD3DShaderTechnique@2@@std@@@5@$0A@@std@@@std@@IAEPAU_Node@?$_Tree_nod@V?$_Tmap_traits@TShaderEnvKey2@Ogre@@PAVD3DShaderTechnique@2@U?$less@TShaderEnvKey2@Ogre@@@std@@V?$allocator@U?$pair@$$CBTShaderEnvKey2@Ogre@@PAVD3DShaderTechnique@2@@std@@@5@$0A@@std@@@2@PAU342@00ABU?$pair@$$CBTShaderEnvKey2@Ogre@@PAVD3DShaderTechnique@2@@2@D@Z$0 100286e6 f i OgreD3DMaterialTemplate.obj
 0001:0002954a       _pre_c_init                1002a54a f   MSVCRT:crtdll.obj
 0001:000297bf       ___DllMainCRTStartup       1002a7bf f   MSVCRT:crtdll.obj
 0001:00029e50       __unwindfunclet$??1D3DDEVICEINFO_T@Ogre@@QAE@XZ$0 1002ae50 f   OgreD3D9DriverEnum.obj
 0001:00029e5e       __ehhandler$??1D3DDEVICEINFO_T@Ogre@@QAE@XZ 1002ae5e f   OgreD3D9DriverEnum.obj
 0001:00029e79       __unwindfunclet$??1D3DADAPTER_T@Ogre@@QAE@XZ$0 1002ae79 f   OgreD3D9DriverEnum.obj
 0001:00029e87       __unwindfunclet$??1D3DADAPTER_T@Ogre@@QAE@XZ$1 1002ae87 f   OgreD3D9DriverEnum.obj
 0001:00029e95       __ehhandler$??1D3DADAPTER_T@Ogre@@QAE@XZ 1002ae95 f   OgreD3D9DriverEnum.obj
 0001:00029eb0       __unwindfunclet$??0D3DEnumeration@Ogre@@QAE@XZ$0 1002aeb0 f   OgreD3D9DriverEnum.obj
 0001:00029eb8       __unwindfunclet$??0D3DEnumeration@Ogre@@QAE@XZ$1 1002aeb8 f   OgreD3D9DriverEnum.obj
 0001:00029ec3       __ehhandler$??0D3DEnumeration@Ogre@@QAE@XZ 1002aec3 f   OgreD3D9DriverEnum.obj
 0001:00029ede       __unwindfunclet$??1D3DEnumeration@Ogre@@QAE@XZ$0 1002aede f   OgreD3D9DriverEnum.obj
 0001:00029ee6       __unwindfunclet$??1D3DEnumeration@Ogre@@QAE@XZ$1 1002aee6 f   OgreD3D9DriverEnum.obj
 0001:00029ef1       __ehhandler$??1D3DEnumeration@Ogre@@QAE@XZ 1002aef1 f   OgreD3D9DriverEnum.obj
 0001:00029f0c       __unwindfunclet$?Enumerate@D3DEnumeration@Ogre@@QAEHPAUIDirect3D9@@P6AHPAU_D3DCAPS9@@W4VERTPROCESS_T@2@W4_D3DFORMAT@@3@Z@Z$0 1002af0c f   OgreD3D9DriverEnum.obj
 0001:00029f17       __unwindfunclet$?Enumerate@D3DEnumeration@Ogre@@QAEHPAUIDirect3D9@@P6AHPAU_D3DCAPS9@@W4VERTPROCESS_T@2@W4_D3DFORMAT@@3@Z@Z$1 1002af17 f   OgreD3D9DriverEnum.obj
 0001:00029f1f       __ehhandler$?Enumerate@D3DEnumeration@Ogre@@QAEHPAUIDirect3D9@@P6AHPAU_D3DCAPS9@@W4VERTPROCESS_T@2@W4_D3DFORMAT@@3@Z@Z 1002af1f f   OgreD3D9DriverEnum.obj
 0001:00029f3a       __unwindfunclet$?EnumerateDevices@D3DEnumeration@Ogre@@AAEXPAUD3DADAPTER_T@2@AAV?$vector@W4_D3DFORMAT@@V?$allocator@W4_D3DFORMAT@@@std@@@std@@@Z$0 1002af3a f   OgreD3D9DriverEnum.obj
 0001:00029f45       __ehhandler$?EnumerateDevices@D3DEnumeration@Ogre@@AAEXPAUD3DADAPTER_T@2@AAV?$vector@W4_D3DFORMAT@@V?$allocator@W4_D3DFORMAT@@@std@@@std@@@Z 1002af45 f   OgreD3D9DriverEnum.obj
 0001:00029f60       __unwindfunclet$?ComputeDeviceCombo@D3DEnumeration@Ogre@@AAEPAUD3DDEVCOMBO_T@2@PAUD3DDEVICEINFO_T@2@W4_D3DFORMAT@@1H@Z$0 1002af60 f   OgreD3D9DriverEnum.obj
 0001:00029f6b       __unwindfunclet$?ComputeDeviceCombo@D3DEnumeration@Ogre@@AAEPAUD3DDEVCOMBO_T@2@PAUD3DDEVICEINFO_T@2@W4_D3DFORMAT@@1H@Z$1 1002af6b f   OgreD3D9DriverEnum.obj
 0001:00029f73       __ehhandler$?ComputeDeviceCombo@D3DEnumeration@Ogre@@AAEPAUD3DDEVCOMBO_T@2@PAUD3DDEVICEINFO_T@2@W4_D3DFORMAT@@1H@Z 1002af73 f   OgreD3D9DriverEnum.obj
 0001:00029f90       __unwindfunclet$??0D3DADAPTER_T@Ogre@@QAE@XZ$0 1002af90 f   OgreD3D9DriverEnum.obj
 0001:00029f9e       __unwindfunclet$??0D3DADAPTER_T@Ogre@@QAE@XZ$1 1002af9e f   OgreD3D9DriverEnum.obj
 0001:00029fac       __ehhandler$??0D3DADAPTER_T@Ogre@@QAE@XZ 1002afac f   OgreD3D9DriverEnum.obj
 0001:00029fd0       __unwindfunclet$??0D3DDEVICEINFO_T@Ogre@@QAE@XZ$0 1002afd0 f   OgreD3D9DriverEnum.obj
 0001:00029fde       __ehhandler$??0D3DDEVICEINFO_T@Ogre@@QAE@XZ 1002afde f   OgreD3D9DriverEnum.obj
 0001:0002a000       __unwindfunclet$??0D3DDEVCOMBO_T@Ogre@@QAE@XZ$0 1002b000 f   OgreD3D9DriverEnum.obj
 0001:0002a000       __unwindfunclet$??1D3DDEVCOMBO_T@Ogre@@QAE@XZ$0 1002b000 f   OgreD3D9DriverEnum.obj
 0001:0002a00b       __unwindfunclet$??0D3DDEVCOMBO_T@Ogre@@QAE@XZ$1 1002b00b f   OgreD3D9DriverEnum.obj
 0001:0002a00b       __unwindfunclet$??1D3DDEVCOMBO_T@Ogre@@QAE@XZ$1 1002b00b f   OgreD3D9DriverEnum.obj
 0001:0002a016       __unwindfunclet$??0D3DDEVCOMBO_T@Ogre@@QAE@XZ$2 1002b016 f   OgreD3D9DriverEnum.obj
 0001:0002a016       __unwindfunclet$??1D3DDEVCOMBO_T@Ogre@@QAE@XZ$2 1002b016 f   OgreD3D9DriverEnum.obj
 0001:0002a021       __unwindfunclet$??1D3DDEVCOMBO_T@Ogre@@QAE@XZ$3 1002b021 f   OgreD3D9DriverEnum.obj
 0001:0002a021       __unwindfunclet$??0D3DDEVCOMBO_T@Ogre@@QAE@XZ$3 1002b021 f   OgreD3D9DriverEnum.obj
 0001:0002a02c       __unwindfunclet$??0D3DDEVCOMBO_T@Ogre@@QAE@XZ$4 1002b02c f   OgreD3D9DriverEnum.obj
 0001:0002a02c       __unwindfunclet$??1D3DDEVCOMBO_T@Ogre@@QAE@XZ$4 1002b02c f   OgreD3D9DriverEnum.obj
 0001:0002a037       __unwindfunclet$??1D3DDEVCOMBO_T@Ogre@@QAE@XZ$5 1002b037 f   OgreD3D9DriverEnum.obj
 0001:0002a037       __unwindfunclet$??0D3DDEVCOMBO_T@Ogre@@QAE@XZ$5 1002b037 f   OgreD3D9DriverEnum.obj
 0001:0002a045       __ehhandler$??1D3DDEVCOMBO_T@Ogre@@QAE@XZ 1002b045 f   OgreD3D9DriverEnum.obj
 0001:0002a045       __ehhandler$??0D3DDEVCOMBO_T@Ogre@@QAE@XZ 1002b045 f   OgreD3D9DriverEnum.obj
 0001:0002a060       __ehhandler$?_Insert_n@?$vector@W4_D3DMULTISAMPLE_TYPE@@V?$allocator@W4_D3DMULTISAMPLE_TYPE@@@std@@@std@@IAEXV?$_Vector_const_iterator@W4_D3DMULTISAMPLE_TYPE@@V?$allocator@W4_D3DMULTISAMPLE_TYPE@@@std@@@2@IABW4_D3DMULTISAMPLE_TYPE@@@Z 1002b060 f   OgreD3D9DriverEnum.obj
 0001:0002a060       __ehhandler$?_Insert_n@?$vector@W4VERTPROCESS_T@Ogre@@V?$allocator@W4VERTPROCESS_T@Ogre@@@std@@@std@@IAEXV?$_Vector_const_iterator@W4VERTPROCESS_T@Ogre@@V?$allocator@W4VERTPROCESS_T@Ogre@@@std@@@2@IABW4VERTPROCESS_T@Ogre@@@Z 1002b060 f   OgreD3D9DriverEnum.obj
 0001:0002a060       __ehhandler$?_Insert_n@?$vector@W4_D3DFORMAT@@V?$allocator@W4_D3DFORMAT@@@std@@@std@@IAEXV?$_Vector_const_iterator@W4_D3DFORMAT@@V?$allocator@W4_D3DFORMAT@@@std@@@2@IABW4_D3DFORMAT@@@Z 1002b060 f   OgreD3D9DriverEnum.obj
 0001:0002a080       __unwindfunclet$??0logic_error@std@@QAE@ABV?$basic_string@DU?$char_traits@D@std@@V?$allocator@D@2@@1@@Z$0 1002b080 f   OgreD3D9DriverEnum.obj
 0001:0002a080       __unwindfunclet$??0logic_error@std@@QAE@ABV01@@Z$0 1002b080 f   OgreD3D9DriverEnum.obj
 0001:0002a080       __unwindfunclet$??1logic_error@std@@UAE@XZ$0 1002b080 f   OgreD3D9DriverEnum.obj
 0001:0002a089       __unwindfunclet$??1logic_error@std@@UAE@XZ$1 1002b089 f   OgreD3D9DriverEnum.obj
 0001:0002a089       __unwindfunclet$??0logic_error@std@@QAE@ABV01@@Z$1 1002b089 f   OgreD3D9DriverEnum.obj
 0001:0002a089       __unwindfunclet$??0logic_error@std@@QAE@ABV?$basic_string@DU?$char_traits@D@std@@V?$allocator@D@2@@1@@Z$1 1002b089 f   OgreD3D9DriverEnum.obj
 0001:0002a095       __ehhandler$??1logic_error@std@@UAE@XZ 1002b095 f   OgreD3D9DriverEnum.obj
 0001:0002a095       __ehhandler$??0logic_error@std@@QAE@ABV?$basic_string@DU?$char_traits@D@std@@V?$allocator@D@2@@1@@Z 1002b095 f   OgreD3D9DriverEnum.obj
 0001:0002a095       __ehhandler$??0logic_error@std@@QAE@ABV01@@Z 1002b095 f   OgreD3D9DriverEnum.obj
 0001:0002a0b0       __ehhandler$?_Insert_n@?$vector@U_D3DXMACRO@@V?$allocator@U_D3DXMACRO@@@std@@@std@@IAEXV?$_Vector_const_iterator@U_D3DXMACRO@@V?$allocator@U_D3DXMACRO@@@std@@@2@IABU_D3DXMACRO@@@Z 1002b0b0 f   OgreD3D9DriverEnum.obj
 0001:0002a0b0       __ehhandler$?_Insert_n@?$vector@UD3DSMSCONFLICT_T@Ogre@@V?$allocator@UD3DSMSCONFLICT_T@Ogre@@@std@@@std@@IAEXV?$_Vector_const_iterator@UD3DSMSCONFLICT_T@Ogre@@V?$allocator@UD3DSMSCONFLICT_T@Ogre@@@std@@@2@IABUD3DSMSCONFLICT_T@Ogre@@@Z 1002b0b0 f   OgreD3D9DriverEnum.obj
 0001:0002a0d0       __ehhandler$?_Insert_n@?$vector@U_D3DDISPLAYMODE@@V?$allocator@U_D3DDISPLAYMODE@@@std@@@std@@IAEXV?$_Vector_const_iterator@U_D3DDISPLAYMODE@@V?$allocator@U_D3DDISPLAYMODE@@@std@@@2@IABU_D3DDISPLAYMODE@@@Z 1002b0d0 f   OgreD3D9DriverEnum.obj
 0001:0002a0f0       __ehhandler$??$SafeExecute@V?$PtrScopeGuardImpl@UD3DDEVCOMBO_T@Ogre@@@Ogre@@@ScopeGuardImplBase@Ogre@@KAXAAV?$PtrScopeGuardImpl@UD3DDEVCOMBO_T@Ogre@@@1@@Z 1002b0f0 f   OgreD3D9DriverEnum.obj
 0001:0002a110       __unwindfunclet$??0bad_alloc@std@@QAE@ABV01@@Z$0 1002b110 f   OgreD3D9DriverEnum.obj
 0001:0002a110       __unwindfunclet$??0bad_alloc@std@@QAE@PBD@Z$0 1002b110 f   OgreD3D9DriverEnum.obj
 0001:0002a110       __unwindfunclet$??1bad_alloc@std@@UAE@XZ$0 1002b110 f   OgreD3D9DriverEnum.obj
 0001:0002a119       __ehhandler$??0bad_alloc@std@@QAE@ABV01@@Z 1002b119 f   OgreD3D9DriverEnum.obj
 0001:0002a119       __ehhandler$??0bad_alloc@std@@QAE@PBD@Z 1002b119 f   OgreD3D9DriverEnum.obj
 0001:0002a119       __ehhandler$??1bad_alloc@std@@UAE@XZ 1002b119 f   OgreD3D9DriverEnum.obj
 0001:0002a140       __unwindfunclet$??$MakePtrGuard@UD3DDEVCOMBO_T@Ogre@@@Ogre@@YA?AV?$PtrScopeGuardImpl@UD3DDEVCOMBO_T@Ogre@@@0@PAUD3DDEVCOMBO_T@0@@Z$0 1002b140 f   OgreD3D9DriverEnum.obj
 0001:0002a140       __unwindfunclet$?MakePtrGuard@?$PtrScopeGuardImpl@UD3DDEVCOMBO_T@Ogre@@@Ogre@@SA?AV12@PAUD3DDEVCOMBO_T@2@@Z$0 1002b140 f   OgreD3D9DriverEnum.obj
 0001:0002a159       __ehhandler$??$MakePtrGuard@UD3DDEVCOMBO_T@Ogre@@@Ogre@@YA?AV?$PtrScopeGuardImpl@UD3DDEVCOMBO_T@Ogre@@@0@PAUD3DDEVCOMBO_T@0@@Z 1002b159 f   OgreD3D9DriverEnum.obj
 0001:0002a159       __ehhandler$?MakePtrGuard@?$PtrScopeGuardImpl@UD3DDEVCOMBO_T@Ogre@@@Ogre@@SA?AV12@PAUD3DDEVCOMBO_T@2@@Z 1002b159 f   OgreD3D9DriverEnum.obj
 0001:0002a180       __ehhandler$??$_Uninit_fill_n@PAW4_D3DFORMAT@@IW41@V?$allocator@W4_D3DFORMAT@@@std@@@std@@YAXPAW4_D3DFORMAT@@IABW41@AAV?$allocator@W4_D3DFORMAT@@@0@U_Nonscalar_ptr_iterator_tag@0@U_Range_checked_iterator_tag@0@@Z 1002b180 f   OgreD3D9DriverEnum.obj
 0001:0002a180       __ehhandler$??$_Uninit_fill_n@PAW4VERTPROCESS_T@Ogre@@IW412@V?$allocator@W4VERTPROCESS_T@Ogre@@@std@@@std@@YAXPAW4VERTPROCESS_T@Ogre@@IABW412@AAV?$allocator@W4VERTPROCESS_T@Ogre@@@0@U_Nonscalar_ptr_iterator_tag@0@U_Range_checked_iterator_tag@0@@Z 1002b180 f   OgreD3D9DriverEnum.obj
 0001:0002a180       __ehhandler$??$_Uninit_fill_n@PAW4_D3DMULTISAMPLE_TYPE@@IW41@V?$allocator@W4_D3DMULTISAMPLE_TYPE@@@std@@@std@@YAXPAW4_D3DMULTISAMPLE_TYPE@@IABW41@AAV?$allocator@W4_D3DMULTISAMPLE_TYPE@@@0@U_Nonscalar_ptr_iterator_tag@0@U_Range_checked_iterator_tag@0@@Z 1002b180 f   OgreD3D9DriverEnum.obj
 0001:0002a1a0       __ehhandler$??$_Uninit_copy@PAUD3DSMSCONFLICT_T@Ogre@@PAU12@V?$allocator@UD3DSMSCONFLICT_T@Ogre@@@std@@@std@@YAPAUD3DSMSCONFLICT_T@Ogre@@PAU12@00AAV?$allocator@UD3DSMSCONFLICT_T@Ogre@@@0@U_Nonscalar_ptr_iterator_tag@0@U_Range_checked_iterator_tag@0@@Z 1002b1a0 f   OgreD3D9DriverEnum.obj
 0001:0002a1a0       __ehhandler$??$_Uninit_copy@PAU_D3DXMACRO@@PAU1@V?$allocator@U_D3DXMACRO@@@std@@@std@@YAPAU_D3DXMACRO@@PAU1@00AAV?$allocator@U_D3DXMACRO@@@0@U_Nonscalar_ptr_iterator_tag@0@U_Range_checked_iterator_tag@0@@Z 1002b1a0 f   OgreD3D9DriverEnum.obj
 0001:0002a1c0       __ehhandler$??$_Uninit_copy@PAW4_D3DFORMAT@@PAW41@V?$allocator@W4_D3DFORMAT@@@std@@@std@@YAPAW4_D3DFORMAT@@PAW41@00AAV?$allocator@W4_D3DFORMAT@@@0@U_Nonscalar_ptr_iterator_tag@0@U_Range_checked_iterator_tag@0@@Z 1002b1c0 f   OgreD3D9DriverEnum.obj
 0001:0002a1c0       __ehhandler$??$_Uninit_copy@PAW4_D3DMULTISAMPLE_TYPE@@PAW41@V?$allocator@W4_D3DMULTISAMPLE_TYPE@@@std@@@std@@YAPAW4_D3DMULTISAMPLE_TYPE@@PAW41@00AAV?$allocator@W4_D3DMULTISAMPLE_TYPE@@@0@U_Nonscalar_ptr_iterator_tag@0@U_Range_checked_iterator_tag@0@@Z 1002b1c0 f   OgreD3D9DriverEnum.obj
 0001:0002a1c0       __ehhandler$??$_Uninit_copy@PAW4VERTPROCESS_T@Ogre@@PAW412@V?$allocator@W4VERTPROCESS_T@Ogre@@@std@@@std@@YAPAW4VERTPROCESS_T@Ogre@@PAW412@00AAV?$allocator@W4VERTPROCESS_T@Ogre@@@0@U_Nonscalar_ptr_iterator_tag@0@U_Range_checked_iterator_tag@0@@Z 1002b1c0 f   OgreD3D9DriverEnum.obj
 0001:0002a1e0       __ehhandler$??$_Uninit_copy@PATShaderEnvKey@Ogre@@PAT12@V?$allocator@TShaderEnvKey@Ogre@@@std@@@std@@YAPATShaderEnvKey@Ogre@@PAT12@00AAV?$allocator@TShaderEnvKey@Ogre@@@0@U_Nonscalar_ptr_iterator_tag@0@U_Range_checked_iterator_tag@0@@Z 1002b1e0 f   OgreD3D9DriverEnum.obj
 0001:0002a1e0       __ehhandler$??$_Uninit_copy@PAU_D3DDISPLAYMODE@@PAU1@V?$allocator@U_D3DDISPLAYMODE@@@std@@@std@@YAPAU_D3DDISPLAYMODE@@PAU1@00AAV?$allocator@U_D3DDISPLAYMODE@@@0@U_Nonscalar_ptr_iterator_tag@0@U_Range_checked_iterator_tag@0@@Z 1002b1e0 f   OgreD3D9DriverEnum.obj
 0001:0002a200       __unwindfunclet$_dllStartPlugin$0 1002b200 f   OgreD3D9EngineDll.obj
 0001:0002a20b       __ehhandler$_dllStartPlugin 1002b20b f   OgreD3D9EngineDll.obj
 0001:0002a230       __unwindfunclet$??0D3D9PixelBufferPool@Ogre@@QAE@PAVD3D9RenderSystem@1@W4HardwareBufferUsage@1@ABUTextureDesc@1@@Z$0 1002b230 f   OgreD3D9HardwarePixelBuffer.obj
 0001:0002a239       __unwindfunclet$??0D3D9PixelBufferPool@Ogre@@QAE@PAVD3D9RenderSystem@1@W4HardwareBufferUsage@1@ABUTextureDesc@1@@Z$1 1002b239 f   OgreD3D9HardwarePixelBuffer.obj
 0001:0002a247       __unwindfunclet$??0D3D9PixelBufferPool@Ogre@@QAE@PAVD3D9RenderSystem@1@W4HardwareBufferUsage@1@ABUTextureDesc@1@@Z$2 1002b247 f   OgreD3D9HardwarePixelBuffer.obj
 0001:0002a255       __ehhandler$??0D3D9PixelBufferPool@Ogre@@QAE@PAVD3D9RenderSystem@1@W4HardwareBufferUsage@1@ABUTextureDesc@1@@Z 1002b255 f   OgreD3D9HardwarePixelBuffer.obj
 0001:0002a270       __unwindfunclet$??1D3D9PixelBufferPool@Ogre@@UAE@XZ$0 1002b270 f   OgreD3D9HardwarePixelBuffer.obj
 0001:0002a279       __unwindfunclet$??1D3D9PixelBufferPool@Ogre@@UAE@XZ$1 1002b279 f   OgreD3D9HardwarePixelBuffer.obj
 0001:0002a287       __unwindfunclet$??1D3D9PixelBufferPool@Ogre@@UAE@XZ$2 1002b287 f   OgreD3D9HardwarePixelBuffer.obj
 0001:0002a295       __unwindfunclet$??1D3D9PixelBufferPool@Ogre@@UAE@XZ$3 1002b295 f   OgreD3D9HardwarePixelBuffer.obj
 0001:0002a29e       __unwindfunclet$??1D3D9PixelBufferPool@Ogre@@UAE@XZ$4 1002b29e f   OgreD3D9HardwarePixelBuffer.obj
 0001:0002a2a7       __ehhandler$??1D3D9PixelBufferPool@Ogre@@UAE@XZ 1002b2a7 f   OgreD3D9HardwarePixelBuffer.obj
 0001:0002a2c2       __unwindfunclet$?onLostDevice@D3D9PixelBufferPool@Ogre@@QAEXXZ$0 1002b2c2 f   OgreD3D9HardwarePixelBuffer.obj
 0001:0002a2cb       __unwindfunclet$?onLostDevice@D3D9PixelBufferPool@Ogre@@QAEXXZ$1 1002b2cb f   OgreD3D9HardwarePixelBuffer.obj
 0001:0002a2d4       __ehhandler$?onLostDevice@D3D9PixelBufferPool@Ogre@@QAEXXZ 1002b2d4 f   OgreD3D9HardwarePixelBuffer.obj
 0001:0002a2ef       __unwindfunclet$?onResetDevice@D3D9PixelBufferPool@Ogre@@QAE_NXZ$0 1002b2ef f   OgreD3D9HardwarePixelBuffer.obj
 0001:0002a2f8       __unwindfunclet$?onResetDevice@D3D9PixelBufferPool@Ogre@@QAE_NXZ$1 1002b2f8 f   OgreD3D9HardwarePixelBuffer.obj
 0001:0002a301       __ehhandler$?onResetDevice@D3D9PixelBufferPool@Ogre@@QAE_NXZ 1002b301 f   OgreD3D9HardwarePixelBuffer.obj
 0001:0002a31c       __unwindfunclet$?newPixelBuffer@D3D9PixelBufferPool@Ogre@@UAEPAVHardwarePixelBuffer@2@XZ$0 1002b31c f   OgreD3D9HardwarePixelBuffer.obj
 0001:0002a327       __ehhandler$?newPixelBuffer@D3D9PixelBufferPool@Ogre@@UAEPAVHardwarePixelBuffer@2@XZ 1002b327 f   OgreD3D9HardwarePixelBuffer.obj
 0001:0002a342       __unwindfunclet$?createRenderTarget@D3D9PixelBufferPool@Ogre@@UAEPAVTextureRenderTarget@2@PAVHardwarePixelBuffer@2@IHH@Z$0 1002b342 f   OgreD3D9HardwarePixelBuffer.obj
 0001:0002a352       __ehhandler$?createRenderTarget@D3D9PixelBufferPool@Ogre@@UAEPAVTextureRenderTarget@2@PAVHardwarePixelBuffer@2@IHH@Z 1002b352 f   OgreD3D9HardwarePixelBuffer.obj
 0001:0002a36d       __unwindfunclet$?createDepthStencil@D3D9PixelBufferPool@Ogre@@UAEPAVTextureRenderTarget@2@PAVHardwarePixelBuffer@2@I@Z$0 1002b36d f   OgreD3D9HardwarePixelBuffer.obj
 0001:0002a37d       __ehhandler$?createDepthStencil@D3D9PixelBufferPool@Ogre@@UAEPAVTextureRenderTarget@2@PAVHardwarePixelBuffer@2@I@Z 1002b37d f   OgreD3D9HardwarePixelBuffer.obj
 0001:0002a398       __unwindfunclet$??1D3D9HardwarePixelBuffer@Ogre@@EAE@XZ$0 1002b398 f   OgreD3D9HardwarePixelBuffer.obj
 0001:0002a3a1       __ehhandler$??1D3D9HardwarePixelBuffer@Ogre@@EAE@XZ 1002b3a1 f   OgreD3D9HardwarePixelBuffer.obj
 0001:0002a3bc       __unwindfunclet$??0D3D9TextureRenderTarget@Ogre@@QAE@PAVD3D9RenderSystem@1@PAVD3D9HardwarePixelBuffer@1@IHW4RenderTargetType@01@H@Z$0 1002b3bc f   OgreD3D9HardwarePixelBuffer.obj
 0001:0002a3c5       __ehhandler$??0D3D9TextureRenderTarget@Ogre@@QAE@PAVD3D9RenderSystem@1@PAVD3D9HardwarePixelBuffer@1@IHW4RenderTargetType@01@H@Z 1002b3c5 f   OgreD3D9HardwarePixelBuffer.obj
 0001:0002a3e0       __unwindfunclet$??1D3D9TextureRenderTarget@Ogre@@UAE@XZ$0 1002b3e0 f   OgreD3D9HardwarePixelBuffer.obj
 0001:0002a3e9       __ehhandler$??1D3D9TextureRenderTarget@Ogre@@UAE@XZ 1002b3e9 f   OgreD3D9HardwarePixelBuffer.obj
 0001:0002a404       __unwindfunclet$??0D3D9HardwarePixelBufferManager@Ogre@@QAE@PAVD3D9RenderSystem@1@@Z$0 1002b404 f   OgreD3D9HardwarePixelBuffer.obj
 0001:0002a40d       __unwindfunclet$??0D3D9HardwarePixelBufferManager@Ogre@@QAE@PAVD3D9RenderSystem@1@@Z$1 1002b40d f   OgreD3D9HardwarePixelBuffer.obj
 0001:0002a418       __unwindfunclet$??0D3D9HardwarePixelBufferManager@Ogre@@QAE@PAVD3D9RenderSystem@1@@Z$2 1002b418 f   OgreD3D9HardwarePixelBuffer.obj
 0001:0002a423       __ehhandler$??0D3D9HardwarePixelBufferManager@Ogre@@QAE@PAVD3D9RenderSystem@1@@Z 1002b423 f   OgreD3D9HardwarePixelBuffer.obj
 0001:0002a43e       __unwindfunclet$??1D3D9HardwarePixelBufferManager@Ogre@@UAE@XZ$0 1002b43e f   OgreD3D9HardwarePixelBuffer.obj
 0001:0002a447       __unwindfunclet$??1D3D9HardwarePixelBufferManager@Ogre@@UAE@XZ$1 1002b447 f   OgreD3D9HardwarePixelBuffer.obj
 0001:0002a452       __unwindfunclet$??1D3D9HardwarePixelBufferManager@Ogre@@UAE@XZ$2 1002b452 f   OgreD3D9HardwarePixelBuffer.obj
 0001:0002a45d       __ehhandler$??1D3D9HardwarePixelBufferManager@Ogre@@UAE@XZ 1002b45d f   OgreD3D9HardwarePixelBuffer.obj
 0001:0002a478       __unwindfunclet$?newPixelBufferPool@D3D9HardwarePixelBufferManager@Ogre@@UAEPAVHardwarePixelBufferPool@2@W4HardwareBufferUsage@2@ABUTextureDesc@2@@Z$0 1002b478 f   OgreD3D9HardwarePixelBuffer.obj
 0001:0002a483       __ehhandler$?newPixelBufferPool@D3D9HardwarePixelBufferManager@Ogre@@UAEPAVHardwarePixelBufferPool@2@W4HardwareBufferUsage@2@ABUTextureDesc@2@@Z 1002b483 f   OgreD3D9HardwarePixelBuffer.obj
 0001:0002a4a0       __unwindfunclet$??0D3D9HardwarePixelBuffer@Ogre@@QAE@XZ$0 1002b4a0 f   OgreD3D9HardwarePixelBuffer.obj
 0001:0002a4a9       __ehhandler$??0D3D9HardwarePixelBuffer@Ogre@@QAE@XZ 1002b4a9 f   OgreD3D9HardwarePixelBuffer.obj
 0001:0002a4d0       __ehhandler$?_Insert_n@?$vector@UDSBuffer@D3D9HardwarePixelBufferManager@Ogre@@V?$allocator@UDSBuffer@D3D9HardwarePixelBufferManager@Ogre@@@std@@@std@@IAEXV?$_Vector_const_iterator@UDSBuffer@D3D9HardwarePixelBufferManager@Ogre@@V?$allocator@UDSBuffer@D3D9HardwarePixelBufferManager@Ogre@@@std@@@2@IABUDSBuffer@D3D9HardwarePixelBufferManager@Ogre@@@Z 1002b4d0 f   OgreD3D9HardwarePixelBuffer.obj
 0001:0002a4d0       __ehhandler$?_Insert_n@?$vector@URTBuffer@D3D9HardwarePixelBufferManager@Ogre@@V?$allocator@URTBuffer@D3D9HardwarePixelBufferManager@Ogre@@@std@@@std@@IAEXV?$_Vector_const_iterator@URTBuffer@D3D9HardwarePixelBufferManager@Ogre@@V?$allocator@URTBuffer@D3D9HardwarePixelBufferManager@Ogre@@@std@@@2@IABURTBuffer@D3D9HardwarePixelBufferManager@Ogre@@@Z 1002b4d0 f   OgreD3D9HardwarePixelBuffer.obj
 0001:0002a4f0       __ehhandler$??$_Uninit_fill_n@PAUDSBuffer@D3D9HardwarePixelBufferManager@Ogre@@IU123@V?$allocator@UDSBuffer@D3D9HardwarePixelBufferManager@Ogre@@@std@@@std@@YAXPAUDSBuffer@D3D9HardwarePixelBufferManager@Ogre@@IABU123@AAV?$allocator@UDSBuffer@D3D9HardwarePixelBufferManager@Ogre@@@0@U_Nonscalar_ptr_iterator_tag@0@U_Range_checked_iterator_tag@0@@Z 1002b4f0 f   OgreD3D9HardwarePixelBuffer.obj
 0001:0002a4f0       __ehhandler$??$_Uninit_fill_n@PAUShaderEnv@Ogre@@IU12@V?$allocator@UShaderEnv@Ogre@@@std@@@std@@YAXPAUShaderEnv@Ogre@@IABU12@AAV?$allocator@UShaderEnv@Ogre@@@0@U_Nonscalar_ptr_iterator_tag@0@U_Range_checked_iterator_tag@0@@Z 1002b4f0 f   OgreD3D9HardwarePixelBuffer.obj
 0001:0002a4f0       __ehhandler$??$_Uninit_fill_n@PAURTBuffer@D3D9HardwarePixelBufferManager@Ogre@@IU123@V?$allocator@URTBuffer@D3D9HardwarePixelBufferManager@Ogre@@@std@@@std@@YAXPAURTBuffer@D3D9HardwarePixelBufferManager@Ogre@@IABU123@AAV?$allocator@URTBuffer@D3D9HardwarePixelBufferManager@Ogre@@@0@U_Nonscalar_ptr_iterator_tag@0@U_Range_checked_iterator_tag@0@@Z 1002b4f0 f   OgreD3D9HardwarePixelBuffer.obj
 0001:0002a510       __ehhandler$??$_Uninit_copy@PAUDSBuffer@D3D9HardwarePixelBufferManager@Ogre@@PAU123@V?$allocator@UDSBuffer@D3D9HardwarePixelBufferManager@Ogre@@@std@@@std@@YAPAUDSBuffer@D3D9HardwarePixelBufferManager@Ogre@@PAU123@00AAV?$allocator@UDSBuffer@D3D9HardwarePixelBufferManager@Ogre@@@0@U_Nonscalar_ptr_iterator_tag@0@U_Range_checked_iterator_tag@0@@Z 1002b510 f   OgreD3D9HardwarePixelBuffer.obj
 0001:0002a510       __ehhandler$??$_Uninit_copy@PAUShaderEnv@Ogre@@PAU12@V?$allocator@UShaderEnv@Ogre@@@std@@@std@@YAPAUShaderEnv@Ogre@@PAU12@00AAV?$allocator@UShaderEnv@Ogre@@@0@U_Nonscalar_ptr_iterator_tag@0@U_Range_checked_iterator_tag@0@@Z 1002b510 f   OgreD3D9HardwarePixelBuffer.obj
 0001:0002a510       __ehhandler$??$_Uninit_copy@PAURTBuffer@D3D9HardwarePixelBufferManager@Ogre@@PAU123@V?$allocator@URTBuffer@D3D9HardwarePixelBufferManager@Ogre@@@std@@@std@@YAPAURTBuffer@D3D9HardwarePixelBufferManager@Ogre@@PAU123@00AAV?$allocator@URTBuffer@D3D9HardwarePixelBufferManager@Ogre@@@0@U_Nonscalar_ptr_iterator_tag@0@U_Range_checked_iterator_tag@0@@Z 1002b510 f   OgreD3D9HardwarePixelBuffer.obj
 0001:0002a530       __unwindfunclet$??0D3D9Plugin@Ogre@@QAE@XZ$0 1002b530 f   OgreD3D9Plugin.obj
 0001:0002a539       __ehhandler$??0D3D9Plugin@Ogre@@QAE@XZ 1002b539 f   OgreD3D9Plugin.obj
 0001:0002a554       __unwindfunclet$?install@D3D9Plugin@Ogre@@UAEXXZ$0 1002b554 f   OgreD3D9Plugin.obj
 0001:0002a55f       __ehhandler$?install@D3D9Plugin@Ogre@@UAEXXZ 1002b55f f   OgreD3D9Plugin.obj
 0001:0002a580       __unwindfunclet$??1D3D9Plugin@Ogre@@UAE@XZ$0 1002b580 f   OgreD3D9Plugin.obj
 0001:0002a589       __ehhandler$??1D3D9Plugin@Ogre@@UAE@XZ 1002b589 f   OgreD3D9Plugin.obj
 0001:0002a5b0       __unwindfunclet$??0D3D9RenderSystem@Ogre@@QAE@PAUHINSTANCE__@@@Z$0 1002b5b0 f   OgreD3D9RenderSystem.obj
 0001:0002a5b9       __unwindfunclet$??0D3D9RenderSystem@Ogre@@QAE@PAUHINSTANCE__@@@Z$1 1002b5b9 f   OgreD3D9RenderSystem.obj
 0001:0002a5c7       __unwindfunclet$??0D3D9RenderSystem@Ogre@@QAE@PAUHINSTANCE__@@@Z$2 1002b5c7 f   OgreD3D9RenderSystem.obj
 0001:0002a5d6       __unwindfunclet$??0D3D9RenderSystem@Ogre@@QAE@PAUHINSTANCE__@@@Z$3 1002b5d6 f   OgreD3D9RenderSystem.obj
 0001:0002a5e4       __unwindfunclet$??0D3D9RenderSystem@Ogre@@QAE@PAUHINSTANCE__@@@Z$4 1002b5e4 f   OgreD3D9RenderSystem.obj
 0001:0002a5ef       __ehhandler$??0D3D9RenderSystem@Ogre@@QAE@PAUHINSTANCE__@@@Z 1002b5ef f   OgreD3D9RenderSystem.obj
 0001:0002a60a       __unwindfunclet$??1D3D9RenderSystem@Ogre@@QAE@XZ$0 1002b60a f   OgreD3D9RenderSystem.obj
 0001:0002a613       __unwindfunclet$??1D3D9RenderSystem@Ogre@@QAE@XZ$1 1002b613 f   OgreD3D9RenderSystem.obj
 0001:0002a621       __unwindfunclet$??1D3D9RenderSystem@Ogre@@QAE@XZ$2 1002b621 f   OgreD3D9RenderSystem.obj
 0001:0002a630       __unwindfunclet$??1D3D9RenderSystem@Ogre@@QAE@XZ$3 1002b630 f   OgreD3D9RenderSystem.obj
 0001:0002a63e       __ehhandler$??1D3D9RenderSystem@Ogre@@QAE@XZ 1002b63e f   OgreD3D9RenderSystem.obj
 0001:0002a659       __unwindfunclet$?initialise@D3D9RenderSystem@Ogre@@UAE_NABUInitDesc@RenderSystem@2@@Z$0 1002b659 f   OgreD3D9RenderSystem.obj
 0001:0002a66f       __unwindfunclet$?initialise@D3D9RenderSystem@Ogre@@UAE_NABUInitDesc@RenderSystem@2@@Z$1 1002b66f f   OgreD3D9RenderSystem.obj
 0001:0002a67d       __unwindfunclet$?initialise@D3D9RenderSystem@Ogre@@UAE_NABUInitDesc@RenderSystem@2@@Z$2 1002b67d f   OgreD3D9RenderSystem.obj
 0001:0002a68b       __unwindfunclet$?initialise@D3D9RenderSystem@Ogre@@UAE_NABUInitDesc@RenderSystem@2@@Z$3 1002b68b f   OgreD3D9RenderSystem.obj
 0001:0002a694       __unwindfunclet$?initialise@D3D9RenderSystem@Ogre@@UAE_NABUInitDesc@RenderSystem@2@@Z$4 1002b694 f   OgreD3D9RenderSystem.obj
 0001:0002a6a2       __ehhandler$?initialise@D3D9RenderSystem@Ogre@@UAE_NABUInitDesc@RenderSystem@2@@Z 1002b6a2 f   OgreD3D9RenderSystem.obj
 0001:0002a6ca       __unwindfunclet$?createRenderWindow@D3D9RenderSystem@Ogre@@UAEPAVRenderWindow@2@ABUInitDesc@RenderSystem@2@@Z$0 1002b6ca f   OgreD3D9RenderSystem.obj
 0001:0002a6dd       __ehhandler$?createRenderWindow@D3D9RenderSystem@Ogre@@UAEPAVRenderWindow@2@ABUInitDesc@RenderSystem@2@@Z 1002b6dd f   OgreD3D9RenderSystem.obj
 0001:0002a6f8       __unwindfunclet$?getInputLayout@D3D9RenderSystem@Ogre@@UAEIABVVertexFormat@2@@Z$0 1002b6f8 f   OgreD3D9RenderSystem.obj
 0001:0002a703       __ehhandler$?getInputLayout@D3D9RenderSystem@Ogre@@UAEIABVVertexFormat@2@@Z 1002b703 f   OgreD3D9RenderSystem.obj
 0001:0002a71e       __unwindfunclet$?Open@MyShaderInclude@Ogre@@UAGJW4_D3DXINCLUDE_TYPE@@PBDPBXPAPBXPAI@Z$0 1002b71e f   OgreD3D9RenderSystem.obj
 0001:0002a72a       __ehhandler$?Open@MyShaderInclude@Ogre@@UAGJW4_D3DXINCLUDE_TYPE@@PBDPBXPAPBXPAI@Z 1002b72a f   OgreD3D9RenderSystem.obj
 0001:0002a752       __unwindfunclet$?compileCode@D3D9RenderSystem@Ogre@@QAEPAUID3DXBuffer@@PBDIPBU_D3DXMACRO@@00PAPAUID3DXConstantTable@@@Z$0 1002b752 f   OgreD3D9RenderSystem.obj
 0001:0002a75e       __ehhandler$?compileCode@D3D9RenderSystem@Ogre@@QAEPAUID3DXBuffer@@PBDIPBU_D3DXMACRO@@00PAPAUID3DXConstantTable@@@Z 1002b75e f   OgreD3D9RenderSystem.obj
 0001:0002a790       __unwindfunclet$??1D3D9HardwareBufferManager@Ogre@@UAE@XZ$0 1002b790 f   OgreD3D9RenderSystem.obj
 0001:0002a790       __unwindfunclet$??0D3D9HardwareBufferManager@Ogre@@QAE@PAVD3D9RenderSystem@1@@Z$0 1002b790 f   OgreD3D9RenderSystem.obj
 0001:0002a799       __ehhandler$??0D3D9HardwareBufferManager@Ogre@@QAE@PAVD3D9RenderSystem@1@@Z 1002b799 f   OgreD3D9RenderSystem.obj
 0001:0002a799       __ehhandler$??1D3D9HardwareBufferManager@Ogre@@UAE@XZ 1002b799 f   OgreD3D9RenderSystem.obj
 0001:0002a7c0       __unwindfunclet$??1?$_Vector_val@PAVD3DRenderWindow@Ogre@@V?$allocator@PAVD3DRenderWindow@Ogre@@@std@@@std@@QAE@XZ$0 1002b7c0 f   OgreD3D9RenderSystem.obj
 0001:0002a7c0       __unwindfunclet$??1?$_Vector_val@PAVD3D9TextureRenderTarget@Ogre@@V?$allocator@PAVD3D9TextureRenderTarget@Ogre@@@std@@@std@@QAE@XZ$0 1002b7c0 f   OgreD3D9RenderSystem.obj
 0001:0002a7c0       __unwindfunclet$??1?$_Vector_val@PAUD3DDEVICEINFO_T@Ogre@@V?$allocator@PAUD3DDEVICEINFO_T@Ogre@@@std@@@std@@QAE@XZ$0 1002b7c0 f   OgreD3D9RenderSystem.obj
 0001:0002a7c0       __unwindfunclet$??1?$_Vector_val@PAUD3DDEVCOMBO_T@Ogre@@V?$allocator@PAUD3DDEVCOMBO_T@Ogre@@@std@@@std@@QAE@XZ$0 1002b7c0 f   OgreD3D9RenderSystem.obj
 0001:0002a7c0       __unwindfunclet$??1?$_Vector_val@PAUD3DADAPTER_T@Ogre@@V?$allocator@PAUD3DADAPTER_T@Ogre@@@std@@@std@@QAE@XZ$0 1002b7c0 f   OgreD3D9RenderSystem.obj
 0001:0002a7c0       __unwindfunclet$??1?$_Vector_val@UDSBuffer@D3D9HardwarePixelBufferManager@Ogre@@V?$allocator@UDSBuffer@D3D9HardwarePixelBufferManager@Ogre@@@std@@@std@@QAE@XZ$0 1002b7c0 f   OgreD3D9RenderSystem.obj
 0001:0002a7c0       __unwindfunclet$??1?$_Tmap_traits@VFixedString@Ogre@@PAVCompiledShaderGroup@2@U?$less@VFixedString@Ogre@@@std@@V?$allocator@U?$pair@$$CBVFixedString@Ogre@@PAVCompiledShaderGroup@2@@std@@@5@$0A@@std@@QAE@XZ$0 1002b7c0 f   OgreD3D9RenderSystem.obj
 0001:0002a7c0       __unwindfunclet$??1?$_Vector_val@PAVD3D9VertexDecl@Ogre@@V?$allocator@PAVD3D9VertexDecl@Ogre@@@std@@@std@@QAE@XZ$0 1002b7c0 f   OgreD3D9RenderSystem.obj
 0001:0002a7c0       __unwindfunclet$??1?$_Vector_val@U_D3DDISPLAYMODE@@V?$allocator@U_D3DDISPLAYMODE@@@std@@@std@@QAE@XZ$0 1002b7c0 f   OgreD3D9RenderSystem.obj
 0001:0002a7c0       __unwindfunclet$??1?$_Vector_val@UPassData@D3DShaderTechnique@Ogre@@V?$allocator@UPassData@D3DShaderTechnique@Ogre@@@std@@@std@@QAE@XZ$0 1002b7c0 f   OgreD3D9RenderSystem.obj
 0001:0002a7c0       __unwindfunclet$??1?$_Tmap_traits@TShaderEnvKey@Ogre@@PAVD3DTech@2@U?$less@TShaderEnvKey@Ogre@@@std@@V?$allocator@U?$pair@$$CBTShaderEnvKey@Ogre@@PAVD3DTech@2@@std@@@5@$0A@@std@@QAE@XZ$0 1002b7c0 f   OgreD3D9RenderSystem.obj
 0001:0002a7c0       __unwindfunclet$??1?$_Tmap_traits@TShaderEnvKey@Ogre@@PAVCompiledShader@2@U?$less@TShaderEnvKey@Ogre@@@std@@V?$allocator@U?$pair@$$CBTShaderEnvKey@Ogre@@PAVCompiledShader@2@@std@@@5@$0A@@std@@QAE@XZ$0 1002b7c0 f   OgreD3D9RenderSystem.obj
 0001:0002a7c0       __unwindfunclet$??1?$_Vector_val@URTBuffer@D3D9HardwarePixelBufferManager@Ogre@@V?$allocator@URTBuffer@D3D9HardwarePixelBufferManager@Ogre@@@std@@@std@@QAE@XZ$0 1002b7c0 f   OgreD3D9RenderSystem.obj
 0001:0002a7c0       __unwindfunclet$??1?$_Vector_val@W4_D3DMULTISAMPLE_TYPE@@V?$allocator@W4_D3DMULTISAMPLE_TYPE@@@std@@@std@@QAE@XZ$0 1002b7c0 f   OgreD3D9RenderSystem.obj
 0001:0002a7c0       __unwindfunclet$??1?$_Vector_val@W4_D3DFORMAT@@V?$allocator@W4_D3DFORMAT@@@std@@@std@@QAE@XZ$0 1002b7c0 f   OgreD3D9RenderSystem.obj
 0001:0002a7c0       __unwindfunclet$??1?$_Vector_val@W4VERTPROCESS_T@Ogre@@V?$allocator@W4VERTPROCESS_T@Ogre@@@std@@@std@@QAE@XZ$0 1002b7c0 f   OgreD3D9RenderSystem.obj
 0001:0002a7c0       __unwindfunclet$??1?$_Vector_val@UPassDesc@Ogre@@V?$allocator@UPassDesc@Ogre@@@std@@@std@@QAE@XZ$0 1002b7c0 f   OgreD3D9RenderSystem.obj
 0001:0002a7c0       __unwindfunclet$??1?$_Vector_val@U_D3DXMACRO@@V?$allocator@U_D3DXMACRO@@@std@@@std@@QAE@XZ$0 1002b7c0 f   OgreD3D9RenderSystem.obj
 0001:0002a7c0       __unwindfunclet$??1?$_Vector_val@PAVCompiledShader@Ogre@@V?$allocator@PAVCompiledShader@Ogre@@@std@@@std@@QAE@XZ$0 1002b7c0 f   OgreD3D9RenderSystem.obj
 0001:0002a7c0       __unwindfunclet$??1?$_Vector_val@DV?$allocator@D@std@@@std@@QAE@XZ$0 1002b7c0 f   OgreD3D9RenderSystem.obj
 0001:0002a7c0       __unwindfunclet$??1?$_Vector_val@TShaderEnvKey@Ogre@@V?$allocator@TShaderEnvKey@Ogre@@@std@@@std@@QAE@XZ$0 1002b7c0 f   OgreD3D9RenderSystem.obj
 0001:0002a7c0       __unwindfunclet$??1?$_Vector_val@UD3DSMSCONFLICT_T@Ogre@@V?$allocator@UD3DSMSCONFLICT_T@Ogre@@@std@@@std@@QAE@XZ$0 1002b7c0 f   OgreD3D9RenderSystem.obj
 0001:0002a7c0       __unwindfunclet$??1?$_Vector_val@PAUTechniqueDesc@Ogre@@V?$allocator@PAUTechniqueDesc@Ogre@@@std@@@std@@QAE@XZ$0 1002b7c0 f   OgreD3D9RenderSystem.obj
 0001:0002a7c0       __unwindfunclet$??1?$_Tmap_traits@TShaderEnvKey2@Ogre@@PAVD3DShaderTechnique@2@U?$less@TShaderEnvKey2@Ogre@@@std@@V?$allocator@U?$pair@$$CBTShaderEnvKey2@Ogre@@PAVD3DShaderTechnique@2@@std@@@5@$0A@@std@@QAE@XZ$0 1002b7c0 f   OgreD3D9RenderSystem.obj
 0001:0002a7c0       __unwindfunclet$??1?$_Vector_val@PAUIDirect3DBaseTexture9@@V?$allocator@PAUIDirect3DBaseTexture9@@@std@@@std@@QAE@XZ$0 1002b7c0 f   OgreD3D9RenderSystem.obj
 0001:0002a7c0       __unwindfunclet$??1?$_Vector_val@PAUTechCache@D3DMaterialTemplate@Ogre@@V?$allocator@PAUTechCache@D3DMaterialTemplate@Ogre@@@std@@@std@@QAE@XZ$0 1002b7c0 f   OgreD3D9RenderSystem.obj
 0001:0002a7c0       __unwindfunclet$??1?$_Vector_val@IV?$allocator@I@std@@@std@@QAE@XZ$0 1002b7c0 f   OgreD3D9RenderSystem.obj
 0001:0002a7c8       __ehhandler$??1?$_Vector_val@PAUTechCache@D3DMaterialTemplate@Ogre@@V?$allocator@PAUTechCache@D3DMaterialTemplate@Ogre@@@std@@@std@@QAE@XZ 1002b7c8 f   OgreD3D9RenderSystem.obj
 0001:0002a7c8       __ehhandler$??1?$_Vector_val@PAVD3DRenderWindow@Ogre@@V?$allocator@PAVD3DRenderWindow@Ogre@@@std@@@std@@QAE@XZ 1002b7c8 f   OgreD3D9RenderSystem.obj
 0001:0002a7c8       __ehhandler$??1?$_Vector_val@PAVD3D9VertexDecl@Ogre@@V?$allocator@PAVD3D9VertexDecl@Ogre@@@std@@@std@@QAE@XZ 1002b7c8 f   OgreD3D9RenderSystem.obj
 0001:0002a7c8       __ehhandler$??1?$_Vector_val@PAUD3DDEVCOMBO_T@Ogre@@V?$allocator@PAUD3DDEVCOMBO_T@Ogre@@@std@@@std@@QAE@XZ 1002b7c8 f   OgreD3D9RenderSystem.obj
 0001:0002a7c8       __ehhandler$??1?$_Vector_val@UPassData@D3DShaderTechnique@Ogre@@V?$allocator@UPassData@D3DShaderTechnique@Ogre@@@std@@@std@@QAE@XZ 1002b7c8 f   OgreD3D9RenderSystem.obj
 0001:0002a7c8       __ehhandler$??1?$_Vector_val@PAUD3DDEVICEINFO_T@Ogre@@V?$allocator@PAUD3DDEVICEINFO_T@Ogre@@@std@@@std@@QAE@XZ 1002b7c8 f   OgreD3D9RenderSystem.obj
 0001:0002a7c8       __ehhandler$??1?$_Vector_val@W4VERTPROCESS_T@Ogre@@V?$allocator@W4VERTPROCESS_T@Ogre@@@std@@@std@@QAE@XZ 1002b7c8 f   OgreD3D9RenderSystem.obj
 0001:0002a7c8       __ehhandler$??1?$_Vector_val@PAUD3DADAPTER_T@Ogre@@V?$allocator@PAUD3DADAPTER_T@Ogre@@@std@@@std@@QAE@XZ 1002b7c8 f   OgreD3D9RenderSystem.obj
 0001:0002a7c8       __ehhandler$??1?$_Vector_val@PAVCompiledShader@Ogre@@V?$allocator@PAVCompiledShader@Ogre@@@std@@@std@@QAE@XZ 1002b7c8 f   OgreD3D9RenderSystem.obj
 0001:0002a7c8       __ehhandler$??1?$_Vector_val@TShaderEnvKey@Ogre@@V?$allocator@TShaderEnvKey@Ogre@@@std@@@std@@QAE@XZ 1002b7c8 f   OgreD3D9RenderSystem.obj
 0001:0002a7c8       __ehhandler$??1?$_Vector_val@UD3DSMSCONFLICT_T@Ogre@@V?$allocator@UD3DSMSCONFLICT_T@Ogre@@@std@@@std@@QAE@XZ 1002b7c8 f   OgreD3D9RenderSystem.obj
 0001:0002a7c8       __ehhandler$??1?$_Vector_val@PAUTechniqueDesc@Ogre@@V?$allocator@PAUTechniqueDesc@Ogre@@@std@@@std@@QAE@XZ 1002b7c8 f   OgreD3D9RenderSystem.obj
 0001:0002a7c8       __ehhandler$??1?$_Vector_val@IV?$allocator@I@std@@@std@@QAE@XZ 1002b7c8 f   OgreD3D9RenderSystem.obj
 0001:0002a7c8       __ehhandler$??1?$_Vector_val@DV?$allocator@D@std@@@std@@QAE@XZ 1002b7c8 f   OgreD3D9RenderSystem.obj
 0001:0002a7c8       __ehhandler$??1?$_Vector_val@UPassDesc@Ogre@@V?$allocator@UPassDesc@Ogre@@@std@@@std@@QAE@XZ 1002b7c8 f   OgreD3D9RenderSystem.obj
 0001:0002a7c8       __ehhandler$??1?$_Vector_val@W4_D3DMULTISAMPLE_TYPE@@V?$allocator@W4_D3DMULTISAMPLE_TYPE@@@std@@@std@@QAE@XZ 1002b7c8 f   OgreD3D9RenderSystem.obj
 0001:0002a7c8       __ehhandler$??1?$_Vector_val@URTBuffer@D3D9HardwarePixelBufferManager@Ogre@@V?$allocator@URTBuffer@D3D9HardwarePixelBufferManager@Ogre@@@std@@@std@@QAE@XZ 1002b7c8 f   OgreD3D9RenderSystem.obj
 0001:0002a7c8       __ehhandler$??1?$_Vector_val@U_D3DXMACRO@@V?$allocator@U_D3DXMACRO@@@std@@@std@@QAE@XZ 1002b7c8 f   OgreD3D9RenderSystem.obj
 0001:0002a7c8       __ehhandler$??1?$_Vector_val@UDSBuffer@D3D9HardwarePixelBufferManager@Ogre@@V?$allocator@UDSBuffer@D3D9HardwarePixelBufferManager@Ogre@@@std@@@std@@QAE@XZ 1002b7c8 f   OgreD3D9RenderSystem.obj
 0001:0002a7c8       __ehhandler$??1?$_Tmap_traits@TShaderEnvKey@Ogre@@PAVCompiledShader@2@U?$less@TShaderEnvKey@Ogre@@@std@@V?$allocator@U?$pair@$$CBTShaderEnvKey@Ogre@@PAVCompiledShader@2@@std@@@5@$0A@@std@@QAE@XZ 1002b7c8 f   OgreD3D9RenderSystem.obj
 0001:0002a7c8       __ehhandler$??1?$_Vector_val@W4_D3DFORMAT@@V?$allocator@W4_D3DFORMAT@@@std@@@std@@QAE@XZ 1002b7c8 f   OgreD3D9RenderSystem.obj
 0001:0002a7c8       __ehhandler$??1?$_Tmap_traits@TShaderEnvKey2@Ogre@@PAVD3DShaderTechnique@2@U?$less@TShaderEnvKey2@Ogre@@@std@@V?$allocator@U?$pair@$$CBTShaderEnvKey2@Ogre@@PAVD3DShaderTechnique@2@@std@@@5@$0A@@std@@QAE@XZ 1002b7c8 f   OgreD3D9RenderSystem.obj
 0001:0002a7c8       __ehhandler$??1?$_Vector_val@PAVD3D9TextureRenderTarget@Ogre@@V?$allocator@PAVD3D9TextureRenderTarget@Ogre@@@std@@@std@@QAE@XZ 1002b7c8 f   OgreD3D9RenderSystem.obj
 0001:0002a7c8       __ehhandler$??1?$_Vector_val@PAUIDirect3DBaseTexture9@@V?$allocator@PAUIDirect3DBaseTexture9@@@std@@@std@@QAE@XZ 1002b7c8 f   OgreD3D9RenderSystem.obj
 0001:0002a7c8       __ehhandler$??1?$_Tmap_traits@VFixedString@Ogre@@PAVCompiledShaderGroup@2@U?$less@VFixedString@Ogre@@@std@@V?$allocator@U?$pair@$$CBVFixedString@Ogre@@PAVCompiledShaderGroup@2@@std@@@5@$0A@@std@@QAE@XZ 1002b7c8 f   OgreD3D9RenderSystem.obj
 0001:0002a7c8       __ehhandler$??1?$_Vector_val@U_D3DDISPLAYMODE@@V?$allocator@U_D3DDISPLAYMODE@@@std@@@std@@QAE@XZ 1002b7c8 f   OgreD3D9RenderSystem.obj
 0001:0002a7c8       __ehhandler$??1?$_Tmap_traits@TShaderEnvKey@Ogre@@PAVD3DTech@2@U?$less@TShaderEnvKey@Ogre@@@std@@V?$allocator@U?$pair@$$CBTShaderEnvKey@Ogre@@PAVD3DTech@2@@std@@@5@$0A@@std@@QAE@XZ 1002b7c8 f   OgreD3D9RenderSystem.obj
 0001:0002a7f0       __unwindfunclet$??0?$PtrScopeGuardImpl@UD3DDEVCOMBO_T@Ogre@@@Ogre@@IAE@PAUD3DDEVCOMBO_T@1@@Z$0 1002b7f0 f   OgreD3D9RenderSystem.obj
 0001:0002a7f0       __unwindfunclet$??1?$_Container_base_aux_alloc_real@V?$allocator@U_D3DXMACRO@@@std@@@std@@IAE@XZ$0 1002b7f0 f   OgreD3D9RenderSystem.obj
 0001:0002a7f0       __unwindfunclet$??1?$_Container_base_aux_alloc_real@V?$allocator@UPassData@D3DShaderTechnique@Ogre@@@std@@@std@@IAE@XZ$0 1002b7f0 f   OgreD3D9RenderSystem.obj
 0001:0002a7f0       __unwindfunclet$??1?$_Container_base_aux_alloc_real@V?$allocator@U?$pair@$$CBTShaderEnvKey@Ogre@@PAVCompiledShader@2@@std@@@std@@@std@@IAE@XZ$0 1002b7f0 f   OgreD3D9RenderSystem.obj
 0001:0002a7f0       __unwindfunclet$??1?$_Container_base_aux_alloc_real@V?$allocator@PAVCompiledShader@Ogre@@@std@@@std@@IAE@XZ$0 1002b7f0 f   OgreD3D9RenderSystem.obj
 0001:0002a7f0       __unwindfunclet$??1?$_Container_base_aux_alloc_real@V?$allocator@TShaderEnvKey@Ogre@@@std@@@std@@IAE@XZ$0 1002b7f0 f   OgreD3D9RenderSystem.obj
 0001:0002a7f0       __unwindfunclet$??1?$_Container_base_aux_alloc_real@V?$allocator@PAUTechniqueDesc@Ogre@@@std@@@std@@IAE@XZ$0 1002b7f0 f   OgreD3D9RenderSystem.obj
 0001:0002a7f0       __unwindfunclet$??1?$_Container_base_aux_alloc_real@V?$allocator@D@std@@@std@@IAE@XZ$0 1002b7f0 f   OgreD3D9RenderSystem.obj
 0001:0002a7f0       __unwindfunclet$??1?$_Container_base_aux_alloc_real@V?$allocator@UPassDesc@Ogre@@@std@@@std@@IAE@XZ$0 1002b7f0 f   OgreD3D9RenderSystem.obj
 0001:0002a7f0       __unwindfunclet$??1?$_Container_base_aux_alloc_real@V?$allocator@U?$pair@$$CBTShaderEnvKey@Ogre@@PAVD3DTech@2@@std@@@std@@@std@@IAE@XZ$0 1002b7f0 f   OgreD3D9RenderSystem.obj
 0001:0002a7f0       __unwindfunclet$??1?$_Container_base_aux_alloc_real@V?$allocator@U?$pair@$$CBVFixedString@Ogre@@PAVCompiledShaderGroup@2@@std@@@std@@@std@@IAE@XZ$0 1002b7f0 f   OgreD3D9RenderSystem.obj
 0001:0002a7f0       __unwindfunclet$??1?$_Container_base_aux_alloc_real@V?$allocator@U?$pair@$$CBTShaderEnvKey2@Ogre@@PAVD3DShaderTechnique@2@@std@@@std@@@std@@IAE@XZ$0 1002b7f0 f   OgreD3D9RenderSystem.obj
 0001:0002a7f0       __unwindfunclet$??1?$_Container_base_aux_alloc_real@V?$allocator@PAUTechCache@D3DMaterialTemplate@Ogre@@@std@@@std@@IAE@XZ$0 1002b7f0 f   OgreD3D9RenderSystem.obj
 0001:0002a7f0       __unwindfunclet$??1?$_Container_base_aux_alloc_real@V?$allocator@PAVD3DRenderWindow@Ogre@@@std@@@std@@IAE@XZ$0 1002b7f0 f   OgreD3D9RenderSystem.obj
 0001:0002a7f0       __unwindfunclet$??1?$_Container_base_aux_alloc_real@V?$allocator@PAVD3D9VertexDecl@Ogre@@@std@@@std@@IAE@XZ$0 1002b7f0 f   OgreD3D9RenderSystem.obj
 0001:0002a7f0       __unwindfunclet$??1?$_Container_base_aux_alloc_real@V?$allocator@W4_D3DFORMAT@@@std@@@std@@IAE@XZ$0 1002b7f0 f   OgreD3D9RenderSystem.obj
 0001:0002a7f0       __unwindfunclet$??1?$_Container_base_aux_alloc_real@V?$allocator@W4_D3DMULTISAMPLE_TYPE@@@std@@@std@@IAE@XZ$0 1002b7f0 f   OgreD3D9RenderSystem.obj
 0001:0002a7f0       __unwindfunclet$??1?$_Container_base_aux_alloc_real@V?$allocator@I@std@@@std@@IAE@XZ$0 1002b7f0 f   OgreD3D9RenderSystem.obj
 0001:0002a7f0       __unwindfunclet$??1?$_Container_base_aux_alloc_real@V?$allocator@UD3DSMSCONFLICT_T@Ogre@@@std@@@std@@IAE@XZ$0 1002b7f0 f   OgreD3D9RenderSystem.obj
 0001:0002a7f0       __unwindfunclet$??1?$_Container_base_aux_alloc_real@V?$allocator@W4VERTPROCESS_T@Ogre@@@std@@@std@@IAE@XZ$0 1002b7f0 f   OgreD3D9RenderSystem.obj
 0001:0002a7f0       __unwindfunclet$??1?$_Container_base_aux_alloc_real@V?$allocator@URTBuffer@D3D9HardwarePixelBufferManager@Ogre@@@std@@@std@@IAE@XZ$0 1002b7f0 f   OgreD3D9RenderSystem.obj
 0001:0002a7f0       __unwindfunclet$??1?$_Container_base_aux_alloc_real@V?$allocator@PAUD3DDEVCOMBO_T@Ogre@@@std@@@std@@IAE@XZ$0 1002b7f0 f   OgreD3D9RenderSystem.obj
 0001:0002a7f0       __unwindfunclet$??1?$_Container_base_aux_alloc_real@V?$allocator@UDSBuffer@D3D9HardwarePixelBufferManager@Ogre@@@std@@@std@@IAE@XZ$0 1002b7f0 f   OgreD3D9RenderSystem.obj
 0001:0002a7f0       __unwindfunclet$??1?$_Container_base_aux_alloc_real@V?$allocator@PAVD3D9TextureRenderTarget@Ogre@@@std@@@std@@IAE@XZ$0 1002b7f0 f   OgreD3D9RenderSystem.obj
 0001:0002a7f0       __unwindfunclet$??1?$_Container_base_aux_alloc_real@V?$allocator@U_D3DDISPLAYMODE@@@std@@@std@@IAE@XZ$0 1002b7f0 f   OgreD3D9RenderSystem.obj
 0001:0002a7f0       __unwindfunclet$??1?$_Container_base_aux_alloc_real@V?$allocator@PAUIDirect3DBaseTexture9@@@std@@@std@@IAE@XZ$0 1002b7f0 f   OgreD3D9RenderSystem.obj
 0001:0002a7f0       __unwindfunclet$??1?$PtrScopeGuardImpl@UD3DDEVCOMBO_T@Ogre@@@Ogre@@QAE@XZ$0 1002b7f0 f   OgreD3D9RenderSystem.obj
 0001:0002a7f0       __unwindfunclet$??1?$_Container_base_aux_alloc_real@V?$allocator@PAUD3DDEVICEINFO_T@Ogre@@@std@@@std@@IAE@XZ$0 1002b7f0 f   OgreD3D9RenderSystem.obj
 0001:0002a7f0       __unwindfunclet$??1?$_Container_base_aux_alloc_real@V?$allocator@PAUD3DADAPTER_T@Ogre@@@std@@@std@@IAE@XZ$0 1002b7f0 f   OgreD3D9RenderSystem.obj
 0001:0002a7f8       __ehhandler$??1?$_Container_base_aux_alloc_real@V?$allocator@U?$pair@$$CBTShaderEnvKey@Ogre@@PAVD3DTech@2@@std@@@std@@@std@@IAE@XZ 1002b7f8 f   OgreD3D9RenderSystem.obj
 0001:0002a7f8       __ehhandler$??1?$_Container_base_aux_alloc_real@V?$allocator@U?$pair@$$CBVFixedString@Ogre@@PAVCompiledShaderGroup@2@@std@@@std@@@std@@IAE@XZ 1002b7f8 f   OgreD3D9RenderSystem.obj
 0001:0002a7f8       __ehhandler$??1?$_Container_base_aux_alloc_real@V?$allocator@PAVD3D9VertexDecl@Ogre@@@std@@@std@@IAE@XZ 1002b7f8 f   OgreD3D9RenderSystem.obj
 0001:0002a7f8       __ehhandler$??1?$_Container_base_aux_alloc_real@V?$allocator@U?$pair@$$CBTShaderEnvKey2@Ogre@@PAVD3DShaderTechnique@2@@std@@@std@@@std@@IAE@XZ 1002b7f8 f   OgreD3D9RenderSystem.obj
 0001:0002a7f8       __ehhandler$??1?$_Container_base_aux_alloc_real@V?$allocator@W4VERTPROCESS_T@Ogre@@@std@@@std@@IAE@XZ 1002b7f8 f   OgreD3D9RenderSystem.obj
 0001:0002a7f8       __ehhandler$??0?$PtrScopeGuardImpl@UD3DDEVCOMBO_T@Ogre@@@Ogre@@IAE@PAUD3DDEVCOMBO_T@1@@Z 1002b7f8 f   OgreD3D9RenderSystem.obj
 0001:0002a7f8       __ehhandler$??1?$_Container_base_aux_alloc_real@V?$allocator@PAUD3DDEVCOMBO_T@Ogre@@@std@@@std@@IAE@XZ 1002b7f8 f   OgreD3D9RenderSystem.obj
 0001:0002a7f8       __ehhandler$??1?$_Container_base_aux_alloc_real@V?$allocator@U_D3DDISPLAYMODE@@@std@@@std@@IAE@XZ 1002b7f8 f   OgreD3D9RenderSystem.obj
 0001:0002a7f8       __ehhandler$??1?$_Container_base_aux_alloc_real@V?$allocator@PAUD3DDEVICEINFO_T@Ogre@@@std@@@std@@IAE@XZ 1002b7f8 f   OgreD3D9RenderSystem.obj
 0001:0002a7f8       __ehhandler$??1?$_Container_base_aux_alloc_real@V?$allocator@PAUD3DADAPTER_T@Ogre@@@std@@@std@@IAE@XZ 1002b7f8 f   OgreD3D9RenderSystem.obj
 0001:0002a7f8       __ehhandler$??1?$_Container_base_aux_alloc_real@V?$allocator@UD3DSMSCONFLICT_T@Ogre@@@std@@@std@@IAE@XZ 1002b7f8 f   OgreD3D9RenderSystem.obj
 0001:0002a7f8       __ehhandler$??1?$PtrScopeGuardImpl@UD3DDEVCOMBO_T@Ogre@@@Ogre@@QAE@XZ 1002b7f8 f   OgreD3D9RenderSystem.obj
 0001:0002a7f8       __ehhandler$??1?$_Container_base_aux_alloc_real@V?$allocator@I@std@@@std@@IAE@XZ 1002b7f8 f   OgreD3D9RenderSystem.obj
 0001:0002a7f8       __ehhandler$??1?$_Container_base_aux_alloc_real@V?$allocator@PAUIDirect3DBaseTexture9@@@std@@@std@@IAE@XZ 1002b7f8 f   OgreD3D9RenderSystem.obj
 0001:0002a7f8       __ehhandler$??1?$_Container_base_aux_alloc_real@V?$allocator@UPassDesc@Ogre@@@std@@@std@@IAE@XZ 1002b7f8 f   OgreD3D9RenderSystem.obj
 0001:0002a7f8       __ehhandler$??1?$_Container_base_aux_alloc_real@V?$allocator@PAVD3DRenderWindow@Ogre@@@std@@@std@@IAE@XZ 1002b7f8 f   OgreD3D9RenderSystem.obj
 0001:0002a7f8       __ehhandler$??1?$_Container_base_aux_alloc_real@V?$allocator@PAVD3D9TextureRenderTarget@Ogre@@@std@@@std@@IAE@XZ 1002b7f8 f   OgreD3D9RenderSystem.obj
 0001:0002a7f8       __ehhandler$??1?$_Container_base_aux_alloc_real@V?$allocator@D@std@@@std@@IAE@XZ 1002b7f8 f   OgreD3D9RenderSystem.obj
 0001:0002a7f8       __ehhandler$??1?$_Container_base_aux_alloc_real@V?$allocator@PAUTechniqueDesc@Ogre@@@std@@@std@@IAE@XZ 1002b7f8 f   OgreD3D9RenderSystem.obj
 0001:0002a7f8       __ehhandler$??1?$_Container_base_aux_alloc_real@V?$allocator@W4_D3DFORMAT@@@std@@@std@@IAE@XZ 1002b7f8 f   OgreD3D9RenderSystem.obj
 0001:0002a7f8       __ehhandler$??1?$_Container_base_aux_alloc_real@V?$allocator@TShaderEnvKey@Ogre@@@std@@@std@@IAE@XZ 1002b7f8 f   OgreD3D9RenderSystem.obj
 0001:0002a7f8       __ehhandler$??1?$_Container_base_aux_alloc_real@V?$allocator@W4_D3DMULTISAMPLE_TYPE@@@std@@@std@@IAE@XZ 1002b7f8 f   OgreD3D9RenderSystem.obj
 0001:0002a7f8       __ehhandler$??1?$_Container_base_aux_alloc_real@V?$allocator@UDSBuffer@D3D9HardwarePixelBufferManager@Ogre@@@std@@@std@@IAE@XZ 1002b7f8 f   OgreD3D9RenderSystem.obj
 0001:0002a7f8       __ehhandler$??1?$_Container_base_aux_alloc_real@V?$allocator@PAVCompiledShader@Ogre@@@std@@@std@@IAE@XZ 1002b7f8 f   OgreD3D9RenderSystem.obj
 0001:0002a7f8       __ehhandler$??1?$_Container_base_aux_alloc_real@V?$allocator@URTBuffer@D3D9HardwarePixelBufferManager@Ogre@@@std@@@std@@IAE@XZ 1002b7f8 f   OgreD3D9RenderSystem.obj
 0001:0002a7f8       __ehhandler$??1?$_Container_base_aux_alloc_real@V?$allocator@U_D3DXMACRO@@@std@@@std@@IAE@XZ 1002b7f8 f   OgreD3D9RenderSystem.obj
 0001:0002a7f8       __ehhandler$??1?$_Container_base_aux_alloc_real@V?$allocator@UPassData@D3DShaderTechnique@Ogre@@@std@@@std@@IAE@XZ 1002b7f8 f   OgreD3D9RenderSystem.obj
 0001:0002a7f8       __ehhandler$??1?$_Container_base_aux_alloc_real@V?$allocator@U?$pair@$$CBTShaderEnvKey@Ogre@@PAVCompiledShader@2@@std@@@std@@@std@@IAE@XZ 1002b7f8 f   OgreD3D9RenderSystem.obj
 0001:0002a7f8       __ehhandler$??1?$_Container_base_aux_alloc_real@V?$allocator@PAUTechCache@D3DMaterialTemplate@Ogre@@@std@@@std@@IAE@XZ 1002b7f8 f   OgreD3D9RenderSystem.obj
 0001:0002a820       __unwindfunclet$??0ShaderMacroMgr@Ogre@@QAE@XZ$0 1002b820 f   OgreD3D9ShaderManager.obj
 0001:0002a828       __ehhandler$??0ShaderMacroMgr@Ogre@@QAE@XZ 1002b828 f   OgreD3D9ShaderManager.obj
 0001:0002a843       __unwindfunclet$??1ShaderMacroMgr@Ogre@@QAE@XZ$0 1002b843 f   OgreD3D9ShaderManager.obj
 0001:0002a84b       __ehhandler$??1ShaderMacroMgr@Ogre@@QAE@XZ 1002b84b f   OgreD3D9ShaderManager.obj
 0001:0002a866       __unwindfunclet$??0CompiledShader@Ogre@@QAE@PAVD3DMaterialTemplate@1@W4COMPILED_TYPE@1@@Z$0 1002b866 f   OgreD3D9ShaderManager.obj
 0001:0002a871       __unwindfunclet$??0CompiledShader@Ogre@@QAE@PAVD3DMaterialTemplate@1@W4COMPILED_TYPE@1@@Z$1 1002b871 f   OgreD3D9ShaderManager.obj
 0001:0002a87f       __unwindfunclet$??0CompiledShader@Ogre@@QAE@PAVD3DMaterialTemplate@1@W4COMPILED_TYPE@1@@Z$2 1002b87f f   OgreD3D9ShaderManager.obj
 0001:0002a88d       __ehhandler$??0CompiledShader@Ogre@@QAE@PAVD3DMaterialTemplate@1@W4COMPILED_TYPE@1@@Z 1002b88d f   OgreD3D9ShaderManager.obj
 0001:0002a8a8       __unwindfunclet$??1CompiledShader@Ogre@@QAE@XZ$0 1002b8a8 f   OgreD3D9ShaderManager.obj
 0001:0002a8b3       __unwindfunclet$??1CompiledShader@Ogre@@QAE@XZ$1 1002b8b3 f   OgreD3D9ShaderManager.obj
 0001:0002a8c1       __unwindfunclet$??1CompiledShader@Ogre@@QAE@XZ$2 1002b8c1 f   OgreD3D9ShaderManager.obj
 0001:0002a8cf       __ehhandler$??1CompiledShader@Ogre@@QAE@XZ 1002b8cf f   OgreD3D9ShaderManager.obj
 0001:0002a8ea       __unwindfunclet$?cacheTechnique@CompiledShader@Ogre@@QAEXXZ$0 1002b8ea f   OgreD3D9ShaderManager.obj
 0001:0002a8f5       __ehhandler$?cacheTechnique@CompiledShader@Ogre@@QAEXXZ 1002b8f5 f   OgreD3D9ShaderManager.obj
 0001:0002a910       __unwindfunclet$??0CompiledShaderGroup@Ogre@@QAE@W4COMPILED_TYPE@1@PAVD3DMaterialTemplate@1@ABVFixedString@1@@Z$0 1002b910 f   OgreD3D9ShaderManager.obj
 0001:0002a91c       __unwindfunclet$??0CompiledShaderGroup@Ogre@@QAE@W4COMPILED_TYPE@1@PAVD3DMaterialTemplate@1@ABVFixedString@1@@Z$1 1002b91c f   OgreD3D9ShaderManager.obj
 0001:0002a927       __unwindfunclet$??0CompiledShaderGroup@Ogre@@QAE@W4COMPILED_TYPE@1@PAVD3DMaterialTemplate@1@ABVFixedString@1@@Z$2 1002b927 f   OgreD3D9ShaderManager.obj
 0001:0002a932       __ehhandler$??0CompiledShaderGroup@Ogre@@QAE@W4COMPILED_TYPE@1@PAVD3DMaterialTemplate@1@ABVFixedString@1@@Z 1002b932 f   OgreD3D9ShaderManager.obj
 0001:0002a94d       __unwindfunclet$??1CompiledShaderGroup@Ogre@@QAE@XZ$0 1002b94d f   OgreD3D9ShaderManager.obj
 0001:0002a959       __unwindfunclet$??1CompiledShaderGroup@Ogre@@QAE@XZ$1 1002b959 f   OgreD3D9ShaderManager.obj
 0001:0002a964       __unwindfunclet$??1CompiledShaderGroup@Ogre@@QAE@XZ$2 1002b964 f   OgreD3D9ShaderManager.obj
 0001:0002a96f       __ehhandler$??1CompiledShaderGroup@Ogre@@QAE@XZ 1002b96f f   OgreD3D9ShaderManager.obj
 0001:0002a98a       __unwindfunclet$?createCompiledShader@CompiledShaderGroup@Ogre@@QAEPAVCompiledShader@2@ABUShaderEnvFlags@2@ABUMaterialMacro@2@@Z$0 1002b98a f   OgreD3D9ShaderManager.obj
 0001:0002a995       __unwindfunclet$?createCompiledShader@CompiledShaderGroup@Ogre@@QAEPAVCompiledShader@2@ABUShaderEnvFlags@2@ABUMaterialMacro@2@@Z$1 1002b995 f   OgreD3D9ShaderManager.obj
 0001:0002a99d       __ehhandler$?createCompiledShader@CompiledShaderGroup@Ogre@@QAEPAVCompiledShader@2@ABUShaderEnvFlags@2@ABUMaterialMacro@2@@Z 1002b99d f   OgreD3D9ShaderManager.obj
 0001:0002a9bb       __unwindfunclet$??0D3DShaderTechnique@Ogre@@QAE@PAVD3DMaterialTemplate@1@ABUShaderEnvFlags@1@ABUMaterialMacro@1@IW4RenderUsage@1@@Z$0 1002b9bb f   OgreD3D9ShaderManager.obj
 0001:0002a9c3       __unwindfunclet$??0D3DShaderTechnique@Ogre@@QAE@PAVD3DMaterialTemplate@1@ABUShaderEnvFlags@1@ABUMaterialMacro@1@IW4RenderUsage@1@@Z$1 1002b9c3 f   OgreD3D9ShaderManager.obj
 0001:0002a9d1       __ehhandler$??0D3DShaderTechnique@Ogre@@QAE@PAVD3DMaterialTemplate@1@ABUShaderEnvFlags@1@ABUMaterialMacro@1@IW4RenderUsage@1@@Z 1002b9d1 f   OgreD3D9ShaderManager.obj
 0001:0002a9ec       __unwindfunclet$??1D3DShaderTechnique@Ogre@@UAE@XZ$0 1002b9ec f   OgreD3D9ShaderManager.obj
 0001:0002a9f4       __unwindfunclet$??1D3DShaderTechnique@Ogre@@UAE@XZ$1 1002b9f4 f   OgreD3D9ShaderManager.obj
 0001:0002aa02       __ehhandler$??1D3DShaderTechnique@Ogre@@UAE@XZ 1002ba02 f   OgreD3D9ShaderManager.obj
 0001:0002aa20       __unwindfunclet$??1TechniqueDesc@Ogre@@QAE@XZ$0 1002ba20 f   OgreD3D9ShaderManager.obj
 0001:0002aa20       __unwindfunclet$??0TechniqueDesc@Ogre@@QAE@XZ$0 1002ba20 f   OgreD3D9ShaderManager.obj
 0001:0002aa2b       __ehhandler$??0TechniqueDesc@Ogre@@QAE@XZ 1002ba2b f   OgreD3D9ShaderManager.obj
 0001:0002aa2b       __ehhandler$??1TechniqueDesc@Ogre@@QAE@XZ 1002ba2b f   OgreD3D9ShaderManager.obj
 0001:0002aa50       __unwindfunclet$??1?$map@TShaderEnvKey@Ogre@@PAVCompiledShader@2@U?$less@TShaderEnvKey@Ogre@@@std@@V?$allocator@U?$pair@$$CBTShaderEnvKey@Ogre@@PAVCompiledShader@2@@std@@@5@@std@@QAE@XZ$0 1002ba50 f   OgreD3D9ShaderManager.obj
 0001:0002aa50       __unwindfunclet$??1?$map@TShaderEnvKey@Ogre@@PAVD3DTech@2@U?$less@TShaderEnvKey@Ogre@@@std@@V?$allocator@U?$pair@$$CBTShaderEnvKey@Ogre@@PAVD3DTech@2@@std@@@5@@std@@QAE@XZ$0 1002ba50 f   OgreD3D9ShaderManager.obj
 0001:0002aa58       __ehhandler$??1?$map@TShaderEnvKey@Ogre@@PAVCompiledShader@2@U?$less@TShaderEnvKey@Ogre@@@std@@V?$allocator@U?$pair@$$CBTShaderEnvKey@Ogre@@PAVCompiledShader@2@@std@@@5@@std@@QAE@XZ 1002ba58 f   OgreD3D9ShaderManager.obj
 0001:0002aa58       __ehhandler$??1?$map@TShaderEnvKey@Ogre@@PAVD3DTech@2@U?$less@TShaderEnvKey@Ogre@@@std@@V?$allocator@U?$pair@$$CBTShaderEnvKey@Ogre@@PAVD3DTech@2@@std@@@5@@std@@QAE@XZ 1002ba58 f   OgreD3D9ShaderManager.obj
 0001:0002aa80       __unwindfunclet$??0?$vector@PAUTechCache@D3DMaterialTemplate@Ogre@@V?$allocator@PAUTechCache@D3DMaterialTemplate@Ogre@@@std@@@std@@QAE@XZ$0 1002ba80 f   OgreD3D9ShaderManager.obj
 0001:0002aa80       __unwindfunclet$??0?$vector@PAVD3D9TextureRenderTarget@Ogre@@V?$allocator@PAVD3D9TextureRenderTarget@Ogre@@@std@@@std@@QAE@XZ$0 1002ba80 f   OgreD3D9ShaderManager.obj
 0001:0002aa80       __unwindfunclet$??0?$vector@URTBuffer@D3D9HardwarePixelBufferManager@Ogre@@V?$allocator@URTBuffer@D3D9HardwarePixelBufferManager@Ogre@@@std@@@std@@QAE@XZ$0 1002ba80 f   OgreD3D9ShaderManager.obj
 0001:0002aa80       __unwindfunclet$??0?$vector@UDSBuffer@D3D9HardwarePixelBufferManager@Ogre@@V?$allocator@UDSBuffer@D3D9HardwarePixelBufferManager@Ogre@@@std@@@std@@QAE@XZ$0 1002ba80 f   OgreD3D9ShaderManager.obj
 0001:0002aa80       __unwindfunclet$??0?$vector@U_D3DXMACRO@@V?$allocator@U_D3DXMACRO@@@std@@@std@@QAE@XZ$0 1002ba80 f   OgreD3D9ShaderManager.obj
 0001:0002aa80       __unwindfunclet$??0?$_Tree_nod@V?$_Tmap_traits@VFixedString@Ogre@@PAVCompiledShaderGroup@2@U?$less@VFixedString@Ogre@@@std@@V?$allocator@U?$pair@$$CBVFixedString@Ogre@@PAVCompiledShaderGroup@2@@std@@@5@$0A@@std@@@std@@IAE@ABU?$less@VFixedString@Ogre@@@1@V?$allocator@U?$pair@$$CBVFixedString@Ogre@@PAVCompiledShaderGroup@2@@std@@@1@@Z$0 1002ba80 f   OgreD3D9ShaderManager.obj
 0001:0002aa80       __unwindfunclet$??0?$vector@PAVD3DRenderWindow@Ogre@@V?$allocator@PAVD3DRenderWindow@Ogre@@@std@@@std@@QAE@XZ$0 1002ba80 f   OgreD3D9ShaderManager.obj
 0001:0002aa80       __unwindfunclet$??0?$vector@PAUIDirect3DBaseTexture9@@V?$allocator@PAUIDirect3DBaseTexture9@@@std@@@std@@QAE@XZ$0 1002ba80 f   OgreD3D9ShaderManager.obj
 0001:0002aa80       __unwindfunclet$??0?$vector@PAUD3DADAPTER_T@Ogre@@V?$allocator@PAUD3DADAPTER_T@Ogre@@@std@@@std@@QAE@XZ$0 1002ba80 f   OgreD3D9ShaderManager.obj
 0001:0002aa80       __unwindfunclet$??0?$vector@UPassData@D3DShaderTechnique@Ogre@@V?$allocator@UPassData@D3DShaderTechnique@Ogre@@@std@@@std@@QAE@XZ$0 1002ba80 f   OgreD3D9ShaderManager.obj
 0001:0002aa80       __unwindfunclet$??0?$_Tree_nod@V?$_Tmap_traits@TShaderEnvKey2@Ogre@@PAVD3DShaderTechnique@2@U?$less@TShaderEnvKey2@Ogre@@@std@@V?$allocator@U?$pair@$$CBTShaderEnvKey2@Ogre@@PAVD3DShaderTechnique@2@@std@@@5@$0A@@std@@@std@@IAE@ABU?$less@TShaderEnvKey2@Ogre@@@1@V?$allocator@U?$pair@$$CBTShaderEnvKey2@Ogre@@PAVD3DShaderTechnique@2@@std@@@1@@Z$0 1002ba80 f   OgreD3D9ShaderManager.obj
 0001:0002aa80       __unwindfunclet$??0?$_Tree_nod@V?$_Tmap_traits@TShaderEnvKey@Ogre@@PAVD3DTech@2@U?$less@TShaderEnvKey@Ogre@@@std@@V?$allocator@U?$pair@$$CBTShaderEnvKey@Ogre@@PAVD3DTech@2@@std@@@5@$0A@@std@@@std@@IAE@ABU?$less@TShaderEnvKey@Ogre@@@1@V?$allocator@U?$pair@$$CBTShaderEnvKey@Ogre@@PAVD3DTech@2@@std@@@1@@Z$0 1002ba80 f   OgreD3D9ShaderManager.obj
 0001:0002aa80       __unwindfunclet$??0?$vector@PAUD3DDEVICEINFO_T@Ogre@@V?$allocator@PAUD3DDEVICEINFO_T@Ogre@@@std@@@std@@QAE@XZ$0 1002ba80 f   OgreD3D9ShaderManager.obj
 0001:0002aa80       __unwindfunclet$??0?$vector@UPassDesc@Ogre@@V?$allocator@UPassDesc@Ogre@@@std@@@std@@QAE@XZ$0 1002ba80 f   OgreD3D9ShaderManager.obj
 0001:0002aa80       __unwindfunclet$??0?$vector@PAUTechniqueDesc@Ogre@@V?$allocator@PAUTechniqueDesc@Ogre@@@std@@@std@@QAE@XZ$0 1002ba80 f   OgreD3D9ShaderManager.obj
 0001:0002aa80       __unwindfunclet$??0?$vector@DV?$allocator@D@std@@@std@@QAE@XZ$0 1002ba80 f   OgreD3D9ShaderManager.obj
 0001:0002aa80       __unwindfunclet$??0?$vector@U_D3DDISPLAYMODE@@V?$allocator@U_D3DDISPLAYMODE@@@std@@@std@@QAE@XZ$0 1002ba80 f   OgreD3D9ShaderManager.obj
 0001:0002aa80       __unwindfunclet$??0?$_Tree_nod@V?$_Tmap_traits@TShaderEnvKey@Ogre@@PAVCompiledShader@2@U?$less@TShaderEnvKey@Ogre@@@std@@V?$allocator@U?$pair@$$CBTShaderEnvKey@Ogre@@PAVCompiledShader@2@@std@@@5@$0A@@std@@@std@@IAE@ABU?$less@TShaderEnvKey@Ogre@@@1@V?$allocator@U?$pair@$$CBTShaderEnvKey@Ogre@@PAVCompiledShader@2@@std@@@1@@Z$0 1002ba80 f   OgreD3D9ShaderManager.obj
 0001:0002aa80       __unwindfunclet$??0?$vector@PAVD3D9VertexDecl@Ogre@@V?$allocator@PAVD3D9VertexDecl@Ogre@@@std@@@std@@QAE@XZ$0 1002ba80 f   OgreD3D9ShaderManager.obj
 0001:0002aa80       __unwindfunclet$??0?$vector@TShaderEnvKey@Ogre@@V?$allocator@TShaderEnvKey@Ogre@@@std@@@std@@QAE@XZ$0 1002ba80 f   OgreD3D9ShaderManager.obj
 0001:0002aa80       __unwindfunclet$??0?$vector@PAUD3DDEVCOMBO_T@Ogre@@V?$allocator@PAUD3DDEVCOMBO_T@Ogre@@@std@@@std@@QAE@XZ$0 1002ba80 f   OgreD3D9ShaderManager.obj
 0001:0002aa80       __unwindfunclet$??0?$vector@PAVCompiledShader@Ogre@@V?$allocator@PAVCompiledShader@Ogre@@@std@@@std@@QAE@XZ$0 1002ba80 f   OgreD3D9ShaderManager.obj
 0001:0002aa80       __unwindfunclet$??0?$vector@W4_D3DFORMAT@@V?$allocator@W4_D3DFORMAT@@@std@@@std@@QAE@XZ$0 1002ba80 f   OgreD3D9ShaderManager.obj
 0001:0002aa80       __unwindfunclet$??0?$vector@W4_D3DMULTISAMPLE_TYPE@@V?$allocator@W4_D3DMULTISAMPLE_TYPE@@@std@@@std@@QAE@XZ$0 1002ba80 f   OgreD3D9ShaderManager.obj
 0001:0002aa80       __unwindfunclet$??0?$vector@W4VERTPROCESS_T@Ogre@@V?$allocator@W4VERTPROCESS_T@Ogre@@@std@@@std@@QAE@XZ$0 1002ba80 f   OgreD3D9ShaderManager.obj
 0001:0002aa80       __unwindfunclet$??0?$vector@IV?$allocator@I@std@@@std@@QAE@XZ$0 1002ba80 f   OgreD3D9ShaderManager.obj
 0001:0002aa80       __unwindfunclet$??0?$vector@UD3DSMSCONFLICT_T@Ogre@@V?$allocator@UD3DSMSCONFLICT_T@Ogre@@@std@@@std@@QAE@XZ$0 1002ba80 f   OgreD3D9ShaderManager.obj
 0001:0002aa88       __ehhandler$??0?$vector@UD3DSMSCONFLICT_T@Ogre@@V?$allocator@UD3DSMSCONFLICT_T@Ogre@@@std@@@std@@QAE@XZ 1002ba88 f   OgreD3D9ShaderManager.obj
 0001:0002aa88       __ehhandler$??0?$vector@UPassDesc@Ogre@@V?$allocator@UPassDesc@Ogre@@@std@@@std@@QAE@XZ 1002ba88 f   OgreD3D9ShaderManager.obj
 0001:0002aa88       __ehhandler$??0?$_Tree_nod@V?$_Tmap_traits@TShaderEnvKey2@Ogre@@PAVD3DShaderTechnique@2@U?$less@TShaderEnvKey2@Ogre@@@std@@V?$allocator@U?$pair@$$CBTShaderEnvKey2@Ogre@@PAVD3DShaderTechnique@2@@std@@@5@$0A@@std@@@std@@IAE@ABU?$less@TShaderEnvKey2@Ogre@@@1@V?$allocator@U?$pair@$$CBTShaderEnvKey2@Ogre@@PAVD3DShaderTechnique@2@@std@@@1@@Z 1002ba88 f   OgreD3D9ShaderManager.obj
 0001:0002aa88       __ehhandler$??0?$_Tree_nod@V?$_Tmap_traits@VFixedString@Ogre@@PAVCompiledShaderGroup@2@U?$less@VFixedString@Ogre@@@std@@V?$allocator@U?$pair@$$CBVFixedString@Ogre@@PAVCompiledShaderGroup@2@@std@@@5@$0A@@std@@@std@@IAE@ABU?$less@VFixedString@Ogre@@@1@V?$allocator@U?$pair@$$CBVFixedString@Ogre@@PAVCompiledShaderGroup@2@@std@@@1@@Z 1002ba88 f   OgreD3D9ShaderManager.obj
 0001:0002aa88       __ehhandler$??0?$vector@IV?$allocator@I@std@@@std@@QAE@XZ 1002ba88 f   OgreD3D9ShaderManager.obj
 0001:0002aa88       __ehhandler$??0?$vector@URTBuffer@D3D9HardwarePixelBufferManager@Ogre@@V?$allocator@URTBuffer@D3D9HardwarePixelBufferManager@Ogre@@@std@@@std@@QAE@XZ 1002ba88 f   OgreD3D9ShaderManager.obj
 0001:0002aa88       __ehhandler$??0?$_Tree_nod@V?$_Tmap_traits@TShaderEnvKey@Ogre@@PAVD3DTech@2@U?$less@TShaderEnvKey@Ogre@@@std@@V?$allocator@U?$pair@$$CBTShaderEnvKey@Ogre@@PAVD3DTech@2@@std@@@5@$0A@@std@@@std@@IAE@ABU?$less@TShaderEnvKey@Ogre@@@1@V?$allocator@U?$pair@$$CBTShaderEnvKey@Ogre@@PAVD3DTech@2@@std@@@1@@Z 1002ba88 f   OgreD3D9ShaderManager.obj
 0001:0002aa88       __ehhandler$??0?$vector@UDSBuffer@D3D9HardwarePixelBufferManager@Ogre@@V?$allocator@UDSBuffer@D3D9HardwarePixelBufferManager@Ogre@@@std@@@std@@QAE@XZ 1002ba88 f   OgreD3D9ShaderManager.obj
 0001:0002aa88       __ehhandler$??0?$vector@W4_D3DMULTISAMPLE_TYPE@@V?$allocator@W4_D3DMULTISAMPLE_TYPE@@@std@@@std@@QAE@XZ 1002ba88 f   OgreD3D9ShaderManager.obj
 0001:0002aa88       __ehhandler$??0?$vector@W4VERTPROCESS_T@Ogre@@V?$allocator@W4VERTPROCESS_T@Ogre@@@std@@@std@@QAE@XZ 1002ba88 f   OgreD3D9ShaderManager.obj
 0001:0002aa88       __ehhandler$??0?$_Tree_nod@V?$_Tmap_traits@TShaderEnvKey@Ogre@@PAVCompiledShader@2@U?$less@TShaderEnvKey@Ogre@@@std@@V?$allocator@U?$pair@$$CBTShaderEnvKey@Ogre@@PAVCompiledShader@2@@std@@@5@$0A@@std@@@std@@IAE@ABU?$less@TShaderEnvKey@Ogre@@@1@V?$allocator@U?$pair@$$CBTShaderEnvKey@Ogre@@PAVCompiledShader@2@@std@@@1@@Z 1002ba88 f   OgreD3D9ShaderManager.obj
 0001:0002aa88       __ehhandler$??0?$vector@PAVD3D9TextureRenderTarget@Ogre@@V?$allocator@PAVD3D9TextureRenderTarget@Ogre@@@std@@@std@@QAE@XZ 1002ba88 f   OgreD3D9ShaderManager.obj
 0001:0002aa88       __ehhandler$??0?$vector@W4_D3DFORMAT@@V?$allocator@W4_D3DFORMAT@@@std@@@std@@QAE@XZ 1002ba88 f   OgreD3D9ShaderManager.obj
 0001:0002aa88       __ehhandler$??0?$vector@PAVD3D9VertexDecl@Ogre@@V?$allocator@PAVD3D9VertexDecl@Ogre@@@std@@@std@@QAE@XZ 1002ba88 f   OgreD3D9ShaderManager.obj
 0001:0002aa88       __ehhandler$??0?$vector@PAVCompiledShader@Ogre@@V?$allocator@PAVCompiledShader@Ogre@@@std@@@std@@QAE@XZ 1002ba88 f   OgreD3D9ShaderManager.obj
 0001:0002aa88       __ehhandler$??0?$vector@PAUIDirect3DBaseTexture9@@V?$allocator@PAUIDirect3DBaseTexture9@@@std@@@std@@QAE@XZ 1002ba88 f   OgreD3D9ShaderManager.obj
 0001:0002aa88       __ehhandler$??0?$vector@PAVD3DRenderWindow@Ogre@@V?$allocator@PAVD3DRenderWindow@Ogre@@@std@@@std@@QAE@XZ 1002ba88 f   OgreD3D9ShaderManager.obj
 0001:0002aa88       __ehhandler$??0?$vector@TShaderEnvKey@Ogre@@V?$allocator@TShaderEnvKey@Ogre@@@std@@@std@@QAE@XZ 1002ba88 f   OgreD3D9ShaderManager.obj
 0001:0002aa88       __ehhandler$??0?$vector@PAUD3DDEVCOMBO_T@Ogre@@V?$allocator@PAUD3DDEVCOMBO_T@Ogre@@@std@@@std@@QAE@XZ 1002ba88 f   OgreD3D9ShaderManager.obj
 0001:0002aa88       __ehhandler$??0?$vector@U_D3DXMACRO@@V?$allocator@U_D3DXMACRO@@@std@@@std@@QAE@XZ 1002ba88 f   OgreD3D9ShaderManager.obj
 0001:0002aa88       __ehhandler$??0?$vector@UPassData@D3DShaderTechnique@Ogre@@V?$allocator@UPassData@D3DShaderTechnique@Ogre@@@std@@@std@@QAE@XZ 1002ba88 f   OgreD3D9ShaderManager.obj
 0001:0002aa88       __ehhandler$??0?$vector@PAUTechCache@D3DMaterialTemplate@Ogre@@V?$allocator@PAUTechCache@D3DMaterialTemplate@Ogre@@@std@@@std@@QAE@XZ 1002ba88 f   OgreD3D9ShaderManager.obj
 0001:0002aa88       __ehhandler$??0?$vector@DV?$allocator@D@std@@@std@@QAE@XZ 1002ba88 f   OgreD3D9ShaderManager.obj
 0001:0002aa88       __ehhandler$??0?$vector@PAUD3DADAPTER_T@Ogre@@V?$allocator@PAUD3DADAPTER_T@Ogre@@@std@@@std@@QAE@XZ 1002ba88 f   OgreD3D9ShaderManager.obj
 0001:0002aa88       __ehhandler$??0?$vector@PAUD3DDEVICEINFO_T@Ogre@@V?$allocator@PAUD3DDEVICEINFO_T@Ogre@@@std@@@std@@QAE@XZ 1002ba88 f   OgreD3D9ShaderManager.obj
 0001:0002aa88       __ehhandler$??0?$vector@PAUTechniqueDesc@Ogre@@V?$allocator@PAUTechniqueDesc@Ogre@@@std@@@std@@QAE@XZ 1002ba88 f   OgreD3D9ShaderManager.obj
 0001:0002aa88       __ehhandler$??0?$vector@U_D3DDISPLAYMODE@@V?$allocator@U_D3DDISPLAYMODE@@@std@@@std@@QAE@XZ 1002ba88 f   OgreD3D9ShaderManager.obj
 0001:0002aab0       __unwindfunclet$??1?$vector@PAVD3DRenderWindow@Ogre@@V?$allocator@PAVD3DRenderWindow@Ogre@@@std@@@std@@QAE@XZ$0 1002bab0 f   OgreD3D9ShaderManager.obj
 0001:0002aab0       __unwindfunclet$??1?$vector@PAUD3DDEVCOMBO_T@Ogre@@V?$allocator@PAUD3DDEVCOMBO_T@Ogre@@@std@@@std@@QAE@XZ$0 1002bab0 f   OgreD3D9ShaderManager.obj
 0001:0002aab0       __unwindfunclet$??1?$vector@PAUTechniqueDesc@Ogre@@V?$allocator@PAUTechniqueDesc@Ogre@@@std@@@std@@QAE@XZ$0 1002bab0 f   OgreD3D9ShaderManager.obj
 0001:0002aab0       __unwindfunclet$??1?$vector@UPassDesc@Ogre@@V?$allocator@UPassDesc@Ogre@@@std@@@std@@QAE@XZ$0 1002bab0 f   OgreD3D9ShaderManager.obj
 0001:0002aab0       __unwindfunclet$??1?$vector@U_D3DDISPLAYMODE@@V?$allocator@U_D3DDISPLAYMODE@@@std@@@std@@QAE@XZ$0 1002bab0 f   OgreD3D9ShaderManager.obj
 0001:0002aab0       __unwindfunclet$??1?$vector@UD3DSMSCONFLICT_T@Ogre@@V?$allocator@UD3DSMSCONFLICT_T@Ogre@@@std@@@std@@QAE@XZ$0 1002bab0 f   OgreD3D9ShaderManager.obj
 0001:0002aab0       __unwindfunclet$??1?$vector@IV?$allocator@I@std@@@std@@QAE@XZ$0 1002bab0 f   OgreD3D9ShaderManager.obj
 0001:0002aab0       __unwindfunclet$??1?$vector@DV?$allocator@D@std@@@std@@QAE@XZ$0 1002bab0 f   OgreD3D9ShaderManager.obj
 0001:0002aab0       __unwindfunclet$??1?$_Tree_nod@V?$_Tmap_traits@TShaderEnvKey2@Ogre@@PAVD3DShaderTechnique@2@U?$less@TShaderEnvKey2@Ogre@@@std@@V?$allocator@U?$pair@$$CBTShaderEnvKey2@Ogre@@PAVD3DShaderTechnique@2@@std@@@5@$0A@@std@@@std@@QAE@XZ$0 1002bab0 f   OgreD3D9ShaderManager.obj
 0001:0002aab0       __unwindfunclet$??1?$vector@PAUD3DDEVICEINFO_T@Ogre@@V?$allocator@PAUD3DDEVICEINFO_T@Ogre@@@std@@@std@@QAE@XZ$0 1002bab0 f   OgreD3D9ShaderManager.obj
 0001:0002aab0       __unwindfunclet$??1?$vector@UDSBuffer@D3D9HardwarePixelBufferManager@Ogre@@V?$allocator@UDSBuffer@D3D9HardwarePixelBufferManager@Ogre@@@std@@@std@@QAE@XZ$0 1002bab0 f   OgreD3D9ShaderManager.obj
 0001:0002aab0       __unwindfunclet$??1?$vector@W4_D3DMULTISAMPLE_TYPE@@V?$allocator@W4_D3DMULTISAMPLE_TYPE@@@std@@@std@@QAE@XZ$0 1002bab0 f   OgreD3D9ShaderManager.obj
 0001:0002aab0       __unwindfunclet$??1?$vector@PAUD3DADAPTER_T@Ogre@@V?$allocator@PAUD3DADAPTER_T@Ogre@@@std@@@std@@QAE@XZ$0 1002bab0 f   OgreD3D9ShaderManager.obj
 0001:0002aab0       __unwindfunclet$??1?$_Tree_nod@V?$_Tmap_traits@VFixedString@Ogre@@PAVCompiledShaderGroup@2@U?$less@VFixedString@Ogre@@@std@@V?$allocator@U?$pair@$$CBVFixedString@Ogre@@PAVCompiledShaderGroup@2@@std@@@5@$0A@@std@@@std@@QAE@XZ$0 1002bab0 f   OgreD3D9ShaderManager.obj
 0001:0002aab0       __unwindfunclet$??1?$vector@PAVD3D9TextureRenderTarget@Ogre@@V?$allocator@PAVD3D9TextureRenderTarget@Ogre@@@std@@@std@@QAE@XZ$0 1002bab0 f   OgreD3D9ShaderManager.obj
 0001:0002aab0       __unwindfunclet$??1?$vector@PAUTechCache@D3DMaterialTemplate@Ogre@@V?$allocator@PAUTechCache@D3DMaterialTemplate@Ogre@@@std@@@std@@QAE@XZ$0 1002bab0 f   OgreD3D9ShaderManager.obj
 0001:0002aab0       __unwindfunclet$??1?$vector@PAVD3D9VertexDecl@Ogre@@V?$allocator@PAVD3D9VertexDecl@Ogre@@@std@@@std@@QAE@XZ$0 1002bab0 f   OgreD3D9ShaderManager.obj
 0001:0002aab0       __unwindfunclet$??1?$vector@PAVCompiledShader@Ogre@@V?$allocator@PAVCompiledShader@Ogre@@@std@@@std@@QAE@XZ$0 1002bab0 f   OgreD3D9ShaderManager.obj
 0001:0002aab0       __unwindfunclet$??1?$vector@W4_D3DFORMAT@@V?$allocator@W4_D3DFORMAT@@@std@@@std@@QAE@XZ$0 1002bab0 f   OgreD3D9ShaderManager.obj
 0001:0002aab0       __unwindfunclet$??1?$_Tree_nod@V?$_Tmap_traits@TShaderEnvKey@Ogre@@PAVD3DTech@2@U?$less@TShaderEnvKey@Ogre@@@std@@V?$allocator@U?$pair@$$CBTShaderEnvKey@Ogre@@PAVD3DTech@2@@std@@@5@$0A@@std@@@std@@QAE@XZ$0 1002bab0 f   OgreD3D9ShaderManager.obj
 0001:0002aab0       __unwindfunclet$??1?$vector@UPassData@D3DShaderTechnique@Ogre@@V?$allocator@UPassData@D3DShaderTechnique@Ogre@@@std@@@std@@QAE@XZ$0 1002bab0 f   OgreD3D9ShaderManager.obj
 0001:0002aab0       __unwindfunclet$??1?$vector@W4VERTPROCESS_T@Ogre@@V?$allocator@W4VERTPROCESS_T@Ogre@@@std@@@std@@QAE@XZ$0 1002bab0 f   OgreD3D9ShaderManager.obj
 0001:0002aab0       __unwindfunclet$??1?$_Tree_nod@V?$_Tmap_traits@TShaderEnvKey@Ogre@@PAVCompiledShader@2@U?$less@TShaderEnvKey@Ogre@@@std@@V?$allocator@U?$pair@$$CBTShaderEnvKey@Ogre@@PAVCompiledShader@2@@std@@@5@$0A@@std@@@std@@QAE@XZ$0 1002bab0 f   OgreD3D9ShaderManager.obj
 0001:0002aab0       __unwindfunclet$??1?$vector@U_D3DXMACRO@@V?$allocator@U_D3DXMACRO@@@std@@@std@@QAE@XZ$0 1002bab0 f   OgreD3D9ShaderManager.obj
 0001:0002aab0       __unwindfunclet$??1?$vector@PAUIDirect3DBaseTexture9@@V?$allocator@PAUIDirect3DBaseTexture9@@@std@@@std@@QAE@XZ$0 1002bab0 f   OgreD3D9ShaderManager.obj
 0001:0002aab0       __unwindfunclet$??1?$vector@TShaderEnvKey@Ogre@@V?$allocator@TShaderEnvKey@Ogre@@@std@@@std@@QAE@XZ$0 1002bab0 f   OgreD3D9ShaderManager.obj
 0001:0002aab0       __unwindfunclet$??1?$vector@URTBuffer@D3D9HardwarePixelBufferManager@Ogre@@V?$allocator@URTBuffer@D3D9HardwarePixelBufferManager@Ogre@@@std@@@std@@QAE@XZ$0 1002bab0 f   OgreD3D9ShaderManager.obj
 0001:0002aab8       __ehhandler$??1?$vector@PAUD3DDEVCOMBO_T@Ogre@@V?$allocator@PAUD3DDEVCOMBO_T@Ogre@@@std@@@std@@QAE@XZ 1002bab8 f   OgreD3D9ShaderManager.obj
 0001:0002aab8       __ehhandler$??1?$vector@U_D3DXMACRO@@V?$allocator@U_D3DXMACRO@@@std@@@std@@QAE@XZ 1002bab8 f   OgreD3D9ShaderManager.obj
 0001:0002aab8       __ehhandler$??1?$vector@PAVD3DRenderWindow@Ogre@@V?$allocator@PAVD3DRenderWindow@Ogre@@@std@@@std@@QAE@XZ 1002bab8 f   OgreD3D9ShaderManager.obj
 0001:0002aab8       __ehhandler$??1?$vector@PAUIDirect3DBaseTexture9@@V?$allocator@PAUIDirect3DBaseTexture9@@@std@@@std@@QAE@XZ 1002bab8 f   OgreD3D9ShaderManager.obj
 0001:0002aab8       __ehhandler$??1?$vector@PAUTechniqueDesc@Ogre@@V?$allocator@PAUTechniqueDesc@Ogre@@@std@@@std@@QAE@XZ 1002bab8 f   OgreD3D9ShaderManager.obj
 0001:0002aab8       __ehhandler$??1?$_Tree_nod@V?$_Tmap_traits@TShaderEnvKey@Ogre@@PAVCompiledShader@2@U?$less@TShaderEnvKey@Ogre@@@std@@V?$allocator@U?$pair@$$CBTShaderEnvKey@Ogre@@PAVCompiledShader@2@@std@@@5@$0A@@std@@@std@@QAE@XZ 1002bab8 f   OgreD3D9ShaderManager.obj
 0001:0002aab8       __ehhandler$??1?$vector@UPassData@D3DShaderTechnique@Ogre@@V?$allocator@UPassData@D3DShaderTechnique@Ogre@@@std@@@std@@QAE@XZ 1002bab8 f   OgreD3D9ShaderManager.obj
 0001:0002aab8       __ehhandler$??1?$vector@PAVCompiledShader@Ogre@@V?$allocator@PAVCompiledShader@Ogre@@@std@@@std@@QAE@XZ 1002bab8 f   OgreD3D9ShaderManager.obj
 0001:0002aab8       __ehhandler$??1?$_Tree_nod@V?$_Tmap_traits@TShaderEnvKey@Ogre@@PAVD3DTech@2@U?$less@TShaderEnvKey@Ogre@@@std@@V?$allocator@U?$pair@$$CBTShaderEnvKey@Ogre@@PAVD3DTech@2@@std@@@5@$0A@@std@@@std@@QAE@XZ 1002bab8 f   OgreD3D9ShaderManager.obj
 0001:0002aab8       __ehhandler$??1?$vector@PAUTechCache@D3DMaterialTemplate@Ogre@@V?$allocator@PAUTechCache@D3DMaterialTemplate@Ogre@@@std@@@std@@QAE@XZ 1002bab8 f   OgreD3D9ShaderManager.obj
 0001:0002aab8       __ehhandler$??1?$vector@W4_D3DFORMAT@@V?$allocator@W4_D3DFORMAT@@@std@@@std@@QAE@XZ 1002bab8 f   OgreD3D9ShaderManager.obj
 0001:0002aab8       __ehhandler$??1?$vector@TShaderEnvKey@Ogre@@V?$allocator@TShaderEnvKey@Ogre@@@std@@@std@@QAE@XZ 1002bab8 f   OgreD3D9ShaderManager.obj
 0001:0002aab8       __ehhandler$??1?$vector@PAVD3D9TextureRenderTarget@Ogre@@V?$allocator@PAVD3D9TextureRenderTarget@Ogre@@@std@@@std@@QAE@XZ 1002bab8 f   OgreD3D9ShaderManager.obj
 0001:0002aab8       __ehhandler$??1?$_Tree_nod@V?$_Tmap_traits@VFixedString@Ogre@@PAVCompiledShaderGroup@2@U?$less@VFixedString@Ogre@@@std@@V?$allocator@U?$pair@$$CBVFixedString@Ogre@@PAVCompiledShaderGroup@2@@std@@@5@$0A@@std@@@std@@QAE@XZ 1002bab8 f   OgreD3D9ShaderManager.obj
 0001:0002aab8       __ehhandler$??1?$vector@PAUD3DDEVICEINFO_T@Ogre@@V?$allocator@PAUD3DDEVICEINFO_T@Ogre@@@std@@@std@@QAE@XZ 1002bab8 f   OgreD3D9ShaderManager.obj
 0001:0002aab8       __ehhandler$??1?$vector@UDSBuffer@D3D9HardwarePixelBufferManager@Ogre@@V?$allocator@UDSBuffer@D3D9HardwarePixelBufferManager@Ogre@@@std@@@std@@QAE@XZ 1002bab8 f   OgreD3D9ShaderManager.obj
 0001:0002aab8       __ehhandler$??1?$vector@W4_D3DMULTISAMPLE_TYPE@@V?$allocator@W4_D3DMULTISAMPLE_TYPE@@@std@@@std@@QAE@XZ 1002bab8 f   OgreD3D9ShaderManager.obj
 0001:0002aab8       __ehhandler$??1?$vector@UD3DSMSCONFLICT_T@Ogre@@V?$allocator@UD3DSMSCONFLICT_T@Ogre@@@std@@@std@@QAE@XZ 1002bab8 f   OgreD3D9ShaderManager.obj
 0001:0002aab8       __ehhandler$??1?$vector@PAVD3D9VertexDecl@Ogre@@V?$allocator@PAVD3D9VertexDecl@Ogre@@@std@@@std@@QAE@XZ 1002bab8 f   OgreD3D9ShaderManager.obj
 0001:0002aab8       __ehhandler$??1?$vector@DV?$allocator@D@std@@@std@@QAE@XZ 1002bab8 f   OgreD3D9ShaderManager.obj
 0001:0002aab8       __ehhandler$??1?$vector@IV?$allocator@I@std@@@std@@QAE@XZ 1002bab8 f   OgreD3D9ShaderManager.obj
 0001:0002aab8       __ehhandler$??1?$vector@URTBuffer@D3D9HardwarePixelBufferManager@Ogre@@V?$allocator@URTBuffer@D3D9HardwarePixelBufferManager@Ogre@@@std@@@std@@QAE@XZ 1002bab8 f   OgreD3D9ShaderManager.obj
 0001:0002aab8       __ehhandler$??1?$vector@U_D3DDISPLAYMODE@@V?$allocator@U_D3DDISPLAYMODE@@@std@@@std@@QAE@XZ 1002bab8 f   OgreD3D9ShaderManager.obj
 0001:0002aab8       __ehhandler$??1?$_Tree_nod@V?$_Tmap_traits@TShaderEnvKey2@Ogre@@PAVD3DShaderTechnique@2@U?$less@TShaderEnvKey2@Ogre@@@std@@V?$allocator@U?$pair@$$CBTShaderEnvKey2@Ogre@@PAVD3DShaderTechnique@2@@std@@@5@$0A@@std@@@std@@QAE@XZ 1002bab8 f   OgreD3D9ShaderManager.obj
 0001:0002aab8       __ehhandler$??1?$vector@UPassDesc@Ogre@@V?$allocator@UPassDesc@Ogre@@@std@@@std@@QAE@XZ 1002bab8 f   OgreD3D9ShaderManager.obj
 0001:0002aab8       __ehhandler$??1?$vector@W4VERTPROCESS_T@Ogre@@V?$allocator@W4VERTPROCESS_T@Ogre@@@std@@@std@@QAE@XZ 1002bab8 f   OgreD3D9ShaderManager.obj
 0001:0002aab8       __ehhandler$??1?$vector@PAUD3DADAPTER_T@Ogre@@V?$allocator@PAUD3DADAPTER_T@Ogre@@@std@@@std@@QAE@XZ 1002bab8 f   OgreD3D9ShaderManager.obj
 0001:0002aae0       __unwindfunclet$??1?$_Tree_ptr@V?$_Tmap_traits@TShaderEnvKey2@Ogre@@PAVD3DShaderTechnique@2@U?$less@TShaderEnvKey2@Ogre@@@std@@V?$allocator@U?$pair@$$CBTShaderEnvKey2@Ogre@@PAVD3DShaderTechnique@2@@std@@@5@$0A@@std@@@std@@QAE@XZ$0 1002bae0 f   OgreD3D9ShaderManager.obj
 0001:0002aae0       __unwindfunclet$??1?$_Tree_ptr@V?$_Tmap_traits@TShaderEnvKey@Ogre@@PAVD3DTech@2@U?$less@TShaderEnvKey@Ogre@@@std@@V?$allocator@U?$pair@$$CBTShaderEnvKey@Ogre@@PAVD3DTech@2@@std@@@5@$0A@@std@@@std@@QAE@XZ$0 1002bae0 f   OgreD3D9ShaderManager.obj
 0001:0002aae0       __unwindfunclet$??1?$_Tree_ptr@V?$_Tmap_traits@VFixedString@Ogre@@PAVCompiledShaderGroup@2@U?$less@VFixedString@Ogre@@@std@@V?$allocator@U?$pair@$$CBVFixedString@Ogre@@PAVCompiledShaderGroup@2@@std@@@5@$0A@@std@@@std@@QAE@XZ$0 1002bae0 f   OgreD3D9ShaderManager.obj
 0001:0002aae0       __unwindfunclet$??1?$_Tree_ptr@V?$_Tmap_traits@TShaderEnvKey@Ogre@@PAVCompiledShader@2@U?$less@TShaderEnvKey@Ogre@@@std@@V?$allocator@U?$pair@$$CBTShaderEnvKey@Ogre@@PAVCompiledShader@2@@std@@@5@$0A@@std@@@std@@QAE@XZ$0 1002bae0 f   OgreD3D9ShaderManager.obj
 0001:0002aae8       __ehhandler$??1?$_Tree_ptr@V?$_Tmap_traits@TShaderEnvKey2@Ogre@@PAVD3DShaderTechnique@2@U?$less@TShaderEnvKey2@Ogre@@@std@@V?$allocator@U?$pair@$$CBTShaderEnvKey2@Ogre@@PAVD3DShaderTechnique@2@@std@@@5@$0A@@std@@@std@@QAE@XZ 1002bae8 f   OgreD3D9ShaderManager.obj
 0001:0002aae8       __ehhandler$??1?$_Tree_ptr@V?$_Tmap_traits@TShaderEnvKey@Ogre@@PAVD3DTech@2@U?$less@TShaderEnvKey@Ogre@@@std@@V?$allocator@U?$pair@$$CBTShaderEnvKey@Ogre@@PAVD3DTech@2@@std@@@5@$0A@@std@@@std@@QAE@XZ 1002bae8 f   OgreD3D9ShaderManager.obj
 0001:0002aae8       __ehhandler$??1?$_Tree_ptr@V?$_Tmap_traits@TShaderEnvKey@Ogre@@PAVCompiledShader@2@U?$less@TShaderEnvKey@Ogre@@@std@@V?$allocator@U?$pair@$$CBTShaderEnvKey@Ogre@@PAVCompiledShader@2@@std@@@5@$0A@@std@@@std@@QAE@XZ 1002bae8 f   OgreD3D9ShaderManager.obj
 0001:0002aae8       __ehhandler$??1?$_Tree_ptr@V?$_Tmap_traits@VFixedString@Ogre@@PAVCompiledShaderGroup@2@U?$less@VFixedString@Ogre@@@std@@V?$allocator@U?$pair@$$CBVFixedString@Ogre@@PAVCompiledShaderGroup@2@@std@@@5@$0A@@std@@@std@@QAE@XZ 1002bae8 f   OgreD3D9ShaderManager.obj
 0001:0002ab10       __unwindfunclet$??0?$_Tmap_traits@TShaderEnvKey@Ogre@@PAVD3DTech@2@U?$less@TShaderEnvKey@Ogre@@@std@@V?$allocator@U?$pair@$$CBTShaderEnvKey@Ogre@@PAVD3DTech@2@@std@@@5@$0A@@std@@QAE@U?$less@TShaderEnvKey@Ogre@@@1@V?$allocator@U?$pair@$$CBTShaderEnvKey@Ogre@@PAVD3DTech@2@@std@@@1@@Z$0 1002bb10 f   OgreD3D9ShaderManager.obj
 0001:0002ab10       __unwindfunclet$??0?$_Vector_val@PAVD3D9TextureRenderTarget@Ogre@@V?$allocator@PAVD3D9TextureRenderTarget@Ogre@@@std@@@std@@IAE@V?$allocator@PAVD3D9TextureRenderTarget@Ogre@@@1@@Z$0 1002bb10 f   OgreD3D9ShaderManager.obj
 0001:0002ab10       __unwindfunclet$??0?$_Vector_val@PAUIDirect3DBaseTexture9@@V?$allocator@PAUIDirect3DBaseTexture9@@@std@@@std@@IAE@V?$allocator@PAUIDirect3DBaseTexture9@@@1@@Z$0 1002bb10 f   OgreD3D9ShaderManager.obj
 0001:0002ab10       __unwindfunclet$??0?$_Vector_val@PAVD3D9VertexDecl@Ogre@@V?$allocator@PAVD3D9VertexDecl@Ogre@@@std@@@std@@IAE@V?$allocator@PAVD3D9VertexDecl@Ogre@@@1@@Z$0 1002bb10 f   OgreD3D9ShaderManager.obj
 0001:0002ab10       __unwindfunclet$??0?$_Vector_val@W4_D3DFORMAT@@V?$allocator@W4_D3DFORMAT@@@std@@@std@@IAE@V?$allocator@W4_D3DFORMAT@@@1@@Z$0 1002bb10 f   OgreD3D9ShaderManager.obj
 0001:0002ab10       __unwindfunclet$??0?$_Vector_val@UDSBuffer@D3D9HardwarePixelBufferManager@Ogre@@V?$allocator@UDSBuffer@D3D9HardwarePixelBufferManager@Ogre@@@std@@@std@@IAE@V?$allocator@UDSBuffer@D3D9HardwarePixelBufferManager@Ogre@@@1@@Z$0 1002bb10 f   OgreD3D9ShaderManager.obj
 0001:0002ab10       __unwindfunclet$??0?$_Vector_val@URTBuffer@D3D9HardwarePixelBufferManager@Ogre@@V?$allocator@URTBuffer@D3D9HardwarePixelBufferManager@Ogre@@@std@@@std@@IAE@V?$allocator@URTBuffer@D3D9HardwarePixelBufferManager@Ogre@@@1@@Z$0 1002bb10 f   OgreD3D9ShaderManager.obj
 0001:0002ab10       __unwindfunclet$??0?$_Tmap_traits@TShaderEnvKey@Ogre@@PAVCompiledShader@2@U?$less@TShaderEnvKey@Ogre@@@std@@V?$allocator@U?$pair@$$CBTShaderEnvKey@Ogre@@PAVCompiledShader@2@@std@@@5@$0A@@std@@QAE@U?$less@TShaderEnvKey@Ogre@@@1@V?$allocator@U?$pair@$$CBTShaderEnvKey@Ogre@@PAVCompiledShader@2@@std@@@1@@Z$0 1002bb10 f   OgreD3D9ShaderManager.obj
 0001:0002ab10       __unwindfunclet$??0?$_Vector_val@PAUTechCache@D3DMaterialTemplate@Ogre@@V?$allocator@PAUTechCache@D3DMaterialTemplate@Ogre@@@std@@@std@@IAE@V?$allocator@PAUTechCache@D3DMaterialTemplate@Ogre@@@1@@Z$0 1002bb10 f   OgreD3D9ShaderManager.obj
 0001:0002ab10       __unwindfunclet$??0?$_Vector_val@W4_D3DMULTISAMPLE_TYPE@@V?$allocator@W4_D3DMULTISAMPLE_TYPE@@@std@@@std@@IAE@V?$allocator@W4_D3DMULTISAMPLE_TYPE@@@1@@Z$0 1002bb10 f   OgreD3D9ShaderManager.obj
 0001:0002ab10       __unwindfunclet$??0?$_Vector_val@PAVD3DRenderWindow@Ogre@@V?$allocator@PAVD3DRenderWindow@Ogre@@@std@@@std@@IAE@V?$allocator@PAVD3DRenderWindow@Ogre@@@1@@Z$0 1002bb10 f   OgreD3D9ShaderManager.obj
 0001:0002ab10       __unwindfunclet$??0?$_Vector_val@IV?$allocator@I@std@@@std@@IAE@V?$allocator@I@1@@Z$0 1002bb10 f   OgreD3D9ShaderManager.obj
 0001:0002ab10       __unwindfunclet$??0?$_Tmap_traits@TShaderEnvKey2@Ogre@@PAVD3DShaderTechnique@2@U?$less@TShaderEnvKey2@Ogre@@@std@@V?$allocator@U?$pair@$$CBTShaderEnvKey2@Ogre@@PAVD3DShaderTechnique@2@@std@@@5@$0A@@std@@QAE@U?$less@TShaderEnvKey2@Ogre@@@1@V?$allocator@U?$pair@$$CBTShaderEnvKey2@Ogre@@PAVD3DShaderTechnique@2@@std@@@1@@Z$0 1002bb10 f   OgreD3D9ShaderManager.obj
 0001:0002ab10       __unwindfunclet$??0?$_Vector_val@UD3DSMSCONFLICT_T@Ogre@@V?$allocator@UD3DSMSCONFLICT_T@Ogre@@@std@@@std@@IAE@V?$allocator@UD3DSMSCONFLICT_T@Ogre@@@1@@Z$0 1002bb10 f   OgreD3D9ShaderManager.obj
 0001:0002ab10       __unwindfunclet$??0?$_Vector_val@PAVCompiledShader@Ogre@@V?$allocator@PAVCompiledShader@Ogre@@@std@@@std@@IAE@V?$allocator@PAVCompiledShader@Ogre@@@1@@Z$0 1002bb10 f   OgreD3D9ShaderManager.obj
 0001:0002ab10       __unwindfunclet$??0?$_Vector_val@W4VERTPROCESS_T@Ogre@@V?$allocator@W4VERTPROCESS_T@Ogre@@@std@@@std@@IAE@V?$allocator@W4VERTPROCESS_T@Ogre@@@1@@Z$0 1002bb10 f   OgreD3D9ShaderManager.obj
 0001:0002ab10       __unwindfunclet$??0?$_Vector_val@TShaderEnvKey@Ogre@@V?$allocator@TShaderEnvKey@Ogre@@@std@@@std@@IAE@V?$allocator@TShaderEnvKey@Ogre@@@1@@Z$0 1002bb10 f   OgreD3D9ShaderManager.obj
 0001:0002ab10       __unwindfunclet$??0?$_Vector_val@PAUD3DDEVCOMBO_T@Ogre@@V?$allocator@PAUD3DDEVCOMBO_T@Ogre@@@std@@@std@@IAE@V?$allocator@PAUD3DDEVCOMBO_T@Ogre@@@1@@Z$0 1002bb10 f   OgreD3D9ShaderManager.obj
 0001:0002ab10       __unwindfunclet$??0?$_Vector_val@PAUTechniqueDesc@Ogre@@V?$allocator@PAUTechniqueDesc@Ogre@@@std@@@std@@IAE@V?$allocator@PAUTechniqueDesc@Ogre@@@1@@Z$0 1002bb10 f   OgreD3D9ShaderManager.obj
 0001:0002ab10       __unwindfunclet$??0?$_Tmap_traits@VFixedString@Ogre@@PAVCompiledShaderGroup@2@U?$less@VFixedString@Ogre@@@std@@V?$allocator@U?$pair@$$CBVFixedString@Ogre@@PAVCompiledShaderGroup@2@@std@@@5@$0A@@std@@QAE@U?$less@VFixedString@Ogre@@@1@V?$allocator@U?$pair@$$CBVFixedString@Ogre@@PAVCompiledShaderGroup@2@@std@@@1@@Z$0 1002bb10 f   OgreD3D9ShaderManager.obj
 0001:0002ab10       __unwindfunclet$??0?$_Vector_val@DV?$allocator@D@std@@@std@@IAE@V?$allocator@D@1@@Z$0 1002bb10 f   OgreD3D9ShaderManager.obj
 0001:0002ab10       __unwindfunclet$??0?$_Vector_val@U_D3DDISPLAYMODE@@V?$allocator@U_D3DDISPLAYMODE@@@std@@@std@@IAE@V?$allocator@U_D3DDISPLAYMODE@@@1@@Z$0 1002bb10 f   OgreD3D9ShaderManager.obj
 0001:0002ab10       __unwindfunclet$??0?$_Vector_val@UPassDesc@Ogre@@V?$allocator@UPassDesc@Ogre@@@std@@@std@@IAE@V?$allocator@UPassDesc@Ogre@@@1@@Z$0 1002bb10 f   OgreD3D9ShaderManager.obj
 0001:0002ab10       __unwindfunclet$??0?$_Vector_val@U_D3DXMACRO@@V?$allocator@U_D3DXMACRO@@@std@@@std@@IAE@V?$allocator@U_D3DXMACRO@@@1@@Z$0 1002bb10 f   OgreD3D9ShaderManager.obj
 0001:0002ab10       __unwindfunclet$??0?$_Vector_val@UPassData@D3DShaderTechnique@Ogre@@V?$allocator@UPassData@D3DShaderTechnique@Ogre@@@std@@@std@@IAE@V?$allocator@UPassData@D3DShaderTechnique@Ogre@@@1@@Z$0 1002bb10 f   OgreD3D9ShaderManager.obj
 0001:0002ab10       __unwindfunclet$??0?$_Vector_val@PAUD3DADAPTER_T@Ogre@@V?$allocator@PAUD3DADAPTER_T@Ogre@@@std@@@std@@IAE@V?$allocator@PAUD3DADAPTER_T@Ogre@@@1@@Z$0 1002bb10 f   OgreD3D9ShaderManager.obj
 0001:0002ab10       __unwindfunclet$??0?$_Vector_val@PAUD3DDEVICEINFO_T@Ogre@@V?$allocator@PAUD3DDEVICEINFO_T@Ogre@@@std@@@std@@IAE@V?$allocator@PAUD3DDEVICEINFO_T@Ogre@@@1@@Z$0 1002bb10 f   OgreD3D9ShaderManager.obj
 0001:0002ab18       __ehhandler$??0?$_Vector_val@PAUD3DDEVICEINFO_T@Ogre@@V?$allocator@PAUD3DDEVICEINFO_T@Ogre@@@std@@@std@@IAE@V?$allocator@PAUD3DDEVICEINFO_T@Ogre@@@1@@Z 1002bb18 f   OgreD3D9ShaderManager.obj
 0001:0002ab18       __ehhandler$??0?$_Vector_val@PAVD3DRenderWindow@Ogre@@V?$allocator@PAVD3DRenderWindow@Ogre@@@std@@@std@@IAE@V?$allocator@PAVD3DRenderWindow@Ogre@@@1@@Z 1002bb18 f   OgreD3D9ShaderManager.obj
 0001:0002ab18       __ehhandler$??0?$_Vector_val@PAVD3D9VertexDecl@Ogre@@V?$allocator@PAVD3D9VertexDecl@Ogre@@@std@@@std@@IAE@V?$allocator@PAVD3D9VertexDecl@Ogre@@@1@@Z 1002bb18 f   OgreD3D9ShaderManager.obj
 0001:0002ab18       __ehhandler$??0?$_Vector_val@PAUIDirect3DBaseTexture9@@V?$allocator@PAUIDirect3DBaseTexture9@@@std@@@std@@IAE@V?$allocator@PAUIDirect3DBaseTexture9@@@1@@Z 1002bb18 f   OgreD3D9ShaderManager.obj
 0001:0002ab18       __ehhandler$??0?$_Vector_val@PAVD3D9TextureRenderTarget@Ogre@@V?$allocator@PAVD3D9TextureRenderTarget@Ogre@@@std@@@std@@IAE@V?$allocator@PAVD3D9TextureRenderTarget@Ogre@@@1@@Z 1002bb18 f   OgreD3D9ShaderManager.obj
 0001:0002ab18       __ehhandler$??0?$_Vector_val@W4_D3DFORMAT@@V?$allocator@W4_D3DFORMAT@@@std@@@std@@IAE@V?$allocator@W4_D3DFORMAT@@@1@@Z 1002bb18 f   OgreD3D9ShaderManager.obj
 0001:0002ab18       __ehhandler$??0?$_Vector_val@UDSBuffer@D3D9HardwarePixelBufferManager@Ogre@@V?$allocator@UDSBuffer@D3D9HardwarePixelBufferManager@Ogre@@@std@@@std@@IAE@V?$allocator@UDSBuffer@D3D9HardwarePixelBufferManager@Ogre@@@1@@Z 1002bb18 f   OgreD3D9ShaderManager.obj
 0001:0002ab18       __ehhandler$??0?$_Vector_val@URTBuffer@D3D9HardwarePixelBufferManager@Ogre@@V?$allocator@URTBuffer@D3D9HardwarePixelBufferManager@Ogre@@@std@@@std@@IAE@V?$allocator@URTBuffer@D3D9HardwarePixelBufferManager@Ogre@@@1@@Z 1002bb18 f   OgreD3D9ShaderManager.obj
 0001:0002ab18       __ehhandler$??0?$_Vector_val@PAUTechCache@D3DMaterialTemplate@Ogre@@V?$allocator@PAUTechCache@D3DMaterialTemplate@Ogre@@@std@@@std@@IAE@V?$allocator@PAUTechCache@D3DMaterialTemplate@Ogre@@@1@@Z 1002bb18 f   OgreD3D9ShaderManager.obj
 0001:0002ab18       __ehhandler$??0?$_Vector_val@PAUD3DADAPTER_T@Ogre@@V?$allocator@PAUD3DADAPTER_T@Ogre@@@std@@@std@@IAE@V?$allocator@PAUD3DADAPTER_T@Ogre@@@1@@Z 1002bb18 f   OgreD3D9ShaderManager.obj
 0001:0002ab18       __ehhandler$??0?$_Tmap_traits@TShaderEnvKey@Ogre@@PAVD3DTech@2@U?$less@TShaderEnvKey@Ogre@@@std@@V?$allocator@U?$pair@$$CBTShaderEnvKey@Ogre@@PAVD3DTech@2@@std@@@5@$0A@@std@@QAE@U?$less@TShaderEnvKey@Ogre@@@1@V?$allocator@U?$pair@$$CBTShaderEnvKey@Ogre@@PAVD3DTech@2@@std@@@1@@Z 1002bb18 f   OgreD3D9ShaderManager.obj
 0001:0002ab18       __ehhandler$??0?$_Tmap_traits@TShaderEnvKey@Ogre@@PAVCompiledShader@2@U?$less@TShaderEnvKey@Ogre@@@std@@V?$allocator@U?$pair@$$CBTShaderEnvKey@Ogre@@PAVCompiledShader@2@@std@@@5@$0A@@std@@QAE@U?$less@TShaderEnvKey@Ogre@@@1@V?$allocator@U?$pair@$$CBTShaderEnvKey@Ogre@@PAVCompiledShader@2@@std@@@1@@Z 1002bb18 f   OgreD3D9ShaderManager.obj
 0001:0002ab18       __ehhandler$??0?$_Vector_val@U_D3DXMACRO@@V?$allocator@U_D3DXMACRO@@@std@@@std@@IAE@V?$allocator@U_D3DXMACRO@@@1@@Z 1002bb18 f   OgreD3D9ShaderManager.obj
 0001:0002ab18       __ehhandler$??0?$_Vector_val@U_D3DDISPLAYMODE@@V?$allocator@U_D3DDISPLAYMODE@@@std@@@std@@IAE@V?$allocator@U_D3DDISPLAYMODE@@@1@@Z 1002bb18 f   OgreD3D9ShaderManager.obj
 0001:0002ab18       __ehhandler$??0?$_Vector_val@UPassDesc@Ogre@@V?$allocator@UPassDesc@Ogre@@@std@@@std@@IAE@V?$allocator@UPassDesc@Ogre@@@1@@Z 1002bb18 f   OgreD3D9ShaderManager.obj
 0001:0002ab18       __ehhandler$??0?$_Tmap_traits@TShaderEnvKey2@Ogre@@PAVD3DShaderTechnique@2@U?$less@TShaderEnvKey2@Ogre@@@std@@V?$allocator@U?$pair@$$CBTShaderEnvKey2@Ogre@@PAVD3DShaderTechnique@2@@std@@@5@$0A@@std@@QAE@U?$less@TShaderEnvKey2@Ogre@@@1@V?$allocator@U?$pair@$$CBTShaderEnvKey2@Ogre@@PAVD3DShaderTechnique@2@@std@@@1@@Z 1002bb18 f   OgreD3D9ShaderManager.obj
 0001:0002ab18       __ehhandler$??0?$_Vector_val@UPassData@D3DShaderTechnique@Ogre@@V?$allocator@UPassData@D3DShaderTechnique@Ogre@@@std@@@std@@IAE@V?$allocator@UPassData@D3DShaderTechnique@Ogre@@@1@@Z 1002bb18 f   OgreD3D9ShaderManager.obj
 0001:0002ab18       __ehhandler$??0?$_Vector_val@W4_D3DMULTISAMPLE_TYPE@@V?$allocator@W4_D3DMULTISAMPLE_TYPE@@@std@@@std@@IAE@V?$allocator@W4_D3DMULTISAMPLE_TYPE@@@1@@Z 1002bb18 f   OgreD3D9ShaderManager.obj
 0001:0002ab18       __ehhandler$??0?$_Vector_val@DV?$allocator@D@std@@@std@@IAE@V?$allocator@D@1@@Z 1002bb18 f   OgreD3D9ShaderManager.obj
 0001:0002ab18       __ehhandler$??0?$_Vector_val@IV?$allocator@I@std@@@std@@IAE@V?$allocator@I@1@@Z 1002bb18 f   OgreD3D9ShaderManager.obj
 0001:0002ab18       __ehhandler$??0?$_Vector_val@PAVCompiledShader@Ogre@@V?$allocator@PAVCompiledShader@Ogre@@@std@@@std@@IAE@V?$allocator@PAVCompiledShader@Ogre@@@1@@Z 1002bb18 f   OgreD3D9ShaderManager.obj
 0001:0002ab18       __ehhandler$??0?$_Vector_val@PAUD3DDEVCOMBO_T@Ogre@@V?$allocator@PAUD3DDEVCOMBO_T@Ogre@@@std@@@std@@IAE@V?$allocator@PAUD3DDEVCOMBO_T@Ogre@@@1@@Z 1002bb18 f   OgreD3D9ShaderManager.obj
 0001:0002ab18       __ehhandler$??0?$_Vector_val@PAUTechniqueDesc@Ogre@@V?$allocator@PAUTechniqueDesc@Ogre@@@std@@@std@@IAE@V?$allocator@PAUTechniqueDesc@Ogre@@@1@@Z 1002bb18 f   OgreD3D9ShaderManager.obj
 0001:0002ab18       __ehhandler$??0?$_Vector_val@UD3DSMSCONFLICT_T@Ogre@@V?$allocator@UD3DSMSCONFLICT_T@Ogre@@@std@@@std@@IAE@V?$allocator@UD3DSMSCONFLICT_T@Ogre@@@1@@Z 1002bb18 f   OgreD3D9ShaderManager.obj
 0001:0002ab18       __ehhandler$??0?$_Tmap_traits@VFixedString@Ogre@@PAVCompiledShaderGroup@2@U?$less@VFixedString@Ogre@@@std@@V?$allocator@U?$pair@$$CBVFixedString@Ogre@@PAVCompiledShaderGroup@2@@std@@@5@$0A@@std@@QAE@U?$less@VFixedString@Ogre@@@1@V?$allocator@U?$pair@$$CBVFixedString@Ogre@@PAVCompiledShaderGroup@2@@std@@@1@@Z 1002bb18 f   OgreD3D9ShaderManager.obj
 0001:0002ab18       __ehhandler$??0?$_Vector_val@W4VERTPROCESS_T@Ogre@@V?$allocator@W4VERTPROCESS_T@Ogre@@@std@@@std@@IAE@V?$allocator@W4VERTPROCESS_T@Ogre@@@1@@Z 1002bb18 f   OgreD3D9ShaderManager.obj
 0001:0002ab18       __ehhandler$??0?$_Vector_val@TShaderEnvKey@Ogre@@V?$allocator@TShaderEnvKey@Ogre@@@std@@@std@@IAE@V?$allocator@TShaderEnvKey@Ogre@@@1@@Z 1002bb18 f   OgreD3D9ShaderManager.obj
 0001:0002ab40       __ehhandler$?_Insert_n@?$vector@UPassDesc@Ogre@@V?$allocator@UPassDesc@Ogre@@@std@@@std@@IAEXV?$_Vector_const_iterator@UPassDesc@Ogre@@V?$allocator@UPassDesc@Ogre@@@std@@@2@IABUPassDesc@Ogre@@@Z 1002bb40 f   OgreD3D9ShaderManager.obj
 0001:0002ab70       __ehhandler$?_Insert_n@?$vector@DV?$allocator@D@std@@@std@@IAEXV?$_Vector_const_iterator@DV?$allocator@D@std@@@2@IABD@Z 1002bb70 f   OgreD3D9ShaderManager.obj
 0001:0002ab90       __unwindfunclet$??0?$_Container_base_aux_alloc_real@V?$allocator@W4_D3DFORMAT@@@std@@@std@@IAE@V?$allocator@W4_D3DFORMAT@@@1@@Z$0 1002bb90 f   OgreD3D9ShaderManager.obj
 0001:0002ab90       __unwindfunclet$??0?$_Container_base_aux_alloc_real@V?$allocator@PAVCompiledShader@Ogre@@@std@@@std@@IAE@V?$allocator@PAVCompiledShader@Ogre@@@1@@Z$0 1002bb90 f   OgreD3D9ShaderManager.obj
 0001:0002ab90       __unwindfunclet$??0?$_Container_base_aux_alloc_real@V?$allocator@PAVD3D9TextureRenderTarget@Ogre@@@std@@@std@@IAE@V?$allocator@PAVD3D9TextureRenderTarget@Ogre@@@1@@Z$0 1002bb90 f   OgreD3D9ShaderManager.obj
 0001:0002ab90       __unwindfunclet$??0?$_Container_base_aux_alloc_real@V?$allocator@W4VERTPROCESS_T@Ogre@@@std@@@std@@IAE@V?$allocator@W4VERTPROCESS_T@Ogre@@@1@@Z$0 1002bb90 f   OgreD3D9ShaderManager.obj
 0001:0002ab90       __unwindfunclet$??0?$_Container_base_aux_alloc_real@V?$allocator@TShaderEnvKey@Ogre@@@std@@@std@@IAE@V?$allocator@TShaderEnvKey@Ogre@@@1@@Z$0 1002bb90 f   OgreD3D9ShaderManager.obj
 0001:0002ab90       __unwindfunclet$??0?$_Container_base_aux_alloc_real@V?$allocator@PAUD3DADAPTER_T@Ogre@@@std@@@std@@IAE@V?$allocator@PAUD3DADAPTER_T@Ogre@@@1@@Z$0 1002bb90 f   OgreD3D9ShaderManager.obj
 0001:0002ab90       __unwindfunclet$??0?$_Container_base_aux_alloc_real@V?$allocator@W4_D3DMULTISAMPLE_TYPE@@@std@@@std@@IAE@V?$allocator@W4_D3DMULTISAMPLE_TYPE@@@1@@Z$0 1002bb90 f   OgreD3D9ShaderManager.obj
 0001:0002ab90       __unwindfunclet$??0?$_Container_base_aux_alloc_real@V?$allocator@U_D3DXMACRO@@@std@@@std@@IAE@V?$allocator@U_D3DXMACRO@@@1@@Z$0 1002bb90 f   OgreD3D9ShaderManager.obj
 0001:0002ab90       __unwindfunclet$??0?$_Container_base_aux_alloc_real@V?$allocator@U_D3DDISPLAYMODE@@@std@@@std@@IAE@V?$allocator@U_D3DDISPLAYMODE@@@1@@Z$0 1002bb90 f   OgreD3D9ShaderManager.obj
 0001:0002ab90       __unwindfunclet$??0?$_Container_base_aux_alloc_real@V?$allocator@UD3DSMSCONFLICT_T@Ogre@@@std@@@std@@IAE@V?$allocator@UD3DSMSCONFLICT_T@Ogre@@@1@@Z$0 1002bb90 f   OgreD3D9ShaderManager.obj
 0001:0002ab90       __unwindfunclet$??0?$_Container_base_aux_alloc_real@V?$allocator@UDSBuffer@D3D9HardwarePixelBufferManager@Ogre@@@std@@@std@@IAE@V?$allocator@UDSBuffer@D3D9HardwarePixelBufferManager@Ogre@@@1@@Z$0 1002bb90 f   OgreD3D9ShaderManager.obj
 0001:0002ab90       __unwindfunclet$??0?$_Container_base_aux_alloc_real@V?$allocator@U?$pair@$$CBTShaderEnvKey@Ogre@@PAVD3DTech@2@@std@@@std@@@std@@IAE@V?$allocator@U?$pair@$$CBTShaderEnvKey@Ogre@@PAVD3DTech@2@@std@@@1@@Z$0 1002bb90 f   OgreD3D9ShaderManager.obj
 0001:0002ab90       __unwindfunclet$??0?$_Container_base_aux_alloc_real@V?$allocator@PAVD3D9VertexDecl@Ogre@@@std@@@std@@IAE@V?$allocator@PAVD3D9VertexDecl@Ogre@@@1@@Z$0 1002bb90 f   OgreD3D9ShaderManager.obj
 0001:0002ab90       __unwindfunclet$??0?$_Container_base_aux_alloc_real@V?$allocator@PAVD3DRenderWindow@Ogre@@@std@@@std@@IAE@V?$allocator@PAVD3DRenderWindow@Ogre@@@1@@Z$0 1002bb90 f   OgreD3D9ShaderManager.obj
 0001:0002ab90       __unwindfunclet$??0?$_Container_base_aux_alloc_real@V?$allocator@PAUIDirect3DBaseTexture9@@@std@@@std@@IAE@V?$allocator@PAUIDirect3DBaseTexture9@@@1@@Z$0 1002bb90 f   OgreD3D9ShaderManager.obj
 0001:0002ab90       __unwindfunclet$??0?$_Container_base_aux_alloc_real@V?$allocator@URTBuffer@D3D9HardwarePixelBufferManager@Ogre@@@std@@@std@@IAE@V?$allocator@URTBuffer@D3D9HardwarePixelBufferManager@Ogre@@@1@@Z$0 1002bb90 f   OgreD3D9ShaderManager.obj
 0001:0002ab90       __unwindfunclet$??0?$_Container_base_aux_alloc_real@V?$allocator@PAUD3DDEVCOMBO_T@Ogre@@@std@@@std@@IAE@V?$allocator@PAUD3DDEVCOMBO_T@Ogre@@@1@@Z$0 1002bb90 f   OgreD3D9ShaderManager.obj
 0001:0002ab90       __unwindfunclet$??0?$_Container_base_aux_alloc_real@V?$allocator@D@std@@@std@@IAE@V?$allocator@D@1@@Z$0 1002bb90 f   OgreD3D9ShaderManager.obj
 0001:0002ab90       __unwindfunclet$??0?$_Container_base_aux_alloc_real@V?$allocator@PAUD3DDEVICEINFO_T@Ogre@@@std@@@std@@IAE@V?$allocator@PAUD3DDEVICEINFO_T@Ogre@@@1@@Z$0 1002bb90 f   OgreD3D9ShaderManager.obj
 0001:0002ab90       __unwindfunclet$??0?$_Container_base_aux_alloc_real@V?$allocator@U?$pair@$$CBTShaderEnvKey@Ogre@@PAVCompiledShader@2@@std@@@std@@@std@@IAE@V?$allocator@U?$pair@$$CBTShaderEnvKey@Ogre@@PAVCompiledShader@2@@std@@@1@@Z$0 1002bb90 f   OgreD3D9ShaderManager.obj
 0001:0002ab90       __unwindfunclet$??0?$_Container_base_aux_alloc_real@V?$allocator@I@std@@@std@@IAE@V?$allocator@I@1@@Z$0 1002bb90 f   OgreD3D9ShaderManager.obj
 0001:0002ab90       __unwindfunclet$??0?$_Container_base_aux_alloc_real@V?$allocator@PAUTechCache@D3DMaterialTemplate@Ogre@@@std@@@std@@IAE@V?$allocator@PAUTechCache@D3DMaterialTemplate@Ogre@@@1@@Z$0 1002bb90 f   OgreD3D9ShaderManager.obj
 0001:0002ab90       __unwindfunclet$??0?$_Container_base_aux_alloc_real@V?$allocator@UPassDesc@Ogre@@@std@@@std@@IAE@V?$allocator@UPassDesc@Ogre@@@1@@Z$0 1002bb90 f   OgreD3D9ShaderManager.obj
 0001:0002ab90       __unwindfunclet$??0?$_Container_base_aux_alloc_real@V?$allocator@U?$pair@$$CBTShaderEnvKey2@Ogre@@PAVD3DShaderTechnique@2@@std@@@std@@@std@@IAE@V?$allocator@U?$pair@$$CBTShaderEnvKey2@Ogre@@PAVD3DShaderTechnique@2@@std@@@1@@Z$0 1002bb90 f   OgreD3D9ShaderManager.obj
 0001:0002ab90       __unwindfunclet$??0?$_Container_base_aux_alloc_real@V?$allocator@UPassData@D3DShaderTechnique@Ogre@@@std@@@std@@IAE@V?$allocator@UPassData@D3DShaderTechnique@Ogre@@@1@@Z$0 1002bb90 f   OgreD3D9ShaderManager.obj
 0001:0002ab90       __unwindfunclet$??0?$_Container_base_aux_alloc_real@V?$allocator@U?$pair@$$CBVFixedString@Ogre@@PAVCompiledShaderGroup@2@@std@@@std@@@std@@IAE@V?$allocator@U?$pair@$$CBVFixedString@Ogre@@PAVCompiledShaderGroup@2@@std@@@1@@Z$0 1002bb90 f   OgreD3D9ShaderManager.obj
 0001:0002ab90       __unwindfunclet$??0?$_Container_base_aux_alloc_real@V?$allocator@PAUTechniqueDesc@Ogre@@@std@@@std@@IAE@V?$allocator@PAUTechniqueDesc@Ogre@@@1@@Z$0 1002bb90 f   OgreD3D9ShaderManager.obj
 0001:0002ab98       __unwindfunclet$??0?$_Container_base_aux_alloc_real@V?$allocator@UPassDesc@Ogre@@@std@@@std@@IAE@V?$allocator@UPassDesc@Ogre@@@1@@Z$1 1002bb98 f   OgreD3D9ShaderManager.obj
 0001:0002ab98       __unwindfunclet$??0?$_Container_base_aux_alloc_real@V?$allocator@U?$pair@$$CBTShaderEnvKey@Ogre@@PAVCompiledShader@2@@std@@@std@@@std@@IAE@V?$allocator@U?$pair@$$CBTShaderEnvKey@Ogre@@PAVCompiledShader@2@@std@@@1@@Z$1 1002bb98 f   OgreD3D9ShaderManager.obj
 0001:0002ab98       __unwindfunclet$??0?$_Container_base_aux_alloc_real@V?$allocator@D@std@@@std@@IAE@V?$allocator@D@1@@Z$1 1002bb98 f   OgreD3D9ShaderManager.obj
 0001:0002ab98       __unwindfunclet$??0?$_Container_base_aux_alloc_real@V?$allocator@U_D3DDISPLAYMODE@@@std@@@std@@IAE@V?$allocator@U_D3DDISPLAYMODE@@@1@@Z$1 1002bb98 f   OgreD3D9ShaderManager.obj
 0001:0002ab98       __unwindfunclet$??0?$_Container_base_aux_alloc_real@V?$allocator@PAUIDirect3DBaseTexture9@@@std@@@std@@IAE@V?$allocator@PAUIDirect3DBaseTexture9@@@1@@Z$1 1002bb98 f   OgreD3D9ShaderManager.obj
 0001:0002ab98       __unwindfunclet$??0?$_Container_base_aux_alloc_real@V?$allocator@U?$pair@$$CBTShaderEnvKey@Ogre@@PAVD3DTech@2@@std@@@std@@@std@@IAE@V?$allocator@U?$pair@$$CBTShaderEnvKey@Ogre@@PAVD3DTech@2@@std@@@1@@Z$1 1002bb98 f   OgreD3D9ShaderManager.obj
 0001:0002ab98       __unwindfunclet$??0?$_Container_base_aux_alloc_real@V?$allocator@PAUTechCache@D3DMaterialTemplate@Ogre@@@std@@@std@@IAE@V?$allocator@PAUTechCache@D3DMaterialTemplate@Ogre@@@1@@Z$1 1002bb98 f   OgreD3D9ShaderManager.obj
 0001:0002ab98       __unwindfunclet$??0?$_Container_base_aux_alloc_real@V?$allocator@PAUD3DDEVCOMBO_T@Ogre@@@std@@@std@@IAE@V?$allocator@PAUD3DDEVCOMBO_T@Ogre@@@1@@Z$1 1002bb98 f   OgreD3D9ShaderManager.obj
 0001:0002ab98       __unwindfunclet$??0?$_Container_base_aux_alloc_real@V?$allocator@PAVD3D9VertexDecl@Ogre@@@std@@@std@@IAE@V?$allocator@PAVD3D9VertexDecl@Ogre@@@1@@Z$1 1002bb98 f   OgreD3D9ShaderManager.obj
 0001:0002ab98       __unwindfunclet$??0?$_Container_base_aux_alloc_real@V?$allocator@U?$pair@$$CBTShaderEnvKey2@Ogre@@PAVD3DShaderTechnique@2@@std@@@std@@@std@@IAE@V?$allocator@U?$pair@$$CBTShaderEnvKey2@Ogre@@PAVD3DShaderTechnique@2@@std@@@1@@Z$1 1002bb98 f   OgreD3D9ShaderManager.obj
 0001:0002ab98       __unwindfunclet$??0?$_Container_base_aux_alloc_real@V?$allocator@PAUTechniqueDesc@Ogre@@@std@@@std@@IAE@V?$allocator@PAUTechniqueDesc@Ogre@@@1@@Z$1 1002bb98 f   OgreD3D9ShaderManager.obj
 0001:0002ab98       __unwindfunclet$??0?$_Container_base_aux_alloc_real@V?$allocator@I@std@@@std@@IAE@V?$allocator@I@1@@Z$1 1002bb98 f   OgreD3D9ShaderManager.obj
 0001:0002ab98       __unwindfunclet$??0?$_Container_base_aux_alloc_real@V?$allocator@PAUD3DADAPTER_T@Ogre@@@std@@@std@@IAE@V?$allocator@PAUD3DADAPTER_T@Ogre@@@1@@Z$1 1002bb98 f   OgreD3D9ShaderManager.obj
 0001:0002ab98       __unwindfunclet$??0?$_Container_base_aux_alloc_real@V?$allocator@UDSBuffer@D3D9HardwarePixelBufferManager@Ogre@@@std@@@std@@IAE@V?$allocator@UDSBuffer@D3D9HardwarePixelBufferManager@Ogre@@@1@@Z$1 1002bb98 f   OgreD3D9ShaderManager.obj
 0001:0002ab98       __unwindfunclet$??0?$_Container_base_aux_alloc_real@V?$allocator@U_D3DXMACRO@@@std@@@std@@IAE@V?$allocator@U_D3DXMACRO@@@1@@Z$1 1002bb98 f   OgreD3D9ShaderManager.obj
 0001:0002ab98       __unwindfunclet$??0?$_Container_base_aux_alloc_real@V?$allocator@UD3DSMSCONFLICT_T@Ogre@@@std@@@std@@IAE@V?$allocator@UD3DSMSCONFLICT_T@Ogre@@@1@@Z$1 1002bb98 f   OgreD3D9ShaderManager.obj
 0001:0002ab98       __unwindfunclet$??0?$_Container_base_aux_alloc_real@V?$allocator@PAVD3DRenderWindow@Ogre@@@std@@@std@@IAE@V?$allocator@PAVD3DRenderWindow@Ogre@@@1@@Z$1 1002bb98 f   OgreD3D9ShaderManager.obj
 0001:0002ab98       __unwindfunclet$??0?$_Container_base_aux_alloc_real@V?$allocator@W4_D3DMULTISAMPLE_TYPE@@@std@@@std@@IAE@V?$allocator@W4_D3DMULTISAMPLE_TYPE@@@1@@Z$1 1002bb98 f   OgreD3D9ShaderManager.obj
 0001:0002ab98       __unwindfunclet$??0?$_Container_base_aux_alloc_real@V?$allocator@TShaderEnvKey@Ogre@@@std@@@std@@IAE@V?$allocator@TShaderEnvKey@Ogre@@@1@@Z$1 1002bb98 f   OgreD3D9ShaderManager.obj
 0001:0002ab98       __unwindfunclet$??0?$_Container_base_aux_alloc_real@V?$allocator@PAVD3D9TextureRenderTarget@Ogre@@@std@@@std@@IAE@V?$allocator@PAVD3D9TextureRenderTarget@Ogre@@@1@@Z$1 1002bb98 f   OgreD3D9ShaderManager.obj
 0001:0002ab98       __unwindfunclet$??0?$_Container_base_aux_alloc_real@V?$allocator@PAUD3DDEVICEINFO_T@Ogre@@@std@@@std@@IAE@V?$allocator@PAUD3DDEVICEINFO_T@Ogre@@@1@@Z$1 1002bb98 f   OgreD3D9ShaderManager.obj
 0001:0002ab98       __unwindfunclet$??0?$_Container_base_aux_alloc_real@V?$allocator@U?$pair@$$CBVFixedString@Ogre@@PAVCompiledShaderGroup@2@@std@@@std@@@std@@IAE@V?$allocator@U?$pair@$$CBVFixedString@Ogre@@PAVCompiledShaderGroup@2@@std@@@1@@Z$1 1002bb98 f   OgreD3D9ShaderManager.obj
 0001:0002ab98       __unwindfunclet$??0?$_Container_base_aux_alloc_real@V?$allocator@W4_D3DFORMAT@@@std@@@std@@IAE@V?$allocator@W4_D3DFORMAT@@@1@@Z$1 1002bb98 f   OgreD3D9ShaderManager.obj
 0001:0002ab98       __unwindfunclet$??0?$_Container_base_aux_alloc_real@V?$allocator@PAVCompiledShader@Ogre@@@std@@@std@@IAE@V?$allocator@PAVCompiledShader@Ogre@@@1@@Z$1 1002bb98 f   OgreD3D9ShaderManager.obj
 0001:0002ab98       __unwindfunclet$??0?$_Container_base_aux_alloc_real@V?$allocator@UPassData@D3DShaderTechnique@Ogre@@@std@@@std@@IAE@V?$allocator@UPassData@D3DShaderTechnique@Ogre@@@1@@Z$1 1002bb98 f   OgreD3D9ShaderManager.obj
 0001:0002ab98       __unwindfunclet$??0?$_Container_base_aux_alloc_real@V?$allocator@W4VERTPROCESS_T@Ogre@@@std@@@std@@IAE@V?$allocator@W4VERTPROCESS_T@Ogre@@@1@@Z$1 1002bb98 f   OgreD3D9ShaderManager.obj
 0001:0002ab98       __unwindfunclet$??0?$_Container_base_aux_alloc_real@V?$allocator@URTBuffer@D3D9HardwarePixelBufferManager@Ogre@@@std@@@std@@IAE@V?$allocator@URTBuffer@D3D9HardwarePixelBufferManager@Ogre@@@1@@Z$1 1002bb98 f   OgreD3D9ShaderManager.obj
 0001:0002aba9       __ehhandler$??0?$_Container_base_aux_alloc_real@V?$allocator@UDSBuffer@D3D9HardwarePixelBufferManager@Ogre@@@std@@@std@@IAE@V?$allocator@UDSBuffer@D3D9HardwarePixelBufferManager@Ogre@@@1@@Z 1002bba9 f   OgreD3D9ShaderManager.obj
 0001:0002aba9       __ehhandler$??0?$_Container_base_aux_alloc_real@V?$allocator@PAVCompiledShader@Ogre@@@std@@@std@@IAE@V?$allocator@PAVCompiledShader@Ogre@@@1@@Z 1002bba9 f   OgreD3D9ShaderManager.obj
 0001:0002aba9       __ehhandler$??0?$_Container_base_aux_alloc_real@V?$allocator@TShaderEnvKey@Ogre@@@std@@@std@@IAE@V?$allocator@TShaderEnvKey@Ogre@@@1@@Z 1002bba9 f   OgreD3D9ShaderManager.obj
 0001:0002aba9       __ehhandler$??0?$_Container_base_aux_alloc_real@V?$allocator@UD3DSMSCONFLICT_T@Ogre@@@std@@@std@@IAE@V?$allocator@UD3DSMSCONFLICT_T@Ogre@@@1@@Z 1002bba9 f   OgreD3D9ShaderManager.obj
 0001:0002aba9       __ehhandler$??0?$_Container_base_aux_alloc_real@V?$allocator@PAUTechniqueDesc@Ogre@@@std@@@std@@IAE@V?$allocator@PAUTechniqueDesc@Ogre@@@1@@Z 1002bba9 f   OgreD3D9ShaderManager.obj
 0001:0002aba9       __ehhandler$??0?$_Container_base_aux_alloc_real@V?$allocator@W4VERTPROCESS_T@Ogre@@@std@@@std@@IAE@V?$allocator@W4VERTPROCESS_T@Ogre@@@1@@Z 1002bba9 f   OgreD3D9ShaderManager.obj
 0001:0002aba9       __ehhandler$??0?$_Container_base_aux_alloc_real@V?$allocator@U?$pair@$$CBVFixedString@Ogre@@PAVCompiledShaderGroup@2@@std@@@std@@@std@@IAE@V?$allocator@U?$pair@$$CBVFixedString@Ogre@@PAVCompiledShaderGroup@2@@std@@@1@@Z 1002bba9 f   OgreD3D9ShaderManager.obj
 0001:0002aba9       __ehhandler$??0?$_Container_base_aux_alloc_real@V?$allocator@U?$pair@$$CBTShaderEnvKey@Ogre@@PAVD3DTech@2@@std@@@std@@@std@@IAE@V?$allocator@U?$pair@$$CBTShaderEnvKey@Ogre@@PAVD3DTech@2@@std@@@1@@Z 1002bba9 f   OgreD3D9ShaderManager.obj
 0001:0002aba9       __ehhandler$??0?$_Container_base_aux_alloc_real@V?$allocator@I@std@@@std@@IAE@V?$allocator@I@1@@Z 1002bba9 f   OgreD3D9ShaderManager.obj
 0001:0002aba9       __ehhandler$??0?$_Container_base_aux_alloc_real@V?$allocator@D@std@@@std@@IAE@V?$allocator@D@1@@Z 1002bba9 f   OgreD3D9ShaderManager.obj
 0001:0002aba9       __ehhandler$??0?$_Container_base_aux_alloc_real@V?$allocator@PAVD3D9VertexDecl@Ogre@@@std@@@std@@IAE@V?$allocator@PAVD3D9VertexDecl@Ogre@@@1@@Z 1002bba9 f   OgreD3D9ShaderManager.obj
 0001:0002aba9       __ehhandler$??0?$_Container_base_aux_alloc_real@V?$allocator@URTBuffer@D3D9HardwarePixelBufferManager@Ogre@@@std@@@std@@IAE@V?$allocator@URTBuffer@D3D9HardwarePixelBufferManager@Ogre@@@1@@Z 1002bba9 f   OgreD3D9ShaderManager.obj
 0001:0002aba9       __ehhandler$??0?$_Container_base_aux_alloc_real@V?$allocator@PAVD3DRenderWindow@Ogre@@@std@@@std@@IAE@V?$allocator@PAVD3DRenderWindow@Ogre@@@1@@Z 1002bba9 f   OgreD3D9ShaderManager.obj
 0001:0002aba9       __ehhandler$??0?$_Container_base_aux_alloc_real@V?$allocator@UPassData@D3DShaderTechnique@Ogre@@@std@@@std@@IAE@V?$allocator@UPassData@D3DShaderTechnique@Ogre@@@1@@Z 1002bba9 f   OgreD3D9ShaderManager.obj
 0001:0002aba9       __ehhandler$??0?$_Container_base_aux_alloc_real@V?$allocator@PAUD3DDEVCOMBO_T@Ogre@@@std@@@std@@IAE@V?$allocator@PAUD3DDEVCOMBO_T@Ogre@@@1@@Z 1002bba9 f   OgreD3D9ShaderManager.obj
 0001:0002aba9       __ehhandler$??0?$_Container_base_aux_alloc_real@V?$allocator@UPassDesc@Ogre@@@std@@@std@@IAE@V?$allocator@UPassDesc@Ogre@@@1@@Z 1002bba9 f   OgreD3D9ShaderManager.obj
 0001:0002aba9       __ehhandler$??0?$_Container_base_aux_alloc_real@V?$allocator@U?$pair@$$CBTShaderEnvKey@Ogre@@PAVCompiledShader@2@@std@@@std@@@std@@IAE@V?$allocator@U?$pair@$$CBTShaderEnvKey@Ogre@@PAVCompiledShader@2@@std@@@1@@Z 1002bba9 f   OgreD3D9ShaderManager.obj
 0001:0002aba9       __ehhandler$??0?$_Container_base_aux_alloc_real@V?$allocator@PAUTechCache@D3DMaterialTemplate@Ogre@@@std@@@std@@IAE@V?$allocator@PAUTechCache@D3DMaterialTemplate@Ogre@@@1@@Z 1002bba9 f   OgreD3D9ShaderManager.obj
 0001:0002aba9       __ehhandler$??0?$_Container_base_aux_alloc_real@V?$allocator@PAUD3DADAPTER_T@Ogre@@@std@@@std@@IAE@V?$allocator@PAUD3DADAPTER_T@Ogre@@@1@@Z 1002bba9 f   OgreD3D9ShaderManager.obj
 0001:0002aba9       __ehhandler$??0?$_Container_base_aux_alloc_real@V?$allocator@PAUIDirect3DBaseTexture9@@@std@@@std@@IAE@V?$allocator@PAUIDirect3DBaseTexture9@@@1@@Z 1002bba9 f   OgreD3D9ShaderManager.obj
 0001:0002aba9       __ehhandler$??0?$_Container_base_aux_alloc_real@V?$allocator@W4_D3DMULTISAMPLE_TYPE@@@std@@@std@@IAE@V?$allocator@W4_D3DMULTISAMPLE_TYPE@@@1@@Z 1002bba9 f   OgreD3D9ShaderManager.obj
 0001:0002aba9       __ehhandler$??0?$_Container_base_aux_alloc_real@V?$allocator@U_D3DXMACRO@@@std@@@std@@IAE@V?$allocator@U_D3DXMACRO@@@1@@Z 1002bba9 f   OgreD3D9ShaderManager.obj
 0001:0002aba9       __ehhandler$??0?$_Container_base_aux_alloc_real@V?$allocator@W4_D3DFORMAT@@@std@@@std@@IAE@V?$allocator@W4_D3DFORMAT@@@1@@Z 1002bba9 f   OgreD3D9ShaderManager.obj
 0001:0002aba9       __ehhandler$??0?$_Container_base_aux_alloc_real@V?$allocator@U_D3DDISPLAYMODE@@@std@@@std@@IAE@V?$allocator@U_D3DDISPLAYMODE@@@1@@Z 1002bba9 f   OgreD3D9ShaderManager.obj
 0001:0002aba9       __ehhandler$??0?$_Container_base_aux_alloc_real@V?$allocator@PAUD3DDEVICEINFO_T@Ogre@@@std@@@std@@IAE@V?$allocator@PAUD3DDEVICEINFO_T@Ogre@@@1@@Z 1002bba9 f   OgreD3D9ShaderManager.obj
 0001:0002aba9       __ehhandler$??0?$_Container_base_aux_alloc_real@V?$allocator@PAVD3D9TextureRenderTarget@Ogre@@@std@@@std@@IAE@V?$allocator@PAVD3D9TextureRenderTarget@Ogre@@@1@@Z 1002bba9 f   OgreD3D9ShaderManager.obj
 0001:0002aba9       __ehhandler$??0?$_Container_base_aux_alloc_real@V?$allocator@U?$pair@$$CBTShaderEnvKey2@Ogre@@PAVD3DShaderTechnique@2@@std@@@std@@@std@@IAE@V?$allocator@U?$pair@$$CBTShaderEnvKey2@Ogre@@PAVD3DShaderTechnique@2@@std@@@1@@Z 1002bba9 f   OgreD3D9ShaderManager.obj
 0001:0002abd0       __ehhandler$?_Insert_n@?$vector@TShaderEnvKey@Ogre@@V?$allocator@TShaderEnvKey@Ogre@@@std@@@std@@IAEXV?$_Vector_const_iterator@TShaderEnvKey@Ogre@@V?$allocator@TShaderEnvKey@Ogre@@@std@@@2@IABTShaderEnvKey@Ogre@@@Z 1002bbd0 f   OgreD3D9ShaderManager.obj
 0001:0002abf0       __ehhandler$?_Insert_n@?$vector@UPassData@D3DShaderTechnique@Ogre@@V?$allocator@UPassData@D3DShaderTechnique@Ogre@@@std@@@std@@IAEXV?$_Vector_const_iterator@UPassData@D3DShaderTechnique@Ogre@@V?$allocator@UPassData@D3DShaderTechnique@Ogre@@@std@@@2@IABUPassData@D3DShaderTechnique@Ogre@@@Z 1002bbf0 f   OgreD3D9ShaderManager.obj
 0001:0002ac10       __unwindfunclet$?_Xlen@?$vector@UPassData@D3DShaderTechnique@Ogre@@V?$allocator@UPassData@D3DShaderTechnique@Ogre@@@std@@@std@@KAXXZ$0 1002bc10 f   OgreD3D9ShaderManager.obj
 0001:0002ac10       __unwindfunclet$?_Xlen@?$vector@U_D3DXMACRO@@V?$allocator@U_D3DXMACRO@@@std@@@std@@KAXXZ$0 1002bc10 f   OgreD3D9ShaderManager.obj
 0001:0002ac10       __unwindfunclet$?_Xlen@?$vector@PAVCompiledShader@Ogre@@V?$allocator@PAVCompiledShader@Ogre@@@std@@@std@@KAXXZ$0 1002bc10 f   OgreD3D9ShaderManager.obj
 0001:0002ac10       __unwindfunclet$?_Xlen@?$vector@W4VERTPROCESS_T@Ogre@@V?$allocator@W4VERTPROCESS_T@Ogre@@@std@@@std@@KAXXZ$0 1002bc10 f   OgreD3D9ShaderManager.obj
 0001:0002ac10       __unwindfunclet$?_Xlen@?$vector@TShaderEnvKey@Ogre@@V?$allocator@TShaderEnvKey@Ogre@@@std@@@std@@KAXXZ$0 1002bc10 f   OgreD3D9ShaderManager.obj
 0001:0002ac10       __unwindfunclet$?_Xlen@?$vector@PAUD3DDEVCOMBO_T@Ogre@@V?$allocator@PAUD3DDEVCOMBO_T@Ogre@@@std@@@std@@KAXXZ$0 1002bc10 f   OgreD3D9ShaderManager.obj
 0001:0002ac10       __unwindfunclet$?_Xlen@?$vector@U_D3DDISPLAYMODE@@V?$allocator@U_D3DDISPLAYMODE@@@std@@@std@@KAXXZ$0 1002bc10 f   OgreD3D9ShaderManager.obj
 0001:0002ac10       __unwindfunclet$?_Xlen@?$vector@UD3DSMSCONFLICT_T@Ogre@@V?$allocator@UD3DSMSCONFLICT_T@Ogre@@@std@@@std@@KAXXZ$0 1002bc10 f   OgreD3D9ShaderManager.obj
 0001:0002ac10       __unwindfunclet$?_Xlen@?$vector@PAUTechniqueDesc@Ogre@@V?$allocator@PAUTechniqueDesc@Ogre@@@std@@@std@@KAXXZ$0 1002bc10 f   OgreD3D9ShaderManager.obj
 0001:0002ac10       __unwindfunclet$?_Xlen@?$vector@IV?$allocator@I@std@@@std@@KAXXZ$0 1002bc10 f   OgreD3D9ShaderManager.obj
 0001:0002ac10       __unwindfunclet$?_Xlen@?$vector@DV?$allocator@D@std@@@std@@KAXXZ$0 1002bc10 f   OgreD3D9ShaderManager.obj
 0001:0002ac10       __unwindfunclet$?_Xlen@?$vector@PAUIDirect3DBaseTexture9@@V?$allocator@PAUIDirect3DBaseTexture9@@@std@@@std@@KAXXZ$0 1002bc10 f   OgreD3D9ShaderManager.obj
 0001:0002ac10       __unwindfunclet$?_Xlen@?$vector@W4_D3DMULTISAMPLE_TYPE@@V?$allocator@W4_D3DMULTISAMPLE_TYPE@@@std@@@std@@KAXXZ$0 1002bc10 f   OgreD3D9ShaderManager.obj
 0001:0002ac10       __unwindfunclet$?_Xlen@?$vector@UPassDesc@Ogre@@V?$allocator@UPassDesc@Ogre@@@std@@@std@@KAXXZ$0 1002bc10 f   OgreD3D9ShaderManager.obj
 0001:0002ac10       __unwindfunclet$?_Xlen@?$vector@PAVD3DRenderWindow@Ogre@@V?$allocator@PAVD3DRenderWindow@Ogre@@@std@@@std@@KAXXZ$0 1002bc10 f   OgreD3D9ShaderManager.obj
 0001:0002ac10       __unwindfunclet$?_Xlen@?$vector@PAVD3D9TextureRenderTarget@Ogre@@V?$allocator@PAVD3D9TextureRenderTarget@Ogre@@@std@@@std@@KAXXZ$0 1002bc10 f   OgreD3D9ShaderManager.obj
 0001:0002ac10       __unwindfunclet$?_Xlen@?$vector@W4_D3DFORMAT@@V?$allocator@W4_D3DFORMAT@@@std@@@std@@KAXXZ$0 1002bc10 f   OgreD3D9ShaderManager.obj
 0001:0002ac10       __unwindfunclet$?_Xlen@?$vector@PAVD3D9VertexDecl@Ogre@@V?$allocator@PAVD3D9VertexDecl@Ogre@@@std@@@std@@KAXXZ$0 1002bc10 f   OgreD3D9ShaderManager.obj
 0001:0002ac10       __unwindfunclet$?_Xlen@?$vector@UDSBuffer@D3D9HardwarePixelBufferManager@Ogre@@V?$allocator@UDSBuffer@D3D9HardwarePixelBufferManager@Ogre@@@std@@@std@@KAXXZ$0 1002bc10 f   OgreD3D9ShaderManager.obj
 0001:0002ac10       __unwindfunclet$?_Xlen@?$vector@PAUTechCache@D3DMaterialTemplate@Ogre@@V?$allocator@PAUTechCache@D3DMaterialTemplate@Ogre@@@std@@@std@@KAXXZ$0 1002bc10 f   OgreD3D9ShaderManager.obj
 0001:0002ac10       __unwindfunclet$?_Xlen@?$vector@UShaderEnv@Ogre@@V?$allocator@UShaderEnv@Ogre@@@std@@@std@@KAXXZ$0 1002bc10 f   OgreD3D9ShaderManager.obj
 0001:0002ac10       __unwindfunclet$?_Xlen@?$vector@URTBuffer@D3D9HardwarePixelBufferManager@Ogre@@V?$allocator@URTBuffer@D3D9HardwarePixelBufferManager@Ogre@@@std@@@std@@KAXXZ$0 1002bc10 f   OgreD3D9ShaderManager.obj
 0001:0002ac10       __unwindfunclet$?_Xlen@?$vector@PAUD3DADAPTER_T@Ogre@@V?$allocator@PAUD3DADAPTER_T@Ogre@@@std@@@std@@KAXXZ$0 1002bc10 f   OgreD3D9ShaderManager.obj
 0001:0002ac10       __unwindfunclet$?_Xlen@?$vector@PAUD3DDEVICEINFO_T@Ogre@@V?$allocator@PAUD3DDEVICEINFO_T@Ogre@@@std@@@std@@KAXXZ$0 1002bc10 f   OgreD3D9ShaderManager.obj
 0001:0002ac19       __ehhandler$?_Xlen@?$vector@PAUD3DDEVICEINFO_T@Ogre@@V?$allocator@PAUD3DDEVICEINFO_T@Ogre@@@std@@@std@@KAXXZ 1002bc19 f   OgreD3D9ShaderManager.obj
 0001:0002ac19       __ehhandler$?_Xlen@?$vector@UShaderEnv@Ogre@@V?$allocator@UShaderEnv@Ogre@@@std@@@std@@KAXXZ 1002bc19 f   OgreD3D9ShaderManager.obj
 0001:0002ac19       __ehhandler$?_Xlen@?$vector@PAUD3DADAPTER_T@Ogre@@V?$allocator@PAUD3DADAPTER_T@Ogre@@@std@@@std@@KAXXZ 1002bc19 f   OgreD3D9ShaderManager.obj
 0001:0002ac19       __ehhandler$?_Xlen@?$vector@PAUTechCache@D3DMaterialTemplate@Ogre@@V?$allocator@PAUTechCache@D3DMaterialTemplate@Ogre@@@std@@@std@@KAXXZ 1002bc19 f   OgreD3D9ShaderManager.obj
 0001:0002ac19       __ehhandler$?_Xlen@?$vector@UDSBuffer@D3D9HardwarePixelBufferManager@Ogre@@V?$allocator@UDSBuffer@D3D9HardwarePixelBufferManager@Ogre@@@std@@@std@@KAXXZ 1002bc19 f   OgreD3D9ShaderManager.obj
 0001:0002ac19       __ehhandler$?_Xlen@?$vector@PAVD3D9VertexDecl@Ogre@@V?$allocator@PAVD3D9VertexDecl@Ogre@@@std@@@std@@KAXXZ 1002bc19 f   OgreD3D9ShaderManager.obj
 0001:0002ac19       __ehhandler$?_Xlen@?$vector@PAVD3D9TextureRenderTarget@Ogre@@V?$allocator@PAVD3D9TextureRenderTarget@Ogre@@@std@@@std@@KAXXZ 1002bc19 f   OgreD3D9ShaderManager.obj
 0001:0002ac19       __ehhandler$?_Xlen@?$vector@W4_D3DFORMAT@@V?$allocator@W4_D3DFORMAT@@@std@@@std@@KAXXZ 1002bc19 f   OgreD3D9ShaderManager.obj
 0001:0002ac19       __ehhandler$?_Xlen@?$vector@PAUIDirect3DBaseTexture9@@V?$allocator@PAUIDirect3DBaseTexture9@@@std@@@std@@KAXXZ 1002bc19 f   OgreD3D9ShaderManager.obj
 0001:0002ac19       __ehhandler$?_Xlen@?$vector@UPassDesc@Ogre@@V?$allocator@UPassDesc@Ogre@@@std@@@std@@KAXXZ 1002bc19 f   OgreD3D9ShaderManager.obj
 0001:0002ac19       __ehhandler$?_Xlen@?$vector@W4_D3DMULTISAMPLE_TYPE@@V?$allocator@W4_D3DMULTISAMPLE_TYPE@@@std@@@std@@KAXXZ 1002bc19 f   OgreD3D9ShaderManager.obj
 0001:0002ac19       __ehhandler$?_Xlen@?$vector@DV?$allocator@D@std@@@std@@KAXXZ 1002bc19 f   OgreD3D9ShaderManager.obj
 0001:0002ac19       __ehhandler$?_Xlen@?$vector@IV?$allocator@I@std@@@std@@KAXXZ 1002bc19 f   OgreD3D9ShaderManager.obj
 0001:0002ac19       __ehhandler$?_Xlen@?$vector@PAUTechniqueDesc@Ogre@@V?$allocator@PAUTechniqueDesc@Ogre@@@std@@@std@@KAXXZ 1002bc19 f   OgreD3D9ShaderManager.obj
 0001:0002ac19       __ehhandler$?_Xlen@?$vector@UD3DSMSCONFLICT_T@Ogre@@V?$allocator@UD3DSMSCONFLICT_T@Ogre@@@std@@@std@@KAXXZ 1002bc19 f   OgreD3D9ShaderManager.obj
 0001:0002ac19       __ehhandler$?_Xlen@?$vector@TShaderEnvKey@Ogre@@V?$allocator@TShaderEnvKey@Ogre@@@std@@@std@@KAXXZ 1002bc19 f   OgreD3D9ShaderManager.obj
 0001:0002ac19       __ehhandler$?_Xlen@?$vector@W4VERTPROCESS_T@Ogre@@V?$allocator@W4VERTPROCESS_T@Ogre@@@std@@@std@@KAXXZ 1002bc19 f   OgreD3D9ShaderManager.obj
 0001:0002ac19       __ehhandler$?_Xlen@?$vector@PAVCompiledShader@Ogre@@V?$allocator@PAVCompiledShader@Ogre@@@std@@@std@@KAXXZ 1002bc19 f   OgreD3D9ShaderManager.obj
 0001:0002ac19       __ehhandler$?_Xlen@?$vector@PAUD3DDEVCOMBO_T@Ogre@@V?$allocator@PAUD3DDEVCOMBO_T@Ogre@@@std@@@std@@KAXXZ 1002bc19 f   OgreD3D9ShaderManager.obj
 0001:0002ac19       __ehhandler$?_Xlen@?$vector@UPassData@D3DShaderTechnique@Ogre@@V?$allocator@UPassData@D3DShaderTechnique@Ogre@@@std@@@std@@KAXXZ 1002bc19 f   OgreD3D9ShaderManager.obj
 0001:0002ac19       __ehhandler$?_Xlen@?$vector@U_D3DDISPLAYMODE@@V?$allocator@U_D3DDISPLAYMODE@@@std@@@std@@KAXXZ 1002bc19 f   OgreD3D9ShaderManager.obj
 0001:0002ac19       __ehhandler$?_Xlen@?$vector@URTBuffer@D3D9HardwarePixelBufferManager@Ogre@@V?$allocator@URTBuffer@D3D9HardwarePixelBufferManager@Ogre@@@std@@@std@@KAXXZ 1002bc19 f   OgreD3D9ShaderManager.obj
 0001:0002ac19       __ehhandler$?_Xlen@?$vector@U_D3DXMACRO@@V?$allocator@U_D3DXMACRO@@@std@@@std@@KAXXZ 1002bc19 f   OgreD3D9ShaderManager.obj
 0001:0002ac19       __ehhandler$?_Xlen@?$vector@PAVD3DRenderWindow@Ogre@@V?$allocator@PAVD3DRenderWindow@Ogre@@@std@@@std@@KAXXZ 1002bc19 f   OgreD3D9ShaderManager.obj
 0001:0002ac40       __unwindfunclet$??1out_of_range@std@@UAE@XZ$0 1002bc40 f   OgreD3D9ShaderManager.obj
 0001:0002ac40       __unwindfunclet$??1length_error@std@@UAE@XZ$0 1002bc40 f   OgreD3D9ShaderManager.obj
 0001:0002ac40       __unwindfunclet$??0out_of_range@std@@QAE@ABV?$basic_string@DU?$char_traits@D@std@@V?$allocator@D@2@@1@@Z$0 1002bc40 f   OgreD3D9ShaderManager.obj
 0001:0002ac40       __unwindfunclet$??0length_error@std@@QAE@ABV?$basic_string@DU?$char_traits@D@std@@V?$allocator@D@2@@1@@Z$0 1002bc40 f   OgreD3D9ShaderManager.obj
 0001:0002ac40       __unwindfunclet$??0length_error@std@@QAE@ABV01@@Z$0 1002bc40 f   OgreD3D9ShaderManager.obj
 0001:0002ac40       __unwindfunclet$??0out_of_range@std@@QAE@ABV01@@Z$0 1002bc40 f   OgreD3D9ShaderManager.obj
 0001:0002ac48       __ehhandler$??0out_of_range@std@@QAE@ABV?$basic_string@DU?$char_traits@D@std@@V?$allocator@D@2@@1@@Z 1002bc48 f   OgreD3D9ShaderManager.obj
 0001:0002ac48       __ehhandler$??1length_error@std@@UAE@XZ 1002bc48 f   OgreD3D9ShaderManager.obj
 0001:0002ac48       __ehhandler$??1out_of_range@std@@UAE@XZ 1002bc48 f   OgreD3D9ShaderManager.obj
 0001:0002ac48       __ehhandler$??0length_error@std@@QAE@ABV01@@Z 1002bc48 f   OgreD3D9ShaderManager.obj
 0001:0002ac48       __ehhandler$??0length_error@std@@QAE@ABV?$basic_string@DU?$char_traits@D@std@@V?$allocator@D@2@@1@@Z 1002bc48 f   OgreD3D9ShaderManager.obj
 0001:0002ac48       __ehhandler$??0out_of_range@std@@QAE@ABV01@@Z 1002bc48 f   OgreD3D9ShaderManager.obj
 0001:0002ac70       __ehhandler$??$_Uninit_fill_n@PATShaderEnvKey@Ogre@@IT12@V?$allocator@TShaderEnvKey@Ogre@@@std@@@std@@YAXPATShaderEnvKey@Ogre@@IABT12@AAV?$allocator@TShaderEnvKey@Ogre@@@0@U_Nonscalar_ptr_iterator_tag@0@U_Range_checked_iterator_tag@0@@Z 1002bc70 f   OgreD3D9ShaderManager.obj
 0001:0002ac70       __ehhandler$??$_Uninit_fill_n@PAU_D3DDISPLAYMODE@@IU1@V?$allocator@U_D3DDISPLAYMODE@@@std@@@std@@YAXPAU_D3DDISPLAYMODE@@IABU1@AAV?$allocator@U_D3DDISPLAYMODE@@@0@U_Nonscalar_ptr_iterator_tag@0@U_Range_checked_iterator_tag@0@@Z 1002bc70 f   OgreD3D9ShaderManager.obj
 0001:0002ac90       __ehhandler$??$_Uninit_fill_n@PAU_D3DXMACRO@@IU1@V?$allocator@U_D3DXMACRO@@@std@@@std@@YAXPAU_D3DXMACRO@@IABU1@AAV?$allocator@U_D3DXMACRO@@@0@U_Nonscalar_ptr_iterator_tag@0@U_Range_checked_iterator_tag@0@@Z 1002bc90 f   OgreD3D9ShaderManager.obj
 0001:0002ac90       __ehhandler$??$_Uninit_fill_n@PAUD3DSMSCONFLICT_T@Ogre@@IU12@V?$allocator@UD3DSMSCONFLICT_T@Ogre@@@std@@@std@@YAXPAUD3DSMSCONFLICT_T@Ogre@@IABU12@AAV?$allocator@UD3DSMSCONFLICT_T@Ogre@@@0@U_Nonscalar_ptr_iterator_tag@0@U_Range_checked_iterator_tag@0@@Z 1002bc90 f   OgreD3D9ShaderManager.obj
 0001:0002acb0       __ehhandler$??$_Uninit_fill_n@PAUPassDesc@Ogre@@IU12@V?$allocator@UPassDesc@Ogre@@@std@@@std@@YAXPAUPassDesc@Ogre@@IABU12@AAV?$allocator@UPassDesc@Ogre@@@0@U_Nonscalar_ptr_iterator_tag@0@U_Range_checked_iterator_tag@0@@Z 1002bcb0 f   OgreD3D9ShaderManager.obj
 0001:0002acd0       __ehhandler$??$_Uninit_fill_n@PAUPassData@D3DShaderTechnique@Ogre@@IU123@V?$allocator@UPassData@D3DShaderTechnique@Ogre@@@std@@@std@@YAXPAUPassData@D3DShaderTechnique@Ogre@@IABU123@AAV?$allocator@UPassData@D3DShaderTechnique@Ogre@@@0@U_Nonscalar_ptr_iterator_tag@0@U_Range_checked_iterator_tag@0@@Z 1002bcd0 f   OgreD3D9ShaderManager.obj
 0001:0002acf0       __ehhandler$??$_Uninit_copy@PAUPassDesc@Ogre@@PAU12@V?$allocator@UPassDesc@Ogre@@@std@@@std@@YAPAUPassDesc@Ogre@@PAU12@00AAV?$allocator@UPassDesc@Ogre@@@0@U_Nonscalar_ptr_iterator_tag@0@U_Range_checked_iterator_tag@0@@Z 1002bcf0 f   OgreD3D9ShaderManager.obj
 0001:0002ad10       __ehhandler$??$_Uninit_copy@PAUPassData@D3DShaderTechnique@Ogre@@PAU123@V?$allocator@UPassData@D3DShaderTechnique@Ogre@@@std@@@std@@YAPAUPassData@D3DShaderTechnique@Ogre@@PAU123@00AAV?$allocator@UPassData@D3DShaderTechnique@Ogre@@@0@U_Nonscalar_ptr_iterator_tag@0@U_Range_checked_iterator_tag@0@@Z 1002bd10 f   OgreD3D9ShaderManager.obj
 0001:0002ad30       __unwindfunclet$??0D3DTech@Ogre@@QAE@XZ$0 1002bd30 f   OgreD3D9Technique.obj
 0001:0002ad38       __ehhandler$??0D3DTech@Ogre@@QAE@XZ 1002bd38 f   OgreD3D9Technique.obj
 0001:0002ad60       __unwindfunclet$??1D3DTech@Ogre@@UAE@XZ$0 1002bd60 f   OgreD3D9Technique.obj
 0001:0002ad68       __ehhandler$??1D3DTech@Ogre@@UAE@XZ 1002bd68 f   OgreD3D9Technique.obj
 0001:0002ad90       __unwindfunclet$?CreateD3DTech@Ogre@@YAPAVD3DTech@1@PBD@Z$0 1002bd90 f   OgreD3D9Technique_Impl.obj
 0001:0002ad9b       __unwindfunclet$?CreateD3DTech@Ogre@@YAPAVD3DTech@1@PBD@Z$1 1002bd9b f   OgreD3D9Technique_Impl.obj
 0001:0002ada6       __unwindfunclet$?CreateD3DTech@Ogre@@YAPAVD3DTech@1@PBD@Z$2 1002bda6 f   OgreD3D9Technique_Impl.obj
 0001:0002adb1       __unwindfunclet$?CreateD3DTech@Ogre@@YAPAVD3DTech@1@PBD@Z$3 1002bdb1 f   OgreD3D9Technique_Impl.obj
 0001:0002adbc       __unwindfunclet$?CreateD3DTech@Ogre@@YAPAVD3DTech@1@PBD@Z$4 1002bdbc f   OgreD3D9Technique_Impl.obj
 0001:0002adc7       __unwindfunclet$?CreateD3DTech@Ogre@@YAPAVD3DTech@1@PBD@Z$5 1002bdc7 f   OgreD3D9Technique_Impl.obj
 0001:0002add2       __unwindfunclet$?CreateD3DTech@Ogre@@YAPAVD3DTech@1@PBD@Z$6 1002bdd2 f   OgreD3D9Technique_Impl.obj
 0001:0002addd       __unwindfunclet$?CreateD3DTech@Ogre@@YAPAVD3DTech@1@PBD@Z$7 1002bddd f   OgreD3D9Technique_Impl.obj
 0001:0002ade8       __unwindfunclet$?CreateD3DTech@Ogre@@YAPAVD3DTech@1@PBD@Z$8 1002bde8 f   OgreD3D9Technique_Impl.obj
 0001:0002adf3       __unwindfunclet$?CreateD3DTech@Ogre@@YAPAVD3DTech@1@PBD@Z$9 1002bdf3 f   OgreD3D9Technique_Impl.obj
 0001:0002adfe       __unwindfunclet$?CreateD3DTech@Ogre@@YAPAVD3DTech@1@PBD@Z$10 1002bdfe f   OgreD3D9Technique_Impl.obj
 0001:0002ae09       __unwindfunclet$?CreateD3DTech@Ogre@@YAPAVD3DTech@1@PBD@Z$11 1002be09 f   OgreD3D9Technique_Impl.obj
 0001:0002ae14       __unwindfunclet$?CreateD3DTech@Ogre@@YAPAVD3DTech@1@PBD@Z$12 1002be14 f   OgreD3D9Technique_Impl.obj
 0001:0002ae1f       __unwindfunclet$?CreateD3DTech@Ogre@@YAPAVD3DTech@1@PBD@Z$13 1002be1f f   OgreD3D9Technique_Impl.obj
 0001:0002ae2a       __unwindfunclet$?CreateD3DTech@Ogre@@YAPAVD3DTech@1@PBD@Z$14 1002be2a f   OgreD3D9Technique_Impl.obj
 0001:0002ae38       __unwindfunclet$?CreateD3DTech@Ogre@@YAPAVD3DTech@1@PBD@Z$15 1002be38 f   OgreD3D9Technique_Impl.obj
 0001:0002ae46       __unwindfunclet$?CreateD3DTech@Ogre@@YAPAVD3DTech@1@PBD@Z$16 1002be46 f   OgreD3D9Technique_Impl.obj
 0001:0002ae54       __unwindfunclet$?CreateD3DTech@Ogre@@YAPAVD3DTech@1@PBD@Z$17 1002be54 f   OgreD3D9Technique_Impl.obj
 0001:0002ae62       __unwindfunclet$?CreateD3DTech@Ogre@@YAPAVD3DTech@1@PBD@Z$18 1002be62 f   OgreD3D9Technique_Impl.obj
 0001:0002ae70       __unwindfunclet$?CreateD3DTech@Ogre@@YAPAVD3DTech@1@PBD@Z$19 1002be70 f   OgreD3D9Technique_Impl.obj
 0001:0002ae7e       __unwindfunclet$?CreateD3DTech@Ogre@@YAPAVD3DTech@1@PBD@Z$20 1002be7e f   OgreD3D9Technique_Impl.obj
 0001:0002ae8c       __unwindfunclet$?CreateD3DTech@Ogre@@YAPAVD3DTech@1@PBD@Z$21 1002be8c f   OgreD3D9Technique_Impl.obj
 0001:0002ae9a       __unwindfunclet$?CreateD3DTech@Ogre@@YAPAVD3DTech@1@PBD@Z$22 1002be9a f   OgreD3D9Technique_Impl.obj
 0001:0002aea8       __unwindfunclet$?CreateD3DTech@Ogre@@YAPAVD3DTech@1@PBD@Z$23 1002bea8 f   OgreD3D9Technique_Impl.obj
 0001:0002aeb6       __unwindfunclet$?CreateD3DTech@Ogre@@YAPAVD3DTech@1@PBD@Z$24 1002beb6 f   OgreD3D9Technique_Impl.obj
 0001:0002aec4       __unwindfunclet$?CreateD3DTech@Ogre@@YAPAVD3DTech@1@PBD@Z$25 1002bec4 f   OgreD3D9Technique_Impl.obj
 0001:0002aed2       __unwindfunclet$?CreateD3DTech@Ogre@@YAPAVD3DTech@1@PBD@Z$26 1002bed2 f   OgreD3D9Technique_Impl.obj
 0001:0002aee0       __unwindfunclet$?CreateD3DTech@Ogre@@YAPAVD3DTech@1@PBD@Z$27 1002bee0 f   OgreD3D9Technique_Impl.obj
 0001:0002aeee       __unwindfunclet$?CreateD3DTech@Ogre@@YAPAVD3DTech@1@PBD@Z$28 1002beee f   OgreD3D9Technique_Impl.obj
 0001:0002aefc       __unwindfunclet$?CreateD3DTech@Ogre@@YAPAVD3DTech@1@PBD@Z$29 1002befc f   OgreD3D9Technique_Impl.obj
 0001:0002af0a       __unwindfunclet$?CreateD3DTech@Ogre@@YAPAVD3DTech@1@PBD@Z$30 1002bf0a f   OgreD3D9Technique_Impl.obj
 0001:0002af18       __ehhandler$?CreateD3DTech@Ogre@@YAPAVD3DTech@1@PBD@Z 1002bf18 f   OgreD3D9Technique_Impl.obj
 0001:0002af40       __unwindfunclet$?clone@D3DTech_beach_lod0@Ogre@@UAEPAVD3DTech@2@XZ$0 1002bf40 f   OgreD3D9Technique_Impl.obj
 0001:0002af40       __unwindfunclet$?clone@D3DTech_footprint_lod0@Ogre@@UAEPAVD3DTech@2@XZ$0 1002bf40 f   OgreD3D9Technique_Impl.obj
 0001:0002af40       __unwindfunclet$?clone@D3DTech_decal_distort@Ogre@@UAEPAVD3DTech@2@XZ$0 1002bf40 f   OgreD3D9Technique_Impl.obj
 0001:0002af40       __unwindfunclet$?clone@D3DTech_decal_lod0@Ogre@@UAEPAVD3DTech@2@XZ$0 1002bf40 f   OgreD3D9Technique_Impl.obj
 0001:0002af40       __unwindfunclet$?clone@D3DTech_sky_stdmtl_shadowgen@Ogre@@UAEPAVD3DTech@2@XZ$0 1002bf40 f   OgreD3D9Technique_Impl.obj
 0001:0002af40       __unwindfunclet$?clone@D3DTech_cloth_shadowgen@Ogre@@UAEPAVD3DTech@2@XZ$0 1002bf40 f   OgreD3D9Technique_Impl.obj
 0001:0002af40       __unwindfunclet$?clone@D3DTech_cloth_lod0@Ogre@@UAEPAVD3DTech@2@XZ$0 1002bf40 f   OgreD3D9Technique_Impl.obj
 0001:0002af40       __unwindfunclet$?clone@D3DTech_sky_stdmtl_lod0@Ogre@@UAEPAVD3DTech@2@XZ$0 1002bf40 f   OgreD3D9Technique_Impl.obj
 0001:0002af40       __unwindfunclet$?clone@D3DTech_UvanimBlend_lod0@Ogre@@UAEPAVD3DTech@2@XZ$0 1002bf40 f   OgreD3D9Technique_Impl.obj
 0001:0002af40       __unwindfunclet$?clone@D3DTech_uielement_lod0@Ogre@@UAEPAVD3DTech@2@XZ$0 1002bf40 f   OgreD3D9Technique_Impl.obj
 0001:0002af40       __unwindfunclet$?clone@D3DTech_Uvanim2Layer_lod0@Ogre@@UAEPAVD3DTech@2@XZ$0 1002bf40 f   OgreD3D9Technique_Impl.obj
 0001:0002af40       __unwindfunclet$?clone@D3DTech_stdmtl_lod0@Ogre@@UAEPAVD3DTech@2@XZ$0 1002bf40 f   OgreD3D9Technique_Impl.obj
 0001:0002af40       __unwindfunclet$?clone@D3DTech_Uvanim_lod0@Ogre@@UAEPAVD3DTech@2@XZ$0 1002bf40 f   OgreD3D9Technique_Impl.obj
 0001:0002af40       __unwindfunclet$?clone@D3DTech_plant_lod0@Ogre@@UAEPAVD3DTech@2@XZ$0 1002bf40 f   OgreD3D9Technique_Impl.obj
 0001:0002af40       __unwindfunclet$?clone@D3DTech_particle_distort@Ogre@@UAEPAVD3DTech@2@XZ$0 1002bf40 f   OgreD3D9Technique_Impl.obj
 0001:0002af40       __unwindfunclet$?clone@D3DTech_distort_lod0@Ogre@@UAEPAVD3DTech@2@XZ$0 1002bf40 f   OgreD3D9Technique_Impl.obj
 0001:0002af40       __unwindfunclet$?clone@D3DTech_Particle_lod0@Ogre@@UAEPAVD3DTech@2@XZ$0 1002bf40 f   OgreD3D9Technique_Impl.obj
 0001:0002af40       __unwindfunclet$?clone@D3DTech_stdmtl_shadowgen@Ogre@@UAEPAVD3DTech@2@XZ$0 1002bf40 f   OgreD3D9Technique_Impl.obj
 0001:0002af40       __unwindfunclet$?clone@D3DTech_water_reflect_lod0@Ogre@@UAEPAVD3DTech@2@XZ$0 1002bf40 f   OgreD3D9Technique_Impl.obj
 0001:0002af40       __unwindfunclet$?clone@D3DTech_general_water_lod0@Ogre@@UAEPAVD3DTech@2@XZ$0 1002bf40 f   OgreD3D9Technique_Impl.obj
 0001:0002af40       __unwindfunclet$?clone@D3DTech_Overlay_lod0@Ogre@@UAEPAVD3DTech@2@XZ$0 1002bf40 f   OgreD3D9Technique_Impl.obj
 0001:0002af40       __unwindfunclet$?newMtlTemplate@D3D9MaterialManager@Ogre@@UAEPAVMaterialTemplate@2@ABVFixedString@2@@Z$0 1002bf40 f   OgreD3D9Technique_Impl.obj
 0001:0002af40       __unwindfunclet$?clone@D3DTech_Border1_lod0@Ogre@@UAEPAVD3DTech@2@XZ$0 1002bf40 f   OgreD3D9Technique_Impl.obj
 0001:0002af40       __unwindfunclet$?clone@D3DTech_terrain_all_lod0@Ogre@@UAEPAVD3DTech@2@XZ$0 1002bf40 f   OgreD3D9Technique_Impl.obj
 0001:0002af40       __unwindfunclet$?clone@D3DTech_dirdecal_lod0@Ogre@@UAEPAVD3DTech@2@XZ$0 1002bf40 f   OgreD3D9Technique_Impl.obj
 0001:0002af40       __unwindfunclet$?clone@D3DTech_Border_lod0@Ogre@@UAEPAVD3DTech@2@XZ$0 1002bf40 f   OgreD3D9Technique_Impl.obj
 0001:0002af40       __unwindfunclet$?clone@D3DTech_terrain_colormask_lod0@Ogre@@UAEPAVD3DTech@2@XZ$0 1002bf40 f   OgreD3D9Technique_Impl.obj
 0001:0002af40       __unwindfunclet$?clone@D3DTech_bloom_lod0@Ogre@@UAEPAVD3DTech@2@XZ$0 1002bf40 f   OgreD3D9Technique_Impl.obj
 0001:0002af40       __unwindfunclet$?clone@D3DTech_UvanimSelfillum_lod0@Ogre@@UAEPAVD3DTech@2@XZ$0 1002bf40 f   OgreD3D9Technique_Impl.obj
 0001:0002af40       __unwindfunclet$?clone@D3DTech_Line_lod0@Ogre@@UAEPAVD3DTech@2@XZ$0 1002bf40 f   OgreD3D9Technique_Impl.obj
 0001:0002af40       __unwindfunclet$?clone@D3DTech_Back1_lod0@Ogre@@UAEPAVD3DTech@2@XZ$0 1002bf40 f   OgreD3D9Technique_Impl.obj
 0001:0002af40       __unwindfunclet$?clone@D3DTech_Back0_lod0@Ogre@@UAEPAVD3DTech@2@XZ$0 1002bf40 f   OgreD3D9Technique_Impl.obj
 0001:0002af4b       __ehhandler$?clone@D3DTech_Particle_lod0@Ogre@@UAEPAVD3DTech@2@XZ 1002bf4b f   OgreD3D9Technique_Impl.obj
 0001:0002af4b       __ehhandler$?clone@D3DTech_Back0_lod0@Ogre@@UAEPAVD3DTech@2@XZ 1002bf4b f   OgreD3D9Technique_Impl.obj
 0001:0002af4b       __ehhandler$?clone@D3DTech_UvanimBlend_lod0@Ogre@@UAEPAVD3DTech@2@XZ 1002bf4b f   OgreD3D9Technique_Impl.obj
 0001:0002af4b       __ehhandler$?clone@D3DTech_distort_lod0@Ogre@@UAEPAVD3DTech@2@XZ 1002bf4b f   OgreD3D9Technique_Impl.obj
 0001:0002af4b       __ehhandler$?clone@D3DTech_cloth_shadowgen@Ogre@@UAEPAVD3DTech@2@XZ 1002bf4b f   OgreD3D9Technique_Impl.obj
 0001:0002af4b       __ehhandler$?clone@D3DTech_uielement_lod0@Ogre@@UAEPAVD3DTech@2@XZ 1002bf4b f   OgreD3D9Technique_Impl.obj
 0001:0002af4b       __ehhandler$?clone@D3DTech_sky_stdmtl_shadowgen@Ogre@@UAEPAVD3DTech@2@XZ 1002bf4b f   OgreD3D9Technique_Impl.obj
 0001:0002af4b       __ehhandler$?clone@D3DTech_Back1_lod0@Ogre@@UAEPAVD3DTech@2@XZ 1002bf4b f   OgreD3D9Technique_Impl.obj
 0001:0002af4b       __ehhandler$?clone@D3DTech_Uvanim2Layer_lod0@Ogre@@UAEPAVD3DTech@2@XZ 1002bf4b f   OgreD3D9Technique_Impl.obj
 0001:0002af4b       __ehhandler$?clone@D3DTech_decal_lod0@Ogre@@UAEPAVD3DTech@2@XZ 1002bf4b f   OgreD3D9Technique_Impl.obj
 0001:0002af4b       __ehhandler$?clone@D3DTech_Uvanim_lod0@Ogre@@UAEPAVD3DTech@2@XZ 1002bf4b f   OgreD3D9Technique_Impl.obj
 0001:0002af4b       __ehhandler$?clone@D3DTech_stdmtl_lod0@Ogre@@UAEPAVD3DTech@2@XZ 1002bf4b f   OgreD3D9Technique_Impl.obj
 0001:0002af4b       __ehhandler$?clone@D3DTech_bloom_lod0@Ogre@@UAEPAVD3DTech@2@XZ 1002bf4b f   OgreD3D9Technique_Impl.obj
 0001:0002af4b       __ehhandler$?clone@D3DTech_UvanimSelfillum_lod0@Ogre@@UAEPAVD3DTech@2@XZ 1002bf4b f   OgreD3D9Technique_Impl.obj
 0001:0002af4b       __ehhandler$?clone@D3DTech_particle_distort@Ogre@@UAEPAVD3DTech@2@XZ 1002bf4b f   OgreD3D9Technique_Impl.obj
 0001:0002af4b       __ehhandler$?clone@D3DTech_plant_lod0@Ogre@@UAEPAVD3DTech@2@XZ 1002bf4b f   OgreD3D9Technique_Impl.obj
 0001:0002af4b       __ehhandler$?clone@D3DTech_terrain_all_lod0@Ogre@@UAEPAVD3DTech@2@XZ 1002bf4b f   OgreD3D9Technique_Impl.obj
 0001:0002af4b       __ehhandler$?clone@D3DTech_Border_lod0@Ogre@@UAEPAVD3DTech@2@XZ 1002bf4b f   OgreD3D9Technique_Impl.obj
 0001:0002af4b       __ehhandler$?clone@D3DTech_decal_distort@Ogre@@UAEPAVD3DTech@2@XZ 1002bf4b f   OgreD3D9Technique_Impl.obj
 0001:0002af4b       __ehhandler$?clone@D3DTech_footprint_lod0@Ogre@@UAEPAVD3DTech@2@XZ 1002bf4b f   OgreD3D9Technique_Impl.obj
 0001:0002af4b       __ehhandler$?clone@D3DTech_sky_stdmtl_lod0@Ogre@@UAEPAVD3DTech@2@XZ 1002bf4b f   OgreD3D9Technique_Impl.obj
 0001:0002af4b       __ehhandler$?clone@D3DTech_dirdecal_lod0@Ogre@@UAEPAVD3DTech@2@XZ 1002bf4b f   OgreD3D9Technique_Impl.obj
 0001:0002af4b       __ehhandler$?clone@D3DTech_terrain_colormask_lod0@Ogre@@UAEPAVD3DTech@2@XZ 1002bf4b f   OgreD3D9Technique_Impl.obj
 0001:0002af4b       __ehhandler$?clone@D3DTech_Overlay_lod0@Ogre@@UAEPAVD3DTech@2@XZ 1002bf4b f   OgreD3D9Technique_Impl.obj
 0001:0002af4b       __ehhandler$?clone@D3DTech_water_reflect_lod0@Ogre@@UAEPAVD3DTech@2@XZ 1002bf4b f   OgreD3D9Technique_Impl.obj
 0001:0002af4b       __ehhandler$?clone@D3DTech_stdmtl_shadowgen@Ogre@@UAEPAVD3DTech@2@XZ 1002bf4b f   OgreD3D9Technique_Impl.obj
 0001:0002af4b       __ehhandler$?clone@D3DTech_Line_lod0@Ogre@@UAEPAVD3DTech@2@XZ 1002bf4b f   OgreD3D9Technique_Impl.obj
 0001:0002af4b       __ehhandler$?newMtlTemplate@D3D9MaterialManager@Ogre@@UAEPAVMaterialTemplate@2@ABVFixedString@2@@Z 1002bf4b f   OgreD3D9Technique_Impl.obj
 0001:0002af4b       __ehhandler$?clone@D3DTech_Border1_lod0@Ogre@@UAEPAVD3DTech@2@XZ 1002bf4b f   OgreD3D9Technique_Impl.obj
 0001:0002af4b       __ehhandler$?clone@D3DTech_general_water_lod0@Ogre@@UAEPAVD3DTech@2@XZ 1002bf4b f   OgreD3D9Technique_Impl.obj
 0001:0002af4b       __ehhandler$?clone@D3DTech_beach_lod0@Ogre@@UAEPAVD3DTech@2@XZ 1002bf4b f   OgreD3D9Technique_Impl.obj
 0001:0002af4b       __ehhandler$?clone@D3DTech_cloth_lod0@Ogre@@UAEPAVD3DTech@2@XZ 1002bf4b f   OgreD3D9Technique_Impl.obj
 0001:0002af70       __unwindfunclet$??1D3DTech_Border1_lod0@Ogre@@UAE@XZ$0 1002bf70 f   OgreD3D9Technique_Impl.obj
 0001:0002af70       __unwindfunclet$??0D3DTech_Overlay_lod0@Ogre@@QAE@XZ$0 1002bf70 f   OgreD3D9Technique_Impl.obj
 0001:0002af70       __unwindfunclet$??0D3DTech_beach_lod0@Ogre@@QAE@XZ$0 1002bf70 f   OgreD3D9Technique_Impl.obj
 0001:0002af70       __unwindfunclet$??1D3DTech_beach_lod0@Ogre@@UAE@XZ$0 1002bf70 f   OgreD3D9Technique_Impl.obj
 0001:0002af70       __unwindfunclet$??1D3DTech_stdmtl_shadowgen@Ogre@@UAE@XZ$0 1002bf70 f   OgreD3D9Technique_Impl.obj
 0001:0002af70       __unwindfunclet$??0D3DTech_general_water_lod0@Ogre@@QAE@XZ$0 1002bf70 f   OgreD3D9Technique_Impl.obj
 0001:0002af70       __unwindfunclet$??1D3DTech_general_water_lod0@Ogre@@UAE@XZ$0 1002bf70 f   OgreD3D9Technique_Impl.obj
 0001:0002af70       __unwindfunclet$??0D3DTech_Line_lod0@Ogre@@QAE@XZ$0 1002bf70 f   OgreD3D9Technique_Impl.obj
 0001:0002af70       __unwindfunclet$??0D3DTech_water_reflect_lod0@Ogre@@QAE@XZ$0 1002bf70 f   OgreD3D9Technique_Impl.obj
 0001:0002af70       __unwindfunclet$??0D3DTech_terrain_all_lod0@Ogre@@QAE@XZ$0 1002bf70 f   OgreD3D9Technique_Impl.obj
 0001:0002af70       __unwindfunclet$??0D3DTech_distort_lod0@Ogre@@QAE@XZ$0 1002bf70 f   OgreD3D9Technique_Impl.obj
 0001:0002af70       __unwindfunclet$??1D3DTech_dirdecal_lod0@Ogre@@UAE@XZ$0 1002bf70 f   OgreD3D9Technique_Impl.obj
 0001:0002af70       __unwindfunclet$??1D3DTech_terrain_colormask_lod0@Ogre@@UAE@XZ$0 1002bf70 f   OgreD3D9Technique_Impl.obj
 0001:0002af70       __unwindfunclet$??0D3DTech_Border1_lod0@Ogre@@QAE@XZ$0 1002bf70 f   OgreD3D9Technique_Impl.obj
 0001:0002af70       __unwindfunclet$??1D3DTech_Overlay_lod0@Ogre@@UAE@XZ$0 1002bf70 f   OgreD3D9Technique_Impl.obj
 0001:0002af70       __unwindfunclet$??1D3DTech_Line_lod0@Ogre@@UAE@XZ$0 1002bf70 f   OgreD3D9Technique_Impl.obj
 0001:0002af70       __unwindfunclet$??0D3DTech_Particle_lod0@Ogre@@QAE@XZ$0 1002bf70 f   OgreD3D9Technique_Impl.obj
 0001:0002af70       __unwindfunclet$??1D3DTech_footprint_lod0@Ogre@@UAE@XZ$0 1002bf70 f   OgreD3D9Technique_Impl.obj
 0001:0002af70       __unwindfunclet$??0D3DTech_plant_lod0@Ogre@@QAE@XZ$0 1002bf70 f   OgreD3D9Technique_Impl.obj
 0001:0002af70       __unwindfunclet$??0D3DTech_dirdecal_lod0@Ogre@@QAE@XZ$0 1002bf70 f   OgreD3D9Technique_Impl.obj
 0001:0002af70       __unwindfunclet$??1D3DTech_cloth_lod0@Ogre@@UAE@XZ$0 1002bf70 f   OgreD3D9Technique_Impl.obj
 0001:0002af70       __unwindfunclet$??0D3DTech_footprint_lod0@Ogre@@QAE@XZ$0 1002bf70 f   OgreD3D9Technique_Impl.obj
 0001:0002af70       __unwindfunclet$??0D3DTech_stdmtl_shadowgen@Ogre@@QAE@XZ$0 1002bf70 f   OgreD3D9Technique_Impl.obj
 0001:0002af70       __unwindfunclet$??1D3DTech_Particle_lod0@Ogre@@UAE@XZ$0 1002bf70 f   OgreD3D9Technique_Impl.obj
 0001:0002af70       __unwindfunclet$??1D3DTech_decal_distort@Ogre@@UAE@XZ$0 1002bf70 f   OgreD3D9Technique_Impl.obj
 0001:0002af70       __unwindfunclet$??0D3DTech_particle_distort@Ogre@@QAE@XZ$0 1002bf70 f   OgreD3D9Technique_Impl.obj
 0001:0002af70       __unwindfunclet$??1D3DTech_UvanimSelfillum_lod0@Ogre@@UAE@XZ$0 1002bf70 f   OgreD3D9Technique_Impl.obj
 0001:0002af70       __unwindfunclet$??1D3DTech_Border_lod0@Ogre@@UAE@XZ$0 1002bf70 f   OgreD3D9Technique_Impl.obj
 0001:0002af70       __unwindfunclet$??1D3DTech_stdmtl_lod0@Ogre@@UAE@XZ$0 1002bf70 f   OgreD3D9Technique_Impl.obj
 0001:0002af70       __unwindfunclet$??1D3DTech_bloom_lod0@Ogre@@UAE@XZ$0 1002bf70 f   OgreD3D9Technique_Impl.obj
 0001:0002af70       __unwindfunclet$??1D3DTech_plant_lod0@Ogre@@UAE@XZ$0 1002bf70 f   OgreD3D9Technique_Impl.obj
 0001:0002af70       __unwindfunclet$??1D3DTech_terrain_all_lod0@Ogre@@UAE@XZ$0 1002bf70 f   OgreD3D9Technique_Impl.obj
 0001:0002af70       __unwindfunclet$??0D3DTech_Border_lod0@Ogre@@QAE@XZ$0 1002bf70 f   OgreD3D9Technique_Impl.obj
 0001:0002af70       __unwindfunclet$??0D3DTech_uielement_lod0@Ogre@@QAE@XZ$0 1002bf70 f   OgreD3D9Technique_Impl.obj
 0001:0002af70       __unwindfunclet$??1D3DTech_particle_distort@Ogre@@UAE@XZ$0 1002bf70 f   OgreD3D9Technique_Impl.obj
 0001:0002af70       __unwindfunclet$??0D3DTech_decal_distort@Ogre@@QAE@XZ$0 1002bf70 f   OgreD3D9Technique_Impl.obj
 0001:0002af70       __unwindfunclet$??0D3DTech_Uvanim_lod0@Ogre@@QAE@XZ$0 1002bf70 f   OgreD3D9Technique_Impl.obj
 0001:0002af70       __unwindfunclet$??1D3DTech_decal_lod0@Ogre@@UAE@XZ$0 1002bf70 f   OgreD3D9Technique_Impl.obj
 0001:0002af70       __unwindfunclet$??0D3DTech_terrain_colormask_lod0@Ogre@@QAE@XZ$0 1002bf70 f   OgreD3D9Technique_Impl.obj
 0001:0002af70       __unwindfunclet$??0D3DTech_cloth_lod0@Ogre@@QAE@XZ$0 1002bf70 f   OgreD3D9Technique_Impl.obj
 0001:0002af70       __unwindfunclet$??1D3DTech_Uvanim_lod0@Ogre@@UAE@XZ$0 1002bf70 f   OgreD3D9Technique_Impl.obj
 0001:0002af70       __unwindfunclet$??1D3DTech_Back1_lod0@Ogre@@UAE@XZ$0 1002bf70 f   OgreD3D9Technique_Impl.obj
 0001:0002af70       __unwindfunclet$??0D3DTech_Uvanim2Layer_lod0@Ogre@@QAE@XZ$0 1002bf70 f   OgreD3D9Technique_Impl.obj
 0001:0002af70       __unwindfunclet$??0D3DTech_cloth_shadowgen@Ogre@@QAE@XZ$0 1002bf70 f   OgreD3D9Technique_Impl.obj
 0001:0002af70       __unwindfunclet$??0D3DTech_decal_lod0@Ogre@@QAE@XZ$0 1002bf70 f   OgreD3D9Technique_Impl.obj
 0001:0002af70       __unwindfunclet$??1D3DTech_sky_stdmtl_shadowgen@Ogre@@UAE@XZ$0 1002bf70 f   OgreD3D9Technique_Impl.obj
 0001:0002af70       __unwindfunclet$??0D3DTech_stdmtl_lod0@Ogre@@QAE@XZ$0 1002bf70 f   OgreD3D9Technique_Impl.obj
 0001:0002af70       __unwindfunclet$??0D3DTech_bloom_lod0@Ogre@@QAE@XZ$0 1002bf70 f   OgreD3D9Technique_Impl.obj
 0001:0002af70       __unwindfunclet$??1D3DTech_Uvanim2Layer_lod0@Ogre@@UAE@XZ$0 1002bf70 f   OgreD3D9Technique_Impl.obj
 0001:0002af70       __unwindfunclet$??0D3DTech_Back0_lod0@Ogre@@QAE@XZ$0 1002bf70 f   OgreD3D9Technique_Impl.obj
 0001:0002af70       __unwindfunclet$??0D3DTech_UvanimBlend_lod0@Ogre@@QAE@XZ$0 1002bf70 f   OgreD3D9Technique_Impl.obj
 0001:0002af70       __unwindfunclet$??0D3DTech_sky_stdmtl_shadowgen@Ogre@@QAE@XZ$0 1002bf70 f   OgreD3D9Technique_Impl.obj
 0001:0002af70       __unwindfunclet$??1D3DTech_sky_stdmtl_lod0@Ogre@@UAE@XZ$0 1002bf70 f   OgreD3D9Technique_Impl.obj
 0001:0002af70       __unwindfunclet$??1D3DTech_distort_lod0@Ogre@@UAE@XZ$0 1002bf70 f   OgreD3D9Technique_Impl.obj
 0001:0002af70       __unwindfunclet$??1D3DTech_uielement_lod0@Ogre@@UAE@XZ$0 1002bf70 f   OgreD3D9Technique_Impl.obj
 0001:0002af70       __unwindfunclet$??0D3DTech_Back1_lod0@Ogre@@QAE@XZ$0 1002bf70 f   OgreD3D9Technique_Impl.obj
 0001:0002af70       __unwindfunclet$??1D3DTech_Back0_lod0@Ogre@@UAE@XZ$0 1002bf70 f   OgreD3D9Technique_Impl.obj
 0001:0002af70       __unwindfunclet$??1D3DTech_UvanimBlend_lod0@Ogre@@UAE@XZ$0 1002bf70 f   OgreD3D9Technique_Impl.obj
 0001:0002af70       __unwindfunclet$??1D3DTech_water_reflect_lod0@Ogre@@UAE@XZ$0 1002bf70 f   OgreD3D9Technique_Impl.obj
 0001:0002af70       __unwindfunclet$??0D3DTech_UvanimSelfillum_lod0@Ogre@@QAE@XZ$0 1002bf70 f   OgreD3D9Technique_Impl.obj
 0001:0002af70       __unwindfunclet$??0D3DTech_sky_stdmtl_lod0@Ogre@@QAE@XZ$0 1002bf70 f   OgreD3D9Technique_Impl.obj
 0001:0002af70       __unwindfunclet$??1D3DTech_cloth_shadowgen@Ogre@@UAE@XZ$0 1002bf70 f   OgreD3D9Technique_Impl.obj
 0001:0002af78       __ehhandler$??0D3DTech_sky_stdmtl_lod0@Ogre@@QAE@XZ 1002bf78 f   OgreD3D9Technique_Impl.obj
 0001:0002af78       __ehhandler$??1D3DTech_UvanimBlend_lod0@Ogre@@UAE@XZ 1002bf78 f   OgreD3D9Technique_Impl.obj
 0001:0002af78       __ehhandler$??0D3DTech_UvanimSelfillum_lod0@Ogre@@QAE@XZ 1002bf78 f   OgreD3D9Technique_Impl.obj
 0001:0002af78       __ehhandler$??1D3DTech_uielement_lod0@Ogre@@UAE@XZ 1002bf78 f   OgreD3D9Technique_Impl.obj
 0001:0002af78       __ehhandler$??1D3DTech_cloth_shadowgen@Ogre@@UAE@XZ 1002bf78 f   OgreD3D9Technique_Impl.obj
 0001:0002af78       __ehhandler$??1D3DTech_sky_stdmtl_lod0@Ogre@@UAE@XZ 1002bf78 f   OgreD3D9Technique_Impl.obj
 0001:0002af78       __ehhandler$??0D3DTech_UvanimBlend_lod0@Ogre@@QAE@XZ 1002bf78 f   OgreD3D9Technique_Impl.obj
 0001:0002af78       __ehhandler$??0D3DTech_sky_stdmtl_shadowgen@Ogre@@QAE@XZ 1002bf78 f   OgreD3D9Technique_Impl.obj
 0001:0002af78       __ehhandler$??0D3DTech_cloth_shadowgen@Ogre@@QAE@XZ 1002bf78 f   OgreD3D9Technique_Impl.obj
 0001:0002af78       __ehhandler$??1D3DTech_Uvanim2Layer_lod0@Ogre@@UAE@XZ 1002bf78 f   OgreD3D9Technique_Impl.obj
 0001:0002af78       __ehhandler$??0D3DTech_uielement_lod0@Ogre@@QAE@XZ 1002bf78 f   OgreD3D9Technique_Impl.obj
 0001:0002af78       __ehhandler$??1D3DTech_sky_stdmtl_shadowgen@Ogre@@UAE@XZ 1002bf78 f   OgreD3D9Technique_Impl.obj
 0001:0002af78       __ehhandler$??0D3DTech_stdmtl_lod0@Ogre@@QAE@XZ 1002bf78 f   OgreD3D9Technique_Impl.obj
 0001:0002af78       __ehhandler$??0D3DTech_decal_lod0@Ogre@@QAE@XZ 1002bf78 f   OgreD3D9Technique_Impl.obj
 0001:0002af78       __ehhandler$??0D3DTech_Uvanim2Layer_lod0@Ogre@@QAE@XZ 1002bf78 f   OgreD3D9Technique_Impl.obj
 0001:0002af78       __ehhandler$??1D3DTech_Uvanim_lod0@Ogre@@UAE@XZ 1002bf78 f   OgreD3D9Technique_Impl.obj
 0001:0002af78       __ehhandler$??0D3DTech_Uvanim_lod0@Ogre@@QAE@XZ 1002bf78 f   OgreD3D9Technique_Impl.obj
 0001:0002af78       __ehhandler$??1D3DTech_decal_lod0@Ogre@@UAE@XZ 1002bf78 f   OgreD3D9Technique_Impl.obj
 0001:0002af78       __ehhandler$??1D3DTech_particle_distort@Ogre@@UAE@XZ 1002bf78 f   OgreD3D9Technique_Impl.obj
 0001:0002af78       __ehhandler$??0D3DTech_decal_distort@Ogre@@QAE@XZ 1002bf78 f   OgreD3D9Technique_Impl.obj
 0001:0002af78       __ehhandler$??1D3DTech_plant_lod0@Ogre@@UAE@XZ 1002bf78 f   OgreD3D9Technique_Impl.obj
 0001:0002af78       __ehhandler$??1D3DTech_cloth_lod0@Ogre@@UAE@XZ 1002bf78 f   OgreD3D9Technique_Impl.obj
 0001:0002af78       __ehhandler$??1D3DTech_stdmtl_lod0@Ogre@@UAE@XZ 1002bf78 f   OgreD3D9Technique_Impl.obj
 0001:0002af78       __ehhandler$??0D3DTech_particle_distort@Ogre@@QAE@XZ 1002bf78 f   OgreD3D9Technique_Impl.obj
 0001:0002af78       __ehhandler$??1D3DTech_Particle_lod0@Ogre@@UAE@XZ 1002bf78 f   OgreD3D9Technique_Impl.obj
 0001:0002af78       __ehhandler$??1D3DTech_decal_distort@Ogre@@UAE@XZ 1002bf78 f   OgreD3D9Technique_Impl.obj
 0001:0002af78       __ehhandler$??0D3DTech_plant_lod0@Ogre@@QAE@XZ 1002bf78 f   OgreD3D9Technique_Impl.obj
 0001:0002af78       __ehhandler$??0D3DTech_footprint_lod0@Ogre@@QAE@XZ 1002bf78 f   OgreD3D9Technique_Impl.obj
 0001:0002af78       __ehhandler$??0D3DTech_stdmtl_shadowgen@Ogre@@QAE@XZ 1002bf78 f   OgreD3D9Technique_Impl.obj
 0001:0002af78       __ehhandler$??0D3DTech_Particle_lod0@Ogre@@QAE@XZ 1002bf78 f   OgreD3D9Technique_Impl.obj
 0001:0002af78       __ehhandler$??1D3DTech_water_reflect_lod0@Ogre@@UAE@XZ 1002bf78 f   OgreD3D9Technique_Impl.obj
 0001:0002af78       __ehhandler$??1D3DTech_footprint_lod0@Ogre@@UAE@XZ 1002bf78 f   OgreD3D9Technique_Impl.obj
 0001:0002af78       __ehhandler$??1D3DTech_Line_lod0@Ogre@@UAE@XZ 1002bf78 f   OgreD3D9Technique_Impl.obj
 0001:0002af78       __ehhandler$??1D3DTech_Overlay_lod0@Ogre@@UAE@XZ 1002bf78 f   OgreD3D9Technique_Impl.obj
 0001:0002af78       __ehhandler$??0D3DTech_water_reflect_lod0@Ogre@@QAE@XZ 1002bf78 f   OgreD3D9Technique_Impl.obj
 0001:0002af78       __ehhandler$??1D3DTech_UvanimSelfillum_lod0@Ogre@@UAE@XZ 1002bf78 f   OgreD3D9Technique_Impl.obj
 0001:0002af78       __ehhandler$??0D3DTech_Line_lod0@Ogre@@QAE@XZ 1002bf78 f   OgreD3D9Technique_Impl.obj
 0001:0002af78       __ehhandler$??1D3DTech_general_water_lod0@Ogre@@UAE@XZ 1002bf78 f   OgreD3D9Technique_Impl.obj
 0001:0002af78       __ehhandler$??1D3DTech_beach_lod0@Ogre@@UAE@XZ 1002bf78 f   OgreD3D9Technique_Impl.obj
 0001:0002af78       __ehhandler$??1D3DTech_stdmtl_shadowgen@Ogre@@UAE@XZ 1002bf78 f   OgreD3D9Technique_Impl.obj
 0001:0002af78       __ehhandler$??0D3DTech_Overlay_lod0@Ogre@@QAE@XZ 1002bf78 f   OgreD3D9Technique_Impl.obj
 0001:0002af78       __ehhandler$??1D3DTech_Border1_lod0@Ogre@@UAE@XZ 1002bf78 f   OgreD3D9Technique_Impl.obj
 0001:0002af78       __ehhandler$??0D3DTech_beach_lod0@Ogre@@QAE@XZ 1002bf78 f   OgreD3D9Technique_Impl.obj
 0001:0002af78       __ehhandler$??0D3DTech_general_water_lod0@Ogre@@QAE@XZ 1002bf78 f   OgreD3D9Technique_Impl.obj
 0001:0002af78       __ehhandler$??0D3DTech_terrain_all_lod0@Ogre@@QAE@XZ 1002bf78 f   OgreD3D9Technique_Impl.obj
 0001:0002af78       __ehhandler$??0D3DTech_distort_lod0@Ogre@@QAE@XZ 1002bf78 f   OgreD3D9Technique_Impl.obj
 0001:0002af78       __ehhandler$??1D3DTech_dirdecal_lod0@Ogre@@UAE@XZ 1002bf78 f   OgreD3D9Technique_Impl.obj
 0001:0002af78       __ehhandler$??1D3DTech_terrain_colormask_lod0@Ogre@@UAE@XZ 1002bf78 f   OgreD3D9Technique_Impl.obj
 0001:0002af78       __ehhandler$??0D3DTech_Border1_lod0@Ogre@@QAE@XZ 1002bf78 f   OgreD3D9Technique_Impl.obj
 0001:0002af78       __ehhandler$??0D3DTech_cloth_lod0@Ogre@@QAE@XZ 1002bf78 f   OgreD3D9Technique_Impl.obj
 0001:0002af78       __ehhandler$??0D3DTech_dirdecal_lod0@Ogre@@QAE@XZ 1002bf78 f   OgreD3D9Technique_Impl.obj
 0001:0002af78       __ehhandler$??1D3DTech_Border_lod0@Ogre@@UAE@XZ 1002bf78 f   OgreD3D9Technique_Impl.obj
 0001:0002af78       __ehhandler$??1D3DTech_bloom_lod0@Ogre@@UAE@XZ 1002bf78 f   OgreD3D9Technique_Impl.obj
 0001:0002af78       __ehhandler$??0D3DTech_Border_lod0@Ogre@@QAE@XZ 1002bf78 f   OgreD3D9Technique_Impl.obj
 0001:0002af78       __ehhandler$??0D3DTech_terrain_colormask_lod0@Ogre@@QAE@XZ 1002bf78 f   OgreD3D9Technique_Impl.obj
 0001:0002af78       __ehhandler$??1D3DTech_Back1_lod0@Ogre@@UAE@XZ 1002bf78 f   OgreD3D9Technique_Impl.obj
 0001:0002af78       __ehhandler$??0D3DTech_bloom_lod0@Ogre@@QAE@XZ 1002bf78 f   OgreD3D9Technique_Impl.obj
 0001:0002af78       __ehhandler$??1D3DTech_terrain_all_lod0@Ogre@@UAE@XZ 1002bf78 f   OgreD3D9Technique_Impl.obj
 0001:0002af78       __ehhandler$??1D3DTech_distort_lod0@Ogre@@UAE@XZ 1002bf78 f   OgreD3D9Technique_Impl.obj
 0001:0002af78       __ehhandler$??0D3DTech_Back1_lod0@Ogre@@QAE@XZ 1002bf78 f   OgreD3D9Technique_Impl.obj
 0001:0002af78       __ehhandler$??1D3DTech_Back0_lod0@Ogre@@UAE@XZ 1002bf78 f   OgreD3D9Technique_Impl.obj
 0001:0002af78       __ehhandler$??0D3DTech_Back0_lod0@Ogre@@QAE@XZ 1002bf78 f   OgreD3D9Technique_Impl.obj
 0001:0002afa0       __unwindfunclet$??0D3D9VertexDecl@Ogre@@QAE@PAVD3D9RenderSystem@1@ABVVertexFormat@1@@Z$0 1002bfa0 f   OgreD3D9VertexDecl.obj
 0001:0002afac       __ehhandler$??0D3D9VertexDecl@Ogre@@QAE@PAVD3D9RenderSystem@1@ABVVertexFormat@1@@Z 1002bfac f   OgreD3D9VertexDecl.obj
 0001:0002afc7       __unwindfunclet$??1D3D9VertexDecl@Ogre@@QAE@XZ$0 1002bfc7 f   OgreD3D9VertexDecl.obj
 0001:0002afd3       __ehhandler$??1D3D9VertexDecl@Ogre@@QAE@XZ 1002bfd3 f   OgreD3D9VertexDecl.obj
 0001:0002aff0       __unwindfunclet$??0D3DVertexBufferPool@Ogre@@QAE@PAVD3D9RenderSystem@1@W4HardwareBufferUsage@1@I@Z$0 1002bff0 f   OgreD3DHardwareBuffer.obj
 0001:0002aff8       __ehhandler$??0D3DVertexBufferPool@Ogre@@QAE@PAVD3D9RenderSystem@1@W4HardwareBufferUsage@1@I@Z 1002bff8 f   OgreD3DHardwareBuffer.obj
 0001:0002b013       __unwindfunclet$??1D3DVertexBufferPool@Ogre@@UAE@XZ$0 1002c013 f   OgreD3DHardwareBuffer.obj
 0001:0002b01b       __ehhandler$??1D3DVertexBufferPool@Ogre@@UAE@XZ 1002c01b f   OgreD3DHardwareBuffer.obj
 0001:0002b036       __unwindfunclet$??0D3DIndexBufferPool@Ogre@@QAE@PAVD3D9RenderSystem@1@W4HardwareBufferUsage@1@II@Z$0 1002c036 f   OgreD3DHardwareBuffer.obj
 0001:0002b03e       __ehhandler$??0D3DIndexBufferPool@Ogre@@QAE@PAVD3D9RenderSystem@1@W4HardwareBufferUsage@1@II@Z 1002c03e f   OgreD3DHardwareBuffer.obj
 0001:0002b059       __unwindfunclet$??1D3DIndexBufferPool@Ogre@@UAE@XZ$0 1002c059 f   OgreD3DHardwareBuffer.obj
 0001:0002b061       __ehhandler$??1D3DIndexBufferPool@Ogre@@UAE@XZ 1002c061 f   OgreD3DHardwareBuffer.obj
 0001:0002b07c       __unwindfunclet$?newPool@D3D9HardwareBufferManager@Ogre@@UAEPAVHardwareBufferPool@2@_NW4HardwareBufferUsage@2@II@Z$0 1002c07c f   OgreD3DHardwareBuffer.obj
 0001:0002b087       __unwindfunclet$?newPool@D3D9HardwareBufferManager@Ogre@@UAEPAVHardwareBufferPool@2@_NW4HardwareBufferUsage@2@II@Z$1 1002c087 f   OgreD3DHardwareBuffer.obj
 0001:0002b092       __ehhandler$?newPool@D3D9HardwareBufferManager@Ogre@@UAEPAVHardwareBufferPool@2@_NW4HardwareBufferUsage@2@II@Z 1002c092 f   OgreD3DHardwareBuffer.obj
 0001:0002b0b0       __unwindfunclet$??1D3D9BufferPool@Ogre@@UAE@XZ$0 1002c0b0 f   OgreD3DHardwareBuffer.obj
 0001:0002b0b0       __unwindfunclet$??0D3D9BufferPool@Ogre@@QAE@_NI0@Z$0 1002c0b0 f   OgreD3DHardwareBuffer.obj
 0001:0002b0b9       __ehhandler$??0D3D9BufferPool@Ogre@@QAE@_NI0@Z 1002c0b9 f   OgreD3DHardwareBuffer.obj
 0001:0002b0b9       __ehhandler$??1D3D9BufferPool@Ogre@@UAE@XZ 1002c0b9 f   OgreD3DHardwareBuffer.obj
 0001:0002b0e0       __unwindfunclet$??0D3DMaterialTemplate@Ogre@@QAE@PAVD3D9RenderSystem@1@ABVFixedString@1@@Z$0 1002c0e0 f   OgreD3DMaterialTemplate.obj
 0001:0002b0e9       __unwindfunclet$??0D3DMaterialTemplate@Ogre@@QAE@PAVD3D9RenderSystem@1@ABVFixedString@1@@Z$1 1002c0e9 f   OgreD3DMaterialTemplate.obj
 0001:0002b0f5       __unwindfunclet$??0D3DMaterialTemplate@Ogre@@QAE@PAVD3D9RenderSystem@1@ABVFixedString@1@@Z$2 1002c0f5 f   OgreD3DMaterialTemplate.obj
 0001:0002b100       __unwindfunclet$??0D3DMaterialTemplate@Ogre@@QAE@PAVD3D9RenderSystem@1@ABVFixedString@1@@Z$3 1002c100 f   OgreD3DMaterialTemplate.obj
 0001:0002b10b       __unwindfunclet$??0D3DMaterialTemplate@Ogre@@QAE@PAVD3D9RenderSystem@1@ABVFixedString@1@@Z$4 1002c10b f   OgreD3DMaterialTemplate.obj
 0001:0002b119       __ehhandler$??0D3DMaterialTemplate@Ogre@@QAE@PAVD3D9RenderSystem@1@ABVFixedString@1@@Z 1002c119 f   OgreD3DMaterialTemplate.obj
 0001:0002b134       __unwindfunclet$??1D3DMaterialTemplate@Ogre@@UAE@XZ$0 1002c134 f   OgreD3DMaterialTemplate.obj
 0001:0002b13d       __unwindfunclet$??1D3DMaterialTemplate@Ogre@@UAE@XZ$1 1002c13d f   OgreD3DMaterialTemplate.obj
 0001:0002b149       __unwindfunclet$??1D3DMaterialTemplate@Ogre@@UAE@XZ$2 1002c149 f   OgreD3DMaterialTemplate.obj
 0001:0002b154       __unwindfunclet$??1D3DMaterialTemplate@Ogre@@UAE@XZ$3 1002c154 f   OgreD3DMaterialTemplate.obj
 0001:0002b15f       __unwindfunclet$??1D3DMaterialTemplate@Ogre@@UAE@XZ$4 1002c15f f   OgreD3DMaterialTemplate.obj
 0001:0002b16d       __ehhandler$??1D3DMaterialTemplate@Ogre@@UAE@XZ 1002c16d f   OgreD3DMaterialTemplate.obj
 0001:0002b188       __unwindfunclet$?init@D3DMaterialTemplate@Ogre@@UAE_NVXMLNode@2@@Z$0 1002c188 f   OgreD3DMaterialTemplate.obj
 0001:0002b196       __ehhandler$?init@D3DMaterialTemplate@Ogre@@UAE_NVXMLNode@2@@Z 1002c196 f   OgreD3DMaterialTemplate.obj
 0001:0002b1be       __unwindfunclet$?getCompiledVSPS@D3DMaterialTemplate@Ogre@@QAEPAVCompiledShader@2@W4COMPILED_TYPE@2@PBDABUShaderEnvFlags@2@ABUMaterialMacro@2@@Z$0 1002c1be f   OgreD3DMaterialTemplate.obj
 0001:0002b1cc       __unwindfunclet$?getCompiledVSPS@D3DMaterialTemplate@Ogre@@QAEPAVCompiledShader@2@W4COMPILED_TYPE@2@PBDABUShaderEnvFlags@2@ABUMaterialMacro@2@@Z$1 1002c1cc f   OgreD3DMaterialTemplate.obj
 0001:0002b1ef       __unwindfunclet$?getCompiledVSPS@D3DMaterialTemplate@Ogre@@QAEPAVCompiledShader@2@W4COMPILED_TYPE@2@PBDABUShaderEnvFlags@2@ABUMaterialMacro@2@@Z$2 1002c1ef f   OgreD3DMaterialTemplate.obj
 0001:0002b1fb       __unwindfunclet$?getCompiledVSPS@D3DMaterialTemplate@Ogre@@QAEPAVCompiledShader@2@W4COMPILED_TYPE@2@PBDABUShaderEnvFlags@2@ABUMaterialMacro@2@@Z$3 1002c1fb f   OgreD3DMaterialTemplate.obj
 0001:0002b209       __ehhandler$?getCompiledVSPS@D3DMaterialTemplate@Ogre@@QAEPAVCompiledShader@2@W4COMPILED_TYPE@2@PBDABUShaderEnvFlags@2@ABUMaterialMacro@2@@Z 1002c209 f   OgreD3DMaterialTemplate.obj
 0001:0002b231       __unwindfunclet$?getShaderTechnique_old@D3DMaterialTemplate@Ogre@@QAEPAVShaderTechnique@2@ABUShaderEnvFlags@2@ABUMaterialMacro@2@IW4RenderUsage@2@@Z$0 1002c231 f   OgreD3DMaterialTemplate.obj
 0001:0002b23a       __unwindfunclet$?getShaderTechnique_old@D3DMaterialTemplate@Ogre@@QAEPAVShaderTechnique@2@ABUShaderEnvFlags@2@ABUMaterialMacro@2@IW4RenderUsage@2@@Z$1 1002c23a f   OgreD3DMaterialTemplate.obj
 0001:0002b245       __ehhandler$?getShaderTechnique_old@D3DMaterialTemplate@Ogre@@QAEPAVShaderTechnique@2@ABUShaderEnvFlags@2@ABUMaterialMacro@2@IW4RenderUsage@2@@Z 1002c245 f   OgreD3DMaterialTemplate.obj
 0001:0002b260       __unwindfunclet$?getRequiredParams_old@D3DMaterialTemplate@Ogre@@QAEIPAW4ShaderParamUsage@2@IABUShaderEnvFlags@2@ABUMaterialMacro@2@IW4RenderUsage@2@@Z$0 1002c260 f   OgreD3DMaterialTemplate.obj
 0001:0002b269       __ehhandler$?getRequiredParams_old@D3DMaterialTemplate@Ogre@@QAEIPAW4ShaderParamUsage@2@IABUShaderEnvFlags@2@ABUMaterialMacro@2@IW4RenderUsage@2@@Z 1002c269 f   OgreD3DMaterialTemplate.obj
 0001:0002b284       __unwindfunclet$?getShaderTechnique@D3DMaterialTemplate@Ogre@@UAEPAVShaderTechnique@2@ABUShaderEnvFlags@2@ABUMaterialMacro@2@IW4RenderUsage@2@@Z$0 1002c284 f   OgreD3DMaterialTemplate.obj
 0001:0002b28d       __ehhandler$?getShaderTechnique@D3DMaterialTemplate@Ogre@@UAEPAVShaderTechnique@2@ABUShaderEnvFlags@2@ABUMaterialMacro@2@IW4RenderUsage@2@@Z 1002c28d f   OgreD3DMaterialTemplate.obj
 0001:0002b2a8       __unwindfunclet$?getRequiredParams@D3DMaterialTemplate@Ogre@@UAEIPAW4ShaderParamUsage@2@IABUShaderEnvFlags@2@ABUMaterialMacro@2@IW4RenderUsage@2@@Z$0 1002c2a8 f   OgreD3DMaterialTemplate.obj
 0001:0002b2b1       __ehhandler$?getRequiredParams@D3DMaterialTemplate@Ogre@@UAEIPAW4ShaderParamUsage@2@IABUShaderEnvFlags@2@ABUMaterialMacro@2@IW4RenderUsage@2@@Z 1002c2b1 f   OgreD3DMaterialTemplate.obj
 0001:0002b2cc       __unwindfunclet$?loadCompiledShaders@D3DMaterialTemplate@Ogre@@QAEXPAU_iobuf@@AAVCMd5@@@Z$0 1002c2cc f   OgreD3DMaterialTemplate.obj
 0001:0002b2da       __unwindfunclet$?loadCompiledShaders@D3DMaterialTemplate@Ogre@@QAEXPAU_iobuf@@AAVCMd5@@@Z$1 1002c2da f   OgreD3DMaterialTemplate.obj
 0001:0002b2fd       __unwindfunclet$?loadCompiledShaders@D3DMaterialTemplate@Ogre@@QAEXPAU_iobuf@@AAVCMd5@@@Z$2 1002c2fd f   OgreD3DMaterialTemplate.obj
 0001:0002b30b       __unwindfunclet$?loadCompiledShaders@D3DMaterialTemplate@Ogre@@QAEXPAU_iobuf@@AAVCMd5@@@Z$3 1002c30b f   OgreD3DMaterialTemplate.obj
 0001:0002b317       __unwindfunclet$?loadCompiledShaders@D3DMaterialTemplate@Ogre@@QAEXPAU_iobuf@@AAVCMd5@@@Z$4 1002c317 f   OgreD3DMaterialTemplate.obj
 0001:0002b325       __unwindfunclet$?loadCompiledShaders@D3DMaterialTemplate@Ogre@@QAEXPAU_iobuf@@AAVCMd5@@@Z$5 1002c325 f   OgreD3DMaterialTemplate.obj
 0001:0002b333       __ehhandler$?loadCompiledShaders@D3DMaterialTemplate@Ogre@@QAEXPAU_iobuf@@AAVCMd5@@@Z 1002c333 f   OgreD3DMaterialTemplate.obj
 0001:0002b35b       __unwindfunclet$?saveCompiledShaders@D3DMaterialTemplate@Ogre@@QAEXPAU_iobuf@@AAVCMd5@@@Z$0 1002c35b f   OgreD3DMaterialTemplate.obj
 0001:0002b364       __ehhandler$?saveCompiledShaders@D3DMaterialTemplate@Ogre@@QAEXPAU_iobuf@@AAVCMd5@@@Z 1002c364 f   OgreD3DMaterialTemplate.obj
 0001:0002b382       __unwindfunclet$?loadCompiledShadersFromDataStream@D3DMaterialTemplate@Ogre@@QAEXPAVDataStream@2@@Z$0 1002c382 f   OgreD3DMaterialTemplate.obj
 0001:0002b390       __unwindfunclet$?loadCompiledShadersFromDataStream@D3DMaterialTemplate@Ogre@@QAEXPAVDataStream@2@@Z$1 1002c390 f   OgreD3DMaterialTemplate.obj
 0001:0002b3b3       __unwindfunclet$?loadCompiledShadersFromDataStream@D3DMaterialTemplate@Ogre@@QAEXPAVDataStream@2@@Z$2 1002c3b3 f   OgreD3DMaterialTemplate.obj
 0001:0002b3c1       __unwindfunclet$?loadCompiledShadersFromDataStream@D3DMaterialTemplate@Ogre@@QAEXPAVDataStream@2@@Z$3 1002c3c1 f   OgreD3DMaterialTemplate.obj
 0001:0002b3cd       __unwindfunclet$?loadCompiledShadersFromDataStream@D3DMaterialTemplate@Ogre@@QAEXPAVDataStream@2@@Z$4 1002c3cd f   OgreD3DMaterialTemplate.obj
 0001:0002b3db       __unwindfunclet$?loadCompiledShadersFromDataStream@D3DMaterialTemplate@Ogre@@QAEXPAVDataStream@2@@Z$5 1002c3db f   OgreD3DMaterialTemplate.obj
 0001:0002b3e9       __ehhandler$?loadCompiledShadersFromDataStream@D3DMaterialTemplate@Ogre@@QAEXPAVDataStream@2@@Z 1002c3e9 f   OgreD3DMaterialTemplate.obj
 0001:0002b411       __unwindfunclet$??0D3D9MaterialManager@Ogre@@QAE@PAVD3D9RenderSystem@1@@Z$0 1002c411 f   OgreD3DMaterialTemplate.obj
 0001:0002b41a       __ehhandler$??0D3D9MaterialManager@Ogre@@QAE@PAVD3D9RenderSystem@1@@Z 1002c41a f   OgreD3DMaterialTemplate.obj
 0001:0002b435       __unwindfunclet$??1D3D9MaterialManager@Ogre@@UAE@XZ$0 1002c435 f   OgreD3DMaterialTemplate.obj
 0001:0002b43e       __ehhandler$??1D3D9MaterialManager@Ogre@@UAE@XZ 1002c43e f   OgreD3DMaterialTemplate.obj
 0001:0002b459       __unwindfunclet$?loadShaderEnvKeys@D3D9MaterialManager@Ogre@@QAEXXZ$0 1002c459 f   OgreD3DMaterialTemplate.obj
 0001:0002b465       __unwindfunclet$?loadShaderEnvKeys@D3D9MaterialManager@Ogre@@QAEXXZ$1 1002c465 f   OgreD3DMaterialTemplate.obj
 0001:0002b471       __ehhandler$?loadShaderEnvKeys@D3D9MaterialManager@Ogre@@QAEXXZ 1002c471 f   OgreD3DMaterialTemplate.obj
 0001:0002b499       __unwindfunclet$?loadCompiledSahdersFromDataStream@D3D9MaterialManager@Ogre@@QAEXXZ$0 1002c499 f   OgreD3DMaterialTemplate.obj
 0001:0002b4a5       __unwindfunclet$?loadCompiledSahdersFromDataStream@D3D9MaterialManager@Ogre@@QAEXXZ$1 1002c4a5 f   OgreD3DMaterialTemplate.obj
 0001:0002b4b1       __unwindfunclet$?loadCompiledSahdersFromDataStream@D3D9MaterialManager@Ogre@@QAEXXZ$2 1002c4b1 f   OgreD3DMaterialTemplate.obj
 0001:0002b4bd       __unwindfunclet$?loadCompiledSahdersFromDataStream@D3D9MaterialManager@Ogre@@QAEXXZ$3 1002c4bd f   OgreD3DMaterialTemplate.obj
 0001:0002b4c9       __unwindfunclet$?loadCompiledSahdersFromDataStream@D3D9MaterialManager@Ogre@@QAEXXZ$4 1002c4c9 f   OgreD3DMaterialTemplate.obj
 0001:0002b4d5       __ehhandler$?loadCompiledSahdersFromDataStream@D3D9MaterialManager@Ogre@@QAEXXZ 1002c4d5 f   OgreD3DMaterialTemplate.obj
 0001:0002b500       __unwindfunclet$??1?$map@VFixedString@Ogre@@PAVCompiledShaderGroup@2@U?$less@VFixedString@Ogre@@@std@@V?$allocator@U?$pair@$$CBVFixedString@Ogre@@PAVCompiledShaderGroup@2@@std@@@5@@std@@QAE@XZ$0 1002c500 f   OgreD3DMaterialTemplate.obj
 0001:0002b508       __ehhandler$??1?$map@VFixedString@Ogre@@PAVCompiledShaderGroup@2@U?$less@VFixedString@Ogre@@@std@@V?$allocator@U?$pair@$$CBVFixedString@Ogre@@PAVCompiledShaderGroup@2@@std@@@5@@std@@QAE@XZ 1002c508 f   OgreD3DMaterialTemplate.obj
 0001:0002b530       __unwindfunclet$??1?$map@TShaderEnvKey2@Ogre@@PAVD3DShaderTechnique@2@U?$less@TShaderEnvKey2@Ogre@@@std@@V?$allocator@U?$pair@$$CBTShaderEnvKey2@Ogre@@PAVD3DShaderTechnique@2@@std@@@5@@std@@QAE@XZ$0 1002c530 f   OgreD3DMaterialTemplate.obj
 0001:0002b538       __ehhandler$??1?$map@TShaderEnvKey2@Ogre@@PAVD3DShaderTechnique@2@U?$less@TShaderEnvKey2@Ogre@@@std@@V?$allocator@U?$pair@$$CBTShaderEnvKey2@Ogre@@PAVD3DShaderTechnique@2@@std@@@5@@std@@QAE@XZ 1002c538 f   OgreD3DMaterialTemplate.obj
 0001:0002b560       __unwindfunclet$??0TechCache@D3DMaterialTemplate@Ogre@@QAE@XZ$0 1002c560 f   OgreD3DMaterialTemplate.obj
 0001:0002b56c       __unwindfunclet$??0TechCache@D3DMaterialTemplate@Ogre@@QAE@XZ$1 1002c56c f   OgreD3DMaterialTemplate.obj
 0001:0002b577       __ehhandler$??0TechCache@D3DMaterialTemplate@Ogre@@QAE@XZ 1002c577 f   OgreD3DMaterialTemplate.obj
 0001:0002b5a0       __unwindfunclet$??0?$map@TShaderEnvKey@Ogre@@PAVCompiledShader@2@U?$less@TShaderEnvKey@Ogre@@@std@@V?$allocator@U?$pair@$$CBTShaderEnvKey@Ogre@@PAVCompiledShader@2@@std@@@5@@std@@QAE@XZ$0 1002c5a0 f   OgreD3DMaterialTemplate.obj
 0001:0002b5a0       __unwindfunclet$??0?$map@TShaderEnvKey@Ogre@@PAVD3DTech@2@U?$less@TShaderEnvKey@Ogre@@@std@@V?$allocator@U?$pair@$$CBTShaderEnvKey@Ogre@@PAVD3DTech@2@@std@@@5@@std@@QAE@XZ$0 1002c5a0 f   OgreD3DMaterialTemplate.obj
 0001:0002b5a8       __ehhandler$??0?$map@TShaderEnvKey@Ogre@@PAVCompiledShader@2@U?$less@TShaderEnvKey@Ogre@@@std@@V?$allocator@U?$pair@$$CBTShaderEnvKey@Ogre@@PAVCompiledShader@2@@std@@@5@@std@@QAE@XZ 1002c5a8 f   OgreD3DMaterialTemplate.obj
 0001:0002b5a8       __ehhandler$??0?$map@TShaderEnvKey@Ogre@@PAVD3DTech@2@U?$less@TShaderEnvKey@Ogre@@@std@@V?$allocator@U?$pair@$$CBTShaderEnvKey@Ogre@@PAVD3DTech@2@@std@@@5@@std@@QAE@XZ 1002c5a8 f   OgreD3DMaterialTemplate.obj
 0001:0002b5d0       __unwindfunclet$??0?$map@VFixedString@Ogre@@PAVCompiledShaderGroup@2@U?$less@VFixedString@Ogre@@@std@@V?$allocator@U?$pair@$$CBVFixedString@Ogre@@PAVCompiledShaderGroup@2@@std@@@5@@std@@QAE@XZ$0 1002c5d0 f   OgreD3DMaterialTemplate.obj
 0001:0002b5d8       __ehhandler$??0?$map@VFixedString@Ogre@@PAVCompiledShaderGroup@2@U?$less@VFixedString@Ogre@@@std@@V?$allocator@U?$pair@$$CBVFixedString@Ogre@@PAVCompiledShaderGroup@2@@std@@@5@@std@@QAE@XZ 1002c5d8 f   OgreD3DMaterialTemplate.obj
 0001:0002b600       __unwindfunclet$??A?$map@VFixedString@Ogre@@PAVCompiledShaderGroup@2@U?$less@VFixedString@Ogre@@@std@@V?$allocator@U?$pair@$$CBVFixedString@Ogre@@PAVCompiledShaderGroup@2@@std@@@5@@std@@QAEAAPAVCompiledShaderGroup@Ogre@@ABVFixedString@3@@Z$0 1002c600 f   OgreD3DMaterialTemplate.obj
 0001:0002b608       __ehhandler$??A?$map@VFixedString@Ogre@@PAVCompiledShaderGroup@2@U?$less@VFixedString@Ogre@@@std@@V?$allocator@U?$pair@$$CBVFixedString@Ogre@@PAVCompiledShaderGroup@2@@std@@@5@@std@@QAEAAPAVCompiledShaderGroup@Ogre@@ABVFixedString@3@@Z 1002c608 f   OgreD3DMaterialTemplate.obj
 0001:0002b630       __unwindfunclet$??1?$_Tree@V?$_Tmap_traits@TShaderEnvKey@Ogre@@PAVCompiledShader@2@U?$less@TShaderEnvKey@Ogre@@@std@@V?$allocator@U?$pair@$$CBTShaderEnvKey@Ogre@@PAVCompiledShader@2@@std@@@5@$0A@@std@@@std@@QAE@XZ$0 1002c630 f   OgreD3DMaterialTemplate.obj
 0001:0002b630       __unwindfunclet$??1?$_Tree@V?$_Tmap_traits@VFixedString@Ogre@@PAVCompiledShaderGroup@2@U?$less@VFixedString@Ogre@@@std@@V?$allocator@U?$pair@$$CBVFixedString@Ogre@@PAVCompiledShaderGroup@2@@std@@@5@$0A@@std@@@std@@QAE@XZ$0 1002c630 f   OgreD3DMaterialTemplate.obj
 0001:0002b630       __unwindfunclet$??1?$_Tree@V?$_Tmap_traits@TShaderEnvKey2@Ogre@@PAVD3DShaderTechnique@2@U?$less@TShaderEnvKey2@Ogre@@@std@@V?$allocator@U?$pair@$$CBTShaderEnvKey2@Ogre@@PAVD3DShaderTechnique@2@@std@@@5@$0A@@std@@@std@@QAE@XZ$0 1002c630 f   OgreD3DMaterialTemplate.obj
 0001:0002b630       __unwindfunclet$??1?$_Tree@V?$_Tmap_traits@TShaderEnvKey@Ogre@@PAVD3DTech@2@U?$less@TShaderEnvKey@Ogre@@@std@@V?$allocator@U?$pair@$$CBTShaderEnvKey@Ogre@@PAVD3DTech@2@@std@@@5@$0A@@std@@@std@@QAE@XZ$0 1002c630 f   OgreD3DMaterialTemplate.obj
 0001:0002b638       __ehhandler$??1?$_Tree@V?$_Tmap_traits@TShaderEnvKey2@Ogre@@PAVD3DShaderTechnique@2@U?$less@TShaderEnvKey2@Ogre@@@std@@V?$allocator@U?$pair@$$CBTShaderEnvKey2@Ogre@@PAVD3DShaderTechnique@2@@std@@@5@$0A@@std@@@std@@QAE@XZ 1002c638 f   OgreD3DMaterialTemplate.obj
 0001:0002b638       __ehhandler$??1?$_Tree@V?$_Tmap_traits@TShaderEnvKey@Ogre@@PAVCompiledShader@2@U?$less@TShaderEnvKey@Ogre@@@std@@V?$allocator@U?$pair@$$CBTShaderEnvKey@Ogre@@PAVCompiledShader@2@@std@@@5@$0A@@std@@@std@@QAE@XZ 1002c638 f   OgreD3DMaterialTemplate.obj
 0001:0002b638       __ehhandler$??1?$_Tree@V?$_Tmap_traits@VFixedString@Ogre@@PAVCompiledShaderGroup@2@U?$less@VFixedString@Ogre@@@std@@V?$allocator@U?$pair@$$CBVFixedString@Ogre@@PAVCompiledShaderGroup@2@@std@@@5@$0A@@std@@@std@@QAE@XZ 1002c638 f   OgreD3DMaterialTemplate.obj
 0001:0002b638       __ehhandler$??1?$_Tree@V?$_Tmap_traits@TShaderEnvKey@Ogre@@PAVD3DTech@2@U?$less@TShaderEnvKey@Ogre@@@std@@V?$allocator@U?$pair@$$CBTShaderEnvKey@Ogre@@PAVD3DTech@2@@std@@@5@$0A@@std@@@std@@QAE@XZ 1002c638 f   OgreD3DMaterialTemplate.obj
 0001:0002b660       __unwindfunclet$??0?$map@TShaderEnvKey2@Ogre@@PAVD3DShaderTechnique@2@U?$less@TShaderEnvKey2@Ogre@@@std@@V?$allocator@U?$pair@$$CBTShaderEnvKey2@Ogre@@PAVD3DShaderTechnique@2@@std@@@5@@std@@QAE@XZ$0 1002c660 f   OgreD3DMaterialTemplate.obj
 0001:0002b668       __ehhandler$??0?$map@TShaderEnvKey2@Ogre@@PAVD3DShaderTechnique@2@U?$less@TShaderEnvKey2@Ogre@@@std@@V?$allocator@U?$pair@$$CBTShaderEnvKey2@Ogre@@PAVD3DShaderTechnique@2@@std@@@5@@std@@QAE@XZ 1002c668 f   OgreD3DMaterialTemplate.obj
 0001:0002b690       __unwindfunclet$??1?$_Tree_val@V?$_Tmap_traits@TShaderEnvKey2@Ogre@@PAVD3DShaderTechnique@2@U?$less@TShaderEnvKey2@Ogre@@@std@@V?$allocator@U?$pair@$$CBTShaderEnvKey2@Ogre@@PAVD3DShaderTechnique@2@@std@@@5@$0A@@std@@@std@@QAE@XZ$0 1002c690 f   OgreD3DMaterialTemplate.obj
 0001:0002b690       __unwindfunclet$??1?$_Tree_val@V?$_Tmap_traits@TShaderEnvKey@Ogre@@PAVD3DTech@2@U?$less@TShaderEnvKey@Ogre@@@std@@V?$allocator@U?$pair@$$CBTShaderEnvKey@Ogre@@PAVD3DTech@2@@std@@@5@$0A@@std@@@std@@QAE@XZ$0 1002c690 f   OgreD3DMaterialTemplate.obj
 0001:0002b690       __unwindfunclet$??1?$_Tree_val@V?$_Tmap_traits@VFixedString@Ogre@@PAVCompiledShaderGroup@2@U?$less@VFixedString@Ogre@@@std@@V?$allocator@U?$pair@$$CBVFixedString@Ogre@@PAVCompiledShaderGroup@2@@std@@@5@$0A@@std@@@std@@QAE@XZ$0 1002c690 f   OgreD3DMaterialTemplate.obj
 0001:0002b690       __unwindfunclet$??1?$_Tree_val@V?$_Tmap_traits@TShaderEnvKey@Ogre@@PAVCompiledShader@2@U?$less@TShaderEnvKey@Ogre@@@std@@V?$allocator@U?$pair@$$CBTShaderEnvKey@Ogre@@PAVCompiledShader@2@@std@@@5@$0A@@std@@@std@@QAE@XZ$0 1002c690 f   OgreD3DMaterialTemplate.obj
 0001:0002b698       __ehhandler$??1?$_Tree_val@V?$_Tmap_traits@TShaderEnvKey@Ogre@@PAVD3DTech@2@U?$less@TShaderEnvKey@Ogre@@@std@@V?$allocator@U?$pair@$$CBTShaderEnvKey@Ogre@@PAVD3DTech@2@@std@@@5@$0A@@std@@@std@@QAE@XZ 1002c698 f   OgreD3DMaterialTemplate.obj
 0001:0002b698       __ehhandler$??1?$_Tree_val@V?$_Tmap_traits@TShaderEnvKey@Ogre@@PAVCompiledShader@2@U?$less@TShaderEnvKey@Ogre@@@std@@V?$allocator@U?$pair@$$CBTShaderEnvKey@Ogre@@PAVCompiledShader@2@@std@@@5@$0A@@std@@@std@@QAE@XZ 1002c698 f   OgreD3DMaterialTemplate.obj
 0001:0002b698       __ehhandler$??1?$_Tree_val@V?$_Tmap_traits@TShaderEnvKey2@Ogre@@PAVD3DShaderTechnique@2@U?$less@TShaderEnvKey2@Ogre@@@std@@V?$allocator@U?$pair@$$CBTShaderEnvKey2@Ogre@@PAVD3DShaderTechnique@2@@std@@@5@$0A@@std@@@std@@QAE@XZ 1002c698 f   OgreD3DMaterialTemplate.obj
 0001:0002b698       __ehhandler$??1?$_Tree_val@V?$_Tmap_traits@VFixedString@Ogre@@PAVCompiledShaderGroup@2@U?$less@VFixedString@Ogre@@@std@@V?$allocator@U?$pair@$$CBVFixedString@Ogre@@PAVCompiledShaderGroup@2@@std@@@5@$0A@@std@@@std@@QAE@XZ 1002c698 f   OgreD3DMaterialTemplate.obj
 0001:0002b6c0       __unwindfunclet$??0?$_Tree@V?$_Tmap_traits@VFixedString@Ogre@@PAVCompiledShaderGroup@2@U?$less@VFixedString@Ogre@@@std@@V?$allocator@U?$pair@$$CBVFixedString@Ogre@@PAVCompiledShaderGroup@2@@std@@@5@$0A@@std@@@std@@QAE@ABU?$less@VFixedString@Ogre@@@1@ABV?$allocator@U?$pair@$$CBVFixedString@Ogre@@PAVCompiledShaderGroup@2@@std@@@1@@Z$0 1002c6c0 f   OgreD3DMaterialTemplate.obj
 0001:0002b6c0       __unwindfunclet$??0?$_Tree@V?$_Tmap_traits@TShaderEnvKey@Ogre@@PAVCompiledShader@2@U?$less@TShaderEnvKey@Ogre@@@std@@V?$allocator@U?$pair@$$CBTShaderEnvKey@Ogre@@PAVCompiledShader@2@@std@@@5@$0A@@std@@@std@@QAE@ABU?$less@TShaderEnvKey@Ogre@@@1@ABV?$allocator@U?$pair@$$CBTShaderEnvKey@Ogre@@PAVCompiledShader@2@@std@@@1@@Z$0 1002c6c0 f   OgreD3DMaterialTemplate.obj
 0001:0002b6c0       __unwindfunclet$??0?$_Tree@V?$_Tmap_traits@TShaderEnvKey@Ogre@@PAVD3DTech@2@U?$less@TShaderEnvKey@Ogre@@@std@@V?$allocator@U?$pair@$$CBTShaderEnvKey@Ogre@@PAVD3DTech@2@@std@@@5@$0A@@std@@@std@@QAE@ABU?$less@TShaderEnvKey@Ogre@@@1@ABV?$allocator@U?$pair@$$CBTShaderEnvKey@Ogre@@PAVD3DTech@2@@std@@@1@@Z$0 1002c6c0 f   OgreD3DMaterialTemplate.obj
 0001:0002b6c0       __unwindfunclet$??0?$_Tree@V?$_Tmap_traits@TShaderEnvKey2@Ogre@@PAVD3DShaderTechnique@2@U?$less@TShaderEnvKey2@Ogre@@@std@@V?$allocator@U?$pair@$$CBTShaderEnvKey2@Ogre@@PAVD3DShaderTechnique@2@@std@@@5@$0A@@std@@@std@@QAE@ABU?$less@TShaderEnvKey2@Ogre@@@1@ABV?$allocator@U?$pair@$$CBTShaderEnvKey2@Ogre@@PAVD3DShaderTechnique@2@@std@@@1@@Z$0 1002c6c0 f   OgreD3DMaterialTemplate.obj
 0001:0002b6c8       __ehhandler$??0?$_Tree@V?$_Tmap_traits@TShaderEnvKey@Ogre@@PAVD3DTech@2@U?$less@TShaderEnvKey@Ogre@@@std@@V?$allocator@U?$pair@$$CBTShaderEnvKey@Ogre@@PAVD3DTech@2@@std@@@5@$0A@@std@@@std@@QAE@ABU?$less@TShaderEnvKey@Ogre@@@1@ABV?$allocator@U?$pair@$$CBTShaderEnvKey@Ogre@@PAVD3DTech@2@@std@@@1@@Z 1002c6c8 f   OgreD3DMaterialTemplate.obj
 0001:0002b6c8       __ehhandler$??0?$_Tree@V?$_Tmap_traits@TShaderEnvKey@Ogre@@PAVCompiledShader@2@U?$less@TShaderEnvKey@Ogre@@@std@@V?$allocator@U?$pair@$$CBTShaderEnvKey@Ogre@@PAVCompiledShader@2@@std@@@5@$0A@@std@@@std@@QAE@ABU?$less@TShaderEnvKey@Ogre@@@1@ABV?$allocator@U?$pair@$$CBTShaderEnvKey@Ogre@@PAVCompiledShader@2@@std@@@1@@Z 1002c6c8 f   OgreD3DMaterialTemplate.obj
 0001:0002b6c8       __ehhandler$??0?$_Tree@V?$_Tmap_traits@TShaderEnvKey2@Ogre@@PAVD3DShaderTechnique@2@U?$less@TShaderEnvKey2@Ogre@@@std@@V?$allocator@U?$pair@$$CBTShaderEnvKey2@Ogre@@PAVD3DShaderTechnique@2@@std@@@5@$0A@@std@@@std@@QAE@ABU?$less@TShaderEnvKey2@Ogre@@@1@ABV?$allocator@U?$pair@$$CBTShaderEnvKey2@Ogre@@PAVD3DShaderTechnique@2@@std@@@1@@Z 1002c6c8 f   OgreD3DMaterialTemplate.obj
 0001:0002b6c8       __ehhandler$??0?$_Tree@V?$_Tmap_traits@VFixedString@Ogre@@PAVCompiledShaderGroup@2@U?$less@VFixedString@Ogre@@@std@@V?$allocator@U?$pair@$$CBVFixedString@Ogre@@PAVCompiledShaderGroup@2@@std@@@5@$0A@@std@@@std@@QAE@ABU?$less@VFixedString@Ogre@@@1@ABV?$allocator@U?$pair@$$CBVFixedString@Ogre@@PAVCompiledShaderGroup@2@@std@@@1@@Z 1002c6c8 f   OgreD3DMaterialTemplate.obj
 0001:0002b6f0       __unwindfunclet$??0?$pair@$$CBVFixedString@Ogre@@PAVCompiledShaderGroup@2@@std@@QAE@ABVFixedString@Ogre@@ABQAVCompiledShaderGroup@3@@Z$0 1002c6f0 f   OgreD3DMaterialTemplate.obj
 0001:0002b6f0       __unwindfunclet$??0?$pair@$$CBVFixedString@Ogre@@PAVCompiledShaderGroup@2@@std@@QAE@ABU01@@Z$0 1002c6f0 f   OgreD3DMaterialTemplate.obj
 0001:0002b6f0       __unwindfunclet$??1?$pair@$$CBVFixedString@Ogre@@PAVCompiledShaderGroup@2@@std@@QAE@XZ$0 1002c6f0 f   OgreD3DMaterialTemplate.obj
 0001:0002b6f9       __ehhandler$??0?$pair@$$CBVFixedString@Ogre@@PAVCompiledShaderGroup@2@@std@@QAE@ABU01@@Z 1002c6f9 f   OgreD3DMaterialTemplate.obj
 0001:0002b6f9       __ehhandler$??1?$pair@$$CBVFixedString@Ogre@@PAVCompiledShaderGroup@2@@std@@QAE@XZ 1002c6f9 f   OgreD3DMaterialTemplate.obj
 0001:0002b6f9       __ehhandler$??0?$pair@$$CBVFixedString@Ogre@@PAVCompiledShaderGroup@2@@std@@QAE@ABVFixedString@Ogre@@ABQAVCompiledShaderGroup@3@@Z 1002c6f9 f   OgreD3DMaterialTemplate.obj
 0001:0002b720       __ehhandler$?_Insert_n@?$vector@UShaderEnv@Ogre@@V?$allocator@UShaderEnv@Ogre@@@std@@@std@@IAEXV?$_Vector_const_iterator@UShaderEnv@Ogre@@V?$allocator@UShaderEnv@Ogre@@@std@@@2@IABUShaderEnv@Ogre@@@Z 1002c720 f   OgreD3DMaterialTemplate.obj
 0001:0002b740       __unwindfunclet$?_Insert@?$_Tree@V?$_Tmap_traits@TShaderEnvKey@Ogre@@PAVCompiledShader@2@U?$less@TShaderEnvKey@Ogre@@@std@@V?$allocator@U?$pair@$$CBTShaderEnvKey@Ogre@@PAVCompiledShader@2@@std@@@5@$0A@@std@@@std@@IAE?AViterator@12@_NPAU_Node@?$_Tree_nod@V?$_Tmap_traits@TShaderEnvKey@Ogre@@PAVCompiledShader@2@U?$less@TShaderEnvKey@Ogre@@@std@@V?$allocator@U?$pair@$$CBTShaderEnvKey@Ogre@@PAVCompiledShader@2@@std@@@5@$0A@@std@@@2@ABU?$pair@$$CBTShaderEnvKey@Ogre@@PAVCompiledShader@2@@2@@Z$0 1002c740 f   OgreD3DMaterialTemplate.obj
 0001:0002b740       __unwindfunclet$?_Insert@?$_Tree@V?$_Tmap_traits@TShaderEnvKey2@Ogre@@PAVD3DShaderTechnique@2@U?$less@TShaderEnvKey2@Ogre@@@std@@V?$allocator@U?$pair@$$CBTShaderEnvKey2@Ogre@@PAVD3DShaderTechnique@2@@std@@@5@$0A@@std@@@std@@IAE?AViterator@12@_NPAU_Node@?$_Tree_nod@V?$_Tmap_traits@TShaderEnvKey2@Ogre@@PAVD3DShaderTechnique@2@U?$less@TShaderEnvKey2@Ogre@@@std@@V?$allocator@U?$pair@$$CBTShaderEnvKey2@Ogre@@PAVD3DShaderTechnique@2@@std@@@5@$0A@@std@@@2@ABU?$pair@$$CBTShaderEnvKey2@Ogre@@PAVD3DShaderTechnique@2@@2@@Z$0 1002c740 f   OgreD3DMaterialTemplate.obj
 0001:0002b740       __unwindfunclet$?_Insert@?$_Tree@V?$_Tmap_traits@TShaderEnvKey@Ogre@@PAVD3DTech@2@U?$less@TShaderEnvKey@Ogre@@@std@@V?$allocator@U?$pair@$$CBTShaderEnvKey@Ogre@@PAVD3DTech@2@@std@@@5@$0A@@std@@@std@@IAE?AViterator@12@_NPAU_Node@?$_Tree_nod@V?$_Tmap_traits@TShaderEnvKey@Ogre@@PAVD3DTech@2@U?$less@TShaderEnvKey@Ogre@@@std@@V?$allocator@U?$pair@$$CBTShaderEnvKey@Ogre@@PAVD3DTech@2@@std@@@5@$0A@@std@@@2@ABU?$pair@$$CBTShaderEnvKey@Ogre@@PAVD3DTech@2@@2@@Z$0 1002c740 f   OgreD3DMaterialTemplate.obj
 0001:0002b740       __unwindfunclet$?_Insert@?$_Tree@V?$_Tmap_traits@VFixedString@Ogre@@PAVCompiledShaderGroup@2@U?$less@VFixedString@Ogre@@@std@@V?$allocator@U?$pair@$$CBVFixedString@Ogre@@PAVCompiledShaderGroup@2@@std@@@5@$0A@@std@@@std@@IAE?AViterator@12@_NPAU_Node@?$_Tree_nod@V?$_Tmap_traits@VFixedString@Ogre@@PAVCompiledShaderGroup@2@U?$less@VFixedString@Ogre@@@std@@V?$allocator@U?$pair@$$CBVFixedString@Ogre@@PAVCompiledShaderGroup@2@@std@@@5@$0A@@std@@@2@ABU?$pair@$$CBVFixedString@Ogre@@PAVCompiledShaderGroup@2@@2@@Z$0 1002c740 f   OgreD3DMaterialTemplate.obj
 0001:0002b749       __ehhandler$?_Insert@?$_Tree@V?$_Tmap_traits@VFixedString@Ogre@@PAVCompiledShaderGroup@2@U?$less@VFixedString@Ogre@@@std@@V?$allocator@U?$pair@$$CBVFixedString@Ogre@@PAVCompiledShaderGroup@2@@std@@@5@$0A@@std@@@std@@IAE?AViterator@12@_NPAU_Node@?$_Tree_nod@V?$_Tmap_traits@VFixedString@Ogre@@PAVCompiledShaderGroup@2@U?$less@VFixedString@Ogre@@@std@@V?$allocator@U?$pair@$$CBVFixedString@Ogre@@PAVCompiledShaderGroup@2@@std@@@5@$0A@@std@@@2@ABU?$pair@$$CBVFixedString@Ogre@@PAVCompiledShaderGroup@2@@2@@Z 1002c749 f   OgreD3DMaterialTemplate.obj
 0001:0002b749       __ehhandler$?_Insert@?$_Tree@V?$_Tmap_traits@TShaderEnvKey@Ogre@@PAVD3DTech@2@U?$less@TShaderEnvKey@Ogre@@@std@@V?$allocator@U?$pair@$$CBTShaderEnvKey@Ogre@@PAVD3DTech@2@@std@@@5@$0A@@std@@@std@@IAE?AViterator@12@_NPAU_Node@?$_Tree_nod@V?$_Tmap_traits@TShaderEnvKey@Ogre@@PAVD3DTech@2@U?$less@TShaderEnvKey@Ogre@@@std@@V?$allocator@U?$pair@$$CBTShaderEnvKey@Ogre@@PAVD3DTech@2@@std@@@5@$0A@@std@@@2@ABU?$pair@$$CBTShaderEnvKey@Ogre@@PAVD3DTech@2@@2@@Z 1002c749 f   OgreD3DMaterialTemplate.obj
 0001:0002b749       __ehhandler$?_Insert@?$_Tree@V?$_Tmap_traits@TShaderEnvKey@Ogre@@PAVCompiledShader@2@U?$less@TShaderEnvKey@Ogre@@@std@@V?$allocator@U?$pair@$$CBTShaderEnvKey@Ogre@@PAVCompiledShader@2@@std@@@5@$0A@@std@@@std@@IAE?AViterator@12@_NPAU_Node@?$_Tree_nod@V?$_Tmap_traits@TShaderEnvKey@Ogre@@PAVCompiledShader@2@U?$less@TShaderEnvKey@Ogre@@@std@@V?$allocator@U?$pair@$$CBTShaderEnvKey@Ogre@@PAVCompiledShader@2@@std@@@5@$0A@@std@@@2@ABU?$pair@$$CBTShaderEnvKey@Ogre@@PAVCompiledShader@2@@2@@Z 1002c749 f   OgreD3DMaterialTemplate.obj
 0001:0002b749       __ehhandler$?_Insert@?$_Tree@V?$_Tmap_traits@TShaderEnvKey2@Ogre@@PAVD3DShaderTechnique@2@U?$less@TShaderEnvKey2@Ogre@@@std@@V?$allocator@U?$pair@$$CBTShaderEnvKey2@Ogre@@PAVD3DShaderTechnique@2@@std@@@5@$0A@@std@@@std@@IAE?AViterator@12@_NPAU_Node@?$_Tree_nod@V?$_Tmap_traits@TShaderEnvKey2@Ogre@@PAVD3DShaderTechnique@2@U?$less@TShaderEnvKey2@Ogre@@@std@@V?$allocator@U?$pair@$$CBTShaderEnvKey2@Ogre@@PAVD3DShaderTechnique@2@@std@@@5@$0A@@std@@@2@ABU?$pair@$$CBTShaderEnvKey2@Ogre@@PAVD3DShaderTechnique@2@@2@@Z 1002c749 f   OgreD3DMaterialTemplate.obj
 0001:0002b770       __unwindfunclet$??0?$_Tree_val@V?$_Tmap_traits@TShaderEnvKey2@Ogre@@PAVD3DShaderTechnique@2@U?$less@TShaderEnvKey2@Ogre@@@std@@V?$allocator@U?$pair@$$CBTShaderEnvKey2@Ogre@@PAVD3DShaderTechnique@2@@std@@@5@$0A@@std@@@std@@IAE@ABU?$less@TShaderEnvKey2@Ogre@@@1@V?$allocator@U?$pair@$$CBTShaderEnvKey2@Ogre@@PAVD3DShaderTechnique@2@@std@@@1@@Z$0 1002c770 f   OgreD3DMaterialTemplate.obj
 0001:0002b770       __unwindfunclet$??0?$_Tree_val@V?$_Tmap_traits@TShaderEnvKey@Ogre@@PAVCompiledShader@2@U?$less@TShaderEnvKey@Ogre@@@std@@V?$allocator@U?$pair@$$CBTShaderEnvKey@Ogre@@PAVCompiledShader@2@@std@@@5@$0A@@std@@@std@@IAE@ABU?$less@TShaderEnvKey@Ogre@@@1@V?$allocator@U?$pair@$$CBTShaderEnvKey@Ogre@@PAVCompiledShader@2@@std@@@1@@Z$0 1002c770 f   OgreD3DMaterialTemplate.obj
 0001:0002b770       __unwindfunclet$??0?$_Tree_val@V?$_Tmap_traits@TShaderEnvKey@Ogre@@PAVD3DTech@2@U?$less@TShaderEnvKey@Ogre@@@std@@V?$allocator@U?$pair@$$CBTShaderEnvKey@Ogre@@PAVD3DTech@2@@std@@@5@$0A@@std@@@std@@IAE@ABU?$less@TShaderEnvKey@Ogre@@@1@V?$allocator@U?$pair@$$CBTShaderEnvKey@Ogre@@PAVD3DTech@2@@std@@@1@@Z$0 1002c770 f   OgreD3DMaterialTemplate.obj
 0001:0002b770       __unwindfunclet$??0?$_Tree_val@V?$_Tmap_traits@VFixedString@Ogre@@PAVCompiledShaderGroup@2@U?$less@VFixedString@Ogre@@@std@@V?$allocator@U?$pair@$$CBVFixedString@Ogre@@PAVCompiledShaderGroup@2@@std@@@5@$0A@@std@@@std@@IAE@ABU?$less@VFixedString@Ogre@@@1@V?$allocator@U?$pair@$$CBVFixedString@Ogre@@PAVCompiledShaderGroup@2@@std@@@1@@Z$0 1002c770 f   OgreD3DMaterialTemplate.obj
 0001:0002b778       __ehhandler$??0?$_Tree_val@V?$_Tmap_traits@TShaderEnvKey@Ogre@@PAVD3DTech@2@U?$less@TShaderEnvKey@Ogre@@@std@@V?$allocator@U?$pair@$$CBTShaderEnvKey@Ogre@@PAVD3DTech@2@@std@@@5@$0A@@std@@@std@@IAE@ABU?$less@TShaderEnvKey@Ogre@@@1@V?$allocator@U?$pair@$$CBTShaderEnvKey@Ogre@@PAVD3DTech@2@@std@@@1@@Z 1002c778 f   OgreD3DMaterialTemplate.obj
 0001:0002b778       __ehhandler$??0?$_Tree_val@V?$_Tmap_traits@TShaderEnvKey2@Ogre@@PAVD3DShaderTechnique@2@U?$less@TShaderEnvKey2@Ogre@@@std@@V?$allocator@U?$pair@$$CBTShaderEnvKey2@Ogre@@PAVD3DShaderTechnique@2@@std@@@5@$0A@@std@@@std@@IAE@ABU?$less@TShaderEnvKey2@Ogre@@@1@V?$allocator@U?$pair@$$CBTShaderEnvKey2@Ogre@@PAVD3DShaderTechnique@2@@std@@@1@@Z 1002c778 f   OgreD3DMaterialTemplate.obj
 0001:0002b778       __ehhandler$??0?$_Tree_val@V?$_Tmap_traits@VFixedString@Ogre@@PAVCompiledShaderGroup@2@U?$less@VFixedString@Ogre@@@std@@V?$allocator@U?$pair@$$CBVFixedString@Ogre@@PAVCompiledShaderGroup@2@@std@@@5@$0A@@std@@@std@@IAE@ABU?$less@VFixedString@Ogre@@@1@V?$allocator@U?$pair@$$CBVFixedString@Ogre@@PAVCompiledShaderGroup@2@@std@@@1@@Z 1002c778 f   OgreD3DMaterialTemplate.obj
 0001:0002b778       __ehhandler$??0?$_Tree_val@V?$_Tmap_traits@TShaderEnvKey@Ogre@@PAVCompiledShader@2@U?$less@TShaderEnvKey@Ogre@@@std@@V?$allocator@U?$pair@$$CBTShaderEnvKey@Ogre@@PAVCompiledShader@2@@std@@@5@$0A@@std@@@std@@IAE@ABU?$less@TShaderEnvKey@Ogre@@@1@V?$allocator@U?$pair@$$CBTShaderEnvKey@Ogre@@PAVCompiledShader@2@@std@@@1@@Z 1002c778 f   OgreD3DMaterialTemplate.obj
 0001:0002b7a0       __ehhandler$?_Insert_n@?$vector@PAVCompiledShader@Ogre@@V?$allocator@PAVCompiledShader@Ogre@@@std@@@std@@IAEXV?$_Vector_const_iterator@PAVCompiledShader@Ogre@@V?$allocator@PAVCompiledShader@Ogre@@@std@@@2@IABQAVCompiledShader@Ogre@@@Z 1002c7a0 f   OgreD3DMaterialTemplate.obj
 0001:0002b7a0       __ehhandler$?_Insert_n@?$vector@PAUD3DADAPTER_T@Ogre@@V?$allocator@PAUD3DADAPTER_T@Ogre@@@std@@@std@@IAEXV?$_Vector_const_iterator@PAUD3DADAPTER_T@Ogre@@V?$allocator@PAUD3DADAPTER_T@Ogre@@@std@@@2@IABQAUD3DADAPTER_T@Ogre@@@Z 1002c7a0 f   OgreD3DMaterialTemplate.obj
 0001:0002b7a0       __ehhandler$?_Insert_n@?$vector@PAUD3DDEVCOMBO_T@Ogre@@V?$allocator@PAUD3DDEVCOMBO_T@Ogre@@@std@@@std@@IAEXV?$_Vector_const_iterator@PAUD3DDEVCOMBO_T@Ogre@@V?$allocator@PAUD3DDEVCOMBO_T@Ogre@@@std@@@2@IABQAUD3DDEVCOMBO_T@Ogre@@@Z 1002c7a0 f   OgreD3DMaterialTemplate.obj
 0001:0002b7a0       __ehhandler$?_Insert_n@?$vector@PAUTechCache@D3DMaterialTemplate@Ogre@@V?$allocator@PAUTechCache@D3DMaterialTemplate@Ogre@@@std@@@std@@IAEXV?$_Vector_const_iterator@PAUTechCache@D3DMaterialTemplate@Ogre@@V?$allocator@PAUTechCache@D3DMaterialTemplate@Ogre@@@std@@@2@IABQAUTechCache@D3DMaterialTemplate@Ogre@@@Z 1002c7a0 f   OgreD3DMaterialTemplate.obj
 0001:0002b7a0       __ehhandler$?_Insert_n@?$vector@PAUTechniqueDesc@Ogre@@V?$allocator@PAUTechniqueDesc@Ogre@@@std@@@std@@IAEXV?$_Vector_const_iterator@PAUTechniqueDesc@Ogre@@V?$allocator@PAUTechniqueDesc@Ogre@@@std@@@2@IABQAUTechniqueDesc@Ogre@@@Z 1002c7a0 f   OgreD3DMaterialTemplate.obj
 0001:0002b7a0       __ehhandler$?_Insert_n@?$vector@PAVD3D9TextureRenderTarget@Ogre@@V?$allocator@PAVD3D9TextureRenderTarget@Ogre@@@std@@@std@@IAEXV?$_Vector_const_iterator@PAVD3D9TextureRenderTarget@Ogre@@V?$allocator@PAVD3D9TextureRenderTarget@Ogre@@@std@@@2@IABQAVD3D9TextureRenderTarget@Ogre@@@Z 1002c7a0 f   OgreD3DMaterialTemplate.obj
 0001:0002b7a0       __ehhandler$?_Insert_n@?$vector@IV?$allocator@I@std@@@std@@IAEXV?$_Vector_const_iterator@IV?$allocator@I@std@@@2@IABI@Z 1002c7a0 f   OgreD3DMaterialTemplate.obj
 0001:0002b7a0       __ehhandler$?_Insert_n@?$vector@PAUD3DDEVICEINFO_T@Ogre@@V?$allocator@PAUD3DDEVICEINFO_T@Ogre@@@std@@@std@@IAEXV?$_Vector_const_iterator@PAUD3DDEVICEINFO_T@Ogre@@V?$allocator@PAUD3DDEVICEINFO_T@Ogre@@@std@@@2@IABQAUD3DDEVICEINFO_T@Ogre@@@Z 1002c7a0 f   OgreD3DMaterialTemplate.obj
 0001:0002b7a0       __ehhandler$?_Insert_n@?$vector@PAVD3D9VertexDecl@Ogre@@V?$allocator@PAVD3D9VertexDecl@Ogre@@@std@@@std@@IAEXV?$_Vector_const_iterator@PAVD3D9VertexDecl@Ogre@@V?$allocator@PAVD3D9VertexDecl@Ogre@@@std@@@2@IABQAVD3D9VertexDecl@Ogre@@@Z 1002c7a0 f   OgreD3DMaterialTemplate.obj
 0001:0002b7a0       __ehhandler$?_Insert_n@?$vector@PAVD3DRenderWindow@Ogre@@V?$allocator@PAVD3DRenderWindow@Ogre@@@std@@@std@@IAEXV?$_Vector_const_iterator@PAVD3DRenderWindow@Ogre@@V?$allocator@PAVD3DRenderWindow@Ogre@@@std@@@2@IABQAVD3DRenderWindow@Ogre@@@Z 1002c7a0 f   OgreD3DMaterialTemplate.obj
 0001:0002b7c0       __ehhandler$?_Buynode@?$_Tree@V?$_Tmap_traits@TShaderEnvKey@Ogre@@PAVD3DTech@2@U?$less@TShaderEnvKey@Ogre@@@std@@V?$allocator@U?$pair@$$CBTShaderEnvKey@Ogre@@PAVD3DTech@2@@std@@@5@$0A@@std@@@std@@IAEPAU_Node@?$_Tree_nod@V?$_Tmap_traits@TShaderEnvKey@Ogre@@PAVD3DTech@2@U?$less@TShaderEnvKey@Ogre@@@std@@V?$allocator@U?$pair@$$CBTShaderEnvKey@Ogre@@PAVD3DTech@2@@std@@@5@$0A@@std@@@2@XZ 1002c7c0 f   OgreD3DMaterialTemplate.obj
 0001:0002b7c0       __ehhandler$?_Buynode@?$_Tree@V?$_Tmap_traits@TShaderEnvKey@Ogre@@PAVCompiledShader@2@U?$less@TShaderEnvKey@Ogre@@@std@@V?$allocator@U?$pair@$$CBTShaderEnvKey@Ogre@@PAVCompiledShader@2@@std@@@5@$0A@@std@@@std@@IAEPAU_Node@?$_Tree_nod@V?$_Tmap_traits@TShaderEnvKey@Ogre@@PAVCompiledShader@2@U?$less@TShaderEnvKey@Ogre@@@std@@V?$allocator@U?$pair@$$CBTShaderEnvKey@Ogre@@PAVCompiledShader@2@@std@@@5@$0A@@std@@@2@XZ 1002c7c0 f   OgreD3DMaterialTemplate.obj
 0001:0002b7e0       __unwindfunclet$?_Buynode@?$_Tree@V?$_Tmap_traits@TShaderEnvKey@Ogre@@PAVD3DTech@2@U?$less@TShaderEnvKey@Ogre@@@std@@V?$allocator@U?$pair@$$CBTShaderEnvKey@Ogre@@PAVD3DTech@2@@std@@@5@$0A@@std@@@std@@IAEPAU_Node@?$_Tree_nod@V?$_Tmap_traits@TShaderEnvKey@Ogre@@PAVD3DTech@2@U?$less@TShaderEnvKey@Ogre@@@std@@V?$allocator@U?$pair@$$CBTShaderEnvKey@Ogre@@PAVD3DTech@2@@std@@@5@$0A@@std@@@2@PAU342@00ABU?$pair@$$CBTShaderEnvKey@Ogre@@PAVD3DTech@2@@2@D@Z$2 1002c7e0 f   OgreD3DMaterialTemplate.obj
 0001:0002b7e0       __unwindfunclet$?_Buynode@?$_Tree@V?$_Tmap_traits@TShaderEnvKey@Ogre@@PAVCompiledShader@2@U?$less@TShaderEnvKey@Ogre@@@std@@V?$allocator@U?$pair@$$CBTShaderEnvKey@Ogre@@PAVCompiledShader@2@@std@@@5@$0A@@std@@@std@@IAEPAU_Node@?$_Tree_nod@V?$_Tmap_traits@TShaderEnvKey@Ogre@@PAVCompiledShader@2@U?$less@TShaderEnvKey@Ogre@@@std@@V?$allocator@U?$pair@$$CBTShaderEnvKey@Ogre@@PAVCompiledShader@2@@std@@@5@$0A@@std@@@2@PAU342@00ABU?$pair@$$CBTShaderEnvKey@Ogre@@PAVCompiledShader@2@@2@D@Z$2 1002c7e0 f   OgreD3DMaterialTemplate.obj
 0001:0002b7f1       __ehhandler$?_Buynode@?$_Tree@V?$_Tmap_traits@TShaderEnvKey@Ogre@@PAVD3DTech@2@U?$less@TShaderEnvKey@Ogre@@@std@@V?$allocator@U?$pair@$$CBTShaderEnvKey@Ogre@@PAVD3DTech@2@@std@@@5@$0A@@std@@@std@@IAEPAU_Node@?$_Tree_nod@V?$_Tmap_traits@TShaderEnvKey@Ogre@@PAVD3DTech@2@U?$less@TShaderEnvKey@Ogre@@@std@@V?$allocator@U?$pair@$$CBTShaderEnvKey@Ogre@@PAVD3DTech@2@@std@@@5@$0A@@std@@@2@PAU342@00ABU?$pair@$$CBTShaderEnvKey@Ogre@@PAVD3DTech@2@@2@D@Z 1002c7f1 f   OgreD3DMaterialTemplate.obj
 0001:0002b7f1       __ehhandler$?_Buynode@?$_Tree@V?$_Tmap_traits@TShaderEnvKey@Ogre@@PAVCompiledShader@2@U?$less@TShaderEnvKey@Ogre@@@std@@V?$allocator@U?$pair@$$CBTShaderEnvKey@Ogre@@PAVCompiledShader@2@@std@@@5@$0A@@std@@@std@@IAEPAU_Node@?$_Tree_nod@V?$_Tmap_traits@TShaderEnvKey@Ogre@@PAVCompiledShader@2@U?$less@TShaderEnvKey@Ogre@@@std@@V?$allocator@U?$pair@$$CBTShaderEnvKey@Ogre@@PAVCompiledShader@2@@std@@@5@$0A@@std@@@2@PAU342@00ABU?$pair@$$CBTShaderEnvKey@Ogre@@PAVCompiledShader@2@@2@D@Z 1002c7f1 f   OgreD3DMaterialTemplate.obj
 0001:0002b810       __unwindfunclet$?erase@?$_Tree@V?$_Tmap_traits@VFixedString@Ogre@@PAVCompiledShaderGroup@2@U?$less@VFixedString@Ogre@@@std@@V?$allocator@U?$pair@$$CBVFixedString@Ogre@@PAVCompiledShaderGroup@2@@std@@@5@$0A@@std@@@std@@QAE?AViterator@12@Vconst_iterator@12@@Z$0 1002c810 f   OgreD3DMaterialTemplate.obj
 0001:0002b810       __unwindfunclet$?erase@?$_Tree@V?$_Tmap_traits@TShaderEnvKey@Ogre@@PAVD3DTech@2@U?$less@TShaderEnvKey@Ogre@@@std@@V?$allocator@U?$pair@$$CBTShaderEnvKey@Ogre@@PAVD3DTech@2@@std@@@5@$0A@@std@@@std@@QAE?AViterator@12@Vconst_iterator@12@@Z$0 1002c810 f   OgreD3DMaterialTemplate.obj
 0001:0002b810       __unwindfunclet$?erase@?$_Tree@V?$_Tmap_traits@TShaderEnvKey2@Ogre@@PAVD3DShaderTechnique@2@U?$less@TShaderEnvKey2@Ogre@@@std@@V?$allocator@U?$pair@$$CBTShaderEnvKey2@Ogre@@PAVD3DShaderTechnique@2@@std@@@5@$0A@@std@@@std@@QAE?AViterator@12@Vconst_iterator@12@@Z$0 1002c810 f   OgreD3DMaterialTemplate.obj
 0001:0002b810       __unwindfunclet$?erase@?$_Tree@V?$_Tmap_traits@TShaderEnvKey@Ogre@@PAVCompiledShader@2@U?$less@TShaderEnvKey@Ogre@@@std@@V?$allocator@U?$pair@$$CBTShaderEnvKey@Ogre@@PAVCompiledShader@2@@std@@@5@$0A@@std@@@std@@QAE?AViterator@12@Vconst_iterator@12@@Z$0 1002c810 f   OgreD3DMaterialTemplate.obj
 0001:0002b819       __ehhandler$?erase@?$_Tree@V?$_Tmap_traits@TShaderEnvKey@Ogre@@PAVD3DTech@2@U?$less@TShaderEnvKey@Ogre@@@std@@V?$allocator@U?$pair@$$CBTShaderEnvKey@Ogre@@PAVD3DTech@2@@std@@@5@$0A@@std@@@std@@QAE?AViterator@12@Vconst_iterator@12@@Z 1002c819 f   OgreD3DMaterialTemplate.obj
 0001:0002b819       __ehhandler$?erase@?$_Tree@V?$_Tmap_traits@VFixedString@Ogre@@PAVCompiledShaderGroup@2@U?$less@VFixedString@Ogre@@@std@@V?$allocator@U?$pair@$$CBVFixedString@Ogre@@PAVCompiledShaderGroup@2@@std@@@5@$0A@@std@@@std@@QAE?AViterator@12@Vconst_iterator@12@@Z 1002c819 f   OgreD3DMaterialTemplate.obj
 0001:0002b819       __ehhandler$?erase@?$_Tree@V?$_Tmap_traits@TShaderEnvKey@Ogre@@PAVCompiledShader@2@U?$less@TShaderEnvKey@Ogre@@@std@@V?$allocator@U?$pair@$$CBTShaderEnvKey@Ogre@@PAVCompiledShader@2@@std@@@5@$0A@@std@@@std@@QAE?AViterator@12@Vconst_iterator@12@@Z 1002c819 f   OgreD3DMaterialTemplate.obj
 0001:0002b819       __ehhandler$?erase@?$_Tree@V?$_Tmap_traits@TShaderEnvKey2@Ogre@@PAVD3DShaderTechnique@2@U?$less@TShaderEnvKey2@Ogre@@@std@@V?$allocator@U?$pair@$$CBTShaderEnvKey2@Ogre@@PAVD3DShaderTechnique@2@@std@@@5@$0A@@std@@@std@@QAE?AViterator@12@Vconst_iterator@12@@Z 1002c819 f   OgreD3DMaterialTemplate.obj
 0001:0002b840       __ehhandler$?_Buynode@?$_Tree@V?$_Tmap_traits@VFixedString@Ogre@@PAVCompiledShaderGroup@2@U?$less@VFixedString@Ogre@@@std@@V?$allocator@U?$pair@$$CBVFixedString@Ogre@@PAVCompiledShaderGroup@2@@std@@@5@$0A@@std@@@std@@IAEPAU_Node@?$_Tree_nod@V?$_Tmap_traits@VFixedString@Ogre@@PAVCompiledShaderGroup@2@U?$less@VFixedString@Ogre@@@std@@V?$allocator@U?$pair@$$CBVFixedString@Ogre@@PAVCompiledShaderGroup@2@@std@@@5@$0A@@std@@@2@XZ 1002c840 f   OgreD3DMaterialTemplate.obj
 0001:0002b860       __unwindfunclet$?_Buynode@?$_Tree@V?$_Tmap_traits@VFixedString@Ogre@@PAVCompiledShaderGroup@2@U?$less@VFixedString@Ogre@@@std@@V?$allocator@U?$pair@$$CBVFixedString@Ogre@@PAVCompiledShaderGroup@2@@std@@@5@$0A@@std@@@std@@IAEPAU_Node@?$_Tree_nod@V?$_Tmap_traits@VFixedString@Ogre@@PAVCompiledShaderGroup@2@U?$less@VFixedString@Ogre@@@std@@V?$allocator@U?$pair@$$CBVFixedString@Ogre@@PAVCompiledShaderGroup@2@@std@@@5@$0A@@std@@@2@PAU342@00ABU?$pair@$$CBVFixedString@Ogre@@PAVCompiledShaderGroup@2@@2@D@Z$2 1002c860 f   OgreD3DMaterialTemplate.obj
 0001:0002b871       __ehhandler$?_Buynode@?$_Tree@V?$_Tmap_traits@VFixedString@Ogre@@PAVCompiledShaderGroup@2@U?$less@VFixedString@Ogre@@@std@@V?$allocator@U?$pair@$$CBVFixedString@Ogre@@PAVCompiledShaderGroup@2@@std@@@5@$0A@@std@@@std@@IAEPAU_Node@?$_Tree_nod@V?$_Tmap_traits@VFixedString@Ogre@@PAVCompiledShaderGroup@2@U?$less@VFixedString@Ogre@@@std@@V?$allocator@U?$pair@$$CBVFixedString@Ogre@@PAVCompiledShaderGroup@2@@std@@@5@$0A@@std@@@2@PAU342@00ABU?$pair@$$CBVFixedString@Ogre@@PAVCompiledShaderGroup@2@@2@D@Z 1002c871 f   OgreD3DMaterialTemplate.obj
 0001:0002b890       __ehhandler$?_Buynode@?$_Tree@V?$_Tmap_traits@TShaderEnvKey2@Ogre@@PAVD3DShaderTechnique@2@U?$less@TShaderEnvKey2@Ogre@@@std@@V?$allocator@U?$pair@$$CBTShaderEnvKey2@Ogre@@PAVD3DShaderTechnique@2@@std@@@5@$0A@@std@@@std@@IAEPAU_Node@?$_Tree_nod@V?$_Tmap_traits@TShaderEnvKey2@Ogre@@PAVD3DShaderTechnique@2@U?$less@TShaderEnvKey2@Ogre@@@std@@V?$allocator@U?$pair@$$CBTShaderEnvKey2@Ogre@@PAVD3DShaderTechnique@2@@std@@@5@$0A@@std@@@2@XZ 1002c890 f   OgreD3DMaterialTemplate.obj
 0001:0002b8b0       __unwindfunclet$?_Buynode@?$_Tree@V?$_Tmap_traits@TShaderEnvKey2@Ogre@@PAVD3DShaderTechnique@2@U?$less@TShaderEnvKey2@Ogre@@@std@@V?$allocator@U?$pair@$$CBTShaderEnvKey2@Ogre@@PAVD3DShaderTechnique@2@@std@@@5@$0A@@std@@@std@@IAEPAU_Node@?$_Tree_nod@V?$_Tmap_traits@TShaderEnvKey2@Ogre@@PAVD3DShaderTechnique@2@U?$less@TShaderEnvKey2@Ogre@@@std@@V?$allocator@U?$pair@$$CBTShaderEnvKey2@Ogre@@PAVD3DShaderTechnique@2@@std@@@5@$0A@@std@@@2@PAU342@00ABU?$pair@$$CBTShaderEnvKey2@Ogre@@PAVD3DShaderTechnique@2@@2@D@Z$2 1002c8b0 f   OgreD3DMaterialTemplate.obj
 0001:0002b8c1       __ehhandler$?_Buynode@?$_Tree@V?$_Tmap_traits@TShaderEnvKey2@Ogre@@PAVD3DShaderTechnique@2@U?$less@TShaderEnvKey2@Ogre@@@std@@V?$allocator@U?$pair@$$CBTShaderEnvKey2@Ogre@@PAVD3DShaderTechnique@2@@std@@@5@$0A@@std@@@std@@IAEPAU_Node@?$_Tree_nod@V?$_Tmap_traits@TShaderEnvKey2@Ogre@@PAVD3DShaderTechnique@2@U?$less@TShaderEnvKey2@Ogre@@@std@@V?$allocator@U?$pair@$$CBTShaderEnvKey2@Ogre@@PAVD3DShaderTechnique@2@@std@@@5@$0A@@std@@@2@PAU342@00ABU?$pair@$$CBTShaderEnvKey2@Ogre@@PAVD3DShaderTechnique@2@@2@D@Z 1002c8c1 f   OgreD3DMaterialTemplate.obj
 0001:0002b8e0       __unwindfunclet$??0?$_Tree_ptr@V?$_Tmap_traits@TShaderEnvKey@Ogre@@PAVCompiledShader@2@U?$less@TShaderEnvKey@Ogre@@@std@@V?$allocator@U?$pair@$$CBTShaderEnvKey@Ogre@@PAVCompiledShader@2@@std@@@5@$0A@@std@@@std@@IAE@ABU?$less@TShaderEnvKey@Ogre@@@1@V?$allocator@U?$pair@$$CBTShaderEnvKey@Ogre@@PAVCompiledShader@2@@std@@@1@@Z$0 1002c8e0 f   OgreD3DMaterialTemplate.obj
 0001:0002b8e0       __unwindfunclet$??0?$_Tree_ptr@V?$_Tmap_traits@TShaderEnvKey@Ogre@@PAVD3DTech@2@U?$less@TShaderEnvKey@Ogre@@@std@@V?$allocator@U?$pair@$$CBTShaderEnvKey@Ogre@@PAVD3DTech@2@@std@@@5@$0A@@std@@@std@@IAE@ABU?$less@TShaderEnvKey@Ogre@@@1@V?$allocator@U?$pair@$$CBTShaderEnvKey@Ogre@@PAVD3DTech@2@@std@@@1@@Z$0 1002c8e0 f   OgreD3DMaterialTemplate.obj
 0001:0002b8e0       __unwindfunclet$??0?$_Tree_ptr@V?$_Tmap_traits@VFixedString@Ogre@@PAVCompiledShaderGroup@2@U?$less@VFixedString@Ogre@@@std@@V?$allocator@U?$pair@$$CBVFixedString@Ogre@@PAVCompiledShaderGroup@2@@std@@@5@$0A@@std@@@std@@IAE@ABU?$less@VFixedString@Ogre@@@1@V?$allocator@U?$pair@$$CBVFixedString@Ogre@@PAVCompiledShaderGroup@2@@std@@@1@@Z$0 1002c8e0 f   OgreD3DMaterialTemplate.obj
 0001:0002b8e0       __unwindfunclet$??0?$_Tree_ptr@V?$_Tmap_traits@TShaderEnvKey2@Ogre@@PAVD3DShaderTechnique@2@U?$less@TShaderEnvKey2@Ogre@@@std@@V?$allocator@U?$pair@$$CBTShaderEnvKey2@Ogre@@PAVD3DShaderTechnique@2@@std@@@5@$0A@@std@@@std@@IAE@ABU?$less@TShaderEnvKey2@Ogre@@@1@V?$allocator@U?$pair@$$CBTShaderEnvKey2@Ogre@@PAVD3DShaderTechnique@2@@std@@@1@@Z$0 1002c8e0 f   OgreD3DMaterialTemplate.obj
 0001:0002b8e8       __ehhandler$??0?$_Tree_ptr@V?$_Tmap_traits@TShaderEnvKey@Ogre@@PAVD3DTech@2@U?$less@TShaderEnvKey@Ogre@@@std@@V?$allocator@U?$pair@$$CBTShaderEnvKey@Ogre@@PAVD3DTech@2@@std@@@5@$0A@@std@@@std@@IAE@ABU?$less@TShaderEnvKey@Ogre@@@1@V?$allocator@U?$pair@$$CBTShaderEnvKey@Ogre@@PAVD3DTech@2@@std@@@1@@Z 1002c8e8 f   OgreD3DMaterialTemplate.obj
 0001:0002b8e8       __ehhandler$??0?$_Tree_ptr@V?$_Tmap_traits@TShaderEnvKey2@Ogre@@PAVD3DShaderTechnique@2@U?$less@TShaderEnvKey2@Ogre@@@std@@V?$allocator@U?$pair@$$CBTShaderEnvKey2@Ogre@@PAVD3DShaderTechnique@2@@std@@@5@$0A@@std@@@std@@IAE@ABU?$less@TShaderEnvKey2@Ogre@@@1@V?$allocator@U?$pair@$$CBTShaderEnvKey2@Ogre@@PAVD3DShaderTechnique@2@@std@@@1@@Z 1002c8e8 f   OgreD3DMaterialTemplate.obj
 0001:0002b8e8       __ehhandler$??0?$_Tree_ptr@V?$_Tmap_traits@TShaderEnvKey@Ogre@@PAVCompiledShader@2@U?$less@TShaderEnvKey@Ogre@@@std@@V?$allocator@U?$pair@$$CBTShaderEnvKey@Ogre@@PAVCompiledShader@2@@std@@@5@$0A@@std@@@std@@IAE@ABU?$less@TShaderEnvKey@Ogre@@@1@V?$allocator@U?$pair@$$CBTShaderEnvKey@Ogre@@PAVCompiledShader@2@@std@@@1@@Z 1002c8e8 f   OgreD3DMaterialTemplate.obj
 0001:0002b8e8       __ehhandler$??0?$_Tree_ptr@V?$_Tmap_traits@VFixedString@Ogre@@PAVCompiledShaderGroup@2@U?$less@VFixedString@Ogre@@@std@@V?$allocator@U?$pair@$$CBVFixedString@Ogre@@PAVCompiledShaderGroup@2@@std@@@5@$0A@@std@@@std@@IAE@ABU?$less@VFixedString@Ogre@@@1@V?$allocator@U?$pair@$$CBVFixedString@Ogre@@PAVCompiledShaderGroup@2@@std@@@1@@Z 1002c8e8 f   OgreD3DMaterialTemplate.obj
 0001:0002b910       __unwindfunclet$??1_Node@?$_Tree_nod@V?$_Tmap_traits@VFixedString@Ogre@@PAVCompiledShaderGroup@2@U?$less@VFixedString@Ogre@@@std@@V?$allocator@U?$pair@$$CBVFixedString@Ogre@@PAVCompiledShaderGroup@2@@std@@@5@$0A@@std@@@std@@QAE@XZ$0 1002c910 f   OgreD3DMaterialTemplate.obj
 0001:0002b910       __unwindfunclet$??0_Node@?$_Tree_nod@V?$_Tmap_traits@VFixedString@Ogre@@PAVCompiledShaderGroup@2@U?$less@VFixedString@Ogre@@@std@@V?$allocator@U?$pair@$$CBVFixedString@Ogre@@PAVCompiledShaderGroup@2@@std@@@5@$0A@@std@@@std@@QAE@PAU012@00ABU?$pair@$$CBVFixedString@Ogre@@PAVCompiledShaderGroup@2@@2@D@Z$0 1002c910 f   OgreD3DMaterialTemplate.obj
 0001:0002b91b       __ehhandler$??0_Node@?$_Tree_nod@V?$_Tmap_traits@VFixedString@Ogre@@PAVCompiledShaderGroup@2@U?$less@VFixedString@Ogre@@@std@@V?$allocator@U?$pair@$$CBVFixedString@Ogre@@PAVCompiledShaderGroup@2@@std@@@5@$0A@@std@@@std@@QAE@PAU012@00ABU?$pair@$$CBVFixedString@Ogre@@PAVCompiledShaderGroup@2@@2@D@Z 1002c91b f   OgreD3DMaterialTemplate.obj
 0001:0002b91b       __ehhandler$??1_Node@?$_Tree_nod@V?$_Tmap_traits@VFixedString@Ogre@@PAVCompiledShaderGroup@2@U?$less@VFixedString@Ogre@@@std@@V?$allocator@U?$pair@$$CBVFixedString@Ogre@@PAVCompiledShaderGroup@2@@std@@@5@$0A@@std@@@std@@QAE@XZ 1002c91b f   OgreD3DMaterialTemplate.obj
 0001:0002b940       __unwindfunclet$??0D3DRenderWindow@Ogre@@QAE@PAVD3D9RenderSystem@1@ABUInitDesc@RenderSystem@1@_N@Z$0 1002c940 f   OgreD3DRenderWindow.obj
 0001:0002b949       __ehhandler$??0D3DRenderWindow@Ogre@@QAE@PAVD3D9RenderSystem@1@ABUInitDesc@RenderSystem@1@_N@Z 1002c949 f   OgreD3DRenderWindow.obj
 0001:0002b964       __unwindfunclet$??1D3DRenderWindow@Ogre@@UAE@XZ$0 1002c964 f   OgreD3DRenderWindow.obj
 0001:0002b96d       __ehhandler$??1D3DRenderWindow@Ogre@@UAE@XZ 1002c96d f   OgreD3DRenderWindow.obj
 0001:0002b990       ??__ETWO_PI@Ogre@@YAXXZ    1002c990 f   OgreD3D9Plugin.obj
 0001:0002b9b0       ??__EHALF_PI@Ogre@@YAXXZ   1002c9b0 f   OgreD3D9Plugin.obj
 0001:0002b9d0       ??__EsPluginName@Ogre@@YAXXZ 1002c9d0 f   OgreD3D9Plugin.obj
 0001:0002ba00       ??__ETWO_PI@Ogre@@YAXXZ    1002ca00 f   OgreD3D9RenderSystem.obj
 0001:0002ba20       ??__EHALF_PI@Ogre@@YAXXZ   1002ca20 f   OgreD3D9RenderSystem.obj
 0001:0002ba40       ??__ETWO_PI@Ogre@@YAXXZ    1002ca40 f   OgreD3D9ShaderManager.obj
 0001:0002ba60       ??__EHALF_PI@Ogre@@YAXXZ   1002ca60 f   OgreD3D9ShaderManager.obj
 0001:0002ba80       ??__ETWO_PI@Ogre@@YAXXZ    1002ca80 f   OgreD3D9Technique.obj
 0001:0002baa0       ??__EHALF_PI@Ogre@@YAXXZ   1002caa0 f   OgreD3D9Technique.obj
 0001:0002bac0       ??__ETWO_PI@Ogre@@YAXXZ    1002cac0 f   OgreD3D9Technique_Impl.obj
 0001:0002bae0       ??__EHALF_PI@Ogre@@YAXXZ   1002cae0 f   OgreD3D9Technique_Impl.obj
 0001:0002bb00       ??__ETWO_PI@Ogre@@YAXXZ    1002cb00 f   OgreD3D9VertexDecl.obj
 0001:0002bb20       ??__EHALF_PI@Ogre@@YAXXZ   1002cb20 f   OgreD3D9VertexDecl.obj
 0001:0002bb40       ??__ETWO_PI@Ogre@@YAXXZ    1002cb40 f   OgreD3DMaterialTemplate.obj
 0001:0002bb60       ??__EHALF_PI@Ogre@@YAXXZ   1002cb60 f   OgreD3DMaterialTemplate.obj
 0001:0002bb80       ??__FsPluginName@Ogre@@YAXXZ 1002cb80 f   OgreD3D9Plugin.obj

 Exports

  ordinal    name

        1    _dllStartPlugin
               exported name: dllStartPlugin
        2    _dllStopPlugin
               exported name: dllStopPlugin
