; Listing generated by Microsoft (R) Optimizing Compiler Version 15.00.30729.01 

	TITLE	i:\svnroot\client\OgreMain\OgreRandomNumber.cpp
	.686P
	.XMM
	include listing.inc
	.model	flat

INCLUDELIB MSVCRT
INCLUDELIB OLDNAMES

PUBLIC	?_Value@?$_Is_swap_move@U_Swap_move_tag@std@@@std@@2_NB ; std::_Is_swap_move<std::_Swap_move_tag>::_Value
PUBLIC	?collate@?$_Locbase@H@std@@2HB			; std::_Locbase<int>::collate
PUBLIC	?ctype@?$_Locbase@H@std@@2HB			; std::_Locbase<int>::ctype
PUBLIC	?monetary@?$_Locbase@H@std@@2HB			; std::_Locbase<int>::monetary
PUBLIC	?numeric@?$_Locbase@H@std@@2HB			; std::_Locbase<int>::numeric
PUBLIC	?time@?$_Locbase@H@std@@2HB			; std::_Locbase<int>::time
PUBLIC	?messages@?$_Locbase@H@std@@2HB			; std::_Locbase<int>::messages
PUBLIC	?all@?$_Locbase@H@std@@2HB			; std::_Locbase<int>::all
PUBLIC	?none@?$_Locbase@H@std@@2HB			; std::_Locbase<int>::none
PUBLIC	?skipws@?$_Iosb@H@std@@2W4_Fmtflags@12@B	; std::_Iosb<int>::skipws
PUBLIC	?unitbuf@?$_Iosb@H@std@@2W4_Fmtflags@12@B	; std::_Iosb<int>::unitbuf
PUBLIC	?uppercase@?$_Iosb@H@std@@2W4_Fmtflags@12@B	; std::_Iosb<int>::uppercase
PUBLIC	?showbase@?$_Iosb@H@std@@2W4_Fmtflags@12@B	; std::_Iosb<int>::showbase
PUBLIC	?showpoint@?$_Iosb@H@std@@2W4_Fmtflags@12@B	; std::_Iosb<int>::showpoint
PUBLIC	?showpos@?$_Iosb@H@std@@2W4_Fmtflags@12@B	; std::_Iosb<int>::showpos
PUBLIC	?left@?$_Iosb@H@std@@2W4_Fmtflags@12@B		; std::_Iosb<int>::left
PUBLIC	?right@?$_Iosb@H@std@@2W4_Fmtflags@12@B		; std::_Iosb<int>::right
PUBLIC	?internal@?$_Iosb@H@std@@2W4_Fmtflags@12@B	; std::_Iosb<int>::internal
PUBLIC	?dec@?$_Iosb@H@std@@2W4_Fmtflags@12@B		; std::_Iosb<int>::dec
PUBLIC	?oct@?$_Iosb@H@std@@2W4_Fmtflags@12@B		; std::_Iosb<int>::oct
PUBLIC	?hex@?$_Iosb@H@std@@2W4_Fmtflags@12@B		; std::_Iosb<int>::hex
PUBLIC	?scientific@?$_Iosb@H@std@@2W4_Fmtflags@12@B	; std::_Iosb<int>::scientific
PUBLIC	?fixed@?$_Iosb@H@std@@2W4_Fmtflags@12@B		; std::_Iosb<int>::fixed
PUBLIC	?hexfloat@?$_Iosb@H@std@@2W4_Fmtflags@12@B	; std::_Iosb<int>::hexfloat
PUBLIC	?boolalpha@?$_Iosb@H@std@@2W4_Fmtflags@12@B	; std::_Iosb<int>::boolalpha
PUBLIC	?_Stdio@?$_Iosb@H@std@@2W4_Fmtflags@12@B	; std::_Iosb<int>::_Stdio
PUBLIC	?adjustfield@?$_Iosb@H@std@@2W4_Fmtflags@12@B	; std::_Iosb<int>::adjustfield
PUBLIC	?basefield@?$_Iosb@H@std@@2W4_Fmtflags@12@B	; std::_Iosb<int>::basefield
PUBLIC	?floatfield@?$_Iosb@H@std@@2W4_Fmtflags@12@B	; std::_Iosb<int>::floatfield
PUBLIC	?goodbit@?$_Iosb@H@std@@2W4_Iostate@12@B	; std::_Iosb<int>::goodbit
PUBLIC	?eofbit@?$_Iosb@H@std@@2W4_Iostate@12@B		; std::_Iosb<int>::eofbit
PUBLIC	?failbit@?$_Iosb@H@std@@2W4_Iostate@12@B	; std::_Iosb<int>::failbit
PUBLIC	?badbit@?$_Iosb@H@std@@2W4_Iostate@12@B		; std::_Iosb<int>::badbit
PUBLIC	?_Hardfail@?$_Iosb@H@std@@2W4_Iostate@12@B	; std::_Iosb<int>::_Hardfail
PUBLIC	?in@?$_Iosb@H@std@@2W4_Openmode@12@B		; std::_Iosb<int>::in
PUBLIC	?out@?$_Iosb@H@std@@2W4_Openmode@12@B		; std::_Iosb<int>::out
PUBLIC	?ate@?$_Iosb@H@std@@2W4_Openmode@12@B		; std::_Iosb<int>::ate
PUBLIC	?app@?$_Iosb@H@std@@2W4_Openmode@12@B		; std::_Iosb<int>::app
PUBLIC	?trunc@?$_Iosb@H@std@@2W4_Openmode@12@B		; std::_Iosb<int>::trunc
PUBLIC	?_Nocreate@?$_Iosb@H@std@@2W4_Openmode@12@B	; std::_Iosb<int>::_Nocreate
PUBLIC	?_Noreplace@?$_Iosb@H@std@@2W4_Openmode@12@B	; std::_Iosb<int>::_Noreplace
PUBLIC	?binary@?$_Iosb@H@std@@2W4_Openmode@12@B	; std::_Iosb<int>::binary
PUBLIC	?beg@?$_Iosb@H@std@@2W4_Seekdir@12@B		; std::_Iosb<int>::beg
PUBLIC	?cur@?$_Iosb@H@std@@2W4_Seekdir@12@B		; std::_Iosb<int>::cur
PUBLIC	?end@?$_Iosb@H@std@@2W4_Seekdir@12@B		; std::_Iosb<int>::end
PUBLIC	?value@?$integral_constant@_N$0A@@tr1@std@@2_NB	; std::tr1::integral_constant<bool,0>::value
PUBLIC	?value@?$integral_constant@_N$00@tr1@std@@2_NB	; std::tr1::integral_constant<bool,1>::value
;	COMDAT ?value@?$integral_constant@_N$00@tr1@std@@2_NB
CONST	SEGMENT
?value@?$integral_constant@_N$00@tr1@std@@2_NB DB 01H	; std::tr1::integral_constant<bool,1>::value
CONST	ENDS
;	COMDAT ?value@?$integral_constant@_N$0A@@tr1@std@@2_NB
CONST	SEGMENT
?value@?$integral_constant@_N$0A@@tr1@std@@2_NB DB 00H	; std::tr1::integral_constant<bool,0>::value
CONST	ENDS
;	COMDAT ?end@?$_Iosb@H@std@@2W4_Seekdir@12@B
CONST	SEGMENT
?end@?$_Iosb@H@std@@2W4_Seekdir@12@B DD 02H		; std::_Iosb<int>::end
CONST	ENDS
;	COMDAT ?cur@?$_Iosb@H@std@@2W4_Seekdir@12@B
CONST	SEGMENT
?cur@?$_Iosb@H@std@@2W4_Seekdir@12@B DD 01H		; std::_Iosb<int>::cur
CONST	ENDS
;	COMDAT ?beg@?$_Iosb@H@std@@2W4_Seekdir@12@B
CONST	SEGMENT
?beg@?$_Iosb@H@std@@2W4_Seekdir@12@B DD 00H		; std::_Iosb<int>::beg
CONST	ENDS
;	COMDAT ?binary@?$_Iosb@H@std@@2W4_Openmode@12@B
CONST	SEGMENT
?binary@?$_Iosb@H@std@@2W4_Openmode@12@B DD 020H	; std::_Iosb<int>::binary
CONST	ENDS
;	COMDAT ?_Noreplace@?$_Iosb@H@std@@2W4_Openmode@12@B
CONST	SEGMENT
?_Noreplace@?$_Iosb@H@std@@2W4_Openmode@12@B DD 080H	; std::_Iosb<int>::_Noreplace
CONST	ENDS
;	COMDAT ?_Nocreate@?$_Iosb@H@std@@2W4_Openmode@12@B
CONST	SEGMENT
?_Nocreate@?$_Iosb@H@std@@2W4_Openmode@12@B DD 040H	; std::_Iosb<int>::_Nocreate
CONST	ENDS
;	COMDAT ?trunc@?$_Iosb@H@std@@2W4_Openmode@12@B
CONST	SEGMENT
?trunc@?$_Iosb@H@std@@2W4_Openmode@12@B DD 010H		; std::_Iosb<int>::trunc
CONST	ENDS
;	COMDAT ?app@?$_Iosb@H@std@@2W4_Openmode@12@B
CONST	SEGMENT
?app@?$_Iosb@H@std@@2W4_Openmode@12@B DD 08H		; std::_Iosb<int>::app
CONST	ENDS
;	COMDAT ?ate@?$_Iosb@H@std@@2W4_Openmode@12@B
CONST	SEGMENT
?ate@?$_Iosb@H@std@@2W4_Openmode@12@B DD 04H		; std::_Iosb<int>::ate
CONST	ENDS
;	COMDAT ?out@?$_Iosb@H@std@@2W4_Openmode@12@B
CONST	SEGMENT
?out@?$_Iosb@H@std@@2W4_Openmode@12@B DD 02H		; std::_Iosb<int>::out
CONST	ENDS
;	COMDAT ?in@?$_Iosb@H@std@@2W4_Openmode@12@B
CONST	SEGMENT
?in@?$_Iosb@H@std@@2W4_Openmode@12@B DD 01H		; std::_Iosb<int>::in
CONST	ENDS
;	COMDAT ?_Hardfail@?$_Iosb@H@std@@2W4_Iostate@12@B
CONST	SEGMENT
?_Hardfail@?$_Iosb@H@std@@2W4_Iostate@12@B DD 010H	; std::_Iosb<int>::_Hardfail
CONST	ENDS
;	COMDAT ?badbit@?$_Iosb@H@std@@2W4_Iostate@12@B
CONST	SEGMENT
?badbit@?$_Iosb@H@std@@2W4_Iostate@12@B DD 04H		; std::_Iosb<int>::badbit
CONST	ENDS
;	COMDAT ?failbit@?$_Iosb@H@std@@2W4_Iostate@12@B
CONST	SEGMENT
?failbit@?$_Iosb@H@std@@2W4_Iostate@12@B DD 02H		; std::_Iosb<int>::failbit
CONST	ENDS
;	COMDAT ?eofbit@?$_Iosb@H@std@@2W4_Iostate@12@B
CONST	SEGMENT
?eofbit@?$_Iosb@H@std@@2W4_Iostate@12@B DD 01H		; std::_Iosb<int>::eofbit
CONST	ENDS
;	COMDAT ?goodbit@?$_Iosb@H@std@@2W4_Iostate@12@B
CONST	SEGMENT
?goodbit@?$_Iosb@H@std@@2W4_Iostate@12@B DD 00H		; std::_Iosb<int>::goodbit
CONST	ENDS
;	COMDAT ?floatfield@?$_Iosb@H@std@@2W4_Fmtflags@12@B
CONST	SEGMENT
?floatfield@?$_Iosb@H@std@@2W4_Fmtflags@12@B DD 03000H	; std::_Iosb<int>::floatfield
CONST	ENDS
;	COMDAT ?basefield@?$_Iosb@H@std@@2W4_Fmtflags@12@B
CONST	SEGMENT
?basefield@?$_Iosb@H@std@@2W4_Fmtflags@12@B DD 0e00H	; std::_Iosb<int>::basefield
CONST	ENDS
;	COMDAT ?adjustfield@?$_Iosb@H@std@@2W4_Fmtflags@12@B
CONST	SEGMENT
?adjustfield@?$_Iosb@H@std@@2W4_Fmtflags@12@B DD 01c0H	; std::_Iosb<int>::adjustfield
CONST	ENDS
;	COMDAT ?_Stdio@?$_Iosb@H@std@@2W4_Fmtflags@12@B
CONST	SEGMENT
?_Stdio@?$_Iosb@H@std@@2W4_Fmtflags@12@B DD 08000H	; std::_Iosb<int>::_Stdio
CONST	ENDS
;	COMDAT ?boolalpha@?$_Iosb@H@std@@2W4_Fmtflags@12@B
CONST	SEGMENT
?boolalpha@?$_Iosb@H@std@@2W4_Fmtflags@12@B DD 04000H	; std::_Iosb<int>::boolalpha
CONST	ENDS
;	COMDAT ?hexfloat@?$_Iosb@H@std@@2W4_Fmtflags@12@B
CONST	SEGMENT
?hexfloat@?$_Iosb@H@std@@2W4_Fmtflags@12@B DD 03000H	; std::_Iosb<int>::hexfloat
CONST	ENDS
;	COMDAT ?fixed@?$_Iosb@H@std@@2W4_Fmtflags@12@B
CONST	SEGMENT
?fixed@?$_Iosb@H@std@@2W4_Fmtflags@12@B DD 02000H	; std::_Iosb<int>::fixed
CONST	ENDS
;	COMDAT ?scientific@?$_Iosb@H@std@@2W4_Fmtflags@12@B
CONST	SEGMENT
?scientific@?$_Iosb@H@std@@2W4_Fmtflags@12@B DD 01000H	; std::_Iosb<int>::scientific
CONST	ENDS
;	COMDAT ?hex@?$_Iosb@H@std@@2W4_Fmtflags@12@B
CONST	SEGMENT
?hex@?$_Iosb@H@std@@2W4_Fmtflags@12@B DD 0800H		; std::_Iosb<int>::hex
CONST	ENDS
;	COMDAT ?oct@?$_Iosb@H@std@@2W4_Fmtflags@12@B
CONST	SEGMENT
?oct@?$_Iosb@H@std@@2W4_Fmtflags@12@B DD 0400H		; std::_Iosb<int>::oct
CONST	ENDS
;	COMDAT ?dec@?$_Iosb@H@std@@2W4_Fmtflags@12@B
CONST	SEGMENT
?dec@?$_Iosb@H@std@@2W4_Fmtflags@12@B DD 0200H		; std::_Iosb<int>::dec
CONST	ENDS
;	COMDAT ?internal@?$_Iosb@H@std@@2W4_Fmtflags@12@B
CONST	SEGMENT
?internal@?$_Iosb@H@std@@2W4_Fmtflags@12@B DD 0100H	; std::_Iosb<int>::internal
CONST	ENDS
;	COMDAT ?right@?$_Iosb@H@std@@2W4_Fmtflags@12@B
CONST	SEGMENT
?right@?$_Iosb@H@std@@2W4_Fmtflags@12@B DD 080H		; std::_Iosb<int>::right
CONST	ENDS
;	COMDAT ?left@?$_Iosb@H@std@@2W4_Fmtflags@12@B
CONST	SEGMENT
?left@?$_Iosb@H@std@@2W4_Fmtflags@12@B DD 040H		; std::_Iosb<int>::left
CONST	ENDS
;	COMDAT ?showpos@?$_Iosb@H@std@@2W4_Fmtflags@12@B
CONST	SEGMENT
?showpos@?$_Iosb@H@std@@2W4_Fmtflags@12@B DD 020H	; std::_Iosb<int>::showpos
CONST	ENDS
;	COMDAT ?showpoint@?$_Iosb@H@std@@2W4_Fmtflags@12@B
CONST	SEGMENT
?showpoint@?$_Iosb@H@std@@2W4_Fmtflags@12@B DD 010H	; std::_Iosb<int>::showpoint
CONST	ENDS
;	COMDAT ?showbase@?$_Iosb@H@std@@2W4_Fmtflags@12@B
CONST	SEGMENT
?showbase@?$_Iosb@H@std@@2W4_Fmtflags@12@B DD 08H	; std::_Iosb<int>::showbase
CONST	ENDS
;	COMDAT ?uppercase@?$_Iosb@H@std@@2W4_Fmtflags@12@B
CONST	SEGMENT
?uppercase@?$_Iosb@H@std@@2W4_Fmtflags@12@B DD 04H	; std::_Iosb<int>::uppercase
CONST	ENDS
;	COMDAT ?unitbuf@?$_Iosb@H@std@@2W4_Fmtflags@12@B
CONST	SEGMENT
?unitbuf@?$_Iosb@H@std@@2W4_Fmtflags@12@B DD 02H	; std::_Iosb<int>::unitbuf
CONST	ENDS
;	COMDAT ?skipws@?$_Iosb@H@std@@2W4_Fmtflags@12@B
CONST	SEGMENT
?skipws@?$_Iosb@H@std@@2W4_Fmtflags@12@B DD 01H		; std::_Iosb<int>::skipws
CONST	ENDS
;	COMDAT ?none@?$_Locbase@H@std@@2HB
CONST	SEGMENT
?none@?$_Locbase@H@std@@2HB DD 00H			; std::_Locbase<int>::none
CONST	ENDS
;	COMDAT ?all@?$_Locbase@H@std@@2HB
CONST	SEGMENT
?all@?$_Locbase@H@std@@2HB DD 03fH			; std::_Locbase<int>::all
CONST	ENDS
;	COMDAT ?messages@?$_Locbase@H@std@@2HB
CONST	SEGMENT
?messages@?$_Locbase@H@std@@2HB DD 020H			; std::_Locbase<int>::messages
CONST	ENDS
;	COMDAT ?time@?$_Locbase@H@std@@2HB
CONST	SEGMENT
?time@?$_Locbase@H@std@@2HB DD 010H			; std::_Locbase<int>::time
CONST	ENDS
;	COMDAT ?numeric@?$_Locbase@H@std@@2HB
CONST	SEGMENT
?numeric@?$_Locbase@H@std@@2HB DD 08H			; std::_Locbase<int>::numeric
CONST	ENDS
;	COMDAT ?monetary@?$_Locbase@H@std@@2HB
CONST	SEGMENT
?monetary@?$_Locbase@H@std@@2HB DD 04H			; std::_Locbase<int>::monetary
CONST	ENDS
;	COMDAT ?ctype@?$_Locbase@H@std@@2HB
CONST	SEGMENT
?ctype@?$_Locbase@H@std@@2HB DD 02H			; std::_Locbase<int>::ctype
CONST	ENDS
;	COMDAT ?collate@?$_Locbase@H@std@@2HB
CONST	SEGMENT
?collate@?$_Locbase@H@std@@2HB DD 01H			; std::_Locbase<int>::collate
CONST	ENDS
;	COMDAT ?_Value@?$_Is_swap_move@U_Swap_move_tag@std@@@std@@2_NB
CONST	SEGMENT
?_Value@?$_Is_swap_move@U_Swap_move_tag@std@@@std@@2_NB DB 01H ; std::_Is_swap_move<std::_Swap_move_tag>::_Value
CONST	ENDS
_DATA	SEGMENT
__bad_alloc_Message DD FLAT:$SG5713
_DATA	ENDS
CONST	SEGMENT
$SG5713	DB	'bad allocation', 00H
	ORG $+1
_MAX_FLOAT DD	07f7fffffr			; 3.40282e+038
_ONE_PI	DD	040490fd0r			; 3.14159
_EPSILON DD	03727c5acr			; 1e-005
_RADS_PER_DEG DD 03c8efa35r			; 0.0174533
_DEGS_PER_RAD DD 042652ee1r			; 57.2958
$SG57737 DB	'%0.3f:%0.3f<%0.3f:%0.3f>', 00H
	ORG $+3
$SG57739 DB	'%0.3f:%0.3f', 00H
$SG57741 DB	'%0.3f', 00H
CONST	ENDS
PUBLIC	??_7DataStream@Ogre@@6B@			; Ogre::DataStream::`vftable'
PUBLIC	??0DataStream@Ogre@@QAE@XZ			; Ogre::DataStream::DataStream
PUBLIC	??_R4DataStream@Ogre@@6B@			; Ogre::DataStream::`RTTI Complete Object Locator'
PUBLIC	??_R0?AVDataStream@Ogre@@@8			; Ogre::DataStream `RTTI Type Descriptor'
PUBLIC	??_R3DataStream@Ogre@@8				; Ogre::DataStream::`RTTI Class Hierarchy Descriptor'
PUBLIC	??_R2DataStream@Ogre@@8				; Ogre::DataStream::`RTTI Base Class Array'
PUBLIC	??_R1A@?0A@EA@DataStream@Ogre@@8		; Ogre::DataStream::`RTTI Base Class Descriptor at (0,-1,0,64)'
PUBLIC	??_EDataStream@Ogre@@UAEPAXI@Z			; Ogre::DataStream::`vector deleting destructor'
PUBLIC	?size@DataStream@Ogre@@UBEIXZ			; Ogre::DataStream::size
EXTRN	__imp_??1?$basic_string@DU?$char_traits@D@std@@V?$allocator@D@2@@std@@QAE@XZ:PROC
EXTRN	__imp_??0?$basic_string@DU?$char_traits@D@std@@V?$allocator@D@2@@std@@QAE@XZ:PROC
EXTRN	___security_cookie:DWORD
EXTRN	___CxxFrameHandler3:PROC
EXTRN	@__security_check_cookie@4:PROC
EXTRN	??_7type_info@@6B@:QWORD			; type_info::`vftable'
EXTRN	__purecall:PROC
EXTRN	?readLine@DataStream@Ogre@@UAEIPADIABV?$basic_string@DU?$char_traits@D@std@@V?$allocator@D@2@@std@@@Z:PROC ; Ogre::DataStream::readLine
EXTRN	?getLine@DataStream@Ogre@@UAE?AV?$basic_string@DU?$char_traits@D@std@@V?$allocator@D@2@@std@@_N@Z:PROC ; Ogre::DataStream::getLine
EXTRN	?getAsString@DataStream@Ogre@@UAE?AV?$basic_string@DU?$char_traits@D@std@@V?$allocator@D@2@@std@@XZ:PROC ; Ogre::DataStream::getAsString
EXTRN	?skipLine@DataStream@Ogre@@UAEIABV?$basic_string@DU?$char_traits@D@std@@V?$allocator@D@2@@std@@@Z:PROC ; Ogre::DataStream::skipLine
;	COMDAT ??_R1A@?0A@EA@DataStream@Ogre@@8
; File i:\svnroot\client\ogremain\ogredatastream.h
rdata$r	SEGMENT
??_R1A@?0A@EA@DataStream@Ogre@@8 DD FLAT:??_R0?AVDataStream@Ogre@@@8 ; Ogre::DataStream::`RTTI Base Class Descriptor at (0,-1,0,64)'
	DD	00H
	DD	00H
	DD	0ffffffffH
	DD	00H
	DD	040H
	DD	FLAT:??_R3DataStream@Ogre@@8
rdata$r	ENDS
;	COMDAT ??_R2DataStream@Ogre@@8
rdata$r	SEGMENT
??_R2DataStream@Ogre@@8 DD FLAT:??_R1A@?0A@EA@DataStream@Ogre@@8 ; Ogre::DataStream::`RTTI Base Class Array'
rdata$r	ENDS
;	COMDAT ??_R3DataStream@Ogre@@8
rdata$r	SEGMENT
??_R3DataStream@Ogre@@8 DD 00H				; Ogre::DataStream::`RTTI Class Hierarchy Descriptor'
	DD	00H
	DD	01H
	DD	FLAT:??_R2DataStream@Ogre@@8
rdata$r	ENDS
;	COMDAT ??_R0?AVDataStream@Ogre@@@8
_DATA	SEGMENT
??_R0?AVDataStream@Ogre@@@8 DD FLAT:??_7type_info@@6B@	; Ogre::DataStream `RTTI Type Descriptor'
	DD	00H
	DB	'.?AVDataStream@Ogre@@', 00H
_DATA	ENDS
;	COMDAT ??_R4DataStream@Ogre@@6B@
rdata$r	SEGMENT
??_R4DataStream@Ogre@@6B@ DD 00H			; Ogre::DataStream::`RTTI Complete Object Locator'
	DD	00H
	DD	00H
	DD	FLAT:??_R0?AVDataStream@Ogre@@@8
	DD	FLAT:??_R3DataStream@Ogre@@8
rdata$r	ENDS
;	COMDAT ??_7DataStream@Ogre@@6B@
CONST	SEGMENT
??_7DataStream@Ogre@@6B@ DD FLAT:??_R4DataStream@Ogre@@6B@ ; Ogre::DataStream::`vftable'
	DD	FLAT:??_EDataStream@Ogre@@UAEPAXI@Z
	DD	FLAT:__purecall
	DD	FLAT:__purecall
	DD	FLAT:?readLine@DataStream@Ogre@@UAEIPADIABV?$basic_string@DU?$char_traits@D@std@@V?$allocator@D@2@@std@@@Z
	DD	FLAT:?getLine@DataStream@Ogre@@UAE?AV?$basic_string@DU?$char_traits@D@std@@V?$allocator@D@2@@std@@_N@Z
	DD	FLAT:?getAsString@DataStream@Ogre@@UAE?AV?$basic_string@DU?$char_traits@D@std@@V?$allocator@D@2@@std@@XZ
	DD	FLAT:?skipLine@DataStream@Ogre@@UAEIABV?$basic_string@DU?$char_traits@D@std@@V?$allocator@D@2@@std@@@Z
	DD	FLAT:__purecall
	DD	FLAT:__purecall
	DD	FLAT:__purecall
	DD	FLAT:__purecall
	DD	FLAT:?size@DataStream@Ogre@@UBEIXZ
	DD	FLAT:__purecall
	DD	FLAT:__purecall
CONST	ENDS
;	COMDAT xdata$x
xdata$x	SEGMENT
__unwindtable$??0DataStream@Ogre@@QAE@XZ DD 0ffffffffH
	DD	FLAT:__unwindfunclet$??0DataStream@Ogre@@QAE@XZ$0
__ehfuncinfo$??0DataStream@Ogre@@QAE@XZ DD 019930522H
	DD	01H
	DD	FLAT:__unwindtable$??0DataStream@Ogre@@QAE@XZ
	DD	2 DUP(00H)
	DD	2 DUP(00H)
	DD	00H
	DD	00H
; Function compile flags: /Odtp
xdata$x	ENDS
;	COMDAT ??0DataStream@Ogre@@QAE@XZ
_TEXT	SEGMENT
_this$ = -16						; size = 4
__$EHRec$ = -12						; size = 12
??0DataStream@Ogre@@QAE@XZ PROC				; Ogre::DataStream::DataStream, COMDAT
; _this$ = ecx

; 68   : 		DataStream() : mSize(0) {}

	push	ebp
	mov	ebp, esp
	push	-1
	push	__ehhandler$??0DataStream@Ogre@@QAE@XZ
	mov	eax, DWORD PTR fs:0
	push	eax
	push	ecx
	mov	eax, DWORD PTR ___security_cookie
	xor	eax, ebp
	push	eax
	lea	eax, DWORD PTR __$EHRec$[ebp]
	mov	DWORD PTR fs:0, eax
	mov	DWORD PTR _this$[ebp], ecx
	mov	eax, DWORD PTR _this$[ebp]
	mov	DWORD PTR [eax], OFFSET ??_7DataStream@Ogre@@6B@
	mov	ecx, DWORD PTR _this$[ebp]
	add	ecx, 4
	call	DWORD PTR __imp_??0?$basic_string@DU?$char_traits@D@std@@V?$allocator@D@2@@std@@QAE@XZ
	mov	DWORD PTR __$EHRec$[ebp+8], 0
	mov	ecx, DWORD PTR _this$[ebp]
	mov	DWORD PTR [ecx+32], 0
	mov	DWORD PTR __$EHRec$[ebp+8], -1
	mov	eax, DWORD PTR _this$[ebp]
	mov	ecx, DWORD PTR __$EHRec$[ebp]
	mov	DWORD PTR fs:0, ecx
	pop	ecx
	mov	esp, ebp
	pop	ebp
	ret	0
_TEXT	ENDS
;	COMDAT text$x
text$x	SEGMENT
__unwindfunclet$??0DataStream@Ogre@@QAE@XZ$0:
	mov	ecx, DWORD PTR _this$[ebp]
	add	ecx, 4
	jmp	DWORD PTR __imp_??1?$basic_string@DU?$char_traits@D@std@@V?$allocator@D@2@@std@@QAE@XZ
__ehhandler$??0DataStream@Ogre@@QAE@XZ:
	mov	edx, DWORD PTR [esp+8]
	lea	eax, DWORD PTR [edx+12]
	mov	ecx, DWORD PTR [edx-8]
	xor	ecx, eax
	call	@__security_check_cookie@4
	mov	eax, OFFSET __ehfuncinfo$??0DataStream@Ogre@@QAE@XZ
	jmp	___CxxFrameHandler3
text$x	ENDS
??0DataStream@Ogre@@QAE@XZ ENDP				; Ogre::DataStream::DataStream
PUBLIC	??0DataStream@Ogre@@QAE@ABV?$basic_string@DU?$char_traits@D@std@@V?$allocator@D@2@@std@@@Z ; Ogre::DataStream::DataStream
EXTRN	__imp_??0?$basic_string@DU?$char_traits@D@std@@V?$allocator@D@2@@std@@QAE@ABV01@@Z:PROC
;	COMDAT xdata$x
xdata$x	SEGMENT
__unwindtable$??0DataStream@Ogre@@QAE@ABV?$basic_string@DU?$char_traits@D@std@@V?$allocator@D@2@@std@@@Z DD 0ffffffffH
	DD	FLAT:__unwindfunclet$??0DataStream@Ogre@@QAE@ABV?$basic_string@DU?$char_traits@D@std@@V?$allocator@D@2@@std@@@Z$0
__ehfuncinfo$??0DataStream@Ogre@@QAE@ABV?$basic_string@DU?$char_traits@D@std@@V?$allocator@D@2@@std@@@Z DD 019930522H
	DD	01H
	DD	FLAT:__unwindtable$??0DataStream@Ogre@@QAE@ABV?$basic_string@DU?$char_traits@D@std@@V?$allocator@D@2@@std@@@Z
	DD	2 DUP(00H)
	DD	2 DUP(00H)
	DD	00H
	DD	00H
; Function compile flags: /Odtp
xdata$x	ENDS
;	COMDAT ??0DataStream@Ogre@@QAE@ABV?$basic_string@DU?$char_traits@D@std@@V?$allocator@D@2@@std@@@Z
_TEXT	SEGMENT
_this$ = -16						; size = 4
__$EHRec$ = -12						; size = 12
_name$ = 8						; size = 4
??0DataStream@Ogre@@QAE@ABV?$basic_string@DU?$char_traits@D@std@@V?$allocator@D@2@@std@@@Z PROC ; Ogre::DataStream::DataStream, COMDAT
; _this$ = ecx

; 70   : 		DataStream(const String& name) : mName(name), mSize(0) {}

	push	ebp
	mov	ebp, esp
	push	-1
	push	__ehhandler$??0DataStream@Ogre@@QAE@ABV?$basic_string@DU?$char_traits@D@std@@V?$allocator@D@2@@std@@@Z
	mov	eax, DWORD PTR fs:0
	push	eax
	push	ecx
	mov	eax, DWORD PTR ___security_cookie
	xor	eax, ebp
	push	eax
	lea	eax, DWORD PTR __$EHRec$[ebp]
	mov	DWORD PTR fs:0, eax
	mov	DWORD PTR _this$[ebp], ecx
	mov	eax, DWORD PTR _this$[ebp]
	mov	DWORD PTR [eax], OFFSET ??_7DataStream@Ogre@@6B@
	mov	ecx, DWORD PTR _name$[ebp]
	push	ecx
	mov	ecx, DWORD PTR _this$[ebp]
	add	ecx, 4
	call	DWORD PTR __imp_??0?$basic_string@DU?$char_traits@D@std@@V?$allocator@D@2@@std@@QAE@ABV01@@Z
	mov	DWORD PTR __$EHRec$[ebp+8], 0
	mov	edx, DWORD PTR _this$[ebp]
	mov	DWORD PTR [edx+32], 0
	mov	DWORD PTR __$EHRec$[ebp+8], -1
	mov	eax, DWORD PTR _this$[ebp]
	mov	ecx, DWORD PTR __$EHRec$[ebp]
	mov	DWORD PTR fs:0, ecx
	pop	ecx
	mov	esp, ebp
	pop	ebp
	ret	4
_TEXT	ENDS
;	COMDAT text$x
text$x	SEGMENT
__unwindfunclet$??0DataStream@Ogre@@QAE@ABV?$basic_string@DU?$char_traits@D@std@@V?$allocator@D@2@@std@@@Z$0:
	mov	ecx, DWORD PTR _this$[ebp]
	add	ecx, 4
	jmp	DWORD PTR __imp_??1?$basic_string@DU?$char_traits@D@std@@V?$allocator@D@2@@std@@QAE@XZ
__ehhandler$??0DataStream@Ogre@@QAE@ABV?$basic_string@DU?$char_traits@D@std@@V?$allocator@D@2@@std@@@Z:
	mov	edx, DWORD PTR [esp+8]
	lea	eax, DWORD PTR [edx+12]
	mov	ecx, DWORD PTR [edx-8]
	xor	ecx, eax
	call	@__security_check_cookie@4
	mov	eax, OFFSET __ehfuncinfo$??0DataStream@Ogre@@QAE@ABV?$basic_string@DU?$char_traits@D@std@@V?$allocator@D@2@@std@@@Z
	jmp	___CxxFrameHandler3
text$x	ENDS
??0DataStream@Ogre@@QAE@ABV?$basic_string@DU?$char_traits@D@std@@V?$allocator@D@2@@std@@@Z ENDP ; Ogre::DataStream::DataStream
PUBLIC	?getName@DataStream@Ogre@@QAEABV?$basic_string@DU?$char_traits@D@std@@V?$allocator@D@2@@std@@XZ ; Ogre::DataStream::getName
; Function compile flags: /Odtp
;	COMDAT ?getName@DataStream@Ogre@@QAEABV?$basic_string@DU?$char_traits@D@std@@V?$allocator@D@2@@std@@XZ
_TEXT	SEGMENT
_this$ = -4						; size = 4
?getName@DataStream@Ogre@@QAEABV?$basic_string@DU?$char_traits@D@std@@V?$allocator@D@2@@std@@XZ PROC ; Ogre::DataStream::getName, COMDAT
; _this$ = ecx

; 72   : 		const String& getName(void) { return mName; }

	push	ebp
	mov	ebp, esp
	push	ecx
	mov	DWORD PTR _this$[ebp], ecx
	mov	eax, DWORD PTR _this$[ebp]
	add	eax, 4
	mov	esp, ebp
	pop	ebp
	ret	0
?getName@DataStream@Ogre@@QAEABV?$basic_string@DU?$char_traits@D@std@@V?$allocator@D@2@@std@@XZ ENDP ; Ogre::DataStream::getName
_TEXT	ENDS
PUBLIC	??1DataStream@Ogre@@UAE@XZ			; Ogre::DataStream::~DataStream
;	COMDAT xdata$x
xdata$x	SEGMENT
__unwindtable$??1DataStream@Ogre@@UAE@XZ DD 0ffffffffH
	DD	FLAT:__unwindfunclet$??1DataStream@Ogre@@UAE@XZ$0
__ehfuncinfo$??1DataStream@Ogre@@UAE@XZ DD 019930522H
	DD	01H
	DD	FLAT:__unwindtable$??1DataStream@Ogre@@UAE@XZ
	DD	2 DUP(00H)
	DD	2 DUP(00H)
	DD	00H
	DD	00H
; Function compile flags: /Odtp
xdata$x	ENDS
;	COMDAT ??1DataStream@Ogre@@UAE@XZ
_TEXT	SEGMENT
_this$ = -16						; size = 4
__$EHRec$ = -12						; size = 12
??1DataStream@Ogre@@UAE@XZ PROC				; Ogre::DataStream::~DataStream, COMDAT
; _this$ = ecx

; 73   : 		virtual ~DataStream() {}

	push	ebp
	mov	ebp, esp
	push	-1
	push	__ehhandler$??1DataStream@Ogre@@UAE@XZ
	mov	eax, DWORD PTR fs:0
	push	eax
	push	ecx
	mov	eax, DWORD PTR ___security_cookie
	xor	eax, ebp
	push	eax
	lea	eax, DWORD PTR __$EHRec$[ebp]
	mov	DWORD PTR fs:0, eax
	mov	DWORD PTR _this$[ebp], ecx
	mov	eax, DWORD PTR _this$[ebp]
	mov	DWORD PTR [eax], OFFSET ??_7DataStream@Ogre@@6B@
	mov	DWORD PTR __$EHRec$[ebp+8], 0
	mov	DWORD PTR __$EHRec$[ebp+8], -1
	mov	ecx, DWORD PTR _this$[ebp]
	add	ecx, 4
	call	DWORD PTR __imp_??1?$basic_string@DU?$char_traits@D@std@@V?$allocator@D@2@@std@@QAE@XZ
	mov	ecx, DWORD PTR __$EHRec$[ebp]
	mov	DWORD PTR fs:0, ecx
	pop	ecx
	mov	esp, ebp
	pop	ebp
	ret	0
_TEXT	ENDS
;	COMDAT text$x
text$x	SEGMENT
__unwindfunclet$??1DataStream@Ogre@@UAE@XZ$0:
	mov	ecx, DWORD PTR _this$[ebp]
	add	ecx, 4
	jmp	DWORD PTR __imp_??1?$basic_string@DU?$char_traits@D@std@@V?$allocator@D@2@@std@@QAE@XZ
__ehhandler$??1DataStream@Ogre@@UAE@XZ:
	mov	edx, DWORD PTR [esp+8]
	lea	eax, DWORD PTR [edx+12]
	mov	ecx, DWORD PTR [edx-8]
	xor	ecx, eax
	call	@__security_check_cookie@4
	mov	eax, OFFSET __ehfuncinfo$??1DataStream@Ogre@@UAE@XZ
	jmp	___CxxFrameHandler3
text$x	ENDS
??1DataStream@Ogre@@UAE@XZ ENDP				; Ogre::DataStream::~DataStream
; Function compile flags: /Odtp
;	COMDAT ?size@DataStream@Ogre@@UBEIXZ
_TEXT	SEGMENT
_this$ = -4						; size = 4
?size@DataStream@Ogre@@UBEIXZ PROC			; Ogre::DataStream::size, COMDAT
; _this$ = ecx

; 157  : 		virtual size_t size(void) const { return mSize; }

	push	ebp
	mov	ebp, esp
	push	ecx
	mov	DWORD PTR _this$[ebp], ecx
	mov	eax, DWORD PTR _this$[ebp]
	mov	eax, DWORD PTR [eax+32]
	mov	esp, ebp
	pop	ebp
	ret	0
?size@DataStream@Ogre@@UBEIXZ ENDP			; Ogre::DataStream::size
_TEXT	ENDS
PUBLIC	??0DataStream@Ogre@@QAE@ABV01@@Z		; Ogre::DataStream::DataStream
;	COMDAT xdata$x
xdata$x	SEGMENT
__unwindtable$??0DataStream@Ogre@@QAE@ABV01@@Z DD 0ffffffffH
	DD	FLAT:__unwindfunclet$??0DataStream@Ogre@@QAE@ABV01@@Z$0
__ehfuncinfo$??0DataStream@Ogre@@QAE@ABV01@@Z DD 019930522H
	DD	01H
	DD	FLAT:__unwindtable$??0DataStream@Ogre@@QAE@ABV01@@Z
	DD	2 DUP(00H)
	DD	2 DUP(00H)
	DD	00H
	DD	00H
; Function compile flags: /Odtp
xdata$x	ENDS
;	COMDAT ??0DataStream@Ogre@@QAE@ABV01@@Z
_TEXT	SEGMENT
_this$ = -16						; size = 4
__$EHRec$ = -12						; size = 12
___that$ = 8						; size = 4
??0DataStream@Ogre@@QAE@ABV01@@Z PROC			; Ogre::DataStream::DataStream, COMDAT
; _this$ = ecx
	push	ebp
	mov	ebp, esp
	push	-1
	push	__ehhandler$??0DataStream@Ogre@@QAE@ABV01@@Z
	mov	eax, DWORD PTR fs:0
	push	eax
	push	ecx
	mov	eax, DWORD PTR ___security_cookie
	xor	eax, ebp
	push	eax
	lea	eax, DWORD PTR __$EHRec$[ebp]
	mov	DWORD PTR fs:0, eax
	mov	DWORD PTR _this$[ebp], ecx
	mov	eax, DWORD PTR _this$[ebp]
	mov	DWORD PTR [eax], OFFSET ??_7DataStream@Ogre@@6B@
	mov	ecx, DWORD PTR ___that$[ebp]
	add	ecx, 4
	push	ecx
	mov	ecx, DWORD PTR _this$[ebp]
	add	ecx, 4
	call	DWORD PTR __imp_??0?$basic_string@DU?$char_traits@D@std@@V?$allocator@D@2@@std@@QAE@ABV01@@Z
	mov	DWORD PTR __$EHRec$[ebp+8], 0
	mov	edx, DWORD PTR _this$[ebp]
	mov	eax, DWORD PTR ___that$[ebp]
	mov	ecx, DWORD PTR [eax+32]
	mov	DWORD PTR [edx+32], ecx
	mov	DWORD PTR __$EHRec$[ebp+8], -1
	mov	eax, DWORD PTR _this$[ebp]
	mov	ecx, DWORD PTR __$EHRec$[ebp]
	mov	DWORD PTR fs:0, ecx
	pop	ecx
	mov	esp, ebp
	pop	ebp
	ret	4
_TEXT	ENDS
;	COMDAT text$x
text$x	SEGMENT
__unwindfunclet$??0DataStream@Ogre@@QAE@ABV01@@Z$0:
	mov	ecx, DWORD PTR _this$[ebp]
	add	ecx, 4
	jmp	DWORD PTR __imp_??1?$basic_string@DU?$char_traits@D@std@@V?$allocator@D@2@@std@@QAE@XZ
__ehhandler$??0DataStream@Ogre@@QAE@ABV01@@Z:
	mov	edx, DWORD PTR [esp+8]
	lea	eax, DWORD PTR [edx+12]
	mov	ecx, DWORD PTR [edx-8]
	xor	ecx, eax
	call	@__security_check_cookie@4
	mov	eax, OFFSET __ehfuncinfo$??0DataStream@Ogre@@QAE@ABV01@@Z
	jmp	___CxxFrameHandler3
text$x	ENDS
??0DataStream@Ogre@@QAE@ABV01@@Z ENDP			; Ogre::DataStream::DataStream
PUBLIC	??4DataStream@Ogre@@QAEAAV01@ABV01@@Z		; Ogre::DataStream::operator=
EXTRN	__imp_??4?$basic_string@DU?$char_traits@D@std@@V?$allocator@D@2@@std@@QAEAAV01@ABV01@@Z:PROC
; Function compile flags: /Odtp
;	COMDAT ??4DataStream@Ogre@@QAEAAV01@ABV01@@Z
_TEXT	SEGMENT
_this$ = -4						; size = 4
___that$ = 8						; size = 4
??4DataStream@Ogre@@QAEAAV01@ABV01@@Z PROC		; Ogre::DataStream::operator=, COMDAT
; _this$ = ecx
	push	ebp
	mov	ebp, esp
	push	ecx
	mov	DWORD PTR _this$[ebp], ecx
	mov	eax, DWORD PTR ___that$[ebp]
	add	eax, 4
	push	eax
	mov	ecx, DWORD PTR _this$[ebp]
	add	ecx, 4
	call	DWORD PTR __imp_??4?$basic_string@DU?$char_traits@D@std@@V?$allocator@D@2@@std@@QAEAAV01@ABV01@@Z
	mov	ecx, DWORD PTR _this$[ebp]
	mov	edx, DWORD PTR ___that$[ebp]
	mov	eax, DWORD PTR [edx+32]
	mov	DWORD PTR [ecx+32], eax
	mov	eax, DWORD PTR _this$[ebp]
	mov	esp, ebp
	pop	ebp
	ret	4
??4DataStream@Ogre@@QAEAAV01@ABV01@@Z ENDP		; Ogre::DataStream::operator=
_TEXT	ENDS
PUBLIC	??_GDataStream@Ogre@@UAEPAXI@Z			; Ogre::DataStream::`scalar deleting destructor'
EXTRN	??3@YAXPAX@Z:PROC				; operator delete
; Function compile flags: /Odtp
;	COMDAT ??_GDataStream@Ogre@@UAEPAXI@Z
_TEXT	SEGMENT
_this$ = -4						; size = 4
___flags$ = 8						; size = 4
??_GDataStream@Ogre@@UAEPAXI@Z PROC			; Ogre::DataStream::`scalar deleting destructor', COMDAT
; _this$ = ecx
	push	ebp
	mov	ebp, esp
	push	ecx
	mov	DWORD PTR _this$[ebp], ecx
	mov	ecx, DWORD PTR _this$[ebp]
	call	??1DataStream@Ogre@@UAE@XZ		; Ogre::DataStream::~DataStream
	mov	eax, DWORD PTR ___flags$[ebp]
	and	eax, 1
	je	SHORT $LN1@scalar
	mov	ecx, DWORD PTR _this$[ebp]
	push	ecx
	call	??3@YAXPAX@Z				; operator delete
	add	esp, 4
$LN1@scalar:
	mov	eax, DWORD PTR _this$[ebp]
	mov	esp, ebp
	pop	ebp
	ret	4
??_GDataStream@Ogre@@UAEPAXI@Z ENDP			; Ogre::DataStream::`scalar deleting destructor'
_TEXT	ENDS
EXTRN	??_V@YAXPAX@Z:PROC				; operator delete[]
EXTRN	??_M@YGXPAXIHP6EX0@Z@Z:PROC			; `eh vector destructor iterator'
; Function compile flags: /Odtp
;	COMDAT ??_EDataStream@Ogre@@UAEPAXI@Z
_TEXT	SEGMENT
_this$ = -4						; size = 4
___flags$ = 8						; size = 4
??_EDataStream@Ogre@@UAEPAXI@Z PROC			; Ogre::DataStream::`vector deleting destructor', COMDAT
; _this$ = ecx
	push	ebp
	mov	ebp, esp
	push	ecx
	mov	DWORD PTR _this$[ebp], ecx
	mov	eax, DWORD PTR ___flags$[ebp]
	and	eax, 2
	je	SHORT $LN3@vector
	push	OFFSET ??1DataStream@Ogre@@UAE@XZ	; Ogre::DataStream::~DataStream
	mov	ecx, DWORD PTR _this$[ebp]
	mov	edx, DWORD PTR [ecx-4]
	push	edx
	push	36					; 00000024H
	mov	eax, DWORD PTR _this$[ebp]
	push	eax
	call	??_M@YGXPAXIHP6EX0@Z@Z
	mov	ecx, DWORD PTR ___flags$[ebp]
	and	ecx, 1
	je	SHORT $LN2@vector
	mov	edx, DWORD PTR _this$[ebp]
	sub	edx, 4
	push	edx
	call	??_V@YAXPAX@Z				; operator delete[]
	add	esp, 4
$LN2@vector:
	mov	eax, DWORD PTR _this$[ebp]
	sub	eax, 4
	jmp	SHORT $LN4@vector
$LN3@vector:
	mov	ecx, DWORD PTR _this$[ebp]
	call	??1DataStream@Ogre@@UAE@XZ		; Ogre::DataStream::~DataStream
	mov	eax, DWORD PTR ___flags$[ebp]
	and	eax, 1
	je	SHORT $LN1@vector
	mov	ecx, DWORD PTR _this$[ebp]
	push	ecx
	call	??3@YAXPAX@Z				; operator delete
	add	esp, 4
$LN1@vector:
	mov	eax, DWORD PTR _this$[ebp]
$LN4@vector:
	mov	esp, ebp
	pop	ebp
	ret	4
??_EDataStream@Ogre@@UAEPAXI@Z ENDP			; Ogre::DataStream::`vector deleting destructor'
_TEXT	ENDS
PUBLIC	?getPtr@MemoryDataStream@Ogre@@QAEPAEXZ		; Ogre::MemoryDataStream::getPtr
; Function compile flags: /Odtp
;	COMDAT ?getPtr@MemoryDataStream@Ogre@@QAEPAEXZ
_TEXT	SEGMENT
_this$ = -4						; size = 4
?getPtr@MemoryDataStream@Ogre@@QAEPAEXZ PROC		; Ogre::MemoryDataStream::getPtr, COMDAT
; _this$ = ecx

; 267  : 		uchar* getPtr(void) { return mData; }

	push	ebp
	mov	ebp, esp
	push	ecx
	mov	DWORD PTR _this$[ebp], ecx
	mov	eax, DWORD PTR _this$[ebp]
	mov	eax, DWORD PTR [eax+36]
	mov	esp, ebp
	pop	ebp
	ret	0
?getPtr@MemoryDataStream@Ogre@@QAEPAEXZ ENDP		; Ogre::MemoryDataStream::getPtr
_TEXT	ENDS
PUBLIC	?getCurrentPtr@MemoryDataStream@Ogre@@QAEPAEXZ	; Ogre::MemoryDataStream::getCurrentPtr
; Function compile flags: /Odtp
;	COMDAT ?getCurrentPtr@MemoryDataStream@Ogre@@QAEPAEXZ
_TEXT	SEGMENT
_this$ = -4						; size = 4
?getCurrentPtr@MemoryDataStream@Ogre@@QAEPAEXZ PROC	; Ogre::MemoryDataStream::getCurrentPtr, COMDAT
; _this$ = ecx

; 270  : 		uchar* getCurrentPtr(void) { return mPos; }

	push	ebp
	mov	ebp, esp
	push	ecx
	mov	DWORD PTR _this$[ebp], ecx
	mov	eax, DWORD PTR _this$[ebp]
	mov	eax, DWORD PTR [eax+40]
	mov	esp, ebp
	pop	ebp
	ret	0
?getCurrentPtr@MemoryDataStream@Ogre@@QAEPAEXZ ENDP	; Ogre::MemoryDataStream::getCurrentPtr
_TEXT	ENDS
PUBLIC	?getMemoryImage@MemoryDataStream@Ogre@@UAEPAXXZ	; Ogre::MemoryDataStream::getMemoryImage
; Function compile flags: /Odtp
;	COMDAT ?getMemoryImage@MemoryDataStream@Ogre@@UAEPAXXZ
_TEXT	SEGMENT
_this$ = -4						; size = 4
?getMemoryImage@MemoryDataStream@Ogre@@UAEPAXXZ PROC	; Ogre::MemoryDataStream::getMemoryImage, COMDAT
; _this$ = ecx

; 307  : 		{

	push	ebp
	mov	ebp, esp
	push	ecx
	mov	DWORD PTR _this$[ebp], ecx

; 308  : 			return mData;

	mov	eax, DWORD PTR _this$[ebp]
	mov	eax, DWORD PTR [eax+36]

; 309  : 		}

	mov	esp, ebp
	pop	ebp
	ret	0
?getMemoryImage@MemoryDataStream@Ogre@@UAEPAXXZ ENDP	; Ogre::MemoryDataStream::getMemoryImage
_TEXT	ENDS
PUBLIC	?setFreeOnClose@MemoryDataStream@Ogre@@QAEXP6AXPAX@Z@Z ; Ogre::MemoryDataStream::setFreeOnClose
; Function compile flags: /Odtp
;	COMDAT ?setFreeOnClose@MemoryDataStream@Ogre@@QAEXP6AXPAX@Z@Z
_TEXT	SEGMENT
_this$ = -4						; size = 4
_freeOnClose$ = 8					; size = 4
?setFreeOnClose@MemoryDataStream@Ogre@@QAEXP6AXPAX@Z@Z PROC ; Ogre::MemoryDataStream::setFreeOnClose, COMDAT
; _this$ = ecx

; 313  : 		void setFreeOnClose(void (*freeOnClose)(void *)) { mFreeOnClose = freeOnClose; }

	push	ebp
	mov	ebp, esp
	push	ecx
	mov	DWORD PTR _this$[ebp], ecx
	mov	eax, DWORD PTR _this$[ebp]
	mov	ecx, DWORD PTR _freeOnClose$[ebp]
	mov	DWORD PTR [eax+48], ecx
	mov	esp, ebp
	pop	ebp
	ret	4
?setFreeOnClose@MemoryDataStream@Ogre@@QAEXP6AXPAX@Z@Z ENDP ; Ogre::MemoryDataStream::setFreeOnClose
_TEXT	ENDS
PUBLIC	??_7MemoryDataStream@Ogre@@6B@			; Ogre::MemoryDataStream::`vftable'
PUBLIC	??0MemoryDataStream@Ogre@@QAE@ABV01@@Z		; Ogre::MemoryDataStream::MemoryDataStream
PUBLIC	??_R4MemoryDataStream@Ogre@@6B@			; Ogre::MemoryDataStream::`RTTI Complete Object Locator'
PUBLIC	??_R0?AVMemoryDataStream@Ogre@@@8		; Ogre::MemoryDataStream `RTTI Type Descriptor'
PUBLIC	??_R3MemoryDataStream@Ogre@@8			; Ogre::MemoryDataStream::`RTTI Class Hierarchy Descriptor'
PUBLIC	??_R2MemoryDataStream@Ogre@@8			; Ogre::MemoryDataStream::`RTTI Base Class Array'
PUBLIC	??_R1A@?0A@EA@MemoryDataStream@Ogre@@8		; Ogre::MemoryDataStream::`RTTI Base Class Descriptor at (0,-1,0,64)'
PUBLIC	??_EMemoryDataStream@Ogre@@UAEPAXI@Z		; Ogre::MemoryDataStream::`vector deleting destructor'
EXTRN	?read@MemoryDataStream@Ogre@@UAEIPAXI@Z:PROC	; Ogre::MemoryDataStream::read
EXTRN	?write@MemoryDataStream@Ogre@@UAEIPBXI@Z:PROC	; Ogre::MemoryDataStream::write
EXTRN	?readLine@MemoryDataStream@Ogre@@UAEIPADIABV?$basic_string@DU?$char_traits@D@std@@V?$allocator@D@2@@std@@@Z:PROC ; Ogre::MemoryDataStream::readLine
EXTRN	?skipLine@MemoryDataStream@Ogre@@UAEIABV?$basic_string@DU?$char_traits@D@std@@V?$allocator@D@2@@std@@@Z:PROC ; Ogre::MemoryDataStream::skipLine
EXTRN	?skip@MemoryDataStream@Ogre@@UAEXJ@Z:PROC	; Ogre::MemoryDataStream::skip
EXTRN	?seek@MemoryDataStream@Ogre@@UAEXI@Z:PROC	; Ogre::MemoryDataStream::seek
EXTRN	?tell@MemoryDataStream@Ogre@@UBEIXZ:PROC	; Ogre::MemoryDataStream::tell
EXTRN	?eof@MemoryDataStream@Ogre@@UBE_NXZ:PROC	; Ogre::MemoryDataStream::eof
EXTRN	?close@MemoryDataStream@Ogre@@UAEXXZ:PROC	; Ogre::MemoryDataStream::close
;	COMDAT ??_R1A@?0A@EA@MemoryDataStream@Ogre@@8
rdata$r	SEGMENT
??_R1A@?0A@EA@MemoryDataStream@Ogre@@8 DD FLAT:??_R0?AVMemoryDataStream@Ogre@@@8 ; Ogre::MemoryDataStream::`RTTI Base Class Descriptor at (0,-1,0,64)'
	DD	01H
	DD	00H
	DD	0ffffffffH
	DD	00H
	DD	040H
	DD	FLAT:??_R3MemoryDataStream@Ogre@@8
rdata$r	ENDS
;	COMDAT ??_R2MemoryDataStream@Ogre@@8
rdata$r	SEGMENT
??_R2MemoryDataStream@Ogre@@8 DD FLAT:??_R1A@?0A@EA@MemoryDataStream@Ogre@@8 ; Ogre::MemoryDataStream::`RTTI Base Class Array'
	DD	FLAT:??_R1A@?0A@EA@DataStream@Ogre@@8
rdata$r	ENDS
;	COMDAT ??_R3MemoryDataStream@Ogre@@8
rdata$r	SEGMENT
??_R3MemoryDataStream@Ogre@@8 DD 00H			; Ogre::MemoryDataStream::`RTTI Class Hierarchy Descriptor'
	DD	00H
	DD	02H
	DD	FLAT:??_R2MemoryDataStream@Ogre@@8
rdata$r	ENDS
;	COMDAT ??_R0?AVMemoryDataStream@Ogre@@@8
_DATA	SEGMENT
??_R0?AVMemoryDataStream@Ogre@@@8 DD FLAT:??_7type_info@@6B@ ; Ogre::MemoryDataStream `RTTI Type Descriptor'
	DD	00H
	DB	'.?AVMemoryDataStream@Ogre@@', 00H
_DATA	ENDS
;	COMDAT ??_R4MemoryDataStream@Ogre@@6B@
rdata$r	SEGMENT
??_R4MemoryDataStream@Ogre@@6B@ DD 00H			; Ogre::MemoryDataStream::`RTTI Complete Object Locator'
	DD	00H
	DD	00H
	DD	FLAT:??_R0?AVMemoryDataStream@Ogre@@@8
	DD	FLAT:??_R3MemoryDataStream@Ogre@@8
rdata$r	ENDS
;	COMDAT ??_7MemoryDataStream@Ogre@@6B@
CONST	SEGMENT
??_7MemoryDataStream@Ogre@@6B@ DD FLAT:??_R4MemoryDataStream@Ogre@@6B@ ; Ogre::MemoryDataStream::`vftable'
	DD	FLAT:??_EMemoryDataStream@Ogre@@UAEPAXI@Z
	DD	FLAT:?read@MemoryDataStream@Ogre@@UAEIPAXI@Z
	DD	FLAT:?write@MemoryDataStream@Ogre@@UAEIPBXI@Z
	DD	FLAT:?readLine@MemoryDataStream@Ogre@@UAEIPADIABV?$basic_string@DU?$char_traits@D@std@@V?$allocator@D@2@@std@@@Z
	DD	FLAT:?getLine@DataStream@Ogre@@UAE?AV?$basic_string@DU?$char_traits@D@std@@V?$allocator@D@2@@std@@_N@Z
	DD	FLAT:?getAsString@DataStream@Ogre@@UAE?AV?$basic_string@DU?$char_traits@D@std@@V?$allocator@D@2@@std@@XZ
	DD	FLAT:?skipLine@MemoryDataStream@Ogre@@UAEIABV?$basic_string@DU?$char_traits@D@std@@V?$allocator@D@2@@std@@@Z
	DD	FLAT:?skip@MemoryDataStream@Ogre@@UAEXJ@Z
	DD	FLAT:?seek@MemoryDataStream@Ogre@@UAEXI@Z
	DD	FLAT:?tell@MemoryDataStream@Ogre@@UBEIXZ
	DD	FLAT:?eof@MemoryDataStream@Ogre@@UBE_NXZ
	DD	FLAT:?size@DataStream@Ogre@@UBEIXZ
	DD	FLAT:?close@MemoryDataStream@Ogre@@UAEXXZ
	DD	FLAT:?getMemoryImage@MemoryDataStream@Ogre@@UAEPAXXZ
CONST	ENDS
;	COMDAT xdata$x
xdata$x	SEGMENT
__unwindtable$??0MemoryDataStream@Ogre@@QAE@ABV01@@Z DD 0ffffffffH
	DD	FLAT:__unwindfunclet$??0MemoryDataStream@Ogre@@QAE@ABV01@@Z$0
__ehfuncinfo$??0MemoryDataStream@Ogre@@QAE@ABV01@@Z DD 019930522H
	DD	01H
	DD	FLAT:__unwindtable$??0MemoryDataStream@Ogre@@QAE@ABV01@@Z
	DD	2 DUP(00H)
	DD	2 DUP(00H)
	DD	00H
	DD	00H
; Function compile flags: /Odtp
xdata$x	ENDS
;	COMDAT ??0MemoryDataStream@Ogre@@QAE@ABV01@@Z
_TEXT	SEGMENT
_this$ = -16						; size = 4
__$EHRec$ = -12						; size = 12
___that$ = 8						; size = 4
??0MemoryDataStream@Ogre@@QAE@ABV01@@Z PROC		; Ogre::MemoryDataStream::MemoryDataStream, COMDAT
; _this$ = ecx
	push	ebp
	mov	ebp, esp
	push	-1
	push	__ehhandler$??0MemoryDataStream@Ogre@@QAE@ABV01@@Z
	mov	eax, DWORD PTR fs:0
	push	eax
	push	ecx
	mov	eax, DWORD PTR ___security_cookie
	xor	eax, ebp
	push	eax
	lea	eax, DWORD PTR __$EHRec$[ebp]
	mov	DWORD PTR fs:0, eax
	mov	DWORD PTR _this$[ebp], ecx
	mov	eax, DWORD PTR ___that$[ebp]
	push	eax
	mov	ecx, DWORD PTR _this$[ebp]
	call	??0DataStream@Ogre@@QAE@ABV01@@Z
	mov	DWORD PTR __$EHRec$[ebp+8], 0
	mov	ecx, DWORD PTR _this$[ebp]
	mov	DWORD PTR [ecx], OFFSET ??_7MemoryDataStream@Ogre@@6B@
	mov	edx, DWORD PTR _this$[ebp]
	mov	eax, DWORD PTR ___that$[ebp]
	mov	ecx, DWORD PTR [eax+36]
	mov	DWORD PTR [edx+36], ecx
	mov	edx, DWORD PTR _this$[ebp]
	mov	eax, DWORD PTR ___that$[ebp]
	mov	ecx, DWORD PTR [eax+40]
	mov	DWORD PTR [edx+40], ecx
	mov	edx, DWORD PTR _this$[ebp]
	mov	eax, DWORD PTR ___that$[ebp]
	mov	ecx, DWORD PTR [eax+44]
	mov	DWORD PTR [edx+44], ecx
	mov	edx, DWORD PTR _this$[ebp]
	mov	eax, DWORD PTR ___that$[ebp]
	mov	ecx, DWORD PTR [eax+48]
	mov	DWORD PTR [edx+48], ecx
	mov	DWORD PTR __$EHRec$[ebp+8], -1
	mov	eax, DWORD PTR _this$[ebp]
	mov	ecx, DWORD PTR __$EHRec$[ebp]
	mov	DWORD PTR fs:0, ecx
	pop	ecx
	mov	esp, ebp
	pop	ebp
	ret	4
_TEXT	ENDS
;	COMDAT text$x
text$x	SEGMENT
__unwindfunclet$??0MemoryDataStream@Ogre@@QAE@ABV01@@Z$0:
	mov	ecx, DWORD PTR _this$[ebp]
	jmp	??1DataStream@Ogre@@UAE@XZ		; Ogre::DataStream::~DataStream
__ehhandler$??0MemoryDataStream@Ogre@@QAE@ABV01@@Z:
	mov	edx, DWORD PTR [esp+8]
	lea	eax, DWORD PTR [edx+12]
	mov	ecx, DWORD PTR [edx-8]
	xor	ecx, eax
	call	@__security_check_cookie@4
	mov	eax, OFFSET __ehfuncinfo$??0MemoryDataStream@Ogre@@QAE@ABV01@@Z
	jmp	___CxxFrameHandler3
text$x	ENDS
??0MemoryDataStream@Ogre@@QAE@ABV01@@Z ENDP		; Ogre::MemoryDataStream::MemoryDataStream
PUBLIC	??4MemoryDataStream@Ogre@@QAEAAV01@ABV01@@Z	; Ogre::MemoryDataStream::operator=
; Function compile flags: /Odtp
;	COMDAT ??4MemoryDataStream@Ogre@@QAEAAV01@ABV01@@Z
_TEXT	SEGMENT
_this$ = -4						; size = 4
___that$ = 8						; size = 4
??4MemoryDataStream@Ogre@@QAEAAV01@ABV01@@Z PROC	; Ogre::MemoryDataStream::operator=, COMDAT
; _this$ = ecx
	push	ebp
	mov	ebp, esp
	push	ecx
	mov	DWORD PTR _this$[ebp], ecx
	mov	eax, DWORD PTR ___that$[ebp]
	push	eax
	mov	ecx, DWORD PTR _this$[ebp]
	call	??4DataStream@Ogre@@QAEAAV01@ABV01@@Z
	mov	ecx, DWORD PTR _this$[ebp]
	mov	edx, DWORD PTR ___that$[ebp]
	mov	eax, DWORD PTR [edx+36]
	mov	DWORD PTR [ecx+36], eax
	mov	ecx, DWORD PTR _this$[ebp]
	mov	edx, DWORD PTR ___that$[ebp]
	mov	eax, DWORD PTR [edx+40]
	mov	DWORD PTR [ecx+40], eax
	mov	ecx, DWORD PTR _this$[ebp]
	mov	edx, DWORD PTR ___that$[ebp]
	mov	eax, DWORD PTR [edx+44]
	mov	DWORD PTR [ecx+44], eax
	mov	ecx, DWORD PTR _this$[ebp]
	mov	edx, DWORD PTR ___that$[ebp]
	mov	eax, DWORD PTR [edx+48]
	mov	DWORD PTR [ecx+48], eax
	mov	eax, DWORD PTR _this$[ebp]
	mov	esp, ebp
	pop	ebp
	ret	4
??4MemoryDataStream@Ogre@@QAEAAV01@ABV01@@Z ENDP	; Ogre::MemoryDataStream::operator=
_TEXT	ENDS
PUBLIC	??_GMemoryDataStream@Ogre@@UAEPAXI@Z		; Ogre::MemoryDataStream::`scalar deleting destructor'
EXTRN	??1MemoryDataStream@Ogre@@UAE@XZ:PROC		; Ogre::MemoryDataStream::~MemoryDataStream
; Function compile flags: /Odtp
;	COMDAT ??_GMemoryDataStream@Ogre@@UAEPAXI@Z
_TEXT	SEGMENT
_this$ = -4						; size = 4
___flags$ = 8						; size = 4
??_GMemoryDataStream@Ogre@@UAEPAXI@Z PROC		; Ogre::MemoryDataStream::`scalar deleting destructor', COMDAT
; _this$ = ecx
	push	ebp
	mov	ebp, esp
	push	ecx
	mov	DWORD PTR _this$[ebp], ecx
	mov	ecx, DWORD PTR _this$[ebp]
	call	??1MemoryDataStream@Ogre@@UAE@XZ	; Ogre::MemoryDataStream::~MemoryDataStream
	mov	eax, DWORD PTR ___flags$[ebp]
	and	eax, 1
	je	SHORT $LN1@scalar@2
	mov	ecx, DWORD PTR _this$[ebp]
	push	ecx
	call	??3@YAXPAX@Z				; operator delete
	add	esp, 4
$LN1@scalar@2:
	mov	eax, DWORD PTR _this$[ebp]
	mov	esp, ebp
	pop	ebp
	ret	4
??_GMemoryDataStream@Ogre@@UAEPAXI@Z ENDP		; Ogre::MemoryDataStream::`scalar deleting destructor'
; Function compile flags: /Odtp
_TEXT	ENDS
;	COMDAT ??_EMemoryDataStream@Ogre@@UAEPAXI@Z
_TEXT	SEGMENT
_this$ = -4						; size = 4
___flags$ = 8						; size = 4
??_EMemoryDataStream@Ogre@@UAEPAXI@Z PROC		; Ogre::MemoryDataStream::`vector deleting destructor', COMDAT
; _this$ = ecx
	push	ebp
	mov	ebp, esp
	push	ecx
	mov	DWORD PTR _this$[ebp], ecx
	mov	eax, DWORD PTR ___flags$[ebp]
	and	eax, 2
	je	SHORT $LN3@vector@2
	push	OFFSET ??1MemoryDataStream@Ogre@@UAE@XZ	; Ogre::MemoryDataStream::~MemoryDataStream
	mov	ecx, DWORD PTR _this$[ebp]
	mov	edx, DWORD PTR [ecx-4]
	push	edx
	push	52					; 00000034H
	mov	eax, DWORD PTR _this$[ebp]
	push	eax
	call	??_M@YGXPAXIHP6EX0@Z@Z
	mov	ecx, DWORD PTR ___flags$[ebp]
	and	ecx, 1
	je	SHORT $LN2@vector@2
	mov	edx, DWORD PTR _this$[ebp]
	sub	edx, 4
	push	edx
	call	??_V@YAXPAX@Z				; operator delete[]
	add	esp, 4
$LN2@vector@2:
	mov	eax, DWORD PTR _this$[ebp]
	sub	eax, 4
	jmp	SHORT $LN4@vector@2
$LN3@vector@2:
	mov	ecx, DWORD PTR _this$[ebp]
	call	??1MemoryDataStream@Ogre@@UAE@XZ	; Ogre::MemoryDataStream::~MemoryDataStream
	mov	eax, DWORD PTR ___flags$[ebp]
	and	eax, 1
	je	SHORT $LN1@vector@2
	mov	ecx, DWORD PTR _this$[ebp]
	push	ecx
	call	??3@YAXPAX@Z				; operator delete
	add	esp, 4
$LN1@vector@2:
	mov	eax, DWORD PTR _this$[ebp]
$LN4@vector@2:
	mov	esp, ebp
	pop	ebp
	ret	4
??_EMemoryDataStream@Ogre@@UAEPAXI@Z ENDP		; Ogre::MemoryDataStream::`vector deleting destructor'
_TEXT	ENDS
PUBLIC	??_7FileStreamDataStream@Ogre@@6B@		; Ogre::FileStreamDataStream::`vftable'
PUBLIC	??0FileStreamDataStream@Ogre@@QAE@ABV01@@Z	; Ogre::FileStreamDataStream::FileStreamDataStream
PUBLIC	??_R4FileStreamDataStream@Ogre@@6B@		; Ogre::FileStreamDataStream::`RTTI Complete Object Locator'
PUBLIC	??_R0?AVFileStreamDataStream@Ogre@@@8		; Ogre::FileStreamDataStream `RTTI Type Descriptor'
PUBLIC	??_R3FileStreamDataStream@Ogre@@8		; Ogre::FileStreamDataStream::`RTTI Class Hierarchy Descriptor'
PUBLIC	??_R2FileStreamDataStream@Ogre@@8		; Ogre::FileStreamDataStream::`RTTI Base Class Array'
PUBLIC	??_R1A@?0A@EA@FileStreamDataStream@Ogre@@8	; Ogre::FileStreamDataStream::`RTTI Base Class Descriptor at (0,-1,0,64)'
PUBLIC	??_EFileStreamDataStream@Ogre@@UAEPAXI@Z	; Ogre::FileStreamDataStream::`vector deleting destructor'
EXTRN	?read@FileStreamDataStream@Ogre@@UAEIPAXI@Z:PROC ; Ogre::FileStreamDataStream::read
EXTRN	?write@FileStreamDataStream@Ogre@@UAEIPBXI@Z:PROC ; Ogre::FileStreamDataStream::write
EXTRN	?readLine@FileStreamDataStream@Ogre@@UAEIPADIABV?$basic_string@DU?$char_traits@D@std@@V?$allocator@D@2@@std@@@Z:PROC ; Ogre::FileStreamDataStream::readLine
EXTRN	?skip@FileStreamDataStream@Ogre@@UAEXJ@Z:PROC	; Ogre::FileStreamDataStream::skip
EXTRN	?seek@FileStreamDataStream@Ogre@@UAEXI@Z:PROC	; Ogre::FileStreamDataStream::seek
EXTRN	?tell@FileStreamDataStream@Ogre@@UBEIXZ:PROC	; Ogre::FileStreamDataStream::tell
EXTRN	?eof@FileStreamDataStream@Ogre@@UBE_NXZ:PROC	; Ogre::FileStreamDataStream::eof
EXTRN	?close@FileStreamDataStream@Ogre@@UAEXXZ:PROC	; Ogre::FileStreamDataStream::close
EXTRN	?getMemoryImage@FileStreamDataStream@Ogre@@UAEPAXXZ:PROC ; Ogre::FileStreamDataStream::getMemoryImage
;	COMDAT ??_R1A@?0A@EA@FileStreamDataStream@Ogre@@8
rdata$r	SEGMENT
??_R1A@?0A@EA@FileStreamDataStream@Ogre@@8 DD FLAT:??_R0?AVFileStreamDataStream@Ogre@@@8 ; Ogre::FileStreamDataStream::`RTTI Base Class Descriptor at (0,-1,0,64)'
	DD	01H
	DD	00H
	DD	0ffffffffH
	DD	00H
	DD	040H
	DD	FLAT:??_R3FileStreamDataStream@Ogre@@8
rdata$r	ENDS
;	COMDAT ??_R2FileStreamDataStream@Ogre@@8
rdata$r	SEGMENT
??_R2FileStreamDataStream@Ogre@@8 DD FLAT:??_R1A@?0A@EA@FileStreamDataStream@Ogre@@8 ; Ogre::FileStreamDataStream::`RTTI Base Class Array'
	DD	FLAT:??_R1A@?0A@EA@DataStream@Ogre@@8
rdata$r	ENDS
;	COMDAT ??_R3FileStreamDataStream@Ogre@@8
rdata$r	SEGMENT
??_R3FileStreamDataStream@Ogre@@8 DD 00H		; Ogre::FileStreamDataStream::`RTTI Class Hierarchy Descriptor'
	DD	00H
	DD	02H
	DD	FLAT:??_R2FileStreamDataStream@Ogre@@8
rdata$r	ENDS
;	COMDAT ??_R0?AVFileStreamDataStream@Ogre@@@8
_DATA	SEGMENT
??_R0?AVFileStreamDataStream@Ogre@@@8 DD FLAT:??_7type_info@@6B@ ; Ogre::FileStreamDataStream `RTTI Type Descriptor'
	DD	00H
	DB	'.?AVFileStreamDataStream@Ogre@@', 00H
_DATA	ENDS
;	COMDAT ??_R4FileStreamDataStream@Ogre@@6B@
rdata$r	SEGMENT
??_R4FileStreamDataStream@Ogre@@6B@ DD 00H		; Ogre::FileStreamDataStream::`RTTI Complete Object Locator'
	DD	00H
	DD	00H
	DD	FLAT:??_R0?AVFileStreamDataStream@Ogre@@@8
	DD	FLAT:??_R3FileStreamDataStream@Ogre@@8
rdata$r	ENDS
;	COMDAT ??_7FileStreamDataStream@Ogre@@6B@
CONST	SEGMENT
??_7FileStreamDataStream@Ogre@@6B@ DD FLAT:??_R4FileStreamDataStream@Ogre@@6B@ ; Ogre::FileStreamDataStream::`vftable'
	DD	FLAT:??_EFileStreamDataStream@Ogre@@UAEPAXI@Z
	DD	FLAT:?read@FileStreamDataStream@Ogre@@UAEIPAXI@Z
	DD	FLAT:?write@FileStreamDataStream@Ogre@@UAEIPBXI@Z
	DD	FLAT:?readLine@FileStreamDataStream@Ogre@@UAEIPADIABV?$basic_string@DU?$char_traits@D@std@@V?$allocator@D@2@@std@@@Z
	DD	FLAT:?getLine@DataStream@Ogre@@UAE?AV?$basic_string@DU?$char_traits@D@std@@V?$allocator@D@2@@std@@_N@Z
	DD	FLAT:?getAsString@DataStream@Ogre@@UAE?AV?$basic_string@DU?$char_traits@D@std@@V?$allocator@D@2@@std@@XZ
	DD	FLAT:?skipLine@DataStream@Ogre@@UAEIABV?$basic_string@DU?$char_traits@D@std@@V?$allocator@D@2@@std@@@Z
	DD	FLAT:?skip@FileStreamDataStream@Ogre@@UAEXJ@Z
	DD	FLAT:?seek@FileStreamDataStream@Ogre@@UAEXI@Z
	DD	FLAT:?tell@FileStreamDataStream@Ogre@@UBEIXZ
	DD	FLAT:?eof@FileStreamDataStream@Ogre@@UBE_NXZ
	DD	FLAT:?size@DataStream@Ogre@@UBEIXZ
	DD	FLAT:?close@FileStreamDataStream@Ogre@@UAEXXZ
	DD	FLAT:?getMemoryImage@FileStreamDataStream@Ogre@@UAEPAXXZ
CONST	ENDS
;	COMDAT xdata$x
xdata$x	SEGMENT
__unwindtable$??0FileStreamDataStream@Ogre@@QAE@ABV01@@Z DD 0ffffffffH
	DD	FLAT:__unwindfunclet$??0FileStreamDataStream@Ogre@@QAE@ABV01@@Z$0
__ehfuncinfo$??0FileStreamDataStream@Ogre@@QAE@ABV01@@Z DD 019930522H
	DD	01H
	DD	FLAT:__unwindtable$??0FileStreamDataStream@Ogre@@QAE@ABV01@@Z
	DD	2 DUP(00H)
	DD	2 DUP(00H)
	DD	00H
	DD	00H
; Function compile flags: /Odtp
xdata$x	ENDS
;	COMDAT ??0FileStreamDataStream@Ogre@@QAE@ABV01@@Z
_TEXT	SEGMENT
_this$ = -16						; size = 4
__$EHRec$ = -12						; size = 12
___that$ = 8						; size = 4
??0FileStreamDataStream@Ogre@@QAE@ABV01@@Z PROC		; Ogre::FileStreamDataStream::FileStreamDataStream, COMDAT
; _this$ = ecx
	push	ebp
	mov	ebp, esp
	push	-1
	push	__ehhandler$??0FileStreamDataStream@Ogre@@QAE@ABV01@@Z
	mov	eax, DWORD PTR fs:0
	push	eax
	push	ecx
	mov	eax, DWORD PTR ___security_cookie
	xor	eax, ebp
	push	eax
	lea	eax, DWORD PTR __$EHRec$[ebp]
	mov	DWORD PTR fs:0, eax
	mov	DWORD PTR _this$[ebp], ecx
	mov	eax, DWORD PTR ___that$[ebp]
	push	eax
	mov	ecx, DWORD PTR _this$[ebp]
	call	??0DataStream@Ogre@@QAE@ABV01@@Z
	mov	DWORD PTR __$EHRec$[ebp+8], 0
	mov	ecx, DWORD PTR _this$[ebp]
	mov	DWORD PTR [ecx], OFFSET ??_7FileStreamDataStream@Ogre@@6B@
	mov	edx, DWORD PTR _this$[ebp]
	mov	eax, DWORD PTR ___that$[ebp]
	mov	ecx, DWORD PTR [eax+36]
	mov	DWORD PTR [edx+36], ecx
	mov	edx, DWORD PTR _this$[ebp]
	mov	eax, DWORD PTR ___that$[ebp]
	mov	cl, BYTE PTR [eax+40]
	mov	BYTE PTR [edx+40], cl
	mov	DWORD PTR __$EHRec$[ebp+8], -1
	mov	eax, DWORD PTR _this$[ebp]
	mov	ecx, DWORD PTR __$EHRec$[ebp]
	mov	DWORD PTR fs:0, ecx
	pop	ecx
	mov	esp, ebp
	pop	ebp
	ret	4
_TEXT	ENDS
;	COMDAT text$x
text$x	SEGMENT
__unwindfunclet$??0FileStreamDataStream@Ogre@@QAE@ABV01@@Z$0:
	mov	ecx, DWORD PTR _this$[ebp]
	jmp	??1DataStream@Ogre@@UAE@XZ		; Ogre::DataStream::~DataStream
__ehhandler$??0FileStreamDataStream@Ogre@@QAE@ABV01@@Z:
	mov	edx, DWORD PTR [esp+8]
	lea	eax, DWORD PTR [edx+12]
	mov	ecx, DWORD PTR [edx-8]
	xor	ecx, eax
	call	@__security_check_cookie@4
	mov	eax, OFFSET __ehfuncinfo$??0FileStreamDataStream@Ogre@@QAE@ABV01@@Z
	jmp	___CxxFrameHandler3
text$x	ENDS
??0FileStreamDataStream@Ogre@@QAE@ABV01@@Z ENDP		; Ogre::FileStreamDataStream::FileStreamDataStream
PUBLIC	??4FileStreamDataStream@Ogre@@QAEAAV01@ABV01@@Z	; Ogre::FileStreamDataStream::operator=
; Function compile flags: /Odtp
;	COMDAT ??4FileStreamDataStream@Ogre@@QAEAAV01@ABV01@@Z
_TEXT	SEGMENT
_this$ = -4						; size = 4
___that$ = 8						; size = 4
??4FileStreamDataStream@Ogre@@QAEAAV01@ABV01@@Z PROC	; Ogre::FileStreamDataStream::operator=, COMDAT
; _this$ = ecx
	push	ebp
	mov	ebp, esp
	push	ecx
	mov	DWORD PTR _this$[ebp], ecx
	mov	eax, DWORD PTR ___that$[ebp]
	push	eax
	mov	ecx, DWORD PTR _this$[ebp]
	call	??4DataStream@Ogre@@QAEAAV01@ABV01@@Z
	mov	ecx, DWORD PTR _this$[ebp]
	mov	edx, DWORD PTR ___that$[ebp]
	mov	eax, DWORD PTR [edx+36]
	mov	DWORD PTR [ecx+36], eax
	mov	ecx, DWORD PTR _this$[ebp]
	mov	edx, DWORD PTR ___that$[ebp]
	mov	al, BYTE PTR [edx+40]
	mov	BYTE PTR [ecx+40], al
	mov	eax, DWORD PTR _this$[ebp]
	mov	esp, ebp
	pop	ebp
	ret	4
??4FileStreamDataStream@Ogre@@QAEAAV01@ABV01@@Z ENDP	; Ogre::FileStreamDataStream::operator=
_TEXT	ENDS
PUBLIC	??_GFileStreamDataStream@Ogre@@UAEPAXI@Z	; Ogre::FileStreamDataStream::`scalar deleting destructor'
EXTRN	??1FileStreamDataStream@Ogre@@UAE@XZ:PROC	; Ogre::FileStreamDataStream::~FileStreamDataStream
; Function compile flags: /Odtp
;	COMDAT ??_GFileStreamDataStream@Ogre@@UAEPAXI@Z
_TEXT	SEGMENT
_this$ = -4						; size = 4
___flags$ = 8						; size = 4
??_GFileStreamDataStream@Ogre@@UAEPAXI@Z PROC		; Ogre::FileStreamDataStream::`scalar deleting destructor', COMDAT
; _this$ = ecx
	push	ebp
	mov	ebp, esp
	push	ecx
	mov	DWORD PTR _this$[ebp], ecx
	mov	ecx, DWORD PTR _this$[ebp]
	call	??1FileStreamDataStream@Ogre@@UAE@XZ	; Ogre::FileStreamDataStream::~FileStreamDataStream
	mov	eax, DWORD PTR ___flags$[ebp]
	and	eax, 1
	je	SHORT $LN1@scalar@3
	mov	ecx, DWORD PTR _this$[ebp]
	push	ecx
	call	??3@YAXPAX@Z				; operator delete
	add	esp, 4
$LN1@scalar@3:
	mov	eax, DWORD PTR _this$[ebp]
	mov	esp, ebp
	pop	ebp
	ret	4
??_GFileStreamDataStream@Ogre@@UAEPAXI@Z ENDP		; Ogre::FileStreamDataStream::`scalar deleting destructor'
; Function compile flags: /Odtp
_TEXT	ENDS
;	COMDAT ??_EFileStreamDataStream@Ogre@@UAEPAXI@Z
_TEXT	SEGMENT
_this$ = -4						; size = 4
___flags$ = 8						; size = 4
??_EFileStreamDataStream@Ogre@@UAEPAXI@Z PROC		; Ogre::FileStreamDataStream::`vector deleting destructor', COMDAT
; _this$ = ecx
	push	ebp
	mov	ebp, esp
	push	ecx
	mov	DWORD PTR _this$[ebp], ecx
	mov	eax, DWORD PTR ___flags$[ebp]
	and	eax, 2
	je	SHORT $LN3@vector@3
	push	OFFSET ??1FileStreamDataStream@Ogre@@UAE@XZ ; Ogre::FileStreamDataStream::~FileStreamDataStream
	mov	ecx, DWORD PTR _this$[ebp]
	mov	edx, DWORD PTR [ecx-4]
	push	edx
	push	44					; 0000002cH
	mov	eax, DWORD PTR _this$[ebp]
	push	eax
	call	??_M@YGXPAXIHP6EX0@Z@Z
	mov	ecx, DWORD PTR ___flags$[ebp]
	and	ecx, 1
	je	SHORT $LN2@vector@3
	mov	edx, DWORD PTR _this$[ebp]
	sub	edx, 4
	push	edx
	call	??_V@YAXPAX@Z				; operator delete[]
	add	esp, 4
$LN2@vector@3:
	mov	eax, DWORD PTR _this$[ebp]
	sub	eax, 4
	jmp	SHORT $LN4@vector@3
$LN3@vector@3:
	mov	ecx, DWORD PTR _this$[ebp]
	call	??1FileStreamDataStream@Ogre@@UAE@XZ	; Ogre::FileStreamDataStream::~FileStreamDataStream
	mov	eax, DWORD PTR ___flags$[ebp]
	and	eax, 1
	je	SHORT $LN1@vector@3
	mov	ecx, DWORD PTR _this$[ebp]
	push	ecx
	call	??3@YAXPAX@Z				; operator delete
	add	esp, 4
$LN1@vector@3:
	mov	eax, DWORD PTR _this$[ebp]
$LN4@vector@3:
	mov	esp, ebp
	pop	ebp
	ret	4
??_EFileStreamDataStream@Ogre@@UAEPAXI@Z ENDP		; Ogre::FileStreamDataStream::`vector deleting destructor'
_TEXT	ENDS
PUBLIC	??_7FileHandleDataStream@Ogre@@6B@		; Ogre::FileHandleDataStream::`vftable'
PUBLIC	??0FileHandleDataStream@Ogre@@QAE@ABV01@@Z	; Ogre::FileHandleDataStream::FileHandleDataStream
PUBLIC	??_R4FileHandleDataStream@Ogre@@6B@		; Ogre::FileHandleDataStream::`RTTI Complete Object Locator'
PUBLIC	??_R0?AVFileHandleDataStream@Ogre@@@8		; Ogre::FileHandleDataStream `RTTI Type Descriptor'
PUBLIC	??_R3FileHandleDataStream@Ogre@@8		; Ogre::FileHandleDataStream::`RTTI Class Hierarchy Descriptor'
PUBLIC	??_R2FileHandleDataStream@Ogre@@8		; Ogre::FileHandleDataStream::`RTTI Base Class Array'
PUBLIC	??_R1A@?0A@EA@FileHandleDataStream@Ogre@@8	; Ogre::FileHandleDataStream::`RTTI Base Class Descriptor at (0,-1,0,64)'
PUBLIC	??_EFileHandleDataStream@Ogre@@UAEPAXI@Z	; Ogre::FileHandleDataStream::`vector deleting destructor'
EXTRN	?read@FileHandleDataStream@Ogre@@UAEIPAXI@Z:PROC ; Ogre::FileHandleDataStream::read
EXTRN	?write@FileHandleDataStream@Ogre@@UAEIPBXI@Z:PROC ; Ogre::FileHandleDataStream::write
EXTRN	?skip@FileHandleDataStream@Ogre@@UAEXJ@Z:PROC	; Ogre::FileHandleDataStream::skip
EXTRN	?seek@FileHandleDataStream@Ogre@@UAEXI@Z:PROC	; Ogre::FileHandleDataStream::seek
EXTRN	?tell@FileHandleDataStream@Ogre@@UBEIXZ:PROC	; Ogre::FileHandleDataStream::tell
EXTRN	?eof@FileHandleDataStream@Ogre@@UBE_NXZ:PROC	; Ogre::FileHandleDataStream::eof
EXTRN	?close@FileHandleDataStream@Ogre@@UAEXXZ:PROC	; Ogre::FileHandleDataStream::close
EXTRN	?getMemoryImage@FileHandleDataStream@Ogre@@UAEPAXXZ:PROC ; Ogre::FileHandleDataStream::getMemoryImage
;	COMDAT ??_R1A@?0A@EA@FileHandleDataStream@Ogre@@8
rdata$r	SEGMENT
??_R1A@?0A@EA@FileHandleDataStream@Ogre@@8 DD FLAT:??_R0?AVFileHandleDataStream@Ogre@@@8 ; Ogre::FileHandleDataStream::`RTTI Base Class Descriptor at (0,-1,0,64)'
	DD	01H
	DD	00H
	DD	0ffffffffH
	DD	00H
	DD	040H
	DD	FLAT:??_R3FileHandleDataStream@Ogre@@8
rdata$r	ENDS
;	COMDAT ??_R2FileHandleDataStream@Ogre@@8
rdata$r	SEGMENT
??_R2FileHandleDataStream@Ogre@@8 DD FLAT:??_R1A@?0A@EA@FileHandleDataStream@Ogre@@8 ; Ogre::FileHandleDataStream::`RTTI Base Class Array'
	DD	FLAT:??_R1A@?0A@EA@DataStream@Ogre@@8
rdata$r	ENDS
;	COMDAT ??_R3FileHandleDataStream@Ogre@@8
rdata$r	SEGMENT
??_R3FileHandleDataStream@Ogre@@8 DD 00H		; Ogre::FileHandleDataStream::`RTTI Class Hierarchy Descriptor'
	DD	00H
	DD	02H
	DD	FLAT:??_R2FileHandleDataStream@Ogre@@8
rdata$r	ENDS
;	COMDAT ??_R0?AVFileHandleDataStream@Ogre@@@8
_DATA	SEGMENT
??_R0?AVFileHandleDataStream@Ogre@@@8 DD FLAT:??_7type_info@@6B@ ; Ogre::FileHandleDataStream `RTTI Type Descriptor'
	DD	00H
	DB	'.?AVFileHandleDataStream@Ogre@@', 00H
_DATA	ENDS
;	COMDAT ??_R4FileHandleDataStream@Ogre@@6B@
rdata$r	SEGMENT
??_R4FileHandleDataStream@Ogre@@6B@ DD 00H		; Ogre::FileHandleDataStream::`RTTI Complete Object Locator'
	DD	00H
	DD	00H
	DD	FLAT:??_R0?AVFileHandleDataStream@Ogre@@@8
	DD	FLAT:??_R3FileHandleDataStream@Ogre@@8
rdata$r	ENDS
;	COMDAT ??_7FileHandleDataStream@Ogre@@6B@
CONST	SEGMENT
??_7FileHandleDataStream@Ogre@@6B@ DD FLAT:??_R4FileHandleDataStream@Ogre@@6B@ ; Ogre::FileHandleDataStream::`vftable'
	DD	FLAT:??_EFileHandleDataStream@Ogre@@UAEPAXI@Z
	DD	FLAT:?read@FileHandleDataStream@Ogre@@UAEIPAXI@Z
	DD	FLAT:?write@FileHandleDataStream@Ogre@@UAEIPBXI@Z
	DD	FLAT:?readLine@DataStream@Ogre@@UAEIPADIABV?$basic_string@DU?$char_traits@D@std@@V?$allocator@D@2@@std@@@Z
	DD	FLAT:?getLine@DataStream@Ogre@@UAE?AV?$basic_string@DU?$char_traits@D@std@@V?$allocator@D@2@@std@@_N@Z
	DD	FLAT:?getAsString@DataStream@Ogre@@UAE?AV?$basic_string@DU?$char_traits@D@std@@V?$allocator@D@2@@std@@XZ
	DD	FLAT:?skipLine@DataStream@Ogre@@UAEIABV?$basic_string@DU?$char_traits@D@std@@V?$allocator@D@2@@std@@@Z
	DD	FLAT:?skip@FileHandleDataStream@Ogre@@UAEXJ@Z
	DD	FLAT:?seek@FileHandleDataStream@Ogre@@UAEXI@Z
	DD	FLAT:?tell@FileHandleDataStream@Ogre@@UBEIXZ
	DD	FLAT:?eof@FileHandleDataStream@Ogre@@UBE_NXZ
	DD	FLAT:?size@DataStream@Ogre@@UBEIXZ
	DD	FLAT:?close@FileHandleDataStream@Ogre@@UAEXXZ
	DD	FLAT:?getMemoryImage@FileHandleDataStream@Ogre@@UAEPAXXZ
CONST	ENDS
;	COMDAT xdata$x
xdata$x	SEGMENT
__unwindtable$??0FileHandleDataStream@Ogre@@QAE@ABV01@@Z DD 0ffffffffH
	DD	FLAT:__unwindfunclet$??0FileHandleDataStream@Ogre@@QAE@ABV01@@Z$0
__ehfuncinfo$??0FileHandleDataStream@Ogre@@QAE@ABV01@@Z DD 019930522H
	DD	01H
	DD	FLAT:__unwindtable$??0FileHandleDataStream@Ogre@@QAE@ABV01@@Z
	DD	2 DUP(00H)
	DD	2 DUP(00H)
	DD	00H
	DD	00H
; Function compile flags: /Odtp
xdata$x	ENDS
;	COMDAT ??0FileHandleDataStream@Ogre@@QAE@ABV01@@Z
_TEXT	SEGMENT
_this$ = -16						; size = 4
__$EHRec$ = -12						; size = 12
___that$ = 8						; size = 4
??0FileHandleDataStream@Ogre@@QAE@ABV01@@Z PROC		; Ogre::FileHandleDataStream::FileHandleDataStream, COMDAT
; _this$ = ecx
	push	ebp
	mov	ebp, esp
	push	-1
	push	__ehhandler$??0FileHandleDataStream@Ogre@@QAE@ABV01@@Z
	mov	eax, DWORD PTR fs:0
	push	eax
	push	ecx
	mov	eax, DWORD PTR ___security_cookie
	xor	eax, ebp
	push	eax
	lea	eax, DWORD PTR __$EHRec$[ebp]
	mov	DWORD PTR fs:0, eax
	mov	DWORD PTR _this$[ebp], ecx
	mov	eax, DWORD PTR ___that$[ebp]
	push	eax
	mov	ecx, DWORD PTR _this$[ebp]
	call	??0DataStream@Ogre@@QAE@ABV01@@Z
	mov	DWORD PTR __$EHRec$[ebp+8], 0
	mov	ecx, DWORD PTR _this$[ebp]
	mov	DWORD PTR [ecx], OFFSET ??_7FileHandleDataStream@Ogre@@6B@
	mov	edx, DWORD PTR _this$[ebp]
	mov	eax, DWORD PTR ___that$[ebp]
	mov	ecx, DWORD PTR [eax+36]
	mov	DWORD PTR [edx+36], ecx
	mov	edx, DWORD PTR _this$[ebp]
	mov	eax, DWORD PTR ___that$[ebp]
	mov	ecx, DWORD PTR [eax+40]
	mov	DWORD PTR [edx+40], ecx
	mov	DWORD PTR __$EHRec$[ebp+8], -1
	mov	eax, DWORD PTR _this$[ebp]
	mov	ecx, DWORD PTR __$EHRec$[ebp]
	mov	DWORD PTR fs:0, ecx
	pop	ecx
	mov	esp, ebp
	pop	ebp
	ret	4
_TEXT	ENDS
;	COMDAT text$x
text$x	SEGMENT
__unwindfunclet$??0FileHandleDataStream@Ogre@@QAE@ABV01@@Z$0:
	mov	ecx, DWORD PTR _this$[ebp]
	jmp	??1DataStream@Ogre@@UAE@XZ		; Ogre::DataStream::~DataStream
__ehhandler$??0FileHandleDataStream@Ogre@@QAE@ABV01@@Z:
	mov	edx, DWORD PTR [esp+8]
	lea	eax, DWORD PTR [edx+12]
	mov	ecx, DWORD PTR [edx-8]
	xor	ecx, eax
	call	@__security_check_cookie@4
	mov	eax, OFFSET __ehfuncinfo$??0FileHandleDataStream@Ogre@@QAE@ABV01@@Z
	jmp	___CxxFrameHandler3
text$x	ENDS
??0FileHandleDataStream@Ogre@@QAE@ABV01@@Z ENDP		; Ogre::FileHandleDataStream::FileHandleDataStream
PUBLIC	??4FileHandleDataStream@Ogre@@QAEAAV01@ABV01@@Z	; Ogre::FileHandleDataStream::operator=
; Function compile flags: /Odtp
;	COMDAT ??4FileHandleDataStream@Ogre@@QAEAAV01@ABV01@@Z
_TEXT	SEGMENT
_this$ = -4						; size = 4
___that$ = 8						; size = 4
??4FileHandleDataStream@Ogre@@QAEAAV01@ABV01@@Z PROC	; Ogre::FileHandleDataStream::operator=, COMDAT
; _this$ = ecx
	push	ebp
	mov	ebp, esp
	push	ecx
	mov	DWORD PTR _this$[ebp], ecx
	mov	eax, DWORD PTR ___that$[ebp]
	push	eax
	mov	ecx, DWORD PTR _this$[ebp]
	call	??4DataStream@Ogre@@QAEAAV01@ABV01@@Z
	mov	ecx, DWORD PTR _this$[ebp]
	mov	edx, DWORD PTR ___that$[ebp]
	mov	eax, DWORD PTR [edx+36]
	mov	DWORD PTR [ecx+36], eax
	mov	ecx, DWORD PTR _this$[ebp]
	mov	edx, DWORD PTR ___that$[ebp]
	mov	eax, DWORD PTR [edx+40]
	mov	DWORD PTR [ecx+40], eax
	mov	eax, DWORD PTR _this$[ebp]
	mov	esp, ebp
	pop	ebp
	ret	4
??4FileHandleDataStream@Ogre@@QAEAAV01@ABV01@@Z ENDP	; Ogre::FileHandleDataStream::operator=
_TEXT	ENDS
PUBLIC	??_GFileHandleDataStream@Ogre@@UAEPAXI@Z	; Ogre::FileHandleDataStream::`scalar deleting destructor'
EXTRN	??1FileHandleDataStream@Ogre@@UAE@XZ:PROC	; Ogre::FileHandleDataStream::~FileHandleDataStream
; Function compile flags: /Odtp
;	COMDAT ??_GFileHandleDataStream@Ogre@@UAEPAXI@Z
_TEXT	SEGMENT
_this$ = -4						; size = 4
___flags$ = 8						; size = 4
??_GFileHandleDataStream@Ogre@@UAEPAXI@Z PROC		; Ogre::FileHandleDataStream::`scalar deleting destructor', COMDAT
; _this$ = ecx
	push	ebp
	mov	ebp, esp
	push	ecx
	mov	DWORD PTR _this$[ebp], ecx
	mov	ecx, DWORD PTR _this$[ebp]
	call	??1FileHandleDataStream@Ogre@@UAE@XZ	; Ogre::FileHandleDataStream::~FileHandleDataStream
	mov	eax, DWORD PTR ___flags$[ebp]
	and	eax, 1
	je	SHORT $LN1@scalar@4
	mov	ecx, DWORD PTR _this$[ebp]
	push	ecx
	call	??3@YAXPAX@Z				; operator delete
	add	esp, 4
$LN1@scalar@4:
	mov	eax, DWORD PTR _this$[ebp]
	mov	esp, ebp
	pop	ebp
	ret	4
??_GFileHandleDataStream@Ogre@@UAEPAXI@Z ENDP		; Ogre::FileHandleDataStream::`scalar deleting destructor'
; Function compile flags: /Odtp
_TEXT	ENDS
;	COMDAT ??_EFileHandleDataStream@Ogre@@UAEPAXI@Z
_TEXT	SEGMENT
_this$ = -4						; size = 4
___flags$ = 8						; size = 4
??_EFileHandleDataStream@Ogre@@UAEPAXI@Z PROC		; Ogre::FileHandleDataStream::`vector deleting destructor', COMDAT
; _this$ = ecx
	push	ebp
	mov	ebp, esp
	push	ecx
	mov	DWORD PTR _this$[ebp], ecx
	mov	eax, DWORD PTR ___flags$[ebp]
	and	eax, 2
	je	SHORT $LN3@vector@4
	push	OFFSET ??1FileHandleDataStream@Ogre@@UAE@XZ ; Ogre::FileHandleDataStream::~FileHandleDataStream
	mov	ecx, DWORD PTR _this$[ebp]
	mov	edx, DWORD PTR [ecx-4]
	push	edx
	push	44					; 0000002cH
	mov	eax, DWORD PTR _this$[ebp]
	push	eax
	call	??_M@YGXPAXIHP6EX0@Z@Z
	mov	ecx, DWORD PTR ___flags$[ebp]
	and	ecx, 1
	je	SHORT $LN2@vector@4
	mov	edx, DWORD PTR _this$[ebp]
	sub	edx, 4
	push	edx
	call	??_V@YAXPAX@Z				; operator delete[]
	add	esp, 4
$LN2@vector@4:
	mov	eax, DWORD PTR _this$[ebp]
	sub	eax, 4
	jmp	SHORT $LN4@vector@4
$LN3@vector@4:
	mov	ecx, DWORD PTR _this$[ebp]
	call	??1FileHandleDataStream@Ogre@@UAE@XZ	; Ogre::FileHandleDataStream::~FileHandleDataStream
	mov	eax, DWORD PTR ___flags$[ebp]
	and	eax, 1
	je	SHORT $LN1@vector@4
	mov	ecx, DWORD PTR _this$[ebp]
	push	ecx
	call	??3@YAXPAX@Z				; operator delete
	add	esp, 4
$LN1@vector@4:
	mov	eax, DWORD PTR _this$[ebp]
$LN4@vector@4:
	mov	esp, ebp
	pop	ebp
	ret	4
??_EFileHandleDataStream@Ogre@@UAEPAXI@Z ENDP		; Ogre::FileHandleDataStream::`vector deleting destructor'
_TEXT	ENDS
PUBLIC	??_7DataStreamObject@Ogre@@6B@			; Ogre::DataStreamObject::`vftable'
PUBLIC	??1DataStreamObject@Ogre@@MAE@XZ		; Ogre::DataStreamObject::~DataStreamObject
PUBLIC	??_R4DataStreamObject@Ogre@@6B@			; Ogre::DataStreamObject::`RTTI Complete Object Locator'
PUBLIC	??_R0?AVDataStreamObject@Ogre@@@8		; Ogre::DataStreamObject `RTTI Type Descriptor'
PUBLIC	??_R3DataStreamObject@Ogre@@8			; Ogre::DataStreamObject::`RTTI Class Hierarchy Descriptor'
PUBLIC	??_R2DataStreamObject@Ogre@@8			; Ogre::DataStreamObject::`RTTI Base Class Array'
PUBLIC	??_R1A@?0A@EA@DataStreamObject@Ogre@@8		; Ogre::DataStreamObject::`RTTI Base Class Descriptor at (0,-1,0,64)'
PUBLIC	??_EDataStreamObject@Ogre@@MAEPAXI@Z		; Ogre::DataStreamObject::`vector deleting destructor'
;	COMDAT ??_R1A@?0A@EA@DataStreamObject@Ogre@@8
rdata$r	SEGMENT
??_R1A@?0A@EA@DataStreamObject@Ogre@@8 DD FLAT:??_R0?AVDataStreamObject@Ogre@@@8 ; Ogre::DataStreamObject::`RTTI Base Class Descriptor at (0,-1,0,64)'
	DD	00H
	DD	00H
	DD	0ffffffffH
	DD	00H
	DD	040H
	DD	FLAT:??_R3DataStreamObject@Ogre@@8
rdata$r	ENDS
;	COMDAT ??_R2DataStreamObject@Ogre@@8
rdata$r	SEGMENT
??_R2DataStreamObject@Ogre@@8 DD FLAT:??_R1A@?0A@EA@DataStreamObject@Ogre@@8 ; Ogre::DataStreamObject::`RTTI Base Class Array'
rdata$r	ENDS
;	COMDAT ??_R3DataStreamObject@Ogre@@8
rdata$r	SEGMENT
??_R3DataStreamObject@Ogre@@8 DD 00H			; Ogre::DataStreamObject::`RTTI Class Hierarchy Descriptor'
	DD	00H
	DD	01H
	DD	FLAT:??_R2DataStreamObject@Ogre@@8
rdata$r	ENDS
;	COMDAT ??_R0?AVDataStreamObject@Ogre@@@8
_DATA	SEGMENT
??_R0?AVDataStreamObject@Ogre@@@8 DD FLAT:??_7type_info@@6B@ ; Ogre::DataStreamObject `RTTI Type Descriptor'
	DD	00H
	DB	'.?AVDataStreamObject@Ogre@@', 00H
_DATA	ENDS
;	COMDAT ??_R4DataStreamObject@Ogre@@6B@
rdata$r	SEGMENT
??_R4DataStreamObject@Ogre@@6B@ DD 00H			; Ogre::DataStreamObject::`RTTI Complete Object Locator'
	DD	00H
	DD	00H
	DD	FLAT:??_R0?AVDataStreamObject@Ogre@@@8
	DD	FLAT:??_R3DataStreamObject@Ogre@@8
rdata$r	ENDS
;	COMDAT ??_7DataStreamObject@Ogre@@6B@
CONST	SEGMENT
??_7DataStreamObject@Ogre@@6B@ DD FLAT:??_R4DataStreamObject@Ogre@@6B@ ; Ogre::DataStreamObject::`vftable'
	DD	FLAT:??_EDataStreamObject@Ogre@@MAEPAXI@Z
	DD	FLAT:__purecall
	DD	FLAT:__purecall
	DD	FLAT:__purecall
	DD	FLAT:__purecall
	DD	FLAT:__purecall
	DD	FLAT:__purecall
; Function compile flags: /Odtp
CONST	ENDS
;	COMDAT ??1DataStreamObject@Ogre@@MAE@XZ
_TEXT	SEGMENT
_this$ = -4						; size = 4
??1DataStreamObject@Ogre@@MAE@XZ PROC			; Ogre::DataStreamObject::~DataStreamObject, COMDAT
; _this$ = ecx

; 445  : 		virtual ~DataStreamObject(){}

	push	ebp
	mov	ebp, esp
	push	ecx
	mov	DWORD PTR _this$[ebp], ecx
	mov	eax, DWORD PTR _this$[ebp]
	mov	DWORD PTR [eax], OFFSET ??_7DataStreamObject@Ogre@@6B@
	mov	esp, ebp
	pop	ebp
	ret	0
??1DataStreamObject@Ogre@@MAE@XZ ENDP			; Ogre::DataStreamObject::~DataStreamObject
_TEXT	ENDS
PUBLIC	??0DataStreamObject@Ogre@@QAE@XZ		; Ogre::DataStreamObject::DataStreamObject
; Function compile flags: /Odtp
;	COMDAT ??0DataStreamObject@Ogre@@QAE@XZ
_TEXT	SEGMENT
_this$ = -4						; size = 4
??0DataStreamObject@Ogre@@QAE@XZ PROC			; Ogre::DataStreamObject::DataStreamObject, COMDAT
; _this$ = ecx
	push	ebp
	mov	ebp, esp
	push	ecx
	mov	DWORD PTR _this$[ebp], ecx
	mov	eax, DWORD PTR _this$[ebp]
	mov	DWORD PTR [eax], OFFSET ??_7DataStreamObject@Ogre@@6B@
	mov	eax, DWORD PTR _this$[ebp]
	mov	esp, ebp
	pop	ebp
	ret	0
??0DataStreamObject@Ogre@@QAE@XZ ENDP			; Ogre::DataStreamObject::DataStreamObject
_TEXT	ENDS
PUBLIC	??0DataStreamObject@Ogre@@QAE@ABV01@@Z		; Ogre::DataStreamObject::DataStreamObject
; Function compile flags: /Odtp
;	COMDAT ??0DataStreamObject@Ogre@@QAE@ABV01@@Z
_TEXT	SEGMENT
_this$ = -4						; size = 4
___that$ = 8						; size = 4
??0DataStreamObject@Ogre@@QAE@ABV01@@Z PROC		; Ogre::DataStreamObject::DataStreamObject, COMDAT
; _this$ = ecx
	push	ebp
	mov	ebp, esp
	push	ecx
	mov	DWORD PTR _this$[ebp], ecx
	mov	eax, DWORD PTR _this$[ebp]
	mov	DWORD PTR [eax], OFFSET ??_7DataStreamObject@Ogre@@6B@
	mov	eax, DWORD PTR _this$[ebp]
	mov	esp, ebp
	pop	ebp
	ret	4
??0DataStreamObject@Ogre@@QAE@ABV01@@Z ENDP		; Ogre::DataStreamObject::DataStreamObject
_TEXT	ENDS
PUBLIC	??4DataStreamObject@Ogre@@QAEAAV01@ABV01@@Z	; Ogre::DataStreamObject::operator=
; Function compile flags: /Odtp
;	COMDAT ??4DataStreamObject@Ogre@@QAEAAV01@ABV01@@Z
_TEXT	SEGMENT
_this$ = -4						; size = 4
___that$ = 8						; size = 4
??4DataStreamObject@Ogre@@QAEAAV01@ABV01@@Z PROC	; Ogre::DataStreamObject::operator=, COMDAT
; _this$ = ecx
	push	ebp
	mov	ebp, esp
	push	ecx
	mov	DWORD PTR _this$[ebp], ecx
	mov	eax, DWORD PTR _this$[ebp]
	mov	esp, ebp
	pop	ebp
	ret	4
??4DataStreamObject@Ogre@@QAEAAV01@ABV01@@Z ENDP	; Ogre::DataStreamObject::operator=
_TEXT	ENDS
PUBLIC	??_GDataStreamObject@Ogre@@MAEPAXI@Z		; Ogre::DataStreamObject::`scalar deleting destructor'
; Function compile flags: /Odtp
;	COMDAT ??_GDataStreamObject@Ogre@@MAEPAXI@Z
_TEXT	SEGMENT
_this$ = -4						; size = 4
___flags$ = 8						; size = 4
??_GDataStreamObject@Ogre@@MAEPAXI@Z PROC		; Ogre::DataStreamObject::`scalar deleting destructor', COMDAT
; _this$ = ecx
	push	ebp
	mov	ebp, esp
	push	ecx
	mov	DWORD PTR _this$[ebp], ecx
	mov	ecx, DWORD PTR _this$[ebp]
	call	??1DataStreamObject@Ogre@@MAE@XZ	; Ogre::DataStreamObject::~DataStreamObject
	mov	eax, DWORD PTR ___flags$[ebp]
	and	eax, 1
	je	SHORT $LN1@scalar@5
	mov	ecx, DWORD PTR _this$[ebp]
	push	ecx
	call	??3@YAXPAX@Z				; operator delete
	add	esp, 4
$LN1@scalar@5:
	mov	eax, DWORD PTR _this$[ebp]
	mov	esp, ebp
	pop	ebp
	ret	4
??_GDataStreamObject@Ogre@@MAEPAXI@Z ENDP		; Ogre::DataStreamObject::`scalar deleting destructor'
; Function compile flags: /Odtp
_TEXT	ENDS
;	COMDAT ??_EDataStreamObject@Ogre@@MAEPAXI@Z
_TEXT	SEGMENT
_this$ = -4						; size = 4
___flags$ = 8						; size = 4
??_EDataStreamObject@Ogre@@MAEPAXI@Z PROC		; Ogre::DataStreamObject::`vector deleting destructor', COMDAT
; _this$ = ecx
	push	ebp
	mov	ebp, esp
	push	ecx
	mov	DWORD PTR _this$[ebp], ecx
	mov	eax, DWORD PTR ___flags$[ebp]
	and	eax, 2
	je	SHORT $LN3@vector@5
	push	OFFSET ??1DataStreamObject@Ogre@@MAE@XZ	; Ogre::DataStreamObject::~DataStreamObject
	mov	ecx, DWORD PTR _this$[ebp]
	mov	edx, DWORD PTR [ecx-4]
	push	edx
	push	4
	mov	eax, DWORD PTR _this$[ebp]
	push	eax
	call	??_M@YGXPAXIHP6EX0@Z@Z
	mov	ecx, DWORD PTR ___flags$[ebp]
	and	ecx, 1
	je	SHORT $LN2@vector@5
	mov	edx, DWORD PTR _this$[ebp]
	sub	edx, 4
	push	edx
	call	??_V@YAXPAX@Z				; operator delete[]
	add	esp, 4
$LN2@vector@5:
	mov	eax, DWORD PTR _this$[ebp]
	sub	eax, 4
	jmp	SHORT $LN4@vector@5
$LN3@vector@5:
	mov	ecx, DWORD PTR _this$[ebp]
	call	??1DataStreamObject@Ogre@@MAE@XZ	; Ogre::DataStreamObject::~DataStreamObject
	mov	eax, DWORD PTR ___flags$[ebp]
	and	eax, 1
	je	SHORT $LN1@vector@5
	mov	ecx, DWORD PTR _this$[ebp]
	push	ecx
	call	??3@YAXPAX@Z				; operator delete
	add	esp, 4
$LN1@vector@5:
	mov	eax, DWORD PTR _this$[ebp]
$LN4@vector@5:
	mov	esp, ebp
	pop	ebp
	ret	4
??_EDataStreamObject@Ogre@@MAEPAXI@Z ENDP		; Ogre::DataStreamObject::`vector deleting destructor'
_TEXT	ENDS
PUBLIC	??_7ObjectDataStream@Ogre@@6B@			; Ogre::ObjectDataStream::`vftable'
PUBLIC	??0ObjectDataStream@Ogre@@QAE@ABV01@@Z		; Ogre::ObjectDataStream::ObjectDataStream
PUBLIC	??_R4ObjectDataStream@Ogre@@6B@			; Ogre::ObjectDataStream::`RTTI Complete Object Locator'
PUBLIC	??_R0?AVObjectDataStream@Ogre@@@8		; Ogre::ObjectDataStream `RTTI Type Descriptor'
PUBLIC	??_R3ObjectDataStream@Ogre@@8			; Ogre::ObjectDataStream::`RTTI Class Hierarchy Descriptor'
PUBLIC	??_R2ObjectDataStream@Ogre@@8			; Ogre::ObjectDataStream::`RTTI Base Class Array'
PUBLIC	??_R1A@?0A@EA@ObjectDataStream@Ogre@@8		; Ogre::ObjectDataStream::`RTTI Base Class Descriptor at (0,-1,0,64)'
PUBLIC	??_EObjectDataStream@Ogre@@UAEPAXI@Z		; Ogre::ObjectDataStream::`vector deleting destructor'
EXTRN	?read@ObjectDataStream@Ogre@@UAEIPAXI@Z:PROC	; Ogre::ObjectDataStream::read
EXTRN	?write@ObjectDataStream@Ogre@@UAEIPBXI@Z:PROC	; Ogre::ObjectDataStream::write
EXTRN	?skip@ObjectDataStream@Ogre@@UAEXJ@Z:PROC	; Ogre::ObjectDataStream::skip
EXTRN	?seek@ObjectDataStream@Ogre@@UAEXI@Z:PROC	; Ogre::ObjectDataStream::seek
EXTRN	?tell@ObjectDataStream@Ogre@@UBEIXZ:PROC	; Ogre::ObjectDataStream::tell
EXTRN	?eof@ObjectDataStream@Ogre@@UBE_NXZ:PROC	; Ogre::ObjectDataStream::eof
EXTRN	?size@ObjectDataStream@Ogre@@UBEIXZ:PROC	; Ogre::ObjectDataStream::size
EXTRN	?close@ObjectDataStream@Ogre@@UAEXXZ:PROC	; Ogre::ObjectDataStream::close
EXTRN	?getMemoryImage@ObjectDataStream@Ogre@@UAEPAXXZ:PROC ; Ogre::ObjectDataStream::getMemoryImage
;	COMDAT ??_R1A@?0A@EA@ObjectDataStream@Ogre@@8
rdata$r	SEGMENT
??_R1A@?0A@EA@ObjectDataStream@Ogre@@8 DD FLAT:??_R0?AVObjectDataStream@Ogre@@@8 ; Ogre::ObjectDataStream::`RTTI Base Class Descriptor at (0,-1,0,64)'
	DD	01H
	DD	00H
	DD	0ffffffffH
	DD	00H
	DD	040H
	DD	FLAT:??_R3ObjectDataStream@Ogre@@8
rdata$r	ENDS
;	COMDAT ??_R2ObjectDataStream@Ogre@@8
rdata$r	SEGMENT
??_R2ObjectDataStream@Ogre@@8 DD FLAT:??_R1A@?0A@EA@ObjectDataStream@Ogre@@8 ; Ogre::ObjectDataStream::`RTTI Base Class Array'
	DD	FLAT:??_R1A@?0A@EA@DataStream@Ogre@@8
rdata$r	ENDS
;	COMDAT ??_R3ObjectDataStream@Ogre@@8
rdata$r	SEGMENT
??_R3ObjectDataStream@Ogre@@8 DD 00H			; Ogre::ObjectDataStream::`RTTI Class Hierarchy Descriptor'
	DD	00H
	DD	02H
	DD	FLAT:??_R2ObjectDataStream@Ogre@@8
rdata$r	ENDS
;	COMDAT ??_R0?AVObjectDataStream@Ogre@@@8
_DATA	SEGMENT
??_R0?AVObjectDataStream@Ogre@@@8 DD FLAT:??_7type_info@@6B@ ; Ogre::ObjectDataStream `RTTI Type Descriptor'
	DD	00H
	DB	'.?AVObjectDataStream@Ogre@@', 00H
_DATA	ENDS
;	COMDAT ??_R4ObjectDataStream@Ogre@@6B@
rdata$r	SEGMENT
??_R4ObjectDataStream@Ogre@@6B@ DD 00H			; Ogre::ObjectDataStream::`RTTI Complete Object Locator'
	DD	00H
	DD	00H
	DD	FLAT:??_R0?AVObjectDataStream@Ogre@@@8
	DD	FLAT:??_R3ObjectDataStream@Ogre@@8
rdata$r	ENDS
;	COMDAT ??_7ObjectDataStream@Ogre@@6B@
CONST	SEGMENT
??_7ObjectDataStream@Ogre@@6B@ DD FLAT:??_R4ObjectDataStream@Ogre@@6B@ ; Ogre::ObjectDataStream::`vftable'
	DD	FLAT:??_EObjectDataStream@Ogre@@UAEPAXI@Z
	DD	FLAT:?read@ObjectDataStream@Ogre@@UAEIPAXI@Z
	DD	FLAT:?write@ObjectDataStream@Ogre@@UAEIPBXI@Z
	DD	FLAT:?readLine@DataStream@Ogre@@UAEIPADIABV?$basic_string@DU?$char_traits@D@std@@V?$allocator@D@2@@std@@@Z
	DD	FLAT:?getLine@DataStream@Ogre@@UAE?AV?$basic_string@DU?$char_traits@D@std@@V?$allocator@D@2@@std@@_N@Z
	DD	FLAT:?getAsString@DataStream@Ogre@@UAE?AV?$basic_string@DU?$char_traits@D@std@@V?$allocator@D@2@@std@@XZ
	DD	FLAT:?skipLine@DataStream@Ogre@@UAEIABV?$basic_string@DU?$char_traits@D@std@@V?$allocator@D@2@@std@@@Z
	DD	FLAT:?skip@ObjectDataStream@Ogre@@UAEXJ@Z
	DD	FLAT:?seek@ObjectDataStream@Ogre@@UAEXI@Z
	DD	FLAT:?tell@ObjectDataStream@Ogre@@UBEIXZ
	DD	FLAT:?eof@ObjectDataStream@Ogre@@UBE_NXZ
	DD	FLAT:?size@ObjectDataStream@Ogre@@UBEIXZ
	DD	FLAT:?close@ObjectDataStream@Ogre@@UAEXXZ
	DD	FLAT:?getMemoryImage@ObjectDataStream@Ogre@@UAEPAXXZ
CONST	ENDS
;	COMDAT xdata$x
xdata$x	SEGMENT
__unwindtable$??0ObjectDataStream@Ogre@@QAE@ABV01@@Z DD 0ffffffffH
	DD	FLAT:__unwindfunclet$??0ObjectDataStream@Ogre@@QAE@ABV01@@Z$0
__ehfuncinfo$??0ObjectDataStream@Ogre@@QAE@ABV01@@Z DD 019930522H
	DD	01H
	DD	FLAT:__unwindtable$??0ObjectDataStream@Ogre@@QAE@ABV01@@Z
	DD	2 DUP(00H)
	DD	2 DUP(00H)
	DD	00H
	DD	00H
; Function compile flags: /Odtp
xdata$x	ENDS
;	COMDAT ??0ObjectDataStream@Ogre@@QAE@ABV01@@Z
_TEXT	SEGMENT
_this$ = -16						; size = 4
__$EHRec$ = -12						; size = 12
___that$ = 8						; size = 4
??0ObjectDataStream@Ogre@@QAE@ABV01@@Z PROC		; Ogre::ObjectDataStream::ObjectDataStream, COMDAT
; _this$ = ecx
	push	ebp
	mov	ebp, esp
	push	-1
	push	__ehhandler$??0ObjectDataStream@Ogre@@QAE@ABV01@@Z
	mov	eax, DWORD PTR fs:0
	push	eax
	push	ecx
	mov	eax, DWORD PTR ___security_cookie
	xor	eax, ebp
	push	eax
	lea	eax, DWORD PTR __$EHRec$[ebp]
	mov	DWORD PTR fs:0, eax
	mov	DWORD PTR _this$[ebp], ecx
	mov	eax, DWORD PTR ___that$[ebp]
	push	eax
	mov	ecx, DWORD PTR _this$[ebp]
	call	??0DataStream@Ogre@@QAE@ABV01@@Z
	mov	DWORD PTR __$EHRec$[ebp+8], 0
	mov	ecx, DWORD PTR _this$[ebp]
	mov	DWORD PTR [ecx], OFFSET ??_7ObjectDataStream@Ogre@@6B@
	mov	edx, DWORD PTR _this$[ebp]
	mov	eax, DWORD PTR ___that$[ebp]
	mov	ecx, DWORD PTR [eax+36]
	mov	DWORD PTR [edx+36], ecx
	mov	edx, DWORD PTR _this$[ebp]
	mov	eax, DWORD PTR ___that$[ebp]
	mov	ecx, DWORD PTR [eax+40]
	mov	DWORD PTR [edx+40], ecx
	mov	DWORD PTR __$EHRec$[ebp+8], -1
	mov	eax, DWORD PTR _this$[ebp]
	mov	ecx, DWORD PTR __$EHRec$[ebp]
	mov	DWORD PTR fs:0, ecx
	pop	ecx
	mov	esp, ebp
	pop	ebp
	ret	4
_TEXT	ENDS
;	COMDAT text$x
text$x	SEGMENT
__unwindfunclet$??0ObjectDataStream@Ogre@@QAE@ABV01@@Z$0:
	mov	ecx, DWORD PTR _this$[ebp]
	jmp	??1DataStream@Ogre@@UAE@XZ		; Ogre::DataStream::~DataStream
__ehhandler$??0ObjectDataStream@Ogre@@QAE@ABV01@@Z:
	mov	edx, DWORD PTR [esp+8]
	lea	eax, DWORD PTR [edx+12]
	mov	ecx, DWORD PTR [edx-8]
	xor	ecx, eax
	call	@__security_check_cookie@4
	mov	eax, OFFSET __ehfuncinfo$??0ObjectDataStream@Ogre@@QAE@ABV01@@Z
	jmp	___CxxFrameHandler3
text$x	ENDS
??0ObjectDataStream@Ogre@@QAE@ABV01@@Z ENDP		; Ogre::ObjectDataStream::ObjectDataStream
PUBLIC	??4ObjectDataStream@Ogre@@QAEAAV01@ABV01@@Z	; Ogre::ObjectDataStream::operator=
; Function compile flags: /Odtp
;	COMDAT ??4ObjectDataStream@Ogre@@QAEAAV01@ABV01@@Z
_TEXT	SEGMENT
_this$ = -4						; size = 4
___that$ = 8						; size = 4
??4ObjectDataStream@Ogre@@QAEAAV01@ABV01@@Z PROC	; Ogre::ObjectDataStream::operator=, COMDAT
; _this$ = ecx
	push	ebp
	mov	ebp, esp
	push	ecx
	mov	DWORD PTR _this$[ebp], ecx
	mov	eax, DWORD PTR ___that$[ebp]
	push	eax
	mov	ecx, DWORD PTR _this$[ebp]
	call	??4DataStream@Ogre@@QAEAAV01@ABV01@@Z
	mov	ecx, DWORD PTR _this$[ebp]
	mov	edx, DWORD PTR ___that$[ebp]
	mov	eax, DWORD PTR [edx+36]
	mov	DWORD PTR [ecx+36], eax
	mov	ecx, DWORD PTR _this$[ebp]
	mov	edx, DWORD PTR ___that$[ebp]
	mov	eax, DWORD PTR [edx+40]
	mov	DWORD PTR [ecx+40], eax
	mov	eax, DWORD PTR _this$[ebp]
	mov	esp, ebp
	pop	ebp
	ret	4
??4ObjectDataStream@Ogre@@QAEAAV01@ABV01@@Z ENDP	; Ogre::ObjectDataStream::operator=
_TEXT	ENDS
PUBLIC	??_GObjectDataStream@Ogre@@UAEPAXI@Z		; Ogre::ObjectDataStream::`scalar deleting destructor'
EXTRN	??1ObjectDataStream@Ogre@@UAE@XZ:PROC		; Ogre::ObjectDataStream::~ObjectDataStream
; Function compile flags: /Odtp
;	COMDAT ??_GObjectDataStream@Ogre@@UAEPAXI@Z
_TEXT	SEGMENT
_this$ = -4						; size = 4
___flags$ = 8						; size = 4
??_GObjectDataStream@Ogre@@UAEPAXI@Z PROC		; Ogre::ObjectDataStream::`scalar deleting destructor', COMDAT
; _this$ = ecx
	push	ebp
	mov	ebp, esp
	push	ecx
	mov	DWORD PTR _this$[ebp], ecx
	mov	ecx, DWORD PTR _this$[ebp]
	call	??1ObjectDataStream@Ogre@@UAE@XZ	; Ogre::ObjectDataStream::~ObjectDataStream
	mov	eax, DWORD PTR ___flags$[ebp]
	and	eax, 1
	je	SHORT $LN1@scalar@6
	mov	ecx, DWORD PTR _this$[ebp]
	push	ecx
	call	??3@YAXPAX@Z				; operator delete
	add	esp, 4
$LN1@scalar@6:
	mov	eax, DWORD PTR _this$[ebp]
	mov	esp, ebp
	pop	ebp
	ret	4
??_GObjectDataStream@Ogre@@UAEPAXI@Z ENDP		; Ogre::ObjectDataStream::`scalar deleting destructor'
; Function compile flags: /Odtp
_TEXT	ENDS
;	COMDAT ??_EObjectDataStream@Ogre@@UAEPAXI@Z
_TEXT	SEGMENT
_this$ = -4						; size = 4
___flags$ = 8						; size = 4
??_EObjectDataStream@Ogre@@UAEPAXI@Z PROC		; Ogre::ObjectDataStream::`vector deleting destructor', COMDAT
; _this$ = ecx
	push	ebp
	mov	ebp, esp
	push	ecx
	mov	DWORD PTR _this$[ebp], ecx
	mov	eax, DWORD PTR ___flags$[ebp]
	and	eax, 2
	je	SHORT $LN3@vector@6
	push	OFFSET ??1ObjectDataStream@Ogre@@UAE@XZ	; Ogre::ObjectDataStream::~ObjectDataStream
	mov	ecx, DWORD PTR _this$[ebp]
	mov	edx, DWORD PTR [ecx-4]
	push	edx
	push	44					; 0000002cH
	mov	eax, DWORD PTR _this$[ebp]
	push	eax
	call	??_M@YGXPAXIHP6EX0@Z@Z
	mov	ecx, DWORD PTR ___flags$[ebp]
	and	ecx, 1
	je	SHORT $LN2@vector@6
	mov	edx, DWORD PTR _this$[ebp]
	sub	edx, 4
	push	edx
	call	??_V@YAXPAX@Z				; operator delete[]
	add	esp, 4
$LN2@vector@6:
	mov	eax, DWORD PTR _this$[ebp]
	sub	eax, 4
	jmp	SHORT $LN4@vector@6
$LN3@vector@6:
	mov	ecx, DWORD PTR _this$[ebp]
	call	??1ObjectDataStream@Ogre@@UAE@XZ	; Ogre::ObjectDataStream::~ObjectDataStream
	mov	eax, DWORD PTR ___flags$[ebp]
	and	eax, 1
	je	SHORT $LN1@vector@6
	mov	ecx, DWORD PTR _this$[ebp]
	push	ecx
	call	??3@YAXPAX@Z				; operator delete
	add	esp, 4
$LN1@vector@6:
	mov	eax, DWORD PTR _this$[ebp]
$LN4@vector@6:
	mov	esp, ebp
	pop	ebp
	ret	4
??_EObjectDataStream@Ogre@@UAEPAXI@Z ENDP		; Ogre::ObjectDataStream::`vector deleting destructor'
_TEXT	ENDS
PUBLIC	??4MemoryDelegation@Ogre@@QAEAAV01@ABV01@@Z	; Ogre::MemoryDelegation::operator=
; Function compile flags: /Odtp
;	COMDAT ??4MemoryDelegation@Ogre@@QAEAAV01@ABV01@@Z
_TEXT	SEGMENT
_this$ = -4						; size = 4
___that$ = 8						; size = 4
??4MemoryDelegation@Ogre@@QAEAAV01@ABV01@@Z PROC	; Ogre::MemoryDelegation::operator=, COMDAT
; _this$ = ecx
	push	ebp
	mov	ebp, esp
	push	ecx
	mov	DWORD PTR _this$[ebp], ecx
	mov	eax, DWORD PTR _this$[ebp]
	mov	esp, ebp
	pop	ebp
	ret	4
??4MemoryDelegation@Ogre@@QAEAAV01@ABV01@@Z ENDP	; Ogre::MemoryDelegation::operator=
_TEXT	ENDS
PUBLIC	?getBaseClass@RuntimeClass@Ogre@@QBEPBV12@XZ	; Ogre::RuntimeClass::getBaseClass
; Function compile flags: /Odtp
; File i:\svnroot\client\ogremain\ogrebaseobject.h
;	COMDAT ?getBaseClass@RuntimeClass@Ogre@@QBEPBV12@XZ
_TEXT	SEGMENT
_this$ = -4						; size = 4
?getBaseClass@RuntimeClass@Ogre@@QBEPBV12@XZ PROC	; Ogre::RuntimeClass::getBaseClass, COMDAT
; _this$ = ecx

; 20   : 		{

	push	ebp
	mov	ebp, esp
	push	ecx
	mov	DWORD PTR _this$[ebp], ecx

; 21   : 			return m_pBaseClass;

	mov	eax, DWORD PTR _this$[ebp]
	mov	eax, DWORD PTR [eax+4]

; 22   : 		}

	mov	esp, ebp
	pop	ebp
	ret	0
?getBaseClass@RuntimeClass@Ogre@@QBEPBV12@XZ ENDP	; Ogre::RuntimeClass::getBaseClass
_TEXT	ENDS
PUBLIC	?getClassName@RuntimeClass@Ogre@@QBEPBDXZ	; Ogre::RuntimeClass::getClassName
; Function compile flags: /Odtp
;	COMDAT ?getClassName@RuntimeClass@Ogre@@QBEPBDXZ
_TEXT	SEGMENT
_this$ = -4						; size = 4
?getClassName@RuntimeClass@Ogre@@QBEPBDXZ PROC		; Ogre::RuntimeClass::getClassName, COMDAT
; _this$ = ecx

; 25   : 		{

	push	ebp
	mov	ebp, esp
	push	ecx
	mov	DWORD PTR _this$[ebp], ecx

; 26   : 			return m_pClassName; 

	mov	eax, DWORD PTR _this$[ebp]
	mov	eax, DWORD PTR [eax]

; 27   : 		}

	mov	esp, ebp
	pop	ebp
	ret	0
?getClassName@RuntimeClass@Ogre@@QBEPBDXZ ENDP		; Ogre::RuntimeClass::getClassName
_TEXT	ENDS
PUBLIC	?getVersion@RuntimeClass@Ogre@@QBEHXZ		; Ogre::RuntimeClass::getVersion
; Function compile flags: /Odtp
;	COMDAT ?getVersion@RuntimeClass@Ogre@@QBEHXZ
_TEXT	SEGMENT
_this$ = -4						; size = 4
?getVersion@RuntimeClass@Ogre@@QBEHXZ PROC		; Ogre::RuntimeClass::getVersion, COMDAT
; _this$ = ecx

; 30   : 		{

	push	ebp
	mov	ebp, esp
	push	ecx
	mov	DWORD PTR _this$[ebp], ecx

; 31   : 			return m_Version;

	mov	eax, DWORD PTR _this$[ebp]
	mov	eax, DWORD PTR [eax+8]

; 32   : 		}

	mov	esp, ebp
	pop	ebp
	ret	0
?getVersion@RuntimeClass@Ogre@@QBEHXZ ENDP		; Ogre::RuntimeClass::getVersion
_TEXT	ENDS
PUBLIC	?newObject@RuntimeClass@Ogre@@QAEPAVBaseObject@2@XZ ; Ogre::RuntimeClass::newObject
; Function compile flags: /Odtp
;	COMDAT ?newObject@RuntimeClass@Ogre@@QAEPAVBaseObject@2@XZ
_TEXT	SEGMENT
_this$ = -4						; size = 4
?newObject@RuntimeClass@Ogre@@QAEPAVBaseObject@2@XZ PROC ; Ogre::RuntimeClass::newObject, COMDAT
; _this$ = ecx

; 35   : 		{

	push	ebp
	mov	ebp, esp
	push	ecx
	mov	DWORD PTR _this$[ebp], ecx

; 36   : 			return (*m_pNewFunc)();

	mov	eax, DWORD PTR _this$[ebp]
	mov	ecx, DWORD PTR [eax+12]
	call	ecx

; 37   : 		}

	mov	esp, ebp
	pop	ebp
	ret	0
?newObject@RuntimeClass@Ogre@@QAEPAVBaseObject@2@XZ ENDP ; Ogre::RuntimeClass::newObject
_TEXT	ENDS
PUBLIC	??4RuntimeClass@Ogre@@QAEAAV01@ABV01@@Z		; Ogre::RuntimeClass::operator=
; Function compile flags: /Odtp
;	COMDAT ??4RuntimeClass@Ogre@@QAEAAV01@ABV01@@Z
_TEXT	SEGMENT
_this$ = -4						; size = 4
___that$ = 8						; size = 4
??4RuntimeClass@Ogre@@QAEAAV01@ABV01@@Z PROC		; Ogre::RuntimeClass::operator=, COMDAT
; _this$ = ecx
	push	ebp
	mov	ebp, esp
	push	ecx
	mov	DWORD PTR _this$[ebp], ecx
	mov	eax, DWORD PTR ___that$[ebp]
	mov	ecx, DWORD PTR _this$[ebp]
	mov	edx, DWORD PTR [eax]
	mov	DWORD PTR [ecx], edx
	mov	edx, DWORD PTR [eax+4]
	mov	DWORD PTR [ecx+4], edx
	mov	edx, DWORD PTR [eax+8]
	mov	DWORD PTR [ecx+8], edx
	mov	edx, DWORD PTR [eax+12]
	mov	DWORD PTR [ecx+12], edx
	mov	eax, DWORD PTR [eax+16]
	mov	DWORD PTR [ecx+16], eax
	mov	eax, DWORD PTR _this$[ebp]
	mov	esp, ebp
	pop	ebp
	ret	4
??4RuntimeClass@Ogre@@QAEAAV01@ABV01@@Z ENDP		; Ogre::RuntimeClass::operator=
_TEXT	ENDS
PUBLIC	?getRTTI@BaseObject@Ogre@@UBEPBVRuntimeClass@2@XZ ; Ogre::BaseObject::getRTTI
EXTRN	?m_RTTI@BaseObject@Ogre@@2VRuntimeClass@2@B:BYTE ; Ogre::BaseObject::m_RTTI
; Function compile flags: /Odtp
;	COMDAT ?getRTTI@BaseObject@Ogre@@UBEPBVRuntimeClass@2@XZ
_TEXT	SEGMENT
_this$ = -4						; size = 4
?getRTTI@BaseObject@Ogre@@UBEPBVRuntimeClass@2@XZ PROC	; Ogre::BaseObject::getRTTI, COMDAT
; _this$ = ecx

; 56   : 		{

	push	ebp
	mov	ebp, esp
	push	ecx
	mov	DWORD PTR _this$[ebp], ecx

; 57   : 			return &m_RTTI;

	mov	eax, OFFSET ?m_RTTI@BaseObject@Ogre@@2VRuntimeClass@2@B ; Ogre::BaseObject::m_RTTI

; 58   : 		}

	mov	esp, ebp
	pop	ebp
	ret	0
?getRTTI@BaseObject@Ogre@@UBEPBVRuntimeClass@2@XZ ENDP	; Ogre::BaseObject::getRTTI
_TEXT	ENDS
PUBLIC	?isExactKindOf@BaseObject@Ogre@@QBE_NPBVRuntimeClass@2@@Z ; Ogre::BaseObject::isExactKindOf
; Function compile flags: /Odtp
;	COMDAT ?isExactKindOf@BaseObject@Ogre@@QBE_NPBVRuntimeClass@2@@Z
_TEXT	SEGMENT
_this$ = -4						; size = 4
_prtti$ = 8						; size = 4
?isExactKindOf@BaseObject@Ogre@@QBE_NPBVRuntimeClass@2@@Z PROC ; Ogre::BaseObject::isExactKindOf, COMDAT
; _this$ = ecx

; 61   : 		{

	push	ebp
	mov	ebp, esp
	push	ecx
	mov	DWORD PTR _this$[ebp], ecx

; 62   : 			return (getRTTI() == prtti);

	mov	eax, DWORD PTR _this$[ebp]
	mov	edx, DWORD PTR [eax]
	mov	ecx, DWORD PTR _this$[ebp]
	mov	eax, DWORD PTR [edx]
	call	eax
	xor	ecx, ecx
	cmp	eax, DWORD PTR _prtti$[ebp]
	sete	cl
	mov	al, cl

; 63   : 		}

	mov	esp, ebp
	pop	ebp
	ret	4
?isExactKindOf@BaseObject@Ogre@@QBE_NPBVRuntimeClass@2@@Z ENDP ; Ogre::BaseObject::isExactKindOf
_TEXT	ENDS
PUBLIC	?release@BaseObject@Ogre@@UAEXXZ		; Ogre::BaseObject::release
; Function compile flags: /Odtp
;	COMDAT ?release@BaseObject@Ogre@@UAEXXZ
_TEXT	SEGMENT
_this$ = -4						; size = 4
?release@BaseObject@Ogre@@UAEXXZ PROC			; Ogre::BaseObject::release, COMDAT
; _this$ = ecx

; 68   : 		{

	push	ebp
	mov	ebp, esp
	push	ecx
	mov	DWORD PTR _this$[ebp], ecx

; 69   : 			m_RefCount--;

	mov	eax, DWORD PTR _this$[ebp]
	mov	ecx, DWORD PTR [eax+4]
	sub	ecx, 1
	mov	edx, DWORD PTR _this$[ebp]
	mov	DWORD PTR [edx+4], ecx

; 70   : 			if(m_RefCount <= 0 )

	mov	eax, DWORD PTR _this$[ebp]
	cmp	DWORD PTR [eax+4], 0
	jg	SHORT $LN2@release

; 71   : 			{
; 72   : 				deleteThis();

	mov	ecx, DWORD PTR _this$[ebp]
	mov	edx, DWORD PTR [ecx]
	mov	ecx, DWORD PTR _this$[ebp]
	mov	eax, DWORD PTR [edx+24]
	call	eax
$LN2@release:

; 73   : 			}
; 74   : 		}

	mov	esp, ebp
	pop	ebp
	ret	0
?release@BaseObject@Ogre@@UAEXXZ ENDP			; Ogre::BaseObject::release
_TEXT	ENDS
PUBLIC	?addRef@BaseObject@Ogre@@UAEXXZ			; Ogre::BaseObject::addRef
; Function compile flags: /Odtp
;	COMDAT ?addRef@BaseObject@Ogre@@UAEXXZ
_TEXT	SEGMENT
_this$ = -4						; size = 4
?addRef@BaseObject@Ogre@@UAEXXZ PROC			; Ogre::BaseObject::addRef, COMDAT
; _this$ = ecx

; 77   : 		{

	push	ebp
	mov	ebp, esp
	push	ecx
	mov	DWORD PTR _this$[ebp], ecx

; 78   : 			m_RefCount++;

	mov	eax, DWORD PTR _this$[ebp]
	mov	ecx, DWORD PTR [eax+4]
	add	ecx, 1
	mov	edx, DWORD PTR _this$[ebp]
	mov	DWORD PTR [edx+4], ecx

; 79   : 		}

	mov	esp, ebp
	pop	ebp
	ret	0
?addRef@BaseObject@Ogre@@UAEXXZ ENDP			; Ogre::BaseObject::addRef
_TEXT	ENDS
PUBLIC	?getRefCount@BaseObject@Ogre@@UAEHXZ		; Ogre::BaseObject::getRefCount
; Function compile flags: /Odtp
;	COMDAT ?getRefCount@BaseObject@Ogre@@UAEHXZ
_TEXT	SEGMENT
_this$ = -4						; size = 4
?getRefCount@BaseObject@Ogre@@UAEHXZ PROC		; Ogre::BaseObject::getRefCount, COMDAT
; _this$ = ecx

; 82   : 		{

	push	ebp
	mov	ebp, esp
	push	ecx
	mov	DWORD PTR _this$[ebp], ecx

; 83   : 			return m_RefCount;

	mov	eax, DWORD PTR _this$[ebp]
	mov	eax, DWORD PTR [eax+4]

; 84   : 		}

	mov	esp, ebp
	pop	ebp
	ret	0
?getRefCount@BaseObject@Ogre@@UAEHXZ ENDP		; Ogre::BaseObject::getRefCount
_TEXT	ENDS
PUBLIC	?_serialize@BaseObject@Ogre@@UAEXAAVArchive@2@H@Z ; Ogre::BaseObject::_serialize
; Function compile flags: /Odtp
;	COMDAT ?_serialize@BaseObject@Ogre@@UAEXAAVArchive@2@H@Z
_TEXT	SEGMENT
_this$ = -4						; size = 4
_ar$ = 8						; size = 4
_version$ = 12						; size = 4
?_serialize@BaseObject@Ogre@@UAEXAAVArchive@2@H@Z PROC	; Ogre::BaseObject::_serialize, COMDAT
; _this$ = ecx

; 87   : 		{

	push	ebp
	mov	ebp, esp
	push	ecx
	mov	DWORD PTR _this$[ebp], ecx

; 88   : 		}

	mov	esp, ebp
	pop	ebp
	ret	8
?_serialize@BaseObject@Ogre@@UAEXAAVArchive@2@H@Z ENDP	; Ogre::BaseObject::_serialize
_TEXT	ENDS
PUBLIC	??_7BaseObject@Ogre@@6B@			; Ogre::BaseObject::`vftable'
PUBLIC	??0BaseObject@Ogre@@IAE@XZ			; Ogre::BaseObject::BaseObject
PUBLIC	??_R4BaseObject@Ogre@@6B@			; Ogre::BaseObject::`RTTI Complete Object Locator'
PUBLIC	??_R0?AVBaseObject@Ogre@@@8			; Ogre::BaseObject `RTTI Type Descriptor'
PUBLIC	??_R3BaseObject@Ogre@@8				; Ogre::BaseObject::`RTTI Class Hierarchy Descriptor'
PUBLIC	??_R2BaseObject@Ogre@@8				; Ogre::BaseObject::`RTTI Base Class Array'
PUBLIC	??_R1A@?0A@EA@BaseObject@Ogre@@8		; Ogre::BaseObject::`RTTI Base Class Descriptor at (0,-1,0,64)'
PUBLIC	??_R13?0A@EA@MemoryDelegation@Ogre@@8		; Ogre::MemoryDelegation::`RTTI Base Class Descriptor at (4,-1,0,64)'
PUBLIC	??_R0?AVMemoryDelegation@Ogre@@@8		; Ogre::MemoryDelegation `RTTI Type Descriptor'
PUBLIC	??_R3MemoryDelegation@Ogre@@8			; Ogre::MemoryDelegation::`RTTI Class Hierarchy Descriptor'
PUBLIC	??_R2MemoryDelegation@Ogre@@8			; Ogre::MemoryDelegation::`RTTI Base Class Array'
PUBLIC	??_R1A@?0A@EA@MemoryDelegation@Ogre@@8		; Ogre::MemoryDelegation::`RTTI Base Class Descriptor at (0,-1,0,64)'
PUBLIC	??_EBaseObject@Ogre@@MAEPAXI@Z			; Ogre::BaseObject::`vector deleting destructor'
PUBLIC	?deleteThis@BaseObject@Ogre@@MAEXXZ		; Ogre::BaseObject::deleteThis
;	COMDAT ??_R1A@?0A@EA@MemoryDelegation@Ogre@@8
rdata$r	SEGMENT
??_R1A@?0A@EA@MemoryDelegation@Ogre@@8 DD FLAT:??_R0?AVMemoryDelegation@Ogre@@@8 ; Ogre::MemoryDelegation::`RTTI Base Class Descriptor at (0,-1,0,64)'
	DD	00H
	DD	00H
	DD	0ffffffffH
	DD	00H
	DD	040H
	DD	FLAT:??_R3MemoryDelegation@Ogre@@8
rdata$r	ENDS
;	COMDAT ??_R2MemoryDelegation@Ogre@@8
rdata$r	SEGMENT
??_R2MemoryDelegation@Ogre@@8 DD FLAT:??_R1A@?0A@EA@MemoryDelegation@Ogre@@8 ; Ogre::MemoryDelegation::`RTTI Base Class Array'
rdata$r	ENDS
;	COMDAT ??_R3MemoryDelegation@Ogre@@8
rdata$r	SEGMENT
??_R3MemoryDelegation@Ogre@@8 DD 00H			; Ogre::MemoryDelegation::`RTTI Class Hierarchy Descriptor'
	DD	00H
	DD	01H
	DD	FLAT:??_R2MemoryDelegation@Ogre@@8
rdata$r	ENDS
;	COMDAT ??_R0?AVMemoryDelegation@Ogre@@@8
_DATA	SEGMENT
??_R0?AVMemoryDelegation@Ogre@@@8 DD FLAT:??_7type_info@@6B@ ; Ogre::MemoryDelegation `RTTI Type Descriptor'
	DD	00H
	DB	'.?AVMemoryDelegation@Ogre@@', 00H
_DATA	ENDS
;	COMDAT ??_R13?0A@EA@MemoryDelegation@Ogre@@8
rdata$r	SEGMENT
??_R13?0A@EA@MemoryDelegation@Ogre@@8 DD FLAT:??_R0?AVMemoryDelegation@Ogre@@@8 ; Ogre::MemoryDelegation::`RTTI Base Class Descriptor at (4,-1,0,64)'
	DD	00H
	DD	04H
	DD	0ffffffffH
	DD	00H
	DD	040H
	DD	FLAT:??_R3MemoryDelegation@Ogre@@8
rdata$r	ENDS
;	COMDAT ??_R1A@?0A@EA@BaseObject@Ogre@@8
rdata$r	SEGMENT
??_R1A@?0A@EA@BaseObject@Ogre@@8 DD FLAT:??_R0?AVBaseObject@Ogre@@@8 ; Ogre::BaseObject::`RTTI Base Class Descriptor at (0,-1,0,64)'
	DD	01H
	DD	00H
	DD	0ffffffffH
	DD	00H
	DD	040H
	DD	FLAT:??_R3BaseObject@Ogre@@8
rdata$r	ENDS
;	COMDAT ??_R2BaseObject@Ogre@@8
rdata$r	SEGMENT
??_R2BaseObject@Ogre@@8 DD FLAT:??_R1A@?0A@EA@BaseObject@Ogre@@8 ; Ogre::BaseObject::`RTTI Base Class Array'
	DD	FLAT:??_R13?0A@EA@MemoryDelegation@Ogre@@8
rdata$r	ENDS
;	COMDAT ??_R3BaseObject@Ogre@@8
rdata$r	SEGMENT
??_R3BaseObject@Ogre@@8 DD 00H				; Ogre::BaseObject::`RTTI Class Hierarchy Descriptor'
	DD	00H
	DD	02H
	DD	FLAT:??_R2BaseObject@Ogre@@8
rdata$r	ENDS
;	COMDAT ??_R0?AVBaseObject@Ogre@@@8
_DATA	SEGMENT
??_R0?AVBaseObject@Ogre@@@8 DD FLAT:??_7type_info@@6B@	; Ogre::BaseObject `RTTI Type Descriptor'
	DD	00H
	DB	'.?AVBaseObject@Ogre@@', 00H
_DATA	ENDS
;	COMDAT ??_R4BaseObject@Ogre@@6B@
rdata$r	SEGMENT
??_R4BaseObject@Ogre@@6B@ DD 00H			; Ogre::BaseObject::`RTTI Complete Object Locator'
	DD	00H
	DD	00H
	DD	FLAT:??_R0?AVBaseObject@Ogre@@@8
	DD	FLAT:??_R3BaseObject@Ogre@@8
rdata$r	ENDS
;	COMDAT ??_7BaseObject@Ogre@@6B@
CONST	SEGMENT
??_7BaseObject@Ogre@@6B@ DD FLAT:??_R4BaseObject@Ogre@@6B@ ; Ogre::BaseObject::`vftable'
	DD	FLAT:?getRTTI@BaseObject@Ogre@@UBEPBVRuntimeClass@2@XZ
	DD	FLAT:?release@BaseObject@Ogre@@UAEXXZ
	DD	FLAT:?addRef@BaseObject@Ogre@@UAEXXZ
	DD	FLAT:?getRefCount@BaseObject@Ogre@@UAEHXZ
	DD	FLAT:?_serialize@BaseObject@Ogre@@UAEXAAVArchive@2@H@Z
	DD	FLAT:??_EBaseObject@Ogre@@MAEPAXI@Z
	DD	FLAT:?deleteThis@BaseObject@Ogre@@MAEXXZ
; Function compile flags: /Odtp
CONST	ENDS
;	COMDAT ??0BaseObject@Ogre@@IAE@XZ
_TEXT	SEGMENT
_this$ = -4						; size = 4
??0BaseObject@Ogre@@IAE@XZ PROC				; Ogre::BaseObject::BaseObject, COMDAT
; _this$ = ecx

; 92   : 		{

	push	ebp
	mov	ebp, esp
	push	ecx
	mov	DWORD PTR _this$[ebp], ecx
	mov	eax, DWORD PTR _this$[ebp]
	mov	DWORD PTR [eax], OFFSET ??_7BaseObject@Ogre@@6B@
	mov	ecx, DWORD PTR _this$[ebp]
	mov	DWORD PTR [ecx+4], 1

; 93   : 		}

	mov	eax, DWORD PTR _this$[ebp]
	mov	esp, ebp
	pop	ebp
	ret	0
??0BaseObject@Ogre@@IAE@XZ ENDP				; Ogre::BaseObject::BaseObject
_TEXT	ENDS
PUBLIC	??1BaseObject@Ogre@@MAE@XZ			; Ogre::BaseObject::~BaseObject
; Function compile flags: /Odtp
;	COMDAT ??1BaseObject@Ogre@@MAE@XZ
_TEXT	SEGMENT
_this$ = -4						; size = 4
??1BaseObject@Ogre@@MAE@XZ PROC				; Ogre::BaseObject::~BaseObject, COMDAT
; _this$ = ecx

; 96   : 		{

	push	ebp
	mov	ebp, esp
	push	ecx
	mov	DWORD PTR _this$[ebp], ecx
	mov	eax, DWORD PTR _this$[ebp]
	mov	DWORD PTR [eax], OFFSET ??_7BaseObject@Ogre@@6B@

; 97   : 		}

	mov	esp, ebp
	pop	ebp
	ret	0
??1BaseObject@Ogre@@MAE@XZ ENDP				; Ogre::BaseObject::~BaseObject
; Function compile flags: /Odtp
_TEXT	ENDS
;	COMDAT ?deleteThis@BaseObject@Ogre@@MAEXXZ
_TEXT	SEGMENT
tv70 = -16						; size = 4
_this$ = -12						; size = 4
$T62480 = -8						; size = 4
$T62479 = -4						; size = 4
?deleteThis@BaseObject@Ogre@@MAEXXZ PROC		; Ogre::BaseObject::deleteThis, COMDAT
; _this$ = ecx

; 100  : 		{

	push	ebp
	mov	ebp, esp
	sub	esp, 16					; 00000010H
	mov	DWORD PTR _this$[ebp], ecx

; 101  : 			delete this;

	mov	eax, DWORD PTR _this$[ebp]
	mov	DWORD PTR $T62480[ebp], eax
	mov	ecx, DWORD PTR $T62480[ebp]
	mov	DWORD PTR $T62479[ebp], ecx
	cmp	DWORD PTR $T62479[ebp], 0
	je	SHORT $LN3@deleteThis
	push	1
	mov	edx, DWORD PTR $T62479[ebp]
	mov	eax, DWORD PTR [edx]
	mov	ecx, DWORD PTR $T62479[ebp]
	mov	edx, DWORD PTR [eax+20]
	call	edx
	mov	DWORD PTR tv70[ebp], eax
	jmp	SHORT $LN1@deleteThis
$LN3@deleteThis:
	mov	DWORD PTR tv70[ebp], 0
$LN1@deleteThis:

; 102  : 		}

	mov	esp, ebp
	pop	ebp
	ret	0
?deleteThis@BaseObject@Ogre@@MAEXXZ ENDP		; Ogre::BaseObject::deleteThis
_TEXT	ENDS
PUBLIC	??0BaseObject@Ogre@@QAE@ABV01@@Z		; Ogre::BaseObject::BaseObject
; Function compile flags: /Odtp
;	COMDAT ??0BaseObject@Ogre@@QAE@ABV01@@Z
_TEXT	SEGMENT
tv68 = -8						; size = 4
_this$ = -4						; size = 4
___that$ = 8						; size = 4
??0BaseObject@Ogre@@QAE@ABV01@@Z PROC			; Ogre::BaseObject::BaseObject, COMDAT
; _this$ = ecx
	push	ebp
	mov	ebp, esp
	sub	esp, 8
	mov	DWORD PTR _this$[ebp], ecx
	cmp	DWORD PTR ___that$[ebp], 0
	je	SHORT $LN3@BaseObject
	mov	eax, DWORD PTR ___that$[ebp]
	add	eax, 4
	mov	DWORD PTR tv68[ebp], eax
	jmp	SHORT $LN4@BaseObject
$LN3@BaseObject:
	mov	DWORD PTR tv68[ebp], 0
$LN4@BaseObject:
	mov	ecx, DWORD PTR _this$[ebp]
	mov	DWORD PTR [ecx], OFFSET ??_7BaseObject@Ogre@@6B@
	mov	edx, DWORD PTR _this$[ebp]
	mov	eax, DWORD PTR ___that$[ebp]
	mov	ecx, DWORD PTR [eax+4]
	mov	DWORD PTR [edx+4], ecx
	mov	eax, DWORD PTR _this$[ebp]
	mov	esp, ebp
	pop	ebp
	ret	4
??0BaseObject@Ogre@@QAE@ABV01@@Z ENDP			; Ogre::BaseObject::BaseObject
_TEXT	ENDS
PUBLIC	??4BaseObject@Ogre@@QAEAAV01@ABV01@@Z		; Ogre::BaseObject::operator=
; Function compile flags: /Odtp
;	COMDAT ??4BaseObject@Ogre@@QAEAAV01@ABV01@@Z
_TEXT	SEGMENT
_this$ = -4						; size = 4
___that$ = 8						; size = 4
??4BaseObject@Ogre@@QAEAAV01@ABV01@@Z PROC		; Ogre::BaseObject::operator=, COMDAT
; _this$ = ecx
	push	ebp
	mov	ebp, esp
	push	ecx
	mov	DWORD PTR _this$[ebp], ecx
	mov	eax, DWORD PTR _this$[ebp]
	mov	ecx, DWORD PTR ___that$[ebp]
	mov	edx, DWORD PTR [ecx+4]
	mov	DWORD PTR [eax+4], edx
	mov	eax, DWORD PTR _this$[ebp]
	mov	esp, ebp
	pop	ebp
	ret	4
??4BaseObject@Ogre@@QAEAAV01@ABV01@@Z ENDP		; Ogre::BaseObject::operator=
_TEXT	ENDS
PUBLIC	??_GBaseObject@Ogre@@MAEPAXI@Z			; Ogre::BaseObject::`scalar deleting destructor'
EXTRN	??3MemoryDelegation@Ogre@@SAXPAXI@Z:PROC	; Ogre::MemoryDelegation::operator delete
; Function compile flags: /Odtp
;	COMDAT ??_GBaseObject@Ogre@@MAEPAXI@Z
_TEXT	SEGMENT
_this$ = -4						; size = 4
___flags$ = 8						; size = 4
??_GBaseObject@Ogre@@MAEPAXI@Z PROC			; Ogre::BaseObject::`scalar deleting destructor', COMDAT
; _this$ = ecx
	push	ebp
	mov	ebp, esp
	push	ecx
	mov	DWORD PTR _this$[ebp], ecx
	mov	ecx, DWORD PTR _this$[ebp]
	call	??1BaseObject@Ogre@@MAE@XZ		; Ogre::BaseObject::~BaseObject
	mov	eax, DWORD PTR ___flags$[ebp]
	and	eax, 1
	je	SHORT $LN1@scalar@7
	push	8
	mov	ecx, DWORD PTR _this$[ebp]
	push	ecx
	call	??3MemoryDelegation@Ogre@@SAXPAXI@Z	; Ogre::MemoryDelegation::operator delete
	add	esp, 8
$LN1@scalar@7:
	mov	eax, DWORD PTR _this$[ebp]
	mov	esp, ebp
	pop	ebp
	ret	4
??_GBaseObject@Ogre@@MAEPAXI@Z ENDP			; Ogre::BaseObject::`scalar deleting destructor'
_TEXT	ENDS
EXTRN	??_VMemoryDelegation@Ogre@@SAXPAXI@Z:PROC	; Ogre::MemoryDelegation::operator delete[]
; Function compile flags: /Odtp
;	COMDAT ??_EBaseObject@Ogre@@MAEPAXI@Z
_TEXT	SEGMENT
_this$ = -4						; size = 4
___flags$ = 8						; size = 4
??_EBaseObject@Ogre@@MAEPAXI@Z PROC			; Ogre::BaseObject::`vector deleting destructor', COMDAT
; _this$ = ecx
	push	ebp
	mov	ebp, esp
	push	ecx
	mov	DWORD PTR _this$[ebp], ecx
	mov	eax, DWORD PTR ___flags$[ebp]
	and	eax, 2
	je	SHORT $LN3@vector@7
	push	OFFSET ??1BaseObject@Ogre@@MAE@XZ	; Ogre::BaseObject::~BaseObject
	mov	ecx, DWORD PTR _this$[ebp]
	mov	edx, DWORD PTR [ecx-4]
	push	edx
	push	8
	mov	eax, DWORD PTR _this$[ebp]
	push	eax
	call	??_M@YGXPAXIHP6EX0@Z@Z
	mov	ecx, DWORD PTR ___flags$[ebp]
	and	ecx, 1
	je	SHORT $LN2@vector@7
	push	8
	mov	edx, DWORD PTR _this$[ebp]
	sub	edx, 4
	push	edx
	call	??_VMemoryDelegation@Ogre@@SAXPAXI@Z	; Ogre::MemoryDelegation::operator delete[]
	add	esp, 8
$LN2@vector@7:
	mov	eax, DWORD PTR _this$[ebp]
	sub	eax, 4
	jmp	SHORT $LN4@vector@7
$LN3@vector@7:
	mov	ecx, DWORD PTR _this$[ebp]
	call	??1BaseObject@Ogre@@MAE@XZ		; Ogre::BaseObject::~BaseObject
	mov	eax, DWORD PTR ___flags$[ebp]
	and	eax, 1
	je	SHORT $LN1@vector@7
	push	8
	mov	ecx, DWORD PTR _this$[ebp]
	push	ecx
	call	??3MemoryDelegation@Ogre@@SAXPAXI@Z	; Ogre::MemoryDelegation::operator delete
	add	esp, 8
$LN1@vector@7:
	mov	eax, DWORD PTR _this$[ebp]
$LN4@vector@7:
	mov	esp, ebp
	pop	ebp
	ret	4
??_EBaseObject@Ogre@@MAEPAXI@Z ENDP			; Ogre::BaseObject::`vector deleting destructor'
_TEXT	ENDS
PUBLIC	??_7Archive@Ogre@@6B@				; Ogre::Archive::`vftable'
PUBLIC	??0Archive@Ogre@@QAE@PAVDataStream@1@H@Z	; Ogre::Archive::Archive
PUBLIC	??_R4Archive@Ogre@@6B@				; Ogre::Archive::`RTTI Complete Object Locator'
PUBLIC	??_R0?AVArchive@Ogre@@@8			; Ogre::Archive `RTTI Type Descriptor'
PUBLIC	??_R3Archive@Ogre@@8				; Ogre::Archive::`RTTI Class Hierarchy Descriptor'
PUBLIC	??_R2Archive@Ogre@@8				; Ogre::Archive::`RTTI Base Class Array'
PUBLIC	??_R1A@?0A@EA@Archive@Ogre@@8			; Ogre::Archive::`RTTI Base Class Descriptor at (0,-1,0,64)'
PUBLIC	??_EArchive@Ogre@@UAEPAXI@Z			; Ogre::Archive::`vector deleting destructor'
;	COMDAT ??_R1A@?0A@EA@Archive@Ogre@@8
; File i:\svnroot\client\ogremain\ogrearchive.h
rdata$r	SEGMENT
??_R1A@?0A@EA@Archive@Ogre@@8 DD FLAT:??_R0?AVArchive@Ogre@@@8 ; Ogre::Archive::`RTTI Base Class Descriptor at (0,-1,0,64)'
	DD	00H
	DD	00H
	DD	0ffffffffH
	DD	00H
	DD	040H
	DD	FLAT:??_R3Archive@Ogre@@8
rdata$r	ENDS
;	COMDAT ??_R2Archive@Ogre@@8
rdata$r	SEGMENT
??_R2Archive@Ogre@@8 DD FLAT:??_R1A@?0A@EA@Archive@Ogre@@8 ; Ogre::Archive::`RTTI Base Class Array'
rdata$r	ENDS
;	COMDAT ??_R3Archive@Ogre@@8
rdata$r	SEGMENT
??_R3Archive@Ogre@@8 DD 00H				; Ogre::Archive::`RTTI Class Hierarchy Descriptor'
	DD	00H
	DD	01H
	DD	FLAT:??_R2Archive@Ogre@@8
rdata$r	ENDS
;	COMDAT ??_R0?AVArchive@Ogre@@@8
_DATA	SEGMENT
??_R0?AVArchive@Ogre@@@8 DD FLAT:??_7type_info@@6B@	; Ogre::Archive `RTTI Type Descriptor'
	DD	00H
	DB	'.?AVArchive@Ogre@@', 00H
_DATA	ENDS
;	COMDAT ??_R4Archive@Ogre@@6B@
rdata$r	SEGMENT
??_R4Archive@Ogre@@6B@ DD 00H				; Ogre::Archive::`RTTI Complete Object Locator'
	DD	00H
	DD	00H
	DD	FLAT:??_R0?AVArchive@Ogre@@@8
	DD	FLAT:??_R3Archive@Ogre@@8
rdata$r	ENDS
;	COMDAT ??_7Archive@Ogre@@6B@
CONST	SEGMENT
??_7Archive@Ogre@@6B@ DD FLAT:??_R4Archive@Ogre@@6B@	; Ogre::Archive::`vftable'
	DD	FLAT:??_EArchive@Ogre@@UAEPAXI@Z
; Function compile flags: /Odtp
CONST	ENDS
;	COMDAT ??0Archive@Ogre@@QAE@PAVDataStream@1@H@Z
_TEXT	SEGMENT
_this$ = -4						; size = 4
_pstream$ = 8						; size = 4
_mode$ = 12						; size = 4
??0Archive@Ogre@@QAE@PAVDataStream@1@H@Z PROC		; Ogre::Archive::Archive, COMDAT
; _this$ = ecx

; 22   : 		{

	push	ebp
	mov	ebp, esp
	push	ecx
	mov	DWORD PTR _this$[ebp], ecx
	mov	eax, DWORD PTR _this$[ebp]
	mov	DWORD PTR [eax], OFFSET ??_7Archive@Ogre@@6B@
	mov	ecx, DWORD PTR _this$[ebp]
	mov	edx, DWORD PTR _pstream$[ebp]
	mov	DWORD PTR [ecx+4], edx
	mov	eax, DWORD PTR _this$[ebp]
	mov	ecx, DWORD PTR _mode$[ebp]
	mov	DWORD PTR [eax+8], ecx

; 23   : 		}

	mov	eax, DWORD PTR _this$[ebp]
	mov	esp, ebp
	pop	ebp
	ret	8
??0Archive@Ogre@@QAE@PAVDataStream@1@H@Z ENDP		; Ogre::Archive::Archive
_TEXT	ENDS
PUBLIC	??1Archive@Ogre@@UAE@XZ				; Ogre::Archive::~Archive
; Function compile flags: /Odtp
;	COMDAT ??1Archive@Ogre@@UAE@XZ
_TEXT	SEGMENT
_this$ = -4						; size = 4
??1Archive@Ogre@@UAE@XZ PROC				; Ogre::Archive::~Archive, COMDAT
; _this$ = ecx

; 26   : 		{

	push	ebp
	mov	ebp, esp
	push	ecx
	mov	DWORD PTR _this$[ebp], ecx
	mov	eax, DWORD PTR _this$[ebp]
	mov	DWORD PTR [eax], OFFSET ??_7Archive@Ogre@@6B@

; 27   : 		}

	mov	esp, ebp
	pop	ebp
	ret	0
??1Archive@Ogre@@UAE@XZ ENDP				; Ogre::Archive::~Archive
_TEXT	ENDS
PUBLIC	?isLoading@Archive@Ogre@@QAE_NXZ		; Ogre::Archive::isLoading
; Function compile flags: /Odtp
;	COMDAT ?isLoading@Archive@Ogre@@QAE_NXZ
_TEXT	SEGMENT
_this$ = -4						; size = 4
?isLoading@Archive@Ogre@@QAE_NXZ PROC			; Ogre::Archive::isLoading, COMDAT
; _this$ = ecx

; 30   : 		{

	push	ebp
	mov	ebp, esp
	push	ecx
	mov	DWORD PTR _this$[ebp], ecx

; 31   : 			return m_Mode==MODE_LOAD;

	mov	eax, DWORD PTR _this$[ebp]
	xor	ecx, ecx
	cmp	DWORD PTR [eax+8], 1
	sete	cl
	mov	al, cl

; 32   : 		}

	mov	esp, ebp
	pop	ebp
	ret	0
?isLoading@Archive@Ogre@@QAE_NXZ ENDP			; Ogre::Archive::isLoading
_TEXT	ENDS
PUBLIC	?serialize@Archive@Ogre@@QAEAAV12@PAXI@Z	; Ogre::Archive::serialize
PUBLIC	??6Archive@Ogre@@QAEAAV01@AAD@Z			; Ogre::Archive::operator<<
; Function compile flags: /Odtp
;	COMDAT ??6Archive@Ogre@@QAEAAV01@AAD@Z
_TEXT	SEGMENT
_this$ = -4						; size = 4
_value$ = 8						; size = 4
??6Archive@Ogre@@QAEAAV01@AAD@Z PROC			; Ogre::Archive::operator<<, COMDAT
; _this$ = ecx

; 108  : 		SERIALIZE_PRIMITIVE_FUNC(char)

	push	ebp
	mov	ebp, esp
	push	ecx
	mov	DWORD PTR _this$[ebp], ecx
	push	1
	mov	eax, DWORD PTR _value$[ebp]
	push	eax
	mov	ecx, DWORD PTR _this$[ebp]
	call	?serialize@Archive@Ogre@@QAEAAV12@PAXI@Z ; Ogre::Archive::serialize
	mov	eax, DWORD PTR _this$[ebp]
	mov	esp, ebp
	pop	ebp
	ret	4
??6Archive@Ogre@@QAEAAV01@AAD@Z ENDP			; Ogre::Archive::operator<<
_TEXT	ENDS
PUBLIC	??6Archive@Ogre@@QAEAAV01@AAF@Z			; Ogre::Archive::operator<<
; Function compile flags: /Odtp
;	COMDAT ??6Archive@Ogre@@QAEAAV01@AAF@Z
_TEXT	SEGMENT
_this$ = -4						; size = 4
_value$ = 8						; size = 4
??6Archive@Ogre@@QAEAAV01@AAF@Z PROC			; Ogre::Archive::operator<<, COMDAT
; _this$ = ecx

; 109  : 		SERIALIZE_PRIMITIVE_FUNC(short)

	push	ebp
	mov	ebp, esp
	push	ecx
	mov	DWORD PTR _this$[ebp], ecx
	push	2
	mov	eax, DWORD PTR _value$[ebp]
	push	eax
	mov	ecx, DWORD PTR _this$[ebp]
	call	?serialize@Archive@Ogre@@QAEAAV12@PAXI@Z ; Ogre::Archive::serialize
	mov	eax, DWORD PTR _this$[ebp]
	mov	esp, ebp
	pop	ebp
	ret	4
??6Archive@Ogre@@QAEAAV01@AAF@Z ENDP			; Ogre::Archive::operator<<
_TEXT	ENDS
PUBLIC	??6Archive@Ogre@@QAEAAV01@AAH@Z			; Ogre::Archive::operator<<
; Function compile flags: /Odtp
;	COMDAT ??6Archive@Ogre@@QAEAAV01@AAH@Z
_TEXT	SEGMENT
_this$ = -4						; size = 4
_value$ = 8						; size = 4
??6Archive@Ogre@@QAEAAV01@AAH@Z PROC			; Ogre::Archive::operator<<, COMDAT
; _this$ = ecx

; 110  : 		SERIALIZE_PRIMITIVE_FUNC(int)

	push	ebp
	mov	ebp, esp
	push	ecx
	mov	DWORD PTR _this$[ebp], ecx
	push	4
	mov	eax, DWORD PTR _value$[ebp]
	push	eax
	mov	ecx, DWORD PTR _this$[ebp]
	call	?serialize@Archive@Ogre@@QAEAAV12@PAXI@Z ; Ogre::Archive::serialize
	mov	eax, DWORD PTR _this$[ebp]
	mov	esp, ebp
	pop	ebp
	ret	4
??6Archive@Ogre@@QAEAAV01@AAH@Z ENDP			; Ogre::Archive::operator<<
_TEXT	ENDS
PUBLIC	??6Archive@Ogre@@QAEAAV01@AA_J@Z		; Ogre::Archive::operator<<
; Function compile flags: /Odtp
;	COMDAT ??6Archive@Ogre@@QAEAAV01@AA_J@Z
_TEXT	SEGMENT
_this$ = -4						; size = 4
_value$ = 8						; size = 4
??6Archive@Ogre@@QAEAAV01@AA_J@Z PROC			; Ogre::Archive::operator<<, COMDAT
; _this$ = ecx

; 111  : 		SERIALIZE_PRIMITIVE_FUNC(int64)

	push	ebp
	mov	ebp, esp
	push	ecx
	mov	DWORD PTR _this$[ebp], ecx
	push	8
	mov	eax, DWORD PTR _value$[ebp]
	push	eax
	mov	ecx, DWORD PTR _this$[ebp]
	call	?serialize@Archive@Ogre@@QAEAAV12@PAXI@Z ; Ogre::Archive::serialize
	mov	eax, DWORD PTR _this$[ebp]
	mov	esp, ebp
	pop	ebp
	ret	4
??6Archive@Ogre@@QAEAAV01@AA_J@Z ENDP			; Ogre::Archive::operator<<
_TEXT	ENDS
PUBLIC	??6Archive@Ogre@@QAEAAV01@AAE@Z			; Ogre::Archive::operator<<
; Function compile flags: /Odtp
;	COMDAT ??6Archive@Ogre@@QAEAAV01@AAE@Z
_TEXT	SEGMENT
_this$ = -4						; size = 4
_value$ = 8						; size = 4
??6Archive@Ogre@@QAEAAV01@AAE@Z PROC			; Ogre::Archive::operator<<, COMDAT
; _this$ = ecx

; 112  : 		SERIALIZE_PRIMITIVE_FUNC(uchar)

	push	ebp
	mov	ebp, esp
	push	ecx
	mov	DWORD PTR _this$[ebp], ecx
	push	1
	mov	eax, DWORD PTR _value$[ebp]
	push	eax
	mov	ecx, DWORD PTR _this$[ebp]
	call	?serialize@Archive@Ogre@@QAEAAV12@PAXI@Z ; Ogre::Archive::serialize
	mov	eax, DWORD PTR _this$[ebp]
	mov	esp, ebp
	pop	ebp
	ret	4
??6Archive@Ogre@@QAEAAV01@AAE@Z ENDP			; Ogre::Archive::operator<<
_TEXT	ENDS
PUBLIC	??6Archive@Ogre@@QAEAAV01@AAG@Z			; Ogre::Archive::operator<<
; Function compile flags: /Odtp
;	COMDAT ??6Archive@Ogre@@QAEAAV01@AAG@Z
_TEXT	SEGMENT
_this$ = -4						; size = 4
_value$ = 8						; size = 4
??6Archive@Ogre@@QAEAAV01@AAG@Z PROC			; Ogre::Archive::operator<<, COMDAT
; _this$ = ecx

; 113  : 		SERIALIZE_PRIMITIVE_FUNC(ushort)

	push	ebp
	mov	ebp, esp
	push	ecx
	mov	DWORD PTR _this$[ebp], ecx
	push	2
	mov	eax, DWORD PTR _value$[ebp]
	push	eax
	mov	ecx, DWORD PTR _this$[ebp]
	call	?serialize@Archive@Ogre@@QAEAAV12@PAXI@Z ; Ogre::Archive::serialize
	mov	eax, DWORD PTR _this$[ebp]
	mov	esp, ebp
	pop	ebp
	ret	4
??6Archive@Ogre@@QAEAAV01@AAG@Z ENDP			; Ogre::Archive::operator<<
_TEXT	ENDS
PUBLIC	??6Archive@Ogre@@QAEAAV01@AAI@Z			; Ogre::Archive::operator<<
; Function compile flags: /Odtp
;	COMDAT ??6Archive@Ogre@@QAEAAV01@AAI@Z
_TEXT	SEGMENT
_this$ = -4						; size = 4
_value$ = 8						; size = 4
??6Archive@Ogre@@QAEAAV01@AAI@Z PROC			; Ogre::Archive::operator<<, COMDAT
; _this$ = ecx

; 114  : 		SERIALIZE_PRIMITIVE_FUNC(uint)

	push	ebp
	mov	ebp, esp
	push	ecx
	mov	DWORD PTR _this$[ebp], ecx
	push	4
	mov	eax, DWORD PTR _value$[ebp]
	push	eax
	mov	ecx, DWORD PTR _this$[ebp]
	call	?serialize@Archive@Ogre@@QAEAAV12@PAXI@Z ; Ogre::Archive::serialize
	mov	eax, DWORD PTR _this$[ebp]
	mov	esp, ebp
	pop	ebp
	ret	4
??6Archive@Ogre@@QAEAAV01@AAI@Z ENDP			; Ogre::Archive::operator<<
_TEXT	ENDS
PUBLIC	??6Archive@Ogre@@QAEAAV01@AA_K@Z		; Ogre::Archive::operator<<
; Function compile flags: /Odtp
;	COMDAT ??6Archive@Ogre@@QAEAAV01@AA_K@Z
_TEXT	SEGMENT
_this$ = -4						; size = 4
_value$ = 8						; size = 4
??6Archive@Ogre@@QAEAAV01@AA_K@Z PROC			; Ogre::Archive::operator<<, COMDAT
; _this$ = ecx

; 115  : 		SERIALIZE_PRIMITIVE_FUNC(uint64)

	push	ebp
	mov	ebp, esp
	push	ecx
	mov	DWORD PTR _this$[ebp], ecx
	push	8
	mov	eax, DWORD PTR _value$[ebp]
	push	eax
	mov	ecx, DWORD PTR _this$[ebp]
	call	?serialize@Archive@Ogre@@QAEAAV12@PAXI@Z ; Ogre::Archive::serialize
	mov	eax, DWORD PTR _this$[ebp]
	mov	esp, ebp
	pop	ebp
	ret	4
??6Archive@Ogre@@QAEAAV01@AA_K@Z ENDP			; Ogre::Archive::operator<<
_TEXT	ENDS
PUBLIC	??6Archive@Ogre@@QAEAAV01@AA_N@Z		; Ogre::Archive::operator<<
; Function compile flags: /Odtp
;	COMDAT ??6Archive@Ogre@@QAEAAV01@AA_N@Z
_TEXT	SEGMENT
_this$ = -4						; size = 4
_value$ = 8						; size = 4
??6Archive@Ogre@@QAEAAV01@AA_N@Z PROC			; Ogre::Archive::operator<<, COMDAT
; _this$ = ecx

; 116  : 		SERIALIZE_PRIMITIVE_FUNC(bool)

	push	ebp
	mov	ebp, esp
	push	ecx
	mov	DWORD PTR _this$[ebp], ecx
	push	1
	mov	eax, DWORD PTR _value$[ebp]
	push	eax
	mov	ecx, DWORD PTR _this$[ebp]
	call	?serialize@Archive@Ogre@@QAEAAV12@PAXI@Z ; Ogre::Archive::serialize
	mov	eax, DWORD PTR _this$[ebp]
	mov	esp, ebp
	pop	ebp
	ret	4
??6Archive@Ogre@@QAEAAV01@AA_N@Z ENDP			; Ogre::Archive::operator<<
_TEXT	ENDS
PUBLIC	??6Archive@Ogre@@QAEAAV01@AAM@Z			; Ogre::Archive::operator<<
; Function compile flags: /Odtp
;	COMDAT ??6Archive@Ogre@@QAEAAV01@AAM@Z
_TEXT	SEGMENT
_this$ = -4						; size = 4
_value$ = 8						; size = 4
??6Archive@Ogre@@QAEAAV01@AAM@Z PROC			; Ogre::Archive::operator<<, COMDAT
; _this$ = ecx

; 117  : 		SERIALIZE_PRIMITIVE_FUNC(float)

	push	ebp
	mov	ebp, esp
	push	ecx
	mov	DWORD PTR _this$[ebp], ecx
	push	4
	mov	eax, DWORD PTR _value$[ebp]
	push	eax
	mov	ecx, DWORD PTR _this$[ebp]
	call	?serialize@Archive@Ogre@@QAEAAV12@PAXI@Z ; Ogre::Archive::serialize
	mov	eax, DWORD PTR _this$[ebp]
	mov	esp, ebp
	pop	ebp
	ret	4
??6Archive@Ogre@@QAEAAV01@AAM@Z ENDP			; Ogre::Archive::operator<<
; Function compile flags: /Odtp
_TEXT	ENDS
;	COMDAT ?serialize@Archive@Ogre@@QAEAAV12@PAXI@Z
_TEXT	SEGMENT
_this$ = -4						; size = 4
_pbuf$ = 8						; size = 4
_len$ = 12						; size = 4
?serialize@Archive@Ogre@@QAEAAV12@PAXI@Z PROC		; Ogre::Archive::serialize, COMDAT
; _this$ = ecx

; 155  : 		{

	push	ebp
	mov	ebp, esp
	push	ecx
	mov	DWORD PTR _this$[ebp], ecx

; 156  : 			if(isLoading()) m_pStream->read(pbuf, len);

	mov	ecx, DWORD PTR _this$[ebp]
	call	?isLoading@Archive@Ogre@@QAE_NXZ	; Ogre::Archive::isLoading
	movzx	eax, al
	test	eax, eax
	je	SHORT $LN2@serialize
	mov	ecx, DWORD PTR _len$[ebp]
	push	ecx
	mov	edx, DWORD PTR _pbuf$[ebp]
	push	edx
	mov	eax, DWORD PTR _this$[ebp]
	mov	ecx, DWORD PTR [eax+4]
	mov	edx, DWORD PTR _this$[ebp]
	mov	eax, DWORD PTR [edx+4]
	mov	edx, DWORD PTR [ecx]
	mov	ecx, eax
	mov	eax, DWORD PTR [edx+4]
	call	eax
	jmp	SHORT $LN1@serialize
$LN2@serialize:

; 157  : 			else m_pStream->write(pbuf, len);

	mov	ecx, DWORD PTR _len$[ebp]
	push	ecx
	mov	edx, DWORD PTR _pbuf$[ebp]
	push	edx
	mov	eax, DWORD PTR _this$[ebp]
	mov	ecx, DWORD PTR [eax+4]
	mov	edx, DWORD PTR _this$[ebp]
	mov	eax, DWORD PTR [edx+4]
	mov	edx, DWORD PTR [ecx]
	mov	ecx, eax
	mov	eax, DWORD PTR [edx+8]
	call	eax
$LN1@serialize:

; 158  : 
; 159  : 			return *this;

	mov	eax, DWORD PTR _this$[ebp]

; 160  : 		}

	mov	esp, ebp
	pop	ebp
	ret	8
?serialize@Archive@Ogre@@QAEAAV12@PAXI@Z ENDP		; Ogre::Archive::serialize
_TEXT	ENDS
PUBLIC	?read@Archive@Ogre@@QAEXPAXI@Z			; Ogre::Archive::read
; Function compile flags: /Odtp
;	COMDAT ?read@Archive@Ogre@@QAEXPAXI@Z
_TEXT	SEGMENT
_this$ = -4						; size = 4
_pbuf$ = 8						; size = 4
_len$ = 12						; size = 4
?read@Archive@Ogre@@QAEXPAXI@Z PROC			; Ogre::Archive::read, COMDAT
; _this$ = ecx

; 163  : 		{

	push	ebp
	mov	ebp, esp
	push	ecx
	mov	DWORD PTR _this$[ebp], ecx

; 164  : 			m_pStream->read(pbuf, len);

	mov	eax, DWORD PTR _len$[ebp]
	push	eax
	mov	ecx, DWORD PTR _pbuf$[ebp]
	push	ecx
	mov	edx, DWORD PTR _this$[ebp]
	mov	eax, DWORD PTR [edx+4]
	mov	ecx, DWORD PTR _this$[ebp]
	mov	ecx, DWORD PTR [ecx+4]
	mov	edx, DWORD PTR [eax]
	mov	eax, DWORD PTR [edx+4]
	call	eax

; 165  : 		}

	mov	esp, ebp
	pop	ebp
	ret	8
?read@Archive@Ogre@@QAEXPAXI@Z ENDP			; Ogre::Archive::read
_TEXT	ENDS
PUBLIC	?write@Archive@Ogre@@QAEXPBXI@Z			; Ogre::Archive::write
; Function compile flags: /Odtp
;	COMDAT ?write@Archive@Ogre@@QAEXPBXI@Z
_TEXT	SEGMENT
_this$ = -4						; size = 4
_pbuf$ = 8						; size = 4
_len$ = 12						; size = 4
?write@Archive@Ogre@@QAEXPBXI@Z PROC			; Ogre::Archive::write, COMDAT
; _this$ = ecx

; 168  : 		{

	push	ebp
	mov	ebp, esp
	push	ecx
	mov	DWORD PTR _this$[ebp], ecx

; 169  : 			m_pStream->write(pbuf, len);

	mov	eax, DWORD PTR _len$[ebp]
	push	eax
	mov	ecx, DWORD PTR _pbuf$[ebp]
	push	ecx
	mov	edx, DWORD PTR _this$[ebp]
	mov	eax, DWORD PTR [edx+4]
	mov	ecx, DWORD PTR _this$[ebp]
	mov	ecx, DWORD PTR [ecx+4]
	mov	edx, DWORD PTR [eax]
	mov	eax, DWORD PTR [edx+8]
	call	eax

; 170  : 		}

	mov	esp, ebp
	pop	ebp
	ret	8
?write@Archive@Ogre@@QAEXPBXI@Z ENDP			; Ogre::Archive::write
_TEXT	ENDS
PUBLIC	??0Archive@Ogre@@QAE@ABV01@@Z			; Ogre::Archive::Archive
; Function compile flags: /Odtp
;	COMDAT ??0Archive@Ogre@@QAE@ABV01@@Z
_TEXT	SEGMENT
_this$ = -4						; size = 4
___that$ = 8						; size = 4
??0Archive@Ogre@@QAE@ABV01@@Z PROC			; Ogre::Archive::Archive, COMDAT
; _this$ = ecx
	push	ebp
	mov	ebp, esp
	push	ecx
	mov	DWORD PTR _this$[ebp], ecx
	mov	eax, DWORD PTR _this$[ebp]
	mov	DWORD PTR [eax], OFFSET ??_7Archive@Ogre@@6B@
	mov	ecx, DWORD PTR _this$[ebp]
	mov	edx, DWORD PTR ___that$[ebp]
	mov	eax, DWORD PTR [edx+4]
	mov	DWORD PTR [ecx+4], eax
	mov	ecx, DWORD PTR _this$[ebp]
	mov	edx, DWORD PTR ___that$[ebp]
	mov	eax, DWORD PTR [edx+8]
	mov	DWORD PTR [ecx+8], eax
	mov	eax, DWORD PTR _this$[ebp]
	mov	esp, ebp
	pop	ebp
	ret	4
??0Archive@Ogre@@QAE@ABV01@@Z ENDP			; Ogre::Archive::Archive
_TEXT	ENDS
PUBLIC	??4Archive@Ogre@@QAEAAV01@ABV01@@Z		; Ogre::Archive::operator=
; Function compile flags: /Odtp
;	COMDAT ??4Archive@Ogre@@QAEAAV01@ABV01@@Z
_TEXT	SEGMENT
_this$ = -4						; size = 4
___that$ = 8						; size = 4
??4Archive@Ogre@@QAEAAV01@ABV01@@Z PROC			; Ogre::Archive::operator=, COMDAT
; _this$ = ecx
	push	ebp
	mov	ebp, esp
	push	ecx
	mov	DWORD PTR _this$[ebp], ecx
	mov	eax, DWORD PTR _this$[ebp]
	mov	ecx, DWORD PTR ___that$[ebp]
	mov	edx, DWORD PTR [ecx+4]
	mov	DWORD PTR [eax+4], edx
	mov	eax, DWORD PTR _this$[ebp]
	mov	ecx, DWORD PTR ___that$[ebp]
	mov	edx, DWORD PTR [ecx+8]
	mov	DWORD PTR [eax+8], edx
	mov	eax, DWORD PTR _this$[ebp]
	mov	esp, ebp
	pop	ebp
	ret	4
??4Archive@Ogre@@QAEAAV01@ABV01@@Z ENDP			; Ogre::Archive::operator=
_TEXT	ENDS
PUBLIC	??_GArchive@Ogre@@UAEPAXI@Z			; Ogre::Archive::`scalar deleting destructor'
; Function compile flags: /Odtp
;	COMDAT ??_GArchive@Ogre@@UAEPAXI@Z
_TEXT	SEGMENT
_this$ = -4						; size = 4
___flags$ = 8						; size = 4
??_GArchive@Ogre@@UAEPAXI@Z PROC			; Ogre::Archive::`scalar deleting destructor', COMDAT
; _this$ = ecx
	push	ebp
	mov	ebp, esp
	push	ecx
	mov	DWORD PTR _this$[ebp], ecx
	mov	ecx, DWORD PTR _this$[ebp]
	call	??1Archive@Ogre@@UAE@XZ			; Ogre::Archive::~Archive
	mov	eax, DWORD PTR ___flags$[ebp]
	and	eax, 1
	je	SHORT $LN1@scalar@8
	mov	ecx, DWORD PTR _this$[ebp]
	push	ecx
	call	??3@YAXPAX@Z				; operator delete
	add	esp, 4
$LN1@scalar@8:
	mov	eax, DWORD PTR _this$[ebp]
	mov	esp, ebp
	pop	ebp
	ret	4
??_GArchive@Ogre@@UAEPAXI@Z ENDP			; Ogre::Archive::`scalar deleting destructor'
; Function compile flags: /Odtp
_TEXT	ENDS
;	COMDAT ??_EArchive@Ogre@@UAEPAXI@Z
_TEXT	SEGMENT
_this$ = -4						; size = 4
___flags$ = 8						; size = 4
??_EArchive@Ogre@@UAEPAXI@Z PROC			; Ogre::Archive::`vector deleting destructor', COMDAT
; _this$ = ecx
	push	ebp
	mov	ebp, esp
	push	ecx
	mov	DWORD PTR _this$[ebp], ecx
	mov	eax, DWORD PTR ___flags$[ebp]
	and	eax, 2
	je	SHORT $LN3@vector@8
	push	OFFSET ??1Archive@Ogre@@UAE@XZ		; Ogre::Archive::~Archive
	mov	ecx, DWORD PTR _this$[ebp]
	mov	edx, DWORD PTR [ecx-4]
	push	edx
	push	12					; 0000000cH
	mov	eax, DWORD PTR _this$[ebp]
	push	eax
	call	??_M@YGXPAXIHP6EX0@Z@Z
	mov	ecx, DWORD PTR ___flags$[ebp]
	and	ecx, 1
	je	SHORT $LN2@vector@8
	mov	edx, DWORD PTR _this$[ebp]
	sub	edx, 4
	push	edx
	call	??_V@YAXPAX@Z				; operator delete[]
	add	esp, 4
$LN2@vector@8:
	mov	eax, DWORD PTR _this$[ebp]
	sub	eax, 4
	jmp	SHORT $LN4@vector@8
$LN3@vector@8:
	mov	ecx, DWORD PTR _this$[ebp]
	call	??1Archive@Ogre@@UAE@XZ			; Ogre::Archive::~Archive
	mov	eax, DWORD PTR ___flags$[ebp]
	and	eax, 1
	je	SHORT $LN1@vector@8
	mov	ecx, DWORD PTR _this$[ebp]
	push	ecx
	call	??3@YAXPAX@Z				; operator delete
	add	esp, 4
$LN1@vector@8:
	mov	eax, DWORD PTR _this$[ebp]
$LN4@vector@8:
	mov	esp, ebp
	pop	ebp
	ret	4
??_EArchive@Ogre@@UAEPAXI@Z ENDP			; Ogre::Archive::`vector deleting destructor'
_TEXT	ENDS
PUBLIC	??0Vector3@Ogre@@QAE@XZ				; Ogre::Vector3::Vector3
; Function compile flags: /Odtp
; File i:\svnroot\client\ogremain\ogrevector3.h
;	COMDAT ??0Vector3@Ogre@@QAE@XZ
_TEXT	SEGMENT
_this$ = -4						; size = 4
??0Vector3@Ogre@@QAE@XZ PROC				; Ogre::Vector3::Vector3, COMDAT
; _this$ = ecx

; 49   : 		Vector3(){}

	push	ebp
	mov	ebp, esp
	push	ecx
	mov	DWORD PTR _this$[ebp], ecx
	mov	eax, DWORD PTR _this$[ebp]
	mov	esp, ebp
	pop	ebp
	ret	0
??0Vector3@Ogre@@QAE@XZ ENDP				; Ogre::Vector3::Vector3
_TEXT	ENDS
PUBLIC	??0Vector3@Ogre@@QAE@ABV01@@Z			; Ogre::Vector3::Vector3
EXTRN	__fltused:DWORD
; Function compile flags: /Odtp
;	COMDAT ??0Vector3@Ogre@@QAE@ABV01@@Z
_TEXT	SEGMENT
_this$ = -4						; size = 4
_rhs$ = 8						; size = 4
??0Vector3@Ogre@@QAE@ABV01@@Z PROC			; Ogre::Vector3::Vector3, COMDAT
; _this$ = ecx

; 50   : 		Vector3(const Vector3 &rhs)

	push	ebp
	mov	ebp, esp
	push	ecx
	mov	DWORD PTR _this$[ebp], ecx

; 51   : 		{
; 52   : 			x = rhs.x;

	mov	eax, DWORD PTR _this$[ebp]
	mov	ecx, DWORD PTR _rhs$[ebp]
	fld	DWORD PTR [ecx]
	fstp	DWORD PTR [eax]

; 53   : 			y = rhs.y;

	mov	edx, DWORD PTR _this$[ebp]
	mov	eax, DWORD PTR _rhs$[ebp]
	fld	DWORD PTR [eax+4]
	fstp	DWORD PTR [edx+4]

; 54   : 			z = rhs.z;

	mov	ecx, DWORD PTR _this$[ebp]
	mov	edx, DWORD PTR _rhs$[ebp]
	fld	DWORD PTR [edx+8]
	fstp	DWORD PTR [ecx+8]

; 55   : 		}

	mov	eax, DWORD PTR _this$[ebp]
	mov	esp, ebp
	pop	ebp
	ret	4
??0Vector3@Ogre@@QAE@ABV01@@Z ENDP			; Ogre::Vector3::Vector3
_TEXT	ENDS
PUBLIC	??0Vector3@Ogre@@QAE@MMM@Z			; Ogre::Vector3::Vector3
; Function compile flags: /Odtp
;	COMDAT ??0Vector3@Ogre@@QAE@MMM@Z
_TEXT	SEGMENT
_this$ = -4						; size = 4
_x1$ = 8						; size = 4
_y1$ = 12						; size = 4
_z1$ = 16						; size = 4
??0Vector3@Ogre@@QAE@MMM@Z PROC				; Ogre::Vector3::Vector3, COMDAT
; _this$ = ecx

; 56   : 		Vector3( float x1, float y1, float z1 ) : x(x1), y(y1), z(z1){}

	push	ebp
	mov	ebp, esp
	push	ecx
	mov	DWORD PTR _this$[ebp], ecx
	mov	eax, DWORD PTR _this$[ebp]
	fld	DWORD PTR _x1$[ebp]
	fstp	DWORD PTR [eax]
	mov	ecx, DWORD PTR _this$[ebp]
	fld	DWORD PTR _y1$[ebp]
	fstp	DWORD PTR [ecx+4]
	mov	edx, DWORD PTR _this$[ebp]
	fld	DWORD PTR _z1$[ebp]
	fstp	DWORD PTR [edx+8]
	mov	eax, DWORD PTR _this$[ebp]
	mov	esp, ebp
	pop	ebp
	ret	12					; 0000000cH
??0Vector3@Ogre@@QAE@MMM@Z ENDP				; Ogre::Vector3::Vector3
_TEXT	ENDS
PUBLIC	??0Vector3@Ogre@@QAE@M@Z			; Ogre::Vector3::Vector3
; Function compile flags: /Odtp
;	COMDAT ??0Vector3@Ogre@@QAE@M@Z
_TEXT	SEGMENT
_this$ = -4						; size = 4
_v$ = 8							; size = 4
??0Vector3@Ogre@@QAE@M@Z PROC				; Ogre::Vector3::Vector3, COMDAT
; _this$ = ecx

; 57   : 		Vector3(float v) : x(v), y(v), z(v){}

	push	ebp
	mov	ebp, esp
	push	ecx
	mov	DWORD PTR _this$[ebp], ecx
	mov	eax, DWORD PTR _this$[ebp]
	fld	DWORD PTR _v$[ebp]
	fstp	DWORD PTR [eax]
	mov	ecx, DWORD PTR _this$[ebp]
	fld	DWORD PTR _v$[ebp]
	fstp	DWORD PTR [ecx+4]
	mov	edx, DWORD PTR _this$[ebp]
	fld	DWORD PTR _v$[ebp]
	fstp	DWORD PTR [edx+8]
	mov	eax, DWORD PTR _this$[ebp]
	mov	esp, ebp
	pop	ebp
	ret	4
??0Vector3@Ogre@@QAE@M@Z ENDP				; Ogre::Vector3::Vector3
_TEXT	ENDS
PUBLIC	??0Vector3@Ogre@@QAE@PAM@Z			; Ogre::Vector3::Vector3
; Function compile flags: /Odtp
;	COMDAT ??0Vector3@Ogre@@QAE@PAM@Z
_TEXT	SEGMENT
_this$ = -4						; size = 4
_v$ = 8							; size = 4
??0Vector3@Ogre@@QAE@PAM@Z PROC				; Ogre::Vector3::Vector3, COMDAT
; _this$ = ecx

; 58   : 		Vector3(float* v) : x(v[0]), y(v[1]), z(v[2]){}

	push	ebp
	mov	ebp, esp
	push	ecx
	mov	DWORD PTR _this$[ebp], ecx
	mov	eax, DWORD PTR _this$[ebp]
	mov	ecx, DWORD PTR _v$[ebp]
	fld	DWORD PTR [ecx]
	fstp	DWORD PTR [eax]
	mov	edx, DWORD PTR _this$[ebp]
	mov	eax, DWORD PTR _v$[ebp]
	fld	DWORD PTR [eax+4]
	fstp	DWORD PTR [edx+4]
	mov	ecx, DWORD PTR _this$[ebp]
	mov	edx, DWORD PTR _v$[ebp]
	fld	DWORD PTR [edx+8]
	fstp	DWORD PTR [ecx+8]
	mov	eax, DWORD PTR _this$[ebp]
	mov	esp, ebp
	pop	ebp
	ret	4
??0Vector3@Ogre@@QAE@PAM@Z ENDP				; Ogre::Vector3::Vector3
_TEXT	ENDS
PUBLIC	??4Vector3@Ogre@@QAEABV01@ABV01@@Z		; Ogre::Vector3::operator=
; Function compile flags: /Odtp
;	COMDAT ??4Vector3@Ogre@@QAEABV01@ABV01@@Z
_TEXT	SEGMENT
_this$ = -4						; size = 4
_vec$ = 8						; size = 4
??4Vector3@Ogre@@QAEABV01@ABV01@@Z PROC			; Ogre::Vector3::operator=, COMDAT
; _this$ = ecx

; 61   : 		{

	push	ebp
	mov	ebp, esp
	push	ecx
	mov	DWORD PTR _this$[ebp], ecx

; 62   : 			x = vec.x;

	mov	eax, DWORD PTR _this$[ebp]
	mov	ecx, DWORD PTR _vec$[ebp]
	fld	DWORD PTR [ecx]
	fstp	DWORD PTR [eax]

; 63   : 			y = vec.y;

	mov	edx, DWORD PTR _this$[ebp]
	mov	eax, DWORD PTR _vec$[ebp]
	fld	DWORD PTR [eax+4]
	fstp	DWORD PTR [edx+4]

; 64   : 			z = vec.z;

	mov	ecx, DWORD PTR _this$[ebp]
	mov	edx, DWORD PTR _vec$[ebp]
	fld	DWORD PTR [edx+8]
	fstp	DWORD PTR [ecx+8]

; 65   : 			return *this;

	mov	eax, DWORD PTR _this$[ebp]

; 66   : 		}

	mov	esp, ebp
	pop	ebp
	ret	4
??4Vector3@Ogre@@QAEABV01@ABV01@@Z ENDP			; Ogre::Vector3::operator=
_TEXT	ENDS
PUBLIC	??YVector3@Ogre@@QAEXABV01@@Z			; Ogre::Vector3::operator+=
; Function compile flags: /Odtp
;	COMDAT ??YVector3@Ogre@@QAEXABV01@@Z
_TEXT	SEGMENT
_this$ = -4						; size = 4
_vec$ = 8						; size = 4
??YVector3@Ogre@@QAEXABV01@@Z PROC			; Ogre::Vector3::operator+=, COMDAT
; _this$ = ecx

; 68   : 		{

	push	ebp
	mov	ebp, esp
	push	ecx
	mov	DWORD PTR _this$[ebp], ecx

; 69   : 			x += vec.x;

	mov	eax, DWORD PTR _this$[ebp]
	fld	DWORD PTR [eax]
	mov	ecx, DWORD PTR _vec$[ebp]
	fadd	DWORD PTR [ecx]
	mov	edx, DWORD PTR _this$[ebp]
	fstp	DWORD PTR [edx]

; 70   : 			y += vec.y;

	mov	eax, DWORD PTR _this$[ebp]
	fld	DWORD PTR [eax+4]
	mov	ecx, DWORD PTR _vec$[ebp]
	fadd	DWORD PTR [ecx+4]
	mov	edx, DWORD PTR _this$[ebp]
	fstp	DWORD PTR [edx+4]

; 71   : 			z += vec.z;

	mov	eax, DWORD PTR _this$[ebp]
	fld	DWORD PTR [eax+8]
	mov	ecx, DWORD PTR _vec$[ebp]
	fadd	DWORD PTR [ecx+8]
	mov	edx, DWORD PTR _this$[ebp]
	fstp	DWORD PTR [edx+8]

; 72   : 		}

	mov	esp, ebp
	pop	ebp
	ret	4
??YVector3@Ogre@@QAEXABV01@@Z ENDP			; Ogre::Vector3::operator+=
_TEXT	ENDS
PUBLIC	??ZVector3@Ogre@@QAEXABV01@@Z			; Ogre::Vector3::operator-=
; Function compile flags: /Odtp
;	COMDAT ??ZVector3@Ogre@@QAEXABV01@@Z
_TEXT	SEGMENT
_this$ = -4						; size = 4
_vec$ = 8						; size = 4
??ZVector3@Ogre@@QAEXABV01@@Z PROC			; Ogre::Vector3::operator-=, COMDAT
; _this$ = ecx

; 74   : 		{

	push	ebp
	mov	ebp, esp
	push	ecx
	mov	DWORD PTR _this$[ebp], ecx

; 75   : 			x -= vec.x;

	mov	eax, DWORD PTR _this$[ebp]
	fld	DWORD PTR [eax]
	mov	ecx, DWORD PTR _vec$[ebp]
	fsub	DWORD PTR [ecx]
	mov	edx, DWORD PTR _this$[ebp]
	fstp	DWORD PTR [edx]

; 76   : 			y -= vec.y;

	mov	eax, DWORD PTR _this$[ebp]
	fld	DWORD PTR [eax+4]
	mov	ecx, DWORD PTR _vec$[ebp]
	fsub	DWORD PTR [ecx+4]
	mov	edx, DWORD PTR _this$[ebp]
	fstp	DWORD PTR [edx+4]

; 77   : 			z -= vec.z;

	mov	eax, DWORD PTR _this$[ebp]
	fld	DWORD PTR [eax+8]
	mov	ecx, DWORD PTR _vec$[ebp]
	fsub	DWORD PTR [ecx+8]
	mov	edx, DWORD PTR _this$[ebp]
	fstp	DWORD PTR [edx+8]

; 78   : 		}

	mov	esp, ebp
	pop	ebp
	ret	4
??ZVector3@Ogre@@QAEXABV01@@Z ENDP			; Ogre::Vector3::operator-=
_TEXT	ENDS
PUBLIC	??XVector3@Ogre@@QAEXM@Z			; Ogre::Vector3::operator*=
; Function compile flags: /Odtp
;	COMDAT ??XVector3@Ogre@@QAEXM@Z
_TEXT	SEGMENT
_this$ = -4						; size = 4
_s$ = 8							; size = 4
??XVector3@Ogre@@QAEXM@Z PROC				; Ogre::Vector3::operator*=, COMDAT
; _this$ = ecx

; 81   : 		{

	push	ebp
	mov	ebp, esp
	push	ecx
	mov	DWORD PTR _this$[ebp], ecx

; 82   : 			x *= s;

	mov	eax, DWORD PTR _this$[ebp]
	fld	DWORD PTR [eax]
	fmul	DWORD PTR _s$[ebp]
	mov	ecx, DWORD PTR _this$[ebp]
	fstp	DWORD PTR [ecx]

; 83   : 			y *= s;

	mov	edx, DWORD PTR _this$[ebp]
	fld	DWORD PTR [edx+4]
	fmul	DWORD PTR _s$[ebp]
	mov	eax, DWORD PTR _this$[ebp]
	fstp	DWORD PTR [eax+4]

; 84   : 			z *= s;

	mov	ecx, DWORD PTR _this$[ebp]
	fld	DWORD PTR [ecx+8]
	fmul	DWORD PTR _s$[ebp]
	mov	edx, DWORD PTR _this$[ebp]
	fstp	DWORD PTR [edx+8]

; 85   : 		}

	mov	esp, ebp
	pop	ebp
	ret	4
??XVector3@Ogre@@QAEXM@Z ENDP				; Ogre::Vector3::operator*=
_TEXT	ENDS
PUBLIC	??XVector3@Ogre@@QAEXABV01@@Z			; Ogre::Vector3::operator*=
; Function compile flags: /Odtp
;	COMDAT ??XVector3@Ogre@@QAEXABV01@@Z
_TEXT	SEGMENT
_this$ = -4						; size = 4
_vec$ = 8						; size = 4
??XVector3@Ogre@@QAEXABV01@@Z PROC			; Ogre::Vector3::operator*=, COMDAT
; _this$ = ecx

; 88   : 		{

	push	ebp
	mov	ebp, esp
	push	ecx
	mov	DWORD PTR _this$[ebp], ecx

; 89   : 			x *= vec.x;

	mov	eax, DWORD PTR _this$[ebp]
	fld	DWORD PTR [eax]
	mov	ecx, DWORD PTR _vec$[ebp]
	fmul	DWORD PTR [ecx]
	mov	edx, DWORD PTR _this$[ebp]
	fstp	DWORD PTR [edx]

; 90   : 			y *= vec.y;

	mov	eax, DWORD PTR _this$[ebp]
	fld	DWORD PTR [eax+4]
	mov	ecx, DWORD PTR _vec$[ebp]
	fmul	DWORD PTR [ecx+4]
	mov	edx, DWORD PTR _this$[ebp]
	fstp	DWORD PTR [edx+4]

; 91   : 			z *= vec.z;

	mov	eax, DWORD PTR _this$[ebp]
	fld	DWORD PTR [eax+8]
	mov	ecx, DWORD PTR _vec$[ebp]
	fmul	DWORD PTR [ecx+8]
	mov	edx, DWORD PTR _this$[ebp]
	fstp	DWORD PTR [edx+8]

; 92   : 		}

	mov	esp, ebp
	pop	ebp
	ret	4
??XVector3@Ogre@@QAEXABV01@@Z ENDP			; Ogre::Vector3::operator*=
_TEXT	ENDS
PUBLIC	??_0Vector3@Ogre@@QAEXM@Z			; Ogre::Vector3::operator/=
; Function compile flags: /Odtp
;	COMDAT ??_0Vector3@Ogre@@QAEXM@Z
_TEXT	SEGMENT
_this$ = -4						; size = 4
_s$ = 8							; size = 4
??_0Vector3@Ogre@@QAEXM@Z PROC				; Ogre::Vector3::operator/=, COMDAT
; _this$ = ecx

; 95   : 		{

	push	ebp
	mov	ebp, esp
	push	ecx
	mov	DWORD PTR _this$[ebp], ecx

; 96   : 			x /= s;

	mov	eax, DWORD PTR _this$[ebp]
	fld	DWORD PTR [eax]
	fdiv	DWORD PTR _s$[ebp]
	mov	ecx, DWORD PTR _this$[ebp]
	fstp	DWORD PTR [ecx]

; 97   : 			y /= s;

	mov	edx, DWORD PTR _this$[ebp]
	fld	DWORD PTR [edx+4]
	fdiv	DWORD PTR _s$[ebp]
	mov	eax, DWORD PTR _this$[ebp]
	fstp	DWORD PTR [eax+4]

; 98   : 			z /= s;

	mov	ecx, DWORD PTR _this$[ebp]
	fld	DWORD PTR [ecx+8]
	fdiv	DWORD PTR _s$[ebp]
	mov	edx, DWORD PTR _this$[ebp]
	fstp	DWORD PTR [edx+8]

; 99   : 		}

	mov	esp, ebp
	pop	ebp
	ret	4
??_0Vector3@Ogre@@QAEXM@Z ENDP				; Ogre::Vector3::operator/=
_TEXT	ENDS
PUBLIC	??BVector3@Ogre@@QAEPAMXZ			; Ogre::Vector3::operator float *
; Function compile flags: /Odtp
;	COMDAT ??BVector3@Ogre@@QAEPAMXZ
_TEXT	SEGMENT
_this$ = -4						; size = 4
??BVector3@Ogre@@QAEPAMXZ PROC				; Ogre::Vector3::operator float *, COMDAT
; _this$ = ecx

; 101  : 		{

	push	ebp
	mov	ebp, esp
	push	ecx
	mov	DWORD PTR _this$[ebp], ecx

; 102  : 			return &x;

	mov	eax, DWORD PTR _this$[ebp]

; 103  : 		}

	mov	esp, ebp
	pop	ebp
	ret	0
??BVector3@Ogre@@QAEPAMXZ ENDP				; Ogre::Vector3::operator float *
_TEXT	ENDS
PUBLIC	??BVector3@Ogre@@QBEPBMXZ			; Ogre::Vector3::operator float const *
; Function compile flags: /Odtp
;	COMDAT ??BVector3@Ogre@@QBEPBMXZ
_TEXT	SEGMENT
_this$ = -4						; size = 4
??BVector3@Ogre@@QBEPBMXZ PROC				; Ogre::Vector3::operator float const *, COMDAT
; _this$ = ecx

; 105  : 		{

	push	ebp
	mov	ebp, esp
	push	ecx
	mov	DWORD PTR _this$[ebp], ecx

; 106  : 			return &x;

	mov	eax, DWORD PTR _this$[ebp]

; 107  : 		}

	mov	esp, ebp
	pop	ebp
	ret	0
??BVector3@Ogre@@QBEPBMXZ ENDP				; Ogre::Vector3::operator float const *
_TEXT	ENDS
PUBLIC	??HVector3@Ogre@@QBE?AV01@XZ			; Ogre::Vector3::operator+
; Function compile flags: /Odtp
;	COMDAT ??HVector3@Ogre@@QBE?AV01@XZ
_TEXT	SEGMENT
_this$ = -4						; size = 4
___$ReturnUdt$ = 8					; size = 4
??HVector3@Ogre@@QBE?AV01@XZ PROC			; Ogre::Vector3::operator+, COMDAT
; _this$ = ecx

; 109  : 		{

	push	ebp
	mov	ebp, esp
	push	ecx
	mov	DWORD PTR _this$[ebp], ecx

; 110  : 			return *this;

	mov	eax, DWORD PTR _this$[ebp]
	push	eax
	mov	ecx, DWORD PTR ___$ReturnUdt$[ebp]
	call	??0Vector3@Ogre@@QAE@ABV01@@Z		; Ogre::Vector3::Vector3
	mov	eax, DWORD PTR ___$ReturnUdt$[ebp]

; 111  : 		}

	mov	esp, ebp
	pop	ebp
	ret	4
??HVector3@Ogre@@QBE?AV01@XZ ENDP			; Ogre::Vector3::operator+
_TEXT	ENDS
PUBLIC	??GVector3@Ogre@@QBE?AV01@XZ			; Ogre::Vector3::operator-
; Function compile flags: /Odtp
;	COMDAT ??GVector3@Ogre@@QBE?AV01@XZ
_TEXT	SEGMENT
_this$ = -4						; size = 4
___$ReturnUdt$ = 8					; size = 4
??GVector3@Ogre@@QBE?AV01@XZ PROC			; Ogre::Vector3::operator-, COMDAT
; _this$ = ecx

; 113  : 		{

	push	ebp
	mov	ebp, esp
	push	ecx
	mov	DWORD PTR _this$[ebp], ecx

; 114  : 			return Vector3(-x, -y, -z);

	mov	eax, DWORD PTR _this$[ebp]
	fld	DWORD PTR [eax+8]
	fchs
	push	ecx
	fstp	DWORD PTR [esp]
	mov	ecx, DWORD PTR _this$[ebp]
	fld	DWORD PTR [ecx+4]
	fchs
	push	ecx
	fstp	DWORD PTR [esp]
	mov	edx, DWORD PTR _this$[ebp]
	fld	DWORD PTR [edx]
	fchs
	push	ecx
	fstp	DWORD PTR [esp]
	mov	ecx, DWORD PTR ___$ReturnUdt$[ebp]
	call	??0Vector3@Ogre@@QAE@MMM@Z		; Ogre::Vector3::Vector3
	mov	eax, DWORD PTR ___$ReturnUdt$[ebp]

; 115  : 		}

	mov	esp, ebp
	pop	ebp
	ret	4
??GVector3@Ogre@@QBE?AV01@XZ ENDP			; Ogre::Vector3::operator-
_TEXT	ENDS
PUBLIC	??8Vector3@Ogre@@QBE_NABV01@@Z			; Ogre::Vector3::operator==
; Function compile flags: /Odtp
;	COMDAT ??8Vector3@Ogre@@QBE_NABV01@@Z
_TEXT	SEGMENT
tv77 = -8						; size = 4
_this$ = -4						; size = 4
_vec$ = 8						; size = 4
??8Vector3@Ogre@@QBE_NABV01@@Z PROC			; Ogre::Vector3::operator==, COMDAT
; _this$ = ecx

; 117  : 		{

	push	ebp
	mov	ebp, esp
	sub	esp, 8
	mov	DWORD PTR _this$[ebp], ecx

; 118  : 			return (x==vec.x && y==vec.y && z==vec.z);

	mov	eax, DWORD PTR _this$[ebp]
	fld	DWORD PTR [eax]
	mov	ecx, DWORD PTR _vec$[ebp]
	fld	DWORD PTR [ecx]
	fucompp
	fnstsw	ax
	test	ah, 68					; 00000044H
	jp	SHORT $LN3@operator
	mov	edx, DWORD PTR _this$[ebp]
	fld	DWORD PTR [edx+4]
	mov	eax, DWORD PTR _vec$[ebp]
	fld	DWORD PTR [eax+4]
	fucompp
	fnstsw	ax
	test	ah, 68					; 00000044H
	jp	SHORT $LN3@operator
	mov	ecx, DWORD PTR _this$[ebp]
	fld	DWORD PTR [ecx+8]
	mov	edx, DWORD PTR _vec$[ebp]
	fld	DWORD PTR [edx+8]
	fucompp
	fnstsw	ax
	test	ah, 68					; 00000044H
	jp	SHORT $LN3@operator
	mov	DWORD PTR tv77[ebp], 1
	jmp	SHORT $LN4@operator
$LN3@operator:
	mov	DWORD PTR tv77[ebp], 0
$LN4@operator:
	mov	al, BYTE PTR tv77[ebp]

; 119  : 		}

	mov	esp, ebp
	pop	ebp
	ret	4
??8Vector3@Ogre@@QBE_NABV01@@Z ENDP			; Ogre::Vector3::operator==
_TEXT	ENDS
PUBLIC	?setElement@Vector3@Ogre@@QAEXMMM@Z		; Ogre::Vector3::setElement
; Function compile flags: /Odtp
;	COMDAT ?setElement@Vector3@Ogre@@QAEXMMM@Z
_TEXT	SEGMENT
_this$ = -4						; size = 4
_x1$ = 8						; size = 4
_y1$ = 12						; size = 4
_z1$ = 16						; size = 4
?setElement@Vector3@Ogre@@QAEXMMM@Z PROC		; Ogre::Vector3::setElement, COMDAT
; _this$ = ecx

; 121  : 		{

	push	ebp
	mov	ebp, esp
	push	ecx
	mov	DWORD PTR _this$[ebp], ecx

; 122  : 			x = x1;

	mov	eax, DWORD PTR _this$[ebp]
	fld	DWORD PTR _x1$[ebp]
	fstp	DWORD PTR [eax]

; 123  : 			y = y1;

	mov	ecx, DWORD PTR _this$[ebp]
	fld	DWORD PTR _y1$[ebp]
	fstp	DWORD PTR [ecx+4]

; 124  : 			z = z1;

	mov	edx, DWORD PTR _this$[ebp]
	fld	DWORD PTR _z1$[ebp]
	fstp	DWORD PTR [edx+8]

; 125  : 		}

	mov	esp, ebp
	pop	ebp
	ret	12					; 0000000cH
?setElement@Vector3@Ogre@@QAEXMMM@Z ENDP		; Ogre::Vector3::setElement
_TEXT	ENDS
PUBLIC	?setElement@Vector3@Ogre@@QAEXPAM@Z		; Ogre::Vector3::setElement
; Function compile flags: /Odtp
;	COMDAT ?setElement@Vector3@Ogre@@QAEXPAM@Z
_TEXT	SEGMENT
_this$ = -4						; size = 4
_p$ = 8							; size = 4
?setElement@Vector3@Ogre@@QAEXPAM@Z PROC		; Ogre::Vector3::setElement, COMDAT
; _this$ = ecx

; 127  : 		{

	push	ebp
	mov	ebp, esp
	push	ecx
	mov	DWORD PTR _this$[ebp], ecx

; 128  : 			x = p[0];

	mov	eax, DWORD PTR _this$[ebp]
	mov	ecx, DWORD PTR _p$[ebp]
	fld	DWORD PTR [ecx]
	fstp	DWORD PTR [eax]

; 129  : 			y = p[1];

	mov	edx, DWORD PTR _this$[ebp]
	mov	eax, DWORD PTR _p$[ebp]
	fld	DWORD PTR [eax+4]
	fstp	DWORD PTR [edx+4]

; 130  : 			z = p[2];

	mov	ecx, DWORD PTR _this$[ebp]
	mov	edx, DWORD PTR _p$[ebp]
	fld	DWORD PTR [edx+8]
	fstp	DWORD PTR [ecx+8]

; 131  : 		}

	mov	esp, ebp
	pop	ebp
	ret	4
?setElement@Vector3@Ogre@@QAEXPAM@Z ENDP		; Ogre::Vector3::setElement
_TEXT	ENDS
PUBLIC	?Sqrt@Ogre@@YAMM@Z				; Ogre::Sqrt
PUBLIC	?length@Vector3@Ogre@@QBEMXZ			; Ogre::Vector3::length
; Function compile flags: /Odtp
;	COMDAT ?length@Vector3@Ogre@@QBEMXZ
_TEXT	SEGMENT
tv88 = -8						; size = 4
_this$ = -4						; size = 4
?length@Vector3@Ogre@@QBEMXZ PROC			; Ogre::Vector3::length, COMDAT
; _this$ = ecx

; 133  : 		{

	push	ebp
	mov	ebp, esp
	sub	esp, 8
	mov	DWORD PTR _this$[ebp], ecx

; 134  : 			return (float)Sqrt(x*x+y*y+z*z);

	mov	eax, DWORD PTR _this$[ebp]
	fld	DWORD PTR [eax]
	mov	ecx, DWORD PTR _this$[ebp]
	fmul	DWORD PTR [ecx]
	mov	edx, DWORD PTR _this$[ebp]
	fld	DWORD PTR [edx+4]
	mov	eax, DWORD PTR _this$[ebp]
	fmul	DWORD PTR [eax+4]
	faddp	ST(1), ST(0)
	mov	ecx, DWORD PTR _this$[ebp]
	fld	DWORD PTR [ecx+8]
	mov	edx, DWORD PTR _this$[ebp]
	fmul	DWORD PTR [edx+8]
	faddp	ST(1), ST(0)
	fstp	DWORD PTR tv88[ebp]
	fld	DWORD PTR tv88[ebp]
	push	ecx
	fstp	DWORD PTR [esp]
	call	?Sqrt@Ogre@@YAMM@Z			; Ogre::Sqrt
	add	esp, 4

; 135  : 		}

	mov	esp, ebp
	pop	ebp
	ret	0
?length@Vector3@Ogre@@QBEMXZ ENDP			; Ogre::Vector3::length
_TEXT	ENDS
PUBLIC	?sqrt@@YAMM@Z					; sqrt
; Function compile flags: /Odtp
; File i:\svnroot\client\ogremain\ogremath.h
;	COMDAT ?Sqrt@Ogre@@YAMM@Z
_TEXT	SEGMENT
_x$ = 8							; size = 4
?Sqrt@Ogre@@YAMM@Z PROC					; Ogre::Sqrt, COMDAT

; 59   : 	{

	push	ebp
	mov	ebp, esp

; 60   : 		return (float)sqrt(x);

	push	ecx
	fld	DWORD PTR _x$[ebp]
	fstp	DWORD PTR [esp]
	call	?sqrt@@YAMM@Z				; sqrt
	add	esp, 4

; 61   : 	}

	pop	ebp
	ret	0
?Sqrt@Ogre@@YAMM@Z ENDP					; Ogre::Sqrt
_TEXT	ENDS
PUBLIC	_sqrtf
; Function compile flags: /Odtp
; File d:\program files (x86)\microsoft visual studio 9.0\vc\include\math.h
;	COMDAT ?sqrt@@YAMM@Z
_TEXT	SEGMENT
__X$ = 8						; size = 4
?sqrt@@YAMM@Z PROC					; sqrt, COMDAT

; 534  :         {return (sqrtf(_X)); }

	push	ebp
	mov	ebp, esp
	push	ecx
	fld	DWORD PTR __X$[ebp]
	fstp	DWORD PTR [esp]
	call	_sqrtf
	add	esp, 4
	pop	ebp
	ret	0
?sqrt@@YAMM@Z ENDP					; sqrt
_TEXT	ENDS
EXTRN	_sqrt:PROC
; Function compile flags: /Odtp
;	COMDAT _sqrtf
_TEXT	SEGMENT
tv73 = -4						; size = 4
__X$ = 8						; size = 4
_sqrtf	PROC						; COMDAT

; 423  :         {return ((float)sqrt((double)_X)); }

	push	ebp
	mov	ebp, esp
	push	ecx
	fld	DWORD PTR __X$[ebp]
	sub	esp, 8
	fstp	QWORD PTR [esp]
	call	_sqrt
	add	esp, 8
	fstp	DWORD PTR tv73[ebp]
	fld	DWORD PTR tv73[ebp]
	mov	esp, ebp
	pop	ebp
	ret	0
_sqrtf	ENDP
_TEXT	ENDS
PUBLIC	?lengthSqr@Vector3@Ogre@@QBEMXZ			; Ogre::Vector3::lengthSqr
; Function compile flags: /Odtp
; File i:\svnroot\client\ogremain\ogrevector3.h
;	COMDAT ?lengthSqr@Vector3@Ogre@@QBEMXZ
_TEXT	SEGMENT
tv88 = -8						; size = 4
_this$ = -4						; size = 4
?lengthSqr@Vector3@Ogre@@QBEMXZ PROC			; Ogre::Vector3::lengthSqr, COMDAT
; _this$ = ecx

; 137  : 		{

	push	ebp
	mov	ebp, esp
	sub	esp, 8
	mov	DWORD PTR _this$[ebp], ecx

; 138  : 			return (x*x+y*y+z*z);

	mov	eax, DWORD PTR _this$[ebp]
	fld	DWORD PTR [eax]
	mov	ecx, DWORD PTR _this$[ebp]
	fmul	DWORD PTR [ecx]
	mov	edx, DWORD PTR _this$[ebp]
	fld	DWORD PTR [edx+4]
	mov	eax, DWORD PTR _this$[ebp]
	fmul	DWORD PTR [eax+4]
	faddp	ST(1), ST(0)
	mov	ecx, DWORD PTR _this$[ebp]
	fld	DWORD PTR [ecx+8]
	mov	edx, DWORD PTR _this$[ebp]
	fmul	DWORD PTR [edx+8]
	faddp	ST(1), ST(0)
	fstp	DWORD PTR tv88[ebp]
	fld	DWORD PTR tv88[ebp]

; 139  : 		}

	mov	esp, ebp
	pop	ebp
	ret	0
?lengthSqr@Vector3@Ogre@@QBEMXZ ENDP			; Ogre::Vector3::lengthSqr
_TEXT	ENDS
PUBLIC	??0RandomGenerator@Ogre@@QAE@H@Z		; Ogre::RandomGenerator::RandomGenerator
; Function compile flags: /Odtp
; File i:\svnroot\client\ogremain\ogrerandomnumber.h
;	COMDAT ??0RandomGenerator@Ogre@@QAE@H@Z
_TEXT	SEGMENT
_this$ = -4						; size = 4
_seed$ = 8						; size = 4
??0RandomGenerator@Ogre@@QAE@H@Z PROC			; Ogre::RandomGenerator::RandomGenerator, COMDAT
; _this$ = ecx

; 47   : 		{

	push	ebp
	mov	ebp, esp
	push	ecx
	mov	DWORD PTR _this$[ebp], ecx
	mov	eax, DWORD PTR _this$[ebp]
	mov	ecx, DWORD PTR _seed$[ebp]
	mov	DWORD PTR [eax], ecx

; 48   : 		};

	mov	eax, DWORD PTR _this$[ebp]
	mov	esp, ebp
	pop	ebp
	ret	4
??0RandomGenerator@Ogre@@QAE@H@Z ENDP			; Ogre::RandomGenerator::RandomGenerator
_TEXT	ENDS
PUBLIC	?reset@RandomGenerator@Ogre@@QAEXH@Z		; Ogre::RandomGenerator::reset
; Function compile flags: /Odtp
;	COMDAT ?reset@RandomGenerator@Ogre@@QAEXH@Z
_TEXT	SEGMENT
_this$ = -4						; size = 4
_seed$ = 8						; size = 4
?reset@RandomGenerator@Ogre@@QAEXH@Z PROC		; Ogre::RandomGenerator::reset, COMDAT
; _this$ = ecx

; 51   : 		{

	push	ebp
	mov	ebp, esp
	push	ecx
	mov	DWORD PTR _this$[ebp], ecx

; 52   : 			m_CurVal = seed;

	mov	eax, DWORD PTR _this$[ebp]
	mov	ecx, DWORD PTR _seed$[ebp]
	mov	DWORD PTR [eax], ecx

; 53   : 		};

	mov	esp, ebp
	pop	ebp
	ret	4
?reset@RandomGenerator@Ogre@@QAEXH@Z ENDP		; Ogre::RandomGenerator::reset
_TEXT	ENDS
PUBLIC	?get@RandomGenerator@Ogre@@QAEHXZ		; Ogre::RandomGenerator::get
; Function compile flags: /Odtp
;	COMDAT ?get@RandomGenerator@Ogre@@QAEHXZ
_TEXT	SEGMENT
_this$ = -4						; size = 4
?get@RandomGenerator@Ogre@@QAEHXZ PROC			; Ogre::RandomGenerator::get, COMDAT
; _this$ = ecx

; 59   : 		{

	push	ebp
	mov	ebp, esp
	push	ecx
	mov	DWORD PTR _this$[ebp], ecx

; 60   : 			return (((m_CurVal = m_CurVal * 214013L + 2531011L) >> 16) & 0x7fff);

	mov	eax, DWORD PTR _this$[ebp]
	mov	ecx, DWORD PTR [eax]
	imul	ecx, 214013				; 000343fdH
	add	ecx, 2531011				; 00269ec3H
	mov	edx, DWORD PTR _this$[ebp]
	mov	DWORD PTR [edx], ecx
	mov	eax, DWORD PTR _this$[ebp]
	mov	eax, DWORD PTR [eax]
	sar	eax, 16					; 00000010H
	and	eax, 32767				; 00007fffH

; 61   : 		};

	mov	esp, ebp
	pop	ebp
	ret	0
?get@RandomGenerator@Ogre@@QAEHXZ ENDP			; Ogre::RandomGenerator::get
_TEXT	ENDS
PUBLIC	__real@3f00002000000000
PUBLIC	?getFloat@RandomGenerator@Ogre@@QAEMXZ		; Ogre::RandomGenerator::getFloat
;	COMDAT __real@3f00002000000000
CONST	SEGMENT
__real@3f00002000000000 DQ 03f00002000000000r	; 3.05185e-005
; Function compile flags: /Odtp
CONST	ENDS
;	COMDAT ?getFloat@RandomGenerator@Ogre@@QAEMXZ
_TEXT	SEGMENT
tv73 = -12						; size = 4
tv71 = -8						; size = 4
_this$ = -4						; size = 4
?getFloat@RandomGenerator@Ogre@@QAEMXZ PROC		; Ogre::RandomGenerator::getFloat, COMDAT
; _this$ = ecx

; 65   : 		{

	push	ebp
	mov	ebp, esp
	sub	esp, 12					; 0000000cH
	mov	DWORD PTR _this$[ebp], ecx

; 66   : 			return float(get())*(1.0f/32767.0f);

	mov	ecx, DWORD PTR _this$[ebp]
	call	?get@RandomGenerator@Ogre@@QAEHXZ	; Ogre::RandomGenerator::get
	mov	DWORD PTR tv71[ebp], eax
	fild	DWORD PTR tv71[ebp]
	fmul	QWORD PTR __real@3f00002000000000
	fstp	DWORD PTR tv73[ebp]
	fld	DWORD PTR tv73[ebp]

; 67   : 		};

	mov	esp, ebp
	pop	ebp
	ret	0
?getFloat@RandomGenerator@Ogre@@QAEMXZ ENDP		; Ogre::RandomGenerator::getFloat
_TEXT	ENDS
PUBLIC	?get@RandomGenerator@Ogre@@QAEHHH@Z		; Ogre::RandomGenerator::get
; Function compile flags: /Odtp
;	COMDAT ?get@RandomGenerator@Ogre@@QAEHHH@Z
_TEXT	SEGMENT
_this$ = -4						; size = 4
_minvalue$ = 8						; size = 4
_maxvalue$ = 12						; size = 4
?get@RandomGenerator@Ogre@@QAEHHH@Z PROC		; Ogre::RandomGenerator::get, COMDAT
; _this$ = ecx

; 70   : 		{

	push	ebp
	mov	ebp, esp
	push	ecx
	mov	DWORD PTR _this$[ebp], ecx

; 71   : 			return (get()%(maxvalue-minvalue+1)) + minvalue;

	mov	ecx, DWORD PTR _this$[ebp]
	call	?get@RandomGenerator@Ogre@@QAEHXZ	; Ogre::RandomGenerator::get
	mov	ecx, DWORD PTR _maxvalue$[ebp]
	sub	ecx, DWORD PTR _minvalue$[ebp]
	add	ecx, 1
	cdq
	idiv	ecx
	add	edx, DWORD PTR _minvalue$[ebp]
	mov	eax, edx

; 72   : 		}

	mov	esp, ebp
	pop	ebp
	ret	8
?get@RandomGenerator@Ogre@@QAEHHH@Z ENDP		; Ogre::RandomGenerator::get
_TEXT	ENDS
PUBLIC	?getFloat@RandomGenerator@Ogre@@QAEMMM@Z	; Ogre::RandomGenerator::getFloat
; Function compile flags: /Odtp
;	COMDAT ?getFloat@RandomGenerator@Ogre@@QAEMMM@Z
_TEXT	SEGMENT
tv79 = -8						; size = 4
_this$ = -4						; size = 4
_minvalue$ = 8						; size = 4
_maxvalue$ = 12						; size = 4
?getFloat@RandomGenerator@Ogre@@QAEMMM@Z PROC		; Ogre::RandomGenerator::getFloat, COMDAT
; _this$ = ecx

; 75   : 		{

	push	ebp
	mov	ebp, esp
	sub	esp, 8
	mov	DWORD PTR _this$[ebp], ecx

; 76   : 			return getFloat()*(maxvalue-minvalue) + minvalue;

	mov	ecx, DWORD PTR _this$[ebp]
	call	?getFloat@RandomGenerator@Ogre@@QAEMXZ	; Ogre::RandomGenerator::getFloat
	fld	DWORD PTR _maxvalue$[ebp]
	fsub	DWORD PTR _minvalue$[ebp]
	fmulp	ST(1), ST(0)
	fadd	DWORD PTR _minvalue$[ebp]
	fstp	DWORD PTR tv79[ebp]
	fld	DWORD PTR tv79[ebp]

; 77   : 		}

	mov	esp, ebp
	pop	ebp
	ret	8
?getFloat@RandomGenerator@Ogre@@QAEMMM@Z ENDP		; Ogre::RandomGenerator::getFloat
_TEXT	ENDS
PUBLIC	??4RandomGenerator@Ogre@@QAEAAV01@ABV01@@Z	; Ogre::RandomGenerator::operator=
; Function compile flags: /Odtp
;	COMDAT ??4RandomGenerator@Ogre@@QAEAAV01@ABV01@@Z
_TEXT	SEGMENT
_this$ = -4						; size = 4
___that$ = 8						; size = 4
??4RandomGenerator@Ogre@@QAEAAV01@ABV01@@Z PROC		; Ogre::RandomGenerator::operator=, COMDAT
; _this$ = ecx
	push	ebp
	mov	ebp, esp
	push	ecx
	mov	DWORD PTR _this$[ebp], ecx
	mov	eax, DWORD PTR ___that$[ebp]
	mov	ecx, DWORD PTR [eax]
	mov	edx, DWORD PTR _this$[ebp]
	mov	DWORD PTR [edx], ecx
	mov	eax, DWORD PTR _this$[ebp]
	mov	esp, ebp
	pop	ebp
	ret	4
??4RandomGenerator@Ogre@@QAEAAV01@ABV01@@Z ENDP		; Ogre::RandomGenerator::operator=
_TEXT	ENDS
PUBLIC	??_FRandomGenerator@Ogre@@QAEXXZ		; Ogre::RandomGenerator::`default constructor closure'
; Function compile flags: /Odtp
;	COMDAT ??_FRandomGenerator@Ogre@@QAEXXZ
_TEXT	SEGMENT
_this$ = -4						; size = 4
??_FRandomGenerator@Ogre@@QAEXXZ PROC			; Ogre::RandomGenerator::`default constructor closure', COMDAT
; _this$ = ecx
	push	ebp
	mov	ebp, esp
	push	ecx
	mov	DWORD PTR _this$[ebp], ecx
	push	0
	mov	ecx, DWORD PTR _this$[ebp]
	call	??0RandomGenerator@Ogre@@QAE@H@Z	; Ogre::RandomGenerator::RandomGenerator
	mov	esp, ebp
	pop	ebp
	ret	0
??_FRandomGenerator@Ogre@@QAEXXZ ENDP			; Ogre::RandomGenerator::`default constructor closure'
_TEXT	ENDS
PUBLIC	??0RandomPool@Ogre@@QAE@HH@Z			; Ogre::RandomPool::RandomPool
EXTRN	??_U@YAPAXI@Z:PROC				; operator new[]
; Function compile flags: /Odtp
;	COMDAT ??0RandomPool@Ogre@@QAE@HH@Z
_TEXT	SEGMENT
_this$ = -12						; size = 4
$T62602 = -8						; size = 4
_i$57489 = -4						; size = 4
_size$ = 8						; size = 4
_seed$ = 12						; size = 4
??0RandomPool@Ogre@@QAE@HH@Z PROC			; Ogre::RandomPool::RandomPool, COMDAT
; _this$ = ecx

; 88   : 		RandomPool(int size,int seed)  // size of random number bool.

	push	ebp
	mov	ebp, esp
	sub	esp, 12					; 0000000cH
	mov	DWORD PTR _this$[ebp], ecx
	push	0
	mov	ecx, DWORD PTR _this$[ebp]
	call	??0RandomGenerator@Ogre@@QAE@H@Z	; Ogre::RandomGenerator::RandomGenerator

; 89   : 		{
; 90   : 			mRand.reset(seed);       // init random number generator.

	mov	eax, DWORD PTR _seed$[ebp]
	push	eax
	mov	ecx, DWORD PTR _this$[ebp]
	call	?reset@RandomGenerator@Ogre@@QAEXH@Z	; Ogre::RandomGenerator::reset

; 91   : 			mData = new int[size]; // allocate memory for random number bool.

	xor	ecx, ecx
	mov	eax, DWORD PTR _size$[ebp]
	mov	edx, 4
	mul	edx
	seto	cl
	neg	ecx
	or	ecx, eax
	push	ecx
	call	??_U@YAPAXI@Z				; operator new[]
	add	esp, 4
	mov	DWORD PTR $T62602[ebp], eax
	mov	eax, DWORD PTR _this$[ebp]
	mov	ecx, DWORD PTR $T62602[ebp]
	mov	DWORD PTR [eax+4], ecx

; 92   : 			mSize = size;

	mov	edx, DWORD PTR _this$[ebp]
	mov	eax, DWORD PTR _size$[ebp]
	mov	DWORD PTR [edx+8], eax

; 93   : 			mTop  = mSize;

	mov	ecx, DWORD PTR _this$[ebp]
	mov	edx, DWORD PTR _this$[ebp]
	mov	eax, DWORD PTR [edx+8]
	mov	DWORD PTR [ecx+12], eax

; 94   : 			for (int i=0; i<mSize; i++) mData[i] = i;

	mov	DWORD PTR _i$57489[ebp], 0
	jmp	SHORT $LN3@RandomPool
$LN2@RandomPool:
	mov	ecx, DWORD PTR _i$57489[ebp]
	add	ecx, 1
	mov	DWORD PTR _i$57489[ebp], ecx
$LN3@RandomPool:
	mov	edx, DWORD PTR _this$[ebp]
	mov	eax, DWORD PTR _i$57489[ebp]
	cmp	eax, DWORD PTR [edx+8]
	jge	SHORT $LN4@RandomPool
	mov	ecx, DWORD PTR _this$[ebp]
	mov	edx, DWORD PTR [ecx+4]
	mov	eax, DWORD PTR _i$57489[ebp]
	mov	ecx, DWORD PTR _i$57489[ebp]
	mov	DWORD PTR [edx+eax*4], ecx
	jmp	SHORT $LN2@RandomPool
$LN4@RandomPool:

; 95   : 		}

	mov	eax, DWORD PTR _this$[ebp]
	mov	esp, ebp
	pop	ebp
	ret	8
??0RandomPool@Ogre@@QAE@HH@Z ENDP			; Ogre::RandomPool::RandomPool
_TEXT	ENDS
PUBLIC	??1RandomPool@Ogre@@QAE@XZ			; Ogre::RandomPool::~RandomPool
; Function compile flags: /Odtp
;	COMDAT ??1RandomPool@Ogre@@QAE@XZ
_TEXT	SEGMENT
_this$ = -8						; size = 4
$T62605 = -4						; size = 4
??1RandomPool@Ogre@@QAE@XZ PROC				; Ogre::RandomPool::~RandomPool, COMDAT
; _this$ = ecx

; 98   : 		{

	push	ebp
	mov	ebp, esp
	sub	esp, 8
	mov	DWORD PTR _this$[ebp], ecx

; 99   : 			delete[] (mData);

	mov	eax, DWORD PTR _this$[ebp]
	mov	ecx, DWORD PTR [eax+4]
	mov	DWORD PTR $T62605[ebp], ecx
	mov	edx, DWORD PTR $T62605[ebp]
	push	edx
	call	??_V@YAXPAX@Z				; operator delete[]
	add	esp, 4

; 100  : 		};

	mov	esp, ebp
	pop	ebp
	ret	0
??1RandomPool@Ogre@@QAE@XZ ENDP				; Ogre::RandomPool::~RandomPool
_TEXT	ENDS
PUBLIC	?get@RandomPool@Ogre@@QAEHAA_N@Z		; Ogre::RandomPool::get
; Function compile flags: /Odtp
;	COMDAT ?get@RandomPool@Ogre@@QAEHAA_N@Z
_TEXT	SEGMENT
_this$ = -12						; size = 4
_entry$ = -8						; size = 4
_ret$ = -4						; size = 4
_shuffled$ = 8						; size = 4
?get@RandomPool@Ogre@@QAEHAA_N@Z PROC			; Ogre::RandomPool::get, COMDAT
; _this$ = ecx

; 107  : 		{

	push	ebp
	mov	ebp, esp
	sub	esp, 12					; 0000000cH
	push	esi
	mov	DWORD PTR _this$[ebp], ecx

; 108  : 			if ( mTop == 0 ) // deck exhausted, shuffle deck.

	mov	eax, DWORD PTR _this$[ebp]
	cmp	DWORD PTR [eax+12], 0
	jne	SHORT $LN2@get

; 109  : 			{
; 110  : 				shuffled = true;

	mov	ecx, DWORD PTR _shuffled$[ebp]
	mov	BYTE PTR [ecx], 1

; 111  : 				mTop = mSize;

	mov	edx, DWORD PTR _this$[ebp]
	mov	eax, DWORD PTR _this$[ebp]
	mov	ecx, DWORD PTR [eax+8]
	mov	DWORD PTR [edx+12], ecx

; 112  : 			}
; 113  : 			else

	jmp	SHORT $LN1@get
$LN2@get:

; 114  : 				shuffled = false;

	mov	edx, DWORD PTR _shuffled$[ebp]
	mov	BYTE PTR [edx], 0
$LN1@get:

; 115  : 			int entry = mRand.get()%mTop;

	mov	ecx, DWORD PTR _this$[ebp]
	call	?get@RandomGenerator@Ogre@@QAEHXZ	; Ogre::RandomGenerator::get
	mov	ecx, DWORD PTR _this$[ebp]
	cdq
	idiv	DWORD PTR [ecx+12]
	mov	DWORD PTR _entry$[ebp], edx

; 116  : 			mTop--;

	mov	edx, DWORD PTR _this$[ebp]
	mov	eax, DWORD PTR [edx+12]
	sub	eax, 1
	mov	ecx, DWORD PTR _this$[ebp]
	mov	DWORD PTR [ecx+12], eax

; 117  : 			int ret      = mData[entry]; // swap top of pool with entry

	mov	edx, DWORD PTR _this$[ebp]
	mov	eax, DWORD PTR [edx+4]
	mov	ecx, DWORD PTR _entry$[ebp]
	mov	edx, DWORD PTR [eax+ecx*4]
	mov	DWORD PTR _ret$[ebp], edx

; 118  : 			mData[entry] = mData[mTop];  // returned

	mov	eax, DWORD PTR _this$[ebp]
	mov	ecx, DWORD PTR [eax+12]
	mov	edx, DWORD PTR _this$[ebp]
	mov	eax, DWORD PTR [edx+4]
	mov	edx, DWORD PTR _this$[ebp]
	mov	edx, DWORD PTR [edx+4]
	mov	esi, DWORD PTR _entry$[ebp]
	mov	eax, DWORD PTR [eax+ecx*4]
	mov	DWORD PTR [edx+esi*4], eax

; 119  : 			mData[mTop]  = ret;

	mov	ecx, DWORD PTR _this$[ebp]
	mov	edx, DWORD PTR [ecx+12]
	mov	eax, DWORD PTR _this$[ebp]
	mov	ecx, DWORD PTR [eax+4]
	mov	eax, DWORD PTR _ret$[ebp]
	mov	DWORD PTR [ecx+edx*4], eax

; 120  : 			return ret;

	mov	eax, DWORD PTR _ret$[ebp]

; 121  : 		};

	pop	esi
	mov	esp, ebp
	pop	ebp
	ret	4
?get@RandomPool@Ogre@@QAEHAA_N@Z ENDP			; Ogre::RandomPool::get
_TEXT	ENDS
PUBLIC	??4RandomPool@Ogre@@QAEAAV01@ABV01@@Z		; Ogre::RandomPool::operator=
; Function compile flags: /Odtp
;	COMDAT ??4RandomPool@Ogre@@QAEAAV01@ABV01@@Z
_TEXT	SEGMENT
_this$ = -4						; size = 4
___that$ = 8						; size = 4
??4RandomPool@Ogre@@QAEAAV01@ABV01@@Z PROC		; Ogre::RandomPool::operator=, COMDAT
; _this$ = ecx
	push	ebp
	mov	ebp, esp
	push	ecx
	mov	DWORD PTR _this$[ebp], ecx
	mov	eax, DWORD PTR ___that$[ebp]
	mov	ecx, DWORD PTR _this$[ebp]
	mov	edx, DWORD PTR [eax]
	mov	DWORD PTR [ecx], edx
	mov	edx, DWORD PTR [eax+4]
	mov	DWORD PTR [ecx+4], edx
	mov	edx, DWORD PTR [eax+8]
	mov	DWORD PTR [ecx+8], edx
	mov	eax, DWORD PTR [eax+12]
	mov	DWORD PTR [ecx+12], eax
	mov	eax, DWORD PTR _this$[ebp]
	mov	esp, ebp
	pop	ebp
	ret	4
??4RandomPool@Ogre@@QAEAAV01@ABV01@@Z ENDP		; Ogre::RandomPool::operator=
_TEXT	ENDS
PUBLIC	?getMin@GaussGenerator@Ogre@@QBEMXZ		; Ogre::GaussGenerator::getMin
; Function compile flags: /Odtp
;	COMDAT ?getMin@GaussGenerator@Ogre@@QBEMXZ
_TEXT	SEGMENT
_this$ = -4						; size = 4
?getMin@GaussGenerator@Ogre@@QBEMXZ PROC		; Ogre::GaussGenerator::getMin, COMDAT
; _this$ = ecx

; 184  : 		float getMin(void) const { return mMin; };

	push	ebp
	mov	ebp, esp
	push	ecx
	mov	DWORD PTR _this$[ebp], ecx
	mov	eax, DWORD PTR _this$[ebp]
	fld	DWORD PTR [eax+12]
	mov	esp, ebp
	pop	ebp
	ret	0
?getMin@GaussGenerator@Ogre@@QBEMXZ ENDP		; Ogre::GaussGenerator::getMin
_TEXT	ENDS
PUBLIC	?getMax@GaussGenerator@Ogre@@QBEMXZ		; Ogre::GaussGenerator::getMax
; Function compile flags: /Odtp
;	COMDAT ?getMax@GaussGenerator@Ogre@@QBEMXZ
_TEXT	SEGMENT
_this$ = -4						; size = 4
?getMax@GaussGenerator@Ogre@@QBEMXZ PROC		; Ogre::GaussGenerator::getMax, COMDAT
; _this$ = ecx

; 185  : 		float getMax(void) const { return mMax; };

	push	ebp
	mov	ebp, esp
	push	ecx
	mov	DWORD PTR _this$[ebp], ecx
	mov	eax, DWORD PTR _this$[ebp]
	fld	DWORD PTR [eax+16]
	mov	esp, ebp
	pop	ebp
	ret	0
?getMax@GaussGenerator@Ogre@@QBEMXZ ENDP		; Ogre::GaussGenerator::getMax
_TEXT	ENDS
PUBLIC	??4GaussGenerator@Ogre@@QAEAAV01@ABV01@@Z	; Ogre::GaussGenerator::operator=
; Function compile flags: /Odtp
;	COMDAT ??4GaussGenerator@Ogre@@QAEAAV01@ABV01@@Z
_TEXT	SEGMENT
_this$ = -4						; size = 4
___that$ = 8						; size = 4
??4GaussGenerator@Ogre@@QAEAAV01@ABV01@@Z PROC		; Ogre::GaussGenerator::operator=, COMDAT
; _this$ = ecx
	push	ebp
	mov	ebp, esp
	push	ecx
	push	esi
	push	edi
	mov	DWORD PTR _this$[ebp], ecx
	mov	esi, DWORD PTR ___that$[ebp]
	mov	ecx, 9
	mov	edi, DWORD PTR _this$[ebp]
	rep movsd
	mov	eax, DWORD PTR _this$[ebp]
	pop	edi
	pop	esi
	mov	esp, ebp
	pop	ebp
	ret	4
??4GaussGenerator@Ogre@@QAEAAV01@ABV01@@Z ENDP		; Ogre::GaussGenerator::operator=
_TEXT	ENDS
PUBLIC	??0GaussGenerator@Ogre@@QAE@H@Z			; Ogre::GaussGenerator::GaussGenerator
PUBLIC	??_FGaussGenerator@Ogre@@QAEXXZ			; Ogre::GaussGenerator::`default constructor closure'
; Function compile flags: /Odtp
;	COMDAT ??_FGaussGenerator@Ogre@@QAEXXZ
_TEXT	SEGMENT
_this$ = -4						; size = 4
??_FGaussGenerator@Ogre@@QAEXXZ PROC			; Ogre::GaussGenerator::`default constructor closure', COMDAT
; _this$ = ecx
	push	ebp
	mov	ebp, esp
	push	ecx
	mov	DWORD PTR _this$[ebp], ecx
	push	0
	mov	ecx, DWORD PTR _this$[ebp]
	call	??0GaussGenerator@Ogre@@QAE@H@Z		; Ogre::GaussGenerator::GaussGenerator
	mov	esp, ebp
	pop	ebp
	ret	0
??_FGaussGenerator@Ogre@@QAEXXZ ENDP			; Ogre::GaussGenerator::`default constructor closure'
_TEXT	ENDS
PUBLIC	??4PerlinNoise2D@Ogre@@QAEAAV01@ABV01@@Z	; Ogre::PerlinNoise2D::operator=
; Function compile flags: /Odtp
;	COMDAT ??4PerlinNoise2D@Ogre@@QAEAAV01@ABV01@@Z
_TEXT	SEGMENT
_this$ = -4						; size = 4
___that$ = 8						; size = 4
??4PerlinNoise2D@Ogre@@QAEAAV01@ABV01@@Z PROC		; Ogre::PerlinNoise2D::operator=, COMDAT
; _this$ = ecx
	push	ebp
	mov	ebp, esp
	push	ecx
	mov	DWORD PTR _this$[ebp], ecx
	mov	eax, DWORD PTR ___that$[ebp]
	mov	ecx, DWORD PTR _this$[ebp]
	mov	edx, DWORD PTR [eax]
	mov	DWORD PTR [ecx], edx
	mov	edx, DWORD PTR [eax+4]
	mov	DWORD PTR [ecx+4], edx
	mov	edx, DWORD PTR [eax+8]
	mov	DWORD PTR [ecx+8], edx
	mov	edx, DWORD PTR [eax+12]
	mov	DWORD PTR [ecx+12], edx
	mov	eax, DWORD PTR [eax+16]
	mov	DWORD PTR [ecx+16], eax
	mov	eax, DWORD PTR _this$[ebp]
	mov	esp, ebp
	pop	ebp
	ret	4
??4PerlinNoise2D@Ogre@@QAEAAV01@ABV01@@Z ENDP		; Ogre::PerlinNoise2D::operator=
_TEXT	ENDS
PUBLIC	??4Timer@Ogre@@QAEAAV01@ABV01@@Z		; Ogre::Timer::operator=
; Function compile flags: /Odtp
;	COMDAT ??4Timer@Ogre@@QAEAAV01@ABV01@@Z
_TEXT	SEGMENT
_this$ = -4						; size = 4
___that$ = 8						; size = 4
??4Timer@Ogre@@QAEAAV01@ABV01@@Z PROC			; Ogre::Timer::operator=, COMDAT
; _this$ = ecx
	push	ebp
	mov	ebp, esp
	push	ecx
	push	esi
	push	edi
	mov	DWORD PTR _this$[ebp], ecx
	mov	esi, DWORD PTR ___that$[ebp]
	mov	ecx, 10					; 0000000aH
	mov	edi, DWORD PTR _this$[ebp]
	rep movsd
	mov	eax, DWORD PTR _this$[ebp]
	pop	edi
	pop	esi
	mov	esp, ebp
	pop	ebp
	ret	4
??4Timer@Ogre@@QAEAAV01@ABV01@@Z ENDP			; Ogre::Timer::operator=
_TEXT	ENDS
PUBLIC	?reset@RandomGenerator@Ogre@@QAEXXZ		; Ogre::RandomGenerator::reset
EXTRN	?getSystemTick@Timer@Ogre@@SAIXZ:PROC		; Ogre::Timer::getSystemTick
; Function compile flags: /Odtp
; File i:\svnroot\client\ogremain\ogrerandomnumber.cpp
_TEXT	SEGMENT
_this$ = -4						; size = 4
?reset@RandomGenerator@Ogre@@QAEXXZ PROC		; Ogre::RandomGenerator::reset
; _this$ = ecx

; 8    : 	{

	push	ebp
	mov	ebp, esp
	push	ecx
	mov	DWORD PTR _this$[ebp], ecx

; 9    : 		reset( int(Timer::getSystemTick()) );

	call	?getSystemTick@Timer@Ogre@@SAIXZ	; Ogre::Timer::getSystemTick
	push	eax
	mov	ecx, DWORD PTR _this$[ebp]
	call	?reset@RandomGenerator@Ogre@@QAEXH@Z	; Ogre::RandomGenerator::reset

; 10   : 	}

	mov	esp, ebp
	pop	ebp
	ret	0
?reset@RandomGenerator@Ogre@@QAEXXZ ENDP		; Ogre::RandomGenerator::reset
_TEXT	ENDS
PUBLIC	?Cos@Ogre@@YAMM@Z				; Ogre::Cos
PUBLIC	?Sin@Ogre@@YAMM@Z				; Ogre::Sin
PUBLIC	__real@3ff0000000000000
PUBLIC	__real@43b40000
PUBLIC	__real@00000000
PUBLIC	__real@3f800000
PUBLIC	?getDirection@RandomGenerator@Ogre@@QAE?AVVector3@2@XZ ; Ogre::RandomGenerator::getDirection
;	COMDAT __real@3ff0000000000000
CONST	SEGMENT
__real@3ff0000000000000 DQ 03ff0000000000000r	; 1
CONST	ENDS
;	COMDAT __real@43b40000
CONST	SEGMENT
__real@43b40000 DD 043b40000r			; 360
CONST	ENDS
;	COMDAT __real@00000000
CONST	SEGMENT
__real@00000000 DD 000000000r			; 0
CONST	ENDS
;	COMDAT __real@3f800000
CONST	SEGMENT
__real@3f800000 DD 03f800000r			; 1
; Function compile flags: /Odtp
CONST	ENDS
_TEXT	SEGMENT
tv156 = -28						; size = 4
tv150 = -24						; size = 4
tv140 = -20						; size = 4
_this$ = -16						; size = 4
_t$ = -12						; size = 4
_y$ = -8						; size = 4
_w$ = -4						; size = 4
___$ReturnUdt$ = 8					; size = 4
?getDirection@RandomGenerator@Ogre@@QAE?AVVector3@2@XZ PROC ; Ogre::RandomGenerator::getDirection
; _this$ = ecx

; 13   : 	{

	push	ebp
	mov	ebp, esp
	sub	esp, 28					; 0000001cH
	mov	DWORD PTR _this$[ebp], ecx

; 14   : 		float y = getFloat(0.0f, 1.0f);

	push	ecx
	fld1
	fstp	DWORD PTR [esp]
	push	ecx
	fldz
	fstp	DWORD PTR [esp]
	mov	ecx, DWORD PTR _this$[ebp]
	call	?getFloat@RandomGenerator@Ogre@@QAEMMM@Z ; Ogre::RandomGenerator::getFloat
	fstp	DWORD PTR _y$[ebp]

; 15   : 		float t = getFloat(0, 360.0f);

	push	ecx
	fld	DWORD PTR __real@43b40000
	fstp	DWORD PTR [esp]
	push	ecx
	fldz
	fstp	DWORD PTR [esp]
	mov	ecx, DWORD PTR _this$[ebp]
	call	?getFloat@RandomGenerator@Ogre@@QAEMMM@Z ; Ogre::RandomGenerator::getFloat
	fstp	DWORD PTR _t$[ebp]

; 16   : 		float w = Sqrt(1 - y*y);

	fld	DWORD PTR _y$[ebp]
	fmul	DWORD PTR _y$[ebp]
	fld1
	fsubrp	ST(1), ST(0)
	fstp	DWORD PTR tv140[ebp]
	fld	DWORD PTR tv140[ebp]
	push	ecx
	fstp	DWORD PTR [esp]
	call	?Sqrt@Ogre@@YAMM@Z			; Ogre::Sqrt
	add	esp, 4
	fstp	DWORD PTR _w$[ebp]

; 17   : 
; 18   : 		return Vector3(w*Cos(t), y, w*Sin(t));

	push	ecx
	fld	DWORD PTR _t$[ebp]
	fstp	DWORD PTR [esp]
	call	?Sin@Ogre@@YAMM@Z			; Ogre::Sin
	add	esp, 4
	fmul	DWORD PTR _w$[ebp]
	fstp	DWORD PTR tv150[ebp]
	fld	DWORD PTR tv150[ebp]
	push	ecx
	fstp	DWORD PTR [esp]
	push	ecx
	fld	DWORD PTR _y$[ebp]
	fstp	DWORD PTR [esp]
	push	ecx
	fld	DWORD PTR _t$[ebp]
	fstp	DWORD PTR [esp]
	call	?Cos@Ogre@@YAMM@Z			; Ogre::Cos
	add	esp, 4
	fmul	DWORD PTR _w$[ebp]
	fstp	DWORD PTR tv156[ebp]
	fld	DWORD PTR tv156[ebp]
	push	ecx
	fstp	DWORD PTR [esp]
	mov	ecx, DWORD PTR ___$ReturnUdt$[ebp]
	call	??0Vector3@Ogre@@QAE@MMM@Z		; Ogre::Vector3::Vector3
	mov	eax, DWORD PTR ___$ReturnUdt$[ebp]

; 19   : 	}

	mov	esp, ebp
	pop	ebp
	ret	4
?getDirection@RandomGenerator@Ogre@@QAE?AVVector3@2@XZ ENDP ; Ogre::RandomGenerator::getDirection
_TEXT	ENDS
PUBLIC	?sin@@YAMM@Z					; sin
PUBLIC	?Deg2Rad@Ogre@@YAMM@Z				; Ogre::Deg2Rad
; Function compile flags: /Odtp
; File i:\svnroot\client\ogremain\ogremath.h
;	COMDAT ?Sin@Ogre@@YAMM@Z
_TEXT	SEGMENT
_x$ = 8							; size = 4
?Sin@Ogre@@YAMM@Z PROC					; Ogre::Sin, COMDAT

; 26   : 	{

	push	ebp
	mov	ebp, esp

; 27   : 		return (float)sin( Deg2Rad(x) );

	push	ecx
	fld	DWORD PTR _x$[ebp]
	fstp	DWORD PTR [esp]
	call	?Deg2Rad@Ogre@@YAMM@Z			; Ogre::Deg2Rad
	fstp	DWORD PTR [esp]
	call	?sin@@YAMM@Z				; sin
	add	esp, 4

; 28   : 	}

	pop	ebp
	ret	0
?Sin@Ogre@@YAMM@Z ENDP					; Ogre::Sin
_TEXT	ENDS
PUBLIC	_sinf
; Function compile flags: /Odtp
; File d:\program files (x86)\microsoft visual studio 9.0\vc\include\math.h
;	COMDAT ?sin@@YAMM@Z
_TEXT	SEGMENT
__X$ = 8						; size = 4
?sin@@YAMM@Z PROC					; sin, COMDAT

; 530  :         {return (sinf(_X)); }

	push	ebp
	mov	ebp, esp
	push	ecx
	fld	DWORD PTR __X$[ebp]
	fstp	DWORD PTR [esp]
	call	_sinf
	add	esp, 4
	pop	ebp
	ret	0
?sin@@YAMM@Z ENDP					; sin
_TEXT	ENDS
EXTRN	_sin:PROC
; Function compile flags: /Odtp
;	COMDAT _sinf
_TEXT	SEGMENT
tv73 = -4						; size = 4
__X$ = 8						; size = 4
_sinf	PROC						; COMDAT

; 419  :         {return ((float)sin((double)_X)); }

	push	ebp
	mov	ebp, esp
	push	ecx
	fld	DWORD PTR __X$[ebp]
	sub	esp, 8
	fstp	QWORD PTR [esp]
	call	_sin
	add	esp, 8
	fstp	DWORD PTR tv73[ebp]
	fld	DWORD PTR tv73[ebp]
	mov	esp, ebp
	pop	ebp
	ret	0
_sinf	ENDP
; Function compile flags: /Odtp
; File i:\svnroot\client\ogremain\ogremath.h
_TEXT	ENDS
;	COMDAT ?Deg2Rad@Ogre@@YAMM@Z
_TEXT	SEGMENT
tv68 = -4						; size = 4
_x$ = 8							; size = 4
?Deg2Rad@Ogre@@YAMM@Z PROC				; Ogre::Deg2Rad, COMDAT

; 17   : 	{

	push	ebp
	mov	ebp, esp
	push	ecx

; 18   : 		return x*RADS_PER_DEG;

	fld	DWORD PTR _x$[ebp]
	fmul	DWORD PTR _RADS_PER_DEG
	fstp	DWORD PTR tv68[ebp]
	fld	DWORD PTR tv68[ebp]

; 19   : 	}

	mov	esp, ebp
	pop	ebp
	ret	0
?Deg2Rad@Ogre@@YAMM@Z ENDP				; Ogre::Deg2Rad
_TEXT	ENDS
PUBLIC	?cos@@YAMM@Z					; cos
; Function compile flags: /Odtp
;	COMDAT ?Cos@Ogre@@YAMM@Z
_TEXT	SEGMENT
_x$ = 8							; size = 4
?Cos@Ogre@@YAMM@Z PROC					; Ogre::Cos, COMDAT

; 31   : 	{

	push	ebp
	mov	ebp, esp

; 32   : 		return (float)cos( Deg2Rad(x) );

	push	ecx
	fld	DWORD PTR _x$[ebp]
	fstp	DWORD PTR [esp]
	call	?Deg2Rad@Ogre@@YAMM@Z			; Ogre::Deg2Rad
	fstp	DWORD PTR [esp]
	call	?cos@@YAMM@Z				; cos
	add	esp, 4

; 33   : 	}

	pop	ebp
	ret	0
?Cos@Ogre@@YAMM@Z ENDP					; Ogre::Cos
_TEXT	ENDS
PUBLIC	_cosf
; Function compile flags: /Odtp
; File d:\program files (x86)\microsoft visual studio 9.0\vc\include\math.h
;	COMDAT ?cos@@YAMM@Z
_TEXT	SEGMENT
__X$ = 8						; size = 4
?cos@@YAMM@Z PROC					; cos, COMDAT

; 504  :         {return (cosf(_X)); }

	push	ebp
	mov	ebp, esp
	push	ecx
	fld	DWORD PTR __X$[ebp]
	fstp	DWORD PTR [esp]
	call	_cosf
	add	esp, 4
	pop	ebp
	ret	0
?cos@@YAMM@Z ENDP					; cos
_TEXT	ENDS
EXTRN	_cos:PROC
; Function compile flags: /Odtp
;	COMDAT _cosf
_TEXT	SEGMENT
tv73 = -4						; size = 4
__X$ = 8						; size = 4
_cosf	PROC						; COMDAT

; 399  :         {return ((float)cos((double)_X)); }

	push	ebp
	mov	ebp, esp
	push	ecx
	fld	DWORD PTR __X$[ebp]
	sub	esp, 8
	fstp	QWORD PTR [esp]
	call	_cos
	add	esp, 8
	fstp	DWORD PTR tv73[ebp]
	fld	DWORD PTR tv73[ebp]
	mov	esp, ebp
	pop	ebp
	ret	0
_cosf	ENDP
_TEXT	ENDS
PUBLIC	__real@60ad78ec
PUBLIC	__real@e0ad78ec
;	COMDAT __real@60ad78ec
; File i:\svnroot\client\ogremain\ogrerandomnumber.cpp
CONST	SEGMENT
__real@60ad78ec DD 060ad78ecr			; 1e+020
CONST	ENDS
;	COMDAT __real@e0ad78ec
CONST	SEGMENT
__real@e0ad78ec DD 0e0ad78ecr			; -1e+020
; Function compile flags: /Odtp
CONST	ENDS
_TEXT	SEGMENT
_this$ = -4						; size = 4
_seed$ = 8						; size = 4
??0GaussGenerator@Ogre@@QAE@H@Z PROC			; Ogre::GaussGenerator::GaussGenerator
; _this$ = ecx

; 22   : 	{

	push	ebp
	mov	ebp, esp
	push	ecx
	mov	DWORD PTR _this$[ebp], ecx
	push	0
	mov	ecx, DWORD PTR _this$[ebp]
	call	??0RandomGenerator@Ogre@@QAE@H@Z	; Ogre::RandomGenerator::RandomGenerator

; 23   : 		mSecond            = false;

	mov	eax, DWORD PTR _this$[ebp]
	mov	BYTE PTR [eax+32], 0

; 24   : 		mMean              = 1;

	mov	ecx, DWORD PTR _this$[ebp]
	fld1
	fstp	DWORD PTR [ecx+4]

; 25   : 		mStandardDeviation = 0;

	mov	edx, DWORD PTR _this$[ebp]
	fldz
	fstp	DWORD PTR [edx+8]

; 26   : 		mMin = -1e20f;

	mov	eax, DWORD PTR _this$[ebp]
	fld	DWORD PTR __real@e0ad78ec
	fstp	DWORD PTR [eax+12]

; 27   : 		mMax = 1e20f;

	mov	ecx, DWORD PTR _this$[ebp]
	fld	DWORD PTR __real@60ad78ec
	fstp	DWORD PTR [ecx+16]

; 28   : 		RandomGenerator::reset(seed); // init random number generator

	mov	edx, DWORD PTR _seed$[ebp]
	push	edx
	mov	ecx, DWORD PTR _this$[ebp]
	call	?reset@RandomGenerator@Ogre@@QAEXH@Z	; Ogre::RandomGenerator::reset

; 29   : 	};

	mov	eax, DWORD PTR _this$[ebp]
	mov	esp, ebp
	pop	ebp
	ret	4
??0GaussGenerator@Ogre@@QAE@H@Z ENDP			; Ogre::GaussGenerator::GaussGenerator
_TEXT	ENDS
PUBLIC	?set@GaussGenerator@Ogre@@QAEPBDPBD@Z		; Ogre::GaussGenerator::set
PUBLIC	??0GaussGenerator@Ogre@@QAE@PBDH@Z		; Ogre::GaussGenerator::GaussGenerator
; Function compile flags: /Odtp
_TEXT	SEGMENT
_this$ = -4						; size = 4
_str$ = 8						; size = 4
_seed$ = 12						; size = 4
??0GaussGenerator@Ogre@@QAE@PBDH@Z PROC			; Ogre::GaussGenerator::GaussGenerator
; _this$ = ecx

; 32   : 	{

	push	ebp
	mov	ebp, esp
	push	ecx
	mov	DWORD PTR _this$[ebp], ecx
	push	0
	mov	ecx, DWORD PTR _this$[ebp]
	call	??0RandomGenerator@Ogre@@QAE@H@Z	; Ogre::RandomGenerator::RandomGenerator

; 33   : 		mSecond            = false;

	mov	eax, DWORD PTR _this$[ebp]
	mov	BYTE PTR [eax+32], 0

; 34   : 		mMean              = 1;

	mov	ecx, DWORD PTR _this$[ebp]
	fld1
	fstp	DWORD PTR [ecx+4]

; 35   : 		mStandardDeviation = 0;

	mov	edx, DWORD PTR _this$[ebp]
	fldz
	fstp	DWORD PTR [edx+8]

; 36   : 		mMin = -1e20f;

	mov	eax, DWORD PTR _this$[ebp]
	fld	DWORD PTR __real@e0ad78ec
	fstp	DWORD PTR [eax+12]

; 37   : 		mMax = 1e20f;

	mov	ecx, DWORD PTR _this$[ebp]
	fld	DWORD PTR __real@60ad78ec
	fstp	DWORD PTR [ecx+16]

; 38   : 		RandomGenerator::reset(seed); // init random number generator

	mov	edx, DWORD PTR _seed$[ebp]
	push	edx
	mov	ecx, DWORD PTR _this$[ebp]
	call	?reset@RandomGenerator@Ogre@@QAEXH@Z	; Ogre::RandomGenerator::reset

; 39   : 		set(str);

	mov	eax, DWORD PTR _str$[ebp]
	push	eax
	mov	ecx, DWORD PTR _this$[ebp]
	call	?set@GaussGenerator@Ogre@@QAEPBDPBD@Z	; Ogre::GaussGenerator::set

; 40   : 	};

	mov	eax, DWORD PTR _this$[ebp]
	mov	esp, ebp
	pop	ebp
	ret	8
??0GaussGenerator@Ogre@@QAE@PBDH@Z ENDP			; Ogre::GaussGenerator::GaussGenerator
_TEXT	ENDS
PUBLIC	??1GaussGenerator@Ogre@@QAE@XZ			; Ogre::GaussGenerator::~GaussGenerator
; Function compile flags: /Odtp
_TEXT	SEGMENT
_this$ = -4						; size = 4
??1GaussGenerator@Ogre@@QAE@XZ PROC			; Ogre::GaussGenerator::~GaussGenerator
; _this$ = ecx

; 43   : 	{

	push	ebp
	mov	ebp, esp
	push	ecx
	mov	DWORD PTR _this$[ebp], ecx

; 44   : 	};

	mov	esp, ebp
	pop	ebp
	ret	0
??1GaussGenerator@Ogre@@QAE@XZ ENDP			; Ogre::GaussGenerator::~GaussGenerator
_TEXT	ENDS
PUBLIC	?randGauss@GaussGenerator@Ogre@@QAEMXZ		; Ogre::GaussGenerator::randGauss
PUBLIC	?get@GaussGenerator@Ogre@@QAEMXZ		; Ogre::GaussGenerator::get
; Function compile flags: /Odtp
_TEXT	SEGMENT
_this$ = -8						; size = 4
_v$ = -4						; size = 4
?get@GaussGenerator@Ogre@@QAEMXZ PROC			; Ogre::GaussGenerator::get
; _this$ = ecx

; 47   : 	{

	push	ebp
	mov	ebp, esp
	sub	esp, 8
	mov	DWORD PTR _this$[ebp], ecx

; 48   : 		float v = randGauss()*mStandardDeviation + mMean;

	mov	ecx, DWORD PTR _this$[ebp]
	call	?randGauss@GaussGenerator@Ogre@@QAEMXZ	; Ogre::GaussGenerator::randGauss
	mov	eax, DWORD PTR _this$[ebp]
	fmul	DWORD PTR [eax+8]
	mov	ecx, DWORD PTR _this$[ebp]
	fadd	DWORD PTR [ecx+4]
	fstp	DWORD PTR _v$[ebp]

; 49   : 		if ( v < mMin ) v = mMin;

	fld	DWORD PTR _v$[ebp]
	mov	edx, DWORD PTR _this$[ebp]
	fld	DWORD PTR [edx+12]
	fcompp
	fnstsw	ax
	test	ah, 65					; 00000041H
	jne	SHORT $LN2@get@2
	mov	eax, DWORD PTR _this$[ebp]
	fld	DWORD PTR [eax+12]
	fstp	DWORD PTR _v$[ebp]
$LN2@get@2:

; 50   : 		if ( v > mMax ) v = mMax;

	fld	DWORD PTR _v$[ebp]
	mov	ecx, DWORD PTR _this$[ebp]
	fld	DWORD PTR [ecx+16]
	fcompp
	fnstsw	ax
	test	ah, 5
	jp	SHORT $LN1@get@2
	mov	edx, DWORD PTR _this$[ebp]
	fld	DWORD PTR [edx+16]
	fstp	DWORD PTR _v$[ebp]
$LN1@get@2:

; 51   : 		mCurrent = v;

	mov	eax, DWORD PTR _this$[ebp]
	fld	DWORD PTR _v$[ebp]
	fstp	DWORD PTR [eax+20]

; 52   : 		return v;

	fld	DWORD PTR _v$[ebp]

; 53   : 	};

	mov	esp, ebp
	pop	ebp
	ret	0
?get@GaussGenerator@Ogre@@QAEMXZ ENDP			; Ogre::GaussGenerator::get
_TEXT	ENDS
PUBLIC	?getCurrent@GaussGenerator@Ogre@@QBEMXZ		; Ogre::GaussGenerator::getCurrent
; Function compile flags: /Odtp
_TEXT	SEGMENT
_this$ = -4						; size = 4
?getCurrent@GaussGenerator@Ogre@@QBEMXZ PROC		; Ogre::GaussGenerator::getCurrent
; _this$ = ecx

; 56   : 	{

	push	ebp
	mov	ebp, esp
	push	ecx
	mov	DWORD PTR _this$[ebp], ecx

; 57   : 		return mCurrent;

	mov	eax, DWORD PTR _this$[ebp]
	fld	DWORD PTR [eax+20]

; 58   : 	};

	mov	esp, ebp
	pop	ebp
	ret	0
?getCurrent@GaussGenerator@Ogre@@QBEMXZ ENDP		; Ogre::GaussGenerator::getCurrent
_TEXT	ENDS
PUBLIC	?set@GaussGenerator@Ogre@@QAEXMM@Z		; Ogre::GaussGenerator::set
; Function compile flags: /Odtp
_TEXT	SEGMENT
_this$ = -4						; size = 4
_m$ = 8							; size = 4
_s$ = 12						; size = 4
?set@GaussGenerator@Ogre@@QAEXMM@Z PROC			; Ogre::GaussGenerator::set
; _this$ = ecx

; 61   : 	{

	push	ebp
	mov	ebp, esp
	push	ecx
	mov	DWORD PTR _this$[ebp], ecx

; 62   : 		mMean = m;

	mov	eax, DWORD PTR _this$[ebp]
	fld	DWORD PTR _m$[ebp]
	fstp	DWORD PTR [eax+4]

; 63   : 		mStandardDeviation = s;

	mov	ecx, DWORD PTR _this$[ebp]
	fld	DWORD PTR _s$[ebp]
	fstp	DWORD PTR [ecx+8]

; 64   : 	};

	mov	esp, ebp
	pop	ebp
	ret	8
?set@GaussGenerator@Ogre@@QAEXMM@Z ENDP			; Ogre::GaussGenerator::set
_TEXT	ENDS
PUBLIC	?set@GaussGenerator@Ogre@@QAEXMMMM@Z		; Ogre::GaussGenerator::set
; Function compile flags: /Odtp
_TEXT	SEGMENT
_this$ = -4						; size = 4
_m$ = 8							; size = 4
_s$ = 12						; size = 4
_min$ = 16						; size = 4
_max$ = 20						; size = 4
?set@GaussGenerator@Ogre@@QAEXMMMM@Z PROC		; Ogre::GaussGenerator::set
; _this$ = ecx

; 68   : 	{

	push	ebp
	mov	ebp, esp
	push	ecx
	mov	DWORD PTR _this$[ebp], ecx

; 69   : 		mMean = m;

	mov	eax, DWORD PTR _this$[ebp]
	fld	DWORD PTR _m$[ebp]
	fstp	DWORD PTR [eax+4]

; 70   : 		mStandardDeviation = s;

	mov	ecx, DWORD PTR _this$[ebp]
	fld	DWORD PTR _s$[ebp]
	fstp	DWORD PTR [ecx+8]

; 71   : 		mMin = min;

	mov	edx, DWORD PTR _this$[ebp]
	fld	DWORD PTR _min$[ebp]
	fstp	DWORD PTR [edx+12]

; 72   : 		mMax = max;

	mov	eax, DWORD PTR _this$[ebp]
	fld	DWORD PTR _max$[ebp]
	fstp	DWORD PTR [eax+16]

; 73   : 	}

	mov	esp, ebp
	pop	ebp
	ret	16					; 00000010H
?set@GaussGenerator@Ogre@@QAEXMMMM@Z ENDP		; Ogre::GaussGenerator::set
_TEXT	ENDS
PUBLIC	?strtogmd@GaussGenerator@Ogre@@QBEHPBDPAPADAAM222@Z ; Ogre::GaussGenerator::strtogmd
; Function compile flags: /Odtp
_TEXT	SEGMENT
_this$ = -8						; size = 4
_end$ = -4						; size = 4
_arg$ = 8						; size = 4
?set@GaussGenerator@Ogre@@QAEPBDPBD@Z PROC		; Ogre::GaussGenerator::set
; _this$ = ecx

; 77   : 	{

	push	ebp
	mov	ebp, esp
	sub	esp, 8
	mov	DWORD PTR _this$[ebp], ecx

; 78   : 		char *end;
; 79   : 		strtogmd( (char *)arg, &end, mMean, mStandardDeviation, mMin, mMax );

	mov	eax, DWORD PTR _this$[ebp]
	add	eax, 16					; 00000010H
	push	eax
	mov	ecx, DWORD PTR _this$[ebp]
	add	ecx, 12					; 0000000cH
	push	ecx
	mov	edx, DWORD PTR _this$[ebp]
	add	edx, 8
	push	edx
	mov	eax, DWORD PTR _this$[ebp]
	add	eax, 4
	push	eax
	lea	ecx, DWORD PTR _end$[ebp]
	push	ecx
	mov	edx, DWORD PTR _arg$[ebp]
	push	edx
	mov	ecx, DWORD PTR _this$[ebp]
	call	?strtogmd@GaussGenerator@Ogre@@QBEHPBDPAPADAAM222@Z ; Ogre::GaussGenerator::strtogmd

; 80   : 		return end;

	mov	eax, DWORD PTR _end$[ebp]

; 81   : 	};

	mov	esp, ebp
	pop	ebp
	ret	4
?set@GaussGenerator@Ogre@@QAEPBDPBD@Z ENDP		; Ogre::GaussGenerator::set
_TEXT	ENDS
PUBLIC	?getMean@GaussGenerator@Ogre@@QBEMXZ		; Ogre::GaussGenerator::getMean
; Function compile flags: /Odtp
_TEXT	SEGMENT
_this$ = -4						; size = 4
?getMean@GaussGenerator@Ogre@@QBEMXZ PROC		; Ogre::GaussGenerator::getMean
; _this$ = ecx

; 84   : 	{

	push	ebp
	mov	ebp, esp
	push	ecx
	mov	DWORD PTR _this$[ebp], ecx

; 85   : 		return mMean;

	mov	eax, DWORD PTR _this$[ebp]
	fld	DWORD PTR [eax+4]

; 86   : 	};

	mov	esp, ebp
	pop	ebp
	ret	0
?getMean@GaussGenerator@Ogre@@QBEMXZ ENDP		; Ogre::GaussGenerator::getMean
_TEXT	ENDS
PUBLIC	?getStandardDeviation@GaussGenerator@Ogre@@QBEMXZ ; Ogre::GaussGenerator::getStandardDeviation
; Function compile flags: /Odtp
_TEXT	SEGMENT
_this$ = -4						; size = 4
?getStandardDeviation@GaussGenerator@Ogre@@QBEMXZ PROC	; Ogre::GaussGenerator::getStandardDeviation
; _this$ = ecx

; 89   : 	{

	push	ebp
	mov	ebp, esp
	push	ecx
	mov	DWORD PTR _this$[ebp], ecx

; 90   : 		return mStandardDeviation;

	mov	eax, DWORD PTR _this$[ebp]
	fld	DWORD PTR [eax+8]

; 91   : 	};

	mov	esp, ebp
	pop	ebp
	ret	0
?getStandardDeviation@GaussGenerator@Ogre@@QBEMXZ ENDP	; Ogre::GaussGenerator::getStandardDeviation
_TEXT	ENDS
PUBLIC	?setMean@GaussGenerator@Ogre@@QAEXM@Z		; Ogre::GaussGenerator::setMean
; Function compile flags: /Odtp
_TEXT	SEGMENT
_this$ = -4						; size = 4
_m$ = 8							; size = 4
?setMean@GaussGenerator@Ogre@@QAEXM@Z PROC		; Ogre::GaussGenerator::setMean
; _this$ = ecx

; 94   : 	{

	push	ebp
	mov	ebp, esp
	push	ecx
	mov	DWORD PTR _this$[ebp], ecx

; 95   : 		mMean = m;

	mov	eax, DWORD PTR _this$[ebp]
	fld	DWORD PTR _m$[ebp]
	fstp	DWORD PTR [eax+4]

; 96   : 	};

	mov	esp, ebp
	pop	ebp
	ret	4
?setMean@GaussGenerator@Ogre@@QAEXM@Z ENDP		; Ogre::GaussGenerator::setMean
_TEXT	ENDS
PUBLIC	?setStandardDeviation@GaussGenerator@Ogre@@QAEXM@Z ; Ogre::GaussGenerator::setStandardDeviation
; Function compile flags: /Odtp
_TEXT	SEGMENT
_this$ = -4						; size = 4
_s$ = 8							; size = 4
?setStandardDeviation@GaussGenerator@Ogre@@QAEXM@Z PROC	; Ogre::GaussGenerator::setStandardDeviation
; _this$ = ecx

; 99   : 	{

	push	ebp
	mov	ebp, esp
	push	ecx
	mov	DWORD PTR _this$[ebp], ecx

; 100  : 		mStandardDeviation = s;

	mov	eax, DWORD PTR _this$[ebp]
	fld	DWORD PTR _s$[ebp]
	fstp	DWORD PTR [eax+8]

; 101  : 	};

	mov	esp, ebp
	pop	ebp
	ret	4
?setStandardDeviation@GaussGenerator@Ogre@@QAEXM@Z ENDP	; Ogre::GaussGenerator::setStandardDeviation
_TEXT	ENDS
PUBLIC	__real@4415af1d80000000
PUBLIC	__real@c415af1d80000000
PUBLIC	__real@0000000000000000
PUBLIC	?getString@GaussGenerator@Ogre@@QBEXPAD@Z	; Ogre::GaussGenerator::getString
EXTRN	__imp__sprintf:PROC
;	COMDAT __real@4415af1d80000000
CONST	SEGMENT
__real@4415af1d80000000 DQ 04415af1d80000000r	; 1e+020
CONST	ENDS
;	COMDAT __real@c415af1d80000000
CONST	SEGMENT
__real@c415af1d80000000 DQ 0c415af1d80000000r	; -1e+020
CONST	ENDS
;	COMDAT __real@0000000000000000
CONST	SEGMENT
__real@0000000000000000 DQ 00000000000000000r	; 0
; Function compile flags: /Odtp
CONST	ENDS
_TEXT	SEGMENT
_this$ = -4						; size = 4
_scratch$ = 8						; size = 4
?getString@GaussGenerator@Ogre@@QBEXPAD@Z PROC		; Ogre::GaussGenerator::getString
; _this$ = ecx

; 105  : 	{

	push	ebp
	mov	ebp, esp
	push	ecx
	mov	DWORD PTR _this$[ebp], ecx

; 106  : 		if ( mStandardDeviation != 0 || mMin > -1e20f || mMax <  1e20f )

	mov	eax, DWORD PTR _this$[ebp]
	fld	DWORD PTR [eax+8]
	fcomp	QWORD PTR __real@0000000000000000
	fnstsw	ax
	test	ah, 68					; 00000044H
	jp	SHORT $LN5@getString
	mov	ecx, DWORD PTR _this$[ebp]
	fld	DWORD PTR [ecx+12]
	fcomp	QWORD PTR __real@c415af1d80000000
	fnstsw	ax
	test	ah, 65					; 00000041H
	je	SHORT $LN5@getString
	mov	edx, DWORD PTR _this$[ebp]
	fld	DWORD PTR [edx+16]
	fcomp	QWORD PTR __real@4415af1d80000000
	fnstsw	ax
	test	ah, 5
	jp	$LN6@getString
$LN5@getString:

; 107  : 		{
; 108  : 			if ( mMin > -1e20f || mMax < 1e20f )

	mov	eax, DWORD PTR _this$[ebp]
	fld	DWORD PTR [eax+12]
	fcomp	QWORD PTR __real@c415af1d80000000
	fnstsw	ax
	test	ah, 65					; 00000041H
	je	SHORT $LN3@getString
	mov	ecx, DWORD PTR _this$[ebp]
	fld	DWORD PTR [ecx+16]
	fcomp	QWORD PTR __real@4415af1d80000000
	fnstsw	ax
	test	ah, 5
	jp	SHORT $LN4@getString
$LN3@getString:

; 109  : 				sprintf(scratch,"%0.3f:%0.3f<%0.3f:%0.3f>",mMean,mStandardDeviation,mMin,mMax);

	mov	edx, DWORD PTR _this$[ebp]
	fld	DWORD PTR [edx+16]
	sub	esp, 8
	fstp	QWORD PTR [esp]
	mov	eax, DWORD PTR _this$[ebp]
	fld	DWORD PTR [eax+12]
	sub	esp, 8
	fstp	QWORD PTR [esp]
	mov	ecx, DWORD PTR _this$[ebp]
	fld	DWORD PTR [ecx+8]
	sub	esp, 8
	fstp	QWORD PTR [esp]
	mov	edx, DWORD PTR _this$[ebp]
	fld	DWORD PTR [edx+4]
	sub	esp, 8
	fstp	QWORD PTR [esp]
	push	OFFSET $SG57737
	mov	eax, DWORD PTR _scratch$[ebp]
	push	eax
	call	DWORD PTR __imp__sprintf
	add	esp, 40					; 00000028H

; 110  : 			else

	jmp	SHORT $LN2@getString
$LN4@getString:

; 111  : 				sprintf(scratch,"%0.3f:%0.3f",mMean,mStandardDeviation);

	mov	ecx, DWORD PTR _this$[ebp]
	fld	DWORD PTR [ecx+8]
	sub	esp, 8
	fstp	QWORD PTR [esp]
	mov	edx, DWORD PTR _this$[ebp]
	fld	DWORD PTR [edx+4]
	sub	esp, 8
	fstp	QWORD PTR [esp]
	push	OFFSET $SG57739
	mov	eax, DWORD PTR _scratch$[ebp]
	push	eax
	call	DWORD PTR __imp__sprintf
	add	esp, 24					; 00000018H
$LN2@getString:

; 112  : 		}
; 113  : 		else

	jmp	SHORT $LN1@getString
$LN6@getString:

; 114  : 		{
; 115  : 			sprintf(scratch,"%0.3f",mMean);

	mov	ecx, DWORD PTR _this$[ebp]
	fld	DWORD PTR [ecx+4]
	sub	esp, 8
	fstp	QWORD PTR [esp]
	push	OFFSET $SG57741
	mov	edx, DWORD PTR _scratch$[ebp]
	push	edx
	call	DWORD PTR __imp__sprintf
	add	esp, 16					; 00000010H
$LN1@getString:

; 116  : 		}
; 117  : 	};

	mov	esp, ebp
	pop	ebp
	ret	4
?getString@GaussGenerator@Ogre@@QBEXPAD@Z ENDP		; Ogre::GaussGenerator::getString
_TEXT	ENDS
PUBLIC	__real@c000000000000000
PUBLIC	_logf
PUBLIC	__real@4000000000000000
;	COMDAT __real@c000000000000000
CONST	SEGMENT
__real@c000000000000000 DQ 0c000000000000000r	; -2
CONST	ENDS
;	COMDAT __real@4000000000000000
CONST	SEGMENT
__real@4000000000000000 DQ 04000000000000000r	; 2
; Function compile flags: /Odtp
CONST	ENDS
_TEXT	SEGMENT
tv178 = -20						; size = 4
_this$ = -16						; size = 4
_x1$ = -12						; size = 4
_x2$ = -8						; size = 4
_w$ = -4						; size = 4
?randGauss@GaussGenerator@Ogre@@QAEMXZ PROC		; Ogre::GaussGenerator::randGauss
; _this$ = ecx

; 121  : 	{

	push	ebp
	mov	ebp, esp
	sub	esp, 20					; 00000014H
	mov	DWORD PTR _this$[ebp], ecx

; 122  : 		if( mSecond )

	mov	eax, DWORD PTR _this$[ebp]
	movzx	ecx, BYTE PTR [eax+32]
	test	ecx, ecx
	je	SHORT $LN4@randGauss

; 123  : 		{
; 124  : 			mSecond = false;

	mov	edx, DWORD PTR _this$[ebp]
	mov	BYTE PTR [edx+32], 0

; 125  : 			return mGauss2;

	mov	eax, DWORD PTR _this$[ebp]
	fld	DWORD PTR [eax+28]
	jmp	$LN5@randGauss
$LN4@randGauss:

; 126  : 		}
; 127  : 
; 128  : 		float x1;
; 129  : 		float x2;
; 130  : 		float w;
; 131  : 		do
; 132  : 		{
; 133  : 			x1 = 2.0f * getFloat() - 1.0f;

	mov	ecx, DWORD PTR _this$[ebp]
	call	?getFloat@RandomGenerator@Ogre@@QAEMXZ	; Ogre::RandomGenerator::getFloat
	fmul	QWORD PTR __real@4000000000000000
	fsub	QWORD PTR __real@3ff0000000000000
	fstp	DWORD PTR _x1$[ebp]

; 134  : 			x2 = 2.0f * getFloat() - 1.0f;

	mov	ecx, DWORD PTR _this$[ebp]
	call	?getFloat@RandomGenerator@Ogre@@QAEMXZ	; Ogre::RandomGenerator::getFloat
	fmul	QWORD PTR __real@4000000000000000
	fsub	QWORD PTR __real@3ff0000000000000
	fstp	DWORD PTR _x2$[ebp]

; 135  : 			w = x1 * x1 + x2 * x2;

	fld	DWORD PTR _x1$[ebp]
	fmul	DWORD PTR _x1$[ebp]
	fld	DWORD PTR _x2$[ebp]
	fmul	DWORD PTR _x2$[ebp]
	faddp	ST(1), ST(0)
	fstp	DWORD PTR _w$[ebp]

; 136  : 		} while ( w >= 1.0f );

	fld	DWORD PTR _w$[ebp]
	fcomp	QWORD PTR __real@3ff0000000000000
	fnstsw	ax
	test	ah, 1
	je	SHORT $LN4@randGauss

; 137  : 
; 138  : 		w = sqrtf( (-2.0f * logf( w ) ) / w );

	push	ecx
	fld	DWORD PTR _w$[ebp]
	fstp	DWORD PTR [esp]
	call	_logf
	add	esp, 4
	fmul	QWORD PTR __real@c000000000000000
	fdiv	DWORD PTR _w$[ebp]
	fstp	DWORD PTR tv178[ebp]
	fld	DWORD PTR tv178[ebp]
	push	ecx
	fstp	DWORD PTR [esp]
	call	_sqrtf
	add	esp, 4
	fstp	DWORD PTR _w$[ebp]

; 139  : 
; 140  : 		mGauss1 = x1 * w;

	fld	DWORD PTR _x1$[ebp]
	fmul	DWORD PTR _w$[ebp]
	mov	ecx, DWORD PTR _this$[ebp]
	fstp	DWORD PTR [ecx+24]

; 141  : 		mGauss2 = x2 * w;

	fld	DWORD PTR _x2$[ebp]
	fmul	DWORD PTR _w$[ebp]
	mov	edx, DWORD PTR _this$[ebp]
	fstp	DWORD PTR [edx+28]

; 142  : 
; 143  : 		mSecond = true;

	mov	eax, DWORD PTR _this$[ebp]
	mov	BYTE PTR [eax+32], 1

; 144  : 
; 145  : 		return mGauss1;

	mov	ecx, DWORD PTR _this$[ebp]
	fld	DWORD PTR [ecx+24]
$LN5@randGauss:

; 146  : 	};

	mov	esp, ebp
	pop	ebp
	ret	0
?randGauss@GaussGenerator@Ogre@@QAEMXZ ENDP		; Ogre::GaussGenerator::randGauss
_TEXT	ENDS
EXTRN	_log:PROC
; Function compile flags: /Odtp
; File d:\program files (x86)\microsoft visual studio 9.0\vc\include\math.h
;	COMDAT _logf
_TEXT	SEGMENT
tv73 = -4						; size = 4
__X$ = 8						; size = 4
_logf	PROC						; COMDAT

; 409  :         {return ((float)log((double)_X)); }

	push	ebp
	mov	ebp, esp
	push	ecx
	fld	DWORD PTR __X$[ebp]
	sub	esp, 8
	fstp	QWORD PTR [esp]
	call	_log
	add	esp, 8
	fstp	DWORD PTR tv73[ebp]
	fld	DWORD PTR tv73[ebp]
	mov	esp, ebp
	pop	ebp
	ret	0
_logf	ENDP
_TEXT	ENDS
EXTRN	__imp__strtod:PROC
; Function compile flags: /Odtp
; File i:\svnroot\client\ogremain\ogrerandomnumber.cpp
_TEXT	SEGMENT
_this$ = -24						; size = 4
_pos$ = -20						; size = 4
_endp$ = -16						; size = 4
_maxp$ = -12						; size = 4
_minp$ = -8						; size = 4
_devp$ = -4						; size = 4
_spec$ = 8						; size = 4
_end$ = 12						; size = 4
_mean$ = 16						; size = 4
_deviation$ = 20					; size = 4
_min$ = 24						; size = 4
_max$ = 28						; size = 4
?strtogmd@GaussGenerator@Ogre@@QBEHPBDPAPADAAM222@Z PROC ; Ogre::GaussGenerator::strtogmd
; _this$ = ecx

; 157  : 	{

	push	ebp
	mov	ebp, esp
	sub	esp, 24					; 00000018H
	mov	DWORD PTR _this$[ebp], ecx

; 158  : 		char* pos;
; 159  : 		min  = -1e20f;

	mov	eax, DWORD PTR _min$[ebp]
	fld	DWORD PTR __real@e0ad78ec
	fstp	DWORD PTR [eax]

; 160  : 		max  = 1e20f;

	mov	ecx, DWORD PTR _max$[ebp]
	fld	DWORD PTR __real@60ad78ec
	fstp	DWORD PTR [ecx]

; 161  : 		mean = (float) strtod( (char*) spec, &pos );

	lea	edx, DWORD PTR _pos$[ebp]
	push	edx
	mov	eax, DWORD PTR _spec$[ebp]
	push	eax
	call	DWORD PTR __imp__strtod
	add	esp, 8
	mov	ecx, DWORD PTR _mean$[ebp]
	fstp	DWORD PTR [ecx]

; 162  : 		deviation = 0;

	mov	edx, DWORD PTR _deviation$[ebp]
	fldz
	fstp	DWORD PTR [edx]

; 163  : 
; 164  : 		if( pos == spec )

	mov	eax, DWORD PTR _pos$[ebp]
	cmp	eax, DWORD PTR _spec$[ebp]
	jne	SHORT $LN15@strtogmd

; 165  : 		{
; 166  : 			mean = 0;

	mov	ecx, DWORD PTR _mean$[ebp]
	fldz
	fstp	DWORD PTR [ecx]

; 167  : 			if( end != 0 )

	cmp	DWORD PTR _end$[ebp], 0
	je	SHORT $LN14@strtogmd

; 168  : 			{
; 169  : 				*end = (char *)spec;

	mov	edx, DWORD PTR _end$[ebp]
	mov	eax, DWORD PTR _spec$[ebp]
	mov	DWORD PTR [edx], eax
$LN14@strtogmd:

; 170  : 			}
; 171  : 			return 0;

	xor	eax, eax
	jmp	$LN16@strtogmd
$LN15@strtogmd:

; 172  : 		}
; 173  : 		if( *pos != ':' )

	mov	ecx, DWORD PTR _pos$[ebp]
	movsx	edx, BYTE PTR [ecx]
	cmp	edx, 58					; 0000003aH
	je	SHORT $LN13@strtogmd

; 174  : 		{
; 175  : 			if( end != 0 )

	cmp	DWORD PTR _end$[ebp], 0
	je	SHORT $LN12@strtogmd

; 176  : 			{
; 177  : 				*end = pos;

	mov	eax, DWORD PTR _end$[ebp]
	mov	ecx, DWORD PTR _pos$[ebp]
	mov	DWORD PTR [eax], ecx
$LN12@strtogmd:

; 178  : 			}
; 179  : 			return 1;

	mov	eax, 1
	jmp	$LN16@strtogmd
$LN13@strtogmd:

; 180  : 		}
; 181  : 		char* devp = pos + 1;

	mov	edx, DWORD PTR _pos$[ebp]
	add	edx, 1
	mov	DWORD PTR _devp$[ebp], edx

; 182  : 		deviation = (float) strtod( devp, &pos );

	lea	eax, DWORD PTR _pos$[ebp]
	push	eax
	mov	ecx, DWORD PTR _devp$[ebp]
	push	ecx
	call	DWORD PTR __imp__strtod
	add	esp, 8
	mov	edx, DWORD PTR _deviation$[ebp]
	fstp	DWORD PTR [edx]

; 183  : 		if( pos == devp )

	mov	eax, DWORD PTR _pos$[ebp]
	cmp	eax, DWORD PTR _devp$[ebp]
	jne	SHORT $LN11@strtogmd

; 184  : 		{
; 185  : 			if( end != 0 )

	cmp	DWORD PTR _end$[ebp], 0
	je	SHORT $LN10@strtogmd

; 186  : 			{
; 187  : 				*end = devp - 1;

	mov	ecx, DWORD PTR _devp$[ebp]
	sub	ecx, 1
	mov	edx, DWORD PTR _end$[ebp]
	mov	DWORD PTR [edx], ecx
$LN10@strtogmd:

; 188  : 			}
; 189  : 			return 1;

	mov	eax, 1
	jmp	$LN16@strtogmd
$LN11@strtogmd:

; 190  : 		}
; 191  : 
; 192  : 		if( *pos != '[' && *pos != '<' )

	mov	eax, DWORD PTR _pos$[ebp]
	movsx	ecx, BYTE PTR [eax]
	cmp	ecx, 91					; 0000005bH
	je	SHORT $LN9@strtogmd
	mov	edx, DWORD PTR _pos$[ebp]
	movsx	eax, BYTE PTR [edx]
	cmp	eax, 60					; 0000003cH
	je	SHORT $LN9@strtogmd

; 193  : 		{
; 194  : 			if( end != 0 )

	cmp	DWORD PTR _end$[ebp], 0
	je	SHORT $LN8@strtogmd

; 195  : 			{
; 196  : 				*end = pos;

	mov	ecx, DWORD PTR _end$[ebp]
	mov	edx, DWORD PTR _pos$[ebp]
	mov	DWORD PTR [ecx], edx
$LN8@strtogmd:

; 197  : 			}
; 198  : 			return 2;

	mov	eax, 2
	jmp	$LN16@strtogmd
$LN9@strtogmd:

; 199  : 		}
; 200  : 
; 201  : 		char* minp = pos + 1;

	mov	eax, DWORD PTR _pos$[ebp]
	add	eax, 1
	mov	DWORD PTR _minp$[ebp], eax

; 202  : 		char* maxp;
; 203  : 		min = (float) strtod( minp, &maxp );

	lea	ecx, DWORD PTR _maxp$[ebp]
	push	ecx
	mov	edx, DWORD PTR _minp$[ebp]
	push	edx
	call	DWORD PTR __imp__strtod
	add	esp, 8
	mov	eax, DWORD PTR _min$[ebp]
	fstp	DWORD PTR [eax]

; 204  : 		if( *maxp != ',' && *maxp != ':' )

	mov	ecx, DWORD PTR _maxp$[ebp]
	movsx	edx, BYTE PTR [ecx]
	cmp	edx, 44					; 0000002cH
	je	SHORT $LN7@strtogmd
	mov	eax, DWORD PTR _maxp$[ebp]
	movsx	ecx, BYTE PTR [eax]
	cmp	ecx, 58					; 0000003aH
	je	SHORT $LN7@strtogmd

; 205  : 		{
; 206  : 			if( end != 0 )

	cmp	DWORD PTR _end$[ebp], 0
	je	SHORT $LN6@strtogmd

; 207  : 			{
; 208  : 				*end = pos;

	mov	edx, DWORD PTR _end$[ebp]
	mov	eax, DWORD PTR _pos$[ebp]
	mov	DWORD PTR [edx], eax
$LN6@strtogmd:

; 209  : 			}
; 210  : 			return 2;

	mov	eax, 2
	jmp	$LN16@strtogmd
$LN7@strtogmd:

; 211  : 		}
; 212  : 		++maxp;

	mov	ecx, DWORD PTR _maxp$[ebp]
	add	ecx, 1
	mov	DWORD PTR _maxp$[ebp], ecx

; 213  : 		char* endp;
; 214  : 		max = (float) strtod( maxp, &endp );

	lea	edx, DWORD PTR _endp$[ebp]
	push	edx
	mov	eax, DWORD PTR _maxp$[ebp]
	push	eax
	call	DWORD PTR __imp__strtod
	add	esp, 8
	mov	ecx, DWORD PTR _max$[ebp]
	fstp	DWORD PTR [ecx]

; 215  : 		if( *endp != ']' && *endp != '>' )

	mov	edx, DWORD PTR _endp$[ebp]
	movsx	eax, BYTE PTR [edx]
	cmp	eax, 93					; 0000005dH
	je	SHORT $LN5@strtogmd
	mov	ecx, DWORD PTR _endp$[ebp]
	movsx	edx, BYTE PTR [ecx]
	cmp	edx, 62					; 0000003eH
	je	SHORT $LN5@strtogmd

; 216  : 		{
; 217  : 			if( end != 0 )

	cmp	DWORD PTR _end$[ebp], 0
	je	SHORT $LN4@strtogmd

; 218  : 			{
; 219  : 				*end = pos;

	mov	eax, DWORD PTR _end$[ebp]
	mov	ecx, DWORD PTR _pos$[ebp]
	mov	DWORD PTR [eax], ecx
$LN4@strtogmd:

; 220  : 			}
; 221  : 			return 2;

	mov	eax, 2
	jmp	SHORT $LN16@strtogmd
$LN5@strtogmd:

; 222  : 		}
; 223  : 		if( minp == maxp - 1 )

	mov	edx, DWORD PTR _maxp$[ebp]
	sub	edx, 1
	cmp	DWORD PTR _minp$[ebp], edx
	jne	SHORT $LN3@strtogmd

; 224  : 		{
; 225  : 			min = -1e20f;

	mov	eax, DWORD PTR _min$[ebp]
	fld	DWORD PTR __real@e0ad78ec
	fstp	DWORD PTR [eax]
$LN3@strtogmd:

; 226  : 		}
; 227  : 		if( maxp == endp )

	mov	ecx, DWORD PTR _maxp$[ebp]
	cmp	ecx, DWORD PTR _endp$[ebp]
	jne	SHORT $LN2@strtogmd

; 228  : 		{
; 229  : 			max = 1e20f;

	mov	edx, DWORD PTR _max$[ebp]
	fld	DWORD PTR __real@60ad78ec
	fstp	DWORD PTR [edx]
$LN2@strtogmd:

; 230  : 		}
; 231  : 		if( end != 0 )

	cmp	DWORD PTR _end$[ebp], 0
	je	SHORT $LN1@strtogmd

; 232  : 		{
; 233  : 			*end = endp + 1;

	mov	eax, DWORD PTR _endp$[ebp]
	add	eax, 1
	mov	ecx, DWORD PTR _end$[ebp]
	mov	DWORD PTR [ecx], eax
$LN1@strtogmd:

; 234  : 		}
; 235  : 		return 4;

	mov	eax, 4
$LN16@strtogmd:

; 236  : 	};

	mov	esp, ebp
	pop	ebp
	ret	24					; 00000018H
?strtogmd@GaussGenerator@Ogre@@QBEHPBDPAPADAAM222@Z ENDP ; Ogre::GaussGenerator::strtogmd
; Function compile flags: /Odtp
; File i:\svnroot\client\ogremain\ogremath.h
_TEXT	ENDS
;	COMDAT ??__ETWO_PI@Ogre@@YAXXZ
text$yc	SEGMENT
??__ETWO_PI@Ogre@@YAXXZ PROC				; Ogre::`dynamic initializer for 'TWO_PI'', COMDAT

; 10   : 	const float TWO_PI = ONE_PI*2;

	push	ebp
	mov	ebp, esp
	fld	DWORD PTR _ONE_PI
	fadd	ST(0), ST(0)
	fstp	DWORD PTR _TWO_PI
	pop	ebp
	ret	0
??__ETWO_PI@Ogre@@YAXXZ ENDP				; Ogre::`dynamic initializer for 'TWO_PI''
text$yc	ENDS
PUBLIC	__real@3fe0000000000000
;	COMDAT __real@3fe0000000000000
CONST	SEGMENT
__real@3fe0000000000000 DQ 03fe0000000000000r	; 0.5
; Function compile flags: /Odtp
CONST	ENDS
;	COMDAT ??__EHALF_PI@Ogre@@YAXXZ
text$yc	SEGMENT
??__EHALF_PI@Ogre@@YAXXZ PROC				; Ogre::`dynamic initializer for 'HALF_PI'', COMDAT

; 11   : 	const float	HALF_PI = ONE_PI*0.5f;

	push	ebp
	mov	ebp, esp
	fld	DWORD PTR _ONE_PI
	fmul	QWORD PTR __real@3fe0000000000000
	fstp	DWORD PTR _HALF_PI
	pop	ebp
	ret	0
??__EHALF_PI@Ogre@@YAXXZ ENDP				; Ogre::`dynamic initializer for 'HALF_PI''
text$yc	ENDS
_BSS	SEGMENT
_TWO_PI	DD	01H DUP (?)
_HALF_PI DD	01H DUP (?)
_BSS	ENDS
CRT$XCU	SEGMENT
_TWO_PI$initializer$ DD FLAT:??__ETWO_PI@Ogre@@YAXXZ
_HALF_PI$initializer$ DD FLAT:??__EHALF_PI@Ogre@@YAXXZ
CRT$XCU	ENDS
END
