; Listing generated by Microsoft (R) Optimizing Compiler Version 15.00.30729.01 

	TITLE	i:\svnroot\client\OgreMain\OgrePixelFormat.cpp
	.686P
	.XMM
	include listing.inc
	.model	flat

INCLUDELIB MSVCRT
INCLUDELIB OLDNAMES

PUBLIC	?_Value@?$_Is_swap_move@U_Swap_move_tag@std@@@std@@2_NB ; std::_Is_swap_move<std::_Swap_move_tag>::_Value
PUBLIC	?collate@?$_Locbase@H@std@@2HB			; std::_Locbase<int>::collate
PUBLIC	?ctype@?$_Locbase@H@std@@2HB			; std::_Locbase<int>::ctype
PUBLIC	?monetary@?$_Locbase@H@std@@2HB			; std::_Locbase<int>::monetary
PUBLIC	?numeric@?$_Locbase@H@std@@2HB			; std::_Locbase<int>::numeric
PUBLIC	?time@?$_Locbase@H@std@@2HB			; std::_Locbase<int>::time
PUBLIC	?messages@?$_Locbase@H@std@@2HB			; std::_Locbase<int>::messages
PUBLIC	?all@?$_Locbase@H@std@@2HB			; std::_Locbase<int>::all
PUBLIC	?none@?$_Locbase@H@std@@2HB			; std::_Locbase<int>::none
PUBLIC	?skipws@?$_Iosb@H@std@@2W4_Fmtflags@12@B	; std::_Iosb<int>::skipws
PUBLIC	?unitbuf@?$_Iosb@H@std@@2W4_Fmtflags@12@B	; std::_Iosb<int>::unitbuf
PUBLIC	?uppercase@?$_Iosb@H@std@@2W4_Fmtflags@12@B	; std::_Iosb<int>::uppercase
PUBLIC	?showbase@?$_Iosb@H@std@@2W4_Fmtflags@12@B	; std::_Iosb<int>::showbase
PUBLIC	?showpoint@?$_Iosb@H@std@@2W4_Fmtflags@12@B	; std::_Iosb<int>::showpoint
PUBLIC	?showpos@?$_Iosb@H@std@@2W4_Fmtflags@12@B	; std::_Iosb<int>::showpos
PUBLIC	?left@?$_Iosb@H@std@@2W4_Fmtflags@12@B		; std::_Iosb<int>::left
PUBLIC	?right@?$_Iosb@H@std@@2W4_Fmtflags@12@B		; std::_Iosb<int>::right
PUBLIC	?internal@?$_Iosb@H@std@@2W4_Fmtflags@12@B	; std::_Iosb<int>::internal
PUBLIC	?dec@?$_Iosb@H@std@@2W4_Fmtflags@12@B		; std::_Iosb<int>::dec
PUBLIC	?oct@?$_Iosb@H@std@@2W4_Fmtflags@12@B		; std::_Iosb<int>::oct
PUBLIC	?hex@?$_Iosb@H@std@@2W4_Fmtflags@12@B		; std::_Iosb<int>::hex
PUBLIC	?scientific@?$_Iosb@H@std@@2W4_Fmtflags@12@B	; std::_Iosb<int>::scientific
PUBLIC	?fixed@?$_Iosb@H@std@@2W4_Fmtflags@12@B		; std::_Iosb<int>::fixed
PUBLIC	?hexfloat@?$_Iosb@H@std@@2W4_Fmtflags@12@B	; std::_Iosb<int>::hexfloat
PUBLIC	?boolalpha@?$_Iosb@H@std@@2W4_Fmtflags@12@B	; std::_Iosb<int>::boolalpha
PUBLIC	?_Stdio@?$_Iosb@H@std@@2W4_Fmtflags@12@B	; std::_Iosb<int>::_Stdio
PUBLIC	?adjustfield@?$_Iosb@H@std@@2W4_Fmtflags@12@B	; std::_Iosb<int>::adjustfield
PUBLIC	?basefield@?$_Iosb@H@std@@2W4_Fmtflags@12@B	; std::_Iosb<int>::basefield
PUBLIC	?floatfield@?$_Iosb@H@std@@2W4_Fmtflags@12@B	; std::_Iosb<int>::floatfield
PUBLIC	?goodbit@?$_Iosb@H@std@@2W4_Iostate@12@B	; std::_Iosb<int>::goodbit
PUBLIC	?eofbit@?$_Iosb@H@std@@2W4_Iostate@12@B		; std::_Iosb<int>::eofbit
PUBLIC	?failbit@?$_Iosb@H@std@@2W4_Iostate@12@B	; std::_Iosb<int>::failbit
PUBLIC	?badbit@?$_Iosb@H@std@@2W4_Iostate@12@B		; std::_Iosb<int>::badbit
PUBLIC	?_Hardfail@?$_Iosb@H@std@@2W4_Iostate@12@B	; std::_Iosb<int>::_Hardfail
PUBLIC	?in@?$_Iosb@H@std@@2W4_Openmode@12@B		; std::_Iosb<int>::in
PUBLIC	?out@?$_Iosb@H@std@@2W4_Openmode@12@B		; std::_Iosb<int>::out
PUBLIC	?ate@?$_Iosb@H@std@@2W4_Openmode@12@B		; std::_Iosb<int>::ate
PUBLIC	?app@?$_Iosb@H@std@@2W4_Openmode@12@B		; std::_Iosb<int>::app
PUBLIC	?trunc@?$_Iosb@H@std@@2W4_Openmode@12@B		; std::_Iosb<int>::trunc
PUBLIC	?_Nocreate@?$_Iosb@H@std@@2W4_Openmode@12@B	; std::_Iosb<int>::_Nocreate
PUBLIC	?_Noreplace@?$_Iosb@H@std@@2W4_Openmode@12@B	; std::_Iosb<int>::_Noreplace
PUBLIC	?binary@?$_Iosb@H@std@@2W4_Openmode@12@B	; std::_Iosb<int>::binary
PUBLIC	?beg@?$_Iosb@H@std@@2W4_Seekdir@12@B		; std::_Iosb<int>::beg
PUBLIC	?cur@?$_Iosb@H@std@@2W4_Seekdir@12@B		; std::_Iosb<int>::cur
PUBLIC	?end@?$_Iosb@H@std@@2W4_Seekdir@12@B		; std::_Iosb<int>::end
PUBLIC	?value@?$integral_constant@_N$0A@@tr1@std@@2_NB	; std::tr1::integral_constant<bool,0>::value
PUBLIC	?value@?$integral_constant@_N$00@tr1@std@@2_NB	; std::tr1::integral_constant<bool,1>::value
PUBLIC	?ID@?$PixelConverter@II$0MAN@@?A0xbce8a349@@2HB	; `anonymous namespace'::PixelConverter<unsigned int,unsigned int,3085>::ID
PUBLIC	?ID@?$PixelConverter@II$0MAO@@?A0xbce8a349@@2HB	; `anonymous namespace'::PixelConverter<unsigned int,unsigned int,3086>::ID
PUBLIC	?ID@?$PixelConverter@II$0MBM@@?A0xbce8a349@@2HB	; `anonymous namespace'::PixelConverter<unsigned int,unsigned int,3100>::ID
PUBLIC	?ID@?$PixelConverter@II$0NAM@@?A0xbce8a349@@2HB	; `anonymous namespace'::PixelConverter<unsigned int,unsigned int,3340>::ID
PUBLIC	?ID@?$PixelConverter@II$0NAO@@?A0xbce8a349@@2HB	; `anonymous namespace'::PixelConverter<unsigned int,unsigned int,3342>::ID
PUBLIC	?ID@?$PixelConverter@II$0NBM@@?A0xbce8a349@@2HB	; `anonymous namespace'::PixelConverter<unsigned int,unsigned int,3356>::ID
PUBLIC	?ID@?$PixelConverter@II$0OAM@@?A0xbce8a349@@2HB	; `anonymous namespace'::PixelConverter<unsigned int,unsigned int,3596>::ID
PUBLIC	?ID@?$PixelConverter@II$0OAN@@?A0xbce8a349@@2HB	; `anonymous namespace'::PixelConverter<unsigned int,unsigned int,3597>::ID
PUBLIC	?ID@?$PixelConverter@II$0OBM@@?A0xbce8a349@@2HB	; `anonymous namespace'::PixelConverter<unsigned int,unsigned int,3612>::ID
PUBLIC	?ID@?$PixelConverter@II$0BMAM@@?A0xbce8a349@@2HB ; `anonymous namespace'::PixelConverter<unsigned int,unsigned int,7180>::ID
PUBLIC	?ID@?$PixelConverter@II$0BMAN@@?A0xbce8a349@@2HB ; `anonymous namespace'::PixelConverter<unsigned int,unsigned int,7181>::ID
PUBLIC	?ID@?$PixelConverter@II$0BMAO@@?A0xbce8a349@@2HB ; `anonymous namespace'::PixelConverter<unsigned int,unsigned int,7182>::ID
PUBLIC	?ID@?$PixelConverter@IE$0NAB@@?A0xbce8a349@@2HB	; `anonymous namespace'::PixelConverter<unsigned int,unsigned char,3329>::ID
PUBLIC	?ID@?$PixelConverter@EI$0BAN@@?A0xbce8a349@@2HB	; `anonymous namespace'::PixelConverter<unsigned char,unsigned int,269>::ID
PUBLIC	?ID@?$PixelConverter@IE$0MAB@@?A0xbce8a349@@2HB	; `anonymous namespace'::PixelConverter<unsigned int,unsigned char,3073>::ID
PUBLIC	?ID@?$PixelConverter@EI$0BAM@@?A0xbce8a349@@2HB	; `anonymous namespace'::PixelConverter<unsigned char,unsigned int,268>::ID
PUBLIC	?ID@?$PixelConverter@IE$0OAB@@?A0xbce8a349@@2HB	; `anonymous namespace'::PixelConverter<unsigned int,unsigned char,3585>::ID
PUBLIC	?ID@?$PixelConverter@EI$0BAO@@?A0xbce8a349@@2HB	; `anonymous namespace'::PixelConverter<unsigned char,unsigned int,270>::ID
PUBLIC	?ID@?$PixelConverter@EG$0BAC@@?A0xbce8a349@@2HB	; `anonymous namespace'::PixelConverter<unsigned char,unsigned short,258>::ID
PUBLIC	?ID@?$PixelConverter@GE$0CAB@@?A0xbce8a349@@2HB	; `anonymous namespace'::PixelConverter<unsigned short,unsigned char,513>::ID
PUBLIC	?ID@?$PixelConverter@UCol3b@?A0xbce8a349@@U12@$0KAL@@?A0xbce8a349@@2HB ; `anonymous namespace'::PixelConverter<`anonymous namespace'::Col3b,A0xbce8a349::Col3b,2571>::ID
PUBLIC	?ID@?$PixelConverter@UCol3b@?A0xbce8a349@@U12@$0LAK@@?A0xbce8a349@@2HB ; `anonymous namespace'::PixelConverter<`anonymous namespace'::Col3b,A0xbce8a349::Col3b,2826>::ID
PUBLIC	?ID@?$PixelConverter@UCol3b@?A0xbce8a349@@I$0KAM@@?A0xbce8a349@@2HB ; `anonymous namespace'::PixelConverter<`anonymous namespace'::Col3b,unsigned int,2572>::ID
PUBLIC	?ID@?$PixelConverter@UCol3b@?A0xbce8a349@@I$0LAM@@?A0xbce8a349@@2HB ; `anonymous namespace'::PixelConverter<`anonymous namespace'::Col3b,unsigned int,2828>::ID
PUBLIC	?ID@?$PixelConverter@UCol3b@?A0xbce8a349@@I$0KAN@@?A0xbce8a349@@2HB ; `anonymous namespace'::PixelConverter<`anonymous namespace'::Col3b,unsigned int,2573>::ID
PUBLIC	?ID@?$PixelConverter@UCol3b@?A0xbce8a349@@I$0LAN@@?A0xbce8a349@@2HB ; `anonymous namespace'::PixelConverter<`anonymous namespace'::Col3b,unsigned int,2829>::ID
PUBLIC	?ID@?$PixelConverter@UCol3b@?A0xbce8a349@@I$0KAO@@?A0xbce8a349@@2HB ; `anonymous namespace'::PixelConverter<`anonymous namespace'::Col3b,unsigned int,2574>::ID
PUBLIC	?ID@?$PixelConverter@UCol3b@?A0xbce8a349@@I$0LAO@@?A0xbce8a349@@2HB ; `anonymous namespace'::PixelConverter<`anonymous namespace'::Col3b,unsigned int,2830>::ID
PUBLIC	?ID@?$PixelConverter@IUCol3b@?A0xbce8a349@@$0MAL@@?A0xbce8a349@@2HB ; `anonymous namespace'::PixelConverter<unsigned int,`anonymous namespace'::Col3b,3083>::ID
PUBLIC	?ID@?$PixelConverter@IUCol3b@?A0xbce8a349@@$0MAK@@?A0xbce8a349@@2HB ; `anonymous namespace'::PixelConverter<unsigned int,`anonymous namespace'::Col3b,3082>::ID
PUBLIC	?ID@?$PixelConverter@II$0BKAM@@?A0xbce8a349@@2HB ; `anonymous namespace'::PixelConverter<unsigned int,unsigned int,6668>::ID
PUBLIC	?ID@?$PixelConverter@II$0BKAN@@?A0xbce8a349@@2HB ; `anonymous namespace'::PixelConverter<unsigned int,unsigned int,6669>::ID
PUBLIC	?ID@?$PixelConverter@II$0BKAO@@?A0xbce8a349@@2HB ; `anonymous namespace'::PixelConverter<unsigned int,unsigned int,6670>::ID
PUBLIC	?ID@?$PixelConverter@II$0BKBM@@?A0xbce8a349@@2HB ; `anonymous namespace'::PixelConverter<unsigned int,unsigned int,6684>::ID
PUBLIC	?ID@?$PixelConverter@II$0BLAM@@?A0xbce8a349@@2HB ; `anonymous namespace'::PixelConverter<unsigned int,unsigned int,6924>::ID
PUBLIC	?ID@?$PixelConverter@II$0BLAN@@?A0xbce8a349@@2HB ; `anonymous namespace'::PixelConverter<unsigned int,unsigned int,6925>::ID
PUBLIC	?ID@?$PixelConverter@II$0BLAO@@?A0xbce8a349@@2HB ; `anonymous namespace'::PixelConverter<unsigned int,unsigned int,6926>::ID
PUBLIC	?ID@?$PixelConverter@II$0BLBM@@?A0xbce8a349@@2HB ; `anonymous namespace'::PixelConverter<unsigned int,unsigned int,6940>::ID
PUBLIC	?ID@?$PixelBoxConverter@UA8R8G8B8toA8B8G8R8@?A0xbce8a349@@@?A0xbce8a349@@2HB ; `anonymous namespace'::PixelBoxConverter<`anonymous namespace'::A8R8G8B8toA8B8G8R8>::ID
PUBLIC	?ID@?$PixelBoxConverter@UA8R8G8B8toB8G8R8A8@?A0xbce8a349@@@?A0xbce8a349@@2HB ; `anonymous namespace'::PixelBoxConverter<`anonymous namespace'::A8R8G8B8toB8G8R8A8>::ID
PUBLIC	?ID@?$PixelBoxConverter@UA8R8G8B8toR8G8B8A8@?A0xbce8a349@@@?A0xbce8a349@@2HB ; `anonymous namespace'::PixelBoxConverter<`anonymous namespace'::A8R8G8B8toR8G8B8A8>::ID
PUBLIC	?ID@?$PixelBoxConverter@UA8B8G8R8toA8R8G8B8@?A0xbce8a349@@@?A0xbce8a349@@2HB ; `anonymous namespace'::PixelBoxConverter<`anonymous namespace'::A8B8G8R8toA8R8G8B8>::ID
PUBLIC	?ID@?$PixelBoxConverter@UA8B8G8R8toB8G8R8A8@?A0xbce8a349@@@?A0xbce8a349@@2HB ; `anonymous namespace'::PixelBoxConverter<`anonymous namespace'::A8B8G8R8toB8G8R8A8>::ID
PUBLIC	?ID@?$PixelBoxConverter@UA8B8G8R8toR8G8B8A8@?A0xbce8a349@@@?A0xbce8a349@@2HB ; `anonymous namespace'::PixelBoxConverter<`anonymous namespace'::A8B8G8R8toR8G8B8A8>::ID
PUBLIC	?ID@?$PixelBoxConverter@UB8G8R8A8toA8R8G8B8@?A0xbce8a349@@@?A0xbce8a349@@2HB ; `anonymous namespace'::PixelBoxConverter<`anonymous namespace'::B8G8R8A8toA8R8G8B8>::ID
PUBLIC	?ID@?$PixelBoxConverter@UB8G8R8A8toA8B8G8R8@?A0xbce8a349@@@?A0xbce8a349@@2HB ; `anonymous namespace'::PixelBoxConverter<`anonymous namespace'::B8G8R8A8toA8B8G8R8>::ID
PUBLIC	?ID@?$PixelBoxConverter@UB8G8R8A8toR8G8B8A8@?A0xbce8a349@@@?A0xbce8a349@@2HB ; `anonymous namespace'::PixelBoxConverter<`anonymous namespace'::B8G8R8A8toR8G8B8A8>::ID
PUBLIC	?ID@?$PixelBoxConverter@UR8G8B8A8toA8R8G8B8@?A0xbce8a349@@@?A0xbce8a349@@2HB ; `anonymous namespace'::PixelBoxConverter<`anonymous namespace'::R8G8B8A8toA8R8G8B8>::ID
PUBLIC	?ID@?$PixelBoxConverter@UR8G8B8A8toA8B8G8R8@?A0xbce8a349@@@?A0xbce8a349@@2HB ; `anonymous namespace'::PixelBoxConverter<`anonymous namespace'::R8G8B8A8toA8B8G8R8>::ID
PUBLIC	?ID@?$PixelBoxConverter@UR8G8B8A8toB8G8R8A8@?A0xbce8a349@@@?A0xbce8a349@@2HB ; `anonymous namespace'::PixelBoxConverter<`anonymous namespace'::R8G8B8A8toB8G8R8A8>::ID
PUBLIC	?ID@?$PixelBoxConverter@UA8B8G8R8toL8@?A0xbce8a349@@@?A0xbce8a349@@2HB ; `anonymous namespace'::PixelBoxConverter<`anonymous namespace'::A8B8G8R8toL8>::ID
PUBLIC	?ID@?$PixelBoxConverter@UL8toA8B8G8R8@?A0xbce8a349@@@?A0xbce8a349@@2HB ; `anonymous namespace'::PixelBoxConverter<`anonymous namespace'::L8toA8B8G8R8>::ID
PUBLIC	?ID@?$PixelBoxConverter@UA8R8G8B8toL8@?A0xbce8a349@@@?A0xbce8a349@@2HB ; `anonymous namespace'::PixelBoxConverter<`anonymous namespace'::A8R8G8B8toL8>::ID
PUBLIC	?ID@?$PixelBoxConverter@UL8toA8R8G8B8@?A0xbce8a349@@@?A0xbce8a349@@2HB ; `anonymous namespace'::PixelBoxConverter<`anonymous namespace'::L8toA8R8G8B8>::ID
PUBLIC	?ID@?$PixelBoxConverter@UB8G8R8A8toL8@?A0xbce8a349@@@?A0xbce8a349@@2HB ; `anonymous namespace'::PixelBoxConverter<`anonymous namespace'::B8G8R8A8toL8>::ID
PUBLIC	?ID@?$PixelBoxConverter@UL8toB8G8R8A8@?A0xbce8a349@@@?A0xbce8a349@@2HB ; `anonymous namespace'::PixelBoxConverter<`anonymous namespace'::L8toB8G8R8A8>::ID
PUBLIC	?ID@?$PixelBoxConverter@UL8toL16@?A0xbce8a349@@@?A0xbce8a349@@2HB ; `anonymous namespace'::PixelBoxConverter<`anonymous namespace'::L8toL16>::ID
PUBLIC	?ID@?$PixelBoxConverter@UL16toL8@?A0xbce8a349@@@?A0xbce8a349@@2HB ; `anonymous namespace'::PixelBoxConverter<`anonymous namespace'::L16toL8>::ID
PUBLIC	?ID@?$PixelBoxConverter@UB8G8R8toR8G8B8@?A0xbce8a349@@@?A0xbce8a349@@2HB ; `anonymous namespace'::PixelBoxConverter<`anonymous namespace'::B8G8R8toR8G8B8>::ID
PUBLIC	?ID@?$PixelBoxConverter@UR8G8B8toB8G8R8@?A0xbce8a349@@@?A0xbce8a349@@2HB ; `anonymous namespace'::PixelBoxConverter<`anonymous namespace'::R8G8B8toB8G8R8>::ID
PUBLIC	?ID@?$PixelBoxConverter@UR8G8B8toA8R8G8B8@?A0xbce8a349@@@?A0xbce8a349@@2HB ; `anonymous namespace'::PixelBoxConverter<`anonymous namespace'::R8G8B8toA8R8G8B8>::ID
PUBLIC	?ID@?$PixelBoxConverter@UB8G8R8toA8R8G8B8@?A0xbce8a349@@@?A0xbce8a349@@2HB ; `anonymous namespace'::PixelBoxConverter<`anonymous namespace'::B8G8R8toA8R8G8B8>::ID
PUBLIC	?ID@?$PixelBoxConverter@UR8G8B8toA8B8G8R8@?A0xbce8a349@@@?A0xbce8a349@@2HB ; `anonymous namespace'::PixelBoxConverter<`anonymous namespace'::R8G8B8toA8B8G8R8>::ID
PUBLIC	?ID@?$PixelBoxConverter@UB8G8R8toA8B8G8R8@?A0xbce8a349@@@?A0xbce8a349@@2HB ; `anonymous namespace'::PixelBoxConverter<`anonymous namespace'::B8G8R8toA8B8G8R8>::ID
PUBLIC	?ID@?$PixelBoxConverter@UR8G8B8toB8G8R8A8@?A0xbce8a349@@@?A0xbce8a349@@2HB ; `anonymous namespace'::PixelBoxConverter<`anonymous namespace'::R8G8B8toB8G8R8A8>::ID
PUBLIC	?ID@?$PixelBoxConverter@UB8G8R8toB8G8R8A8@?A0xbce8a349@@@?A0xbce8a349@@2HB ; `anonymous namespace'::PixelBoxConverter<`anonymous namespace'::B8G8R8toB8G8R8A8>::ID
PUBLIC	?ID@?$PixelBoxConverter@UA8R8G8B8toR8G8B8@?A0xbce8a349@@@?A0xbce8a349@@2HB ; `anonymous namespace'::PixelBoxConverter<`anonymous namespace'::A8R8G8B8toR8G8B8>::ID
PUBLIC	?ID@?$PixelBoxConverter@UA8R8G8B8toB8G8R8@?A0xbce8a349@@@?A0xbce8a349@@2HB ; `anonymous namespace'::PixelBoxConverter<`anonymous namespace'::A8R8G8B8toB8G8R8>::ID
PUBLIC	?ID@?$PixelBoxConverter@UX8R8G8B8toA8R8G8B8@?A0xbce8a349@@@?A0xbce8a349@@2HB ; `anonymous namespace'::PixelBoxConverter<`anonymous namespace'::X8R8G8B8toA8R8G8B8>::ID
PUBLIC	?ID@?$PixelBoxConverter@UX8R8G8B8toA8B8G8R8@?A0xbce8a349@@@?A0xbce8a349@@2HB ; `anonymous namespace'::PixelBoxConverter<`anonymous namespace'::X8R8G8B8toA8B8G8R8>::ID
PUBLIC	?ID@?$PixelBoxConverter@UX8R8G8B8toB8G8R8A8@?A0xbce8a349@@@?A0xbce8a349@@2HB ; `anonymous namespace'::PixelBoxConverter<`anonymous namespace'::X8R8G8B8toB8G8R8A8>::ID
PUBLIC	?ID@?$PixelBoxConverter@UX8R8G8B8toR8G8B8A8@?A0xbce8a349@@@?A0xbce8a349@@2HB ; `anonymous namespace'::PixelBoxConverter<`anonymous namespace'::X8R8G8B8toR8G8B8A8>::ID
PUBLIC	?ID@?$PixelBoxConverter@UX8B8G8R8toA8R8G8B8@?A0xbce8a349@@@?A0xbce8a349@@2HB ; `anonymous namespace'::PixelBoxConverter<`anonymous namespace'::X8B8G8R8toA8R8G8B8>::ID
PUBLIC	?ID@?$PixelBoxConverter@UX8B8G8R8toA8B8G8R8@?A0xbce8a349@@@?A0xbce8a349@@2HB ; `anonymous namespace'::PixelBoxConverter<`anonymous namespace'::X8B8G8R8toA8B8G8R8>::ID
PUBLIC	?ID@?$PixelBoxConverter@UX8B8G8R8toB8G8R8A8@?A0xbce8a349@@@?A0xbce8a349@@2HB ; `anonymous namespace'::PixelBoxConverter<`anonymous namespace'::X8B8G8R8toB8G8R8A8>::ID
PUBLIC	?ID@?$PixelBoxConverter@UX8B8G8R8toR8G8B8A8@?A0xbce8a349@@@?A0xbce8a349@@2HB ; `anonymous namespace'::PixelBoxConverter<`anonymous namespace'::X8B8G8R8toR8G8B8A8>::ID
PUBLIC	?_pixelFormats@Ogre@@3PAUPixelFormatDescription@1@A ; Ogre::_pixelFormats
;	COMDAT ?ID@?$PixelBoxConverter@UX8B8G8R8toR8G8B8A8@?A0xbce8a349@@@?A0xbce8a349@@2HB
CONST	SEGMENT
?ID@?$PixelBoxConverter@UX8B8G8R8toR8G8B8A8@?A0xbce8a349@@@?A0xbce8a349@@2HB DD 01b1cH ; `anonymous namespace'::PixelBoxConverter<`anonymous namespace'::X8B8G8R8toR8G8B8A8>::ID
CONST	ENDS
;	COMDAT ?ID@?$PixelBoxConverter@UX8B8G8R8toB8G8R8A8@?A0xbce8a349@@@?A0xbce8a349@@2HB
CONST	SEGMENT
?ID@?$PixelBoxConverter@UX8B8G8R8toB8G8R8A8@?A0xbce8a349@@@?A0xbce8a349@@2HB DD 01b0eH ; `anonymous namespace'::PixelBoxConverter<`anonymous namespace'::X8B8G8R8toB8G8R8A8>::ID
CONST	ENDS
;	COMDAT ?ID@?$PixelBoxConverter@UX8B8G8R8toA8B8G8R8@?A0xbce8a349@@@?A0xbce8a349@@2HB
CONST	SEGMENT
?ID@?$PixelBoxConverter@UX8B8G8R8toA8B8G8R8@?A0xbce8a349@@@?A0xbce8a349@@2HB DD 01b0dH ; `anonymous namespace'::PixelBoxConverter<`anonymous namespace'::X8B8G8R8toA8B8G8R8>::ID
CONST	ENDS
;	COMDAT ?ID@?$PixelBoxConverter@UX8B8G8R8toA8R8G8B8@?A0xbce8a349@@@?A0xbce8a349@@2HB
CONST	SEGMENT
?ID@?$PixelBoxConverter@UX8B8G8R8toA8R8G8B8@?A0xbce8a349@@@?A0xbce8a349@@2HB DD 01b0cH ; `anonymous namespace'::PixelBoxConverter<`anonymous namespace'::X8B8G8R8toA8R8G8B8>::ID
CONST	ENDS
;	COMDAT ?ID@?$PixelBoxConverter@UX8R8G8B8toR8G8B8A8@?A0xbce8a349@@@?A0xbce8a349@@2HB
CONST	SEGMENT
?ID@?$PixelBoxConverter@UX8R8G8B8toR8G8B8A8@?A0xbce8a349@@@?A0xbce8a349@@2HB DD 01a1cH ; `anonymous namespace'::PixelBoxConverter<`anonymous namespace'::X8R8G8B8toR8G8B8A8>::ID
CONST	ENDS
;	COMDAT ?ID@?$PixelBoxConverter@UX8R8G8B8toB8G8R8A8@?A0xbce8a349@@@?A0xbce8a349@@2HB
CONST	SEGMENT
?ID@?$PixelBoxConverter@UX8R8G8B8toB8G8R8A8@?A0xbce8a349@@@?A0xbce8a349@@2HB DD 01a0eH ; `anonymous namespace'::PixelBoxConverter<`anonymous namespace'::X8R8G8B8toB8G8R8A8>::ID
CONST	ENDS
;	COMDAT ?ID@?$PixelBoxConverter@UX8R8G8B8toA8B8G8R8@?A0xbce8a349@@@?A0xbce8a349@@2HB
CONST	SEGMENT
?ID@?$PixelBoxConverter@UX8R8G8B8toA8B8G8R8@?A0xbce8a349@@@?A0xbce8a349@@2HB DD 01a0dH ; `anonymous namespace'::PixelBoxConverter<`anonymous namespace'::X8R8G8B8toA8B8G8R8>::ID
CONST	ENDS
;	COMDAT ?ID@?$PixelBoxConverter@UX8R8G8B8toA8R8G8B8@?A0xbce8a349@@@?A0xbce8a349@@2HB
CONST	SEGMENT
?ID@?$PixelBoxConverter@UX8R8G8B8toA8R8G8B8@?A0xbce8a349@@@?A0xbce8a349@@2HB DD 01a0cH ; `anonymous namespace'::PixelBoxConverter<`anonymous namespace'::X8R8G8B8toA8R8G8B8>::ID
CONST	ENDS
;	COMDAT ?ID@?$PixelBoxConverter@UA8R8G8B8toB8G8R8@?A0xbce8a349@@@?A0xbce8a349@@2HB
CONST	SEGMENT
?ID@?$PixelBoxConverter@UA8R8G8B8toB8G8R8@?A0xbce8a349@@@?A0xbce8a349@@2HB DD 0c0aH ; `anonymous namespace'::PixelBoxConverter<`anonymous namespace'::A8R8G8B8toB8G8R8>::ID
CONST	ENDS
;	COMDAT ?ID@?$PixelBoxConverter@UA8R8G8B8toR8G8B8@?A0xbce8a349@@@?A0xbce8a349@@2HB
CONST	SEGMENT
?ID@?$PixelBoxConverter@UA8R8G8B8toR8G8B8@?A0xbce8a349@@@?A0xbce8a349@@2HB DD 0c0bH ; `anonymous namespace'::PixelBoxConverter<`anonymous namespace'::A8R8G8B8toR8G8B8>::ID
CONST	ENDS
;	COMDAT ?ID@?$PixelBoxConverter@UB8G8R8toB8G8R8A8@?A0xbce8a349@@@?A0xbce8a349@@2HB
CONST	SEGMENT
?ID@?$PixelBoxConverter@UB8G8R8toB8G8R8A8@?A0xbce8a349@@@?A0xbce8a349@@2HB DD 0b0eH ; `anonymous namespace'::PixelBoxConverter<`anonymous namespace'::B8G8R8toB8G8R8A8>::ID
CONST	ENDS
;	COMDAT ?ID@?$PixelBoxConverter@UR8G8B8toB8G8R8A8@?A0xbce8a349@@@?A0xbce8a349@@2HB
CONST	SEGMENT
?ID@?$PixelBoxConverter@UR8G8B8toB8G8R8A8@?A0xbce8a349@@@?A0xbce8a349@@2HB DD 0a0eH ; `anonymous namespace'::PixelBoxConverter<`anonymous namespace'::R8G8B8toB8G8R8A8>::ID
CONST	ENDS
;	COMDAT ?ID@?$PixelBoxConverter@UB8G8R8toA8B8G8R8@?A0xbce8a349@@@?A0xbce8a349@@2HB
CONST	SEGMENT
?ID@?$PixelBoxConverter@UB8G8R8toA8B8G8R8@?A0xbce8a349@@@?A0xbce8a349@@2HB DD 0b0dH ; `anonymous namespace'::PixelBoxConverter<`anonymous namespace'::B8G8R8toA8B8G8R8>::ID
CONST	ENDS
;	COMDAT ?ID@?$PixelBoxConverter@UR8G8B8toA8B8G8R8@?A0xbce8a349@@@?A0xbce8a349@@2HB
CONST	SEGMENT
?ID@?$PixelBoxConverter@UR8G8B8toA8B8G8R8@?A0xbce8a349@@@?A0xbce8a349@@2HB DD 0a0dH ; `anonymous namespace'::PixelBoxConverter<`anonymous namespace'::R8G8B8toA8B8G8R8>::ID
CONST	ENDS
;	COMDAT ?ID@?$PixelBoxConverter@UB8G8R8toA8R8G8B8@?A0xbce8a349@@@?A0xbce8a349@@2HB
CONST	SEGMENT
?ID@?$PixelBoxConverter@UB8G8R8toA8R8G8B8@?A0xbce8a349@@@?A0xbce8a349@@2HB DD 0b0cH ; `anonymous namespace'::PixelBoxConverter<`anonymous namespace'::B8G8R8toA8R8G8B8>::ID
CONST	ENDS
;	COMDAT ?ID@?$PixelBoxConverter@UR8G8B8toA8R8G8B8@?A0xbce8a349@@@?A0xbce8a349@@2HB
CONST	SEGMENT
?ID@?$PixelBoxConverter@UR8G8B8toA8R8G8B8@?A0xbce8a349@@@?A0xbce8a349@@2HB DD 0a0cH ; `anonymous namespace'::PixelBoxConverter<`anonymous namespace'::R8G8B8toA8R8G8B8>::ID
CONST	ENDS
;	COMDAT ?ID@?$PixelBoxConverter@UR8G8B8toB8G8R8@?A0xbce8a349@@@?A0xbce8a349@@2HB
CONST	SEGMENT
?ID@?$PixelBoxConverter@UR8G8B8toB8G8R8@?A0xbce8a349@@@?A0xbce8a349@@2HB DD 0a0bH ; `anonymous namespace'::PixelBoxConverter<`anonymous namespace'::R8G8B8toB8G8R8>::ID
CONST	ENDS
;	COMDAT ?ID@?$PixelBoxConverter@UB8G8R8toR8G8B8@?A0xbce8a349@@@?A0xbce8a349@@2HB
CONST	SEGMENT
?ID@?$PixelBoxConverter@UB8G8R8toR8G8B8@?A0xbce8a349@@@?A0xbce8a349@@2HB DD 0b0aH ; `anonymous namespace'::PixelBoxConverter<`anonymous namespace'::B8G8R8toR8G8B8>::ID
CONST	ENDS
;	COMDAT ?ID@?$PixelBoxConverter@UL16toL8@?A0xbce8a349@@@?A0xbce8a349@@2HB
CONST	SEGMENT
?ID@?$PixelBoxConverter@UL16toL8@?A0xbce8a349@@@?A0xbce8a349@@2HB DD 0201H ; `anonymous namespace'::PixelBoxConverter<`anonymous namespace'::L16toL8>::ID
CONST	ENDS
;	COMDAT ?ID@?$PixelBoxConverter@UL8toL16@?A0xbce8a349@@@?A0xbce8a349@@2HB
CONST	SEGMENT
?ID@?$PixelBoxConverter@UL8toL16@?A0xbce8a349@@@?A0xbce8a349@@2HB DD 0102H ; `anonymous namespace'::PixelBoxConverter<`anonymous namespace'::L8toL16>::ID
CONST	ENDS
;	COMDAT ?ID@?$PixelBoxConverter@UL8toB8G8R8A8@?A0xbce8a349@@@?A0xbce8a349@@2HB
CONST	SEGMENT
?ID@?$PixelBoxConverter@UL8toB8G8R8A8@?A0xbce8a349@@@?A0xbce8a349@@2HB DD 010eH ; `anonymous namespace'::PixelBoxConverter<`anonymous namespace'::L8toB8G8R8A8>::ID
CONST	ENDS
;	COMDAT ?ID@?$PixelBoxConverter@UB8G8R8A8toL8@?A0xbce8a349@@@?A0xbce8a349@@2HB
CONST	SEGMENT
?ID@?$PixelBoxConverter@UB8G8R8A8toL8@?A0xbce8a349@@@?A0xbce8a349@@2HB DD 0e01H ; `anonymous namespace'::PixelBoxConverter<`anonymous namespace'::B8G8R8A8toL8>::ID
CONST	ENDS
;	COMDAT ?ID@?$PixelBoxConverter@UL8toA8R8G8B8@?A0xbce8a349@@@?A0xbce8a349@@2HB
CONST	SEGMENT
?ID@?$PixelBoxConverter@UL8toA8R8G8B8@?A0xbce8a349@@@?A0xbce8a349@@2HB DD 010cH ; `anonymous namespace'::PixelBoxConverter<`anonymous namespace'::L8toA8R8G8B8>::ID
CONST	ENDS
;	COMDAT ?ID@?$PixelBoxConverter@UA8R8G8B8toL8@?A0xbce8a349@@@?A0xbce8a349@@2HB
CONST	SEGMENT
?ID@?$PixelBoxConverter@UA8R8G8B8toL8@?A0xbce8a349@@@?A0xbce8a349@@2HB DD 0c01H ; `anonymous namespace'::PixelBoxConverter<`anonymous namespace'::A8R8G8B8toL8>::ID
CONST	ENDS
;	COMDAT ?ID@?$PixelBoxConverter@UL8toA8B8G8R8@?A0xbce8a349@@@?A0xbce8a349@@2HB
CONST	SEGMENT
?ID@?$PixelBoxConverter@UL8toA8B8G8R8@?A0xbce8a349@@@?A0xbce8a349@@2HB DD 010dH ; `anonymous namespace'::PixelBoxConverter<`anonymous namespace'::L8toA8B8G8R8>::ID
CONST	ENDS
;	COMDAT ?ID@?$PixelBoxConverter@UA8B8G8R8toL8@?A0xbce8a349@@@?A0xbce8a349@@2HB
CONST	SEGMENT
?ID@?$PixelBoxConverter@UA8B8G8R8toL8@?A0xbce8a349@@@?A0xbce8a349@@2HB DD 0d01H ; `anonymous namespace'::PixelBoxConverter<`anonymous namespace'::A8B8G8R8toL8>::ID
CONST	ENDS
;	COMDAT ?ID@?$PixelBoxConverter@UR8G8B8A8toB8G8R8A8@?A0xbce8a349@@@?A0xbce8a349@@2HB
CONST	SEGMENT
?ID@?$PixelBoxConverter@UR8G8B8A8toB8G8R8A8@?A0xbce8a349@@@?A0xbce8a349@@2HB DD 01c0eH ; `anonymous namespace'::PixelBoxConverter<`anonymous namespace'::R8G8B8A8toB8G8R8A8>::ID
CONST	ENDS
;	COMDAT ?ID@?$PixelBoxConverter@UR8G8B8A8toA8B8G8R8@?A0xbce8a349@@@?A0xbce8a349@@2HB
CONST	SEGMENT
?ID@?$PixelBoxConverter@UR8G8B8A8toA8B8G8R8@?A0xbce8a349@@@?A0xbce8a349@@2HB DD 01c0dH ; `anonymous namespace'::PixelBoxConverter<`anonymous namespace'::R8G8B8A8toA8B8G8R8>::ID
CONST	ENDS
;	COMDAT ?ID@?$PixelBoxConverter@UR8G8B8A8toA8R8G8B8@?A0xbce8a349@@@?A0xbce8a349@@2HB
CONST	SEGMENT
?ID@?$PixelBoxConverter@UR8G8B8A8toA8R8G8B8@?A0xbce8a349@@@?A0xbce8a349@@2HB DD 01c0cH ; `anonymous namespace'::PixelBoxConverter<`anonymous namespace'::R8G8B8A8toA8R8G8B8>::ID
CONST	ENDS
;	COMDAT ?ID@?$PixelBoxConverter@UB8G8R8A8toR8G8B8A8@?A0xbce8a349@@@?A0xbce8a349@@2HB
CONST	SEGMENT
?ID@?$PixelBoxConverter@UB8G8R8A8toR8G8B8A8@?A0xbce8a349@@@?A0xbce8a349@@2HB DD 0e1cH ; `anonymous namespace'::PixelBoxConverter<`anonymous namespace'::B8G8R8A8toR8G8B8A8>::ID
CONST	ENDS
;	COMDAT ?ID@?$PixelBoxConverter@UB8G8R8A8toA8B8G8R8@?A0xbce8a349@@@?A0xbce8a349@@2HB
CONST	SEGMENT
?ID@?$PixelBoxConverter@UB8G8R8A8toA8B8G8R8@?A0xbce8a349@@@?A0xbce8a349@@2HB DD 0e0dH ; `anonymous namespace'::PixelBoxConverter<`anonymous namespace'::B8G8R8A8toA8B8G8R8>::ID
CONST	ENDS
;	COMDAT ?ID@?$PixelBoxConverter@UB8G8R8A8toA8R8G8B8@?A0xbce8a349@@@?A0xbce8a349@@2HB
CONST	SEGMENT
?ID@?$PixelBoxConverter@UB8G8R8A8toA8R8G8B8@?A0xbce8a349@@@?A0xbce8a349@@2HB DD 0e0cH ; `anonymous namespace'::PixelBoxConverter<`anonymous namespace'::B8G8R8A8toA8R8G8B8>::ID
CONST	ENDS
;	COMDAT ?ID@?$PixelBoxConverter@UA8B8G8R8toR8G8B8A8@?A0xbce8a349@@@?A0xbce8a349@@2HB
CONST	SEGMENT
?ID@?$PixelBoxConverter@UA8B8G8R8toR8G8B8A8@?A0xbce8a349@@@?A0xbce8a349@@2HB DD 0d1cH ; `anonymous namespace'::PixelBoxConverter<`anonymous namespace'::A8B8G8R8toR8G8B8A8>::ID
CONST	ENDS
;	COMDAT ?ID@?$PixelBoxConverter@UA8B8G8R8toB8G8R8A8@?A0xbce8a349@@@?A0xbce8a349@@2HB
CONST	SEGMENT
?ID@?$PixelBoxConverter@UA8B8G8R8toB8G8R8A8@?A0xbce8a349@@@?A0xbce8a349@@2HB DD 0d0eH ; `anonymous namespace'::PixelBoxConverter<`anonymous namespace'::A8B8G8R8toB8G8R8A8>::ID
CONST	ENDS
;	COMDAT ?ID@?$PixelBoxConverter@UA8B8G8R8toA8R8G8B8@?A0xbce8a349@@@?A0xbce8a349@@2HB
CONST	SEGMENT
?ID@?$PixelBoxConverter@UA8B8G8R8toA8R8G8B8@?A0xbce8a349@@@?A0xbce8a349@@2HB DD 0d0cH ; `anonymous namespace'::PixelBoxConverter<`anonymous namespace'::A8B8G8R8toA8R8G8B8>::ID
CONST	ENDS
;	COMDAT ?ID@?$PixelBoxConverter@UA8R8G8B8toR8G8B8A8@?A0xbce8a349@@@?A0xbce8a349@@2HB
CONST	SEGMENT
?ID@?$PixelBoxConverter@UA8R8G8B8toR8G8B8A8@?A0xbce8a349@@@?A0xbce8a349@@2HB DD 0c1cH ; `anonymous namespace'::PixelBoxConverter<`anonymous namespace'::A8R8G8B8toR8G8B8A8>::ID
CONST	ENDS
;	COMDAT ?ID@?$PixelBoxConverter@UA8R8G8B8toB8G8R8A8@?A0xbce8a349@@@?A0xbce8a349@@2HB
CONST	SEGMENT
?ID@?$PixelBoxConverter@UA8R8G8B8toB8G8R8A8@?A0xbce8a349@@@?A0xbce8a349@@2HB DD 0c0eH ; `anonymous namespace'::PixelBoxConverter<`anonymous namespace'::A8R8G8B8toB8G8R8A8>::ID
CONST	ENDS
;	COMDAT ?ID@?$PixelBoxConverter@UA8R8G8B8toA8B8G8R8@?A0xbce8a349@@@?A0xbce8a349@@2HB
CONST	SEGMENT
?ID@?$PixelBoxConverter@UA8R8G8B8toA8B8G8R8@?A0xbce8a349@@@?A0xbce8a349@@2HB DD 0c0dH ; `anonymous namespace'::PixelBoxConverter<`anonymous namespace'::A8R8G8B8toA8B8G8R8>::ID
CONST	ENDS
;	COMDAT ?ID@?$PixelConverter@II$0BLBM@@?A0xbce8a349@@2HB
CONST	SEGMENT
?ID@?$PixelConverter@II$0BLBM@@?A0xbce8a349@@2HB DD 01b1cH ; `anonymous namespace'::PixelConverter<unsigned int,unsigned int,6940>::ID
CONST	ENDS
;	COMDAT ?ID@?$PixelConverter@II$0BLAO@@?A0xbce8a349@@2HB
CONST	SEGMENT
?ID@?$PixelConverter@II$0BLAO@@?A0xbce8a349@@2HB DD 01b0eH ; `anonymous namespace'::PixelConverter<unsigned int,unsigned int,6926>::ID
CONST	ENDS
;	COMDAT ?ID@?$PixelConverter@II$0BLAN@@?A0xbce8a349@@2HB
CONST	SEGMENT
?ID@?$PixelConverter@II$0BLAN@@?A0xbce8a349@@2HB DD 01b0dH ; `anonymous namespace'::PixelConverter<unsigned int,unsigned int,6925>::ID
CONST	ENDS
;	COMDAT ?ID@?$PixelConverter@II$0BLAM@@?A0xbce8a349@@2HB
CONST	SEGMENT
?ID@?$PixelConverter@II$0BLAM@@?A0xbce8a349@@2HB DD 01b0cH ; `anonymous namespace'::PixelConverter<unsigned int,unsigned int,6924>::ID
CONST	ENDS
;	COMDAT ?ID@?$PixelConverter@II$0BKBM@@?A0xbce8a349@@2HB
CONST	SEGMENT
?ID@?$PixelConverter@II$0BKBM@@?A0xbce8a349@@2HB DD 01a1cH ; `anonymous namespace'::PixelConverter<unsigned int,unsigned int,6684>::ID
CONST	ENDS
;	COMDAT ?ID@?$PixelConverter@II$0BKAO@@?A0xbce8a349@@2HB
CONST	SEGMENT
?ID@?$PixelConverter@II$0BKAO@@?A0xbce8a349@@2HB DD 01a0eH ; `anonymous namespace'::PixelConverter<unsigned int,unsigned int,6670>::ID
CONST	ENDS
;	COMDAT ?ID@?$PixelConverter@II$0BKAN@@?A0xbce8a349@@2HB
CONST	SEGMENT
?ID@?$PixelConverter@II$0BKAN@@?A0xbce8a349@@2HB DD 01a0dH ; `anonymous namespace'::PixelConverter<unsigned int,unsigned int,6669>::ID
CONST	ENDS
;	COMDAT ?ID@?$PixelConverter@II$0BKAM@@?A0xbce8a349@@2HB
CONST	SEGMENT
?ID@?$PixelConverter@II$0BKAM@@?A0xbce8a349@@2HB DD 01a0cH ; `anonymous namespace'::PixelConverter<unsigned int,unsigned int,6668>::ID
CONST	ENDS
;	COMDAT ?ID@?$PixelConverter@IUCol3b@?A0xbce8a349@@$0MAK@@?A0xbce8a349@@2HB
CONST	SEGMENT
?ID@?$PixelConverter@IUCol3b@?A0xbce8a349@@$0MAK@@?A0xbce8a349@@2HB DD 0c0aH ; `anonymous namespace'::PixelConverter<unsigned int,`anonymous namespace'::Col3b,3082>::ID
CONST	ENDS
;	COMDAT ?ID@?$PixelConverter@IUCol3b@?A0xbce8a349@@$0MAL@@?A0xbce8a349@@2HB
CONST	SEGMENT
?ID@?$PixelConverter@IUCol3b@?A0xbce8a349@@$0MAL@@?A0xbce8a349@@2HB DD 0c0bH ; `anonymous namespace'::PixelConverter<unsigned int,`anonymous namespace'::Col3b,3083>::ID
CONST	ENDS
;	COMDAT ?ID@?$PixelConverter@UCol3b@?A0xbce8a349@@I$0LAO@@?A0xbce8a349@@2HB
CONST	SEGMENT
?ID@?$PixelConverter@UCol3b@?A0xbce8a349@@I$0LAO@@?A0xbce8a349@@2HB DD 0b0eH ; `anonymous namespace'::PixelConverter<`anonymous namespace'::Col3b,unsigned int,2830>::ID
CONST	ENDS
;	COMDAT ?ID@?$PixelConverter@UCol3b@?A0xbce8a349@@I$0KAO@@?A0xbce8a349@@2HB
CONST	SEGMENT
?ID@?$PixelConverter@UCol3b@?A0xbce8a349@@I$0KAO@@?A0xbce8a349@@2HB DD 0a0eH ; `anonymous namespace'::PixelConverter<`anonymous namespace'::Col3b,unsigned int,2574>::ID
CONST	ENDS
;	COMDAT ?ID@?$PixelConverter@UCol3b@?A0xbce8a349@@I$0LAN@@?A0xbce8a349@@2HB
CONST	SEGMENT
?ID@?$PixelConverter@UCol3b@?A0xbce8a349@@I$0LAN@@?A0xbce8a349@@2HB DD 0b0dH ; `anonymous namespace'::PixelConverter<`anonymous namespace'::Col3b,unsigned int,2829>::ID
CONST	ENDS
;	COMDAT ?ID@?$PixelConverter@UCol3b@?A0xbce8a349@@I$0KAN@@?A0xbce8a349@@2HB
CONST	SEGMENT
?ID@?$PixelConverter@UCol3b@?A0xbce8a349@@I$0KAN@@?A0xbce8a349@@2HB DD 0a0dH ; `anonymous namespace'::PixelConverter<`anonymous namespace'::Col3b,unsigned int,2573>::ID
CONST	ENDS
;	COMDAT ?ID@?$PixelConverter@UCol3b@?A0xbce8a349@@I$0LAM@@?A0xbce8a349@@2HB
CONST	SEGMENT
?ID@?$PixelConverter@UCol3b@?A0xbce8a349@@I$0LAM@@?A0xbce8a349@@2HB DD 0b0cH ; `anonymous namespace'::PixelConverter<`anonymous namespace'::Col3b,unsigned int,2828>::ID
CONST	ENDS
;	COMDAT ?ID@?$PixelConverter@UCol3b@?A0xbce8a349@@I$0KAM@@?A0xbce8a349@@2HB
CONST	SEGMENT
?ID@?$PixelConverter@UCol3b@?A0xbce8a349@@I$0KAM@@?A0xbce8a349@@2HB DD 0a0cH ; `anonymous namespace'::PixelConverter<`anonymous namespace'::Col3b,unsigned int,2572>::ID
CONST	ENDS
;	COMDAT ?ID@?$PixelConverter@UCol3b@?A0xbce8a349@@U12@$0LAK@@?A0xbce8a349@@2HB
CONST	SEGMENT
?ID@?$PixelConverter@UCol3b@?A0xbce8a349@@U12@$0LAK@@?A0xbce8a349@@2HB DD 0b0aH ; `anonymous namespace'::PixelConverter<`anonymous namespace'::Col3b,A0xbce8a349::Col3b,2826>::ID
CONST	ENDS
;	COMDAT ?ID@?$PixelConverter@UCol3b@?A0xbce8a349@@U12@$0KAL@@?A0xbce8a349@@2HB
CONST	SEGMENT
?ID@?$PixelConverter@UCol3b@?A0xbce8a349@@U12@$0KAL@@?A0xbce8a349@@2HB DD 0a0bH ; `anonymous namespace'::PixelConverter<`anonymous namespace'::Col3b,A0xbce8a349::Col3b,2571>::ID
CONST	ENDS
;	COMDAT ?ID@?$PixelConverter@GE$0CAB@@?A0xbce8a349@@2HB
CONST	SEGMENT
?ID@?$PixelConverter@GE$0CAB@@?A0xbce8a349@@2HB DD 0201H ; `anonymous namespace'::PixelConverter<unsigned short,unsigned char,513>::ID
CONST	ENDS
;	COMDAT ?ID@?$PixelConverter@EG$0BAC@@?A0xbce8a349@@2HB
CONST	SEGMENT
?ID@?$PixelConverter@EG$0BAC@@?A0xbce8a349@@2HB DD 0102H ; `anonymous namespace'::PixelConverter<unsigned char,unsigned short,258>::ID
CONST	ENDS
;	COMDAT ?ID@?$PixelConverter@EI$0BAO@@?A0xbce8a349@@2HB
CONST	SEGMENT
?ID@?$PixelConverter@EI$0BAO@@?A0xbce8a349@@2HB DD 010eH ; `anonymous namespace'::PixelConverter<unsigned char,unsigned int,270>::ID
CONST	ENDS
;	COMDAT ?ID@?$PixelConverter@IE$0OAB@@?A0xbce8a349@@2HB
CONST	SEGMENT
?ID@?$PixelConverter@IE$0OAB@@?A0xbce8a349@@2HB DD 0e01H ; `anonymous namespace'::PixelConverter<unsigned int,unsigned char,3585>::ID
CONST	ENDS
;	COMDAT ?ID@?$PixelConverter@EI$0BAM@@?A0xbce8a349@@2HB
CONST	SEGMENT
?ID@?$PixelConverter@EI$0BAM@@?A0xbce8a349@@2HB DD 010cH ; `anonymous namespace'::PixelConverter<unsigned char,unsigned int,268>::ID
CONST	ENDS
;	COMDAT ?ID@?$PixelConverter@IE$0MAB@@?A0xbce8a349@@2HB
CONST	SEGMENT
?ID@?$PixelConverter@IE$0MAB@@?A0xbce8a349@@2HB DD 0c01H ; `anonymous namespace'::PixelConverter<unsigned int,unsigned char,3073>::ID
CONST	ENDS
;	COMDAT ?ID@?$PixelConverter@EI$0BAN@@?A0xbce8a349@@2HB
CONST	SEGMENT
?ID@?$PixelConverter@EI$0BAN@@?A0xbce8a349@@2HB DD 010dH ; `anonymous namespace'::PixelConverter<unsigned char,unsigned int,269>::ID
CONST	ENDS
;	COMDAT ?ID@?$PixelConverter@IE$0NAB@@?A0xbce8a349@@2HB
CONST	SEGMENT
?ID@?$PixelConverter@IE$0NAB@@?A0xbce8a349@@2HB DD 0d01H ; `anonymous namespace'::PixelConverter<unsigned int,unsigned char,3329>::ID
CONST	ENDS
;	COMDAT ?ID@?$PixelConverter@II$0BMAO@@?A0xbce8a349@@2HB
CONST	SEGMENT
?ID@?$PixelConverter@II$0BMAO@@?A0xbce8a349@@2HB DD 01c0eH ; `anonymous namespace'::PixelConverter<unsigned int,unsigned int,7182>::ID
CONST	ENDS
;	COMDAT ?ID@?$PixelConverter@II$0BMAN@@?A0xbce8a349@@2HB
CONST	SEGMENT
?ID@?$PixelConverter@II$0BMAN@@?A0xbce8a349@@2HB DD 01c0dH ; `anonymous namespace'::PixelConverter<unsigned int,unsigned int,7181>::ID
CONST	ENDS
;	COMDAT ?ID@?$PixelConverter@II$0BMAM@@?A0xbce8a349@@2HB
CONST	SEGMENT
?ID@?$PixelConverter@II$0BMAM@@?A0xbce8a349@@2HB DD 01c0cH ; `anonymous namespace'::PixelConverter<unsigned int,unsigned int,7180>::ID
CONST	ENDS
;	COMDAT ?ID@?$PixelConverter@II$0OBM@@?A0xbce8a349@@2HB
CONST	SEGMENT
?ID@?$PixelConverter@II$0OBM@@?A0xbce8a349@@2HB DD 0e1cH ; `anonymous namespace'::PixelConverter<unsigned int,unsigned int,3612>::ID
CONST	ENDS
;	COMDAT ?ID@?$PixelConverter@II$0OAN@@?A0xbce8a349@@2HB
CONST	SEGMENT
?ID@?$PixelConverter@II$0OAN@@?A0xbce8a349@@2HB DD 0e0dH ; `anonymous namespace'::PixelConverter<unsigned int,unsigned int,3597>::ID
CONST	ENDS
;	COMDAT ?ID@?$PixelConverter@II$0OAM@@?A0xbce8a349@@2HB
CONST	SEGMENT
?ID@?$PixelConverter@II$0OAM@@?A0xbce8a349@@2HB DD 0e0cH ; `anonymous namespace'::PixelConverter<unsigned int,unsigned int,3596>::ID
CONST	ENDS
;	COMDAT ?ID@?$PixelConverter@II$0NBM@@?A0xbce8a349@@2HB
CONST	SEGMENT
?ID@?$PixelConverter@II$0NBM@@?A0xbce8a349@@2HB DD 0d1cH ; `anonymous namespace'::PixelConverter<unsigned int,unsigned int,3356>::ID
CONST	ENDS
;	COMDAT ?ID@?$PixelConverter@II$0NAO@@?A0xbce8a349@@2HB
CONST	SEGMENT
?ID@?$PixelConverter@II$0NAO@@?A0xbce8a349@@2HB DD 0d0eH ; `anonymous namespace'::PixelConverter<unsigned int,unsigned int,3342>::ID
CONST	ENDS
;	COMDAT ?ID@?$PixelConverter@II$0NAM@@?A0xbce8a349@@2HB
CONST	SEGMENT
?ID@?$PixelConverter@II$0NAM@@?A0xbce8a349@@2HB DD 0d0cH ; `anonymous namespace'::PixelConverter<unsigned int,unsigned int,3340>::ID
CONST	ENDS
;	COMDAT ?ID@?$PixelConverter@II$0MBM@@?A0xbce8a349@@2HB
CONST	SEGMENT
?ID@?$PixelConverter@II$0MBM@@?A0xbce8a349@@2HB DD 0c1cH ; `anonymous namespace'::PixelConverter<unsigned int,unsigned int,3100>::ID
CONST	ENDS
;	COMDAT ?ID@?$PixelConverter@II$0MAO@@?A0xbce8a349@@2HB
CONST	SEGMENT
?ID@?$PixelConverter@II$0MAO@@?A0xbce8a349@@2HB DD 0c0eH ; `anonymous namespace'::PixelConverter<unsigned int,unsigned int,3086>::ID
CONST	ENDS
;	COMDAT ?ID@?$PixelConverter@II$0MAN@@?A0xbce8a349@@2HB
CONST	SEGMENT
?ID@?$PixelConverter@II$0MAN@@?A0xbce8a349@@2HB DD 0c0dH ; `anonymous namespace'::PixelConverter<unsigned int,unsigned int,3085>::ID
CONST	ENDS
;	COMDAT ?value@?$integral_constant@_N$00@tr1@std@@2_NB
CONST	SEGMENT
?value@?$integral_constant@_N$00@tr1@std@@2_NB DB 01H	; std::tr1::integral_constant<bool,1>::value
CONST	ENDS
;	COMDAT ?value@?$integral_constant@_N$0A@@tr1@std@@2_NB
CONST	SEGMENT
?value@?$integral_constant@_N$0A@@tr1@std@@2_NB DB 00H	; std::tr1::integral_constant<bool,0>::value
CONST	ENDS
;	COMDAT ?end@?$_Iosb@H@std@@2W4_Seekdir@12@B
CONST	SEGMENT
?end@?$_Iosb@H@std@@2W4_Seekdir@12@B DD 02H		; std::_Iosb<int>::end
CONST	ENDS
;	COMDAT ?cur@?$_Iosb@H@std@@2W4_Seekdir@12@B
CONST	SEGMENT
?cur@?$_Iosb@H@std@@2W4_Seekdir@12@B DD 01H		; std::_Iosb<int>::cur
CONST	ENDS
;	COMDAT ?beg@?$_Iosb@H@std@@2W4_Seekdir@12@B
CONST	SEGMENT
?beg@?$_Iosb@H@std@@2W4_Seekdir@12@B DD 00H		; std::_Iosb<int>::beg
CONST	ENDS
;	COMDAT ?binary@?$_Iosb@H@std@@2W4_Openmode@12@B
CONST	SEGMENT
?binary@?$_Iosb@H@std@@2W4_Openmode@12@B DD 020H	; std::_Iosb<int>::binary
CONST	ENDS
;	COMDAT ?_Noreplace@?$_Iosb@H@std@@2W4_Openmode@12@B
CONST	SEGMENT
?_Noreplace@?$_Iosb@H@std@@2W4_Openmode@12@B DD 080H	; std::_Iosb<int>::_Noreplace
CONST	ENDS
;	COMDAT ?_Nocreate@?$_Iosb@H@std@@2W4_Openmode@12@B
CONST	SEGMENT
?_Nocreate@?$_Iosb@H@std@@2W4_Openmode@12@B DD 040H	; std::_Iosb<int>::_Nocreate
CONST	ENDS
;	COMDAT ?trunc@?$_Iosb@H@std@@2W4_Openmode@12@B
CONST	SEGMENT
?trunc@?$_Iosb@H@std@@2W4_Openmode@12@B DD 010H		; std::_Iosb<int>::trunc
CONST	ENDS
;	COMDAT ?app@?$_Iosb@H@std@@2W4_Openmode@12@B
CONST	SEGMENT
?app@?$_Iosb@H@std@@2W4_Openmode@12@B DD 08H		; std::_Iosb<int>::app
CONST	ENDS
;	COMDAT ?ate@?$_Iosb@H@std@@2W4_Openmode@12@B
CONST	SEGMENT
?ate@?$_Iosb@H@std@@2W4_Openmode@12@B DD 04H		; std::_Iosb<int>::ate
CONST	ENDS
;	COMDAT ?out@?$_Iosb@H@std@@2W4_Openmode@12@B
CONST	SEGMENT
?out@?$_Iosb@H@std@@2W4_Openmode@12@B DD 02H		; std::_Iosb<int>::out
CONST	ENDS
;	COMDAT ?in@?$_Iosb@H@std@@2W4_Openmode@12@B
CONST	SEGMENT
?in@?$_Iosb@H@std@@2W4_Openmode@12@B DD 01H		; std::_Iosb<int>::in
CONST	ENDS
;	COMDAT ?_Hardfail@?$_Iosb@H@std@@2W4_Iostate@12@B
CONST	SEGMENT
?_Hardfail@?$_Iosb@H@std@@2W4_Iostate@12@B DD 010H	; std::_Iosb<int>::_Hardfail
CONST	ENDS
;	COMDAT ?badbit@?$_Iosb@H@std@@2W4_Iostate@12@B
CONST	SEGMENT
?badbit@?$_Iosb@H@std@@2W4_Iostate@12@B DD 04H		; std::_Iosb<int>::badbit
CONST	ENDS
;	COMDAT ?failbit@?$_Iosb@H@std@@2W4_Iostate@12@B
CONST	SEGMENT
?failbit@?$_Iosb@H@std@@2W4_Iostate@12@B DD 02H		; std::_Iosb<int>::failbit
CONST	ENDS
;	COMDAT ?eofbit@?$_Iosb@H@std@@2W4_Iostate@12@B
CONST	SEGMENT
?eofbit@?$_Iosb@H@std@@2W4_Iostate@12@B DD 01H		; std::_Iosb<int>::eofbit
CONST	ENDS
;	COMDAT ?goodbit@?$_Iosb@H@std@@2W4_Iostate@12@B
CONST	SEGMENT
?goodbit@?$_Iosb@H@std@@2W4_Iostate@12@B DD 00H		; std::_Iosb<int>::goodbit
CONST	ENDS
;	COMDAT ?floatfield@?$_Iosb@H@std@@2W4_Fmtflags@12@B
CONST	SEGMENT
?floatfield@?$_Iosb@H@std@@2W4_Fmtflags@12@B DD 03000H	; std::_Iosb<int>::floatfield
CONST	ENDS
;	COMDAT ?basefield@?$_Iosb@H@std@@2W4_Fmtflags@12@B
CONST	SEGMENT
?basefield@?$_Iosb@H@std@@2W4_Fmtflags@12@B DD 0e00H	; std::_Iosb<int>::basefield
CONST	ENDS
;	COMDAT ?adjustfield@?$_Iosb@H@std@@2W4_Fmtflags@12@B
CONST	SEGMENT
?adjustfield@?$_Iosb@H@std@@2W4_Fmtflags@12@B DD 01c0H	; std::_Iosb<int>::adjustfield
CONST	ENDS
;	COMDAT ?_Stdio@?$_Iosb@H@std@@2W4_Fmtflags@12@B
CONST	SEGMENT
?_Stdio@?$_Iosb@H@std@@2W4_Fmtflags@12@B DD 08000H	; std::_Iosb<int>::_Stdio
CONST	ENDS
;	COMDAT ?boolalpha@?$_Iosb@H@std@@2W4_Fmtflags@12@B
CONST	SEGMENT
?boolalpha@?$_Iosb@H@std@@2W4_Fmtflags@12@B DD 04000H	; std::_Iosb<int>::boolalpha
CONST	ENDS
;	COMDAT ?hexfloat@?$_Iosb@H@std@@2W4_Fmtflags@12@B
CONST	SEGMENT
?hexfloat@?$_Iosb@H@std@@2W4_Fmtflags@12@B DD 03000H	; std::_Iosb<int>::hexfloat
CONST	ENDS
;	COMDAT ?fixed@?$_Iosb@H@std@@2W4_Fmtflags@12@B
CONST	SEGMENT
?fixed@?$_Iosb@H@std@@2W4_Fmtflags@12@B DD 02000H	; std::_Iosb<int>::fixed
CONST	ENDS
;	COMDAT ?scientific@?$_Iosb@H@std@@2W4_Fmtflags@12@B
CONST	SEGMENT
?scientific@?$_Iosb@H@std@@2W4_Fmtflags@12@B DD 01000H	; std::_Iosb<int>::scientific
CONST	ENDS
;	COMDAT ?hex@?$_Iosb@H@std@@2W4_Fmtflags@12@B
CONST	SEGMENT
?hex@?$_Iosb@H@std@@2W4_Fmtflags@12@B DD 0800H		; std::_Iosb<int>::hex
CONST	ENDS
;	COMDAT ?oct@?$_Iosb@H@std@@2W4_Fmtflags@12@B
CONST	SEGMENT
?oct@?$_Iosb@H@std@@2W4_Fmtflags@12@B DD 0400H		; std::_Iosb<int>::oct
CONST	ENDS
;	COMDAT ?dec@?$_Iosb@H@std@@2W4_Fmtflags@12@B
CONST	SEGMENT
?dec@?$_Iosb@H@std@@2W4_Fmtflags@12@B DD 0200H		; std::_Iosb<int>::dec
CONST	ENDS
;	COMDAT ?internal@?$_Iosb@H@std@@2W4_Fmtflags@12@B
CONST	SEGMENT
?internal@?$_Iosb@H@std@@2W4_Fmtflags@12@B DD 0100H	; std::_Iosb<int>::internal
CONST	ENDS
;	COMDAT ?right@?$_Iosb@H@std@@2W4_Fmtflags@12@B
CONST	SEGMENT
?right@?$_Iosb@H@std@@2W4_Fmtflags@12@B DD 080H		; std::_Iosb<int>::right
CONST	ENDS
;	COMDAT ?left@?$_Iosb@H@std@@2W4_Fmtflags@12@B
CONST	SEGMENT
?left@?$_Iosb@H@std@@2W4_Fmtflags@12@B DD 040H		; std::_Iosb<int>::left
CONST	ENDS
;	COMDAT ?showpos@?$_Iosb@H@std@@2W4_Fmtflags@12@B
CONST	SEGMENT
?showpos@?$_Iosb@H@std@@2W4_Fmtflags@12@B DD 020H	; std::_Iosb<int>::showpos
CONST	ENDS
;	COMDAT ?showpoint@?$_Iosb@H@std@@2W4_Fmtflags@12@B
CONST	SEGMENT
?showpoint@?$_Iosb@H@std@@2W4_Fmtflags@12@B DD 010H	; std::_Iosb<int>::showpoint
CONST	ENDS
;	COMDAT ?showbase@?$_Iosb@H@std@@2W4_Fmtflags@12@B
CONST	SEGMENT
?showbase@?$_Iosb@H@std@@2W4_Fmtflags@12@B DD 08H	; std::_Iosb<int>::showbase
CONST	ENDS
;	COMDAT ?uppercase@?$_Iosb@H@std@@2W4_Fmtflags@12@B
CONST	SEGMENT
?uppercase@?$_Iosb@H@std@@2W4_Fmtflags@12@B DD 04H	; std::_Iosb<int>::uppercase
CONST	ENDS
;	COMDAT ?unitbuf@?$_Iosb@H@std@@2W4_Fmtflags@12@B
CONST	SEGMENT
?unitbuf@?$_Iosb@H@std@@2W4_Fmtflags@12@B DD 02H	; std::_Iosb<int>::unitbuf
CONST	ENDS
;	COMDAT ?skipws@?$_Iosb@H@std@@2W4_Fmtflags@12@B
CONST	SEGMENT
?skipws@?$_Iosb@H@std@@2W4_Fmtflags@12@B DD 01H		; std::_Iosb<int>::skipws
CONST	ENDS
;	COMDAT ?none@?$_Locbase@H@std@@2HB
CONST	SEGMENT
?none@?$_Locbase@H@std@@2HB DD 00H			; std::_Locbase<int>::none
CONST	ENDS
;	COMDAT ?all@?$_Locbase@H@std@@2HB
CONST	SEGMENT
?all@?$_Locbase@H@std@@2HB DD 03fH			; std::_Locbase<int>::all
CONST	ENDS
;	COMDAT ?messages@?$_Locbase@H@std@@2HB
CONST	SEGMENT
?messages@?$_Locbase@H@std@@2HB DD 020H			; std::_Locbase<int>::messages
CONST	ENDS
;	COMDAT ?time@?$_Locbase@H@std@@2HB
CONST	SEGMENT
?time@?$_Locbase@H@std@@2HB DD 010H			; std::_Locbase<int>::time
CONST	ENDS
;	COMDAT ?numeric@?$_Locbase@H@std@@2HB
CONST	SEGMENT
?numeric@?$_Locbase@H@std@@2HB DD 08H			; std::_Locbase<int>::numeric
CONST	ENDS
;	COMDAT ?monetary@?$_Locbase@H@std@@2HB
CONST	SEGMENT
?monetary@?$_Locbase@H@std@@2HB DD 04H			; std::_Locbase<int>::monetary
CONST	ENDS
;	COMDAT ?ctype@?$_Locbase@H@std@@2HB
CONST	SEGMENT
?ctype@?$_Locbase@H@std@@2HB DD 02H			; std::_Locbase<int>::ctype
CONST	ENDS
;	COMDAT ?collate@?$_Locbase@H@std@@2HB
CONST	SEGMENT
?collate@?$_Locbase@H@std@@2HB DD 01H			; std::_Locbase<int>::collate
CONST	ENDS
;	COMDAT ?_Value@?$_Is_swap_move@U_Swap_move_tag@std@@@std@@2_NB
CONST	SEGMENT
?_Value@?$_Is_swap_move@U_Swap_move_tag@std@@@std@@2_NB DB 01H ; std::_Is_swap_move<std::_Swap_move_tag>::_Value
CONST	ENDS
_DATA	SEGMENT
__bad_alloc_Message DD FLAT:$SG5713
	ORG $+4
?_pixelFormats@Ogre@@3PAUPixelFormatDescription@1@A DD FLAT:$SG61351 ; Ogre::_pixelFormats
	DB	00H
	ORG $+3
	DD	00H
	DD	00H
	DB	00H
	DB	00H
	DB	00H
	DB	00H
	DB	00H
	ORG $+3
	DD	00H
	DD	00H
	DD	00H
	DD	00H
	DB	00H
	DB	00H
	DB	00H
	DB	00H
	DD	FLAT:$SG61352
	DB	01H
	ORG $+3
	DD	030H
	DD	00H
	DB	01H
	DB	08H
	DB	00H
	DB	00H
	DB	00H
	ORG $+3
	DD	0ffH
	DD	00H
	DD	00H
	DD	00H
	DB	00H
	DB	00H
	DB	00H
	DB	00H
	DD	FLAT:$SG61353
	DB	02H
	ORG $+3
	DD	030H
	DD	01H
	DB	01H
	DB	010H
	DB	00H
	DB	00H
	DB	00H
	ORG $+3
	DD	0ffffH
	DD	00H
	DD	00H
	DD	00H
	DB	00H
	DB	00H
	DB	00H
	DB	00H
	DD	FLAT:$SG61354
	DB	01H
	ORG $+3
	DD	011H
	DD	00H
	DB	01H
	DB	00H
	DB	00H
	DB	00H
	DB	08H
	ORG $+3
	DD	00H
	DD	00H
	DD	00H
	DD	0ffH
	DB	00H
	DB	00H
	DB	00H
	DB	00H
	DD	FLAT:$SG61355
	DB	01H
	ORG $+3
	DD	031H
	DD	00H
	DB	02H
	DB	04H
	DB	00H
	DB	00H
	DB	04H
	ORG $+3
	DD	0fH
	DD	00H
	DD	00H
	DD	0f0H
	DB	00H
	DB	00H
	DB	00H
	DB	04H
	DD	FLAT:$SG61356
	DB	02H
	ORG $+3
	DD	021H
	DD	00H
	DB	02H
	DB	08H
	DB	00H
	DB	00H
	DB	08H
	ORG $+3
	DD	00H
	DD	00H
	DD	00H
	DD	00H
	DB	00H
	DB	00H
	DB	00H
	DB	00H
	DD	FLAT:$SG61357
	DB	02H
	ORG $+3
	DD	010H
	DD	00H
	DB	03H
	DB	05H
	DB	06H
	DB	05H
	DB	00H
	ORG $+3
	DD	0f800H
	DD	07e0H
	DD	01fH
	DD	00H
	DB	0bH
	DB	05H
	DB	00H
	DB	00H
	DD	FLAT:$SG61358
	DB	02H
	ORG $+3
	DD	010H
	DD	00H
	DB	03H
	DB	05H
	DB	06H
	DB	05H
	DB	00H
	ORG $+3
	DD	01fH
	DD	07e0H
	DD	0f800H
	DD	00H
	DB	00H
	DB	05H
	DB	0bH
	DB	00H
	DD	FLAT:$SG61359
	DB	02H
	ORG $+3
	DD	011H
	DD	00H
	DB	04H
	DB	04H
	DB	04H
	DB	04H
	DB	04H
	ORG $+3
	DD	0f00H
	DD	0f0H
	DD	0fH
	DD	0f000H
	DB	08H
	DB	04H
	DB	00H
	DB	0cH
	DD	FLAT:$SG61360
	DB	02H
	ORG $+3
	DD	011H
	DD	00H
	DB	04H
	DB	05H
	DB	05H
	DB	05H
	DB	01H
	ORG $+3
	DD	07c00H
	DD	03e0H
	DD	01fH
	DD	08000H
	DB	0aH
	DB	05H
	DB	00H
	DB	0fH
	DD	FLAT:$SG61361
	DB	03H
	ORG $+3
	DD	010H
	DD	00H
	DB	03H
	DB	08H
	DB	08H
	DB	08H
	DB	00H
	ORG $+3
	DD	0ff0000H
	DD	0ff00H
	DD	0ffH
	DD	00H
	DB	010H
	DB	08H
	DB	00H
	DB	00H
	DD	FLAT:$SG61362
	DB	03H
	ORG $+3
	DD	010H
	DD	00H
	DB	03H
	DB	08H
	DB	08H
	DB	08H
	DB	00H
	ORG $+3
	DD	0ffH
	DD	0ff00H
	DD	0ff0000H
	DD	00H
	DB	00H
	DB	08H
	DB	010H
	DB	00H
	DD	FLAT:$SG61363
	DB	04H
	ORG $+3
	DD	011H
	DD	00H
	DB	04H
	DB	08H
	DB	08H
	DB	08H
	DB	08H
	ORG $+3
	DD	0ff0000H
	DD	0ff00H
	DD	0ffH
	DD	0ff000000H
	DB	010H
	DB	08H
	DB	00H
	DB	018H
	DD	FLAT:$SG61364
	DB	04H
	ORG $+3
	DD	011H
	DD	00H
	DB	04H
	DB	08H
	DB	08H
	DB	08H
	DB	08H
	ORG $+3
	DD	0ffH
	DD	0ff00H
	DD	0ff0000H
	DD	0ff000000H
	DB	00H
	DB	08H
	DB	010H
	DB	018H
	DD	FLAT:$SG61365
	DB	04H
	ORG $+3
	DD	011H
	DD	00H
	DB	04H
	DB	08H
	DB	08H
	DB	08H
	DB	08H
	ORG $+3
	DD	0ff00H
	DD	0ff0000H
	DD	0ff000000H
	DD	0ffH
	DB	08H
	DB	010H
	DB	018H
	DB	00H
	DD	FLAT:$SG61366
	DB	04H
	ORG $+3
	DD	011H
	DD	00H
	DB	04H
	DB	0aH
	DB	0aH
	DB	0aH
	DB	02H
	ORG $+3
	DD	03ff00000H
	DD	0ffc00H
	DD	03ffH
	DD	0c0000000H
	DB	014H
	DB	0aH
	DB	00H
	DB	01eH
	DD	FLAT:$SG61367
	DB	04H
	ORG $+3
	DD	011H
	DD	00H
	DB	04H
	DB	0aH
	DB	0aH
	DB	0aH
	DB	02H
	ORG $+3
	DD	03ffH
	DD	0ffc00H
	DD	03ff00000H
	DD	0c0000000H
	DB	00H
	DB	0aH
	DB	014H
	DB	01eH
	DD	FLAT:$SG61368
	DB	00H
	ORG $+3
	DD	03H
	DD	00H
	DB	03H
	DB	00H
	DB	00H
	DB	00H
	DB	00H
	ORG $+3
	DD	00H
	DD	00H
	DD	00H
	DD	00H
	DB	00H
	DB	00H
	DB	00H
	DB	00H
	DD	FLAT:$SG61369
	DB	00H
	ORG $+3
	DD	03H
	DD	00H
	DB	04H
	DB	00H
	DB	00H
	DB	00H
	DB	00H
	ORG $+3
	DD	00H
	DD	00H
	DD	00H
	DD	00H
	DB	00H
	DB	00H
	DB	00H
	DB	00H
	DD	FLAT:$SG61370
	DB	00H
	ORG $+3
	DD	03H
	DD	00H
	DB	04H
	DB	00H
	DB	00H
	DB	00H
	DB	00H
	ORG $+3
	DD	00H
	DD	00H
	DD	00H
	DD	00H
	DB	00H
	DB	00H
	DB	00H
	DB	00H
	DD	FLAT:$SG61371
	DB	00H
	ORG $+3
	DD	03H
	DD	00H
	DB	04H
	DB	00H
	DB	00H
	DB	00H
	DB	00H
	ORG $+3
	DD	00H
	DD	00H
	DD	00H
	DD	00H
	DB	00H
	DB	00H
	DB	00H
	DB	00H
	DD	FLAT:$SG61372
	DB	00H
	ORG $+3
	DD	03H
	DD	00H
	DB	04H
	DB	00H
	DB	00H
	DB	00H
	DB	00H
	ORG $+3
	DD	00H
	DD	00H
	DD	00H
	DD	00H
	DB	00H
	DB	00H
	DB	00H
	DB	00H
	DD	FLAT:$SG61373
	DB	06H
	ORG $+3
	DD	04H
	DD	02H
	DB	03H
	DB	010H
	DB	010H
	DB	010H
	DB	00H
	ORG $+3
	DD	00H
	DD	00H
	DD	00H
	DD	00H
	DB	00H
	DB	00H
	DB	00H
	DB	00H
	DD	FLAT:$SG61374
	DB	08H
	ORG $+3
	DD	04H
	DD	02H
	DB	04H
	DB	010H
	DB	010H
	DB	010H
	DB	010H
	ORG $+3
	DD	00H
	DD	00H
	DD	00H
	DD	00H
	DB	00H
	DB	00H
	DB	00H
	DB	00H
	DD	FLAT:$SG61375
	DB	0cH
	ORG $+3
	DD	04H
	DD	03H
	DB	03H
	DB	020H
	DB	020H
	DB	020H
	DB	00H
	ORG $+3
	DD	00H
	DD	00H
	DD	00H
	DD	00H
	DB	00H
	DB	00H
	DB	00H
	DB	00H
	DD	FLAT:$SG61376
	DB	010H
	ORG $+3
	DD	04H
	DD	03H
	DB	04H
	DB	020H
	DB	020H
	DB	020H
	DB	020H
	ORG $+3
	DD	00H
	DD	00H
	DD	00H
	DD	00H
	DB	00H
	DB	00H
	DB	00H
	DB	00H
	DD	FLAT:$SG61377
	DB	04H
	ORG $+3
	DD	010H
	DD	00H
	DB	03H
	DB	08H
	DB	08H
	DB	08H
	DB	00H
	ORG $+3
	DD	0ff0000H
	DD	0ff00H
	DD	0ffH
	DD	0ff000000H
	DB	010H
	DB	08H
	DB	00H
	DB	018H
	DD	FLAT:$SG61378
	DB	04H
	ORG $+3
	DD	010H
	DD	00H
	DB	03H
	DB	08H
	DB	08H
	DB	08H
	DB	00H
	ORG $+3
	DD	0ffH
	DD	0ff00H
	DD	0ff0000H
	DD	0ff000000H
	DB	00H
	DB	08H
	DB	010H
	DB	018H
	DD	FLAT:$SG61379
	DB	04H
	ORG $+3
	DD	011H
	DD	00H
	DB	04H
	DB	08H
	DB	08H
	DB	08H
	DB	08H
	ORG $+3
	DD	0ff000000H
	DD	0ff0000H
	DD	0ff00H
	DD	0ffH
	DB	018H
	DB	010H
	DB	08H
	DB	00H
	DD	FLAT:$SG61380
	DB	04H
	ORG $+3
	DD	08H
	DD	03H
	DB	01H
	DB	00H
	DB	00H
	DB	00H
	DB	00H
	ORG $+3
	DD	00H
	DD	00H
	DD	00H
	DD	00H
	DB	00H
	DB	00H
	DB	00H
	DB	00H
	DD	FLAT:$SG61381
	DB	08H
	ORG $+3
	DD	01H
	DD	01H
	DB	04H
	DB	010H
	DB	010H
	DB	010H
	DB	010H
	ORG $+3
	DD	00H
	DD	00H
	DD	00H
	DD	00H
	DB	00H
	DB	00H
	DB	00H
	DB	00H
	DD	FLAT:$SG61382
	DB	01H
	ORG $+3
	DD	010H
	DD	00H
	DB	03H
	DB	03H
	DB	03H
	DB	02H
	DB	00H
	ORG $+3
	DD	0e0H
	DD	01cH
	DD	03H
	DD	00H
	DB	05H
	DB	02H
	DB	00H
	DB	00H
	DD	FLAT:$SG61383
	DB	02H
	ORG $+3
	DD	04H
	DD	02H
	DB	01H
	DB	010H
	DB	00H
	DB	00H
	DB	00H
	ORG $+3
	DD	00H
	DD	00H
	DD	00H
	DD	00H
	DB	00H
	DB	00H
	DB	00H
	DB	00H
	DD	FLAT:$SG61384
	DB	04H
	ORG $+3
	DD	04H
	DD	03H
	DB	01H
	DB	020H
	DB	00H
	DB	00H
	DB	00H
	ORG $+3
	DD	00H
	DD	00H
	DD	00H
	DD	00H
	DB	00H
	DB	00H
	DB	00H
	DB	00H
	DD	FLAT:$SG61385
	DB	04H
	ORG $+3
	DD	010H
	DD	01H
	DB	02H
	DB	010H
	DB	010H
	DB	00H
	DB	00H
	ORG $+3
	DD	0ffffH
	DD	0ffff0000H
	DD	00H
	DD	00H
	DB	00H
	DB	010H
	DB	00H
	DB	00H
	DD	FLAT:$SG61386
	DB	04H
	ORG $+3
	DD	04H
	DD	02H
	DB	02H
	DB	010H
	DB	010H
	DB	00H
	DB	00H
	ORG $+3
	DD	00H
	DD	00H
	DD	00H
	DD	00H
	DB	00H
	DB	00H
	DB	00H
	DB	00H
	DD	FLAT:$SG61387
	DB	08H
	ORG $+3
	DD	04H
	DD	03H
	DB	02H
	DB	020H
	DB	020H
	DB	00H
	DB	00H
	ORG $+3
	DD	00H
	DD	00H
	DD	00H
	DD	00H
	DB	00H
	DB	00H
	DB	00H
	DB	00H
	DD	FLAT:$SG61388
	DB	06H
	ORG $+3
	DD	00H
	DD	01H
	DB	03H
	DB	010H
	DB	010H
	DB	010H
	DB	00H
	ORG $+3
	DD	00H
	DD	00H
	DD	00H
	DD	00H
	DB	00H
	DB	00H
	DB	00H
	DB	00H
	DD	FLAT:$SG61389
	DB	04H
	ORG $+3
	DD	08H
	DD	03H
	DB	01H
	DB	00H
	DB	00H
	DB	00H
	DB	00H
	ORG $+3
	DD	00H
	DD	00H
	DD	00H
	DD	00H
	DB	00H
	DB	00H
	DB	00H
	DB	00H
	DD	FLAT:$SG61390
	DB	02H
	ORG $+3
	DD	08H
	DD	02H
	DB	01H
	DB	00H
	DB	00H
	DB	00H
	DB	00H
	ORG $+3
	DD	00H
	DD	00H
	DD	00H
	DD	00H
	DB	00H
	DB	00H
	DB	00H
	DB	00H
_DATA	ENDS
CONST	SEGMENT
$SG5713	DB	'bad allocation', 00H
	ORG $+1
_MAX_FLOAT DD	07f7fffffr			; 3.40282e+038
_ONE_PI	DD	040490fd0r			; 3.14159
_EPSILON DD	03727c5acr			; 1e-005
_RADS_PER_DEG DD 03c8efa35r			; 0.0174533
_DEGS_PER_RAD DD 042652ee1r			; 57.2958
$SG61351 DB	'PF_UNKNOWN', 00H
	ORG $+1
$SG61352 DB	'PF_L8', 00H
	ORG $+2
$SG61353 DB	'PF_L16', 00H
	ORG $+1
$SG61354 DB	'PF_A8', 00H
	ORG $+2
$SG61355 DB	'PF_A4L4', 00H
$SG61356 DB	'PF_BYTE_LA', 00H
	ORG $+1
$SG61357 DB	'PF_R5G6B5', 00H
	ORG $+2
$SG61358 DB	'PF_B5G6R5', 00H
	ORG $+2
$SG61359 DB	'PF_A4R4G4B4', 00H
$SG61360 DB	'PF_A1R5G5B5', 00H
$SG61361 DB	'PF_R8G8B8', 00H
	ORG $+2
$SG61362 DB	'PF_B8G8R8', 00H
	ORG $+2
$SG61363 DB	'PF_A8R8G8B8', 00H
$SG61364 DB	'PF_A8B8G8R8', 00H
$SG61365 DB	'PF_B8G8R8A8', 00H
$SG61366 DB	'PF_A2R10G10B10', 00H
	ORG $+1
$SG61367 DB	'PF_A2B10G10R10', 00H
	ORG $+1
$SG61368 DB	'PF_DXT1', 00H
$SG61369 DB	'PF_DXT2', 00H
$SG61370 DB	'PF_DXT3', 00H
$SG61371 DB	'PF_DXT4', 00H
$SG61372 DB	'PF_DXT5', 00H
$SG61373 DB	'PF_FLOAT16_RGB', 00H
	ORG $+1
$SG61374 DB	'PF_FLOAT16_RGBA', 00H
$SG61375 DB	'PF_FLOAT32_RGB', 00H
	ORG $+1
$SG61376 DB	'PF_FLOAT32_RGBA', 00H
$SG61377 DB	'PF_X8R8G8B8', 00H
$SG61378 DB	'PF_X8B8G8R8', 00H
$SG61379 DB	'PF_R8G8B8A8', 00H
$SG61380 DB	'PF_D24X8', 00H
	ORG $+3
$SG61381 DB	'PF_SHORT_RGBA', 00H
	ORG $+2
$SG61382 DB	'PF_R3G3B2', 00H
	ORG $+2
$SG61383 DB	'PF_FLOAT16_R', 00H
	ORG $+3
$SG61384 DB	'PF_FLOAT32_R', 00H
	ORG $+3
$SG61385 DB	'PF_SHORT_GR', 00H
$SG61386 DB	'PF_FLOAT16_GR', 00H
	ORG $+2
$SG61387 DB	'PF_FLOAT32_GR', 00H
	ORG $+2
$SG61388 DB	'PF_SHORT_RGB', 00H
	ORG $+3
$SG61389 DB	'PF_D24S8', 00H
	ORG $+3
$SG61390 DB	'PF_D16', 00H
	ORG $+1
$SG61412 DB	'.\OgrePixelFormat.cpp', 00H
	ORG $+2
$SG61413 DB	'PixelBox::getSubVolume', 00H
	ORG $+1
$SG61414 DB	'Cannot return subvolume of compressed PixelBuffer', 00H
	ORG $+2
$SG61421 DB	'.\OgrePixelFormat.cpp', 00H
	ORG $+2
$SG61422 DB	'PixelBox::getSubVolume', 00H
	ORG $+1
$SG61423 DB	'Bounds out of range', 00H
$SG61457 DB	'.\OgrePixelFormat.cpp', 00H
	ORG $+2
$SG61458 DB	'PixelUtil::getMemorySize', 00H
	ORG $+3
$SG61459 DB	'Invalid compressed pixel format', 00H
$SG62764 DB	' | ', 00H
$SG62767 DB	'''', 00H
	ORG $+2
$SG62768 DB	'''', 00H
	ORG $+2
$SG62917 DB	'.\OgrePixelFormat.cpp', 00H
	ORG $+2
$SG62918 DB	'PixelUtil::packColour', 00H
	ORG $+2
$SG62919 DB	' not implemented', 00H
	ORG $+3
$SG62920 DB	'pack to ', 00H
	ORG $+3
$SG63014 DB	'.\OgrePixelFormat.cpp', 00H
	ORG $+2
$SG63015 DB	'PixelUtil::unpackColour', 00H
$SG63016 DB	' not implemented', 00H
	ORG $+3
$SG63017 DB	'unpack from ', 00H
	ORG $+3
$SG63041 DB	'.\OgrePixelFormat.cpp', 00H
	ORG $+2
$SG63042 DB	'PixelUtil::bulkPixelConversion', 00H
	ORG $+1
$SG63043 DB	'This method can not be used to compress or decompress im'
	DB	'ages', 00H
CONST	ENDS
PUBLIC	??0?$TBox@H@Ogre@@QAE@XZ			; Ogre::TBox<int>::TBox<int>
PUBLIC	??0PixelBox@Ogre@@QAE@XZ			; Ogre::PixelBox::PixelBox
; Function compile flags: /Odtp
; File i:\svnroot\client\ogremain\ogrepixelformat.h
;	COMDAT ??0PixelBox@Ogre@@QAE@XZ
_TEXT	SEGMENT
_this$ = -4						; size = 4
??0PixelBox@Ogre@@QAE@XZ PROC				; Ogre::PixelBox::PixelBox, COMDAT
; _this$ = ecx

; 183  : 		PixelBox() {}

	push	ebp
	mov	ebp, esp
	push	ecx
	mov	DWORD PTR _this$[ebp], ecx
	mov	ecx, DWORD PTR _this$[ebp]
	call	??0?$TBox@H@Ogre@@QAE@XZ		; Ogre::TBox<int>::TBox<int>
	mov	eax, DWORD PTR _this$[ebp]
	mov	esp, ebp
	pop	ebp
	ret	0
??0PixelBox@Ogre@@QAE@XZ ENDP				; Ogre::PixelBox::PixelBox
_TEXT	ENDS
PUBLIC	?setConsecutive@PixelBox@Ogre@@QAEXXZ		; Ogre::PixelBox::setConsecutive
PUBLIC	??0PixelBox@Ogre@@QAE@ABV?$TBox@H@1@W4PixelFormat@1@PAX@Z ; Ogre::PixelBox::PixelBox
; Function compile flags: /Odtp
;	COMDAT ??0PixelBox@Ogre@@QAE@ABV?$TBox@H@1@W4PixelFormat@1@PAX@Z
_TEXT	SEGMENT
_this$ = -4						; size = 4
_extents$ = 8						; size = 4
_pixelFormat$ = 12					; size = 4
_pixelData$ = 16					; size = 4
??0PixelBox@Ogre@@QAE@ABV?$TBox@H@1@W4PixelFormat@1@PAX@Z PROC ; Ogre::PixelBox::PixelBox, COMDAT
; _this$ = ecx

; 193  : 		{

	push	ebp
	mov	ebp, esp
	push	ecx
	mov	DWORD PTR _this$[ebp], ecx
	mov	eax, DWORD PTR _extents$[ebp]
	mov	ecx, DWORD PTR _this$[ebp]
	mov	edx, DWORD PTR [eax]
	mov	DWORD PTR [ecx], edx
	mov	edx, DWORD PTR [eax+4]
	mov	DWORD PTR [ecx+4], edx
	mov	edx, DWORD PTR [eax+8]
	mov	DWORD PTR [ecx+8], edx
	mov	edx, DWORD PTR [eax+12]
	mov	DWORD PTR [ecx+12], edx
	mov	edx, DWORD PTR [eax+16]
	mov	DWORD PTR [ecx+16], edx
	mov	eax, DWORD PTR [eax+20]
	mov	DWORD PTR [ecx+20], eax
	mov	ecx, DWORD PTR _this$[ebp]
	mov	edx, DWORD PTR _pixelData$[ebp]
	mov	DWORD PTR [ecx+24], edx
	mov	eax, DWORD PTR _this$[ebp]
	mov	ecx, DWORD PTR _pixelFormat$[ebp]
	mov	DWORD PTR [eax+28], ecx

; 194  : 			setConsecutive();

	mov	ecx, DWORD PTR _this$[ebp]
	call	?setConsecutive@PixelBox@Ogre@@QAEXXZ	; Ogre::PixelBox::setConsecutive

; 195  : 		}

	mov	eax, DWORD PTR _this$[ebp]
	mov	esp, ebp
	pop	ebp
	ret	12					; 0000000cH
??0PixelBox@Ogre@@QAE@ABV?$TBox@H@1@W4PixelFormat@1@PAX@Z ENDP ; Ogre::PixelBox::PixelBox
_TEXT	ENDS
PUBLIC	??0?$TBox@H@Ogre@@QAE@HHHHHH@Z			; Ogre::TBox<int>::TBox<int>
PUBLIC	??0PixelBox@Ogre@@QAE@IIIW4PixelFormat@1@PAX@Z	; Ogre::PixelBox::PixelBox
; Function compile flags: /Odtp
;	COMDAT ??0PixelBox@Ogre@@QAE@IIIW4PixelFormat@1@PAX@Z
_TEXT	SEGMENT
_this$ = -4						; size = 4
_width$ = 8						; size = 4
_height$ = 12						; size = 4
_depth$ = 16						; size = 4
_pixelFormat$ = 20					; size = 4
_pixelData$ = 24					; size = 4
??0PixelBox@Ogre@@QAE@IIIW4PixelFormat@1@PAX@Z PROC	; Ogre::PixelBox::PixelBox, COMDAT
; _this$ = ecx

; 208  : 		{

	push	ebp
	mov	ebp, esp
	push	ecx
	mov	DWORD PTR _this$[ebp], ecx
	mov	eax, DWORD PTR _depth$[ebp]
	push	eax
	mov	ecx, DWORD PTR _height$[ebp]
	push	ecx
	mov	edx, DWORD PTR _width$[ebp]
	push	edx
	push	0
	push	0
	push	0
	mov	ecx, DWORD PTR _this$[ebp]
	call	??0?$TBox@H@Ogre@@QAE@HHHHHH@Z		; Ogre::TBox<int>::TBox<int>
	mov	eax, DWORD PTR _this$[ebp]
	mov	ecx, DWORD PTR _pixelData$[ebp]
	mov	DWORD PTR [eax+24], ecx
	mov	edx, DWORD PTR _this$[ebp]
	mov	eax, DWORD PTR _pixelFormat$[ebp]
	mov	DWORD PTR [edx+28], eax

; 209  : 			setConsecutive();

	mov	ecx, DWORD PTR _this$[ebp]
	call	?setConsecutive@PixelBox@Ogre@@QAEXXZ	; Ogre::PixelBox::setConsecutive

; 210  : 		}

	mov	eax, DWORD PTR _this$[ebp]
	mov	esp, ebp
	pop	ebp
	ret	20					; 00000014H
??0PixelBox@Ogre@@QAE@IIIW4PixelFormat@1@PAX@Z ENDP	; Ogre::PixelBox::PixelBox
_TEXT	ENDS
PUBLIC	?getHeight@?$TBox@H@Ogre@@QBEHXZ		; Ogre::TBox<int>::getHeight
PUBLIC	?getWidth@?$TBox@H@Ogre@@QBEHXZ			; Ogre::TBox<int>::getWidth
; Function compile flags: /Odtp
;	COMDAT ?setConsecutive@PixelBox@Ogre@@QAEXXZ
_TEXT	SEGMENT
_this$ = -4						; size = 4
?setConsecutive@PixelBox@Ogre@@QAEXXZ PROC		; Ogre::PixelBox::setConsecutive, COMDAT
; _this$ = ecx

; 232  : 		{

	push	ebp
	mov	ebp, esp
	push	ecx
	push	esi
	mov	DWORD PTR _this$[ebp], ecx

; 233  : 			rowPitch = getWidth();

	mov	ecx, DWORD PTR _this$[ebp]
	call	?getWidth@?$TBox@H@Ogre@@QBEHXZ		; Ogre::TBox<int>::getWidth
	mov	ecx, DWORD PTR _this$[ebp]
	mov	DWORD PTR [ecx+32], eax

; 234  : 			slicePitch = getWidth()*getHeight();

	mov	ecx, DWORD PTR _this$[ebp]
	call	?getWidth@?$TBox@H@Ogre@@QBEHXZ		; Ogre::TBox<int>::getWidth
	mov	esi, eax
	mov	ecx, DWORD PTR _this$[ebp]
	call	?getHeight@?$TBox@H@Ogre@@QBEHXZ	; Ogre::TBox<int>::getHeight
	imul	esi, eax
	mov	edx, DWORD PTR _this$[ebp]
	mov	DWORD PTR [edx+36], esi

; 235  : 		}

	pop	esi
	mov	esp, ebp
	pop	ebp
	ret	0
?setConsecutive@PixelBox@Ogre@@QAEXXZ ENDP		; Ogre::PixelBox::setConsecutive
_TEXT	ENDS
PUBLIC	?getRowSkip@PixelBox@Ogre@@QBEIXZ		; Ogre::PixelBox::getRowSkip
; Function compile flags: /Odtp
;	COMDAT ?getRowSkip@PixelBox@Ogre@@QBEIXZ
_TEXT	SEGMENT
_this$ = -4						; size = 4
?getRowSkip@PixelBox@Ogre@@QBEIXZ PROC			; Ogre::PixelBox::getRowSkip, COMDAT
; _this$ = ecx

; 240  : 		size_t getRowSkip() const { return rowPitch - getWidth(); }

	push	ebp
	mov	ebp, esp
	push	ecx
	mov	DWORD PTR _this$[ebp], ecx
	mov	ecx, DWORD PTR _this$[ebp]
	call	?getWidth@?$TBox@H@Ogre@@QBEHXZ		; Ogre::TBox<int>::getWidth
	mov	ecx, DWORD PTR _this$[ebp]
	mov	edx, DWORD PTR [ecx+32]
	sub	edx, eax
	mov	eax, edx
	mov	esp, ebp
	pop	ebp
	ret	0
?getRowSkip@PixelBox@Ogre@@QBEIXZ ENDP			; Ogre::PixelBox::getRowSkip
_TEXT	ENDS
PUBLIC	?getSliceSkip@PixelBox@Ogre@@QBEIXZ		; Ogre::PixelBox::getSliceSkip
; Function compile flags: /Odtp
;	COMDAT ?getSliceSkip@PixelBox@Ogre@@QBEIXZ
_TEXT	SEGMENT
_this$ = -4						; size = 4
?getSliceSkip@PixelBox@Ogre@@QBEIXZ PROC		; Ogre::PixelBox::getSliceSkip, COMDAT
; _this$ = ecx

; 245  : 		size_t getSliceSkip() const { return slicePitch - (getHeight() * rowPitch); }

	push	ebp
	mov	ebp, esp
	push	ecx
	mov	DWORD PTR _this$[ebp], ecx
	mov	ecx, DWORD PTR _this$[ebp]
	call	?getHeight@?$TBox@H@Ogre@@QBEHXZ	; Ogre::TBox<int>::getHeight
	mov	ecx, DWORD PTR _this$[ebp]
	imul	eax, DWORD PTR [ecx+32]
	mov	edx, DWORD PTR _this$[ebp]
	mov	ecx, DWORD PTR [edx+36]
	sub	ecx, eax
	mov	eax, ecx
	mov	esp, ebp
	pop	ebp
	ret	0
?getSliceSkip@PixelBox@Ogre@@QBEIXZ ENDP		; Ogre::PixelBox::getSliceSkip
_TEXT	ENDS
PUBLIC	?isConsecutive@PixelBox@Ogre@@QBE_NXZ		; Ogre::PixelBox::isConsecutive
; Function compile flags: /Odtp
;	COMDAT ?isConsecutive@PixelBox@Ogre@@QBE_NXZ
_TEXT	SEGMENT
tv87 = -8						; size = 4
_this$ = -4						; size = 4
?isConsecutive@PixelBox@Ogre@@QBE_NXZ PROC		; Ogre::PixelBox::isConsecutive, COMDAT
; _this$ = ecx

; 251  : 		{ 

	push	ebp
	mov	ebp, esp
	sub	esp, 8
	push	esi
	mov	DWORD PTR _this$[ebp], ecx

; 252  : 			return rowPitch == getWidth() && slicePitch == getWidth()*getHeight(); 

	mov	ecx, DWORD PTR _this$[ebp]
	call	?getWidth@?$TBox@H@Ogre@@QBEHXZ		; Ogre::TBox<int>::getWidth
	mov	ecx, DWORD PTR _this$[ebp]
	cmp	DWORD PTR [ecx+32], eax
	jne	SHORT $LN3@isConsecut
	mov	ecx, DWORD PTR _this$[ebp]
	call	?getWidth@?$TBox@H@Ogre@@QBEHXZ		; Ogre::TBox<int>::getWidth
	mov	esi, eax
	mov	ecx, DWORD PTR _this$[ebp]
	call	?getHeight@?$TBox@H@Ogre@@QBEHXZ	; Ogre::TBox<int>::getHeight
	imul	esi, eax
	mov	edx, DWORD PTR _this$[ebp]
	cmp	DWORD PTR [edx+36], esi
	jne	SHORT $LN3@isConsecut
	mov	DWORD PTR tv87[ebp], 1
	jmp	SHORT $LN4@isConsecut
$LN3@isConsecut:
	mov	DWORD PTR tv87[ebp], 0
$LN4@isConsecut:
	mov	al, BYTE PTR tv87[ebp]

; 253  : 		}

	pop	esi
	mov	esp, ebp
	pop	ebp
	ret	0
?isConsecutive@PixelBox@Ogre@@QBE_NXZ ENDP		; Ogre::PixelBox::isConsecutive
_TEXT	ENDS
PUBLIC	??4?$TBox@H@Ogre@@QAEAAV01@ABV01@@Z		; Ogre::TBox<int>::operator=
; Function compile flags: /Odtp
;	COMDAT ??4?$TBox@H@Ogre@@QAEAAV01@ABV01@@Z
_TEXT	SEGMENT
_this$ = -4						; size = 4
___that$ = 8						; size = 4
??4?$TBox@H@Ogre@@QAEAAV01@ABV01@@Z PROC		; Ogre::TBox<int>::operator=, COMDAT
; _this$ = ecx
	push	ebp
	mov	ebp, esp
	push	ecx
	mov	DWORD PTR _this$[ebp], ecx
	mov	eax, DWORD PTR ___that$[ebp]
	mov	ecx, DWORD PTR _this$[ebp]
	mov	edx, DWORD PTR [eax]
	mov	DWORD PTR [ecx], edx
	mov	edx, DWORD PTR [eax+4]
	mov	DWORD PTR [ecx+4], edx
	mov	edx, DWORD PTR [eax+8]
	mov	DWORD PTR [ecx+8], edx
	mov	edx, DWORD PTR [eax+12]
	mov	DWORD PTR [ecx+12], edx
	mov	edx, DWORD PTR [eax+16]
	mov	DWORD PTR [ecx+16], edx
	mov	eax, DWORD PTR [eax+20]
	mov	DWORD PTR [ecx+20], eax
	mov	eax, DWORD PTR _this$[ebp]
	mov	esp, ebp
	pop	ebp
	ret	4
??4?$TBox@H@Ogre@@QAEAAV01@ABV01@@Z ENDP		; Ogre::TBox<int>::operator=
_TEXT	ENDS
PUBLIC	??4PixelBox@Ogre@@QAEAAV01@ABV01@@Z		; Ogre::PixelBox::operator=
; Function compile flags: /Odtp
;	COMDAT ??4PixelBox@Ogre@@QAEAAV01@ABV01@@Z
_TEXT	SEGMENT
_this$ = -4						; size = 4
___that$ = 8						; size = 4
??4PixelBox@Ogre@@QAEAAV01@ABV01@@Z PROC		; Ogre::PixelBox::operator=, COMDAT
; _this$ = ecx
	push	ebp
	mov	ebp, esp
	push	ecx
	push	esi
	push	edi
	mov	DWORD PTR _this$[ebp], ecx
	mov	esi, DWORD PTR ___that$[ebp]
	mov	ecx, 10					; 0000000aH
	mov	edi, DWORD PTR _this$[ebp]
	rep movsd
	mov	eax, DWORD PTR _this$[ebp]
	pop	edi
	pop	esi
	mov	esp, ebp
	pop	ebp
	ret	4
??4PixelBox@Ogre@@QAEAAV01@ABV01@@Z ENDP		; Ogre::PixelBox::operator=
_TEXT	ENDS
PUBLIC	??4PixelUtil@Ogre@@QAEAAV01@ABV01@@Z		; Ogre::PixelUtil::operator=
; Function compile flags: /Odtp
;	COMDAT ??4PixelUtil@Ogre@@QAEAAV01@ABV01@@Z
_TEXT	SEGMENT
_this$ = -4						; size = 4
___that$ = 8						; size = 4
??4PixelUtil@Ogre@@QAEAAV01@ABV01@@Z PROC		; Ogre::PixelUtil::operator=, COMDAT
; _this$ = ecx
	push	ebp
	mov	ebp, esp
	push	ecx
	mov	DWORD PTR _this$[ebp], ecx
	mov	eax, DWORD PTR _this$[ebp]
	mov	esp, ebp
	pop	ebp
	ret	4
??4PixelUtil@Ogre@@QAEAAV01@ABV01@@Z ENDP		; Ogre::PixelUtil::operator=
_TEXT	ENDS
PUBLIC	??_7DataStream@Ogre@@6B@			; Ogre::DataStream::`vftable'
PUBLIC	??0DataStream@Ogre@@QAE@XZ			; Ogre::DataStream::DataStream
PUBLIC	??_R4DataStream@Ogre@@6B@			; Ogre::DataStream::`RTTI Complete Object Locator'
PUBLIC	??_R0?AVDataStream@Ogre@@@8			; Ogre::DataStream `RTTI Type Descriptor'
PUBLIC	??_R3DataStream@Ogre@@8				; Ogre::DataStream::`RTTI Class Hierarchy Descriptor'
PUBLIC	??_R2DataStream@Ogre@@8				; Ogre::DataStream::`RTTI Base Class Array'
PUBLIC	??_R1A@?0A@EA@DataStream@Ogre@@8		; Ogre::DataStream::`RTTI Base Class Descriptor at (0,-1,0,64)'
PUBLIC	??_EDataStream@Ogre@@UAEPAXI@Z			; Ogre::DataStream::`vector deleting destructor'
PUBLIC	?size@DataStream@Ogre@@UBEIXZ			; Ogre::DataStream::size
EXTRN	__imp_??1?$basic_string@DU?$char_traits@D@std@@V?$allocator@D@2@@std@@QAE@XZ:PROC
EXTRN	__imp_??0?$basic_string@DU?$char_traits@D@std@@V?$allocator@D@2@@std@@QAE@XZ:PROC
EXTRN	___security_cookie:DWORD
EXTRN	___CxxFrameHandler3:PROC
EXTRN	@__security_check_cookie@4:PROC
EXTRN	??_7type_info@@6B@:QWORD			; type_info::`vftable'
EXTRN	__purecall:PROC
EXTRN	?readLine@DataStream@Ogre@@UAEIPADIABV?$basic_string@DU?$char_traits@D@std@@V?$allocator@D@2@@std@@@Z:PROC ; Ogre::DataStream::readLine
EXTRN	?getLine@DataStream@Ogre@@UAE?AV?$basic_string@DU?$char_traits@D@std@@V?$allocator@D@2@@std@@_N@Z:PROC ; Ogre::DataStream::getLine
EXTRN	?getAsString@DataStream@Ogre@@UAE?AV?$basic_string@DU?$char_traits@D@std@@V?$allocator@D@2@@std@@XZ:PROC ; Ogre::DataStream::getAsString
EXTRN	?skipLine@DataStream@Ogre@@UAEIABV?$basic_string@DU?$char_traits@D@std@@V?$allocator@D@2@@std@@@Z:PROC ; Ogre::DataStream::skipLine
;	COMDAT ??_R1A@?0A@EA@DataStream@Ogre@@8
; File i:\svnroot\client\ogremain\ogredatastream.h
rdata$r	SEGMENT
??_R1A@?0A@EA@DataStream@Ogre@@8 DD FLAT:??_R0?AVDataStream@Ogre@@@8 ; Ogre::DataStream::`RTTI Base Class Descriptor at (0,-1,0,64)'
	DD	00H
	DD	00H
	DD	0ffffffffH
	DD	00H
	DD	040H
	DD	FLAT:??_R3DataStream@Ogre@@8
rdata$r	ENDS
;	COMDAT ??_R2DataStream@Ogre@@8
rdata$r	SEGMENT
??_R2DataStream@Ogre@@8 DD FLAT:??_R1A@?0A@EA@DataStream@Ogre@@8 ; Ogre::DataStream::`RTTI Base Class Array'
rdata$r	ENDS
;	COMDAT ??_R3DataStream@Ogre@@8
rdata$r	SEGMENT
??_R3DataStream@Ogre@@8 DD 00H				; Ogre::DataStream::`RTTI Class Hierarchy Descriptor'
	DD	00H
	DD	01H
	DD	FLAT:??_R2DataStream@Ogre@@8
rdata$r	ENDS
;	COMDAT ??_R0?AVDataStream@Ogre@@@8
_DATA	SEGMENT
??_R0?AVDataStream@Ogre@@@8 DD FLAT:??_7type_info@@6B@	; Ogre::DataStream `RTTI Type Descriptor'
	DD	00H
	DB	'.?AVDataStream@Ogre@@', 00H
_DATA	ENDS
;	COMDAT ??_R4DataStream@Ogre@@6B@
rdata$r	SEGMENT
??_R4DataStream@Ogre@@6B@ DD 00H			; Ogre::DataStream::`RTTI Complete Object Locator'
	DD	00H
	DD	00H
	DD	FLAT:??_R0?AVDataStream@Ogre@@@8
	DD	FLAT:??_R3DataStream@Ogre@@8
rdata$r	ENDS
;	COMDAT ??_7DataStream@Ogre@@6B@
CONST	SEGMENT
??_7DataStream@Ogre@@6B@ DD FLAT:??_R4DataStream@Ogre@@6B@ ; Ogre::DataStream::`vftable'
	DD	FLAT:??_EDataStream@Ogre@@UAEPAXI@Z
	DD	FLAT:__purecall
	DD	FLAT:__purecall
	DD	FLAT:?readLine@DataStream@Ogre@@UAEIPADIABV?$basic_string@DU?$char_traits@D@std@@V?$allocator@D@2@@std@@@Z
	DD	FLAT:?getLine@DataStream@Ogre@@UAE?AV?$basic_string@DU?$char_traits@D@std@@V?$allocator@D@2@@std@@_N@Z
	DD	FLAT:?getAsString@DataStream@Ogre@@UAE?AV?$basic_string@DU?$char_traits@D@std@@V?$allocator@D@2@@std@@XZ
	DD	FLAT:?skipLine@DataStream@Ogre@@UAEIABV?$basic_string@DU?$char_traits@D@std@@V?$allocator@D@2@@std@@@Z
	DD	FLAT:__purecall
	DD	FLAT:__purecall
	DD	FLAT:__purecall
	DD	FLAT:__purecall
	DD	FLAT:?size@DataStream@Ogre@@UBEIXZ
	DD	FLAT:__purecall
	DD	FLAT:__purecall
CONST	ENDS
;	COMDAT xdata$x
xdata$x	SEGMENT
__unwindtable$??0DataStream@Ogre@@QAE@XZ DD 0ffffffffH
	DD	FLAT:__unwindfunclet$??0DataStream@Ogre@@QAE@XZ$0
__ehfuncinfo$??0DataStream@Ogre@@QAE@XZ DD 019930522H
	DD	01H
	DD	FLAT:__unwindtable$??0DataStream@Ogre@@QAE@XZ
	DD	2 DUP(00H)
	DD	2 DUP(00H)
	DD	00H
	DD	00H
; Function compile flags: /Odtp
xdata$x	ENDS
;	COMDAT ??0DataStream@Ogre@@QAE@XZ
_TEXT	SEGMENT
_this$ = -16						; size = 4
__$EHRec$ = -12						; size = 12
??0DataStream@Ogre@@QAE@XZ PROC				; Ogre::DataStream::DataStream, COMDAT
; _this$ = ecx

; 68   : 		DataStream() : mSize(0) {}

	push	ebp
	mov	ebp, esp
	push	-1
	push	__ehhandler$??0DataStream@Ogre@@QAE@XZ
	mov	eax, DWORD PTR fs:0
	push	eax
	push	ecx
	mov	eax, DWORD PTR ___security_cookie
	xor	eax, ebp
	push	eax
	lea	eax, DWORD PTR __$EHRec$[ebp]
	mov	DWORD PTR fs:0, eax
	mov	DWORD PTR _this$[ebp], ecx
	mov	eax, DWORD PTR _this$[ebp]
	mov	DWORD PTR [eax], OFFSET ??_7DataStream@Ogre@@6B@
	mov	ecx, DWORD PTR _this$[ebp]
	add	ecx, 4
	call	DWORD PTR __imp_??0?$basic_string@DU?$char_traits@D@std@@V?$allocator@D@2@@std@@QAE@XZ
	mov	DWORD PTR __$EHRec$[ebp+8], 0
	mov	ecx, DWORD PTR _this$[ebp]
	mov	DWORD PTR [ecx+32], 0
	mov	DWORD PTR __$EHRec$[ebp+8], -1
	mov	eax, DWORD PTR _this$[ebp]
	mov	ecx, DWORD PTR __$EHRec$[ebp]
	mov	DWORD PTR fs:0, ecx
	pop	ecx
	mov	esp, ebp
	pop	ebp
	ret	0
_TEXT	ENDS
;	COMDAT text$x
text$x	SEGMENT
__unwindfunclet$??0DataStream@Ogre@@QAE@XZ$0:
	mov	ecx, DWORD PTR _this$[ebp]
	add	ecx, 4
	jmp	DWORD PTR __imp_??1?$basic_string@DU?$char_traits@D@std@@V?$allocator@D@2@@std@@QAE@XZ
__ehhandler$??0DataStream@Ogre@@QAE@XZ:
	mov	edx, DWORD PTR [esp+8]
	lea	eax, DWORD PTR [edx+12]
	mov	ecx, DWORD PTR [edx-8]
	xor	ecx, eax
	call	@__security_check_cookie@4
	mov	eax, OFFSET __ehfuncinfo$??0DataStream@Ogre@@QAE@XZ
	jmp	___CxxFrameHandler3
text$x	ENDS
??0DataStream@Ogre@@QAE@XZ ENDP				; Ogre::DataStream::DataStream
PUBLIC	??0DataStream@Ogre@@QAE@ABV?$basic_string@DU?$char_traits@D@std@@V?$allocator@D@2@@std@@@Z ; Ogre::DataStream::DataStream
EXTRN	__imp_??0?$basic_string@DU?$char_traits@D@std@@V?$allocator@D@2@@std@@QAE@ABV01@@Z:PROC
;	COMDAT xdata$x
xdata$x	SEGMENT
__unwindtable$??0DataStream@Ogre@@QAE@ABV?$basic_string@DU?$char_traits@D@std@@V?$allocator@D@2@@std@@@Z DD 0ffffffffH
	DD	FLAT:__unwindfunclet$??0DataStream@Ogre@@QAE@ABV?$basic_string@DU?$char_traits@D@std@@V?$allocator@D@2@@std@@@Z$0
__ehfuncinfo$??0DataStream@Ogre@@QAE@ABV?$basic_string@DU?$char_traits@D@std@@V?$allocator@D@2@@std@@@Z DD 019930522H
	DD	01H
	DD	FLAT:__unwindtable$??0DataStream@Ogre@@QAE@ABV?$basic_string@DU?$char_traits@D@std@@V?$allocator@D@2@@std@@@Z
	DD	2 DUP(00H)
	DD	2 DUP(00H)
	DD	00H
	DD	00H
; Function compile flags: /Odtp
xdata$x	ENDS
;	COMDAT ??0DataStream@Ogre@@QAE@ABV?$basic_string@DU?$char_traits@D@std@@V?$allocator@D@2@@std@@@Z
_TEXT	SEGMENT
_this$ = -16						; size = 4
__$EHRec$ = -12						; size = 12
_name$ = 8						; size = 4
??0DataStream@Ogre@@QAE@ABV?$basic_string@DU?$char_traits@D@std@@V?$allocator@D@2@@std@@@Z PROC ; Ogre::DataStream::DataStream, COMDAT
; _this$ = ecx

; 70   : 		DataStream(const String& name) : mName(name), mSize(0) {}

	push	ebp
	mov	ebp, esp
	push	-1
	push	__ehhandler$??0DataStream@Ogre@@QAE@ABV?$basic_string@DU?$char_traits@D@std@@V?$allocator@D@2@@std@@@Z
	mov	eax, DWORD PTR fs:0
	push	eax
	push	ecx
	mov	eax, DWORD PTR ___security_cookie
	xor	eax, ebp
	push	eax
	lea	eax, DWORD PTR __$EHRec$[ebp]
	mov	DWORD PTR fs:0, eax
	mov	DWORD PTR _this$[ebp], ecx
	mov	eax, DWORD PTR _this$[ebp]
	mov	DWORD PTR [eax], OFFSET ??_7DataStream@Ogre@@6B@
	mov	ecx, DWORD PTR _name$[ebp]
	push	ecx
	mov	ecx, DWORD PTR _this$[ebp]
	add	ecx, 4
	call	DWORD PTR __imp_??0?$basic_string@DU?$char_traits@D@std@@V?$allocator@D@2@@std@@QAE@ABV01@@Z
	mov	DWORD PTR __$EHRec$[ebp+8], 0
	mov	edx, DWORD PTR _this$[ebp]
	mov	DWORD PTR [edx+32], 0
	mov	DWORD PTR __$EHRec$[ebp+8], -1
	mov	eax, DWORD PTR _this$[ebp]
	mov	ecx, DWORD PTR __$EHRec$[ebp]
	mov	DWORD PTR fs:0, ecx
	pop	ecx
	mov	esp, ebp
	pop	ebp
	ret	4
_TEXT	ENDS
;	COMDAT text$x
text$x	SEGMENT
__unwindfunclet$??0DataStream@Ogre@@QAE@ABV?$basic_string@DU?$char_traits@D@std@@V?$allocator@D@2@@std@@@Z$0:
	mov	ecx, DWORD PTR _this$[ebp]
	add	ecx, 4
	jmp	DWORD PTR __imp_??1?$basic_string@DU?$char_traits@D@std@@V?$allocator@D@2@@std@@QAE@XZ
__ehhandler$??0DataStream@Ogre@@QAE@ABV?$basic_string@DU?$char_traits@D@std@@V?$allocator@D@2@@std@@@Z:
	mov	edx, DWORD PTR [esp+8]
	lea	eax, DWORD PTR [edx+12]
	mov	ecx, DWORD PTR [edx-8]
	xor	ecx, eax
	call	@__security_check_cookie@4
	mov	eax, OFFSET __ehfuncinfo$??0DataStream@Ogre@@QAE@ABV?$basic_string@DU?$char_traits@D@std@@V?$allocator@D@2@@std@@@Z
	jmp	___CxxFrameHandler3
text$x	ENDS
??0DataStream@Ogre@@QAE@ABV?$basic_string@DU?$char_traits@D@std@@V?$allocator@D@2@@std@@@Z ENDP ; Ogre::DataStream::DataStream
PUBLIC	?getName@DataStream@Ogre@@QAEABV?$basic_string@DU?$char_traits@D@std@@V?$allocator@D@2@@std@@XZ ; Ogre::DataStream::getName
; Function compile flags: /Odtp
;	COMDAT ?getName@DataStream@Ogre@@QAEABV?$basic_string@DU?$char_traits@D@std@@V?$allocator@D@2@@std@@XZ
_TEXT	SEGMENT
_this$ = -4						; size = 4
?getName@DataStream@Ogre@@QAEABV?$basic_string@DU?$char_traits@D@std@@V?$allocator@D@2@@std@@XZ PROC ; Ogre::DataStream::getName, COMDAT
; _this$ = ecx

; 72   : 		const String& getName(void) { return mName; }

	push	ebp
	mov	ebp, esp
	push	ecx
	mov	DWORD PTR _this$[ebp], ecx
	mov	eax, DWORD PTR _this$[ebp]
	add	eax, 4
	mov	esp, ebp
	pop	ebp
	ret	0
?getName@DataStream@Ogre@@QAEABV?$basic_string@DU?$char_traits@D@std@@V?$allocator@D@2@@std@@XZ ENDP ; Ogre::DataStream::getName
_TEXT	ENDS
PUBLIC	??1DataStream@Ogre@@UAE@XZ			; Ogre::DataStream::~DataStream
;	COMDAT xdata$x
xdata$x	SEGMENT
__unwindtable$??1DataStream@Ogre@@UAE@XZ DD 0ffffffffH
	DD	FLAT:__unwindfunclet$??1DataStream@Ogre@@UAE@XZ$0
__ehfuncinfo$??1DataStream@Ogre@@UAE@XZ DD 019930522H
	DD	01H
	DD	FLAT:__unwindtable$??1DataStream@Ogre@@UAE@XZ
	DD	2 DUP(00H)
	DD	2 DUP(00H)
	DD	00H
	DD	00H
; Function compile flags: /Odtp
xdata$x	ENDS
;	COMDAT ??1DataStream@Ogre@@UAE@XZ
_TEXT	SEGMENT
_this$ = -16						; size = 4
__$EHRec$ = -12						; size = 12
??1DataStream@Ogre@@UAE@XZ PROC				; Ogre::DataStream::~DataStream, COMDAT
; _this$ = ecx

; 73   : 		virtual ~DataStream() {}

	push	ebp
	mov	ebp, esp
	push	-1
	push	__ehhandler$??1DataStream@Ogre@@UAE@XZ
	mov	eax, DWORD PTR fs:0
	push	eax
	push	ecx
	mov	eax, DWORD PTR ___security_cookie
	xor	eax, ebp
	push	eax
	lea	eax, DWORD PTR __$EHRec$[ebp]
	mov	DWORD PTR fs:0, eax
	mov	DWORD PTR _this$[ebp], ecx
	mov	eax, DWORD PTR _this$[ebp]
	mov	DWORD PTR [eax], OFFSET ??_7DataStream@Ogre@@6B@
	mov	DWORD PTR __$EHRec$[ebp+8], 0
	mov	DWORD PTR __$EHRec$[ebp+8], -1
	mov	ecx, DWORD PTR _this$[ebp]
	add	ecx, 4
	call	DWORD PTR __imp_??1?$basic_string@DU?$char_traits@D@std@@V?$allocator@D@2@@std@@QAE@XZ
	mov	ecx, DWORD PTR __$EHRec$[ebp]
	mov	DWORD PTR fs:0, ecx
	pop	ecx
	mov	esp, ebp
	pop	ebp
	ret	0
_TEXT	ENDS
;	COMDAT text$x
text$x	SEGMENT
__unwindfunclet$??1DataStream@Ogre@@UAE@XZ$0:
	mov	ecx, DWORD PTR _this$[ebp]
	add	ecx, 4
	jmp	DWORD PTR __imp_??1?$basic_string@DU?$char_traits@D@std@@V?$allocator@D@2@@std@@QAE@XZ
__ehhandler$??1DataStream@Ogre@@UAE@XZ:
	mov	edx, DWORD PTR [esp+8]
	lea	eax, DWORD PTR [edx+12]
	mov	ecx, DWORD PTR [edx-8]
	xor	ecx, eax
	call	@__security_check_cookie@4
	mov	eax, OFFSET __ehfuncinfo$??1DataStream@Ogre@@UAE@XZ
	jmp	___CxxFrameHandler3
text$x	ENDS
??1DataStream@Ogre@@UAE@XZ ENDP				; Ogre::DataStream::~DataStream
; Function compile flags: /Odtp
;	COMDAT ?size@DataStream@Ogre@@UBEIXZ
_TEXT	SEGMENT
_this$ = -4						; size = 4
?size@DataStream@Ogre@@UBEIXZ PROC			; Ogre::DataStream::size, COMDAT
; _this$ = ecx

; 157  : 		virtual size_t size(void) const { return mSize; }

	push	ebp
	mov	ebp, esp
	push	ecx
	mov	DWORD PTR _this$[ebp], ecx
	mov	eax, DWORD PTR _this$[ebp]
	mov	eax, DWORD PTR [eax+32]
	mov	esp, ebp
	pop	ebp
	ret	0
?size@DataStream@Ogre@@UBEIXZ ENDP			; Ogre::DataStream::size
_TEXT	ENDS
PUBLIC	??0DataStream@Ogre@@QAE@ABV01@@Z		; Ogre::DataStream::DataStream
;	COMDAT xdata$x
xdata$x	SEGMENT
__unwindtable$??0DataStream@Ogre@@QAE@ABV01@@Z DD 0ffffffffH
	DD	FLAT:__unwindfunclet$??0DataStream@Ogre@@QAE@ABV01@@Z$0
__ehfuncinfo$??0DataStream@Ogre@@QAE@ABV01@@Z DD 019930522H
	DD	01H
	DD	FLAT:__unwindtable$??0DataStream@Ogre@@QAE@ABV01@@Z
	DD	2 DUP(00H)
	DD	2 DUP(00H)
	DD	00H
	DD	00H
; Function compile flags: /Odtp
xdata$x	ENDS
;	COMDAT ??0DataStream@Ogre@@QAE@ABV01@@Z
_TEXT	SEGMENT
_this$ = -16						; size = 4
__$EHRec$ = -12						; size = 12
___that$ = 8						; size = 4
??0DataStream@Ogre@@QAE@ABV01@@Z PROC			; Ogre::DataStream::DataStream, COMDAT
; _this$ = ecx
	push	ebp
	mov	ebp, esp
	push	-1
	push	__ehhandler$??0DataStream@Ogre@@QAE@ABV01@@Z
	mov	eax, DWORD PTR fs:0
	push	eax
	push	ecx
	mov	eax, DWORD PTR ___security_cookie
	xor	eax, ebp
	push	eax
	lea	eax, DWORD PTR __$EHRec$[ebp]
	mov	DWORD PTR fs:0, eax
	mov	DWORD PTR _this$[ebp], ecx
	mov	eax, DWORD PTR _this$[ebp]
	mov	DWORD PTR [eax], OFFSET ??_7DataStream@Ogre@@6B@
	mov	ecx, DWORD PTR ___that$[ebp]
	add	ecx, 4
	push	ecx
	mov	ecx, DWORD PTR _this$[ebp]
	add	ecx, 4
	call	DWORD PTR __imp_??0?$basic_string@DU?$char_traits@D@std@@V?$allocator@D@2@@std@@QAE@ABV01@@Z
	mov	DWORD PTR __$EHRec$[ebp+8], 0
	mov	edx, DWORD PTR _this$[ebp]
	mov	eax, DWORD PTR ___that$[ebp]
	mov	ecx, DWORD PTR [eax+32]
	mov	DWORD PTR [edx+32], ecx
	mov	DWORD PTR __$EHRec$[ebp+8], -1
	mov	eax, DWORD PTR _this$[ebp]
	mov	ecx, DWORD PTR __$EHRec$[ebp]
	mov	DWORD PTR fs:0, ecx
	pop	ecx
	mov	esp, ebp
	pop	ebp
	ret	4
_TEXT	ENDS
;	COMDAT text$x
text$x	SEGMENT
__unwindfunclet$??0DataStream@Ogre@@QAE@ABV01@@Z$0:
	mov	ecx, DWORD PTR _this$[ebp]
	add	ecx, 4
	jmp	DWORD PTR __imp_??1?$basic_string@DU?$char_traits@D@std@@V?$allocator@D@2@@std@@QAE@XZ
__ehhandler$??0DataStream@Ogre@@QAE@ABV01@@Z:
	mov	edx, DWORD PTR [esp+8]
	lea	eax, DWORD PTR [edx+12]
	mov	ecx, DWORD PTR [edx-8]
	xor	ecx, eax
	call	@__security_check_cookie@4
	mov	eax, OFFSET __ehfuncinfo$??0DataStream@Ogre@@QAE@ABV01@@Z
	jmp	___CxxFrameHandler3
text$x	ENDS
??0DataStream@Ogre@@QAE@ABV01@@Z ENDP			; Ogre::DataStream::DataStream
PUBLIC	??4DataStream@Ogre@@QAEAAV01@ABV01@@Z		; Ogre::DataStream::operator=
EXTRN	__imp_??4?$basic_string@DU?$char_traits@D@std@@V?$allocator@D@2@@std@@QAEAAV01@ABV01@@Z:PROC
; Function compile flags: /Odtp
;	COMDAT ??4DataStream@Ogre@@QAEAAV01@ABV01@@Z
_TEXT	SEGMENT
_this$ = -4						; size = 4
___that$ = 8						; size = 4
??4DataStream@Ogre@@QAEAAV01@ABV01@@Z PROC		; Ogre::DataStream::operator=, COMDAT
; _this$ = ecx
	push	ebp
	mov	ebp, esp
	push	ecx
	mov	DWORD PTR _this$[ebp], ecx
	mov	eax, DWORD PTR ___that$[ebp]
	add	eax, 4
	push	eax
	mov	ecx, DWORD PTR _this$[ebp]
	add	ecx, 4
	call	DWORD PTR __imp_??4?$basic_string@DU?$char_traits@D@std@@V?$allocator@D@2@@std@@QAEAAV01@ABV01@@Z
	mov	ecx, DWORD PTR _this$[ebp]
	mov	edx, DWORD PTR ___that$[ebp]
	mov	eax, DWORD PTR [edx+32]
	mov	DWORD PTR [ecx+32], eax
	mov	eax, DWORD PTR _this$[ebp]
	mov	esp, ebp
	pop	ebp
	ret	4
??4DataStream@Ogre@@QAEAAV01@ABV01@@Z ENDP		; Ogre::DataStream::operator=
_TEXT	ENDS
PUBLIC	??_GDataStream@Ogre@@UAEPAXI@Z			; Ogre::DataStream::`scalar deleting destructor'
EXTRN	??3@YAXPAX@Z:PROC				; operator delete
; Function compile flags: /Odtp
;	COMDAT ??_GDataStream@Ogre@@UAEPAXI@Z
_TEXT	SEGMENT
_this$ = -4						; size = 4
___flags$ = 8						; size = 4
??_GDataStream@Ogre@@UAEPAXI@Z PROC			; Ogre::DataStream::`scalar deleting destructor', COMDAT
; _this$ = ecx
	push	ebp
	mov	ebp, esp
	push	ecx
	mov	DWORD PTR _this$[ebp], ecx
	mov	ecx, DWORD PTR _this$[ebp]
	call	??1DataStream@Ogre@@UAE@XZ		; Ogre::DataStream::~DataStream
	mov	eax, DWORD PTR ___flags$[ebp]
	and	eax, 1
	je	SHORT $LN1@scalar
	mov	ecx, DWORD PTR _this$[ebp]
	push	ecx
	call	??3@YAXPAX@Z				; operator delete
	add	esp, 4
$LN1@scalar:
	mov	eax, DWORD PTR _this$[ebp]
	mov	esp, ebp
	pop	ebp
	ret	4
??_GDataStream@Ogre@@UAEPAXI@Z ENDP			; Ogre::DataStream::`scalar deleting destructor'
_TEXT	ENDS
EXTRN	??_V@YAXPAX@Z:PROC				; operator delete[]
EXTRN	??_M@YGXPAXIHP6EX0@Z@Z:PROC			; `eh vector destructor iterator'
; Function compile flags: /Odtp
;	COMDAT ??_EDataStream@Ogre@@UAEPAXI@Z
_TEXT	SEGMENT
_this$ = -4						; size = 4
___flags$ = 8						; size = 4
??_EDataStream@Ogre@@UAEPAXI@Z PROC			; Ogre::DataStream::`vector deleting destructor', COMDAT
; _this$ = ecx
	push	ebp
	mov	ebp, esp
	push	ecx
	mov	DWORD PTR _this$[ebp], ecx
	mov	eax, DWORD PTR ___flags$[ebp]
	and	eax, 2
	je	SHORT $LN3@vector
	push	OFFSET ??1DataStream@Ogre@@UAE@XZ	; Ogre::DataStream::~DataStream
	mov	ecx, DWORD PTR _this$[ebp]
	mov	edx, DWORD PTR [ecx-4]
	push	edx
	push	36					; 00000024H
	mov	eax, DWORD PTR _this$[ebp]
	push	eax
	call	??_M@YGXPAXIHP6EX0@Z@Z
	mov	ecx, DWORD PTR ___flags$[ebp]
	and	ecx, 1
	je	SHORT $LN2@vector
	mov	edx, DWORD PTR _this$[ebp]
	sub	edx, 4
	push	edx
	call	??_V@YAXPAX@Z				; operator delete[]
	add	esp, 4
$LN2@vector:
	mov	eax, DWORD PTR _this$[ebp]
	sub	eax, 4
	jmp	SHORT $LN4@vector
$LN3@vector:
	mov	ecx, DWORD PTR _this$[ebp]
	call	??1DataStream@Ogre@@UAE@XZ		; Ogre::DataStream::~DataStream
	mov	eax, DWORD PTR ___flags$[ebp]
	and	eax, 1
	je	SHORT $LN1@vector
	mov	ecx, DWORD PTR _this$[ebp]
	push	ecx
	call	??3@YAXPAX@Z				; operator delete
	add	esp, 4
$LN1@vector:
	mov	eax, DWORD PTR _this$[ebp]
$LN4@vector:
	mov	esp, ebp
	pop	ebp
	ret	4
??_EDataStream@Ogre@@UAEPAXI@Z ENDP			; Ogre::DataStream::`vector deleting destructor'
_TEXT	ENDS
PUBLIC	?getPtr@MemoryDataStream@Ogre@@QAEPAEXZ		; Ogre::MemoryDataStream::getPtr
; Function compile flags: /Odtp
;	COMDAT ?getPtr@MemoryDataStream@Ogre@@QAEPAEXZ
_TEXT	SEGMENT
_this$ = -4						; size = 4
?getPtr@MemoryDataStream@Ogre@@QAEPAEXZ PROC		; Ogre::MemoryDataStream::getPtr, COMDAT
; _this$ = ecx

; 267  : 		uchar* getPtr(void) { return mData; }

	push	ebp
	mov	ebp, esp
	push	ecx
	mov	DWORD PTR _this$[ebp], ecx
	mov	eax, DWORD PTR _this$[ebp]
	mov	eax, DWORD PTR [eax+36]
	mov	esp, ebp
	pop	ebp
	ret	0
?getPtr@MemoryDataStream@Ogre@@QAEPAEXZ ENDP		; Ogre::MemoryDataStream::getPtr
_TEXT	ENDS
PUBLIC	?getCurrentPtr@MemoryDataStream@Ogre@@QAEPAEXZ	; Ogre::MemoryDataStream::getCurrentPtr
; Function compile flags: /Odtp
;	COMDAT ?getCurrentPtr@MemoryDataStream@Ogre@@QAEPAEXZ
_TEXT	SEGMENT
_this$ = -4						; size = 4
?getCurrentPtr@MemoryDataStream@Ogre@@QAEPAEXZ PROC	; Ogre::MemoryDataStream::getCurrentPtr, COMDAT
; _this$ = ecx

; 270  : 		uchar* getCurrentPtr(void) { return mPos; }

	push	ebp
	mov	ebp, esp
	push	ecx
	mov	DWORD PTR _this$[ebp], ecx
	mov	eax, DWORD PTR _this$[ebp]
	mov	eax, DWORD PTR [eax+40]
	mov	esp, ebp
	pop	ebp
	ret	0
?getCurrentPtr@MemoryDataStream@Ogre@@QAEPAEXZ ENDP	; Ogre::MemoryDataStream::getCurrentPtr
_TEXT	ENDS
PUBLIC	?getMemoryImage@MemoryDataStream@Ogre@@UAEPAXXZ	; Ogre::MemoryDataStream::getMemoryImage
; Function compile flags: /Odtp
;	COMDAT ?getMemoryImage@MemoryDataStream@Ogre@@UAEPAXXZ
_TEXT	SEGMENT
_this$ = -4						; size = 4
?getMemoryImage@MemoryDataStream@Ogre@@UAEPAXXZ PROC	; Ogre::MemoryDataStream::getMemoryImage, COMDAT
; _this$ = ecx

; 307  : 		{

	push	ebp
	mov	ebp, esp
	push	ecx
	mov	DWORD PTR _this$[ebp], ecx

; 308  : 			return mData;

	mov	eax, DWORD PTR _this$[ebp]
	mov	eax, DWORD PTR [eax+36]

; 309  : 		}

	mov	esp, ebp
	pop	ebp
	ret	0
?getMemoryImage@MemoryDataStream@Ogre@@UAEPAXXZ ENDP	; Ogre::MemoryDataStream::getMemoryImage
_TEXT	ENDS
PUBLIC	?setFreeOnClose@MemoryDataStream@Ogre@@QAEXP6AXPAX@Z@Z ; Ogre::MemoryDataStream::setFreeOnClose
; Function compile flags: /Odtp
;	COMDAT ?setFreeOnClose@MemoryDataStream@Ogre@@QAEXP6AXPAX@Z@Z
_TEXT	SEGMENT
_this$ = -4						; size = 4
_freeOnClose$ = 8					; size = 4
?setFreeOnClose@MemoryDataStream@Ogre@@QAEXP6AXPAX@Z@Z PROC ; Ogre::MemoryDataStream::setFreeOnClose, COMDAT
; _this$ = ecx

; 313  : 		void setFreeOnClose(void (*freeOnClose)(void *)) { mFreeOnClose = freeOnClose; }

	push	ebp
	mov	ebp, esp
	push	ecx
	mov	DWORD PTR _this$[ebp], ecx
	mov	eax, DWORD PTR _this$[ebp]
	mov	ecx, DWORD PTR _freeOnClose$[ebp]
	mov	DWORD PTR [eax+48], ecx
	mov	esp, ebp
	pop	ebp
	ret	4
?setFreeOnClose@MemoryDataStream@Ogre@@QAEXP6AXPAX@Z@Z ENDP ; Ogre::MemoryDataStream::setFreeOnClose
_TEXT	ENDS
PUBLIC	??_7MemoryDataStream@Ogre@@6B@			; Ogre::MemoryDataStream::`vftable'
PUBLIC	??0MemoryDataStream@Ogre@@QAE@ABV01@@Z		; Ogre::MemoryDataStream::MemoryDataStream
PUBLIC	??_R4MemoryDataStream@Ogre@@6B@			; Ogre::MemoryDataStream::`RTTI Complete Object Locator'
PUBLIC	??_R0?AVMemoryDataStream@Ogre@@@8		; Ogre::MemoryDataStream `RTTI Type Descriptor'
PUBLIC	??_R3MemoryDataStream@Ogre@@8			; Ogre::MemoryDataStream::`RTTI Class Hierarchy Descriptor'
PUBLIC	??_R2MemoryDataStream@Ogre@@8			; Ogre::MemoryDataStream::`RTTI Base Class Array'
PUBLIC	??_R1A@?0A@EA@MemoryDataStream@Ogre@@8		; Ogre::MemoryDataStream::`RTTI Base Class Descriptor at (0,-1,0,64)'
PUBLIC	??_EMemoryDataStream@Ogre@@UAEPAXI@Z		; Ogre::MemoryDataStream::`vector deleting destructor'
EXTRN	?read@MemoryDataStream@Ogre@@UAEIPAXI@Z:PROC	; Ogre::MemoryDataStream::read
EXTRN	?write@MemoryDataStream@Ogre@@UAEIPBXI@Z:PROC	; Ogre::MemoryDataStream::write
EXTRN	?readLine@MemoryDataStream@Ogre@@UAEIPADIABV?$basic_string@DU?$char_traits@D@std@@V?$allocator@D@2@@std@@@Z:PROC ; Ogre::MemoryDataStream::readLine
EXTRN	?skipLine@MemoryDataStream@Ogre@@UAEIABV?$basic_string@DU?$char_traits@D@std@@V?$allocator@D@2@@std@@@Z:PROC ; Ogre::MemoryDataStream::skipLine
EXTRN	?skip@MemoryDataStream@Ogre@@UAEXJ@Z:PROC	; Ogre::MemoryDataStream::skip
EXTRN	?seek@MemoryDataStream@Ogre@@UAEXI@Z:PROC	; Ogre::MemoryDataStream::seek
EXTRN	?tell@MemoryDataStream@Ogre@@UBEIXZ:PROC	; Ogre::MemoryDataStream::tell
EXTRN	?eof@MemoryDataStream@Ogre@@UBE_NXZ:PROC	; Ogre::MemoryDataStream::eof
EXTRN	?close@MemoryDataStream@Ogre@@UAEXXZ:PROC	; Ogre::MemoryDataStream::close
;	COMDAT ??_R1A@?0A@EA@MemoryDataStream@Ogre@@8
rdata$r	SEGMENT
??_R1A@?0A@EA@MemoryDataStream@Ogre@@8 DD FLAT:??_R0?AVMemoryDataStream@Ogre@@@8 ; Ogre::MemoryDataStream::`RTTI Base Class Descriptor at (0,-1,0,64)'
	DD	01H
	DD	00H
	DD	0ffffffffH
	DD	00H
	DD	040H
	DD	FLAT:??_R3MemoryDataStream@Ogre@@8
rdata$r	ENDS
;	COMDAT ??_R2MemoryDataStream@Ogre@@8
rdata$r	SEGMENT
??_R2MemoryDataStream@Ogre@@8 DD FLAT:??_R1A@?0A@EA@MemoryDataStream@Ogre@@8 ; Ogre::MemoryDataStream::`RTTI Base Class Array'
	DD	FLAT:??_R1A@?0A@EA@DataStream@Ogre@@8
rdata$r	ENDS
;	COMDAT ??_R3MemoryDataStream@Ogre@@8
rdata$r	SEGMENT
??_R3MemoryDataStream@Ogre@@8 DD 00H			; Ogre::MemoryDataStream::`RTTI Class Hierarchy Descriptor'
	DD	00H
	DD	02H
	DD	FLAT:??_R2MemoryDataStream@Ogre@@8
rdata$r	ENDS
;	COMDAT ??_R0?AVMemoryDataStream@Ogre@@@8
_DATA	SEGMENT
??_R0?AVMemoryDataStream@Ogre@@@8 DD FLAT:??_7type_info@@6B@ ; Ogre::MemoryDataStream `RTTI Type Descriptor'
	DD	00H
	DB	'.?AVMemoryDataStream@Ogre@@', 00H
_DATA	ENDS
;	COMDAT ??_R4MemoryDataStream@Ogre@@6B@
rdata$r	SEGMENT
??_R4MemoryDataStream@Ogre@@6B@ DD 00H			; Ogre::MemoryDataStream::`RTTI Complete Object Locator'
	DD	00H
	DD	00H
	DD	FLAT:??_R0?AVMemoryDataStream@Ogre@@@8
	DD	FLAT:??_R3MemoryDataStream@Ogre@@8
rdata$r	ENDS
;	COMDAT ??_7MemoryDataStream@Ogre@@6B@
CONST	SEGMENT
??_7MemoryDataStream@Ogre@@6B@ DD FLAT:??_R4MemoryDataStream@Ogre@@6B@ ; Ogre::MemoryDataStream::`vftable'
	DD	FLAT:??_EMemoryDataStream@Ogre@@UAEPAXI@Z
	DD	FLAT:?read@MemoryDataStream@Ogre@@UAEIPAXI@Z
	DD	FLAT:?write@MemoryDataStream@Ogre@@UAEIPBXI@Z
	DD	FLAT:?readLine@MemoryDataStream@Ogre@@UAEIPADIABV?$basic_string@DU?$char_traits@D@std@@V?$allocator@D@2@@std@@@Z
	DD	FLAT:?getLine@DataStream@Ogre@@UAE?AV?$basic_string@DU?$char_traits@D@std@@V?$allocator@D@2@@std@@_N@Z
	DD	FLAT:?getAsString@DataStream@Ogre@@UAE?AV?$basic_string@DU?$char_traits@D@std@@V?$allocator@D@2@@std@@XZ
	DD	FLAT:?skipLine@MemoryDataStream@Ogre@@UAEIABV?$basic_string@DU?$char_traits@D@std@@V?$allocator@D@2@@std@@@Z
	DD	FLAT:?skip@MemoryDataStream@Ogre@@UAEXJ@Z
	DD	FLAT:?seek@MemoryDataStream@Ogre@@UAEXI@Z
	DD	FLAT:?tell@MemoryDataStream@Ogre@@UBEIXZ
	DD	FLAT:?eof@MemoryDataStream@Ogre@@UBE_NXZ
	DD	FLAT:?size@DataStream@Ogre@@UBEIXZ
	DD	FLAT:?close@MemoryDataStream@Ogre@@UAEXXZ
	DD	FLAT:?getMemoryImage@MemoryDataStream@Ogre@@UAEPAXXZ
CONST	ENDS
;	COMDAT xdata$x
xdata$x	SEGMENT
__unwindtable$??0MemoryDataStream@Ogre@@QAE@ABV01@@Z DD 0ffffffffH
	DD	FLAT:__unwindfunclet$??0MemoryDataStream@Ogre@@QAE@ABV01@@Z$0
__ehfuncinfo$??0MemoryDataStream@Ogre@@QAE@ABV01@@Z DD 019930522H
	DD	01H
	DD	FLAT:__unwindtable$??0MemoryDataStream@Ogre@@QAE@ABV01@@Z
	DD	2 DUP(00H)
	DD	2 DUP(00H)
	DD	00H
	DD	00H
; Function compile flags: /Odtp
xdata$x	ENDS
;	COMDAT ??0MemoryDataStream@Ogre@@QAE@ABV01@@Z
_TEXT	SEGMENT
_this$ = -16						; size = 4
__$EHRec$ = -12						; size = 12
___that$ = 8						; size = 4
??0MemoryDataStream@Ogre@@QAE@ABV01@@Z PROC		; Ogre::MemoryDataStream::MemoryDataStream, COMDAT
; _this$ = ecx
	push	ebp
	mov	ebp, esp
	push	-1
	push	__ehhandler$??0MemoryDataStream@Ogre@@QAE@ABV01@@Z
	mov	eax, DWORD PTR fs:0
	push	eax
	push	ecx
	mov	eax, DWORD PTR ___security_cookie
	xor	eax, ebp
	push	eax
	lea	eax, DWORD PTR __$EHRec$[ebp]
	mov	DWORD PTR fs:0, eax
	mov	DWORD PTR _this$[ebp], ecx
	mov	eax, DWORD PTR ___that$[ebp]
	push	eax
	mov	ecx, DWORD PTR _this$[ebp]
	call	??0DataStream@Ogre@@QAE@ABV01@@Z
	mov	DWORD PTR __$EHRec$[ebp+8], 0
	mov	ecx, DWORD PTR _this$[ebp]
	mov	DWORD PTR [ecx], OFFSET ??_7MemoryDataStream@Ogre@@6B@
	mov	edx, DWORD PTR _this$[ebp]
	mov	eax, DWORD PTR ___that$[ebp]
	mov	ecx, DWORD PTR [eax+36]
	mov	DWORD PTR [edx+36], ecx
	mov	edx, DWORD PTR _this$[ebp]
	mov	eax, DWORD PTR ___that$[ebp]
	mov	ecx, DWORD PTR [eax+40]
	mov	DWORD PTR [edx+40], ecx
	mov	edx, DWORD PTR _this$[ebp]
	mov	eax, DWORD PTR ___that$[ebp]
	mov	ecx, DWORD PTR [eax+44]
	mov	DWORD PTR [edx+44], ecx
	mov	edx, DWORD PTR _this$[ebp]
	mov	eax, DWORD PTR ___that$[ebp]
	mov	ecx, DWORD PTR [eax+48]
	mov	DWORD PTR [edx+48], ecx
	mov	DWORD PTR __$EHRec$[ebp+8], -1
	mov	eax, DWORD PTR _this$[ebp]
	mov	ecx, DWORD PTR __$EHRec$[ebp]
	mov	DWORD PTR fs:0, ecx
	pop	ecx
	mov	esp, ebp
	pop	ebp
	ret	4
_TEXT	ENDS
;	COMDAT text$x
text$x	SEGMENT
__unwindfunclet$??0MemoryDataStream@Ogre@@QAE@ABV01@@Z$0:
	mov	ecx, DWORD PTR _this$[ebp]
	jmp	??1DataStream@Ogre@@UAE@XZ		; Ogre::DataStream::~DataStream
__ehhandler$??0MemoryDataStream@Ogre@@QAE@ABV01@@Z:
	mov	edx, DWORD PTR [esp+8]
	lea	eax, DWORD PTR [edx+12]
	mov	ecx, DWORD PTR [edx-8]
	xor	ecx, eax
	call	@__security_check_cookie@4
	mov	eax, OFFSET __ehfuncinfo$??0MemoryDataStream@Ogre@@QAE@ABV01@@Z
	jmp	___CxxFrameHandler3
text$x	ENDS
??0MemoryDataStream@Ogre@@QAE@ABV01@@Z ENDP		; Ogre::MemoryDataStream::MemoryDataStream
PUBLIC	??4MemoryDataStream@Ogre@@QAEAAV01@ABV01@@Z	; Ogre::MemoryDataStream::operator=
; Function compile flags: /Odtp
;	COMDAT ??4MemoryDataStream@Ogre@@QAEAAV01@ABV01@@Z
_TEXT	SEGMENT
_this$ = -4						; size = 4
___that$ = 8						; size = 4
??4MemoryDataStream@Ogre@@QAEAAV01@ABV01@@Z PROC	; Ogre::MemoryDataStream::operator=, COMDAT
; _this$ = ecx
	push	ebp
	mov	ebp, esp
	push	ecx
	mov	DWORD PTR _this$[ebp], ecx
	mov	eax, DWORD PTR ___that$[ebp]
	push	eax
	mov	ecx, DWORD PTR _this$[ebp]
	call	??4DataStream@Ogre@@QAEAAV01@ABV01@@Z
	mov	ecx, DWORD PTR _this$[ebp]
	mov	edx, DWORD PTR ___that$[ebp]
	mov	eax, DWORD PTR [edx+36]
	mov	DWORD PTR [ecx+36], eax
	mov	ecx, DWORD PTR _this$[ebp]
	mov	edx, DWORD PTR ___that$[ebp]
	mov	eax, DWORD PTR [edx+40]
	mov	DWORD PTR [ecx+40], eax
	mov	ecx, DWORD PTR _this$[ebp]
	mov	edx, DWORD PTR ___that$[ebp]
	mov	eax, DWORD PTR [edx+44]
	mov	DWORD PTR [ecx+44], eax
	mov	ecx, DWORD PTR _this$[ebp]
	mov	edx, DWORD PTR ___that$[ebp]
	mov	eax, DWORD PTR [edx+48]
	mov	DWORD PTR [ecx+48], eax
	mov	eax, DWORD PTR _this$[ebp]
	mov	esp, ebp
	pop	ebp
	ret	4
??4MemoryDataStream@Ogre@@QAEAAV01@ABV01@@Z ENDP	; Ogre::MemoryDataStream::operator=
_TEXT	ENDS
PUBLIC	??_GMemoryDataStream@Ogre@@UAEPAXI@Z		; Ogre::MemoryDataStream::`scalar deleting destructor'
EXTRN	??1MemoryDataStream@Ogre@@UAE@XZ:PROC		; Ogre::MemoryDataStream::~MemoryDataStream
; Function compile flags: /Odtp
;	COMDAT ??_GMemoryDataStream@Ogre@@UAEPAXI@Z
_TEXT	SEGMENT
_this$ = -4						; size = 4
___flags$ = 8						; size = 4
??_GMemoryDataStream@Ogre@@UAEPAXI@Z PROC		; Ogre::MemoryDataStream::`scalar deleting destructor', COMDAT
; _this$ = ecx
	push	ebp
	mov	ebp, esp
	push	ecx
	mov	DWORD PTR _this$[ebp], ecx
	mov	ecx, DWORD PTR _this$[ebp]
	call	??1MemoryDataStream@Ogre@@UAE@XZ	; Ogre::MemoryDataStream::~MemoryDataStream
	mov	eax, DWORD PTR ___flags$[ebp]
	and	eax, 1
	je	SHORT $LN1@scalar@2
	mov	ecx, DWORD PTR _this$[ebp]
	push	ecx
	call	??3@YAXPAX@Z				; operator delete
	add	esp, 4
$LN1@scalar@2:
	mov	eax, DWORD PTR _this$[ebp]
	mov	esp, ebp
	pop	ebp
	ret	4
??_GMemoryDataStream@Ogre@@UAEPAXI@Z ENDP		; Ogre::MemoryDataStream::`scalar deleting destructor'
; Function compile flags: /Odtp
_TEXT	ENDS
;	COMDAT ??_EMemoryDataStream@Ogre@@UAEPAXI@Z
_TEXT	SEGMENT
_this$ = -4						; size = 4
___flags$ = 8						; size = 4
??_EMemoryDataStream@Ogre@@UAEPAXI@Z PROC		; Ogre::MemoryDataStream::`vector deleting destructor', COMDAT
; _this$ = ecx
	push	ebp
	mov	ebp, esp
	push	ecx
	mov	DWORD PTR _this$[ebp], ecx
	mov	eax, DWORD PTR ___flags$[ebp]
	and	eax, 2
	je	SHORT $LN3@vector@2
	push	OFFSET ??1MemoryDataStream@Ogre@@UAE@XZ	; Ogre::MemoryDataStream::~MemoryDataStream
	mov	ecx, DWORD PTR _this$[ebp]
	mov	edx, DWORD PTR [ecx-4]
	push	edx
	push	52					; 00000034H
	mov	eax, DWORD PTR _this$[ebp]
	push	eax
	call	??_M@YGXPAXIHP6EX0@Z@Z
	mov	ecx, DWORD PTR ___flags$[ebp]
	and	ecx, 1
	je	SHORT $LN2@vector@2
	mov	edx, DWORD PTR _this$[ebp]
	sub	edx, 4
	push	edx
	call	??_V@YAXPAX@Z				; operator delete[]
	add	esp, 4
$LN2@vector@2:
	mov	eax, DWORD PTR _this$[ebp]
	sub	eax, 4
	jmp	SHORT $LN4@vector@2
$LN3@vector@2:
	mov	ecx, DWORD PTR _this$[ebp]
	call	??1MemoryDataStream@Ogre@@UAE@XZ	; Ogre::MemoryDataStream::~MemoryDataStream
	mov	eax, DWORD PTR ___flags$[ebp]
	and	eax, 1
	je	SHORT $LN1@vector@2
	mov	ecx, DWORD PTR _this$[ebp]
	push	ecx
	call	??3@YAXPAX@Z				; operator delete
	add	esp, 4
$LN1@vector@2:
	mov	eax, DWORD PTR _this$[ebp]
$LN4@vector@2:
	mov	esp, ebp
	pop	ebp
	ret	4
??_EMemoryDataStream@Ogre@@UAEPAXI@Z ENDP		; Ogre::MemoryDataStream::`vector deleting destructor'
_TEXT	ENDS
PUBLIC	??_7FileStreamDataStream@Ogre@@6B@		; Ogre::FileStreamDataStream::`vftable'
PUBLIC	??0FileStreamDataStream@Ogre@@QAE@ABV01@@Z	; Ogre::FileStreamDataStream::FileStreamDataStream
PUBLIC	??_R4FileStreamDataStream@Ogre@@6B@		; Ogre::FileStreamDataStream::`RTTI Complete Object Locator'
PUBLIC	??_R0?AVFileStreamDataStream@Ogre@@@8		; Ogre::FileStreamDataStream `RTTI Type Descriptor'
PUBLIC	??_R3FileStreamDataStream@Ogre@@8		; Ogre::FileStreamDataStream::`RTTI Class Hierarchy Descriptor'
PUBLIC	??_R2FileStreamDataStream@Ogre@@8		; Ogre::FileStreamDataStream::`RTTI Base Class Array'
PUBLIC	??_R1A@?0A@EA@FileStreamDataStream@Ogre@@8	; Ogre::FileStreamDataStream::`RTTI Base Class Descriptor at (0,-1,0,64)'
PUBLIC	??_EFileStreamDataStream@Ogre@@UAEPAXI@Z	; Ogre::FileStreamDataStream::`vector deleting destructor'
EXTRN	?read@FileStreamDataStream@Ogre@@UAEIPAXI@Z:PROC ; Ogre::FileStreamDataStream::read
EXTRN	?write@FileStreamDataStream@Ogre@@UAEIPBXI@Z:PROC ; Ogre::FileStreamDataStream::write
EXTRN	?readLine@FileStreamDataStream@Ogre@@UAEIPADIABV?$basic_string@DU?$char_traits@D@std@@V?$allocator@D@2@@std@@@Z:PROC ; Ogre::FileStreamDataStream::readLine
EXTRN	?skip@FileStreamDataStream@Ogre@@UAEXJ@Z:PROC	; Ogre::FileStreamDataStream::skip
EXTRN	?seek@FileStreamDataStream@Ogre@@UAEXI@Z:PROC	; Ogre::FileStreamDataStream::seek
EXTRN	?tell@FileStreamDataStream@Ogre@@UBEIXZ:PROC	; Ogre::FileStreamDataStream::tell
EXTRN	?eof@FileStreamDataStream@Ogre@@UBE_NXZ:PROC	; Ogre::FileStreamDataStream::eof
EXTRN	?close@FileStreamDataStream@Ogre@@UAEXXZ:PROC	; Ogre::FileStreamDataStream::close
EXTRN	?getMemoryImage@FileStreamDataStream@Ogre@@UAEPAXXZ:PROC ; Ogre::FileStreamDataStream::getMemoryImage
;	COMDAT ??_R1A@?0A@EA@FileStreamDataStream@Ogre@@8
rdata$r	SEGMENT
??_R1A@?0A@EA@FileStreamDataStream@Ogre@@8 DD FLAT:??_R0?AVFileStreamDataStream@Ogre@@@8 ; Ogre::FileStreamDataStream::`RTTI Base Class Descriptor at (0,-1,0,64)'
	DD	01H
	DD	00H
	DD	0ffffffffH
	DD	00H
	DD	040H
	DD	FLAT:??_R3FileStreamDataStream@Ogre@@8
rdata$r	ENDS
;	COMDAT ??_R2FileStreamDataStream@Ogre@@8
rdata$r	SEGMENT
??_R2FileStreamDataStream@Ogre@@8 DD FLAT:??_R1A@?0A@EA@FileStreamDataStream@Ogre@@8 ; Ogre::FileStreamDataStream::`RTTI Base Class Array'
	DD	FLAT:??_R1A@?0A@EA@DataStream@Ogre@@8
rdata$r	ENDS
;	COMDAT ??_R3FileStreamDataStream@Ogre@@8
rdata$r	SEGMENT
??_R3FileStreamDataStream@Ogre@@8 DD 00H		; Ogre::FileStreamDataStream::`RTTI Class Hierarchy Descriptor'
	DD	00H
	DD	02H
	DD	FLAT:??_R2FileStreamDataStream@Ogre@@8
rdata$r	ENDS
;	COMDAT ??_R0?AVFileStreamDataStream@Ogre@@@8
_DATA	SEGMENT
??_R0?AVFileStreamDataStream@Ogre@@@8 DD FLAT:??_7type_info@@6B@ ; Ogre::FileStreamDataStream `RTTI Type Descriptor'
	DD	00H
	DB	'.?AVFileStreamDataStream@Ogre@@', 00H
_DATA	ENDS
;	COMDAT ??_R4FileStreamDataStream@Ogre@@6B@
rdata$r	SEGMENT
??_R4FileStreamDataStream@Ogre@@6B@ DD 00H		; Ogre::FileStreamDataStream::`RTTI Complete Object Locator'
	DD	00H
	DD	00H
	DD	FLAT:??_R0?AVFileStreamDataStream@Ogre@@@8
	DD	FLAT:??_R3FileStreamDataStream@Ogre@@8
rdata$r	ENDS
;	COMDAT ??_7FileStreamDataStream@Ogre@@6B@
CONST	SEGMENT
??_7FileStreamDataStream@Ogre@@6B@ DD FLAT:??_R4FileStreamDataStream@Ogre@@6B@ ; Ogre::FileStreamDataStream::`vftable'
	DD	FLAT:??_EFileStreamDataStream@Ogre@@UAEPAXI@Z
	DD	FLAT:?read@FileStreamDataStream@Ogre@@UAEIPAXI@Z
	DD	FLAT:?write@FileStreamDataStream@Ogre@@UAEIPBXI@Z
	DD	FLAT:?readLine@FileStreamDataStream@Ogre@@UAEIPADIABV?$basic_string@DU?$char_traits@D@std@@V?$allocator@D@2@@std@@@Z
	DD	FLAT:?getLine@DataStream@Ogre@@UAE?AV?$basic_string@DU?$char_traits@D@std@@V?$allocator@D@2@@std@@_N@Z
	DD	FLAT:?getAsString@DataStream@Ogre@@UAE?AV?$basic_string@DU?$char_traits@D@std@@V?$allocator@D@2@@std@@XZ
	DD	FLAT:?skipLine@DataStream@Ogre@@UAEIABV?$basic_string@DU?$char_traits@D@std@@V?$allocator@D@2@@std@@@Z
	DD	FLAT:?skip@FileStreamDataStream@Ogre@@UAEXJ@Z
	DD	FLAT:?seek@FileStreamDataStream@Ogre@@UAEXI@Z
	DD	FLAT:?tell@FileStreamDataStream@Ogre@@UBEIXZ
	DD	FLAT:?eof@FileStreamDataStream@Ogre@@UBE_NXZ
	DD	FLAT:?size@DataStream@Ogre@@UBEIXZ
	DD	FLAT:?close@FileStreamDataStream@Ogre@@UAEXXZ
	DD	FLAT:?getMemoryImage@FileStreamDataStream@Ogre@@UAEPAXXZ
CONST	ENDS
;	COMDAT xdata$x
xdata$x	SEGMENT
__unwindtable$??0FileStreamDataStream@Ogre@@QAE@ABV01@@Z DD 0ffffffffH
	DD	FLAT:__unwindfunclet$??0FileStreamDataStream@Ogre@@QAE@ABV01@@Z$0
__ehfuncinfo$??0FileStreamDataStream@Ogre@@QAE@ABV01@@Z DD 019930522H
	DD	01H
	DD	FLAT:__unwindtable$??0FileStreamDataStream@Ogre@@QAE@ABV01@@Z
	DD	2 DUP(00H)
	DD	2 DUP(00H)
	DD	00H
	DD	00H
; Function compile flags: /Odtp
xdata$x	ENDS
;	COMDAT ??0FileStreamDataStream@Ogre@@QAE@ABV01@@Z
_TEXT	SEGMENT
_this$ = -16						; size = 4
__$EHRec$ = -12						; size = 12
___that$ = 8						; size = 4
??0FileStreamDataStream@Ogre@@QAE@ABV01@@Z PROC		; Ogre::FileStreamDataStream::FileStreamDataStream, COMDAT
; _this$ = ecx
	push	ebp
	mov	ebp, esp
	push	-1
	push	__ehhandler$??0FileStreamDataStream@Ogre@@QAE@ABV01@@Z
	mov	eax, DWORD PTR fs:0
	push	eax
	push	ecx
	mov	eax, DWORD PTR ___security_cookie
	xor	eax, ebp
	push	eax
	lea	eax, DWORD PTR __$EHRec$[ebp]
	mov	DWORD PTR fs:0, eax
	mov	DWORD PTR _this$[ebp], ecx
	mov	eax, DWORD PTR ___that$[ebp]
	push	eax
	mov	ecx, DWORD PTR _this$[ebp]
	call	??0DataStream@Ogre@@QAE@ABV01@@Z
	mov	DWORD PTR __$EHRec$[ebp+8], 0
	mov	ecx, DWORD PTR _this$[ebp]
	mov	DWORD PTR [ecx], OFFSET ??_7FileStreamDataStream@Ogre@@6B@
	mov	edx, DWORD PTR _this$[ebp]
	mov	eax, DWORD PTR ___that$[ebp]
	mov	ecx, DWORD PTR [eax+36]
	mov	DWORD PTR [edx+36], ecx
	mov	edx, DWORD PTR _this$[ebp]
	mov	eax, DWORD PTR ___that$[ebp]
	mov	cl, BYTE PTR [eax+40]
	mov	BYTE PTR [edx+40], cl
	mov	DWORD PTR __$EHRec$[ebp+8], -1
	mov	eax, DWORD PTR _this$[ebp]
	mov	ecx, DWORD PTR __$EHRec$[ebp]
	mov	DWORD PTR fs:0, ecx
	pop	ecx
	mov	esp, ebp
	pop	ebp
	ret	4
_TEXT	ENDS
;	COMDAT text$x
text$x	SEGMENT
__unwindfunclet$??0FileStreamDataStream@Ogre@@QAE@ABV01@@Z$0:
	mov	ecx, DWORD PTR _this$[ebp]
	jmp	??1DataStream@Ogre@@UAE@XZ		; Ogre::DataStream::~DataStream
__ehhandler$??0FileStreamDataStream@Ogre@@QAE@ABV01@@Z:
	mov	edx, DWORD PTR [esp+8]
	lea	eax, DWORD PTR [edx+12]
	mov	ecx, DWORD PTR [edx-8]
	xor	ecx, eax
	call	@__security_check_cookie@4
	mov	eax, OFFSET __ehfuncinfo$??0FileStreamDataStream@Ogre@@QAE@ABV01@@Z
	jmp	___CxxFrameHandler3
text$x	ENDS
??0FileStreamDataStream@Ogre@@QAE@ABV01@@Z ENDP		; Ogre::FileStreamDataStream::FileStreamDataStream
PUBLIC	??4FileStreamDataStream@Ogre@@QAEAAV01@ABV01@@Z	; Ogre::FileStreamDataStream::operator=
; Function compile flags: /Odtp
;	COMDAT ??4FileStreamDataStream@Ogre@@QAEAAV01@ABV01@@Z
_TEXT	SEGMENT
_this$ = -4						; size = 4
___that$ = 8						; size = 4
??4FileStreamDataStream@Ogre@@QAEAAV01@ABV01@@Z PROC	; Ogre::FileStreamDataStream::operator=, COMDAT
; _this$ = ecx
	push	ebp
	mov	ebp, esp
	push	ecx
	mov	DWORD PTR _this$[ebp], ecx
	mov	eax, DWORD PTR ___that$[ebp]
	push	eax
	mov	ecx, DWORD PTR _this$[ebp]
	call	??4DataStream@Ogre@@QAEAAV01@ABV01@@Z
	mov	ecx, DWORD PTR _this$[ebp]
	mov	edx, DWORD PTR ___that$[ebp]
	mov	eax, DWORD PTR [edx+36]
	mov	DWORD PTR [ecx+36], eax
	mov	ecx, DWORD PTR _this$[ebp]
	mov	edx, DWORD PTR ___that$[ebp]
	mov	al, BYTE PTR [edx+40]
	mov	BYTE PTR [ecx+40], al
	mov	eax, DWORD PTR _this$[ebp]
	mov	esp, ebp
	pop	ebp
	ret	4
??4FileStreamDataStream@Ogre@@QAEAAV01@ABV01@@Z ENDP	; Ogre::FileStreamDataStream::operator=
_TEXT	ENDS
PUBLIC	??_GFileStreamDataStream@Ogre@@UAEPAXI@Z	; Ogre::FileStreamDataStream::`scalar deleting destructor'
EXTRN	??1FileStreamDataStream@Ogre@@UAE@XZ:PROC	; Ogre::FileStreamDataStream::~FileStreamDataStream
; Function compile flags: /Odtp
;	COMDAT ??_GFileStreamDataStream@Ogre@@UAEPAXI@Z
_TEXT	SEGMENT
_this$ = -4						; size = 4
___flags$ = 8						; size = 4
??_GFileStreamDataStream@Ogre@@UAEPAXI@Z PROC		; Ogre::FileStreamDataStream::`scalar deleting destructor', COMDAT
; _this$ = ecx
	push	ebp
	mov	ebp, esp
	push	ecx
	mov	DWORD PTR _this$[ebp], ecx
	mov	ecx, DWORD PTR _this$[ebp]
	call	??1FileStreamDataStream@Ogre@@UAE@XZ	; Ogre::FileStreamDataStream::~FileStreamDataStream
	mov	eax, DWORD PTR ___flags$[ebp]
	and	eax, 1
	je	SHORT $LN1@scalar@3
	mov	ecx, DWORD PTR _this$[ebp]
	push	ecx
	call	??3@YAXPAX@Z				; operator delete
	add	esp, 4
$LN1@scalar@3:
	mov	eax, DWORD PTR _this$[ebp]
	mov	esp, ebp
	pop	ebp
	ret	4
??_GFileStreamDataStream@Ogre@@UAEPAXI@Z ENDP		; Ogre::FileStreamDataStream::`scalar deleting destructor'
; Function compile flags: /Odtp
_TEXT	ENDS
;	COMDAT ??_EFileStreamDataStream@Ogre@@UAEPAXI@Z
_TEXT	SEGMENT
_this$ = -4						; size = 4
___flags$ = 8						; size = 4
??_EFileStreamDataStream@Ogre@@UAEPAXI@Z PROC		; Ogre::FileStreamDataStream::`vector deleting destructor', COMDAT
; _this$ = ecx
	push	ebp
	mov	ebp, esp
	push	ecx
	mov	DWORD PTR _this$[ebp], ecx
	mov	eax, DWORD PTR ___flags$[ebp]
	and	eax, 2
	je	SHORT $LN3@vector@3
	push	OFFSET ??1FileStreamDataStream@Ogre@@UAE@XZ ; Ogre::FileStreamDataStream::~FileStreamDataStream
	mov	ecx, DWORD PTR _this$[ebp]
	mov	edx, DWORD PTR [ecx-4]
	push	edx
	push	44					; 0000002cH
	mov	eax, DWORD PTR _this$[ebp]
	push	eax
	call	??_M@YGXPAXIHP6EX0@Z@Z
	mov	ecx, DWORD PTR ___flags$[ebp]
	and	ecx, 1
	je	SHORT $LN2@vector@3
	mov	edx, DWORD PTR _this$[ebp]
	sub	edx, 4
	push	edx
	call	??_V@YAXPAX@Z				; operator delete[]
	add	esp, 4
$LN2@vector@3:
	mov	eax, DWORD PTR _this$[ebp]
	sub	eax, 4
	jmp	SHORT $LN4@vector@3
$LN3@vector@3:
	mov	ecx, DWORD PTR _this$[ebp]
	call	??1FileStreamDataStream@Ogre@@UAE@XZ	; Ogre::FileStreamDataStream::~FileStreamDataStream
	mov	eax, DWORD PTR ___flags$[ebp]
	and	eax, 1
	je	SHORT $LN1@vector@3
	mov	ecx, DWORD PTR _this$[ebp]
	push	ecx
	call	??3@YAXPAX@Z				; operator delete
	add	esp, 4
$LN1@vector@3:
	mov	eax, DWORD PTR _this$[ebp]
$LN4@vector@3:
	mov	esp, ebp
	pop	ebp
	ret	4
??_EFileStreamDataStream@Ogre@@UAEPAXI@Z ENDP		; Ogre::FileStreamDataStream::`vector deleting destructor'
_TEXT	ENDS
PUBLIC	??_7FileHandleDataStream@Ogre@@6B@		; Ogre::FileHandleDataStream::`vftable'
PUBLIC	??0FileHandleDataStream@Ogre@@QAE@ABV01@@Z	; Ogre::FileHandleDataStream::FileHandleDataStream
PUBLIC	??_R4FileHandleDataStream@Ogre@@6B@		; Ogre::FileHandleDataStream::`RTTI Complete Object Locator'
PUBLIC	??_R0?AVFileHandleDataStream@Ogre@@@8		; Ogre::FileHandleDataStream `RTTI Type Descriptor'
PUBLIC	??_R3FileHandleDataStream@Ogre@@8		; Ogre::FileHandleDataStream::`RTTI Class Hierarchy Descriptor'
PUBLIC	??_R2FileHandleDataStream@Ogre@@8		; Ogre::FileHandleDataStream::`RTTI Base Class Array'
PUBLIC	??_R1A@?0A@EA@FileHandleDataStream@Ogre@@8	; Ogre::FileHandleDataStream::`RTTI Base Class Descriptor at (0,-1,0,64)'
PUBLIC	??_EFileHandleDataStream@Ogre@@UAEPAXI@Z	; Ogre::FileHandleDataStream::`vector deleting destructor'
EXTRN	?read@FileHandleDataStream@Ogre@@UAEIPAXI@Z:PROC ; Ogre::FileHandleDataStream::read
EXTRN	?write@FileHandleDataStream@Ogre@@UAEIPBXI@Z:PROC ; Ogre::FileHandleDataStream::write
EXTRN	?skip@FileHandleDataStream@Ogre@@UAEXJ@Z:PROC	; Ogre::FileHandleDataStream::skip
EXTRN	?seek@FileHandleDataStream@Ogre@@UAEXI@Z:PROC	; Ogre::FileHandleDataStream::seek
EXTRN	?tell@FileHandleDataStream@Ogre@@UBEIXZ:PROC	; Ogre::FileHandleDataStream::tell
EXTRN	?eof@FileHandleDataStream@Ogre@@UBE_NXZ:PROC	; Ogre::FileHandleDataStream::eof
EXTRN	?close@FileHandleDataStream@Ogre@@UAEXXZ:PROC	; Ogre::FileHandleDataStream::close
EXTRN	?getMemoryImage@FileHandleDataStream@Ogre@@UAEPAXXZ:PROC ; Ogre::FileHandleDataStream::getMemoryImage
;	COMDAT ??_R1A@?0A@EA@FileHandleDataStream@Ogre@@8
rdata$r	SEGMENT
??_R1A@?0A@EA@FileHandleDataStream@Ogre@@8 DD FLAT:??_R0?AVFileHandleDataStream@Ogre@@@8 ; Ogre::FileHandleDataStream::`RTTI Base Class Descriptor at (0,-1,0,64)'
	DD	01H
	DD	00H
	DD	0ffffffffH
	DD	00H
	DD	040H
	DD	FLAT:??_R3FileHandleDataStream@Ogre@@8
rdata$r	ENDS
;	COMDAT ??_R2FileHandleDataStream@Ogre@@8
rdata$r	SEGMENT
??_R2FileHandleDataStream@Ogre@@8 DD FLAT:??_R1A@?0A@EA@FileHandleDataStream@Ogre@@8 ; Ogre::FileHandleDataStream::`RTTI Base Class Array'
	DD	FLAT:??_R1A@?0A@EA@DataStream@Ogre@@8
rdata$r	ENDS
;	COMDAT ??_R3FileHandleDataStream@Ogre@@8
rdata$r	SEGMENT
??_R3FileHandleDataStream@Ogre@@8 DD 00H		; Ogre::FileHandleDataStream::`RTTI Class Hierarchy Descriptor'
	DD	00H
	DD	02H
	DD	FLAT:??_R2FileHandleDataStream@Ogre@@8
rdata$r	ENDS
;	COMDAT ??_R0?AVFileHandleDataStream@Ogre@@@8
_DATA	SEGMENT
??_R0?AVFileHandleDataStream@Ogre@@@8 DD FLAT:??_7type_info@@6B@ ; Ogre::FileHandleDataStream `RTTI Type Descriptor'
	DD	00H
	DB	'.?AVFileHandleDataStream@Ogre@@', 00H
_DATA	ENDS
;	COMDAT ??_R4FileHandleDataStream@Ogre@@6B@
rdata$r	SEGMENT
??_R4FileHandleDataStream@Ogre@@6B@ DD 00H		; Ogre::FileHandleDataStream::`RTTI Complete Object Locator'
	DD	00H
	DD	00H
	DD	FLAT:??_R0?AVFileHandleDataStream@Ogre@@@8
	DD	FLAT:??_R3FileHandleDataStream@Ogre@@8
rdata$r	ENDS
;	COMDAT ??_7FileHandleDataStream@Ogre@@6B@
CONST	SEGMENT
??_7FileHandleDataStream@Ogre@@6B@ DD FLAT:??_R4FileHandleDataStream@Ogre@@6B@ ; Ogre::FileHandleDataStream::`vftable'
	DD	FLAT:??_EFileHandleDataStream@Ogre@@UAEPAXI@Z
	DD	FLAT:?read@FileHandleDataStream@Ogre@@UAEIPAXI@Z
	DD	FLAT:?write@FileHandleDataStream@Ogre@@UAEIPBXI@Z
	DD	FLAT:?readLine@DataStream@Ogre@@UAEIPADIABV?$basic_string@DU?$char_traits@D@std@@V?$allocator@D@2@@std@@@Z
	DD	FLAT:?getLine@DataStream@Ogre@@UAE?AV?$basic_string@DU?$char_traits@D@std@@V?$allocator@D@2@@std@@_N@Z
	DD	FLAT:?getAsString@DataStream@Ogre@@UAE?AV?$basic_string@DU?$char_traits@D@std@@V?$allocator@D@2@@std@@XZ
	DD	FLAT:?skipLine@DataStream@Ogre@@UAEIABV?$basic_string@DU?$char_traits@D@std@@V?$allocator@D@2@@std@@@Z
	DD	FLAT:?skip@FileHandleDataStream@Ogre@@UAEXJ@Z
	DD	FLAT:?seek@FileHandleDataStream@Ogre@@UAEXI@Z
	DD	FLAT:?tell@FileHandleDataStream@Ogre@@UBEIXZ
	DD	FLAT:?eof@FileHandleDataStream@Ogre@@UBE_NXZ
	DD	FLAT:?size@DataStream@Ogre@@UBEIXZ
	DD	FLAT:?close@FileHandleDataStream@Ogre@@UAEXXZ
	DD	FLAT:?getMemoryImage@FileHandleDataStream@Ogre@@UAEPAXXZ
CONST	ENDS
;	COMDAT xdata$x
xdata$x	SEGMENT
__unwindtable$??0FileHandleDataStream@Ogre@@QAE@ABV01@@Z DD 0ffffffffH
	DD	FLAT:__unwindfunclet$??0FileHandleDataStream@Ogre@@QAE@ABV01@@Z$0
__ehfuncinfo$??0FileHandleDataStream@Ogre@@QAE@ABV01@@Z DD 019930522H
	DD	01H
	DD	FLAT:__unwindtable$??0FileHandleDataStream@Ogre@@QAE@ABV01@@Z
	DD	2 DUP(00H)
	DD	2 DUP(00H)
	DD	00H
	DD	00H
; Function compile flags: /Odtp
xdata$x	ENDS
;	COMDAT ??0FileHandleDataStream@Ogre@@QAE@ABV01@@Z
_TEXT	SEGMENT
_this$ = -16						; size = 4
__$EHRec$ = -12						; size = 12
___that$ = 8						; size = 4
??0FileHandleDataStream@Ogre@@QAE@ABV01@@Z PROC		; Ogre::FileHandleDataStream::FileHandleDataStream, COMDAT
; _this$ = ecx
	push	ebp
	mov	ebp, esp
	push	-1
	push	__ehhandler$??0FileHandleDataStream@Ogre@@QAE@ABV01@@Z
	mov	eax, DWORD PTR fs:0
	push	eax
	push	ecx
	mov	eax, DWORD PTR ___security_cookie
	xor	eax, ebp
	push	eax
	lea	eax, DWORD PTR __$EHRec$[ebp]
	mov	DWORD PTR fs:0, eax
	mov	DWORD PTR _this$[ebp], ecx
	mov	eax, DWORD PTR ___that$[ebp]
	push	eax
	mov	ecx, DWORD PTR _this$[ebp]
	call	??0DataStream@Ogre@@QAE@ABV01@@Z
	mov	DWORD PTR __$EHRec$[ebp+8], 0
	mov	ecx, DWORD PTR _this$[ebp]
	mov	DWORD PTR [ecx], OFFSET ??_7FileHandleDataStream@Ogre@@6B@
	mov	edx, DWORD PTR _this$[ebp]
	mov	eax, DWORD PTR ___that$[ebp]
	mov	ecx, DWORD PTR [eax+36]
	mov	DWORD PTR [edx+36], ecx
	mov	edx, DWORD PTR _this$[ebp]
	mov	eax, DWORD PTR ___that$[ebp]
	mov	ecx, DWORD PTR [eax+40]
	mov	DWORD PTR [edx+40], ecx
	mov	DWORD PTR __$EHRec$[ebp+8], -1
	mov	eax, DWORD PTR _this$[ebp]
	mov	ecx, DWORD PTR __$EHRec$[ebp]
	mov	DWORD PTR fs:0, ecx
	pop	ecx
	mov	esp, ebp
	pop	ebp
	ret	4
_TEXT	ENDS
;	COMDAT text$x
text$x	SEGMENT
__unwindfunclet$??0FileHandleDataStream@Ogre@@QAE@ABV01@@Z$0:
	mov	ecx, DWORD PTR _this$[ebp]
	jmp	??1DataStream@Ogre@@UAE@XZ		; Ogre::DataStream::~DataStream
__ehhandler$??0FileHandleDataStream@Ogre@@QAE@ABV01@@Z:
	mov	edx, DWORD PTR [esp+8]
	lea	eax, DWORD PTR [edx+12]
	mov	ecx, DWORD PTR [edx-8]
	xor	ecx, eax
	call	@__security_check_cookie@4
	mov	eax, OFFSET __ehfuncinfo$??0FileHandleDataStream@Ogre@@QAE@ABV01@@Z
	jmp	___CxxFrameHandler3
text$x	ENDS
??0FileHandleDataStream@Ogre@@QAE@ABV01@@Z ENDP		; Ogre::FileHandleDataStream::FileHandleDataStream
PUBLIC	??4FileHandleDataStream@Ogre@@QAEAAV01@ABV01@@Z	; Ogre::FileHandleDataStream::operator=
; Function compile flags: /Odtp
;	COMDAT ??4FileHandleDataStream@Ogre@@QAEAAV01@ABV01@@Z
_TEXT	SEGMENT
_this$ = -4						; size = 4
___that$ = 8						; size = 4
??4FileHandleDataStream@Ogre@@QAEAAV01@ABV01@@Z PROC	; Ogre::FileHandleDataStream::operator=, COMDAT
; _this$ = ecx
	push	ebp
	mov	ebp, esp
	push	ecx
	mov	DWORD PTR _this$[ebp], ecx
	mov	eax, DWORD PTR ___that$[ebp]
	push	eax
	mov	ecx, DWORD PTR _this$[ebp]
	call	??4DataStream@Ogre@@QAEAAV01@ABV01@@Z
	mov	ecx, DWORD PTR _this$[ebp]
	mov	edx, DWORD PTR ___that$[ebp]
	mov	eax, DWORD PTR [edx+36]
	mov	DWORD PTR [ecx+36], eax
	mov	ecx, DWORD PTR _this$[ebp]
	mov	edx, DWORD PTR ___that$[ebp]
	mov	eax, DWORD PTR [edx+40]
	mov	DWORD PTR [ecx+40], eax
	mov	eax, DWORD PTR _this$[ebp]
	mov	esp, ebp
	pop	ebp
	ret	4
??4FileHandleDataStream@Ogre@@QAEAAV01@ABV01@@Z ENDP	; Ogre::FileHandleDataStream::operator=
_TEXT	ENDS
PUBLIC	??_GFileHandleDataStream@Ogre@@UAEPAXI@Z	; Ogre::FileHandleDataStream::`scalar deleting destructor'
EXTRN	??1FileHandleDataStream@Ogre@@UAE@XZ:PROC	; Ogre::FileHandleDataStream::~FileHandleDataStream
; Function compile flags: /Odtp
;	COMDAT ??_GFileHandleDataStream@Ogre@@UAEPAXI@Z
_TEXT	SEGMENT
_this$ = -4						; size = 4
___flags$ = 8						; size = 4
??_GFileHandleDataStream@Ogre@@UAEPAXI@Z PROC		; Ogre::FileHandleDataStream::`scalar deleting destructor', COMDAT
; _this$ = ecx
	push	ebp
	mov	ebp, esp
	push	ecx
	mov	DWORD PTR _this$[ebp], ecx
	mov	ecx, DWORD PTR _this$[ebp]
	call	??1FileHandleDataStream@Ogre@@UAE@XZ	; Ogre::FileHandleDataStream::~FileHandleDataStream
	mov	eax, DWORD PTR ___flags$[ebp]
	and	eax, 1
	je	SHORT $LN1@scalar@4
	mov	ecx, DWORD PTR _this$[ebp]
	push	ecx
	call	??3@YAXPAX@Z				; operator delete
	add	esp, 4
$LN1@scalar@4:
	mov	eax, DWORD PTR _this$[ebp]
	mov	esp, ebp
	pop	ebp
	ret	4
??_GFileHandleDataStream@Ogre@@UAEPAXI@Z ENDP		; Ogre::FileHandleDataStream::`scalar deleting destructor'
; Function compile flags: /Odtp
_TEXT	ENDS
;	COMDAT ??_EFileHandleDataStream@Ogre@@UAEPAXI@Z
_TEXT	SEGMENT
_this$ = -4						; size = 4
___flags$ = 8						; size = 4
??_EFileHandleDataStream@Ogre@@UAEPAXI@Z PROC		; Ogre::FileHandleDataStream::`vector deleting destructor', COMDAT
; _this$ = ecx
	push	ebp
	mov	ebp, esp
	push	ecx
	mov	DWORD PTR _this$[ebp], ecx
	mov	eax, DWORD PTR ___flags$[ebp]
	and	eax, 2
	je	SHORT $LN3@vector@4
	push	OFFSET ??1FileHandleDataStream@Ogre@@UAE@XZ ; Ogre::FileHandleDataStream::~FileHandleDataStream
	mov	ecx, DWORD PTR _this$[ebp]
	mov	edx, DWORD PTR [ecx-4]
	push	edx
	push	44					; 0000002cH
	mov	eax, DWORD PTR _this$[ebp]
	push	eax
	call	??_M@YGXPAXIHP6EX0@Z@Z
	mov	ecx, DWORD PTR ___flags$[ebp]
	and	ecx, 1
	je	SHORT $LN2@vector@4
	mov	edx, DWORD PTR _this$[ebp]
	sub	edx, 4
	push	edx
	call	??_V@YAXPAX@Z				; operator delete[]
	add	esp, 4
$LN2@vector@4:
	mov	eax, DWORD PTR _this$[ebp]
	sub	eax, 4
	jmp	SHORT $LN4@vector@4
$LN3@vector@4:
	mov	ecx, DWORD PTR _this$[ebp]
	call	??1FileHandleDataStream@Ogre@@UAE@XZ	; Ogre::FileHandleDataStream::~FileHandleDataStream
	mov	eax, DWORD PTR ___flags$[ebp]
	and	eax, 1
	je	SHORT $LN1@vector@4
	mov	ecx, DWORD PTR _this$[ebp]
	push	ecx
	call	??3@YAXPAX@Z				; operator delete
	add	esp, 4
$LN1@vector@4:
	mov	eax, DWORD PTR _this$[ebp]
$LN4@vector@4:
	mov	esp, ebp
	pop	ebp
	ret	4
??_EFileHandleDataStream@Ogre@@UAEPAXI@Z ENDP		; Ogre::FileHandleDataStream::`vector deleting destructor'
_TEXT	ENDS
PUBLIC	??_7DataStreamObject@Ogre@@6B@			; Ogre::DataStreamObject::`vftable'
PUBLIC	??1DataStreamObject@Ogre@@MAE@XZ		; Ogre::DataStreamObject::~DataStreamObject
PUBLIC	??_R4DataStreamObject@Ogre@@6B@			; Ogre::DataStreamObject::`RTTI Complete Object Locator'
PUBLIC	??_R0?AVDataStreamObject@Ogre@@@8		; Ogre::DataStreamObject `RTTI Type Descriptor'
PUBLIC	??_R3DataStreamObject@Ogre@@8			; Ogre::DataStreamObject::`RTTI Class Hierarchy Descriptor'
PUBLIC	??_R2DataStreamObject@Ogre@@8			; Ogre::DataStreamObject::`RTTI Base Class Array'
PUBLIC	??_R1A@?0A@EA@DataStreamObject@Ogre@@8		; Ogre::DataStreamObject::`RTTI Base Class Descriptor at (0,-1,0,64)'
PUBLIC	??_EDataStreamObject@Ogre@@MAEPAXI@Z		; Ogre::DataStreamObject::`vector deleting destructor'
;	COMDAT ??_R1A@?0A@EA@DataStreamObject@Ogre@@8
rdata$r	SEGMENT
??_R1A@?0A@EA@DataStreamObject@Ogre@@8 DD FLAT:??_R0?AVDataStreamObject@Ogre@@@8 ; Ogre::DataStreamObject::`RTTI Base Class Descriptor at (0,-1,0,64)'
	DD	00H
	DD	00H
	DD	0ffffffffH
	DD	00H
	DD	040H
	DD	FLAT:??_R3DataStreamObject@Ogre@@8
rdata$r	ENDS
;	COMDAT ??_R2DataStreamObject@Ogre@@8
rdata$r	SEGMENT
??_R2DataStreamObject@Ogre@@8 DD FLAT:??_R1A@?0A@EA@DataStreamObject@Ogre@@8 ; Ogre::DataStreamObject::`RTTI Base Class Array'
rdata$r	ENDS
;	COMDAT ??_R3DataStreamObject@Ogre@@8
rdata$r	SEGMENT
??_R3DataStreamObject@Ogre@@8 DD 00H			; Ogre::DataStreamObject::`RTTI Class Hierarchy Descriptor'
	DD	00H
	DD	01H
	DD	FLAT:??_R2DataStreamObject@Ogre@@8
rdata$r	ENDS
;	COMDAT ??_R0?AVDataStreamObject@Ogre@@@8
_DATA	SEGMENT
??_R0?AVDataStreamObject@Ogre@@@8 DD FLAT:??_7type_info@@6B@ ; Ogre::DataStreamObject `RTTI Type Descriptor'
	DD	00H
	DB	'.?AVDataStreamObject@Ogre@@', 00H
_DATA	ENDS
;	COMDAT ??_R4DataStreamObject@Ogre@@6B@
rdata$r	SEGMENT
??_R4DataStreamObject@Ogre@@6B@ DD 00H			; Ogre::DataStreamObject::`RTTI Complete Object Locator'
	DD	00H
	DD	00H
	DD	FLAT:??_R0?AVDataStreamObject@Ogre@@@8
	DD	FLAT:??_R3DataStreamObject@Ogre@@8
rdata$r	ENDS
;	COMDAT ??_7DataStreamObject@Ogre@@6B@
CONST	SEGMENT
??_7DataStreamObject@Ogre@@6B@ DD FLAT:??_R4DataStreamObject@Ogre@@6B@ ; Ogre::DataStreamObject::`vftable'
	DD	FLAT:??_EDataStreamObject@Ogre@@MAEPAXI@Z
	DD	FLAT:__purecall
	DD	FLAT:__purecall
	DD	FLAT:__purecall
	DD	FLAT:__purecall
	DD	FLAT:__purecall
	DD	FLAT:__purecall
; Function compile flags: /Odtp
CONST	ENDS
;	COMDAT ??1DataStreamObject@Ogre@@MAE@XZ
_TEXT	SEGMENT
_this$ = -4						; size = 4
??1DataStreamObject@Ogre@@MAE@XZ PROC			; Ogre::DataStreamObject::~DataStreamObject, COMDAT
; _this$ = ecx

; 445  : 		virtual ~DataStreamObject(){}

	push	ebp
	mov	ebp, esp
	push	ecx
	mov	DWORD PTR _this$[ebp], ecx
	mov	eax, DWORD PTR _this$[ebp]
	mov	DWORD PTR [eax], OFFSET ??_7DataStreamObject@Ogre@@6B@
	mov	esp, ebp
	pop	ebp
	ret	0
??1DataStreamObject@Ogre@@MAE@XZ ENDP			; Ogre::DataStreamObject::~DataStreamObject
_TEXT	ENDS
PUBLIC	??0DataStreamObject@Ogre@@QAE@XZ		; Ogre::DataStreamObject::DataStreamObject
; Function compile flags: /Odtp
;	COMDAT ??0DataStreamObject@Ogre@@QAE@XZ
_TEXT	SEGMENT
_this$ = -4						; size = 4
??0DataStreamObject@Ogre@@QAE@XZ PROC			; Ogre::DataStreamObject::DataStreamObject, COMDAT
; _this$ = ecx
	push	ebp
	mov	ebp, esp
	push	ecx
	mov	DWORD PTR _this$[ebp], ecx
	mov	eax, DWORD PTR _this$[ebp]
	mov	DWORD PTR [eax], OFFSET ??_7DataStreamObject@Ogre@@6B@
	mov	eax, DWORD PTR _this$[ebp]
	mov	esp, ebp
	pop	ebp
	ret	0
??0DataStreamObject@Ogre@@QAE@XZ ENDP			; Ogre::DataStreamObject::DataStreamObject
_TEXT	ENDS
PUBLIC	??0DataStreamObject@Ogre@@QAE@ABV01@@Z		; Ogre::DataStreamObject::DataStreamObject
; Function compile flags: /Odtp
;	COMDAT ??0DataStreamObject@Ogre@@QAE@ABV01@@Z
_TEXT	SEGMENT
_this$ = -4						; size = 4
___that$ = 8						; size = 4
??0DataStreamObject@Ogre@@QAE@ABV01@@Z PROC		; Ogre::DataStreamObject::DataStreamObject, COMDAT
; _this$ = ecx
	push	ebp
	mov	ebp, esp
	push	ecx
	mov	DWORD PTR _this$[ebp], ecx
	mov	eax, DWORD PTR _this$[ebp]
	mov	DWORD PTR [eax], OFFSET ??_7DataStreamObject@Ogre@@6B@
	mov	eax, DWORD PTR _this$[ebp]
	mov	esp, ebp
	pop	ebp
	ret	4
??0DataStreamObject@Ogre@@QAE@ABV01@@Z ENDP		; Ogre::DataStreamObject::DataStreamObject
_TEXT	ENDS
PUBLIC	??4DataStreamObject@Ogre@@QAEAAV01@ABV01@@Z	; Ogre::DataStreamObject::operator=
; Function compile flags: /Odtp
;	COMDAT ??4DataStreamObject@Ogre@@QAEAAV01@ABV01@@Z
_TEXT	SEGMENT
_this$ = -4						; size = 4
___that$ = 8						; size = 4
??4DataStreamObject@Ogre@@QAEAAV01@ABV01@@Z PROC	; Ogre::DataStreamObject::operator=, COMDAT
; _this$ = ecx
	push	ebp
	mov	ebp, esp
	push	ecx
	mov	DWORD PTR _this$[ebp], ecx
	mov	eax, DWORD PTR _this$[ebp]
	mov	esp, ebp
	pop	ebp
	ret	4
??4DataStreamObject@Ogre@@QAEAAV01@ABV01@@Z ENDP	; Ogre::DataStreamObject::operator=
_TEXT	ENDS
PUBLIC	??_GDataStreamObject@Ogre@@MAEPAXI@Z		; Ogre::DataStreamObject::`scalar deleting destructor'
; Function compile flags: /Odtp
;	COMDAT ??_GDataStreamObject@Ogre@@MAEPAXI@Z
_TEXT	SEGMENT
_this$ = -4						; size = 4
___flags$ = 8						; size = 4
??_GDataStreamObject@Ogre@@MAEPAXI@Z PROC		; Ogre::DataStreamObject::`scalar deleting destructor', COMDAT
; _this$ = ecx
	push	ebp
	mov	ebp, esp
	push	ecx
	mov	DWORD PTR _this$[ebp], ecx
	mov	ecx, DWORD PTR _this$[ebp]
	call	??1DataStreamObject@Ogre@@MAE@XZ	; Ogre::DataStreamObject::~DataStreamObject
	mov	eax, DWORD PTR ___flags$[ebp]
	and	eax, 1
	je	SHORT $LN1@scalar@5
	mov	ecx, DWORD PTR _this$[ebp]
	push	ecx
	call	??3@YAXPAX@Z				; operator delete
	add	esp, 4
$LN1@scalar@5:
	mov	eax, DWORD PTR _this$[ebp]
	mov	esp, ebp
	pop	ebp
	ret	4
??_GDataStreamObject@Ogre@@MAEPAXI@Z ENDP		; Ogre::DataStreamObject::`scalar deleting destructor'
; Function compile flags: /Odtp
_TEXT	ENDS
;	COMDAT ??_EDataStreamObject@Ogre@@MAEPAXI@Z
_TEXT	SEGMENT
_this$ = -4						; size = 4
___flags$ = 8						; size = 4
??_EDataStreamObject@Ogre@@MAEPAXI@Z PROC		; Ogre::DataStreamObject::`vector deleting destructor', COMDAT
; _this$ = ecx
	push	ebp
	mov	ebp, esp
	push	ecx
	mov	DWORD PTR _this$[ebp], ecx
	mov	eax, DWORD PTR ___flags$[ebp]
	and	eax, 2
	je	SHORT $LN3@vector@5
	push	OFFSET ??1DataStreamObject@Ogre@@MAE@XZ	; Ogre::DataStreamObject::~DataStreamObject
	mov	ecx, DWORD PTR _this$[ebp]
	mov	edx, DWORD PTR [ecx-4]
	push	edx
	push	4
	mov	eax, DWORD PTR _this$[ebp]
	push	eax
	call	??_M@YGXPAXIHP6EX0@Z@Z
	mov	ecx, DWORD PTR ___flags$[ebp]
	and	ecx, 1
	je	SHORT $LN2@vector@5
	mov	edx, DWORD PTR _this$[ebp]
	sub	edx, 4
	push	edx
	call	??_V@YAXPAX@Z				; operator delete[]
	add	esp, 4
$LN2@vector@5:
	mov	eax, DWORD PTR _this$[ebp]
	sub	eax, 4
	jmp	SHORT $LN4@vector@5
$LN3@vector@5:
	mov	ecx, DWORD PTR _this$[ebp]
	call	??1DataStreamObject@Ogre@@MAE@XZ	; Ogre::DataStreamObject::~DataStreamObject
	mov	eax, DWORD PTR ___flags$[ebp]
	and	eax, 1
	je	SHORT $LN1@vector@5
	mov	ecx, DWORD PTR _this$[ebp]
	push	ecx
	call	??3@YAXPAX@Z				; operator delete
	add	esp, 4
$LN1@vector@5:
	mov	eax, DWORD PTR _this$[ebp]
$LN4@vector@5:
	mov	esp, ebp
	pop	ebp
	ret	4
??_EDataStreamObject@Ogre@@MAEPAXI@Z ENDP		; Ogre::DataStreamObject::`vector deleting destructor'
_TEXT	ENDS
PUBLIC	??_7ObjectDataStream@Ogre@@6B@			; Ogre::ObjectDataStream::`vftable'
PUBLIC	??0ObjectDataStream@Ogre@@QAE@ABV01@@Z		; Ogre::ObjectDataStream::ObjectDataStream
PUBLIC	??_R4ObjectDataStream@Ogre@@6B@			; Ogre::ObjectDataStream::`RTTI Complete Object Locator'
PUBLIC	??_R0?AVObjectDataStream@Ogre@@@8		; Ogre::ObjectDataStream `RTTI Type Descriptor'
PUBLIC	??_R3ObjectDataStream@Ogre@@8			; Ogre::ObjectDataStream::`RTTI Class Hierarchy Descriptor'
PUBLIC	??_R2ObjectDataStream@Ogre@@8			; Ogre::ObjectDataStream::`RTTI Base Class Array'
PUBLIC	??_R1A@?0A@EA@ObjectDataStream@Ogre@@8		; Ogre::ObjectDataStream::`RTTI Base Class Descriptor at (0,-1,0,64)'
PUBLIC	??_EObjectDataStream@Ogre@@UAEPAXI@Z		; Ogre::ObjectDataStream::`vector deleting destructor'
EXTRN	?read@ObjectDataStream@Ogre@@UAEIPAXI@Z:PROC	; Ogre::ObjectDataStream::read
EXTRN	?write@ObjectDataStream@Ogre@@UAEIPBXI@Z:PROC	; Ogre::ObjectDataStream::write
EXTRN	?skip@ObjectDataStream@Ogre@@UAEXJ@Z:PROC	; Ogre::ObjectDataStream::skip
EXTRN	?seek@ObjectDataStream@Ogre@@UAEXI@Z:PROC	; Ogre::ObjectDataStream::seek
EXTRN	?tell@ObjectDataStream@Ogre@@UBEIXZ:PROC	; Ogre::ObjectDataStream::tell
EXTRN	?eof@ObjectDataStream@Ogre@@UBE_NXZ:PROC	; Ogre::ObjectDataStream::eof
EXTRN	?size@ObjectDataStream@Ogre@@UBEIXZ:PROC	; Ogre::ObjectDataStream::size
EXTRN	?close@ObjectDataStream@Ogre@@UAEXXZ:PROC	; Ogre::ObjectDataStream::close
EXTRN	?getMemoryImage@ObjectDataStream@Ogre@@UAEPAXXZ:PROC ; Ogre::ObjectDataStream::getMemoryImage
;	COMDAT ??_R1A@?0A@EA@ObjectDataStream@Ogre@@8
rdata$r	SEGMENT
??_R1A@?0A@EA@ObjectDataStream@Ogre@@8 DD FLAT:??_R0?AVObjectDataStream@Ogre@@@8 ; Ogre::ObjectDataStream::`RTTI Base Class Descriptor at (0,-1,0,64)'
	DD	01H
	DD	00H
	DD	0ffffffffH
	DD	00H
	DD	040H
	DD	FLAT:??_R3ObjectDataStream@Ogre@@8
rdata$r	ENDS
;	COMDAT ??_R2ObjectDataStream@Ogre@@8
rdata$r	SEGMENT
??_R2ObjectDataStream@Ogre@@8 DD FLAT:??_R1A@?0A@EA@ObjectDataStream@Ogre@@8 ; Ogre::ObjectDataStream::`RTTI Base Class Array'
	DD	FLAT:??_R1A@?0A@EA@DataStream@Ogre@@8
rdata$r	ENDS
;	COMDAT ??_R3ObjectDataStream@Ogre@@8
rdata$r	SEGMENT
??_R3ObjectDataStream@Ogre@@8 DD 00H			; Ogre::ObjectDataStream::`RTTI Class Hierarchy Descriptor'
	DD	00H
	DD	02H
	DD	FLAT:??_R2ObjectDataStream@Ogre@@8
rdata$r	ENDS
;	COMDAT ??_R0?AVObjectDataStream@Ogre@@@8
_DATA	SEGMENT
??_R0?AVObjectDataStream@Ogre@@@8 DD FLAT:??_7type_info@@6B@ ; Ogre::ObjectDataStream `RTTI Type Descriptor'
	DD	00H
	DB	'.?AVObjectDataStream@Ogre@@', 00H
_DATA	ENDS
;	COMDAT ??_R4ObjectDataStream@Ogre@@6B@
rdata$r	SEGMENT
??_R4ObjectDataStream@Ogre@@6B@ DD 00H			; Ogre::ObjectDataStream::`RTTI Complete Object Locator'
	DD	00H
	DD	00H
	DD	FLAT:??_R0?AVObjectDataStream@Ogre@@@8
	DD	FLAT:??_R3ObjectDataStream@Ogre@@8
rdata$r	ENDS
;	COMDAT ??_7ObjectDataStream@Ogre@@6B@
CONST	SEGMENT
??_7ObjectDataStream@Ogre@@6B@ DD FLAT:??_R4ObjectDataStream@Ogre@@6B@ ; Ogre::ObjectDataStream::`vftable'
	DD	FLAT:??_EObjectDataStream@Ogre@@UAEPAXI@Z
	DD	FLAT:?read@ObjectDataStream@Ogre@@UAEIPAXI@Z
	DD	FLAT:?write@ObjectDataStream@Ogre@@UAEIPBXI@Z
	DD	FLAT:?readLine@DataStream@Ogre@@UAEIPADIABV?$basic_string@DU?$char_traits@D@std@@V?$allocator@D@2@@std@@@Z
	DD	FLAT:?getLine@DataStream@Ogre@@UAE?AV?$basic_string@DU?$char_traits@D@std@@V?$allocator@D@2@@std@@_N@Z
	DD	FLAT:?getAsString@DataStream@Ogre@@UAE?AV?$basic_string@DU?$char_traits@D@std@@V?$allocator@D@2@@std@@XZ
	DD	FLAT:?skipLine@DataStream@Ogre@@UAEIABV?$basic_string@DU?$char_traits@D@std@@V?$allocator@D@2@@std@@@Z
	DD	FLAT:?skip@ObjectDataStream@Ogre@@UAEXJ@Z
	DD	FLAT:?seek@ObjectDataStream@Ogre@@UAEXI@Z
	DD	FLAT:?tell@ObjectDataStream@Ogre@@UBEIXZ
	DD	FLAT:?eof@ObjectDataStream@Ogre@@UBE_NXZ
	DD	FLAT:?size@ObjectDataStream@Ogre@@UBEIXZ
	DD	FLAT:?close@ObjectDataStream@Ogre@@UAEXXZ
	DD	FLAT:?getMemoryImage@ObjectDataStream@Ogre@@UAEPAXXZ
CONST	ENDS
;	COMDAT xdata$x
xdata$x	SEGMENT
__unwindtable$??0ObjectDataStream@Ogre@@QAE@ABV01@@Z DD 0ffffffffH
	DD	FLAT:__unwindfunclet$??0ObjectDataStream@Ogre@@QAE@ABV01@@Z$0
__ehfuncinfo$??0ObjectDataStream@Ogre@@QAE@ABV01@@Z DD 019930522H
	DD	01H
	DD	FLAT:__unwindtable$??0ObjectDataStream@Ogre@@QAE@ABV01@@Z
	DD	2 DUP(00H)
	DD	2 DUP(00H)
	DD	00H
	DD	00H
; Function compile flags: /Odtp
xdata$x	ENDS
;	COMDAT ??0ObjectDataStream@Ogre@@QAE@ABV01@@Z
_TEXT	SEGMENT
_this$ = -16						; size = 4
__$EHRec$ = -12						; size = 12
___that$ = 8						; size = 4
??0ObjectDataStream@Ogre@@QAE@ABV01@@Z PROC		; Ogre::ObjectDataStream::ObjectDataStream, COMDAT
; _this$ = ecx
	push	ebp
	mov	ebp, esp
	push	-1
	push	__ehhandler$??0ObjectDataStream@Ogre@@QAE@ABV01@@Z
	mov	eax, DWORD PTR fs:0
	push	eax
	push	ecx
	mov	eax, DWORD PTR ___security_cookie
	xor	eax, ebp
	push	eax
	lea	eax, DWORD PTR __$EHRec$[ebp]
	mov	DWORD PTR fs:0, eax
	mov	DWORD PTR _this$[ebp], ecx
	mov	eax, DWORD PTR ___that$[ebp]
	push	eax
	mov	ecx, DWORD PTR _this$[ebp]
	call	??0DataStream@Ogre@@QAE@ABV01@@Z
	mov	DWORD PTR __$EHRec$[ebp+8], 0
	mov	ecx, DWORD PTR _this$[ebp]
	mov	DWORD PTR [ecx], OFFSET ??_7ObjectDataStream@Ogre@@6B@
	mov	edx, DWORD PTR _this$[ebp]
	mov	eax, DWORD PTR ___that$[ebp]
	mov	ecx, DWORD PTR [eax+36]
	mov	DWORD PTR [edx+36], ecx
	mov	edx, DWORD PTR _this$[ebp]
	mov	eax, DWORD PTR ___that$[ebp]
	mov	ecx, DWORD PTR [eax+40]
	mov	DWORD PTR [edx+40], ecx
	mov	DWORD PTR __$EHRec$[ebp+8], -1
	mov	eax, DWORD PTR _this$[ebp]
	mov	ecx, DWORD PTR __$EHRec$[ebp]
	mov	DWORD PTR fs:0, ecx
	pop	ecx
	mov	esp, ebp
	pop	ebp
	ret	4
_TEXT	ENDS
;	COMDAT text$x
text$x	SEGMENT
__unwindfunclet$??0ObjectDataStream@Ogre@@QAE@ABV01@@Z$0:
	mov	ecx, DWORD PTR _this$[ebp]
	jmp	??1DataStream@Ogre@@UAE@XZ		; Ogre::DataStream::~DataStream
__ehhandler$??0ObjectDataStream@Ogre@@QAE@ABV01@@Z:
	mov	edx, DWORD PTR [esp+8]
	lea	eax, DWORD PTR [edx+12]
	mov	ecx, DWORD PTR [edx-8]
	xor	ecx, eax
	call	@__security_check_cookie@4
	mov	eax, OFFSET __ehfuncinfo$??0ObjectDataStream@Ogre@@QAE@ABV01@@Z
	jmp	___CxxFrameHandler3
text$x	ENDS
??0ObjectDataStream@Ogre@@QAE@ABV01@@Z ENDP		; Ogre::ObjectDataStream::ObjectDataStream
PUBLIC	??4ObjectDataStream@Ogre@@QAEAAV01@ABV01@@Z	; Ogre::ObjectDataStream::operator=
; Function compile flags: /Odtp
;	COMDAT ??4ObjectDataStream@Ogre@@QAEAAV01@ABV01@@Z
_TEXT	SEGMENT
_this$ = -4						; size = 4
___that$ = 8						; size = 4
??4ObjectDataStream@Ogre@@QAEAAV01@ABV01@@Z PROC	; Ogre::ObjectDataStream::operator=, COMDAT
; _this$ = ecx
	push	ebp
	mov	ebp, esp
	push	ecx
	mov	DWORD PTR _this$[ebp], ecx
	mov	eax, DWORD PTR ___that$[ebp]
	push	eax
	mov	ecx, DWORD PTR _this$[ebp]
	call	??4DataStream@Ogre@@QAEAAV01@ABV01@@Z
	mov	ecx, DWORD PTR _this$[ebp]
	mov	edx, DWORD PTR ___that$[ebp]
	mov	eax, DWORD PTR [edx+36]
	mov	DWORD PTR [ecx+36], eax
	mov	ecx, DWORD PTR _this$[ebp]
	mov	edx, DWORD PTR ___that$[ebp]
	mov	eax, DWORD PTR [edx+40]
	mov	DWORD PTR [ecx+40], eax
	mov	eax, DWORD PTR _this$[ebp]
	mov	esp, ebp
	pop	ebp
	ret	4
??4ObjectDataStream@Ogre@@QAEAAV01@ABV01@@Z ENDP	; Ogre::ObjectDataStream::operator=
_TEXT	ENDS
PUBLIC	??_GObjectDataStream@Ogre@@UAEPAXI@Z		; Ogre::ObjectDataStream::`scalar deleting destructor'
EXTRN	??1ObjectDataStream@Ogre@@UAE@XZ:PROC		; Ogre::ObjectDataStream::~ObjectDataStream
; Function compile flags: /Odtp
;	COMDAT ??_GObjectDataStream@Ogre@@UAEPAXI@Z
_TEXT	SEGMENT
_this$ = -4						; size = 4
___flags$ = 8						; size = 4
??_GObjectDataStream@Ogre@@UAEPAXI@Z PROC		; Ogre::ObjectDataStream::`scalar deleting destructor', COMDAT
; _this$ = ecx
	push	ebp
	mov	ebp, esp
	push	ecx
	mov	DWORD PTR _this$[ebp], ecx
	mov	ecx, DWORD PTR _this$[ebp]
	call	??1ObjectDataStream@Ogre@@UAE@XZ	; Ogre::ObjectDataStream::~ObjectDataStream
	mov	eax, DWORD PTR ___flags$[ebp]
	and	eax, 1
	je	SHORT $LN1@scalar@6
	mov	ecx, DWORD PTR _this$[ebp]
	push	ecx
	call	??3@YAXPAX@Z				; operator delete
	add	esp, 4
$LN1@scalar@6:
	mov	eax, DWORD PTR _this$[ebp]
	mov	esp, ebp
	pop	ebp
	ret	4
??_GObjectDataStream@Ogre@@UAEPAXI@Z ENDP		; Ogre::ObjectDataStream::`scalar deleting destructor'
; Function compile flags: /Odtp
_TEXT	ENDS
;	COMDAT ??_EObjectDataStream@Ogre@@UAEPAXI@Z
_TEXT	SEGMENT
_this$ = -4						; size = 4
___flags$ = 8						; size = 4
??_EObjectDataStream@Ogre@@UAEPAXI@Z PROC		; Ogre::ObjectDataStream::`vector deleting destructor', COMDAT
; _this$ = ecx
	push	ebp
	mov	ebp, esp
	push	ecx
	mov	DWORD PTR _this$[ebp], ecx
	mov	eax, DWORD PTR ___flags$[ebp]
	and	eax, 2
	je	SHORT $LN3@vector@6
	push	OFFSET ??1ObjectDataStream@Ogre@@UAE@XZ	; Ogre::ObjectDataStream::~ObjectDataStream
	mov	ecx, DWORD PTR _this$[ebp]
	mov	edx, DWORD PTR [ecx-4]
	push	edx
	push	44					; 0000002cH
	mov	eax, DWORD PTR _this$[ebp]
	push	eax
	call	??_M@YGXPAXIHP6EX0@Z@Z
	mov	ecx, DWORD PTR ___flags$[ebp]
	and	ecx, 1
	je	SHORT $LN2@vector@6
	mov	edx, DWORD PTR _this$[ebp]
	sub	edx, 4
	push	edx
	call	??_V@YAXPAX@Z				; operator delete[]
	add	esp, 4
$LN2@vector@6:
	mov	eax, DWORD PTR _this$[ebp]
	sub	eax, 4
	jmp	SHORT $LN4@vector@6
$LN3@vector@6:
	mov	ecx, DWORD PTR _this$[ebp]
	call	??1ObjectDataStream@Ogre@@UAE@XZ	; Ogre::ObjectDataStream::~ObjectDataStream
	mov	eax, DWORD PTR ___flags$[ebp]
	and	eax, 1
	je	SHORT $LN1@vector@6
	mov	ecx, DWORD PTR _this$[ebp]
	push	ecx
	call	??3@YAXPAX@Z				; operator delete
	add	esp, 4
$LN1@vector@6:
	mov	eax, DWORD PTR _this$[ebp]
$LN4@vector@6:
	mov	esp, ebp
	pop	ebp
	ret	4
??_EObjectDataStream@Ogre@@UAEPAXI@Z ENDP		; Ogre::ObjectDataStream::`vector deleting destructor'
_TEXT	ENDS
PUBLIC	??4MemoryDelegation@Ogre@@QAEAAV01@ABV01@@Z	; Ogre::MemoryDelegation::operator=
; Function compile flags: /Odtp
;	COMDAT ??4MemoryDelegation@Ogre@@QAEAAV01@ABV01@@Z
_TEXT	SEGMENT
_this$ = -4						; size = 4
___that$ = 8						; size = 4
??4MemoryDelegation@Ogre@@QAEAAV01@ABV01@@Z PROC	; Ogre::MemoryDelegation::operator=, COMDAT
; _this$ = ecx
	push	ebp
	mov	ebp, esp
	push	ecx
	mov	DWORD PTR _this$[ebp], ecx
	mov	eax, DWORD PTR _this$[ebp]
	mov	esp, ebp
	pop	ebp
	ret	4
??4MemoryDelegation@Ogre@@QAEAAV01@ABV01@@Z ENDP	; Ogre::MemoryDelegation::operator=
_TEXT	ENDS
PUBLIC	?getBaseClass@RuntimeClass@Ogre@@QBEPBV12@XZ	; Ogre::RuntimeClass::getBaseClass
; Function compile flags: /Odtp
; File i:\svnroot\client\ogremain\ogrebaseobject.h
;	COMDAT ?getBaseClass@RuntimeClass@Ogre@@QBEPBV12@XZ
_TEXT	SEGMENT
_this$ = -4						; size = 4
?getBaseClass@RuntimeClass@Ogre@@QBEPBV12@XZ PROC	; Ogre::RuntimeClass::getBaseClass, COMDAT
; _this$ = ecx

; 20   : 		{

	push	ebp
	mov	ebp, esp
	push	ecx
	mov	DWORD PTR _this$[ebp], ecx

; 21   : 			return m_pBaseClass;

	mov	eax, DWORD PTR _this$[ebp]
	mov	eax, DWORD PTR [eax+4]

; 22   : 		}

	mov	esp, ebp
	pop	ebp
	ret	0
?getBaseClass@RuntimeClass@Ogre@@QBEPBV12@XZ ENDP	; Ogre::RuntimeClass::getBaseClass
_TEXT	ENDS
PUBLIC	?getClassName@RuntimeClass@Ogre@@QBEPBDXZ	; Ogre::RuntimeClass::getClassName
; Function compile flags: /Odtp
;	COMDAT ?getClassName@RuntimeClass@Ogre@@QBEPBDXZ
_TEXT	SEGMENT
_this$ = -4						; size = 4
?getClassName@RuntimeClass@Ogre@@QBEPBDXZ PROC		; Ogre::RuntimeClass::getClassName, COMDAT
; _this$ = ecx

; 25   : 		{

	push	ebp
	mov	ebp, esp
	push	ecx
	mov	DWORD PTR _this$[ebp], ecx

; 26   : 			return m_pClassName; 

	mov	eax, DWORD PTR _this$[ebp]
	mov	eax, DWORD PTR [eax]

; 27   : 		}

	mov	esp, ebp
	pop	ebp
	ret	0
?getClassName@RuntimeClass@Ogre@@QBEPBDXZ ENDP		; Ogre::RuntimeClass::getClassName
_TEXT	ENDS
PUBLIC	?getVersion@RuntimeClass@Ogre@@QBEHXZ		; Ogre::RuntimeClass::getVersion
; Function compile flags: /Odtp
;	COMDAT ?getVersion@RuntimeClass@Ogre@@QBEHXZ
_TEXT	SEGMENT
_this$ = -4						; size = 4
?getVersion@RuntimeClass@Ogre@@QBEHXZ PROC		; Ogre::RuntimeClass::getVersion, COMDAT
; _this$ = ecx

; 30   : 		{

	push	ebp
	mov	ebp, esp
	push	ecx
	mov	DWORD PTR _this$[ebp], ecx

; 31   : 			return m_Version;

	mov	eax, DWORD PTR _this$[ebp]
	mov	eax, DWORD PTR [eax+8]

; 32   : 		}

	mov	esp, ebp
	pop	ebp
	ret	0
?getVersion@RuntimeClass@Ogre@@QBEHXZ ENDP		; Ogre::RuntimeClass::getVersion
_TEXT	ENDS
PUBLIC	?newObject@RuntimeClass@Ogre@@QAEPAVBaseObject@2@XZ ; Ogre::RuntimeClass::newObject
; Function compile flags: /Odtp
;	COMDAT ?newObject@RuntimeClass@Ogre@@QAEPAVBaseObject@2@XZ
_TEXT	SEGMENT
_this$ = -4						; size = 4
?newObject@RuntimeClass@Ogre@@QAEPAVBaseObject@2@XZ PROC ; Ogre::RuntimeClass::newObject, COMDAT
; _this$ = ecx

; 35   : 		{

	push	ebp
	mov	ebp, esp
	push	ecx
	mov	DWORD PTR _this$[ebp], ecx

; 36   : 			return (*m_pNewFunc)();

	mov	eax, DWORD PTR _this$[ebp]
	mov	ecx, DWORD PTR [eax+12]
	call	ecx

; 37   : 		}

	mov	esp, ebp
	pop	ebp
	ret	0
?newObject@RuntimeClass@Ogre@@QAEPAVBaseObject@2@XZ ENDP ; Ogre::RuntimeClass::newObject
_TEXT	ENDS
PUBLIC	??4RuntimeClass@Ogre@@QAEAAV01@ABV01@@Z		; Ogre::RuntimeClass::operator=
; Function compile flags: /Odtp
;	COMDAT ??4RuntimeClass@Ogre@@QAEAAV01@ABV01@@Z
_TEXT	SEGMENT
_this$ = -4						; size = 4
___that$ = 8						; size = 4
??4RuntimeClass@Ogre@@QAEAAV01@ABV01@@Z PROC		; Ogre::RuntimeClass::operator=, COMDAT
; _this$ = ecx
	push	ebp
	mov	ebp, esp
	push	ecx
	mov	DWORD PTR _this$[ebp], ecx
	mov	eax, DWORD PTR ___that$[ebp]
	mov	ecx, DWORD PTR _this$[ebp]
	mov	edx, DWORD PTR [eax]
	mov	DWORD PTR [ecx], edx
	mov	edx, DWORD PTR [eax+4]
	mov	DWORD PTR [ecx+4], edx
	mov	edx, DWORD PTR [eax+8]
	mov	DWORD PTR [ecx+8], edx
	mov	edx, DWORD PTR [eax+12]
	mov	DWORD PTR [ecx+12], edx
	mov	eax, DWORD PTR [eax+16]
	mov	DWORD PTR [ecx+16], eax
	mov	eax, DWORD PTR _this$[ebp]
	mov	esp, ebp
	pop	ebp
	ret	4
??4RuntimeClass@Ogre@@QAEAAV01@ABV01@@Z ENDP		; Ogre::RuntimeClass::operator=
_TEXT	ENDS
PUBLIC	?getRTTI@BaseObject@Ogre@@UBEPBVRuntimeClass@2@XZ ; Ogre::BaseObject::getRTTI
EXTRN	?m_RTTI@BaseObject@Ogre@@2VRuntimeClass@2@B:BYTE ; Ogre::BaseObject::m_RTTI
; Function compile flags: /Odtp
;	COMDAT ?getRTTI@BaseObject@Ogre@@UBEPBVRuntimeClass@2@XZ
_TEXT	SEGMENT
_this$ = -4						; size = 4
?getRTTI@BaseObject@Ogre@@UBEPBVRuntimeClass@2@XZ PROC	; Ogre::BaseObject::getRTTI, COMDAT
; _this$ = ecx

; 56   : 		{

	push	ebp
	mov	ebp, esp
	push	ecx
	mov	DWORD PTR _this$[ebp], ecx

; 57   : 			return &m_RTTI;

	mov	eax, OFFSET ?m_RTTI@BaseObject@Ogre@@2VRuntimeClass@2@B ; Ogre::BaseObject::m_RTTI

; 58   : 		}

	mov	esp, ebp
	pop	ebp
	ret	0
?getRTTI@BaseObject@Ogre@@UBEPBVRuntimeClass@2@XZ ENDP	; Ogre::BaseObject::getRTTI
_TEXT	ENDS
PUBLIC	?isExactKindOf@BaseObject@Ogre@@QBE_NPBVRuntimeClass@2@@Z ; Ogre::BaseObject::isExactKindOf
; Function compile flags: /Odtp
;	COMDAT ?isExactKindOf@BaseObject@Ogre@@QBE_NPBVRuntimeClass@2@@Z
_TEXT	SEGMENT
_this$ = -4						; size = 4
_prtti$ = 8						; size = 4
?isExactKindOf@BaseObject@Ogre@@QBE_NPBVRuntimeClass@2@@Z PROC ; Ogre::BaseObject::isExactKindOf, COMDAT
; _this$ = ecx

; 61   : 		{

	push	ebp
	mov	ebp, esp
	push	ecx
	mov	DWORD PTR _this$[ebp], ecx

; 62   : 			return (getRTTI() == prtti);

	mov	eax, DWORD PTR _this$[ebp]
	mov	edx, DWORD PTR [eax]
	mov	ecx, DWORD PTR _this$[ebp]
	mov	eax, DWORD PTR [edx]
	call	eax
	xor	ecx, ecx
	cmp	eax, DWORD PTR _prtti$[ebp]
	sete	cl
	mov	al, cl

; 63   : 		}

	mov	esp, ebp
	pop	ebp
	ret	4
?isExactKindOf@BaseObject@Ogre@@QBE_NPBVRuntimeClass@2@@Z ENDP ; Ogre::BaseObject::isExactKindOf
_TEXT	ENDS
PUBLIC	?release@BaseObject@Ogre@@UAEXXZ		; Ogre::BaseObject::release
; Function compile flags: /Odtp
;	COMDAT ?release@BaseObject@Ogre@@UAEXXZ
_TEXT	SEGMENT
_this$ = -4						; size = 4
?release@BaseObject@Ogre@@UAEXXZ PROC			; Ogre::BaseObject::release, COMDAT
; _this$ = ecx

; 68   : 		{

	push	ebp
	mov	ebp, esp
	push	ecx
	mov	DWORD PTR _this$[ebp], ecx

; 69   : 			m_RefCount--;

	mov	eax, DWORD PTR _this$[ebp]
	mov	ecx, DWORD PTR [eax+4]
	sub	ecx, 1
	mov	edx, DWORD PTR _this$[ebp]
	mov	DWORD PTR [edx+4], ecx

; 70   : 			if(m_RefCount <= 0 )

	mov	eax, DWORD PTR _this$[ebp]
	cmp	DWORD PTR [eax+4], 0
	jg	SHORT $LN2@release

; 71   : 			{
; 72   : 				deleteThis();

	mov	ecx, DWORD PTR _this$[ebp]
	mov	edx, DWORD PTR [ecx]
	mov	ecx, DWORD PTR _this$[ebp]
	mov	eax, DWORD PTR [edx+24]
	call	eax
$LN2@release:

; 73   : 			}
; 74   : 		}

	mov	esp, ebp
	pop	ebp
	ret	0
?release@BaseObject@Ogre@@UAEXXZ ENDP			; Ogre::BaseObject::release
_TEXT	ENDS
PUBLIC	?addRef@BaseObject@Ogre@@UAEXXZ			; Ogre::BaseObject::addRef
; Function compile flags: /Odtp
;	COMDAT ?addRef@BaseObject@Ogre@@UAEXXZ
_TEXT	SEGMENT
_this$ = -4						; size = 4
?addRef@BaseObject@Ogre@@UAEXXZ PROC			; Ogre::BaseObject::addRef, COMDAT
; _this$ = ecx

; 77   : 		{

	push	ebp
	mov	ebp, esp
	push	ecx
	mov	DWORD PTR _this$[ebp], ecx

; 78   : 			m_RefCount++;

	mov	eax, DWORD PTR _this$[ebp]
	mov	ecx, DWORD PTR [eax+4]
	add	ecx, 1
	mov	edx, DWORD PTR _this$[ebp]
	mov	DWORD PTR [edx+4], ecx

; 79   : 		}

	mov	esp, ebp
	pop	ebp
	ret	0
?addRef@BaseObject@Ogre@@UAEXXZ ENDP			; Ogre::BaseObject::addRef
_TEXT	ENDS
PUBLIC	?getRefCount@BaseObject@Ogre@@UAEHXZ		; Ogre::BaseObject::getRefCount
; Function compile flags: /Odtp
;	COMDAT ?getRefCount@BaseObject@Ogre@@UAEHXZ
_TEXT	SEGMENT
_this$ = -4						; size = 4
?getRefCount@BaseObject@Ogre@@UAEHXZ PROC		; Ogre::BaseObject::getRefCount, COMDAT
; _this$ = ecx

; 82   : 		{

	push	ebp
	mov	ebp, esp
	push	ecx
	mov	DWORD PTR _this$[ebp], ecx

; 83   : 			return m_RefCount;

	mov	eax, DWORD PTR _this$[ebp]
	mov	eax, DWORD PTR [eax+4]

; 84   : 		}

	mov	esp, ebp
	pop	ebp
	ret	0
?getRefCount@BaseObject@Ogre@@UAEHXZ ENDP		; Ogre::BaseObject::getRefCount
_TEXT	ENDS
PUBLIC	?_serialize@BaseObject@Ogre@@UAEXAAVArchive@2@H@Z ; Ogre::BaseObject::_serialize
; Function compile flags: /Odtp
;	COMDAT ?_serialize@BaseObject@Ogre@@UAEXAAVArchive@2@H@Z
_TEXT	SEGMENT
_this$ = -4						; size = 4
_ar$ = 8						; size = 4
_version$ = 12						; size = 4
?_serialize@BaseObject@Ogre@@UAEXAAVArchive@2@H@Z PROC	; Ogre::BaseObject::_serialize, COMDAT
; _this$ = ecx

; 87   : 		{

	push	ebp
	mov	ebp, esp
	push	ecx
	mov	DWORD PTR _this$[ebp], ecx

; 88   : 		}

	mov	esp, ebp
	pop	ebp
	ret	8
?_serialize@BaseObject@Ogre@@UAEXAAVArchive@2@H@Z ENDP	; Ogre::BaseObject::_serialize
_TEXT	ENDS
PUBLIC	??_7BaseObject@Ogre@@6B@			; Ogre::BaseObject::`vftable'
PUBLIC	??0BaseObject@Ogre@@IAE@XZ			; Ogre::BaseObject::BaseObject
PUBLIC	??_R4BaseObject@Ogre@@6B@			; Ogre::BaseObject::`RTTI Complete Object Locator'
PUBLIC	??_R0?AVBaseObject@Ogre@@@8			; Ogre::BaseObject `RTTI Type Descriptor'
PUBLIC	??_R3BaseObject@Ogre@@8				; Ogre::BaseObject::`RTTI Class Hierarchy Descriptor'
PUBLIC	??_R2BaseObject@Ogre@@8				; Ogre::BaseObject::`RTTI Base Class Array'
PUBLIC	??_R1A@?0A@EA@BaseObject@Ogre@@8		; Ogre::BaseObject::`RTTI Base Class Descriptor at (0,-1,0,64)'
PUBLIC	??_R13?0A@EA@MemoryDelegation@Ogre@@8		; Ogre::MemoryDelegation::`RTTI Base Class Descriptor at (4,-1,0,64)'
PUBLIC	??_R0?AVMemoryDelegation@Ogre@@@8		; Ogre::MemoryDelegation `RTTI Type Descriptor'
PUBLIC	??_R3MemoryDelegation@Ogre@@8			; Ogre::MemoryDelegation::`RTTI Class Hierarchy Descriptor'
PUBLIC	??_R2MemoryDelegation@Ogre@@8			; Ogre::MemoryDelegation::`RTTI Base Class Array'
PUBLIC	??_R1A@?0A@EA@MemoryDelegation@Ogre@@8		; Ogre::MemoryDelegation::`RTTI Base Class Descriptor at (0,-1,0,64)'
PUBLIC	??_EBaseObject@Ogre@@MAEPAXI@Z			; Ogre::BaseObject::`vector deleting destructor'
PUBLIC	?deleteThis@BaseObject@Ogre@@MAEXXZ		; Ogre::BaseObject::deleteThis
;	COMDAT ??_R1A@?0A@EA@MemoryDelegation@Ogre@@8
rdata$r	SEGMENT
??_R1A@?0A@EA@MemoryDelegation@Ogre@@8 DD FLAT:??_R0?AVMemoryDelegation@Ogre@@@8 ; Ogre::MemoryDelegation::`RTTI Base Class Descriptor at (0,-1,0,64)'
	DD	00H
	DD	00H
	DD	0ffffffffH
	DD	00H
	DD	040H
	DD	FLAT:??_R3MemoryDelegation@Ogre@@8
rdata$r	ENDS
;	COMDAT ??_R2MemoryDelegation@Ogre@@8
rdata$r	SEGMENT
??_R2MemoryDelegation@Ogre@@8 DD FLAT:??_R1A@?0A@EA@MemoryDelegation@Ogre@@8 ; Ogre::MemoryDelegation::`RTTI Base Class Array'
rdata$r	ENDS
;	COMDAT ??_R3MemoryDelegation@Ogre@@8
rdata$r	SEGMENT
??_R3MemoryDelegation@Ogre@@8 DD 00H			; Ogre::MemoryDelegation::`RTTI Class Hierarchy Descriptor'
	DD	00H
	DD	01H
	DD	FLAT:??_R2MemoryDelegation@Ogre@@8
rdata$r	ENDS
;	COMDAT ??_R0?AVMemoryDelegation@Ogre@@@8
_DATA	SEGMENT
??_R0?AVMemoryDelegation@Ogre@@@8 DD FLAT:??_7type_info@@6B@ ; Ogre::MemoryDelegation `RTTI Type Descriptor'
	DD	00H
	DB	'.?AVMemoryDelegation@Ogre@@', 00H
_DATA	ENDS
;	COMDAT ??_R13?0A@EA@MemoryDelegation@Ogre@@8
rdata$r	SEGMENT
??_R13?0A@EA@MemoryDelegation@Ogre@@8 DD FLAT:??_R0?AVMemoryDelegation@Ogre@@@8 ; Ogre::MemoryDelegation::`RTTI Base Class Descriptor at (4,-1,0,64)'
	DD	00H
	DD	04H
	DD	0ffffffffH
	DD	00H
	DD	040H
	DD	FLAT:??_R3MemoryDelegation@Ogre@@8
rdata$r	ENDS
;	COMDAT ??_R1A@?0A@EA@BaseObject@Ogre@@8
rdata$r	SEGMENT
??_R1A@?0A@EA@BaseObject@Ogre@@8 DD FLAT:??_R0?AVBaseObject@Ogre@@@8 ; Ogre::BaseObject::`RTTI Base Class Descriptor at (0,-1,0,64)'
	DD	01H
	DD	00H
	DD	0ffffffffH
	DD	00H
	DD	040H
	DD	FLAT:??_R3BaseObject@Ogre@@8
rdata$r	ENDS
;	COMDAT ??_R2BaseObject@Ogre@@8
rdata$r	SEGMENT
??_R2BaseObject@Ogre@@8 DD FLAT:??_R1A@?0A@EA@BaseObject@Ogre@@8 ; Ogre::BaseObject::`RTTI Base Class Array'
	DD	FLAT:??_R13?0A@EA@MemoryDelegation@Ogre@@8
rdata$r	ENDS
;	COMDAT ??_R3BaseObject@Ogre@@8
rdata$r	SEGMENT
??_R3BaseObject@Ogre@@8 DD 00H				; Ogre::BaseObject::`RTTI Class Hierarchy Descriptor'
	DD	00H
	DD	02H
	DD	FLAT:??_R2BaseObject@Ogre@@8
rdata$r	ENDS
;	COMDAT ??_R0?AVBaseObject@Ogre@@@8
_DATA	SEGMENT
??_R0?AVBaseObject@Ogre@@@8 DD FLAT:??_7type_info@@6B@	; Ogre::BaseObject `RTTI Type Descriptor'
	DD	00H
	DB	'.?AVBaseObject@Ogre@@', 00H
_DATA	ENDS
;	COMDAT ??_R4BaseObject@Ogre@@6B@
rdata$r	SEGMENT
??_R4BaseObject@Ogre@@6B@ DD 00H			; Ogre::BaseObject::`RTTI Complete Object Locator'
	DD	00H
	DD	00H
	DD	FLAT:??_R0?AVBaseObject@Ogre@@@8
	DD	FLAT:??_R3BaseObject@Ogre@@8
rdata$r	ENDS
;	COMDAT ??_7BaseObject@Ogre@@6B@
CONST	SEGMENT
??_7BaseObject@Ogre@@6B@ DD FLAT:??_R4BaseObject@Ogre@@6B@ ; Ogre::BaseObject::`vftable'
	DD	FLAT:?getRTTI@BaseObject@Ogre@@UBEPBVRuntimeClass@2@XZ
	DD	FLAT:?release@BaseObject@Ogre@@UAEXXZ
	DD	FLAT:?addRef@BaseObject@Ogre@@UAEXXZ
	DD	FLAT:?getRefCount@BaseObject@Ogre@@UAEHXZ
	DD	FLAT:?_serialize@BaseObject@Ogre@@UAEXAAVArchive@2@H@Z
	DD	FLAT:??_EBaseObject@Ogre@@MAEPAXI@Z
	DD	FLAT:?deleteThis@BaseObject@Ogre@@MAEXXZ
; Function compile flags: /Odtp
CONST	ENDS
;	COMDAT ??0BaseObject@Ogre@@IAE@XZ
_TEXT	SEGMENT
_this$ = -4						; size = 4
??0BaseObject@Ogre@@IAE@XZ PROC				; Ogre::BaseObject::BaseObject, COMDAT
; _this$ = ecx

; 92   : 		{

	push	ebp
	mov	ebp, esp
	push	ecx
	mov	DWORD PTR _this$[ebp], ecx
	mov	eax, DWORD PTR _this$[ebp]
	mov	DWORD PTR [eax], OFFSET ??_7BaseObject@Ogre@@6B@
	mov	ecx, DWORD PTR _this$[ebp]
	mov	DWORD PTR [ecx+4], 1

; 93   : 		}

	mov	eax, DWORD PTR _this$[ebp]
	mov	esp, ebp
	pop	ebp
	ret	0
??0BaseObject@Ogre@@IAE@XZ ENDP				; Ogre::BaseObject::BaseObject
_TEXT	ENDS
PUBLIC	??1BaseObject@Ogre@@MAE@XZ			; Ogre::BaseObject::~BaseObject
; Function compile flags: /Odtp
;	COMDAT ??1BaseObject@Ogre@@MAE@XZ
_TEXT	SEGMENT
_this$ = -4						; size = 4
??1BaseObject@Ogre@@MAE@XZ PROC				; Ogre::BaseObject::~BaseObject, COMDAT
; _this$ = ecx

; 96   : 		{

	push	ebp
	mov	ebp, esp
	push	ecx
	mov	DWORD PTR _this$[ebp], ecx
	mov	eax, DWORD PTR _this$[ebp]
	mov	DWORD PTR [eax], OFFSET ??_7BaseObject@Ogre@@6B@

; 97   : 		}

	mov	esp, ebp
	pop	ebp
	ret	0
??1BaseObject@Ogre@@MAE@XZ ENDP				; Ogre::BaseObject::~BaseObject
; Function compile flags: /Odtp
_TEXT	ENDS
;	COMDAT ?deleteThis@BaseObject@Ogre@@MAEXXZ
_TEXT	SEGMENT
tv70 = -16						; size = 4
_this$ = -12						; size = 4
$T70045 = -8						; size = 4
$T70044 = -4						; size = 4
?deleteThis@BaseObject@Ogre@@MAEXXZ PROC		; Ogre::BaseObject::deleteThis, COMDAT
; _this$ = ecx

; 100  : 		{

	push	ebp
	mov	ebp, esp
	sub	esp, 16					; 00000010H
	mov	DWORD PTR _this$[ebp], ecx

; 101  : 			delete this;

	mov	eax, DWORD PTR _this$[ebp]
	mov	DWORD PTR $T70045[ebp], eax
	mov	ecx, DWORD PTR $T70045[ebp]
	mov	DWORD PTR $T70044[ebp], ecx
	cmp	DWORD PTR $T70044[ebp], 0
	je	SHORT $LN3@deleteThis
	push	1
	mov	edx, DWORD PTR $T70044[ebp]
	mov	eax, DWORD PTR [edx]
	mov	ecx, DWORD PTR $T70044[ebp]
	mov	edx, DWORD PTR [eax+20]
	call	edx
	mov	DWORD PTR tv70[ebp], eax
	jmp	SHORT $LN1@deleteThis
$LN3@deleteThis:
	mov	DWORD PTR tv70[ebp], 0
$LN1@deleteThis:

; 102  : 		}

	mov	esp, ebp
	pop	ebp
	ret	0
?deleteThis@BaseObject@Ogre@@MAEXXZ ENDP		; Ogre::BaseObject::deleteThis
_TEXT	ENDS
PUBLIC	??0BaseObject@Ogre@@QAE@ABV01@@Z		; Ogre::BaseObject::BaseObject
; Function compile flags: /Odtp
;	COMDAT ??0BaseObject@Ogre@@QAE@ABV01@@Z
_TEXT	SEGMENT
tv68 = -8						; size = 4
_this$ = -4						; size = 4
___that$ = 8						; size = 4
??0BaseObject@Ogre@@QAE@ABV01@@Z PROC			; Ogre::BaseObject::BaseObject, COMDAT
; _this$ = ecx
	push	ebp
	mov	ebp, esp
	sub	esp, 8
	mov	DWORD PTR _this$[ebp], ecx
	cmp	DWORD PTR ___that$[ebp], 0
	je	SHORT $LN3@BaseObject
	mov	eax, DWORD PTR ___that$[ebp]
	add	eax, 4
	mov	DWORD PTR tv68[ebp], eax
	jmp	SHORT $LN4@BaseObject
$LN3@BaseObject:
	mov	DWORD PTR tv68[ebp], 0
$LN4@BaseObject:
	mov	ecx, DWORD PTR _this$[ebp]
	mov	DWORD PTR [ecx], OFFSET ??_7BaseObject@Ogre@@6B@
	mov	edx, DWORD PTR _this$[ebp]
	mov	eax, DWORD PTR ___that$[ebp]
	mov	ecx, DWORD PTR [eax+4]
	mov	DWORD PTR [edx+4], ecx
	mov	eax, DWORD PTR _this$[ebp]
	mov	esp, ebp
	pop	ebp
	ret	4
??0BaseObject@Ogre@@QAE@ABV01@@Z ENDP			; Ogre::BaseObject::BaseObject
_TEXT	ENDS
PUBLIC	??4BaseObject@Ogre@@QAEAAV01@ABV01@@Z		; Ogre::BaseObject::operator=
; Function compile flags: /Odtp
;	COMDAT ??4BaseObject@Ogre@@QAEAAV01@ABV01@@Z
_TEXT	SEGMENT
_this$ = -4						; size = 4
___that$ = 8						; size = 4
??4BaseObject@Ogre@@QAEAAV01@ABV01@@Z PROC		; Ogre::BaseObject::operator=, COMDAT
; _this$ = ecx
	push	ebp
	mov	ebp, esp
	push	ecx
	mov	DWORD PTR _this$[ebp], ecx
	mov	eax, DWORD PTR _this$[ebp]
	mov	ecx, DWORD PTR ___that$[ebp]
	mov	edx, DWORD PTR [ecx+4]
	mov	DWORD PTR [eax+4], edx
	mov	eax, DWORD PTR _this$[ebp]
	mov	esp, ebp
	pop	ebp
	ret	4
??4BaseObject@Ogre@@QAEAAV01@ABV01@@Z ENDP		; Ogre::BaseObject::operator=
_TEXT	ENDS
PUBLIC	??_GBaseObject@Ogre@@MAEPAXI@Z			; Ogre::BaseObject::`scalar deleting destructor'
EXTRN	??3MemoryDelegation@Ogre@@SAXPAXI@Z:PROC	; Ogre::MemoryDelegation::operator delete
; Function compile flags: /Odtp
;	COMDAT ??_GBaseObject@Ogre@@MAEPAXI@Z
_TEXT	SEGMENT
_this$ = -4						; size = 4
___flags$ = 8						; size = 4
??_GBaseObject@Ogre@@MAEPAXI@Z PROC			; Ogre::BaseObject::`scalar deleting destructor', COMDAT
; _this$ = ecx
	push	ebp
	mov	ebp, esp
	push	ecx
	mov	DWORD PTR _this$[ebp], ecx
	mov	ecx, DWORD PTR _this$[ebp]
	call	??1BaseObject@Ogre@@MAE@XZ		; Ogre::BaseObject::~BaseObject
	mov	eax, DWORD PTR ___flags$[ebp]
	and	eax, 1
	je	SHORT $LN1@scalar@7
	push	8
	mov	ecx, DWORD PTR _this$[ebp]
	push	ecx
	call	??3MemoryDelegation@Ogre@@SAXPAXI@Z	; Ogre::MemoryDelegation::operator delete
	add	esp, 8
$LN1@scalar@7:
	mov	eax, DWORD PTR _this$[ebp]
	mov	esp, ebp
	pop	ebp
	ret	4
??_GBaseObject@Ogre@@MAEPAXI@Z ENDP			; Ogre::BaseObject::`scalar deleting destructor'
_TEXT	ENDS
EXTRN	??_VMemoryDelegation@Ogre@@SAXPAXI@Z:PROC	; Ogre::MemoryDelegation::operator delete[]
; Function compile flags: /Odtp
;	COMDAT ??_EBaseObject@Ogre@@MAEPAXI@Z
_TEXT	SEGMENT
_this$ = -4						; size = 4
___flags$ = 8						; size = 4
??_EBaseObject@Ogre@@MAEPAXI@Z PROC			; Ogre::BaseObject::`vector deleting destructor', COMDAT
; _this$ = ecx
	push	ebp
	mov	ebp, esp
	push	ecx
	mov	DWORD PTR _this$[ebp], ecx
	mov	eax, DWORD PTR ___flags$[ebp]
	and	eax, 2
	je	SHORT $LN3@vector@7
	push	OFFSET ??1BaseObject@Ogre@@MAE@XZ	; Ogre::BaseObject::~BaseObject
	mov	ecx, DWORD PTR _this$[ebp]
	mov	edx, DWORD PTR [ecx-4]
	push	edx
	push	8
	mov	eax, DWORD PTR _this$[ebp]
	push	eax
	call	??_M@YGXPAXIHP6EX0@Z@Z
	mov	ecx, DWORD PTR ___flags$[ebp]
	and	ecx, 1
	je	SHORT $LN2@vector@7
	push	8
	mov	edx, DWORD PTR _this$[ebp]
	sub	edx, 4
	push	edx
	call	??_VMemoryDelegation@Ogre@@SAXPAXI@Z	; Ogre::MemoryDelegation::operator delete[]
	add	esp, 8
$LN2@vector@7:
	mov	eax, DWORD PTR _this$[ebp]
	sub	eax, 4
	jmp	SHORT $LN4@vector@7
$LN3@vector@7:
	mov	ecx, DWORD PTR _this$[ebp]
	call	??1BaseObject@Ogre@@MAE@XZ		; Ogre::BaseObject::~BaseObject
	mov	eax, DWORD PTR ___flags$[ebp]
	and	eax, 1
	je	SHORT $LN1@vector@7
	push	8
	mov	ecx, DWORD PTR _this$[ebp]
	push	ecx
	call	??3MemoryDelegation@Ogre@@SAXPAXI@Z	; Ogre::MemoryDelegation::operator delete
	add	esp, 8
$LN1@vector@7:
	mov	eax, DWORD PTR _this$[ebp]
$LN4@vector@7:
	mov	esp, ebp
	pop	ebp
	ret	4
??_EBaseObject@Ogre@@MAEPAXI@Z ENDP			; Ogre::BaseObject::`vector deleting destructor'
_TEXT	ENDS
PUBLIC	??_7Archive@Ogre@@6B@				; Ogre::Archive::`vftable'
PUBLIC	??0Archive@Ogre@@QAE@PAVDataStream@1@H@Z	; Ogre::Archive::Archive
PUBLIC	??_R4Archive@Ogre@@6B@				; Ogre::Archive::`RTTI Complete Object Locator'
PUBLIC	??_R0?AVArchive@Ogre@@@8			; Ogre::Archive `RTTI Type Descriptor'
PUBLIC	??_R3Archive@Ogre@@8				; Ogre::Archive::`RTTI Class Hierarchy Descriptor'
PUBLIC	??_R2Archive@Ogre@@8				; Ogre::Archive::`RTTI Base Class Array'
PUBLIC	??_R1A@?0A@EA@Archive@Ogre@@8			; Ogre::Archive::`RTTI Base Class Descriptor at (0,-1,0,64)'
PUBLIC	??_EArchive@Ogre@@UAEPAXI@Z			; Ogre::Archive::`vector deleting destructor'
;	COMDAT ??_R1A@?0A@EA@Archive@Ogre@@8
; File i:\svnroot\client\ogremain\ogrearchive.h
rdata$r	SEGMENT
??_R1A@?0A@EA@Archive@Ogre@@8 DD FLAT:??_R0?AVArchive@Ogre@@@8 ; Ogre::Archive::`RTTI Base Class Descriptor at (0,-1,0,64)'
	DD	00H
	DD	00H
	DD	0ffffffffH
	DD	00H
	DD	040H
	DD	FLAT:??_R3Archive@Ogre@@8
rdata$r	ENDS
;	COMDAT ??_R2Archive@Ogre@@8
rdata$r	SEGMENT
??_R2Archive@Ogre@@8 DD FLAT:??_R1A@?0A@EA@Archive@Ogre@@8 ; Ogre::Archive::`RTTI Base Class Array'
rdata$r	ENDS
;	COMDAT ??_R3Archive@Ogre@@8
rdata$r	SEGMENT
??_R3Archive@Ogre@@8 DD 00H				; Ogre::Archive::`RTTI Class Hierarchy Descriptor'
	DD	00H
	DD	01H
	DD	FLAT:??_R2Archive@Ogre@@8
rdata$r	ENDS
;	COMDAT ??_R0?AVArchive@Ogre@@@8
_DATA	SEGMENT
??_R0?AVArchive@Ogre@@@8 DD FLAT:??_7type_info@@6B@	; Ogre::Archive `RTTI Type Descriptor'
	DD	00H
	DB	'.?AVArchive@Ogre@@', 00H
_DATA	ENDS
;	COMDAT ??_R4Archive@Ogre@@6B@
rdata$r	SEGMENT
??_R4Archive@Ogre@@6B@ DD 00H				; Ogre::Archive::`RTTI Complete Object Locator'
	DD	00H
	DD	00H
	DD	FLAT:??_R0?AVArchive@Ogre@@@8
	DD	FLAT:??_R3Archive@Ogre@@8
rdata$r	ENDS
;	COMDAT ??_7Archive@Ogre@@6B@
CONST	SEGMENT
??_7Archive@Ogre@@6B@ DD FLAT:??_R4Archive@Ogre@@6B@	; Ogre::Archive::`vftable'
	DD	FLAT:??_EArchive@Ogre@@UAEPAXI@Z
; Function compile flags: /Odtp
CONST	ENDS
;	COMDAT ??0Archive@Ogre@@QAE@PAVDataStream@1@H@Z
_TEXT	SEGMENT
_this$ = -4						; size = 4
_pstream$ = 8						; size = 4
_mode$ = 12						; size = 4
??0Archive@Ogre@@QAE@PAVDataStream@1@H@Z PROC		; Ogre::Archive::Archive, COMDAT
; _this$ = ecx

; 22   : 		{

	push	ebp
	mov	ebp, esp
	push	ecx
	mov	DWORD PTR _this$[ebp], ecx
	mov	eax, DWORD PTR _this$[ebp]
	mov	DWORD PTR [eax], OFFSET ??_7Archive@Ogre@@6B@
	mov	ecx, DWORD PTR _this$[ebp]
	mov	edx, DWORD PTR _pstream$[ebp]
	mov	DWORD PTR [ecx+4], edx
	mov	eax, DWORD PTR _this$[ebp]
	mov	ecx, DWORD PTR _mode$[ebp]
	mov	DWORD PTR [eax+8], ecx

; 23   : 		}

	mov	eax, DWORD PTR _this$[ebp]
	mov	esp, ebp
	pop	ebp
	ret	8
??0Archive@Ogre@@QAE@PAVDataStream@1@H@Z ENDP		; Ogre::Archive::Archive
_TEXT	ENDS
PUBLIC	??1Archive@Ogre@@UAE@XZ				; Ogre::Archive::~Archive
; Function compile flags: /Odtp
;	COMDAT ??1Archive@Ogre@@UAE@XZ
_TEXT	SEGMENT
_this$ = -4						; size = 4
??1Archive@Ogre@@UAE@XZ PROC				; Ogre::Archive::~Archive, COMDAT
; _this$ = ecx

; 26   : 		{

	push	ebp
	mov	ebp, esp
	push	ecx
	mov	DWORD PTR _this$[ebp], ecx
	mov	eax, DWORD PTR _this$[ebp]
	mov	DWORD PTR [eax], OFFSET ??_7Archive@Ogre@@6B@

; 27   : 		}

	mov	esp, ebp
	pop	ebp
	ret	0
??1Archive@Ogre@@UAE@XZ ENDP				; Ogre::Archive::~Archive
_TEXT	ENDS
PUBLIC	?isLoading@Archive@Ogre@@QAE_NXZ		; Ogre::Archive::isLoading
; Function compile flags: /Odtp
;	COMDAT ?isLoading@Archive@Ogre@@QAE_NXZ
_TEXT	SEGMENT
_this$ = -4						; size = 4
?isLoading@Archive@Ogre@@QAE_NXZ PROC			; Ogre::Archive::isLoading, COMDAT
; _this$ = ecx

; 30   : 		{

	push	ebp
	mov	ebp, esp
	push	ecx
	mov	DWORD PTR _this$[ebp], ecx

; 31   : 			return m_Mode==MODE_LOAD;

	mov	eax, DWORD PTR _this$[ebp]
	xor	ecx, ecx
	cmp	DWORD PTR [eax+8], 1
	sete	cl
	mov	al, cl

; 32   : 		}

	mov	esp, ebp
	pop	ebp
	ret	0
?isLoading@Archive@Ogre@@QAE_NXZ ENDP			; Ogre::Archive::isLoading
_TEXT	ENDS
PUBLIC	?serialize@Archive@Ogre@@QAEAAV12@PAXI@Z	; Ogre::Archive::serialize
PUBLIC	??6Archive@Ogre@@QAEAAV01@AAD@Z			; Ogre::Archive::operator<<
; Function compile flags: /Odtp
;	COMDAT ??6Archive@Ogre@@QAEAAV01@AAD@Z
_TEXT	SEGMENT
_this$ = -4						; size = 4
_value$ = 8						; size = 4
??6Archive@Ogre@@QAEAAV01@AAD@Z PROC			; Ogre::Archive::operator<<, COMDAT
; _this$ = ecx

; 108  : 		SERIALIZE_PRIMITIVE_FUNC(char)

	push	ebp
	mov	ebp, esp
	push	ecx
	mov	DWORD PTR _this$[ebp], ecx
	push	1
	mov	eax, DWORD PTR _value$[ebp]
	push	eax
	mov	ecx, DWORD PTR _this$[ebp]
	call	?serialize@Archive@Ogre@@QAEAAV12@PAXI@Z ; Ogre::Archive::serialize
	mov	eax, DWORD PTR _this$[ebp]
	mov	esp, ebp
	pop	ebp
	ret	4
??6Archive@Ogre@@QAEAAV01@AAD@Z ENDP			; Ogre::Archive::operator<<
_TEXT	ENDS
PUBLIC	??6Archive@Ogre@@QAEAAV01@AAF@Z			; Ogre::Archive::operator<<
; Function compile flags: /Odtp
;	COMDAT ??6Archive@Ogre@@QAEAAV01@AAF@Z
_TEXT	SEGMENT
_this$ = -4						; size = 4
_value$ = 8						; size = 4
??6Archive@Ogre@@QAEAAV01@AAF@Z PROC			; Ogre::Archive::operator<<, COMDAT
; _this$ = ecx

; 109  : 		SERIALIZE_PRIMITIVE_FUNC(short)

	push	ebp
	mov	ebp, esp
	push	ecx
	mov	DWORD PTR _this$[ebp], ecx
	push	2
	mov	eax, DWORD PTR _value$[ebp]
	push	eax
	mov	ecx, DWORD PTR _this$[ebp]
	call	?serialize@Archive@Ogre@@QAEAAV12@PAXI@Z ; Ogre::Archive::serialize
	mov	eax, DWORD PTR _this$[ebp]
	mov	esp, ebp
	pop	ebp
	ret	4
??6Archive@Ogre@@QAEAAV01@AAF@Z ENDP			; Ogre::Archive::operator<<
_TEXT	ENDS
PUBLIC	??6Archive@Ogre@@QAEAAV01@AAH@Z			; Ogre::Archive::operator<<
; Function compile flags: /Odtp
;	COMDAT ??6Archive@Ogre@@QAEAAV01@AAH@Z
_TEXT	SEGMENT
_this$ = -4						; size = 4
_value$ = 8						; size = 4
??6Archive@Ogre@@QAEAAV01@AAH@Z PROC			; Ogre::Archive::operator<<, COMDAT
; _this$ = ecx

; 110  : 		SERIALIZE_PRIMITIVE_FUNC(int)

	push	ebp
	mov	ebp, esp
	push	ecx
	mov	DWORD PTR _this$[ebp], ecx
	push	4
	mov	eax, DWORD PTR _value$[ebp]
	push	eax
	mov	ecx, DWORD PTR _this$[ebp]
	call	?serialize@Archive@Ogre@@QAEAAV12@PAXI@Z ; Ogre::Archive::serialize
	mov	eax, DWORD PTR _this$[ebp]
	mov	esp, ebp
	pop	ebp
	ret	4
??6Archive@Ogre@@QAEAAV01@AAH@Z ENDP			; Ogre::Archive::operator<<
_TEXT	ENDS
PUBLIC	??6Archive@Ogre@@QAEAAV01@AA_J@Z		; Ogre::Archive::operator<<
; Function compile flags: /Odtp
;	COMDAT ??6Archive@Ogre@@QAEAAV01@AA_J@Z
_TEXT	SEGMENT
_this$ = -4						; size = 4
_value$ = 8						; size = 4
??6Archive@Ogre@@QAEAAV01@AA_J@Z PROC			; Ogre::Archive::operator<<, COMDAT
; _this$ = ecx

; 111  : 		SERIALIZE_PRIMITIVE_FUNC(int64)

	push	ebp
	mov	ebp, esp
	push	ecx
	mov	DWORD PTR _this$[ebp], ecx
	push	8
	mov	eax, DWORD PTR _value$[ebp]
	push	eax
	mov	ecx, DWORD PTR _this$[ebp]
	call	?serialize@Archive@Ogre@@QAEAAV12@PAXI@Z ; Ogre::Archive::serialize
	mov	eax, DWORD PTR _this$[ebp]
	mov	esp, ebp
	pop	ebp
	ret	4
??6Archive@Ogre@@QAEAAV01@AA_J@Z ENDP			; Ogre::Archive::operator<<
_TEXT	ENDS
PUBLIC	??6Archive@Ogre@@QAEAAV01@AAE@Z			; Ogre::Archive::operator<<
; Function compile flags: /Odtp
;	COMDAT ??6Archive@Ogre@@QAEAAV01@AAE@Z
_TEXT	SEGMENT
_this$ = -4						; size = 4
_value$ = 8						; size = 4
??6Archive@Ogre@@QAEAAV01@AAE@Z PROC			; Ogre::Archive::operator<<, COMDAT
; _this$ = ecx

; 112  : 		SERIALIZE_PRIMITIVE_FUNC(uchar)

	push	ebp
	mov	ebp, esp
	push	ecx
	mov	DWORD PTR _this$[ebp], ecx
	push	1
	mov	eax, DWORD PTR _value$[ebp]
	push	eax
	mov	ecx, DWORD PTR _this$[ebp]
	call	?serialize@Archive@Ogre@@QAEAAV12@PAXI@Z ; Ogre::Archive::serialize
	mov	eax, DWORD PTR _this$[ebp]
	mov	esp, ebp
	pop	ebp
	ret	4
??6Archive@Ogre@@QAEAAV01@AAE@Z ENDP			; Ogre::Archive::operator<<
_TEXT	ENDS
PUBLIC	??6Archive@Ogre@@QAEAAV01@AAG@Z			; Ogre::Archive::operator<<
; Function compile flags: /Odtp
;	COMDAT ??6Archive@Ogre@@QAEAAV01@AAG@Z
_TEXT	SEGMENT
_this$ = -4						; size = 4
_value$ = 8						; size = 4
??6Archive@Ogre@@QAEAAV01@AAG@Z PROC			; Ogre::Archive::operator<<, COMDAT
; _this$ = ecx

; 113  : 		SERIALIZE_PRIMITIVE_FUNC(ushort)

	push	ebp
	mov	ebp, esp
	push	ecx
	mov	DWORD PTR _this$[ebp], ecx
	push	2
	mov	eax, DWORD PTR _value$[ebp]
	push	eax
	mov	ecx, DWORD PTR _this$[ebp]
	call	?serialize@Archive@Ogre@@QAEAAV12@PAXI@Z ; Ogre::Archive::serialize
	mov	eax, DWORD PTR _this$[ebp]
	mov	esp, ebp
	pop	ebp
	ret	4
??6Archive@Ogre@@QAEAAV01@AAG@Z ENDP			; Ogre::Archive::operator<<
_TEXT	ENDS
PUBLIC	??6Archive@Ogre@@QAEAAV01@AAI@Z			; Ogre::Archive::operator<<
; Function compile flags: /Odtp
;	COMDAT ??6Archive@Ogre@@QAEAAV01@AAI@Z
_TEXT	SEGMENT
_this$ = -4						; size = 4
_value$ = 8						; size = 4
??6Archive@Ogre@@QAEAAV01@AAI@Z PROC			; Ogre::Archive::operator<<, COMDAT
; _this$ = ecx

; 114  : 		SERIALIZE_PRIMITIVE_FUNC(uint)

	push	ebp
	mov	ebp, esp
	push	ecx
	mov	DWORD PTR _this$[ebp], ecx
	push	4
	mov	eax, DWORD PTR _value$[ebp]
	push	eax
	mov	ecx, DWORD PTR _this$[ebp]
	call	?serialize@Archive@Ogre@@QAEAAV12@PAXI@Z ; Ogre::Archive::serialize
	mov	eax, DWORD PTR _this$[ebp]
	mov	esp, ebp
	pop	ebp
	ret	4
??6Archive@Ogre@@QAEAAV01@AAI@Z ENDP			; Ogre::Archive::operator<<
_TEXT	ENDS
PUBLIC	??6Archive@Ogre@@QAEAAV01@AA_K@Z		; Ogre::Archive::operator<<
; Function compile flags: /Odtp
;	COMDAT ??6Archive@Ogre@@QAEAAV01@AA_K@Z
_TEXT	SEGMENT
_this$ = -4						; size = 4
_value$ = 8						; size = 4
??6Archive@Ogre@@QAEAAV01@AA_K@Z PROC			; Ogre::Archive::operator<<, COMDAT
; _this$ = ecx

; 115  : 		SERIALIZE_PRIMITIVE_FUNC(uint64)

	push	ebp
	mov	ebp, esp
	push	ecx
	mov	DWORD PTR _this$[ebp], ecx
	push	8
	mov	eax, DWORD PTR _value$[ebp]
	push	eax
	mov	ecx, DWORD PTR _this$[ebp]
	call	?serialize@Archive@Ogre@@QAEAAV12@PAXI@Z ; Ogre::Archive::serialize
	mov	eax, DWORD PTR _this$[ebp]
	mov	esp, ebp
	pop	ebp
	ret	4
??6Archive@Ogre@@QAEAAV01@AA_K@Z ENDP			; Ogre::Archive::operator<<
_TEXT	ENDS
PUBLIC	??6Archive@Ogre@@QAEAAV01@AA_N@Z		; Ogre::Archive::operator<<
; Function compile flags: /Odtp
;	COMDAT ??6Archive@Ogre@@QAEAAV01@AA_N@Z
_TEXT	SEGMENT
_this$ = -4						; size = 4
_value$ = 8						; size = 4
??6Archive@Ogre@@QAEAAV01@AA_N@Z PROC			; Ogre::Archive::operator<<, COMDAT
; _this$ = ecx

; 116  : 		SERIALIZE_PRIMITIVE_FUNC(bool)

	push	ebp
	mov	ebp, esp
	push	ecx
	mov	DWORD PTR _this$[ebp], ecx
	push	1
	mov	eax, DWORD PTR _value$[ebp]
	push	eax
	mov	ecx, DWORD PTR _this$[ebp]
	call	?serialize@Archive@Ogre@@QAEAAV12@PAXI@Z ; Ogre::Archive::serialize
	mov	eax, DWORD PTR _this$[ebp]
	mov	esp, ebp
	pop	ebp
	ret	4
??6Archive@Ogre@@QAEAAV01@AA_N@Z ENDP			; Ogre::Archive::operator<<
_TEXT	ENDS
PUBLIC	??6Archive@Ogre@@QAEAAV01@AAM@Z			; Ogre::Archive::operator<<
; Function compile flags: /Odtp
;	COMDAT ??6Archive@Ogre@@QAEAAV01@AAM@Z
_TEXT	SEGMENT
_this$ = -4						; size = 4
_value$ = 8						; size = 4
??6Archive@Ogre@@QAEAAV01@AAM@Z PROC			; Ogre::Archive::operator<<, COMDAT
; _this$ = ecx

; 117  : 		SERIALIZE_PRIMITIVE_FUNC(float)

	push	ebp
	mov	ebp, esp
	push	ecx
	mov	DWORD PTR _this$[ebp], ecx
	push	4
	mov	eax, DWORD PTR _value$[ebp]
	push	eax
	mov	ecx, DWORD PTR _this$[ebp]
	call	?serialize@Archive@Ogre@@QAEAAV12@PAXI@Z ; Ogre::Archive::serialize
	mov	eax, DWORD PTR _this$[ebp]
	mov	esp, ebp
	pop	ebp
	ret	4
??6Archive@Ogre@@QAEAAV01@AAM@Z ENDP			; Ogre::Archive::operator<<
; Function compile flags: /Odtp
_TEXT	ENDS
;	COMDAT ?serialize@Archive@Ogre@@QAEAAV12@PAXI@Z
_TEXT	SEGMENT
_this$ = -4						; size = 4
_pbuf$ = 8						; size = 4
_len$ = 12						; size = 4
?serialize@Archive@Ogre@@QAEAAV12@PAXI@Z PROC		; Ogre::Archive::serialize, COMDAT
; _this$ = ecx

; 155  : 		{

	push	ebp
	mov	ebp, esp
	push	ecx
	mov	DWORD PTR _this$[ebp], ecx

; 156  : 			if(isLoading()) m_pStream->read(pbuf, len);

	mov	ecx, DWORD PTR _this$[ebp]
	call	?isLoading@Archive@Ogre@@QAE_NXZ	; Ogre::Archive::isLoading
	movzx	eax, al
	test	eax, eax
	je	SHORT $LN2@serialize
	mov	ecx, DWORD PTR _len$[ebp]
	push	ecx
	mov	edx, DWORD PTR _pbuf$[ebp]
	push	edx
	mov	eax, DWORD PTR _this$[ebp]
	mov	ecx, DWORD PTR [eax+4]
	mov	edx, DWORD PTR _this$[ebp]
	mov	eax, DWORD PTR [edx+4]
	mov	edx, DWORD PTR [ecx]
	mov	ecx, eax
	mov	eax, DWORD PTR [edx+4]
	call	eax
	jmp	SHORT $LN1@serialize
$LN2@serialize:

; 157  : 			else m_pStream->write(pbuf, len);

	mov	ecx, DWORD PTR _len$[ebp]
	push	ecx
	mov	edx, DWORD PTR _pbuf$[ebp]
	push	edx
	mov	eax, DWORD PTR _this$[ebp]
	mov	ecx, DWORD PTR [eax+4]
	mov	edx, DWORD PTR _this$[ebp]
	mov	eax, DWORD PTR [edx+4]
	mov	edx, DWORD PTR [ecx]
	mov	ecx, eax
	mov	eax, DWORD PTR [edx+8]
	call	eax
$LN1@serialize:

; 158  : 
; 159  : 			return *this;

	mov	eax, DWORD PTR _this$[ebp]

; 160  : 		}

	mov	esp, ebp
	pop	ebp
	ret	8
?serialize@Archive@Ogre@@QAEAAV12@PAXI@Z ENDP		; Ogre::Archive::serialize
_TEXT	ENDS
PUBLIC	?read@Archive@Ogre@@QAEXPAXI@Z			; Ogre::Archive::read
; Function compile flags: /Odtp
;	COMDAT ?read@Archive@Ogre@@QAEXPAXI@Z
_TEXT	SEGMENT
_this$ = -4						; size = 4
_pbuf$ = 8						; size = 4
_len$ = 12						; size = 4
?read@Archive@Ogre@@QAEXPAXI@Z PROC			; Ogre::Archive::read, COMDAT
; _this$ = ecx

; 163  : 		{

	push	ebp
	mov	ebp, esp
	push	ecx
	mov	DWORD PTR _this$[ebp], ecx

; 164  : 			m_pStream->read(pbuf, len);

	mov	eax, DWORD PTR _len$[ebp]
	push	eax
	mov	ecx, DWORD PTR _pbuf$[ebp]
	push	ecx
	mov	edx, DWORD PTR _this$[ebp]
	mov	eax, DWORD PTR [edx+4]
	mov	ecx, DWORD PTR _this$[ebp]
	mov	ecx, DWORD PTR [ecx+4]
	mov	edx, DWORD PTR [eax]
	mov	eax, DWORD PTR [edx+4]
	call	eax

; 165  : 		}

	mov	esp, ebp
	pop	ebp
	ret	8
?read@Archive@Ogre@@QAEXPAXI@Z ENDP			; Ogre::Archive::read
_TEXT	ENDS
PUBLIC	?write@Archive@Ogre@@QAEXPBXI@Z			; Ogre::Archive::write
; Function compile flags: /Odtp
;	COMDAT ?write@Archive@Ogre@@QAEXPBXI@Z
_TEXT	SEGMENT
_this$ = -4						; size = 4
_pbuf$ = 8						; size = 4
_len$ = 12						; size = 4
?write@Archive@Ogre@@QAEXPBXI@Z PROC			; Ogre::Archive::write, COMDAT
; _this$ = ecx

; 168  : 		{

	push	ebp
	mov	ebp, esp
	push	ecx
	mov	DWORD PTR _this$[ebp], ecx

; 169  : 			m_pStream->write(pbuf, len);

	mov	eax, DWORD PTR _len$[ebp]
	push	eax
	mov	ecx, DWORD PTR _pbuf$[ebp]
	push	ecx
	mov	edx, DWORD PTR _this$[ebp]
	mov	eax, DWORD PTR [edx+4]
	mov	ecx, DWORD PTR _this$[ebp]
	mov	ecx, DWORD PTR [ecx+4]
	mov	edx, DWORD PTR [eax]
	mov	eax, DWORD PTR [edx+8]
	call	eax

; 170  : 		}

	mov	esp, ebp
	pop	ebp
	ret	8
?write@Archive@Ogre@@QAEXPBXI@Z ENDP			; Ogre::Archive::write
_TEXT	ENDS
PUBLIC	??0Archive@Ogre@@QAE@ABV01@@Z			; Ogre::Archive::Archive
; Function compile flags: /Odtp
;	COMDAT ??0Archive@Ogre@@QAE@ABV01@@Z
_TEXT	SEGMENT
_this$ = -4						; size = 4
___that$ = 8						; size = 4
??0Archive@Ogre@@QAE@ABV01@@Z PROC			; Ogre::Archive::Archive, COMDAT
; _this$ = ecx
	push	ebp
	mov	ebp, esp
	push	ecx
	mov	DWORD PTR _this$[ebp], ecx
	mov	eax, DWORD PTR _this$[ebp]
	mov	DWORD PTR [eax], OFFSET ??_7Archive@Ogre@@6B@
	mov	ecx, DWORD PTR _this$[ebp]
	mov	edx, DWORD PTR ___that$[ebp]
	mov	eax, DWORD PTR [edx+4]
	mov	DWORD PTR [ecx+4], eax
	mov	ecx, DWORD PTR _this$[ebp]
	mov	edx, DWORD PTR ___that$[ebp]
	mov	eax, DWORD PTR [edx+8]
	mov	DWORD PTR [ecx+8], eax
	mov	eax, DWORD PTR _this$[ebp]
	mov	esp, ebp
	pop	ebp
	ret	4
??0Archive@Ogre@@QAE@ABV01@@Z ENDP			; Ogre::Archive::Archive
_TEXT	ENDS
PUBLIC	??4Archive@Ogre@@QAEAAV01@ABV01@@Z		; Ogre::Archive::operator=
; Function compile flags: /Odtp
;	COMDAT ??4Archive@Ogre@@QAEAAV01@ABV01@@Z
_TEXT	SEGMENT
_this$ = -4						; size = 4
___that$ = 8						; size = 4
??4Archive@Ogre@@QAEAAV01@ABV01@@Z PROC			; Ogre::Archive::operator=, COMDAT
; _this$ = ecx
	push	ebp
	mov	ebp, esp
	push	ecx
	mov	DWORD PTR _this$[ebp], ecx
	mov	eax, DWORD PTR _this$[ebp]
	mov	ecx, DWORD PTR ___that$[ebp]
	mov	edx, DWORD PTR [ecx+4]
	mov	DWORD PTR [eax+4], edx
	mov	eax, DWORD PTR _this$[ebp]
	mov	ecx, DWORD PTR ___that$[ebp]
	mov	edx, DWORD PTR [ecx+8]
	mov	DWORD PTR [eax+8], edx
	mov	eax, DWORD PTR _this$[ebp]
	mov	esp, ebp
	pop	ebp
	ret	4
??4Archive@Ogre@@QAEAAV01@ABV01@@Z ENDP			; Ogre::Archive::operator=
_TEXT	ENDS
PUBLIC	??_GArchive@Ogre@@UAEPAXI@Z			; Ogre::Archive::`scalar deleting destructor'
; Function compile flags: /Odtp
;	COMDAT ??_GArchive@Ogre@@UAEPAXI@Z
_TEXT	SEGMENT
_this$ = -4						; size = 4
___flags$ = 8						; size = 4
??_GArchive@Ogre@@UAEPAXI@Z PROC			; Ogre::Archive::`scalar deleting destructor', COMDAT
; _this$ = ecx
	push	ebp
	mov	ebp, esp
	push	ecx
	mov	DWORD PTR _this$[ebp], ecx
	mov	ecx, DWORD PTR _this$[ebp]
	call	??1Archive@Ogre@@UAE@XZ			; Ogre::Archive::~Archive
	mov	eax, DWORD PTR ___flags$[ebp]
	and	eax, 1
	je	SHORT $LN1@scalar@8
	mov	ecx, DWORD PTR _this$[ebp]
	push	ecx
	call	??3@YAXPAX@Z				; operator delete
	add	esp, 4
$LN1@scalar@8:
	mov	eax, DWORD PTR _this$[ebp]
	mov	esp, ebp
	pop	ebp
	ret	4
??_GArchive@Ogre@@UAEPAXI@Z ENDP			; Ogre::Archive::`scalar deleting destructor'
; Function compile flags: /Odtp
_TEXT	ENDS
;	COMDAT ??_EArchive@Ogre@@UAEPAXI@Z
_TEXT	SEGMENT
_this$ = -4						; size = 4
___flags$ = 8						; size = 4
??_EArchive@Ogre@@UAEPAXI@Z PROC			; Ogre::Archive::`vector deleting destructor', COMDAT
; _this$ = ecx
	push	ebp
	mov	ebp, esp
	push	ecx
	mov	DWORD PTR _this$[ebp], ecx
	mov	eax, DWORD PTR ___flags$[ebp]
	and	eax, 2
	je	SHORT $LN3@vector@8
	push	OFFSET ??1Archive@Ogre@@UAE@XZ		; Ogre::Archive::~Archive
	mov	ecx, DWORD PTR _this$[ebp]
	mov	edx, DWORD PTR [ecx-4]
	push	edx
	push	12					; 0000000cH
	mov	eax, DWORD PTR _this$[ebp]
	push	eax
	call	??_M@YGXPAXIHP6EX0@Z@Z
	mov	ecx, DWORD PTR ___flags$[ebp]
	and	ecx, 1
	je	SHORT $LN2@vector@8
	mov	edx, DWORD PTR _this$[ebp]
	sub	edx, 4
	push	edx
	call	??_V@YAXPAX@Z				; operator delete[]
	add	esp, 4
$LN2@vector@8:
	mov	eax, DWORD PTR _this$[ebp]
	sub	eax, 4
	jmp	SHORT $LN4@vector@8
$LN3@vector@8:
	mov	ecx, DWORD PTR _this$[ebp]
	call	??1Archive@Ogre@@UAE@XZ			; Ogre::Archive::~Archive
	mov	eax, DWORD PTR ___flags$[ebp]
	and	eax, 1
	je	SHORT $LN1@vector@8
	mov	ecx, DWORD PTR _this$[ebp]
	push	ecx
	call	??3@YAXPAX@Z				; operator delete
	add	esp, 4
$LN1@vector@8:
	mov	eax, DWORD PTR _this$[ebp]
$LN4@vector@8:
	mov	esp, ebp
	pop	ebp
	ret	4
??_EArchive@Ogre@@UAEPAXI@Z ENDP			; Ogre::Archive::`vector deleting destructor'
_TEXT	ENDS
PUBLIC	??0ColourValue@Ogre@@QAE@MMMM@Z			; Ogre::ColourValue::ColourValue
EXTRN	__fltused:DWORD
; Function compile flags: /Odtp
; File i:\svnroot\client\ogremain\ogrecolourvalue.h
;	COMDAT ??0ColourValue@Ogre@@QAE@MMMM@Z
_TEXT	SEGMENT
_this$ = -4						; size = 4
_red$ = 8						; size = 4
_green$ = 12						; size = 4
_blue$ = 16						; size = 4
_alpha$ = 20						; size = 4
??0ColourValue@Ogre@@QAE@MMMM@Z PROC			; Ogre::ColourValue::ColourValue, COMDAT
; _this$ = ecx

; 68   : 		{ }

	push	ebp
	mov	ebp, esp
	push	ecx
	mov	DWORD PTR _this$[ebp], ecx
	mov	eax, DWORD PTR _this$[ebp]
	fld	DWORD PTR _red$[ebp]
	fstp	DWORD PTR [eax]
	mov	ecx, DWORD PTR _this$[ebp]
	fld	DWORD PTR _green$[ebp]
	fstp	DWORD PTR [ecx+4]
	mov	edx, DWORD PTR _this$[ebp]
	fld	DWORD PTR _blue$[ebp]
	fstp	DWORD PTR [edx+8]
	mov	eax, DWORD PTR _this$[ebp]
	fld	DWORD PTR _alpha$[ebp]
	fstp	DWORD PTR [eax+12]
	mov	eax, DWORD PTR _this$[ebp]
	mov	esp, ebp
	pop	ebp
	ret	16					; 00000010H
??0ColourValue@Ogre@@QAE@MMMM@Z ENDP			; Ogre::ColourValue::ColourValue
_TEXT	ENDS
PUBLIC	?set@ColourValue@Ogre@@QAEXMMMM@Z		; Ogre::ColourValue::set
; Function compile flags: /Odtp
;	COMDAT ?set@ColourValue@Ogre@@QAEXMMMM@Z
_TEXT	SEGMENT
_this$ = -4						; size = 4
_red$ = 8						; size = 4
_green$ = 12						; size = 4
_blue$ = 16						; size = 4
_alpha$ = 20						; size = 4
?set@ColourValue@Ogre@@QAEXMMMM@Z PROC			; Ogre::ColourValue::set, COMDAT
; _this$ = ecx

; 76   : 		{

	push	ebp
	mov	ebp, esp
	push	ecx
	mov	DWORD PTR _this$[ebp], ecx

; 77   : 			r	= red;

	mov	eax, DWORD PTR _this$[ebp]
	fld	DWORD PTR _red$[ebp]
	fstp	DWORD PTR [eax]

; 78   : 			g	= green;

	mov	ecx, DWORD PTR _this$[ebp]
	fld	DWORD PTR _green$[ebp]
	fstp	DWORD PTR [ecx+4]

; 79   : 			b	= blue;

	mov	edx, DWORD PTR _this$[ebp]
	fld	DWORD PTR _blue$[ebp]
	fstp	DWORD PTR [edx+8]

; 80   : 			a	= alpha;

	mov	eax, DWORD PTR _this$[ebp]
	fld	DWORD PTR _alpha$[ebp]
	fstp	DWORD PTR [eax+12]

; 81   : 		}

	mov	esp, ebp
	pop	ebp
	ret	16					; 00000010H
?set@ColourValue@Ogre@@QAEXMMMM@Z ENDP			; Ogre::ColourValue::set
_TEXT	ENDS
PUBLIC	__real@3f800000
PUBLIC	__real@3ff0000000000000
PUBLIC	__real@00000000
PUBLIC	__real@0000000000000000
PUBLIC	?saturate@ColourValue@Ogre@@QAEXXZ		; Ogre::ColourValue::saturate
;	COMDAT __real@3f800000
CONST	SEGMENT
__real@3f800000 DD 03f800000r			; 1
CONST	ENDS
;	COMDAT __real@3ff0000000000000
CONST	SEGMENT
__real@3ff0000000000000 DQ 03ff0000000000000r	; 1
CONST	ENDS
;	COMDAT __real@00000000
CONST	SEGMENT
__real@00000000 DD 000000000r			; 0
CONST	ENDS
;	COMDAT __real@0000000000000000
CONST	SEGMENT
__real@0000000000000000 DQ 00000000000000000r	; 0
; Function compile flags: /Odtp
CONST	ENDS
;	COMDAT ?saturate@ColourValue@Ogre@@QAEXXZ
_TEXT	SEGMENT
_this$ = -4						; size = 4
?saturate@ColourValue@Ogre@@QAEXXZ PROC			; Ogre::ColourValue::saturate, COMDAT
; _this$ = ecx

; 117  : 		{

	push	ebp
	mov	ebp, esp
	push	ecx
	mov	DWORD PTR _this$[ebp], ecx

; 118  : 			if (r < 0)

	mov	eax, DWORD PTR _this$[ebp]
	fld	DWORD PTR [eax]
	fcomp	QWORD PTR __real@0000000000000000
	fnstsw	ax
	test	ah, 5
	jp	SHORT $LN12@saturate

; 119  : 				r = 0;

	mov	ecx, DWORD PTR _this$[ebp]
	fldz
	fstp	DWORD PTR [ecx]
	jmp	SHORT $LN10@saturate
$LN12@saturate:

; 120  : 			else if (r > 1)

	mov	edx, DWORD PTR _this$[ebp]
	fld	DWORD PTR [edx]
	fcomp	QWORD PTR __real@3ff0000000000000
	fnstsw	ax
	test	ah, 65					; 00000041H
	jne	SHORT $LN10@saturate

; 121  : 				r = 1;

	mov	eax, DWORD PTR _this$[ebp]
	fld1
	fstp	DWORD PTR [eax]
$LN10@saturate:

; 122  : 
; 123  : 			if (g < 0)

	mov	ecx, DWORD PTR _this$[ebp]
	fld	DWORD PTR [ecx+4]
	fcomp	QWORD PTR __real@0000000000000000
	fnstsw	ax
	test	ah, 5
	jp	SHORT $LN9@saturate

; 124  : 				g = 0;

	mov	edx, DWORD PTR _this$[ebp]
	fldz
	fstp	DWORD PTR [edx+4]
	jmp	SHORT $LN7@saturate
$LN9@saturate:

; 125  : 			else if (g > 1)

	mov	eax, DWORD PTR _this$[ebp]
	fld	DWORD PTR [eax+4]
	fcomp	QWORD PTR __real@3ff0000000000000
	fnstsw	ax
	test	ah, 65					; 00000041H
	jne	SHORT $LN7@saturate

; 126  : 				g = 1;

	mov	ecx, DWORD PTR _this$[ebp]
	fld1
	fstp	DWORD PTR [ecx+4]
$LN7@saturate:

; 127  : 
; 128  : 			if (b < 0)

	mov	edx, DWORD PTR _this$[ebp]
	fld	DWORD PTR [edx+8]
	fcomp	QWORD PTR __real@0000000000000000
	fnstsw	ax
	test	ah, 5
	jp	SHORT $LN6@saturate

; 129  : 				b = 0;

	mov	eax, DWORD PTR _this$[ebp]
	fldz
	fstp	DWORD PTR [eax+8]
	jmp	SHORT $LN4@saturate
$LN6@saturate:

; 130  : 			else if (b > 1)

	mov	ecx, DWORD PTR _this$[ebp]
	fld	DWORD PTR [ecx+8]
	fcomp	QWORD PTR __real@3ff0000000000000
	fnstsw	ax
	test	ah, 65					; 00000041H
	jne	SHORT $LN4@saturate

; 131  : 				b = 1;

	mov	edx, DWORD PTR _this$[ebp]
	fld1
	fstp	DWORD PTR [edx+8]
$LN4@saturate:

; 132  : 
; 133  : 			if (a < 0)

	mov	eax, DWORD PTR _this$[ebp]
	fld	DWORD PTR [eax+12]
	fcomp	QWORD PTR __real@0000000000000000
	fnstsw	ax
	test	ah, 5
	jp	SHORT $LN3@saturate

; 134  : 				a = 0;

	mov	ecx, DWORD PTR _this$[ebp]
	fldz
	fstp	DWORD PTR [ecx+12]
	jmp	SHORT $LN1@saturate
$LN3@saturate:

; 135  : 			else if (a > 1)

	mov	edx, DWORD PTR _this$[ebp]
	fld	DWORD PTR [edx+12]
	fcomp	QWORD PTR __real@3ff0000000000000
	fnstsw	ax
	test	ah, 65					; 00000041H
	jne	SHORT $LN1@saturate

; 136  : 				a = 1;

	mov	eax, DWORD PTR _this$[ebp]
	fld1
	fstp	DWORD PTR [eax+12]
$LN1@saturate:

; 137  : 		}

	mov	esp, ebp
	pop	ebp
	ret	0
?saturate@ColourValue@Ogre@@QAEXXZ ENDP			; Ogre::ColourValue::saturate
_TEXT	ENDS
PUBLIC	?saturateCopy@ColourValue@Ogre@@QBE?AV12@XZ	; Ogre::ColourValue::saturateCopy
; Function compile flags: /Odtp
;	COMDAT ?saturateCopy@ColourValue@Ogre@@QBE?AV12@XZ
_TEXT	SEGMENT
_this$ = -20						; size = 4
_ret$ = -16						; size = 16
___$ReturnUdt$ = 8					; size = 4
?saturateCopy@ColourValue@Ogre@@QBE?AV12@XZ PROC	; Ogre::ColourValue::saturateCopy, COMDAT
; _this$ = ecx

; 142  : 		{

	push	ebp
	mov	ebp, esp
	sub	esp, 20					; 00000014H
	mov	DWORD PTR _this$[ebp], ecx

; 143  : 			ColourValue ret = *this;

	mov	eax, DWORD PTR _this$[ebp]
	mov	ecx, DWORD PTR [eax]
	mov	DWORD PTR _ret$[ebp], ecx
	mov	edx, DWORD PTR [eax+4]
	mov	DWORD PTR _ret$[ebp+4], edx
	mov	ecx, DWORD PTR [eax+8]
	mov	DWORD PTR _ret$[ebp+8], ecx
	mov	edx, DWORD PTR [eax+12]
	mov	DWORD PTR _ret$[ebp+12], edx

; 144  : 			ret.saturate();

	lea	ecx, DWORD PTR _ret$[ebp]
	call	?saturate@ColourValue@Ogre@@QAEXXZ	; Ogre::ColourValue::saturate

; 145  : 			return ret;

	mov	eax, DWORD PTR ___$ReturnUdt$[ebp]
	mov	ecx, DWORD PTR _ret$[ebp]
	mov	DWORD PTR [eax], ecx
	mov	edx, DWORD PTR _ret$[ebp+4]
	mov	DWORD PTR [eax+4], edx
	mov	ecx, DWORD PTR _ret$[ebp+8]
	mov	DWORD PTR [eax+8], ecx
	mov	edx, DWORD PTR _ret$[ebp+12]
	mov	DWORD PTR [eax+12], edx
	mov	eax, DWORD PTR ___$ReturnUdt$[ebp]

; 146  : 		}

	mov	esp, ebp
	pop	ebp
	ret	4
?saturateCopy@ColourValue@Ogre@@QBE?AV12@XZ ENDP	; Ogre::ColourValue::saturateCopy
_TEXT	ENDS
PUBLIC	??AColourValue@Ogre@@QBEMI@Z			; Ogre::ColourValue::operator[]
; Function compile flags: /Odtp
;	COMDAT ??AColourValue@Ogre@@QBEMI@Z
_TEXT	SEGMENT
_this$ = -4						; size = 4
_i$ = 8							; size = 4
??AColourValue@Ogre@@QBEMI@Z PROC			; Ogre::ColourValue::operator[], COMDAT
; _this$ = ecx

; 150  : 		{

	push	ebp
	mov	ebp, esp
	push	ecx
	mov	DWORD PTR _this$[ebp], ecx

; 151  : 			assert( i < 4 );
; 152  : 
; 153  : 			return *(&r+i);

	mov	eax, DWORD PTR _i$[ebp]
	mov	ecx, DWORD PTR _this$[ebp]
	fld	DWORD PTR [ecx+eax*4]

; 154  : 		}

	mov	esp, ebp
	pop	ebp
	ret	4
??AColourValue@Ogre@@QBEMI@Z ENDP			; Ogre::ColourValue::operator[]
_TEXT	ENDS
PUBLIC	??AColourValue@Ogre@@QAEAAMI@Z			; Ogre::ColourValue::operator[]
; Function compile flags: /Odtp
;	COMDAT ??AColourValue@Ogre@@QAEAAMI@Z
_TEXT	SEGMENT
_this$ = -4						; size = 4
_i$ = 8							; size = 4
??AColourValue@Ogre@@QAEAAMI@Z PROC			; Ogre::ColourValue::operator[], COMDAT
; _this$ = ecx

; 158  : 		{

	push	ebp
	mov	ebp, esp
	push	ecx
	mov	DWORD PTR _this$[ebp], ecx

; 159  : 			assert( i < 4 );
; 160  : 
; 161  : 			return *(&r+i);

	mov	eax, DWORD PTR _i$[ebp]
	mov	ecx, DWORD PTR _this$[ebp]
	lea	eax, DWORD PTR [ecx+eax*4]

; 162  : 		}

	mov	esp, ebp
	pop	ebp
	ret	4
??AColourValue@Ogre@@QAEAAMI@Z ENDP			; Ogre::ColourValue::operator[]
_TEXT	ENDS
PUBLIC	?ptr@ColourValue@Ogre@@QAEPAMXZ			; Ogre::ColourValue::ptr
; Function compile flags: /Odtp
;	COMDAT ?ptr@ColourValue@Ogre@@QAEPAMXZ
_TEXT	SEGMENT
_this$ = -4						; size = 4
?ptr@ColourValue@Ogre@@QAEPAMXZ PROC			; Ogre::ColourValue::ptr, COMDAT
; _this$ = ecx

; 166  : 		{

	push	ebp
	mov	ebp, esp
	push	ecx
	mov	DWORD PTR _this$[ebp], ecx

; 167  : 			return &r;

	mov	eax, DWORD PTR _this$[ebp]

; 168  : 		}

	mov	esp, ebp
	pop	ebp
	ret	0
?ptr@ColourValue@Ogre@@QAEPAMXZ ENDP			; Ogre::ColourValue::ptr
_TEXT	ENDS
PUBLIC	?ptr@ColourValue@Ogre@@QBEPBMXZ			; Ogre::ColourValue::ptr
; Function compile flags: /Odtp
;	COMDAT ?ptr@ColourValue@Ogre@@QBEPBMXZ
_TEXT	SEGMENT
_this$ = -4						; size = 4
?ptr@ColourValue@Ogre@@QBEPBMXZ PROC			; Ogre::ColourValue::ptr, COMDAT
; _this$ = ecx

; 171  : 		{

	push	ebp
	mov	ebp, esp
	push	ecx
	mov	DWORD PTR _this$[ebp], ecx

; 172  : 			return &r;

	mov	eax, DWORD PTR _this$[ebp]

; 173  : 		}

	mov	esp, ebp
	pop	ebp
	ret	0
?ptr@ColourValue@Ogre@@QBEPBMXZ ENDP			; Ogre::ColourValue::ptr
_TEXT	ENDS
PUBLIC	??HColourValue@Ogre@@QBE?AV01@ABV01@@Z		; Ogre::ColourValue::operator+
; Function compile flags: /Odtp
;	COMDAT ??HColourValue@Ogre@@QBE?AV01@ABV01@@Z
_TEXT	SEGMENT
_this$ = -20						; size = 4
_kSum$ = -16						; size = 16
___$ReturnUdt$ = 8					; size = 4
_rkVector$ = 12						; size = 4
??HColourValue@Ogre@@QBE?AV01@ABV01@@Z PROC		; Ogre::ColourValue::operator+, COMDAT
; _this$ = ecx

; 178  : 		{

	push	ebp
	mov	ebp, esp
	sub	esp, 20					; 00000014H
	mov	DWORD PTR _this$[ebp], ecx

; 179  : 			ColourValue kSum;

	push	ecx
	fld1
	fstp	DWORD PTR [esp]
	push	ecx
	fld1
	fstp	DWORD PTR [esp]
	push	ecx
	fld1
	fstp	DWORD PTR [esp]
	push	ecx
	fld1
	fstp	DWORD PTR [esp]
	lea	ecx, DWORD PTR _kSum$[ebp]
	call	??0ColourValue@Ogre@@QAE@MMMM@Z		; Ogre::ColourValue::ColourValue

; 180  : 
; 181  : 			kSum.r = r + rkVector.r;

	mov	eax, DWORD PTR _this$[ebp]
	fld	DWORD PTR [eax]
	mov	ecx, DWORD PTR _rkVector$[ebp]
	fadd	DWORD PTR [ecx]
	fstp	DWORD PTR _kSum$[ebp]

; 182  : 			kSum.g = g + rkVector.g;

	mov	edx, DWORD PTR _this$[ebp]
	fld	DWORD PTR [edx+4]
	mov	eax, DWORD PTR _rkVector$[ebp]
	fadd	DWORD PTR [eax+4]
	fstp	DWORD PTR _kSum$[ebp+4]

; 183  : 			kSum.b = b + rkVector.b;

	mov	ecx, DWORD PTR _this$[ebp]
	fld	DWORD PTR [ecx+8]
	mov	edx, DWORD PTR _rkVector$[ebp]
	fadd	DWORD PTR [edx+8]
	fstp	DWORD PTR _kSum$[ebp+8]

; 184  : 			kSum.a = a + rkVector.a;

	mov	eax, DWORD PTR _this$[ebp]
	fld	DWORD PTR [eax+12]
	mov	ecx, DWORD PTR _rkVector$[ebp]
	fadd	DWORD PTR [ecx+12]
	fstp	DWORD PTR _kSum$[ebp+12]

; 185  : 
; 186  : 			return kSum;

	mov	edx, DWORD PTR ___$ReturnUdt$[ebp]
	mov	eax, DWORD PTR _kSum$[ebp]
	mov	DWORD PTR [edx], eax
	mov	ecx, DWORD PTR _kSum$[ebp+4]
	mov	DWORD PTR [edx+4], ecx
	mov	eax, DWORD PTR _kSum$[ebp+8]
	mov	DWORD PTR [edx+8], eax
	mov	ecx, DWORD PTR _kSum$[ebp+12]
	mov	DWORD PTR [edx+12], ecx
	mov	eax, DWORD PTR ___$ReturnUdt$[ebp]

; 187  : 		}

	mov	esp, ebp
	pop	ebp
	ret	8
??HColourValue@Ogre@@QBE?AV01@ABV01@@Z ENDP		; Ogre::ColourValue::operator+
_TEXT	ENDS
PUBLIC	??GColourValue@Ogre@@QBE?AV01@ABV01@@Z		; Ogre::ColourValue::operator-
; Function compile flags: /Odtp
;	COMDAT ??GColourValue@Ogre@@QBE?AV01@ABV01@@Z
_TEXT	SEGMENT
_this$ = -20						; size = 4
_kDiff$ = -16						; size = 16
___$ReturnUdt$ = 8					; size = 4
_rkVector$ = 12						; size = 4
??GColourValue@Ogre@@QBE?AV01@ABV01@@Z PROC		; Ogre::ColourValue::operator-, COMDAT
; _this$ = ecx

; 190  : 		{

	push	ebp
	mov	ebp, esp
	sub	esp, 20					; 00000014H
	mov	DWORD PTR _this$[ebp], ecx

; 191  : 			ColourValue kDiff;

	push	ecx
	fld1
	fstp	DWORD PTR [esp]
	push	ecx
	fld1
	fstp	DWORD PTR [esp]
	push	ecx
	fld1
	fstp	DWORD PTR [esp]
	push	ecx
	fld1
	fstp	DWORD PTR [esp]
	lea	ecx, DWORD PTR _kDiff$[ebp]
	call	??0ColourValue@Ogre@@QAE@MMMM@Z		; Ogre::ColourValue::ColourValue

; 192  : 
; 193  : 			kDiff.r = r - rkVector.r;

	mov	eax, DWORD PTR _this$[ebp]
	fld	DWORD PTR [eax]
	mov	ecx, DWORD PTR _rkVector$[ebp]
	fsub	DWORD PTR [ecx]
	fstp	DWORD PTR _kDiff$[ebp]

; 194  : 			kDiff.g = g - rkVector.g;

	mov	edx, DWORD PTR _this$[ebp]
	fld	DWORD PTR [edx+4]
	mov	eax, DWORD PTR _rkVector$[ebp]
	fsub	DWORD PTR [eax+4]
	fstp	DWORD PTR _kDiff$[ebp+4]

; 195  : 			kDiff.b = b - rkVector.b;

	mov	ecx, DWORD PTR _this$[ebp]
	fld	DWORD PTR [ecx+8]
	mov	edx, DWORD PTR _rkVector$[ebp]
	fsub	DWORD PTR [edx+8]
	fstp	DWORD PTR _kDiff$[ebp+8]

; 196  : 			kDiff.a = a - rkVector.a;

	mov	eax, DWORD PTR _this$[ebp]
	fld	DWORD PTR [eax+12]
	mov	ecx, DWORD PTR _rkVector$[ebp]
	fsub	DWORD PTR [ecx+12]
	fstp	DWORD PTR _kDiff$[ebp+12]

; 197  : 
; 198  : 			return kDiff;

	mov	edx, DWORD PTR ___$ReturnUdt$[ebp]
	mov	eax, DWORD PTR _kDiff$[ebp]
	mov	DWORD PTR [edx], eax
	mov	ecx, DWORD PTR _kDiff$[ebp+4]
	mov	DWORD PTR [edx+4], ecx
	mov	eax, DWORD PTR _kDiff$[ebp+8]
	mov	DWORD PTR [edx+8], eax
	mov	ecx, DWORD PTR _kDiff$[ebp+12]
	mov	DWORD PTR [edx+12], ecx
	mov	eax, DWORD PTR ___$ReturnUdt$[ebp]

; 199  : 		}

	mov	esp, ebp
	pop	ebp
	ret	8
??GColourValue@Ogre@@QBE?AV01@ABV01@@Z ENDP		; Ogre::ColourValue::operator-
_TEXT	ENDS
PUBLIC	??DColourValue@Ogre@@QBE?AV01@M@Z		; Ogre::ColourValue::operator*
; Function compile flags: /Odtp
;	COMDAT ??DColourValue@Ogre@@QBE?AV01@M@Z
_TEXT	SEGMENT
_this$ = -20						; size = 4
_kProd$ = -16						; size = 16
___$ReturnUdt$ = 8					; size = 4
_fScalar$ = 12						; size = 4
??DColourValue@Ogre@@QBE?AV01@M@Z PROC			; Ogre::ColourValue::operator*, COMDAT
; _this$ = ecx

; 202  : 		{

	push	ebp
	mov	ebp, esp
	sub	esp, 20					; 00000014H
	mov	DWORD PTR _this$[ebp], ecx

; 203  : 			ColourValue kProd;

	push	ecx
	fld1
	fstp	DWORD PTR [esp]
	push	ecx
	fld1
	fstp	DWORD PTR [esp]
	push	ecx
	fld1
	fstp	DWORD PTR [esp]
	push	ecx
	fld1
	fstp	DWORD PTR [esp]
	lea	ecx, DWORD PTR _kProd$[ebp]
	call	??0ColourValue@Ogre@@QAE@MMMM@Z		; Ogre::ColourValue::ColourValue

; 204  : 
; 205  : 			kProd.r = fScalar*r;

	fld	DWORD PTR _fScalar$[ebp]
	mov	eax, DWORD PTR _this$[ebp]
	fmul	DWORD PTR [eax]
	fstp	DWORD PTR _kProd$[ebp]

; 206  : 			kProd.g = fScalar*g;

	fld	DWORD PTR _fScalar$[ebp]
	mov	ecx, DWORD PTR _this$[ebp]
	fmul	DWORD PTR [ecx+4]
	fstp	DWORD PTR _kProd$[ebp+4]

; 207  : 			kProd.b = fScalar*b;

	fld	DWORD PTR _fScalar$[ebp]
	mov	edx, DWORD PTR _this$[ebp]
	fmul	DWORD PTR [edx+8]
	fstp	DWORD PTR _kProd$[ebp+8]

; 208  : 			kProd.a = fScalar*a;

	fld	DWORD PTR _fScalar$[ebp]
	mov	eax, DWORD PTR _this$[ebp]
	fmul	DWORD PTR [eax+12]
	fstp	DWORD PTR _kProd$[ebp+12]

; 209  : 
; 210  : 			return kProd;

	mov	ecx, DWORD PTR ___$ReturnUdt$[ebp]
	mov	edx, DWORD PTR _kProd$[ebp]
	mov	DWORD PTR [ecx], edx
	mov	eax, DWORD PTR _kProd$[ebp+4]
	mov	DWORD PTR [ecx+4], eax
	mov	edx, DWORD PTR _kProd$[ebp+8]
	mov	DWORD PTR [ecx+8], edx
	mov	eax, DWORD PTR _kProd$[ebp+12]
	mov	DWORD PTR [ecx+12], eax
	mov	eax, DWORD PTR ___$ReturnUdt$[ebp]

; 211  : 		}

	mov	esp, ebp
	pop	ebp
	ret	8
??DColourValue@Ogre@@QBE?AV01@M@Z ENDP			; Ogre::ColourValue::operator*
_TEXT	ENDS
PUBLIC	??DColourValue@Ogre@@QBE?AV01@ABV01@@Z		; Ogre::ColourValue::operator*
; Function compile flags: /Odtp
;	COMDAT ??DColourValue@Ogre@@QBE?AV01@ABV01@@Z
_TEXT	SEGMENT
_this$ = -20						; size = 4
_kProd$ = -16						; size = 16
___$ReturnUdt$ = 8					; size = 4
_rhs$ = 12						; size = 4
??DColourValue@Ogre@@QBE?AV01@ABV01@@Z PROC		; Ogre::ColourValue::operator*, COMDAT
; _this$ = ecx

; 214  : 		{

	push	ebp
	mov	ebp, esp
	sub	esp, 20					; 00000014H
	mov	DWORD PTR _this$[ebp], ecx

; 215  : 			ColourValue kProd;

	push	ecx
	fld1
	fstp	DWORD PTR [esp]
	push	ecx
	fld1
	fstp	DWORD PTR [esp]
	push	ecx
	fld1
	fstp	DWORD PTR [esp]
	push	ecx
	fld1
	fstp	DWORD PTR [esp]
	lea	ecx, DWORD PTR _kProd$[ebp]
	call	??0ColourValue@Ogre@@QAE@MMMM@Z		; Ogre::ColourValue::ColourValue

; 216  : 
; 217  : 			kProd.r = rhs.r * r;

	mov	eax, DWORD PTR _rhs$[ebp]
	fld	DWORD PTR [eax]
	mov	ecx, DWORD PTR _this$[ebp]
	fmul	DWORD PTR [ecx]
	fstp	DWORD PTR _kProd$[ebp]

; 218  : 			kProd.g = rhs.g * g;

	mov	edx, DWORD PTR _rhs$[ebp]
	fld	DWORD PTR [edx+4]
	mov	eax, DWORD PTR _this$[ebp]
	fmul	DWORD PTR [eax+4]
	fstp	DWORD PTR _kProd$[ebp+4]

; 219  : 			kProd.b = rhs.b * b;

	mov	ecx, DWORD PTR _rhs$[ebp]
	fld	DWORD PTR [ecx+8]
	mov	edx, DWORD PTR _this$[ebp]
	fmul	DWORD PTR [edx+8]
	fstp	DWORD PTR _kProd$[ebp+8]

; 220  : 			kProd.a = rhs.a * a;

	mov	eax, DWORD PTR _rhs$[ebp]
	fld	DWORD PTR [eax+12]
	mov	ecx, DWORD PTR _this$[ebp]
	fmul	DWORD PTR [ecx+12]
	fstp	DWORD PTR _kProd$[ebp+12]

; 221  : 
; 222  : 			return kProd;

	mov	edx, DWORD PTR ___$ReturnUdt$[ebp]
	mov	eax, DWORD PTR _kProd$[ebp]
	mov	DWORD PTR [edx], eax
	mov	ecx, DWORD PTR _kProd$[ebp+4]
	mov	DWORD PTR [edx+4], ecx
	mov	eax, DWORD PTR _kProd$[ebp+8]
	mov	DWORD PTR [edx+8], eax
	mov	ecx, DWORD PTR _kProd$[ebp+12]
	mov	DWORD PTR [edx+12], ecx
	mov	eax, DWORD PTR ___$ReturnUdt$[ebp]

; 223  : 		}

	mov	esp, ebp
	pop	ebp
	ret	8
??DColourValue@Ogre@@QBE?AV01@ABV01@@Z ENDP		; Ogre::ColourValue::operator*
_TEXT	ENDS
PUBLIC	??KColourValue@Ogre@@QBE?AV01@ABV01@@Z		; Ogre::ColourValue::operator/
; Function compile flags: /Odtp
;	COMDAT ??KColourValue@Ogre@@QBE?AV01@ABV01@@Z
_TEXT	SEGMENT
_this$ = -20						; size = 4
_kProd$ = -16						; size = 16
___$ReturnUdt$ = 8					; size = 4
_rhs$ = 12						; size = 4
??KColourValue@Ogre@@QBE?AV01@ABV01@@Z PROC		; Ogre::ColourValue::operator/, COMDAT
; _this$ = ecx

; 226  : 		{

	push	ebp
	mov	ebp, esp
	sub	esp, 20					; 00000014H
	mov	DWORD PTR _this$[ebp], ecx

; 227  : 			ColourValue kProd;

	push	ecx
	fld1
	fstp	DWORD PTR [esp]
	push	ecx
	fld1
	fstp	DWORD PTR [esp]
	push	ecx
	fld1
	fstp	DWORD PTR [esp]
	push	ecx
	fld1
	fstp	DWORD PTR [esp]
	lea	ecx, DWORD PTR _kProd$[ebp]
	call	??0ColourValue@Ogre@@QAE@MMMM@Z		; Ogre::ColourValue::ColourValue

; 228  : 
; 229  : 			kProd.r = rhs.r / r;

	mov	eax, DWORD PTR _rhs$[ebp]
	fld	DWORD PTR [eax]
	mov	ecx, DWORD PTR _this$[ebp]
	fdiv	DWORD PTR [ecx]
	fstp	DWORD PTR _kProd$[ebp]

; 230  : 			kProd.g = rhs.g / g;

	mov	edx, DWORD PTR _rhs$[ebp]
	fld	DWORD PTR [edx+4]
	mov	eax, DWORD PTR _this$[ebp]
	fdiv	DWORD PTR [eax+4]
	fstp	DWORD PTR _kProd$[ebp+4]

; 231  : 			kProd.b = rhs.b / b;

	mov	ecx, DWORD PTR _rhs$[ebp]
	fld	DWORD PTR [ecx+8]
	mov	edx, DWORD PTR _this$[ebp]
	fdiv	DWORD PTR [edx+8]
	fstp	DWORD PTR _kProd$[ebp+8]

; 232  : 			kProd.a = rhs.a / a;

	mov	eax, DWORD PTR _rhs$[ebp]
	fld	DWORD PTR [eax+12]
	mov	ecx, DWORD PTR _this$[ebp]
	fdiv	DWORD PTR [ecx+12]
	fstp	DWORD PTR _kProd$[ebp+12]

; 233  : 
; 234  : 			return kProd;

	mov	edx, DWORD PTR ___$ReturnUdt$[ebp]
	mov	eax, DWORD PTR _kProd$[ebp]
	mov	DWORD PTR [edx], eax
	mov	ecx, DWORD PTR _kProd$[ebp+4]
	mov	DWORD PTR [edx+4], ecx
	mov	eax, DWORD PTR _kProd$[ebp+8]
	mov	DWORD PTR [edx+8], eax
	mov	ecx, DWORD PTR _kProd$[ebp+12]
	mov	DWORD PTR [edx+12], ecx
	mov	eax, DWORD PTR ___$ReturnUdt$[ebp]

; 235  : 		}

	mov	esp, ebp
	pop	ebp
	ret	8
??KColourValue@Ogre@@QBE?AV01@ABV01@@Z ENDP		; Ogre::ColourValue::operator/
_TEXT	ENDS
PUBLIC	??KColourValue@Ogre@@QBE?AV01@M@Z		; Ogre::ColourValue::operator/
; Function compile flags: /Odtp
;	COMDAT ??KColourValue@Ogre@@QBE?AV01@M@Z
_TEXT	SEGMENT
_this$ = -24						; size = 4
_kDiv$ = -20						; size = 16
_fInv$ = -4						; size = 4
___$ReturnUdt$ = 8					; size = 4
_fScalar$ = 12						; size = 4
??KColourValue@Ogre@@QBE?AV01@M@Z PROC			; Ogre::ColourValue::operator/, COMDAT
; _this$ = ecx

; 238  : 		{

	push	ebp
	mov	ebp, esp
	sub	esp, 24					; 00000018H
	mov	DWORD PTR _this$[ebp], ecx

; 239  : 			assert( fScalar != 0.0f );
; 240  : 
; 241  : 			ColourValue kDiv;

	push	ecx
	fld1
	fstp	DWORD PTR [esp]
	push	ecx
	fld1
	fstp	DWORD PTR [esp]
	push	ecx
	fld1
	fstp	DWORD PTR [esp]
	push	ecx
	fld1
	fstp	DWORD PTR [esp]
	lea	ecx, DWORD PTR _kDiv$[ebp]
	call	??0ColourValue@Ogre@@QAE@MMMM@Z		; Ogre::ColourValue::ColourValue

; 242  : 
; 243  : 			float fInv = 1.0f / fScalar;

	fld	DWORD PTR _fScalar$[ebp]
	fld1
	fdivrp	ST(1), ST(0)
	fstp	DWORD PTR _fInv$[ebp]

; 244  : 			kDiv.r = r * fInv;

	mov	eax, DWORD PTR _this$[ebp]
	fld	DWORD PTR [eax]
	fmul	DWORD PTR _fInv$[ebp]
	fstp	DWORD PTR _kDiv$[ebp]

; 245  : 			kDiv.g = g * fInv;

	mov	ecx, DWORD PTR _this$[ebp]
	fld	DWORD PTR [ecx+4]
	fmul	DWORD PTR _fInv$[ebp]
	fstp	DWORD PTR _kDiv$[ebp+4]

; 246  : 			kDiv.b = b * fInv;

	mov	edx, DWORD PTR _this$[ebp]
	fld	DWORD PTR [edx+8]
	fmul	DWORD PTR _fInv$[ebp]
	fstp	DWORD PTR _kDiv$[ebp+8]

; 247  : 			kDiv.a = a * fInv;

	mov	eax, DWORD PTR _this$[ebp]
	fld	DWORD PTR [eax+12]
	fmul	DWORD PTR _fInv$[ebp]
	fstp	DWORD PTR _kDiv$[ebp+12]

; 248  : 
; 249  : 			return kDiv;

	mov	ecx, DWORD PTR ___$ReturnUdt$[ebp]
	mov	edx, DWORD PTR _kDiv$[ebp]
	mov	DWORD PTR [ecx], edx
	mov	eax, DWORD PTR _kDiv$[ebp+4]
	mov	DWORD PTR [ecx+4], eax
	mov	edx, DWORD PTR _kDiv$[ebp+8]
	mov	DWORD PTR [ecx+8], edx
	mov	eax, DWORD PTR _kDiv$[ebp+12]
	mov	DWORD PTR [ecx+12], eax
	mov	eax, DWORD PTR ___$ReturnUdt$[ebp]

; 250  : 		}

	mov	esp, ebp
	pop	ebp
	ret	8
??KColourValue@Ogre@@QBE?AV01@M@Z ENDP			; Ogre::ColourValue::operator/
_TEXT	ENDS
PUBLIC	??YColourValue@Ogre@@QAEAAV01@ABV01@@Z		; Ogre::ColourValue::operator+=
; Function compile flags: /Odtp
;	COMDAT ??YColourValue@Ogre@@QAEAAV01@ABV01@@Z
_TEXT	SEGMENT
_this$ = -4						; size = 4
_rkVector$ = 8						; size = 4
??YColourValue@Ogre@@QAEAAV01@ABV01@@Z PROC		; Ogre::ColourValue::operator+=, COMDAT
; _this$ = ecx

; 266  : 		{

	push	ebp
	mov	ebp, esp
	push	ecx
	mov	DWORD PTR _this$[ebp], ecx

; 267  : 			r += rkVector.r;

	mov	eax, DWORD PTR _this$[ebp]
	fld	DWORD PTR [eax]
	mov	ecx, DWORD PTR _rkVector$[ebp]
	fadd	DWORD PTR [ecx]
	mov	edx, DWORD PTR _this$[ebp]
	fstp	DWORD PTR [edx]

; 268  : 			g += rkVector.g;

	mov	eax, DWORD PTR _this$[ebp]
	fld	DWORD PTR [eax+4]
	mov	ecx, DWORD PTR _rkVector$[ebp]
	fadd	DWORD PTR [ecx+4]
	mov	edx, DWORD PTR _this$[ebp]
	fstp	DWORD PTR [edx+4]

; 269  : 			b += rkVector.b;

	mov	eax, DWORD PTR _this$[ebp]
	fld	DWORD PTR [eax+8]
	mov	ecx, DWORD PTR _rkVector$[ebp]
	fadd	DWORD PTR [ecx+8]
	mov	edx, DWORD PTR _this$[ebp]
	fstp	DWORD PTR [edx+8]

; 270  : 			a += rkVector.a;

	mov	eax, DWORD PTR _this$[ebp]
	fld	DWORD PTR [eax+12]
	mov	ecx, DWORD PTR _rkVector$[ebp]
	fadd	DWORD PTR [ecx+12]
	mov	edx, DWORD PTR _this$[ebp]
	fstp	DWORD PTR [edx+12]

; 271  : 
; 272  : 			return *this;

	mov	eax, DWORD PTR _this$[ebp]

; 273  : 		}

	mov	esp, ebp
	pop	ebp
	ret	4
??YColourValue@Ogre@@QAEAAV01@ABV01@@Z ENDP		; Ogre::ColourValue::operator+=
_TEXT	ENDS
PUBLIC	??ZColourValue@Ogre@@QAEAAV01@ABV01@@Z		; Ogre::ColourValue::operator-=
; Function compile flags: /Odtp
;	COMDAT ??ZColourValue@Ogre@@QAEAAV01@ABV01@@Z
_TEXT	SEGMENT
_this$ = -4						; size = 4
_rkVector$ = 8						; size = 4
??ZColourValue@Ogre@@QAEAAV01@ABV01@@Z PROC		; Ogre::ColourValue::operator-=, COMDAT
; _this$ = ecx

; 276  : 		{

	push	ebp
	mov	ebp, esp
	push	ecx
	mov	DWORD PTR _this$[ebp], ecx

; 277  : 			r -= rkVector.r;

	mov	eax, DWORD PTR _this$[ebp]
	fld	DWORD PTR [eax]
	mov	ecx, DWORD PTR _rkVector$[ebp]
	fsub	DWORD PTR [ecx]
	mov	edx, DWORD PTR _this$[ebp]
	fstp	DWORD PTR [edx]

; 278  : 			g -= rkVector.g;

	mov	eax, DWORD PTR _this$[ebp]
	fld	DWORD PTR [eax+4]
	mov	ecx, DWORD PTR _rkVector$[ebp]
	fsub	DWORD PTR [ecx+4]
	mov	edx, DWORD PTR _this$[ebp]
	fstp	DWORD PTR [edx+4]

; 279  : 			b -= rkVector.b;

	mov	eax, DWORD PTR _this$[ebp]
	fld	DWORD PTR [eax+8]
	mov	ecx, DWORD PTR _rkVector$[ebp]
	fsub	DWORD PTR [ecx+8]
	mov	edx, DWORD PTR _this$[ebp]
	fstp	DWORD PTR [edx+8]

; 280  : 			a -= rkVector.a;

	mov	eax, DWORD PTR _this$[ebp]
	fld	DWORD PTR [eax+12]
	mov	ecx, DWORD PTR _rkVector$[ebp]
	fsub	DWORD PTR [ecx+12]
	mov	edx, DWORD PTR _this$[ebp]
	fstp	DWORD PTR [edx+12]

; 281  : 
; 282  : 			return *this;

	mov	eax, DWORD PTR _this$[ebp]

; 283  : 		}

	mov	esp, ebp
	pop	ebp
	ret	4
??ZColourValue@Ogre@@QAEAAV01@ABV01@@Z ENDP		; Ogre::ColourValue::operator-=
_TEXT	ENDS
PUBLIC	??XColourValue@Ogre@@QAEAAV01@M@Z		; Ogre::ColourValue::operator*=
; Function compile flags: /Odtp
;	COMDAT ??XColourValue@Ogre@@QAEAAV01@M@Z
_TEXT	SEGMENT
_this$ = -4						; size = 4
_fScalar$ = 8						; size = 4
??XColourValue@Ogre@@QAEAAV01@M@Z PROC			; Ogre::ColourValue::operator*=, COMDAT
; _this$ = ecx

; 286  : 		{

	push	ebp
	mov	ebp, esp
	push	ecx
	mov	DWORD PTR _this$[ebp], ecx

; 287  : 			r *= fScalar;

	mov	eax, DWORD PTR _this$[ebp]
	fld	DWORD PTR [eax]
	fmul	DWORD PTR _fScalar$[ebp]
	mov	ecx, DWORD PTR _this$[ebp]
	fstp	DWORD PTR [ecx]

; 288  : 			g *= fScalar;

	mov	edx, DWORD PTR _this$[ebp]
	fld	DWORD PTR [edx+4]
	fmul	DWORD PTR _fScalar$[ebp]
	mov	eax, DWORD PTR _this$[ebp]
	fstp	DWORD PTR [eax+4]

; 289  : 			b *= fScalar;

	mov	ecx, DWORD PTR _this$[ebp]
	fld	DWORD PTR [ecx+8]
	fmul	DWORD PTR _fScalar$[ebp]
	mov	edx, DWORD PTR _this$[ebp]
	fstp	DWORD PTR [edx+8]

; 290  : 			a *= fScalar;

	mov	eax, DWORD PTR _this$[ebp]
	fld	DWORD PTR [eax+12]
	fmul	DWORD PTR _fScalar$[ebp]
	mov	ecx, DWORD PTR _this$[ebp]
	fstp	DWORD PTR [ecx+12]

; 291  : 			return *this;

	mov	eax, DWORD PTR _this$[ebp]

; 292  : 		}

	mov	esp, ebp
	pop	ebp
	ret	4
??XColourValue@Ogre@@QAEAAV01@M@Z ENDP			; Ogre::ColourValue::operator*=
_TEXT	ENDS
PUBLIC	??_0ColourValue@Ogre@@QAEAAV01@M@Z		; Ogre::ColourValue::operator/=
; Function compile flags: /Odtp
;	COMDAT ??_0ColourValue@Ogre@@QAEAAV01@M@Z
_TEXT	SEGMENT
_this$ = -8						; size = 4
_fInv$ = -4						; size = 4
_fScalar$ = 8						; size = 4
??_0ColourValue@Ogre@@QAEAAV01@M@Z PROC			; Ogre::ColourValue::operator/=, COMDAT
; _this$ = ecx

; 295  : 		{

	push	ebp
	mov	ebp, esp
	sub	esp, 8
	mov	DWORD PTR _this$[ebp], ecx

; 296  : 			assert( fScalar != 0.0 );
; 297  : 
; 298  : 			float fInv = 1.0f / fScalar;

	fld	DWORD PTR _fScalar$[ebp]
	fld1
	fdivrp	ST(1), ST(0)
	fstp	DWORD PTR _fInv$[ebp]

; 299  : 
; 300  : 			r *= fInv;

	mov	eax, DWORD PTR _this$[ebp]
	fld	DWORD PTR [eax]
	fmul	DWORD PTR _fInv$[ebp]
	mov	ecx, DWORD PTR _this$[ebp]
	fstp	DWORD PTR [ecx]

; 301  : 			g *= fInv;

	mov	edx, DWORD PTR _this$[ebp]
	fld	DWORD PTR [edx+4]
	fmul	DWORD PTR _fInv$[ebp]
	mov	eax, DWORD PTR _this$[ebp]
	fstp	DWORD PTR [eax+4]

; 302  : 			b *= fInv;

	mov	ecx, DWORD PTR _this$[ebp]
	fld	DWORD PTR [ecx+8]
	fmul	DWORD PTR _fInv$[ebp]
	mov	edx, DWORD PTR _this$[ebp]
	fstp	DWORD PTR [edx+8]

; 303  : 			a *= fInv;

	mov	eax, DWORD PTR _this$[ebp]
	fld	DWORD PTR [eax+12]
	fmul	DWORD PTR _fInv$[ebp]
	mov	ecx, DWORD PTR _this$[ebp]
	fstp	DWORD PTR [ecx+12]

; 304  : 
; 305  : 			return *this;

	mov	eax, DWORD PTR _this$[ebp]

; 306  : 		}

	mov	esp, ebp
	pop	ebp
	ret	4
??_0ColourValue@Ogre@@QAEAAV01@M@Z ENDP			; Ogre::ColourValue::operator/=
_TEXT	ENDS
PUBLIC	??4ColourValue@Ogre@@QAEAAV01@ABV01@@Z		; Ogre::ColourValue::operator=
; Function compile flags: /Odtp
;	COMDAT ??4ColourValue@Ogre@@QAEAAV01@ABV01@@Z
_TEXT	SEGMENT
_this$ = -4						; size = 4
___that$ = 8						; size = 4
??4ColourValue@Ogre@@QAEAAV01@ABV01@@Z PROC		; Ogre::ColourValue::operator=, COMDAT
; _this$ = ecx
	push	ebp
	mov	ebp, esp
	push	ecx
	mov	DWORD PTR _this$[ebp], ecx
	mov	eax, DWORD PTR ___that$[ebp]
	mov	ecx, DWORD PTR _this$[ebp]
	mov	edx, DWORD PTR [eax]
	mov	DWORD PTR [ecx], edx
	mov	edx, DWORD PTR [eax+4]
	mov	DWORD PTR [ecx+4], edx
	mov	edx, DWORD PTR [eax+8]
	mov	DWORD PTR [ecx+8], edx
	mov	eax, DWORD PTR [eax+12]
	mov	DWORD PTR [ecx+12], eax
	mov	eax, DWORD PTR _this$[ebp]
	mov	esp, ebp
	pop	ebp
	ret	4
??4ColourValue@Ogre@@QAEAAV01@ABV01@@Z ENDP		; Ogre::ColourValue::operator=
_TEXT	ENDS
PUBLIC	??_FColourValue@Ogre@@QAEXXZ			; Ogre::ColourValue::`default constructor closure'
; Function compile flags: /Odtp
;	COMDAT ??_FColourValue@Ogre@@QAEXXZ
_TEXT	SEGMENT
_this$ = -4						; size = 4
??_FColourValue@Ogre@@QAEXXZ PROC			; Ogre::ColourValue::`default constructor closure', COMDAT
; _this$ = ecx
	push	ebp
	mov	ebp, esp
	push	ecx
	mov	DWORD PTR _this$[ebp], ecx
	push	ecx
	fld1
	fstp	DWORD PTR [esp]
	push	ecx
	fld1
	fstp	DWORD PTR [esp]
	push	ecx
	fld1
	fstp	DWORD PTR [esp]
	push	ecx
	fld1
	fstp	DWORD PTR [esp]
	mov	ecx, DWORD PTR _this$[ebp]
	call	??0ColourValue@Ogre@@QAE@MMMM@Z		; Ogre::ColourValue::ColourValue
	mov	esp, ebp
	pop	ebp
	ret	0
??_FColourValue@Ogre@@QAEXXZ ENDP			; Ogre::ColourValue::`default constructor closure'
_TEXT	ENDS
PUBLIC	??_7Exception@Ogre@@6B@				; Ogre::Exception::`vftable'
PUBLIC	??1Exception@Ogre@@UAE@XZ			; Ogre::Exception::~Exception
PUBLIC	??_R4Exception@Ogre@@6B@			; Ogre::Exception::`RTTI Complete Object Locator'
PUBLIC	??_R0?AVException@Ogre@@@8			; Ogre::Exception `RTTI Type Descriptor'
PUBLIC	??_R3Exception@Ogre@@8				; Ogre::Exception::`RTTI Class Hierarchy Descriptor'
PUBLIC	??_R2Exception@Ogre@@8				; Ogre::Exception::`RTTI Base Class Array'
PUBLIC	??_R1A@?0A@EA@Exception@Ogre@@8			; Ogre::Exception::`RTTI Base Class Descriptor at (0,-1,0,64)'
PUBLIC	??_R1A@?0A@EA@exception@std@@8			; std::exception::`RTTI Base Class Descriptor at (0,-1,0,64)'
PUBLIC	??_R0?AVexception@std@@@8			; std::exception `RTTI Type Descriptor'
PUBLIC	??_R3exception@std@@8				; std::exception::`RTTI Class Hierarchy Descriptor'
PUBLIC	??_R2exception@std@@8				; std::exception::`RTTI Base Class Array'
PUBLIC	??_EException@Ogre@@UAEPAXI@Z			; Ogre::Exception::`vector deleting destructor'
PUBLIC	?what@Exception@Ogre@@UBEPBDXZ			; Ogre::Exception::what
PUBLIC	?getSource@Exception@Ogre@@UBEABV?$basic_string@DU?$char_traits@D@std@@V?$allocator@D@2@@std@@XZ ; Ogre::Exception::getSource
PUBLIC	?getFile@Exception@Ogre@@UBEABV?$basic_string@DU?$char_traits@D@std@@V?$allocator@D@2@@std@@XZ ; Ogre::Exception::getFile
PUBLIC	?getLine@Exception@Ogre@@UBEJXZ			; Ogre::Exception::getLine
PUBLIC	?getDescription@Exception@Ogre@@UBEABV?$basic_string@DU?$char_traits@D@std@@V?$allocator@D@2@@std@@XZ ; Ogre::Exception::getDescription
EXTRN	__imp_??1exception@std@@UAE@XZ:PROC
EXTRN	?getFullDescription@Exception@Ogre@@UBEABV?$basic_string@DU?$char_traits@D@std@@V?$allocator@D@2@@std@@XZ:PROC ; Ogre::Exception::getFullDescription
EXTRN	?getNumber@Exception@Ogre@@UBEHXZ:PROC		; Ogre::Exception::getNumber
;	COMDAT ??_R2exception@std@@8
; File i:\svnroot\client\ogremain\ogreexception.h
rdata$r	SEGMENT
??_R2exception@std@@8 DD FLAT:??_R1A@?0A@EA@exception@std@@8 ; std::exception::`RTTI Base Class Array'
rdata$r	ENDS
;	COMDAT ??_R3exception@std@@8
rdata$r	SEGMENT
??_R3exception@std@@8 DD 00H				; std::exception::`RTTI Class Hierarchy Descriptor'
	DD	00H
	DD	01H
	DD	FLAT:??_R2exception@std@@8
rdata$r	ENDS
;	COMDAT ??_R0?AVexception@std@@@8
_DATA	SEGMENT
??_R0?AVexception@std@@@8 DD FLAT:??_7type_info@@6B@	; std::exception `RTTI Type Descriptor'
	DD	00H
	DB	'.?AVexception@std@@', 00H
_DATA	ENDS
;	COMDAT ??_R1A@?0A@EA@exception@std@@8
rdata$r	SEGMENT
??_R1A@?0A@EA@exception@std@@8 DD FLAT:??_R0?AVexception@std@@@8 ; std::exception::`RTTI Base Class Descriptor at (0,-1,0,64)'
	DD	00H
	DD	00H
	DD	0ffffffffH
	DD	00H
	DD	040H
	DD	FLAT:??_R3exception@std@@8
rdata$r	ENDS
;	COMDAT ??_R1A@?0A@EA@Exception@Ogre@@8
rdata$r	SEGMENT
??_R1A@?0A@EA@Exception@Ogre@@8 DD FLAT:??_R0?AVException@Ogre@@@8 ; Ogre::Exception::`RTTI Base Class Descriptor at (0,-1,0,64)'
	DD	01H
	DD	00H
	DD	0ffffffffH
	DD	00H
	DD	040H
	DD	FLAT:??_R3Exception@Ogre@@8
rdata$r	ENDS
;	COMDAT ??_R2Exception@Ogre@@8
rdata$r	SEGMENT
??_R2Exception@Ogre@@8 DD FLAT:??_R1A@?0A@EA@Exception@Ogre@@8 ; Ogre::Exception::`RTTI Base Class Array'
	DD	FLAT:??_R1A@?0A@EA@exception@std@@8
rdata$r	ENDS
;	COMDAT ??_R3Exception@Ogre@@8
rdata$r	SEGMENT
??_R3Exception@Ogre@@8 DD 00H				; Ogre::Exception::`RTTI Class Hierarchy Descriptor'
	DD	00H
	DD	02H
	DD	FLAT:??_R2Exception@Ogre@@8
rdata$r	ENDS
;	COMDAT ??_R0?AVException@Ogre@@@8
_DATA	SEGMENT
??_R0?AVException@Ogre@@@8 DD FLAT:??_7type_info@@6B@	; Ogre::Exception `RTTI Type Descriptor'
	DD	00H
	DB	'.?AVException@Ogre@@', 00H
_DATA	ENDS
;	COMDAT ??_R4Exception@Ogre@@6B@
rdata$r	SEGMENT
??_R4Exception@Ogre@@6B@ DD 00H				; Ogre::Exception::`RTTI Complete Object Locator'
	DD	00H
	DD	00H
	DD	FLAT:??_R0?AVException@Ogre@@@8
	DD	FLAT:??_R3Exception@Ogre@@8
rdata$r	ENDS
;	COMDAT ??_7Exception@Ogre@@6B@
CONST	SEGMENT
??_7Exception@Ogre@@6B@ DD FLAT:??_R4Exception@Ogre@@6B@ ; Ogre::Exception::`vftable'
	DD	FLAT:??_EException@Ogre@@UAEPAXI@Z
	DD	FLAT:?what@Exception@Ogre@@UBEPBDXZ
	DD	FLAT:?getFullDescription@Exception@Ogre@@UBEABV?$basic_string@DU?$char_traits@D@std@@V?$allocator@D@2@@std@@XZ
	DD	FLAT:?getNumber@Exception@Ogre@@UBEHXZ
	DD	FLAT:?getSource@Exception@Ogre@@UBEABV?$basic_string@DU?$char_traits@D@std@@V?$allocator@D@2@@std@@XZ
	DD	FLAT:?getFile@Exception@Ogre@@UBEABV?$basic_string@DU?$char_traits@D@std@@V?$allocator@D@2@@std@@XZ
	DD	FLAT:?getLine@Exception@Ogre@@UBEJXZ
	DD	FLAT:?getDescription@Exception@Ogre@@UBEABV?$basic_string@DU?$char_traits@D@std@@V?$allocator@D@2@@std@@XZ
CONST	ENDS
;	COMDAT xdata$x
xdata$x	SEGMENT
__ehfuncinfo$??1Exception@Ogre@@UAE@XZ DD 019930522H
	DD	06H
	DD	FLAT:__unwindtable$??1Exception@Ogre@@UAE@XZ
	DD	2 DUP(00H)
	DD	2 DUP(00H)
	DD	00H
	DD	00H
__unwindtable$??1Exception@Ogre@@UAE@XZ DD 0ffffffffH
	DD	FLAT:__unwindfunclet$??1Exception@Ogre@@UAE@XZ$0
	DD	00H
	DD	FLAT:__unwindfunclet$??1Exception@Ogre@@UAE@XZ$1
	DD	01H
	DD	FLAT:__unwindfunclet$??1Exception@Ogre@@UAE@XZ$2
	DD	02H
	DD	FLAT:__unwindfunclet$??1Exception@Ogre@@UAE@XZ$3
	DD	03H
	DD	FLAT:__unwindfunclet$??1Exception@Ogre@@UAE@XZ$4
	DD	04H
	DD	FLAT:__unwindfunclet$??1Exception@Ogre@@UAE@XZ$5
; Function compile flags: /Odtp
xdata$x	ENDS
;	COMDAT ??1Exception@Ogre@@UAE@XZ
_TEXT	SEGMENT
_this$ = -16						; size = 4
__$EHRec$ = -12						; size = 12
??1Exception@Ogre@@UAE@XZ PROC				; Ogre::Exception::~Exception, COMDAT
; _this$ = ecx

; 127  : 		~Exception() throw() {}

	push	ebp
	mov	ebp, esp
	push	-1
	push	__ehhandler$??1Exception@Ogre@@UAE@XZ
	mov	eax, DWORD PTR fs:0
	push	eax
	push	ecx
	mov	eax, DWORD PTR ___security_cookie
	xor	eax, ebp
	push	eax
	lea	eax, DWORD PTR __$EHRec$[ebp]
	mov	DWORD PTR fs:0, eax
	mov	DWORD PTR _this$[ebp], ecx
	mov	eax, DWORD PTR _this$[ebp]
	mov	DWORD PTR [eax], OFFSET ??_7Exception@Ogre@@6B@
	mov	DWORD PTR __$EHRec$[ebp+8], 5
	mov	BYTE PTR __$EHRec$[ebp+8], 4
	mov	ecx, DWORD PTR _this$[ebp]
	add	ecx, 132				; 00000084H
	call	DWORD PTR __imp_??1?$basic_string@DU?$char_traits@D@std@@V?$allocator@D@2@@std@@QAE@XZ
	mov	BYTE PTR __$EHRec$[ebp+8], 3
	mov	ecx, DWORD PTR _this$[ebp]
	add	ecx, 104				; 00000068H
	call	DWORD PTR __imp_??1?$basic_string@DU?$char_traits@D@std@@V?$allocator@D@2@@std@@QAE@XZ
	mov	BYTE PTR __$EHRec$[ebp+8], 2
	mov	ecx, DWORD PTR _this$[ebp]
	add	ecx, 76					; 0000004cH
	call	DWORD PTR __imp_??1?$basic_string@DU?$char_traits@D@std@@V?$allocator@D@2@@std@@QAE@XZ
	mov	BYTE PTR __$EHRec$[ebp+8], 1
	mov	ecx, DWORD PTR _this$[ebp]
	add	ecx, 48					; 00000030H
	call	DWORD PTR __imp_??1?$basic_string@DU?$char_traits@D@std@@V?$allocator@D@2@@std@@QAE@XZ
	mov	BYTE PTR __$EHRec$[ebp+8], 0
	mov	ecx, DWORD PTR _this$[ebp]
	add	ecx, 20					; 00000014H
	call	DWORD PTR __imp_??1?$basic_string@DU?$char_traits@D@std@@V?$allocator@D@2@@std@@QAE@XZ
	mov	DWORD PTR __$EHRec$[ebp+8], -1
	mov	ecx, DWORD PTR _this$[ebp]
	call	DWORD PTR __imp_??1exception@std@@UAE@XZ
	mov	ecx, DWORD PTR __$EHRec$[ebp]
	mov	DWORD PTR fs:0, ecx
	pop	ecx
	mov	esp, ebp
	pop	ebp
	ret	0
_TEXT	ENDS
;	COMDAT text$x
text$x	SEGMENT
__unwindfunclet$??1Exception@Ogre@@UAE@XZ$0:
	mov	ecx, DWORD PTR _this$[ebp]
	jmp	DWORD PTR __imp_??1exception@std@@UAE@XZ
__unwindfunclet$??1Exception@Ogre@@UAE@XZ$1:
	mov	ecx, DWORD PTR _this$[ebp]
	add	ecx, 20					; 00000014H
	jmp	DWORD PTR __imp_??1?$basic_string@DU?$char_traits@D@std@@V?$allocator@D@2@@std@@QAE@XZ
__unwindfunclet$??1Exception@Ogre@@UAE@XZ$2:
	mov	ecx, DWORD PTR _this$[ebp]
	add	ecx, 48					; 00000030H
	jmp	DWORD PTR __imp_??1?$basic_string@DU?$char_traits@D@std@@V?$allocator@D@2@@std@@QAE@XZ
__unwindfunclet$??1Exception@Ogre@@UAE@XZ$3:
	mov	ecx, DWORD PTR _this$[ebp]
	add	ecx, 76					; 0000004cH
	jmp	DWORD PTR __imp_??1?$basic_string@DU?$char_traits@D@std@@V?$allocator@D@2@@std@@QAE@XZ
__unwindfunclet$??1Exception@Ogre@@UAE@XZ$4:
	mov	ecx, DWORD PTR _this$[ebp]
	add	ecx, 104				; 00000068H
	jmp	DWORD PTR __imp_??1?$basic_string@DU?$char_traits@D@std@@V?$allocator@D@2@@std@@QAE@XZ
__unwindfunclet$??1Exception@Ogre@@UAE@XZ$5:
	mov	ecx, DWORD PTR _this$[ebp]
	add	ecx, 132				; 00000084H
	jmp	DWORD PTR __imp_??1?$basic_string@DU?$char_traits@D@std@@V?$allocator@D@2@@std@@QAE@XZ
__ehhandler$??1Exception@Ogre@@UAE@XZ:
	mov	edx, DWORD PTR [esp+8]
	lea	eax, DWORD PTR [edx+12]
	mov	ecx, DWORD PTR [edx-8]
	xor	ecx, eax
	call	@__security_check_cookie@4
	mov	eax, OFFSET __ehfuncinfo$??1Exception@Ogre@@UAE@XZ
	jmp	___CxxFrameHandler3
text$x	ENDS
??1Exception@Ogre@@UAE@XZ ENDP				; Ogre::Exception::~Exception
; Function compile flags: /Odtp
;	COMDAT ?getSource@Exception@Ogre@@UBEABV?$basic_string@DU?$char_traits@D@std@@V?$allocator@D@2@@std@@XZ
_TEXT	SEGMENT
_this$ = -4						; size = 4
?getSource@Exception@Ogre@@UBEABV?$basic_string@DU?$char_traits@D@std@@V?$allocator@D@2@@std@@XZ PROC ; Ogre::Exception::getSource, COMDAT
; _this$ = ecx

; 151  : 		virtual const String &getSource() const { return source; }

	push	ebp
	mov	ebp, esp
	push	ecx
	mov	DWORD PTR _this$[ebp], ecx
	mov	eax, DWORD PTR _this$[ebp]
	add	eax, 76					; 0000004cH
	mov	esp, ebp
	pop	ebp
	ret	0
?getSource@Exception@Ogre@@UBEABV?$basic_string@DU?$char_traits@D@std@@V?$allocator@D@2@@std@@XZ ENDP ; Ogre::Exception::getSource
; Function compile flags: /Odtp
_TEXT	ENDS
;	COMDAT ?getFile@Exception@Ogre@@UBEABV?$basic_string@DU?$char_traits@D@std@@V?$allocator@D@2@@std@@XZ
_TEXT	SEGMENT
_this$ = -4						; size = 4
?getFile@Exception@Ogre@@UBEABV?$basic_string@DU?$char_traits@D@std@@V?$allocator@D@2@@std@@XZ PROC ; Ogre::Exception::getFile, COMDAT
; _this$ = ecx

; 155  : 		virtual const String &getFile() const { return file; }

	push	ebp
	mov	ebp, esp
	push	ecx
	mov	DWORD PTR _this$[ebp], ecx
	mov	eax, DWORD PTR _this$[ebp]
	add	eax, 104				; 00000068H
	mov	esp, ebp
	pop	ebp
	ret	0
?getFile@Exception@Ogre@@UBEABV?$basic_string@DU?$char_traits@D@std@@V?$allocator@D@2@@std@@XZ ENDP ; Ogre::Exception::getFile
; Function compile flags: /Odtp
_TEXT	ENDS
;	COMDAT ?getLine@Exception@Ogre@@UBEJXZ
_TEXT	SEGMENT
_this$ = -4						; size = 4
?getLine@Exception@Ogre@@UBEJXZ PROC			; Ogre::Exception::getLine, COMDAT
; _this$ = ecx

; 159  : 		virtual long getLine() const { return line; }

	push	ebp
	mov	ebp, esp
	push	ecx
	mov	DWORD PTR _this$[ebp], ecx
	mov	eax, DWORD PTR _this$[ebp]
	mov	eax, DWORD PTR [eax+12]
	mov	esp, ebp
	pop	ebp
	ret	0
?getLine@Exception@Ogre@@UBEJXZ ENDP			; Ogre::Exception::getLine
; Function compile flags: /Odtp
_TEXT	ENDS
;	COMDAT ?getDescription@Exception@Ogre@@UBEABV?$basic_string@DU?$char_traits@D@std@@V?$allocator@D@2@@std@@XZ
_TEXT	SEGMENT
_this$ = -4						; size = 4
?getDescription@Exception@Ogre@@UBEABV?$basic_string@DU?$char_traits@D@std@@V?$allocator@D@2@@std@@XZ PROC ; Ogre::Exception::getDescription, COMDAT
; _this$ = ecx

; 165  : 		virtual const String &getDescription(void) const { return description; }

	push	ebp
	mov	ebp, esp
	push	ecx
	mov	DWORD PTR _this$[ebp], ecx
	mov	eax, DWORD PTR _this$[ebp]
	add	eax, 48					; 00000030H
	mov	esp, ebp
	pop	ebp
	ret	0
?getDescription@Exception@Ogre@@UBEABV?$basic_string@DU?$char_traits@D@std@@V?$allocator@D@2@@std@@XZ ENDP ; Ogre::Exception::getDescription
_TEXT	ENDS
EXTRN	__imp_?c_str@?$basic_string@DU?$char_traits@D@std@@V?$allocator@D@2@@std@@QBEPBDXZ:PROC
; Function compile flags: /Odtp
;	COMDAT ?what@Exception@Ogre@@UBEPBDXZ
_TEXT	SEGMENT
_this$ = -4						; size = 4
?what@Exception@Ogre@@UBEPBDXZ PROC			; Ogre::Exception::what, COMDAT
; _this$ = ecx

; 168  : 		const char* what() const throw() { return getFullDescription().c_str(); }

	push	ebp
	mov	ebp, esp
	push	ecx
	mov	DWORD PTR _this$[ebp], ecx
	mov	eax, DWORD PTR _this$[ebp]
	mov	edx, DWORD PTR [eax]
	mov	ecx, DWORD PTR _this$[ebp]
	mov	eax, DWORD PTR [edx+8]
	call	eax
	mov	ecx, eax
	call	DWORD PTR __imp_?c_str@?$basic_string@DU?$char_traits@D@std@@V?$allocator@D@2@@std@@QBEPBDXZ
	mov	esp, ebp
	pop	ebp
	ret	0
?what@Exception@Ogre@@UBEPBDXZ ENDP			; Ogre::Exception::what
_TEXT	ENDS
PUBLIC	??_GException@Ogre@@UAEPAXI@Z			; Ogre::Exception::`scalar deleting destructor'
; Function compile flags: /Odtp
;	COMDAT ??_GException@Ogre@@UAEPAXI@Z
_TEXT	SEGMENT
_this$ = -4						; size = 4
___flags$ = 8						; size = 4
??_GException@Ogre@@UAEPAXI@Z PROC			; Ogre::Exception::`scalar deleting destructor', COMDAT
; _this$ = ecx
	push	ebp
	mov	ebp, esp
	push	ecx
	mov	DWORD PTR _this$[ebp], ecx
	mov	ecx, DWORD PTR _this$[ebp]
	call	??1Exception@Ogre@@UAE@XZ		; Ogre::Exception::~Exception
	mov	eax, DWORD PTR ___flags$[ebp]
	and	eax, 1
	je	SHORT $LN1@scalar@9
	mov	ecx, DWORD PTR _this$[ebp]
	push	ecx
	call	??3@YAXPAX@Z				; operator delete
	add	esp, 4
$LN1@scalar@9:
	mov	eax, DWORD PTR _this$[ebp]
	mov	esp, ebp
	pop	ebp
	ret	4
??_GException@Ogre@@UAEPAXI@Z ENDP			; Ogre::Exception::`scalar deleting destructor'
; Function compile flags: /Odtp
_TEXT	ENDS
;	COMDAT ??_EException@Ogre@@UAEPAXI@Z
_TEXT	SEGMENT
_this$ = -4						; size = 4
___flags$ = 8						; size = 4
??_EException@Ogre@@UAEPAXI@Z PROC			; Ogre::Exception::`vector deleting destructor', COMDAT
; _this$ = ecx
	push	ebp
	mov	ebp, esp
	push	ecx
	mov	DWORD PTR _this$[ebp], ecx
	mov	eax, DWORD PTR ___flags$[ebp]
	and	eax, 2
	je	SHORT $LN3@vector@9
	push	OFFSET ??1Exception@Ogre@@UAE@XZ	; Ogre::Exception::~Exception
	mov	ecx, DWORD PTR _this$[ebp]
	mov	edx, DWORD PTR [ecx-4]
	push	edx
	push	160					; 000000a0H
	mov	eax, DWORD PTR _this$[ebp]
	push	eax
	call	??_M@YGXPAXIHP6EX0@Z@Z
	mov	ecx, DWORD PTR ___flags$[ebp]
	and	ecx, 1
	je	SHORT $LN2@vector@9
	mov	edx, DWORD PTR _this$[ebp]
	sub	edx, 4
	push	edx
	call	??_V@YAXPAX@Z				; operator delete[]
	add	esp, 4
$LN2@vector@9:
	mov	eax, DWORD PTR _this$[ebp]
	sub	eax, 4
	jmp	SHORT $LN4@vector@9
$LN3@vector@9:
	mov	ecx, DWORD PTR _this$[ebp]
	call	??1Exception@Ogre@@UAE@XZ		; Ogre::Exception::~Exception
	mov	eax, DWORD PTR ___flags$[ebp]
	and	eax, 1
	je	SHORT $LN1@vector@9
	mov	ecx, DWORD PTR _this$[ebp]
	push	ecx
	call	??3@YAXPAX@Z				; operator delete
	add	esp, 4
$LN1@vector@9:
	mov	eax, DWORD PTR _this$[ebp]
$LN4@vector@9:
	mov	esp, ebp
	pop	ebp
	ret	4
??_EException@Ogre@@UAEPAXI@Z ENDP			; Ogre::Exception::`vector deleting destructor'
_TEXT	ENDS
PUBLIC	??_7UnimplementedException@Ogre@@6B@		; Ogre::UnimplementedException::`vftable'
PUBLIC	??_C@_0BH@LOKECLHE@UnimplementedException?$AA@	; `string'
PUBLIC	??0UnimplementedException@Ogre@@QAE@HABV?$basic_string@DU?$char_traits@D@std@@V?$allocator@D@2@@std@@0PBDJ@Z ; Ogre::UnimplementedException::UnimplementedException
PUBLIC	??_R4UnimplementedException@Ogre@@6B@		; Ogre::UnimplementedException::`RTTI Complete Object Locator'
PUBLIC	??_R0?AVUnimplementedException@Ogre@@@8		; Ogre::UnimplementedException `RTTI Type Descriptor'
PUBLIC	??_R3UnimplementedException@Ogre@@8		; Ogre::UnimplementedException::`RTTI Class Hierarchy Descriptor'
PUBLIC	??_R2UnimplementedException@Ogre@@8		; Ogre::UnimplementedException::`RTTI Base Class Array'
PUBLIC	??_R1A@?0A@EA@UnimplementedException@Ogre@@8	; Ogre::UnimplementedException::`RTTI Base Class Descriptor at (0,-1,0,64)'
PUBLIC	??_EUnimplementedException@Ogre@@UAEPAXI@Z	; Ogre::UnimplementedException::`vector deleting destructor'
EXTRN	??0Exception@Ogre@@QAE@HABV?$basic_string@DU?$char_traits@D@std@@V?$allocator@D@2@@std@@0PBD1J@Z:PROC ; Ogre::Exception::Exception
;	COMDAT ??_R1A@?0A@EA@UnimplementedException@Ogre@@8
rdata$r	SEGMENT
??_R1A@?0A@EA@UnimplementedException@Ogre@@8 DD FLAT:??_R0?AVUnimplementedException@Ogre@@@8 ; Ogre::UnimplementedException::`RTTI Base Class Descriptor at (0,-1,0,64)'
	DD	02H
	DD	00H
	DD	0ffffffffH
	DD	00H
	DD	040H
	DD	FLAT:??_R3UnimplementedException@Ogre@@8
rdata$r	ENDS
;	COMDAT ??_R2UnimplementedException@Ogre@@8
rdata$r	SEGMENT
??_R2UnimplementedException@Ogre@@8 DD FLAT:??_R1A@?0A@EA@UnimplementedException@Ogre@@8 ; Ogre::UnimplementedException::`RTTI Base Class Array'
	DD	FLAT:??_R1A@?0A@EA@Exception@Ogre@@8
	DD	FLAT:??_R1A@?0A@EA@exception@std@@8
rdata$r	ENDS
;	COMDAT ??_R3UnimplementedException@Ogre@@8
rdata$r	SEGMENT
??_R3UnimplementedException@Ogre@@8 DD 00H		; Ogre::UnimplementedException::`RTTI Class Hierarchy Descriptor'
	DD	00H
	DD	03H
	DD	FLAT:??_R2UnimplementedException@Ogre@@8
rdata$r	ENDS
;	COMDAT ??_R0?AVUnimplementedException@Ogre@@@8
_DATA	SEGMENT
??_R0?AVUnimplementedException@Ogre@@@8 DD FLAT:??_7type_info@@6B@ ; Ogre::UnimplementedException `RTTI Type Descriptor'
	DD	00H
	DB	'.?AVUnimplementedException@Ogre@@', 00H
_DATA	ENDS
;	COMDAT ??_R4UnimplementedException@Ogre@@6B@
rdata$r	SEGMENT
??_R4UnimplementedException@Ogre@@6B@ DD 00H		; Ogre::UnimplementedException::`RTTI Complete Object Locator'
	DD	00H
	DD	00H
	DD	FLAT:??_R0?AVUnimplementedException@Ogre@@@8
	DD	FLAT:??_R3UnimplementedException@Ogre@@8
rdata$r	ENDS
;	COMDAT ??_7UnimplementedException@Ogre@@6B@
CONST	SEGMENT
??_7UnimplementedException@Ogre@@6B@ DD FLAT:??_R4UnimplementedException@Ogre@@6B@ ; Ogre::UnimplementedException::`vftable'
	DD	FLAT:??_EUnimplementedException@Ogre@@UAEPAXI@Z
	DD	FLAT:?what@Exception@Ogre@@UBEPBDXZ
	DD	FLAT:?getFullDescription@Exception@Ogre@@UBEABV?$basic_string@DU?$char_traits@D@std@@V?$allocator@D@2@@std@@XZ
	DD	FLAT:?getNumber@Exception@Ogre@@UBEHXZ
	DD	FLAT:?getSource@Exception@Ogre@@UBEABV?$basic_string@DU?$char_traits@D@std@@V?$allocator@D@2@@std@@XZ
	DD	FLAT:?getFile@Exception@Ogre@@UBEABV?$basic_string@DU?$char_traits@D@std@@V?$allocator@D@2@@std@@XZ
	DD	FLAT:?getLine@Exception@Ogre@@UBEJXZ
	DD	FLAT:?getDescription@Exception@Ogre@@UBEABV?$basic_string@DU?$char_traits@D@std@@V?$allocator@D@2@@std@@XZ
CONST	ENDS
;	COMDAT ??_C@_0BH@LOKECLHE@UnimplementedException?$AA@
CONST	SEGMENT
??_C@_0BH@LOKECLHE@UnimplementedException?$AA@ DB 'UnimplementedException'
	DB	00H						; `string'
CONST	ENDS
;	COMDAT xdata$x
xdata$x	SEGMENT
__unwindtable$??0UnimplementedException@Ogre@@QAE@HABV?$basic_string@DU?$char_traits@D@std@@V?$allocator@D@2@@std@@0PBDJ@Z DD 0ffffffffH
	DD	FLAT:__unwindfunclet$??0UnimplementedException@Ogre@@QAE@HABV?$basic_string@DU?$char_traits@D@std@@V?$allocator@D@2@@std@@0PBDJ@Z$0
__ehfuncinfo$??0UnimplementedException@Ogre@@QAE@HABV?$basic_string@DU?$char_traits@D@std@@V?$allocator@D@2@@std@@0PBDJ@Z DD 019930522H
	DD	01H
	DD	FLAT:__unwindtable$??0UnimplementedException@Ogre@@QAE@HABV?$basic_string@DU?$char_traits@D@std@@V?$allocator@D@2@@std@@0PBDJ@Z
	DD	2 DUP(00H)
	DD	2 DUP(00H)
	DD	00H
	DD	00H
; Function compile flags: /Odtp
xdata$x	ENDS
;	COMDAT ??0UnimplementedException@Ogre@@QAE@HABV?$basic_string@DU?$char_traits@D@std@@V?$allocator@D@2@@std@@0PBDJ@Z
_TEXT	SEGMENT
_this$ = -16						; size = 4
__$EHRec$ = -12						; size = 12
_number$ = 8						; size = 4
_description$ = 12					; size = 4
_source$ = 16						; size = 4
_file$ = 20						; size = 4
_line$ = 24						; size = 4
??0UnimplementedException@Ogre@@QAE@HABV?$basic_string@DU?$char_traits@D@std@@V?$allocator@D@2@@std@@0PBDJ@Z PROC ; Ogre::UnimplementedException::UnimplementedException, COMDAT
; _this$ = ecx

; 191  : 		UnimplementedException(int number, const String& description, const String& source, const char* file, long line)

	push	ebp
	mov	ebp, esp
	push	-1
	push	__ehhandler$??0UnimplementedException@Ogre@@QAE@HABV?$basic_string@DU?$char_traits@D@std@@V?$allocator@D@2@@std@@0PBDJ@Z
	mov	eax, DWORD PTR fs:0
	push	eax
	push	ecx
	mov	eax, DWORD PTR ___security_cookie
	xor	eax, ebp
	push	eax
	lea	eax, DWORD PTR __$EHRec$[ebp]
	mov	DWORD PTR fs:0, eax
	mov	DWORD PTR _this$[ebp], ecx
	mov	eax, DWORD PTR _line$[ebp]
	push	eax
	mov	ecx, DWORD PTR _file$[ebp]
	push	ecx
	push	OFFSET ??_C@_0BH@LOKECLHE@UnimplementedException?$AA@
	mov	edx, DWORD PTR _source$[ebp]
	push	edx
	mov	eax, DWORD PTR _description$[ebp]
	push	eax
	mov	ecx, DWORD PTR _number$[ebp]
	push	ecx
	mov	ecx, DWORD PTR _this$[ebp]
	call	??0Exception@Ogre@@QAE@HABV?$basic_string@DU?$char_traits@D@std@@V?$allocator@D@2@@std@@0PBD1J@Z ; Ogre::Exception::Exception
	mov	DWORD PTR __$EHRec$[ebp+8], 0
	mov	edx, DWORD PTR _this$[ebp]
	mov	DWORD PTR [edx], OFFSET ??_7UnimplementedException@Ogre@@6B@
	mov	DWORD PTR __$EHRec$[ebp+8], -1
	mov	eax, DWORD PTR _this$[ebp]
	mov	ecx, DWORD PTR __$EHRec$[ebp]
	mov	DWORD PTR fs:0, ecx
	pop	ecx
	mov	esp, ebp
	pop	ebp
	ret	20					; 00000014H
_TEXT	ENDS
;	COMDAT text$x
text$x	SEGMENT
__unwindfunclet$??0UnimplementedException@Ogre@@QAE@HABV?$basic_string@DU?$char_traits@D@std@@V?$allocator@D@2@@std@@0PBDJ@Z$0:
	mov	ecx, DWORD PTR _this$[ebp]
	jmp	??1Exception@Ogre@@UAE@XZ		; Ogre::Exception::~Exception
__ehhandler$??0UnimplementedException@Ogre@@QAE@HABV?$basic_string@DU?$char_traits@D@std@@V?$allocator@D@2@@std@@0PBDJ@Z:
	mov	edx, DWORD PTR [esp+8]
	lea	eax, DWORD PTR [edx+12]
	mov	ecx, DWORD PTR [edx-8]
	xor	ecx, eax
	call	@__security_check_cookie@4
	mov	eax, OFFSET __ehfuncinfo$??0UnimplementedException@Ogre@@QAE@HABV?$basic_string@DU?$char_traits@D@std@@V?$allocator@D@2@@std@@0PBDJ@Z
	jmp	___CxxFrameHandler3
text$x	ENDS
??0UnimplementedException@Ogre@@QAE@HABV?$basic_string@DU?$char_traits@D@std@@V?$allocator@D@2@@std@@0PBDJ@Z ENDP ; Ogre::UnimplementedException::UnimplementedException
PUBLIC	??1UnimplementedException@Ogre@@UAE@XZ		; Ogre::UnimplementedException::~UnimplementedException
;	COMDAT xdata$x
xdata$x	SEGMENT
__unwindtable$??1UnimplementedException@Ogre@@UAE@XZ DD 0ffffffffH
	DD	FLAT:__unwindfunclet$??1UnimplementedException@Ogre@@UAE@XZ$0
__ehfuncinfo$??1UnimplementedException@Ogre@@UAE@XZ DD 019930522H
	DD	01H
	DD	FLAT:__unwindtable$??1UnimplementedException@Ogre@@UAE@XZ
	DD	2 DUP(00H)
	DD	2 DUP(00H)
	DD	00H
	DD	00H
; Function compile flags: /Odtp
xdata$x	ENDS
;	COMDAT ??1UnimplementedException@Ogre@@UAE@XZ
_TEXT	SEGMENT
_this$ = -16						; size = 4
__$EHRec$ = -12						; size = 12
??1UnimplementedException@Ogre@@UAE@XZ PROC		; Ogre::UnimplementedException::~UnimplementedException, COMDAT
; _this$ = ecx
	push	ebp
	mov	ebp, esp
	push	-1
	push	__ehhandler$??1UnimplementedException@Ogre@@UAE@XZ
	mov	eax, DWORD PTR fs:0
	push	eax
	push	ecx
	mov	eax, DWORD PTR ___security_cookie
	xor	eax, ebp
	push	eax
	lea	eax, DWORD PTR __$EHRec$[ebp]
	mov	DWORD PTR fs:0, eax
	mov	DWORD PTR _this$[ebp], ecx
	mov	DWORD PTR __$EHRec$[ebp+8], 0
	mov	DWORD PTR __$EHRec$[ebp+8], -1
	mov	ecx, DWORD PTR _this$[ebp]
	call	??1Exception@Ogre@@UAE@XZ		; Ogre::Exception::~Exception
	mov	ecx, DWORD PTR __$EHRec$[ebp]
	mov	DWORD PTR fs:0, ecx
	pop	ecx
	mov	esp, ebp
	pop	ebp
	ret	0
_TEXT	ENDS
;	COMDAT text$x
text$x	SEGMENT
__unwindfunclet$??1UnimplementedException@Ogre@@UAE@XZ$0:
	mov	ecx, DWORD PTR _this$[ebp]
	jmp	??1Exception@Ogre@@UAE@XZ		; Ogre::Exception::~Exception
__ehhandler$??1UnimplementedException@Ogre@@UAE@XZ:
	mov	edx, DWORD PTR [esp+8]
	lea	eax, DWORD PTR [edx+12]
	mov	ecx, DWORD PTR [edx-8]
	xor	ecx, eax
	call	@__security_check_cookie@4
	mov	eax, OFFSET __ehfuncinfo$??1UnimplementedException@Ogre@@UAE@XZ
	jmp	___CxxFrameHandler3
text$x	ENDS
??1UnimplementedException@Ogre@@UAE@XZ ENDP		; Ogre::UnimplementedException::~UnimplementedException
PUBLIC	??0UnimplementedException@Ogre@@QAE@ABV01@@Z	; Ogre::UnimplementedException::UnimplementedException
EXTRN	??0Exception@Ogre@@QAE@ABV01@@Z:PROC		; Ogre::Exception::Exception
;	COMDAT xdata$x
xdata$x	SEGMENT
__unwindtable$??0UnimplementedException@Ogre@@QAE@ABV01@@Z DD 0ffffffffH
	DD	FLAT:__unwindfunclet$??0UnimplementedException@Ogre@@QAE@ABV01@@Z$0
__ehfuncinfo$??0UnimplementedException@Ogre@@QAE@ABV01@@Z DD 019930522H
	DD	01H
	DD	FLAT:__unwindtable$??0UnimplementedException@Ogre@@QAE@ABV01@@Z
	DD	2 DUP(00H)
	DD	2 DUP(00H)
	DD	00H
	DD	00H
; Function compile flags: /Odtp
xdata$x	ENDS
;	COMDAT ??0UnimplementedException@Ogre@@QAE@ABV01@@Z
_TEXT	SEGMENT
_this$ = -16						; size = 4
__$EHRec$ = -12						; size = 12
___that$ = 8						; size = 4
??0UnimplementedException@Ogre@@QAE@ABV01@@Z PROC	; Ogre::UnimplementedException::UnimplementedException, COMDAT
; _this$ = ecx
	push	ebp
	mov	ebp, esp
	push	-1
	push	__ehhandler$??0UnimplementedException@Ogre@@QAE@ABV01@@Z
	mov	eax, DWORD PTR fs:0
	push	eax
	push	ecx
	mov	eax, DWORD PTR ___security_cookie
	xor	eax, ebp
	push	eax
	lea	eax, DWORD PTR __$EHRec$[ebp]
	mov	DWORD PTR fs:0, eax
	mov	DWORD PTR _this$[ebp], ecx
	mov	eax, DWORD PTR ___that$[ebp]
	push	eax
	mov	ecx, DWORD PTR _this$[ebp]
	call	??0Exception@Ogre@@QAE@ABV01@@Z		; Ogre::Exception::Exception
	mov	DWORD PTR __$EHRec$[ebp+8], 0
	mov	ecx, DWORD PTR _this$[ebp]
	mov	DWORD PTR [ecx], OFFSET ??_7UnimplementedException@Ogre@@6B@
	mov	DWORD PTR __$EHRec$[ebp+8], -1
	mov	eax, DWORD PTR _this$[ebp]
	mov	ecx, DWORD PTR __$EHRec$[ebp]
	mov	DWORD PTR fs:0, ecx
	pop	ecx
	mov	esp, ebp
	pop	ebp
	ret	4
_TEXT	ENDS
;	COMDAT text$x
text$x	SEGMENT
__unwindfunclet$??0UnimplementedException@Ogre@@QAE@ABV01@@Z$0:
	mov	ecx, DWORD PTR _this$[ebp]
	jmp	??1Exception@Ogre@@UAE@XZ		; Ogre::Exception::~Exception
__ehhandler$??0UnimplementedException@Ogre@@QAE@ABV01@@Z:
	mov	edx, DWORD PTR [esp+8]
	lea	eax, DWORD PTR [edx+12]
	mov	ecx, DWORD PTR [edx-8]
	xor	ecx, eax
	call	@__security_check_cookie@4
	mov	eax, OFFSET __ehfuncinfo$??0UnimplementedException@Ogre@@QAE@ABV01@@Z
	jmp	___CxxFrameHandler3
text$x	ENDS
??0UnimplementedException@Ogre@@QAE@ABV01@@Z ENDP	; Ogre::UnimplementedException::UnimplementedException
PUBLIC	??4UnimplementedException@Ogre@@QAEAAV01@ABV01@@Z ; Ogre::UnimplementedException::operator=
EXTRN	??4Exception@Ogre@@QAEXABV01@@Z:PROC		; Ogre::Exception::operator=
; Function compile flags: /Odtp
;	COMDAT ??4UnimplementedException@Ogre@@QAEAAV01@ABV01@@Z
_TEXT	SEGMENT
_this$ = -4						; size = 4
___that$ = 8						; size = 4
??4UnimplementedException@Ogre@@QAEAAV01@ABV01@@Z PROC	; Ogre::UnimplementedException::operator=, COMDAT
; _this$ = ecx
	push	ebp
	mov	ebp, esp
	push	ecx
	mov	DWORD PTR _this$[ebp], ecx
	mov	eax, DWORD PTR ___that$[ebp]
	push	eax
	mov	ecx, DWORD PTR _this$[ebp]
	call	??4Exception@Ogre@@QAEXABV01@@Z		; Ogre::Exception::operator=
	mov	eax, DWORD PTR _this$[ebp]
	mov	esp, ebp
	pop	ebp
	ret	4
??4UnimplementedException@Ogre@@QAEAAV01@ABV01@@Z ENDP	; Ogre::UnimplementedException::operator=
_TEXT	ENDS
PUBLIC	??_GUnimplementedException@Ogre@@UAEPAXI@Z	; Ogre::UnimplementedException::`scalar deleting destructor'
; Function compile flags: /Odtp
;	COMDAT ??_GUnimplementedException@Ogre@@UAEPAXI@Z
_TEXT	SEGMENT
_this$ = -4						; size = 4
___flags$ = 8						; size = 4
??_GUnimplementedException@Ogre@@UAEPAXI@Z PROC		; Ogre::UnimplementedException::`scalar deleting destructor', COMDAT
; _this$ = ecx
	push	ebp
	mov	ebp, esp
	push	ecx
	mov	DWORD PTR _this$[ebp], ecx
	mov	ecx, DWORD PTR _this$[ebp]
	call	??1UnimplementedException@Ogre@@UAE@XZ
	mov	eax, DWORD PTR ___flags$[ebp]
	and	eax, 1
	je	SHORT $LN1@scalar@10
	mov	ecx, DWORD PTR _this$[ebp]
	push	ecx
	call	??3@YAXPAX@Z				; operator delete
	add	esp, 4
$LN1@scalar@10:
	mov	eax, DWORD PTR _this$[ebp]
	mov	esp, ebp
	pop	ebp
	ret	4
??_GUnimplementedException@Ogre@@UAEPAXI@Z ENDP		; Ogre::UnimplementedException::`scalar deleting destructor'
; Function compile flags: /Odtp
_TEXT	ENDS
;	COMDAT ??_EUnimplementedException@Ogre@@UAEPAXI@Z
_TEXT	SEGMENT
_this$ = -4						; size = 4
___flags$ = 8						; size = 4
??_EUnimplementedException@Ogre@@UAEPAXI@Z PROC		; Ogre::UnimplementedException::`vector deleting destructor', COMDAT
; _this$ = ecx
	push	ebp
	mov	ebp, esp
	push	ecx
	mov	DWORD PTR _this$[ebp], ecx
	mov	eax, DWORD PTR ___flags$[ebp]
	and	eax, 2
	je	SHORT $LN3@vector@10
	push	OFFSET ??1UnimplementedException@Ogre@@UAE@XZ
	mov	ecx, DWORD PTR _this$[ebp]
	mov	edx, DWORD PTR [ecx-4]
	push	edx
	push	160					; 000000a0H
	mov	eax, DWORD PTR _this$[ebp]
	push	eax
	call	??_M@YGXPAXIHP6EX0@Z@Z
	mov	ecx, DWORD PTR ___flags$[ebp]
	and	ecx, 1
	je	SHORT $LN2@vector@10
	mov	edx, DWORD PTR _this$[ebp]
	sub	edx, 4
	push	edx
	call	??_V@YAXPAX@Z				; operator delete[]
	add	esp, 4
$LN2@vector@10:
	mov	eax, DWORD PTR _this$[ebp]
	sub	eax, 4
	jmp	SHORT $LN4@vector@10
$LN3@vector@10:
	mov	ecx, DWORD PTR _this$[ebp]
	call	??1UnimplementedException@Ogre@@UAE@XZ
	mov	eax, DWORD PTR ___flags$[ebp]
	and	eax, 1
	je	SHORT $LN1@vector@10
	mov	ecx, DWORD PTR _this$[ebp]
	push	ecx
	call	??3@YAXPAX@Z				; operator delete
	add	esp, 4
$LN1@vector@10:
	mov	eax, DWORD PTR _this$[ebp]
$LN4@vector@10:
	mov	esp, ebp
	pop	ebp
	ret	4
??_EUnimplementedException@Ogre@@UAEPAXI@Z ENDP		; Ogre::UnimplementedException::`vector deleting destructor'
_TEXT	ENDS
PUBLIC	??_7FileNotFoundException@Ogre@@6B@		; Ogre::FileNotFoundException::`vftable'
PUBLIC	??_C@_0BG@HLJIKHGO@FileNotFoundException?$AA@	; `string'
PUBLIC	??0FileNotFoundException@Ogre@@QAE@HABV?$basic_string@DU?$char_traits@D@std@@V?$allocator@D@2@@std@@0PBDJ@Z ; Ogre::FileNotFoundException::FileNotFoundException
PUBLIC	??_R4FileNotFoundException@Ogre@@6B@		; Ogre::FileNotFoundException::`RTTI Complete Object Locator'
PUBLIC	??_R0?AVFileNotFoundException@Ogre@@@8		; Ogre::FileNotFoundException `RTTI Type Descriptor'
PUBLIC	??_R3FileNotFoundException@Ogre@@8		; Ogre::FileNotFoundException::`RTTI Class Hierarchy Descriptor'
PUBLIC	??_R2FileNotFoundException@Ogre@@8		; Ogre::FileNotFoundException::`RTTI Base Class Array'
PUBLIC	??_R1A@?0A@EA@FileNotFoundException@Ogre@@8	; Ogre::FileNotFoundException::`RTTI Base Class Descriptor at (0,-1,0,64)'
PUBLIC	??_EFileNotFoundException@Ogre@@UAEPAXI@Z	; Ogre::FileNotFoundException::`vector deleting destructor'
;	COMDAT ??_R1A@?0A@EA@FileNotFoundException@Ogre@@8
rdata$r	SEGMENT
??_R1A@?0A@EA@FileNotFoundException@Ogre@@8 DD FLAT:??_R0?AVFileNotFoundException@Ogre@@@8 ; Ogre::FileNotFoundException::`RTTI Base Class Descriptor at (0,-1,0,64)'
	DD	02H
	DD	00H
	DD	0ffffffffH
	DD	00H
	DD	040H
	DD	FLAT:??_R3FileNotFoundException@Ogre@@8
rdata$r	ENDS
;	COMDAT ??_R2FileNotFoundException@Ogre@@8
rdata$r	SEGMENT
??_R2FileNotFoundException@Ogre@@8 DD FLAT:??_R1A@?0A@EA@FileNotFoundException@Ogre@@8 ; Ogre::FileNotFoundException::`RTTI Base Class Array'
	DD	FLAT:??_R1A@?0A@EA@Exception@Ogre@@8
	DD	FLAT:??_R1A@?0A@EA@exception@std@@8
rdata$r	ENDS
;	COMDAT ??_R3FileNotFoundException@Ogre@@8
rdata$r	SEGMENT
??_R3FileNotFoundException@Ogre@@8 DD 00H		; Ogre::FileNotFoundException::`RTTI Class Hierarchy Descriptor'
	DD	00H
	DD	03H
	DD	FLAT:??_R2FileNotFoundException@Ogre@@8
rdata$r	ENDS
;	COMDAT ??_R0?AVFileNotFoundException@Ogre@@@8
_DATA	SEGMENT
??_R0?AVFileNotFoundException@Ogre@@@8 DD FLAT:??_7type_info@@6B@ ; Ogre::FileNotFoundException `RTTI Type Descriptor'
	DD	00H
	DB	'.?AVFileNotFoundException@Ogre@@', 00H
_DATA	ENDS
;	COMDAT ??_R4FileNotFoundException@Ogre@@6B@
rdata$r	SEGMENT
??_R4FileNotFoundException@Ogre@@6B@ DD 00H		; Ogre::FileNotFoundException::`RTTI Complete Object Locator'
	DD	00H
	DD	00H
	DD	FLAT:??_R0?AVFileNotFoundException@Ogre@@@8
	DD	FLAT:??_R3FileNotFoundException@Ogre@@8
rdata$r	ENDS
;	COMDAT ??_7FileNotFoundException@Ogre@@6B@
CONST	SEGMENT
??_7FileNotFoundException@Ogre@@6B@ DD FLAT:??_R4FileNotFoundException@Ogre@@6B@ ; Ogre::FileNotFoundException::`vftable'
	DD	FLAT:??_EFileNotFoundException@Ogre@@UAEPAXI@Z
	DD	FLAT:?what@Exception@Ogre@@UBEPBDXZ
	DD	FLAT:?getFullDescription@Exception@Ogre@@UBEABV?$basic_string@DU?$char_traits@D@std@@V?$allocator@D@2@@std@@XZ
	DD	FLAT:?getNumber@Exception@Ogre@@UBEHXZ
	DD	FLAT:?getSource@Exception@Ogre@@UBEABV?$basic_string@DU?$char_traits@D@std@@V?$allocator@D@2@@std@@XZ
	DD	FLAT:?getFile@Exception@Ogre@@UBEABV?$basic_string@DU?$char_traits@D@std@@V?$allocator@D@2@@std@@XZ
	DD	FLAT:?getLine@Exception@Ogre@@UBEJXZ
	DD	FLAT:?getDescription@Exception@Ogre@@UBEABV?$basic_string@DU?$char_traits@D@std@@V?$allocator@D@2@@std@@XZ
CONST	ENDS
;	COMDAT ??_C@_0BG@HLJIKHGO@FileNotFoundException?$AA@
CONST	SEGMENT
??_C@_0BG@HLJIKHGO@FileNotFoundException?$AA@ DB 'FileNotFoundException', 00H ; `string'
CONST	ENDS
;	COMDAT xdata$x
xdata$x	SEGMENT
__unwindtable$??0FileNotFoundException@Ogre@@QAE@HABV?$basic_string@DU?$char_traits@D@std@@V?$allocator@D@2@@std@@0PBDJ@Z DD 0ffffffffH
	DD	FLAT:__unwindfunclet$??0FileNotFoundException@Ogre@@QAE@HABV?$basic_string@DU?$char_traits@D@std@@V?$allocator@D@2@@std@@0PBDJ@Z$0
__ehfuncinfo$??0FileNotFoundException@Ogre@@QAE@HABV?$basic_string@DU?$char_traits@D@std@@V?$allocator@D@2@@std@@0PBDJ@Z DD 019930522H
	DD	01H
	DD	FLAT:__unwindtable$??0FileNotFoundException@Ogre@@QAE@HABV?$basic_string@DU?$char_traits@D@std@@V?$allocator@D@2@@std@@0PBDJ@Z
	DD	2 DUP(00H)
	DD	2 DUP(00H)
	DD	00H
	DD	00H
; Function compile flags: /Odtp
xdata$x	ENDS
;	COMDAT ??0FileNotFoundException@Ogre@@QAE@HABV?$basic_string@DU?$char_traits@D@std@@V?$allocator@D@2@@std@@0PBDJ@Z
_TEXT	SEGMENT
_this$ = -16						; size = 4
__$EHRec$ = -12						; size = 12
_number$ = 8						; size = 4
_description$ = 12					; size = 4
_source$ = 16						; size = 4
_file$ = 20						; size = 4
_line$ = 24						; size = 4
??0FileNotFoundException@Ogre@@QAE@HABV?$basic_string@DU?$char_traits@D@std@@V?$allocator@D@2@@std@@0PBDJ@Z PROC ; Ogre::FileNotFoundException::FileNotFoundException, COMDAT
; _this$ = ecx

; 197  : 		FileNotFoundException(int number, const String& description, const String& source, const char* file, long line)

	push	ebp
	mov	ebp, esp
	push	-1
	push	__ehhandler$??0FileNotFoundException@Ogre@@QAE@HABV?$basic_string@DU?$char_traits@D@std@@V?$allocator@D@2@@std@@0PBDJ@Z
	mov	eax, DWORD PTR fs:0
	push	eax
	push	ecx
	mov	eax, DWORD PTR ___security_cookie
	xor	eax, ebp
	push	eax
	lea	eax, DWORD PTR __$EHRec$[ebp]
	mov	DWORD PTR fs:0, eax
	mov	DWORD PTR _this$[ebp], ecx
	mov	eax, DWORD PTR _line$[ebp]
	push	eax
	mov	ecx, DWORD PTR _file$[ebp]
	push	ecx
	push	OFFSET ??_C@_0BG@HLJIKHGO@FileNotFoundException?$AA@
	mov	edx, DWORD PTR _source$[ebp]
	push	edx
	mov	eax, DWORD PTR _description$[ebp]
	push	eax
	mov	ecx, DWORD PTR _number$[ebp]
	push	ecx
	mov	ecx, DWORD PTR _this$[ebp]
	call	??0Exception@Ogre@@QAE@HABV?$basic_string@DU?$char_traits@D@std@@V?$allocator@D@2@@std@@0PBD1J@Z ; Ogre::Exception::Exception
	mov	DWORD PTR __$EHRec$[ebp+8], 0
	mov	edx, DWORD PTR _this$[ebp]
	mov	DWORD PTR [edx], OFFSET ??_7FileNotFoundException@Ogre@@6B@
	mov	DWORD PTR __$EHRec$[ebp+8], -1
	mov	eax, DWORD PTR _this$[ebp]
	mov	ecx, DWORD PTR __$EHRec$[ebp]
	mov	DWORD PTR fs:0, ecx
	pop	ecx
	mov	esp, ebp
	pop	ebp
	ret	20					; 00000014H
_TEXT	ENDS
;	COMDAT text$x
text$x	SEGMENT
__unwindfunclet$??0FileNotFoundException@Ogre@@QAE@HABV?$basic_string@DU?$char_traits@D@std@@V?$allocator@D@2@@std@@0PBDJ@Z$0:
	mov	ecx, DWORD PTR _this$[ebp]
	jmp	??1Exception@Ogre@@UAE@XZ		; Ogre::Exception::~Exception
__ehhandler$??0FileNotFoundException@Ogre@@QAE@HABV?$basic_string@DU?$char_traits@D@std@@V?$allocator@D@2@@std@@0PBDJ@Z:
	mov	edx, DWORD PTR [esp+8]
	lea	eax, DWORD PTR [edx+12]
	mov	ecx, DWORD PTR [edx-8]
	xor	ecx, eax
	call	@__security_check_cookie@4
	mov	eax, OFFSET __ehfuncinfo$??0FileNotFoundException@Ogre@@QAE@HABV?$basic_string@DU?$char_traits@D@std@@V?$allocator@D@2@@std@@0PBDJ@Z
	jmp	___CxxFrameHandler3
text$x	ENDS
??0FileNotFoundException@Ogre@@QAE@HABV?$basic_string@DU?$char_traits@D@std@@V?$allocator@D@2@@std@@0PBDJ@Z ENDP ; Ogre::FileNotFoundException::FileNotFoundException
PUBLIC	??1FileNotFoundException@Ogre@@UAE@XZ		; Ogre::FileNotFoundException::~FileNotFoundException
;	COMDAT xdata$x
xdata$x	SEGMENT
__unwindtable$??1FileNotFoundException@Ogre@@UAE@XZ DD 0ffffffffH
	DD	FLAT:__unwindfunclet$??1FileNotFoundException@Ogre@@UAE@XZ$0
__ehfuncinfo$??1FileNotFoundException@Ogre@@UAE@XZ DD 019930522H
	DD	01H
	DD	FLAT:__unwindtable$??1FileNotFoundException@Ogre@@UAE@XZ
	DD	2 DUP(00H)
	DD	2 DUP(00H)
	DD	00H
	DD	00H
; Function compile flags: /Odtp
xdata$x	ENDS
;	COMDAT ??1FileNotFoundException@Ogre@@UAE@XZ
_TEXT	SEGMENT
_this$ = -16						; size = 4
__$EHRec$ = -12						; size = 12
??1FileNotFoundException@Ogre@@UAE@XZ PROC		; Ogre::FileNotFoundException::~FileNotFoundException, COMDAT
; _this$ = ecx
	push	ebp
	mov	ebp, esp
	push	-1
	push	__ehhandler$??1FileNotFoundException@Ogre@@UAE@XZ
	mov	eax, DWORD PTR fs:0
	push	eax
	push	ecx
	mov	eax, DWORD PTR ___security_cookie
	xor	eax, ebp
	push	eax
	lea	eax, DWORD PTR __$EHRec$[ebp]
	mov	DWORD PTR fs:0, eax
	mov	DWORD PTR _this$[ebp], ecx
	mov	DWORD PTR __$EHRec$[ebp+8], 0
	mov	DWORD PTR __$EHRec$[ebp+8], -1
	mov	ecx, DWORD PTR _this$[ebp]
	call	??1Exception@Ogre@@UAE@XZ		; Ogre::Exception::~Exception
	mov	ecx, DWORD PTR __$EHRec$[ebp]
	mov	DWORD PTR fs:0, ecx
	pop	ecx
	mov	esp, ebp
	pop	ebp
	ret	0
_TEXT	ENDS
;	COMDAT text$x
text$x	SEGMENT
__unwindfunclet$??1FileNotFoundException@Ogre@@UAE@XZ$0:
	mov	ecx, DWORD PTR _this$[ebp]
	jmp	??1Exception@Ogre@@UAE@XZ		; Ogre::Exception::~Exception
__ehhandler$??1FileNotFoundException@Ogre@@UAE@XZ:
	mov	edx, DWORD PTR [esp+8]
	lea	eax, DWORD PTR [edx+12]
	mov	ecx, DWORD PTR [edx-8]
	xor	ecx, eax
	call	@__security_check_cookie@4
	mov	eax, OFFSET __ehfuncinfo$??1FileNotFoundException@Ogre@@UAE@XZ
	jmp	___CxxFrameHandler3
text$x	ENDS
??1FileNotFoundException@Ogre@@UAE@XZ ENDP		; Ogre::FileNotFoundException::~FileNotFoundException
PUBLIC	??0FileNotFoundException@Ogre@@QAE@ABV01@@Z	; Ogre::FileNotFoundException::FileNotFoundException
;	COMDAT xdata$x
xdata$x	SEGMENT
__unwindtable$??0FileNotFoundException@Ogre@@QAE@ABV01@@Z DD 0ffffffffH
	DD	FLAT:__unwindfunclet$??0FileNotFoundException@Ogre@@QAE@ABV01@@Z$0
__ehfuncinfo$??0FileNotFoundException@Ogre@@QAE@ABV01@@Z DD 019930522H
	DD	01H
	DD	FLAT:__unwindtable$??0FileNotFoundException@Ogre@@QAE@ABV01@@Z
	DD	2 DUP(00H)
	DD	2 DUP(00H)
	DD	00H
	DD	00H
; Function compile flags: /Odtp
xdata$x	ENDS
;	COMDAT ??0FileNotFoundException@Ogre@@QAE@ABV01@@Z
_TEXT	SEGMENT
_this$ = -16						; size = 4
__$EHRec$ = -12						; size = 12
___that$ = 8						; size = 4
??0FileNotFoundException@Ogre@@QAE@ABV01@@Z PROC	; Ogre::FileNotFoundException::FileNotFoundException, COMDAT
; _this$ = ecx
	push	ebp
	mov	ebp, esp
	push	-1
	push	__ehhandler$??0FileNotFoundException@Ogre@@QAE@ABV01@@Z
	mov	eax, DWORD PTR fs:0
	push	eax
	push	ecx
	mov	eax, DWORD PTR ___security_cookie
	xor	eax, ebp
	push	eax
	lea	eax, DWORD PTR __$EHRec$[ebp]
	mov	DWORD PTR fs:0, eax
	mov	DWORD PTR _this$[ebp], ecx
	mov	eax, DWORD PTR ___that$[ebp]
	push	eax
	mov	ecx, DWORD PTR _this$[ebp]
	call	??0Exception@Ogre@@QAE@ABV01@@Z		; Ogre::Exception::Exception
	mov	DWORD PTR __$EHRec$[ebp+8], 0
	mov	ecx, DWORD PTR _this$[ebp]
	mov	DWORD PTR [ecx], OFFSET ??_7FileNotFoundException@Ogre@@6B@
	mov	DWORD PTR __$EHRec$[ebp+8], -1
	mov	eax, DWORD PTR _this$[ebp]
	mov	ecx, DWORD PTR __$EHRec$[ebp]
	mov	DWORD PTR fs:0, ecx
	pop	ecx
	mov	esp, ebp
	pop	ebp
	ret	4
_TEXT	ENDS
;	COMDAT text$x
text$x	SEGMENT
__unwindfunclet$??0FileNotFoundException@Ogre@@QAE@ABV01@@Z$0:
	mov	ecx, DWORD PTR _this$[ebp]
	jmp	??1Exception@Ogre@@UAE@XZ		; Ogre::Exception::~Exception
__ehhandler$??0FileNotFoundException@Ogre@@QAE@ABV01@@Z:
	mov	edx, DWORD PTR [esp+8]
	lea	eax, DWORD PTR [edx+12]
	mov	ecx, DWORD PTR [edx-8]
	xor	ecx, eax
	call	@__security_check_cookie@4
	mov	eax, OFFSET __ehfuncinfo$??0FileNotFoundException@Ogre@@QAE@ABV01@@Z
	jmp	___CxxFrameHandler3
text$x	ENDS
??0FileNotFoundException@Ogre@@QAE@ABV01@@Z ENDP	; Ogre::FileNotFoundException::FileNotFoundException
PUBLIC	??4FileNotFoundException@Ogre@@QAEAAV01@ABV01@@Z ; Ogre::FileNotFoundException::operator=
; Function compile flags: /Odtp
;	COMDAT ??4FileNotFoundException@Ogre@@QAEAAV01@ABV01@@Z
_TEXT	SEGMENT
_this$ = -4						; size = 4
___that$ = 8						; size = 4
??4FileNotFoundException@Ogre@@QAEAAV01@ABV01@@Z PROC	; Ogre::FileNotFoundException::operator=, COMDAT
; _this$ = ecx
	push	ebp
	mov	ebp, esp
	push	ecx
	mov	DWORD PTR _this$[ebp], ecx
	mov	eax, DWORD PTR ___that$[ebp]
	push	eax
	mov	ecx, DWORD PTR _this$[ebp]
	call	??4Exception@Ogre@@QAEXABV01@@Z		; Ogre::Exception::operator=
	mov	eax, DWORD PTR _this$[ebp]
	mov	esp, ebp
	pop	ebp
	ret	4
??4FileNotFoundException@Ogre@@QAEAAV01@ABV01@@Z ENDP	; Ogre::FileNotFoundException::operator=
_TEXT	ENDS
PUBLIC	??_GFileNotFoundException@Ogre@@UAEPAXI@Z	; Ogre::FileNotFoundException::`scalar deleting destructor'
; Function compile flags: /Odtp
;	COMDAT ??_GFileNotFoundException@Ogre@@UAEPAXI@Z
_TEXT	SEGMENT
_this$ = -4						; size = 4
___flags$ = 8						; size = 4
??_GFileNotFoundException@Ogre@@UAEPAXI@Z PROC		; Ogre::FileNotFoundException::`scalar deleting destructor', COMDAT
; _this$ = ecx
	push	ebp
	mov	ebp, esp
	push	ecx
	mov	DWORD PTR _this$[ebp], ecx
	mov	ecx, DWORD PTR _this$[ebp]
	call	??1FileNotFoundException@Ogre@@UAE@XZ
	mov	eax, DWORD PTR ___flags$[ebp]
	and	eax, 1
	je	SHORT $LN1@scalar@11
	mov	ecx, DWORD PTR _this$[ebp]
	push	ecx
	call	??3@YAXPAX@Z				; operator delete
	add	esp, 4
$LN1@scalar@11:
	mov	eax, DWORD PTR _this$[ebp]
	mov	esp, ebp
	pop	ebp
	ret	4
??_GFileNotFoundException@Ogre@@UAEPAXI@Z ENDP		; Ogre::FileNotFoundException::`scalar deleting destructor'
; Function compile flags: /Odtp
_TEXT	ENDS
;	COMDAT ??_EFileNotFoundException@Ogre@@UAEPAXI@Z
_TEXT	SEGMENT
_this$ = -4						; size = 4
___flags$ = 8						; size = 4
??_EFileNotFoundException@Ogre@@UAEPAXI@Z PROC		; Ogre::FileNotFoundException::`vector deleting destructor', COMDAT
; _this$ = ecx
	push	ebp
	mov	ebp, esp
	push	ecx
	mov	DWORD PTR _this$[ebp], ecx
	mov	eax, DWORD PTR ___flags$[ebp]
	and	eax, 2
	je	SHORT $LN3@vector@11
	push	OFFSET ??1FileNotFoundException@Ogre@@UAE@XZ
	mov	ecx, DWORD PTR _this$[ebp]
	mov	edx, DWORD PTR [ecx-4]
	push	edx
	push	160					; 000000a0H
	mov	eax, DWORD PTR _this$[ebp]
	push	eax
	call	??_M@YGXPAXIHP6EX0@Z@Z
	mov	ecx, DWORD PTR ___flags$[ebp]
	and	ecx, 1
	je	SHORT $LN2@vector@11
	mov	edx, DWORD PTR _this$[ebp]
	sub	edx, 4
	push	edx
	call	??_V@YAXPAX@Z				; operator delete[]
	add	esp, 4
$LN2@vector@11:
	mov	eax, DWORD PTR _this$[ebp]
	sub	eax, 4
	jmp	SHORT $LN4@vector@11
$LN3@vector@11:
	mov	ecx, DWORD PTR _this$[ebp]
	call	??1FileNotFoundException@Ogre@@UAE@XZ
	mov	eax, DWORD PTR ___flags$[ebp]
	and	eax, 1
	je	SHORT $LN1@vector@11
	mov	ecx, DWORD PTR _this$[ebp]
	push	ecx
	call	??3@YAXPAX@Z				; operator delete
	add	esp, 4
$LN1@vector@11:
	mov	eax, DWORD PTR _this$[ebp]
$LN4@vector@11:
	mov	esp, ebp
	pop	ebp
	ret	4
??_EFileNotFoundException@Ogre@@UAEPAXI@Z ENDP		; Ogre::FileNotFoundException::`vector deleting destructor'
_TEXT	ENDS
PUBLIC	??_7IOException@Ogre@@6B@			; Ogre::IOException::`vftable'
PUBLIC	??_C@_0M@CBPJAJJI@IOException?$AA@		; `string'
PUBLIC	??0IOException@Ogre@@QAE@HABV?$basic_string@DU?$char_traits@D@std@@V?$allocator@D@2@@std@@0PBDJ@Z ; Ogre::IOException::IOException
PUBLIC	??_R4IOException@Ogre@@6B@			; Ogre::IOException::`RTTI Complete Object Locator'
PUBLIC	??_R0?AVIOException@Ogre@@@8			; Ogre::IOException `RTTI Type Descriptor'
PUBLIC	??_R3IOException@Ogre@@8			; Ogre::IOException::`RTTI Class Hierarchy Descriptor'
PUBLIC	??_R2IOException@Ogre@@8			; Ogre::IOException::`RTTI Base Class Array'
PUBLIC	??_R1A@?0A@EA@IOException@Ogre@@8		; Ogre::IOException::`RTTI Base Class Descriptor at (0,-1,0,64)'
PUBLIC	??_EIOException@Ogre@@UAEPAXI@Z			; Ogre::IOException::`vector deleting destructor'
;	COMDAT ??_R1A@?0A@EA@IOException@Ogre@@8
rdata$r	SEGMENT
??_R1A@?0A@EA@IOException@Ogre@@8 DD FLAT:??_R0?AVIOException@Ogre@@@8 ; Ogre::IOException::`RTTI Base Class Descriptor at (0,-1,0,64)'
	DD	02H
	DD	00H
	DD	0ffffffffH
	DD	00H
	DD	040H
	DD	FLAT:??_R3IOException@Ogre@@8
rdata$r	ENDS
;	COMDAT ??_R2IOException@Ogre@@8
rdata$r	SEGMENT
??_R2IOException@Ogre@@8 DD FLAT:??_R1A@?0A@EA@IOException@Ogre@@8 ; Ogre::IOException::`RTTI Base Class Array'
	DD	FLAT:??_R1A@?0A@EA@Exception@Ogre@@8
	DD	FLAT:??_R1A@?0A@EA@exception@std@@8
rdata$r	ENDS
;	COMDAT ??_R3IOException@Ogre@@8
rdata$r	SEGMENT
??_R3IOException@Ogre@@8 DD 00H				; Ogre::IOException::`RTTI Class Hierarchy Descriptor'
	DD	00H
	DD	03H
	DD	FLAT:??_R2IOException@Ogre@@8
rdata$r	ENDS
;	COMDAT ??_R0?AVIOException@Ogre@@@8
_DATA	SEGMENT
??_R0?AVIOException@Ogre@@@8 DD FLAT:??_7type_info@@6B@	; Ogre::IOException `RTTI Type Descriptor'
	DD	00H
	DB	'.?AVIOException@Ogre@@', 00H
_DATA	ENDS
;	COMDAT ??_R4IOException@Ogre@@6B@
rdata$r	SEGMENT
??_R4IOException@Ogre@@6B@ DD 00H			; Ogre::IOException::`RTTI Complete Object Locator'
	DD	00H
	DD	00H
	DD	FLAT:??_R0?AVIOException@Ogre@@@8
	DD	FLAT:??_R3IOException@Ogre@@8
rdata$r	ENDS
;	COMDAT ??_7IOException@Ogre@@6B@
CONST	SEGMENT
??_7IOException@Ogre@@6B@ DD FLAT:??_R4IOException@Ogre@@6B@ ; Ogre::IOException::`vftable'
	DD	FLAT:??_EIOException@Ogre@@UAEPAXI@Z
	DD	FLAT:?what@Exception@Ogre@@UBEPBDXZ
	DD	FLAT:?getFullDescription@Exception@Ogre@@UBEABV?$basic_string@DU?$char_traits@D@std@@V?$allocator@D@2@@std@@XZ
	DD	FLAT:?getNumber@Exception@Ogre@@UBEHXZ
	DD	FLAT:?getSource@Exception@Ogre@@UBEABV?$basic_string@DU?$char_traits@D@std@@V?$allocator@D@2@@std@@XZ
	DD	FLAT:?getFile@Exception@Ogre@@UBEABV?$basic_string@DU?$char_traits@D@std@@V?$allocator@D@2@@std@@XZ
	DD	FLAT:?getLine@Exception@Ogre@@UBEJXZ
	DD	FLAT:?getDescription@Exception@Ogre@@UBEABV?$basic_string@DU?$char_traits@D@std@@V?$allocator@D@2@@std@@XZ
CONST	ENDS
;	COMDAT ??_C@_0M@CBPJAJJI@IOException?$AA@
CONST	SEGMENT
??_C@_0M@CBPJAJJI@IOException?$AA@ DB 'IOException', 00H ; `string'
CONST	ENDS
;	COMDAT xdata$x
xdata$x	SEGMENT
__unwindtable$??0IOException@Ogre@@QAE@HABV?$basic_string@DU?$char_traits@D@std@@V?$allocator@D@2@@std@@0PBDJ@Z DD 0ffffffffH
	DD	FLAT:__unwindfunclet$??0IOException@Ogre@@QAE@HABV?$basic_string@DU?$char_traits@D@std@@V?$allocator@D@2@@std@@0PBDJ@Z$0
__ehfuncinfo$??0IOException@Ogre@@QAE@HABV?$basic_string@DU?$char_traits@D@std@@V?$allocator@D@2@@std@@0PBDJ@Z DD 019930522H
	DD	01H
	DD	FLAT:__unwindtable$??0IOException@Ogre@@QAE@HABV?$basic_string@DU?$char_traits@D@std@@V?$allocator@D@2@@std@@0PBDJ@Z
	DD	2 DUP(00H)
	DD	2 DUP(00H)
	DD	00H
	DD	00H
; Function compile flags: /Odtp
xdata$x	ENDS
;	COMDAT ??0IOException@Ogre@@QAE@HABV?$basic_string@DU?$char_traits@D@std@@V?$allocator@D@2@@std@@0PBDJ@Z
_TEXT	SEGMENT
_this$ = -16						; size = 4
__$EHRec$ = -12						; size = 12
_number$ = 8						; size = 4
_description$ = 12					; size = 4
_source$ = 16						; size = 4
_file$ = 20						; size = 4
_line$ = 24						; size = 4
??0IOException@Ogre@@QAE@HABV?$basic_string@DU?$char_traits@D@std@@V?$allocator@D@2@@std@@0PBDJ@Z PROC ; Ogre::IOException::IOException, COMDAT
; _this$ = ecx

; 203  : 		IOException(int number, const String& description, const String& source, const char* file, long line)

	push	ebp
	mov	ebp, esp
	push	-1
	push	__ehhandler$??0IOException@Ogre@@QAE@HABV?$basic_string@DU?$char_traits@D@std@@V?$allocator@D@2@@std@@0PBDJ@Z
	mov	eax, DWORD PTR fs:0
	push	eax
	push	ecx
	mov	eax, DWORD PTR ___security_cookie
	xor	eax, ebp
	push	eax
	lea	eax, DWORD PTR __$EHRec$[ebp]
	mov	DWORD PTR fs:0, eax
	mov	DWORD PTR _this$[ebp], ecx
	mov	eax, DWORD PTR _line$[ebp]
	push	eax
	mov	ecx, DWORD PTR _file$[ebp]
	push	ecx
	push	OFFSET ??_C@_0M@CBPJAJJI@IOException?$AA@
	mov	edx, DWORD PTR _source$[ebp]
	push	edx
	mov	eax, DWORD PTR _description$[ebp]
	push	eax
	mov	ecx, DWORD PTR _number$[ebp]
	push	ecx
	mov	ecx, DWORD PTR _this$[ebp]
	call	??0Exception@Ogre@@QAE@HABV?$basic_string@DU?$char_traits@D@std@@V?$allocator@D@2@@std@@0PBD1J@Z ; Ogre::Exception::Exception
	mov	DWORD PTR __$EHRec$[ebp+8], 0
	mov	edx, DWORD PTR _this$[ebp]
	mov	DWORD PTR [edx], OFFSET ??_7IOException@Ogre@@6B@
	mov	DWORD PTR __$EHRec$[ebp+8], -1
	mov	eax, DWORD PTR _this$[ebp]
	mov	ecx, DWORD PTR __$EHRec$[ebp]
	mov	DWORD PTR fs:0, ecx
	pop	ecx
	mov	esp, ebp
	pop	ebp
	ret	20					; 00000014H
_TEXT	ENDS
;	COMDAT text$x
text$x	SEGMENT
__unwindfunclet$??0IOException@Ogre@@QAE@HABV?$basic_string@DU?$char_traits@D@std@@V?$allocator@D@2@@std@@0PBDJ@Z$0:
	mov	ecx, DWORD PTR _this$[ebp]
	jmp	??1Exception@Ogre@@UAE@XZ		; Ogre::Exception::~Exception
__ehhandler$??0IOException@Ogre@@QAE@HABV?$basic_string@DU?$char_traits@D@std@@V?$allocator@D@2@@std@@0PBDJ@Z:
	mov	edx, DWORD PTR [esp+8]
	lea	eax, DWORD PTR [edx+12]
	mov	ecx, DWORD PTR [edx-8]
	xor	ecx, eax
	call	@__security_check_cookie@4
	mov	eax, OFFSET __ehfuncinfo$??0IOException@Ogre@@QAE@HABV?$basic_string@DU?$char_traits@D@std@@V?$allocator@D@2@@std@@0PBDJ@Z
	jmp	___CxxFrameHandler3
text$x	ENDS
??0IOException@Ogre@@QAE@HABV?$basic_string@DU?$char_traits@D@std@@V?$allocator@D@2@@std@@0PBDJ@Z ENDP ; Ogre::IOException::IOException
PUBLIC	??1IOException@Ogre@@UAE@XZ			; Ogre::IOException::~IOException
;	COMDAT xdata$x
xdata$x	SEGMENT
__unwindtable$??1IOException@Ogre@@UAE@XZ DD 0ffffffffH
	DD	FLAT:__unwindfunclet$??1IOException@Ogre@@UAE@XZ$0
__ehfuncinfo$??1IOException@Ogre@@UAE@XZ DD 019930522H
	DD	01H
	DD	FLAT:__unwindtable$??1IOException@Ogre@@UAE@XZ
	DD	2 DUP(00H)
	DD	2 DUP(00H)
	DD	00H
	DD	00H
; Function compile flags: /Odtp
xdata$x	ENDS
;	COMDAT ??1IOException@Ogre@@UAE@XZ
_TEXT	SEGMENT
_this$ = -16						; size = 4
__$EHRec$ = -12						; size = 12
??1IOException@Ogre@@UAE@XZ PROC			; Ogre::IOException::~IOException, COMDAT
; _this$ = ecx
	push	ebp
	mov	ebp, esp
	push	-1
	push	__ehhandler$??1IOException@Ogre@@UAE@XZ
	mov	eax, DWORD PTR fs:0
	push	eax
	push	ecx
	mov	eax, DWORD PTR ___security_cookie
	xor	eax, ebp
	push	eax
	lea	eax, DWORD PTR __$EHRec$[ebp]
	mov	DWORD PTR fs:0, eax
	mov	DWORD PTR _this$[ebp], ecx
	mov	DWORD PTR __$EHRec$[ebp+8], 0
	mov	DWORD PTR __$EHRec$[ebp+8], -1
	mov	ecx, DWORD PTR _this$[ebp]
	call	??1Exception@Ogre@@UAE@XZ		; Ogre::Exception::~Exception
	mov	ecx, DWORD PTR __$EHRec$[ebp]
	mov	DWORD PTR fs:0, ecx
	pop	ecx
	mov	esp, ebp
	pop	ebp
	ret	0
_TEXT	ENDS
;	COMDAT text$x
text$x	SEGMENT
__unwindfunclet$??1IOException@Ogre@@UAE@XZ$0:
	mov	ecx, DWORD PTR _this$[ebp]
	jmp	??1Exception@Ogre@@UAE@XZ		; Ogre::Exception::~Exception
__ehhandler$??1IOException@Ogre@@UAE@XZ:
	mov	edx, DWORD PTR [esp+8]
	lea	eax, DWORD PTR [edx+12]
	mov	ecx, DWORD PTR [edx-8]
	xor	ecx, eax
	call	@__security_check_cookie@4
	mov	eax, OFFSET __ehfuncinfo$??1IOException@Ogre@@UAE@XZ
	jmp	___CxxFrameHandler3
text$x	ENDS
??1IOException@Ogre@@UAE@XZ ENDP			; Ogre::IOException::~IOException
PUBLIC	??0IOException@Ogre@@QAE@ABV01@@Z		; Ogre::IOException::IOException
;	COMDAT xdata$x
xdata$x	SEGMENT
__unwindtable$??0IOException@Ogre@@QAE@ABV01@@Z DD 0ffffffffH
	DD	FLAT:__unwindfunclet$??0IOException@Ogre@@QAE@ABV01@@Z$0
__ehfuncinfo$??0IOException@Ogre@@QAE@ABV01@@Z DD 019930522H
	DD	01H
	DD	FLAT:__unwindtable$??0IOException@Ogre@@QAE@ABV01@@Z
	DD	2 DUP(00H)
	DD	2 DUP(00H)
	DD	00H
	DD	00H
; Function compile flags: /Odtp
xdata$x	ENDS
;	COMDAT ??0IOException@Ogre@@QAE@ABV01@@Z
_TEXT	SEGMENT
_this$ = -16						; size = 4
__$EHRec$ = -12						; size = 12
___that$ = 8						; size = 4
??0IOException@Ogre@@QAE@ABV01@@Z PROC			; Ogre::IOException::IOException, COMDAT
; _this$ = ecx
	push	ebp
	mov	ebp, esp
	push	-1
	push	__ehhandler$??0IOException@Ogre@@QAE@ABV01@@Z
	mov	eax, DWORD PTR fs:0
	push	eax
	push	ecx
	mov	eax, DWORD PTR ___security_cookie
	xor	eax, ebp
	push	eax
	lea	eax, DWORD PTR __$EHRec$[ebp]
	mov	DWORD PTR fs:0, eax
	mov	DWORD PTR _this$[ebp], ecx
	mov	eax, DWORD PTR ___that$[ebp]
	push	eax
	mov	ecx, DWORD PTR _this$[ebp]
	call	??0Exception@Ogre@@QAE@ABV01@@Z		; Ogre::Exception::Exception
	mov	DWORD PTR __$EHRec$[ebp+8], 0
	mov	ecx, DWORD PTR _this$[ebp]
	mov	DWORD PTR [ecx], OFFSET ??_7IOException@Ogre@@6B@
	mov	DWORD PTR __$EHRec$[ebp+8], -1
	mov	eax, DWORD PTR _this$[ebp]
	mov	ecx, DWORD PTR __$EHRec$[ebp]
	mov	DWORD PTR fs:0, ecx
	pop	ecx
	mov	esp, ebp
	pop	ebp
	ret	4
_TEXT	ENDS
;	COMDAT text$x
text$x	SEGMENT
__unwindfunclet$??0IOException@Ogre@@QAE@ABV01@@Z$0:
	mov	ecx, DWORD PTR _this$[ebp]
	jmp	??1Exception@Ogre@@UAE@XZ		; Ogre::Exception::~Exception
__ehhandler$??0IOException@Ogre@@QAE@ABV01@@Z:
	mov	edx, DWORD PTR [esp+8]
	lea	eax, DWORD PTR [edx+12]
	mov	ecx, DWORD PTR [edx-8]
	xor	ecx, eax
	call	@__security_check_cookie@4
	mov	eax, OFFSET __ehfuncinfo$??0IOException@Ogre@@QAE@ABV01@@Z
	jmp	___CxxFrameHandler3
text$x	ENDS
??0IOException@Ogre@@QAE@ABV01@@Z ENDP			; Ogre::IOException::IOException
PUBLIC	??4IOException@Ogre@@QAEAAV01@ABV01@@Z		; Ogre::IOException::operator=
; Function compile flags: /Odtp
;	COMDAT ??4IOException@Ogre@@QAEAAV01@ABV01@@Z
_TEXT	SEGMENT
_this$ = -4						; size = 4
___that$ = 8						; size = 4
??4IOException@Ogre@@QAEAAV01@ABV01@@Z PROC		; Ogre::IOException::operator=, COMDAT
; _this$ = ecx
	push	ebp
	mov	ebp, esp
	push	ecx
	mov	DWORD PTR _this$[ebp], ecx
	mov	eax, DWORD PTR ___that$[ebp]
	push	eax
	mov	ecx, DWORD PTR _this$[ebp]
	call	??4Exception@Ogre@@QAEXABV01@@Z		; Ogre::Exception::operator=
	mov	eax, DWORD PTR _this$[ebp]
	mov	esp, ebp
	pop	ebp
	ret	4
??4IOException@Ogre@@QAEAAV01@ABV01@@Z ENDP		; Ogre::IOException::operator=
_TEXT	ENDS
PUBLIC	??_GIOException@Ogre@@UAEPAXI@Z			; Ogre::IOException::`scalar deleting destructor'
; Function compile flags: /Odtp
;	COMDAT ??_GIOException@Ogre@@UAEPAXI@Z
_TEXT	SEGMENT
_this$ = -4						; size = 4
___flags$ = 8						; size = 4
??_GIOException@Ogre@@UAEPAXI@Z PROC			; Ogre::IOException::`scalar deleting destructor', COMDAT
; _this$ = ecx
	push	ebp
	mov	ebp, esp
	push	ecx
	mov	DWORD PTR _this$[ebp], ecx
	mov	ecx, DWORD PTR _this$[ebp]
	call	??1IOException@Ogre@@UAE@XZ
	mov	eax, DWORD PTR ___flags$[ebp]
	and	eax, 1
	je	SHORT $LN1@scalar@12
	mov	ecx, DWORD PTR _this$[ebp]
	push	ecx
	call	??3@YAXPAX@Z				; operator delete
	add	esp, 4
$LN1@scalar@12:
	mov	eax, DWORD PTR _this$[ebp]
	mov	esp, ebp
	pop	ebp
	ret	4
??_GIOException@Ogre@@UAEPAXI@Z ENDP			; Ogre::IOException::`scalar deleting destructor'
; Function compile flags: /Odtp
_TEXT	ENDS
;	COMDAT ??_EIOException@Ogre@@UAEPAXI@Z
_TEXT	SEGMENT
_this$ = -4						; size = 4
___flags$ = 8						; size = 4
??_EIOException@Ogre@@UAEPAXI@Z PROC			; Ogre::IOException::`vector deleting destructor', COMDAT
; _this$ = ecx
	push	ebp
	mov	ebp, esp
	push	ecx
	mov	DWORD PTR _this$[ebp], ecx
	mov	eax, DWORD PTR ___flags$[ebp]
	and	eax, 2
	je	SHORT $LN3@vector@12
	push	OFFSET ??1IOException@Ogre@@UAE@XZ
	mov	ecx, DWORD PTR _this$[ebp]
	mov	edx, DWORD PTR [ecx-4]
	push	edx
	push	160					; 000000a0H
	mov	eax, DWORD PTR _this$[ebp]
	push	eax
	call	??_M@YGXPAXIHP6EX0@Z@Z
	mov	ecx, DWORD PTR ___flags$[ebp]
	and	ecx, 1
	je	SHORT $LN2@vector@12
	mov	edx, DWORD PTR _this$[ebp]
	sub	edx, 4
	push	edx
	call	??_V@YAXPAX@Z				; operator delete[]
	add	esp, 4
$LN2@vector@12:
	mov	eax, DWORD PTR _this$[ebp]
	sub	eax, 4
	jmp	SHORT $LN4@vector@12
$LN3@vector@12:
	mov	ecx, DWORD PTR _this$[ebp]
	call	??1IOException@Ogre@@UAE@XZ
	mov	eax, DWORD PTR ___flags$[ebp]
	and	eax, 1
	je	SHORT $LN1@vector@12
	mov	ecx, DWORD PTR _this$[ebp]
	push	ecx
	call	??3@YAXPAX@Z				; operator delete
	add	esp, 4
$LN1@vector@12:
	mov	eax, DWORD PTR _this$[ebp]
$LN4@vector@12:
	mov	esp, ebp
	pop	ebp
	ret	4
??_EIOException@Ogre@@UAEPAXI@Z ENDP			; Ogre::IOException::`vector deleting destructor'
_TEXT	ENDS
PUBLIC	??_7InvalidStateException@Ogre@@6B@		; Ogre::InvalidStateException::`vftable'
PUBLIC	??_C@_0BG@IEKPFFPO@InvalidStateException?$AA@	; `string'
PUBLIC	??0InvalidStateException@Ogre@@QAE@HABV?$basic_string@DU?$char_traits@D@std@@V?$allocator@D@2@@std@@0PBDJ@Z ; Ogre::InvalidStateException::InvalidStateException
PUBLIC	??_R4InvalidStateException@Ogre@@6B@		; Ogre::InvalidStateException::`RTTI Complete Object Locator'
PUBLIC	??_R0?AVInvalidStateException@Ogre@@@8		; Ogre::InvalidStateException `RTTI Type Descriptor'
PUBLIC	??_R3InvalidStateException@Ogre@@8		; Ogre::InvalidStateException::`RTTI Class Hierarchy Descriptor'
PUBLIC	??_R2InvalidStateException@Ogre@@8		; Ogre::InvalidStateException::`RTTI Base Class Array'
PUBLIC	??_R1A@?0A@EA@InvalidStateException@Ogre@@8	; Ogre::InvalidStateException::`RTTI Base Class Descriptor at (0,-1,0,64)'
PUBLIC	??_EInvalidStateException@Ogre@@UAEPAXI@Z	; Ogre::InvalidStateException::`vector deleting destructor'
;	COMDAT ??_R1A@?0A@EA@InvalidStateException@Ogre@@8
rdata$r	SEGMENT
??_R1A@?0A@EA@InvalidStateException@Ogre@@8 DD FLAT:??_R0?AVInvalidStateException@Ogre@@@8 ; Ogre::InvalidStateException::`RTTI Base Class Descriptor at (0,-1,0,64)'
	DD	02H
	DD	00H
	DD	0ffffffffH
	DD	00H
	DD	040H
	DD	FLAT:??_R3InvalidStateException@Ogre@@8
rdata$r	ENDS
;	COMDAT ??_R2InvalidStateException@Ogre@@8
rdata$r	SEGMENT
??_R2InvalidStateException@Ogre@@8 DD FLAT:??_R1A@?0A@EA@InvalidStateException@Ogre@@8 ; Ogre::InvalidStateException::`RTTI Base Class Array'
	DD	FLAT:??_R1A@?0A@EA@Exception@Ogre@@8
	DD	FLAT:??_R1A@?0A@EA@exception@std@@8
rdata$r	ENDS
;	COMDAT ??_R3InvalidStateException@Ogre@@8
rdata$r	SEGMENT
??_R3InvalidStateException@Ogre@@8 DD 00H		; Ogre::InvalidStateException::`RTTI Class Hierarchy Descriptor'
	DD	00H
	DD	03H
	DD	FLAT:??_R2InvalidStateException@Ogre@@8
rdata$r	ENDS
;	COMDAT ??_R0?AVInvalidStateException@Ogre@@@8
_DATA	SEGMENT
??_R0?AVInvalidStateException@Ogre@@@8 DD FLAT:??_7type_info@@6B@ ; Ogre::InvalidStateException `RTTI Type Descriptor'
	DD	00H
	DB	'.?AVInvalidStateException@Ogre@@', 00H
_DATA	ENDS
;	COMDAT ??_R4InvalidStateException@Ogre@@6B@
rdata$r	SEGMENT
??_R4InvalidStateException@Ogre@@6B@ DD 00H		; Ogre::InvalidStateException::`RTTI Complete Object Locator'
	DD	00H
	DD	00H
	DD	FLAT:??_R0?AVInvalidStateException@Ogre@@@8
	DD	FLAT:??_R3InvalidStateException@Ogre@@8
rdata$r	ENDS
;	COMDAT ??_7InvalidStateException@Ogre@@6B@
CONST	SEGMENT
??_7InvalidStateException@Ogre@@6B@ DD FLAT:??_R4InvalidStateException@Ogre@@6B@ ; Ogre::InvalidStateException::`vftable'
	DD	FLAT:??_EInvalidStateException@Ogre@@UAEPAXI@Z
	DD	FLAT:?what@Exception@Ogre@@UBEPBDXZ
	DD	FLAT:?getFullDescription@Exception@Ogre@@UBEABV?$basic_string@DU?$char_traits@D@std@@V?$allocator@D@2@@std@@XZ
	DD	FLAT:?getNumber@Exception@Ogre@@UBEHXZ
	DD	FLAT:?getSource@Exception@Ogre@@UBEABV?$basic_string@DU?$char_traits@D@std@@V?$allocator@D@2@@std@@XZ
	DD	FLAT:?getFile@Exception@Ogre@@UBEABV?$basic_string@DU?$char_traits@D@std@@V?$allocator@D@2@@std@@XZ
	DD	FLAT:?getLine@Exception@Ogre@@UBEJXZ
