; Listing generated by Microsoft (R) Optimizing Compiler Version 15.00.30729.01 

	TITLE	i:\svnroot\client\OgreMain\OgreOSUtility.cpp
	.686P
	.XMM
	include listing.inc
	.model	flat

INCLUDELIB MSVCRT
INCLUDELIB OLDNAMES

PUBLIC	?_Value@?$_Is_swap_move@U_Swap_move_tag@std@@@std@@2_NB ; std::_Is_swap_move<std::_Swap_move_tag>::_Value
PUBLIC	?collate@?$_Locbase@H@std@@2HB			; std::_Locbase<int>::collate
PUBLIC	?ctype@?$_Locbase@H@std@@2HB			; std::_Locbase<int>::ctype
PUBLIC	?monetary@?$_Locbase@H@std@@2HB			; std::_Locbase<int>::monetary
PUBLIC	?numeric@?$_Locbase@H@std@@2HB			; std::_Locbase<int>::numeric
PUBLIC	?time@?$_Locbase@H@std@@2HB			; std::_Locbase<int>::time
PUBLIC	?messages@?$_Locbase@H@std@@2HB			; std::_Locbase<int>::messages
PUBLIC	?all@?$_Locbase@H@std@@2HB			; std::_Locbase<int>::all
PUBLIC	?none@?$_Locbase@H@std@@2HB			; std::_Locbase<int>::none
PUBLIC	?skipws@?$_Iosb@H@std@@2W4_Fmtflags@12@B	; std::_Iosb<int>::skipws
PUBLIC	?unitbuf@?$_Iosb@H@std@@2W4_Fmtflags@12@B	; std::_Iosb<int>::unitbuf
PUBLIC	?uppercase@?$_Iosb@H@std@@2W4_Fmtflags@12@B	; std::_Iosb<int>::uppercase
PUBLIC	?showbase@?$_Iosb@H@std@@2W4_Fmtflags@12@B	; std::_Iosb<int>::showbase
PUBLIC	?showpoint@?$_Iosb@H@std@@2W4_Fmtflags@12@B	; std::_Iosb<int>::showpoint
PUBLIC	?showpos@?$_Iosb@H@std@@2W4_Fmtflags@12@B	; std::_Iosb<int>::showpos
PUBLIC	?left@?$_Iosb@H@std@@2W4_Fmtflags@12@B		; std::_Iosb<int>::left
PUBLIC	?right@?$_Iosb@H@std@@2W4_Fmtflags@12@B		; std::_Iosb<int>::right
PUBLIC	?internal@?$_Iosb@H@std@@2W4_Fmtflags@12@B	; std::_Iosb<int>::internal
PUBLIC	?dec@?$_Iosb@H@std@@2W4_Fmtflags@12@B		; std::_Iosb<int>::dec
PUBLIC	?oct@?$_Iosb@H@std@@2W4_Fmtflags@12@B		; std::_Iosb<int>::oct
PUBLIC	?hex@?$_Iosb@H@std@@2W4_Fmtflags@12@B		; std::_Iosb<int>::hex
PUBLIC	?scientific@?$_Iosb@H@std@@2W4_Fmtflags@12@B	; std::_Iosb<int>::scientific
PUBLIC	?fixed@?$_Iosb@H@std@@2W4_Fmtflags@12@B		; std::_Iosb<int>::fixed
PUBLIC	?hexfloat@?$_Iosb@H@std@@2W4_Fmtflags@12@B	; std::_Iosb<int>::hexfloat
PUBLIC	?boolalpha@?$_Iosb@H@std@@2W4_Fmtflags@12@B	; std::_Iosb<int>::boolalpha
PUBLIC	?_Stdio@?$_Iosb@H@std@@2W4_Fmtflags@12@B	; std::_Iosb<int>::_Stdio
PUBLIC	?adjustfield@?$_Iosb@H@std@@2W4_Fmtflags@12@B	; std::_Iosb<int>::adjustfield
PUBLIC	?basefield@?$_Iosb@H@std@@2W4_Fmtflags@12@B	; std::_Iosb<int>::basefield
PUBLIC	?floatfield@?$_Iosb@H@std@@2W4_Fmtflags@12@B	; std::_Iosb<int>::floatfield
PUBLIC	?goodbit@?$_Iosb@H@std@@2W4_Iostate@12@B	; std::_Iosb<int>::goodbit
PUBLIC	?eofbit@?$_Iosb@H@std@@2W4_Iostate@12@B		; std::_Iosb<int>::eofbit
PUBLIC	?failbit@?$_Iosb@H@std@@2W4_Iostate@12@B	; std::_Iosb<int>::failbit
PUBLIC	?badbit@?$_Iosb@H@std@@2W4_Iostate@12@B		; std::_Iosb<int>::badbit
PUBLIC	?_Hardfail@?$_Iosb@H@std@@2W4_Iostate@12@B	; std::_Iosb<int>::_Hardfail
PUBLIC	?in@?$_Iosb@H@std@@2W4_Openmode@12@B		; std::_Iosb<int>::in
PUBLIC	?out@?$_Iosb@H@std@@2W4_Openmode@12@B		; std::_Iosb<int>::out
PUBLIC	?ate@?$_Iosb@H@std@@2W4_Openmode@12@B		; std::_Iosb<int>::ate
PUBLIC	?app@?$_Iosb@H@std@@2W4_Openmode@12@B		; std::_Iosb<int>::app
PUBLIC	?trunc@?$_Iosb@H@std@@2W4_Openmode@12@B		; std::_Iosb<int>::trunc
PUBLIC	?_Nocreate@?$_Iosb@H@std@@2W4_Openmode@12@B	; std::_Iosb<int>::_Nocreate
PUBLIC	?_Noreplace@?$_Iosb@H@std@@2W4_Openmode@12@B	; std::_Iosb<int>::_Noreplace
PUBLIC	?binary@?$_Iosb@H@std@@2W4_Openmode@12@B	; std::_Iosb<int>::binary
PUBLIC	?beg@?$_Iosb@H@std@@2W4_Seekdir@12@B		; std::_Iosb<int>::beg
PUBLIC	?cur@?$_Iosb@H@std@@2W4_Seekdir@12@B		; std::_Iosb<int>::cur
PUBLIC	?end@?$_Iosb@H@std@@2W4_Seekdir@12@B		; std::_Iosb<int>::end
PUBLIC	?value@?$integral_constant@_N$0A@@tr1@std@@2_NB	; std::tr1::integral_constant<bool,0>::value
PUBLIC	?value@?$integral_constant@_N$00@tr1@std@@2_NB	; std::tr1::integral_constant<bool,1>::value
_BSS	SEGMENT
_s_num_thread DD 01H DUP (?)
_BSS	ENDS
;	COMDAT ?value@?$integral_constant@_N$00@tr1@std@@2_NB
CONST	SEGMENT
?value@?$integral_constant@_N$00@tr1@std@@2_NB DB 01H	; std::tr1::integral_constant<bool,1>::value
CONST	ENDS
;	COMDAT ?value@?$integral_constant@_N$0A@@tr1@std@@2_NB
CONST	SEGMENT
?value@?$integral_constant@_N$0A@@tr1@std@@2_NB DB 00H	; std::tr1::integral_constant<bool,0>::value
CONST	ENDS
;	COMDAT ?end@?$_Iosb@H@std@@2W4_Seekdir@12@B
CONST	SEGMENT
?end@?$_Iosb@H@std@@2W4_Seekdir@12@B DD 02H		; std::_Iosb<int>::end
CONST	ENDS
;	COMDAT ?cur@?$_Iosb@H@std@@2W4_Seekdir@12@B
CONST	SEGMENT
?cur@?$_Iosb@H@std@@2W4_Seekdir@12@B DD 01H		; std::_Iosb<int>::cur
CONST	ENDS
;	COMDAT ?beg@?$_Iosb@H@std@@2W4_Seekdir@12@B
CONST	SEGMENT
?beg@?$_Iosb@H@std@@2W4_Seekdir@12@B DD 00H		; std::_Iosb<int>::beg
CONST	ENDS
;	COMDAT ?binary@?$_Iosb@H@std@@2W4_Openmode@12@B
CONST	SEGMENT
?binary@?$_Iosb@H@std@@2W4_Openmode@12@B DD 020H	; std::_Iosb<int>::binary
CONST	ENDS
;	COMDAT ?_Noreplace@?$_Iosb@H@std@@2W4_Openmode@12@B
CONST	SEGMENT
?_Noreplace@?$_Iosb@H@std@@2W4_Openmode@12@B DD 080H	; std::_Iosb<int>::_Noreplace
CONST	ENDS
;	COMDAT ?_Nocreate@?$_Iosb@H@std@@2W4_Openmode@12@B
CONST	SEGMENT
?_Nocreate@?$_Iosb@H@std@@2W4_Openmode@12@B DD 040H	; std::_Iosb<int>::_Nocreate
CONST	ENDS
;	COMDAT ?trunc@?$_Iosb@H@std@@2W4_Openmode@12@B
CONST	SEGMENT
?trunc@?$_Iosb@H@std@@2W4_Openmode@12@B DD 010H		; std::_Iosb<int>::trunc
CONST	ENDS
;	COMDAT ?app@?$_Iosb@H@std@@2W4_Openmode@12@B
CONST	SEGMENT
?app@?$_Iosb@H@std@@2W4_Openmode@12@B DD 08H		; std::_Iosb<int>::app
CONST	ENDS
;	COMDAT ?ate@?$_Iosb@H@std@@2W4_Openmode@12@B
CONST	SEGMENT
?ate@?$_Iosb@H@std@@2W4_Openmode@12@B DD 04H		; std::_Iosb<int>::ate
CONST	ENDS
;	COMDAT ?out@?$_Iosb@H@std@@2W4_Openmode@12@B
CONST	SEGMENT
?out@?$_Iosb@H@std@@2W4_Openmode@12@B DD 02H		; std::_Iosb<int>::out
CONST	ENDS
;	COMDAT ?in@?$_Iosb@H@std@@2W4_Openmode@12@B
CONST	SEGMENT
?in@?$_Iosb@H@std@@2W4_Openmode@12@B DD 01H		; std::_Iosb<int>::in
CONST	ENDS
;	COMDAT ?_Hardfail@?$_Iosb@H@std@@2W4_Iostate@12@B
CONST	SEGMENT
?_Hardfail@?$_Iosb@H@std@@2W4_Iostate@12@B DD 010H	; std::_Iosb<int>::_Hardfail
CONST	ENDS
;	COMDAT ?badbit@?$_Iosb@H@std@@2W4_Iostate@12@B
CONST	SEGMENT
?badbit@?$_Iosb@H@std@@2W4_Iostate@12@B DD 04H		; std::_Iosb<int>::badbit
CONST	ENDS
;	COMDAT ?failbit@?$_Iosb@H@std@@2W4_Iostate@12@B
CONST	SEGMENT
?failbit@?$_Iosb@H@std@@2W4_Iostate@12@B DD 02H		; std::_Iosb<int>::failbit
CONST	ENDS
;	COMDAT ?eofbit@?$_Iosb@H@std@@2W4_Iostate@12@B
CONST	SEGMENT
?eofbit@?$_Iosb@H@std@@2W4_Iostate@12@B DD 01H		; std::_Iosb<int>::eofbit
CONST	ENDS
;	COMDAT ?goodbit@?$_Iosb@H@std@@2W4_Iostate@12@B
CONST	SEGMENT
?goodbit@?$_Iosb@H@std@@2W4_Iostate@12@B DD 00H		; std::_Iosb<int>::goodbit
CONST	ENDS
;	COMDAT ?floatfield@?$_Iosb@H@std@@2W4_Fmtflags@12@B
CONST	SEGMENT
?floatfield@?$_Iosb@H@std@@2W4_Fmtflags@12@B DD 03000H	; std::_Iosb<int>::floatfield
CONST	ENDS
;	COMDAT ?basefield@?$_Iosb@H@std@@2W4_Fmtflags@12@B
CONST	SEGMENT
?basefield@?$_Iosb@H@std@@2W4_Fmtflags@12@B DD 0e00H	; std::_Iosb<int>::basefield
CONST	ENDS
;	COMDAT ?adjustfield@?$_Iosb@H@std@@2W4_Fmtflags@12@B
CONST	SEGMENT
?adjustfield@?$_Iosb@H@std@@2W4_Fmtflags@12@B DD 01c0H	; std::_Iosb<int>::adjustfield
CONST	ENDS
;	COMDAT ?_Stdio@?$_Iosb@H@std@@2W4_Fmtflags@12@B
CONST	SEGMENT
?_Stdio@?$_Iosb@H@std@@2W4_Fmtflags@12@B DD 08000H	; std::_Iosb<int>::_Stdio
CONST	ENDS
;	COMDAT ?boolalpha@?$_Iosb@H@std@@2W4_Fmtflags@12@B
CONST	SEGMENT
?boolalpha@?$_Iosb@H@std@@2W4_Fmtflags@12@B DD 04000H	; std::_Iosb<int>::boolalpha
CONST	ENDS
;	COMDAT ?hexfloat@?$_Iosb@H@std@@2W4_Fmtflags@12@B
CONST	SEGMENT
?hexfloat@?$_Iosb@H@std@@2W4_Fmtflags@12@B DD 03000H	; std::_Iosb<int>::hexfloat
CONST	ENDS
;	COMDAT ?fixed@?$_Iosb@H@std@@2W4_Fmtflags@12@B
CONST	SEGMENT
?fixed@?$_Iosb@H@std@@2W4_Fmtflags@12@B DD 02000H	; std::_Iosb<int>::fixed
CONST	ENDS
;	COMDAT ?scientific@?$_Iosb@H@std@@2W4_Fmtflags@12@B
CONST	SEGMENT
?scientific@?$_Iosb@H@std@@2W4_Fmtflags@12@B DD 01000H	; std::_Iosb<int>::scientific
CONST	ENDS
;	COMDAT ?hex@?$_Iosb@H@std@@2W4_Fmtflags@12@B
CONST	SEGMENT
?hex@?$_Iosb@H@std@@2W4_Fmtflags@12@B DD 0800H		; std::_Iosb<int>::hex
CONST	ENDS
;	COMDAT ?oct@?$_Iosb@H@std@@2W4_Fmtflags@12@B
CONST	SEGMENT
?oct@?$_Iosb@H@std@@2W4_Fmtflags@12@B DD 0400H		; std::_Iosb<int>::oct
CONST	ENDS
;	COMDAT ?dec@?$_Iosb@H@std@@2W4_Fmtflags@12@B
CONST	SEGMENT
?dec@?$_Iosb@H@std@@2W4_Fmtflags@12@B DD 0200H		; std::_Iosb<int>::dec
CONST	ENDS
;	COMDAT ?internal@?$_Iosb@H@std@@2W4_Fmtflags@12@B
CONST	SEGMENT
?internal@?$_Iosb@H@std@@2W4_Fmtflags@12@B DD 0100H	; std::_Iosb<int>::internal
CONST	ENDS
;	COMDAT ?right@?$_Iosb@H@std@@2W4_Fmtflags@12@B
CONST	SEGMENT
?right@?$_Iosb@H@std@@2W4_Fmtflags@12@B DD 080H		; std::_Iosb<int>::right
CONST	ENDS
;	COMDAT ?left@?$_Iosb@H@std@@2W4_Fmtflags@12@B
CONST	SEGMENT
?left@?$_Iosb@H@std@@2W4_Fmtflags@12@B DD 040H		; std::_Iosb<int>::left
CONST	ENDS
;	COMDAT ?showpos@?$_Iosb@H@std@@2W4_Fmtflags@12@B
CONST	SEGMENT
?showpos@?$_Iosb@H@std@@2W4_Fmtflags@12@B DD 020H	; std::_Iosb<int>::showpos
CONST	ENDS
;	COMDAT ?showpoint@?$_Iosb@H@std@@2W4_Fmtflags@12@B
CONST	SEGMENT
?showpoint@?$_Iosb@H@std@@2W4_Fmtflags@12@B DD 010H	; std::_Iosb<int>::showpoint
CONST	ENDS
;	COMDAT ?showbase@?$_Iosb@H@std@@2W4_Fmtflags@12@B
CONST	SEGMENT
?showbase@?$_Iosb@H@std@@2W4_Fmtflags@12@B DD 08H	; std::_Iosb<int>::showbase
CONST	ENDS
;	COMDAT ?uppercase@?$_Iosb@H@std@@2W4_Fmtflags@12@B
CONST	SEGMENT
?uppercase@?$_Iosb@H@std@@2W4_Fmtflags@12@B DD 04H	; std::_Iosb<int>::uppercase
CONST	ENDS
;	COMDAT ?unitbuf@?$_Iosb@H@std@@2W4_Fmtflags@12@B
CONST	SEGMENT
?unitbuf@?$_Iosb@H@std@@2W4_Fmtflags@12@B DD 02H	; std::_Iosb<int>::unitbuf
CONST	ENDS
;	COMDAT ?skipws@?$_Iosb@H@std@@2W4_Fmtflags@12@B
CONST	SEGMENT
?skipws@?$_Iosb@H@std@@2W4_Fmtflags@12@B DD 01H		; std::_Iosb<int>::skipws
CONST	ENDS
;	COMDAT ?none@?$_Locbase@H@std@@2HB
CONST	SEGMENT
?none@?$_Locbase@H@std@@2HB DD 00H			; std::_Locbase<int>::none
CONST	ENDS
;	COMDAT ?all@?$_Locbase@H@std@@2HB
CONST	SEGMENT
?all@?$_Locbase@H@std@@2HB DD 03fH			; std::_Locbase<int>::all
CONST	ENDS
;	COMDAT ?messages@?$_Locbase@H@std@@2HB
CONST	SEGMENT
?messages@?$_Locbase@H@std@@2HB DD 020H			; std::_Locbase<int>::messages
CONST	ENDS
;	COMDAT ?time@?$_Locbase@H@std@@2HB
CONST	SEGMENT
?time@?$_Locbase@H@std@@2HB DD 010H			; std::_Locbase<int>::time
CONST	ENDS
;	COMDAT ?numeric@?$_Locbase@H@std@@2HB
CONST	SEGMENT
?numeric@?$_Locbase@H@std@@2HB DD 08H			; std::_Locbase<int>::numeric
CONST	ENDS
;	COMDAT ?monetary@?$_Locbase@H@std@@2HB
CONST	SEGMENT
?monetary@?$_Locbase@H@std@@2HB DD 04H			; std::_Locbase<int>::monetary
CONST	ENDS
;	COMDAT ?ctype@?$_Locbase@H@std@@2HB
CONST	SEGMENT
?ctype@?$_Locbase@H@std@@2HB DD 02H			; std::_Locbase<int>::ctype
CONST	ENDS
;	COMDAT ?collate@?$_Locbase@H@std@@2HB
CONST	SEGMENT
?collate@?$_Locbase@H@std@@2HB DD 01H			; std::_Locbase<int>::collate
CONST	ENDS
;	COMDAT ?_Value@?$_Is_swap_move@U_Swap_move_tag@std@@@std@@2_NB
CONST	SEGMENT
?_Value@?$_Is_swap_move@U_Swap_move_tag@std@@@std@@2_NB DB 01H ; std::_Is_swap_move<std::_Swap_move_tag>::_Value
CONST	ENDS
_DATA	SEGMENT
__bad_alloc_Message DD FLAT:$SG5713
_DATA	ENDS
CONST	SEGMENT
$SG5713	DB	'bad allocation', 00H
CONST	ENDS
PUBLIC	??M@YA_NABU_devicemodeA@@0@Z			; operator<
; Function compile flags: /Odtp
; File i:\svnroot\client\ogremain\ogreosutility.cpp
_TEXT	SEGMENT
_lhs$ = 8						; size = 4
_rhs$ = 12						; size = 4
??M@YA_NABU_devicemodeA@@0@Z PROC			; operator<

; 12   : {

	push	ebp
	mov	ebp, esp

; 13   : 	return lhs.dmPelsWidth < rhs.dmPelsWidth;

	mov	eax, DWORD PTR _lhs$[ebp]
	mov	ecx, DWORD PTR _rhs$[ebp]
	mov	edx, DWORD PTR [eax+108]
	cmp	edx, DWORD PTR [ecx+108]
	sbb	eax, eax
	neg	eax

; 14   : }

	pop	ebp
	ret	0
??M@YA_NABU_devicemodeA@@0@Z ENDP			; operator<
_TEXT	ENDS
PUBLIC	??8@YA_NABU_devicemodeA@@0@Z			; operator==
; Function compile flags: /Odtp
_TEXT	SEGMENT
tv70 = -4						; size = 4
_lhs$ = 8						; size = 4
_rhs$ = 12						; size = 4
??8@YA_NABU_devicemodeA@@0@Z PROC			; operator==

; 17   : {

	push	ebp
	mov	ebp, esp
	push	ecx

; 18   : 	return ( lhs.dmPelsWidth == rhs.dmPelsWidth ) && ( lhs.dmPelsHeight == rhs.dmPelsHeight );

	mov	eax, DWORD PTR _lhs$[ebp]
	mov	ecx, DWORD PTR _rhs$[ebp]
	mov	edx, DWORD PTR [eax+108]
	cmp	edx, DWORD PTR [ecx+108]
	jne	SHORT $LN3@operator
	mov	eax, DWORD PTR _lhs$[ebp]
	mov	ecx, DWORD PTR _rhs$[ebp]
	mov	edx, DWORD PTR [eax+112]
	cmp	edx, DWORD PTR [ecx+112]
	jne	SHORT $LN3@operator
	mov	DWORD PTR tv70[ebp], 1
	jmp	SHORT $LN4@operator
$LN3@operator:
	mov	DWORD PTR tv70[ebp], 0
$LN4@operator:
	mov	al, BYTE PTR tv70[ebp]

; 19   : }

	mov	esp, ebp
	pop	ebp
	ret	0
??8@YA_NABU_devicemodeA@@0@Z ENDP			; operator==
_TEXT	ENDS
PUBLIC	__real@00000000
PUBLIC	?GetRuntimeSysInfo@Ogre@@YAXAAURuntimeSysInfo@1@@Z ; Ogre::GetRuntimeSysInfo
EXTRN	_Thread32Next@8:PROC
EXTRN	__imp__CloseHandle@4:PROC
EXTRN	__imp__GetThreadTimes@20:PROC
EXTRN	__imp__OpenThread@12:PROC
EXTRN	_Thread32First@8:PROC
EXTRN	_memcpy:PROC
EXTRN	_CreateToolhelp32Snapshot@8:PROC
EXTRN	__imp__GetCurrentProcessId@0:PROC
EXTRN	_GetProcessMemoryInfo@12:PROC
EXTRN	__imp__GetCurrentProcess@0:PROC
EXTRN	__imp__GetSystemInfo@4:PROC
EXTRN	__imp__timeGetTime@0:PROC
EXTRN	___security_cookie:DWORD
EXTRN	___CxxFrameHandler3:PROC
EXTRN	@__security_check_cookie@4:PROC
EXTRN	__fltused:DWORD
EXTRN	__aulldiv:PROC
_BSS	SEGMENT
_s_threadsInfo DB 0400H DUP (?)
_BSS	ENDS
;	COMDAT ?s_LastQueryTick@?1??GetRuntimeSysInfo@Ogre@@YAXAAURuntimeSysInfo@2@@Z@4IA
_BSS	SEGMENT
?s_LastQueryTick@?1??GetRuntimeSysInfo@Ogre@@YAXAAURuntimeSysInfo@2@@Z@4IA DD 01H DUP (?) ; `Ogre::GetRuntimeSysInfo'::`2'::s_LastQueryTick
_BSS	ENDS
;	COMDAT ?$S1@?1??GetRuntimeSysInfo@Ogre@@YAXAAURuntimeSysInfo@2@@Z@4IA
_BSS	SEGMENT
?$S1@?1??GetRuntimeSysInfo@Ogre@@YAXAAURuntimeSysInfo@2@@Z@4IA DD 01H DUP (?) ; `Ogre::GetRuntimeSysInfo'::`2'::$S1
_BSS	ENDS
;	COMDAT __real@00000000
CONST	SEGMENT
__real@00000000 DD 000000000r			; 0
CONST	ENDS
xdata$x	SEGMENT
__unwindtable$?GetRuntimeSysInfo@Ogre@@YAXAAURuntimeSysInfo@1@@Z DD 0ffffffffH
	DD	FLAT:__unwindfunclet$?GetRuntimeSysInfo@Ogre@@YAXAAURuntimeSysInfo@1@@Z$0
__ehfuncinfo$?GetRuntimeSysInfo@Ogre@@YAXAAURuntimeSysInfo@1@@Z DD 019930522H
	DD	01H
	DD	FLAT:__unwindtable$?GetRuntimeSysInfo@Ogre@@YAXAAURuntimeSysInfo@1@@Z
	DD	2 DUP(00H)
	DD	2 DUP(00H)
	DD	00H
	DD	00H
; Function compile flags: /Odtp
xdata$x	ENDS
_TEXT	SEGMENT
tv372 = -1276						; size = 8
tv364 = -1268						; size = 8
tv361 = -1260						; size = 8
tv341 = -1252						; size = 8
tv333 = -1244						; size = 8
tv330 = -1236						; size = 8
_i$116811 = -1228					; size = 4
_i$116804 = -1224					; size = 4
_k1$116799 = -1220					; size = 8
_tu$116802 = -1212					; size = 8
_k2$116800 = -1200					; size = 8
_hThread$116803 = -1192					; size = 4
_kTime$116797 = -1188					; size = 8
_tk$116801 = -1180					; size = 8
_uTime$116798 = -1168					; size = 8
_passtick$ = -1160					; size = 4
_hThreadsSnap$ = -1156					; size = 4
_nNumThreadsTmp$ = -1152				; size = 4
_processID$ = -1148					; size = 4
_systemInfo$ = -1144					; size = 36
_psmemCounters$ = -1108					; size = 40
_threadsInfoTmp$ = -1068				; size = 1024
_curtick$ = -44						; size = 4
_te32$ = -40						; size = 28
__$EHRec$ = -12						; size = 12
_info$ = 8						; size = 4
?GetRuntimeSysInfo@Ogre@@YAXAAURuntimeSysInfo@1@@Z PROC	; Ogre::GetRuntimeSysInfo

; 38   : 	{

	push	ebp
	mov	ebp, esp
	push	-1
	push	__ehhandler$?GetRuntimeSysInfo@Ogre@@YAXAAURuntimeSysInfo@1@@Z
	mov	eax, DWORD PTR fs:0
	push	eax
	sub	esp, 1264				; 000004f0H
	mov	eax, DWORD PTR ___security_cookie
	xor	eax, ebp
	push	eax
	lea	eax, DWORD PTR __$EHRec$[ebp]
	mov	DWORD PTR fs:0, eax

; 39   : 		static UINT s_LastQueryTick = ::timeGetTime();

	mov	eax, DWORD PTR ?$S1@?1??GetRuntimeSysInfo@Ogre@@YAXAAURuntimeSysInfo@2@@Z@4IA
	and	eax, 1
	jne	SHORT $LN13@GetRuntime
	mov	ecx, DWORD PTR ?$S1@?1??GetRuntimeSysInfo@Ogre@@YAXAAURuntimeSysInfo@2@@Z@4IA
	or	ecx, 1
	mov	DWORD PTR ?$S1@?1??GetRuntimeSysInfo@Ogre@@YAXAAURuntimeSysInfo@2@@Z@4IA, ecx
	mov	DWORD PTR __$EHRec$[ebp+8], 0
	call	DWORD PTR __imp__timeGetTime@0
	mov	DWORD PTR ?s_LastQueryTick@?1??GetRuntimeSysInfo@Ogre@@YAXAAURuntimeSysInfo@2@@Z@4IA, eax
	mov	DWORD PTR __$EHRec$[ebp+8], -1
$LN13@GetRuntime:

; 40   : 
; 41   : 		UINT curtick = timeGetTime();

	call	DWORD PTR __imp__timeGetTime@0
	mov	DWORD PTR _curtick$[ebp], eax

; 42   : 		UINT passtick = curtick -s_LastQueryTick;

	mov	edx, DWORD PTR _curtick$[ebp]
	sub	edx, DWORD PTR ?s_LastQueryTick@?1??GetRuntimeSysInfo@Ogre@@YAXAAURuntimeSysInfo@2@@Z@4IA
	mov	DWORD PTR _passtick$[ebp], edx

; 43   : 
; 44   : 
; 45   : 		// 获得CPU核心数目
; 46   : 		SYSTEM_INFO systemInfo;
; 47   : 		GetSystemInfo(&systemInfo);

	lea	eax, DWORD PTR _systemInfo$[ebp]
	push	eax
	call	DWORD PTR __imp__GetSystemInfo@4

; 48   : 		info.num_cpu = systemInfo.dwNumberOfProcessors;

	mov	ecx, DWORD PTR _info$[ebp]
	mov	edx, DWORD PTR _systemInfo$[ebp+20]
	mov	DWORD PTR [ecx], edx

; 49   : 
; 50   : 		// 获得进程的内存占用数目
; 51   : 		PROCESS_MEMORY_COUNTERS psmemCounters;
; 52   : 		GetProcessMemoryInfo(GetCurrentProcess(), &psmemCounters, sizeof(PROCESS_MEMORY_COUNTERS));

	push	40					; 00000028H
	lea	eax, DWORD PTR _psmemCounters$[ebp]
	push	eax
	call	DWORD PTR __imp__GetCurrentProcess@0
	push	eax
	call	_GetProcessMemoryInfo@12

; 53   : 		info.memory_usage = psmemCounters.WorkingSetSize;

	mov	ecx, DWORD PTR _info$[ebp]
	mov	edx, DWORD PTR _psmemCounters$[ebp+12]
	mov	DWORD PTR [ecx+16], edx

; 54   : 
; 55   : 		// 获得线程数目，并统计cpu占用率
; 56   : 		ThreadInfo threadsInfoTmp[32];
; 57   : 		THREADENTRY32 te32;
; 58   : 		DWORD processID = GetCurrentProcessId();

	call	DWORD PTR __imp__GetCurrentProcessId@0
	mov	DWORD PTR _processID$[ebp], eax

; 59   : 		HANDLE hThreadsSnap = CreateToolhelp32Snapshot(TH32CS_SNAPTHREAD, processID);

	mov	eax, DWORD PTR _processID$[ebp]
	push	eax
	push	4
	call	_CreateToolhelp32Snapshot@8
	mov	DWORD PTR _hThreadsSnap$[ebp], eax

; 60   : 		int nNumThreadsTmp = s_num_thread;

	mov	ecx, DWORD PTR _s_num_thread
	mov	DWORD PTR _nNumThreadsTmp$[ebp], ecx

; 61   : 		memcpy( &threadsInfoTmp, &s_threadsInfo, sizeof(ThreadInfo) * nNumThreadsTmp);

	mov	edx, DWORD PTR _nNumThreadsTmp$[ebp]
	shl	edx, 5
	push	edx
	push	OFFSET _s_threadsInfo
	lea	eax, DWORD PTR _threadsInfoTmp$[ebp]
	push	eax
	call	_memcpy
	add	esp, 12					; 0000000cH

; 62   : 
; 63   : 		s_num_thread = 0;

	mov	DWORD PTR _s_num_thread, 0

; 64   : 		te32.dwSize = sizeof(THREADENTRY32);

	mov	DWORD PTR _te32$[ebp], 28		; 0000001cH

; 65   : 		if( Thread32First(hThreadsSnap, &te32) ) 

	lea	ecx, DWORD PTR _te32$[ebp]
	push	ecx
	mov	edx, DWORD PTR _hThreadsSnap$[ebp]
	push	edx
	call	_Thread32First@8
	test	eax, eax
	je	$LN12@GetRuntime
$LN11@GetRuntime:

; 66   : 		{ 
; 67   : 			do 
; 68   : 			{ 
; 69   : 				if( te32.th32OwnerProcessID == processID ) 

	mov	eax, DWORD PTR _te32$[ebp+12]
	cmp	eax, DWORD PTR _processID$[ebp]
	jne	$LN8@GetRuntime

; 70   : 				{ 
; 71   : 					FILETIME kTime, uTime, k1, k2;
; 72   : 					ULARGE_INTEGER tk, tu;
; 73   : 
; 74   : 					HANDLE hThread = OpenThread(THREAD_QUERY_INFORMATION, false, te32.th32ThreadID);	

	mov	ecx, DWORD PTR _te32$[ebp+8]
	push	ecx
	push	0
	push	64					; 00000040H
	call	DWORD PTR __imp__OpenThread@12
	mov	DWORD PTR _hThread$116803[ebp], eax

; 75   : 
; 76   : 					GetThreadTimes(hThread, &k1, &k2, &kTime, &uTime);

	lea	edx, DWORD PTR _uTime$116798[ebp]
	push	edx
	lea	eax, DWORD PTR _kTime$116797[ebp]
	push	eax
	lea	ecx, DWORD PTR _k2$116800[ebp]
	push	ecx
	lea	edx, DWORD PTR _k1$116799[ebp]
	push	edx
	mov	eax, DWORD PTR _hThread$116803[ebp]
	push	eax
	call	DWORD PTR __imp__GetThreadTimes@20

; 77   : 					tk.LowPart = kTime.dwLowDateTime;

	mov	ecx, DWORD PTR _kTime$116797[ebp]
	mov	DWORD PTR _tk$116801[ebp], ecx

; 78   : 					tk.HighPart = kTime.dwHighDateTime;

	mov	edx, DWORD PTR _kTime$116797[ebp+4]
	mov	DWORD PTR _tk$116801[ebp+4], edx

; 79   : 					tu.LowPart = uTime.dwLowDateTime;

	mov	eax, DWORD PTR _uTime$116798[ebp]
	mov	DWORD PTR _tu$116802[ebp], eax

; 80   : 					tu.HighPart = uTime.dwHighDateTime;

	mov	ecx, DWORD PTR _uTime$116798[ebp+4]
	mov	DWORD PTR _tu$116802[ebp+4], ecx

; 81   : 
; 82   : 					CloseHandle(hThread);

	mov	edx, DWORD PTR _hThread$116803[ebp]
	push	edx
	call	DWORD PTR __imp__CloseHandle@4

; 83   : 
; 84   : 					s_threadsInfo[s_num_thread].m_nID = te32.th32ThreadID;

	mov	eax, DWORD PTR _s_num_thread
	shl	eax, 5
	mov	ecx, DWORD PTR _te32$[ebp+8]
	mov	DWORD PTR _s_threadsInfo[eax], ecx

; 85   : 					s_threadsInfo[s_num_thread].m_nKernelTime = tk;

	mov	edx, DWORD PTR _s_num_thread
	shl	edx, 5
	mov	eax, DWORD PTR _tk$116801[ebp]
	mov	DWORD PTR _s_threadsInfo[edx+8], eax
	mov	ecx, DWORD PTR _tk$116801[ebp+4]
	mov	DWORD PTR _s_threadsInfo[edx+12], ecx

; 86   : 					s_threadsInfo[s_num_thread].m_nUserTime = tu;

	mov	edx, DWORD PTR _s_num_thread
	shl	edx, 5
	mov	eax, DWORD PTR _tu$116802[ebp]
	mov	DWORD PTR _s_threadsInfo[edx+16], eax
	mov	ecx, DWORD PTR _tu$116802[ebp+4]
	mov	DWORD PTR _s_threadsInfo[edx+20], ecx

; 87   : 					for( int i=0; i<nNumThreadsTmp; i++ )

	mov	DWORD PTR _i$116804[ebp], 0
	jmp	SHORT $LN7@GetRuntime
$LN6@GetRuntime:
	mov	edx, DWORD PTR _i$116804[ebp]
	add	edx, 1
	mov	DWORD PTR _i$116804[ebp], edx
$LN7@GetRuntime:
	mov	eax, DWORD PTR _i$116804[ebp]
	cmp	eax, DWORD PTR _nNumThreadsTmp$[ebp]
	jge	$LN5@GetRuntime

; 88   : 					{
; 89   : 						if( s_threadsInfo[s_num_thread].m_nID == threadsInfoTmp[i].m_nID )

	mov	ecx, DWORD PTR _s_num_thread
	shl	ecx, 5
	mov	edx, DWORD PTR _i$116804[ebp]
	shl	edx, 5
	mov	eax, DWORD PTR _s_threadsInfo[ecx]
	cmp	eax, DWORD PTR _threadsInfoTmp$[ebp+edx]
	jne	SHORT $LN4@GetRuntime

; 90   : 						{
; 91   : 							tk.QuadPart = tk.QuadPart - threadsInfoTmp[i].m_nKernelTime.QuadPart;

	mov	ecx, DWORD PTR _i$116804[ebp]
	shl	ecx, 5
	mov	edx, DWORD PTR _tk$116801[ebp]
	sub	edx, DWORD PTR _threadsInfoTmp$[ebp+ecx+8]
	mov	eax, DWORD PTR _tk$116801[ebp+4]
	sbb	eax, DWORD PTR _threadsInfoTmp$[ebp+ecx+12]
	mov	DWORD PTR _tk$116801[ebp], edx
	mov	DWORD PTR _tk$116801[ebp+4], eax

; 92   : 							tu.QuadPart = tu.QuadPart - threadsInfoTmp[i].m_nUserTime.QuadPart;

	mov	ecx, DWORD PTR _i$116804[ebp]
	shl	ecx, 5
	mov	edx, DWORD PTR _tu$116802[ebp]
	sub	edx, DWORD PTR _threadsInfoTmp$[ebp+ecx+16]
	mov	eax, DWORD PTR _tu$116802[ebp+4]
	sbb	eax, DWORD PTR _threadsInfoTmp$[ebp+ecx+20]
	mov	DWORD PTR _tu$116802[ebp], edx
	mov	DWORD PTR _tu$116802[ebp+4], eax

; 93   : 							break;

	jmp	SHORT $LN5@GetRuntime
$LN4@GetRuntime:

; 94   : 						}
; 95   : 					}

	jmp	$LN6@GetRuntime
$LN5@GetRuntime:

; 96   : 					s_threadsInfo[s_num_thread].m_fCupUsageKernel = 
; 97   : 						(tk.QuadPart / 100) / (float)passtick;

	push	0
	push	100					; 00000064H
	mov	ecx, DWORD PTR _tk$116801[ebp+4]
	push	ecx
	mov	edx, DWORD PTR _tk$116801[ebp]
	push	edx
	call	__aulldiv
	mov	DWORD PTR tv330[ebp], eax
	mov	DWORD PTR tv330[ebp+4], edx
	mov	eax, DWORD PTR tv330[ebp+4]
	mov	DWORD PTR tv333[ebp+4], eax
	and	DWORD PTR tv330[ebp+4], 2147483647	; 7fffffffH
	fild	QWORD PTR tv330[ebp]
	and	DWORD PTR tv333[ebp+4], -2147483648	; 80000000H
	mov	DWORD PTR tv333[ebp], 0
	fild	QWORD PTR tv333[ebp]
	fchs
	faddp	ST(1), ST(0)
	mov	ecx, DWORD PTR _passtick$[ebp]
	mov	DWORD PTR tv341[ebp], ecx
	mov	DWORD PTR tv341[ebp+4], 0
	fild	QWORD PTR tv341[ebp]
	fdivp	ST(1), ST(0)
	mov	edx, DWORD PTR _s_num_thread
	shl	edx, 5
	fstp	DWORD PTR _s_threadsInfo[edx+24]

; 98   : 					s_threadsInfo[s_num_thread].m_fCupUsageUser = 
; 99   : 						(tu.QuadPart / 100) / (float)passtick;

	push	0
	push	100					; 00000064H
	mov	eax, DWORD PTR _tu$116802[ebp+4]
	push	eax
	mov	ecx, DWORD PTR _tu$116802[ebp]
	push	ecx
	call	__aulldiv
	mov	DWORD PTR tv361[ebp], eax
	mov	DWORD PTR tv361[ebp+4], edx
	mov	edx, DWORD PTR tv361[ebp+4]
	mov	DWORD PTR tv364[ebp+4], edx
	and	DWORD PTR tv361[ebp+4], 2147483647	; 7fffffffH
	fild	QWORD PTR tv361[ebp]
	and	DWORD PTR tv364[ebp+4], -2147483648	; 80000000H
	mov	DWORD PTR tv364[ebp], 0
	fild	QWORD PTR tv364[ebp]
	fchs
	faddp	ST(1), ST(0)
	mov	eax, DWORD PTR _passtick$[ebp]
	mov	DWORD PTR tv372[ebp], eax
	mov	DWORD PTR tv372[ebp+4], 0
	fild	QWORD PTR tv372[ebp]
	fdivp	ST(1), ST(0)
	mov	ecx, DWORD PTR _s_num_thread
	shl	ecx, 5
	fstp	DWORD PTR _s_threadsInfo[ecx+28]

; 100  : 					s_num_thread++;

	mov	edx, DWORD PTR _s_num_thread
	add	edx, 1
	mov	DWORD PTR _s_num_thread, edx
$LN8@GetRuntime:

; 101  : 				} 
; 102  : 			} while( Thread32Next(hThreadsSnap, &te32) ); 

	lea	eax, DWORD PTR _te32$[ebp]
	push	eax
	mov	ecx, DWORD PTR _hThreadsSnap$[ebp]
	push	ecx
	call	_Thread32Next@8
	test	eax, eax
	jne	$LN11@GetRuntime

; 103  : 
; 104  : 			info.num_thread = s_num_thread;

	mov	edx, DWORD PTR _info$[ebp]
	mov	eax, DWORD PTR _s_num_thread
	mov	DWORD PTR [edx+4], eax

; 105  : 			info.kernel_cpu_usage = 0.0f;

	mov	ecx, DWORD PTR _info$[ebp]
	fldz
	fstp	DWORD PTR [ecx+8]

; 106  : 			info.user_cpu_usage = 0.0f;

	mov	edx, DWORD PTR _info$[ebp]
	fldz
	fstp	DWORD PTR [edx+12]

; 107  : 			for( int i=0; i<s_num_thread; i++ )

	mov	DWORD PTR _i$116811[ebp], 0
	jmp	SHORT $LN3@GetRuntime
$LN2@GetRuntime:
	mov	eax, DWORD PTR _i$116811[ebp]
	add	eax, 1
	mov	DWORD PTR _i$116811[ebp], eax
$LN3@GetRuntime:
	mov	ecx, DWORD PTR _i$116811[ebp]
	cmp	ecx, DWORD PTR _s_num_thread
	jge	SHORT $LN1@GetRuntime

; 108  : 			{
; 109  : 				info.kernel_cpu_usage += s_threadsInfo[i].m_fCupUsageKernel;

	mov	edx, DWORD PTR _i$116811[ebp]
	shl	edx, 5
	mov	eax, DWORD PTR _info$[ebp]
	fld	DWORD PTR [eax+8]
	fadd	DWORD PTR _s_threadsInfo[edx+24]
	mov	ecx, DWORD PTR _info$[ebp]
	fstp	DWORD PTR [ecx+8]

; 110  : 				info.user_cpu_usage += s_threadsInfo[i].m_fCupUsageUser;

	mov	edx, DWORD PTR _i$116811[ebp]
	shl	edx, 5
	mov	eax, DWORD PTR _info$[ebp]
	fld	DWORD PTR [eax+12]
	fadd	DWORD PTR _s_threadsInfo[edx+28]
	mov	ecx, DWORD PTR _info$[ebp]
	fstp	DWORD PTR [ecx+12]

; 111  : 			}

	jmp	SHORT $LN2@GetRuntime
$LN1@GetRuntime:

; 112  : 			info.kernel_cpu_usage /= info.num_cpu;

	mov	edx, DWORD PTR _info$[ebp]
	fild	DWORD PTR [edx]
	mov	eax, DWORD PTR _info$[ebp]
	fdivr	DWORD PTR [eax+8]
	mov	ecx, DWORD PTR _info$[ebp]
	fstp	DWORD PTR [ecx+8]

; 113  : 			info.user_cpu_usage /= info.num_cpu;

	mov	edx, DWORD PTR _info$[ebp]
	fild	DWORD PTR [edx]
	mov	eax, DWORD PTR _info$[ebp]
	fdivr	DWORD PTR [eax+12]
	mov	ecx, DWORD PTR _info$[ebp]
	fstp	DWORD PTR [ecx+12]
$LN12@GetRuntime:

; 114  : 		} 
; 115  : 
; 116  : 		CloseHandle(hThreadsSnap);

	mov	edx, DWORD PTR _hThreadsSnap$[ebp]
	push	edx
	call	DWORD PTR __imp__CloseHandle@4

; 117  : 		s_LastQueryTick = curtick;

	mov	eax, DWORD PTR _curtick$[ebp]
	mov	DWORD PTR ?s_LastQueryTick@?1??GetRuntimeSysInfo@Ogre@@YAXAAURuntimeSysInfo@2@@Z@4IA, eax

; 118  : 	}

	mov	ecx, DWORD PTR __$EHRec$[ebp]
	mov	DWORD PTR fs:0, ecx
	pop	ecx
	mov	esp, ebp
	pop	ebp
	ret	0
_TEXT	ENDS
text$x	SEGMENT
__unwindfunclet$?GetRuntimeSysInfo@Ogre@@YAXAAURuntimeSysInfo@1@@Z$0:
	mov	eax, DWORD PTR ?$S1@?1??GetRuntimeSysInfo@Ogre@@YAXAAURuntimeSysInfo@2@@Z@4IA
	and	eax, -2					; fffffffeH
	mov	DWORD PTR ?$S1@?1??GetRuntimeSysInfo@Ogre@@YAXAAURuntimeSysInfo@2@@Z@4IA, eax
	ret	0
__ehhandler$?GetRuntimeSysInfo@Ogre@@YAXAAURuntimeSysInfo@1@@Z:
	mov	edx, DWORD PTR [esp+8]
	lea	eax, DWORD PTR [edx+12]
	mov	ecx, DWORD PTR [edx-1268]
	xor	ecx, eax
	call	@__security_check_cookie@4
	mov	eax, OFFSET __ehfuncinfo$?GetRuntimeSysInfo@Ogre@@YAXAAURuntimeSysInfo@1@@Z
	jmp	___CxxFrameHandler3
text$x	ENDS
?GetRuntimeSysInfo@Ogre@@YAXAAURuntimeSysInfo@1@@Z ENDP	; Ogre::GetRuntimeSysInfo
PUBLIC	?ThreadSleep@Ogre@@YAXI@Z			; Ogre::ThreadSleep
EXTRN	__imp__Sleep@4:PROC
; Function compile flags: /Odtp
_TEXT	SEGMENT
_tick$ = 8						; size = 4
?ThreadSleep@Ogre@@YAXI@Z PROC				; Ogre::ThreadSleep

; 121  : 	{

	push	ebp
	mov	ebp, esp

; 122  : 		::Sleep(tick);

	mov	eax, DWORD PTR _tick$[ebp]
	push	eax
	call	DWORD PTR __imp__Sleep@4

; 123  : 	}

	pop	ebp
	ret	0
?ThreadSleep@Ogre@@YAXI@Z ENDP				; Ogre::ThreadSleep
_TEXT	ENDS
PUBLIC	?resize@?$vector@U_devicemodeA@@V?$allocator@U_devicemodeA@@@std@@@std@@QAEXI@Z ; std::vector<_devicemodeA,std::allocator<_devicemodeA> >::resize
PUBLIC	??G?$_Vector_iterator@U_devicemodeA@@V?$allocator@U_devicemodeA@@@std@@@std@@QBEHABV?$_Vector_const_iterator@U_devicemodeA@@V?$allocator@U_devicemodeA@@@std@@@1@@Z ; std::_Vector_iterator<_devicemodeA,std::allocator<_devicemodeA> >::operator-
PUBLIC	??$unique@V?$_Vector_iterator@U_devicemodeA@@V?$allocator@U_devicemodeA@@@std@@@std@@@std@@YA?AV?$_Vector_iterator@U_devicemodeA@@V?$allocator@U_devicemodeA@@@std@@@0@V10@0@Z ; std::unique<std::_Vector_iterator<_devicemodeA,std::allocator<_devicemodeA> > >
PUBLIC	??$sort@V?$_Vector_iterator@U_devicemodeA@@V?$allocator@U_devicemodeA@@@std@@@std@@@std@@YAXV?$_Vector_iterator@U_devicemodeA@@V?$allocator@U_devicemodeA@@@std@@@0@0@Z ; std::sort<std::_Vector_iterator<_devicemodeA,std::allocator<_devicemodeA> > >
PUBLIC	?begin@?$vector@U_devicemodeA@@V?$allocator@U_devicemodeA@@@std@@@std@@QAE?AV?$_Vector_iterator@U_devicemodeA@@V?$allocator@U_devicemodeA@@@std@@@2@XZ ; std::vector<_devicemodeA,std::allocator<_devicemodeA> >::begin
PUBLIC	?end@?$vector@U_devicemodeA@@V?$allocator@U_devicemodeA@@@std@@@std@@QAE?AV?$_Vector_iterator@U_devicemodeA@@V?$allocator@U_devicemodeA@@@std@@@2@XZ ; std::vector<_devicemodeA,std::allocator<_devicemodeA> >::end
PUBLIC	?push_back@?$vector@U_devicemodeA@@V?$allocator@U_devicemodeA@@@std@@@std@@QAEXABU_devicemodeA@@@Z ; std::vector<_devicemodeA,std::allocator<_devicemodeA> >::push_back
PUBLIC	?clear@?$vector@U_devicemodeA@@V?$allocator@U_devicemodeA@@@std@@@std@@QAEXXZ ; std::vector<_devicemodeA,std::allocator<_devicemodeA> >::clear
PUBLIC	__$ArrayPad$
PUBLIC	?InitDisplayMode@Ogre@@YAXXZ			; Ogre::InitDisplayMode
EXTRN	__imp__EnumDisplaySettingsA@12:PROC
EXTRN	__imp__EnumDisplayDevicesA@16:PROC
_BSS	SEGMENT
_s_DeskMode DB	09cH DUP (?)
; Function compile flags: /Odtp
_BSS	ENDS
_TEXT	SEGMENT
$T123277 = -704						; size = 8
$T123276 = -696						; size = 8
$T123275 = -688						; size = 8
$T123274 = -680						; size = 8
$T123273 = -672						; size = 8
$T123272 = -664						; size = 8
$T123271 = -656						; size = 8
$T123270 = -648						; size = 8
$T123269 = -640						; size = 8
$T123268 = -632						; size = 8
$T123267 = -624						; size = 8
$T123266 = -616						; size = 8
_i$117243 = -608					; size = 4
_modeExist$117241 = -604				; size = 4
_devMode$ = -600					; size = 156
_nIndex$ = -436						; size = 4
_device$ = -432						; size = 424
__$ArrayPad$ = -4					; size = 4
?InitDisplayMode@Ogre@@YAXXZ PROC			; Ogre::InitDisplayMode

; 130  : 	{

	push	ebp
	mov	ebp, esp
	sub	esp, 704				; 000002c0H
	mov	eax, DWORD PTR ___security_cookie
	xor	eax, ebp
	mov	DWORD PTR __$ArrayPad$[ebp], eax

; 131  : 		DISPLAY_DEVICE device;
; 132  : 		DEVMODE devMode;
; 133  : 		device.cb = sizeof(DISPLAY_DEVICE);

	mov	DWORD PTR _device$[ebp], 424		; 000001a8H

; 134  : 		int nIndex = 0;

	mov	DWORD PTR _nIndex$[ebp], 0

; 135  : 		s_AllModes.clear();

	mov	ecx, OFFSET _s_AllModes
	call	?clear@?$vector@U_devicemodeA@@V?$allocator@U_devicemodeA@@@std@@@std@@QAEXXZ ; std::vector<_devicemodeA,std::allocator<_devicemodeA> >::clear

; 136  : 		s_FullScreenModes.clear();

	mov	ecx, OFFSET _s_FullScreenModes
	call	?clear@?$vector@U_devicemodeA@@V?$allocator@U_devicemodeA@@@std@@@std@@QAEXXZ ; std::vector<_devicemodeA,std::allocator<_devicemodeA> >::clear
$LN9@InitDispla:

; 137  : 		while( EnumDisplayDevices(NULL,nIndex,&device,0) )

	push	0
	lea	eax, DWORD PTR _device$[ebp]
	push	eax
	mov	ecx, DWORD PTR _nIndex$[ebp]
	push	ecx
	push	0
	call	DWORD PTR __imp__EnumDisplayDevicesA@16
	test	eax, eax
	je	$LN8@InitDispla

; 138  : 		{
; 139  : 			if( device.StateFlags & DISPLAY_DEVICE_ATTACHED_TO_DESKTOP )

	mov	edx, DWORD PTR _device$[ebp+164]
	and	edx, 1
	je	$LN7@InitDispla

; 140  : 			{
; 141  : 				EnumDisplaySettings(device.DeviceName, ENUM_CURRENT_SETTINGS, &s_DeskMode);

	push	OFFSET _s_DeskMode
	push	-1
	lea	eax, DWORD PTR _device$[ebp+4]
	push	eax
	call	DWORD PTR __imp__EnumDisplaySettingsA@12

; 142  : 				int modeExist = EnumDisplaySettings(device.DeviceName, 0, &devMode);

	lea	ecx, DWORD PTR _devMode$[ebp]
	push	ecx
	push	0
	lea	edx, DWORD PTR _device$[ebp+4]
	push	edx
	call	DWORD PTR __imp__EnumDisplaySettingsA@12
	mov	DWORD PTR _modeExist$117241[ebp], eax

; 143  : 				if(modeExist == 0)

	cmp	DWORD PTR _modeExist$117241[ebp], 0
	jne	SHORT $LN6@InitDispla

; 144  : 				{
; 145  : 					break;

	jmp	$LN8@InitDispla
$LN6@InitDispla:

; 146  : 				}
; 147  : 				for(int i=0; modeExist; i++)

	mov	DWORD PTR _i$117243[ebp], 0
	jmp	SHORT $LN5@InitDispla
$LN4@InitDispla:
	mov	eax, DWORD PTR _i$117243[ebp]
	add	eax, 1
	mov	DWORD PTR _i$117243[ebp], eax
$LN5@InitDispla:
	cmp	DWORD PTR _modeExist$117241[ebp], 0
	je	$LN7@InitDispla

; 148  : 				{
; 149  : 					if ( devMode.dmBitsPerPel == s_DeskMode.dmBitsPerPel && 
; 150  : 						devMode.dmPelsHeight >= MIN_HEIGHT && devMode.dmPelsWidth >= MIN_WIDTH )//刷新频率和颜色深度相同，比例一致就保存起来

	mov	ecx, DWORD PTR _devMode$[ebp+104]
	cmp	ecx, DWORD PTR _s_DeskMode+104
	jne	SHORT $LN2@InitDispla
	cmp	DWORD PTR _devMode$[ebp+112], 600	; 00000258H
	jb	SHORT $LN2@InitDispla
	cmp	DWORD PTR _devMode$[ebp+108], 800	; 00000320H
	jb	SHORT $LN2@InitDispla

; 151  : 					{
; 152  : 						if ( devMode.dmPelsHeight * s_DeskMode.dmPelsWidth==devMode.dmPelsWidth * s_DeskMode.dmPelsHeight )

	mov	edx, DWORD PTR _devMode$[ebp+112]
	imul	edx, DWORD PTR _s_DeskMode+108
	mov	eax, DWORD PTR _devMode$[ebp+108]
	imul	eax, DWORD PTR _s_DeskMode+112
	cmp	edx, eax
	jne	SHORT $LN1@InitDispla

; 153  : 						{
; 154  : 							s_FullScreenModes.push_back( devMode );

	lea	ecx, DWORD PTR _devMode$[ebp]
	push	ecx
	mov	ecx, OFFSET _s_FullScreenModes
	call	?push_back@?$vector@U_devicemodeA@@V?$allocator@U_devicemodeA@@@std@@@std@@QAEXABU_devicemodeA@@@Z ; std::vector<_devicemodeA,std::allocator<_devicemodeA> >::push_back
$LN1@InitDispla:

; 155  : 						}
; 156  : 						s_AllModes.push_back(devMode);

	lea	edx, DWORD PTR _devMode$[ebp]
	push	edx
	mov	ecx, OFFSET _s_AllModes
	call	?push_back@?$vector@U_devicemodeA@@V?$allocator@U_devicemodeA@@@std@@@std@@QAEXABU_devicemodeA@@@Z ; std::vector<_devicemodeA,std::allocator<_devicemodeA> >::push_back
$LN2@InitDispla:

; 157  : 					}
; 158  : 					modeExist = EnumDisplaySettings(NULL, i, &devMode);

	lea	eax, DWORD PTR _devMode$[ebp]
	push	eax
	mov	ecx, DWORD PTR _i$117243[ebp]
	push	ecx
	push	0
	call	DWORD PTR __imp__EnumDisplaySettingsA@12
	mov	DWORD PTR _modeExist$117241[ebp], eax

; 159  : 				}

	jmp	$LN4@InitDispla
$LN7@InitDispla:

; 160  : 			}
; 161  : 			nIndex ++;

	mov	edx, DWORD PTR _nIndex$[ebp]
	add	edx, 1
	mov	DWORD PTR _nIndex$[ebp], edx

; 162  : 		}

	jmp	$LN9@InitDispla
$LN8@InitDispla:

; 163  : 		std::sort( s_AllModes.begin(),			s_AllModes.end() );

	lea	eax, DWORD PTR $T123266[ebp]
	push	eax
	mov	ecx, OFFSET _s_AllModes
	call	?end@?$vector@U_devicemodeA@@V?$allocator@U_devicemodeA@@@std@@@std@@QAE?AV?$_Vector_iterator@U_devicemodeA@@V?$allocator@U_devicemodeA@@@std@@@2@XZ ; std::vector<_devicemodeA,std::allocator<_devicemodeA> >::end
	mov	ecx, DWORD PTR [eax+4]
	push	ecx
	mov	edx, DWORD PTR [eax]
	push	edx
	lea	eax, DWORD PTR $T123267[ebp]
	push	eax
	mov	ecx, OFFSET _s_AllModes
	call	?begin@?$vector@U_devicemodeA@@V?$allocator@U_devicemodeA@@@std@@@std@@QAE?AV?$_Vector_iterator@U_devicemodeA@@V?$allocator@U_devicemodeA@@@std@@@2@XZ ; std::vector<_devicemodeA,std::allocator<_devicemodeA> >::begin
	mov	ecx, DWORD PTR [eax+4]
	push	ecx
	mov	edx, DWORD PTR [eax]
	push	edx
	call	??$sort@V?$_Vector_iterator@U_devicemodeA@@V?$allocator@U_devicemodeA@@@std@@@std@@@std@@YAXV?$_Vector_iterator@U_devicemodeA@@V?$allocator@U_devicemodeA@@@std@@@0@0@Z ; std::sort<std::_Vector_iterator<_devicemodeA,std::allocator<_devicemodeA> > >
	add	esp, 16					; 00000010H

; 164  : 		std::sort( s_FullScreenModes.begin(),	s_FullScreenModes.end() );

	lea	eax, DWORD PTR $T123268[ebp]
	push	eax
	mov	ecx, OFFSET _s_FullScreenModes
	call	?end@?$vector@U_devicemodeA@@V?$allocator@U_devicemodeA@@@std@@@std@@QAE?AV?$_Vector_iterator@U_devicemodeA@@V?$allocator@U_devicemodeA@@@std@@@2@XZ ; std::vector<_devicemodeA,std::allocator<_devicemodeA> >::end
	mov	ecx, DWORD PTR [eax+4]
	push	ecx
	mov	edx, DWORD PTR [eax]
	push	edx
	lea	eax, DWORD PTR $T123269[ebp]
	push	eax
	mov	ecx, OFFSET _s_FullScreenModes
	call	?begin@?$vector@U_devicemodeA@@V?$allocator@U_devicemodeA@@@std@@@std@@QAE?AV?$_Vector_iterator@U_devicemodeA@@V?$allocator@U_devicemodeA@@@std@@@2@XZ ; std::vector<_devicemodeA,std::allocator<_devicemodeA> >::begin
	mov	ecx, DWORD PTR [eax+4]
	push	ecx
	mov	edx, DWORD PTR [eax]
	push	edx
	call	??$sort@V?$_Vector_iterator@U_devicemodeA@@V?$allocator@U_devicemodeA@@@std@@@std@@@std@@YAXV?$_Vector_iterator@U_devicemodeA@@V?$allocator@U_devicemodeA@@@std@@@0@0@Z ; std::sort<std::_Vector_iterator<_devicemodeA,std::allocator<_devicemodeA> > >
	add	esp, 16					; 00000010H

; 165  : 		s_AllModes.resize(std::unique(s_AllModes.begin(),s_AllModes.end()) - s_AllModes.begin() );

	lea	eax, DWORD PTR $T123273[ebp]
	push	eax
	mov	ecx, OFFSET _s_AllModes
	call	?begin@?$vector@U_devicemodeA@@V?$allocator@U_devicemodeA@@@std@@@std@@QAE?AV?$_Vector_iterator@U_devicemodeA@@V?$allocator@U_devicemodeA@@@std@@@2@XZ ; std::vector<_devicemodeA,std::allocator<_devicemodeA> >::begin
	push	eax
	lea	ecx, DWORD PTR $T123270[ebp]
	push	ecx
	mov	ecx, OFFSET _s_AllModes
	call	?end@?$vector@U_devicemodeA@@V?$allocator@U_devicemodeA@@@std@@@std@@QAE?AV?$_Vector_iterator@U_devicemodeA@@V?$allocator@U_devicemodeA@@@std@@@2@XZ ; std::vector<_devicemodeA,std::allocator<_devicemodeA> >::end
	mov	edx, DWORD PTR [eax+4]
	push	edx
	mov	eax, DWORD PTR [eax]
	push	eax
	lea	ecx, DWORD PTR $T123271[ebp]
	push	ecx
	mov	ecx, OFFSET _s_AllModes
	call	?begin@?$vector@U_devicemodeA@@V?$allocator@U_devicemodeA@@@std@@@std@@QAE?AV?$_Vector_iterator@U_devicemodeA@@V?$allocator@U_devicemodeA@@@std@@@2@XZ ; std::vector<_devicemodeA,std::allocator<_devicemodeA> >::begin
	mov	edx, DWORD PTR [eax+4]
	push	edx
	mov	eax, DWORD PTR [eax]
	push	eax
	lea	ecx, DWORD PTR $T123272[ebp]
	push	ecx
	call	??$unique@V?$_Vector_iterator@U_devicemodeA@@V?$allocator@U_devicemodeA@@@std@@@std@@@std@@YA?AV?$_Vector_iterator@U_devicemodeA@@V?$allocator@U_devicemodeA@@@std@@@0@V10@0@Z ; std::unique<std::_Vector_iterator<_devicemodeA,std::allocator<_devicemodeA> > >
	add	esp, 20					; 00000014H
	mov	ecx, eax
	call	??G?$_Vector_iterator@U_devicemodeA@@V?$allocator@U_devicemodeA@@@std@@@std@@QBEHABV?$_Vector_const_iterator@U_devicemodeA@@V?$allocator@U_devicemodeA@@@std@@@1@@Z ; std::_Vector_iterator<_devicemodeA,std::allocator<_devicemodeA> >::operator-
	push	eax
	mov	ecx, OFFSET _s_AllModes
	call	?resize@?$vector@U_devicemodeA@@V?$allocator@U_devicemodeA@@@std@@@std@@QAEXI@Z ; std::vector<_devicemodeA,std::allocator<_devicemodeA> >::resize

; 166  : 		s_FullScreenModes.resize(std::unique(s_FullScreenModes.begin(),s_FullScreenModes.end()) - s_FullScreenModes.begin() );

	lea	edx, DWORD PTR $T123277[ebp]
	push	edx
	mov	ecx, OFFSET _s_FullScreenModes
	call	?begin@?$vector@U_devicemodeA@@V?$allocator@U_devicemodeA@@@std@@@std@@QAE?AV?$_Vector_iterator@U_devicemodeA@@V?$allocator@U_devicemodeA@@@std@@@2@XZ ; std::vector<_devicemodeA,std::allocator<_devicemodeA> >::begin
	push	eax
	lea	eax, DWORD PTR $T123274[ebp]
	push	eax
	mov	ecx, OFFSET _s_FullScreenModes
	call	?end@?$vector@U_devicemodeA@@V?$allocator@U_devicemodeA@@@std@@@std@@QAE?AV?$_Vector_iterator@U_devicemodeA@@V?$allocator@U_devicemodeA@@@std@@@2@XZ ; std::vector<_devicemodeA,std::allocator<_devicemodeA> >::end
	mov	ecx, DWORD PTR [eax+4]
	push	ecx
	mov	edx, DWORD PTR [eax]
	push	edx
	lea	eax, DWORD PTR $T123275[ebp]
	push	eax
	mov	ecx, OFFSET _s_FullScreenModes
	call	?begin@?$vector@U_devicemodeA@@V?$allocator@U_devicemodeA@@@std@@@std@@QAE?AV?$_Vector_iterator@U_devicemodeA@@V?$allocator@U_devicemodeA@@@std@@@2@XZ ; std::vector<_devicemodeA,std::allocator<_devicemodeA> >::begin
	mov	ecx, DWORD PTR [eax+4]
	push	ecx
	mov	edx, DWORD PTR [eax]
	push	edx
	lea	eax, DWORD PTR $T123276[ebp]
	push	eax
	call	??$unique@V?$_Vector_iterator@U_devicemodeA@@V?$allocator@U_devicemodeA@@@std@@@std@@@std@@YA?AV?$_Vector_iterator@U_devicemodeA@@V?$allocator@U_devicemodeA@@@std@@@0@V10@0@Z ; std::unique<std::_Vector_iterator<_devicemodeA,std::allocator<_devicemodeA> > >
	add	esp, 20					; 00000014H
	mov	ecx, eax
	call	??G?$_Vector_iterator@U_devicemodeA@@V?$allocator@U_devicemodeA@@@std@@@std@@QBEHABV?$_Vector_const_iterator@U_devicemodeA@@V?$allocator@U_devicemodeA@@@std@@@1@@Z ; std::_Vector_iterator<_devicemodeA,std::allocator<_devicemodeA> >::operator-
	push	eax
	mov	ecx, OFFSET _s_FullScreenModes
	call	?resize@?$vector@U_devicemodeA@@V?$allocator@U_devicemodeA@@@std@@@std@@QAEXI@Z ; std::vector<_devicemodeA,std::allocator<_devicemodeA> >::resize

; 167  : 	}

	mov	ecx, DWORD PTR __$ArrayPad$[ebp]
	xor	ecx, ebp
	call	@__security_check_cookie@4
	mov	esp, ebp
	pop	ebp
	ret	0
?InitDisplayMode@Ogre@@YAXXZ ENDP			; Ogre::InitDisplayMode
_TEXT	ENDS
PUBLIC	??A?$vector@U_devicemodeA@@V?$allocator@U_devicemodeA@@@std@@@std@@QAEAAU_devicemodeA@@I@Z ; std::vector<_devicemodeA,std::allocator<_devicemodeA> >::operator[]
PUBLIC	?size@?$vector@U_devicemodeA@@V?$allocator@U_devicemodeA@@@std@@@std@@QBEIXZ ; std::vector<_devicemodeA,std::allocator<_devicemodeA> >::size
PUBLIC	?ChangeDisplayMode@Ogre@@YA_NHH@Z		; Ogre::ChangeDisplayMode
EXTRN	__imp__ChangeDisplaySettingsA@8:PROC
; Function compile flags: /Odtp
_TEXT	SEGMENT
_modeSwitch$117440 = -16				; size = 4
_mode$117438 = -12					; size = 4
_i$117434 = -8						; size = 4
_dflags$ = -4						; size = 4
_w$ = 8							; size = 4
_h$ = 12						; size = 4
?ChangeDisplayMode@Ogre@@YA_NHH@Z PROC			; Ogre::ChangeDisplayMode

; 170  : 	{

	push	ebp
	mov	ebp, esp
	sub	esp, 16					; 00000010H

; 171  : 		DWORD dflags = CDS_FULLSCREEN;

	mov	DWORD PTR _dflags$[ebp], 4

; 172  : 
; 173  : 		for(size_t i=0; i<s_AllModes.size(); i++)

	mov	DWORD PTR _i$117434[ebp], 0
	jmp	SHORT $LN5@ChangeDisp
$LN4@ChangeDisp:
	mov	eax, DWORD PTR _i$117434[ebp]
	add	eax, 1
	mov	DWORD PTR _i$117434[ebp], eax
$LN5@ChangeDisp:
	mov	ecx, OFFSET _s_AllModes
	call	?size@?$vector@U_devicemodeA@@V?$allocator@U_devicemodeA@@@std@@@std@@QBEIXZ ; std::vector<_devicemodeA,std::allocator<_devicemodeA> >::size
	cmp	DWORD PTR _i$117434[ebp], eax
	jae	SHORT $LN3@ChangeDisp

; 174  : 		{
; 175  : 			DEVMODE &mode = s_AllModes[i];

	mov	ecx, DWORD PTR _i$117434[ebp]
	push	ecx
	mov	ecx, OFFSET _s_AllModes
	call	??A?$vector@U_devicemodeA@@V?$allocator@U_devicemodeA@@@std@@@std@@QAEAAU_devicemodeA@@I@Z ; std::vector<_devicemodeA,std::allocator<_devicemodeA> >::operator[]
	mov	DWORD PTR _mode$117438[ebp], eax

; 176  : 			if(mode.dmPelsWidth==w && mode.dmPelsHeight==h)

	mov	edx, DWORD PTR _mode$117438[ebp]
	mov	eax, DWORD PTR [edx+108]
	cmp	eax, DWORD PTR _w$[ebp]
	jne	SHORT $LN2@ChangeDisp
	mov	ecx, DWORD PTR _mode$117438[ebp]
	mov	edx, DWORD PTR [ecx+112]
	cmp	edx, DWORD PTR _h$[ebp]
	jne	SHORT $LN2@ChangeDisp

; 177  : 			{
; 178  : 				LONG modeSwitch = ChangeDisplaySettings(&mode, dflags);

	mov	eax, DWORD PTR _dflags$[ebp]
	push	eax
	mov	ecx, DWORD PTR _mode$117438[ebp]
	push	ecx
	call	DWORD PTR __imp__ChangeDisplaySettingsA@8
	mov	DWORD PTR _modeSwitch$117440[ebp], eax

; 179  : 				if(modeSwitch==DISP_CHANGE_SUCCESSFUL) return true;

	cmp	DWORD PTR _modeSwitch$117440[ebp], 0
	jne	SHORT $LN2@ChangeDisp
	mov	al, 1
	jmp	SHORT $LN6@ChangeDisp
$LN2@ChangeDisp:

; 180  : 			}
; 181  : 		}

	jmp	SHORT $LN4@ChangeDisp
$LN3@ChangeDisp:

; 182  : 		return false;

	xor	al, al
$LN6@ChangeDisp:

; 183  : 	}

	mov	esp, ebp
	pop	ebp
	ret	0
?ChangeDisplayMode@Ogre@@YA_NHH@Z ENDP			; Ogre::ChangeDisplayMode
_TEXT	ENDS
PUBLIC	?RestoreDisplayMode@Ogre@@YAXXZ			; Ogre::RestoreDisplayMode
; Function compile flags: /Odtp
_TEXT	SEGMENT
?RestoreDisplayMode@Ogre@@YAXXZ PROC			; Ogre::RestoreDisplayMode

; 186  : 	{

	push	ebp
	mov	ebp, esp

; 187  : 		ChangeDisplaySettings(NULL,0);

	push	0
	push	0
	call	DWORD PTR __imp__ChangeDisplaySettingsA@8

; 188  : 	}

	pop	ebp
	ret	0
?RestoreDisplayMode@Ogre@@YAXXZ ENDP			; Ogre::RestoreDisplayMode
_TEXT	ENDS
PUBLIC	?GetNumDisplayMode@Ogre@@YAIXZ			; Ogre::GetNumDisplayMode
; Function compile flags: /Odtp
_TEXT	SEGMENT
?GetNumDisplayMode@Ogre@@YAIXZ PROC			; Ogre::GetNumDisplayMode

; 191  : 	{

	push	ebp
	mov	ebp, esp

; 192  : 		return s_AllModes.size();

	mov	ecx, OFFSET _s_AllModes
	call	?size@?$vector@U_devicemodeA@@V?$allocator@U_devicemodeA@@@std@@@std@@QBEIXZ ; std::vector<_devicemodeA,std::allocator<_devicemodeA> >::size

; 193  : 	}

	pop	ebp
	ret	0
?GetNumDisplayMode@Ogre@@YAIXZ ENDP			; Ogre::GetNumDisplayMode
_TEXT	ENDS
PUBLIC	?GetDisplayMode@Ogre@@YAXIAAH0@Z		; Ogre::GetDisplayMode
; Function compile flags: /Odtp
_TEXT	SEGMENT
_i$ = 8							; size = 4
_w$ = 12						; size = 4
_h$ = 16						; size = 4
?GetDisplayMode@Ogre@@YAXIAAH0@Z PROC			; Ogre::GetDisplayMode

; 195  : 	{

	push	ebp
	mov	ebp, esp

; 196  : 		assert(i<s_AllModes.size());
; 197  : 		w = s_AllModes[i].dmPelsWidth;

	mov	eax, DWORD PTR _i$[ebp]
	push	eax
	mov	ecx, OFFSET _s_AllModes
	call	??A?$vector@U_devicemodeA@@V?$allocator@U_devicemodeA@@@std@@@std@@QAEAAU_devicemodeA@@I@Z ; std::vector<_devicemodeA,std::allocator<_devicemodeA> >::operator[]
	mov	ecx, DWORD PTR _w$[ebp]
	mov	edx, DWORD PTR [eax+108]
	mov	DWORD PTR [ecx], edx

; 198  : 		h = s_AllModes[i].dmPelsHeight;

	mov	eax, DWORD PTR _i$[ebp]
	push	eax
	mov	ecx, OFFSET _s_AllModes
	call	??A?$vector@U_devicemodeA@@V?$allocator@U_devicemodeA@@@std@@@std@@QAEAAU_devicemodeA@@I@Z ; std::vector<_devicemodeA,std::allocator<_devicemodeA> >::operator[]
	mov	ecx, DWORD PTR _h$[ebp]
	mov	edx, DWORD PTR [eax+112]
	mov	DWORD PTR [ecx], edx

; 199  : 	}

	pop	ebp
	ret	0
?GetDisplayMode@Ogre@@YAXIAAH0@Z ENDP			; Ogre::GetDisplayMode
_TEXT	ENDS
PUBLIC	??F?$_Vector_iterator@U_devicemodeA@@V?$allocator@U_devicemodeA@@@std@@@std@@QAEAAV01@XZ ; std::_Vector_iterator<_devicemodeA,std::allocator<_devicemodeA> >::operator--
PUBLIC	??8?$_Vector_const_iterator@U_devicemodeA@@V?$allocator@U_devicemodeA@@@std@@@std@@QBE_NABV01@@Z ; std::_Vector_const_iterator<_devicemodeA,std::allocator<_devicemodeA> >::operator==
PUBLIC	??$lower_bound@V?$_Vector_iterator@U_devicemodeA@@V?$allocator@U_devicemodeA@@@std@@@std@@U_devicemodeA@@@std@@YA?AV?$_Vector_iterator@U_devicemodeA@@V?$allocator@U_devicemodeA@@@std@@@0@V10@0ABU_devicemodeA@@@Z ; std::lower_bound<std::_Vector_iterator<_devicemodeA,std::allocator<_devicemodeA> >,_devicemodeA>
PUBLIC	??C?$_Vector_iterator@U_devicemodeA@@V?$allocator@U_devicemodeA@@@std@@@std@@QBEPAU_devicemodeA@@XZ ; std::_Vector_iterator<_devicemodeA,std::allocator<_devicemodeA> >::operator->
PUBLIC	??9?$_Vector_const_iterator@U_devicemodeA@@V?$allocator@U_devicemodeA@@@std@@@std@@QBE_NABV01@@Z ; std::_Vector_const_iterator<_devicemodeA,std::allocator<_devicemodeA> >::operator!=
PUBLIC	??$find@V?$_Vector_iterator@U_devicemodeA@@V?$allocator@U_devicemodeA@@@std@@@std@@U_devicemodeA@@@std@@YA?AV?$_Vector_iterator@U_devicemodeA@@V?$allocator@U_devicemodeA@@@std@@@0@V10@0ABU_devicemodeA@@@Z ; std::find<std::_Vector_iterator<_devicemodeA,std::allocator<_devicemodeA> >,_devicemodeA>
PUBLIC	__$ArrayPad$
PUBLIC	?GetScreenMode@Ogre@@YAX_NAAH1@Z		; Ogre::GetScreenMode
; Function compile flags: /Odtp
_TEXT	SEGMENT
$T123291 = -240						; size = 8
$T123290 = -232						; size = 8
$T123289 = -224						; size = 8
$T123288 = -216						; size = 8
$T123287 = -208						; size = 8
$T123286 = -200						; size = 8
$T123285 = -192						; size = 8
$T123284 = -184						; size = 8
_pos$ = -176						; size = 8
_destDisplayMode$ = -168				; size = 156
__$ArrayPad$ = -8					; size = 4
_pModes$ = -4						; size = 4
_bFullScreen$ = 8					; size = 1
_width$ = 12						; size = 4
_height$ = 16						; size = 4
?GetScreenMode@Ogre@@YAX_NAAH1@Z PROC			; Ogre::GetScreenMode

; 202  : 	{

	push	ebp
	mov	ebp, esp
	sub	esp, 240				; 000000f0H
	mov	eax, DWORD PTR ___security_cookie
	xor	eax, ebp
	mov	DWORD PTR __$ArrayPad$[ebp], eax

; 203  : 		DEVMODE destDisplayMode;
; 204  : 		destDisplayMode.dmPelsWidth		= width;

	mov	eax, DWORD PTR _width$[ebp]
	mov	ecx, DWORD PTR [eax]
	mov	DWORD PTR _destDisplayMode$[ebp+108], ecx

; 205  : 		destDisplayMode.dmPelsHeight	= height;

	mov	edx, DWORD PTR _height$[ebp]
	mov	eax, DWORD PTR [edx]
	mov	DWORD PTR _destDisplayMode$[ebp+112], eax

; 206  : 		std::vector<DEVMODE>* pModes = NULL;

	mov	DWORD PTR _pModes$[ebp], 0

; 207  : 		if ( bFullScreen )

	movzx	ecx, BYTE PTR _bFullScreen$[ebp]
	test	ecx, ecx
	je	SHORT $LN4@GetScreenM

; 208  : 		{
; 209  : 			pModes = & s_FullScreenModes;

	mov	DWORD PTR _pModes$[ebp], OFFSET _s_FullScreenModes

; 210  : 		}
; 211  : 		else

	jmp	SHORT $LN3@GetScreenM
$LN4@GetScreenM:

; 212  : 		{
; 213  : 			pModes = &s_AllModes;

	mov	DWORD PTR _pModes$[ebp], OFFSET _s_AllModes
$LN3@GetScreenM:

; 214  : 		}
; 215  : 
; 216  : 		// 先看是否有完全匹配
; 217  : 		std::vector<DEVMODE>::iterator pos = std::find( pModes->begin(), pModes->end(), destDisplayMode );

	lea	edx, DWORD PTR _destDisplayMode$[ebp]
	push	edx
	lea	eax, DWORD PTR $T123284[ebp]
	push	eax
	mov	ecx, DWORD PTR _pModes$[ebp]
	call	?end@?$vector@U_devicemodeA@@V?$allocator@U_devicemodeA@@@std@@@std@@QAE?AV?$_Vector_iterator@U_devicemodeA@@V?$allocator@U_devicemodeA@@@std@@@2@XZ ; std::vector<_devicemodeA,std::allocator<_devicemodeA> >::end
	mov	ecx, DWORD PTR [eax+4]
	push	ecx
	mov	edx, DWORD PTR [eax]
	push	edx
	lea	eax, DWORD PTR $T123285[ebp]
	push	eax
	mov	ecx, DWORD PTR _pModes$[ebp]
	call	?begin@?$vector@U_devicemodeA@@V?$allocator@U_devicemodeA@@@std@@@std@@QAE?AV?$_Vector_iterator@U_devicemodeA@@V?$allocator@U_devicemodeA@@@std@@@2@XZ ; std::vector<_devicemodeA,std::allocator<_devicemodeA> >::begin
	mov	ecx, DWORD PTR [eax+4]
	push	ecx
	mov	edx, DWORD PTR [eax]
	push	edx
	lea	eax, DWORD PTR _pos$[ebp]
	push	eax
	call	??$find@V?$_Vector_iterator@U_devicemodeA@@V?$allocator@U_devicemodeA@@@std@@@std@@U_devicemodeA@@@std@@YA?AV?$_Vector_iterator@U_devicemodeA@@V?$allocator@U_devicemodeA@@@std@@@0@V10@0ABU_devicemodeA@@@Z ; std::find<std::_Vector_iterator<_devicemodeA,std::allocator<_devicemodeA> >,_devicemodeA>
	add	esp, 24					; 00000018H

; 218  : 		if ( pos != pModes->end() )

	lea	ecx, DWORD PTR $T123286[ebp]
	push	ecx
	mov	ecx, DWORD PTR _pModes$[ebp]
	call	?end@?$vector@U_devicemodeA@@V?$allocator@U_devicemodeA@@@std@@@std@@QAE?AV?$_Vector_iterator@U_devicemodeA@@V?$allocator@U_devicemodeA@@@std@@@2@XZ ; std::vector<_devicemodeA,std::allocator<_devicemodeA> >::end
	push	eax
	lea	ecx, DWORD PTR _pos$[ebp]
	call	??9?$_Vector_const_iterator@U_devicemodeA@@V?$allocator@U_devicemodeA@@@std@@@std@@QBE_NABV01@@Z ; std::_Vector_const_iterator<_devicemodeA,std::allocator<_devicemodeA> >::operator!=
	movzx	edx, al
	test	edx, edx
	je	SHORT $LN2@GetScreenM

; 219  : 		{
; 220  : 			width	= pos->dmPelsWidth;

	lea	ecx, DWORD PTR _pos$[ebp]
	call	??C?$_Vector_iterator@U_devicemodeA@@V?$allocator@U_devicemodeA@@@std@@@std@@QBEPAU_devicemodeA@@XZ ; std::_Vector_iterator<_devicemodeA,std::allocator<_devicemodeA> >::operator->
	mov	ecx, DWORD PTR _width$[ebp]
	mov	edx, DWORD PTR [eax+108]
	mov	DWORD PTR [ecx], edx

; 221  : 			height	= pos->dmPelsHeight;

	lea	ecx, DWORD PTR _pos$[ebp]
	call	??C?$_Vector_iterator@U_devicemodeA@@V?$allocator@U_devicemodeA@@@std@@@std@@QBEPAU_devicemodeA@@XZ ; std::_Vector_iterator<_devicemodeA,std::allocator<_devicemodeA> >::operator->
	mov	ecx, DWORD PTR _height$[ebp]
	mov	edx, DWORD PTR [eax+112]
	mov	DWORD PTR [ecx], edx

; 222  : 			return;

	jmp	$LN5@GetScreenM
$LN2@GetScreenM:

; 223  : 		}
; 224  : 		
; 225  : 		// 若没有精确匹配，使用最接近匹配
; 226  : 		pos = std::lower_bound( pModes->begin(), pModes->end(), destDisplayMode );

	lea	eax, DWORD PTR _destDisplayMode$[ebp]
	push	eax
	lea	ecx, DWORD PTR $T123287[ebp]
	push	ecx
	mov	ecx, DWORD PTR _pModes$[ebp]
	call	?end@?$vector@U_devicemodeA@@V?$allocator@U_devicemodeA@@@std@@@std@@QAE?AV?$_Vector_iterator@U_devicemodeA@@V?$allocator@U_devicemodeA@@@std@@@2@XZ ; std::vector<_devicemodeA,std::allocator<_devicemodeA> >::end
	mov	edx, DWORD PTR [eax+4]
	push	edx
	mov	eax, DWORD PTR [eax]
	push	eax
	lea	ecx, DWORD PTR $T123288[ebp]
	push	ecx
	mov	ecx, DWORD PTR _pModes$[ebp]
	call	?begin@?$vector@U_devicemodeA@@V?$allocator@U_devicemodeA@@@std@@@std@@QAE?AV?$_Vector_iterator@U_devicemodeA@@V?$allocator@U_devicemodeA@@@std@@@2@XZ ; std::vector<_devicemodeA,std::allocator<_devicemodeA> >::begin
	mov	edx, DWORD PTR [eax+4]
	push	edx
	mov	eax, DWORD PTR [eax]
	push	eax
	lea	ecx, DWORD PTR $T123289[ebp]
	push	ecx
	call	??$lower_bound@V?$_Vector_iterator@U_devicemodeA@@V?$allocator@U_devicemodeA@@@std@@@std@@U_devicemodeA@@@std@@YA?AV?$_Vector_iterator@U_devicemodeA@@V?$allocator@U_devicemodeA@@@std@@@0@V10@0ABU_devicemodeA@@@Z ; std::lower_bound<std::_Vector_iterator<_devicemodeA,std::allocator<_devicemodeA> >,_devicemodeA>
	add	esp, 24					; 00000018H
	mov	edx, DWORD PTR [eax]
	mov	eax, DWORD PTR [eax+4]
	mov	DWORD PTR _pos$[ebp], edx
	mov	DWORD PTR _pos$[ebp+4], eax

; 227  : 		if ( pos == pModes->end() )

	lea	ecx, DWORD PTR $T123290[ebp]
	push	ecx
	mov	ecx, DWORD PTR _pModes$[ebp]
	call	?end@?$vector@U_devicemodeA@@V?$allocator@U_devicemodeA@@@std@@@std@@QAE?AV?$_Vector_iterator@U_devicemodeA@@V?$allocator@U_devicemodeA@@@std@@@2@XZ ; std::vector<_devicemodeA,std::allocator<_devicemodeA> >::end
	push	eax
	lea	ecx, DWORD PTR _pos$[ebp]
	call	??8?$_Vector_const_iterator@U_devicemodeA@@V?$allocator@U_devicemodeA@@@std@@@std@@QBE_NABV01@@Z ; std::_Vector_const_iterator<_devicemodeA,std::allocator<_devicemodeA> >::operator==
	movzx	edx, al
	test	edx, edx
	je	SHORT $LN1@GetScreenM

; 228  : 		{
; 229  : 			pos = --( pModes->end() );

	lea	eax, DWORD PTR $T123291[ebp]
	push	eax
	mov	ecx, DWORD PTR _pModes$[ebp]
	call	?end@?$vector@U_devicemodeA@@V?$allocator@U_devicemodeA@@@std@@@std@@QAE?AV?$_Vector_iterator@U_devicemodeA@@V?$allocator@U_devicemodeA@@@std@@@2@XZ ; std::vector<_devicemodeA,std::allocator<_devicemodeA> >::end
	mov	ecx, eax
	call	??F?$_Vector_iterator@U_devicemodeA@@V?$allocator@U_devicemodeA@@@std@@@std@@QAEAAV01@XZ ; std::_Vector_iterator<_devicemodeA,std::allocator<_devicemodeA> >::operator--
	mov	ecx, DWORD PTR [eax]
	mov	edx, DWORD PTR [eax+4]
	mov	DWORD PTR _pos$[ebp], ecx
	mov	DWORD PTR _pos$[ebp+4], edx
$LN1@GetScreenM:

; 230  : 		}
; 231  : 
; 232  : 		width	= pos->dmPelsWidth;

	lea	ecx, DWORD PTR _pos$[ebp]
	call	??C?$_Vector_iterator@U_devicemodeA@@V?$allocator@U_devicemodeA@@@std@@@std@@QBEPAU_devicemodeA@@XZ ; std::_Vector_iterator<_devicemodeA,std::allocator<_devicemodeA> >::operator->
	mov	ecx, DWORD PTR _width$[ebp]
	mov	edx, DWORD PTR [eax+108]
	mov	DWORD PTR [ecx], edx

; 233  : 		height	= pos->dmPelsHeight;

	lea	ecx, DWORD PTR _pos$[ebp]
	call	??C?$_Vector_iterator@U_devicemodeA@@V?$allocator@U_devicemodeA@@@std@@@std@@QBEPAU_devicemodeA@@XZ ; std::_Vector_iterator<_devicemodeA,std::allocator<_devicemodeA> >::operator->
	mov	ecx, DWORD PTR _height$[ebp]
	mov	edx, DWORD PTR [eax+112]
	mov	DWORD PTR [ecx], edx
$LN5@GetScreenM:

; 234  : 	}

	mov	ecx, DWORD PTR __$ArrayPad$[ebp]
	xor	ecx, ebp
	call	@__security_check_cookie@4
	mov	esp, ebp
	pop	ebp
	ret	0
?GetScreenMode@Ogre@@YAX_NAAH1@Z ENDP			; Ogre::GetScreenMode
_TEXT	ENDS
PUBLIC	??$binary_search@V?$_Vector_iterator@U_devicemodeA@@V?$allocator@U_devicemodeA@@@std@@@std@@U_devicemodeA@@@std@@YA_NV?$_Vector_iterator@U_devicemodeA@@V?$allocator@U_devicemodeA@@@std@@@0@0ABU_devicemodeA@@@Z ; std::binary_search<std::_Vector_iterator<_devicemodeA,std::allocator<_devicemodeA> >,_devicemodeA>
PUBLIC	__$ArrayPad$
PUBLIC	?IsSolutionSupport@Ogre@@YA_NHH@Z		; Ogre::IsSolutionSupport
; Function compile flags: /Odtp
_TEXT	SEGMENT
$T123295 = -184						; size = 8
$T123294 = -176						; size = 8
_destDisplayMode$ = -168				; size = 156
__$ArrayPad$ = -4					; size = 4
_width$ = 8						; size = 4
_height$ = 12						; size = 4
?IsSolutionSupport@Ogre@@YA_NHH@Z PROC			; Ogre::IsSolutionSupport

; 237  : 	{

	push	ebp
	mov	ebp, esp
	sub	esp, 184				; 000000b8H
	mov	eax, DWORD PTR ___security_cookie
	xor	eax, ebp
	mov	DWORD PTR __$ArrayPad$[ebp], eax

; 238  : 		DEVMODE destDisplayMode;
; 239  : 		destDisplayMode.dmPelsWidth		= width;

	mov	eax, DWORD PTR _width$[ebp]
	mov	DWORD PTR _destDisplayMode$[ebp+108], eax

; 240  : 		destDisplayMode.dmPelsHeight	= height;

	mov	ecx, DWORD PTR _height$[ebp]
	mov	DWORD PTR _destDisplayMode$[ebp+112], ecx

; 241  : 		return std::binary_search( s_AllModes.begin(), s_AllModes.end(), destDisplayMode );

	lea	edx, DWORD PTR _destDisplayMode$[ebp]
	push	edx
	lea	eax, DWORD PTR $T123294[ebp]
	push	eax
	mov	ecx, OFFSET _s_AllModes
	call	?end@?$vector@U_devicemodeA@@V?$allocator@U_devicemodeA@@@std@@@std@@QAE?AV?$_Vector_iterator@U_devicemodeA@@V?$allocator@U_devicemodeA@@@std@@@2@XZ ; std::vector<_devicemodeA,std::allocator<_devicemodeA> >::end
	mov	ecx, DWORD PTR [eax+4]
	push	ecx
	mov	edx, DWORD PTR [eax]
	push	edx
	lea	eax, DWORD PTR $T123295[ebp]
	push	eax
	mov	ecx, OFFSET _s_AllModes
	call	?begin@?$vector@U_devicemodeA@@V?$allocator@U_devicemodeA@@@std@@@std@@QAE?AV?$_Vector_iterator@U_devicemodeA@@V?$allocator@U_devicemodeA@@@std@@@2@XZ ; std::vector<_devicemodeA,std::allocator<_devicemodeA> >::begin
	mov	ecx, DWORD PTR [eax+4]
	push	ecx
	mov	edx, DWORD PTR [eax]
	push	edx
	call	??$binary_search@V?$_Vector_iterator@U_devicemodeA@@V?$allocator@U_devicemodeA@@@std@@@std@@U_devicemodeA@@@std@@YA_NV?$_Vector_iterator@U_devicemodeA@@V?$allocator@U_devicemodeA@@@std@@@0@0ABU_devicemodeA@@@Z ; std::binary_search<std::_Vector_iterator<_devicemodeA,std::allocator<_devicemodeA> >,_devicemodeA>
	add	esp, 20					; 00000014H

; 242  : 	}

	mov	ecx, DWORD PTR __$ArrayPad$[ebp]
	xor	ecx, ebp
	call	@__security_check_cookie@4
	mov	esp, ebp
	pop	ebp
	ret	0
?IsSolutionSupport@Ogre@@YA_NHH@Z ENDP			; Ogre::IsSolutionSupport
_TEXT	ENDS
PUBLIC	??0?$_Vector_iterator@U_devicemodeA@@V?$allocator@U_devicemodeA@@@std@@@std@@QAE@PAU_devicemodeA@@PBV_Container_base_aux@1@@Z ; std::_Vector_iterator<_devicemodeA,std::allocator<_devicemodeA> >::_Vector_iterator<_devicemodeA,std::allocator<_devicemodeA> >
; Function compile flags: /Odtp
; File d:\program files (x86)\microsoft visual studio 9.0\vc\include\vector
;	COMDAT ?begin@?$vector@U_devicemodeA@@V?$allocator@U_devicemodeA@@@std@@@std@@QAE?AV?$_Vector_iterator@U_devicemodeA@@V?$allocator@U_devicemodeA@@@std@@@2@XZ
_TEXT	SEGMENT
_this$ = -4						; size = 4
___$ReturnUdt$ = 8					; size = 4
?begin@?$vector@U_devicemodeA@@V?$allocator@U_devicemodeA@@@std@@@std@@QAE?AV?$_Vector_iterator@U_devicemodeA@@V?$allocator@U_devicemodeA@@@std@@@2@XZ PROC ; std::vector<_devicemodeA,std::allocator<_devicemodeA> >::begin, COMDAT
; _this$ = ecx

; 640  : 		{	// return iterator for beginning of mutable sequence

	push	ebp
	mov	ebp, esp
	push	ecx
	mov	DWORD PTR _this$[ebp], ecx

; 641  : 		return (iterator(_Myfirst, this));

	mov	eax, DWORD PTR _this$[ebp]
	push	eax
	mov	ecx, DWORD PTR _this$[ebp]
	mov	edx, DWORD PTR [ecx+12]
	push	edx
	mov	ecx, DWORD PTR ___$ReturnUdt$[ebp]
	call	??0?$_Vector_iterator@U_devicemodeA@@V?$allocator@U_devicemodeA@@@std@@@std@@QAE@PAU_devicemodeA@@PBV_Container_base_aux@1@@Z ; std::_Vector_iterator<_devicemodeA,std::allocator<_devicemodeA> >::_Vector_iterator<_devicemodeA,std::allocator<_devicemodeA> >
	mov	eax, DWORD PTR ___$ReturnUdt$[ebp]

; 642  : 		}

	mov	esp, ebp
	pop	ebp
	ret	4
?begin@?$vector@U_devicemodeA@@V?$allocator@U_devicemodeA@@@std@@@std@@QAE?AV?$_Vector_iterator@U_devicemodeA@@V?$allocator@U_devicemodeA@@@std@@@2@XZ ENDP ; std::vector<_devicemodeA,std::allocator<_devicemodeA> >::begin
; Function compile flags: /Odtp
_TEXT	ENDS
;	COMDAT ?end@?$vector@U_devicemodeA@@V?$allocator@U_devicemodeA@@@std@@@std@@QAE?AV?$_Vector_iterator@U_devicemodeA@@V?$allocator@U_devicemodeA@@@std@@@2@XZ
_TEXT	SEGMENT
_this$ = -4						; size = 4
___$ReturnUdt$ = 8					; size = 4
?end@?$vector@U_devicemodeA@@V?$allocator@U_devicemodeA@@@std@@@std@@QAE?AV?$_Vector_iterator@U_devicemodeA@@V?$allocator@U_devicemodeA@@@std@@@2@XZ PROC ; std::vector<_devicemodeA,std::allocator<_devicemodeA> >::end, COMDAT
; _this$ = ecx

; 650  : 		{	// return iterator for end of mutable sequence

	push	ebp
	mov	ebp, esp
	push	ecx
	mov	DWORD PTR _this$[ebp], ecx

; 651  : 		return (iterator(_Mylast, this));

	mov	eax, DWORD PTR _this$[ebp]
	push	eax
	mov	ecx, DWORD PTR _this$[ebp]
	mov	edx, DWORD PTR [ecx+16]
	push	edx
	mov	ecx, DWORD PTR ___$ReturnUdt$[ebp]
	call	??0?$_Vector_iterator@U_devicemodeA@@V?$allocator@U_devicemodeA@@@std@@@std@@QAE@PAU_devicemodeA@@PBV_Container_base_aux@1@@Z ; std::_Vector_iterator<_devicemodeA,std::allocator<_devicemodeA> >::_Vector_iterator<_devicemodeA,std::allocator<_devicemodeA> >
	mov	eax, DWORD PTR ___$ReturnUdt$[ebp]

; 652  : 		}

	mov	esp, ebp
	pop	ebp
	ret	4
?end@?$vector@U_devicemodeA@@V?$allocator@U_devicemodeA@@@std@@@std@@QAE?AV?$_Vector_iterator@U_devicemodeA@@V?$allocator@U_devicemodeA@@@std@@@2@XZ ENDP ; std::vector<_devicemodeA,std::allocator<_devicemodeA> >::end
_TEXT	ENDS
PUBLIC	?resize@?$vector@U_devicemodeA@@V?$allocator@U_devicemodeA@@@std@@@std@@QAEXIU_devicemodeA@@@Z ; std::vector<_devicemodeA,std::allocator<_devicemodeA> >::resize
EXTRN	_memset:PROC
; Function compile flags: /Odtp
;	COMDAT ?resize@?$vector@U_devicemodeA@@V?$allocator@U_devicemodeA@@@std@@@std@@QAEXI@Z
_TEXT	SEGMENT
_this$ = -160						; size = 4
$T123301 = -156						; size = 156
__Newsize$ = 8						; size = 4
?resize@?$vector@U_devicemodeA@@V?$allocator@U_devicemodeA@@@std@@@std@@QAEXI@Z PROC ; std::vector<_devicemodeA,std::allocator<_devicemodeA> >::resize, COMDAT
; _this$ = ecx

; 712  : 		{	// determine new length, padding with _Ty() elements as needed

	push	ebp
	mov	ebp, esp
	sub	esp, 160				; 000000a0H
	push	esi
	push	edi
	mov	DWORD PTR _this$[ebp], ecx

; 713  : 		resize(_Newsize, _Ty());

	push	156					; 0000009cH
	push	0
	lea	eax, DWORD PTR $T123301[ebp]
	push	eax
	call	_memset
	add	esp, -144				; ffffff70H
	mov	ecx, 39					; 00000027H
	lea	esi, DWORD PTR $T123301[ebp]
	mov	edi, esp
	rep movsd
	mov	ecx, DWORD PTR __Newsize$[ebp]
	push	ecx
	mov	ecx, DWORD PTR _this$[ebp]
	call	?resize@?$vector@U_devicemodeA@@V?$allocator@U_devicemodeA@@@std@@@std@@QAEXIU_devicemodeA@@@Z ; std::vector<_devicemodeA,std::allocator<_devicemodeA> >::resize

; 714  : 		}

	pop	edi
	pop	esi
	mov	esp, ebp
	pop	ebp
	ret	4
?resize@?$vector@U_devicemodeA@@V?$allocator@U_devicemodeA@@@std@@@std@@QAEXI@Z ENDP ; std::vector<_devicemodeA,std::allocator<_devicemodeA> >::resize
; Function compile flags: /Odtp
_TEXT	ENDS
;	COMDAT ?size@?$vector@U_devicemodeA@@V?$allocator@U_devicemodeA@@@std@@@std@@QBEIXZ
_TEXT	SEGMENT
_this$ = -4						; size = 4
?size@?$vector@U_devicemodeA@@V?$allocator@U_devicemodeA@@@std@@@std@@QBEIXZ PROC ; std::vector<_devicemodeA,std::allocator<_devicemodeA> >::size, COMDAT
; _this$ = ecx

; 725  : 		{	// return length of sequence

	push	ebp
	mov	ebp, esp
	push	ecx
	mov	DWORD PTR _this$[ebp], ecx

; 726  : 		return (_Mylast - _Myfirst);

	mov	eax, DWORD PTR _this$[ebp]
	mov	ecx, DWORD PTR _this$[ebp]
	mov	eax, DWORD PTR [eax+16]
	sub	eax, DWORD PTR [ecx+12]
	cdq
	mov	ecx, 156				; 0000009cH
	idiv	ecx

; 727  : 		}

	mov	esp, ebp
	pop	ebp
	ret	0
?size@?$vector@U_devicemodeA@@V?$allocator@U_devicemodeA@@@std@@@std@@QBEIXZ ENDP ; std::vector<_devicemodeA,std::allocator<_devicemodeA> >::size
_TEXT	ENDS
EXTRN	__imp___invalid_parameter_noinfo:PROC
; Function compile flags: /Odtp
;	COMDAT ??A?$vector@U_devicemodeA@@V?$allocator@U_devicemodeA@@@std@@@std@@QAEAAU_devicemodeA@@I@Z
_TEXT	SEGMENT
_this$ = -4						; size = 4
__Pos$ = 8						; size = 4
??A?$vector@U_devicemodeA@@V?$allocator@U_devicemodeA@@@std@@@std@@QAEAAU_devicemodeA@@I@Z PROC ; std::vector<_devicemodeA,std::allocator<_devicemodeA> >::operator[], COMDAT
; _this$ = ecx

; 774  : 		{	// subscript mutable sequence

	push	ebp
	mov	ebp, esp
	push	ecx
	mov	DWORD PTR _this$[ebp], ecx

; 775  : 
; 776  :  #if _HAS_ITERATOR_DEBUGGING
; 777  : 		if (size() <= _Pos)
; 778  : 			{
; 779  : 			_DEBUG_ERROR("vector subscript out of range");
; 780  : 			_SCL_SECURE_OUT_OF_RANGE;
; 781  : 			}
; 782  :  #endif /* _HAS_ITERATOR_DEBUGGING */
; 783  : 		_SCL_SECURE_VALIDATE_RANGE(_Pos < size());

	mov	ecx, DWORD PTR _this$[ebp]
	call	?size@?$vector@U_devicemodeA@@V?$allocator@U_devicemodeA@@@std@@@std@@QBEIXZ ; std::vector<_devicemodeA,std::allocator<_devicemodeA> >::size
	cmp	DWORD PTR __Pos$[ebp], eax
	jb	SHORT $LN1@operator@2
	call	DWORD PTR __imp___invalid_parameter_noinfo
$LN1@operator@2:

; 784  : 
; 785  : 		return (*(_Myfirst + _Pos));

	mov	eax, DWORD PTR __Pos$[ebp]
	imul	eax, 156				; 0000009cH
	mov	ecx, DWORD PTR _this$[ebp]
	add	eax, DWORD PTR [ecx+12]

; 786  : 		}

	mov	esp, ebp
	pop	ebp
	ret	4
??A?$vector@U_devicemodeA@@V?$allocator@U_devicemodeA@@@std@@@std@@QAEAAU_devicemodeA@@I@Z ENDP ; std::vector<_devicemodeA,std::allocator<_devicemodeA> >::operator[]
_TEXT	ENDS
PUBLIC	?insert@?$vector@U_devicemodeA@@V?$allocator@U_devicemodeA@@@std@@@std@@QAE?AV?$_Vector_iterator@U_devicemodeA@@V?$allocator@U_devicemodeA@@@std@@@2@V?$_Vector_const_iterator@U_devicemodeA@@V?$allocator@U_devicemodeA@@@std@@@2@ABU_devicemodeA@@@Z ; std::vector<_devicemodeA,std::allocator<_devicemodeA> >::insert
PUBLIC	?_Ufill@?$vector@U_devicemodeA@@V?$allocator@U_devicemodeA@@@std@@@std@@IAEPAU_devicemodeA@@PAU3@IABU3@@Z ; std::vector<_devicemodeA,std::allocator<_devicemodeA> >::_Ufill
PUBLIC	?capacity@?$vector@U_devicemodeA@@V?$allocator@U_devicemodeA@@@std@@@std@@QBEIXZ ; std::vector<_devicemodeA,std::allocator<_devicemodeA> >::capacity
; Function compile flags: /Odtp
;	COMDAT ?push_back@?$vector@U_devicemodeA@@V?$allocator@U_devicemodeA@@@std@@@std@@QAEXABU_devicemodeA@@@Z
_TEXT	SEGMENT
_this$ = -28						; size = 4
$T123311 = -24						; size = 8
$T123310 = -16						; size = 8
$T123309 = -8						; size = 8
__Val$ = 8						; size = 4
?push_back@?$vector@U_devicemodeA@@V?$allocator@U_devicemodeA@@@std@@@std@@QAEXABU_devicemodeA@@@Z PROC ; std::vector<_devicemodeA,std::allocator<_devicemodeA> >::push_back, COMDAT
; _this$ = ecx

; 809  : 		{	// insert element at end

	push	ebp
	mov	ebp, esp
	sub	esp, 28					; 0000001cH
	push	esi
	mov	DWORD PTR _this$[ebp], ecx

; 810  : 		if (size() < capacity())

	mov	ecx, DWORD PTR _this$[ebp]
	call	?size@?$vector@U_devicemodeA@@V?$allocator@U_devicemodeA@@@std@@@std@@QBEIXZ ; std::vector<_devicemodeA,std::allocator<_devicemodeA> >::size
	mov	esi, eax
	mov	ecx, DWORD PTR _this$[ebp]
	call	?capacity@?$vector@U_devicemodeA@@V?$allocator@U_devicemodeA@@@std@@@std@@QBEIXZ ; std::vector<_devicemodeA,std::allocator<_devicemodeA> >::capacity
	cmp	esi, eax
	jae	SHORT $LN2@push_back

; 811  : 
; 812  :  #if _HAS_ITERATOR_DEBUGGING
; 813  : 			{ // room at end, construct it there
; 814  : 			_Orphan_range(_Mylast, _Mylast);
; 815  : 			_Mylast = _Ufill(_Mylast, 1, _Val);
; 816  : 			}
; 817  : 
; 818  :  #else /* _HAS_ITERATOR_DEBUGGING */
; 819  : 			_Mylast = _Ufill(_Mylast, 1, _Val);

	mov	eax, DWORD PTR __Val$[ebp]
	push	eax
	push	1
	mov	ecx, DWORD PTR _this$[ebp]
	mov	edx, DWORD PTR [ecx+16]
	push	edx
	mov	ecx, DWORD PTR _this$[ebp]
	call	?_Ufill@?$vector@U_devicemodeA@@V?$allocator@U_devicemodeA@@@std@@@std@@IAEPAU_devicemodeA@@PAU3@IABU3@@Z ; std::vector<_devicemodeA,std::allocator<_devicemodeA> >::_Ufill
	mov	ecx, DWORD PTR _this$[ebp]
	mov	DWORD PTR [ecx+16], eax

; 820  :  #endif /* _HAS_ITERATOR_DEBUGGING */
; 821  : 
; 822  : 		else

	jmp	SHORT $LN3@push_back
$LN2@push_back:

; 823  : 			insert(end(), _Val);

	lea	edx, DWORD PTR $T123310[ebp]
	push	edx
	mov	ecx, DWORD PTR _this$[ebp]
	call	?end@?$vector@U_devicemodeA@@V?$allocator@U_devicemodeA@@@std@@@std@@QAE?AV?$_Vector_iterator@U_devicemodeA@@V?$allocator@U_devicemodeA@@@std@@@2@XZ ; std::vector<_devicemodeA,std::allocator<_devicemodeA> >::end
	mov	ecx, DWORD PTR [eax]
	mov	edx, DWORD PTR [eax+4]
	mov	DWORD PTR $T123309[ebp], ecx
	mov	DWORD PTR $T123309[ebp+4], edx
	mov	eax, DWORD PTR __Val$[ebp]
	push	eax
	mov	ecx, DWORD PTR $T123309[ebp+4]
	push	ecx
	mov	edx, DWORD PTR $T123309[ebp]
	push	edx
	lea	eax, DWORD PTR $T123311[ebp]
	push	eax
	mov	ecx, DWORD PTR _this$[ebp]
	call	?insert@?$vector@U_devicemodeA@@V?$allocator@U_devicemodeA@@@std@@@std@@QAE?AV?$_Vector_iterator@U_devicemodeA@@V?$allocator@U_devicemodeA@@@std@@@2@V?$_Vector_const_iterator@U_devicemodeA@@V?$allocator@U_devicemodeA@@@std@@@2@ABU_devicemodeA@@@Z ; std::vector<_devicemodeA,std::allocator<_devicemodeA> >::insert
$LN3@push_back:

; 824  : 		}

	pop	esi
	mov	esp, ebp
	pop	ebp
	ret	4
?push_back@?$vector@U_devicemodeA@@V?$allocator@U_devicemodeA@@@std@@@std@@QAEXABU_devicemodeA@@@Z ENDP ; std::vector<_devicemodeA,std::allocator<_devicemodeA> >::push_back
_TEXT	ENDS
PUBLIC	?erase@?$vector@U_devicemodeA@@V?$allocator@U_devicemodeA@@@std@@@std@@QAE?AV?$_Vector_iterator@U_devicemodeA@@V?$allocator@U_devicemodeA@@@std@@@2@V?$_Vector_const_iterator@U_devicemodeA@@V?$allocator@U_devicemodeA@@@std@@@2@0@Z ; std::vector<_devicemodeA,std::allocator<_devicemodeA> >::erase
; Function compile flags: /Odtp
;	COMDAT ?clear@?$vector@U_devicemodeA@@V?$allocator@U_devicemodeA@@@std@@@std@@QAEXXZ
_TEXT	SEGMENT
_this$ = -44						; size = 4
$T123318 = -40						; size = 8
$T123317 = -32						; size = 8
$T123316 = -24						; size = 8
$T123315 = -16						; size = 8
$T123314 = -8						; size = 8
?clear@?$vector@U_devicemodeA@@V?$allocator@U_devicemodeA@@@std@@@std@@QAEXXZ PROC ; std::vector<_devicemodeA,std::allocator<_devicemodeA> >::clear, COMDAT
; _this$ = ecx

; 1059 : 		{	// erase all

	push	ebp
	mov	ebp, esp
	sub	esp, 44					; 0000002cH
	mov	DWORD PTR _this$[ebp], ecx

; 1060 : 		erase(begin(), end());

	lea	eax, DWORD PTR $T123315[ebp]
	push	eax
	mov	ecx, DWORD PTR _this$[ebp]
	call	?end@?$vector@U_devicemodeA@@V?$allocator@U_devicemodeA@@@std@@@std@@QAE?AV?$_Vector_iterator@U_devicemodeA@@V?$allocator@U_devicemodeA@@@std@@@2@XZ ; std::vector<_devicemodeA,std::allocator<_devicemodeA> >::end
	mov	ecx, DWORD PTR [eax]
	mov	edx, DWORD PTR [eax+4]
	mov	DWORD PTR $T123314[ebp], ecx
	mov	DWORD PTR $T123314[ebp+4], edx
	lea	eax, DWORD PTR $T123317[ebp]
	push	eax
	mov	ecx, DWORD PTR _this$[ebp]
	call	?begin@?$vector@U_devicemodeA@@V?$allocator@U_devicemodeA@@@std@@@std@@QAE?AV?$_Vector_iterator@U_devicemodeA@@V?$allocator@U_devicemodeA@@@std@@@2@XZ ; std::vector<_devicemodeA,std::allocator<_devicemodeA> >::begin
	mov	ecx, DWORD PTR [eax]
	mov	edx, DWORD PTR [eax+4]
	mov	DWORD PTR $T123316[ebp], ecx
	mov	DWORD PTR $T123316[ebp+4], edx
	mov	eax, DWORD PTR $T123314[ebp+4]
	push	eax
	mov	ecx, DWORD PTR $T123314[ebp]
	push	ecx
	mov	edx, DWORD PTR $T123316[ebp+4]
	push	edx
	mov	eax, DWORD PTR $T123316[ebp]
	push	eax
	lea	ecx, DWORD PTR $T123318[ebp]
	push	ecx
	mov	ecx, DWORD PTR _this$[ebp]
	call	?erase@?$vector@U_devicemodeA@@V?$allocator@U_devicemodeA@@@std@@@std@@QAE?AV?$_Vector_iterator@U_devicemodeA@@V?$allocator@U_devicemodeA@@@std@@@2@V?$_Vector_const_iterator@U_devicemodeA@@V?$allocator@U_devicemodeA@@@std@@@2@0@Z ; std::vector<_devicemodeA,std::allocator<_devicemodeA> >::erase

; 1061 : 		}

	mov	esp, ebp
	pop	ebp
	ret	0
?clear@?$vector@U_devicemodeA@@V?$allocator@U_devicemodeA@@@std@@@std@@QAEXXZ ENDP ; std::vector<_devicemodeA,std::allocator<_devicemodeA> >::clear
_TEXT	ENDS
PUBLIC	??D?$_Vector_iterator@U_devicemodeA@@V?$allocator@U_devicemodeA@@@std@@@std@@QBEAAU_devicemodeA@@XZ ; std::_Vector_iterator<_devicemodeA,std::allocator<_devicemodeA> >::operator*
; Function compile flags: /Odtp
;	COMDAT ??C?$_Vector_iterator@U_devicemodeA@@V?$allocator@U_devicemodeA@@@std@@@std@@QBEPAU_devicemodeA@@XZ
_TEXT	SEGMENT
_this$ = -4						; size = 4
??C?$_Vector_iterator@U_devicemodeA@@V?$allocator@U_devicemodeA@@@std@@@std@@QBEPAU_devicemodeA@@XZ PROC ; std::_Vector_iterator<_devicemodeA,std::allocator<_devicemodeA> >::operator->, COMDAT
; _this$ = ecx

; 343  : 		{	// return pointer to class object

	push	ebp
	mov	ebp, esp
	push	ecx
	mov	DWORD PTR _this$[ebp], ecx

; 344  : 		return (&**this);

	mov	ecx, DWORD PTR _this$[ebp]
	call	??D?$_Vector_iterator@U_devicemodeA@@V?$allocator@U_devicemodeA@@@std@@@std@@QBEAAU_devicemodeA@@XZ ; std::_Vector_iterator<_devicemodeA,std::allocator<_devicemodeA> >::operator*

; 345  : 		}

	mov	esp, ebp
	pop	ebp
	ret	0
??C?$_Vector_iterator@U_devicemodeA@@V?$allocator@U_devicemodeA@@@std@@@std@@QBEPAU_devicemodeA@@XZ ENDP ; std::_Vector_iterator<_devicemodeA,std::allocator<_devicemodeA> >::operator->
_TEXT	ENDS
PUBLIC	??F?$_Vector_const_iterator@U_devicemodeA@@V?$allocator@U_devicemodeA@@@std@@@std@@QAEAAV01@XZ ; std::_Vector_const_iterator<_devicemodeA,std::allocator<_devicemodeA> >::operator--
; Function compile flags: /Odtp
;	COMDAT ??F?$_Vector_iterator@U_devicemodeA@@V?$allocator@U_devicemodeA@@@std@@@std@@QAEAAV01@XZ
_TEXT	SEGMENT
_this$ = -4						; size = 4
??F?$_Vector_iterator@U_devicemodeA@@V?$allocator@U_devicemodeA@@@std@@@std@@QAEAAV01@XZ PROC ; std::_Vector_iterator<_devicemodeA,std::allocator<_devicemodeA> >::operator--, COMDAT
; _this$ = ecx

; 361  : 		{	// predecrement

	push	ebp
	mov	ebp, esp
	push	ecx
	mov	DWORD PTR _this$[ebp], ecx

; 362  : 		--(*(_Mybase *)this);

	mov	ecx, DWORD PTR _this$[ebp]
	call	??F?$_Vector_const_iterator@U_devicemodeA@@V?$allocator@U_devicemodeA@@@std@@@std@@QAEAAV01@XZ ; std::_Vector_const_iterator<_devicemodeA,std::allocator<_devicemodeA> >::operator--

; 363  : 		return (*this);

	mov	eax, DWORD PTR _this$[ebp]

; 364  : 		}

	mov	esp, ebp
	pop	ebp
	ret	0
??F?$_Vector_iterator@U_devicemodeA@@V?$allocator@U_devicemodeA@@@std@@@std@@QAEAAV01@XZ ENDP ; std::_Vector_iterator<_devicemodeA,std::allocator<_devicemodeA> >::operator--
_TEXT	ENDS
PUBLIC	??G?$_Vector_const_iterator@U_devicemodeA@@V?$allocator@U_devicemodeA@@@std@@@std@@QBEHABV01@@Z ; std::_Vector_const_iterator<_devicemodeA,std::allocator<_devicemodeA> >::operator-
; Function compile flags: /Odtp
;	COMDAT ??G?$_Vector_iterator@U_devicemodeA@@V?$allocator@U_devicemodeA@@@std@@@std@@QBEHABV?$_Vector_const_iterator@U_devicemodeA@@V?$allocator@U_devicemodeA@@@std@@@1@@Z
_TEXT	SEGMENT
_this$ = -4						; size = 4
__Right$ = 8						; size = 4
??G?$_Vector_iterator@U_devicemodeA@@V?$allocator@U_devicemodeA@@@std@@@std@@QBEHABV?$_Vector_const_iterator@U_devicemodeA@@V?$allocator@U_devicemodeA@@@std@@@1@@Z PROC ; std::_Vector_iterator<_devicemodeA,std::allocator<_devicemodeA> >::operator-, COMDAT
; _this$ = ecx

; 397  : 		{	// return difference of iterators

	push	ebp
	mov	ebp, esp
	push	ecx
	mov	DWORD PTR _this$[ebp], ecx

; 398  : 		return (*(_Mybase *)this - _Right);

	mov	eax, DWORD PTR __Right$[ebp]
	push	eax
	mov	ecx, DWORD PTR _this$[ebp]
	call	??G?$_Vector_const_iterator@U_devicemodeA@@V?$allocator@U_devicemodeA@@@std@@@std@@QBEHABV01@@Z ; std::_Vector_const_iterator<_devicemodeA,std::allocator<_devicemodeA> >::operator-

; 399  : 		}

	mov	esp, ebp
	pop	ebp
	ret	4
??G?$_Vector_iterator@U_devicemodeA@@V?$allocator@U_devicemodeA@@@std@@@std@@QBEHABV?$_Vector_const_iterator@U_devicemodeA@@V?$allocator@U_devicemodeA@@@std@@@1@@Z ENDP ; std::_Vector_iterator<_devicemodeA,std::allocator<_devicemodeA> >::operator-
_TEXT	ENDS
PUBLIC	?_Same_container@_Iterator_base_aux@std@@QBE_NABV12@@Z ; std::_Iterator_base_aux::_Same_container
PUBLIC	?_Has_container@_Iterator_base_aux@std@@QBE_NXZ	; std::_Iterator_base_aux::_Has_container
; Function compile flags: /Odtp
;	COMDAT ??8?$_Vector_const_iterator@U_devicemodeA@@V?$allocator@U_devicemodeA@@@std@@@std@@QBE_NABV01@@Z
_TEXT	SEGMENT
_this$ = -4						; size = 4
__Right$ = 8						; size = 4
??8?$_Vector_const_iterator@U_devicemodeA@@V?$allocator@U_devicemodeA@@@std@@@std@@QBE_NABV01@@Z PROC ; std::_Vector_const_iterator<_devicemodeA,std::allocator<_devicemodeA> >::operator==, COMDAT
; _this$ = ecx

; 203  : 		{	// test for iterator equality

	push	ebp
	mov	ebp, esp
	push	ecx
	mov	DWORD PTR _this$[ebp], ecx

; 204  : 
; 205  :  #if _HAS_ITERATOR_DEBUGGING
; 206  : 		_Compat(_Right);
; 207  :  #else
; 208  : 		_SCL_SECURE_VALIDATE(this->_Has_container() && this->_Same_container(_Right));

	mov	ecx, DWORD PTR _this$[ebp]
	call	?_Has_container@_Iterator_base_aux@std@@QBE_NXZ ; std::_Iterator_base_aux::_Has_container
	movzx	eax, al
	test	eax, eax
	je	SHORT $LN1@operator@3
	mov	ecx, DWORD PTR __Right$[ebp]
	push	ecx
	mov	ecx, DWORD PTR _this$[ebp]
	call	?_Same_container@_Iterator_base_aux@std@@QBE_NABV12@@Z ; std::_Iterator_base_aux::_Same_container
	movzx	edx, al
	test	edx, edx
	jne	SHORT $LN2@operator@3
$LN1@operator@3:
	call	DWORD PTR __imp___invalid_parameter_noinfo
$LN2@operator@3:

; 209  :  #endif /* _HAS_ITERATOR_DEBUGGING */
; 210  : 
; 211  : 		return (_Myptr == _Right._Myptr);

	mov	eax, DWORD PTR _this$[ebp]
	mov	ecx, DWORD PTR __Right$[ebp]
	mov	edx, DWORD PTR [eax+4]
	xor	eax, eax
	cmp	edx, DWORD PTR [ecx+4]
	sete	al

; 212  : 		}

	mov	esp, ebp
	pop	ebp
	ret	4
??8?$_Vector_const_iterator@U_devicemodeA@@V?$allocator@U_devicemodeA@@@std@@@std@@QBE_NABV01@@Z ENDP ; std::_Vector_const_iterator<_devicemodeA,std::allocator<_devicemodeA> >::operator==
; Function compile flags: /Odtp
; File d:\program files (x86)\microsoft visual studio 9.0\vc\include\xutility
_TEXT	ENDS
;	COMDAT ?_Same_container@_Iterator_base_aux@std@@QBE_NABV12@@Z
_TEXT	SEGMENT
_this$ = -4						; size = 4
__Other$ = 8						; size = 4
?_Same_container@_Iterator_base_aux@std@@QBE_NABV12@@Z PROC ; std::_Iterator_base_aux::_Same_container, COMDAT
; _this$ = ecx

; 462  : 		{	// Accelerate the comparison by not going through the aux object

	push	ebp
	mov	ebp, esp
	push	ecx
	mov	DWORD PTR _this$[ebp], ecx

; 463  : 		return _Myaux == _Other._Myaux;

	mov	eax, DWORD PTR _this$[ebp]
	mov	ecx, DWORD PTR __Other$[ebp]
	mov	edx, DWORD PTR [eax]
	xor	eax, eax
	cmp	edx, DWORD PTR [ecx]
	sete	al

; 464  : 		}

	mov	esp, ebp
	pop	ebp
	ret	4
?_Same_container@_Iterator_base_aux@std@@QBE_NABV12@@Z ENDP ; std::_Iterator_base_aux::_Same_container
; Function compile flags: /Odtp
_TEXT	ENDS
;	COMDAT ?_Has_container@_Iterator_base_aux@std@@QBE_NXZ
_TEXT	SEGMENT
_this$ = -4						; size = 4
?_Has_container@_Iterator_base_aux@std@@QBE_NXZ PROC	; std::_Iterator_base_aux::_Has_container, COMDAT
; _this$ = ecx

; 467  : 		{	// Accelerate the comparison by not going through the aux object

	push	ebp
	mov	ebp, esp
	push	ecx
	mov	DWORD PTR _this$[ebp], ecx

; 468  : 		return _Myaux != 0;

	mov	eax, DWORD PTR _this$[ebp]
	xor	ecx, ecx
	cmp	DWORD PTR [eax], 0
	setne	cl
	mov	al, cl

; 469  : 		}

	mov	esp, ebp
	pop	ebp
	ret	0
?_Has_container@_Iterator_base_aux@std@@QBE_NXZ ENDP	; std::_Iterator_base_aux::_Has_container
; Function compile flags: /Odtp
; File d:\program files (x86)\microsoft visual studio 9.0\vc\include\vector
_TEXT	ENDS
;	COMDAT ??9?$_Vector_const_iterator@U_devicemodeA@@V?$allocator@U_devicemodeA@@@std@@@std@@QBE_NABV01@@Z
_TEXT	SEGMENT
_this$ = -4						; size = 4
__Right$ = 8						; size = 4
??9?$_Vector_const_iterator@U_devicemodeA@@V?$allocator@U_devicemodeA@@@std@@@std@@QBE_NABV01@@Z PROC ; std::_Vector_const_iterator<_devicemodeA,std::allocator<_devicemodeA> >::operator!=, COMDAT
; _this$ = ecx

; 215  : 		{	// test for iterator inequality

	push	ebp
	mov	ebp, esp
	push	ecx
	mov	DWORD PTR _this$[ebp], ecx

; 216  : 		return (!(*this == _Right));

	mov	eax, DWORD PTR __Right$[ebp]
	push	eax
	mov	ecx, DWORD PTR _this$[ebp]
	call	??8?$_Vector_const_iterator@U_devicemodeA@@V?$allocator@U_devicemodeA@@@std@@@std@@QBE_NABV01@@Z ; std::_Vector_const_iterator<_devicemodeA,std::allocator<_devicemodeA> >::operator==
	movzx	eax, al
	neg	eax
	sbb	eax, eax
	add	eax, 1

; 217  : 		}

	mov	esp, ebp
	pop	ebp
	ret	4
??9?$_Vector_const_iterator@U_devicemodeA@@V?$allocator@U_devicemodeA@@@std@@@std@@QBE_NABV01@@Z ENDP ; std::_Vector_const_iterator<_devicemodeA,std::allocator<_devicemodeA> >::operator!=
; Function compile flags: /Odtp
_TEXT	ENDS
;	COMDAT ?capacity@?$vector@U_devicemodeA@@V?$allocator@U_devicemodeA@@@std@@@std@@QBEIXZ
_TEXT	SEGMENT
tv70 = -8						; size = 4
_this$ = -4						; size = 4
?capacity@?$vector@U_devicemodeA@@V?$allocator@U_devicemodeA@@@std@@@std@@QBEIXZ PROC ; std::vector<_devicemodeA,std::allocator<_devicemodeA> >::capacity, COMDAT
; _this$ = ecx

; 634  : 		{	// return current length of allocated storage

	push	ebp
	mov	ebp, esp
	sub	esp, 8
	mov	DWORD PTR _this$[ebp], ecx

; 635  : 		return (_Myfirst == 0 ? 0 : _Myend - _Myfirst);

	mov	eax, DWORD PTR _this$[ebp]
	cmp	DWORD PTR [eax+12], 0
	jne	SHORT $LN3@capacity
	mov	DWORD PTR tv70[ebp], 0
	jmp	SHORT $LN4@capacity
$LN3@capacity:
	mov	ecx, DWORD PTR _this$[ebp]
	mov	edx, DWORD PTR _this$[ebp]
	mov	eax, DWORD PTR [ecx+20]
	sub	eax, DWORD PTR [edx+12]
	cdq
	mov	ecx, 156				; 0000009cH
	idiv	ecx
	mov	DWORD PTR tv70[ebp], eax
$LN4@capacity:
	mov	eax, DWORD PTR tv70[ebp]

; 636  : 		}

	mov	esp, ebp
	pop	ebp
	ret	0
?capacity@?$vector@U_devicemodeA@@V?$allocator@U_devicemodeA@@@std@@@std@@QBEIXZ ENDP ; std::vector<_devicemodeA,std::allocator<_devicemodeA> >::capacity
_TEXT	ENDS
PUBLIC	??H?$_Vector_iterator@U_devicemodeA@@V?$allocator@U_devicemodeA@@@std@@@std@@QBE?AV01@H@Z ; std::_Vector_iterator<_devicemodeA,std::allocator<_devicemodeA> >::operator+
PUBLIC	?_Insert_n@?$vector@U_devicemodeA@@V?$allocator@U_devicemodeA@@@std@@@std@@IAEXV?$_Vector_const_iterator@U_devicemodeA@@V?$allocator@U_devicemodeA@@@std@@@2@IABU_devicemodeA@@@Z ; std::vector<_devicemodeA,std::allocator<_devicemodeA> >::_Insert_n
; Function compile flags: /Odtp
;	COMDAT ?resize@?$vector@U_devicemodeA@@V?$allocator@U_devicemodeA@@@std@@@std@@QAEXIU_devicemodeA@@@Z
_TEXT	SEGMENT
_this$ = -72						; size = 4
$T123347 = -68						; size = 8
$T123346 = -60						; size = 8
$T123345 = -52						; size = 8
$T123344 = -44						; size = 8
$T123343 = -36						; size = 8
$T123342 = -28						; size = 8
$T123341 = -20						; size = 8
$T123340 = -12						; size = 8
__Newsize$ = 8						; size = 4
__Val$ = 12						; size = 156
?resize@?$vector@U_devicemodeA@@V?$allocator@U_devicemodeA@@@std@@@std@@QAEXIU_devicemodeA@@@Z PROC ; std::vector<_devicemodeA,std::allocator<_devicemodeA> >::resize, COMDAT
; _this$ = ecx

; 717  : 		{	// determine new length, padding with _Val elements as needed

	push	ebp
	mov	ebp, esp
	sub	esp, 72					; 00000048H
	mov	DWORD PTR _this$[ebp], ecx

; 718  : 		if (size() < _Newsize)

	mov	ecx, DWORD PTR _this$[ebp]
	call	?size@?$vector@U_devicemodeA@@V?$allocator@U_devicemodeA@@@std@@@std@@QBEIXZ ; std::vector<_devicemodeA,std::allocator<_devicemodeA> >::size
	cmp	eax, DWORD PTR __Newsize$[ebp]
	jae	SHORT $LN3@resize

; 719  : 			_Insert_n(end(), _Newsize - size(), _Val);

	lea	eax, DWORD PTR $T123341[ebp]
	push	eax
	mov	ecx, DWORD PTR _this$[ebp]
	call	?end@?$vector@U_devicemodeA@@V?$allocator@U_devicemodeA@@@std@@@std@@QAE?AV?$_Vector_iterator@U_devicemodeA@@V?$allocator@U_devicemodeA@@@std@@@2@XZ ; std::vector<_devicemodeA,std::allocator<_devicemodeA> >::end
	mov	ecx, DWORD PTR [eax]
	mov	edx, DWORD PTR [eax+4]
	mov	DWORD PTR $T123340[ebp], ecx
	mov	DWORD PTR $T123340[ebp+4], edx
	lea	eax, DWORD PTR __Val$[ebp]
	push	eax
	mov	ecx, DWORD PTR _this$[ebp]
	call	?size@?$vector@U_devicemodeA@@V?$allocator@U_devicemodeA@@@std@@@std@@QBEIXZ ; std::vector<_devicemodeA,std::allocator<_devicemodeA> >::size
	mov	ecx, DWORD PTR __Newsize$[ebp]
	sub	ecx, eax
	push	ecx
	mov	edx, DWORD PTR $T123340[ebp+4]
	push	edx
	mov	eax, DWORD PTR $T123340[ebp]
	push	eax
	mov	ecx, DWORD PTR _this$[ebp]
	call	?_Insert_n@?$vector@U_devicemodeA@@V?$allocator@U_devicemodeA@@@std@@@std@@IAEXV?$_Vector_const_iterator@U_devicemodeA@@V?$allocator@U_devicemodeA@@@std@@@2@IABU_devicemodeA@@@Z ; std::vector<_devicemodeA,std::allocator<_devicemodeA> >::_Insert_n
	jmp	SHORT $LN4@resize
$LN3@resize:

; 720  : 		else if (_Newsize < size())

	mov	ecx, DWORD PTR _this$[ebp]
	call	?size@?$vector@U_devicemodeA@@V?$allocator@U_devicemodeA@@@std@@@std@@QBEIXZ ; std::vector<_devicemodeA,std::allocator<_devicemodeA> >::size
	cmp	DWORD PTR __Newsize$[ebp], eax
	jae	SHORT $LN4@resize

; 721  : 			erase(begin() + _Newsize, end());

	lea	ecx, DWORD PTR $T123343[ebp]
	push	ecx
	mov	ecx, DWORD PTR _this$[ebp]
	call	?end@?$vector@U_devicemodeA@@V?$allocator@U_devicemodeA@@@std@@@std@@QAE?AV?$_Vector_iterator@U_devicemodeA@@V?$allocator@U_devicemodeA@@@std@@@2@XZ ; std::vector<_devicemodeA,std::allocator<_devicemodeA> >::end
	mov	edx, DWORD PTR [eax]
	mov	eax, DWORD PTR [eax+4]
	mov	DWORD PTR $T123342[ebp], edx
	mov	DWORD PTR $T123342[ebp+4], eax
	mov	ecx, DWORD PTR __Newsize$[ebp]
	push	ecx
	lea	edx, DWORD PTR $T123346[ebp]
	push	edx
	lea	eax, DWORD PTR $T123345[ebp]
	push	eax
	mov	ecx, DWORD PTR _this$[ebp]
	call	?begin@?$vector@U_devicemodeA@@V?$allocator@U_devicemodeA@@@std@@@std@@QAE?AV?$_Vector_iterator@U_devicemodeA@@V?$allocator@U_devicemodeA@@@std@@@2@XZ ; std::vector<_devicemodeA,std::allocator<_devicemodeA> >::begin
	mov	ecx, eax
	call	??H?$_Vector_iterator@U_devicemodeA@@V?$allocator@U_devicemodeA@@@std@@@std@@QBE?AV01@H@Z ; std::_Vector_iterator<_devicemodeA,std::allocator<_devicemodeA> >::operator+
	mov	ecx, DWORD PTR [eax]
	mov	edx, DWORD PTR [eax+4]
	mov	DWORD PTR $T123344[ebp], ecx
	mov	DWORD PTR $T123344[ebp+4], edx
	mov	eax, DWORD PTR $T123342[ebp+4]
	push	eax
	mov	ecx, DWORD PTR $T123342[ebp]
	push	ecx
	mov	edx, DWORD PTR $T123344[ebp+4]
	push	edx
	mov	eax, DWORD PTR $T123344[ebp]
	push	eax
	lea	ecx, DWORD PTR $T123347[ebp]
	push	ecx
	mov	ecx, DWORD PTR _this$[ebp]
	call	?erase@?$vector@U_devicemodeA@@V?$allocator@U_devicemodeA@@@std@@@std@@QAE?AV?$_Vector_iterator@U_devicemodeA@@V?$allocator@U_devicemodeA@@@std@@@2@V?$_Vector_const_iterator@U_devicemodeA@@V?$allocator@U_devicemodeA@@@std@@@2@0@Z ; std::vector<_devicemodeA,std::allocator<_devicemodeA> >::erase
$LN4@resize:

; 722  : 		}

	mov	esp, ebp
	pop	ebp
	ret	160					; 000000a0H
?resize@?$vector@U_devicemodeA@@V?$allocator@U_devicemodeA@@@std@@@std@@QAEXIU_devicemodeA@@@Z ENDP ; std::vector<_devicemodeA,std::allocator<_devicemodeA> >::resize
; Function compile flags: /Odtp
_TEXT	ENDS
;	COMDAT ?insert@?$vector@U_devicemodeA@@V?$allocator@U_devicemodeA@@@std@@@std@@QAE?AV?$_Vector_iterator@U_devicemodeA@@V?$allocator@U_devicemodeA@@@std@@@2@V?$_Vector_const_iterator@U_devicemodeA@@V?$allocator@U_devicemodeA@@@std@@@2@ABU_devicemodeA@@@Z
_TEXT	SEGMENT
tv77 = -28						; size = 4
_this$ = -24						; size = 4
$T123353 = -20						; size = 8
$T123350 = -12						; size = 8
__Off$ = -4						; size = 4
___$ReturnUdt$ = 8					; size = 4
__Where$ = 12						; size = 8
__Val$ = 20						; size = 4
?insert@?$vector@U_devicemodeA@@V?$allocator@U_devicemodeA@@@std@@@std@@QAE?AV?$_Vector_iterator@U_devicemodeA@@V?$allocator@U_devicemodeA@@@std@@@2@V?$_Vector_const_iterator@U_devicemodeA@@V?$allocator@U_devicemodeA@@@std@@@2@ABU_devicemodeA@@@Z PROC ; std::vector<_devicemodeA,std::allocator<_devicemodeA> >::insert, COMDAT
; _this$ = ecx

; 875  : 		{	// insert _Val at _Where

	push	ebp
	mov	ebp, esp
	sub	esp, 28					; 0000001cH
	mov	DWORD PTR _this$[ebp], ecx

; 876  : 		size_type _Off = size() == 0 ? 0 : _Where - begin();

	mov	ecx, DWORD PTR _this$[ebp]
	call	?size@?$vector@U_devicemodeA@@V?$allocator@U_devicemodeA@@@std@@@std@@QBEIXZ ; std::vector<_devicemodeA,std::allocator<_devicemodeA> >::size
	test	eax, eax
	jne	SHORT $LN3@insert
	mov	DWORD PTR tv77[ebp], 0
	jmp	SHORT $LN4@insert
$LN3@insert:
	lea	eax, DWORD PTR $T123350[ebp]
	push	eax
	mov	ecx, DWORD PTR _this$[ebp]
	call	?begin@?$vector@U_devicemodeA@@V?$allocator@U_devicemodeA@@@std@@@std@@QAE?AV?$_Vector_iterator@U_devicemodeA@@V?$allocator@U_devicemodeA@@@std@@@2@XZ ; std::vector<_devicemodeA,std::allocator<_devicemodeA> >::begin
	push	eax
	lea	ecx, DWORD PTR __Where$[ebp]
	call	??G?$_Vector_const_iterator@U_devicemodeA@@V?$allocator@U_devicemodeA@@@std@@@std@@QBEHABV01@@Z ; std::_Vector_const_iterator<_devicemodeA,std::allocator<_devicemodeA> >::operator-
	mov	DWORD PTR tv77[ebp], eax
$LN4@insert:
	mov	ecx, DWORD PTR tv77[ebp]
	mov	DWORD PTR __Off$[ebp], ecx

; 877  : 		_Insert_n(_Where, (size_type)1, _Val);

	mov	edx, DWORD PTR __Val$[ebp]
	push	edx
	push	1
	mov	eax, DWORD PTR __Where$[ebp+4]
	push	eax
	mov	ecx, DWORD PTR __Where$[ebp]
	push	ecx
	mov	ecx, DWORD PTR _this$[ebp]
	call	?_Insert_n@?$vector@U_devicemodeA@@V?$allocator@U_devicemodeA@@@std@@@std@@IAEXV?$_Vector_const_iterator@U_devicemodeA@@V?$allocator@U_devicemodeA@@@std@@@2@IABU_devicemodeA@@@Z ; std::vector<_devicemodeA,std::allocator<_devicemodeA> >::_Insert_n

; 878  : 		return (begin() + _Off);

	mov	edx, DWORD PTR __Off$[ebp]
	push	edx
	mov	eax, DWORD PTR ___$ReturnUdt$[ebp]
	push	eax
	lea	ecx, DWORD PTR $T123353[ebp]
	push	ecx
	mov	ecx, DWORD PTR _this$[ebp]
	call	?begin@?$vector@U_devicemodeA@@V?$allocator@U_devicemodeA@@@std@@@std@@QAE?AV?$_Vector_iterator@U_devicemodeA@@V?$allocator@U_devicemodeA@@@std@@@2@XZ ; std::vector<_devicemodeA,std::allocator<_devicemodeA> >::begin
	mov	ecx, eax
	call	??H?$_Vector_iterator@U_devicemodeA@@V?$allocator@U_devicemodeA@@@std@@@std@@QBE?AV01@H@Z ; std::_Vector_iterator<_devicemodeA,std::allocator<_devicemodeA> >::operator+
	mov	eax, DWORD PTR ___$ReturnUdt$[ebp]

; 879  : 		}

	mov	esp, ebp
	pop	ebp
	ret	16					; 00000010H
?insert@?$vector@U_devicemodeA@@V?$allocator@U_devicemodeA@@@std@@@std@@QAE?AV?$_Vector_iterator@U_devicemodeA@@V?$allocator@U_devicemodeA@@@std@@@2@V?$_Vector_const_iterator@U_devicemodeA@@V?$allocator@U_devicemodeA@@@std@@@2@ABU_devicemodeA@@@Z ENDP ; std::vector<_devicemodeA,std::allocator<_devicemodeA> >::insert
_TEXT	ENDS
PUBLIC	?_Destroy@?$vector@U_devicemodeA@@V?$allocator@U_devicemodeA@@@std@@@std@@IAEXPAU_devicemodeA@@0@Z ; std::vector<_devicemodeA,std::allocator<_devicemodeA> >::_Destroy
PUBLIC	??$unchecked_copy@PAU_devicemodeA@@PAU1@@stdext@@YAPAU_devicemodeA@@PAU1@00@Z ; stdext::unchecked_copy<_devicemodeA *,_devicemodeA *>
PUBLIC	?_Make_iter@?$vector@U_devicemodeA@@V?$allocator@U_devicemodeA@@@std@@@std@@QBE?AV?$_Vector_iterator@U_devicemodeA@@V?$allocator@U_devicemodeA@@@std@@@2@V?$_Vector_const_iterator@U_devicemodeA@@V?$allocator@U_devicemodeA@@@std@@@2@@Z ; std::vector<_devicemodeA,std::allocator<_devicemodeA> >::_Make_iter
; Function compile flags: /Odtp
;	COMDAT ?erase@?$vector@U_devicemodeA@@V?$allocator@U_devicemodeA@@@std@@@std@@QAE?AV?$_Vector_iterator@U_devicemodeA@@V?$allocator@U_devicemodeA@@@std@@@2@V?$_Vector_const_iterator@U_devicemodeA@@V?$allocator@U_devicemodeA@@@std@@@2@0@Z
_TEXT	SEGMENT
_this$ = -24						; size = 4
__Ptr$119853 = -20					; size = 4
__Last$ = -16						; size = 8
__First$ = -8						; size = 8
___$ReturnUdt$ = 8					; size = 4
__First_arg$ = 12					; size = 8
__Last_arg$ = 20					; size = 8
?erase@?$vector@U_devicemodeA@@V?$allocator@U_devicemodeA@@@std@@@std@@QAE?AV?$_Vector_iterator@U_devicemodeA@@V?$allocator@U_devicemodeA@@@std@@@2@V?$_Vector_const_iterator@U_devicemodeA@@V?$allocator@U_devicemodeA@@@std@@@2@0@Z PROC ; std::vector<_devicemodeA,std::allocator<_devicemodeA> >::erase, COMDAT
; _this$ = ecx

; 1028 : 		{	// erase [_First, _Last)

	push	ebp
	mov	ebp, esp
	sub	esp, 24					; 00000018H
	mov	DWORD PTR _this$[ebp], ecx

; 1029 : 		iterator _First = _Make_iter(_First_arg);

	mov	eax, DWORD PTR __First_arg$[ebp+4]
	push	eax
	mov	ecx, DWORD PTR __First_arg$[ebp]
	push	ecx
	lea	edx, DWORD PTR __First$[ebp]
	push	edx
	mov	ecx, DWORD PTR _this$[ebp]
	call	?_Make_iter@?$vector@U_devicemodeA@@V?$allocator@U_devicemodeA@@@std@@@std@@QBE?AV?$_Vector_iterator@U_devicemodeA@@V?$allocator@U_devicemodeA@@@std@@@2@V?$_Vector_const_iterator@U_devicemodeA@@V?$allocator@U_devicemodeA@@@std@@@2@@Z ; std::vector<_devicemodeA,std::allocator<_devicemodeA> >::_Make_iter

; 1030 : 		iterator _Last = _Make_iter(_Last_arg);

	mov	eax, DWORD PTR __Last_arg$[ebp+4]
	push	eax
	mov	ecx, DWORD PTR __Last_arg$[ebp]
	push	ecx
	lea	edx, DWORD PTR __Last$[ebp]
	push	edx
	mov	ecx, DWORD PTR _this$[ebp]
	call	?_Make_iter@?$vector@U_devicemodeA@@V?$allocator@U_devicemodeA@@@std@@@std@@QBE?AV?$_Vector_iterator@U_devicemodeA@@V?$allocator@U_devicemodeA@@@std@@@2@V?$_Vector_const_iterator@U_devicemodeA@@V?$allocator@U_devicemodeA@@@std@@@2@@Z ; std::vector<_devicemodeA,std::allocator<_devicemodeA> >::_Make_iter

; 1031 : 
; 1032 : 		if (_First != _Last)

	lea	eax, DWORD PTR __Last$[ebp]
	push	eax
	lea	ecx, DWORD PTR __First$[ebp]
	call	??9?$_Vector_const_iterator@U_devicemodeA@@V?$allocator@U_devicemodeA@@@std@@@std@@QBE_NABV01@@Z ; std::_Vector_const_iterator<_devicemodeA,std::allocator<_devicemodeA> >::operator!=
	movzx	ecx, al
	test	ecx, ecx
	je	SHORT $LN1@erase

; 1033 : 			{	// worth doing, copy down over hole
; 1034 : 
; 1035 :  #if _HAS_ITERATOR_DEBUGGING
; 1036 : 			if (_Last < _First || _First._Mycont != this
; 1037 : 				|| _First._Myptr < _Myfirst || _Mylast < _Last._Myptr)
; 1038 : 				_DEBUG_ERROR("vector erase iterator outside range");
; 1039 : 			pointer _Ptr = _STDEXT unchecked_copy(_VEC_ITER_BASE(_Last), _Mylast,
; 1040 : 				_VEC_ITER_BASE(_First));
; 1041 : 			_Orphan_range(_First._Myptr, _Mylast);
; 1042 : 
; 1043 :  #else /* _HAS_ITERATOR_DEBUGGING */
; 1044 : 			pointer _Ptr = _STDEXT unchecked_copy(_VEC_ITER_BASE(_Last), _Mylast,
; 1045 : 				_VEC_ITER_BASE(_First));

	mov	edx, DWORD PTR __First$[ebp+4]
	push	edx
	mov	eax, DWORD PTR _this$[ebp]
	mov	ecx, DWORD PTR [eax+16]
	push	ecx
	mov	edx, DWORD PTR __Last$[ebp+4]
	push	edx
	call	??$unchecked_copy@PAU_devicemodeA@@PAU1@@stdext@@YAPAU_devicemodeA@@PAU1@00@Z ; stdext::unchecked_copy<_devicemodeA *,_devicemodeA *>
	add	esp, 12					; 0000000cH
	mov	DWORD PTR __Ptr$119853[ebp], eax

; 1046 :  #endif /* _HAS_ITERATOR_DEBUGGING */
; 1047 : 
; 1048 : 			_Destroy(_Ptr, _Mylast);

	mov	eax, DWORD PTR _this$[ebp]
	mov	ecx, DWORD PTR [eax+16]
	push	ecx
	mov	edx, DWORD PTR __Ptr$119853[ebp]
	push	edx
	mov	ecx, DWORD PTR _this$[ebp]
	call	?_Destroy@?$vector@U_devicemodeA@@V?$allocator@U_devicemodeA@@@std@@@std@@IAEXPAU_devicemodeA@@0@Z ; std::vector<_devicemodeA,std::allocator<_devicemodeA> >::_Destroy

; 1049 : 			_Mylast = _Ptr;

	mov	eax, DWORD PTR _this$[ebp]
	mov	ecx, DWORD PTR __Ptr$119853[ebp]
	mov	DWORD PTR [eax+16], ecx
$LN1@erase:

; 1050 : 			}
; 1051 : #if _HAS_ITERATOR_DEBUGGING
; 1052 :         return (iterator(_First._Myptr, this));
; 1053 : #else
; 1054 : 		return (_First);

	mov	edx, DWORD PTR ___$ReturnUdt$[ebp]
	mov	eax, DWORD PTR __First$[ebp]
	mov	DWORD PTR [edx], eax
	mov	ecx, DWORD PTR __First$[ebp+4]
	mov	DWORD PTR [edx+4], ecx
	mov	eax, DWORD PTR ___$ReturnUdt$[ebp]

; 1055 : #endif
; 1056 : 		}

	mov	esp, ebp
	pop	ebp
	ret	20					; 00000014H
?erase@?$vector@U_devicemodeA@@V?$allocator@U_devicemodeA@@@std@@@std@@QAE?AV?$_Vector_iterator@U_devicemodeA@@V?$allocator@U_devicemodeA@@@std@@@2@V?$_Vector_const_iterator@U_devicemodeA@@V?$allocator@U_devicemodeA@@@std@@@2@0@Z ENDP ; std::vector<_devicemodeA,std::allocator<_devicemodeA> >::erase
_TEXT	ENDS
PUBLIC	??$unchecked_uninitialized_fill_n@PAU_devicemodeA@@IU1@V?$allocator@U_devicemodeA@@@std@@@stdext@@YAXPAU_devicemodeA@@IABU1@AAV?$allocator@U_devicemodeA@@@std@@@Z ; stdext::unchecked_uninitialized_fill_n<_devicemodeA *,unsigned int,_devicemodeA,std::allocator<_devicemodeA> >
; Function compile flags: /Odtp
;	COMDAT ?_Ufill@?$vector@U_devicemodeA@@V?$allocator@U_devicemodeA@@@std@@@std@@IAEPAU_devicemodeA@@PAU3@IABU3@@Z
_TEXT	SEGMENT
_this$ = -4						; size = 4
__Ptr$ = 8						; size = 4
__Count$ = 12						; size = 4
__Val$ = 16						; size = 4
?_Ufill@?$vector@U_devicemodeA@@V?$allocator@U_devicemodeA@@@std@@@std@@IAEPAU_devicemodeA@@PAU3@IABU3@@Z PROC ; std::vector<_devicemodeA,std::allocator<_devicemodeA> >::_Ufill, COMDAT
; _this$ = ecx

; 1253 : 		{	// copy initializing _Count * _Val, using allocator

	push	ebp
	mov	ebp, esp
	push	ecx
	mov	DWORD PTR _this$[ebp], ecx

; 1254 : 		_STDEXT unchecked_uninitialized_fill_n(_Ptr, _Count, _Val, this->_Alval);

	mov	eax, DWORD PTR _this$[ebp]
	add	eax, 8
	push	eax
	mov	ecx, DWORD PTR __Val$[ebp]
	push	ecx
	mov	edx, DWORD PTR __Count$[ebp]
	push	edx
	mov	eax, DWORD PTR __Ptr$[ebp]
	push	eax
	call	??$unchecked_uninitialized_fill_n@PAU_devicemodeA@@IU1@V?$allocator@U_devicemodeA@@@std@@@stdext@@YAXPAU_devicemodeA@@IABU1@AAV?$allocator@U_devicemodeA@@@std@@@Z ; stdext::unchecked_uninitialized_fill_n<_devicemodeA *,unsigned int,_devicemodeA,std::allocator<_devicemodeA> >
	add	esp, 16					; 00000010H

; 1255 : 		return (_Ptr + _Count);

	mov	eax, DWORD PTR __Count$[ebp]
	imul	eax, 156				; 0000009cH
	add	eax, DWORD PTR __Ptr$[ebp]

; 1256 : 		}

	mov	esp, ebp
	pop	ebp
	ret	12					; 0000000cH
?_Ufill@?$vector@U_devicemodeA@@V?$allocator@U_devicemodeA@@@std@@@std@@IAEPAU_devicemodeA@@PAU3@IABU3@@Z ENDP ; std::vector<_devicemodeA,std::allocator<_devicemodeA> >::_Ufill
_TEXT	ENDS
PUBLIC	??0?$_Vector_const_iterator@U_devicemodeA@@V?$allocator@U_devicemodeA@@@std@@@std@@QAE@PAU_devicemodeA@@PBV_Container_base_aux@1@@Z ; std::_Vector_const_iterator<_devicemodeA,std::allocator<_devicemodeA> >::_Vector_const_iterator<_devicemodeA,std::allocator<_devicemodeA> >
; Function compile flags: /Odtp
;	COMDAT ??0?$_Vector_iterator@U_devicemodeA@@V?$allocator@U_devicemodeA@@@std@@@std@@QAE@PAU_devicemodeA@@PBV_Container_base_aux@1@@Z
_TEXT	SEGMENT
_this$ = -4						; size = 4
__Ptr$ = 8						; size = 4
__Pvector$ = 12						; size = 4
??0?$_Vector_iterator@U_devicemodeA@@V?$allocator@U_devicemodeA@@@std@@@std@@QAE@PAU_devicemodeA@@PBV_Container_base_aux@1@@Z PROC ; std::_Vector_iterator<_devicemodeA,std::allocator<_devicemodeA> >::_Vector_iterator<_devicemodeA,std::allocator<_devicemodeA> >, COMDAT
; _this$ = ecx

; 327  : 		{	// construct with pointer _Ptr

	push	ebp
	mov	ebp, esp
	push	ecx
	mov	DWORD PTR _this$[ebp], ecx
	mov	eax, DWORD PTR __Pvector$[ebp]
	push	eax
	mov	ecx, DWORD PTR __Ptr$[ebp]
	push	ecx
	mov	ecx, DWORD PTR _this$[ebp]
	call	??0?$_Vector_const_iterator@U_devicemodeA@@V?$allocator@U_devicemodeA@@@std@@@std@@QAE@PAU_devicemodeA@@PBV_Container_base_aux@1@@Z ; std::_Vector_const_iterator<_devicemodeA,std::allocator<_devicemodeA> >::_Vector_const_iterator<_devicemodeA,std::allocator<_devicemodeA> >

; 328  : 		}

	mov	eax, DWORD PTR _this$[ebp]
	mov	esp, ebp
	pop	ebp
	ret	8
??0?$_Vector_iterator@U_devicemodeA@@V?$allocator@U_devicemodeA@@@std@@@std@@QAE@PAU_devicemodeA@@PBV_Container_base_aux@1@@Z ENDP ; std::_Vector_iterator<_devicemodeA,std::allocator<_devicemodeA> >::_Vector_iterator<_devicemodeA,std::allocator<_devicemodeA> >
_TEXT	ENDS
PUBLIC	??D?$_Vector_const_iterator@U_devicemodeA@@V?$allocator@U_devicemodeA@@@std@@@std@@QBEABU_devicemodeA@@XZ ; std::_Vector_const_iterator<_devicemodeA,std::allocator<_devicemodeA> >::operator*
; Function compile flags: /Odtp
;	COMDAT ??D?$_Vector_iterator@U_devicemodeA@@V?$allocator@U_devicemodeA@@@std@@@std@@QBEAAU_devicemodeA@@XZ
_TEXT	SEGMENT
_this$ = -4						; size = 4
??D?$_Vector_iterator@U_devicemodeA@@V?$allocator@U_devicemodeA@@@std@@@std@@QBEAAU_devicemodeA@@XZ PROC ; std::_Vector_iterator<_devicemodeA,std::allocator<_devicemodeA> >::operator*, COMDAT
; _this$ = ecx

; 338  : 		{	// return designated object

	push	ebp
	mov	ebp, esp
	push	ecx
	mov	DWORD PTR _this$[ebp], ecx

; 339  : 		return ((reference)**(_Mybase *)this);

	mov	ecx, DWORD PTR _this$[ebp]
	call	??D?$_Vector_const_iterator@U_devicemodeA@@V?$allocator@U_devicemodeA@@@std@@@std@@QBEABU_devicemodeA@@XZ ; std::_Vector_const_iterator<_devicemodeA,std::allocator<_devicemodeA> >::operator*

; 340  : 		}

	mov	esp, ebp
	pop	ebp
	ret	0
??D?$_Vector_iterator@U_devicemodeA@@V?$allocator@U_devicemodeA@@@std@@@std@@QBEAAU_devicemodeA@@XZ ENDP ; std::_Vector_iterator<_devicemodeA,std::allocator<_devicemodeA> >::operator*
_TEXT	ENDS
PUBLIC	?_Getmycont@_Iterator_base_aux@std@@QBEPBV_Container_base_aux@2@XZ ; std::_Iterator_base_aux::_Getmycont
; Function compile flags: /Odtp
;	COMDAT ??F?$_Vector_const_iterator@U_devicemodeA@@V?$allocator@U_devicemodeA@@@std@@@std@@QAEAAV01@XZ
_TEXT	SEGMENT
_this$ = -4						; size = 4
??F?$_Vector_const_iterator@U_devicemodeA@@V?$allocator@U_devicemodeA@@@std@@@std@@QAEAAV01@XZ PROC ; std::_Vector_const_iterator<_devicemodeA,std::allocator<_devicemodeA> >::operator--, COMDAT
; _this$ = ecx

; 137  : 		{	// predecrement

	push	ebp
	mov	ebp, esp
	push	ecx
	mov	DWORD PTR _this$[ebp], ecx

; 138  : 		_SCL_SECURE_VALIDATE(this->_Has_container());

	mov	ecx, DWORD PTR _this$[ebp]
	call	?_Has_container@_Iterator_base_aux@std@@QBE_NXZ ; std::_Iterator_base_aux::_Has_container
	movzx	eax, al
	test	eax, eax
	jne	SHORT $LN2@operator@4
	call	DWORD PTR __imp___invalid_parameter_noinfo
$LN2@operator@4:

; 139  : 		_SCL_SECURE_VALIDATE_RANGE(_Myptr > ((_Myvec *)(this->_Getmycont()))->_Myfirst);

	mov	ecx, DWORD PTR _this$[ebp]
	call	?_Getmycont@_Iterator_base_aux@std@@QBEPBV_Container_base_aux@2@XZ ; std::_Iterator_base_aux::_Getmycont
	mov	ecx, DWORD PTR _this$[ebp]
	mov	edx, DWORD PTR [ecx+4]
	cmp	edx, DWORD PTR [eax+12]
	ja	SHORT $LN1@operator@4
	call	DWORD PTR __imp___invalid_parameter_noinfo
$LN1@operator@4:

; 140  : 
; 141  :  #if _HAS_ITERATOR_DEBUGGING
; 142  : 		if (this->_Mycont == 0
; 143  : 			|| _Myptr == ((_Myvec *)this->_Mycont)->_Myfirst)
; 144  : 			_DEBUG_ERROR("vector iterator not decrementable");
; 145  :  #endif /* _HAS_ITERATOR_DEBUGGING */
; 146  : 
; 147  : 		--_Myptr;

	mov	eax, DWORD PTR _this$[ebp]
	mov	ecx, DWORD PTR [eax+4]
	sub	ecx, 156				; 0000009cH
	mov	edx, DWORD PTR _this$[ebp]
	mov	DWORD PTR [edx+4], ecx

; 148  : 		return (*this);

	mov	eax, DWORD PTR _this$[ebp]

; 149  : 		}

	mov	esp, ebp
	pop	ebp
	ret	0
??F?$_Vector_const_iterator@U_devicemodeA@@V?$allocator@U_devicemodeA@@@std@@@std@@QAEAAV01@XZ ENDP ; std::_Vector_const_iterator<_devicemodeA,std::allocator<_devicemodeA> >::operator--
_TEXT	ENDS
PUBLIC	?_Getcont@_Aux_cont@std@@QBEPBV_Container_base_aux@2@XZ ; std::_Aux_cont::_Getcont
; Function compile flags: /Odtp
; File d:\program files (x86)\microsoft visual studio 9.0\vc\include\xutility
;	COMDAT ?_Getmycont@_Iterator_base_aux@std@@QBEPBV_Container_base_aux@2@XZ
_TEXT	SEGMENT
tv67 = -8						; size = 4
_this$ = -4						; size = 4
?_Getmycont@_Iterator_base_aux@std@@QBEPBV_Container_base_aux@2@XZ PROC ; std::_Iterator_base_aux::_Getmycont, COMDAT
; _this$ = ecx

; 457  : 		{	// Go through the aux object to get the container

	push	ebp
	mov	ebp, esp
	sub	esp, 8
	mov	DWORD PTR _this$[ebp], ecx

; 458  : 		return _Myaux ? _Myaux->_Getcont() : 0;

	mov	eax, DWORD PTR _this$[ebp]
	cmp	DWORD PTR [eax], 0
	je	SHORT $LN3@Getmycont
	mov	ecx, DWORD PTR _this$[ebp]
	mov	ecx, DWORD PTR [ecx]
	call	?_Getcont@_Aux_cont@std@@QBEPBV_Container_base_aux@2@XZ ; std::_Aux_cont::_Getcont
	mov	DWORD PTR tv67[ebp], eax
	jmp	SHORT $LN4@Getmycont
$LN3@Getmycont:
	mov	DWORD PTR tv67[ebp], 0
$LN4@Getmycont:
	mov	eax, DWORD PTR tv67[ebp]

; 459  : 		}

	mov	esp, ebp
	pop	ebp
	ret	0
?_Getmycont@_Iterator_base_aux@std@@QBEPBV_Container_base_aux@2@XZ ENDP ; std::_Iterator_base_aux::_Getmycont
; Function compile flags: /Odtp
_TEXT	ENDS
;	COMDAT ?_Getcont@_Aux_cont@std@@QBEPBV_Container_base_aux@2@XZ
_TEXT	SEGMENT
_this$ = -4						; size = 4
?_Getcont@_Aux_cont@std@@QBEPBV_Container_base_aux@2@XZ PROC ; std::_Aux_cont::_Getcont, COMDAT
; _this$ = ecx

; 368  : 		{

	push	ebp
	mov	ebp, esp
	push	ecx
	mov	DWORD PTR _this$[ebp], ecx

; 369  : 		return _Mycontainer;

	mov	eax, DWORD PTR _this$[ebp]
	mov	eax, DWORD PTR [eax]

; 370  : 		}

	mov	esp, ebp
	pop	ebp
	ret	0
?_Getcont@_Aux_cont@std@@QBEPBV_Container_base_aux@2@XZ ENDP ; std::_Aux_cont::_Getcont
; Function compile flags: /Odtp
; File d:\program files (x86)\microsoft visual studio 9.0\vc\include\vector
_TEXT	ENDS
;	COMDAT ??G?$_Vector_const_iterator@U_devicemodeA@@V?$allocator@U_devicemodeA@@@std@@@std@@QBEHABV01@@Z
_TEXT	SEGMENT
_this$ = -4						; size = 4
__Right$ = 8						; size = 4
??G?$_Vector_const_iterator@U_devicemodeA@@V?$allocator@U_devicemodeA@@@std@@@std@@QBEHABV01@@Z PROC ; std::_Vector_const_iterator<_devicemodeA,std::allocator<_devicemodeA> >::operator-, COMDAT
; _this$ = ecx

; 186  : 		{	// return difference of iterators

	push	ebp
	mov	ebp, esp
	push	ecx
	mov	DWORD PTR _this$[ebp], ecx

; 187  : 
; 188  :  #if _HAS_ITERATOR_DEBUGGING
; 189  : 		_Compat(_Right);
; 190  :  #else
; 191  : 		_SCL_SECURE_VALIDATE(this->_Has_container() && this->_Same_container(_Right));

	mov	ecx, DWORD PTR _this$[ebp]
	call	?_Has_container@_Iterator_base_aux@std@@QBE_NXZ ; std::_Iterator_base_aux::_Has_container
	movzx	eax, al
	test	eax, eax
	je	SHORT $LN1@operator@5
	mov	ecx, DWORD PTR __Right$[ebp]
	push	ecx
	mov	ecx, DWORD PTR _this$[ebp]
	call	?_Same_container@_Iterator_base_aux@std@@QBE_NABV12@@Z ; std::_Iterator_base_aux::_Same_container
	movzx	edx, al
	test	edx, edx
	jne	SHORT $LN2@operator@5
$LN1@operator@5:
	call	DWORD PTR __imp___invalid_parameter_noinfo
$LN2@operator@5:

; 192  :  #endif /* _HAS_ITERATOR_DEBUGGING */
; 193  : 
; 194  : 		return (_Myptr - _Right._Myptr);

	mov	eax, DWORD PTR _this$[ebp]
	mov	ecx, DWORD PTR __Right$[ebp]
	mov	eax, DWORD PTR [eax+4]
	sub	eax, DWORD PTR [ecx+4]
	cdq
	mov	ecx, 156				; 0000009cH
	idiv	ecx

; 195  : 		}

	mov	esp, ebp
	pop	ebp
	ret	4
??G?$_Vector_const_iterator@U_devicemodeA@@V?$allocator@U_devicemodeA@@@std@@@std@@QBEHABV01@@Z ENDP ; std::_Vector_const_iterator<_devicemodeA,std::allocator<_devicemodeA> >::operator-
; Function compile flags: /Odtp
_TEXT	ENDS
;	COMDAT ?_Make_iter@?$vector@U_devicemodeA@@V?$allocator@U_devicemodeA@@@std@@@std@@QBE?AV?$_Vector_iterator@U_devicemodeA@@V?$allocator@U_devicemodeA@@@std@@@2@V?$_Vector_const_iterator@U_devicemodeA@@V?$allocator@U_devicemodeA@@@std@@@2@@Z
_TEXT	SEGMENT
_this$ = -4						; size = 4
___$ReturnUdt$ = 8					; size = 4
__Where$ = 12						; size = 8
?_Make_iter@?$vector@U_devicemodeA@@V?$allocator@U_devicemodeA@@@std@@@std@@QBE?AV?$_Vector_iterator@U_devicemodeA@@V?$allocator@U_devicemodeA@@@std@@@2@V?$_Vector_const_iterator@U_devicemodeA@@V?$allocator@U_devicemodeA@@@std@@@2@@Z PROC ; std::vector<_devicemodeA,std::allocator<_devicemodeA> >::_Make_iter, COMDAT
; _this$ = ecx

; 660  : 		{	// make iterator from const_iterator

	push	ebp
	mov	ebp, esp
	push	ecx
	mov	DWORD PTR _this$[ebp], ecx

; 661  : 		return (iterator(_Where._Myptr, this));

	mov	eax, DWORD PTR _this$[ebp]
	push	eax
	mov	ecx, DWORD PTR __Where$[ebp+4]
	push	ecx
	mov	ecx, DWORD PTR ___$ReturnUdt$[ebp]
	call	??0?$_Vector_iterator@U_devicemodeA@@V?$allocator@U_devicemodeA@@@std@@@std@@QAE@PAU_devicemodeA@@PBV_Container_base_aux@1@@Z ; std::_Vector_iterator<_devicemodeA,std::allocator<_devicemodeA> >::_Vector_iterator<_devicemodeA,std::allocator<_devicemodeA> >
	mov	eax, DWORD PTR ___$ReturnUdt$[ebp]

; 662  : 		}

	mov	esp, ebp
	pop	ebp
	ret	12					; 0000000cH
?_Make_iter@?$vector@U_devicemodeA@@V?$allocator@U_devicemodeA@@@std@@@std@@QBE?AV?$_Vector_iterator@U_devicemodeA@@V?$allocator@U_devicemodeA@@@std@@@2@V?$_Vector_const_iterator@U_devicemodeA@@V?$allocator@U_devicemodeA@@@std@@@2@@Z ENDP ; std::vector<_devicemodeA,std::allocator<_devicemodeA> >::_Make_iter
_TEXT	ENDS
PUBLIC	??$_Destroy_range@V?$allocator@U_devicemodeA@@@std@@@std@@YAXPAU_devicemodeA@@0AAV?$allocator@U_devicemodeA@@@0@@Z ; std::_Destroy_range<std::allocator<_devicemodeA> >
; Function compile flags: /Odtp
;	COMDAT ?_Destroy@?$vector@U_devicemodeA@@V?$allocator@U_devicemodeA@@@std@@@std@@IAEXPAU_devicemodeA@@0@Z
_TEXT	SEGMENT
_this$ = -4						; size = 4
__First$ = 8						; size = 4
__Last$ = 12						; size = 4
?_Destroy@?$vector@U_devicemodeA@@V?$allocator@U_devicemodeA@@@std@@@std@@IAEXPAU_devicemodeA@@0@Z PROC ; std::vector<_devicemodeA,std::allocator<_devicemodeA> >::_Destroy, COMDAT
; _this$ = ecx

; 1118 : 		{	// destroy [_First, _Last) using allocator

	push	ebp
	mov	ebp, esp
	push	ecx
	mov	DWORD PTR _this$[ebp], ecx

; 1119 : 		_Destroy_range(_First, _Last, this->_Alval);

	mov	eax, DWORD PTR _this$[ebp]
	add	eax, 8
	push	eax
	mov	ecx, DWORD PTR __Last$[ebp]
	push	ecx
	mov	edx, DWORD PTR __First$[ebp]
	push	edx
	call	??$_Destroy_range@V?$allocator@U_devicemodeA@@@std@@@std@@YAXPAU_devicemodeA@@0AAV?$allocator@U_devicemodeA@@@0@@Z ; std::_Destroy_range<std::allocator<_devicemodeA> >
	add	esp, 12					; 0000000cH

; 1120 : 		}

	mov	esp, ebp
	pop	ebp
	ret	8
?_Destroy@?$vector@U_devicemodeA@@V?$allocator@U_devicemodeA@@@std@@@std@@IAEXPAU_devicemodeA@@0@Z ENDP ; std::vector<_devicemodeA,std::allocator<_devicemodeA> >::_Destroy
_TEXT	ENDS
PUBLIC	??$_Unchecked_move_backward@PAU_devicemodeA@@PAU1@@stdext@@YAPAU_devicemodeA@@PAU1@00@Z ; stdext::_Unchecked_move_backward<_devicemodeA *,_devicemodeA *>
PUBLIC	??$fill@PAU_devicemodeA@@U1@@std@@YAXPAU_devicemodeA@@0ABU1@@Z ; std::fill<_devicemodeA *,_devicemodeA>
PUBLIC	?deallocate@?$allocator@U_devicemodeA@@@std@@QAEXPAU_devicemodeA@@I@Z ; std::allocator<_devicemodeA>::deallocate
PUBLIC	??$_Umove@PAU_devicemodeA@@@?$vector@U_devicemodeA@@V?$allocator@U_devicemodeA@@@std@@@std@@IAEPAU_devicemodeA@@PAU2@00@Z ; std::vector<_devicemodeA,std::allocator<_devicemodeA> >::_Umove<_devicemodeA *>
PUBLIC	?allocate@?$allocator@U_devicemodeA@@@std@@QAEPAU_devicemodeA@@I@Z ; std::allocator<_devicemodeA>::allocate
PUBLIC	?_Xlen@?$vector@U_devicemodeA@@V?$allocator@U_devicemodeA@@@std@@@std@@KAXXZ ; std::vector<_devicemodeA,std::allocator<_devicemodeA> >::_Xlen
PUBLIC	?max_size@?$vector@U_devicemodeA@@V?$allocator@U_devicemodeA@@@std@@@std@@QBEIXZ ; std::vector<_devicemodeA,std::allocator<_devicemodeA> >::max_size
PUBLIC	__$ArrayPad$
EXTRN	__CxxThrowException@8:PROC
;	COMDAT xdata$x
xdata$x	SEGMENT
__catchsym$?_Insert_n@?$vector@U_devicemodeA@@V?$allocator@U_devicemodeA@@@std@@@std@@IAEXV?$_Vector_const_iterator@U_devicemodeA@@V?$allocator@U_devicemodeA@@@std@@@2@IABU_devicemodeA@@@Z$5 DD 00H
	DD	00H
	DD	00H
	DD	FLAT:__catch$?_Insert_n@?$vector@U_devicemodeA@@V?$allocator@U_devicemodeA@@@std@@@std@@IAEXV?$_Vector_const_iterator@U_devicemodeA@@V?$allocator@U_devicemodeA@@@std@@@2@IABU_devicemodeA@@@Z$2
__catchsym$?_Insert_n@?$vector@U_devicemodeA@@V?$allocator@U_devicemodeA@@@std@@@std@@IAEXV?$_Vector_const_iterator@U_devicemodeA@@V?$allocator@U_devicemodeA@@@std@@@2@IABU_devicemodeA@@@Z$4 DD 00H
	DD	00H
	DD	00H
	DD	FLAT:__catch$?_Insert_n@?$vector@U_devicemodeA@@V?$allocator@U_devicemodeA@@@std@@@std@@IAEXV?$_Vector_const_iterator@U_devicemodeA@@V?$allocator@U_devicemodeA@@@std@@@2@IABU_devicemodeA@@@Z$0
__unwindtable$?_Insert_n@?$vector@U_devicemodeA@@V?$allocator@U_devicemodeA@@@std@@@std@@IAEXV?$_Vector_const_iterator@U_devicemodeA@@V?$allocator@U_devicemodeA@@@std@@@2@IABU_devicemodeA@@@Z DD 0ffffffffH
	DD	00H
	DD	0ffffffffH
	DD	00H
	DD	0ffffffffH
	DD	00H
	DD	0ffffffffH
	DD	00H
__ehfuncinfo$?_Insert_n@?$vector@U_devicemodeA@@V?$allocator@U_devicemodeA@@@std@@@std@@IAEXV?$_Vector_const_iterator@U_devicemodeA@@V?$allocator@U_devicemodeA@@@std@@@2@IABU_devicemodeA@@@Z DD 019930522H
	DD	04H
	DD	FLAT:__unwindtable$?_Insert_n@?$vector@U_devicemodeA@@V?$allocator@U_devicemodeA@@@std@@@std@@IAEXV?$_Vector_const_iterator@U_devicemodeA@@V?$allocator@U_devicemodeA@@@std@@@2@IABU_devicemodeA@@@Z
	DD	02H
	DD	FLAT:__tryblocktable$?_Insert_n@?$vector@U_devicemodeA@@V?$allocator@U_devicemodeA@@@std@@@std@@IAEXV?$_Vector_const_iterator@U_devicemodeA@@V?$allocator@U_devicemodeA@@@std@@@2@IABU_devicemodeA@@@Z
	DD	2 DUP(00H)
	DD	00H
	DD	00H
__tryblocktable$?_Insert_n@?$vector@U_devicemodeA@@V?$allocator@U_devicemodeA@@@std@@@std@@IAEXV?$_Vector_const_iterator@U_devicemodeA@@V?$allocator@U_devicemodeA@@@std@@@2@IABU_devicemodeA@@@Z DD 00H
	DD	00H
	DD	01H
	DD	01H
	DD	FLAT:__catchsym$?_Insert_n@?$vector@U_devicemodeA@@V?$allocator@U_devicemodeA@@@std@@@std@@IAEXV?$_Vector_const_iterator@U_devicemodeA@@V?$allocator@U_devicemodeA@@@std@@@2@IABU_devicemodeA@@@Z$4
	DD	02H
	DD	02H
	DD	03H
	DD	01H
	DD	FLAT:__catchsym$?_Insert_n@?$vector@U_devicemodeA@@V?$allocator@U_devicemodeA@@@std@@@std@@IAEXV?$_Vector_const_iterator@U_devicemodeA@@V?$allocator@U_devicemodeA@@@std@@@2@IABU_devicemodeA@@@Z$5
; Function compile flags: /Odtp
xdata$x	ENDS
;	COMDAT ?_Insert_n@?$vector@U_devicemodeA@@V?$allocator@U_devicemodeA@@@std@@@std@@IAEXV?$_Vector_const_iterator@U_devicemodeA@@V?$allocator@U_devicemodeA@@@std@@@2@IABU_devicemodeA@@@Z
_TEXT	SEGMENT
tv84 = -376						; size = 4
_this$ = -372						; size = 4
__Tmp$120153 = -368					; size = 156
__Oldend$120154 = -204					; size = 4
__Tmp$120143 = -200					; size = 156
__$ArrayPad$ = -36					; size = 4
__Ncopied$120130 = -32					; size = 4
__Newvec$120128 = -28					; size = 4
__Whereoff$120129 = -24					; size = 4
__Capacity$ = -20					; size = 4
__$EHRec$ = -16						; size = 16
__Where$ = 8						; size = 8
__Count$ = 16						; size = 4
__Val$ = 20						; size = 4
?_Insert_n@?$vector@U_devicemodeA@@V?$allocator@U_devicemodeA@@@std@@@std@@IAEXV?$_Vector_const_iterator@U_devicemodeA@@V?$allocator@U_devicemodeA@@@std@@@2@IABU_devicemodeA@@@Z PROC ; std::vector<_devicemodeA,std::allocator<_devicemodeA> >::_Insert_n, COMDAT
; _this$ = ecx

; 1153 : 		{	// insert _Count * _Val at _Where

	push	ebp
	mov	ebp, esp
	push	-1
	push	__ehhandler$?_Insert_n@?$vector@U_devicemodeA@@V?$allocator@U_devicemodeA@@@std@@@std@@IAEXV?$_Vector_const_iterator@U_devicemodeA@@V?$allocator@U_devicemodeA@@@std@@@2@IABU_devicemodeA@@@Z
	mov	eax, DWORD PTR fs:0
	push	eax
	push	ecx
	sub	esp, 360				; 00000168H
	mov	eax, DWORD PTR ___security_cookie
	xor	eax, ebp
	mov	DWORD PTR __$ArrayPad$[ebp], eax
	push	ebx
	push	esi
	push	edi
	push	eax
	lea	eax, DWORD PTR __$EHRec$[ebp+4]
	mov	DWORD PTR fs:0, eax
	mov	DWORD PTR __$EHRec$[ebp], esp
	mov	DWORD PTR _this$[ebp], ecx

; 1154 : 
; 1155 :  #if _HAS_ITERATOR_DEBUGGING
; 1156 : 		if (_Where._Mycont != this
; 1157 : 			|| _Where._Myptr < _Myfirst || _Mylast < _Where._Myptr)
; 1158 : 			_DEBUG_ERROR("vector insert iterator outside range");
; 1159 :  #endif /* _HAS_ITERATOR_DEBUGGING */
; 1160 : 
; 1161 : 		size_type _Capacity = capacity();

	mov	ecx, DWORD PTR _this$[ebp]
	call	?capacity@?$vector@U_devicemodeA@@V?$allocator@U_devicemodeA@@@std@@@std@@QBEIXZ ; std::vector<_devicemodeA,std::allocator<_devicemodeA> >::capacity
	mov	DWORD PTR __Capacity$[ebp], eax

; 1162 : 
; 1163 : 		if (_Count == 0)

	cmp	DWORD PTR __Count$[ebp], 0
	jne	SHORT $LN14@Insert_n
	jmp	$LN16@Insert_n
$LN14@Insert_n:

; 1164 : 			;
; 1165 : 		else if (max_size() - size() < _Count)

	mov	ecx, DWORD PTR _this$[ebp]
	call	?max_size@?$vector@U_devicemodeA@@V?$allocator@U_devicemodeA@@@std@@@std@@QBEIXZ ; std::vector<_devicemodeA,std::allocator<_devicemodeA> >::max_size
	mov	esi, eax
	mov	ecx, DWORD PTR _this$[ebp]
	call	?size@?$vector@U_devicemodeA@@V?$allocator@U_devicemodeA@@@std@@@std@@QBEIXZ ; std::vector<_devicemodeA,std::allocator<_devicemodeA> >::size
	sub	esi, eax
	cmp	esi, DWORD PTR __Count$[ebp]
	jae	SHORT $LN12@Insert_n

; 1166 : 			_Xlen();	// result too long

	call	?_Xlen@?$vector@U_devicemodeA@@V?$allocator@U_devicemodeA@@@std@@@std@@KAXXZ ; std::vector<_devicemodeA,std::allocator<_devicemodeA> >::_Xlen
	jmp	$LN16@Insert_n
$LN12@Insert_n:

; 1167 : 		else if (_Capacity < size() + _Count)

	mov	ecx, DWORD PTR _this$[ebp]
	call	?size@?$vector@U_devicemodeA@@V?$allocator@U_devicemodeA@@@std@@@std@@QBEIXZ ; std::vector<_devicemodeA,std::allocator<_devicemodeA> >::size
	add	eax, DWORD PTR __Count$[ebp]
	cmp	DWORD PTR __Capacity$[ebp], eax
	jae	$LN10@Insert_n

; 1168 : 			{	// not enough room, reallocate
; 1169 : 			_Capacity = max_size() - _Capacity / 2 < _Capacity
; 1170 : 				? 0 : _Capacity + _Capacity / 2;	// try to grow by 50%

	mov	ecx, DWORD PTR _this$[ebp]
	call	?max_size@?$vector@U_devicemodeA@@V?$allocator@U_devicemodeA@@@std@@@std@@QBEIXZ ; std::vector<_devicemodeA,std::allocator<_devicemodeA> >::max_size
	mov	ecx, DWORD PTR __Capacity$[ebp]
	shr	ecx, 1
	sub	eax, ecx
	cmp	eax, DWORD PTR __Capacity$[ebp]
	jae	SHORT $LN17@Insert_n
	mov	DWORD PTR tv84[ebp], 0
	jmp	SHORT $LN18@Insert_n
$LN17@Insert_n:
	mov	edx, DWORD PTR __Capacity$[ebp]
	shr	edx, 1
	add	edx, DWORD PTR __Capacity$[ebp]
	mov	DWORD PTR tv84[ebp], edx
$LN18@Insert_n:
	mov	eax, DWORD PTR tv84[ebp]
	mov	DWORD PTR __Capacity$[ebp], eax

; 1171 : 			if (_Capacity < size() + _Count)

	mov	ecx, DWORD PTR _this$[ebp]
	call	?size@?$vector@U_devicemodeA@@V?$allocator@U_devicemodeA@@@std@@@std@@QBEIXZ ; std::vector<_devicemodeA,std::allocator<_devicemodeA> >::size
	add	eax, DWORD PTR __Count$[ebp]
	cmp	DWORD PTR __Capacity$[ebp], eax
	jae	SHORT $LN9@Insert_n

; 1172 : 				_Capacity = size() + _Count;

	mov	ecx, DWORD PTR _this$[ebp]
	call	?size@?$vector@U_devicemodeA@@V?$allocator@U_devicemodeA@@@std@@@std@@QBEIXZ ; std::vector<_devicemodeA,std::allocator<_devicemodeA> >::size
	add	eax, DWORD PTR __Count$[ebp]
	mov	DWORD PTR __Capacity$[ebp], eax
$LN9@Insert_n:

; 1173 : 			pointer _Newvec = this->_Alval.allocate(_Capacity);

	mov	ecx, DWORD PTR __Capacity$[ebp]
	push	ecx
	mov	ecx, DWORD PTR _this$[ebp]
	add	ecx, 8
	call	?allocate@?$allocator@U_devicemodeA@@@std@@QAEPAU_devicemodeA@@I@Z ; std::allocator<_devicemodeA>::allocate
	mov	DWORD PTR __Newvec$120128[ebp], eax

; 1174 : 			size_type _Whereoff = _VEC_ITER_BASE(_Where) - _Myfirst;

	mov	edx, DWORD PTR _this$[ebp]
	mov	eax, DWORD PTR __Where$[ebp+4]
	sub	eax, DWORD PTR [edx+12]
	cdq
	mov	ecx, 156				; 0000009cH
	idiv	ecx
	mov	DWORD PTR __Whereoff$120129[ebp], eax

; 1175 : 			int _Ncopied = 0;

	mov	DWORD PTR __Ncopied$120130[ebp], 0

; 1176 : 
; 1177 : 			_TRY_BEGIN

	mov	DWORD PTR __$EHRec$[ebp+12], 0

; 1178 : 			_Ufill(_Newvec + _Whereoff, _Count, _Val);	// add new stuff

	mov	edx, DWORD PTR __Val$[ebp]
	push	edx
	mov	eax, DWORD PTR __Count$[ebp]
	push	eax
	mov	ecx, DWORD PTR __Whereoff$120129[ebp]
	imul	ecx, 156				; 0000009cH
	add	ecx, DWORD PTR __Newvec$120128[ebp]
	push	ecx
	mov	ecx, DWORD PTR _this$[ebp]
	call	?_Ufill@?$vector@U_devicemodeA@@V?$allocator@U_devicemodeA@@@std@@@std@@IAEPAU_devicemodeA@@PAU3@IABU3@@Z ; std::vector<_devicemodeA,std::allocator<_devicemodeA> >::_Ufill

; 1179 : 			++_Ncopied;

	mov	edx, DWORD PTR __Ncopied$120130[ebp]
	add	edx, 1
	mov	DWORD PTR __Ncopied$120130[ebp], edx

; 1180 : 			_Umove(this->_Myfirst, _VEC_ITER_BASE(_Where),
; 1181 : 				_Newvec);	// move prefix

	mov	eax, DWORD PTR __Newvec$120128[ebp]
	push	eax
	mov	ecx, DWORD PTR __Where$[ebp+4]
	push	ecx
	mov	edx, DWORD PTR _this$[ebp]
	mov	eax, DWORD PTR [edx+12]
	push	eax
	mov	ecx, DWORD PTR _this$[ebp]
	call	??$_Umove@PAU_devicemodeA@@@?$vector@U_devicemodeA@@V?$allocator@U_devicemodeA@@@std@@@std@@IAEPAU_devicemodeA@@PAU2@00@Z ; std::vector<_devicemodeA,std::allocator<_devicemodeA> >::_Umove<_devicemodeA *>

; 1182 : 			++_Ncopied;

	mov	ecx, DWORD PTR __Ncopied$120130[ebp]
	add	ecx, 1
	mov	DWORD PTR __Ncopied$120130[ebp], ecx

; 1183 : 			_Umove(_VEC_ITER_BASE(_Where), this->_Mylast,
; 1184 : 				_Newvec + (_Whereoff + _Count));	// move suffix

	mov	edx, DWORD PTR __Whereoff$120129[ebp]
	add	edx, DWORD PTR __Count$[ebp]
	imul	edx, 156				; 0000009cH
	add	edx, DWORD PTR __Newvec$120128[ebp]
	push	edx
	mov	eax, DWORD PTR _this$[ebp]
	mov	ecx, DWORD PTR [eax+16]
	push	ecx
	mov	edx, DWORD PTR __Where$[ebp+4]
	push	edx
	mov	ecx, DWORD PTR _this$[ebp]
	call	??$_Umove@PAU_devicemodeA@@@?$vector@U_devicemodeA@@V?$allocator@U_devicemodeA@@@std@@@std@@IAEPAU_devicemodeA@@PAU2@00@Z ; std::vector<_devicemodeA,std::allocator<_devicemodeA> >::_Umove<_devicemodeA *>
	jmp	$LN19@Insert_n
__catch$?_Insert_n@?$vector@U_devicemodeA@@V?$allocator@U_devicemodeA@@@std@@@std@@IAEXV?$_Vector_const_iterator@U_devicemodeA@@V?$allocator@U_devicemodeA@@@std@@@2@IABU_devicemodeA@@@Z$0:

; 1185 : 			_CATCH_ALL
; 1186 : 			if (1 < _Ncopied)

	cmp	DWORD PTR __Ncopied$120130[ebp], 1
	jle	SHORT $LN7@Insert_n

; 1187 : 				_Destroy(_Newvec, _Newvec + _Whereoff);

	mov	eax, DWORD PTR __Whereoff$120129[ebp]
	imul	eax, 156				; 0000009cH
	add	eax, DWORD PTR __Newvec$120128[ebp]
	push	eax
	mov	ecx, DWORD PTR __Newvec$120128[ebp]
	push	ecx
	mov	ecx, DWORD PTR _this$[ebp]
	call	?_Destroy@?$vector@U_devicemodeA@@V?$allocator@U_devicemodeA@@@std@@@std@@IAEXPAU_devicemodeA@@0@Z ; std::vector<_devicemodeA,std::allocator<_devicemodeA> >::_Destroy
$LN7@Insert_n:

; 1188 : 			if (0 < _Ncopied)

	cmp	DWORD PTR __Ncopied$120130[ebp], 0
	jle	SHORT $LN6@Insert_n

; 1189 : 				_Destroy(_Newvec + _Whereoff, _Newvec + _Whereoff + _Count);

	mov	edx, DWORD PTR __Whereoff$120129[ebp]
	imul	edx, 156				; 0000009cH
	add	edx, DWORD PTR __Newvec$120128[ebp]
	mov	eax, DWORD PTR __Count$[ebp]
	imul	eax, 156				; 0000009cH
	add	edx, eax
	push	edx
	mov	ecx, DWORD PTR __Whereoff$120129[ebp]
	imul	ecx, 156				; 0000009cH
	add	ecx, DWORD PTR __Newvec$120128[ebp]
	push	ecx
	mov	ecx, DWORD PTR _this$[ebp]
	call	?_Destroy@?$vector@U_devicemodeA@@V?$allocator@U_devicemodeA@@@std@@@std@@IAEXPAU_devicemodeA@@0@Z ; std::vector<_devicemodeA,std::allocator<_devicemodeA> >::_Destroy
$LN6@Insert_n:

; 1190 : 			this->_Alval.deallocate(_Newvec, _Capacity);

	mov	edx, DWORD PTR __Capacity$[ebp]
	push	edx
	mov	eax, DWORD PTR __Newvec$120128[ebp]
	push	eax
	mov	ecx, DWORD PTR _this$[ebp]
	add	ecx, 8
	call	?deallocate@?$allocator@U_devicemodeA@@@std@@QAEXPAU_devicemodeA@@I@Z ; std::allocator<_devicemodeA>::deallocate

; 1191 : 			_RERAISE;

	push	0
	push	0
	call	__CxxThrowException@8

; 1192 : 			_CATCH_END

	mov	DWORD PTR __$EHRec$[ebp+12], -1
	mov	eax, __tryend$?_Insert_n@?$vector@U_devicemodeA@@V?$allocator@U_devicemodeA@@@std@@@std@@IAEXV?$_Vector_const_iterator@U_devicemodeA@@V?$allocator@U_devicemodeA@@@std@@@2@IABU_devicemodeA@@@Z$1
	ret	0
$LN19@Insert_n:
	mov	DWORD PTR __$EHRec$[ebp+12], -1
__tryend$?_Insert_n@?$vector@U_devicemodeA@@V?$allocator@U_devicemodeA@@@std@@@std@@IAEXV?$_Vector_const_iterator@U_devicemodeA@@V?$allocator@U_devicemodeA@@@std@@@2@IABU_devicemodeA@@@Z$1:

; 1193 : 
; 1194 : 			_Count += size();

	mov	ecx, DWORD PTR _this$[ebp]
	call	?size@?$vector@U_devicemodeA@@V?$allocator@U_devicemodeA@@@std@@@std@@QBEIXZ ; std::vector<_devicemodeA,std::allocator<_devicemodeA> >::size
	add	eax, DWORD PTR __Count$[ebp]
	mov	DWORD PTR __Count$[ebp], eax

; 1195 : 			if (_Myfirst != 0)

	mov	ecx, DWORD PTR _this$[ebp]
	cmp	DWORD PTR [ecx+12], 0
	je	SHORT $LN5@Insert_n

; 1196 : 				{	// destroy and deallocate old array
; 1197 : 				_Destroy(_Myfirst, _Mylast);

	mov	edx, DWORD PTR _this$[ebp]
	mov	eax, DWORD PTR [edx+16]
	push	eax
	mov	ecx, DWORD PTR _this$[ebp]
	mov	edx, DWORD PTR [ecx+12]
	push	edx
	mov	ecx, DWORD PTR _this$[ebp]
	call	?_Destroy@?$vector@U_devicemodeA@@V?$allocator@U_devicemodeA@@@std@@@std@@IAEXPAU_devicemodeA@@0@Z ; std::vector<_devicemodeA,std::allocator<_devicemodeA> >::_Destroy

; 1198 : 				this->_Alval.deallocate(_Myfirst, _Myend - _Myfirst);

	mov	eax, DWORD PTR _this$[ebp]
	mov	ecx, DWORD PTR _this$[ebp]
	mov	eax, DWORD PTR [eax+20]
	sub	eax, DWORD PTR [ecx+12]
	cdq
	mov	ecx, 156				; 0000009cH
	idiv	ecx
	push	eax
	mov	edx, DWORD PTR _this$[ebp]
	mov	eax, DWORD PTR [edx+12]
	push	eax
	mov	ecx, DWORD PTR _this$[ebp]
	add	ecx, 8
	call	?deallocate@?$allocator@U_devicemodeA@@@std@@QAEXPAU_devicemodeA@@I@Z ; std::allocator<_devicemodeA>::deallocate
$LN5@Insert_n:

; 1199 : 				}
; 1200 : 
; 1201 :  #if _HAS_ITERATOR_DEBUGGING
; 1202 : 			this->_Orphan_all();
; 1203 :  #endif /* _HAS_ITERATOR_DEBUGGING */
; 1204 : 
; 1205 : 			_Myend = _Newvec + _Capacity;

	mov	ecx, DWORD PTR __Capacity$[ebp]
	imul	ecx, 156				; 0000009cH
	add	ecx, DWORD PTR __Newvec$120128[ebp]
	mov	edx, DWORD PTR _this$[ebp]
	mov	DWORD PTR [edx+20], ecx

; 1206 : 			_Mylast = _Newvec + _Count;

	mov	eax, DWORD PTR __Count$[ebp]
	imul	eax, 156				; 0000009cH
	add	eax, DWORD PTR __Newvec$120128[ebp]
	mov	ecx, DWORD PTR _this$[ebp]
	mov	DWORD PTR [ecx+16], eax

; 1207 : 			_Myfirst = _Newvec;

	mov	edx, DWORD PTR _this$[ebp]
	mov	eax, DWORD PTR __Newvec$120128[ebp]
	mov	DWORD PTR [edx+12], eax
	jmp	$LN16@Insert_n
$LN10@Insert_n:

; 1208 : 			}
; 1209 : 		else if ((size_type)(_Mylast - _VEC_ITER_BASE(_Where)) < _Count)

	mov	ecx, DWORD PTR _this$[ebp]
	mov	eax, DWORD PTR [ecx+16]
	sub	eax, DWORD PTR __Where$[ebp+4]
	cdq
	mov	ecx, 156				; 0000009cH
	idiv	ecx
	cmp	eax, DWORD PTR __Count$[ebp]
	jae	$LN3@Insert_n

; 1210 : 			{	// new stuff spills off end
; 1211 : 			_Ty _Tmp = _Val;	// in case _Val is in sequence

	mov	esi, DWORD PTR __Val$[ebp]
	mov	ecx, 39					; 00000027H
	lea	edi, DWORD PTR __Tmp$120143[ebp]
	rep movsd

; 1212 : 
; 1213 : 			_Umove(_VEC_ITER_BASE(_Where), _Mylast,
; 1214 : 				_VEC_ITER_BASE(_Where) + _Count);	// copy suffix

	mov	edx, DWORD PTR __Count$[ebp]
	imul	edx, 156				; 0000009cH
	add	edx, DWORD PTR __Where$[ebp+4]
	push	edx
	mov	eax, DWORD PTR _this$[ebp]
	mov	ecx, DWORD PTR [eax+16]
	push	ecx
	mov	edx, DWORD PTR __Where$[ebp+4]
	push	edx
	mov	ecx, DWORD PTR _this$[ebp]
	call	??$_Umove@PAU_devicemodeA@@@?$vector@U_devicemodeA@@V?$allocator@U_devicemodeA@@@std@@@std@@IAEPAU_devicemodeA@@PAU2@00@Z ; std::vector<_devicemodeA,std::allocator<_devicemodeA> >::_Umove<_devicemodeA *>

; 1215 : 
; 1216 : 			_TRY_BEGIN

	mov	DWORD PTR __$EHRec$[ebp+12], 2

; 1217 : 			_Ufill(_Mylast, _Count - (_Mylast - _VEC_ITER_BASE(_Where)),
; 1218 : 				_Tmp);	// insert new stuff off end

	lea	eax, DWORD PTR __Tmp$120143[ebp]
	push	eax
	mov	ecx, DWORD PTR _this$[ebp]
	mov	eax, DWORD PTR [ecx+16]
	sub	eax, DWORD PTR __Where$[ebp+4]
	cdq
	mov	ecx, 156				; 0000009cH
	idiv	ecx
	mov	edx, DWORD PTR __Count$[ebp]
	sub	edx, eax
	push	edx
	mov	eax, DWORD PTR _this$[ebp]
	mov	ecx, DWORD PTR [eax+16]
	push	ecx
	mov	ecx, DWORD PTR _this$[ebp]
	call	?_Ufill@?$vector@U_devicemodeA@@V?$allocator@U_devicemodeA@@@std@@@std@@IAEPAU_devicemodeA@@PAU3@IABU3@@Z ; std::vector<_devicemodeA,std::allocator<_devicemodeA> >::_Ufill
	jmp	SHORT $LN21@Insert_n
__catch$?_Insert_n@?$vector@U_devicemodeA@@V?$allocator@U_devicemodeA@@@std@@@std@@IAEXV?$_Vector_const_iterator@U_devicemodeA@@V?$allocator@U_devicemodeA@@@std@@@2@IABU_devicemodeA@@@Z$2:

; 1219 : 			_CATCH_ALL
; 1220 : 			_Destroy(_VEC_ITER_BASE(_Where) + _Count, _Mylast + _Count);

	mov	edx, DWORD PTR __Count$[ebp]
	imul	edx, 156				; 0000009cH
	mov	eax, DWORD PTR _this$[ebp]
	add	edx, DWORD PTR [eax+16]
	push	edx
	mov	ecx, DWORD PTR __Count$[ebp]
	imul	ecx, 156				; 0000009cH
	add	ecx, DWORD PTR __Where$[ebp+4]
	push	ecx
	mov	ecx, DWORD PTR _this$[ebp]
	call	?_Destroy@?$vector@U_devicemodeA@@V?$allocator@U_devicemodeA@@@std@@@std@@IAEXPAU_devicemodeA@@0@Z ; std::vector<_devicemodeA,std::allocator<_devicemodeA> >::_Destroy

; 1221 : 			_RERAISE;

	push	0
	push	0
	call	__CxxThrowException@8

; 1222 : 			_CATCH_END

	mov	DWORD PTR __$EHRec$[ebp+12], -1
	mov	eax, __tryend$?_Insert_n@?$vector@U_devicemodeA@@V?$allocator@U_devicemodeA@@@std@@@std@@IAEXV?$_Vector_const_iterator@U_devicemodeA@@V?$allocator@U_devicemodeA@@@std@@@2@IABU_devicemodeA@@@Z$3
	ret	0
$LN21@Insert_n:
	mov	DWORD PTR __$EHRec$[ebp+12], -1
__tryend$?_Insert_n@?$vector@U_devicemodeA@@V?$allocator@U_devicemodeA@@@std@@@std@@IAEXV?$_Vector_const_iterator@U_devicemodeA@@V?$allocator@U_devicemodeA@@@std@@@2@IABU_devicemodeA@@@Z$3:

; 1223 : 
; 1224 : 			_Mylast += _Count;

	mov	edx, DWORD PTR __Count$[ebp]
	imul	edx, 156				; 0000009cH
	mov	eax, DWORD PTR _this$[ebp]
	add	edx, DWORD PTR [eax+16]
	mov	ecx, DWORD PTR _this$[ebp]
	mov	DWORD PTR [ecx+16], edx

; 1225 : 
; 1226 :  #if _HAS_ITERATOR_DEBUGGING
; 1227 : 			_Orphan_range(_Where._Myptr, _Mylast);
; 1228 :  #endif /* _HAS_ITERATOR_DEBUGGING */
; 1229 : 
; 1230 : 			std::fill(_VEC_ITER_BASE(_Where), _Mylast - _Count,
; 1231 : 				_Tmp);	// insert up to old end

	lea	edx, DWORD PTR __Tmp$120143[ebp]
	push	edx
	mov	eax, DWORD PTR __Count$[ebp]
	imul	eax, 156				; 0000009cH
	mov	ecx, DWORD PTR _this$[ebp]
	mov	edx, DWORD PTR [ecx+16]
	sub	edx, eax
	push	edx
	mov	eax, DWORD PTR __Where$[ebp+4]
	push	eax
	call	??$fill@PAU_devicemodeA@@U1@@std@@YAXPAU_devicemodeA@@0ABU1@@Z ; std::fill<_devicemodeA *,_devicemodeA>
	add	esp, 12					; 0000000cH

; 1232 : 			}
; 1233 : 		else

	jmp	$LN16@Insert_n
$LN3@Insert_n:

; 1234 : 			{	// new stuff can all be assigned
; 1235 : 			_Ty _Tmp = _Val;	// in case _Val is in sequence

	mov	esi, DWORD PTR __Val$[ebp]
	mov	ecx, 39					; 00000027H
	lea	edi, DWORD PTR __Tmp$120153[ebp]
	rep movsd

; 1236 : 
; 1237 : 			pointer _Oldend = _Mylast;

	mov	ecx, DWORD PTR _this$[ebp]
	mov	edx, DWORD PTR [ecx+16]
	mov	DWORD PTR __Oldend$120154[ebp], edx

; 1238 : 			_Mylast = _Umove(_Oldend - _Count, _Oldend,
; 1239 : 				_Mylast);	// copy suffix

	mov	eax, DWORD PTR _this$[ebp]
	mov	ecx, DWORD PTR [eax+16]
	push	ecx
	mov	edx, DWORD PTR __Oldend$120154[ebp]
	push	edx
	mov	eax, DWORD PTR __Count$[ebp]
	imul	eax, 156				; 0000009cH
	mov	ecx, DWORD PTR __Oldend$120154[ebp]
	sub	ecx, eax
	push	ecx
	mov	ecx, DWORD PTR _this$[ebp]
	call	??$_Umove@PAU_devicemodeA@@@?$vector@U_devicemodeA@@V?$allocator@U_devicemodeA@@@std@@@std@@IAEPAU_devicemodeA@@PAU2@00@Z ; std::vector<_devicemodeA,std::allocator<_devicemodeA> >::_Umove<_devicemodeA *>
	mov	edx, DWORD PTR _this$[ebp]
	mov	DWORD PTR [edx+16], eax

; 1240 : 
; 1241 :  #if _HAS_ITERATOR_DEBUGGING
; 1242 : 			_Orphan_range(_Where._Myptr, _Mylast);
; 1243 :  #endif /* _HAS_ITERATOR_DEBUGGING */
; 1244 : 
; 1245 : 			_STDEXT _Unchecked_move_backward(_VEC_ITER_BASE(_Where), _Oldend - _Count,
; 1246 : 				_Oldend);	// copy hole

	mov	eax, DWORD PTR __Oldend$120154[ebp]
	push	eax
	mov	ecx, DWORD PTR __Count$[ebp]
	imul	ecx, 156				; 0000009cH
	mov	edx, DWORD PTR __Oldend$120154[ebp]
	sub	edx, ecx
	push	edx
	mov	eax, DWORD PTR __Where$[ebp+4]
	push	eax
	call	??$_Unchecked_move_backward@PAU_devicemodeA@@PAU1@@stdext@@YAPAU_devicemodeA@@PAU1@00@Z ; stdext::_Unchecked_move_backward<_devicemodeA *,_devicemodeA *>
	add	esp, 12					; 0000000cH

; 1247 : 			std::fill(_VEC_ITER_BASE(_Where), _VEC_ITER_BASE(_Where) + _Count,
; 1248 : 				_Tmp);	// insert into hole

	lea	ecx, DWORD PTR __Tmp$120153[ebp]
	push	ecx
	mov	edx, DWORD PTR __Count$[ebp]
	imul	edx, 156				; 0000009cH
	add	edx, DWORD PTR __Where$[ebp+4]
	push	edx
	mov	eax, DWORD PTR __Where$[ebp+4]
	push	eax
	call	??$fill@PAU_devicemodeA@@U1@@std@@YAXPAU_devicemodeA@@0ABU1@@Z ; std::fill<_devicemodeA *,_devicemodeA>
	add	esp, 12					; 0000000cH
$LN16@Insert_n:

; 1249 : 			}
; 1250 : 		}

	mov	ecx, DWORD PTR __$EHRec$[ebp+4]
	mov	DWORD PTR fs:0, ecx
	pop	ecx
	pop	edi
	pop	esi
	pop	ebx
	mov	ecx, DWORD PTR __$ArrayPad$[ebp]
	xor	ecx, ebp
	call	@__security_check_cookie@4
	mov	esp, ebp
	pop	ebp
	ret	16					; 00000010H
_TEXT	ENDS
;	COMDAT text$x
text$x	SEGMENT
__ehhandler$?_Insert_n@?$vector@U_devicemodeA@@V?$allocator@U_devicemodeA@@@std@@@std@@IAEXV?$_Vector_const_iterator@U_devicemodeA@@V?$allocator@U_devicemodeA@@@std@@@2@IABU_devicemodeA@@@Z:
	mov	edx, DWORD PTR [esp+8]
	lea	eax, DWORD PTR [edx+12]
	mov	ecx, DWORD PTR [edx-380]
	xor	ecx, eax
	call	@__security_check_cookie@4
	mov	ecx, DWORD PTR [edx-24]
	xor	ecx, eax
	call	@__security_check_cookie@4
	mov	eax, OFFSET __ehfuncinfo$?_Insert_n@?$vector@U_devicemodeA@@V?$allocator@U_devicemodeA@@@std@@@std@@IAEXV?$_Vector_const_iterator@U_devicemodeA@@V?$allocator@U_devicemodeA@@@std@@@2@IABU_devicemodeA@@@Z
	jmp	___CxxFrameHandler3
text$x	ENDS
?_Insert_n@?$vector@U_devicemodeA@@V?$allocator@U_devicemodeA@@@std@@@std@@IAEXV?$_Vector_const_iterator@U_devicemodeA@@V?$allocator@U_devicemodeA@@@std@@@2@IABU_devicemodeA@@@Z ENDP ; std::vector<_devicemodeA,std::allocator<_devicemodeA> >::_Insert_n
PUBLIC	?max_size@?$allocator@U_devicemodeA@@@std@@QBEIXZ ; std::allocator<_devicemodeA>::max_size
; Function compile flags: /Odtp
;	COMDAT ?max_size@?$vector@U_devicemodeA@@V?$allocator@U_devicemodeA@@@std@@@std@@QBEIXZ
_TEXT	SEGMENT
_this$ = -4						; size = 4
?max_size@?$vector@U_devicemodeA@@V?$allocator@U_devicemodeA@@@std@@@std@@QBEIXZ PROC ; std::vector<_devicemodeA,std::allocator<_devicemodeA> >::max_size, COMDAT
; _this$ = ecx

; 730  : 		{	// return maximum possible length of sequence

	push	ebp
	mov	ebp, esp
	push	ecx
	mov	DWORD PTR _this$[ebp], ecx

; 731  : 		return (this->_Alval.max_size());

	mov	ecx, DWORD PTR _this$[ebp]
	add	ecx, 8
	call	?max_size@?$allocator@U_devicemodeA@@@std@@QBEIXZ ; std::allocator<_devicemodeA>::max_size

; 732  : 		}

	mov	esp, ebp
	pop	ebp
	ret	0
?max_size@?$vector@U_devicemodeA@@V?$allocator@U_devicemodeA@@@std@@@std@@QBEIXZ ENDP ; std::vector<_devicemodeA,std::allocator<_devicemodeA> >::max_size
_TEXT	ENDS
PUBLIC	__TI3?AVlength_error@std@@
PUBLIC	??0length_error@std@@QAE@ABV?$basic_string@DU?$char_traits@D@std@@V?$allocator@D@2@@1@@Z ; std::length_error::length_error
PUBLIC	??_C@_0BD@OLBABOEK@vector?$DMT?$DO?5too?5long?$AA@ ; `string'
PUBLIC	??1length_error@std@@UAE@XZ			; std::length_error::~length_error
PUBLIC	__CTA3?AVlength_error@std@@
PUBLIC	__CT??_R0?AVlength_error@std@@@8??0length_error@std@@QAE@ABV01@@Z40
PUBLIC	??_R0?AVlength_error@std@@@8			; std::length_error `RTTI Type Descriptor'
PUBLIC	??0length_error@std@@QAE@ABV01@@Z		; std::length_error::length_error
PUBLIC	__CT??_R0?AVlogic_error@std@@@8??0logic_error@std@@QAE@ABV01@@Z40
PUBLIC	??_R0?AVlogic_error@std@@@8			; std::logic_error `RTTI Type Descriptor'
PUBLIC	??0logic_error@std@@QAE@ABV01@@Z		; std::logic_error::logic_error
PUBLIC	__CT??_R0?AVexception@std@@@8??0exception@std@@QAE@ABV01@@Z12
PUBLIC	??_R0?AVexception@std@@@8			; std::exception `RTTI Type Descriptor'
EXTRN	__imp_??1?$basic_string@DU?$char_traits@D@std@@V?$allocator@D@2@@std@@QAE@XZ:PROC
EXTRN	__imp_??0?$basic_string@DU?$char_traits@D@std@@V?$allocator@D@2@@std@@QAE@PBD@Z:PROC
EXTRN	??_7type_info@@6B@:QWORD			; type_info::`vftable'
EXTRN	??0exception@std@@QAE@ABV01@@Z:PROC		; std::exception::exception
;	COMDAT ??_R0?AVexception@std@@@8
_DATA	SEGMENT
??_R0?AVexception@std@@@8 DD FLAT:??_7type_info@@6B@	; std::exception `RTTI Type Descriptor'
	DD	00H
	DB	'.?AVexception@std@@', 00H
_DATA	ENDS
;	COMDAT __CT??_R0?AVexception@std@@@8??0exception@std@@QAE@ABV01@@Z12
xdata$x	SEGMENT
__CT??_R0?AVexception@std@@@8??0exception@std@@QAE@ABV01@@Z12 DD 00H
	DD	FLAT:??_R0?AVexception@std@@@8
	DD	00H
	DD	0ffffffffH
	ORG $+4
	DD	0cH
	DD	FLAT:??0exception@std@@QAE@ABV01@@Z
xdata$x	ENDS
;	COMDAT ??_R0?AVlogic_error@std@@@8
_DATA	SEGMENT
??_R0?AVlogic_error@std@@@8 DD FLAT:??_7type_info@@6B@	; std::logic_error `RTTI Type Descriptor'
	DD	00H
	DB	'.?AVlogic_error@std@@', 00H
_DATA	ENDS
;	COMDAT __CT??_R0?AVlogic_error@std@@@8??0logic_error@std@@QAE@ABV01@@Z40
xdata$x	SEGMENT
__CT??_R0?AVlogic_error@std@@@8??0logic_error@std@@QAE@ABV01@@Z40 DD 00H
	DD	FLAT:??_R0?AVlogic_error@std@@@8
	DD	00H
	DD	0ffffffffH
	ORG $+4
	DD	028H
	DD	FLAT:??0logic_error@std@@QAE@ABV01@@Z
xdata$x	ENDS
;	COMDAT ??_R0?AVlength_error@std@@@8
_DATA	SEGMENT
??_R0?AVlength_error@std@@@8 DD FLAT:??_7type_info@@6B@	; std::length_error `RTTI Type Descriptor'
	DD	00H
	DB	'.?AVlength_error@std@@', 00H
_DATA	ENDS
;	COMDAT __CT??_R0?AVlength_error@std@@@8??0length_error@std@@QAE@ABV01@@Z40
xdata$x	SEGMENT
__CT??_R0?AVlength_error@std@@@8??0length_error@std@@QAE@ABV01@@Z40 DD 00H
	DD	FLAT:??_R0?AVlength_error@std@@@8
	DD	00H
	DD	0ffffffffH
	ORG $+4
	DD	028H
	DD	FLAT:??0length_error@std@@QAE@ABV01@@Z
xdata$x	ENDS
;	COMDAT __CTA3?AVlength_error@std@@
xdata$x	SEGMENT
__CTA3?AVlength_error@std@@ DD 03H
	DD	FLAT:__CT??_R0?AVlength_error@std@@@8??0length_error@std@@QAE@ABV01@@Z40
	DD	FLAT:__CT??_R0?AVlogic_error@std@@@8??0logic_error@std@@QAE@ABV01@@Z40
	DD	FLAT:__CT??_R0?AVexception@std@@@8??0exception@std@@QAE@ABV01@@Z12
xdata$x	ENDS
;	COMDAT __TI3?AVlength_error@std@@
xdata$x	SEGMENT
__TI3?AVlength_error@std@@ DD 00H
	DD	FLAT:??1length_error@std@@UAE@XZ
	DD	00H
	DD	FLAT:__CTA3?AVlength_error@std@@
xdata$x	ENDS
;	COMDAT ??_C@_0BD@OLBABOEK@vector?$DMT?$DO?5too?5long?$AA@
CONST	SEGMENT
??_C@_0BD@OLBABOEK@vector?$DMT?$DO?5too?5long?$AA@ DB 'vector<T> too long'
	DB	00H						; `string'
CONST	ENDS
;	COMDAT xdata$x
xdata$x	SEGMENT
__unwindtable$?_Xlen@?$vector@U_devicemodeA@@V?$allocator@U_devicemodeA@@@std@@@std@@KAXXZ DD 0ffffffffH
	DD	FLAT:__unwindfunclet$?_Xlen@?$vector@U_devicemodeA@@V?$allocator@U_devicemodeA@@@std@@@std@@KAXXZ$0
__ehfuncinfo$?_Xlen@?$vector@U_devicemodeA@@V?$allocator@U_devicemodeA@@@std@@@std@@KAXXZ DD 019930522H
	DD	01H
	DD	FLAT:__unwindtable$?_Xlen@?$vector@U_devicemodeA@@V?$allocator@U_devicemodeA@@@std@@@std@@KAXXZ
	DD	2 DUP(00H)
	DD	2 DUP(00H)
	DD	00H
	DD	00H
; Function compile flags: /Odtp
xdata$x	ENDS
;	COMDAT ?_Xlen@?$vector@U_devicemodeA@@V?$allocator@U_devicemodeA@@@std@@@std@@KAXXZ
_TEXT	SEGMENT
$T123406 = -80						; size = 28
$T123405 = -52						; size = 40
__$EHRec$ = -12						; size = 12
?_Xlen@?$vector@U_devicemodeA@@V?$allocator@U_devicemodeA@@@std@@@std@@KAXXZ PROC ; std::vector<_devicemodeA,std::allocator<_devicemodeA> >::_Xlen, COMDAT

; 1259 : 		{	// report a length_error

	push	ebp
	mov	ebp, esp
	push	-1
	push	__ehhandler$?_Xlen@?$vector@U_devicemodeA@@V?$allocator@U_devicemodeA@@@std@@@std@@KAXXZ
	mov	eax, DWORD PTR fs:0
	push	eax
	sub	esp, 68					; 00000044H
	mov	eax, DWORD PTR ___security_cookie
	xor	eax, ebp
	push	eax
	lea	eax, DWORD PTR __$EHRec$[ebp]
	mov	DWORD PTR fs:0, eax

; 1260 : 		_THROW(length_error, "vector<T> too long");

	push	OFFSET ??_C@_0BD@OLBABOEK@vector?$DMT?$DO?5too?5long?$AA@
	lea	ecx, DWORD PTR $T123406[ebp]
	call	DWORD PTR __imp_??0?$basic_string@DU?$char_traits@D@std@@V?$allocator@D@2@@std@@QAE@PBD@Z
	mov	DWORD PTR __$EHRec$[ebp+8], 0
	lea	eax, DWORD PTR $T123406[ebp]
	push	eax
	lea	ecx, DWORD PTR $T123405[ebp]
	call	??0length_error@std@@QAE@ABV?$basic_string@DU?$char_traits@D@std@@V?$allocator@D@2@@1@@Z ; std::length_error::length_error
	push	OFFSET __TI3?AVlength_error@std@@
	lea	ecx, DWORD PTR $T123405[ebp]
	push	ecx
	call	__CxxThrowException@8
	mov	DWORD PTR __$EHRec$[ebp+8], -1
	lea	ecx, DWORD PTR $T123406[ebp]
	call	DWORD PTR __imp_??1?$basic_string@DU?$char_traits@D@std@@V?$allocator@D@2@@std@@QAE@XZ
$LN2@Xlen:

; 1261 : 		}

	mov	ecx, DWORD PTR __$EHRec$[ebp]
	mov	DWORD PTR fs:0, ecx
	pop	ecx
	mov	esp, ebp
	pop	ebp
	ret	0
_TEXT	ENDS
;	COMDAT text$x
text$x	SEGMENT
__unwindfunclet$?_Xlen@?$vector@U_devicemodeA@@V?$allocator@U_devicemodeA@@@std@@@std@@KAXXZ$0:
	lea	ecx, DWORD PTR $T123406[ebp]
	jmp	DWORD PTR __imp_??1?$basic_string@DU?$char_traits@D@std@@V?$allocator@D@2@@std@@QAE@XZ
__ehhandler$?_Xlen@?$vector@U_devicemodeA@@V?$allocator@U_devicemodeA@@@std@@@std@@KAXXZ:
	mov	edx, DWORD PTR [esp+8]
	lea	eax, DWORD PTR [edx+12]
	mov	ecx, DWORD PTR [edx-72]
	xor	ecx, eax
	call	@__security_check_cookie@4
	mov	eax, OFFSET __ehfuncinfo$?_Xlen@?$vector@U_devicemodeA@@V?$allocator@U_devicemodeA@@@std@@@std@@KAXXZ
	jmp	___CxxFrameHandler3
text$x	ENDS
?_Xlen@?$vector@U_devicemodeA@@V?$allocator@U_devicemodeA@@@std@@@std@@KAXXZ ENDP ; std::vector<_devicemodeA,std::allocator<_devicemodeA> >::_Xlen
PUBLIC	??1logic_error@std@@UAE@XZ			; std::logic_error::~logic_error
PUBLIC	??_7length_error@std@@6B@			; std::length_error::`vftable'
PUBLIC	??0logic_error@std@@QAE@ABV?$basic_string@DU?$char_traits@D@std@@V?$allocator@D@2@@1@@Z ; std::logic_error::logic_error
PUBLIC	??_R4length_error@std@@6B@			; std::length_error::`RTTI Complete Object Locator'
PUBLIC	??_R3length_error@std@@8			; std::length_error::`RTTI Class Hierarchy Descriptor'
PUBLIC	??_R2length_error@std@@8			; std::length_error::`RTTI Base Class Array'
PUBLIC	??_R1A@?0A@EA@length_error@std@@8		; std::length_error::`RTTI Base Class Descriptor at (0,-1,0,64)'
PUBLIC	??_R1A@?0A@EA@logic_error@std@@8		; std::logic_error::`RTTI Base Class Descriptor at (0,-1,0,64)'
PUBLIC	??_R3logic_error@std@@8				; std::logic_error::`RTTI Class Hierarchy Descriptor'
PUBLIC	??_R2logic_error@std@@8				; std::logic_error::`RTTI Base Class Array'
PUBLIC	??_R1A@?0A@EA@exception@std@@8			; std::exception::`RTTI Base Class Descriptor at (0,-1,0,64)'
PUBLIC	??_R3exception@std@@8				; std::exception::`RTTI Class Hierarchy Descriptor'
PUBLIC	??_R2exception@std@@8				; std::exception::`RTTI Base Class Array'
PUBLIC	?what@logic_error@std@@UBEPBDXZ			; std::logic_error::what
EXTRN	??_Elength_error@std@@UAEPAXI@Z:PROC		; std::length_error::`vector deleting destructor'
;	COMDAT ??_R2exception@std@@8
; File d:\program files (x86)\microsoft visual studio 9.0\vc\include\stdexcept
rdata$r	SEGMENT
??_R2exception@std@@8 DD FLAT:??_R1A@?0A@EA@exception@std@@8 ; std::exception::`RTTI Base Class Array'
rdata$r	ENDS
;	COMDAT ??_R3exception@std@@8
rdata$r	SEGMENT
??_R3exception@std@@8 DD 00H				; std::exception::`RTTI Class Hierarchy Descriptor'
	DD	00H
	DD	01H
	DD	FLAT:??_R2exception@std@@8
rdata$r	ENDS
;	COMDAT ??_R1A@?0A@EA@exception@std@@8
rdata$r	SEGMENT
??_R1A@?0A@EA@exception@std@@8 DD FLAT:??_R0?AVexception@std@@@8 ; std::exception::`RTTI Base Class Descriptor at (0,-1,0,64)'
	DD	00H
	DD	00H
	DD	0ffffffffH
	DD	00H
	DD	040H
	DD	FLAT:??_R3exception@std@@8
rdata$r	ENDS
;	COMDAT ??_R2logic_error@std@@8
rdata$r	SEGMENT
??_R2logic_error@std@@8 DD FLAT:??_R1A@?0A@EA@logic_error@std@@8 ; std::logic_error::`RTTI Base Class Array'
	DD	FLAT:??_R1A@?0A@EA@exception@std@@8
rdata$r	ENDS
;	COMDAT ??_R3logic_error@std@@8
rdata$r	SEGMENT
??_R3logic_error@std@@8 DD 00H				; std::logic_error::`RTTI Class Hierarchy Descriptor'
	DD	00H
	DD	02H
	DD	FLAT:??_R2logic_error@std@@8
rdata$r	ENDS
;	COMDAT ??_R1A@?0A@EA@logic_error@std@@8
rdata$r	SEGMENT
??_R1A@?0A@EA@logic_error@std@@8 DD FLAT:??_R0?AVlogic_error@std@@@8 ; std::logic_error::`RTTI Base Class Descriptor at (0,-1,0,64)'
	DD	01H
	DD	00H
	DD	0ffffffffH
	DD	00H
	DD	040H
	DD	FLAT:??_R3logic_error@std@@8
rdata$r	ENDS
;	COMDAT ??_R1A@?0A@EA@length_error@std@@8
rdata$r	SEGMENT
??_R1A@?0A@EA@length_error@std@@8 DD FLAT:??_R0?AVlength_error@std@@@8 ; std::length_error::`RTTI Base Class Descriptor at (0,-1,0,64)'
	DD	02H
	DD	00H
	DD	0ffffffffH
	DD	00H
	DD	040H
	DD	FLAT:??_R3length_error@std@@8
rdata$r	ENDS
;	COMDAT ??_R2length_error@std@@8
rdata$r	SEGMENT
??_R2length_error@std@@8 DD FLAT:??_R1A@?0A@EA@length_error@std@@8 ; std::length_error::`RTTI Base Class Array'
	DD	FLAT:??_R1A@?0A@EA@logic_error@std@@8
	DD	FLAT:??_R1A@?0A@EA@exception@std@@8
rdata$r	ENDS
;	COMDAT ??_R3length_error@std@@8
rdata$r	SEGMENT
??_R3length_error@std@@8 DD 00H				; std::length_error::`RTTI Class Hierarchy Descriptor'
	DD	00H
	DD	03H
	DD	FLAT:??_R2length_error@std@@8
rdata$r	ENDS
;	COMDAT ??_R4length_error@std@@6B@
rdata$r	SEGMENT
??_R4length_error@std@@6B@ DD 00H			; std::length_error::`RTTI Complete Object Locator'
	DD	00H
	DD	00H
	DD	FLAT:??_R0?AVlength_error@std@@@8
	DD	FLAT:??_R3length_error@std@@8
rdata$r	ENDS
;	COMDAT ??_7length_error@std@@6B@
CONST	SEGMENT
??_7length_error@std@@6B@ DD FLAT:??_R4length_error@std@@6B@ ; std::length_error::`vftable'
	DD	FLAT:??_Elength_error@std@@UAEPAXI@Z
	DD	FLAT:?what@logic_error@std@@UBEPBDXZ
CONST	ENDS
;	COMDAT xdata$x
xdata$x	SEGMENT
__unwindtable$??0length_error@std@@QAE@ABV?$basic_string@DU?$char_traits@D@std@@V?$allocator@D@2@@1@@Z DD 0ffffffffH
	DD	FLAT:__unwindfunclet$??0length_error@std@@QAE@ABV?$basic_string@DU?$char_traits@D@std@@V?$allocator@D@2@@1@@Z$0
__ehfuncinfo$??0length_error@std@@QAE@ABV?$basic_string@DU?$char_traits@D@std@@V?$allocator@D@2@@1@@Z DD 019930522H
	DD	01H
	DD	FLAT:__unwindtable$??0length_error@std@@QAE@ABV?$basic_string@DU?$char_traits@D@std@@V?$allocator@D@2@@1@@Z
	DD	2 DUP(00H)
	DD	2 DUP(00H)
	DD	00H
	DD	00H
; Function compile flags: /Odtp
xdata$x	ENDS
;	COMDAT ??0length_error@std@@QAE@ABV?$basic_string@DU?$char_traits@D@std@@V?$allocator@D@2@@1@@Z
_TEXT	SEGMENT
_this$ = -16						; size = 4
__$EHRec$ = -12						; size = 12
__Message$ = 8						; size = 4
??0length_error@std@@QAE@ABV?$basic_string@DU?$char_traits@D@std@@V?$allocator@D@2@@1@@Z PROC ; std::length_error::length_error, COMDAT
; _this$ = ecx

; 105  : 		{	// construct from message string

	push	ebp
	mov	ebp, esp
	push	-1
	push	__ehhandler$??0length_error@std@@QAE@ABV?$basic_string@DU?$char_traits@D@std@@V?$allocator@D@2@@1@@Z
	mov	eax, DWORD PTR fs:0
	push	eax
	push	ecx
	mov	eax, DWORD PTR ___security_cookie
	xor	eax, ebp
	push	eax
	lea	eax, DWORD PTR __$EHRec$[ebp]
	mov	DWORD PTR fs:0, eax
	mov	DWORD PTR _this$[ebp], ecx
	mov	eax, DWORD PTR __Message$[ebp]
	push	eax
	mov	ecx, DWORD PTR _this$[ebp]
	call	??0logic_error@std@@QAE@ABV?$basic_string@DU?$char_traits@D@std@@V?$allocator@D@2@@1@@Z ; std::logic_error::logic_error
	mov	DWORD PTR __$EHRec$[ebp+8], 0
	mov	ecx, DWORD PTR _this$[ebp]
	mov	DWORD PTR [ecx], OFFSET ??_7length_error@std@@6B@

; 106  : 		}

	mov	DWORD PTR __$EHRec$[ebp+8], -1
	mov	eax, DWORD PTR _this$[ebp]
	mov	ecx, DWORD PTR __$EHRec$[ebp]
	mov	DWORD PTR fs:0, ecx
	pop	ecx
	mov	esp, ebp
	pop	ebp
	ret	4
_TEXT	ENDS
;	COMDAT text$x
text$x	SEGMENT
__unwindfunclet$??0length_error@std@@QAE@ABV?$basic_string@DU?$char_traits@D@std@@V?$allocator@D@2@@1@@Z$0:
	mov	ecx, DWORD PTR _this$[ebp]
	jmp	??1logic_error@std@@UAE@XZ		; std::logic_error::~logic_error
__ehhandler$??0length_error@std@@QAE@ABV?$basic_string@DU?$char_traits@D@std@@V?$allocator@D@2@@1@@Z:
	mov	edx, DWORD PTR [esp+8]
	lea	eax, DWORD PTR [edx+12]
	mov	ecx, DWORD PTR [edx-8]
	xor	ecx, eax
	call	@__security_check_cookie@4
	mov	eax, OFFSET __ehfuncinfo$??0length_error@std@@QAE@ABV?$basic_string@DU?$char_traits@D@std@@V?$allocator@D@2@@1@@Z
	jmp	___CxxFrameHandler3
text$x	ENDS
??0length_error@std@@QAE@ABV?$basic_string@DU?$char_traits@D@std@@V?$allocator@D@2@@1@@Z ENDP ; std::length_error::length_error
PUBLIC	??_7logic_error@std@@6B@			; std::logic_error::`vftable'
PUBLIC	??_R4logic_error@std@@6B@			; std::logic_error::`RTTI Complete Object Locator'
EXTRN	__imp_??1exception@std@@UAE@XZ:PROC
EXTRN	__imp_??0?$basic_string@DU?$char_traits@D@std@@V?$allocator@D@2@@std@@QAE@ABV01@@Z:PROC
EXTRN	__imp_??0exception@std@@QAE@XZ:PROC
EXTRN	??_Elogic_error@std@@UAEPAXI@Z:PROC		; std::logic_error::`vector deleting destructor'
;	COMDAT ??_R4logic_error@std@@6B@
rdata$r	SEGMENT
??_R4logic_error@std@@6B@ DD 00H			; std::logic_error::`RTTI Complete Object Locator'
	DD	00H
	DD	00H
	DD	FLAT:??_R0?AVlogic_error@std@@@8
	DD	FLAT:??_R3logic_error@std@@8
rdata$r	ENDS
;	COMDAT ??_7logic_error@std@@6B@
CONST	SEGMENT
??_7logic_error@std@@6B@ DD FLAT:??_R4logic_error@std@@6B@ ; std::logic_error::`vftable'
	DD	FLAT:??_Elogic_error@std@@UAEPAXI@Z
	DD	FLAT:?what@logic_error@std@@UBEPBDXZ
CONST	ENDS
;	COMDAT xdata$x
xdata$x	SEGMENT
__unwindtable$??0logic_error@std@@QAE@ABV?$basic_string@DU?$char_traits@D@std@@V?$allocator@D@2@@1@@Z DD 0ffffffffH
	DD	FLAT:__unwindfunclet$??0logic_error@std@@QAE@ABV?$basic_string@DU?$char_traits@D@std@@V?$allocator@D@2@@1@@Z$0
	DD	00H
	DD	FLAT:__unwindfunclet$??0logic_error@std@@QAE@ABV?$basic_string@DU?$char_traits@D@std@@V?$allocator@D@2@@1@@Z$1
__ehfuncinfo$??0logic_error@std@@QAE@ABV?$basic_string@DU?$char_traits@D@std@@V?$allocator@D@2@@1@@Z DD 019930522H
	DD	02H
	DD	FLAT:__unwindtable$??0logic_error@std@@QAE@ABV?$basic_string@DU?$char_traits@D@std@@V?$allocator@D@2@@1@@Z
	DD	2 DUP(00H)
	DD	2 DUP(00H)
	DD	00H
	DD	00H
; Function compile flags: /Odtp
xdata$x	ENDS
;	COMDAT ??0logic_error@std@@QAE@ABV?$basic_string@DU?$char_traits@D@std@@V?$allocator@D@2@@1@@Z
_TEXT	SEGMENT
_this$ = -16						; size = 4
__$EHRec$ = -12						; size = 12
__Message$ = 8						; size = 4
??0logic_error@std@@QAE@ABV?$basic_string@DU?$char_traits@D@std@@V?$allocator@D@2@@1@@Z PROC ; std::logic_error::logic_error, COMDAT
; _this$ = ecx

; 26   : 		{	// construct from message string

	push	ebp
	mov	ebp, esp
	push	-1
	push	__ehhandler$??0logic_error@std@@QAE@ABV?$basic_string@DU?$char_traits@D@std@@V?$allocator@D@2@@1@@Z
	mov	eax, DWORD PTR fs:0
	push	eax
	push	ecx
	mov	eax, DWORD PTR ___security_cookie
	xor	eax, ebp
	push	eax
	lea	eax, DWORD PTR __$EHRec$[ebp]
	mov	DWORD PTR fs:0, eax
	mov	DWORD PTR _this$[ebp], ecx
	mov	ecx, DWORD PTR _this$[ebp]
	call	DWORD PTR __imp_??0exception@std@@QAE@XZ
	mov	DWORD PTR __$EHRec$[ebp+8], 0
	mov	eax, DWORD PTR _this$[ebp]
	mov	DWORD PTR [eax], OFFSET ??_7logic_error@std@@6B@
	mov	ecx, DWORD PTR __Message$[ebp]
	push	ecx
	mov	ecx, DWORD PTR _this$[ebp]
	add	ecx, 12					; 0000000cH
	call	DWORD PTR __imp_??0?$basic_string@DU?$char_traits@D@std@@V?$allocator@D@2@@std@@QAE@ABV01@@Z
	mov	BYTE PTR __$EHRec$[ebp+8], 1

; 27   : 		}

	mov	DWORD PTR __$EHRec$[ebp+8], -1
	mov	eax, DWORD PTR _this$[ebp]
	mov	ecx, DWORD PTR __$EHRec$[ebp]
	mov	DWORD PTR fs:0, ecx
	pop	ecx
	mov	esp, ebp
	pop	ebp
	ret	4
_TEXT	ENDS
;	COMDAT text$x
text$x	SEGMENT
__unwindfunclet$??0logic_error@std@@QAE@ABV?$basic_string@DU?$char_traits@D@std@@V?$allocator@D@2@@1@@Z$0:
	mov	ecx, DWORD PTR _this$[ebp]
	jmp	DWORD PTR __imp_??1exception@std@@UAE@XZ
__unwindfunclet$??0logic_error@std@@QAE@ABV?$basic_string@DU?$char_traits@D@std@@V?$allocator@D@2@@1@@Z$1:
	mov	ecx, DWORD PTR _this$[ebp]
	add	ecx, 12					; 0000000cH
	jmp	DWORD PTR __imp_??1?$basic_string@DU?$char_traits@D@std@@V?$allocator@D@2@@std@@QAE@XZ
__ehhandler$??0logic_error@std@@QAE@ABV?$basic_string@DU?$char_traits@D@std@@V?$allocator@D@2@@1@@Z:
	mov	edx, DWORD PTR [esp+8]
	lea	eax, DWORD PTR [edx+12]
	mov	ecx, DWORD PTR [edx-8]
	xor	ecx, eax
	call	@__security_check_cookie@4
	mov	eax, OFFSET __ehfuncinfo$??0logic_error@std@@QAE@ABV?$basic_string@DU?$char_traits@D@std@@V?$allocator@D@2@@1@@Z
	jmp	___CxxFrameHandler3
text$x	ENDS
??0logic_error@std@@QAE@ABV?$basic_string@DU?$char_traits@D@std@@V?$allocator@D@2@@1@@Z ENDP ; std::logic_error::logic_error
;	COMDAT xdata$x
xdata$x	SEGMENT
__unwindtable$??1logic_error@std@@UAE@XZ DD 0ffffffffH
	DD	FLAT:__unwindfunclet$??1logic_error@std@@UAE@XZ$0
	DD	00H
	DD	FLAT:__unwindfunclet$??1logic_error@std@@UAE@XZ$1
__ehfuncinfo$??1logic_error@std@@UAE@XZ DD 019930522H
	DD	02H
	DD	FLAT:__unwindtable$??1logic_error@std@@UAE@XZ
	DD	2 DUP(00H)
	DD	2 DUP(00H)
	DD	00H
	DD	00H
; Function compile flags: /Odtp
xdata$x	ENDS
;	COMDAT ??1logic_error@std@@UAE@XZ
_TEXT	SEGMENT
_this$ = -16						; size = 4
__$EHRec$ = -12						; size = 12
??1logic_error@std@@UAE@XZ PROC				; std::logic_error::~logic_error, COMDAT
; _this$ = ecx

; 30   : 		{	// destroy the object

	push	ebp
	mov	ebp, esp
	push	-1
	push	__ehhandler$??1logic_error@std@@UAE@XZ
	mov	eax, DWORD PTR fs:0
	push	eax
	push	ecx
	mov	eax, DWORD PTR ___security_cookie
	xor	eax, ebp
	push	eax
	lea	eax, DWORD PTR __$EHRec$[ebp]
	mov	DWORD PTR fs:0, eax
	mov	DWORD PTR _this$[ebp], ecx
	mov	eax, DWORD PTR _this$[ebp]
	mov	DWORD PTR [eax], OFFSET ??_7logic_error@std@@6B@
	mov	DWORD PTR __$EHRec$[ebp+8], 1

; 31   : 		}

	mov	BYTE PTR __$EHRec$[ebp+8], 0
	mov	ecx, DWORD PTR _this$[ebp]
	add	ecx, 12					; 0000000cH
	call	DWORD PTR __imp_??1?$basic_string@DU?$char_traits@D@std@@V?$allocator@D@2@@std@@QAE@XZ
	mov	DWORD PTR __$EHRec$[ebp+8], -1
	mov	ecx, DWORD PTR _this$[ebp]
	call	DWORD PTR __imp_??1exception@std@@UAE@XZ
	mov	ecx, DWORD PTR __$EHRec$[ebp]
	mov	DWORD PTR fs:0, ecx
	pop	ecx
	mov	esp, ebp
	pop	ebp
	ret	0
_TEXT	ENDS
;	COMDAT text$x
text$x	SEGMENT
__unwindfunclet$??1logic_error@std@@UAE@XZ$0:
	mov	ecx, DWORD PTR _this$[ebp]
	jmp	DWORD PTR __imp_??1exception@std@@UAE@XZ
__unwindfunclet$??1logic_error@std@@UAE@XZ$1:
	mov	ecx, DWORD PTR _this$[ebp]
	add	ecx, 12					; 0000000cH
	jmp	DWORD PTR __imp_??1?$basic_string@DU?$char_traits@D@std@@V?$allocator@D@2@@std@@QAE@XZ
__ehhandler$??1logic_error@std@@UAE@XZ:
	mov	edx, DWORD PTR [esp+8]
	lea	eax, DWORD PTR [edx+12]
	mov	ecx, DWORD PTR [edx-8]
	xor	ecx, eax
	call	@__security_check_cookie@4
	mov	eax, OFFSET __ehfuncinfo$??1logic_error@std@@UAE@XZ
	jmp	___CxxFrameHandler3
text$x	ENDS
??1logic_error@std@@UAE@XZ ENDP				; std::logic_error::~logic_error
EXTRN	__imp_?c_str@?$basic_string@DU?$char_traits@D@std@@V?$allocator@D@2@@std@@QBEPBDXZ:PROC
; Function compile flags: /Odtp
;	COMDAT ?what@logic_error@std@@UBEPBDXZ
_TEXT	SEGMENT
_this$ = -4						; size = 4
?what@logic_error@std@@UBEPBDXZ PROC			; std::logic_error::what, COMDAT
; _this$ = ecx

; 34   : 		{	// return pointer to message string

	push	ebp
	mov	ebp, esp
	push	ecx
	mov	DWORD PTR _this$[ebp], ecx

; 35   : 		return (_Str.c_str());

	mov	ecx, DWORD PTR _this$[ebp]
	add	ecx, 12					; 0000000cH
	call	DWORD PTR __imp_?c_str@?$basic_string@DU?$char_traits@D@std@@V?$allocator@D@2@@std@@QBEPBDXZ

; 36   : 		}

	mov	esp, ebp
	pop	ebp
	ret	0
?what@logic_error@std@@UBEPBDXZ ENDP			; std::logic_error::what
_TEXT	ENDS
EXTRN	??3@YAXPAX@Z:PROC				; operator delete
; Function compile flags: /Odtp
;	COMDAT ??_Glogic_error@std@@UAEPAXI@Z
_TEXT	SEGMENT
_this$ = -4						; size = 4
___flags$ = 8						; size = 4
??_Glogic_error@std@@UAEPAXI@Z PROC			; std::logic_error::`scalar deleting destructor', COMDAT
; _this$ = ecx
	push	ebp
	mov	ebp, esp
	push	ecx
	mov	DWORD PTR _this$[ebp], ecx
	mov	ecx, DWORD PTR _this$[ebp]
	call	??1logic_error@std@@UAE@XZ		; std::logic_error::~logic_error
	mov	eax, DWORD PTR ___flags$[ebp]
	and	eax, 1
	je	SHORT $LN1@scalar
	mov	ecx, DWORD PTR _this$[ebp]
	push	ecx
	call	??3@YAXPAX@Z				; operator delete
	add	esp, 4
$LN1@scalar:
	mov	eax, DWORD PTR _this$[ebp]
	mov	esp, ebp
	pop	ebp
	ret	4
??_Glogic_error@std@@UAEPAXI@Z ENDP			; std::logic_error::`scalar deleting destructor'
_TEXT	ENDS
;	COMDAT xdata$x
xdata$x	SEGMENT
__unwindtable$??1length_error@std@@UAE@XZ DD 0ffffffffH
	DD	FLAT:__unwindfunclet$??1length_error@std@@UAE@XZ$0
__ehfuncinfo$??1length_error@std@@UAE@XZ DD 019930522H
	DD	01H
	DD	FLAT:__unwindtable$??1length_error@std@@UAE@XZ
	DD	2 DUP(00H)
	DD	2 DUP(00H)
	DD	00H
	DD	00H
; Function compile flags: /Odtp
xdata$x	ENDS
;	COMDAT ??1length_error@std@@UAE@XZ
_TEXT	SEGMENT
_this$ = -16						; size = 4
__$EHRec$ = -12						; size = 12
??1length_error@std@@UAE@XZ PROC			; std::length_error::~length_error, COMDAT
; _this$ = ecx

; 109  : 		{	// destroy the object

	push	ebp
	mov	ebp, esp
	push	-1
	push	__ehhandler$??1length_error@std@@UAE@XZ
	mov	eax, DWORD PTR fs:0
	push	eax
	push	ecx
	mov	eax, DWORD PTR ___security_cookie
	xor	eax, ebp
	push	eax
	lea	eax, DWORD PTR __$EHRec$[ebp]
	mov	DWORD PTR fs:0, eax
	mov	DWORD PTR _this$[ebp], ecx
	mov	eax, DWORD PTR _this$[ebp]
	mov	DWORD PTR [eax], OFFSET ??_7length_error@std@@6B@
	mov	DWORD PTR __$EHRec$[ebp+8], 0

; 110  : 		}

	mov	DWORD PTR __$EHRec$[ebp+8], -1
	mov	ecx, DWORD PTR _this$[ebp]
	call	??1logic_error@std@@UAE@XZ		; std::logic_error::~logic_error
	mov	ecx, DWORD PTR __$EHRec$[ebp]
	mov	DWORD PTR fs:0, ecx
	pop	ecx
	mov	esp, ebp
	pop	ebp
	ret	0
_TEXT	ENDS
;	COMDAT text$x
text$x	SEGMENT
__unwindfunclet$??1length_error@std@@UAE@XZ$0:
	mov	ecx, DWORD PTR _this$[ebp]
	jmp	??1logic_error@std@@UAE@XZ		; std::logic_error::~logic_error
__ehhandler$??1length_error@std@@UAE@XZ:
	mov	edx, DWORD PTR [esp+8]
	lea	eax, DWORD PTR [edx+12]
	mov	ecx, DWORD PTR [edx-8]
	xor	ecx, eax
	call	@__security_check_cookie@4
	mov	eax, OFFSET __ehfuncinfo$??1length_error@std@@UAE@XZ
	jmp	___CxxFrameHandler3
text$x	ENDS
??1length_error@std@@UAE@XZ ENDP			; std::length_error::~length_error
; Function compile flags: /Odtp
;	COMDAT ??_Glength_error@std@@UAEPAXI@Z
_TEXT	SEGMENT
_this$ = -4						; size = 4
___flags$ = 8						; size = 4
??_Glength_error@std@@UAEPAXI@Z PROC			; std::length_error::`scalar deleting destructor', COMDAT
; _this$ = ecx
	push	ebp
	mov	ebp, esp
	push	ecx
	mov	DWORD PTR _this$[ebp], ecx
	mov	ecx, DWORD PTR _this$[ebp]
	call	??1length_error@std@@UAE@XZ		; std::length_error::~length_error
	mov	eax, DWORD PTR ___flags$[ebp]
	and	eax, 1
	je	SHORT $LN1@scalar@2
	mov	ecx, DWORD PTR _this$[ebp]
	push	ecx
	call	??3@YAXPAX@Z				; operator delete
	add	esp, 4
$LN1@scalar@2:
	mov	eax, DWORD PTR _this$[ebp]
	mov	esp, ebp
	pop	ebp
	ret	4
??_Glength_error@std@@UAEPAXI@Z ENDP			; std::length_error::`scalar deleting destructor'
_TEXT	ENDS
EXTRN	__imp_??0exception@std@@QAE@ABV01@@Z:PROC
;	COMDAT xdata$x
xdata$x	SEGMENT
__unwindtable$??0logic_error@std@@QAE@ABV01@@Z DD 0ffffffffH
	DD	FLAT:__unwindfunclet$??0logic_error@std@@QAE@ABV01@@Z$0
	DD	00H
	DD	FLAT:__unwindfunclet$??0logic_error@std@@QAE@ABV01@@Z$1
__ehfuncinfo$??0logic_error@std@@QAE@ABV01@@Z DD 019930522H
	DD	02H
	DD	FLAT:__unwindtable$??0logic_error@std@@QAE@ABV01@@Z
	DD	2 DUP(00H)
	DD	2 DUP(00H)
	DD	00H
	DD	00H
; Function compile flags: /Odtp
xdata$x	ENDS
;	COMDAT ??0logic_error@std@@QAE@ABV01@@Z
_TEXT	SEGMENT
_this$ = -16						; size = 4
__$EHRec$ = -12						; size = 12
___that$ = 8						; size = 4
??0logic_error@std@@QAE@ABV01@@Z PROC			; std::logic_error::logic_error, COMDAT
; _this$ = ecx
	push	ebp
	mov	ebp, esp
	push	-1
	push	__ehhandler$??0logic_error@std@@QAE@ABV01@@Z
	mov	eax, DWORD PTR fs:0
	push	eax
	push	ecx
	mov	eax, DWORD PTR ___security_cookie
	xor	eax, ebp
	push	eax
	lea	eax, DWORD PTR __$EHRec$[ebp]
	mov	DWORD PTR fs:0, eax
	mov	DWORD PTR _this$[ebp], ecx
	mov	eax, DWORD PTR ___that$[ebp]
	push	eax
	mov	ecx, DWORD PTR _this$[ebp]
	call	DWORD PTR __imp_??0exception@std@@QAE@ABV01@@Z
	mov	DWORD PTR __$EHRec$[ebp+8], 0
	mov	ecx, DWORD PTR _this$[ebp]
	mov	DWORD PTR [ecx], OFFSET ??_7logic_error@std@@6B@
	mov	edx, DWORD PTR ___that$[ebp]
	add	edx, 12					; 0000000cH
	push	edx
	mov	ecx, DWORD PTR _this$[ebp]
	add	ecx, 12					; 0000000cH
	call	DWORD PTR __imp_??0?$basic_string@DU?$char_traits@D@std@@V?$allocator@D@2@@std@@QAE@ABV01@@Z
	mov	BYTE PTR __$EHRec$[ebp+8], 1
	mov	DWORD PTR __$EHRec$[ebp+8], -1
	mov	eax, DWORD PTR _this$[ebp]
	mov	ecx, DWORD PTR __$EHRec$[ebp]
	mov	DWORD PTR fs:0, ecx
	pop	ecx
	mov	esp, ebp
	pop	ebp
	ret	4
_TEXT	ENDS
;	COMDAT text$x
text$x	SEGMENT
__unwindfunclet$??0logic_error@std@@QAE@ABV01@@Z$0:
	mov	ecx, DWORD PTR _this$[ebp]
	jmp	DWORD PTR __imp_??1exception@std@@UAE@XZ
__unwindfunclet$??0logic_error@std@@QAE@ABV01@@Z$1:
	mov	ecx, DWORD PTR _this$[ebp]
	add	ecx, 12					; 0000000cH
	jmp	DWORD PTR __imp_??1?$basic_string@DU?$char_traits@D@std@@V?$allocator@D@2@@std@@QAE@XZ
__ehhandler$??0logic_error@std@@QAE@ABV01@@Z:
	mov	edx, DWORD PTR [esp+8]
	lea	eax, DWORD PTR [edx+12]
	mov	ecx, DWORD PTR [edx-8]
	xor	ecx, eax
	call	@__security_check_cookie@4
	mov	eax, OFFSET __ehfuncinfo$??0logic_error@std@@QAE@ABV01@@Z
	jmp	___CxxFrameHandler3
text$x	ENDS
??0logic_error@std@@QAE@ABV01@@Z ENDP			; std::logic_error::logic_error
; Function compile flags: /Odtp
; File d:\program files (x86)\microsoft visual studio 9.0\vc\include\xmemory
;	COMDAT ?deallocate@?$allocator@U_devicemodeA@@@std@@QAEXPAU_devicemodeA@@I@Z
_TEXT	SEGMENT
_this$ = -4						; size = 4
__Ptr$ = 8						; size = 4
___formal$ = 12						; size = 4
?deallocate@?$allocator@U_devicemodeA@@@std@@QAEXPAU_devicemodeA@@I@Z PROC ; std::allocator<_devicemodeA>::deallocate, COMDAT
; _this$ = ecx

; 139  : 		{	// deallocate object at _Ptr, ignore size

	push	ebp
	mov	ebp, esp
	push	ecx
	mov	DWORD PTR _this$[ebp], ecx

; 140  : 		::operator delete(_Ptr);

	mov	eax, DWORD PTR __Ptr$[ebp]
	push	eax
	call	??3@YAXPAX@Z				; operator delete
	add	esp, 4

; 141  : 		}

	mov	esp, ebp
	pop	ebp
	ret	8
?deallocate@?$allocator@U_devicemodeA@@@std@@QAEXPAU_devicemodeA@@I@Z ENDP ; std::allocator<_devicemodeA>::deallocate
_TEXT	ENDS
PUBLIC	??$_Allocate@U_devicemodeA@@@std@@YAPAU_devicemodeA@@IPAU1@@Z ; std::_Allocate<_devicemodeA>
; Function compile flags: /Odtp
;	COMDAT ?allocate@?$allocator@U_devicemodeA@@@std@@QAEPAU_devicemodeA@@I@Z
_TEXT	SEGMENT
_this$ = -4						; size = 4
__Count$ = 8						; size = 4
?allocate@?$allocator@U_devicemodeA@@@std@@QAEPAU_devicemodeA@@I@Z PROC ; std::allocator<_devicemodeA>::allocate, COMDAT
; _this$ = ecx

; 144  : 		{	// allocate array of _Count elements

	push	ebp
	mov	ebp, esp
	push	ecx
	mov	DWORD PTR _this$[ebp], ecx

; 145  : 		return (_Allocate(_Count, (pointer)0));

	push	0
	mov	eax, DWORD PTR __Count$[ebp]
	push	eax
	call	??$_Allocate@U_devicemodeA@@@std@@YAPAU_devicemodeA@@IPAU1@@Z ; std::_Allocate<_devicemodeA>
	add	esp, 8

; 146  : 		}

	mov	esp, ebp
	pop	ebp
	ret	4
?allocate@?$allocator@U_devicemodeA@@@std@@QAEPAU_devicemodeA@@I@Z ENDP ; std::allocator<_devicemodeA>::allocate
_TEXT	ENDS
PUBLIC	??Y?$_Vector_iterator@U_devicemodeA@@V?$allocator@U_devicemodeA@@@std@@@std@@QAEAAV01@H@Z ; std::_Vector_iterator<_devicemodeA,std::allocator<_devicemodeA> >::operator+=
; Function compile flags: /Odtp
; File d:\program files (x86)\microsoft visual studio 9.0\vc\include\vector
;	COMDAT ??H?$_Vector_iterator@U_devicemodeA@@V?$allocator@U_devicemodeA@@@std@@@std@@QBE?AV01@H@Z
_TEXT	SEGMENT
_this$ = -12						; size = 4
__Tmp$ = -8						; size = 8
___$ReturnUdt$ = 8					; size = 4
__Off$ = 12						; size = 4
??H?$_Vector_iterator@U_devicemodeA@@V?$allocator@U_devicemodeA@@@std@@@std@@QBE?AV01@H@Z PROC ; std::_Vector_iterator<_devicemodeA,std::allocator<_devicemodeA> >::operator+, COMDAT
; _this$ = ecx

; 380  : 		{	// return this + integer

	push	ebp
	mov	ebp, esp
	sub	esp, 12					; 0000000cH
	mov	DWORD PTR _this$[ebp], ecx

; 381  : 		_Myt _Tmp = *this;

	mov	eax, DWORD PTR _this$[ebp]
	mov	ecx, DWORD PTR [eax]
	mov	edx, DWORD PTR [eax+4]
	mov	DWORD PTR __Tmp$[ebp], ecx
	mov	DWORD PTR __Tmp$[ebp+4], edx

; 382  : 		return (_Tmp += _Off);

	mov	eax, DWORD PTR __Off$[ebp]
	push	eax
	lea	ecx, DWORD PTR __Tmp$[ebp]
	call	??Y?$_Vector_iterator@U_devicemodeA@@V?$allocator@U_devicemodeA@@@std@@@std@@QAEAAV01@H@Z ; std::_Vector_iterator<_devicemodeA,std::allocator<_devicemodeA> >::operator+=
	mov	ecx, DWORD PTR [eax]
	mov	edx, DWORD PTR [eax+4]
	mov	eax, DWORD PTR ___$ReturnUdt$[ebp]
	mov	DWORD PTR [eax], ecx
	mov	DWORD PTR [eax+4], edx
	mov	eax, DWORD PTR ___$ReturnUdt$[ebp]

; 383  : 		}

	mov	esp, ebp
	pop	ebp
	ret	8
??H?$_Vector_iterator@U_devicemodeA@@V?$allocator@U_devicemodeA@@@std@@@std@@QBE?AV01@H@Z ENDP ; std::_Vector_iterator<_devicemodeA,std::allocator<_devicemodeA> >::operator+
_TEXT	ENDS
PUBLIC	?_Set_container@_Iterator_base_aux@std@@QAEXQBV_Container_base_aux@2@@Z ; std::_Iterator_base_aux::_Set_container
PUBLIC	??0?$_Ranit@U_devicemodeA@@HPBU1@ABU1@@std@@QAE@XZ ; std::_Ranit<_devicemodeA,int,_devicemodeA const *,_devicemodeA const &>::_Ranit<_devicemodeA,int,_devicemodeA const *,_devicemodeA const &>
; Function compile flags: /Odtp
;	COMDAT ??0?$_Vector_const_iterator@U_devicemodeA@@V?$allocator@U_devicemodeA@@@std@@@std@@QAE@PAU_devicemodeA@@PBV_Container_base_aux@1@@Z
_TEXT	SEGMENT
_this$ = -4						; size = 4
__Ptr$ = 8						; size = 4
__Pvector$ = 12						; size = 4
??0?$_Vector_const_iterator@U_devicemodeA@@V?$allocator@U_devicemodeA@@@std@@@std@@QAE@PAU_devicemodeA@@PBV_Container_base_aux@1@@Z PROC ; std::_Vector_const_iterator<_devicemodeA,std::allocator<_devicemodeA> >::_Vector_const_iterator<_devicemodeA,std::allocator<_devicemodeA> >, COMDAT
; _this$ = ecx

; 76   : 	_Vector_const_iterator(_Tptr _Ptr, const _Container_base *_Pvector)

	push	ebp
	mov	ebp, esp
	push	ecx
	mov	DWORD PTR _this$[ebp], ecx
	mov	ecx, DWORD PTR _this$[ebp]
	call	??0?$_Ranit@U_devicemodeA@@HPBU1@ABU1@@std@@QAE@XZ

; 77   : 		{	// construct with pointer _Ptr
; 78   : 		_SCL_SECURE_VALIDATE(_Pvector != NULL && ((_Myvec *)_Pvector)->_Myfirst <= _Ptr && _Ptr <= ((_Myvec *)_Pvector)->_Mylast);

	cmp	DWORD PTR __Pvector$[ebp], 0
	je	SHORT $LN1@Vector_con
	mov	eax, DWORD PTR __Pvector$[ebp]
	mov	ecx, DWORD PTR [eax+12]
	cmp	ecx, DWORD PTR __Ptr$[ebp]
	ja	SHORT $LN1@Vector_con
	mov	edx, DWORD PTR __Pvector$[ebp]
	mov	eax, DWORD PTR __Ptr$[ebp]
	cmp	eax, DWORD PTR [edx+16]
	jbe	SHORT $LN2@Vector_con
$LN1@Vector_con:
	call	DWORD PTR __imp___invalid_parameter_noinfo
$LN2@Vector_con:

; 79   : 		this->_Set_container(_Pvector);

	mov	ecx, DWORD PTR __Pvector$[ebp]
	push	ecx
	mov	ecx, DWORD PTR _this$[ebp]
	call	?_Set_container@_Iterator_base_aux@std@@QAEXQBV_Container_base_aux@2@@Z ; std::_Iterator_base_aux::_Set_container

; 80   : 		_Myptr = _Ptr;

	mov	edx, DWORD PTR _this$[ebp]
	mov	eax, DWORD PTR __Ptr$[ebp]
	mov	DWORD PTR [edx+4], eax

; 81   : 		}

	mov	eax, DWORD PTR _this$[ebp]
	mov	esp, ebp
	pop	ebp
	ret	8
??0?$_Vector_const_iterator@U_devicemodeA@@V?$allocator@U_devicemodeA@@@std@@@std@@QAE@PAU_devicemodeA@@PBV_Container_base_aux@1@@Z ENDP ; std::_Vector_const_iterator<_devicemodeA,std::allocator<_devicemodeA> >::_Vector_const_iterator<_devicemodeA,std::allocator<_devicemodeA> >
; Function compile flags: /Odtp
; File d:\program files (x86)\microsoft visual studio 9.0\vc\include\xutility
_TEXT	ENDS
;	COMDAT ?_Set_container@_Iterator_base_aux@std@@QAEXQBV_Container_base_aux@2@@Z
_TEXT	SEGMENT
_this$ = -4						; size = 4
__Pcont$ = 8						; size = 4
?_Set_container@_Iterator_base_aux@std@@QAEXQBV_Container_base_aux@2@@Z PROC ; std::_Iterator_base_aux::_Set_container, COMDAT
; _this$ = ecx

; 452  : 		{

	push	ebp
	mov	ebp, esp
	push	ecx
	mov	DWORD PTR _this$[ebp], ecx

; 453  : 		_Myaux = _Pcont->_Myownedaux;

	mov	eax, DWORD PTR _this$[ebp]
	mov	ecx, DWORD PTR __Pcont$[ebp]
	mov	edx, DWORD PTR [ecx]
	mov	DWORD PTR [eax], edx

; 454  : 		}

	mov	esp, ebp
	pop	ebp
	ret	4
?_Set_container@_Iterator_base_aux@std@@QAEXQBV_Container_base_aux@2@@Z ENDP ; std::_Iterator_base_aux::_Set_container
; Function compile flags: /Odtp
; File d:\program files (x86)\microsoft visual studio 9.0\vc\include\vector
_TEXT	ENDS
;	COMDAT ??D?$_Vector_const_iterator@U_devicemodeA@@V?$allocator@U_devicemodeA@@@std@@@std@@QBEABU_devicemodeA@@XZ
_TEXT	SEGMENT
_this$ = -4						; size = 4
??D?$_Vector_const_iterator@U_devicemodeA@@V?$allocator@U_devicemodeA@@@std@@@std@@QBEABU_devicemodeA@@XZ PROC ; std::_Vector_const_iterator<_devicemodeA,std::allocator<_devicemodeA> >::operator*, COMDAT
; _this$ = ecx

; 91   : 		{	// return designated object

	push	ebp
	mov	ebp, esp
	push	ecx
	mov	DWORD PTR _this$[ebp], ecx

; 92   : 
; 93   :  #if _HAS_ITERATOR_DEBUGGING
; 94   : 		if (this->_Mycont == 0
; 95   : 			|| _Myptr < ((_Myvec *)this->_Mycont)->_Myfirst
; 96   : 			|| ((_Myvec *)this->_Mycont)->_Mylast <= _Myptr)
; 97   : 			{
; 98   : 			_DEBUG_ERROR("vector iterator not dereferencable");
; 99   : 			_SCL_SECURE_OUT_OF_RANGE;
; 100  : 			}
; 101  :  #else
; 102  :  		_SCL_SECURE_VALIDATE(this->_Has_container());

	mov	ecx, DWORD PTR _this$[ebp]
	call	?_Has_container@_Iterator_base_aux@std@@QBE_NXZ ; std::_Iterator_base_aux::_Has_container
	movzx	eax, al
	test	eax, eax
	jne	SHORT $LN2@operator@6
	call	DWORD PTR __imp___invalid_parameter_noinfo
$LN2@operator@6:

; 103  : 		_SCL_SECURE_VALIDATE_RANGE(_Myptr < ((_Myvec *)(this->_Getmycont()))->_Mylast);

	mov	ecx, DWORD PTR _this$[ebp]
	call	?_Getmycont@_Iterator_base_aux@std@@QBEPBV_Container_base_aux@2@XZ ; std::_Iterator_base_aux::_Getmycont
	mov	ecx, DWORD PTR _this$[ebp]
	mov	edx, DWORD PTR [ecx+4]
	cmp	edx, DWORD PTR [eax+16]
	jb	SHORT $LN1@operator@6
	call	DWORD PTR __imp___invalid_parameter_noinfo
$LN1@operator@6:

; 104  :  #endif /* _HAS_ITERATOR_DEBUGGING */
; 105  : 
; 106  : 		return (*_Myptr);

	mov	eax, DWORD PTR _this$[ebp]
	mov	eax, DWORD PTR [eax+4]

; 107  : 		}

	mov	esp, ebp
	pop	ebp
	ret	0
??D?$_Vector_const_iterator@U_devicemodeA@@V?$allocator@U_devicemodeA@@@std@@@std@@QBEABU_devicemodeA@@XZ ENDP ; std::_Vector_const_iterator<_devicemodeA,std::allocator<_devicemodeA> >::operator*
_TEXT	ENDS
;	COMDAT xdata$x
xdata$x	SEGMENT
__unwindtable$??0length_error@std@@QAE@ABV01@@Z DD 0ffffffffH
	DD	FLAT:__unwindfunclet$??0length_error@std@@QAE@ABV01@@Z$0
__ehfuncinfo$??0length_error@std@@QAE@ABV01@@Z DD 019930522H
	DD	01H
	DD	FLAT:__unwindtable$??0length_error@std@@QAE@ABV01@@Z
	DD	2 DUP(00H)
	DD	2 DUP(00H)
	DD	00H
	DD	00H
; Function compile flags: /Odtp
xdata$x	ENDS
;	COMDAT ??0length_error@std@@QAE@ABV01@@Z
_TEXT	SEGMENT
_this$ = -16						; size = 4
__$EHRec$ = -12						; size = 12
___that$ = 8						; size = 4
??0length_error@std@@QAE@ABV01@@Z PROC			; std::length_error::length_error, COMDAT
; _this$ = ecx
	push	ebp
	mov	ebp, esp
	push	-1
	push	__ehhandler$??0length_error@std@@QAE@ABV01@@Z
	mov	eax, DWORD PTR fs:0
	push	eax
	push	ecx
	mov	eax, DWORD PTR ___security_cookie
	xor	eax, ebp
	push	eax
	lea	eax, DWORD PTR __$EHRec$[ebp]
	mov	DWORD PTR fs:0, eax
	mov	DWORD PTR _this$[ebp], ecx
	mov	eax, DWORD PTR ___that$[ebp]
	push	eax
	mov	ecx, DWORD PTR _this$[ebp]
	call	??0logic_error@std@@QAE@ABV01@@Z
	mov	DWORD PTR __$EHRec$[ebp+8], 0
	mov	ecx, DWORD PTR _this$[ebp]
	mov	DWORD PTR [ecx], OFFSET ??_7length_error@std@@6B@
	mov	DWORD PTR __$EHRec$[ebp+8], -1
	mov	eax, DWORD PTR _this$[ebp]
	mov	ecx, DWORD PTR __$EHRec$[ebp]
	mov	DWORD PTR fs:0, ecx
	pop	ecx
	mov	esp, ebp
	pop	ebp
	ret	4
_TEXT	ENDS
;	COMDAT text$x
text$x	SEGMENT
__unwindfunclet$??0length_error@std@@QAE@ABV01@@Z$0:
	mov	ecx, DWORD PTR _this$[ebp]
	jmp	??1logic_error@std@@UAE@XZ		; std::logic_error::~logic_error
__ehhandler$??0length_error@std@@QAE@ABV01@@Z:
	mov	edx, DWORD PTR [esp+8]
	lea	eax, DWORD PTR [edx+12]
	mov	ecx, DWORD PTR [edx-8]
	xor	ecx, eax
	call	@__security_check_cookie@4
	mov	eax, OFFSET __ehfuncinfo$??0length_error@std@@QAE@ABV01@@Z
	jmp	___CxxFrameHandler3
text$x	ENDS
??0length_error@std@@QAE@ABV01@@Z ENDP			; std::length_error::length_error
PUBLIC	??0?$_Iterator_with_base@Urandom_access_iterator_tag@std@@U_devicemodeA@@HPBU3@ABU3@V_Iterator_base_aux@2@@std@@QAE@XZ ; std::_Iterator_with_base<std::random_access_iterator_tag,_devicemodeA,int,_devicemodeA const *,_devicemodeA const &,std::_Iterator_base_aux>::_Iterator_with_base<std::random_access_iterator_tag,_devicemodeA,int,_devicemodeA const *,_devicemodeA const &,std::_Iterator_base_aux>
; Function compile flags: /Odtp
;	COMDAT ??0?$_Ranit@U_devicemodeA@@HPBU1@ABU1@@std@@QAE@XZ
_TEXT	SEGMENT
_this$ = -4						; size = 4
??0?$_Ranit@U_devicemodeA@@HPBU1@ABU1@@std@@QAE@XZ PROC	; std::_Ranit<_devicemodeA,int,_devicemodeA const *,_devicemodeA const &>::_Ranit<_devicemodeA,int,_devicemodeA const *,_devicemodeA const &>, COMDAT
; _this$ = ecx
	push	ebp
	mov	ebp, esp
	push	ecx
	mov	DWORD PTR _this$[ebp], ecx
	mov	ecx, DWORD PTR _this$[ebp]
	call	??0?$_Iterator_with_base@Urandom_access_iterator_tag@std@@U_devicemodeA@@HPBU3@ABU3@V_Iterator_base_aux@2@@std@@QAE@XZ
	mov	eax, DWORD PTR _this$[ebp]
	mov	esp, ebp
	pop	ebp
	ret	0
??0?$_Ranit@U_devicemodeA@@HPBU1@ABU1@@std@@QAE@XZ ENDP	; std::_Ranit<_devicemodeA,int,_devicemodeA const *,_devicemodeA const &>::_Ranit<_devicemodeA,int,_devicemodeA const *,_devicemodeA const &>
_TEXT	ENDS
PUBLIC	??0_Iterator_base_aux@std@@QAE@XZ		; std::_Iterator_base_aux::_Iterator_base_aux
; Function compile flags: /Odtp
;	COMDAT ??0?$_Iterator_with_base@Urandom_access_iterator_tag@std@@U_devicemodeA@@HPBU3@ABU3@V_Iterator_base_aux@2@@std@@QAE@XZ
_TEXT	SEGMENT
_this$ = -4						; size = 4
??0?$_Iterator_with_base@Urandom_access_iterator_tag@std@@U_devicemodeA@@HPBU3@ABU3@V_Iterator_base_aux@2@@std@@QAE@XZ PROC ; std::_Iterator_with_base<std::random_access_iterator_tag,_devicemodeA,int,_devicemodeA const *,_devicemodeA const &,std::_Iterator_base_aux>::_Iterator_with_base<std::random_access_iterator_tag,_devicemodeA,int,_devicemodeA const *,_devicemodeA const &,std::_Iterator_base_aux>, COMDAT
; _this$ = ecx
	push	ebp
	mov	ebp, esp
	push	ecx
	mov	DWORD PTR _this$[ebp], ecx
	mov	ecx, DWORD PTR _this$[ebp]
	call	??0_Iterator_base_aux@std@@QAE@XZ	; std::_Iterator_base_aux::_Iterator_base_aux
	mov	eax, DWORD PTR _this$[ebp]
	mov	esp, ebp
	pop	ebp
	ret	0
??0?$_Iterator_with_base@Urandom_access_iterator_tag@std@@U_devicemodeA@@HPBU3@ABU3@V_Iterator_base_aux@2@@std@@QAE@XZ ENDP ; std::_Iterator_with_base<std::random_access_iterator_tag,_devicemodeA,int,_devicemodeA const *,_devicemodeA const &,std::_Iterator_base_aux>::_Iterator_with_base<std::random_access_iterator_tag,_devicemodeA,int,_devicemodeA const *,_devicemodeA const &,std::_Iterator_base_aux>
; Function compile flags: /Odtp
; File d:\program files (x86)\microsoft visual studio 9.0\vc\include\xutility
_TEXT	ENDS
;	COMDAT ??0_Iterator_base_aux@std@@QAE@XZ
_TEXT	SEGMENT
_this$ = -4						; size = 4
??0_Iterator_base_aux@std@@QAE@XZ PROC			; std::_Iterator_base_aux::_Iterator_base_aux, COMDAT
; _this$ = ecx

; 448  : 	_Iterator_base_aux()

	push	ebp
	mov	ebp, esp
	push	ecx
	mov	DWORD PTR _this$[ebp], ecx
	mov	eax, DWORD PTR _this$[ebp]
	mov	DWORD PTR [eax], 0
	mov	eax, DWORD PTR _this$[ebp]
	mov	esp, ebp
	pop	ebp
	ret	0
??0_Iterator_base_aux@std@@QAE@XZ ENDP			; std::_Iterator_base_aux::_Iterator_base_aux
; Function compile flags: /Odtp
; File d:\program files (x86)\microsoft visual studio 9.0\vc\include\xmemory
_TEXT	ENDS
;	COMDAT ?max_size@?$allocator@U_devicemodeA@@@std@@QBEIXZ
_TEXT	SEGMENT
tv65 = -12						; size = 4
_this$ = -8						; size = 4
__Count$ = -4						; size = 4
?max_size@?$allocator@U_devicemodeA@@@std@@QBEIXZ PROC	; std::allocator<_devicemodeA>::max_size, COMDAT
; _this$ = ecx

; 164  : 		{	// estimate maximum array size

	push	ebp
	mov	ebp, esp
	sub	esp, 12					; 0000000cH
	mov	DWORD PTR _this$[ebp], ecx

; 165  : 		_SIZT _Count = (_SIZT)(-1) / sizeof (_Ty);

	mov	DWORD PTR __Count$[ebp], 27531841	; 01a41a41H

; 166  : 		return (0 < _Count ? _Count : 1);

	cmp	DWORD PTR __Count$[ebp], 0
	jbe	SHORT $LN3@max_size
	mov	eax, DWORD PTR __Count$[ebp]
	mov	DWORD PTR tv65[ebp], eax
	jmp	SHORT $LN4@max_size
$LN3@max_size:
	mov	DWORD PTR tv65[ebp], 1
$LN4@max_size:
	mov	eax, DWORD PTR tv65[ebp]

; 167  : 		}

	mov	esp, ebp
	pop	ebp
	ret	0
?max_size@?$allocator@U_devicemodeA@@@std@@QBEIXZ ENDP	; std::allocator<_devicemodeA>::max_size
_TEXT	ENDS
PUBLIC	??Y?$_Vector_const_iterator@U_devicemodeA@@V?$allocator@U_devicemodeA@@@std@@@std@@QAEAAV01@H@Z ; std::_Vector_const_iterator<_devicemodeA,std::allocator<_devicemodeA> >::operator+=
; Function compile flags: /Odtp
; File d:\program files (x86)\microsoft visual studio 9.0\vc\include\vector
;	COMDAT ??Y?$_Vector_iterator@U_devicemodeA@@V?$allocator@U_devicemodeA@@@std@@@std@@QAEAAV01@H@Z
_TEXT	SEGMENT
_this$ = -4						; size = 4
__Off$ = 8						; size = 4
??Y?$_Vector_iterator@U_devicemodeA@@V?$allocator@U_devicemodeA@@@std@@@std@@QAEAAV01@H@Z PROC ; std::_Vector_iterator<_devicemodeA,std::allocator<_devicemodeA> >::operator+=, COMDAT
; _this$ = ecx

; 374  : 		{	// increment by integer

	push	ebp
	mov	ebp, esp
	push	ecx
	mov	DWORD PTR _this$[ebp], ecx

; 375  : 		(*(_Mybase *)this) += _Off;

	mov	eax, DWORD PTR __Off$[ebp]
	push	eax
	mov	ecx, DWORD PTR _this$[ebp]
	call	??Y?$_Vector_const_iterator@U_devicemodeA@@V?$allocator@U_devicemodeA@@@std@@@std@@QAEAAV01@H@Z ; std::_Vector_const_iterator<_devicemodeA,std::allocator<_devicemodeA> >::operator+=

; 376  : 		return (*this);

	mov	eax, DWORD PTR _this$[ebp]

; 377  : 		}

	mov	esp, ebp
	pop	ebp
	ret	4
??Y?$_Vector_iterator@U_devicemodeA@@V?$allocator@U_devicemodeA@@@std@@@std@@QAEAAV01@H@Z ENDP ; std::_Vector_iterator<_devicemodeA,std::allocator<_devicemodeA> >::operator+=
; Function compile flags: /Odtp
_TEXT	ENDS
;	COMDAT ??Y?$_Vector_const_iterator@U_devicemodeA@@V?$allocator@U_devicemodeA@@@std@@@std@@QAEAAV01@H@Z
_TEXT	SEGMENT
_this$ = -4						; size = 4
__Off$ = 8						; size = 4
??Y?$_Vector_const_iterator@U_devicemodeA@@V?$allocator@U_devicemodeA@@@std@@@std@@QAEAAV01@H@Z PROC ; std::_Vector_const_iterator<_devicemodeA,std::allocator<_devicemodeA> >::operator+=, COMDAT
; _this$ = ecx

; 159  : 		{	// increment by integer

	push	ebp
	mov	ebp, esp
	push	ecx
	push	esi
	mov	DWORD PTR _this$[ebp], ecx

; 160  : 		_SCL_SECURE_VALIDATE(this->_Has_container());

	mov	ecx, DWORD PTR _this$[ebp]
	call	?_Has_container@_Iterator_base_aux@std@@QBE_NXZ ; std::_Iterator_base_aux::_Has_container
	movzx	eax, al
	test	eax, eax
	jne	SHORT $LN3@operator@7
	call	DWORD PTR __imp___invalid_parameter_noinfo
$LN3@operator@7:

; 161  : 		_SCL_SECURE_VALIDATE_RANGE(

	mov	esi, DWORD PTR __Off$[ebp]
	imul	esi, 156				; 0000009cH
	mov	ecx, DWORD PTR _this$[ebp]
	add	esi, DWORD PTR [ecx+4]
	mov	ecx, DWORD PTR _this$[ebp]
	call	?_Getmycont@_Iterator_base_aux@std@@QBEPBV_Container_base_aux@2@XZ ; std::_Iterator_base_aux::_Getmycont
	cmp	esi, DWORD PTR [eax+16]
	ja	SHORT $LN1@operator@7
	mov	esi, DWORD PTR __Off$[ebp]
	imul	esi, 156				; 0000009cH
	mov	edx, DWORD PTR _this$[ebp]
	add	esi, DWORD PTR [edx+4]
	mov	ecx, DWORD PTR _this$[ebp]
	call	?_Getmycont@_Iterator_base_aux@std@@QBEPBV_Container_base_aux@2@XZ ; std::_Iterator_base_aux::_Getmycont
	cmp	esi, DWORD PTR [eax+12]
	jae	SHORT $LN2@operator@7
$LN1@operator@7:

; 162  : 			_Myptr + _Off <= ((_Myvec *)(this->_Getmycont()))->_Mylast &&
; 163  : 			_Myptr + _Off >= ((_Myvec *)(this->_Getmycont()))->_Myfirst);

	call	DWORD PTR __imp___invalid_parameter_noinfo
$LN2@operator@7:

; 164  : 		_Myptr += _Off;

	mov	eax, DWORD PTR __Off$[ebp]
	imul	eax, 156				; 0000009cH
	mov	ecx, DWORD PTR _this$[ebp]
	add	eax, DWORD PTR [ecx+4]
	mov	edx, DWORD PTR _this$[ebp]
	mov	DWORD PTR [edx+4], eax

; 165  : 		return (*this);

	mov	eax, DWORD PTR _this$[ebp]

; 166  : 		}

	pop	esi
	mov	esp, ebp
	pop	ebp
	ret	4
??Y?$_Vector_const_iterator@U_devicemodeA@@V?$allocator@U_devicemodeA@@@std@@@std@@QAEAAV01@H@Z ENDP ; std::_Vector_const_iterator<_devicemodeA,std::allocator<_devicemodeA> >::operator+=
_TEXT	ENDS
PUBLIC	??$_Sort@PAU_devicemodeA@@H@std@@YAXPAU_devicemodeA@@0H@Z ; std::_Sort<_devicemodeA *,int>
PUBLIC	??$_Checked_base@V?$_Vector_iterator@U_devicemodeA@@V?$allocator@U_devicemodeA@@@std@@@std@@@std@@YAPAU_devicemodeA@@AAV?$_Vector_iterator@U_devicemodeA@@V?$allocator@U_devicemodeA@@@std@@@0@@Z ; std::_Checked_base<std::_Vector_iterator<_devicemodeA,std::allocator<_devicemodeA> > >
; Function compile flags: /Odtp
; File d:\program files (x86)\microsoft visual studio 9.0\vc\include\algorithm
;	COMDAT ??$sort@V?$_Vector_iterator@U_devicemodeA@@V?$allocator@U_devicemodeA@@@std@@@std@@@std@@YAXV?$_Vector_iterator@U_devicemodeA@@V?$allocator@U_devicemodeA@@@std@@@0@0@Z
_TEXT	SEGMENT
__First$ = 8						; size = 8
__Last$ = 16						; size = 8
??$sort@V?$_Vector_iterator@U_devicemodeA@@V?$allocator@U_devicemodeA@@@std@@@std@@@std@@YAXV?$_Vector_iterator@U_devicemodeA@@V?$allocator@U_devicemodeA@@@std@@@0@0@Z PROC ; std::sort<std::_Vector_iterator<_devicemodeA,std::allocator<_devicemodeA> > >, COMDAT

; 3113 : 	{	// order [_First, _Last), using operator<

	push	ebp
	mov	ebp, esp

; 3114 : 	_DEBUG_RANGE(_First, _Last);
; 3115 : 	std::_Sort(_CHECKED_BASE(_First), _CHECKED_BASE(_Last), _Last - _First);

	lea	eax, DWORD PTR __First$[ebp]
	push	eax
	lea	ecx, DWORD PTR __Last$[ebp]
	call	??G?$_Vector_iterator@U_devicemodeA@@V?$allocator@U_devicemodeA@@@std@@@std@@QBEHABV?$_Vector_const_iterator@U_devicemodeA@@V?$allocator@U_devicemodeA@@@std@@@1@@Z ; std::_Vector_iterator<_devicemodeA,std::allocator<_devicemodeA> >::operator-
	push	eax
	lea	ecx, DWORD PTR __Last$[ebp]
	push	ecx
	call	??$_Checked_base@V?$_Vector_iterator@U_devicemodeA@@V?$allocator@U_devicemodeA@@@std@@@std@@@std@@YAPAU_devicemodeA@@AAV?$_Vector_iterator@U_devicemodeA@@V?$allocator@U_devicemodeA@@@std@@@0@@Z ; std::_Checked_base<std::_Vector_iterator<_devicemodeA,std::allocator<_devicemodeA> > >
	add	esp, 4
	push	eax
	lea	edx, DWORD PTR __First$[ebp]
	push	edx
	call	??$_Checked_base@V?$_Vector_iterator@U_devicemodeA@@V?$allocator@U_devicemodeA@@@std@@@std@@@std@@YAPAU_devicemodeA@@AAV?$_Vector_iterator@U_devicemodeA@@V?$allocator@U_devicemodeA@@@std@@@0@@Z ; std::_Checked_base<std::_Vector_iterator<_devicemodeA,std::allocator<_devicemodeA> > >
	add	esp, 4
	push	eax
	call	??$_Sort@PAU_devicemodeA@@H@std@@YAXPAU_devicemodeA@@0H@Z ; std::_Sort<_devicemodeA *,int>
	add	esp, 12					; 0000000cH

; 3116 : 	}

	pop	ebp
	ret	0
??$sort@V?$_Vector_iterator@U_devicemodeA@@V?$allocator@U_devicemodeA@@@std@@@std@@@std@@YAXV?$_Vector_iterator@U_devicemodeA@@V?$allocator@U_devicemodeA@@@std@@@0@0@Z ENDP ; std::sort<std::_Vector_iterator<_devicemodeA,std::allocator<_devicemodeA> > >
_TEXT	ENDS
PUBLIC	??$_Checked_assign_from_base@V?$_Vector_iterator@U_devicemodeA@@V?$allocator@U_devicemodeA@@@std@@@std@@PAU_devicemodeA@@@std@@YAXAAV?$_Vector_iterator@U_devicemodeA@@V?$allocator@U_devicemodeA@@@std@@@0@ABQAU_devicemodeA@@@Z ; std::_Checked_assign_from_base<std::_Vector_iterator<_devicemodeA,std::allocator<_devicemodeA> >,_devicemodeA *>
PUBLIC	??$_Unique@PAU_devicemodeA@@@std@@YAPAU_devicemodeA@@PAU1@0@Z ; std::_Unique<_devicemodeA *>
; Function compile flags: /Odtp
;	COMDAT ??$unique@V?$_Vector_iterator@U_devicemodeA@@V?$allocator@U_devicemodeA@@@std@@@std@@@std@@YA?AV?$_Vector_iterator@U_devicemodeA@@V?$allocator@U_devicemodeA@@@std@@@0@V10@0@Z
_TEXT	SEGMENT
$T123507 = -4						; size = 4
___$ReturnUdt$ = 8					; size = 4
__First$ = 12						; size = 8
__Last$ = 20						; size = 8
??$unique@V?$_Vector_iterator@U_devicemodeA@@V?$allocator@U_devicemodeA@@@std@@@std@@@std@@YA?AV?$_Vector_iterator@U_devicemodeA@@V?$allocator@U_devicemodeA@@@std@@@0@V10@0@Z PROC ; std::unique<std::_Vector_iterator<_devicemodeA,std::allocator<_devicemodeA> > >, COMDAT

; 1333 : 	{	// remove each matching previous

	push	ebp
	mov	ebp, esp
	push	ecx

; 1334 : 	_ASSIGN_FROM_BASE(_Last,

	lea	eax, DWORD PTR __Last$[ebp]
	push	eax
	call	??$_Checked_base@V?$_Vector_iterator@U_devicemodeA@@V?$allocator@U_devicemodeA@@@std@@@std@@@std@@YAPAU_devicemodeA@@AAV?$_Vector_iterator@U_devicemodeA@@V?$allocator@U_devicemodeA@@@std@@@0@@Z ; std::_Checked_base<std::_Vector_iterator<_devicemodeA,std::allocator<_devicemodeA> > >
	add	esp, 4
	push	eax
	lea	ecx, DWORD PTR __First$[ebp]
	push	ecx
	call	??$_Checked_base@V?$_Vector_iterator@U_devicemodeA@@V?$allocator@U_devicemodeA@@@std@@@std@@@std@@YAPAU_devicemodeA@@AAV?$_Vector_iterator@U_devicemodeA@@V?$allocator@U_devicemodeA@@@std@@@0@@Z ; std::_Checked_base<std::_Vector_iterator<_devicemodeA,std::allocator<_devicemodeA> > >
	add	esp, 4
	push	eax
	call	??$_Unique@PAU_devicemodeA@@@std@@YAPAU_devicemodeA@@PAU1@0@Z ; std::_Unique<_devicemodeA *>
	add	esp, 8
	mov	DWORD PTR $T123507[ebp], eax
	lea	edx, DWORD PTR $T123507[ebp]
	push	edx
	lea	eax, DWORD PTR __Last$[ebp]
	push	eax
	call	??$_Checked_assign_from_base@V?$_Vector_iterator@U_devicemodeA@@V?$allocator@U_devicemodeA@@@std@@@std@@PAU_devicemodeA@@@std@@YAXAAV?$_Vector_iterator@U_devicemodeA@@V?$allocator@U_devicemodeA@@@std@@@0@ABQAU_devicemodeA@@@Z ; std::_Checked_assign_from_base<std::_Vector_iterator<_devicemodeA,std::allocator<_devicemodeA> >,_devicemodeA *>
	add	esp, 8

; 1335 : 		_Unique(_CHECKED_BASE(_First), _CHECKED_BASE(_Last)));
; 1336 : 	return (_Last);

	mov	ecx, DWORD PTR ___$ReturnUdt$[ebp]
	mov	edx, DWORD PTR __Last$[ebp]
	mov	DWORD PTR [ecx], edx
	mov	eax, DWORD PTR __Last$[ebp+4]
	mov	DWORD PTR [ecx+4], eax
	mov	eax, DWORD PTR ___$ReturnUdt$[ebp]

; 1337 : 	}

	mov	esp, ebp
	pop	ebp
	ret	0
??$unique@V?$_Vector_iterator@U_devicemodeA@@V?$allocator@U_devicemodeA@@@std@@@std@@@std@@YA?AV?$_Vector_iterator@U_devicemodeA@@V?$allocator@U_devicemodeA@@@std@@@0@V10@0@Z ENDP ; std::unique<std::_Vector_iterator<_devicemodeA,std::allocator<_devicemodeA> > >
_TEXT	ENDS
PUBLIC	??$_Find@PAU_devicemodeA@@U1@@std@@YAPAU_devicemodeA@@PAU1@0ABU1@@Z ; std::_Find<_devicemodeA *,_devicemodeA>
; Function compile flags: /Odtp
;	COMDAT ??$find@V?$_Vector_iterator@U_devicemodeA@@V?$allocator@U_devicemodeA@@@std@@@std@@U_devicemodeA@@@std@@YA?AV?$_Vector_iterator@U_devicemodeA@@V?$allocator@U_devicemodeA@@@std@@@0@V10@0ABU_devicemodeA@@@Z
_TEXT	SEGMENT
$T123510 = -4						; size = 4
___$ReturnUdt$ = 8					; size = 4
__First$ = 12						; size = 8
__Last$ = 20						; size = 8
__Val$ = 28						; size = 4
??$find@V?$_Vector_iterator@U_devicemodeA@@V?$allocator@U_devicemodeA@@@std@@@std@@U_devicemodeA@@@std@@YA?AV?$_Vector_iterator@U_devicemodeA@@V?$allocator@U_devicemodeA@@@std@@@0@V10@0ABU_devicemodeA@@@Z PROC ; std::find<std::_Vector_iterator<_devicemodeA,std::allocator<_devicemodeA> >,_devicemodeA>, COMDAT

; 73   : 	{	// find first matching _Val

	push	ebp
	mov	ebp, esp
	push	ecx

; 74   : 	_ASSIGN_FROM_BASE(_First,

	mov	eax, DWORD PTR __Val$[ebp]
	push	eax
	lea	ecx, DWORD PTR __Last$[ebp]
	push	ecx
	call	??$_Checked_base@V?$_Vector_iterator@U_devicemodeA@@V?$allocator@U_devicemodeA@@@std@@@std@@@std@@YAPAU_devicemodeA@@AAV?$_Vector_iterator@U_devicemodeA@@V?$allocator@U_devicemodeA@@@std@@@0@@Z ; std::_Checked_base<std::_Vector_iterator<_devicemodeA,std::allocator<_devicemodeA> > >
	add	esp, 4
	push	eax
	lea	edx, DWORD PTR __First$[ebp]
	push	edx
	call	??$_Checked_base@V?$_Vector_iterator@U_devicemodeA@@V?$allocator@U_devicemodeA@@@std@@@std@@@std@@YAPAU_devicemodeA@@AAV?$_Vector_iterator@U_devicemodeA@@V?$allocator@U_devicemodeA@@@std@@@0@@Z ; std::_Checked_base<std::_Vector_iterator<_devicemodeA,std::allocator<_devicemodeA> > >
	add	esp, 4
	push	eax
	call	??$_Find@PAU_devicemodeA@@U1@@std@@YAPAU_devicemodeA@@PAU1@0ABU1@@Z ; std::_Find<_devicemodeA *,_devicemodeA>
	add	esp, 12					; 0000000cH
	mov	DWORD PTR $T123510[ebp], eax
	lea	eax, DWORD PTR $T123510[ebp]
	push	eax
	lea	ecx, DWORD PTR __First$[ebp]
	push	ecx
	call	??$_Checked_assign_from_base@V?$_Vector_iterator@U_devicemodeA@@V?$allocator@U_devicemodeA@@@std@@@std@@PAU_devicemodeA@@@std@@YAXAAV?$_Vector_iterator@U_devicemodeA@@V?$allocator@U_devicemodeA@@@std@@@0@ABQAU_devicemodeA@@@Z ; std::_Checked_assign_from_base<std::_Vector_iterator<_devicemodeA,std::allocator<_devicemodeA> >,_devicemodeA *>
	add	esp, 8

; 75   : 		_Find(_CHECKED_BASE(_First), _CHECKED_BASE(_Last), _Val));
; 76   : 	return (_First);

	mov	edx, DWORD PTR ___$ReturnUdt$[ebp]
	mov	eax, DWORD PTR __First$[ebp]
	mov	DWORD PTR [edx], eax
	mov	ecx, DWORD PTR __First$[ebp+4]
	mov	DWORD PTR [edx+4], ecx
	mov	eax, DWORD PTR ___$ReturnUdt$[ebp]

; 77   : 	}

	mov	esp, ebp
	pop	ebp
	ret	0
??$find@V?$_Vector_iterator@U_devicemodeA@@V?$allocator@U_devicemodeA@@@std@@@std@@U_devicemodeA@@@std@@YA?AV?$_Vector_iterator@U_devicemodeA@@V?$allocator@U_devicemodeA@@@std@@@0@V10@0ABU_devicemodeA@@@Z ENDP ; std::find<std::_Vector_iterator<_devicemodeA,std::allocator<_devicemodeA> >,_devicemodeA>
_TEXT	ENDS
PUBLIC	??$_Lower_bound@PAU_devicemodeA@@U1@H@std@@YAPAU_devicemodeA@@PAU1@0ABU1@PAH@Z ; std::_Lower_bound<_devicemodeA *,_devicemodeA,int>
PUBLIC	??$_Dist_type@V?$_Vector_iterator@U_devicemodeA@@V?$allocator@U_devicemodeA@@@std@@@std@@@std@@YAPAHV?$_Vector_iterator@U_devicemodeA@@V?$allocator@U_devicemodeA@@@std@@@0@@Z ; std::_Dist_type<std::_Vector_iterator<_devicemodeA,std::allocator<_devicemodeA> > >
; Function compile flags: /Odtp
;	COMDAT ??$lower_bound@V?$_Vector_iterator@U_devicemodeA@@V?$allocator@U_devicemodeA@@@std@@@std@@U_devicemodeA@@@std@@YA?AV?$_Vector_iterator@U_devicemodeA@@V?$allocator@U_devicemodeA@@@std@@@0@V10@0ABU_devicemodeA@@@Z
_TEXT	SEGMENT
$T123513 = -4						; size = 4
___$ReturnUdt$ = 8					; size = 4
__First$ = 12						; size = 8
__Last$ = 20						; size = 8
__Val$ = 28						; size = 4
??$lower_bound@V?$_Vector_iterator@U_devicemodeA@@V?$allocator@U_devicemodeA@@@std@@@std@@U_devicemodeA@@@std@@YA?AV?$_Vector_iterator@U_devicemodeA@@V?$allocator@U_devicemodeA@@@std@@@0@V10@0ABU_devicemodeA@@@Z PROC ; std::lower_bound<std::_Vector_iterator<_devicemodeA,std::allocator<_devicemodeA> >,_devicemodeA>, COMDAT

; 2275 : 	{	// find first element not before _Val, using operator<

	push	ebp
	mov	ebp, esp
	push	ecx

; 2276 : 	_ASSIGN_FROM_BASE(_First,

	mov	eax, DWORD PTR __First$[ebp+4]
	push	eax
	mov	ecx, DWORD PTR __First$[ebp]
	push	ecx
	call	??$_Dist_type@V?$_Vector_iterator@U_devicemodeA@@V?$allocator@U_devicemodeA@@@std@@@std@@@std@@YAPAHV?$_Vector_iterator@U_devicemodeA@@V?$allocator@U_devicemodeA@@@std@@@0@@Z ; std::_Dist_type<std::_Vector_iterator<_devicemodeA,std::allocator<_devicemodeA> > >
	add	esp, 8
	push	eax
	mov	edx, DWORD PTR __Val$[ebp]
	push	edx
	lea	eax, DWORD PTR __Last$[ebp]
	push	eax
	call	??$_Checked_base@V?$_Vector_iterator@U_devicemodeA@@V?$allocator@U_devicemodeA@@@std@@@std@@@std@@YAPAU_devicemodeA@@AAV?$_Vector_iterator@U_devicemodeA@@V?$allocator@U_devicemodeA@@@std@@@0@@Z ; std::_Checked_base<std::_Vector_iterator<_devicemodeA,std::allocator<_devicemodeA> > >
	add	esp, 4
	push	eax
	lea	ecx, DWORD PTR __First$[ebp]
	push	ecx
	call	??$_Checked_base@V?$_Vector_iterator@U_devicemodeA@@V?$allocator@U_devicemodeA@@@std@@@std@@@std@@YAPAU_devicemodeA@@AAV?$_Vector_iterator@U_devicemodeA@@V?$allocator@U_devicemodeA@@@std@@@0@@Z ; std::_Checked_base<std::_Vector_iterator<_devicemodeA,std::allocator<_devicemodeA> > >
	add	esp, 4
	push	eax
	call	??$_Lower_bound@PAU_devicemodeA@@U1@H@std@@YAPAU_devicemodeA@@PAU1@0ABU1@PAH@Z ; std::_Lower_bound<_devicemodeA *,_devicemodeA,int>
	add	esp, 16					; 00000010H
	mov	DWORD PTR $T123513[ebp], eax
	lea	edx, DWORD PTR $T123513[ebp]
	push	edx
	lea	eax, DWORD PTR __First$[ebp]
	push	eax
	call	??$_Checked_assign_from_base@V?$_Vector_iterator@U_devicemodeA@@V?$allocator@U_devicemodeA@@@std@@@std@@PAU_devicemodeA@@@std@@YAXAAV?$_Vector_iterator@U_devicemodeA@@V?$allocator@U_devicemodeA@@@std@@@0@ABQAU_devicemodeA@@@Z ; std::_Checked_assign_from_base<std::_Vector_iterator<_devicemodeA,std::allocator<_devicemodeA> >,_devicemodeA *>
	add	esp, 8

; 2277 : 		_Lower_bound(_CHECKED_BASE(_First), _CHECKED_BASE(_Last), _Val, _Dist_type(_First)));
; 2278 : 	return _First;

	mov	ecx, DWORD PTR ___$ReturnUdt$[ebp]
	mov	edx, DWORD PTR __First$[ebp]
	mov	DWORD PTR [ecx], edx
	mov	eax, DWORD PTR __First$[ebp+4]
	mov	DWORD PTR [ecx+4], eax
	mov	eax, DWORD PTR ___$ReturnUdt$[ebp]

; 2279 : 	}

	mov	esp, ebp
	pop	ebp
	ret	0
??$lower_bound@V?$_Vector_iterator@U_devicemodeA@@V?$allocator@U_devicemodeA@@@std@@@std@@U_devicemodeA@@@std@@YA?AV?$_Vector_iterator@U_devicemodeA@@V?$allocator@U_devicemodeA@@@std@@@0@V10@0ABU_devicemodeA@@@Z ENDP ; std::lower_bound<std::_Vector_iterator<_devicemodeA,std::allocator<_devicemodeA> >,_devicemodeA>
; Function compile flags: /Odtp
_TEXT	ENDS
;	COMDAT ??$binary_search@V?$_Vector_iterator@U_devicemodeA@@V?$allocator@U_devicemodeA@@@std@@@std@@U_devicemodeA@@@std@@YA_NV?$_Vector_iterator@U_devicemodeA@@V?$allocator@U_devicemodeA@@@std@@@0@0ABU_devicemodeA@@@Z
_TEXT	SEGMENT
tv90 = -12						; size = 4
$T123516 = -8						; size = 8
__First$ = 8						; size = 8
__Last$ = 16						; size = 8
__Val$ = 24						; size = 4
??$binary_search@V?$_Vector_iterator@U_devicemodeA@@V?$allocator@U_devicemodeA@@@std@@@std@@U_devicemodeA@@@std@@YA_NV?$_Vector_iterator@U_devicemodeA@@V?$allocator@U_devicemodeA@@@std@@@0@0ABU_devicemodeA@@@Z PROC ; std::binary_search<std::_Vector_iterator<_devicemodeA,std::allocator<_devicemodeA> >,_devicemodeA>, COMDAT

; 2487 : 	{	// test if _Val equivalent to some element, using operator<

	push	ebp
	mov	ebp, esp
	sub	esp, 12					; 0000000cH

; 2488 : 	_First = std::lower_bound(_First, _Last, _Val);

	mov	eax, DWORD PTR __Val$[ebp]
	push	eax
	mov	ecx, DWORD PTR __Last$[ebp+4]
	push	ecx
	mov	edx, DWORD PTR __Last$[ebp]
	push	edx
	mov	eax, DWORD PTR __First$[ebp+4]
	push	eax
	mov	ecx, DWORD PTR __First$[ebp]
	push	ecx
	lea	edx, DWORD PTR $T123516[ebp]
	push	edx
	call	??$lower_bound@V?$_Vector_iterator@U_devicemodeA@@V?$allocator@U_devicemodeA@@@std@@@std@@U_devicemodeA@@@std@@YA?AV?$_Vector_iterator@U_devicemodeA@@V?$allocator@U_devicemodeA@@@std@@@0@V10@0ABU_devicemodeA@@@Z ; std::lower_bound<std::_Vector_iterator<_devicemodeA,std::allocator<_devicemodeA> >,_devicemodeA>
	add	esp, 24					; 00000018H
	mov	ecx, DWORD PTR [eax]
	mov	edx, DWORD PTR [eax+4]
	mov	DWORD PTR __First$[ebp], ecx
	mov	DWORD PTR __First$[ebp+4], edx

; 2489 : 	return (_First != _Last && !(_Val < *_First));

	lea	eax, DWORD PTR __Last$[ebp]
	push	eax
	lea	ecx, DWORD PTR __First$[ebp]
	call	??9?$_Vector_const_iterator@U_devicemodeA@@V?$allocator@U_devicemodeA@@@std@@@std@@QBE_NABV01@@Z ; std::_Vector_const_iterator<_devicemodeA,std::allocator<_devicemodeA> >::operator!=
	movzx	ecx, al
	test	ecx, ecx
	je	SHORT $LN3@binary_sea
	lea	ecx, DWORD PTR __First$[ebp]
	call	??D?$_Vector_iterator@U_devicemodeA@@V?$allocator@U_devicemodeA@@@std@@@std@@QBEAAU_devicemodeA@@XZ ; std::_Vector_iterator<_devicemodeA,std::allocator<_devicemodeA> >::operator*
	push	eax
	mov	edx, DWORD PTR __Val$[ebp]
	push	edx
	call	??M@YA_NABU_devicemodeA@@0@Z		; operator<
	add	esp, 8
	movzx	eax, al
	test	eax, eax
	jne	SHORT $LN3@binary_sea
	mov	DWORD PTR tv90[ebp], 1
	jmp	SHORT $LN4@binary_sea
$LN3@binary_sea:
	mov	DWORD PTR tv90[ebp], 0
$LN4@binary_sea:
	mov	al, BYTE PTR tv90[ebp]

; 2490 : 	}

	mov	esp, ebp
	pop	ebp
	ret	0
??$binary_search@V?$_Vector_iterator@U_devicemodeA@@V?$allocator@U_devicemodeA@@@std@@@std@@U_devicemodeA@@@std@@YA_NV?$_Vector_iterator@U_devicemodeA@@V?$allocator@U_devicemodeA@@@std@@@0@0ABU_devicemodeA@@@Z ENDP ; std::binary_search<std::_Vector_iterator<_devicemodeA,std::allocator<_devicemodeA> >,_devicemodeA>
_TEXT	ENDS
PUBLIC	??$_Copy_opt@PAU_devicemodeA@@PAU1@@std@@YAPAU_devicemodeA@@PAU1@00Urandom_access_iterator_tag@0@U_Nonscalar_ptr_iterator_tag@0@U_Range_checked_iterator_tag@0@@Z ; std::_Copy_opt<_devicemodeA *,_devicemodeA *>
PUBLIC	??$_Checked_base@PAU_devicemodeA@@@std@@YAPAU_devicemodeA@@AAPAU1@@Z ; std::_Checked_base<_devicemodeA *>
PUBLIC	??$_Iter_random@PAU_devicemodeA@@PAU1@@std@@YA?AUrandom_access_iterator_tag@0@ABQAU_devicemodeA@@0@Z ; std::_Iter_random<_devicemodeA *,_devicemodeA *>
PUBLIC	??$_Ptr_cat@PAU_devicemodeA@@PAU1@@std@@YA?AU_Nonscalar_ptr_iterator_tag@0@AAPAU_devicemodeA@@0@Z ; std::_Ptr_cat<_devicemodeA *,_devicemodeA *>
; Function compile flags: /Odtp
; File d:\program files (x86)\microsoft visual studio 9.0\vc\include\xutility
;	COMDAT ??$unchecked_copy@PAU_devicemodeA@@PAU1@@stdext@@YAPAU_devicemodeA@@PAU1@00@Z
_TEXT	SEGMENT
$T123523 = -3						; size = 1
$T123522 = -2						; size = 1
$T123521 = -1						; size = 1
__First$ = 8						; size = 4
__Last$ = 12						; size = 4
__Dest$ = 16						; size = 4
??$unchecked_copy@PAU_devicemodeA@@PAU1@@stdext@@YAPAU_devicemodeA@@PAU1@00@Z PROC ; stdext::unchecked_copy<_devicemodeA *,_devicemodeA *>, COMDAT

; 3604 : 	{	// copy [_First, _Last) to [_Dest, ...)

	push	ebp
	mov	ebp, esp
	push	ecx

; 3605 : 		return (_STD _Copy_opt(_CHECKED_BASE(_First), _CHECKED_BASE(_Last), _Dest,
; 3606 : 			_STD _Iter_random(_First, _Dest), _STD _Ptr_cat(_First, _Dest), _STD _Range_checked_iterator_tag()));

	xor	eax, eax
	mov	BYTE PTR $T123521[ebp], al
	lea	ecx, DWORD PTR __Dest$[ebp]
	push	ecx
	lea	edx, DWORD PTR __First$[ebp]
	push	edx
	call	??$_Ptr_cat@PAU_devicemodeA@@PAU1@@std@@YA?AU_Nonscalar_ptr_iterator_tag@0@AAPAU_devicemodeA@@0@Z ; std::_Ptr_cat<_devicemodeA *,_devicemodeA *>
	add	esp, 8
	mov	BYTE PTR $T123522[ebp], al
	movzx	eax, BYTE PTR $T123521[ebp]
	push	eax
	movzx	ecx, BYTE PTR $T123522[ebp]
	push	ecx
	lea	edx, DWORD PTR __Dest$[ebp]
	push	edx
	lea	eax, DWORD PTR __First$[ebp]
	push	eax
	lea	ecx, DWORD PTR $T123523[ebp]
	push	ecx
	call	??$_Iter_random@PAU_devicemodeA@@PAU1@@std@@YA?AUrandom_access_iterator_tag@0@ABQAU_devicemodeA@@0@Z ; std::_Iter_random<_devicemodeA *,_devicemodeA *>
	add	esp, 12					; 0000000cH
	movzx	edx, BYTE PTR [eax]
	push	edx
	mov	eax, DWORD PTR __Dest$[ebp]
	push	eax
	lea	ecx, DWORD PTR __Last$[ebp]
	push	ecx
	call	??$_Checked_base@PAU_devicemodeA@@@std@@YAPAU_devicemodeA@@AAPAU1@@Z ; std::_Checked_base<_devicemodeA *>
	add	esp, 4
	push	eax
	lea	edx, DWORD PTR __First$[ebp]
	push	edx
	call	??$_Checked_base@PAU_devicemodeA@@@std@@YAPAU_devicemodeA@@AAPAU1@@Z ; std::_Checked_base<_devicemodeA *>
	add	esp, 4
	push	eax
	call	??$_Copy_opt@PAU_devicemodeA@@PAU1@@std@@YAPAU_devicemodeA@@PAU1@00Urandom_access_iterator_tag@0@U_Nonscalar_ptr_iterator_tag@0@U_Range_checked_iterator_tag@0@@Z ; std::_Copy_opt<_devicemodeA *,_devicemodeA *>
	add	esp, 24					; 00000018H

; 3607 : 	}

	mov	esp, ebp
	pop	ebp
	ret	0
??$unchecked_copy@PAU_devicemodeA@@PAU1@@stdext@@YAPAU_devicemodeA@@PAU1@00@Z ENDP ; stdext::unchecked_copy<_devicemodeA *,_devicemodeA *>
_TEXT	ENDS
PUBLIC	??$_Uninit_fill_n@PAU_devicemodeA@@IU1@V?$allocator@U_devicemodeA@@@std@@@std@@YAXPAU_devicemodeA@@IABU1@AAV?$allocator@U_devicemodeA@@@0@U_Nonscalar_ptr_iterator_tag@0@U_Range_checked_iterator_tag@0@@Z ; std::_Uninit_fill_n<_devicemodeA *,unsigned int,_devicemodeA,std::allocator<_devicemodeA> >
; Function compile flags: /Odtp
; File d:\program files (x86)\microsoft visual studio 9.0\vc\include\memory
;	COMDAT ??$unchecked_uninitialized_fill_n@PAU_devicemodeA@@IU1@V?$allocator@U_devicemodeA@@@std@@@stdext@@YAXPAU_devicemodeA@@IABU1@AAV?$allocator@U_devicemodeA@@@std@@@Z
_TEXT	SEGMENT
$T123527 = -2						; size = 1
$T123526 = -1						; size = 1
__First$ = 8						; size = 4
__Count$ = 12						; size = 4
__Val$ = 16						; size = 4
__Al$ = 20						; size = 4
??$unchecked_uninitialized_fill_n@PAU_devicemodeA@@IU1@V?$allocator@U_devicemodeA@@@std@@@stdext@@YAXPAU_devicemodeA@@IABU1@AAV?$allocator@U_devicemodeA@@@std@@@Z PROC ; stdext::unchecked_uninitialized_fill_n<_devicemodeA *,unsigned int,_devicemodeA,std::allocator<_devicemodeA> >, COMDAT

; 940  : 	{	// copy _Count *_Val to raw _First, using _Al

	push	ebp
	mov	ebp, esp
	push	ecx

; 941  : 	_STD _Uninit_fill_n(_First, _Count, _Val, _Al,
; 942  : 		_STD _Ptr_cat(_First, _First), _STD _Range_checked_iterator_tag());

	xor	eax, eax
	mov	BYTE PTR $T123526[ebp], al
	lea	ecx, DWORD PTR __First$[ebp]
	push	ecx
	lea	edx, DWORD PTR __First$[ebp]
	push	edx
	call	??$_Ptr_cat@PAU_devicemodeA@@PAU1@@std@@YA?AU_Nonscalar_ptr_iterator_tag@0@AAPAU_devicemodeA@@0@Z ; std::_Ptr_cat<_devicemodeA *,_devicemodeA *>
	add	esp, 8
	mov	BYTE PTR $T123527[ebp], al
	movzx	eax, BYTE PTR $T123526[ebp]
	push	eax
	movzx	ecx, BYTE PTR $T123527[ebp]
	push	ecx
	mov	edx, DWORD PTR __Al$[ebp]
	push	edx
	mov	eax, DWORD PTR __Val$[ebp]
	push	eax
	mov	ecx, DWORD PTR __Count$[ebp]
	push	ecx
	mov	edx, DWORD PTR __First$[ebp]
	push	edx
	call	??$_Uninit_fill_n@PAU_devicemodeA@@IU1@V?$allocator@U_devicemodeA@@@std@@@std@@YAXPAU_devicemodeA@@IABU1@AAV?$allocator@U_devicemodeA@@@0@U_Nonscalar_ptr_iterator_tag@0@U_Range_checked_iterator_tag@0@@Z ; std::_Uninit_fill_n<_devicemodeA *,unsigned int,_devicemodeA,std::allocator<_devicemodeA> >
	add	esp, 24					; 00000018H

; 943  : 	}

	mov	esp, ebp
	pop	ebp
	ret	0
??$unchecked_uninitialized_fill_n@PAU_devicemodeA@@IU1@V?$allocator@U_devicemodeA@@@std@@@stdext@@YAXPAU_devicemodeA@@IABU1@AAV?$allocator@U_devicemodeA@@@std@@@Z ENDP ; stdext::unchecked_uninitialized_fill_n<_devicemodeA *,unsigned int,_devicemodeA,std::allocator<_devicemodeA> >
_TEXT	ENDS
PUBLIC	??$_Destroy_range@V?$allocator@U_devicemodeA@@@std@@@std@@YAXPAU_devicemodeA@@0AAV?$allocator@U_devicemodeA@@@0@U_Nonscalar_ptr_iterator_tag@0@@Z ; std::_Destroy_range<std::allocator<_devicemodeA> >
; Function compile flags: /Odtp
; File d:\program files (x86)\microsoft visual studio 9.0\vc\include\xmemory
;	COMDAT ??$_Destroy_range@V?$allocator@U_devicemodeA@@@std@@@std@@YAXPAU_devicemodeA@@0AAV?$allocator@U_devicemodeA@@@0@@Z
_TEXT	SEGMENT
$T123530 = -1						; size = 1
__First$ = 8						; size = 4
__Last$ = 12						; size = 4
__Al$ = 16						; size = 4
??$_Destroy_range@V?$allocator@U_devicemodeA@@@std@@@std@@YAXPAU_devicemodeA@@0AAV?$allocator@U_devicemodeA@@@0@@Z PROC ; std::_Destroy_range<std::allocator<_devicemodeA> >, COMDAT

; 224  : 	{	// destroy [_First, _Last)

	push	ebp
	mov	ebp, esp
	push	ecx

; 225  : 	_Destroy_range(_First, _Last, _Al, _Ptr_cat(_First, _Last));

	lea	eax, DWORD PTR __Last$[ebp]
	push	eax
	lea	ecx, DWORD PTR __First$[ebp]
	push	ecx
	call	??$_Ptr_cat@PAU_devicemodeA@@PAU1@@std@@YA?AU_Nonscalar_ptr_iterator_tag@0@AAPAU_devicemodeA@@0@Z ; std::_Ptr_cat<_devicemodeA *,_devicemodeA *>
	add	esp, 8
	mov	BYTE PTR $T123530[ebp], al
	movzx	edx, BYTE PTR $T123530[ebp]
	push	edx
	mov	eax, DWORD PTR __Al$[ebp]
	push	eax
	mov	ecx, DWORD PTR __Last$[ebp]
	push	ecx
	mov	edx, DWORD PTR __First$[ebp]
	push	edx
	call	??$_Destroy_range@V?$allocator@U_devicemodeA@@@std@@@std@@YAXPAU_devicemodeA@@0AAV?$allocator@U_devicemodeA@@@0@U_Nonscalar_ptr_iterator_tag@0@@Z ; std::_Destroy_range<std::allocator<_devicemodeA> >
	add	esp, 16					; 00000010H

; 226  : 	}

	mov	esp, ebp
	pop	ebp
	ret	0
??$_Destroy_range@V?$allocator@U_devicemodeA@@@std@@@std@@YAXPAU_devicemodeA@@0AAV?$allocator@U_devicemodeA@@@0@@Z ENDP ; std::_Destroy_range<std::allocator<_devicemodeA> >
_TEXT	ENDS
PUBLIC	??$_Unchecked_uninitialized_move@PAU_devicemodeA@@PAU1@V?$allocator@U_devicemodeA@@@std@@@stdext@@YAPAU_devicemodeA@@PAU1@00AAV?$allocator@U_devicemodeA@@@std@@@Z ; stdext::_Unchecked_uninitialized_move<_devicemodeA *,_devicemodeA *,std::allocator<_devicemodeA> >
; Function compile flags: /Odtp
; File d:\program files (x86)\microsoft visual studio 9.0\vc\include\vector
;	COMDAT ??$_Umove@PAU_devicemodeA@@@?$vector@U_devicemodeA@@V?$allocator@U_devicemodeA@@@std@@@std@@IAEPAU_devicemodeA@@PAU2@00@Z
_TEXT	SEGMENT
_this$ = -4						; size = 4
__First$ = 8						; size = 4
__Last$ = 12						; size = 4
__Ptr$ = 16						; size = 4
??$_Umove@PAU_devicemodeA@@@?$vector@U_devicemodeA@@V?$allocator@U_devicemodeA@@@std@@@std@@IAEPAU_devicemodeA@@PAU2@00@Z PROC ; std::vector<_devicemodeA,std::allocator<_devicemodeA> >::_Umove<_devicemodeA *>, COMDAT
; _this$ = ecx

; 1145 : 		pointer _Umove(_Iter _First, _Iter _Last, pointer _Ptr)

	push	ebp
	mov	ebp, esp
	push	ecx
	mov	DWORD PTR _this$[ebp], ecx

; 1146 : 		{	// move initializing [_First, _Last), using allocator
; 1147 : 		return (_STDEXT _Unchecked_uninitialized_move(_First, _Last,
; 1148 : 			_Ptr, this->_Alval));

	mov	eax, DWORD PTR _this$[ebp]
	add	eax, 8
	push	eax
	mov	ecx, DWORD PTR __Ptr$[ebp]
	push	ecx
	mov	edx, DWORD PTR __Last$[ebp]
	push	edx
	mov	eax, DWORD PTR __First$[ebp]
	push	eax
	call	??$_Unchecked_uninitialized_move@PAU_devicemodeA@@PAU1@V?$allocator@U_devicemodeA@@@std@@@stdext@@YAPAU_devicemodeA@@PAU1@00AAV?$allocator@U_devicemodeA@@@std@@@Z ; stdext::_Unchecked_uninitialized_move<_devicemodeA *,_devicemodeA *,std::allocator<_devicemodeA> >
	add	esp, 16					; 00000010H

; 1149 : 		}

	mov	esp, ebp
	pop	ebp
	ret	12					; 0000000cH
??$_Umove@PAU_devicemodeA@@@?$vector@U_devicemodeA@@V?$allocator@U_devicemodeA@@@std@@@std@@IAEPAU_devicemodeA@@PAU2@00@Z ENDP ; std::vector<_devicemodeA,std::allocator<_devicemodeA> >::_Umove<_devicemodeA *>
_TEXT	ENDS
PUBLIC	??$_Fill@PAU_devicemodeA@@U1@@std@@YAXPAU_devicemodeA@@0ABU1@@Z ; std::_Fill<_devicemodeA *,_devicemodeA>
; Function compile flags: /Odtp
; File d:\program files (x86)\microsoft visual studio 9.0\vc\include\xutility
;	COMDAT ??$fill@PAU_devicemodeA@@U1@@std@@YAXPAU_devicemodeA@@0ABU1@@Z
_TEXT	SEGMENT
__First$ = 8						; size = 4
__Last$ = 12						; size = 4
__Val$ = 16						; size = 4
??$fill@PAU_devicemodeA@@U1@@std@@YAXPAU_devicemodeA@@0ABU1@@Z PROC ; std::fill<_devicemodeA *,_devicemodeA>, COMDAT

; 3186 : 	{	// copy _Val through [_First, _Last)

	push	ebp
	mov	ebp, esp

; 3187 : 	_Fill(_CHECKED_BASE(_First), _CHECKED_BASE(_Last), _Val);

	mov	eax, DWORD PTR __Val$[ebp]
	push	eax
	lea	ecx, DWORD PTR __Last$[ebp]
	push	ecx
	call	??$_Checked_base@PAU_devicemodeA@@@std@@YAPAU_devicemodeA@@AAPAU1@@Z ; std::_Checked_base<_devicemodeA *>
	add	esp, 4
	push	eax
	lea	edx, DWORD PTR __First$[ebp]
	push	edx
	call	??$_Checked_base@PAU_devicemodeA@@@std@@YAPAU_devicemodeA@@AAPAU1@@Z ; std::_Checked_base<_devicemodeA *>
	add	esp, 4
	push	eax
	call	??$_Fill@PAU_devicemodeA@@U1@@std@@YAXPAU_devicemodeA@@0ABU1@@Z ; std::_Fill<_devicemodeA *,_devicemodeA>
	add	esp, 12					; 0000000cH

; 3188 : 	}

	pop	ebp
	ret	0
??$fill@PAU_devicemodeA@@U1@@std@@YAXPAU_devicemodeA@@0ABU1@@Z ENDP ; std::fill<_devicemodeA *,_devicemodeA>
_TEXT	ENDS
PUBLIC	??$_Move_backward_opt@PAU_devicemodeA@@PAU1@Urandom_access_iterator_tag@std@@U_Undefined_move_tag@3@@std@@YAPAU_devicemodeA@@PAU1@00Urandom_access_iterator_tag@0@U_Undefined_move_tag@0@U_Range_checked_iterator_tag@0@@Z ; std::_Move_backward_opt<_devicemodeA *,_devicemodeA *,std::random_access_iterator_tag,std::_Undefined_move_tag>
PUBLIC	??$_Move_cat@PAU_devicemodeA@@@std@@YA?AU_Undefined_move_tag@0@ABQAU_devicemodeA@@@Z ; std::_Move_cat<_devicemodeA *>
; Function compile flags: /Odtp
;	COMDAT ??$_Unchecked_move_backward@PAU_devicemodeA@@PAU1@@stdext@@YAPAU_devicemodeA@@PAU1@00@Z
_TEXT	SEGMENT
$T123539 = -3						; size = 1
$T123538 = -2						; size = 1
$T123537 = -1						; size = 1
__First$ = 8						; size = 4
__Last$ = 12						; size = 4
__Dest$ = 16						; size = 4
??$_Unchecked_move_backward@PAU_devicemodeA@@PAU1@@stdext@@YAPAU_devicemodeA@@PAU1@00@Z PROC ; stdext::_Unchecked_move_backward<_devicemodeA *,_devicemodeA *>, COMDAT

; 3694 : 	{	// move [_First, _Last) backwards to [..., _Dest)

	push	ebp
	mov	ebp, esp
	push	ecx

; 3695 : 		return (_STD _Move_backward_opt(_CHECKED_BASE(_First), _CHECKED_BASE(_Last), _Dest,
; 3696 : 			_STD _Iter_random(_First, _Dest), _STD _Move_cat(_Dest), _STD _Range_checked_iterator_tag()));

	xor	eax, eax
	mov	BYTE PTR $T123537[ebp], al
	lea	ecx, DWORD PTR __Dest$[ebp]
	push	ecx
	call	??$_Move_cat@PAU_devicemodeA@@@std@@YA?AU_Undefined_move_tag@0@ABQAU_devicemodeA@@@Z ; std::_Move_cat<_devicemodeA *>
	add	esp, 4
	mov	BYTE PTR $T123538[ebp], al
	movzx	edx, BYTE PTR $T123537[ebp]
	push	edx
	movzx	eax, BYTE PTR $T123538[ebp]
	push	eax
	lea	ecx, DWORD PTR __Dest$[ebp]
	push	ecx
	lea	edx, DWORD PTR __First$[ebp]
	push	edx
	lea	eax, DWORD PTR $T123539[ebp]
	push	eax
	call	??$_Iter_random@PAU_devicemodeA@@PAU1@@std@@YA?AUrandom_access_iterator_tag@0@ABQAU_devicemodeA@@0@Z ; std::_Iter_random<_devicemodeA *,_devicemodeA *>
	add	esp, 12					; 0000000cH
	movzx	ecx, BYTE PTR [eax]
	push	ecx
	mov	edx, DWORD PTR __Dest$[ebp]
	push	edx
	lea	eax, DWORD PTR __Last$[ebp]
	push	eax
	call	??$_Checked_base@PAU_devicemodeA@@@std@@YAPAU_devicemodeA@@AAPAU1@@Z ; std::_Checked_base<_devicemodeA *>
	add	esp, 4
	push	eax
	lea	ecx, DWORD PTR __First$[ebp]
	push	ecx
	call	??$_Checked_base@PAU_devicemodeA@@@std@@YAPAU_devicemodeA@@AAPAU1@@Z ; std::_Checked_base<_devicemodeA *>
	add	esp, 4
	push	eax
	call	??$_Move_backward_opt@PAU_devicemodeA@@PAU1@Urandom_access_iterator_tag@std@@U_Undefined_move_tag@3@@std@@YAPAU_devicemodeA@@PAU1@00Urandom_access_iterator_tag@0@U_Undefined_move_tag@0@U_Range_checked_iterator_tag@0@@Z ; std::_Move_backward_opt<_devicemodeA *,_devicemodeA *,std::random_access_iterator_tag,std::_Undefined_move_tag>
	add	esp, 24					; 00000018H

; 3697 : 	}

	mov	esp, ebp
	pop	ebp
	ret	0
??$_Unchecked_move_backward@PAU_devicemodeA@@PAU1@@stdext@@YAPAU_devicemodeA@@PAU1@00@Z ENDP ; stdext::_Unchecked_move_backward<_devicemodeA *,_devicemodeA *>
_TEXT	ENDS
PUBLIC	__TI2?AVbad_alloc@std@@
PUBLIC	??0bad_alloc@std@@QAE@PBD@Z			; std::bad_alloc::bad_alloc
PUBLIC	??1bad_alloc@std@@UAE@XZ			; std::bad_alloc::~bad_alloc
PUBLIC	__CTA2?AVbad_alloc@std@@
PUBLIC	__CT??_R0?AVbad_alloc@std@@@8??0bad_alloc@std@@QAE@ABV01@@Z12
PUBLIC	??_R0?AVbad_alloc@std@@@8			; std::bad_alloc `RTTI Type Descriptor'
PUBLIC	??0bad_alloc@std@@QAE@ABV01@@Z			; std::bad_alloc::bad_alloc
EXTRN	??2@YAPAXI@Z:PROC				; operator new
;	COMDAT ??_R0?AVbad_alloc@std@@@8
; File d:\program files (x86)\microsoft visual studio 9.0\vc\include\xmemory
_DATA	SEGMENT
??_R0?AVbad_alloc@std@@@8 DD FLAT:??_7type_info@@6B@	; std::bad_alloc `RTTI Type Descriptor'
	DD	00H
	DB	'.?AVbad_alloc@std@@', 00H
_DATA	ENDS
;	COMDAT __CT??_R0?AVbad_alloc@std@@@8??0bad_alloc@std@@QAE@ABV01@@Z12
xdata$x	SEGMENT
__CT??_R0?AVbad_alloc@std@@@8??0bad_alloc@std@@QAE@ABV01@@Z12 DD 00H
	DD	FLAT:??_R0?AVbad_alloc@std@@@8
	DD	00H
	DD	0ffffffffH
	ORG $+4
	DD	0cH
	DD	FLAT:??0bad_alloc@std@@QAE@ABV01@@Z
xdata$x	ENDS
;	COMDAT __CTA2?AVbad_alloc@std@@
xdata$x	SEGMENT
__CTA2?AVbad_alloc@std@@ DD 02H
	DD	FLAT:__CT??_R0?AVbad_alloc@std@@@8??0bad_alloc@std@@QAE@ABV01@@Z12
	DD	FLAT:__CT??_R0?AVexception@std@@@8??0exception@std@@QAE@ABV01@@Z12
xdata$x	ENDS
;	COMDAT __TI2?AVbad_alloc@std@@
xdata$x	SEGMENT
__TI2?AVbad_alloc@std@@ DD 00H
	DD	FLAT:??1bad_alloc@std@@UAE@XZ
	DD	00H
	DD	FLAT:__CTA2?AVbad_alloc@std@@
; Function compile flags: /Odtp
xdata$x	ENDS
;	COMDAT ??$_Allocate@U_devicemodeA@@@std@@YAPAU_devicemodeA@@IPAU1@@Z
_TEXT	SEGMENT
$T123542 = -12						; size = 12
__Count$ = 8						; size = 4
___formal$ = 12						; size = 4
??$_Allocate@U_devicemodeA@@@std@@YAPAU_devicemodeA@@IPAU1@@Z PROC ; std::_Allocate<_devicemodeA>, COMDAT

; 36   : 	{	// check for integer overflow

	push	ebp
	mov	ebp, esp
	sub	esp, 12					; 0000000cH

; 37   : 	if (_Count <= 0)

	cmp	DWORD PTR __Count$[ebp], 0
	ja	SHORT $LN3@Allocate

; 38   : 		_Count = 0;

	mov	DWORD PTR __Count$[ebp], 0
	jmp	SHORT $LN2@Allocate
$LN3@Allocate:

; 39   : 	else if (((_SIZT)(-1) / _Count) < sizeof (_Ty))

	or	eax, -1
	xor	edx, edx
	div	DWORD PTR __Count$[ebp]
	cmp	eax, 156				; 0000009cH
	jae	SHORT $LN2@Allocate

; 40   : 		_THROW_NCEE(std::bad_alloc, NULL);

	push	0
	lea	ecx, DWORD PTR $T123542[ebp]
	call	??0bad_alloc@std@@QAE@PBD@Z		; std::bad_alloc::bad_alloc
	push	OFFSET __TI2?AVbad_alloc@std@@
	lea	eax, DWORD PTR $T123542[ebp]
	push	eax
	call	__CxxThrowException@8
$LN2@Allocate:

; 41   : 
; 42   : 		// allocate storage for _Count elements of type _Ty
; 43   : 	return ((_Ty _FARQ *)::operator new(_Count * sizeof (_Ty)));

	mov	ecx, DWORD PTR __Count$[ebp]
	imul	ecx, 156				; 0000009cH
	push	ecx
	call	??2@YAPAXI@Z				; operator new
	add	esp, 4
$LN5@Allocate:

; 44   : 	}

	mov	esp, ebp
	pop	ebp
	ret	0
??$_Allocate@U_devicemodeA@@@std@@YAPAU_devicemodeA@@IPAU1@@Z ENDP ; std::_Allocate<_devicemodeA>
_TEXT	ENDS
PUBLIC	??_7bad_alloc@std@@6B@				; std::bad_alloc::`vftable'
PUBLIC	??_R4bad_alloc@std@@6B@				; std::bad_alloc::`RTTI Complete Object Locator'
PUBLIC	??_R3bad_alloc@std@@8				; std::bad_alloc::`RTTI Class Hierarchy Descriptor'
PUBLIC	??_R2bad_alloc@std@@8				; std::bad_alloc::`RTTI Base Class Array'
PUBLIC	??_R1A@?0A@EA@bad_alloc@std@@8			; std::bad_alloc::`RTTI Base Class Descriptor at (0,-1,0,64)'
EXTRN	__imp_??0exception@std@@QAE@ABQBD@Z:PROC
EXTRN	??_Ebad_alloc@std@@UAEPAXI@Z:PROC		; std::bad_alloc::`vector deleting destructor'
EXTRN	?what@exception@std@@UBEPBDXZ:PROC		; std::exception::what
;	COMDAT ??_R1A@?0A@EA@bad_alloc@std@@8
; File d:\program files (x86)\microsoft visual studio 9.0\vc\include\exception
rdata$r	SEGMENT
??_R1A@?0A@EA@bad_alloc@std@@8 DD FLAT:??_R0?AVbad_alloc@std@@@8 ; std::bad_alloc::`RTTI Base Class Descriptor at (0,-1,0,64)'
	DD	01H
	DD	00H
	DD	0ffffffffH
	DD	00H
	DD	040H
	DD	FLAT:??_R3bad_alloc@std@@8
rdata$r	ENDS
;	COMDAT ??_R2bad_alloc@std@@8
rdata$r	SEGMENT
??_R2bad_alloc@std@@8 DD FLAT:??_R1A@?0A@EA@bad_alloc@std@@8 ; std::bad_alloc::`RTTI Base Class Array'
	DD	FLAT:??_R1A@?0A@EA@exception@std@@8
rdata$r	ENDS
;	COMDAT ??_R3bad_alloc@std@@8
rdata$r	SEGMENT
??_R3bad_alloc@std@@8 DD 00H				; std::bad_alloc::`RTTI Class Hierarchy Descriptor'
	DD	00H
	DD	02H
	DD	FLAT:??_R2bad_alloc@std@@8
rdata$r	ENDS
;	COMDAT ??_R4bad_alloc@std@@6B@
rdata$r	SEGMENT
??_R4bad_alloc@std@@6B@ DD 00H				; std::bad_alloc::`RTTI Complete Object Locator'
	DD	00H
	DD	00H
	DD	FLAT:??_R0?AVbad_alloc@std@@@8
	DD	FLAT:??_R3bad_alloc@std@@8
rdata$r	ENDS
;	COMDAT ??_7bad_alloc@std@@6B@
CONST	SEGMENT
??_7bad_alloc@std@@6B@ DD FLAT:??_R4bad_alloc@std@@6B@	; std::bad_alloc::`vftable'
	DD	FLAT:??_Ebad_alloc@std@@UAEPAXI@Z
	DD	FLAT:?what@exception@std@@UBEPBDXZ
CONST	ENDS
;	COMDAT xdata$x
xdata$x	SEGMENT
__unwindtable$??0bad_alloc@std@@QAE@PBD@Z DD 0ffffffffH
	DD	FLAT:__unwindfunclet$??0bad_alloc@std@@QAE@PBD@Z$0
__ehfuncinfo$??0bad_alloc@std@@QAE@PBD@Z DD 019930522H
	DD	01H
	DD	FLAT:__unwindtable$??0bad_alloc@std@@QAE@PBD@Z
	DD	2 DUP(00H)
	DD	2 DUP(00H)
	DD	00H
	DD	00H
; Function compile flags: /Odtp
xdata$x	ENDS
;	COMDAT ??0bad_alloc@std@@QAE@PBD@Z
_TEXT	SEGMENT
_this$ = -16						; size = 4
__$EHRec$ = -12						; size = 12
__Message$ = 8						; size = 4
??0bad_alloc@std@@QAE@PBD@Z PROC			; std::bad_alloc::bad_alloc, COMDAT
; _this$ = ecx

; 371  : 		{	// construct from message string

	push	ebp
	mov	ebp, esp
	push	-1
	push	__ehhandler$??0bad_alloc@std@@QAE@PBD@Z
	mov	eax, DWORD PTR fs:0
	push	eax
	push	ecx
	mov	eax, DWORD PTR ___security_cookie
	xor	eax, ebp
	push	eax
	lea	eax, DWORD PTR __$EHRec$[ebp]
	mov	DWORD PTR fs:0, eax
	mov	DWORD PTR _this$[ebp], ecx
	lea	eax, DWORD PTR __Message$[ebp]
	push	eax
	mov	ecx, DWORD PTR _this$[ebp]
	call	DWORD PTR __imp_??0exception@std@@QAE@ABQBD@Z
	mov	DWORD PTR __$EHRec$[ebp+8], 0
	mov	ecx, DWORD PTR _this$[ebp]
	mov	DWORD PTR [ecx], OFFSET ??_7bad_alloc@std@@6B@

; 372  : 		}

	mov	DWORD PTR __$EHRec$[ebp+8], -1
	mov	eax, DWORD PTR _this$[ebp]
	mov	ecx, DWORD PTR __$EHRec$[ebp]
	mov	DWORD PTR fs:0, ecx
	pop	ecx
	mov	esp, ebp
	pop	ebp
	ret	4
_TEXT	ENDS
;	COMDAT text$x
text$x	SEGMENT
__unwindfunclet$??0bad_alloc@std@@QAE@PBD@Z$0:
	mov	ecx, DWORD PTR _this$[ebp]
	jmp	DWORD PTR __imp_??1exception@std@@UAE@XZ
__ehhandler$??0bad_alloc@std@@QAE@PBD@Z:
	mov	edx, DWORD PTR [esp+8]
	lea	eax, DWORD PTR [edx+12]
	mov	ecx, DWORD PTR [edx-8]
	xor	ecx, eax
	call	@__security_check_cookie@4
	mov	eax, OFFSET __ehfuncinfo$??0bad_alloc@std@@QAE@PBD@Z
	jmp	___CxxFrameHandler3
text$x	ENDS
??0bad_alloc@std@@QAE@PBD@Z ENDP			; std::bad_alloc::bad_alloc
;	COMDAT xdata$x
xdata$x	SEGMENT
__unwindtable$??1bad_alloc@std@@UAE@XZ DD 0ffffffffH
	DD	FLAT:__unwindfunclet$??1bad_alloc@std@@UAE@XZ$0
__ehfuncinfo$??1bad_alloc@std@@UAE@XZ DD 019930522H
	DD	01H
	DD	FLAT:__unwindtable$??1bad_alloc@std@@UAE@XZ
	DD	2 DUP(00H)
	DD	2 DUP(00H)
	DD	00H
	DD	00H
; Function compile flags: /Odtp
xdata$x	ENDS
;	COMDAT ??1bad_alloc@std@@UAE@XZ
_TEXT	SEGMENT
_this$ = -16						; size = 4
__$EHRec$ = -12						; size = 12
??1bad_alloc@std@@UAE@XZ PROC				; std::bad_alloc::~bad_alloc, COMDAT
; _this$ = ecx

; 380  : 		{	// destroy the object

	push	ebp
	mov	ebp, esp
	push	-1
	push	__ehhandler$??1bad_alloc@std@@UAE@XZ
	mov	eax, DWORD PTR fs:0
	push	eax
	push	ecx
	mov	eax, DWORD PTR ___security_cookie
	xor	eax, ebp
	push	eax
	lea	eax, DWORD PTR __$EHRec$[ebp]
	mov	DWORD PTR fs:0, eax
	mov	DWORD PTR _this$[ebp], ecx
	mov	eax, DWORD PTR _this$[ebp]
	mov	DWORD PTR [eax], OFFSET ??_7bad_alloc@std@@6B@
	mov	DWORD PTR __$EHRec$[ebp+8], 0

; 381  : 		}

	mov	DWORD PTR __$EHRec$[ebp+8], -1
	mov	ecx, DWORD PTR _this$[ebp]
	call	DWORD PTR __imp_??1exception@std@@UAE@XZ
	mov	ecx, DWORD PTR __$EHRec$[ebp]
	mov	DWORD PTR fs:0, ecx
	pop	ecx
	mov	esp, ebp
	pop	ebp
	ret	0
_TEXT	ENDS
;	COMDAT text$x
text$x	SEGMENT
__unwindfunclet$??1bad_alloc@std@@UAE@XZ$0:
	mov	ecx, DWORD PTR _this$[ebp]
	jmp	DWORD PTR __imp_??1exception@std@@UAE@XZ
__ehhandler$??1bad_alloc@std@@UAE@XZ:
	mov	edx, DWORD PTR [esp+8]
	lea	eax, DWORD PTR [edx+12]
	mov	ecx, DWORD PTR [edx-8]
	xor	ecx, eax
	call	@__security_check_cookie@4
	mov	eax, OFFSET __ehfuncinfo$??1bad_alloc@std@@UAE@XZ
	jmp	___CxxFrameHandler3
text$x	ENDS
??1bad_alloc@std@@UAE@XZ ENDP				; std::bad_alloc::~bad_alloc
; Function compile flags: /Odtp
;	COMDAT ??_Gbad_alloc@std@@UAEPAXI@Z
_TEXT	SEGMENT
_this$ = -4						; size = 4
___flags$ = 8						; size = 4
??_Gbad_alloc@std@@UAEPAXI@Z PROC			; std::bad_alloc::`scalar deleting destructor', COMDAT
; _this$ = ecx
	push	ebp
	mov	ebp, esp
	push	ecx
	mov	DWORD PTR _this$[ebp], ecx
	mov	ecx, DWORD PTR _this$[ebp]
	call	??1bad_alloc@std@@UAE@XZ		; std::bad_alloc::~bad_alloc
	mov	eax, DWORD PTR ___flags$[ebp]
	and	eax, 1
	je	SHORT $LN1@scalar@3
	mov	ecx, DWORD PTR _this$[ebp]
	push	ecx
	call	??3@YAXPAX@Z				; operator delete
	add	esp, 4
$LN1@scalar@3:
	mov	eax, DWORD PTR _this$[ebp]
	mov	esp, ebp
	pop	ebp
	ret	4
??_Gbad_alloc@std@@UAEPAXI@Z ENDP			; std::bad_alloc::`scalar deleting destructor'
_TEXT	ENDS
;	COMDAT xdata$x
xdata$x	SEGMENT
__unwindtable$??0bad_alloc@std@@QAE@ABV01@@Z DD 0ffffffffH
	DD	FLAT:__unwindfunclet$??0bad_alloc@std@@QAE@ABV01@@Z$0
__ehfuncinfo$??0bad_alloc@std@@QAE@ABV01@@Z DD 019930522H
	DD	01H
	DD	FLAT:__unwindtable$??0bad_alloc@std@@QAE@ABV01@@Z
	DD	2 DUP(00H)
	DD	2 DUP(00H)
	DD	00H
	DD	00H
; Function compile flags: /Odtp
xdata$x	ENDS
;	COMDAT ??0bad_alloc@std@@QAE@ABV01@@Z
_TEXT	SEGMENT
_this$ = -16						; size = 4
__$EHRec$ = -12						; size = 12
___that$ = 8						; size = 4
??0bad_alloc@std@@QAE@ABV01@@Z PROC			; std::bad_alloc::bad_alloc, COMDAT
; _this$ = ecx
	push	ebp
	mov	ebp, esp
	push	-1
	push	__ehhandler$??0bad_alloc@std@@QAE@ABV01@@Z
	mov	eax, DWORD PTR fs:0
	push	eax
	push	ecx
	mov	eax, DWORD PTR ___security_cookie
	xor	eax, ebp
	push	eax
	lea	eax, DWORD PTR __$EHRec$[ebp]
	mov	DWORD PTR fs:0, eax
	mov	DWORD PTR _this$[ebp], ecx
	mov	eax, DWORD PTR ___that$[ebp]
	push	eax
	mov	ecx, DWORD PTR _this$[ebp]
	call	DWORD PTR __imp_??0exception@std@@QAE@ABV01@@Z
	mov	DWORD PTR __$EHRec$[ebp+8], 0
	mov	ecx, DWORD PTR _this$[ebp]
	mov	DWORD PTR [ecx], OFFSET ??_7bad_alloc@std@@6B@
	mov	DWORD PTR __$EHRec$[ebp+8], -1
	mov	eax, DWORD PTR _this$[ebp]
	mov	ecx, DWORD PTR __$EHRec$[ebp]
	mov	DWORD PTR fs:0, ecx
	pop	ecx
	mov	esp, ebp
	pop	ebp
	ret	4
_TEXT	ENDS
;	COMDAT text$x
text$x	SEGMENT
__unwindfunclet$??0bad_alloc@std@@QAE@ABV01@@Z$0:
	mov	ecx, DWORD PTR _this$[ebp]
	jmp	DWORD PTR __imp_??1exception@std@@UAE@XZ
__ehhandler$??0bad_alloc@std@@QAE@ABV01@@Z:
	mov	edx, DWORD PTR [esp+8]
	lea	eax, DWORD PTR [edx+12]
	mov	ecx, DWORD PTR [edx-8]
	xor	ecx, eax
	call	@__security_check_cookie@4
	mov	eax, OFFSET __ehfuncinfo$??0bad_alloc@std@@QAE@ABV01@@Z
	jmp	___CxxFrameHandler3
text$x	ENDS
??0bad_alloc@std@@QAE@ABV01@@Z ENDP			; std::bad_alloc::bad_alloc
PUBLIC	??$_Checked_base@V?$_Vector_iterator@U_devicemodeA@@V?$allocator@U_devicemodeA@@@std@@@std@@U_Different_checked_iterator_base_type_tag@2@@std@@YAPAU_devicemodeA@@AAV?$_Vector_iterator@U_devicemodeA@@V?$allocator@U_devicemodeA@@@std@@@0@U_Different_checked_iterator_base_type_tag@0@@Z ; std::_Checked_base<std::_Vector_iterator<_devicemodeA,std::allocator<_devicemodeA> >,std::_Different_checked_iterator_base_type_tag>
; Function compile flags: /Odtp
; File d:\program files (x86)\microsoft visual studio 9.0\vc\include\xutility
;	COMDAT ??$_Checked_base@V?$_Vector_iterator@U_devicemodeA@@V?$allocator@U_devicemodeA@@@std@@@std@@@std@@YAPAU_devicemodeA@@AAV?$_Vector_iterator@U_devicemodeA@@V?$allocator@U_devicemodeA@@@std@@@0@@Z
_TEXT	SEGMENT
__Base_tag$ = -1					; size = 1
__It$ = 8						; size = 4
??$_Checked_base@V?$_Vector_iterator@U_devicemodeA@@V?$allocator@U_devicemodeA@@@std@@@std@@@std@@YAPAU_devicemodeA@@AAV?$_Vector_iterator@U_devicemodeA@@V?$allocator@U_devicemodeA@@@std@@@0@@Z PROC ; std::_Checked_base<std::_Vector_iterator<_devicemodeA,std::allocator<_devicemodeA> > >, COMDAT

; 1163 : 	{

	push	ebp
	mov	ebp, esp
	push	ecx

; 1164 : 		typename _Checked_iterator_base_helper<_Iter>::_Checked_iterator_base_type_tag _Base_tag;
; 1165 : 		return _Checked_base(_It, _Base_tag);

	movzx	eax, BYTE PTR __Base_tag$[ebp]
	push	eax
	mov	ecx, DWORD PTR __It$[ebp]
	push	ecx
	call	??$_Checked_base@V?$_Vector_iterator@U_devicemodeA@@V?$allocator@U_devicemodeA@@@std@@@std@@U_Different_checked_iterator_base_type_tag@2@@std@@YAPAU_devicemodeA@@AAV?$_Vector_iterator@U_devicemodeA@@V?$allocator@U_devicemodeA@@@std@@@0@U_Different_checked_iterator_base_type_tag@0@@Z ; std::_Checked_base<std::_Vector_iterator<_devicemodeA,std::allocator<_devicemodeA> >,std::_Different_checked_iterator_base_type_tag>
	add	esp, 8

; 1166 : 	}

	mov	esp, ebp
	pop	ebp
	ret	0
??$_Checked_base@V?$_Vector_iterator@U_devicemodeA@@V?$allocator@U_devicemodeA@@@std@@@std@@@std@@YAPAU_devicemodeA@@AAV?$_Vector_iterator@U_devicemodeA@@V?$allocator@U_devicemodeA@@@std@@@0@@Z ENDP ; std::_Checked_base<std::_Vector_iterator<_devicemodeA,std::allocator<_devicemodeA> > >
_TEXT	ENDS
PUBLIC	??$_Insertion_sort@PAU_devicemodeA@@@std@@YAXPAU_devicemodeA@@0@Z ; std::_Insertion_sort<_devicemodeA *>
PUBLIC	??$sort_heap@PAU_devicemodeA@@@std@@YAXPAU_devicemodeA@@0@Z ; std::sort_heap<_devicemodeA *>
PUBLIC	??$make_heap@PAU_devicemodeA@@@std@@YAXPAU_devicemodeA@@0@Z ; std::make_heap<_devicemodeA *>
PUBLIC	??$_Unguarded_partition@PAU_devicemodeA@@@std@@YA?AU?$pair@PAU_devicemodeA@@PAU1@@0@PAU_devicemodeA@@0@Z ; std::_Unguarded_partition<_devicemodeA *>
; Function compile flags: /Odtp
; File d:\program files (x86)\microsoft visual studio 9.0\vc\include\algorithm
;	COMDAT ??$_Sort@PAU_devicemodeA@@H@std@@YAXPAU_devicemodeA@@0H@Z
_TEXT	SEGMENT
__Mid$121418 = -12					; size = 8
__Count$ = -4						; size = 4
__First$ = 8						; size = 4
__Last$ = 12						; size = 4
__Ideal$ = 16						; size = 4
??$_Sort@PAU_devicemodeA@@H@std@@YAXPAU_devicemodeA@@0H@Z PROC ; std::_Sort<_devicemodeA *,int>, COMDAT

; 3082 : 	{	// order [_First, _Last), using operator<

	push	ebp
	mov	ebp, esp
	sub	esp, 12					; 0000000cH
	push	esi
$LN7@Sort:

; 3083 : 	_Diff _Count;
; 3084 : 	for (; _ISORT_MAX < (_Count = _Last - _First) && 0 < _Ideal; )

	mov	eax, DWORD PTR __Last$[ebp]
	sub	eax, DWORD PTR __First$[ebp]
	cdq
	mov	ecx, 156				; 0000009cH
	idiv	ecx
	mov	DWORD PTR __Count$[ebp], eax
	cmp	DWORD PTR __Count$[ebp], 32		; 00000020H
	jle	$LN6@Sort
	cmp	DWORD PTR __Ideal$[ebp], 0
	jle	$LN6@Sort

; 3085 : 		{	// divide and conquer by quicksort
; 3086 : 		pair<_RanIt, _RanIt> _Mid =
; 3087 : 			std::_Unguarded_partition(_First, _Last);

	mov	edx, DWORD PTR __Last$[ebp]
	push	edx
	mov	eax, DWORD PTR __First$[ebp]
	push	eax
	lea	ecx, DWORD PTR __Mid$121418[ebp]
	push	ecx
	call	??$_Unguarded_partition@PAU_devicemodeA@@@std@@YA?AU?$pair@PAU_devicemodeA@@PAU1@@0@PAU_devicemodeA@@0@Z ; std::_Unguarded_partition<_devicemodeA *>
	add	esp, 12					; 0000000cH

; 3088 : 		_Ideal /= 2, _Ideal += _Ideal / 2;	// allow 1.5 log2(N) divisions

	mov	eax, DWORD PTR __Ideal$[ebp]
	cdq
	sub	eax, edx
	sar	eax, 1
	mov	DWORD PTR __Ideal$[ebp], eax
	mov	eax, DWORD PTR __Ideal$[ebp]
	cdq
	sub	eax, edx
	sar	eax, 1
	add	eax, DWORD PTR __Ideal$[ebp]
	mov	DWORD PTR __Ideal$[ebp], eax

; 3089 : 
; 3090 : 		if (_Mid.first - _First < _Last - _Mid.second)

	mov	eax, DWORD PTR __Mid$121418[ebp]
	sub	eax, DWORD PTR __First$[ebp]
	cdq
	mov	ecx, 156				; 0000009cH
	idiv	ecx
	mov	ecx, eax
	mov	eax, DWORD PTR __Last$[ebp]
	sub	eax, DWORD PTR __Mid$121418[ebp+4]
	cdq
	mov	esi, 156				; 0000009cH
	idiv	esi
	cmp	ecx, eax
	jge	SHORT $LN5@Sort

; 3091 : 			{	// loop on second half
; 3092 : 			std::_Sort(_First, _Mid.first, _Ideal);

	mov	edx, DWORD PTR __Ideal$[ebp]
	push	edx
	mov	eax, DWORD PTR __Mid$121418[ebp]
	push	eax
	mov	ecx, DWORD PTR __First$[ebp]
	push	ecx
	call	??$_Sort@PAU_devicemodeA@@H@std@@YAXPAU_devicemodeA@@0H@Z ; std::_Sort<_devicemodeA *,int>
	add	esp, 12					; 0000000cH

; 3093 : 			_First = _Mid.second;

	mov	edx, DWORD PTR __Mid$121418[ebp+4]
	mov	DWORD PTR __First$[ebp], edx

; 3094 : 			}
; 3095 : 		else

	jmp	SHORT $LN4@Sort
$LN5@Sort:

; 3096 : 			{	// loop on first half
; 3097 : 			std::_Sort(_Mid.second, _Last, _Ideal);

	mov	eax, DWORD PTR __Ideal$[ebp]
	push	eax
	mov	ecx, DWORD PTR __Last$[ebp]
	push	ecx
	mov	edx, DWORD PTR __Mid$121418[ebp+4]
	push	edx
	call	??$_Sort@PAU_devicemodeA@@H@std@@YAXPAU_devicemodeA@@0H@Z ; std::_Sort<_devicemodeA *,int>
	add	esp, 12					; 0000000cH

; 3098 : 			_Last = _Mid.first;

	mov	eax, DWORD PTR __Mid$121418[ebp]
	mov	DWORD PTR __Last$[ebp], eax
$LN4@Sort:

; 3099 : 			}
; 3100 : 		}

	jmp	$LN7@Sort
$LN6@Sort:

; 3101 : 
; 3102 : 	if (_ISORT_MAX < _Count)

	cmp	DWORD PTR __Count$[ebp], 32		; 00000020H
	jle	SHORT $LN3@Sort

; 3103 : 		{	// heap sort if too many divisions
; 3104 : 		std::make_heap(_First, _Last);

	mov	ecx, DWORD PTR __Last$[ebp]
	push	ecx
	mov	edx, DWORD PTR __First$[ebp]
	push	edx
	call	??$make_heap@PAU_devicemodeA@@@std@@YAXPAU_devicemodeA@@0@Z ; std::make_heap<_devicemodeA *>
	add	esp, 8

; 3105 : 		std::sort_heap(_First, _Last);

	mov	eax, DWORD PTR __Last$[ebp]
	push	eax
	mov	ecx, DWORD PTR __First$[ebp]
	push	ecx
	call	??$sort_heap@PAU_devicemodeA@@@std@@YAXPAU_devicemodeA@@0@Z ; std::sort_heap<_devicemodeA *>
	add	esp, 8
	jmp	SHORT $LN8@Sort
$LN3@Sort:

; 3106 : 		}
; 3107 : 	else if (1 < _Count)

	cmp	DWORD PTR __Count$[ebp], 1
	jle	SHORT $LN8@Sort

; 3108 : 		std::_Insertion_sort(_First, _Last);	// small

	mov	edx, DWORD PTR __Last$[ebp]
	push	edx
	mov	eax, DWORD PTR __First$[ebp]
	push	eax
	call	??$_Insertion_sort@PAU_devicemodeA@@@std@@YAXPAU_devicemodeA@@0@Z ; std::_Insertion_sort<_devicemodeA *>
	add	esp, 8
$LN8@Sort:

; 3109 : 	}

	pop	esi
	mov	esp, ebp
	pop	ebp
	ret	0
??$_Sort@PAU_devicemodeA@@H@std@@YAXPAU_devicemodeA@@0H@Z ENDP ; std::_Sort<_devicemodeA *,int>
; Function compile flags: /Odtp
_TEXT	ENDS
;	COMDAT ??$_Unique@PAU_devicemodeA@@@std@@YAPAU_devicemodeA@@PAU1@0@Z
_TEXT	SEGMENT
__Firstb$121456 = -4					; size = 4
__First$ = 8						; size = 4
__Last$ = 12						; size = 4
??$_Unique@PAU_devicemodeA@@@std@@YAPAU_devicemodeA@@PAU1@0@Z PROC ; std::_Unique<_devicemodeA *>, COMDAT

; 1318 : 	{	// remove each matching previous

	push	ebp
	mov	ebp, esp
	push	ecx
	push	esi
	push	edi
$LN6@Unique:

; 1319 : 	_DEBUG_RANGE(_First, _Last);
; 1320 : 	for (_FwdIt _Firstb; (_Firstb = _First) != _Last && ++_First != _Last; )

	mov	eax, DWORD PTR __First$[ebp]
	mov	DWORD PTR __Firstb$121456[ebp], eax
	mov	ecx, DWORD PTR __Firstb$121456[ebp]
	cmp	ecx, DWORD PTR __Last$[ebp]
	je	$LN5@Unique
	mov	edx, DWORD PTR __First$[ebp]
	add	edx, 156				; 0000009cH
	mov	DWORD PTR __First$[ebp], edx
	mov	eax, DWORD PTR __First$[ebp]
	cmp	eax, DWORD PTR __Last$[ebp]
	je	SHORT $LN5@Unique

; 1321 : 		if (*_Firstb == *_First)

	mov	ecx, DWORD PTR __First$[ebp]
	push	ecx
	mov	edx, DWORD PTR __Firstb$121456[ebp]
	push	edx
	call	??8@YA_NABU_devicemodeA@@0@Z		; operator==
	add	esp, 8
	movzx	eax, al
	test	eax, eax
	je	SHORT $LN4@Unique
$LN3@Unique:

; 1322 : 			{	// copy down
; 1323 : 			for (; ++_First != _Last; )

	mov	ecx, DWORD PTR __First$[ebp]
	add	ecx, 156				; 0000009cH
	mov	DWORD PTR __First$[ebp], ecx
	mov	edx, DWORD PTR __First$[ebp]
	cmp	edx, DWORD PTR __Last$[ebp]
	je	SHORT $LN2@Unique

; 1324 : 				if (!(*_Firstb == *_First))

	mov	eax, DWORD PTR __First$[ebp]
	push	eax
	mov	ecx, DWORD PTR __Firstb$121456[ebp]
	push	ecx
	call	??8@YA_NABU_devicemodeA@@0@Z		; operator==
	add	esp, 8
	movzx	edx, al
	test	edx, edx
	jne	SHORT $LN1@Unique

; 1325 : 					*++_Firstb = *_First;

	mov	eax, DWORD PTR __Firstb$121456[ebp]
	add	eax, 156				; 0000009cH
	mov	DWORD PTR __Firstb$121456[ebp], eax
	mov	esi, DWORD PTR __First$[ebp]
	mov	ecx, 39					; 00000027H
	mov	edi, DWORD PTR __Firstb$121456[ebp]
	rep movsd
$LN1@Unique:

; 1326 : 			return (++_Firstb);

	jmp	SHORT $LN3@Unique
$LN2@Unique:
	mov	ecx, DWORD PTR __Firstb$121456[ebp]
	add	ecx, 156				; 0000009cH
	mov	DWORD PTR __Firstb$121456[ebp], ecx
	mov	eax, DWORD PTR __Firstb$121456[ebp]
	jmp	SHORT $LN7@Unique
$LN4@Unique:

; 1327 : 			}

	jmp	$LN6@Unique
$LN5@Unique:

; 1328 : 	return (_Last);

	mov	eax, DWORD PTR __Last$[ebp]
$LN7@Unique:

; 1329 : 	}

	pop	edi
	pop	esi
	mov	esp, ebp
	pop	ebp
	ret	0
??$_Unique@PAU_devicemodeA@@@std@@YAPAU_devicemodeA@@PAU1@0@Z ENDP ; std::_Unique<_devicemodeA *>
_TEXT	ENDS
PUBLIC	?_Checked_iterator_assign_from_base@?$_Vector_iterator@U_devicemodeA@@V?$allocator@U_devicemodeA@@@std@@@std@@QAEXPAU_devicemodeA@@@Z ; std::_Vector_iterator<_devicemodeA,std::allocator<_devicemodeA> >::_Checked_iterator_assign_from_base
; Function compile flags: /Odtp
; File d:\program files (x86)\microsoft visual studio 9.0\vc\include\xutility
;	COMDAT ??$_Checked_assign_from_base@V?$_Vector_iterator@U_devicemodeA@@V?$allocator@U_devicemodeA@@@std@@@std@@PAU_devicemodeA@@@std@@YAXAAV?$_Vector_iterator@U_devicemodeA@@V?$allocator@U_devicemodeA@@@std@@@0@ABQAU_devicemodeA@@@Z
_TEXT	SEGMENT
__Dest$ = 8						; size = 4
__Src$ = 12						; size = 4
??$_Checked_assign_from_base@V?$_Vector_iterator@U_devicemodeA@@V?$allocator@U_devicemodeA@@@std@@@std@@PAU_devicemodeA@@@std@@YAXAAV?$_Vector_iterator@U_devicemodeA@@V?$allocator@U_devicemodeA@@@std@@@0@ABQAU_devicemodeA@@@Z PROC ; std::_Checked_assign_from_base<std::_Vector_iterator<_devicemodeA,std::allocator<_devicemodeA> >,_devicemodeA *>, COMDAT

; 1173 : 	{

	push	ebp
	mov	ebp, esp

; 1174 : 		_Dest._Checked_iterator_assign_from_base(_Src);

	mov	eax, DWORD PTR __Src$[ebp]
	mov	ecx, DWORD PTR [eax]
	push	ecx
	mov	ecx, DWORD PTR __Dest$[ebp]
	call	?_Checked_iterator_assign_from_base@?$_Vector_iterator@U_devicemodeA@@V?$allocator@U_devicemodeA@@@std@@@std@@QAEXPAU_devicemodeA@@@Z ; std::_Vector_iterator<_devicemodeA,std::allocator<_devicemodeA> >::_Checked_iterator_assign_from_base

; 1175 : 	}

	pop	ebp
	ret	0
??$_Checked_assign_from_base@V?$_Vector_iterator@U_devicemodeA@@V?$allocator@U_devicemodeA@@@std@@@std@@PAU_devicemodeA@@@std@@YAXAAV?$_Vector_iterator@U_devicemodeA@@V?$allocator@U_devicemodeA@@@std@@@0@ABQAU_devicemodeA@@@Z ENDP ; std::_Checked_assign_from_base<std::_Vector_iterator<_devicemodeA,std::allocator<_devicemodeA> >,_devicemodeA *>
; Function compile flags: /Odtp
; File d:\program files (x86)\microsoft visual studio 9.0\vc\include\algorithm
_TEXT	ENDS
;	COMDAT ??$_Find@PAU_devicemodeA@@U1@@std@@YAPAU_devicemodeA@@PAU1@0ABU1@@Z
_TEXT	SEGMENT
__First$ = 8						; size = 4
__Last$ = 12						; size = 4
__Val$ = 16						; size = 4
??$_Find@PAU_devicemodeA@@U1@@std@@YAPAU_devicemodeA@@PAU1@0ABU1@@Z PROC ; std::_Find<_devicemodeA *,_devicemodeA>, COMDAT

; 37   : 	{	// find first matching _Val

	push	ebp
	mov	ebp, esp

; 38   : 	_DEBUG_RANGE(_First, _Last);
; 39   : 	for (; _First != _Last; ++_First)

	jmp	SHORT $LN4@Find
$LN3@Find:
	mov	eax, DWORD PTR __First$[ebp]
	add	eax, 156				; 0000009cH
	mov	DWORD PTR __First$[ebp], eax
$LN4@Find:
	mov	ecx, DWORD PTR __First$[ebp]
	cmp	ecx, DWORD PTR __Last$[ebp]
	je	SHORT $LN2@Find

; 40   : 		if (*_First == _Val)

	mov	edx, DWORD PTR __Val$[ebp]
	push	edx
	mov	eax, DWORD PTR __First$[ebp]
	push	eax
	call	??8@YA_NABU_devicemodeA@@0@Z		; operator==
	add	esp, 8
	movzx	ecx, al
	test	ecx, ecx
	je	SHORT $LN1@Find

; 41   : 			break;

	jmp	SHORT $LN2@Find
$LN1@Find:

; 42   : 	return (_First);

	jmp	SHORT $LN3@Find
$LN2@Find:
	mov	eax, DWORD PTR __First$[ebp]

; 43   : 	}

	pop	ebp
	ret	0
??$_Find@PAU_devicemodeA@@U1@@std@@YAPAU_devicemodeA@@PAU1@0ABU1@@Z ENDP ; std::_Find<_devicemodeA *,_devicemodeA>
; Function compile flags: /Odtp
; File d:\program files (x86)\microsoft visual studio 9.0\vc\include\xutility
_TEXT	ENDS
;	COMDAT ??$_Dist_type@V?$_Vector_iterator@U_devicemodeA@@V?$allocator@U_devicemodeA@@@std@@@std@@@std@@YAPAHV?$_Vector_iterator@U_devicemodeA@@V?$allocator@U_devicemodeA@@@std@@@0@@Z
_TEXT	SEGMENT
___formal$ = 8						; size = 8
??$_Dist_type@V?$_Vector_iterator@U_devicemodeA@@V?$allocator@U_devicemodeA@@@std@@@std@@@std@@YAPAHV?$_Vector_iterator@U_devicemodeA@@V?$allocator@U_devicemodeA@@@std@@@0@@Z PROC ; std::_Dist_type<std::_Vector_iterator<_devicemodeA,std::allocator<_devicemodeA> > >, COMDAT

; 1830 : 	{	// return distance type from arbitrary argument

	push	ebp
	mov	ebp, esp

; 1831 : 	return (0);

	xor	eax, eax

; 1832 : 	}

	pop	ebp
	ret	0
??$_Dist_type@V?$_Vector_iterator@U_devicemodeA@@V?$allocator@U_devicemodeA@@@std@@@std@@@std@@YAPAHV?$_Vector_iterator@U_devicemodeA@@V?$allocator@U_devicemodeA@@@std@@@0@@Z ENDP ; std::_Dist_type<std::_Vector_iterator<_devicemodeA,std::allocator<_devicemodeA> > >
_TEXT	ENDS
PUBLIC	??$advance@PAU_devicemodeA@@H@std@@YAXAAPAU_devicemodeA@@H@Z ; std::advance<_devicemodeA *,int>
PUBLIC	??$_Distance@PAU_devicemodeA@@H@std@@YAXPAU_devicemodeA@@0AAH@Z ; std::_Distance<_devicemodeA *,int>
; Function compile flags: /Odtp
; File d:\program files (x86)\microsoft visual studio 9.0\vc\include\algorithm
;	COMDAT ??$_Lower_bound@PAU_devicemodeA@@U1@H@std@@YAPAU_devicemodeA@@PAU1@0ABU1@PAH@Z
_TEXT	SEGMENT
__Count2$121484 = -12					; size = 4
__Mid$121485 = -8					; size = 4
__Count$ = -4						; size = 4
__First$ = 8						; size = 4
__Last$ = 12						; size = 4
__Val$ = 16						; size = 4
___formal$ = 20						; size = 4
??$_Lower_bound@PAU_devicemodeA@@U1@H@std@@YAPAU_devicemodeA@@PAU1@0ABU1@PAH@Z PROC ; std::_Lower_bound<_devicemodeA *,_devicemodeA,int>, COMDAT

; 2252 : 	{	// find first element not before _Val, using operator<

	push	ebp
	mov	ebp, esp
	sub	esp, 12					; 0000000cH

; 2253 : 	_DEBUG_ORDER_SINGLE(_First, _Last, true);
; 2254 : 	_Diff _Count = 0;

	mov	DWORD PTR __Count$[ebp], 0

; 2255 : 	_Distance(_First, _Last, _Count);

	lea	eax, DWORD PTR __Count$[ebp]
	push	eax
	mov	ecx, DWORD PTR __Last$[ebp]
	push	ecx
	mov	edx, DWORD PTR __First$[ebp]
	push	edx
	call	??$_Distance@PAU_devicemodeA@@H@std@@YAXPAU_devicemodeA@@0AAH@Z ; std::_Distance<_devicemodeA *,int>
	add	esp, 12					; 0000000cH
$LN4@Lower_boun:

; 2256 : 
; 2257 : 	for (; 0 < _Count; )

	cmp	DWORD PTR __Count$[ebp], 0
	jle	SHORT $LN3@Lower_boun

; 2258 : 		{	// divide and conquer, find half that contains answer
; 2259 : 		_Diff _Count2 = _Count / 2;

	mov	eax, DWORD PTR __Count$[ebp]
	cdq
	sub	eax, edx
	sar	eax, 1
	mov	DWORD PTR __Count2$121484[ebp], eax

; 2260 : 		_FwdIt _Mid = _First;

	mov	eax, DWORD PTR __First$[ebp]
	mov	DWORD PTR __Mid$121485[ebp], eax

; 2261 : 		std::advance(_Mid, _Count2);

	mov	ecx, DWORD PTR __Count2$121484[ebp]
	push	ecx
	lea	edx, DWORD PTR __Mid$121485[ebp]
	push	edx
	call	??$advance@PAU_devicemodeA@@H@std@@YAXAAPAU_devicemodeA@@H@Z ; std::advance<_devicemodeA *,int>
	add	esp, 8

; 2262 : 		_DEBUG_ORDER_SINGLE(_Mid, _Last, false);
; 2263 : 
; 2264 : 		if (_DEBUG_LT(*_Mid, _Val))

	mov	eax, DWORD PTR __Val$[ebp]
	push	eax
	mov	ecx, DWORD PTR __Mid$121485[ebp]
	push	ecx
	call	??M@YA_NABU_devicemodeA@@0@Z		; operator<
	add	esp, 8
	movzx	edx, al
	test	edx, edx
	je	SHORT $LN2@Lower_boun

; 2265 : 			_First = ++_Mid, _Count -= _Count2 + 1;

	mov	eax, DWORD PTR __Mid$121485[ebp]
	add	eax, 156				; 0000009cH
	mov	DWORD PTR __Mid$121485[ebp], eax
	mov	ecx, DWORD PTR __Mid$121485[ebp]
	mov	DWORD PTR __First$[ebp], ecx
	mov	edx, DWORD PTR __Count2$121484[ebp]
	add	edx, 1
	mov	eax, DWORD PTR __Count$[ebp]
	sub	eax, edx
	mov	DWORD PTR __Count$[ebp], eax

; 2266 : 		else

	jmp	SHORT $LN1@Lower_boun
$LN2@Lower_boun:

; 2267 : 			_Count = _Count2;

	mov	ecx, DWORD PTR __Count2$121484[ebp]
	mov	DWORD PTR __Count$[ebp], ecx
$LN1@Lower_boun:

; 2268 : 		}

	jmp	SHORT $LN4@Lower_boun
$LN3@Lower_boun:

; 2269 : 	return (_First);

	mov	eax, DWORD PTR __First$[ebp]

; 2270 : 	}

	mov	esp, ebp
	pop	ebp
	ret	0
??$_Lower_bound@PAU_devicemodeA@@U1@H@std@@YAPAU_devicemodeA@@PAU1@0ABU1@PAH@Z ENDP ; std::_Lower_bound<_devicemodeA *,_devicemodeA,int>
_TEXT	ENDS
PUBLIC	??$_Checked_base@PAU_devicemodeA@@@std@@YAPAU_devicemodeA@@AAPAU1@U_Unchanged_checked_iterator_base_type_tag@0@@Z ; std::_Checked_base<_devicemodeA *>
; Function compile flags: /Odtp
; File d:\program files (x86)\microsoft visual studio 9.0\vc\include\xutility
;	COMDAT ??$_Checked_base@PAU_devicemodeA@@@std@@YAPAU_devicemodeA@@AAPAU1@@Z
_TEXT	SEGMENT
__Base_tag$ = -1					; size = 1
__It$ = 8						; size = 4
??$_Checked_base@PAU_devicemodeA@@@std@@YAPAU_devicemodeA@@AAPAU1@@Z PROC ; std::_Checked_base<_devicemodeA *>, COMDAT

; 1163 : 	{

	push	ebp
	mov	ebp, esp
	push	ecx

; 1164 : 		typename _Checked_iterator_base_helper<_Iter>::_Checked_iterator_base_type_tag _Base_tag;
; 1165 : 		return _Checked_base(_It, _Base_tag);

	movzx	eax, BYTE PTR __Base_tag$[ebp]
	push	eax
	mov	ecx, DWORD PTR __It$[ebp]
	push	ecx
	call	??$_Checked_base@PAU_devicemodeA@@@std@@YAPAU_devicemodeA@@AAPAU1@U_Unchanged_checked_iterator_base_type_tag@0@@Z ; std::_Checked_base<_devicemodeA *>
	add	esp, 8

; 1166 : 	}

	mov	esp, ebp
	pop	ebp
	ret	0
??$_Checked_base@PAU_devicemodeA@@@std@@YAPAU_devicemodeA@@AAPAU1@@Z ENDP ; std::_Checked_base<_devicemodeA *>
; Function compile flags: /Odtp
_TEXT	ENDS
;	COMDAT ??$_Iter_random@PAU_devicemodeA@@PAU1@@std@@YA?AUrandom_access_iterator_tag@0@ABQAU_devicemodeA@@0@Z
_TEXT	SEGMENT
___$ReturnUdt$ = 8					; size = 4
___formal$ = 12						; size = 4
___formal$ = 16						; size = 4
??$_Iter_random@PAU_devicemodeA@@PAU1@@std@@YA?AUrandom_access_iterator_tag@0@ABQAU_devicemodeA@@0@Z PROC ; std::_Iter_random<_devicemodeA *,_devicemodeA *>, COMDAT

; 993  : 	{	// return category from iterator argument

	push	ebp
	mov	ebp, esp
	push	ecx

; 994  : 	typename _Iter_random_helper<
; 995  : 		iterator_traits<_Iter1>::iterator_category, 
; 996  : 		iterator_traits<_Iter2>::iterator_category>::_Iter_random_cat _Cat;
; 997  : 	return (_Cat);

	mov	eax, DWORD PTR ___$ReturnUdt$[ebp]

; 998  : 	}

	mov	esp, ebp
	pop	ebp
	ret	0
??$_Iter_random@PAU_devicemodeA@@PAU1@@std@@YA?AUrandom_access_iterator_tag@0@ABQAU_devicemodeA@@0@Z ENDP ; std::_Iter_random<_devicemodeA *,_devicemodeA *>
; Function compile flags: /Odtp
_TEXT	ENDS
;	COMDAT ??$_Ptr_cat@PAU_devicemodeA@@PAU1@@std@@YA?AU_Nonscalar_ptr_iterator_tag@0@AAPAU_devicemodeA@@0@Z
_TEXT	SEGMENT
__Cat$ = -1						; size = 1
___formal$ = 8						; size = 4
___formal$ = 12						; size = 4
??$_Ptr_cat@PAU_devicemodeA@@PAU1@@std@@YA?AU_Nonscalar_ptr_iterator_tag@0@AAPAU_devicemodeA@@0@Z PROC ; std::_Ptr_cat<_devicemodeA *,_devicemodeA *>, COMDAT

; 1509 : 	{

	push	ebp
	mov	ebp, esp
	push	ecx

; 1510 : 	typename _Ptr_cat_helper<_T1, _T2>::_Ptr_cat _Cat;
; 1511 : 	return (_Cat);

	mov	al, BYTE PTR __Cat$[ebp]

; 1512 : 	}

	mov	esp, ebp
	pop	ebp
	ret	0
??$_Ptr_cat@PAU_devicemodeA@@PAU1@@std@@YA?AU_Nonscalar_ptr_iterator_tag@0@AAPAU_devicemodeA@@0@Z ENDP ; std::_Ptr_cat<_devicemodeA *,_devicemodeA *>
_TEXT	ENDS
PUBLIC	??$_Copy_opt@PAU_devicemodeA@@PAU1@Uforward_iterator_tag@std@@@std@@YAPAU_devicemodeA@@PAU1@00Uforward_iterator_tag@0@U_Nonscalar_ptr_iterator_tag@0@U_Range_checked_iterator_tag@0@@Z ; std::_Copy_opt<_devicemodeA *,_devicemodeA *,std::forward_iterator_tag>
; Function compile flags: /Odtp
;	COMDAT ??$_Copy_opt@PAU_devicemodeA@@PAU1@@std@@YAPAU_devicemodeA@@PAU1@00Urandom_access_iterator_tag@0@U_Nonscalar_ptr_iterator_tag@0@U_Range_checked_iterator_tag@0@@Z
_TEXT	SEGMENT
$T123596 = -7						; size = 1
$T123595 = -6						; size = 1
$T123594 = -5						; size = 1
__Result$ = -4						; size = 4
__First$ = 8						; size = 4
__Last$ = 12						; size = 4
__Dest$ = 16						; size = 4
___formal$ = 20						; size = 1
___formal$ = 24						; size = 1
___formal$ = 28						; size = 1
??$_Copy_opt@PAU_devicemodeA@@PAU1@@std@@YAPAU_devicemodeA@@PAU1@00Urandom_access_iterator_tag@0@U_Nonscalar_ptr_iterator_tag@0@U_Range_checked_iterator_tag@0@@Z PROC ; std::_Copy_opt<_devicemodeA *,_devicemodeA *>, COMDAT

; 2481 : 	{	// copy [_First, _Last) to [_Dest, ...), random_access iterators

	push	ebp
	mov	ebp, esp
	sub	esp, 8

; 2482 : 	// if _OutIt is range checked, this will make sure there is enough space for the copy
; 2483 : 	_OutIt _Result = _Dest + (_Last - _First);

	mov	eax, DWORD PTR __Last$[ebp]
	sub	eax, DWORD PTR __First$[ebp]
	cdq
	mov	ecx, 156				; 0000009cH
	idiv	ecx
	imul	eax, 156				; 0000009cH
	add	eax, DWORD PTR __Dest$[ebp]
	mov	DWORD PTR __Result$[ebp], eax

; 2484 : 	_Copy_opt(_First, _Last, _CHECKED_BASE(_Dest), 
; 2485 : 		forward_iterator_tag(), _Nonscalar_ptr_iterator_tag(), _Range_checked_iterator_tag());

	xor	edx, edx
	mov	BYTE PTR $T123594[ebp], dl
	xor	eax, eax
	mov	BYTE PTR $T123595[ebp], al
	movzx	ecx, BYTE PTR $T123594[ebp]
	push	ecx
	movzx	edx, BYTE PTR $T123595[ebp]
	push	edx
	movzx	eax, BYTE PTR $T123596[ebp]
	push	eax
	lea	ecx, DWORD PTR __Dest$[ebp]
	push	ecx
	call	??$_Checked_base@PAU_devicemodeA@@@std@@YAPAU_devicemodeA@@AAPAU1@@Z ; std::_Checked_base<_devicemodeA *>
	add	esp, 4
	push	eax
	mov	edx, DWORD PTR __Last$[ebp]
	push	edx
	mov	eax, DWORD PTR __First$[ebp]
	push	eax
	call	??$_Copy_opt@PAU_devicemodeA@@PAU1@Uforward_iterator_tag@std@@@std@@YAPAU_devicemodeA@@PAU1@00Uforward_iterator_tag@0@U_Nonscalar_ptr_iterator_tag@0@U_Range_checked_iterator_tag@0@@Z ; std::_Copy_opt<_devicemodeA *,_devicemodeA *,std::forward_iterator_tag>
	add	esp, 24					; 00000018H

; 2486 : 	return _Result;

	mov	eax, DWORD PTR __Result$[ebp]

; 2487 : 	}

	mov	esp, ebp
	pop	ebp
	ret	0
??$_Copy_opt@PAU_devicemodeA@@PAU1@@std@@YAPAU_devicemodeA@@PAU1@00Urandom_access_iterator_tag@0@U_Nonscalar_ptr_iterator_tag@0@U_Range_checked_iterator_tag@0@@Z ENDP ; std::_Copy_opt<_devicemodeA *,_devicemodeA *>
_TEXT	ENDS
PUBLIC	?destroy@?$allocator@U_devicemodeA@@@std@@QAEXPAU_devicemodeA@@@Z ; std::allocator<_devicemodeA>::destroy
PUBLIC	?construct@?$allocator@U_devicemodeA@@@std@@QAEXPAU_devicemodeA@@ABU3@@Z ; std::allocator<_devicemodeA>::construct
;	COMDAT xdata$x
; File d:\program files (x86)\microsoft visual studio 9.0\vc\include\memory
xdata$x	SEGMENT
__catchsym$??$_Uninit_fill_n@PAU_devicemodeA@@IU1@V?$allocator@U_devicemodeA@@@std@@@std@@YAXPAU_devicemodeA@@IABU1@AAV?$allocator@U_devicemodeA@@@0@U_Nonscalar_ptr_iterator_tag@0@U_Range_checked_iterator_tag@0@@Z$2 DD 00H
	DD	00H
	DD	00H
	DD	FLAT:__catch$??$_Uninit_fill_n@PAU_devicemodeA@@IU1@V?$allocator@U_devicemodeA@@@std@@@std@@YAXPAU_devicemodeA@@IABU1@AAV?$allocator@U_devicemodeA@@@0@U_Nonscalar_ptr_iterator_tag@0@U_Range_checked_iterator_tag@0@@Z$0
__unwindtable$??$_Uninit_fill_n@PAU_devicemodeA@@IU1@V?$allocator@U_devicemodeA@@@std@@@std@@YAXPAU_devicemodeA@@IABU1@AAV?$allocator@U_devicemodeA@@@0@U_Nonscalar_ptr_iterator_tag@0@U_Range_checked_iterator_tag@0@@Z DD 0ffffffffH
	DD	00H
	DD	0ffffffffH
	DD	00H
__tryblocktable$??$_Uninit_fill_n@PAU_devicemodeA@@IU1@V?$allocator@U_devicemodeA@@@std@@@std@@YAXPAU_devicemodeA@@IABU1@AAV?$allocator@U_devicemodeA@@@0@U_Nonscalar_ptr_iterator_tag@0@U_Range_checked_iterator_tag@0@@Z DD 00H
	DD	00H
	DD	01H
	DD	01H
	DD	FLAT:__catchsym$??$_Uninit_fill_n@PAU_devicemodeA@@IU1@V?$allocator@U_devicemodeA@@@std@@@std@@YAXPAU_devicemodeA@@IABU1@AAV?$allocator@U_devicemodeA@@@0@U_Nonscalar_ptr_iterator_tag@0@U_Range_checked_iterator_tag@0@@Z$2
__ehfuncinfo$??$_Uninit_fill_n@PAU_devicemodeA@@IU1@V?$allocator@U_devicemodeA@@@std@@@std@@YAXPAU_devicemodeA@@IABU1@AAV?$allocator@U_devicemodeA@@@0@U_Nonscalar_ptr_iterator_tag@0@U_Range_checked_iterator_tag@0@@Z DD 019930522H
	DD	02H
	DD	FLAT:__unwindtable$??$_Uninit_fill_n@PAU_devicemodeA@@IU1@V?$allocator@U_devicemodeA@@@std@@@std@@YAXPAU_devicemodeA@@IABU1@AAV?$allocator@U_devicemodeA@@@0@U_Nonscalar_ptr_iterator_tag@0@U_Range_checked_iterator_tag@0@@Z
	DD	01H
	DD	FLAT:__tryblocktable$??$_Uninit_fill_n@PAU_devicemodeA@@IU1@V?$allocator@U_devicemodeA@@@std@@@std@@YAXPAU_devicemodeA@@IABU1@AAV?$allocator@U_devicemodeA@@@0@U_Nonscalar_ptr_iterator_tag@0@U_Range_checked_iterator_tag@0@@Z
	DD	2 DUP(00H)
	DD	00H
	DD	00H
; Function compile flags: /Odtp
xdata$x	ENDS
;	COMDAT ??$_Uninit_fill_n@PAU_devicemodeA@@IU1@V?$allocator@U_devicemodeA@@@std@@@std@@YAXPAU_devicemodeA@@IABU1@AAV?$allocator@U_devicemodeA@@@0@U_Nonscalar_ptr_iterator_tag@0@U_Range_checked_iterator_tag@0@@Z
_TEXT	SEGMENT
__Next$ = -20						; size = 4
__$EHRec$ = -16						; size = 16
__First$ = 8						; size = 4
__Count$ = 12						; size = 4
__Val$ = 16						; size = 4
__Al$ = 20						; size = 4
___formal$ = 24						; size = 1
___formal$ = 28						; size = 1
??$_Uninit_fill_n@PAU_devicemodeA@@IU1@V?$allocator@U_devicemodeA@@@std@@@std@@YAXPAU_devicemodeA@@IABU1@AAV?$allocator@U_devicemodeA@@@0@U_Nonscalar_ptr_iterator_tag@0@U_Range_checked_iterator_tag@0@@Z PROC ; std::_Uninit_fill_n<_devicemodeA *,unsigned int,_devicemodeA,std::allocator<_devicemodeA> >, COMDAT

; 393  : 	{	// copy _Count *_Val to raw _First, using _Al, arbitrary type

	push	ebp
	mov	ebp, esp
	push	-1
	push	__ehhandler$??$_Uninit_fill_n@PAU_devicemodeA@@IU1@V?$allocator@U_devicemodeA@@@std@@@std@@YAXPAU_devicemodeA@@IABU1@AAV?$allocator@U_devicemodeA@@@0@U_Nonscalar_ptr_iterator_tag@0@U_Range_checked_iterator_tag@0@@Z
	mov	eax, DWORD PTR fs:0
	push	eax
	push	ecx
	push	ecx
	push	ebx
	push	esi
	push	edi
	mov	eax, DWORD PTR ___security_cookie
	xor	eax, ebp
	push	eax
	lea	eax, DWORD PTR __$EHRec$[ebp+4]
	mov	DWORD PTR fs:0, eax
	mov	DWORD PTR __$EHRec$[ebp], esp

; 394  : 
; 395  :  #if _HAS_ITERATOR_DEBUGGING
; 396  : //	if (_Count < 0)
; 397  : //		_DEBUG_ERROR("negative count in uninitialized fill");
; 398  :  #endif /* _HAS_ITERATOR_DEBUGGING */
; 399  : 
; 400  : 	_FwdIt _Next = _First;

	mov	eax, DWORD PTR __First$[ebp]
	mov	DWORD PTR __Next$[ebp], eax

; 401  : 
; 402  : 	_TRY_BEGIN

	mov	DWORD PTR __$EHRec$[ebp+12], 0

; 403  : 	for (; 0 < _Count; --_Count, ++_First)

	jmp	SHORT $LN6@Uninit_fil
$LN5@Uninit_fil:
	mov	ecx, DWORD PTR __Count$[ebp]
	sub	ecx, 1
	mov	DWORD PTR __Count$[ebp], ecx
	mov	edx, DWORD PTR __First$[ebp]
	add	edx, 156				; 0000009cH
	mov	DWORD PTR __First$[ebp], edx
$LN6@Uninit_fil:
	cmp	DWORD PTR __Count$[ebp], 0
	jbe	SHORT $LN4@Uninit_fil

; 404  : 		_Al.construct(_First, _Val);

	mov	eax, DWORD PTR __Val$[ebp]
	push	eax
	mov	ecx, DWORD PTR __First$[ebp]
	push	ecx
	mov	ecx, DWORD PTR __Al$[ebp]
	call	?construct@?$allocator@U_devicemodeA@@@std@@QAEXPAU_devicemodeA@@ABU3@@Z ; std::allocator<_devicemodeA>::construct
	jmp	SHORT $LN5@Uninit_fil
$LN4@Uninit_fil:
	jmp	SHORT $LN10@Uninit_fil
__catch$??$_Uninit_fill_n@PAU_devicemodeA@@IU1@V?$allocator@U_devicemodeA@@@std@@@std@@YAXPAU_devicemodeA@@IABU1@AAV?$allocator@U_devicemodeA@@@0@U_Nonscalar_ptr_iterator_tag@0@U_Range_checked_iterator_tag@0@@Z$0:

; 405  : 	_CATCH_ALL
; 406  : 	for (; _Next != _First; ++_Next)

	jmp	SHORT $LN3@Uninit_fil
$LN2@Uninit_fil:
	mov	edx, DWORD PTR __Next$[ebp]
	add	edx, 156				; 0000009cH
	mov	DWORD PTR __Next$[ebp], edx
$LN3@Uninit_fil:
	mov	eax, DWORD PTR __Next$[ebp]
	cmp	eax, DWORD PTR __First$[ebp]
	je	SHORT $LN1@Uninit_fil

; 407  : 		_Al.destroy(_Next);

	mov	ecx, DWORD PTR __Next$[ebp]
	push	ecx
	mov	ecx, DWORD PTR __Al$[ebp]
	call	?destroy@?$allocator@U_devicemodeA@@@std@@QAEXPAU_devicemodeA@@@Z ; std::allocator<_devicemodeA>::destroy
	jmp	SHORT $LN2@Uninit_fil
$LN1@Uninit_fil:

; 408  : 	_RERAISE;

	push	0
	push	0
	call	__CxxThrowException@8

; 409  : 	_CATCH_END

	mov	DWORD PTR __$EHRec$[ebp+12], -1
	mov	eax, $LN9@Uninit_fil
	ret	0
$LN10@Uninit_fil:
	mov	DWORD PTR __$EHRec$[ebp+12], -1
$LN9@Uninit_fil:

; 410  : 	}

	mov	ecx, DWORD PTR __$EHRec$[ebp+4]
	mov	DWORD PTR fs:0, ecx
	pop	ecx
	pop	edi
	pop	esi
	pop	ebx
	mov	esp, ebp
	pop	ebp
	ret	0
_TEXT	ENDS
;	COMDAT text$x
text$x	SEGMENT
__ehhandler$??$_Uninit_fill_n@PAU_devicemodeA@@IU1@V?$allocator@U_devicemodeA@@@std@@@std@@YAXPAU_devicemodeA@@IABU1@AAV?$allocator@U_devicemodeA@@@0@U_Nonscalar_ptr_iterator_tag@0@U_Range_checked_iterator_tag@0@@Z:
	mov	edx, DWORD PTR [esp+8]
	lea	eax, DWORD PTR [edx+12]
	mov	ecx, DWORD PTR [edx-24]
	xor	ecx, eax
	call	@__security_check_cookie@4
	mov	eax, OFFSET __ehfuncinfo$??$_Uninit_fill_n@PAU_devicemodeA@@IU1@V?$allocator@U_devicemodeA@@@std@@@std@@YAXPAU_devicemodeA@@IABU1@AAV?$allocator@U_devicemodeA@@@0@U_Nonscalar_ptr_iterator_tag@0@U_Range_checked_iterator_tag@0@@Z
	jmp	___CxxFrameHandler3
text$x	ENDS
??$_Uninit_fill_n@PAU_devicemodeA@@IU1@V?$allocator@U_devicemodeA@@@std@@@std@@YAXPAU_devicemodeA@@IABU1@AAV?$allocator@U_devicemodeA@@@0@U_Nonscalar_ptr_iterator_tag@0@U_Range_checked_iterator_tag@0@@Z ENDP ; std::_Uninit_fill_n<_devicemodeA *,unsigned int,_devicemodeA,std::allocator<_devicemodeA> >
; Function compile flags: /Odtp
; File d:\program files (x86)\microsoft visual studio 9.0\vc\include\xmemory
;	COMDAT ??$_Destroy_range@V?$allocator@U_devicemodeA@@@std@@@std@@YAXPAU_devicemodeA@@0AAV?$allocator@U_devicemodeA@@@0@U_Nonscalar_ptr_iterator_tag@0@@Z
_TEXT	SEGMENT
__First$ = 8						; size = 4
__Last$ = 12						; size = 4
__Al$ = 16						; size = 4
___formal$ = 20						; size = 1
??$_Destroy_range@V?$allocator@U_devicemodeA@@@std@@@std@@YAXPAU_devicemodeA@@0AAV?$allocator@U_devicemodeA@@@0@U_Nonscalar_ptr_iterator_tag@0@@Z PROC ; std::_Destroy_range<std::allocator<_devicemodeA> >, COMDAT

; 232  : 	{	// destroy [_First, _Last), arbitrary type

	push	ebp
	mov	ebp, esp

; 233  : 	for (; _First != _Last; ++_First)

	jmp	SHORT $LN3@Destroy_ra
$LN2@Destroy_ra:
	mov	eax, DWORD PTR __First$[ebp]
	add	eax, 156				; 0000009cH
	mov	DWORD PTR __First$[ebp], eax
$LN3@Destroy_ra:
	mov	ecx, DWORD PTR __First$[ebp]
	cmp	ecx, DWORD PTR __Last$[ebp]
	je	SHORT $LN4@Destroy_ra

; 234  : 		_Al.destroy(_First);

	mov	edx, DWORD PTR __First$[ebp]
	push	edx
	mov	ecx, DWORD PTR __Al$[ebp]
	call	?destroy@?$allocator@U_devicemodeA@@@std@@QAEXPAU_devicemodeA@@@Z ; std::allocator<_devicemodeA>::destroy
	jmp	SHORT $LN2@Destroy_ra
$LN4@Destroy_ra:

; 235  : 	}

	pop	ebp
	ret	0
??$_Destroy_range@V?$allocator@U_devicemodeA@@@std@@@std@@YAXPAU_devicemodeA@@0AAV?$allocator@U_devicemodeA@@@0@U_Nonscalar_ptr_iterator_tag@0@@Z ENDP ; std::_Destroy_range<std::allocator<_devicemodeA> >
_TEXT	ENDS
PUBLIC	??$_Uninit_move@PAU_devicemodeA@@PAU1@V?$allocator@U_devicemodeA@@@std@@U_Undefined_move_tag@3@@std@@YAPAU_devicemodeA@@PAU1@00AAV?$allocator@U_devicemodeA@@@0@U_Undefined_move_tag@0@U_Range_checked_iterator_tag@0@@Z ; std::_Uninit_move<_devicemodeA *,_devicemodeA *,std::allocator<_devicemodeA>,std::_Undefined_move_tag>
; Function compile flags: /Odtp
; File d:\program files (x86)\microsoft visual studio 9.0\vc\include\memory
;	COMDAT ??$_Unchecked_uninitialized_move@PAU_devicemodeA@@PAU1@V?$allocator@U_devicemodeA@@@std@@@stdext@@YAPAU_devicemodeA@@PAU1@00AAV?$allocator@U_devicemodeA@@@std@@@Z
_TEXT	SEGMENT
$T123617 = -2						; size = 1
$T123616 = -1						; size = 1
__First$ = 8						; size = 4
__Last$ = 12						; size = 4
__Dest$ = 16						; size = 4
__Al$ = 20						; size = 4
??$_Unchecked_uninitialized_move@PAU_devicemodeA@@PAU1@V?$allocator@U_devicemodeA@@@std@@@stdext@@YAPAU_devicemodeA@@PAU1@00AAV?$allocator@U_devicemodeA@@@std@@@Z PROC ; stdext::_Unchecked_uninitialized_move<_devicemodeA *,_devicemodeA *,std::allocator<_devicemodeA> >, COMDAT

; 861  : 	{	// move [_First, _Last) to raw _Dest, using _Al

	push	ebp
	mov	ebp, esp
	push	ecx

; 862  : 	return (_STD _Uninit_move(_CHECKED_BASE(_First),
; 863  : 		_CHECKED_BASE(_Last), _Dest, _Al,
; 864  : 		_STD _Move_cat(_Dest), _STD _Range_checked_iterator_tag()));

	xor	eax, eax
	mov	BYTE PTR $T123616[ebp], al
	lea	ecx, DWORD PTR __Dest$[ebp]
	push	ecx
	call	??$_Move_cat@PAU_devicemodeA@@@std@@YA?AU_Undefined_move_tag@0@ABQAU_devicemodeA@@@Z ; std::_Move_cat<_devicemodeA *>
	add	esp, 4
	mov	BYTE PTR $T123617[ebp], al
	movzx	edx, BYTE PTR $T123616[ebp]
	push	edx
	movzx	eax, BYTE PTR $T123617[ebp]
	push	eax
	mov	ecx, DWORD PTR __Al$[ebp]
	push	ecx
	mov	edx, DWORD PTR __Dest$[ebp]
	push	edx
	lea	eax, DWORD PTR __Last$[ebp]
	push	eax
	call	??$_Checked_base@PAU_devicemodeA@@@std@@YAPAU_devicemodeA@@AAPAU1@@Z ; std::_Checked_base<_devicemodeA *>
	add	esp, 4
	push	eax
	lea	ecx, DWORD PTR __First$[ebp]
	push	ecx
	call	??$_Checked_base@PAU_devicemodeA@@@std@@YAPAU_devicemodeA@@AAPAU1@@Z ; std::_Checked_base<_devicemodeA *>
	add	esp, 4
	push	eax
	call	??$_Uninit_move@PAU_devicemodeA@@PAU1@V?$allocator@U_devicemodeA@@@std@@U_Undefined_move_tag@3@@std@@YAPAU_devicemodeA@@PAU1@00AAV?$allocator@U_devicemodeA@@@0@U_Undefined_move_tag@0@U_Range_checked_iterator_tag@0@@Z ; std::_Uninit_move<_devicemodeA *,_devicemodeA *,std::allocator<_devicemodeA>,std::_Undefined_move_tag>
	add	esp, 24					; 00000018H

; 865  : 	}

	mov	esp, ebp
	pop	ebp
	ret	0
??$_Unchecked_uninitialized_move@PAU_devicemodeA@@PAU1@V?$allocator@U_devicemodeA@@@std@@@stdext@@YAPAU_devicemodeA@@PAU1@00AAV?$allocator@U_devicemodeA@@@std@@@Z ENDP ; stdext::_Unchecked_uninitialized_move<_devicemodeA *,_devicemodeA *,std::allocator<_devicemodeA> >
; Function compile flags: /Odtp
; File d:\program files (x86)\microsoft visual studio 9.0\vc\include\xutility
_TEXT	ENDS
;	COMDAT ??$_Fill@PAU_devicemodeA@@U1@@std@@YAXPAU_devicemodeA@@0ABU1@@Z
_TEXT	SEGMENT
__First$ = 8						; size = 4
__Last$ = 12						; size = 4
__Val$ = 16						; size = 4
??$_Fill@PAU_devicemodeA@@U1@@std@@YAXPAU_devicemodeA@@0ABU1@@Z PROC ; std::_Fill<_devicemodeA *,_devicemodeA>, COMDAT

