; Listing generated by Microsoft (R) Optimizing Compiler Version 15.00.30729.01 

	TITLE	i:\svnroot\client\OgreMain\OgreQuaternion.cpp
	.686P
	.XMM
	include listing.inc
	.model	flat

INCLUDELIB MSVCRT
INCLUDELIB OLDNAMES

PUBLIC	?_Value@?$_Is_swap_move@U_Swap_move_tag@std@@@std@@2_NB ; std::_Is_swap_move<std::_Swap_move_tag>::_Value
PUBLIC	?collate@?$_Locbase@H@std@@2HB			; std::_Locbase<int>::collate
PUBLIC	?ctype@?$_Locbase@H@std@@2HB			; std::_Locbase<int>::ctype
PUBLIC	?monetary@?$_Locbase@H@std@@2HB			; std::_Locbase<int>::monetary
PUBLIC	?numeric@?$_Locbase@H@std@@2HB			; std::_Locbase<int>::numeric
PUBLIC	?time@?$_Locbase@H@std@@2HB			; std::_Locbase<int>::time
PUBLIC	?messages@?$_Locbase@H@std@@2HB			; std::_Locbase<int>::messages
PUBLIC	?all@?$_Locbase@H@std@@2HB			; std::_Locbase<int>::all
PUBLIC	?none@?$_Locbase@H@std@@2HB			; std::_Locbase<int>::none
PUBLIC	?skipws@?$_Iosb@H@std@@2W4_Fmtflags@12@B	; std::_Iosb<int>::skipws
PUBLIC	?unitbuf@?$_Iosb@H@std@@2W4_Fmtflags@12@B	; std::_Iosb<int>::unitbuf
PUBLIC	?uppercase@?$_Iosb@H@std@@2W4_Fmtflags@12@B	; std::_Iosb<int>::uppercase
PUBLIC	?showbase@?$_Iosb@H@std@@2W4_Fmtflags@12@B	; std::_Iosb<int>::showbase
PUBLIC	?showpoint@?$_Iosb@H@std@@2W4_Fmtflags@12@B	; std::_Iosb<int>::showpoint
PUBLIC	?showpos@?$_Iosb@H@std@@2W4_Fmtflags@12@B	; std::_Iosb<int>::showpos
PUBLIC	?left@?$_Iosb@H@std@@2W4_Fmtflags@12@B		; std::_Iosb<int>::left
PUBLIC	?right@?$_Iosb@H@std@@2W4_Fmtflags@12@B		; std::_Iosb<int>::right
PUBLIC	?internal@?$_Iosb@H@std@@2W4_Fmtflags@12@B	; std::_Iosb<int>::internal
PUBLIC	?dec@?$_Iosb@H@std@@2W4_Fmtflags@12@B		; std::_Iosb<int>::dec
PUBLIC	?oct@?$_Iosb@H@std@@2W4_Fmtflags@12@B		; std::_Iosb<int>::oct
PUBLIC	?hex@?$_Iosb@H@std@@2W4_Fmtflags@12@B		; std::_Iosb<int>::hex
PUBLIC	?scientific@?$_Iosb@H@std@@2W4_Fmtflags@12@B	; std::_Iosb<int>::scientific
PUBLIC	?fixed@?$_Iosb@H@std@@2W4_Fmtflags@12@B		; std::_Iosb<int>::fixed
PUBLIC	?hexfloat@?$_Iosb@H@std@@2W4_Fmtflags@12@B	; std::_Iosb<int>::hexfloat
PUBLIC	?boolalpha@?$_Iosb@H@std@@2W4_Fmtflags@12@B	; std::_Iosb<int>::boolalpha
PUBLIC	?_Stdio@?$_Iosb@H@std@@2W4_Fmtflags@12@B	; std::_Iosb<int>::_Stdio
PUBLIC	?adjustfield@?$_Iosb@H@std@@2W4_Fmtflags@12@B	; std::_Iosb<int>::adjustfield
PUBLIC	?basefield@?$_Iosb@H@std@@2W4_Fmtflags@12@B	; std::_Iosb<int>::basefield
PUBLIC	?floatfield@?$_Iosb@H@std@@2W4_Fmtflags@12@B	; std::_Iosb<int>::floatfield
PUBLIC	?goodbit@?$_Iosb@H@std@@2W4_Iostate@12@B	; std::_Iosb<int>::goodbit
PUBLIC	?eofbit@?$_Iosb@H@std@@2W4_Iostate@12@B		; std::_Iosb<int>::eofbit
PUBLIC	?failbit@?$_Iosb@H@std@@2W4_Iostate@12@B	; std::_Iosb<int>::failbit
PUBLIC	?badbit@?$_Iosb@H@std@@2W4_Iostate@12@B		; std::_Iosb<int>::badbit
PUBLIC	?_Hardfail@?$_Iosb@H@std@@2W4_Iostate@12@B	; std::_Iosb<int>::_Hardfail
PUBLIC	?in@?$_Iosb@H@std@@2W4_Openmode@12@B		; std::_Iosb<int>::in
PUBLIC	?out@?$_Iosb@H@std@@2W4_Openmode@12@B		; std::_Iosb<int>::out
PUBLIC	?ate@?$_Iosb@H@std@@2W4_Openmode@12@B		; std::_Iosb<int>::ate
PUBLIC	?app@?$_Iosb@H@std@@2W4_Openmode@12@B		; std::_Iosb<int>::app
PUBLIC	?trunc@?$_Iosb@H@std@@2W4_Openmode@12@B		; std::_Iosb<int>::trunc
PUBLIC	?_Nocreate@?$_Iosb@H@std@@2W4_Openmode@12@B	; std::_Iosb<int>::_Nocreate
PUBLIC	?_Noreplace@?$_Iosb@H@std@@2W4_Openmode@12@B	; std::_Iosb<int>::_Noreplace
PUBLIC	?binary@?$_Iosb@H@std@@2W4_Openmode@12@B	; std::_Iosb<int>::binary
PUBLIC	?beg@?$_Iosb@H@std@@2W4_Seekdir@12@B		; std::_Iosb<int>::beg
PUBLIC	?cur@?$_Iosb@H@std@@2W4_Seekdir@12@B		; std::_Iosb<int>::cur
PUBLIC	?end@?$_Iosb@H@std@@2W4_Seekdir@12@B		; std::_Iosb<int>::end
PUBLIC	?value@?$integral_constant@_N$0A@@tr1@std@@2_NB	; std::tr1::integral_constant<bool,0>::value
PUBLIC	?value@?$integral_constant@_N$00@tr1@std@@2_NB	; std::tr1::integral_constant<bool,1>::value
;	COMDAT ?value@?$integral_constant@_N$00@tr1@std@@2_NB
CONST	SEGMENT
?value@?$integral_constant@_N$00@tr1@std@@2_NB DB 01H	; std::tr1::integral_constant<bool,1>::value
CONST	ENDS
;	COMDAT ?value@?$integral_constant@_N$0A@@tr1@std@@2_NB
CONST	SEGMENT
?value@?$integral_constant@_N$0A@@tr1@std@@2_NB DB 00H	; std::tr1::integral_constant<bool,0>::value
CONST	ENDS
;	COMDAT ?end@?$_Iosb@H@std@@2W4_Seekdir@12@B
CONST	SEGMENT
?end@?$_Iosb@H@std@@2W4_Seekdir@12@B DD 02H		; std::_Iosb<int>::end
CONST	ENDS
;	COMDAT ?cur@?$_Iosb@H@std@@2W4_Seekdir@12@B
CONST	SEGMENT
?cur@?$_Iosb@H@std@@2W4_Seekdir@12@B DD 01H		; std::_Iosb<int>::cur
CONST	ENDS
;	COMDAT ?beg@?$_Iosb@H@std@@2W4_Seekdir@12@B
CONST	SEGMENT
?beg@?$_Iosb@H@std@@2W4_Seekdir@12@B DD 00H		; std::_Iosb<int>::beg
CONST	ENDS
;	COMDAT ?binary@?$_Iosb@H@std@@2W4_Openmode@12@B
CONST	SEGMENT
?binary@?$_Iosb@H@std@@2W4_Openmode@12@B DD 020H	; std::_Iosb<int>::binary
CONST	ENDS
;	COMDAT ?_Noreplace@?$_Iosb@H@std@@2W4_Openmode@12@B
CONST	SEGMENT
?_Noreplace@?$_Iosb@H@std@@2W4_Openmode@12@B DD 080H	; std::_Iosb<int>::_Noreplace
CONST	ENDS
;	COMDAT ?_Nocreate@?$_Iosb@H@std@@2W4_Openmode@12@B
CONST	SEGMENT
?_Nocreate@?$_Iosb@H@std@@2W4_Openmode@12@B DD 040H	; std::_Iosb<int>::_Nocreate
CONST	ENDS
;	COMDAT ?trunc@?$_Iosb@H@std@@2W4_Openmode@12@B
CONST	SEGMENT
?trunc@?$_Iosb@H@std@@2W4_Openmode@12@B DD 010H		; std::_Iosb<int>::trunc
CONST	ENDS
;	COMDAT ?app@?$_Iosb@H@std@@2W4_Openmode@12@B
CONST	SEGMENT
?app@?$_Iosb@H@std@@2W4_Openmode@12@B DD 08H		; std::_Iosb<int>::app
CONST	ENDS
;	COMDAT ?ate@?$_Iosb@H@std@@2W4_Openmode@12@B
CONST	SEGMENT
?ate@?$_Iosb@H@std@@2W4_Openmode@12@B DD 04H		; std::_Iosb<int>::ate
CONST	ENDS
;	COMDAT ?out@?$_Iosb@H@std@@2W4_Openmode@12@B
CONST	SEGMENT
?out@?$_Iosb@H@std@@2W4_Openmode@12@B DD 02H		; std::_Iosb<int>::out
CONST	ENDS
;	COMDAT ?in@?$_Iosb@H@std@@2W4_Openmode@12@B
CONST	SEGMENT
?in@?$_Iosb@H@std@@2W4_Openmode@12@B DD 01H		; std::_Iosb<int>::in
CONST	ENDS
;	COMDAT ?_Hardfail@?$_Iosb@H@std@@2W4_Iostate@12@B
CONST	SEGMENT
?_Hardfail@?$_Iosb@H@std@@2W4_Iostate@12@B DD 010H	; std::_Iosb<int>::_Hardfail
CONST	ENDS
;	COMDAT ?badbit@?$_Iosb@H@std@@2W4_Iostate@12@B
CONST	SEGMENT
?badbit@?$_Iosb@H@std@@2W4_Iostate@12@B DD 04H		; std::_Iosb<int>::badbit
CONST	ENDS
;	COMDAT ?failbit@?$_Iosb@H@std@@2W4_Iostate@12@B
CONST	SEGMENT
?failbit@?$_Iosb@H@std@@2W4_Iostate@12@B DD 02H		; std::_Iosb<int>::failbit
CONST	ENDS
;	COMDAT ?eofbit@?$_Iosb@H@std@@2W4_Iostate@12@B
CONST	SEGMENT
?eofbit@?$_Iosb@H@std@@2W4_Iostate@12@B DD 01H		; std::_Iosb<int>::eofbit
CONST	ENDS
;	COMDAT ?goodbit@?$_Iosb@H@std@@2W4_Iostate@12@B
CONST	SEGMENT
?goodbit@?$_Iosb@H@std@@2W4_Iostate@12@B DD 00H		; std::_Iosb<int>::goodbit
CONST	ENDS
;	COMDAT ?floatfield@?$_Iosb@H@std@@2W4_Fmtflags@12@B
CONST	SEGMENT
?floatfield@?$_Iosb@H@std@@2W4_Fmtflags@12@B DD 03000H	; std::_Iosb<int>::floatfield
CONST	ENDS
;	COMDAT ?basefield@?$_Iosb@H@std@@2W4_Fmtflags@12@B
CONST	SEGMENT
?basefield@?$_Iosb@H@std@@2W4_Fmtflags@12@B DD 0e00H	; std::_Iosb<int>::basefield
CONST	ENDS
;	COMDAT ?adjustfield@?$_Iosb@H@std@@2W4_Fmtflags@12@B
CONST	SEGMENT
?adjustfield@?$_Iosb@H@std@@2W4_Fmtflags@12@B DD 01c0H	; std::_Iosb<int>::adjustfield
CONST	ENDS
;	COMDAT ?_Stdio@?$_Iosb@H@std@@2W4_Fmtflags@12@B
CONST	SEGMENT
?_Stdio@?$_Iosb@H@std@@2W4_Fmtflags@12@B DD 08000H	; std::_Iosb<int>::_Stdio
CONST	ENDS
;	COMDAT ?boolalpha@?$_Iosb@H@std@@2W4_Fmtflags@12@B
CONST	SEGMENT
?boolalpha@?$_Iosb@H@std@@2W4_Fmtflags@12@B DD 04000H	; std::_Iosb<int>::boolalpha
CONST	ENDS
;	COMDAT ?hexfloat@?$_Iosb@H@std@@2W4_Fmtflags@12@B
CONST	SEGMENT
?hexfloat@?$_Iosb@H@std@@2W4_Fmtflags@12@B DD 03000H	; std::_Iosb<int>::hexfloat
CONST	ENDS
;	COMDAT ?fixed@?$_Iosb@H@std@@2W4_Fmtflags@12@B
CONST	SEGMENT
?fixed@?$_Iosb@H@std@@2W4_Fmtflags@12@B DD 02000H	; std::_Iosb<int>::fixed
CONST	ENDS
;	COMDAT ?scientific@?$_Iosb@H@std@@2W4_Fmtflags@12@B
CONST	SEGMENT
?scientific@?$_Iosb@H@std@@2W4_Fmtflags@12@B DD 01000H	; std::_Iosb<int>::scientific
CONST	ENDS
;	COMDAT ?hex@?$_Iosb@H@std@@2W4_Fmtflags@12@B
CONST	SEGMENT
?hex@?$_Iosb@H@std@@2W4_Fmtflags@12@B DD 0800H		; std::_Iosb<int>::hex
CONST	ENDS
;	COMDAT ?oct@?$_Iosb@H@std@@2W4_Fmtflags@12@B
CONST	SEGMENT
?oct@?$_Iosb@H@std@@2W4_Fmtflags@12@B DD 0400H		; std::_Iosb<int>::oct
CONST	ENDS
;	COMDAT ?dec@?$_Iosb@H@std@@2W4_Fmtflags@12@B
CONST	SEGMENT
?dec@?$_Iosb@H@std@@2W4_Fmtflags@12@B DD 0200H		; std::_Iosb<int>::dec
CONST	ENDS
;	COMDAT ?internal@?$_Iosb@H@std@@2W4_Fmtflags@12@B
CONST	SEGMENT
?internal@?$_Iosb@H@std@@2W4_Fmtflags@12@B DD 0100H	; std::_Iosb<int>::internal
CONST	ENDS
;	COMDAT ?right@?$_Iosb@H@std@@2W4_Fmtflags@12@B
CONST	SEGMENT
?right@?$_Iosb@H@std@@2W4_Fmtflags@12@B DD 080H		; std::_Iosb<int>::right
CONST	ENDS
;	COMDAT ?left@?$_Iosb@H@std@@2W4_Fmtflags@12@B
CONST	SEGMENT
?left@?$_Iosb@H@std@@2W4_Fmtflags@12@B DD 040H		; std::_Iosb<int>::left
CONST	ENDS
;	COMDAT ?showpos@?$_Iosb@H@std@@2W4_Fmtflags@12@B
CONST	SEGMENT
?showpos@?$_Iosb@H@std@@2W4_Fmtflags@12@B DD 020H	; std::_Iosb<int>::showpos
CONST	ENDS
;	COMDAT ?showpoint@?$_Iosb@H@std@@2W4_Fmtflags@12@B
CONST	SEGMENT
?showpoint@?$_Iosb@H@std@@2W4_Fmtflags@12@B DD 010H	; std::_Iosb<int>::showpoint
CONST	ENDS
;	COMDAT ?showbase@?$_Iosb@H@std@@2W4_Fmtflags@12@B
CONST	SEGMENT
?showbase@?$_Iosb@H@std@@2W4_Fmtflags@12@B DD 08H	; std::_Iosb<int>::showbase
CONST	ENDS
;	COMDAT ?uppercase@?$_Iosb@H@std@@2W4_Fmtflags@12@B
CONST	SEGMENT
?uppercase@?$_Iosb@H@std@@2W4_Fmtflags@12@B DD 04H	; std::_Iosb<int>::uppercase
CONST	ENDS
;	COMDAT ?unitbuf@?$_Iosb@H@std@@2W4_Fmtflags@12@B
CONST	SEGMENT
?unitbuf@?$_Iosb@H@std@@2W4_Fmtflags@12@B DD 02H	; std::_Iosb<int>::unitbuf
CONST	ENDS
;	COMDAT ?skipws@?$_Iosb@H@std@@2W4_Fmtflags@12@B
CONST	SEGMENT
?skipws@?$_Iosb@H@std@@2W4_Fmtflags@12@B DD 01H		; std::_Iosb<int>::skipws
CONST	ENDS
;	COMDAT ?none@?$_Locbase@H@std@@2HB
CONST	SEGMENT
?none@?$_Locbase@H@std@@2HB DD 00H			; std::_Locbase<int>::none
CONST	ENDS
;	COMDAT ?all@?$_Locbase@H@std@@2HB
CONST	SEGMENT
?all@?$_Locbase@H@std@@2HB DD 03fH			; std::_Locbase<int>::all
CONST	ENDS
;	COMDAT ?messages@?$_Locbase@H@std@@2HB
CONST	SEGMENT
?messages@?$_Locbase@H@std@@2HB DD 020H			; std::_Locbase<int>::messages
CONST	ENDS
;	COMDAT ?time@?$_Locbase@H@std@@2HB
CONST	SEGMENT
?time@?$_Locbase@H@std@@2HB DD 010H			; std::_Locbase<int>::time
CONST	ENDS
;	COMDAT ?numeric@?$_Locbase@H@std@@2HB
CONST	SEGMENT
?numeric@?$_Locbase@H@std@@2HB DD 08H			; std::_Locbase<int>::numeric
CONST	ENDS
;	COMDAT ?monetary@?$_Locbase@H@std@@2HB
CONST	SEGMENT
?monetary@?$_Locbase@H@std@@2HB DD 04H			; std::_Locbase<int>::monetary
CONST	ENDS
;	COMDAT ?ctype@?$_Locbase@H@std@@2HB
CONST	SEGMENT
?ctype@?$_Locbase@H@std@@2HB DD 02H			; std::_Locbase<int>::ctype
CONST	ENDS
;	COMDAT ?collate@?$_Locbase@H@std@@2HB
CONST	SEGMENT
?collate@?$_Locbase@H@std@@2HB DD 01H			; std::_Locbase<int>::collate
CONST	ENDS
;	COMDAT ?_Value@?$_Is_swap_move@U_Swap_move_tag@std@@@std@@2_NB
CONST	SEGMENT
?_Value@?$_Is_swap_move@U_Swap_move_tag@std@@@std@@2_NB DB 01H ; std::_Is_swap_move<std::_Swap_move_tag>::_Value
CONST	ENDS
_DATA	SEGMENT
__bad_alloc_Message DD FLAT:$SG5713
_DATA	ENDS
CONST	SEGMENT
$SG5713	DB	'bad allocation', 00H
	ORG $+1
_MAX_FLOAT DD	07f7fffffr			; 3.40282e+038
_ONE_PI	DD	040490fd0r			; 3.14159
_EPSILON DD	03727c5acr			; 1e-005
_RADS_PER_DEG DD 03c8efa35r			; 0.0174533
_DEGS_PER_RAD DD 042652ee1r			; 57.2958
CONST	ENDS
PUBLIC	??_7DataStream@Ogre@@6B@			; Ogre::DataStream::`vftable'
PUBLIC	??0DataStream@Ogre@@QAE@XZ			; Ogre::DataStream::DataStream
PUBLIC	??_R4DataStream@Ogre@@6B@			; Ogre::DataStream::`RTTI Complete Object Locator'
PUBLIC	??_R0?AVDataStream@Ogre@@@8			; Ogre::DataStream `RTTI Type Descriptor'
PUBLIC	??_R3DataStream@Ogre@@8				; Ogre::DataStream::`RTTI Class Hierarchy Descriptor'
PUBLIC	??_R2DataStream@Ogre@@8				; Ogre::DataStream::`RTTI Base Class Array'
PUBLIC	??_R1A@?0A@EA@DataStream@Ogre@@8		; Ogre::DataStream::`RTTI Base Class Descriptor at (0,-1,0,64)'
PUBLIC	??_EDataStream@Ogre@@UAEPAXI@Z			; Ogre::DataStream::`vector deleting destructor'
PUBLIC	?size@DataStream@Ogre@@UBEIXZ			; Ogre::DataStream::size
EXTRN	__imp_??1?$basic_string@DU?$char_traits@D@std@@V?$allocator@D@2@@std@@QAE@XZ:PROC
EXTRN	__imp_??0?$basic_string@DU?$char_traits@D@std@@V?$allocator@D@2@@std@@QAE@XZ:PROC
EXTRN	___security_cookie:DWORD
EXTRN	___CxxFrameHandler3:PROC
EXTRN	@__security_check_cookie@4:PROC
EXTRN	??_7type_info@@6B@:QWORD			; type_info::`vftable'
EXTRN	__purecall:PROC
EXTRN	?readLine@DataStream@Ogre@@UAEIPADIABV?$basic_string@DU?$char_traits@D@std@@V?$allocator@D@2@@std@@@Z:PROC ; Ogre::DataStream::readLine
EXTRN	?getLine@DataStream@Ogre@@UAE?AV?$basic_string@DU?$char_traits@D@std@@V?$allocator@D@2@@std@@_N@Z:PROC ; Ogre::DataStream::getLine
EXTRN	?getAsString@DataStream@Ogre@@UAE?AV?$basic_string@DU?$char_traits@D@std@@V?$allocator@D@2@@std@@XZ:PROC ; Ogre::DataStream::getAsString
EXTRN	?skipLine@DataStream@Ogre@@UAEIABV?$basic_string@DU?$char_traits@D@std@@V?$allocator@D@2@@std@@@Z:PROC ; Ogre::DataStream::skipLine
;	COMDAT ??_R1A@?0A@EA@DataStream@Ogre@@8
; File i:\svnroot\client\ogremain\ogredatastream.h
rdata$r	SEGMENT
??_R1A@?0A@EA@DataStream@Ogre@@8 DD FLAT:??_R0?AVDataStream@Ogre@@@8 ; Ogre::DataStream::`RTTI Base Class Descriptor at (0,-1,0,64)'
	DD	00H
	DD	00H
	DD	0ffffffffH
	DD	00H
	DD	040H
	DD	FLAT:??_R3DataStream@Ogre@@8
rdata$r	ENDS
;	COMDAT ??_R2DataStream@Ogre@@8
rdata$r	SEGMENT
??_R2DataStream@Ogre@@8 DD FLAT:??_R1A@?0A@EA@DataStream@Ogre@@8 ; Ogre::DataStream::`RTTI Base Class Array'
rdata$r	ENDS
;	COMDAT ??_R3DataStream@Ogre@@8
rdata$r	SEGMENT
??_R3DataStream@Ogre@@8 DD 00H				; Ogre::DataStream::`RTTI Class Hierarchy Descriptor'
	DD	00H
	DD	01H
	DD	FLAT:??_R2DataStream@Ogre@@8
rdata$r	ENDS
;	COMDAT ??_R0?AVDataStream@Ogre@@@8
_DATA	SEGMENT
??_R0?AVDataStream@Ogre@@@8 DD FLAT:??_7type_info@@6B@	; Ogre::DataStream `RTTI Type Descriptor'
	DD	00H
	DB	'.?AVDataStream@Ogre@@', 00H
_DATA	ENDS
;	COMDAT ??_R4DataStream@Ogre@@6B@
rdata$r	SEGMENT
??_R4DataStream@Ogre@@6B@ DD 00H			; Ogre::DataStream::`RTTI Complete Object Locator'
	DD	00H
	DD	00H
	DD	FLAT:??_R0?AVDataStream@Ogre@@@8
	DD	FLAT:??_R3DataStream@Ogre@@8
rdata$r	ENDS
;	COMDAT ??_7DataStream@Ogre@@6B@
CONST	SEGMENT
??_7DataStream@Ogre@@6B@ DD FLAT:??_R4DataStream@Ogre@@6B@ ; Ogre::DataStream::`vftable'
	DD	FLAT:??_EDataStream@Ogre@@UAEPAXI@Z
	DD	FLAT:__purecall
	DD	FLAT:__purecall
	DD	FLAT:?readLine@DataStream@Ogre@@UAEIPADIABV?$basic_string@DU?$char_traits@D@std@@V?$allocator@D@2@@std@@@Z
	DD	FLAT:?getLine@DataStream@Ogre@@UAE?AV?$basic_string@DU?$char_traits@D@std@@V?$allocator@D@2@@std@@_N@Z
	DD	FLAT:?getAsString@DataStream@Ogre@@UAE?AV?$basic_string@DU?$char_traits@D@std@@V?$allocator@D@2@@std@@XZ
	DD	FLAT:?skipLine@DataStream@Ogre@@UAEIABV?$basic_string@DU?$char_traits@D@std@@V?$allocator@D@2@@std@@@Z
	DD	FLAT:__purecall
	DD	FLAT:__purecall
	DD	FLAT:__purecall
	DD	FLAT:__purecall
	DD	FLAT:?size@DataStream@Ogre@@UBEIXZ
	DD	FLAT:__purecall
	DD	FLAT:__purecall
CONST	ENDS
;	COMDAT xdata$x
xdata$x	SEGMENT
__unwindtable$??0DataStream@Ogre@@QAE@XZ DD 0ffffffffH
	DD	FLAT:__unwindfunclet$??0DataStream@Ogre@@QAE@XZ$0
__ehfuncinfo$??0DataStream@Ogre@@QAE@XZ DD 019930522H
	DD	01H
	DD	FLAT:__unwindtable$??0DataStream@Ogre@@QAE@XZ
	DD	2 DUP(00H)
	DD	2 DUP(00H)
	DD	00H
	DD	00H
; Function compile flags: /Odtp
xdata$x	ENDS
;	COMDAT ??0DataStream@Ogre@@QAE@XZ
_TEXT	SEGMENT
_this$ = -16						; size = 4
__$EHRec$ = -12						; size = 12
??0DataStream@Ogre@@QAE@XZ PROC				; Ogre::DataStream::DataStream, COMDAT
; _this$ = ecx

; 68   : 		DataStream() : mSize(0) {}

	push	ebp
	mov	ebp, esp
	push	-1
	push	__ehhandler$??0DataStream@Ogre@@QAE@XZ
	mov	eax, DWORD PTR fs:0
	push	eax
	push	ecx
	mov	eax, DWORD PTR ___security_cookie
	xor	eax, ebp
	push	eax
	lea	eax, DWORD PTR __$EHRec$[ebp]
	mov	DWORD PTR fs:0, eax
	mov	DWORD PTR _this$[ebp], ecx
	mov	eax, DWORD PTR _this$[ebp]
	mov	DWORD PTR [eax], OFFSET ??_7DataStream@Ogre@@6B@
	mov	ecx, DWORD PTR _this$[ebp]
	add	ecx, 4
	call	DWORD PTR __imp_??0?$basic_string@DU?$char_traits@D@std@@V?$allocator@D@2@@std@@QAE@XZ
	mov	DWORD PTR __$EHRec$[ebp+8], 0
	mov	ecx, DWORD PTR _this$[ebp]
	mov	DWORD PTR [ecx+32], 0
	mov	DWORD PTR __$EHRec$[ebp+8], -1
	mov	eax, DWORD PTR _this$[ebp]
	mov	ecx, DWORD PTR __$EHRec$[ebp]
	mov	DWORD PTR fs:0, ecx
	pop	ecx
	mov	esp, ebp
	pop	ebp
	ret	0
_TEXT	ENDS
;	COMDAT text$x
text$x	SEGMENT
__unwindfunclet$??0DataStream@Ogre@@QAE@XZ$0:
	mov	ecx, DWORD PTR _this$[ebp]
	add	ecx, 4
	jmp	DWORD PTR __imp_??1?$basic_string@DU?$char_traits@D@std@@V?$allocator@D@2@@std@@QAE@XZ
__ehhandler$??0DataStream@Ogre@@QAE@XZ:
	mov	edx, DWORD PTR [esp+8]
	lea	eax, DWORD PTR [edx+12]
	mov	ecx, DWORD PTR [edx-8]
	xor	ecx, eax
	call	@__security_check_cookie@4
	mov	eax, OFFSET __ehfuncinfo$??0DataStream@Ogre@@QAE@XZ
	jmp	___CxxFrameHandler3
text$x	ENDS
??0DataStream@Ogre@@QAE@XZ ENDP				; Ogre::DataStream::DataStream
PUBLIC	??0DataStream@Ogre@@QAE@ABV?$basic_string@DU?$char_traits@D@std@@V?$allocator@D@2@@std@@@Z ; Ogre::DataStream::DataStream
EXTRN	__imp_??0?$basic_string@DU?$char_traits@D@std@@V?$allocator@D@2@@std@@QAE@ABV01@@Z:PROC
;	COMDAT xdata$x
xdata$x	SEGMENT
__unwindtable$??0DataStream@Ogre@@QAE@ABV?$basic_string@DU?$char_traits@D@std@@V?$allocator@D@2@@std@@@Z DD 0ffffffffH
	DD	FLAT:__unwindfunclet$??0DataStream@Ogre@@QAE@ABV?$basic_string@DU?$char_traits@D@std@@V?$allocator@D@2@@std@@@Z$0
__ehfuncinfo$??0DataStream@Ogre@@QAE@ABV?$basic_string@DU?$char_traits@D@std@@V?$allocator@D@2@@std@@@Z DD 019930522H
	DD	01H
	DD	FLAT:__unwindtable$??0DataStream@Ogre@@QAE@ABV?$basic_string@DU?$char_traits@D@std@@V?$allocator@D@2@@std@@@Z
	DD	2 DUP(00H)
	DD	2 DUP(00H)
	DD	00H
	DD	00H
; Function compile flags: /Odtp
xdata$x	ENDS
;	COMDAT ??0DataStream@Ogre@@QAE@ABV?$basic_string@DU?$char_traits@D@std@@V?$allocator@D@2@@std@@@Z
_TEXT	SEGMENT
_this$ = -16						; size = 4
__$EHRec$ = -12						; size = 12
_name$ = 8						; size = 4
??0DataStream@Ogre@@QAE@ABV?$basic_string@DU?$char_traits@D@std@@V?$allocator@D@2@@std@@@Z PROC ; Ogre::DataStream::DataStream, COMDAT
; _this$ = ecx

; 70   : 		DataStream(const String& name) : mName(name), mSize(0) {}

	push	ebp
	mov	ebp, esp
	push	-1
	push	__ehhandler$??0DataStream@Ogre@@QAE@ABV?$basic_string@DU?$char_traits@D@std@@V?$allocator@D@2@@std@@@Z
	mov	eax, DWORD PTR fs:0
	push	eax
	push	ecx
	mov	eax, DWORD PTR ___security_cookie
	xor	eax, ebp
	push	eax
	lea	eax, DWORD PTR __$EHRec$[ebp]
	mov	DWORD PTR fs:0, eax
	mov	DWORD PTR _this$[ebp], ecx
	mov	eax, DWORD PTR _this$[ebp]
	mov	DWORD PTR [eax], OFFSET ??_7DataStream@Ogre@@6B@
	mov	ecx, DWORD PTR _name$[ebp]
	push	ecx
	mov	ecx, DWORD PTR _this$[ebp]
	add	ecx, 4
	call	DWORD PTR __imp_??0?$basic_string@DU?$char_traits@D@std@@V?$allocator@D@2@@std@@QAE@ABV01@@Z
	mov	DWORD PTR __$EHRec$[ebp+8], 0
	mov	edx, DWORD PTR _this$[ebp]
	mov	DWORD PTR [edx+32], 0
	mov	DWORD PTR __$EHRec$[ebp+8], -1
	mov	eax, DWORD PTR _this$[ebp]
	mov	ecx, DWORD PTR __$EHRec$[ebp]
	mov	DWORD PTR fs:0, ecx
	pop	ecx
	mov	esp, ebp
	pop	ebp
	ret	4
_TEXT	ENDS
;	COMDAT text$x
text$x	SEGMENT
__unwindfunclet$??0DataStream@Ogre@@QAE@ABV?$basic_string@DU?$char_traits@D@std@@V?$allocator@D@2@@std@@@Z$0:
	mov	ecx, DWORD PTR _this$[ebp]
	add	ecx, 4
	jmp	DWORD PTR __imp_??1?$basic_string@DU?$char_traits@D@std@@V?$allocator@D@2@@std@@QAE@XZ
__ehhandler$??0DataStream@Ogre@@QAE@ABV?$basic_string@DU?$char_traits@D@std@@V?$allocator@D@2@@std@@@Z:
	mov	edx, DWORD PTR [esp+8]
	lea	eax, DWORD PTR [edx+12]
	mov	ecx, DWORD PTR [edx-8]
	xor	ecx, eax
	call	@__security_check_cookie@4
	mov	eax, OFFSET __ehfuncinfo$??0DataStream@Ogre@@QAE@ABV?$basic_string@DU?$char_traits@D@std@@V?$allocator@D@2@@std@@@Z
	jmp	___CxxFrameHandler3
text$x	ENDS
??0DataStream@Ogre@@QAE@ABV?$basic_string@DU?$char_traits@D@std@@V?$allocator@D@2@@std@@@Z ENDP ; Ogre::DataStream::DataStream
PUBLIC	?getName@DataStream@Ogre@@QAEABV?$basic_string@DU?$char_traits@D@std@@V?$allocator@D@2@@std@@XZ ; Ogre::DataStream::getName
; Function compile flags: /Odtp
;	COMDAT ?getName@DataStream@Ogre@@QAEABV?$basic_string@DU?$char_traits@D@std@@V?$allocator@D@2@@std@@XZ
_TEXT	SEGMENT
_this$ = -4						; size = 4
?getName@DataStream@Ogre@@QAEABV?$basic_string@DU?$char_traits@D@std@@V?$allocator@D@2@@std@@XZ PROC ; Ogre::DataStream::getName, COMDAT
; _this$ = ecx

; 72   : 		const String& getName(void) { return mName; }

	push	ebp
	mov	ebp, esp
	push	ecx
	mov	DWORD PTR _this$[ebp], ecx
	mov	eax, DWORD PTR _this$[ebp]
	add	eax, 4
	mov	esp, ebp
	pop	ebp
	ret	0
?getName@DataStream@Ogre@@QAEABV?$basic_string@DU?$char_traits@D@std@@V?$allocator@D@2@@std@@XZ ENDP ; Ogre::DataStream::getName
_TEXT	ENDS
PUBLIC	??1DataStream@Ogre@@UAE@XZ			; Ogre::DataStream::~DataStream
;	COMDAT xdata$x
xdata$x	SEGMENT
__unwindtable$??1DataStream@Ogre@@UAE@XZ DD 0ffffffffH
	DD	FLAT:__unwindfunclet$??1DataStream@Ogre@@UAE@XZ$0
__ehfuncinfo$??1DataStream@Ogre@@UAE@XZ DD 019930522H
	DD	01H
	DD	FLAT:__unwindtable$??1DataStream@Ogre@@UAE@XZ
	DD	2 DUP(00H)
	DD	2 DUP(00H)
	DD	00H
	DD	00H
; Function compile flags: /Odtp
xdata$x	ENDS
;	COMDAT ??1DataStream@Ogre@@UAE@XZ
_TEXT	SEGMENT
_this$ = -16						; size = 4
__$EHRec$ = -12						; size = 12
??1DataStream@Ogre@@UAE@XZ PROC				; Ogre::DataStream::~DataStream, COMDAT
; _this$ = ecx

; 73   : 		virtual ~DataStream() {}

	push	ebp
	mov	ebp, esp
	push	-1
	push	__ehhandler$??1DataStream@Ogre@@UAE@XZ
	mov	eax, DWORD PTR fs:0
	push	eax
	push	ecx
	mov	eax, DWORD PTR ___security_cookie
	xor	eax, ebp
	push	eax
	lea	eax, DWORD PTR __$EHRec$[ebp]
	mov	DWORD PTR fs:0, eax
	mov	DWORD PTR _this$[ebp], ecx
	mov	eax, DWORD PTR _this$[ebp]
	mov	DWORD PTR [eax], OFFSET ??_7DataStream@Ogre@@6B@
	mov	DWORD PTR __$EHRec$[ebp+8], 0
	mov	DWORD PTR __$EHRec$[ebp+8], -1
	mov	ecx, DWORD PTR _this$[ebp]
	add	ecx, 4
	call	DWORD PTR __imp_??1?$basic_string@DU?$char_traits@D@std@@V?$allocator@D@2@@std@@QAE@XZ
	mov	ecx, DWORD PTR __$EHRec$[ebp]
	mov	DWORD PTR fs:0, ecx
	pop	ecx
	mov	esp, ebp
	pop	ebp
	ret	0
_TEXT	ENDS
;	COMDAT text$x
text$x	SEGMENT
__unwindfunclet$??1DataStream@Ogre@@UAE@XZ$0:
	mov	ecx, DWORD PTR _this$[ebp]
	add	ecx, 4
	jmp	DWORD PTR __imp_??1?$basic_string@DU?$char_traits@D@std@@V?$allocator@D@2@@std@@QAE@XZ
__ehhandler$??1DataStream@Ogre@@UAE@XZ:
	mov	edx, DWORD PTR [esp+8]
	lea	eax, DWORD PTR [edx+12]
	mov	ecx, DWORD PTR [edx-8]
	xor	ecx, eax
	call	@__security_check_cookie@4
	mov	eax, OFFSET __ehfuncinfo$??1DataStream@Ogre@@UAE@XZ
	jmp	___CxxFrameHandler3
text$x	ENDS
??1DataStream@Ogre@@UAE@XZ ENDP				; Ogre::DataStream::~DataStream
; Function compile flags: /Odtp
;	COMDAT ?size@DataStream@Ogre@@UBEIXZ
_TEXT	SEGMENT
_this$ = -4						; size = 4
?size@DataStream@Ogre@@UBEIXZ PROC			; Ogre::DataStream::size, COMDAT
; _this$ = ecx

; 157  : 		virtual size_t size(void) const { return mSize; }

	push	ebp
	mov	ebp, esp
	push	ecx
	mov	DWORD PTR _this$[ebp], ecx
	mov	eax, DWORD PTR _this$[ebp]
	mov	eax, DWORD PTR [eax+32]
	mov	esp, ebp
	pop	ebp
	ret	0
?size@DataStream@Ogre@@UBEIXZ ENDP			; Ogre::DataStream::size
_TEXT	ENDS
PUBLIC	??0DataStream@Ogre@@QAE@ABV01@@Z		; Ogre::DataStream::DataStream
;	COMDAT xdata$x
xdata$x	SEGMENT
__unwindtable$??0DataStream@Ogre@@QAE@ABV01@@Z DD 0ffffffffH
	DD	FLAT:__unwindfunclet$??0DataStream@Ogre@@QAE@ABV01@@Z$0
__ehfuncinfo$??0DataStream@Ogre@@QAE@ABV01@@Z DD 019930522H
	DD	01H
	DD	FLAT:__unwindtable$??0DataStream@Ogre@@QAE@ABV01@@Z
	DD	2 DUP(00H)
	DD	2 DUP(00H)
	DD	00H
	DD	00H
; Function compile flags: /Odtp
xdata$x	ENDS
;	COMDAT ??0DataStream@Ogre@@QAE@ABV01@@Z
_TEXT	SEGMENT
_this$ = -16						; size = 4
__$EHRec$ = -12						; size = 12
___that$ = 8						; size = 4
??0DataStream@Ogre@@QAE@ABV01@@Z PROC			; Ogre::DataStream::DataStream, COMDAT
; _this$ = ecx
	push	ebp
	mov	ebp, esp
	push	-1
	push	__ehhandler$??0DataStream@Ogre@@QAE@ABV01@@Z
	mov	eax, DWORD PTR fs:0
	push	eax
	push	ecx
	mov	eax, DWORD PTR ___security_cookie
	xor	eax, ebp
	push	eax
	lea	eax, DWORD PTR __$EHRec$[ebp]
	mov	DWORD PTR fs:0, eax
	mov	DWORD PTR _this$[ebp], ecx
	mov	eax, DWORD PTR _this$[ebp]
	mov	DWORD PTR [eax], OFFSET ??_7DataStream@Ogre@@6B@
	mov	ecx, DWORD PTR ___that$[ebp]
	add	ecx, 4
	push	ecx
	mov	ecx, DWORD PTR _this$[ebp]
	add	ecx, 4
	call	DWORD PTR __imp_??0?$basic_string@DU?$char_traits@D@std@@V?$allocator@D@2@@std@@QAE@ABV01@@Z
	mov	DWORD PTR __$EHRec$[ebp+8], 0
	mov	edx, DWORD PTR _this$[ebp]
	mov	eax, DWORD PTR ___that$[ebp]
	mov	ecx, DWORD PTR [eax+32]
	mov	DWORD PTR [edx+32], ecx
	mov	DWORD PTR __$EHRec$[ebp+8], -1
	mov	eax, DWORD PTR _this$[ebp]
	mov	ecx, DWORD PTR __$EHRec$[ebp]
	mov	DWORD PTR fs:0, ecx
	pop	ecx
	mov	esp, ebp
	pop	ebp
	ret	4
_TEXT	ENDS
;	COMDAT text$x
text$x	SEGMENT
__unwindfunclet$??0DataStream@Ogre@@QAE@ABV01@@Z$0:
	mov	ecx, DWORD PTR _this$[ebp]
	add	ecx, 4
	jmp	DWORD PTR __imp_??1?$basic_string@DU?$char_traits@D@std@@V?$allocator@D@2@@std@@QAE@XZ
__ehhandler$??0DataStream@Ogre@@QAE@ABV01@@Z:
	mov	edx, DWORD PTR [esp+8]
	lea	eax, DWORD PTR [edx+12]
	mov	ecx, DWORD PTR [edx-8]
	xor	ecx, eax
	call	@__security_check_cookie@4
	mov	eax, OFFSET __ehfuncinfo$??0DataStream@Ogre@@QAE@ABV01@@Z
	jmp	___CxxFrameHandler3
text$x	ENDS
??0DataStream@Ogre@@QAE@ABV01@@Z ENDP			; Ogre::DataStream::DataStream
PUBLIC	??4DataStream@Ogre@@QAEAAV01@ABV01@@Z		; Ogre::DataStream::operator=
EXTRN	__imp_??4?$basic_string@DU?$char_traits@D@std@@V?$allocator@D@2@@std@@QAEAAV01@ABV01@@Z:PROC
; Function compile flags: /Odtp
;	COMDAT ??4DataStream@Ogre@@QAEAAV01@ABV01@@Z
_TEXT	SEGMENT
_this$ = -4						; size = 4
___that$ = 8						; size = 4
??4DataStream@Ogre@@QAEAAV01@ABV01@@Z PROC		; Ogre::DataStream::operator=, COMDAT
; _this$ = ecx
	push	ebp
	mov	ebp, esp
	push	ecx
	mov	DWORD PTR _this$[ebp], ecx
	mov	eax, DWORD PTR ___that$[ebp]
	add	eax, 4
	push	eax
	mov	ecx, DWORD PTR _this$[ebp]
	add	ecx, 4
	call	DWORD PTR __imp_??4?$basic_string@DU?$char_traits@D@std@@V?$allocator@D@2@@std@@QAEAAV01@ABV01@@Z
	mov	ecx, DWORD PTR _this$[ebp]
	mov	edx, DWORD PTR ___that$[ebp]
	mov	eax, DWORD PTR [edx+32]
	mov	DWORD PTR [ecx+32], eax
	mov	eax, DWORD PTR _this$[ebp]
	mov	esp, ebp
	pop	ebp
	ret	4
??4DataStream@Ogre@@QAEAAV01@ABV01@@Z ENDP		; Ogre::DataStream::operator=
_TEXT	ENDS
PUBLIC	??_GDataStream@Ogre@@UAEPAXI@Z			; Ogre::DataStream::`scalar deleting destructor'
EXTRN	??3@YAXPAX@Z:PROC				; operator delete
; Function compile flags: /Odtp
;	COMDAT ??_GDataStream@Ogre@@UAEPAXI@Z
_TEXT	SEGMENT
_this$ = -4						; size = 4
___flags$ = 8						; size = 4
??_GDataStream@Ogre@@UAEPAXI@Z PROC			; Ogre::DataStream::`scalar deleting destructor', COMDAT
; _this$ = ecx
	push	ebp
	mov	ebp, esp
	push	ecx
	mov	DWORD PTR _this$[ebp], ecx
	mov	ecx, DWORD PTR _this$[ebp]
	call	??1DataStream@Ogre@@UAE@XZ		; Ogre::DataStream::~DataStream
	mov	eax, DWORD PTR ___flags$[ebp]
	and	eax, 1
	je	SHORT $LN1@scalar
	mov	ecx, DWORD PTR _this$[ebp]
	push	ecx
	call	??3@YAXPAX@Z				; operator delete
	add	esp, 4
$LN1@scalar:
	mov	eax, DWORD PTR _this$[ebp]
	mov	esp, ebp
	pop	ebp
	ret	4
??_GDataStream@Ogre@@UAEPAXI@Z ENDP			; Ogre::DataStream::`scalar deleting destructor'
_TEXT	ENDS
EXTRN	??_V@YAXPAX@Z:PROC				; operator delete[]
EXTRN	??_M@YGXPAXIHP6EX0@Z@Z:PROC			; `eh vector destructor iterator'
; Function compile flags: /Odtp
;	COMDAT ??_EDataStream@Ogre@@UAEPAXI@Z
_TEXT	SEGMENT
_this$ = -4						; size = 4
___flags$ = 8						; size = 4
??_EDataStream@Ogre@@UAEPAXI@Z PROC			; Ogre::DataStream::`vector deleting destructor', COMDAT
; _this$ = ecx
	push	ebp
	mov	ebp, esp
	push	ecx
	mov	DWORD PTR _this$[ebp], ecx
	mov	eax, DWORD PTR ___flags$[ebp]
	and	eax, 2
	je	SHORT $LN3@vector
	push	OFFSET ??1DataStream@Ogre@@UAE@XZ	; Ogre::DataStream::~DataStream
	mov	ecx, DWORD PTR _this$[ebp]
	mov	edx, DWORD PTR [ecx-4]
	push	edx
	push	36					; 00000024H
	mov	eax, DWORD PTR _this$[ebp]
	push	eax
	call	??_M@YGXPAXIHP6EX0@Z@Z
	mov	ecx, DWORD PTR ___flags$[ebp]
	and	ecx, 1
	je	SHORT $LN2@vector
	mov	edx, DWORD PTR _this$[ebp]
	sub	edx, 4
	push	edx
	call	??_V@YAXPAX@Z				; operator delete[]
	add	esp, 4
$LN2@vector:
	mov	eax, DWORD PTR _this$[ebp]
	sub	eax, 4
	jmp	SHORT $LN4@vector
$LN3@vector:
	mov	ecx, DWORD PTR _this$[ebp]
	call	??1DataStream@Ogre@@UAE@XZ		; Ogre::DataStream::~DataStream
	mov	eax, DWORD PTR ___flags$[ebp]
	and	eax, 1
	je	SHORT $LN1@vector
	mov	ecx, DWORD PTR _this$[ebp]
	push	ecx
	call	??3@YAXPAX@Z				; operator delete
	add	esp, 4
$LN1@vector:
	mov	eax, DWORD PTR _this$[ebp]
$LN4@vector:
	mov	esp, ebp
	pop	ebp
	ret	4
??_EDataStream@Ogre@@UAEPAXI@Z ENDP			; Ogre::DataStream::`vector deleting destructor'
_TEXT	ENDS
PUBLIC	?getPtr@MemoryDataStream@Ogre@@QAEPAEXZ		; Ogre::MemoryDataStream::getPtr
; Function compile flags: /Odtp
;	COMDAT ?getPtr@MemoryDataStream@Ogre@@QAEPAEXZ
_TEXT	SEGMENT
_this$ = -4						; size = 4
?getPtr@MemoryDataStream@Ogre@@QAEPAEXZ PROC		; Ogre::MemoryDataStream::getPtr, COMDAT
; _this$ = ecx

; 267  : 		uchar* getPtr(void) { return mData; }

	push	ebp
	mov	ebp, esp
	push	ecx
	mov	DWORD PTR _this$[ebp], ecx
	mov	eax, DWORD PTR _this$[ebp]
	mov	eax, DWORD PTR [eax+36]
	mov	esp, ebp
	pop	ebp
	ret	0
?getPtr@MemoryDataStream@Ogre@@QAEPAEXZ ENDP		; Ogre::MemoryDataStream::getPtr
_TEXT	ENDS
PUBLIC	?getCurrentPtr@MemoryDataStream@Ogre@@QAEPAEXZ	; Ogre::MemoryDataStream::getCurrentPtr
; Function compile flags: /Odtp
;	COMDAT ?getCurrentPtr@MemoryDataStream@Ogre@@QAEPAEXZ
_TEXT	SEGMENT
_this$ = -4						; size = 4
?getCurrentPtr@MemoryDataStream@Ogre@@QAEPAEXZ PROC	; Ogre::MemoryDataStream::getCurrentPtr, COMDAT
; _this$ = ecx

; 270  : 		uchar* getCurrentPtr(void) { return mPos; }

	push	ebp
	mov	ebp, esp
	push	ecx
	mov	DWORD PTR _this$[ebp], ecx
	mov	eax, DWORD PTR _this$[ebp]
	mov	eax, DWORD PTR [eax+40]
	mov	esp, ebp
	pop	ebp
	ret	0
?getCurrentPtr@MemoryDataStream@Ogre@@QAEPAEXZ ENDP	; Ogre::MemoryDataStream::getCurrentPtr
_TEXT	ENDS
PUBLIC	?getMemoryImage@MemoryDataStream@Ogre@@UAEPAXXZ	; Ogre::MemoryDataStream::getMemoryImage
; Function compile flags: /Odtp
;	COMDAT ?getMemoryImage@MemoryDataStream@Ogre@@UAEPAXXZ
_TEXT	SEGMENT
_this$ = -4						; size = 4
?getMemoryImage@MemoryDataStream@Ogre@@UAEPAXXZ PROC	; Ogre::MemoryDataStream::getMemoryImage, COMDAT
; _this$ = ecx

; 307  : 		{

	push	ebp
	mov	ebp, esp
	push	ecx
	mov	DWORD PTR _this$[ebp], ecx

; 308  : 			return mData;

	mov	eax, DWORD PTR _this$[ebp]
	mov	eax, DWORD PTR [eax+36]

; 309  : 		}

	mov	esp, ebp
	pop	ebp
	ret	0
?getMemoryImage@MemoryDataStream@Ogre@@UAEPAXXZ ENDP	; Ogre::MemoryDataStream::getMemoryImage
_TEXT	ENDS
PUBLIC	?setFreeOnClose@MemoryDataStream@Ogre@@QAEXP6AXPAX@Z@Z ; Ogre::MemoryDataStream::setFreeOnClose
; Function compile flags: /Odtp
;	COMDAT ?setFreeOnClose@MemoryDataStream@Ogre@@QAEXP6AXPAX@Z@Z
_TEXT	SEGMENT
_this$ = -4						; size = 4
_freeOnClose$ = 8					; size = 4
?setFreeOnClose@MemoryDataStream@Ogre@@QAEXP6AXPAX@Z@Z PROC ; Ogre::MemoryDataStream::setFreeOnClose, COMDAT
; _this$ = ecx

; 313  : 		void setFreeOnClose(void (*freeOnClose)(void *)) { mFreeOnClose = freeOnClose; }

	push	ebp
	mov	ebp, esp
	push	ecx
	mov	DWORD PTR _this$[ebp], ecx
	mov	eax, DWORD PTR _this$[ebp]
	mov	ecx, DWORD PTR _freeOnClose$[ebp]
	mov	DWORD PTR [eax+48], ecx
	mov	esp, ebp
	pop	ebp
	ret	4
?setFreeOnClose@MemoryDataStream@Ogre@@QAEXP6AXPAX@Z@Z ENDP ; Ogre::MemoryDataStream::setFreeOnClose
_TEXT	ENDS
PUBLIC	??_7MemoryDataStream@Ogre@@6B@			; Ogre::MemoryDataStream::`vftable'
PUBLIC	??0MemoryDataStream@Ogre@@QAE@ABV01@@Z		; Ogre::MemoryDataStream::MemoryDataStream
PUBLIC	??_R4MemoryDataStream@Ogre@@6B@			; Ogre::MemoryDataStream::`RTTI Complete Object Locator'
PUBLIC	??_R0?AVMemoryDataStream@Ogre@@@8		; Ogre::MemoryDataStream `RTTI Type Descriptor'
PUBLIC	??_R3MemoryDataStream@Ogre@@8			; Ogre::MemoryDataStream::`RTTI Class Hierarchy Descriptor'
PUBLIC	??_R2MemoryDataStream@Ogre@@8			; Ogre::MemoryDataStream::`RTTI Base Class Array'
PUBLIC	??_R1A@?0A@EA@MemoryDataStream@Ogre@@8		; Ogre::MemoryDataStream::`RTTI Base Class Descriptor at (0,-1,0,64)'
PUBLIC	??_EMemoryDataStream@Ogre@@UAEPAXI@Z		; Ogre::MemoryDataStream::`vector deleting destructor'
EXTRN	?read@MemoryDataStream@Ogre@@UAEIPAXI@Z:PROC	; Ogre::MemoryDataStream::read
EXTRN	?write@MemoryDataStream@Ogre@@UAEIPBXI@Z:PROC	; Ogre::MemoryDataStream::write
EXTRN	?readLine@MemoryDataStream@Ogre@@UAEIPADIABV?$basic_string@DU?$char_traits@D@std@@V?$allocator@D@2@@std@@@Z:PROC ; Ogre::MemoryDataStream::readLine
EXTRN	?skipLine@MemoryDataStream@Ogre@@UAEIABV?$basic_string@DU?$char_traits@D@std@@V?$allocator@D@2@@std@@@Z:PROC ; Ogre::MemoryDataStream::skipLine
EXTRN	?skip@MemoryDataStream@Ogre@@UAEXJ@Z:PROC	; Ogre::MemoryDataStream::skip
EXTRN	?seek@MemoryDataStream@Ogre@@UAEXI@Z:PROC	; Ogre::MemoryDataStream::seek
EXTRN	?tell@MemoryDataStream@Ogre@@UBEIXZ:PROC	; Ogre::MemoryDataStream::tell
EXTRN	?eof@MemoryDataStream@Ogre@@UBE_NXZ:PROC	; Ogre::MemoryDataStream::eof
EXTRN	?close@MemoryDataStream@Ogre@@UAEXXZ:PROC	; Ogre::MemoryDataStream::close
;	COMDAT ??_R1A@?0A@EA@MemoryDataStream@Ogre@@8
rdata$r	SEGMENT
??_R1A@?0A@EA@MemoryDataStream@Ogre@@8 DD FLAT:??_R0?AVMemoryDataStream@Ogre@@@8 ; Ogre::MemoryDataStream::`RTTI Base Class Descriptor at (0,-1,0,64)'
	DD	01H
	DD	00H
	DD	0ffffffffH
	DD	00H
	DD	040H
	DD	FLAT:??_R3MemoryDataStream@Ogre@@8
rdata$r	ENDS
;	COMDAT ??_R2MemoryDataStream@Ogre@@8
rdata$r	SEGMENT
??_R2MemoryDataStream@Ogre@@8 DD FLAT:??_R1A@?0A@EA@MemoryDataStream@Ogre@@8 ; Ogre::MemoryDataStream::`RTTI Base Class Array'
	DD	FLAT:??_R1A@?0A@EA@DataStream@Ogre@@8
rdata$r	ENDS
;	COMDAT ??_R3MemoryDataStream@Ogre@@8
rdata$r	SEGMENT
??_R3MemoryDataStream@Ogre@@8 DD 00H			; Ogre::MemoryDataStream::`RTTI Class Hierarchy Descriptor'
	DD	00H
	DD	02H
	DD	FLAT:??_R2MemoryDataStream@Ogre@@8
rdata$r	ENDS
;	COMDAT ??_R0?AVMemoryDataStream@Ogre@@@8
_DATA	SEGMENT
??_R0?AVMemoryDataStream@Ogre@@@8 DD FLAT:??_7type_info@@6B@ ; Ogre::MemoryDataStream `RTTI Type Descriptor'
	DD	00H
	DB	'.?AVMemoryDataStream@Ogre@@', 00H
_DATA	ENDS
;	COMDAT ??_R4MemoryDataStream@Ogre@@6B@
rdata$r	SEGMENT
??_R4MemoryDataStream@Ogre@@6B@ DD 00H			; Ogre::MemoryDataStream::`RTTI Complete Object Locator'
	DD	00H
	DD	00H
	DD	FLAT:??_R0?AVMemoryDataStream@Ogre@@@8
	DD	FLAT:??_R3MemoryDataStream@Ogre@@8
rdata$r	ENDS
;	COMDAT ??_7MemoryDataStream@Ogre@@6B@
CONST	SEGMENT
??_7MemoryDataStream@Ogre@@6B@ DD FLAT:??_R4MemoryDataStream@Ogre@@6B@ ; Ogre::MemoryDataStream::`vftable'
	DD	FLAT:??_EMemoryDataStream@Ogre@@UAEPAXI@Z
	DD	FLAT:?read@MemoryDataStream@Ogre@@UAEIPAXI@Z
	DD	FLAT:?write@MemoryDataStream@Ogre@@UAEIPBXI@Z
	DD	FLAT:?readLine@MemoryDataStream@Ogre@@UAEIPADIABV?$basic_string@DU?$char_traits@D@std@@V?$allocator@D@2@@std@@@Z
	DD	FLAT:?getLine@DataStream@Ogre@@UAE?AV?$basic_string@DU?$char_traits@D@std@@V?$allocator@D@2@@std@@_N@Z
	DD	FLAT:?getAsString@DataStream@Ogre@@UAE?AV?$basic_string@DU?$char_traits@D@std@@V?$allocator@D@2@@std@@XZ
	DD	FLAT:?skipLine@MemoryDataStream@Ogre@@UAEIABV?$basic_string@DU?$char_traits@D@std@@V?$allocator@D@2@@std@@@Z
	DD	FLAT:?skip@MemoryDataStream@Ogre@@UAEXJ@Z
	DD	FLAT:?seek@MemoryDataStream@Ogre@@UAEXI@Z
	DD	FLAT:?tell@MemoryDataStream@Ogre@@UBEIXZ
	DD	FLAT:?eof@MemoryDataStream@Ogre@@UBE_NXZ
	DD	FLAT:?size@DataStream@Ogre@@UBEIXZ
	DD	FLAT:?close@MemoryDataStream@Ogre@@UAEXXZ
	DD	FLAT:?getMemoryImage@MemoryDataStream@Ogre@@UAEPAXXZ
CONST	ENDS
;	COMDAT xdata$x
xdata$x	SEGMENT
__unwindtable$??0MemoryDataStream@Ogre@@QAE@ABV01@@Z DD 0ffffffffH
	DD	FLAT:__unwindfunclet$??0MemoryDataStream@Ogre@@QAE@ABV01@@Z$0
__ehfuncinfo$??0MemoryDataStream@Ogre@@QAE@ABV01@@Z DD 019930522H
	DD	01H
	DD	FLAT:__unwindtable$??0MemoryDataStream@Ogre@@QAE@ABV01@@Z
	DD	2 DUP(00H)
	DD	2 DUP(00H)
	DD	00H
	DD	00H
; Function compile flags: /Odtp
xdata$x	ENDS
;	COMDAT ??0MemoryDataStream@Ogre@@QAE@ABV01@@Z
_TEXT	SEGMENT
_this$ = -16						; size = 4
__$EHRec$ = -12						; size = 12
___that$ = 8						; size = 4
??0MemoryDataStream@Ogre@@QAE@ABV01@@Z PROC		; Ogre::MemoryDataStream::MemoryDataStream, COMDAT
; _this$ = ecx
	push	ebp
	mov	ebp, esp
	push	-1
	push	__ehhandler$??0MemoryDataStream@Ogre@@QAE@ABV01@@Z
	mov	eax, DWORD PTR fs:0
	push	eax
	push	ecx
	mov	eax, DWORD PTR ___security_cookie
	xor	eax, ebp
	push	eax
	lea	eax, DWORD PTR __$EHRec$[ebp]
	mov	DWORD PTR fs:0, eax
	mov	DWORD PTR _this$[ebp], ecx
	mov	eax, DWORD PTR ___that$[ebp]
	push	eax
	mov	ecx, DWORD PTR _this$[ebp]
	call	??0DataStream@Ogre@@QAE@ABV01@@Z
	mov	DWORD PTR __$EHRec$[ebp+8], 0
	mov	ecx, DWORD PTR _this$[ebp]
	mov	DWORD PTR [ecx], OFFSET ??_7MemoryDataStream@Ogre@@6B@
	mov	edx, DWORD PTR _this$[ebp]
	mov	eax, DWORD PTR ___that$[ebp]
	mov	ecx, DWORD PTR [eax+36]
	mov	DWORD PTR [edx+36], ecx
	mov	edx, DWORD PTR _this$[ebp]
	mov	eax, DWORD PTR ___that$[ebp]
	mov	ecx, DWORD PTR [eax+40]
	mov	DWORD PTR [edx+40], ecx
	mov	edx, DWORD PTR _this$[ebp]
	mov	eax, DWORD PTR ___that$[ebp]
	mov	ecx, DWORD PTR [eax+44]
	mov	DWORD PTR [edx+44], ecx
	mov	edx, DWORD PTR _this$[ebp]
	mov	eax, DWORD PTR ___that$[ebp]
	mov	ecx, DWORD PTR [eax+48]
	mov	DWORD PTR [edx+48], ecx
	mov	DWORD PTR __$EHRec$[ebp+8], -1
	mov	eax, DWORD PTR _this$[ebp]
	mov	ecx, DWORD PTR __$EHRec$[ebp]
	mov	DWORD PTR fs:0, ecx
	pop	ecx
	mov	esp, ebp
	pop	ebp
	ret	4
_TEXT	ENDS
;	COMDAT text$x
text$x	SEGMENT
__unwindfunclet$??0MemoryDataStream@Ogre@@QAE@ABV01@@Z$0:
	mov	ecx, DWORD PTR _this$[ebp]
	jmp	??1DataStream@Ogre@@UAE@XZ		; Ogre::DataStream::~DataStream
__ehhandler$??0MemoryDataStream@Ogre@@QAE@ABV01@@Z:
	mov	edx, DWORD PTR [esp+8]
	lea	eax, DWORD PTR [edx+12]
	mov	ecx, DWORD PTR [edx-8]
	xor	ecx, eax
	call	@__security_check_cookie@4
	mov	eax, OFFSET __ehfuncinfo$??0MemoryDataStream@Ogre@@QAE@ABV01@@Z
	jmp	___CxxFrameHandler3
text$x	ENDS
??0MemoryDataStream@Ogre@@QAE@ABV01@@Z ENDP		; Ogre::MemoryDataStream::MemoryDataStream
PUBLIC	??4MemoryDataStream@Ogre@@QAEAAV01@ABV01@@Z	; Ogre::MemoryDataStream::operator=
; Function compile flags: /Odtp
;	COMDAT ??4MemoryDataStream@Ogre@@QAEAAV01@ABV01@@Z
_TEXT	SEGMENT
_this$ = -4						; size = 4
___that$ = 8						; size = 4
??4MemoryDataStream@Ogre@@QAEAAV01@ABV01@@Z PROC	; Ogre::MemoryDataStream::operator=, COMDAT
; _this$ = ecx
	push	ebp
	mov	ebp, esp
	push	ecx
	mov	DWORD PTR _this$[ebp], ecx
	mov	eax, DWORD PTR ___that$[ebp]
	push	eax
	mov	ecx, DWORD PTR _this$[ebp]
	call	??4DataStream@Ogre@@QAEAAV01@ABV01@@Z
	mov	ecx, DWORD PTR _this$[ebp]
	mov	edx, DWORD PTR ___that$[ebp]
	mov	eax, DWORD PTR [edx+36]
	mov	DWORD PTR [ecx+36], eax
	mov	ecx, DWORD PTR _this$[ebp]
	mov	edx, DWORD PTR ___that$[ebp]
	mov	eax, DWORD PTR [edx+40]
	mov	DWORD PTR [ecx+40], eax
	mov	ecx, DWORD PTR _this$[ebp]
	mov	edx, DWORD PTR ___that$[ebp]
	mov	eax, DWORD PTR [edx+44]
	mov	DWORD PTR [ecx+44], eax
	mov	ecx, DWORD PTR _this$[ebp]
	mov	edx, DWORD PTR ___that$[ebp]
	mov	eax, DWORD PTR [edx+48]
	mov	DWORD PTR [ecx+48], eax
	mov	eax, DWORD PTR _this$[ebp]
	mov	esp, ebp
	pop	ebp
	ret	4
??4MemoryDataStream@Ogre@@QAEAAV01@ABV01@@Z ENDP	; Ogre::MemoryDataStream::operator=
_TEXT	ENDS
PUBLIC	??_GMemoryDataStream@Ogre@@UAEPAXI@Z		; Ogre::MemoryDataStream::`scalar deleting destructor'
EXTRN	??1MemoryDataStream@Ogre@@UAE@XZ:PROC		; Ogre::MemoryDataStream::~MemoryDataStream
; Function compile flags: /Odtp
;	COMDAT ??_GMemoryDataStream@Ogre@@UAEPAXI@Z
_TEXT	SEGMENT
_this$ = -4						; size = 4
___flags$ = 8						; size = 4
??_GMemoryDataStream@Ogre@@UAEPAXI@Z PROC		; Ogre::MemoryDataStream::`scalar deleting destructor', COMDAT
; _this$ = ecx
	push	ebp
	mov	ebp, esp
	push	ecx
	mov	DWORD PTR _this$[ebp], ecx
	mov	ecx, DWORD PTR _this$[ebp]
	call	??1MemoryDataStream@Ogre@@UAE@XZ	; Ogre::MemoryDataStream::~MemoryDataStream
	mov	eax, DWORD PTR ___flags$[ebp]
	and	eax, 1
	je	SHORT $LN1@scalar@2
	mov	ecx, DWORD PTR _this$[ebp]
	push	ecx
	call	??3@YAXPAX@Z				; operator delete
	add	esp, 4
$LN1@scalar@2:
	mov	eax, DWORD PTR _this$[ebp]
	mov	esp, ebp
	pop	ebp
	ret	4
??_GMemoryDataStream@Ogre@@UAEPAXI@Z ENDP		; Ogre::MemoryDataStream::`scalar deleting destructor'
; Function compile flags: /Odtp
_TEXT	ENDS
;	COMDAT ??_EMemoryDataStream@Ogre@@UAEPAXI@Z
_TEXT	SEGMENT
_this$ = -4						; size = 4
___flags$ = 8						; size = 4
??_EMemoryDataStream@Ogre@@UAEPAXI@Z PROC		; Ogre::MemoryDataStream::`vector deleting destructor', COMDAT
; _this$ = ecx
	push	ebp
	mov	ebp, esp
	push	ecx
	mov	DWORD PTR _this$[ebp], ecx
	mov	eax, DWORD PTR ___flags$[ebp]
	and	eax, 2
	je	SHORT $LN3@vector@2
	push	OFFSET ??1MemoryDataStream@Ogre@@UAE@XZ	; Ogre::MemoryDataStream::~MemoryDataStream
	mov	ecx, DWORD PTR _this$[ebp]
	mov	edx, DWORD PTR [ecx-4]
	push	edx
	push	52					; 00000034H
	mov	eax, DWORD PTR _this$[ebp]
	push	eax
	call	??_M@YGXPAXIHP6EX0@Z@Z
	mov	ecx, DWORD PTR ___flags$[ebp]
	and	ecx, 1
	je	SHORT $LN2@vector@2
	mov	edx, DWORD PTR _this$[ebp]
	sub	edx, 4
	push	edx
	call	??_V@YAXPAX@Z				; operator delete[]
	add	esp, 4
$LN2@vector@2:
	mov	eax, DWORD PTR _this$[ebp]
	sub	eax, 4
	jmp	SHORT $LN4@vector@2
$LN3@vector@2:
	mov	ecx, DWORD PTR _this$[ebp]
	call	??1MemoryDataStream@Ogre@@UAE@XZ	; Ogre::MemoryDataStream::~MemoryDataStream
	mov	eax, DWORD PTR ___flags$[ebp]
	and	eax, 1
	je	SHORT $LN1@vector@2
	mov	ecx, DWORD PTR _this$[ebp]
	push	ecx
	call	??3@YAXPAX@Z				; operator delete
	add	esp, 4
$LN1@vector@2:
	mov	eax, DWORD PTR _this$[ebp]
$LN4@vector@2:
	mov	esp, ebp
	pop	ebp
	ret	4
??_EMemoryDataStream@Ogre@@UAEPAXI@Z ENDP		; Ogre::MemoryDataStream::`vector deleting destructor'
_TEXT	ENDS
PUBLIC	??_7FileStreamDataStream@Ogre@@6B@		; Ogre::FileStreamDataStream::`vftable'
PUBLIC	??0FileStreamDataStream@Ogre@@QAE@ABV01@@Z	; Ogre::FileStreamDataStream::FileStreamDataStream
PUBLIC	??_R4FileStreamDataStream@Ogre@@6B@		; Ogre::FileStreamDataStream::`RTTI Complete Object Locator'
PUBLIC	??_R0?AVFileStreamDataStream@Ogre@@@8		; Ogre::FileStreamDataStream `RTTI Type Descriptor'
PUBLIC	??_R3FileStreamDataStream@Ogre@@8		; Ogre::FileStreamDataStream::`RTTI Class Hierarchy Descriptor'
PUBLIC	??_R2FileStreamDataStream@Ogre@@8		; Ogre::FileStreamDataStream::`RTTI Base Class Array'
PUBLIC	??_R1A@?0A@EA@FileStreamDataStream@Ogre@@8	; Ogre::FileStreamDataStream::`RTTI Base Class Descriptor at (0,-1,0,64)'
PUBLIC	??_EFileStreamDataStream@Ogre@@UAEPAXI@Z	; Ogre::FileStreamDataStream::`vector deleting destructor'
EXTRN	?read@FileStreamDataStream@Ogre@@UAEIPAXI@Z:PROC ; Ogre::FileStreamDataStream::read
EXTRN	?write@FileStreamDataStream@Ogre@@UAEIPBXI@Z:PROC ; Ogre::FileStreamDataStream::write
EXTRN	?readLine@FileStreamDataStream@Ogre@@UAEIPADIABV?$basic_string@DU?$char_traits@D@std@@V?$allocator@D@2@@std@@@Z:PROC ; Ogre::FileStreamDataStream::readLine
EXTRN	?skip@FileStreamDataStream@Ogre@@UAEXJ@Z:PROC	; Ogre::FileStreamDataStream::skip
EXTRN	?seek@FileStreamDataStream@Ogre@@UAEXI@Z:PROC	; Ogre::FileStreamDataStream::seek
EXTRN	?tell@FileStreamDataStream@Ogre@@UBEIXZ:PROC	; Ogre::FileStreamDataStream::tell
EXTRN	?eof@FileStreamDataStream@Ogre@@UBE_NXZ:PROC	; Ogre::FileStreamDataStream::eof
EXTRN	?close@FileStreamDataStream@Ogre@@UAEXXZ:PROC	; Ogre::FileStreamDataStream::close
EXTRN	?getMemoryImage@FileStreamDataStream@Ogre@@UAEPAXXZ:PROC ; Ogre::FileStreamDataStream::getMemoryImage
;	COMDAT ??_R1A@?0A@EA@FileStreamDataStream@Ogre@@8
rdata$r	SEGMENT
??_R1A@?0A@EA@FileStreamDataStream@Ogre@@8 DD FLAT:??_R0?AVFileStreamDataStream@Ogre@@@8 ; Ogre::FileStreamDataStream::`RTTI Base Class Descriptor at (0,-1,0,64)'
	DD	01H
	DD	00H
	DD	0ffffffffH
	DD	00H
	DD	040H
	DD	FLAT:??_R3FileStreamDataStream@Ogre@@8
rdata$r	ENDS
;	COMDAT ??_R2FileStreamDataStream@Ogre@@8
rdata$r	SEGMENT
??_R2FileStreamDataStream@Ogre@@8 DD FLAT:??_R1A@?0A@EA@FileStreamDataStream@Ogre@@8 ; Ogre::FileStreamDataStream::`RTTI Base Class Array'
	DD	FLAT:??_R1A@?0A@EA@DataStream@Ogre@@8
rdata$r	ENDS
;	COMDAT ??_R3FileStreamDataStream@Ogre@@8
rdata$r	SEGMENT
??_R3FileStreamDataStream@Ogre@@8 DD 00H		; Ogre::FileStreamDataStream::`RTTI Class Hierarchy Descriptor'
	DD	00H
	DD	02H
	DD	FLAT:??_R2FileStreamDataStream@Ogre@@8
rdata$r	ENDS
;	COMDAT ??_R0?AVFileStreamDataStream@Ogre@@@8
_DATA	SEGMENT
??_R0?AVFileStreamDataStream@Ogre@@@8 DD FLAT:??_7type_info@@6B@ ; Ogre::FileStreamDataStream `RTTI Type Descriptor'
	DD	00H
	DB	'.?AVFileStreamDataStream@Ogre@@', 00H
_DATA	ENDS
;	COMDAT ??_R4FileStreamDataStream@Ogre@@6B@
rdata$r	SEGMENT
??_R4FileStreamDataStream@Ogre@@6B@ DD 00H		; Ogre::FileStreamDataStream::`RTTI Complete Object Locator'
	DD	00H
	DD	00H
	DD	FLAT:??_R0?AVFileStreamDataStream@Ogre@@@8
	DD	FLAT:??_R3FileStreamDataStream@Ogre@@8
rdata$r	ENDS
;	COMDAT ??_7FileStreamDataStream@Ogre@@6B@
CONST	SEGMENT
??_7FileStreamDataStream@Ogre@@6B@ DD FLAT:??_R4FileStreamDataStream@Ogre@@6B@ ; Ogre::FileStreamDataStream::`vftable'
	DD	FLAT:??_EFileStreamDataStream@Ogre@@UAEPAXI@Z
	DD	FLAT:?read@FileStreamDataStream@Ogre@@UAEIPAXI@Z
	DD	FLAT:?write@FileStreamDataStream@Ogre@@UAEIPBXI@Z
	DD	FLAT:?readLine@FileStreamDataStream@Ogre@@UAEIPADIABV?$basic_string@DU?$char_traits@D@std@@V?$allocator@D@2@@std@@@Z
	DD	FLAT:?getLine@DataStream@Ogre@@UAE?AV?$basic_string@DU?$char_traits@D@std@@V?$allocator@D@2@@std@@_N@Z
	DD	FLAT:?getAsString@DataStream@Ogre@@UAE?AV?$basic_string@DU?$char_traits@D@std@@V?$allocator@D@2@@std@@XZ
	DD	FLAT:?skipLine@DataStream@Ogre@@UAEIABV?$basic_string@DU?$char_traits@D@std@@V?$allocator@D@2@@std@@@Z
	DD	FLAT:?skip@FileStreamDataStream@Ogre@@UAEXJ@Z
	DD	FLAT:?seek@FileStreamDataStream@Ogre@@UAEXI@Z
	DD	FLAT:?tell@FileStreamDataStream@Ogre@@UBEIXZ
	DD	FLAT:?eof@FileStreamDataStream@Ogre@@UBE_NXZ
	DD	FLAT:?size@DataStream@Ogre@@UBEIXZ
	DD	FLAT:?close@FileStreamDataStream@Ogre@@UAEXXZ
	DD	FLAT:?getMemoryImage@FileStreamDataStream@Ogre@@UAEPAXXZ
CONST	ENDS
;	COMDAT xdata$x
xdata$x	SEGMENT
__unwindtable$??0FileStreamDataStream@Ogre@@QAE@ABV01@@Z DD 0ffffffffH
	DD	FLAT:__unwindfunclet$??0FileStreamDataStream@Ogre@@QAE@ABV01@@Z$0
__ehfuncinfo$??0FileStreamDataStream@Ogre@@QAE@ABV01@@Z DD 019930522H
	DD	01H
	DD	FLAT:__unwindtable$??0FileStreamDataStream@Ogre@@QAE@ABV01@@Z
	DD	2 DUP(00H)
	DD	2 DUP(00H)
	DD	00H
	DD	00H
; Function compile flags: /Odtp
xdata$x	ENDS
;	COMDAT ??0FileStreamDataStream@Ogre@@QAE@ABV01@@Z
_TEXT	SEGMENT
_this$ = -16						; size = 4
__$EHRec$ = -12						; size = 12
___that$ = 8						; size = 4
??0FileStreamDataStream@Ogre@@QAE@ABV01@@Z PROC		; Ogre::FileStreamDataStream::FileStreamDataStream, COMDAT
; _this$ = ecx
	push	ebp
	mov	ebp, esp
	push	-1
	push	__ehhandler$??0FileStreamDataStream@Ogre@@QAE@ABV01@@Z
	mov	eax, DWORD PTR fs:0
	push	eax
	push	ecx
	mov	eax, DWORD PTR ___security_cookie
	xor	eax, ebp
	push	eax
	lea	eax, DWORD PTR __$EHRec$[ebp]
	mov	DWORD PTR fs:0, eax
	mov	DWORD PTR _this$[ebp], ecx
	mov	eax, DWORD PTR ___that$[ebp]
	push	eax
	mov	ecx, DWORD PTR _this$[ebp]
	call	??0DataStream@Ogre@@QAE@ABV01@@Z
	mov	DWORD PTR __$EHRec$[ebp+8], 0
	mov	ecx, DWORD PTR _this$[ebp]
	mov	DWORD PTR [ecx], OFFSET ??_7FileStreamDataStream@Ogre@@6B@
	mov	edx, DWORD PTR _this$[ebp]
	mov	eax, DWORD PTR ___that$[ebp]
	mov	ecx, DWORD PTR [eax+36]
	mov	DWORD PTR [edx+36], ecx
	mov	edx, DWORD PTR _this$[ebp]
	mov	eax, DWORD PTR ___that$[ebp]
	mov	cl, BYTE PTR [eax+40]
	mov	BYTE PTR [edx+40], cl
	mov	DWORD PTR __$EHRec$[ebp+8], -1
	mov	eax, DWORD PTR _this$[ebp]
	mov	ecx, DWORD PTR __$EHRec$[ebp]
	mov	DWORD PTR fs:0, ecx
	pop	ecx
	mov	esp, ebp
	pop	ebp
	ret	4
_TEXT	ENDS
;	COMDAT text$x
text$x	SEGMENT
__unwindfunclet$??0FileStreamDataStream@Ogre@@QAE@ABV01@@Z$0:
	mov	ecx, DWORD PTR _this$[ebp]
	jmp	??1DataStream@Ogre@@UAE@XZ		; Ogre::DataStream::~DataStream
__ehhandler$??0FileStreamDataStream@Ogre@@QAE@ABV01@@Z:
	mov	edx, DWORD PTR [esp+8]
	lea	eax, DWORD PTR [edx+12]
	mov	ecx, DWORD PTR [edx-8]
	xor	ecx, eax
	call	@__security_check_cookie@4
	mov	eax, OFFSET __ehfuncinfo$??0FileStreamDataStream@Ogre@@QAE@ABV01@@Z
	jmp	___CxxFrameHandler3
text$x	ENDS
??0FileStreamDataStream@Ogre@@QAE@ABV01@@Z ENDP		; Ogre::FileStreamDataStream::FileStreamDataStream
PUBLIC	??4FileStreamDataStream@Ogre@@QAEAAV01@ABV01@@Z	; Ogre::FileStreamDataStream::operator=
; Function compile flags: /Odtp
;	COMDAT ??4FileStreamDataStream@Ogre@@QAEAAV01@ABV01@@Z
_TEXT	SEGMENT
_this$ = -4						; size = 4
___that$ = 8						; size = 4
??4FileStreamDataStream@Ogre@@QAEAAV01@ABV01@@Z PROC	; Ogre::FileStreamDataStream::operator=, COMDAT
; _this$ = ecx
	push	ebp
	mov	ebp, esp
	push	ecx
	mov	DWORD PTR _this$[ebp], ecx
	mov	eax, DWORD PTR ___that$[ebp]
	push	eax
	mov	ecx, DWORD PTR _this$[ebp]
	call	??4DataStream@Ogre@@QAEAAV01@ABV01@@Z
	mov	ecx, DWORD PTR _this$[ebp]
	mov	edx, DWORD PTR ___that$[ebp]
	mov	eax, DWORD PTR [edx+36]
	mov	DWORD PTR [ecx+36], eax
	mov	ecx, DWORD PTR _this$[ebp]
	mov	edx, DWORD PTR ___that$[ebp]
	mov	al, BYTE PTR [edx+40]
	mov	BYTE PTR [ecx+40], al
	mov	eax, DWORD PTR _this$[ebp]
	mov	esp, ebp
	pop	ebp
	ret	4
??4FileStreamDataStream@Ogre@@QAEAAV01@ABV01@@Z ENDP	; Ogre::FileStreamDataStream::operator=
_TEXT	ENDS
PUBLIC	??_GFileStreamDataStream@Ogre@@UAEPAXI@Z	; Ogre::FileStreamDataStream::`scalar deleting destructor'
EXTRN	??1FileStreamDataStream@Ogre@@UAE@XZ:PROC	; Ogre::FileStreamDataStream::~FileStreamDataStream
; Function compile flags: /Odtp
;	COMDAT ??_GFileStreamDataStream@Ogre@@UAEPAXI@Z
_TEXT	SEGMENT
_this$ = -4						; size = 4
___flags$ = 8						; size = 4
??_GFileStreamDataStream@Ogre@@UAEPAXI@Z PROC		; Ogre::FileStreamDataStream::`scalar deleting destructor', COMDAT
; _this$ = ecx
	push	ebp
	mov	ebp, esp
	push	ecx
	mov	DWORD PTR _this$[ebp], ecx
	mov	ecx, DWORD PTR _this$[ebp]
	call	??1FileStreamDataStream@Ogre@@UAE@XZ	; Ogre::FileStreamDataStream::~FileStreamDataStream
	mov	eax, DWORD PTR ___flags$[ebp]
	and	eax, 1
	je	SHORT $LN1@scalar@3
	mov	ecx, DWORD PTR _this$[ebp]
	push	ecx
	call	??3@YAXPAX@Z				; operator delete
	add	esp, 4
$LN1@scalar@3:
	mov	eax, DWORD PTR _this$[ebp]
	mov	esp, ebp
	pop	ebp
	ret	4
??_GFileStreamDataStream@Ogre@@UAEPAXI@Z ENDP		; Ogre::FileStreamDataStream::`scalar deleting destructor'
; Function compile flags: /Odtp
_TEXT	ENDS
;	COMDAT ??_EFileStreamDataStream@Ogre@@UAEPAXI@Z
_TEXT	SEGMENT
_this$ = -4						; size = 4
___flags$ = 8						; size = 4
??_EFileStreamDataStream@Ogre@@UAEPAXI@Z PROC		; Ogre::FileStreamDataStream::`vector deleting destructor', COMDAT
; _this$ = ecx
	push	ebp
	mov	ebp, esp
	push	ecx
	mov	DWORD PTR _this$[ebp], ecx
	mov	eax, DWORD PTR ___flags$[ebp]
	and	eax, 2
	je	SHORT $LN3@vector@3
	push	OFFSET ??1FileStreamDataStream@Ogre@@UAE@XZ ; Ogre::FileStreamDataStream::~FileStreamDataStream
	mov	ecx, DWORD PTR _this$[ebp]
	mov	edx, DWORD PTR [ecx-4]
	push	edx
	push	44					; 0000002cH
	mov	eax, DWORD PTR _this$[ebp]
	push	eax
	call	??_M@YGXPAXIHP6EX0@Z@Z
	mov	ecx, DWORD PTR ___flags$[ebp]
	and	ecx, 1
	je	SHORT $LN2@vector@3
	mov	edx, DWORD PTR _this$[ebp]
	sub	edx, 4
	push	edx
	call	??_V@YAXPAX@Z				; operator delete[]
	add	esp, 4
$LN2@vector@3:
	mov	eax, DWORD PTR _this$[ebp]
	sub	eax, 4
	jmp	SHORT $LN4@vector@3
$LN3@vector@3:
	mov	ecx, DWORD PTR _this$[ebp]
	call	??1FileStreamDataStream@Ogre@@UAE@XZ	; Ogre::FileStreamDataStream::~FileStreamDataStream
	mov	eax, DWORD PTR ___flags$[ebp]
	and	eax, 1
	je	SHORT $LN1@vector@3
	mov	ecx, DWORD PTR _this$[ebp]
	push	ecx
	call	??3@YAXPAX@Z				; operator delete
	add	esp, 4
$LN1@vector@3:
	mov	eax, DWORD PTR _this$[ebp]
$LN4@vector@3:
	mov	esp, ebp
	pop	ebp
	ret	4
??_EFileStreamDataStream@Ogre@@UAEPAXI@Z ENDP		; Ogre::FileStreamDataStream::`vector deleting destructor'
_TEXT	ENDS
PUBLIC	??_7FileHandleDataStream@Ogre@@6B@		; Ogre::FileHandleDataStream::`vftable'
PUBLIC	??0FileHandleDataStream@Ogre@@QAE@ABV01@@Z	; Ogre::FileHandleDataStream::FileHandleDataStream
PUBLIC	??_R4FileHandleDataStream@Ogre@@6B@		; Ogre::FileHandleDataStream::`RTTI Complete Object Locator'
PUBLIC	??_R0?AVFileHandleDataStream@Ogre@@@8		; Ogre::FileHandleDataStream `RTTI Type Descriptor'
PUBLIC	??_R3FileHandleDataStream@Ogre@@8		; Ogre::FileHandleDataStream::`RTTI Class Hierarchy Descriptor'
PUBLIC	??_R2FileHandleDataStream@Ogre@@8		; Ogre::FileHandleDataStream::`RTTI Base Class Array'
PUBLIC	??_R1A@?0A@EA@FileHandleDataStream@Ogre@@8	; Ogre::FileHandleDataStream::`RTTI Base Class Descriptor at (0,-1,0,64)'
PUBLIC	??_EFileHandleDataStream@Ogre@@UAEPAXI@Z	; Ogre::FileHandleDataStream::`vector deleting destructor'
EXTRN	?read@FileHandleDataStream@Ogre@@UAEIPAXI@Z:PROC ; Ogre::FileHandleDataStream::read
EXTRN	?write@FileHandleDataStream@Ogre@@UAEIPBXI@Z:PROC ; Ogre::FileHandleDataStream::write
EXTRN	?skip@FileHandleDataStream@Ogre@@UAEXJ@Z:PROC	; Ogre::FileHandleDataStream::skip
EXTRN	?seek@FileHandleDataStream@Ogre@@UAEXI@Z:PROC	; Ogre::FileHandleDataStream::seek
EXTRN	?tell@FileHandleDataStream@Ogre@@UBEIXZ:PROC	; Ogre::FileHandleDataStream::tell
EXTRN	?eof@FileHandleDataStream@Ogre@@UBE_NXZ:PROC	; Ogre::FileHandleDataStream::eof
EXTRN	?close@FileHandleDataStream@Ogre@@UAEXXZ:PROC	; Ogre::FileHandleDataStream::close
EXTRN	?getMemoryImage@FileHandleDataStream@Ogre@@UAEPAXXZ:PROC ; Ogre::FileHandleDataStream::getMemoryImage
;	COMDAT ??_R1A@?0A@EA@FileHandleDataStream@Ogre@@8
rdata$r	SEGMENT
??_R1A@?0A@EA@FileHandleDataStream@Ogre@@8 DD FLAT:??_R0?AVFileHandleDataStream@Ogre@@@8 ; Ogre::FileHandleDataStream::`RTTI Base Class Descriptor at (0,-1,0,64)'
	DD	01H
	DD	00H
	DD	0ffffffffH
	DD	00H
	DD	040H
	DD	FLAT:??_R3FileHandleDataStream@Ogre@@8
rdata$r	ENDS
;	COMDAT ??_R2FileHandleDataStream@Ogre@@8
rdata$r	SEGMENT
??_R2FileHandleDataStream@Ogre@@8 DD FLAT:??_R1A@?0A@EA@FileHandleDataStream@Ogre@@8 ; Ogre::FileHandleDataStream::`RTTI Base Class Array'
	DD	FLAT:??_R1A@?0A@EA@DataStream@Ogre@@8
rdata$r	ENDS
;	COMDAT ??_R3FileHandleDataStream@Ogre@@8
rdata$r	SEGMENT
??_R3FileHandleDataStream@Ogre@@8 DD 00H		; Ogre::FileHandleDataStream::`RTTI Class Hierarchy Descriptor'
	DD	00H
	DD	02H
	DD	FLAT:??_R2FileHandleDataStream@Ogre@@8
rdata$r	ENDS
;	COMDAT ??_R0?AVFileHandleDataStream@Ogre@@@8
_DATA	SEGMENT
??_R0?AVFileHandleDataStream@Ogre@@@8 DD FLAT:??_7type_info@@6B@ ; Ogre::FileHandleDataStream `RTTI Type Descriptor'
	DD	00H
	DB	'.?AVFileHandleDataStream@Ogre@@', 00H
_DATA	ENDS
;	COMDAT ??_R4FileHandleDataStream@Ogre@@6B@
rdata$r	SEGMENT
??_R4FileHandleDataStream@Ogre@@6B@ DD 00H		; Ogre::FileHandleDataStream::`RTTI Complete Object Locator'
	DD	00H
	DD	00H
	DD	FLAT:??_R0?AVFileHandleDataStream@Ogre@@@8
	DD	FLAT:??_R3FileHandleDataStream@Ogre@@8
rdata$r	ENDS
;	COMDAT ??_7FileHandleDataStream@Ogre@@6B@
CONST	SEGMENT
??_7FileHandleDataStream@Ogre@@6B@ DD FLAT:??_R4FileHandleDataStream@Ogre@@6B@ ; Ogre::FileHandleDataStream::`vftable'
	DD	FLAT:??_EFileHandleDataStream@Ogre@@UAEPAXI@Z
	DD	FLAT:?read@FileHandleDataStream@Ogre@@UAEIPAXI@Z
	DD	FLAT:?write@FileHandleDataStream@Ogre@@UAEIPBXI@Z
	DD	FLAT:?readLine@DataStream@Ogre@@UAEIPADIABV?$basic_string@DU?$char_traits@D@std@@V?$allocator@D@2@@std@@@Z
	DD	FLAT:?getLine@DataStream@Ogre@@UAE?AV?$basic_string@DU?$char_traits@D@std@@V?$allocator@D@2@@std@@_N@Z
	DD	FLAT:?getAsString@DataStream@Ogre@@UAE?AV?$basic_string@DU?$char_traits@D@std@@V?$allocator@D@2@@std@@XZ
	DD	FLAT:?skipLine@DataStream@Ogre@@UAEIABV?$basic_string@DU?$char_traits@D@std@@V?$allocator@D@2@@std@@@Z
	DD	FLAT:?skip@FileHandleDataStream@Ogre@@UAEXJ@Z
	DD	FLAT:?seek@FileHandleDataStream@Ogre@@UAEXI@Z
	DD	FLAT:?tell@FileHandleDataStream@Ogre@@UBEIXZ
	DD	FLAT:?eof@FileHandleDataStream@Ogre@@UBE_NXZ
	DD	FLAT:?size@DataStream@Ogre@@UBEIXZ
	DD	FLAT:?close@FileHandleDataStream@Ogre@@UAEXXZ
	DD	FLAT:?getMemoryImage@FileHandleDataStream@Ogre@@UAEPAXXZ
CONST	ENDS
;	COMDAT xdata$x
xdata$x	SEGMENT
__unwindtable$??0FileHandleDataStream@Ogre@@QAE@ABV01@@Z DD 0ffffffffH
	DD	FLAT:__unwindfunclet$??0FileHandleDataStream@Ogre@@QAE@ABV01@@Z$0
__ehfuncinfo$??0FileHandleDataStream@Ogre@@QAE@ABV01@@Z DD 019930522H
	DD	01H
	DD	FLAT:__unwindtable$??0FileHandleDataStream@Ogre@@QAE@ABV01@@Z
	DD	2 DUP(00H)
	DD	2 DUP(00H)
	DD	00H
	DD	00H
; Function compile flags: /Odtp
xdata$x	ENDS
;	COMDAT ??0FileHandleDataStream@Ogre@@QAE@ABV01@@Z
_TEXT	SEGMENT
_this$ = -16						; size = 4
__$EHRec$ = -12						; size = 12
___that$ = 8						; size = 4
??0FileHandleDataStream@Ogre@@QAE@ABV01@@Z PROC		; Ogre::FileHandleDataStream::FileHandleDataStream, COMDAT
; _this$ = ecx
	push	ebp
	mov	ebp, esp
	push	-1
	push	__ehhandler$??0FileHandleDataStream@Ogre@@QAE@ABV01@@Z
	mov	eax, DWORD PTR fs:0
	push	eax
	push	ecx
	mov	eax, DWORD PTR ___security_cookie
	xor	eax, ebp
	push	eax
	lea	eax, DWORD PTR __$EHRec$[ebp]
	mov	DWORD PTR fs:0, eax
	mov	DWORD PTR _this$[ebp], ecx
	mov	eax, DWORD PTR ___that$[ebp]
	push	eax
	mov	ecx, DWORD PTR _this$[ebp]
	call	??0DataStream@Ogre@@QAE@ABV01@@Z
	mov	DWORD PTR __$EHRec$[ebp+8], 0
	mov	ecx, DWORD PTR _this$[ebp]
	mov	DWORD PTR [ecx], OFFSET ??_7FileHandleDataStream@Ogre@@6B@
	mov	edx, DWORD PTR _this$[ebp]
	mov	eax, DWORD PTR ___that$[ebp]
	mov	ecx, DWORD PTR [eax+36]
	mov	DWORD PTR [edx+36], ecx
	mov	edx, DWORD PTR _this$[ebp]
	mov	eax, DWORD PTR ___that$[ebp]
	mov	ecx, DWORD PTR [eax+40]
	mov	DWORD PTR [edx+40], ecx
	mov	DWORD PTR __$EHRec$[ebp+8], -1
	mov	eax, DWORD PTR _this$[ebp]
	mov	ecx, DWORD PTR __$EHRec$[ebp]
	mov	DWORD PTR fs:0, ecx
	pop	ecx
	mov	esp, ebp
	pop	ebp
	ret	4
_TEXT	ENDS
;	COMDAT text$x
text$x	SEGMENT
__unwindfunclet$??0FileHandleDataStream@Ogre@@QAE@ABV01@@Z$0:
	mov	ecx, DWORD PTR _this$[ebp]
	jmp	??1DataStream@Ogre@@UAE@XZ		; Ogre::DataStream::~DataStream
__ehhandler$??0FileHandleDataStream@Ogre@@QAE@ABV01@@Z:
	mov	edx, DWORD PTR [esp+8]
	lea	eax, DWORD PTR [edx+12]
	mov	ecx, DWORD PTR [edx-8]
	xor	ecx, eax
	call	@__security_check_cookie@4
	mov	eax, OFFSET __ehfuncinfo$??0FileHandleDataStream@Ogre@@QAE@ABV01@@Z
	jmp	___CxxFrameHandler3
text$x	ENDS
??0FileHandleDataStream@Ogre@@QAE@ABV01@@Z ENDP		; Ogre::FileHandleDataStream::FileHandleDataStream
PUBLIC	??4FileHandleDataStream@Ogre@@QAEAAV01@ABV01@@Z	; Ogre::FileHandleDataStream::operator=
; Function compile flags: /Odtp
;	COMDAT ??4FileHandleDataStream@Ogre@@QAEAAV01@ABV01@@Z
_TEXT	SEGMENT
_this$ = -4						; size = 4
___that$ = 8						; size = 4
??4FileHandleDataStream@Ogre@@QAEAAV01@ABV01@@Z PROC	; Ogre::FileHandleDataStream::operator=, COMDAT
; _this$ = ecx
	push	ebp
	mov	ebp, esp
	push	ecx
	mov	DWORD PTR _this$[ebp], ecx
	mov	eax, DWORD PTR ___that$[ebp]
	push	eax
	mov	ecx, DWORD PTR _this$[ebp]
	call	??4DataStream@Ogre@@QAEAAV01@ABV01@@Z
	mov	ecx, DWORD PTR _this$[ebp]
	mov	edx, DWORD PTR ___that$[ebp]
	mov	eax, DWORD PTR [edx+36]
	mov	DWORD PTR [ecx+36], eax
	mov	ecx, DWORD PTR _this$[ebp]
	mov	edx, DWORD PTR ___that$[ebp]
	mov	eax, DWORD PTR [edx+40]
	mov	DWORD PTR [ecx+40], eax
	mov	eax, DWORD PTR _this$[ebp]
	mov	esp, ebp
	pop	ebp
	ret	4
??4FileHandleDataStream@Ogre@@QAEAAV01@ABV01@@Z ENDP	; Ogre::FileHandleDataStream::operator=
_TEXT	ENDS
PUBLIC	??_GFileHandleDataStream@Ogre@@UAEPAXI@Z	; Ogre::FileHandleDataStream::`scalar deleting destructor'
EXTRN	??1FileHandleDataStream@Ogre@@UAE@XZ:PROC	; Ogre::FileHandleDataStream::~FileHandleDataStream
; Function compile flags: /Odtp
;	COMDAT ??_GFileHandleDataStream@Ogre@@UAEPAXI@Z
_TEXT	SEGMENT
_this$ = -4						; size = 4
___flags$ = 8						; size = 4
??_GFileHandleDataStream@Ogre@@UAEPAXI@Z PROC		; Ogre::FileHandleDataStream::`scalar deleting destructor', COMDAT
; _this$ = ecx
	push	ebp
	mov	ebp, esp
	push	ecx
	mov	DWORD PTR _this$[ebp], ecx
	mov	ecx, DWORD PTR _this$[ebp]
	call	??1FileHandleDataStream@Ogre@@UAE@XZ	; Ogre::FileHandleDataStream::~FileHandleDataStream
	mov	eax, DWORD PTR ___flags$[ebp]
	and	eax, 1
	je	SHORT $LN1@scalar@4
	mov	ecx, DWORD PTR _this$[ebp]
	push	ecx
	call	??3@YAXPAX@Z				; operator delete
	add	esp, 4
$LN1@scalar@4:
	mov	eax, DWORD PTR _this$[ebp]
	mov	esp, ebp
	pop	ebp
	ret	4
??_GFileHandleDataStream@Ogre@@UAEPAXI@Z ENDP		; Ogre::FileHandleDataStream::`scalar deleting destructor'
; Function compile flags: /Odtp
_TEXT	ENDS
;	COMDAT ??_EFileHandleDataStream@Ogre@@UAEPAXI@Z
_TEXT	SEGMENT
_this$ = -4						; size = 4
___flags$ = 8						; size = 4
??_EFileHandleDataStream@Ogre@@UAEPAXI@Z PROC		; Ogre::FileHandleDataStream::`vector deleting destructor', COMDAT
; _this$ = ecx
	push	ebp
	mov	ebp, esp
	push	ecx
	mov	DWORD PTR _this$[ebp], ecx
	mov	eax, DWORD PTR ___flags$[ebp]
	and	eax, 2
	je	SHORT $LN3@vector@4
	push	OFFSET ??1FileHandleDataStream@Ogre@@UAE@XZ ; Ogre::FileHandleDataStream::~FileHandleDataStream
	mov	ecx, DWORD PTR _this$[ebp]
	mov	edx, DWORD PTR [ecx-4]
	push	edx
	push	44					; 0000002cH
	mov	eax, DWORD PTR _this$[ebp]
	push	eax
	call	??_M@YGXPAXIHP6EX0@Z@Z
	mov	ecx, DWORD PTR ___flags$[ebp]
	and	ecx, 1
	je	SHORT $LN2@vector@4
	mov	edx, DWORD PTR _this$[ebp]
	sub	edx, 4
	push	edx
	call	??_V@YAXPAX@Z				; operator delete[]
	add	esp, 4
$LN2@vector@4:
	mov	eax, DWORD PTR _this$[ebp]
	sub	eax, 4
	jmp	SHORT $LN4@vector@4
$LN3@vector@4:
	mov	ecx, DWORD PTR _this$[ebp]
	call	??1FileHandleDataStream@Ogre@@UAE@XZ	; Ogre::FileHandleDataStream::~FileHandleDataStream
	mov	eax, DWORD PTR ___flags$[ebp]
	and	eax, 1
	je	SHORT $LN1@vector@4
	mov	ecx, DWORD PTR _this$[ebp]
	push	ecx
	call	??3@YAXPAX@Z				; operator delete
	add	esp, 4
$LN1@vector@4:
	mov	eax, DWORD PTR _this$[ebp]
$LN4@vector@4:
	mov	esp, ebp
	pop	ebp
	ret	4
??_EFileHandleDataStream@Ogre@@UAEPAXI@Z ENDP		; Ogre::FileHandleDataStream::`vector deleting destructor'
_TEXT	ENDS
PUBLIC	??_7DataStreamObject@Ogre@@6B@			; Ogre::DataStreamObject::`vftable'
PUBLIC	??1DataStreamObject@Ogre@@MAE@XZ		; Ogre::DataStreamObject::~DataStreamObject
PUBLIC	??_R4DataStreamObject@Ogre@@6B@			; Ogre::DataStreamObject::`RTTI Complete Object Locator'
PUBLIC	??_R0?AVDataStreamObject@Ogre@@@8		; Ogre::DataStreamObject `RTTI Type Descriptor'
PUBLIC	??_R3DataStreamObject@Ogre@@8			; Ogre::DataStreamObject::`RTTI Class Hierarchy Descriptor'
PUBLIC	??_R2DataStreamObject@Ogre@@8			; Ogre::DataStreamObject::`RTTI Base Class Array'
PUBLIC	??_R1A@?0A@EA@DataStreamObject@Ogre@@8		; Ogre::DataStreamObject::`RTTI Base Class Descriptor at (0,-1,0,64)'
PUBLIC	??_EDataStreamObject@Ogre@@MAEPAXI@Z		; Ogre::DataStreamObject::`vector deleting destructor'
;	COMDAT ??_R1A@?0A@EA@DataStreamObject@Ogre@@8
rdata$r	SEGMENT
??_R1A@?0A@EA@DataStreamObject@Ogre@@8 DD FLAT:??_R0?AVDataStreamObject@Ogre@@@8 ; Ogre::DataStreamObject::`RTTI Base Class Descriptor at (0,-1,0,64)'
	DD	00H
	DD	00H
	DD	0ffffffffH
	DD	00H
	DD	040H
	DD	FLAT:??_R3DataStreamObject@Ogre@@8
rdata$r	ENDS
;	COMDAT ??_R2DataStreamObject@Ogre@@8
rdata$r	SEGMENT
??_R2DataStreamObject@Ogre@@8 DD FLAT:??_R1A@?0A@EA@DataStreamObject@Ogre@@8 ; Ogre::DataStreamObject::`RTTI Base Class Array'
rdata$r	ENDS
;	COMDAT ??_R3DataStreamObject@Ogre@@8
rdata$r	SEGMENT
??_R3DataStreamObject@Ogre@@8 DD 00H			; Ogre::DataStreamObject::`RTTI Class Hierarchy Descriptor'
	DD	00H
	DD	01H
	DD	FLAT:??_R2DataStreamObject@Ogre@@8
rdata$r	ENDS
;	COMDAT ??_R0?AVDataStreamObject@Ogre@@@8
_DATA	SEGMENT
??_R0?AVDataStreamObject@Ogre@@@8 DD FLAT:??_7type_info@@6B@ ; Ogre::DataStreamObject `RTTI Type Descriptor'
	DD	00H
	DB	'.?AVDataStreamObject@Ogre@@', 00H
_DATA	ENDS
;	COMDAT ??_R4DataStreamObject@Ogre@@6B@
rdata$r	SEGMENT
??_R4DataStreamObject@Ogre@@6B@ DD 00H			; Ogre::DataStreamObject::`RTTI Complete Object Locator'
	DD	00H
	DD	00H
	DD	FLAT:??_R0?AVDataStreamObject@Ogre@@@8
	DD	FLAT:??_R3DataStreamObject@Ogre@@8
rdata$r	ENDS
;	COMDAT ??_7DataStreamObject@Ogre@@6B@
CONST	SEGMENT
??_7DataStreamObject@Ogre@@6B@ DD FLAT:??_R4DataStreamObject@Ogre@@6B@ ; Ogre::DataStreamObject::`vftable'
	DD	FLAT:??_EDataStreamObject@Ogre@@MAEPAXI@Z
	DD	FLAT:__purecall
	DD	FLAT:__purecall
	DD	FLAT:__purecall
	DD	FLAT:__purecall
	DD	FLAT:__purecall
	DD	FLAT:__purecall
; Function compile flags: /Odtp
CONST	ENDS
;	COMDAT ??1DataStreamObject@Ogre@@MAE@XZ
_TEXT	SEGMENT
_this$ = -4						; size = 4
??1DataStreamObject@Ogre@@MAE@XZ PROC			; Ogre::DataStreamObject::~DataStreamObject, COMDAT
; _this$ = ecx

; 445  : 		virtual ~DataStreamObject(){}

	push	ebp
	mov	ebp, esp
	push	ecx
	mov	DWORD PTR _this$[ebp], ecx
	mov	eax, DWORD PTR _this$[ebp]
	mov	DWORD PTR [eax], OFFSET ??_7DataStreamObject@Ogre@@6B@
	mov	esp, ebp
	pop	ebp
	ret	0
??1DataStreamObject@Ogre@@MAE@XZ ENDP			; Ogre::DataStreamObject::~DataStreamObject
_TEXT	ENDS
PUBLIC	??0DataStreamObject@Ogre@@QAE@XZ		; Ogre::DataStreamObject::DataStreamObject
; Function compile flags: /Odtp
;	COMDAT ??0DataStreamObject@Ogre@@QAE@XZ
_TEXT	SEGMENT
_this$ = -4						; size = 4
??0DataStreamObject@Ogre@@QAE@XZ PROC			; Ogre::DataStreamObject::DataStreamObject, COMDAT
; _this$ = ecx
	push	ebp
	mov	ebp, esp
	push	ecx
	mov	DWORD PTR _this$[ebp], ecx
	mov	eax, DWORD PTR _this$[ebp]
	mov	DWORD PTR [eax], OFFSET ??_7DataStreamObject@Ogre@@6B@
	mov	eax, DWORD PTR _this$[ebp]
	mov	esp, ebp
	pop	ebp
	ret	0
??0DataStreamObject@Ogre@@QAE@XZ ENDP			; Ogre::DataStreamObject::DataStreamObject
_TEXT	ENDS
PUBLIC	??0DataStreamObject@Ogre@@QAE@ABV01@@Z		; Ogre::DataStreamObject::DataStreamObject
; Function compile flags: /Odtp
;	COMDAT ??0DataStreamObject@Ogre@@QAE@ABV01@@Z
_TEXT	SEGMENT
_this$ = -4						; size = 4
___that$ = 8						; size = 4
??0DataStreamObject@Ogre@@QAE@ABV01@@Z PROC		; Ogre::DataStreamObject::DataStreamObject, COMDAT
; _this$ = ecx
	push	ebp
	mov	ebp, esp
	push	ecx
	mov	DWORD PTR _this$[ebp], ecx
	mov	eax, DWORD PTR _this$[ebp]
	mov	DWORD PTR [eax], OFFSET ??_7DataStreamObject@Ogre@@6B@
	mov	eax, DWORD PTR _this$[ebp]
	mov	esp, ebp
	pop	ebp
	ret	4
??0DataStreamObject@Ogre@@QAE@ABV01@@Z ENDP		; Ogre::DataStreamObject::DataStreamObject
_TEXT	ENDS
PUBLIC	??4DataStreamObject@Ogre@@QAEAAV01@ABV01@@Z	; Ogre::DataStreamObject::operator=
; Function compile flags: /Odtp
;	COMDAT ??4DataStreamObject@Ogre@@QAEAAV01@ABV01@@Z
_TEXT	SEGMENT
_this$ = -4						; size = 4
___that$ = 8						; size = 4
??4DataStreamObject@Ogre@@QAEAAV01@ABV01@@Z PROC	; Ogre::DataStreamObject::operator=, COMDAT
; _this$ = ecx
	push	ebp
	mov	ebp, esp
	push	ecx
	mov	DWORD PTR _this$[ebp], ecx
	mov	eax, DWORD PTR _this$[ebp]
	mov	esp, ebp
	pop	ebp
	ret	4
??4DataStreamObject@Ogre@@QAEAAV01@ABV01@@Z ENDP	; Ogre::DataStreamObject::operator=
_TEXT	ENDS
PUBLIC	??_GDataStreamObject@Ogre@@MAEPAXI@Z		; Ogre::DataStreamObject::`scalar deleting destructor'
; Function compile flags: /Odtp
;	COMDAT ??_GDataStreamObject@Ogre@@MAEPAXI@Z
_TEXT	SEGMENT
_this$ = -4						; size = 4
___flags$ = 8						; size = 4
??_GDataStreamObject@Ogre@@MAEPAXI@Z PROC		; Ogre::DataStreamObject::`scalar deleting destructor', COMDAT
; _this$ = ecx
	push	ebp
	mov	ebp, esp
	push	ecx
	mov	DWORD PTR _this$[ebp], ecx
	mov	ecx, DWORD PTR _this$[ebp]
	call	??1DataStreamObject@Ogre@@MAE@XZ	; Ogre::DataStreamObject::~DataStreamObject
	mov	eax, DWORD PTR ___flags$[ebp]
	and	eax, 1
	je	SHORT $LN1@scalar@5
	mov	ecx, DWORD PTR _this$[ebp]
	push	ecx
	call	??3@YAXPAX@Z				; operator delete
	add	esp, 4
$LN1@scalar@5:
	mov	eax, DWORD PTR _this$[ebp]
	mov	esp, ebp
	pop	ebp
	ret	4
??_GDataStreamObject@Ogre@@MAEPAXI@Z ENDP		; Ogre::DataStreamObject::`scalar deleting destructor'
; Function compile flags: /Odtp
_TEXT	ENDS
;	COMDAT ??_EDataStreamObject@Ogre@@MAEPAXI@Z
_TEXT	SEGMENT
_this$ = -4						; size = 4
___flags$ = 8						; size = 4
??_EDataStreamObject@Ogre@@MAEPAXI@Z PROC		; Ogre::DataStreamObject::`vector deleting destructor', COMDAT
; _this$ = ecx
	push	ebp
	mov	ebp, esp
	push	ecx
	mov	DWORD PTR _this$[ebp], ecx
	mov	eax, DWORD PTR ___flags$[ebp]
	and	eax, 2
	je	SHORT $LN3@vector@5
	push	OFFSET ??1DataStreamObject@Ogre@@MAE@XZ	; Ogre::DataStreamObject::~DataStreamObject
	mov	ecx, DWORD PTR _this$[ebp]
	mov	edx, DWORD PTR [ecx-4]
	push	edx
	push	4
	mov	eax, DWORD PTR _this$[ebp]
	push	eax
	call	??_M@YGXPAXIHP6EX0@Z@Z
	mov	ecx, DWORD PTR ___flags$[ebp]
	and	ecx, 1
	je	SHORT $LN2@vector@5
	mov	edx, DWORD PTR _this$[ebp]
	sub	edx, 4
	push	edx
	call	??_V@YAXPAX@Z				; operator delete[]
	add	esp, 4
$LN2@vector@5:
	mov	eax, DWORD PTR _this$[ebp]
	sub	eax, 4
	jmp	SHORT $LN4@vector@5
$LN3@vector@5:
	mov	ecx, DWORD PTR _this$[ebp]
	call	??1DataStreamObject@Ogre@@MAE@XZ	; Ogre::DataStreamObject::~DataStreamObject
	mov	eax, DWORD PTR ___flags$[ebp]
	and	eax, 1
	je	SHORT $LN1@vector@5
	mov	ecx, DWORD PTR _this$[ebp]
	push	ecx
	call	??3@YAXPAX@Z				; operator delete
	add	esp, 4
$LN1@vector@5:
	mov	eax, DWORD PTR _this$[ebp]
$LN4@vector@5:
	mov	esp, ebp
	pop	ebp
	ret	4
??_EDataStreamObject@Ogre@@MAEPAXI@Z ENDP		; Ogre::DataStreamObject::`vector deleting destructor'
_TEXT	ENDS
PUBLIC	??_7ObjectDataStream@Ogre@@6B@			; Ogre::ObjectDataStream::`vftable'
PUBLIC	??0ObjectDataStream@Ogre@@QAE@ABV01@@Z		; Ogre::ObjectDataStream::ObjectDataStream
PUBLIC	??_R4ObjectDataStream@Ogre@@6B@			; Ogre::ObjectDataStream::`RTTI Complete Object Locator'
PUBLIC	??_R0?AVObjectDataStream@Ogre@@@8		; Ogre::ObjectDataStream `RTTI Type Descriptor'
PUBLIC	??_R3ObjectDataStream@Ogre@@8			; Ogre::ObjectDataStream::`RTTI Class Hierarchy Descriptor'
PUBLIC	??_R2ObjectDataStream@Ogre@@8			; Ogre::ObjectDataStream::`RTTI Base Class Array'
PUBLIC	??_R1A@?0A@EA@ObjectDataStream@Ogre@@8		; Ogre::ObjectDataStream::`RTTI Base Class Descriptor at (0,-1,0,64)'
PUBLIC	??_EObjectDataStream@Ogre@@UAEPAXI@Z		; Ogre::ObjectDataStream::`vector deleting destructor'
EXTRN	?read@ObjectDataStream@Ogre@@UAEIPAXI@Z:PROC	; Ogre::ObjectDataStream::read
EXTRN	?write@ObjectDataStream@Ogre@@UAEIPBXI@Z:PROC	; Ogre::ObjectDataStream::write
EXTRN	?skip@ObjectDataStream@Ogre@@UAEXJ@Z:PROC	; Ogre::ObjectDataStream::skip
EXTRN	?seek@ObjectDataStream@Ogre@@UAEXI@Z:PROC	; Ogre::ObjectDataStream::seek
EXTRN	?tell@ObjectDataStream@Ogre@@UBEIXZ:PROC	; Ogre::ObjectDataStream::tell
EXTRN	?eof@ObjectDataStream@Ogre@@UBE_NXZ:PROC	; Ogre::ObjectDataStream::eof
EXTRN	?size@ObjectDataStream@Ogre@@UBEIXZ:PROC	; Ogre::ObjectDataStream::size
EXTRN	?close@ObjectDataStream@Ogre@@UAEXXZ:PROC	; Ogre::ObjectDataStream::close
EXTRN	?getMemoryImage@ObjectDataStream@Ogre@@UAEPAXXZ:PROC ; Ogre::ObjectDataStream::getMemoryImage
;	COMDAT ??_R1A@?0A@EA@ObjectDataStream@Ogre@@8
rdata$r	SEGMENT
??_R1A@?0A@EA@ObjectDataStream@Ogre@@8 DD FLAT:??_R0?AVObjectDataStream@Ogre@@@8 ; Ogre::ObjectDataStream::`RTTI Base Class Descriptor at (0,-1,0,64)'
	DD	01H
	DD	00H
	DD	0ffffffffH
	DD	00H
	DD	040H
	DD	FLAT:??_R3ObjectDataStream@Ogre@@8
rdata$r	ENDS
;	COMDAT ??_R2ObjectDataStream@Ogre@@8
rdata$r	SEGMENT
??_R2ObjectDataStream@Ogre@@8 DD FLAT:??_R1A@?0A@EA@ObjectDataStream@Ogre@@8 ; Ogre::ObjectDataStream::`RTTI Base Class Array'
	DD	FLAT:??_R1A@?0A@EA@DataStream@Ogre@@8
rdata$r	ENDS
;	COMDAT ??_R3ObjectDataStream@Ogre@@8
rdata$r	SEGMENT
??_R3ObjectDataStream@Ogre@@8 DD 00H			; Ogre::ObjectDataStream::`RTTI Class Hierarchy Descriptor'
	DD	00H
	DD	02H
	DD	FLAT:??_R2ObjectDataStream@Ogre@@8
rdata$r	ENDS
;	COMDAT ??_R0?AVObjectDataStream@Ogre@@@8
_DATA	SEGMENT
??_R0?AVObjectDataStream@Ogre@@@8 DD FLAT:??_7type_info@@6B@ ; Ogre::ObjectDataStream `RTTI Type Descriptor'
	DD	00H
	DB	'.?AVObjectDataStream@Ogre@@', 00H
_DATA	ENDS
;	COMDAT ??_R4ObjectDataStream@Ogre@@6B@
rdata$r	SEGMENT
??_R4ObjectDataStream@Ogre@@6B@ DD 00H			; Ogre::ObjectDataStream::`RTTI Complete Object Locator'
	DD	00H
	DD	00H
	DD	FLAT:??_R0?AVObjectDataStream@Ogre@@@8
	DD	FLAT:??_R3ObjectDataStream@Ogre@@8
rdata$r	ENDS
;	COMDAT ??_7ObjectDataStream@Ogre@@6B@
CONST	SEGMENT
??_7ObjectDataStream@Ogre@@6B@ DD FLAT:??_R4ObjectDataStream@Ogre@@6B@ ; Ogre::ObjectDataStream::`vftable'
	DD	FLAT:??_EObjectDataStream@Ogre@@UAEPAXI@Z
	DD	FLAT:?read@ObjectDataStream@Ogre@@UAEIPAXI@Z
	DD	FLAT:?write@ObjectDataStream@Ogre@@UAEIPBXI@Z
	DD	FLAT:?readLine@DataStream@Ogre@@UAEIPADIABV?$basic_string@DU?$char_traits@D@std@@V?$allocator@D@2@@std@@@Z
	DD	FLAT:?getLine@DataStream@Ogre@@UAE?AV?$basic_string@DU?$char_traits@D@std@@V?$allocator@D@2@@std@@_N@Z
	DD	FLAT:?getAsString@DataStream@Ogre@@UAE?AV?$basic_string@DU?$char_traits@D@std@@V?$allocator@D@2@@std@@XZ
	DD	FLAT:?skipLine@DataStream@Ogre@@UAEIABV?$basic_string@DU?$char_traits@D@std@@V?$allocator@D@2@@std@@@Z
	DD	FLAT:?skip@ObjectDataStream@Ogre@@UAEXJ@Z
	DD	FLAT:?seek@ObjectDataStream@Ogre@@UAEXI@Z
	DD	FLAT:?tell@ObjectDataStream@Ogre@@UBEIXZ
	DD	FLAT:?eof@ObjectDataStream@Ogre@@UBE_NXZ
	DD	FLAT:?size@ObjectDataStream@Ogre@@UBEIXZ
	DD	FLAT:?close@ObjectDataStream@Ogre@@UAEXXZ
	DD	FLAT:?getMemoryImage@ObjectDataStream@Ogre@@UAEPAXXZ
CONST	ENDS
;	COMDAT xdata$x
xdata$x	SEGMENT
__unwindtable$??0ObjectDataStream@Ogre@@QAE@ABV01@@Z DD 0ffffffffH
	DD	FLAT:__unwindfunclet$??0ObjectDataStream@Ogre@@QAE@ABV01@@Z$0
__ehfuncinfo$??0ObjectDataStream@Ogre@@QAE@ABV01@@Z DD 019930522H
	DD	01H
	DD	FLAT:__unwindtable$??0ObjectDataStream@Ogre@@QAE@ABV01@@Z
	DD	2 DUP(00H)
	DD	2 DUP(00H)
	DD	00H
	DD	00H
; Function compile flags: /Odtp
xdata$x	ENDS
;	COMDAT ??0ObjectDataStream@Ogre@@QAE@ABV01@@Z
_TEXT	SEGMENT
_this$ = -16						; size = 4
__$EHRec$ = -12						; size = 12
___that$ = 8						; size = 4
??0ObjectDataStream@Ogre@@QAE@ABV01@@Z PROC		; Ogre::ObjectDataStream::ObjectDataStream, COMDAT
; _this$ = ecx
	push	ebp
	mov	ebp, esp
	push	-1
	push	__ehhandler$??0ObjectDataStream@Ogre@@QAE@ABV01@@Z
	mov	eax, DWORD PTR fs:0
	push	eax
	push	ecx
	mov	eax, DWORD PTR ___security_cookie
	xor	eax, ebp
	push	eax
	lea	eax, DWORD PTR __$EHRec$[ebp]
	mov	DWORD PTR fs:0, eax
	mov	DWORD PTR _this$[ebp], ecx
	mov	eax, DWORD PTR ___that$[ebp]
	push	eax
	mov	ecx, DWORD PTR _this$[ebp]
	call	??0DataStream@Ogre@@QAE@ABV01@@Z
	mov	DWORD PTR __$EHRec$[ebp+8], 0
	mov	ecx, DWORD PTR _this$[ebp]
	mov	DWORD PTR [ecx], OFFSET ??_7ObjectDataStream@Ogre@@6B@
	mov	edx, DWORD PTR _this$[ebp]
	mov	eax, DWORD PTR ___that$[ebp]
	mov	ecx, DWORD PTR [eax+36]
	mov	DWORD PTR [edx+36], ecx
	mov	edx, DWORD PTR _this$[ebp]
	mov	eax, DWORD PTR ___that$[ebp]
	mov	ecx, DWORD PTR [eax+40]
	mov	DWORD PTR [edx+40], ecx
	mov	DWORD PTR __$EHRec$[ebp+8], -1
	mov	eax, DWORD PTR _this$[ebp]
	mov	ecx, DWORD PTR __$EHRec$[ebp]
	mov	DWORD PTR fs:0, ecx
	pop	ecx
	mov	esp, ebp
	pop	ebp
	ret	4
_TEXT	ENDS
;	COMDAT text$x
text$x	SEGMENT
__unwindfunclet$??0ObjectDataStream@Ogre@@QAE@ABV01@@Z$0:
	mov	ecx, DWORD PTR _this$[ebp]
	jmp	??1DataStream@Ogre@@UAE@XZ		; Ogre::DataStream::~DataStream
__ehhandler$??0ObjectDataStream@Ogre@@QAE@ABV01@@Z:
	mov	edx, DWORD PTR [esp+8]
	lea	eax, DWORD PTR [edx+12]
	mov	ecx, DWORD PTR [edx-8]
	xor	ecx, eax
	call	@__security_check_cookie@4
	mov	eax, OFFSET __ehfuncinfo$??0ObjectDataStream@Ogre@@QAE@ABV01@@Z
	jmp	___CxxFrameHandler3
text$x	ENDS
??0ObjectDataStream@Ogre@@QAE@ABV01@@Z ENDP		; Ogre::ObjectDataStream::ObjectDataStream
PUBLIC	??4ObjectDataStream@Ogre@@QAEAAV01@ABV01@@Z	; Ogre::ObjectDataStream::operator=
; Function compile flags: /Odtp
;	COMDAT ??4ObjectDataStream@Ogre@@QAEAAV01@ABV01@@Z
_TEXT	SEGMENT
_this$ = -4						; size = 4
___that$ = 8						; size = 4
??4ObjectDataStream@Ogre@@QAEAAV01@ABV01@@Z PROC	; Ogre::ObjectDataStream::operator=, COMDAT
; _this$ = ecx
	push	ebp
	mov	ebp, esp
	push	ecx
	mov	DWORD PTR _this$[ebp], ecx
	mov	eax, DWORD PTR ___that$[ebp]
	push	eax
	mov	ecx, DWORD PTR _this$[ebp]
	call	??4DataStream@Ogre@@QAEAAV01@ABV01@@Z
	mov	ecx, DWORD PTR _this$[ebp]
	mov	edx, DWORD PTR ___that$[ebp]
	mov	eax, DWORD PTR [edx+36]
	mov	DWORD PTR [ecx+36], eax
	mov	ecx, DWORD PTR _this$[ebp]
	mov	edx, DWORD PTR ___that$[ebp]
	mov	eax, DWORD PTR [edx+40]
	mov	DWORD PTR [ecx+40], eax
	mov	eax, DWORD PTR _this$[ebp]
	mov	esp, ebp
	pop	ebp
	ret	4
??4ObjectDataStream@Ogre@@QAEAAV01@ABV01@@Z ENDP	; Ogre::ObjectDataStream::operator=
_TEXT	ENDS
PUBLIC	??_GObjectDataStream@Ogre@@UAEPAXI@Z		; Ogre::ObjectDataStream::`scalar deleting destructor'
EXTRN	??1ObjectDataStream@Ogre@@UAE@XZ:PROC		; Ogre::ObjectDataStream::~ObjectDataStream
; Function compile flags: /Odtp
;	COMDAT ??_GObjectDataStream@Ogre@@UAEPAXI@Z
_TEXT	SEGMENT
_this$ = -4						; size = 4
___flags$ = 8						; size = 4
??_GObjectDataStream@Ogre@@UAEPAXI@Z PROC		; Ogre::ObjectDataStream::`scalar deleting destructor', COMDAT
; _this$ = ecx
	push	ebp
	mov	ebp, esp
	push	ecx
	mov	DWORD PTR _this$[ebp], ecx
	mov	ecx, DWORD PTR _this$[ebp]
	call	??1ObjectDataStream@Ogre@@UAE@XZ	; Ogre::ObjectDataStream::~ObjectDataStream
	mov	eax, DWORD PTR ___flags$[ebp]
	and	eax, 1
	je	SHORT $LN1@scalar@6
	mov	ecx, DWORD PTR _this$[ebp]
	push	ecx
	call	??3@YAXPAX@Z				; operator delete
	add	esp, 4
$LN1@scalar@6:
	mov	eax, DWORD PTR _this$[ebp]
	mov	esp, ebp
	pop	ebp
	ret	4
??_GObjectDataStream@Ogre@@UAEPAXI@Z ENDP		; Ogre::ObjectDataStream::`scalar deleting destructor'
; Function compile flags: /Odtp
_TEXT	ENDS
;	COMDAT ??_EObjectDataStream@Ogre@@UAEPAXI@Z
_TEXT	SEGMENT
_this$ = -4						; size = 4
___flags$ = 8						; size = 4
??_EObjectDataStream@Ogre@@UAEPAXI@Z PROC		; Ogre::ObjectDataStream::`vector deleting destructor', COMDAT
; _this$ = ecx
	push	ebp
	mov	ebp, esp
	push	ecx
	mov	DWORD PTR _this$[ebp], ecx
	mov	eax, DWORD PTR ___flags$[ebp]
	and	eax, 2
	je	SHORT $LN3@vector@6
	push	OFFSET ??1ObjectDataStream@Ogre@@UAE@XZ	; Ogre::ObjectDataStream::~ObjectDataStream
	mov	ecx, DWORD PTR _this$[ebp]
	mov	edx, DWORD PTR [ecx-4]
	push	edx
	push	44					; 0000002cH
	mov	eax, DWORD PTR _this$[ebp]
	push	eax
	call	??_M@YGXPAXIHP6EX0@Z@Z
	mov	ecx, DWORD PTR ___flags$[ebp]
	and	ecx, 1
	je	SHORT $LN2@vector@6
	mov	edx, DWORD PTR _this$[ebp]
	sub	edx, 4
	push	edx
	call	??_V@YAXPAX@Z				; operator delete[]
	add	esp, 4
$LN2@vector@6:
	mov	eax, DWORD PTR _this$[ebp]
	sub	eax, 4
	jmp	SHORT $LN4@vector@6
$LN3@vector@6:
	mov	ecx, DWORD PTR _this$[ebp]
	call	??1ObjectDataStream@Ogre@@UAE@XZ	; Ogre::ObjectDataStream::~ObjectDataStream
	mov	eax, DWORD PTR ___flags$[ebp]
	and	eax, 1
	je	SHORT $LN1@vector@6
	mov	ecx, DWORD PTR _this$[ebp]
	push	ecx
	call	??3@YAXPAX@Z				; operator delete
	add	esp, 4
$LN1@vector@6:
	mov	eax, DWORD PTR _this$[ebp]
$LN4@vector@6:
	mov	esp, ebp
	pop	ebp
	ret	4
??_EObjectDataStream@Ogre@@UAEPAXI@Z ENDP		; Ogre::ObjectDataStream::`vector deleting destructor'
_TEXT	ENDS
PUBLIC	??4MemoryDelegation@Ogre@@QAEAAV01@ABV01@@Z	; Ogre::MemoryDelegation::operator=
; Function compile flags: /Odtp
;	COMDAT ??4MemoryDelegation@Ogre@@QAEAAV01@ABV01@@Z
_TEXT	SEGMENT
_this$ = -4						; size = 4
___that$ = 8						; size = 4
??4MemoryDelegation@Ogre@@QAEAAV01@ABV01@@Z PROC	; Ogre::MemoryDelegation::operator=, COMDAT
; _this$ = ecx
	push	ebp
	mov	ebp, esp
	push	ecx
	mov	DWORD PTR _this$[ebp], ecx
	mov	eax, DWORD PTR _this$[ebp]
	mov	esp, ebp
	pop	ebp
	ret	4
??4MemoryDelegation@Ogre@@QAEAAV01@ABV01@@Z ENDP	; Ogre::MemoryDelegation::operator=
_TEXT	ENDS
PUBLIC	?getBaseClass@RuntimeClass@Ogre@@QBEPBV12@XZ	; Ogre::RuntimeClass::getBaseClass
; Function compile flags: /Odtp
; File i:\svnroot\client\ogremain\ogrebaseobject.h
;	COMDAT ?getBaseClass@RuntimeClass@Ogre@@QBEPBV12@XZ
_TEXT	SEGMENT
_this$ = -4						; size = 4
?getBaseClass@RuntimeClass@Ogre@@QBEPBV12@XZ PROC	; Ogre::RuntimeClass::getBaseClass, COMDAT
; _this$ = ecx

; 20   : 		{

	push	ebp
	mov	ebp, esp
	push	ecx
	mov	DWORD PTR _this$[ebp], ecx

; 21   : 			return m_pBaseClass;

	mov	eax, DWORD PTR _this$[ebp]
	mov	eax, DWORD PTR [eax+4]

; 22   : 		}

	mov	esp, ebp
	pop	ebp
	ret	0
?getBaseClass@RuntimeClass@Ogre@@QBEPBV12@XZ ENDP	; Ogre::RuntimeClass::getBaseClass
_TEXT	ENDS
PUBLIC	?getClassName@RuntimeClass@Ogre@@QBEPBDXZ	; Ogre::RuntimeClass::getClassName
; Function compile flags: /Odtp
;	COMDAT ?getClassName@RuntimeClass@Ogre@@QBEPBDXZ
_TEXT	SEGMENT
_this$ = -4						; size = 4
?getClassName@RuntimeClass@Ogre@@QBEPBDXZ PROC		; Ogre::RuntimeClass::getClassName, COMDAT
; _this$ = ecx

; 25   : 		{

	push	ebp
	mov	ebp, esp
	push	ecx
	mov	DWORD PTR _this$[ebp], ecx

; 26   : 			return m_pClassName; 

	mov	eax, DWORD PTR _this$[ebp]
	mov	eax, DWORD PTR [eax]

; 27   : 		}

	mov	esp, ebp
	pop	ebp
	ret	0
?getClassName@RuntimeClass@Ogre@@QBEPBDXZ ENDP		; Ogre::RuntimeClass::getClassName
_TEXT	ENDS
PUBLIC	?getVersion@RuntimeClass@Ogre@@QBEHXZ		; Ogre::RuntimeClass::getVersion
; Function compile flags: /Odtp
;	COMDAT ?getVersion@RuntimeClass@Ogre@@QBEHXZ
_TEXT	SEGMENT
_this$ = -4						; size = 4
?getVersion@RuntimeClass@Ogre@@QBEHXZ PROC		; Ogre::RuntimeClass::getVersion, COMDAT
; _this$ = ecx

; 30   : 		{

	push	ebp
	mov	ebp, esp
	push	ecx
	mov	DWORD PTR _this$[ebp], ecx

; 31   : 			return m_Version;

	mov	eax, DWORD PTR _this$[ebp]
	mov	eax, DWORD PTR [eax+8]

; 32   : 		}

	mov	esp, ebp
	pop	ebp
	ret	0
?getVersion@RuntimeClass@Ogre@@QBEHXZ ENDP		; Ogre::RuntimeClass::getVersion
_TEXT	ENDS
PUBLIC	?newObject@RuntimeClass@Ogre@@QAEPAVBaseObject@2@XZ ; Ogre::RuntimeClass::newObject
; Function compile flags: /Odtp
;	COMDAT ?newObject@RuntimeClass@Ogre@@QAEPAVBaseObject@2@XZ
_TEXT	SEGMENT
_this$ = -4						; size = 4
?newObject@RuntimeClass@Ogre@@QAEPAVBaseObject@2@XZ PROC ; Ogre::RuntimeClass::newObject, COMDAT
; _this$ = ecx

; 35   : 		{

	push	ebp
	mov	ebp, esp
	push	ecx
	mov	DWORD PTR _this$[ebp], ecx

; 36   : 			return (*m_pNewFunc)();

	mov	eax, DWORD PTR _this$[ebp]
	mov	ecx, DWORD PTR [eax+12]
	call	ecx

; 37   : 		}

	mov	esp, ebp
	pop	ebp
	ret	0
?newObject@RuntimeClass@Ogre@@QAEPAVBaseObject@2@XZ ENDP ; Ogre::RuntimeClass::newObject
_TEXT	ENDS
PUBLIC	??4RuntimeClass@Ogre@@QAEAAV01@ABV01@@Z		; Ogre::RuntimeClass::operator=
; Function compile flags: /Odtp
;	COMDAT ??4RuntimeClass@Ogre@@QAEAAV01@ABV01@@Z
_TEXT	SEGMENT
_this$ = -4						; size = 4
___that$ = 8						; size = 4
??4RuntimeClass@Ogre@@QAEAAV01@ABV01@@Z PROC		; Ogre::RuntimeClass::operator=, COMDAT
; _this$ = ecx
	push	ebp
	mov	ebp, esp
	push	ecx
	mov	DWORD PTR _this$[ebp], ecx
	mov	eax, DWORD PTR ___that$[ebp]
	mov	ecx, DWORD PTR _this$[ebp]
	mov	edx, DWORD PTR [eax]
	mov	DWORD PTR [ecx], edx
	mov	edx, DWORD PTR [eax+4]
	mov	DWORD PTR [ecx+4], edx
	mov	edx, DWORD PTR [eax+8]
	mov	DWORD PTR [ecx+8], edx
	mov	edx, DWORD PTR [eax+12]
	mov	DWORD PTR [ecx+12], edx
	mov	eax, DWORD PTR [eax+16]
	mov	DWORD PTR [ecx+16], eax
	mov	eax, DWORD PTR _this$[ebp]
	mov	esp, ebp
	pop	ebp
	ret	4
??4RuntimeClass@Ogre@@QAEAAV01@ABV01@@Z ENDP		; Ogre::RuntimeClass::operator=
_TEXT	ENDS
PUBLIC	?getRTTI@BaseObject@Ogre@@UBEPBVRuntimeClass@2@XZ ; Ogre::BaseObject::getRTTI
EXTRN	?m_RTTI@BaseObject@Ogre@@2VRuntimeClass@2@B:BYTE ; Ogre::BaseObject::m_RTTI
; Function compile flags: /Odtp
;	COMDAT ?getRTTI@BaseObject@Ogre@@UBEPBVRuntimeClass@2@XZ
_TEXT	SEGMENT
_this$ = -4						; size = 4
?getRTTI@BaseObject@Ogre@@UBEPBVRuntimeClass@2@XZ PROC	; Ogre::BaseObject::getRTTI, COMDAT
; _this$ = ecx

; 56   : 		{

	push	ebp
	mov	ebp, esp
	push	ecx
	mov	DWORD PTR _this$[ebp], ecx

; 57   : 			return &m_RTTI;

	mov	eax, OFFSET ?m_RTTI@BaseObject@Ogre@@2VRuntimeClass@2@B ; Ogre::BaseObject::m_RTTI

; 58   : 		}

	mov	esp, ebp
	pop	ebp
	ret	0
?getRTTI@BaseObject@Ogre@@UBEPBVRuntimeClass@2@XZ ENDP	; Ogre::BaseObject::getRTTI
_TEXT	ENDS
PUBLIC	?isExactKindOf@BaseObject@Ogre@@QBE_NPBVRuntimeClass@2@@Z ; Ogre::BaseObject::isExactKindOf
; Function compile flags: /Odtp
;	COMDAT ?isExactKindOf@BaseObject@Ogre@@QBE_NPBVRuntimeClass@2@@Z
_TEXT	SEGMENT
_this$ = -4						; size = 4
_prtti$ = 8						; size = 4
?isExactKindOf@BaseObject@Ogre@@QBE_NPBVRuntimeClass@2@@Z PROC ; Ogre::BaseObject::isExactKindOf, COMDAT
; _this$ = ecx

; 61   : 		{

	push	ebp
	mov	ebp, esp
	push	ecx
	mov	DWORD PTR _this$[ebp], ecx

; 62   : 			return (getRTTI() == prtti);

	mov	eax, DWORD PTR _this$[ebp]
	mov	edx, DWORD PTR [eax]
	mov	ecx, DWORD PTR _this$[ebp]
	mov	eax, DWORD PTR [edx]
	call	eax
	xor	ecx, ecx
	cmp	eax, DWORD PTR _prtti$[ebp]
	sete	cl
	mov	al, cl

; 63   : 		}

	mov	esp, ebp
	pop	ebp
	ret	4
?isExactKindOf@BaseObject@Ogre@@QBE_NPBVRuntimeClass@2@@Z ENDP ; Ogre::BaseObject::isExactKindOf
_TEXT	ENDS
PUBLIC	?release@BaseObject@Ogre@@UAEXXZ		; Ogre::BaseObject::release
; Function compile flags: /Odtp
;	COMDAT ?release@BaseObject@Ogre@@UAEXXZ
_TEXT	SEGMENT
_this$ = -4						; size = 4
?release@BaseObject@Ogre@@UAEXXZ PROC			; Ogre::BaseObject::release, COMDAT
; _this$ = ecx

; 68   : 		{

	push	ebp
	mov	ebp, esp
	push	ecx
	mov	DWORD PTR _this$[ebp], ecx

; 69   : 			m_RefCount--;

	mov	eax, DWORD PTR _this$[ebp]
	mov	ecx, DWORD PTR [eax+4]
	sub	ecx, 1
	mov	edx, DWORD PTR _this$[ebp]
	mov	DWORD PTR [edx+4], ecx

; 70   : 			if(m_RefCount <= 0 )

	mov	eax, DWORD PTR _this$[ebp]
	cmp	DWORD PTR [eax+4], 0
	jg	SHORT $LN2@release

; 71   : 			{
; 72   : 				deleteThis();

	mov	ecx, DWORD PTR _this$[ebp]
	mov	edx, DWORD PTR [ecx]
	mov	ecx, DWORD PTR _this$[ebp]
	mov	eax, DWORD PTR [edx+24]
	call	eax
$LN2@release:

; 73   : 			}
; 74   : 		}

	mov	esp, ebp
	pop	ebp
	ret	0
?release@BaseObject@Ogre@@UAEXXZ ENDP			; Ogre::BaseObject::release
_TEXT	ENDS
PUBLIC	?addRef@BaseObject@Ogre@@UAEXXZ			; Ogre::BaseObject::addRef
; Function compile flags: /Odtp
;	COMDAT ?addRef@BaseObject@Ogre@@UAEXXZ
_TEXT	SEGMENT
_this$ = -4						; size = 4
?addRef@BaseObject@Ogre@@UAEXXZ PROC			; Ogre::BaseObject::addRef, COMDAT
; _this$ = ecx

; 77   : 		{

	push	ebp
	mov	ebp, esp
	push	ecx
	mov	DWORD PTR _this$[ebp], ecx

; 78   : 			m_RefCount++;

	mov	eax, DWORD PTR _this$[ebp]
	mov	ecx, DWORD PTR [eax+4]
	add	ecx, 1
	mov	edx, DWORD PTR _this$[ebp]
	mov	DWORD PTR [edx+4], ecx

; 79   : 		}

	mov	esp, ebp
	pop	ebp
	ret	0
?addRef@BaseObject@Ogre@@UAEXXZ ENDP			; Ogre::BaseObject::addRef
_TEXT	ENDS
PUBLIC	?getRefCount@BaseObject@Ogre@@UAEHXZ		; Ogre::BaseObject::getRefCount
; Function compile flags: /Odtp
;	COMDAT ?getRefCount@BaseObject@Ogre@@UAEHXZ
_TEXT	SEGMENT
_this$ = -4						; size = 4
?getRefCount@BaseObject@Ogre@@UAEHXZ PROC		; Ogre::BaseObject::getRefCount, COMDAT
; _this$ = ecx

; 82   : 		{

	push	ebp
	mov	ebp, esp
	push	ecx
	mov	DWORD PTR _this$[ebp], ecx

; 83   : 			return m_RefCount;

	mov	eax, DWORD PTR _this$[ebp]
	mov	eax, DWORD PTR [eax+4]

; 84   : 		}

	mov	esp, ebp
	pop	ebp
	ret	0
?getRefCount@BaseObject@Ogre@@UAEHXZ ENDP		; Ogre::BaseObject::getRefCount
_TEXT	ENDS
PUBLIC	?_serialize@BaseObject@Ogre@@UAEXAAVArchive@2@H@Z ; Ogre::BaseObject::_serialize
; Function compile flags: /Odtp
;	COMDAT ?_serialize@BaseObject@Ogre@@UAEXAAVArchive@2@H@Z
_TEXT	SEGMENT
_this$ = -4						; size = 4
_ar$ = 8						; size = 4
_version$ = 12						; size = 4
?_serialize@BaseObject@Ogre@@UAEXAAVArchive@2@H@Z PROC	; Ogre::BaseObject::_serialize, COMDAT
; _this$ = ecx

; 87   : 		{

	push	ebp
	mov	ebp, esp
	push	ecx
	mov	DWORD PTR _this$[ebp], ecx

; 88   : 		}

	mov	esp, ebp
	pop	ebp
	ret	8
?_serialize@BaseObject@Ogre@@UAEXAAVArchive@2@H@Z ENDP	; Ogre::BaseObject::_serialize
_TEXT	ENDS
PUBLIC	??_7BaseObject@Ogre@@6B@			; Ogre::BaseObject::`vftable'
PUBLIC	??0BaseObject@Ogre@@IAE@XZ			; Ogre::BaseObject::BaseObject
PUBLIC	??_R4BaseObject@Ogre@@6B@			; Ogre::BaseObject::`RTTI Complete Object Locator'
PUBLIC	??_R0?AVBaseObject@Ogre@@@8			; Ogre::BaseObject `RTTI Type Descriptor'
PUBLIC	??_R3BaseObject@Ogre@@8				; Ogre::BaseObject::`RTTI Class Hierarchy Descriptor'
PUBLIC	??_R2BaseObject@Ogre@@8				; Ogre::BaseObject::`RTTI Base Class Array'
PUBLIC	??_R1A@?0A@EA@BaseObject@Ogre@@8		; Ogre::BaseObject::`RTTI Base Class Descriptor at (0,-1,0,64)'
PUBLIC	??_R13?0A@EA@MemoryDelegation@Ogre@@8		; Ogre::MemoryDelegation::`RTTI Base Class Descriptor at (4,-1,0,64)'
PUBLIC	??_R0?AVMemoryDelegation@Ogre@@@8		; Ogre::MemoryDelegation `RTTI Type Descriptor'
PUBLIC	??_R3MemoryDelegation@Ogre@@8			; Ogre::MemoryDelegation::`RTTI Class Hierarchy Descriptor'
PUBLIC	??_R2MemoryDelegation@Ogre@@8			; Ogre::MemoryDelegation::`RTTI Base Class Array'
PUBLIC	??_R1A@?0A@EA@MemoryDelegation@Ogre@@8		; Ogre::MemoryDelegation::`RTTI Base Class Descriptor at (0,-1,0,64)'
PUBLIC	??_EBaseObject@Ogre@@MAEPAXI@Z			; Ogre::BaseObject::`vector deleting destructor'
PUBLIC	?deleteThis@BaseObject@Ogre@@MAEXXZ		; Ogre::BaseObject::deleteThis
;	COMDAT ??_R1A@?0A@EA@MemoryDelegation@Ogre@@8
rdata$r	SEGMENT
??_R1A@?0A@EA@MemoryDelegation@Ogre@@8 DD FLAT:??_R0?AVMemoryDelegation@Ogre@@@8 ; Ogre::MemoryDelegation::`RTTI Base Class Descriptor at (0,-1,0,64)'
	DD	00H
	DD	00H
	DD	0ffffffffH
	DD	00H
	DD	040H
	DD	FLAT:??_R3MemoryDelegation@Ogre@@8
rdata$r	ENDS
;	COMDAT ??_R2MemoryDelegation@Ogre@@8
rdata$r	SEGMENT
??_R2MemoryDelegation@Ogre@@8 DD FLAT:??_R1A@?0A@EA@MemoryDelegation@Ogre@@8 ; Ogre::MemoryDelegation::`RTTI Base Class Array'
rdata$r	ENDS
;	COMDAT ??_R3MemoryDelegation@Ogre@@8
rdata$r	SEGMENT
??_R3MemoryDelegation@Ogre@@8 DD 00H			; Ogre::MemoryDelegation::`RTTI Class Hierarchy Descriptor'
	DD	00H
	DD	01H
	DD	FLAT:??_R2MemoryDelegation@Ogre@@8
rdata$r	ENDS
;	COMDAT ??_R0?AVMemoryDelegation@Ogre@@@8
_DATA	SEGMENT
??_R0?AVMemoryDelegation@Ogre@@@8 DD FLAT:??_7type_info@@6B@ ; Ogre::MemoryDelegation `RTTI Type Descriptor'
	DD	00H
	DB	'.?AVMemoryDelegation@Ogre@@', 00H
_DATA	ENDS
;	COMDAT ??_R13?0A@EA@MemoryDelegation@Ogre@@8
rdata$r	SEGMENT
??_R13?0A@EA@MemoryDelegation@Ogre@@8 DD FLAT:??_R0?AVMemoryDelegation@Ogre@@@8 ; Ogre::MemoryDelegation::`RTTI Base Class Descriptor at (4,-1,0,64)'
	DD	00H
	DD	04H
	DD	0ffffffffH
	DD	00H
	DD	040H
	DD	FLAT:??_R3MemoryDelegation@Ogre@@8
rdata$r	ENDS
;	COMDAT ??_R1A@?0A@EA@BaseObject@Ogre@@8
rdata$r	SEGMENT
??_R1A@?0A@EA@BaseObject@Ogre@@8 DD FLAT:??_R0?AVBaseObject@Ogre@@@8 ; Ogre::BaseObject::`RTTI Base Class Descriptor at (0,-1,0,64)'
	DD	01H
	DD	00H
	DD	0ffffffffH
	DD	00H
	DD	040H
	DD	FLAT:??_R3BaseObject@Ogre@@8
rdata$r	ENDS
;	COMDAT ??_R2BaseObject@Ogre@@8
rdata$r	SEGMENT
??_R2BaseObject@Ogre@@8 DD FLAT:??_R1A@?0A@EA@BaseObject@Ogre@@8 ; Ogre::BaseObject::`RTTI Base Class Array'
	DD	FLAT:??_R13?0A@EA@MemoryDelegation@Ogre@@8
rdata$r	ENDS
;	COMDAT ??_R3BaseObject@Ogre@@8
rdata$r	SEGMENT
??_R3BaseObject@Ogre@@8 DD 00H				; Ogre::BaseObject::`RTTI Class Hierarchy Descriptor'
	DD	00H
	DD	02H
	DD	FLAT:??_R2BaseObject@Ogre@@8
rdata$r	ENDS
;	COMDAT ??_R0?AVBaseObject@Ogre@@@8
_DATA	SEGMENT
??_R0?AVBaseObject@Ogre@@@8 DD FLAT:??_7type_info@@6B@	; Ogre::BaseObject `RTTI Type Descriptor'
	DD	00H
	DB	'.?AVBaseObject@Ogre@@', 00H
_DATA	ENDS
;	COMDAT ??_R4BaseObject@Ogre@@6B@
rdata$r	SEGMENT
??_R4BaseObject@Ogre@@6B@ DD 00H			; Ogre::BaseObject::`RTTI Complete Object Locator'
	DD	00H
	DD	00H
	DD	FLAT:??_R0?AVBaseObject@Ogre@@@8
	DD	FLAT:??_R3BaseObject@Ogre@@8
rdata$r	ENDS
;	COMDAT ??_7BaseObject@Ogre@@6B@
CONST	SEGMENT
??_7BaseObject@Ogre@@6B@ DD FLAT:??_R4BaseObject@Ogre@@6B@ ; Ogre::BaseObject::`vftable'
	DD	FLAT:?getRTTI@BaseObject@Ogre@@UBEPBVRuntimeClass@2@XZ
	DD	FLAT:?release@BaseObject@Ogre@@UAEXXZ
	DD	FLAT:?addRef@BaseObject@Ogre@@UAEXXZ
	DD	FLAT:?getRefCount@BaseObject@Ogre@@UAEHXZ
	DD	FLAT:?_serialize@BaseObject@Ogre@@UAEXAAVArchive@2@H@Z
	DD	FLAT:??_EBaseObject@Ogre@@MAEPAXI@Z
	DD	FLAT:?deleteThis@BaseObject@Ogre@@MAEXXZ
; Function compile flags: /Odtp
CONST	ENDS
;	COMDAT ??0BaseObject@Ogre@@IAE@XZ
_TEXT	SEGMENT
_this$ = -4						; size = 4
??0BaseObject@Ogre@@IAE@XZ PROC				; Ogre::BaseObject::BaseObject, COMDAT
; _this$ = ecx

; 92   : 		{

	push	ebp
	mov	ebp, esp
	push	ecx
	mov	DWORD PTR _this$[ebp], ecx
	mov	eax, DWORD PTR _this$[ebp]
	mov	DWORD PTR [eax], OFFSET ??_7BaseObject@Ogre@@6B@
	mov	ecx, DWORD PTR _this$[ebp]
	mov	DWORD PTR [ecx+4], 1

; 93   : 		}

	mov	eax, DWORD PTR _this$[ebp]
	mov	esp, ebp
	pop	ebp
	ret	0
??0BaseObject@Ogre@@IAE@XZ ENDP				; Ogre::BaseObject::BaseObject
_TEXT	ENDS
PUBLIC	??1BaseObject@Ogre@@MAE@XZ			; Ogre::BaseObject::~BaseObject
; Function compile flags: /Odtp
;	COMDAT ??1BaseObject@Ogre@@MAE@XZ
_TEXT	SEGMENT
_this$ = -4						; size = 4
??1BaseObject@Ogre@@MAE@XZ PROC				; Ogre::BaseObject::~BaseObject, COMDAT
; _this$ = ecx

; 96   : 		{

	push	ebp
	mov	ebp, esp
	push	ecx
	mov	DWORD PTR _this$[ebp], ecx
	mov	eax, DWORD PTR _this$[ebp]
	mov	DWORD PTR [eax], OFFSET ??_7BaseObject@Ogre@@6B@

; 97   : 		}

	mov	esp, ebp
	pop	ebp
	ret	0
??1BaseObject@Ogre@@MAE@XZ ENDP				; Ogre::BaseObject::~BaseObject
; Function compile flags: /Odtp
_TEXT	ENDS
;	COMDAT ?deleteThis@BaseObject@Ogre@@MAEXXZ
_TEXT	SEGMENT
tv70 = -16						; size = 4
_this$ = -12						; size = 4
$T63244 = -8						; size = 4
$T63243 = -4						; size = 4
?deleteThis@BaseObject@Ogre@@MAEXXZ PROC		; Ogre::BaseObject::deleteThis, COMDAT
; _this$ = ecx

; 100  : 		{

	push	ebp
	mov	ebp, esp
	sub	esp, 16					; 00000010H
	mov	DWORD PTR _this$[ebp], ecx

; 101  : 			delete this;

	mov	eax, DWORD PTR _this$[ebp]
	mov	DWORD PTR $T63244[ebp], eax
	mov	ecx, DWORD PTR $T63244[ebp]
	mov	DWORD PTR $T63243[ebp], ecx
	cmp	DWORD PTR $T63243[ebp], 0
	je	SHORT $LN3@deleteThis
	push	1
	mov	edx, DWORD PTR $T63243[ebp]
	mov	eax, DWORD PTR [edx]
	mov	ecx, DWORD PTR $T63243[ebp]
	mov	edx, DWORD PTR [eax+20]
	call	edx
	mov	DWORD PTR tv70[ebp], eax
	jmp	SHORT $LN1@deleteThis
$LN3@deleteThis:
	mov	DWORD PTR tv70[ebp], 0
$LN1@deleteThis:

; 102  : 		}

	mov	esp, ebp
	pop	ebp
	ret	0
?deleteThis@BaseObject@Ogre@@MAEXXZ ENDP		; Ogre::BaseObject::deleteThis
_TEXT	ENDS
PUBLIC	??0BaseObject@Ogre@@QAE@ABV01@@Z		; Ogre::BaseObject::BaseObject
; Function compile flags: /Odtp
;	COMDAT ??0BaseObject@Ogre@@QAE@ABV01@@Z
_TEXT	SEGMENT
tv68 = -8						; size = 4
_this$ = -4						; size = 4
___that$ = 8						; size = 4
??0BaseObject@Ogre@@QAE@ABV01@@Z PROC			; Ogre::BaseObject::BaseObject, COMDAT
; _this$ = ecx
	push	ebp
	mov	ebp, esp
	sub	esp, 8
	mov	DWORD PTR _this$[ebp], ecx
	cmp	DWORD PTR ___that$[ebp], 0
	je	SHORT $LN3@BaseObject
	mov	eax, DWORD PTR ___that$[ebp]
	add	eax, 4
	mov	DWORD PTR tv68[ebp], eax
	jmp	SHORT $LN4@BaseObject
$LN3@BaseObject:
	mov	DWORD PTR tv68[ebp], 0
$LN4@BaseObject:
	mov	ecx, DWORD PTR _this$[ebp]
	mov	DWORD PTR [ecx], OFFSET ??_7BaseObject@Ogre@@6B@
	mov	edx, DWORD PTR _this$[ebp]
	mov	eax, DWORD PTR ___that$[ebp]
	mov	ecx, DWORD PTR [eax+4]
	mov	DWORD PTR [edx+4], ecx
	mov	eax, DWORD PTR _this$[ebp]
	mov	esp, ebp
	pop	ebp
	ret	4
??0BaseObject@Ogre@@QAE@ABV01@@Z ENDP			; Ogre::BaseObject::BaseObject
_TEXT	ENDS
PUBLIC	??4BaseObject@Ogre@@QAEAAV01@ABV01@@Z		; Ogre::BaseObject::operator=
; Function compile flags: /Odtp
;	COMDAT ??4BaseObject@Ogre@@QAEAAV01@ABV01@@Z
_TEXT	SEGMENT
_this$ = -4						; size = 4
___that$ = 8						; size = 4
??4BaseObject@Ogre@@QAEAAV01@ABV01@@Z PROC		; Ogre::BaseObject::operator=, COMDAT
; _this$ = ecx
	push	ebp
	mov	ebp, esp
	push	ecx
	mov	DWORD PTR _this$[ebp], ecx
	mov	eax, DWORD PTR _this$[ebp]
	mov	ecx, DWORD PTR ___that$[ebp]
	mov	edx, DWORD PTR [ecx+4]
	mov	DWORD PTR [eax+4], edx
	mov	eax, DWORD PTR _this$[ebp]
	mov	esp, ebp
	pop	ebp
	ret	4
??4BaseObject@Ogre@@QAEAAV01@ABV01@@Z ENDP		; Ogre::BaseObject::operator=
_TEXT	ENDS
PUBLIC	??_GBaseObject@Ogre@@MAEPAXI@Z			; Ogre::BaseObject::`scalar deleting destructor'
EXTRN	??3MemoryDelegation@Ogre@@SAXPAXI@Z:PROC	; Ogre::MemoryDelegation::operator delete
; Function compile flags: /Odtp
;	COMDAT ??_GBaseObject@Ogre@@MAEPAXI@Z
_TEXT	SEGMENT
_this$ = -4						; size = 4
___flags$ = 8						; size = 4
??_GBaseObject@Ogre@@MAEPAXI@Z PROC			; Ogre::BaseObject::`scalar deleting destructor', COMDAT
; _this$ = ecx
	push	ebp
	mov	ebp, esp
	push	ecx
	mov	DWORD PTR _this$[ebp], ecx
	mov	ecx, DWORD PTR _this$[ebp]
	call	??1BaseObject@Ogre@@MAE@XZ		; Ogre::BaseObject::~BaseObject
	mov	eax, DWORD PTR ___flags$[ebp]
	and	eax, 1
	je	SHORT $LN1@scalar@7
	push	8
	mov	ecx, DWORD PTR _this$[ebp]
	push	ecx
	call	??3MemoryDelegation@Ogre@@SAXPAXI@Z	; Ogre::MemoryDelegation::operator delete
	add	esp, 8
$LN1@scalar@7:
	mov	eax, DWORD PTR _this$[ebp]
	mov	esp, ebp
	pop	ebp
	ret	4
??_GBaseObject@Ogre@@MAEPAXI@Z ENDP			; Ogre::BaseObject::`scalar deleting destructor'
_TEXT	ENDS
EXTRN	??_VMemoryDelegation@Ogre@@SAXPAXI@Z:PROC	; Ogre::MemoryDelegation::operator delete[]
; Function compile flags: /Odtp
;	COMDAT ??_EBaseObject@Ogre@@MAEPAXI@Z
_TEXT	SEGMENT
_this$ = -4						; size = 4
___flags$ = 8						; size = 4
??_EBaseObject@Ogre@@MAEPAXI@Z PROC			; Ogre::BaseObject::`vector deleting destructor', COMDAT
; _this$ = ecx
	push	ebp
	mov	ebp, esp
	push	ecx
	mov	DWORD PTR _this$[ebp], ecx
	mov	eax, DWORD PTR ___flags$[ebp]
	and	eax, 2
	je	SHORT $LN3@vector@7
	push	OFFSET ??1BaseObject@Ogre@@MAE@XZ	; Ogre::BaseObject::~BaseObject
	mov	ecx, DWORD PTR _this$[ebp]
	mov	edx, DWORD PTR [ecx-4]
	push	edx
	push	8
	mov	eax, DWORD PTR _this$[ebp]
	push	eax
	call	??_M@YGXPAXIHP6EX0@Z@Z
	mov	ecx, DWORD PTR ___flags$[ebp]
	and	ecx, 1
	je	SHORT $LN2@vector@7
	push	8
	mov	edx, DWORD PTR _this$[ebp]
	sub	edx, 4
	push	edx
	call	??_VMemoryDelegation@Ogre@@SAXPAXI@Z	; Ogre::MemoryDelegation::operator delete[]
	add	esp, 8
$LN2@vector@7:
	mov	eax, DWORD PTR _this$[ebp]
	sub	eax, 4
	jmp	SHORT $LN4@vector@7
$LN3@vector@7:
	mov	ecx, DWORD PTR _this$[ebp]
	call	??1BaseObject@Ogre@@MAE@XZ		; Ogre::BaseObject::~BaseObject
	mov	eax, DWORD PTR ___flags$[ebp]
	and	eax, 1
	je	SHORT $LN1@vector@7
	push	8
	mov	ecx, DWORD PTR _this$[ebp]
	push	ecx
	call	??3MemoryDelegation@Ogre@@SAXPAXI@Z	; Ogre::MemoryDelegation::operator delete
	add	esp, 8
$LN1@vector@7:
	mov	eax, DWORD PTR _this$[ebp]
$LN4@vector@7:
	mov	esp, ebp
	pop	ebp
	ret	4
??_EBaseObject@Ogre@@MAEPAXI@Z ENDP			; Ogre::BaseObject::`vector deleting destructor'
_TEXT	ENDS
PUBLIC	??_7Archive@Ogre@@6B@				; Ogre::Archive::`vftable'
PUBLIC	??0Archive@Ogre@@QAE@PAVDataStream@1@H@Z	; Ogre::Archive::Archive
PUBLIC	??_R4Archive@Ogre@@6B@				; Ogre::Archive::`RTTI Complete Object Locator'
PUBLIC	??_R0?AVArchive@Ogre@@@8			; Ogre::Archive `RTTI Type Descriptor'
PUBLIC	??_R3Archive@Ogre@@8				; Ogre::Archive::`RTTI Class Hierarchy Descriptor'
PUBLIC	??_R2Archive@Ogre@@8				; Ogre::Archive::`RTTI Base Class Array'
PUBLIC	??_R1A@?0A@EA@Archive@Ogre@@8			; Ogre::Archive::`RTTI Base Class Descriptor at (0,-1,0,64)'
PUBLIC	??_EArchive@Ogre@@UAEPAXI@Z			; Ogre::Archive::`vector deleting destructor'
;	COMDAT ??_R1A@?0A@EA@Archive@Ogre@@8
; File i:\svnroot\client\ogremain\ogrearchive.h
rdata$r	SEGMENT
??_R1A@?0A@EA@Archive@Ogre@@8 DD FLAT:??_R0?AVArchive@Ogre@@@8 ; Ogre::Archive::`RTTI Base Class Descriptor at (0,-1,0,64)'
	DD	00H
	DD	00H
	DD	0ffffffffH
	DD	00H
	DD	040H
	DD	FLAT:??_R3Archive@Ogre@@8
rdata$r	ENDS
;	COMDAT ??_R2Archive@Ogre@@8
rdata$r	SEGMENT
??_R2Archive@Ogre@@8 DD FLAT:??_R1A@?0A@EA@Archive@Ogre@@8 ; Ogre::Archive::`RTTI Base Class Array'
rdata$r	ENDS
;	COMDAT ??_R3Archive@Ogre@@8
rdata$r	SEGMENT
??_R3Archive@Ogre@@8 DD 00H				; Ogre::Archive::`RTTI Class Hierarchy Descriptor'
	DD	00H
	DD	01H
	DD	FLAT:??_R2Archive@Ogre@@8
rdata$r	ENDS
;	COMDAT ??_R0?AVArchive@Ogre@@@8
_DATA	SEGMENT
??_R0?AVArchive@Ogre@@@8 DD FLAT:??_7type_info@@6B@	; Ogre::Archive `RTTI Type Descriptor'
	DD	00H
	DB	'.?AVArchive@Ogre@@', 00H
_DATA	ENDS
;	COMDAT ??_R4Archive@Ogre@@6B@
rdata$r	SEGMENT
??_R4Archive@Ogre@@6B@ DD 00H				; Ogre::Archive::`RTTI Complete Object Locator'
	DD	00H
	DD	00H
	DD	FLAT:??_R0?AVArchive@Ogre@@@8
	DD	FLAT:??_R3Archive@Ogre@@8
rdata$r	ENDS
;	COMDAT ??_7Archive@Ogre@@6B@
CONST	SEGMENT
??_7Archive@Ogre@@6B@ DD FLAT:??_R4Archive@Ogre@@6B@	; Ogre::Archive::`vftable'
	DD	FLAT:??_EArchive@Ogre@@UAEPAXI@Z
; Function compile flags: /Odtp
CONST	ENDS
;	COMDAT ??0Archive@Ogre@@QAE@PAVDataStream@1@H@Z
_TEXT	SEGMENT
_this$ = -4						; size = 4
_pstream$ = 8						; size = 4
_mode$ = 12						; size = 4
??0Archive@Ogre@@QAE@PAVDataStream@1@H@Z PROC		; Ogre::Archive::Archive, COMDAT
; _this$ = ecx

; 22   : 		{

	push	ebp
	mov	ebp, esp
	push	ecx
	mov	DWORD PTR _this$[ebp], ecx
	mov	eax, DWORD PTR _this$[ebp]
	mov	DWORD PTR [eax], OFFSET ??_7Archive@Ogre@@6B@
	mov	ecx, DWORD PTR _this$[ebp]
	mov	edx, DWORD PTR _pstream$[ebp]
	mov	DWORD PTR [ecx+4], edx
	mov	eax, DWORD PTR _this$[ebp]
	mov	ecx, DWORD PTR _mode$[ebp]
	mov	DWORD PTR [eax+8], ecx

; 23   : 		}

	mov	eax, DWORD PTR _this$[ebp]
	mov	esp, ebp
	pop	ebp
	ret	8
??0Archive@Ogre@@QAE@PAVDataStream@1@H@Z ENDP		; Ogre::Archive::Archive
_TEXT	ENDS
PUBLIC	??1Archive@Ogre@@UAE@XZ				; Ogre::Archive::~Archive
; Function compile flags: /Odtp
;	COMDAT ??1Archive@Ogre@@UAE@XZ
_TEXT	SEGMENT
_this$ = -4						; size = 4
??1Archive@Ogre@@UAE@XZ PROC				; Ogre::Archive::~Archive, COMDAT
; _this$ = ecx

; 26   : 		{

	push	ebp
	mov	ebp, esp
	push	ecx
	mov	DWORD PTR _this$[ebp], ecx
	mov	eax, DWORD PTR _this$[ebp]
	mov	DWORD PTR [eax], OFFSET ??_7Archive@Ogre@@6B@

; 27   : 		}

	mov	esp, ebp
	pop	ebp
	ret	0
??1Archive@Ogre@@UAE@XZ ENDP				; Ogre::Archive::~Archive
_TEXT	ENDS
PUBLIC	?isLoading@Archive@Ogre@@QAE_NXZ		; Ogre::Archive::isLoading
; Function compile flags: /Odtp
;	COMDAT ?isLoading@Archive@Ogre@@QAE_NXZ
_TEXT	SEGMENT
_this$ = -4						; size = 4
?isLoading@Archive@Ogre@@QAE_NXZ PROC			; Ogre::Archive::isLoading, COMDAT
; _this$ = ecx

; 30   : 		{

	push	ebp
	mov	ebp, esp
	push	ecx
	mov	DWORD PTR _this$[ebp], ecx

; 31   : 			return m_Mode==MODE_LOAD;

	mov	eax, DWORD PTR _this$[ebp]
	xor	ecx, ecx
	cmp	DWORD PTR [eax+8], 1
	sete	cl
	mov	al, cl

; 32   : 		}

	mov	esp, ebp
	pop	ebp
	ret	0
?isLoading@Archive@Ogre@@QAE_NXZ ENDP			; Ogre::Archive::isLoading
_TEXT	ENDS
PUBLIC	?serialize@Archive@Ogre@@QAEAAV12@PAXI@Z	; Ogre::Archive::serialize
PUBLIC	??6Archive@Ogre@@QAEAAV01@AAD@Z			; Ogre::Archive::operator<<
; Function compile flags: /Odtp
;	COMDAT ??6Archive@Ogre@@QAEAAV01@AAD@Z
_TEXT	SEGMENT
_this$ = -4						; size = 4
_value$ = 8						; size = 4
??6Archive@Ogre@@QAEAAV01@AAD@Z PROC			; Ogre::Archive::operator<<, COMDAT
; _this$ = ecx

; 108  : 		SERIALIZE_PRIMITIVE_FUNC(char)

	push	ebp
	mov	ebp, esp
	push	ecx
	mov	DWORD PTR _this$[ebp], ecx
	push	1
	mov	eax, DWORD PTR _value$[ebp]
	push	eax
	mov	ecx, DWORD PTR _this$[ebp]
	call	?serialize@Archive@Ogre@@QAEAAV12@PAXI@Z ; Ogre::Archive::serialize
	mov	eax, DWORD PTR _this$[ebp]
	mov	esp, ebp
	pop	ebp
	ret	4
??6Archive@Ogre@@QAEAAV01@AAD@Z ENDP			; Ogre::Archive::operator<<
_TEXT	ENDS
PUBLIC	??6Archive@Ogre@@QAEAAV01@AAF@Z			; Ogre::Archive::operator<<
; Function compile flags: /Odtp
;	COMDAT ??6Archive@Ogre@@QAEAAV01@AAF@Z
_TEXT	SEGMENT
_this$ = -4						; size = 4
_value$ = 8						; size = 4
??6Archive@Ogre@@QAEAAV01@AAF@Z PROC			; Ogre::Archive::operator<<, COMDAT
; _this$ = ecx

; 109  : 		SERIALIZE_PRIMITIVE_FUNC(short)

	push	ebp
	mov	ebp, esp
	push	ecx
	mov	DWORD PTR _this$[ebp], ecx
	push	2
	mov	eax, DWORD PTR _value$[ebp]
	push	eax
	mov	ecx, DWORD PTR _this$[ebp]
	call	?serialize@Archive@Ogre@@QAEAAV12@PAXI@Z ; Ogre::Archive::serialize
	mov	eax, DWORD PTR _this$[ebp]
	mov	esp, ebp
	pop	ebp
	ret	4
??6Archive@Ogre@@QAEAAV01@AAF@Z ENDP			; Ogre::Archive::operator<<
_TEXT	ENDS
PUBLIC	??6Archive@Ogre@@QAEAAV01@AAH@Z			; Ogre::Archive::operator<<
; Function compile flags: /Odtp
;	COMDAT ??6Archive@Ogre@@QAEAAV01@AAH@Z
_TEXT	SEGMENT
_this$ = -4						; size = 4
_value$ = 8						; size = 4
??6Archive@Ogre@@QAEAAV01@AAH@Z PROC			; Ogre::Archive::operator<<, COMDAT
; _this$ = ecx

; 110  : 		SERIALIZE_PRIMITIVE_FUNC(int)

	push	ebp
	mov	ebp, esp
	push	ecx
	mov	DWORD PTR _this$[ebp], ecx
	push	4
	mov	eax, DWORD PTR _value$[ebp]
	push	eax
	mov	ecx, DWORD PTR _this$[ebp]
	call	?serialize@Archive@Ogre@@QAEAAV12@PAXI@Z ; Ogre::Archive::serialize
	mov	eax, DWORD PTR _this$[ebp]
	mov	esp, ebp
	pop	ebp
	ret	4
??6Archive@Ogre@@QAEAAV01@AAH@Z ENDP			; Ogre::Archive::operator<<
_TEXT	ENDS
PUBLIC	??6Archive@Ogre@@QAEAAV01@AA_J@Z		; Ogre::Archive::operator<<
; Function compile flags: /Odtp
;	COMDAT ??6Archive@Ogre@@QAEAAV01@AA_J@Z
_TEXT	SEGMENT
_this$ = -4						; size = 4
_value$ = 8						; size = 4
??6Archive@Ogre@@QAEAAV01@AA_J@Z PROC			; Ogre::Archive::operator<<, COMDAT
; _this$ = ecx

; 111  : 		SERIALIZE_PRIMITIVE_FUNC(int64)

	push	ebp
	mov	ebp, esp
	push	ecx
	mov	DWORD PTR _this$[ebp], ecx
	push	8
	mov	eax, DWORD PTR _value$[ebp]
	push	eax
	mov	ecx, DWORD PTR _this$[ebp]
	call	?serialize@Archive@Ogre@@QAEAAV12@PAXI@Z ; Ogre::Archive::serialize
	mov	eax, DWORD PTR _this$[ebp]
	mov	esp, ebp
	pop	ebp
	ret	4
??6Archive@Ogre@@QAEAAV01@AA_J@Z ENDP			; Ogre::Archive::operator<<
_TEXT	ENDS
PUBLIC	??6Archive@Ogre@@QAEAAV01@AAE@Z			; Ogre::Archive::operator<<
; Function compile flags: /Odtp
;	COMDAT ??6Archive@Ogre@@QAEAAV01@AAE@Z
_TEXT	SEGMENT
_this$ = -4						; size = 4
_value$ = 8						; size = 4
??6Archive@Ogre@@QAEAAV01@AAE@Z PROC			; Ogre::Archive::operator<<, COMDAT
; _this$ = ecx

; 112  : 		SERIALIZE_PRIMITIVE_FUNC(uchar)

	push	ebp
	mov	ebp, esp
	push	ecx
	mov	DWORD PTR _this$[ebp], ecx
	push	1
	mov	eax, DWORD PTR _value$[ebp]
	push	eax
	mov	ecx, DWORD PTR _this$[ebp]
	call	?serialize@Archive@Ogre@@QAEAAV12@PAXI@Z ; Ogre::Archive::serialize
	mov	eax, DWORD PTR _this$[ebp]
	mov	esp, ebp
	pop	ebp
	ret	4
??6Archive@Ogre@@QAEAAV01@AAE@Z ENDP			; Ogre::Archive::operator<<
_TEXT	ENDS
PUBLIC	??6Archive@Ogre@@QAEAAV01@AAG@Z			; Ogre::Archive::operator<<
; Function compile flags: /Odtp
;	COMDAT ??6Archive@Ogre@@QAEAAV01@AAG@Z
_TEXT	SEGMENT
_this$ = -4						; size = 4
_value$ = 8						; size = 4
??6Archive@Ogre@@QAEAAV01@AAG@Z PROC			; Ogre::Archive::operator<<, COMDAT
; _this$ = ecx

; 113  : 		SERIALIZE_PRIMITIVE_FUNC(ushort)

	push	ebp
	mov	ebp, esp
	push	ecx
	mov	DWORD PTR _this$[ebp], ecx
	push	2
	mov	eax, DWORD PTR _value$[ebp]
	push	eax
	mov	ecx, DWORD PTR _this$[ebp]
	call	?serialize@Archive@Ogre@@QAEAAV12@PAXI@Z ; Ogre::Archive::serialize
	mov	eax, DWORD PTR _this$[ebp]
	mov	esp, ebp
	pop	ebp
	ret	4
??6Archive@Ogre@@QAEAAV01@AAG@Z ENDP			; Ogre::Archive::operator<<
_TEXT	ENDS
PUBLIC	??6Archive@Ogre@@QAEAAV01@AAI@Z			; Ogre::Archive::operator<<
; Function compile flags: /Odtp
;	COMDAT ??6Archive@Ogre@@QAEAAV01@AAI@Z
_TEXT	SEGMENT
_this$ = -4						; size = 4
_value$ = 8						; size = 4
??6Archive@Ogre@@QAEAAV01@AAI@Z PROC			; Ogre::Archive::operator<<, COMDAT
; _this$ = ecx

; 114  : 		SERIALIZE_PRIMITIVE_FUNC(uint)

	push	ebp
	mov	ebp, esp
	push	ecx
	mov	DWORD PTR _this$[ebp], ecx
	push	4
	mov	eax, DWORD PTR _value$[ebp]
	push	eax
	mov	ecx, DWORD PTR _this$[ebp]
	call	?serialize@Archive@Ogre@@QAEAAV12@PAXI@Z ; Ogre::Archive::serialize
	mov	eax, DWORD PTR _this$[ebp]
	mov	esp, ebp
	pop	ebp
	ret	4
??6Archive@Ogre@@QAEAAV01@AAI@Z ENDP			; Ogre::Archive::operator<<
_TEXT	ENDS
PUBLIC	??6Archive@Ogre@@QAEAAV01@AA_K@Z		; Ogre::Archive::operator<<
; Function compile flags: /Odtp
;	COMDAT ??6Archive@Ogre@@QAEAAV01@AA_K@Z
_TEXT	SEGMENT
_this$ = -4						; size = 4
_value$ = 8						; size = 4
??6Archive@Ogre@@QAEAAV01@AA_K@Z PROC			; Ogre::Archive::operator<<, COMDAT
; _this$ = ecx

; 115  : 		SERIALIZE_PRIMITIVE_FUNC(uint64)

	push	ebp
	mov	ebp, esp
	push	ecx
	mov	DWORD PTR _this$[ebp], ecx
	push	8
	mov	eax, DWORD PTR _value$[ebp]
	push	eax
	mov	ecx, DWORD PTR _this$[ebp]
	call	?serialize@Archive@Ogre@@QAEAAV12@PAXI@Z ; Ogre::Archive::serialize
	mov	eax, DWORD PTR _this$[ebp]
	mov	esp, ebp
	pop	ebp
	ret	4
??6Archive@Ogre@@QAEAAV01@AA_K@Z ENDP			; Ogre::Archive::operator<<
_TEXT	ENDS
PUBLIC	??6Archive@Ogre@@QAEAAV01@AA_N@Z		; Ogre::Archive::operator<<
; Function compile flags: /Odtp
;	COMDAT ??6Archive@Ogre@@QAEAAV01@AA_N@Z
_TEXT	SEGMENT
_this$ = -4						; size = 4
_value$ = 8						; size = 4
??6Archive@Ogre@@QAEAAV01@AA_N@Z PROC			; Ogre::Archive::operator<<, COMDAT
; _this$ = ecx

; 116  : 		SERIALIZE_PRIMITIVE_FUNC(bool)

	push	ebp
	mov	ebp, esp
	push	ecx
	mov	DWORD PTR _this$[ebp], ecx
	push	1
	mov	eax, DWORD PTR _value$[ebp]
	push	eax
	mov	ecx, DWORD PTR _this$[ebp]
	call	?serialize@Archive@Ogre@@QAEAAV12@PAXI@Z ; Ogre::Archive::serialize
	mov	eax, DWORD PTR _this$[ebp]
	mov	esp, ebp
	pop	ebp
	ret	4
??6Archive@Ogre@@QAEAAV01@AA_N@Z ENDP			; Ogre::Archive::operator<<
_TEXT	ENDS
PUBLIC	??6Archive@Ogre@@QAEAAV01@AAM@Z			; Ogre::Archive::operator<<
; Function compile flags: /Odtp
;	COMDAT ??6Archive@Ogre@@QAEAAV01@AAM@Z
_TEXT	SEGMENT
_this$ = -4						; size = 4
_value$ = 8						; size = 4
??6Archive@Ogre@@QAEAAV01@AAM@Z PROC			; Ogre::Archive::operator<<, COMDAT
; _this$ = ecx

; 117  : 		SERIALIZE_PRIMITIVE_FUNC(float)

	push	ebp
	mov	ebp, esp
	push	ecx
	mov	DWORD PTR _this$[ebp], ecx
	push	4
	mov	eax, DWORD PTR _value$[ebp]
	push	eax
	mov	ecx, DWORD PTR _this$[ebp]
	call	?serialize@Archive@Ogre@@QAEAAV12@PAXI@Z ; Ogre::Archive::serialize
	mov	eax, DWORD PTR _this$[ebp]
	mov	esp, ebp
	pop	ebp
	ret	4
??6Archive@Ogre@@QAEAAV01@AAM@Z ENDP			; Ogre::Archive::operator<<
; Function compile flags: /Odtp
_TEXT	ENDS
;	COMDAT ?serialize@Archive@Ogre@@QAEAAV12@PAXI@Z
_TEXT	SEGMENT
_this$ = -4						; size = 4
_pbuf$ = 8						; size = 4
_len$ = 12						; size = 4
?serialize@Archive@Ogre@@QAEAAV12@PAXI@Z PROC		; Ogre::Archive::serialize, COMDAT
; _this$ = ecx

; 155  : 		{

	push	ebp
	mov	ebp, esp
	push	ecx
	mov	DWORD PTR _this$[ebp], ecx

; 156  : 			if(isLoading()) m_pStream->read(pbuf, len);

	mov	ecx, DWORD PTR _this$[ebp]
	call	?isLoading@Archive@Ogre@@QAE_NXZ	; Ogre::Archive::isLoading
	movzx	eax, al
	test	eax, eax
	je	SHORT $LN2@serialize
	mov	ecx, DWORD PTR _len$[ebp]
	push	ecx
	mov	edx, DWORD PTR _pbuf$[ebp]
	push	edx
	mov	eax, DWORD PTR _this$[ebp]
	mov	ecx, DWORD PTR [eax+4]
	mov	edx, DWORD PTR _this$[ebp]
	mov	eax, DWORD PTR [edx+4]
	mov	edx, DWORD PTR [ecx]
	mov	ecx, eax
	mov	eax, DWORD PTR [edx+4]
	call	eax
	jmp	SHORT $LN1@serialize
$LN2@serialize:

; 157  : 			else m_pStream->write(pbuf, len);

	mov	ecx, DWORD PTR _len$[ebp]
	push	ecx
	mov	edx, DWORD PTR _pbuf$[ebp]
	push	edx
	mov	eax, DWORD PTR _this$[ebp]
	mov	ecx, DWORD PTR [eax+4]
	mov	edx, DWORD PTR _this$[ebp]
	mov	eax, DWORD PTR [edx+4]
	mov	edx, DWORD PTR [ecx]
	mov	ecx, eax
	mov	eax, DWORD PTR [edx+8]
	call	eax
$LN1@serialize:

; 158  : 
; 159  : 			return *this;

	mov	eax, DWORD PTR _this$[ebp]

; 160  : 		}

	mov	esp, ebp
	pop	ebp
	ret	8
?serialize@Archive@Ogre@@QAEAAV12@PAXI@Z ENDP		; Ogre::Archive::serialize
_TEXT	ENDS
PUBLIC	?read@Archive@Ogre@@QAEXPAXI@Z			; Ogre::Archive::read
; Function compile flags: /Odtp
;	COMDAT ?read@Archive@Ogre@@QAEXPAXI@Z
_TEXT	SEGMENT
_this$ = -4						; size = 4
_pbuf$ = 8						; size = 4
_len$ = 12						; size = 4
?read@Archive@Ogre@@QAEXPAXI@Z PROC			; Ogre::Archive::read, COMDAT
; _this$ = ecx

; 163  : 		{

	push	ebp
	mov	ebp, esp
	push	ecx
	mov	DWORD PTR _this$[ebp], ecx

; 164  : 			m_pStream->read(pbuf, len);

	mov	eax, DWORD PTR _len$[ebp]
	push	eax
	mov	ecx, DWORD PTR _pbuf$[ebp]
	push	ecx
	mov	edx, DWORD PTR _this$[ebp]
	mov	eax, DWORD PTR [edx+4]
	mov	ecx, DWORD PTR _this$[ebp]
	mov	ecx, DWORD PTR [ecx+4]
	mov	edx, DWORD PTR [eax]
	mov	eax, DWORD PTR [edx+4]
	call	eax

; 165  : 		}

	mov	esp, ebp
	pop	ebp
	ret	8
?read@Archive@Ogre@@QAEXPAXI@Z ENDP			; Ogre::Archive::read
_TEXT	ENDS
PUBLIC	?write@Archive@Ogre@@QAEXPBXI@Z			; Ogre::Archive::write
; Function compile flags: /Odtp
;	COMDAT ?write@Archive@Ogre@@QAEXPBXI@Z
_TEXT	SEGMENT
_this$ = -4						; size = 4
_pbuf$ = 8						; size = 4
_len$ = 12						; size = 4
?write@Archive@Ogre@@QAEXPBXI@Z PROC			; Ogre::Archive::write, COMDAT
; _this$ = ecx

; 168  : 		{

	push	ebp
	mov	ebp, esp
	push	ecx
	mov	DWORD PTR _this$[ebp], ecx

; 169  : 			m_pStream->write(pbuf, len);

	mov	eax, DWORD PTR _len$[ebp]
	push	eax
	mov	ecx, DWORD PTR _pbuf$[ebp]
	push	ecx
	mov	edx, DWORD PTR _this$[ebp]
	mov	eax, DWORD PTR [edx+4]
	mov	ecx, DWORD PTR _this$[ebp]
	mov	ecx, DWORD PTR [ecx+4]
	mov	edx, DWORD PTR [eax]
	mov	eax, DWORD PTR [edx+8]
	call	eax

; 170  : 		}

	mov	esp, ebp
	pop	ebp
	ret	8
?write@Archive@Ogre@@QAEXPBXI@Z ENDP			; Ogre::Archive::write
_TEXT	ENDS
PUBLIC	??0Archive@Ogre@@QAE@ABV01@@Z			; Ogre::Archive::Archive
; Function compile flags: /Odtp
;	COMDAT ??0Archive@Ogre@@QAE@ABV01@@Z
_TEXT	SEGMENT
_this$ = -4						; size = 4
___that$ = 8						; size = 4
??0Archive@Ogre@@QAE@ABV01@@Z PROC			; Ogre::Archive::Archive, COMDAT
; _this$ = ecx
	push	ebp
	mov	ebp, esp
	push	ecx
	mov	DWORD PTR _this$[ebp], ecx
	mov	eax, DWORD PTR _this$[ebp]
	mov	DWORD PTR [eax], OFFSET ??_7Archive@Ogre@@6B@
	mov	ecx, DWORD PTR _this$[ebp]
	mov	edx, DWORD PTR ___that$[ebp]
	mov	eax, DWORD PTR [edx+4]
	mov	DWORD PTR [ecx+4], eax
	mov	ecx, DWORD PTR _this$[ebp]
	mov	edx, DWORD PTR ___that$[ebp]
	mov	eax, DWORD PTR [edx+8]
	mov	DWORD PTR [ecx+8], eax
	mov	eax, DWORD PTR _this$[ebp]
	mov	esp, ebp
	pop	ebp
	ret	4
??0Archive@Ogre@@QAE@ABV01@@Z ENDP			; Ogre::Archive::Archive
_TEXT	ENDS
PUBLIC	??4Archive@Ogre@@QAEAAV01@ABV01@@Z		; Ogre::Archive::operator=
; Function compile flags: /Odtp
;	COMDAT ??4Archive@Ogre@@QAEAAV01@ABV01@@Z
_TEXT	SEGMENT
_this$ = -4						; size = 4
___that$ = 8						; size = 4
??4Archive@Ogre@@QAEAAV01@ABV01@@Z PROC			; Ogre::Archive::operator=, COMDAT
; _this$ = ecx
	push	ebp
	mov	ebp, esp
	push	ecx
	mov	DWORD PTR _this$[ebp], ecx
	mov	eax, DWORD PTR _this$[ebp]
	mov	ecx, DWORD PTR ___that$[ebp]
	mov	edx, DWORD PTR [ecx+4]
	mov	DWORD PTR [eax+4], edx
	mov	eax, DWORD PTR _this$[ebp]
	mov	ecx, DWORD PTR ___that$[ebp]
	mov	edx, DWORD PTR [ecx+8]
	mov	DWORD PTR [eax+8], edx
	mov	eax, DWORD PTR _this$[ebp]
	mov	esp, ebp
	pop	ebp
	ret	4
??4Archive@Ogre@@QAEAAV01@ABV01@@Z ENDP			; Ogre::Archive::operator=
_TEXT	ENDS
PUBLIC	??_GArchive@Ogre@@UAEPAXI@Z			; Ogre::Archive::`scalar deleting destructor'
; Function compile flags: /Odtp
;	COMDAT ??_GArchive@Ogre@@UAEPAXI@Z
_TEXT	SEGMENT
_this$ = -4						; size = 4
___flags$ = 8						; size = 4
??_GArchive@Ogre@@UAEPAXI@Z PROC			; Ogre::Archive::`scalar deleting destructor', COMDAT
; _this$ = ecx
	push	ebp
	mov	ebp, esp
	push	ecx
	mov	DWORD PTR _this$[ebp], ecx
	mov	ecx, DWORD PTR _this$[ebp]
	call	??1Archive@Ogre@@UAE@XZ			; Ogre::Archive::~Archive
	mov	eax, DWORD PTR ___flags$[ebp]
	and	eax, 1
	je	SHORT $LN1@scalar@8
	mov	ecx, DWORD PTR _this$[ebp]
	push	ecx
	call	??3@YAXPAX@Z				; operator delete
	add	esp, 4
$LN1@scalar@8:
	mov	eax, DWORD PTR _this$[ebp]
	mov	esp, ebp
	pop	ebp
	ret	4
??_GArchive@Ogre@@UAEPAXI@Z ENDP			; Ogre::Archive::`scalar deleting destructor'
; Function compile flags: /Odtp
_TEXT	ENDS
;	COMDAT ??_EArchive@Ogre@@UAEPAXI@Z
_TEXT	SEGMENT
_this$ = -4						; size = 4
___flags$ = 8						; size = 4
??_EArchive@Ogre@@UAEPAXI@Z PROC			; Ogre::Archive::`vector deleting destructor', COMDAT
; _this$ = ecx
	push	ebp
	mov	ebp, esp
	push	ecx
	mov	DWORD PTR _this$[ebp], ecx
	mov	eax, DWORD PTR ___flags$[ebp]
	and	eax, 2
	je	SHORT $LN3@vector@8
	push	OFFSET ??1Archive@Ogre@@UAE@XZ		; Ogre::Archive::~Archive
	mov	ecx, DWORD PTR _this$[ebp]
	mov	edx, DWORD PTR [ecx-4]
	push	edx
	push	12					; 0000000cH
	mov	eax, DWORD PTR _this$[ebp]
	push	eax
	call	??_M@YGXPAXIHP6EX0@Z@Z
	mov	ecx, DWORD PTR ___flags$[ebp]
	and	ecx, 1
	je	SHORT $LN2@vector@8
	mov	edx, DWORD PTR _this$[ebp]
	sub	edx, 4
	push	edx
	call	??_V@YAXPAX@Z				; operator delete[]
	add	esp, 4
$LN2@vector@8:
	mov	eax, DWORD PTR _this$[ebp]
	sub	eax, 4
	jmp	SHORT $LN4@vector@8
$LN3@vector@8:
	mov	ecx, DWORD PTR _this$[ebp]
	call	??1Archive@Ogre@@UAE@XZ			; Ogre::Archive::~Archive
	mov	eax, DWORD PTR ___flags$[ebp]
	and	eax, 1
	je	SHORT $LN1@vector@8
	mov	ecx, DWORD PTR _this$[ebp]
	push	ecx
	call	??3@YAXPAX@Z				; operator delete
	add	esp, 4
$LN1@vector@8:
	mov	eax, DWORD PTR _this$[ebp]
$LN4@vector@8:
	mov	esp, ebp
	pop	ebp
	ret	4
??_EArchive@Ogre@@UAEPAXI@Z ENDP			; Ogre::Archive::`vector deleting destructor'
_TEXT	ENDS
PUBLIC	__real@3f800000
PUBLIC	__real@00000000
PUBLIC	??0Quaternion@Ogre@@QAE@XZ			; Ogre::Quaternion::Quaternion
EXTRN	__fltused:DWORD
;	COMDAT __real@3f800000
; File i:\svnroot\client\ogremain\ogrequaternion.h
CONST	SEGMENT
__real@3f800000 DD 03f800000r			; 1
CONST	ENDS
;	COMDAT __real@00000000
CONST	SEGMENT
__real@00000000 DD 000000000r			; 0
; Function compile flags: /Odtp
CONST	ENDS
;	COMDAT ??0Quaternion@Ogre@@QAE@XZ
_TEXT	SEGMENT
_this$ = -4						; size = 4
??0Quaternion@Ogre@@QAE@XZ PROC				; Ogre::Quaternion::Quaternion, COMDAT
; _this$ = ecx

; 54   : 		Quaternion():x(0), y(0), z(0), w(1.0f){}

	push	ebp
	mov	ebp, esp
	push	ecx
	mov	DWORD PTR _this$[ebp], ecx
	mov	eax, DWORD PTR _this$[ebp]
	fldz
	fstp	DWORD PTR [eax]
	mov	ecx, DWORD PTR _this$[ebp]
	fldz
	fstp	DWORD PTR [ecx+4]
	mov	edx, DWORD PTR _this$[ebp]
	fldz
	fstp	DWORD PTR [edx+8]
	mov	eax, DWORD PTR _this$[ebp]
	fld1
	fstp	DWORD PTR [eax+12]
	mov	eax, DWORD PTR _this$[ebp]
	mov	esp, ebp
	pop	ebp
	ret	0
??0Quaternion@Ogre@@QAE@XZ ENDP				; Ogre::Quaternion::Quaternion
_TEXT	ENDS
PUBLIC	??0Quaternion@Ogre@@QAE@MMMM@Z			; Ogre::Quaternion::Quaternion
; Function compile flags: /Odtp
;	COMDAT ??0Quaternion@Ogre@@QAE@MMMM@Z
_TEXT	SEGMENT
_this$ = -4						; size = 4
_x1$ = 8						; size = 4
_y1$ = 12						; size = 4
_z1$ = 16						; size = 4
_w1$ = 20						; size = 4
??0Quaternion@Ogre@@QAE@MMMM@Z PROC			; Ogre::Quaternion::Quaternion, COMDAT
; _this$ = ecx

; 55   : 		Quaternion( float x1, float y1, float z1, float w1 ) : x(x1), y(y1), z(z1), w(w1){}

	push	ebp
	mov	ebp, esp
	push	ecx
	mov	DWORD PTR _this$[ebp], ecx
	mov	eax, DWORD PTR _this$[ebp]
	fld	DWORD PTR _x1$[ebp]
	fstp	DWORD PTR [eax]
	mov	ecx, DWORD PTR _this$[ebp]
	fld	DWORD PTR _y1$[ebp]
	fstp	DWORD PTR [ecx+4]
	mov	edx, DWORD PTR _this$[ebp]
	fld	DWORD PTR _z1$[ebp]
	fstp	DWORD PTR [edx+8]
	mov	eax, DWORD PTR _this$[ebp]
	fld	DWORD PTR _w1$[ebp]
	fstp	DWORD PTR [eax+12]
	mov	eax, DWORD PTR _this$[ebp]
	mov	esp, ebp
	pop	ebp
	ret	16					; 00000010H
??0Quaternion@Ogre@@QAE@MMMM@Z ENDP			; Ogre::Quaternion::Quaternion
_TEXT	ENDS
PUBLIC	??4Quaternion@Ogre@@QAEAAV01@ABV01@@Z		; Ogre::Quaternion::operator=
; Function compile flags: /Odtp
;	COMDAT ??4Quaternion@Ogre@@QAEAAV01@ABV01@@Z
_TEXT	SEGMENT
_this$ = -4						; size = 4
_quat$ = 8						; size = 4
??4Quaternion@Ogre@@QAEAAV01@ABV01@@Z PROC		; Ogre::Quaternion::operator=, COMDAT
; _this$ = ecx

; 59   : 		{

	push	ebp
	mov	ebp, esp
	push	ecx
	mov	DWORD PTR _this$[ebp], ecx

; 60   : 			x = quat.x;

	mov	eax, DWORD PTR _this$[ebp]
	mov	ecx, DWORD PTR _quat$[ebp]
	fld	DWORD PTR [ecx]
	fstp	DWORD PTR [eax]

; 61   : 			y = quat.y;

	mov	edx, DWORD PTR _this$[ebp]
	mov	eax, DWORD PTR _quat$[ebp]
	fld	DWORD PTR [eax+4]
	fstp	DWORD PTR [edx+4]

; 62   : 			z = quat.z;

	mov	ecx, DWORD PTR _this$[ebp]
	mov	edx, DWORD PTR _quat$[ebp]
	fld	DWORD PTR [edx+8]
	fstp	DWORD PTR [ecx+8]

; 63   : 			w = quat.w;

	mov	eax, DWORD PTR _this$[ebp]
	mov	ecx, DWORD PTR _quat$[ebp]
	fld	DWORD PTR [ecx+12]
	fstp	DWORD PTR [eax+12]

; 64   : 			return *this;

	mov	eax, DWORD PTR _this$[ebp]

; 65   : 		}

	mov	esp, ebp
	pop	ebp
	ret	4
??4Quaternion@Ogre@@QAEAAV01@ABV01@@Z ENDP		; Ogre::Quaternion::operator=
_TEXT	ENDS
PUBLIC	??XQuaternion@Ogre@@QAEXM@Z			; Ogre::Quaternion::operator*=
; Function compile flags: /Odtp
;	COMDAT ??XQuaternion@Ogre@@QAEXM@Z
_TEXT	SEGMENT
_this$ = -4						; size = 4
_s$ = 8							; size = 4
??XQuaternion@Ogre@@QAEXM@Z PROC			; Ogre::Quaternion::operator*=, COMDAT
; _this$ = ecx

; 67   : 		{

	push	ebp
	mov	ebp, esp
	push	ecx
	mov	DWORD PTR _this$[ebp], ecx

; 68   : 			x *= s;

	mov	eax, DWORD PTR _this$[ebp]
	fld	DWORD PTR [eax]
	fmul	DWORD PTR _s$[ebp]
	mov	ecx, DWORD PTR _this$[ebp]
	fstp	DWORD PTR [ecx]

; 69   : 			y *= s;

	mov	edx, DWORD PTR _this$[ebp]
	fld	DWORD PTR [edx+4]
	fmul	DWORD PTR _s$[ebp]
	mov	eax, DWORD PTR _this$[ebp]
	fstp	DWORD PTR [eax+4]

; 70   : 			z *= s;

	mov	ecx, DWORD PTR _this$[ebp]
	fld	DWORD PTR [ecx+8]
	fmul	DWORD PTR _s$[ebp]
	mov	edx, DWORD PTR _this$[ebp]
	fstp	DWORD PTR [edx+8]

; 71   : 			w *= s;

	mov	eax, DWORD PTR _this$[ebp]
	fld	DWORD PTR [eax+12]
	fmul	DWORD PTR _s$[ebp]
	mov	ecx, DWORD PTR _this$[ebp]
	fstp	DWORD PTR [ecx+12]

; 72   : 		}

	mov	esp, ebp
	pop	ebp
	ret	4
??XQuaternion@Ogre@@QAEXM@Z ENDP			; Ogre::Quaternion::operator*=
_TEXT	ENDS
PUBLIC	?norm@Quaternion@Ogre@@QAEMXZ			; Ogre::Quaternion::norm
; Function compile flags: /Odtp
;	COMDAT ?norm@Quaternion@Ogre@@QAEMXZ
_TEXT	SEGMENT
tv94 = -8						; size = 4
_this$ = -4						; size = 4
?norm@Quaternion@Ogre@@QAEMXZ PROC			; Ogre::Quaternion::norm, COMDAT
; _this$ = ecx

; 74   : 		{

	push	ebp
	mov	ebp, esp
	sub	esp, 8
	mov	DWORD PTR _this$[ebp], ecx

; 75   : 			return x*x+y*y+z*z+w*w;

	mov	eax, DWORD PTR _this$[ebp]
	fld	DWORD PTR [eax]
	mov	ecx, DWORD PTR _this$[ebp]
	fmul	DWORD PTR [ecx]
	mov	edx, DWORD PTR _this$[ebp]
	fld	DWORD PTR [edx+4]
	mov	eax, DWORD PTR _this$[ebp]
	fmul	DWORD PTR [eax+4]
	faddp	ST(1), ST(0)
	mov	ecx, DWORD PTR _this$[ebp]
	fld	DWORD PTR [ecx+8]
	mov	edx, DWORD PTR _this$[ebp]
	fmul	DWORD PTR [edx+8]
	faddp	ST(1), ST(0)
	mov	eax, DWORD PTR _this$[ebp]
	fld	DWORD PTR [eax+12]
	mov	ecx, DWORD PTR _this$[ebp]
	fmul	DWORD PTR [ecx+12]
	faddp	ST(1), ST(0)
	fstp	DWORD PTR tv94[ebp]
	fld	DWORD PTR tv94[ebp]

; 76   : 		}

	mov	esp, ebp
	pop	ebp
	ret	0
?norm@Quaternion@Ogre@@QAEMXZ ENDP			; Ogre::Quaternion::norm
_TEXT	ENDS
PUBLIC	?identity@Quaternion@Ogre@@QAEXXZ		; Ogre::Quaternion::identity
; Function compile flags: /Odtp
;	COMDAT ?identity@Quaternion@Ogre@@QAEXXZ
_TEXT	SEGMENT
_this$ = -4						; size = 4
?identity@Quaternion@Ogre@@QAEXXZ PROC			; Ogre::Quaternion::identity, COMDAT
; _this$ = ecx

; 78   : 		{

	push	ebp
	mov	ebp, esp
	push	ecx
	mov	DWORD PTR _this$[ebp], ecx

; 79   : 			x = y = z = 0;

	mov	eax, DWORD PTR _this$[ebp]
	fldz
	fstp	DWORD PTR [eax+8]
	mov	ecx, DWORD PTR _this$[ebp]
	fldz
	fstp	DWORD PTR [ecx+4]
	mov	edx, DWORD PTR _this$[ebp]
	fldz
	fstp	DWORD PTR [edx]

; 80   : 			w = 1.0f;

	mov	eax, DWORD PTR _this$[ebp]
	fld1
	fstp	DWORD PTR [eax+12]

; 81   : 		}

	mov	esp, ebp
	pop	ebp
	ret	0
?identity@Quaternion@Ogre@@QAEXXZ ENDP			; Ogre::Quaternion::identity
_TEXT	ENDS
PUBLIC	?inverse@Quaternion@Ogre@@QAEXXZ		; Ogre::Quaternion::inverse
; Function compile flags: /Odtp
;	COMDAT ?inverse@Quaternion@Ogre@@QAEXXZ
_TEXT	SEGMENT
_this$ = -4						; size = 4
?inverse@Quaternion@Ogre@@QAEXXZ PROC			; Ogre::Quaternion::inverse, COMDAT
; _this$ = ecx

; 83   : 		{

	push	ebp
	mov	ebp, esp
	push	ecx
	mov	DWORD PTR _this$[ebp], ecx

; 84   : 			x = -x;

	mov	eax, DWORD PTR _this$[ebp]
	fld	DWORD PTR [eax]
	fchs
	mov	ecx, DWORD PTR _this$[ebp]
	fstp	DWORD PTR [ecx]

; 85   : 			y = -y;

	mov	edx, DWORD PTR _this$[ebp]
	fld	DWORD PTR [edx+4]
	fchs
	mov	eax, DWORD PTR _this$[ebp]
	fstp	DWORD PTR [eax+4]

; 86   : 			z = -z;

	mov	ecx, DWORD PTR _this$[ebp]
	fld	DWORD PTR [ecx+8]
	fchs
	mov	edx, DWORD PTR _this$[ebp]
	fstp	DWORD PTR [edx+8]

; 87   : 		}

	mov	esp, ebp
	pop	ebp
	ret	0
?inverse@Quaternion@Ogre@@QAEXXZ ENDP			; Ogre::Quaternion::inverse
_TEXT	ENDS
PUBLIC	?inverse@Quaternion@Ogre@@QBEXAAV12@@Z		; Ogre::Quaternion::inverse
; Function compile flags: /Odtp
;	COMDAT ?inverse@Quaternion@Ogre@@QBEXAAV12@@Z
_TEXT	SEGMENT
_this$ = -4						; size = 4
_quat$ = 8						; size = 4
?inverse@Quaternion@Ogre@@QBEXAAV12@@Z PROC		; Ogre::Quaternion::inverse, COMDAT
; _this$ = ecx

; 89   : 		{

	push	ebp
	mov	ebp, esp
	push	ecx
	mov	DWORD PTR _this$[ebp], ecx

; 90   : 			quat.x = -x;

	mov	eax, DWORD PTR _this$[ebp]
	fld	DWORD PTR [eax]
	fchs
	mov	ecx, DWORD PTR _quat$[ebp]
	fstp	DWORD PTR [ecx]

; 91   : 			quat.y = -y;

	mov	edx, DWORD PTR _this$[ebp]
	fld	DWORD PTR [edx+4]
	fchs
	mov	eax, DWORD PTR _quat$[ebp]
	fstp	DWORD PTR [eax+4]

; 92   : 			quat.z = -z;

	mov	ecx, DWORD PTR _this$[ebp]
	fld	DWORD PTR [ecx+8]
	fchs
	mov	edx, DWORD PTR _quat$[ebp]
	fstp	DWORD PTR [edx+8]

; 93   : 			quat.w = w;

	mov	eax, DWORD PTR _quat$[ebp]
	mov	ecx, DWORD PTR _this$[ebp]
	fld	DWORD PTR [ecx+12]
	fstp	DWORD PTR [eax+12]

; 94   : 		}

	mov	esp, ebp
	pop	ebp
	ret	4
?inverse@Quaternion@Ogre@@QBEXAAV12@@Z ENDP		; Ogre::Quaternion::inverse
_TEXT	ENDS
PUBLIC	?setElement@Quaternion@Ogre@@QAEXMMMM@Z		; Ogre::Quaternion::setElement
; Function compile flags: /Odtp
;	COMDAT ?setElement@Quaternion@Ogre@@QAEXMMMM@Z
_TEXT	SEGMENT
_this$ = -4						; size = 4
_x1$ = 8						; size = 4
_y1$ = 12						; size = 4
_z1$ = 16						; size = 4
_w1$ = 20						; size = 4
?setElement@Quaternion@Ogre@@QAEXMMMM@Z PROC		; Ogre::Quaternion::setElement, COMDAT
; _this$ = ecx

; 96   : 		{

	push	ebp
	mov	ebp, esp
	push	ecx
	mov	DWORD PTR _this$[ebp], ecx

; 97   : 			x = x1;

	mov	eax, DWORD PTR _this$[ebp]
	fld	DWORD PTR _x1$[ebp]
	fstp	DWORD PTR [eax]

; 98   : 			y = y1;

	mov	ecx, DWORD PTR _this$[ebp]
	fld	DWORD PTR _y1$[ebp]
	fstp	DWORD PTR [ecx+4]

; 99   : 			z = z1;

	mov	edx, DWORD PTR _this$[ebp]
	fld	DWORD PTR _z1$[ebp]
	fstp	DWORD PTR [edx+8]

; 100  : 			w = w1;

	mov	eax, DWORD PTR _this$[ebp]
	fld	DWORD PTR _w1$[ebp]
	fstp	DWORD PTR [eax+12]

; 101  : 		}

	mov	esp, ebp
	pop	ebp
	ret	16					; 00000010H
?setElement@Quaternion@Ogre@@QAEXMMMM@Z ENDP		; Ogre::Quaternion::setElement
_TEXT	ENDS
PUBLIC	??8Quaternion@Ogre@@QBE_NABV01@@Z		; Ogre::Quaternion::operator==
PUBLIC	??9Quaternion@Ogre@@QBE_NABV01@@Z		; Ogre::Quaternion::operator!=
; Function compile flags: /Odtp
;	COMDAT ??9Quaternion@Ogre@@QBE_NABV01@@Z
_TEXT	SEGMENT
_this$ = -4						; size = 4
_quat$ = 8						; size = 4
??9Quaternion@Ogre@@QBE_NABV01@@Z PROC			; Ogre::Quaternion::operator!=, COMDAT
; _this$ = ecx

; 105  : 		{

	push	ebp
	mov	ebp, esp
	push	ecx
	mov	DWORD PTR _this$[ebp], ecx

; 106  : 			return !operator==(quat);

	mov	eax, DWORD PTR _quat$[ebp]
	push	eax
	mov	ecx, DWORD PTR _this$[ebp]
	call	??8Quaternion@Ogre@@QBE_NABV01@@Z	; Ogre::Quaternion::operator==
	movzx	eax, al
	neg	eax
	sbb	eax, eax
	add	eax, 1

; 107  : 		}

	mov	esp, ebp
	pop	ebp
	ret	4
??9Quaternion@Ogre@@QBE_NABV01@@Z ENDP			; Ogre::Quaternion::operator!=
_TEXT	ENDS
PUBLIC	??0Vector3@Ogre@@QAE@XZ				; Ogre::Vector3::Vector3
; Function compile flags: /Odtp
; File i:\svnroot\client\ogremain\ogrevector3.h
;	COMDAT ??0Vector3@Ogre@@QAE@XZ
_TEXT	SEGMENT
_this$ = -4						; size = 4
??0Vector3@Ogre@@QAE@XZ PROC				; Ogre::Vector3::Vector3, COMDAT
; _this$ = ecx

; 49   : 		Vector3(){}

	push	ebp
	mov	ebp, esp
	push	ecx
	mov	DWORD PTR _this$[ebp], ecx
	mov	eax, DWORD PTR _this$[ebp]
	mov	esp, ebp
	pop	ebp
	ret	0
??0Vector3@Ogre@@QAE@XZ ENDP				; Ogre::Vector3::Vector3
_TEXT	ENDS
PUBLIC	??0Vector3@Ogre@@QAE@ABV01@@Z			; Ogre::Vector3::Vector3
; Function compile flags: /Odtp
;	COMDAT ??0Vector3@Ogre@@QAE@ABV01@@Z
_TEXT	SEGMENT
_this$ = -4						; size = 4
_rhs$ = 8						; size = 4
??0Vector3@Ogre@@QAE@ABV01@@Z PROC			; Ogre::Vector3::Vector3, COMDAT
; _this$ = ecx

; 50   : 		Vector3(const Vector3 &rhs)

	push	ebp
	mov	ebp, esp
	push	ecx
	mov	DWORD PTR _this$[ebp], ecx

; 51   : 		{
; 52   : 			x = rhs.x;

	mov	eax, DWORD PTR _this$[ebp]
	mov	ecx, DWORD PTR _rhs$[ebp]
	fld	DWORD PTR [ecx]
	fstp	DWORD PTR [eax]

; 53   : 			y = rhs.y;

	mov	edx, DWORD PTR _this$[ebp]
	mov	eax, DWORD PTR _rhs$[ebp]
	fld	DWORD PTR [eax+4]
	fstp	DWORD PTR [edx+4]

; 54   : 			z = rhs.z;

	mov	ecx, DWORD PTR _this$[ebp]
	mov	edx, DWORD PTR _rhs$[ebp]
	fld	DWORD PTR [edx+8]
	fstp	DWORD PTR [ecx+8]

; 55   : 		}

	mov	eax, DWORD PTR _this$[ebp]
	mov	esp, ebp
	pop	ebp
	ret	4
??0Vector3@Ogre@@QAE@ABV01@@Z ENDP			; Ogre::Vector3::Vector3
_TEXT	ENDS
PUBLIC	??0Vector3@Ogre@@QAE@MMM@Z			; Ogre::Vector3::Vector3
; Function compile flags: /Odtp
;	COMDAT ??0Vector3@Ogre@@QAE@MMM@Z
_TEXT	SEGMENT
_this$ = -4						; size = 4
_x1$ = 8						; size = 4
_y1$ = 12						; size = 4
_z1$ = 16						; size = 4
??0Vector3@Ogre@@QAE@MMM@Z PROC				; Ogre::Vector3::Vector3, COMDAT
; _this$ = ecx

; 56   : 		Vector3( float x1, float y1, float z1 ) : x(x1), y(y1), z(z1){}

	push	ebp
	mov	ebp, esp
	push	ecx
	mov	DWORD PTR _this$[ebp], ecx
	mov	eax, DWORD PTR _this$[ebp]
	fld	DWORD PTR _x1$[ebp]
	fstp	DWORD PTR [eax]
	mov	ecx, DWORD PTR _this$[ebp]
	fld	DWORD PTR _y1$[ebp]
	fstp	DWORD PTR [ecx+4]
	mov	edx, DWORD PTR _this$[ebp]
	fld	DWORD PTR _z1$[ebp]
	fstp	DWORD PTR [edx+8]
	mov	eax, DWORD PTR _this$[ebp]
	mov	esp, ebp
	pop	ebp
	ret	12					; 0000000cH
??0Vector3@Ogre@@QAE@MMM@Z ENDP				; Ogre::Vector3::Vector3
_TEXT	ENDS
PUBLIC	??0Vector3@Ogre@@QAE@M@Z			; Ogre::Vector3::Vector3
; Function compile flags: /Odtp
;	COMDAT ??0Vector3@Ogre@@QAE@M@Z
_TEXT	SEGMENT
_this$ = -4						; size = 4
_v$ = 8							; size = 4
??0Vector3@Ogre@@QAE@M@Z PROC				; Ogre::Vector3::Vector3, COMDAT
; _this$ = ecx

; 57   : 		Vector3(float v) : x(v), y(v), z(v){}

	push	ebp
	mov	ebp, esp
	push	ecx
	mov	DWORD PTR _this$[ebp], ecx
	mov	eax, DWORD PTR _this$[ebp]
	fld	DWORD PTR _v$[ebp]
	fstp	DWORD PTR [eax]
	mov	ecx, DWORD PTR _this$[ebp]
	fld	DWORD PTR _v$[ebp]
	fstp	DWORD PTR [ecx+4]
	mov	edx, DWORD PTR _this$[ebp]
	fld	DWORD PTR _v$[ebp]
	fstp	DWORD PTR [edx+8]
	mov	eax, DWORD PTR _this$[ebp]
	mov	esp, ebp
	pop	ebp
	ret	4
??0Vector3@Ogre@@QAE@M@Z ENDP				; Ogre::Vector3::Vector3
_TEXT	ENDS
PUBLIC	??0Vector3@Ogre@@QAE@PAM@Z			; Ogre::Vector3::Vector3
; Function compile flags: /Odtp
;	COMDAT ??0Vector3@Ogre@@QAE@PAM@Z
_TEXT	SEGMENT
_this$ = -4						; size = 4
_v$ = 8							; size = 4
??0Vector3@Ogre@@QAE@PAM@Z PROC				; Ogre::Vector3::Vector3, COMDAT
; _this$ = ecx

; 58   : 		Vector3(float* v) : x(v[0]), y(v[1]), z(v[2]){}

	push	ebp
	mov	ebp, esp
	push	ecx
	mov	DWORD PTR _this$[ebp], ecx
	mov	eax, DWORD PTR _this$[ebp]
	mov	ecx, DWORD PTR _v$[ebp]
	fld	DWORD PTR [ecx]
	fstp	DWORD PTR [eax]
	mov	edx, DWORD PTR _this$[ebp]
	mov	eax, DWORD PTR _v$[ebp]
	fld	DWORD PTR [eax+4]
	fstp	DWORD PTR [edx+4]
	mov	ecx, DWORD PTR _this$[ebp]
	mov	edx, DWORD PTR _v$[ebp]
	fld	DWORD PTR [edx+8]
	fstp	DWORD PTR [ecx+8]
	mov	eax, DWORD PTR _this$[ebp]
	mov	esp, ebp
	pop	ebp
	ret	4
??0Vector3@Ogre@@QAE@PAM@Z ENDP				; Ogre::Vector3::Vector3
_TEXT	ENDS
PUBLIC	??4Vector3@Ogre@@QAEABV01@ABV01@@Z		; Ogre::Vector3::operator=
; Function compile flags: /Odtp
;	COMDAT ??4Vector3@Ogre@@QAEABV01@ABV01@@Z
_TEXT	SEGMENT
_this$ = -4						; size = 4
_vec$ = 8						; size = 4
??4Vector3@Ogre@@QAEABV01@ABV01@@Z PROC			; Ogre::Vector3::operator=, COMDAT
; _this$ = ecx

; 61   : 		{

	push	ebp
	mov	ebp, esp
	push	ecx
	mov	DWORD PTR _this$[ebp], ecx

; 62   : 			x = vec.x;

	mov	eax, DWORD PTR _this$[ebp]
	mov	ecx, DWORD PTR _vec$[ebp]
	fld	DWORD PTR [ecx]
	fstp	DWORD PTR [eax]

; 63   : 			y = vec.y;

	mov	edx, DWORD PTR _this$[ebp]
	mov	eax, DWORD PTR _vec$[ebp]
	fld	DWORD PTR [eax+4]
	fstp	DWORD PTR [edx+4]

; 64   : 			z = vec.z;

	mov	ecx, DWORD PTR _this$[ebp]
	mov	edx, DWORD PTR _vec$[ebp]
	fld	DWORD PTR [edx+8]
	fstp	DWORD PTR [ecx+8]

; 65   : 			return *this;

	mov	eax, DWORD PTR _this$[ebp]

; 66   : 		}

	mov	esp, ebp
	pop	ebp
	ret	4
??4Vector3@Ogre@@QAEABV01@ABV01@@Z ENDP			; Ogre::Vector3::operator=
_TEXT	ENDS
PUBLIC	??YVector3@Ogre@@QAEXABV01@@Z			; Ogre::Vector3::operator+=
; Function compile flags: /Odtp
;	COMDAT ??YVector3@Ogre@@QAEXABV01@@Z
_TEXT	SEGMENT
_this$ = -4						; size = 4
_vec$ = 8						; size = 4
??YVector3@Ogre@@QAEXABV01@@Z PROC			; Ogre::Vector3::operator+=, COMDAT
; _this$ = ecx

; 68   : 		{

	push	ebp
	mov	ebp, esp
	push	ecx
	mov	DWORD PTR _this$[ebp], ecx

; 69   : 			x += vec.x;

	mov	eax, DWORD PTR _this$[ebp]
	fld	DWORD PTR [eax]
	mov	ecx, DWORD PTR _vec$[ebp]
	fadd	DWORD PTR [ecx]
	mov	edx, DWORD PTR _this$[ebp]
	fstp	DWORD PTR [edx]

; 70   : 			y += vec.y;

	mov	eax, DWORD PTR _this$[ebp]
	fld	DWORD PTR [eax+4]
	mov	ecx, DWORD PTR _vec$[ebp]
	fadd	DWORD PTR [ecx+4]
	mov	edx, DWORD PTR _this$[ebp]
	fstp	DWORD PTR [edx+4]

; 71   : 			z += vec.z;

	mov	eax, DWORD PTR _this$[ebp]
	fld	DWORD PTR [eax+8]
	mov	ecx, DWORD PTR _vec$[ebp]
	fadd	DWORD PTR [ecx+8]
	mov	edx, DWORD PTR _this$[ebp]
	fstp	DWORD PTR [edx+8]

; 72   : 		}

	mov	esp, ebp
	pop	ebp
	ret	4
??YVector3@Ogre@@QAEXABV01@@Z ENDP			; Ogre::Vector3::operator+=
_TEXT	ENDS
PUBLIC	??ZVector3@Ogre@@QAEXABV01@@Z			; Ogre::Vector3::operator-=
; Function compile flags: /Odtp
;	COMDAT ??ZVector3@Ogre@@QAEXABV01@@Z
_TEXT	SEGMENT
_this$ = -4						; size = 4
_vec$ = 8						; size = 4
??ZVector3@Ogre@@QAEXABV01@@Z PROC			; Ogre::Vector3::operator-=, COMDAT
; _this$ = ecx

; 74   : 		{

	push	ebp
	mov	ebp, esp
	push	ecx
	mov	DWORD PTR _this$[ebp], ecx

; 75   : 			x -= vec.x;

	mov	eax, DWORD PTR _this$[ebp]
	fld	DWORD PTR [eax]
	mov	ecx, DWORD PTR _vec$[ebp]
	fsub	DWORD PTR [ecx]
	mov	edx, DWORD PTR _this$[ebp]
	fstp	DWORD PTR [edx]

; 76   : 			y -= vec.y;

	mov	eax, DWORD PTR _this$[ebp]
	fld	DWORD PTR [eax+4]
	mov	ecx, DWORD PTR _vec$[ebp]
	fsub	DWORD PTR [ecx+4]
	mov	edx, DWORD PTR _this$[ebp]
	fstp	DWORD PTR [edx+4]

; 77   : 			z -= vec.z;

	mov	eax, DWORD PTR _this$[ebp]
	fld	DWORD PTR [eax+8]
	mov	ecx, DWORD PTR _vec$[ebp]
	fsub	DWORD PTR [ecx+8]
	mov	edx, DWORD PTR _this$[ebp]
	fstp	DWORD PTR [edx+8]

; 78   : 		}

	mov	esp, ebp
	pop	ebp
	ret	4
??ZVector3@Ogre@@QAEXABV01@@Z ENDP			; Ogre::Vector3::operator-=
_TEXT	ENDS
PUBLIC	??XVector3@Ogre@@QAEXM@Z			; Ogre::Vector3::operator*=
; Function compile flags: /Odtp
;	COMDAT ??XVector3@Ogre@@QAEXM@Z
_TEXT	SEGMENT
_this$ = -4						; size = 4
_s$ = 8							; size = 4
??XVector3@Ogre@@QAEXM@Z PROC				; Ogre::Vector3::operator*=, COMDAT
; _this$ = ecx

; 81   : 		{

	push	ebp
	mov	ebp, esp
	push	ecx
	mov	DWORD PTR _this$[ebp], ecx

; 82   : 			x *= s;

	mov	eax, DWORD PTR _this$[ebp]
	fld	DWORD PTR [eax]
	fmul	DWORD PTR _s$[ebp]
	mov	ecx, DWORD PTR _this$[ebp]
	fstp	DWORD PTR [ecx]

; 83   : 			y *= s;

	mov	edx, DWORD PTR _this$[ebp]
	fld	DWORD PTR [edx+4]
	fmul	DWORD PTR _s$[ebp]
	mov	eax, DWORD PTR _this$[ebp]
	fstp	DWORD PTR [eax+4]

; 84   : 			z *= s;

	mov	ecx, DWORD PTR _this$[ebp]
	fld	DWORD PTR [ecx+8]
	fmul	DWORD PTR _s$[ebp]
	mov	edx, DWORD PTR _this$[ebp]
	fstp	DWORD PTR [edx+8]

; 85   : 		}

	mov	esp, ebp
	pop	ebp
	ret	4
??XVector3@Ogre@@QAEXM@Z ENDP				; Ogre::Vector3::operator*=
_TEXT	ENDS
PUBLIC	??XVector3@Ogre@@QAEXABV01@@Z			; Ogre::Vector3::operator*=
; Function compile flags: /Odtp
;	COMDAT ??XVector3@Ogre@@QAEXABV01@@Z
_TEXT	SEGMENT
_this$ = -4						; size = 4
_vec$ = 8						; size = 4
??XVector3@Ogre@@QAEXABV01@@Z PROC			; Ogre::Vector3::operator*=, COMDAT
; _this$ = ecx

; 88   : 		{

	push	ebp
	mov	ebp, esp
	push	ecx
	mov	DWORD PTR _this$[ebp], ecx

; 89   : 			x *= vec.x;

	mov	eax, DWORD PTR _this$[ebp]
	fld	DWORD PTR [eax]
	mov	ecx, DWORD PTR _vec$[ebp]
	fmul	DWORD PTR [ecx]
	mov	edx, DWORD PTR _this$[ebp]
	fstp	DWORD PTR [edx]

; 90   : 			y *= vec.y;

	mov	eax, DWORD PTR _this$[ebp]
	fld	DWORD PTR [eax+4]
	mov	ecx, DWORD PTR _vec$[ebp]
	fmul	DWORD PTR [ecx+4]
	mov	edx, DWORD PTR _this$[ebp]
	fstp	DWORD PTR [edx+4]

; 91   : 			z *= vec.z;

	mov	eax, DWORD PTR _this$[ebp]
	fld	DWORD PTR [eax+8]
	mov	ecx, DWORD PTR _vec$[ebp]
	fmul	DWORD PTR [ecx+8]
	mov	edx, DWORD PTR _this$[ebp]
	fstp	DWORD PTR [edx+8]

; 92   : 		}

	mov	esp, ebp
	pop	ebp
	ret	4
??XVector3@Ogre@@QAEXABV01@@Z ENDP			; Ogre::Vector3::operator*=
_TEXT	ENDS
PUBLIC	??_0Vector3@Ogre@@QAEXM@Z			; Ogre::Vector3::operator/=
; Function compile flags: /Odtp
;	COMDAT ??_0Vector3@Ogre@@QAEXM@Z
_TEXT	SEGMENT
_this$ = -4						; size = 4
_s$ = 8							; size = 4
??_0Vector3@Ogre@@QAEXM@Z PROC				; Ogre::Vector3::operator/=, COMDAT
; _this$ = ecx

; 95   : 		{

	push	ebp
	mov	ebp, esp
	push	ecx
	mov	DWORD PTR _this$[ebp], ecx

; 96   : 			x /= s;

	mov	eax, DWORD PTR _this$[ebp]
	fld	DWORD PTR [eax]
	fdiv	DWORD PTR _s$[ebp]
	mov	ecx, DWORD PTR _this$[ebp]
	fstp	DWORD PTR [ecx]

; 97   : 			y /= s;

	mov	edx, DWORD PTR _this$[ebp]
	fld	DWORD PTR [edx+4]
	fdiv	DWORD PTR _s$[ebp]
	mov	eax, DWORD PTR _this$[ebp]
	fstp	DWORD PTR [eax+4]

; 98   : 			z /= s;

	mov	ecx, DWORD PTR _this$[ebp]
	fld	DWORD PTR [ecx+8]
	fdiv	DWORD PTR _s$[ebp]
	mov	edx, DWORD PTR _this$[ebp]
	fstp	DWORD PTR [edx+8]

; 99   : 		}

	mov	esp, ebp
	pop	ebp
	ret	4
??_0Vector3@Ogre@@QAEXM@Z ENDP				; Ogre::Vector3::operator/=
_TEXT	ENDS
PUBLIC	??BVector3@Ogre@@QAEPAMXZ			; Ogre::Vector3::operator float *
; Function compile flags: /Odtp
;	COMDAT ??BVector3@Ogre@@QAEPAMXZ
_TEXT	SEGMENT
_this$ = -4						; size = 4
??BVector3@Ogre@@QAEPAMXZ PROC				; Ogre::Vector3::operator float *, COMDAT
; _this$ = ecx

; 101  : 		{

	push	ebp
	mov	ebp, esp
	push	ecx
	mov	DWORD PTR _this$[ebp], ecx

; 102  : 			return &x;

	mov	eax, DWORD PTR _this$[ebp]

; 103  : 		}

	mov	esp, ebp
	pop	ebp
	ret	0
??BVector3@Ogre@@QAEPAMXZ ENDP				; Ogre::Vector3::operator float *
_TEXT	ENDS
PUBLIC	??BVector3@Ogre@@QBEPBMXZ			; Ogre::Vector3::operator float const *
; Function compile flags: /Odtp
;	COMDAT ??BVector3@Ogre@@QBEPBMXZ
_TEXT	SEGMENT
_this$ = -4						; size = 4
??BVector3@Ogre@@QBEPBMXZ PROC				; Ogre::Vector3::operator float const *, COMDAT
; _this$ = ecx

; 105  : 		{

	push	ebp
	mov	ebp, esp
	push	ecx
	mov	DWORD PTR _this$[ebp], ecx

; 106  : 			return &x;

	mov	eax, DWORD PTR _this$[ebp]

; 107  : 		}

	mov	esp, ebp
	pop	ebp
	ret	0
??BVector3@Ogre@@QBEPBMXZ ENDP				; Ogre::Vector3::operator float const *
_TEXT	ENDS
PUBLIC	??HVector3@Ogre@@QBE?AV01@XZ			; Ogre::Vector3::operator+
; Function compile flags: /Odtp
;	COMDAT ??HVector3@Ogre@@QBE?AV01@XZ
_TEXT	SEGMENT
_this$ = -4						; size = 4
___$ReturnUdt$ = 8					; size = 4
??HVector3@Ogre@@QBE?AV01@XZ PROC			; Ogre::Vector3::operator+, COMDAT
; _this$ = ecx

; 109  : 		{

	push	ebp
	mov	ebp, esp
	push	ecx
	mov	DWORD PTR _this$[ebp], ecx

; 110  : 			return *this;

	mov	eax, DWORD PTR _this$[ebp]
	push	eax
	mov	ecx, DWORD PTR ___$ReturnUdt$[ebp]
	call	??0Vector3@Ogre@@QAE@ABV01@@Z		; Ogre::Vector3::Vector3
	mov	eax, DWORD PTR ___$ReturnUdt$[ebp]

; 111  : 		}

	mov	esp, ebp
	pop	ebp
	ret	4
??HVector3@Ogre@@QBE?AV01@XZ ENDP			; Ogre::Vector3::operator+
_TEXT	ENDS
PUBLIC	??GVector3@Ogre@@QBE?AV01@XZ			; Ogre::Vector3::operator-
; Function compile flags: /Odtp
;	COMDAT ??GVector3@Ogre@@QBE?AV01@XZ
_TEXT	SEGMENT
_this$ = -4						; size = 4
___$ReturnUdt$ = 8					; size = 4
??GVector3@Ogre@@QBE?AV01@XZ PROC			; Ogre::Vector3::operator-, COMDAT
; _this$ = ecx

; 113  : 		{

	push	ebp
	mov	ebp, esp
	push	ecx
	mov	DWORD PTR _this$[ebp], ecx

; 114  : 			return Vector3(-x, -y, -z);

	mov	eax, DWORD PTR _this$[ebp]
	fld	DWORD PTR [eax+8]
	fchs
	push	ecx
	fstp	DWORD PTR [esp]
	mov	ecx, DWORD PTR _this$[ebp]
	fld	DWORD PTR [ecx+4]
	fchs
	push	ecx
	fstp	DWORD PTR [esp]
	mov	edx, DWORD PTR _this$[ebp]
	fld	DWORD PTR [edx]
	fchs
	push	ecx
	fstp	DWORD PTR [esp]
	mov	ecx, DWORD PTR ___$ReturnUdt$[ebp]
	call	??0Vector3@Ogre@@QAE@MMM@Z		; Ogre::Vector3::Vector3
	mov	eax, DWORD PTR ___$ReturnUdt$[ebp]

; 115  : 		}

	mov	esp, ebp
	pop	ebp
	ret	4
??GVector3@Ogre@@QBE?AV01@XZ ENDP			; Ogre::Vector3::operator-
_TEXT	ENDS
PUBLIC	??8Vector3@Ogre@@QBE_NABV01@@Z			; Ogre::Vector3::operator==
; Function compile flags: /Odtp
;	COMDAT ??8Vector3@Ogre@@QBE_NABV01@@Z
_TEXT	SEGMENT
tv77 = -8						; size = 4
_this$ = -4						; size = 4
_vec$ = 8						; size = 4
??8Vector3@Ogre@@QBE_NABV01@@Z PROC			; Ogre::Vector3::operator==, COMDAT
; _this$ = ecx

; 117  : 		{

	push	ebp
	mov	ebp, esp
	sub	esp, 8
	mov	DWORD PTR _this$[ebp], ecx

; 118  : 			return (x==vec.x && y==vec.y && z==vec.z);

	mov	eax, DWORD PTR _this$[ebp]
	fld	DWORD PTR [eax]
	mov	ecx, DWORD PTR _vec$[ebp]
	fld	DWORD PTR [ecx]
	fucompp
	fnstsw	ax
	test	ah, 68					; 00000044H
	jp	SHORT $LN3@operator
	mov	edx, DWORD PTR _this$[ebp]
	fld	DWORD PTR [edx+4]
	mov	eax, DWORD PTR _vec$[ebp]
	fld	DWORD PTR [eax+4]
	fucompp
	fnstsw	ax
	test	ah, 68					; 00000044H
	jp	SHORT $LN3@operator
	mov	ecx, DWORD PTR _this$[ebp]
	fld	DWORD PTR [ecx+8]
	mov	edx, DWORD PTR _vec$[ebp]
	fld	DWORD PTR [edx+8]
	fucompp
	fnstsw	ax
	test	ah, 68					; 00000044H
	jp	SHORT $LN3@operator
	mov	DWORD PTR tv77[ebp], 1
	jmp	SHORT $LN4@operator
$LN3@operator:
	mov	DWORD PTR tv77[ebp], 0
$LN4@operator:
	mov	al, BYTE PTR tv77[ebp]

; 119  : 		}

	mov	esp, ebp
	pop	ebp
	ret	4
??8Vector3@Ogre@@QBE_NABV01@@Z ENDP			; Ogre::Vector3::operator==
_TEXT	ENDS
PUBLIC	?setElement@Vector3@Ogre@@QAEXMMM@Z		; Ogre::Vector3::setElement
; Function compile flags: /Odtp
;	COMDAT ?setElement@Vector3@Ogre@@QAEXMMM@Z
_TEXT	SEGMENT
_this$ = -4						; size = 4
_x1$ = 8						; size = 4
_y1$ = 12						; size = 4
_z1$ = 16						; size = 4
?setElement@Vector3@Ogre@@QAEXMMM@Z PROC		; Ogre::Vector3::setElement, COMDAT
; _this$ = ecx

; 121  : 		{

	push	ebp
	mov	ebp, esp
	push	ecx
	mov	DWORD PTR _this$[ebp], ecx

; 122  : 			x = x1;

	mov	eax, DWORD PTR _this$[ebp]
	fld	DWORD PTR _x1$[ebp]
	fstp	DWORD PTR [eax]

; 123  : 			y = y1;

	mov	ecx, DWORD PTR _this$[ebp]
	fld	DWORD PTR _y1$[ebp]
	fstp	DWORD PTR [ecx+4]

; 124  : 			z = z1;

	mov	edx, DWORD PTR _this$[ebp]
	fld	DWORD PTR _z1$[ebp]
	fstp	DWORD PTR [edx+8]

; 125  : 		}

	mov	esp, ebp
	pop	ebp
	ret	12					; 0000000cH
?setElement@Vector3@Ogre@@QAEXMMM@Z ENDP		; Ogre::Vector3::setElement
_TEXT	ENDS
PUBLIC	?setElement@Vector3@Ogre@@QAEXPAM@Z		; Ogre::Vector3::setElement
; Function compile flags: /Odtp
;	COMDAT ?setElement@Vector3@Ogre@@QAEXPAM@Z
_TEXT	SEGMENT
_this$ = -4						; size = 4
_p$ = 8							; size = 4
?setElement@Vector3@Ogre@@QAEXPAM@Z PROC		; Ogre::Vector3::setElement, COMDAT
; _this$ = ecx

; 127  : 		{

	push	ebp
	mov	ebp, esp
	push	ecx
	mov	DWORD PTR _this$[ebp], ecx

; 128  : 			x = p[0];

	mov	eax, DWORD PTR _this$[ebp]
	mov	ecx, DWORD PTR _p$[ebp]
	fld	DWORD PTR [ecx]
	fstp	DWORD PTR [eax]

; 129  : 			y = p[1];

	mov	edx, DWORD PTR _this$[ebp]
	mov	eax, DWORD PTR _p$[ebp]
	fld	DWORD PTR [eax+4]
	fstp	DWORD PTR [edx+4]

; 130  : 			z = p[2];

	mov	ecx, DWORD PTR _this$[ebp]
	mov	edx, DWORD PTR _p$[ebp]
	fld	DWORD PTR [edx+8]
	fstp	DWORD PTR [ecx+8]

; 131  : 		}

	mov	esp, ebp
	pop	ebp
	ret	4
?setElement@Vector3@Ogre@@QAEXPAM@Z ENDP		; Ogre::Vector3::setElement
_TEXT	ENDS
PUBLIC	?Sqrt@Ogre@@YAMM@Z				; Ogre::Sqrt
PUBLIC	?length@Vector3@Ogre@@QBEMXZ			; Ogre::Vector3::length
; Function compile flags: /Odtp
;	COMDAT ?length@Vector3@Ogre@@QBEMXZ
_TEXT	SEGMENT
tv88 = -8						; size = 4
_this$ = -4						; size = 4
?length@Vector3@Ogre@@QBEMXZ PROC			; Ogre::Vector3::length, COMDAT
; _this$ = ecx

; 133  : 		{

	push	ebp
	mov	ebp, esp
	sub	esp, 8
	mov	DWORD PTR _this$[ebp], ecx

; 134  : 			return (float)Sqrt(x*x+y*y+z*z);

	mov	eax, DWORD PTR _this$[ebp]
	fld	DWORD PTR [eax]
	mov	ecx, DWORD PTR _this$[ebp]
	fmul	DWORD PTR [ecx]
	mov	edx, DWORD PTR _this$[ebp]
	fld	DWORD PTR [edx+4]
	mov	eax, DWORD PTR _this$[ebp]
	fmul	DWORD PTR [eax+4]
	faddp	ST(1), ST(0)
	mov	ecx, DWORD PTR _this$[ebp]
	fld	DWORD PTR [ecx+8]
	mov	edx, DWORD PTR _this$[ebp]
	fmul	DWORD PTR [edx+8]
	faddp	ST(1), ST(0)
	fstp	DWORD PTR tv88[ebp]
	fld	DWORD PTR tv88[ebp]
	push	ecx
	fstp	DWORD PTR [esp]
	call	?Sqrt@Ogre@@YAMM@Z			; Ogre::Sqrt
	add	esp, 4

; 135  : 		}

	mov	esp, ebp
	pop	ebp
	ret	0
?length@Vector3@Ogre@@QBEMXZ ENDP			; Ogre::Vector3::length
_TEXT	ENDS
PUBLIC	?sqrt@@YAMM@Z					; sqrt
; Function compile flags: /Odtp
; File i:\svnroot\client\ogremain\ogremath.h
;	COMDAT ?Sqrt@Ogre@@YAMM@Z
_TEXT	SEGMENT
_x$ = 8							; size = 4
?Sqrt@Ogre@@YAMM@Z PROC					; Ogre::Sqrt, COMDAT

; 59   : 	{

	push	ebp
	mov	ebp, esp

; 60   : 		return (float)sqrt(x);

	push	ecx
	fld	DWORD PTR _x$[ebp]
	fstp	DWORD PTR [esp]
	call	?sqrt@@YAMM@Z				; sqrt
	add	esp, 4

; 61   : 	}

	pop	ebp
	ret	0
?Sqrt@Ogre@@YAMM@Z ENDP					; Ogre::Sqrt
_TEXT	ENDS
PUBLIC	_sqrtf
; Function compile flags: /Odtp
; File d:\program files (x86)\microsoft visual studio 9.0\vc\include\math.h
;	COMDAT ?sqrt@@YAMM@Z
_TEXT	SEGMENT
__X$ = 8						; size = 4
?sqrt@@YAMM@Z PROC					; sqrt, COMDAT

; 534  :         {return (sqrtf(_X)); }

	push	ebp
	mov	ebp, esp
	push	ecx
	fld	DWORD PTR __X$[ebp]
	fstp	DWORD PTR [esp]
	call	_sqrtf
	add	esp, 4
	pop	ebp
	ret	0
?sqrt@@YAMM@Z ENDP					; sqrt
_TEXT	ENDS
EXTRN	_sqrt:PROC
; Function compile flags: /Odtp
;	COMDAT _sqrtf
_TEXT	SEGMENT
tv73 = -4						; size = 4
__X$ = 8						; size = 4
_sqrtf	PROC						; COMDAT

; 423  :         {return ((float)sqrt((double)_X)); }

	push	ebp
	mov	ebp, esp
	push	ecx
	fld	DWORD PTR __X$[ebp]
	sub	esp, 8
	fstp	QWORD PTR [esp]
	call	_sqrt
	add	esp, 8
	fstp	DWORD PTR tv73[ebp]
	fld	DWORD PTR tv73[ebp]
	mov	esp, ebp
	pop	ebp
	ret	0
_sqrtf	ENDP
_TEXT	ENDS
PUBLIC	?lengthSqr@Vector3@Ogre@@QBEMXZ			; Ogre::Vector3::lengthSqr
; Function compile flags: /Odtp
; File i:\svnroot\client\ogremain\ogrevector3.h
;	COMDAT ?lengthSqr@Vector3@Ogre@@QBEMXZ
_TEXT	SEGMENT
tv88 = -8						; size = 4
_this$ = -4						; size = 4
?lengthSqr@Vector3@Ogre@@QBEMXZ PROC			; Ogre::Vector3::lengthSqr, COMDAT
; _this$ = ecx

; 137  : 		{

	push	ebp
	mov	ebp, esp
	sub	esp, 8
	mov	DWORD PTR _this$[ebp], ecx

; 138  : 			return (x*x+y*y+z*z);

	mov	eax, DWORD PTR _this$[ebp]
	fld	DWORD PTR [eax]
	mov	ecx, DWORD PTR _this$[ebp]
	fmul	DWORD PTR [ecx]
	mov	edx, DWORD PTR _this$[ebp]
	fld	DWORD PTR [edx+4]
	mov	eax, DWORD PTR _this$[ebp]
	fmul	DWORD PTR [eax+4]
	faddp	ST(1), ST(0)
	mov	ecx, DWORD PTR _this$[ebp]
	fld	DWORD PTR [ecx+8]
	mov	edx, DWORD PTR _this$[ebp]
	fmul	DWORD PTR [edx+8]
	faddp	ST(1), ST(0)
	fstp	DWORD PTR tv88[ebp]
	fld	DWORD PTR tv88[ebp]

; 139  : 		}

	mov	esp, ebp
	pop	ebp
	ret	0
?lengthSqr@Vector3@Ogre@@QBEMXZ ENDP			; Ogre::Vector3::lengthSqr
_TEXT	ENDS
PUBLIC	?getRow3@Matrix3@Ogre@@QBE?AVVector3@2@I@Z	; Ogre::Matrix3::getRow3
; Function compile flags: /Odtp
; File i:\svnroot\client\ogremain\ogrematrix3.h
;	COMDAT ?getRow3@Matrix3@Ogre@@QBE?AVVector3@2@I@Z
_TEXT	SEGMENT
_this$ = -4						; size = 4
___$ReturnUdt$ = 8					; size = 4
_i$ = 12						; size = 4
?getRow3@Matrix3@Ogre@@QBE?AVVector3@2@I@Z PROC		; Ogre::Matrix3::getRow3, COMDAT
; _this$ = ecx

; 67   : 		{

	push	ebp
	mov	ebp, esp
	push	ecx
	mov	DWORD PTR _this$[ebp], ecx

; 68   : 			return Vector3(m[i][0], m[i][1], m[i][2]);

	mov	eax, DWORD PTR _i$[ebp]
	imul	eax, 12					; 0000000cH
	mov	ecx, DWORD PTR _this$[ebp]
	push	ecx
	fld	DWORD PTR [ecx+eax+8]
	fstp	DWORD PTR [esp]
	mov	edx, DWORD PTR _i$[ebp]
	imul	edx, 12					; 0000000cH
	mov	eax, DWORD PTR _this$[ebp]
	push	ecx
	fld	DWORD PTR [eax+edx+4]
	fstp	DWORD PTR [esp]
	mov	ecx, DWORD PTR _i$[ebp]
	imul	ecx, 12					; 0000000cH
	mov	edx, DWORD PTR _this$[ebp]
	push	ecx
	fld	DWORD PTR [edx+ecx]
	fstp	DWORD PTR [esp]
	mov	ecx, DWORD PTR ___$ReturnUdt$[ebp]
	call	??0Vector3@Ogre@@QAE@MMM@Z		; Ogre::Vector3::Vector3
	mov	eax, DWORD PTR ___$ReturnUdt$[ebp]

; 69   : 		}

	mov	esp, ebp
	pop	ebp
	ret	8
?getRow3@Matrix3@Ogre@@QBE?AVVector3@2@I@Z ENDP		; Ogre::Matrix3::getRow3
_TEXT	ENDS
PUBLIC	?identity@Matrix3@Ogre@@QAEXXZ			; Ogre::Matrix3::identity
; Function compile flags: /Odtp
;	COMDAT ?identity@Matrix3@Ogre@@QAEXXZ
_TEXT	SEGMENT
_this$ = -4						; size = 4
?identity@Matrix3@Ogre@@QAEXXZ PROC			; Ogre::Matrix3::identity, COMDAT
; _this$ = ecx

; 71   : 		{

	push	ebp
	mov	ebp, esp
	push	ecx
	mov	DWORD PTR _this$[ebp], ecx

; 72   : 			_11=1.0f, _12=0.0f, _13=0.0f;

	mov	eax, DWORD PTR _this$[ebp]
	fld1
	fstp	DWORD PTR [eax]
	mov	ecx, DWORD PTR _this$[ebp]
	fldz
	fstp	DWORD PTR [ecx+4]
	mov	edx, DWORD PTR _this$[ebp]
	fldz
	fstp	DWORD PTR [edx+8]

; 73   : 			_21=0.0f, _22=1.0f, _23=0.0f;

	mov	eax, DWORD PTR _this$[ebp]
	fldz
	fstp	DWORD PTR [eax+12]
	mov	ecx, DWORD PTR _this$[ebp]
	fld1
	fstp	DWORD PTR [ecx+16]
	mov	edx, DWORD PTR _this$[ebp]
	fldz
	fstp	DWORD PTR [edx+20]

; 74   : 			_31=0.0f, _32=0.0f, _33=1.0f;

	mov	eax, DWORD PTR _this$[ebp]
	fldz
	fstp	DWORD PTR [eax+24]
	mov	ecx, DWORD PTR _this$[ebp]
	fldz
	fstp	DWORD PTR [ecx+28]
	mov	edx, DWORD PTR _this$[ebp]
	fld1
	fstp	DWORD PTR [edx+32]

; 75   : 		}

	mov	esp, ebp
	pop	ebp
	ret	0
?identity@Matrix3@Ogre@@QAEXXZ ENDP			; Ogre::Matrix3::identity
_TEXT	ENDS
PUBLIC	?setRow@Matrix3@Ogre@@QAEXIMMM@Z		; Ogre::Matrix3::setRow
; Function compile flags: /Odtp
;	COMDAT ?setRow@Matrix3@Ogre@@QAEXIMMM@Z
_TEXT	SEGMENT
_this$ = -4						; size = 4
_i$ = 8							; size = 4
_x$ = 12						; size = 4
_y$ = 16						; size = 4
_z$ = 20						; size = 4
?setRow@Matrix3@Ogre@@QAEXIMMM@Z PROC			; Ogre::Matrix3::setRow, COMDAT
; _this$ = ecx

; 77   : 		{

	push	ebp
	mov	ebp, esp
	push	ecx
	mov	DWORD PTR _this$[ebp], ecx

; 78   : 			m[i][0] = x;

	mov	eax, DWORD PTR _i$[ebp]
	imul	eax, 12					; 0000000cH
	mov	ecx, DWORD PTR _this$[ebp]
	fld	DWORD PTR _x$[ebp]
	fstp	DWORD PTR [ecx+eax]

; 79   : 			m[i][1] = y;

	mov	edx, DWORD PTR _i$[ebp]
	imul	edx, 12					; 0000000cH
	mov	eax, DWORD PTR _this$[ebp]
	fld	DWORD PTR _y$[ebp]
	fstp	DWORD PTR [eax+edx+4]

; 80   : 			m[i][2] = z;

	mov	ecx, DWORD PTR _i$[ebp]
	imul	ecx, 12					; 0000000cH
	mov	edx, DWORD PTR _this$[ebp]
	fld	DWORD PTR _z$[ebp]
	fstp	DWORD PTR [edx+ecx+8]

; 81   : 		}

	mov	esp, ebp
	pop	ebp
	ret	16					; 00000010H
?setRow@Matrix3@Ogre@@QAEXIMMM@Z ENDP			; Ogre::Matrix3::setRow
_TEXT	ENDS
PUBLIC	?getColumn@Matrix3@Ogre@@QBE?AVVector3@2@I@Z	; Ogre::Matrix3::getColumn
; Function compile flags: /Odtp
;	COMDAT ?getColumn@Matrix3@Ogre@@QBE?AVVector3@2@I@Z
_TEXT	SEGMENT
_this$ = -4						; size = 4
___$ReturnUdt$ = 8					; size = 4
_i$ = 12						; size = 4
?getColumn@Matrix3@Ogre@@QBE?AVVector3@2@I@Z PROC	; Ogre::Matrix3::getColumn, COMDAT
; _this$ = ecx

; 84   : 		{

	push	ebp
	mov	ebp, esp
	push	ecx
	mov	DWORD PTR _this$[ebp], ecx

; 85   : 			return Vector3(m[0][i], m[1][i], m[2][i]);

	mov	eax, DWORD PTR _i$[ebp]
	mov	ecx, DWORD PTR _this$[ebp]
	push	ecx
	fld	DWORD PTR [ecx+eax*4+24]
	fstp	DWORD PTR [esp]
	mov	edx, DWORD PTR _i$[ebp]
	mov	eax, DWORD PTR _this$[ebp]
	push	ecx
	fld	DWORD PTR [eax+edx*4+12]
	fstp	DWORD PTR [esp]
	mov	ecx, DWORD PTR _i$[ebp]
	mov	edx, DWORD PTR _this$[ebp]
	push	ecx
	fld	DWORD PTR [edx+ecx*4]
	fstp	DWORD PTR [esp]
	mov	ecx, DWORD PTR ___$ReturnUdt$[ebp]
	call	??0Vector3@Ogre@@QAE@MMM@Z		; Ogre::Vector3::Vector3
	mov	eax, DWORD PTR ___$ReturnUdt$[ebp]

; 86   : 		}

	mov	esp, ebp
	pop	ebp
	ret	8
?getColumn@Matrix3@Ogre@@QBE?AVVector3@2@I@Z ENDP	; Ogre::Matrix3::getColumn
_TEXT	ENDS
PUBLIC	?makeScaleMatrix@Matrix3@Ogre@@QAEXM@Z		; Ogre::Matrix3::makeScaleMatrix
EXTRN	?makeScaleMatrix@Matrix3@Ogre@@QAEXABVVector3@2@@Z:PROC ; Ogre::Matrix3::makeScaleMatrix
; Function compile flags: /Odtp
;	COMDAT ?makeScaleMatrix@Matrix3@Ogre@@QAEXM@Z
_TEXT	SEGMENT
_this$ = -16						; size = 4
$T63380 = -12						; size = 12
_s$ = 8							; size = 4
?makeScaleMatrix@Matrix3@Ogre@@QAEXM@Z PROC		; Ogre::Matrix3::makeScaleMatrix, COMDAT
; _this$ = ecx

; 93   : 		{

	push	ebp
	mov	ebp, esp
	sub	esp, 16					; 00000010H
	mov	DWORD PTR _this$[ebp], ecx

; 94   : 			makeScaleMatrix(Vector3(s, s, s));

	push	ecx
	fld	DWORD PTR _s$[ebp]
	fstp	DWORD PTR [esp]
	push	ecx
	fld	DWORD PTR _s$[ebp]
	fstp	DWORD PTR [esp]
	push	ecx
	fld	DWORD PTR _s$[ebp]
	fstp	DWORD PTR [esp]
	lea	ecx, DWORD PTR $T63380[ebp]
	call	??0Vector3@Ogre@@QAE@MMM@Z		; Ogre::Vector3::Vector3
	push	eax
	mov	ecx, DWORD PTR _this$[ebp]
	call	?makeScaleMatrix@Matrix3@Ogre@@QAEXABVVector3@2@@Z ; Ogre::Matrix3::makeScaleMatrix

; 95   : 		}

	mov	esp, ebp
	pop	ebp
	ret	4
?makeScaleMatrix@Matrix3@Ogre@@QAEXM@Z ENDP		; Ogre::Matrix3::makeScaleMatrix
_TEXT	ENDS
PUBLIC	??4Matrix3@Ogre@@QAEAAV01@ABV01@@Z		; Ogre::Matrix3::operator=
; Function compile flags: /Odtp
;	COMDAT ??4Matrix3@Ogre@@QAEAAV01@ABV01@@Z
_TEXT	SEGMENT
_this$ = -4						; size = 4
___that$ = 8						; size = 4
??4Matrix3@Ogre@@QAEAAV01@ABV01@@Z PROC			; Ogre::Matrix3::operator=, COMDAT
; _this$ = ecx
	push	ebp
	mov	ebp, esp
	push	ecx
	push	esi
	push	edi
	mov	DWORD PTR _this$[ebp], ecx
	mov	esi, DWORD PTR ___that$[ebp]
	mov	ecx, 9
	mov	edi, DWORD PTR _this$[ebp]
	rep movsd
	mov	eax, DWORD PTR _this$[ebp]
	pop	edi
	pop	esi
	mov	esp, ebp
	pop	ebp
	ret	4
??4Matrix3@Ogre@@QAEAAV01@ABV01@@Z ENDP			; Ogre::Matrix3::operator=
_TEXT	ENDS
PUBLIC	??AMatrix4@Ogre@@QBEPBMI@Z			; Ogre::Matrix4::operator[]
; Function compile flags: /Odtp
; File i:\svnroot\client\ogremain\ogrematrix4.h
;	COMDAT ??AMatrix4@Ogre@@QBEPBMI@Z
_TEXT	SEGMENT
_this$ = -4						; size = 4
_irow$ = 8						; size = 4
??AMatrix4@Ogre@@QBEPBMI@Z PROC				; Ogre::Matrix4::operator[], COMDAT
; _this$ = ecx

; 88   : 		{

	push	ebp
	mov	ebp, esp
	push	ecx
	mov	DWORD PTR _this$[ebp], ecx

; 89   : 			return &m[irow][0];

	mov	eax, DWORD PTR _irow$[ebp]
	shl	eax, 4
	add	eax, DWORD PTR _this$[ebp]

; 90   : 		}

	mov	esp, ebp
	pop	ebp
	ret	4
??AMatrix4@Ogre@@QBEPBMI@Z ENDP				; Ogre::Matrix4::operator[]
_TEXT	ENDS
PUBLIC	??AMatrix4@Ogre@@QAEPAMI@Z			; Ogre::Matrix4::operator[]
; Function compile flags: /Odtp
;	COMDAT ??AMatrix4@Ogre@@QAEPAMI@Z
_TEXT	SEGMENT
_this$ = -4						; size = 4
_irow$ = 8						; size = 4
??AMatrix4@Ogre@@QAEPAMI@Z PROC				; Ogre::Matrix4::operator[], COMDAT
; _this$ = ecx

; 92   : 		{

	push	ebp
	mov	ebp, esp
	push	ecx
	mov	DWORD PTR _this$[ebp], ecx

; 93   : 			return &m[irow][0];

	mov	eax, DWORD PTR _irow$[ebp]
	shl	eax, 4
	add	eax, DWORD PTR _this$[ebp]

; 94   : 		}

	mov	esp, ebp
	pop	ebp
	ret	4
??AMatrix4@Ogre@@QAEPAMI@Z ENDP				; Ogre::Matrix4::operator[]
_TEXT	ENDS
PUBLIC	?makeScaleMatrix@Matrix4@Ogre@@QAEXM@Z		; Ogre::Matrix4::makeScaleMatrix
EXTRN	?makeScaleMatrix@Matrix4@Ogre@@QAEXABVVector3@2@@Z:PROC ; Ogre::Matrix4::makeScaleMatrix
; Function compile flags: /Odtp
;	COMDAT ?makeScaleMatrix@Matrix4@Ogre@@QAEXM@Z
_TEXT	SEGMENT
_this$ = -16						; size = 4
$T63389 = -12						; size = 12
_s$ = 8							; size = 4
?makeScaleMatrix@Matrix4@Ogre@@QAEXM@Z PROC		; Ogre::Matrix4::makeScaleMatrix, COMDAT
; _this$ = ecx

; 101  : 		{

	push	ebp
	mov	ebp, esp
	sub	esp, 16					; 00000010H
	mov	DWORD PTR _this$[ebp], ecx

; 102  : 			makeScaleMatrix(Vector3(s, s, s));

	push	ecx
	fld	DWORD PTR _s$[ebp]
	fstp	DWORD PTR [esp]
	push	ecx
	fld	DWORD PTR _s$[ebp]
	fstp	DWORD PTR [esp]
	push	ecx
	fld	DWORD PTR _s$[ebp]
	fstp	DWORD PTR [esp]
	lea	ecx, DWORD PTR $T63389[ebp]
	call	??0Vector3@Ogre@@QAE@MMM@Z		; Ogre::Vector3::Vector3
	push	eax
	mov	ecx, DWORD PTR _this$[ebp]
	call	?makeScaleMatrix@Matrix4@Ogre@@QAEXABVVector3@2@@Z ; Ogre::Matrix4::makeScaleMatrix

; 103  : 		}

	mov	esp, ebp
	pop	ebp
	ret	4
?makeScaleMatrix@Matrix4@Ogre@@QAEXM@Z ENDP		; Ogre::Matrix4::makeScaleMatrix
_TEXT	ENDS
PUBLIC	?setRow@Matrix4@Ogre@@QAEXIMMMM@Z		; Ogre::Matrix4::setRow
; Function compile flags: /Odtp
;	COMDAT ?setRow@Matrix4@Ogre@@QAEXIMMMM@Z
_TEXT	SEGMENT
_this$ = -4						; size = 4
_i$ = 8							; size = 4
_x$ = 12						; size = 4
_y$ = 16						; size = 4
_z$ = 20						; size = 4
_w$ = 24						; size = 4
?setRow@Matrix4@Ogre@@QAEXIMMMM@Z PROC			; Ogre::Matrix4::setRow, COMDAT
; _this$ = ecx

; 133  : 		{

	push	ebp
	mov	ebp, esp
	push	ecx
	mov	DWORD PTR _this$[ebp], ecx

; 134  : 			m[i][0] = x;

	mov	eax, DWORD PTR _i$[ebp]
	shl	eax, 4
	mov	ecx, DWORD PTR _this$[ebp]
	fld	DWORD PTR _x$[ebp]
	fstp	DWORD PTR [ecx+eax]

; 135  : 			m[i][1] = y;

	mov	edx, DWORD PTR _i$[ebp]
	shl	edx, 4
	mov	eax, DWORD PTR _this$[ebp]
	fld	DWORD PTR _y$[ebp]
	fstp	DWORD PTR [eax+edx+4]

; 136  : 			m[i][2] = z;

	mov	ecx, DWORD PTR _i$[ebp]
	shl	ecx, 4
	mov	edx, DWORD PTR _this$[ebp]
	fld	DWORD PTR _z$[ebp]
	fstp	DWORD PTR [edx+ecx+8]

; 137  : 			m[i][3] = w;

	mov	eax, DWORD PTR _i$[ebp]
	shl	eax, 4
	mov	ecx, DWORD PTR _this$[ebp]
	fld	DWORD PTR _w$[ebp]
	fstp	DWORD PTR [ecx+eax+12]

; 138  : 		}

	mov	esp, ebp
	pop	ebp
	ret	20					; 00000014H
?setRow@Matrix4@Ogre@@QAEXIMMMM@Z ENDP			; Ogre::Matrix4::setRow
_TEXT	ENDS
PUBLIC	?setColumn@Matrix4@Ogre@@QAEXIMMMM@Z		; Ogre::Matrix4::setColumn
; Function compile flags: /Odtp
;	COMDAT ?setColumn@Matrix4@Ogre@@QAEXIMMMM@Z
_TEXT	SEGMENT
_this$ = -4						; size = 4
_i$ = 8							; size = 4
_x$ = 12						; size = 4
_y$ = 16						; size = 4
_z$ = 20						; size = 4
_w$ = 24						; size = 4
?setColumn@Matrix4@Ogre@@QAEXIMMMM@Z PROC		; Ogre::Matrix4::setColumn, COMDAT
; _this$ = ecx

; 140  : 		{

	push	ebp
	mov	ebp, esp
	push	ecx
	mov	DWORD PTR _this$[ebp], ecx

; 141  : 			m[0][i] = x;

	mov	eax, DWORD PTR _i$[ebp]
	mov	ecx, DWORD PTR _this$[ebp]
	fld	DWORD PTR _x$[ebp]
	fstp	DWORD PTR [ecx+eax*4]

; 142  : 			m[1][i] = y;

	mov	edx, DWORD PTR _i$[ebp]
	mov	eax, DWORD PTR _this$[ebp]
	fld	DWORD PTR _y$[ebp]
	fstp	DWORD PTR [eax+edx*4+16]

; 143  : 			m[2][i] = z;

	mov	ecx, DWORD PTR _i$[ebp]
	mov	edx, DWORD PTR _this$[ebp]
	fld	DWORD PTR _z$[ebp]
	fstp	DWORD PTR [edx+ecx*4+32]

; 144  : 			m[3][i] = w;

	mov	eax, DWORD PTR _i$[ebp]
	mov	ecx, DWORD PTR _this$[ebp]
	fld	DWORD PTR _w$[ebp]
	fstp	DWORD PTR [ecx+eax*4+48]

; 145  : 		}

	mov	esp, ebp
	pop	ebp
	ret	20					; 00000014H
?setColumn@Matrix4@Ogre@@QAEXIMMMM@Z ENDP		; Ogre::Matrix4::setColumn
_TEXT	ENDS
PUBLIC	?getRow3@Matrix4@Ogre@@QBE?AVVector3@2@I@Z	; Ogre::Matrix4::getRow3
; Function compile flags: /Odtp
;	COMDAT ?getRow3@Matrix4@Ogre@@QBE?AVVector3@2@I@Z
_TEXT	SEGMENT
_this$ = -4						; size = 4
___$ReturnUdt$ = 8					; size = 4
_i$ = 12						; size = 4
?getRow3@Matrix4@Ogre@@QBE?AVVector3@2@I@Z PROC		; Ogre::Matrix4::getRow3, COMDAT
; _this$ = ecx

; 147  : 		{

	push	ebp
	mov	ebp, esp
	push	ecx
	mov	DWORD PTR _this$[ebp], ecx

; 148  : 			return Vector3(m[i][0], m[i][1], m[i][2]);

	mov	eax, DWORD PTR _i$[ebp]
	shl	eax, 4
	mov	ecx, DWORD PTR _this$[ebp]
	push	ecx
	fld	DWORD PTR [ecx+eax+8]
	fstp	DWORD PTR [esp]
	mov	edx, DWORD PTR _i$[ebp]
	shl	edx, 4
	mov	eax, DWORD PTR _this$[ebp]
	push	ecx
	fld	DWORD PTR [eax+edx+4]
	fstp	DWORD PTR [esp]
	mov	ecx, DWORD PTR _i$[ebp]
	shl	ecx, 4
	mov	edx, DWORD PTR _this$[ebp]
	push	ecx
	fld	DWORD PTR [edx+ecx]
	fstp	DWORD PTR [esp]
	mov	ecx, DWORD PTR ___$ReturnUdt$[ebp]
	call	??0Vector3@Ogre@@QAE@MMM@Z		; Ogre::Vector3::Vector3
	mov	eax, DWORD PTR ___$ReturnUdt$[ebp]

; 149  : 		}

	mov	esp, ebp
	pop	ebp
	ret	8
?getRow3@Matrix4@Ogre@@QBE?AVVector3@2@I@Z ENDP		; Ogre::Matrix4::getRow3
_TEXT	ENDS
PUBLIC	?getColumn3@Matrix4@Ogre@@QBE?AVVector3@2@I@Z	; Ogre::Matrix4::getColumn3
; Function compile flags: /Odtp
;	COMDAT ?getColumn3@Matrix4@Ogre@@QBE?AVVector3@2@I@Z
_TEXT	SEGMENT
_this$ = -4						; size = 4
___$ReturnUdt$ = 8					; size = 4
_i$ = 12						; size = 4
?getColumn3@Matrix4@Ogre@@QBE?AVVector3@2@I@Z PROC	; Ogre::Matrix4::getColumn3, COMDAT
; _this$ = ecx

; 151  : 		{

	push	ebp
	mov	ebp, esp
	push	ecx
	mov	DWORD PTR _this$[ebp], ecx

; 152  : 			return Vector3(m[0][i], m[1][i], m[2][i]);

	mov	eax, DWORD PTR _i$[ebp]
	mov	ecx, DWORD PTR _this$[ebp]
	push	ecx
	fld	DWORD PTR [ecx+eax*4+32]
	fstp	DWORD PTR [esp]
	mov	edx, DWORD PTR _i$[ebp]
	mov	eax, DWORD PTR _this$[ebp]
	push	ecx
	fld	DWORD PTR [eax+edx*4+16]
	fstp	DWORD PTR [esp]
	mov	ecx, DWORD PTR _i$[ebp]
	mov	edx, DWORD PTR _this$[ebp]
	push	ecx
	fld	DWORD PTR [edx+ecx*4]
	fstp	DWORD PTR [esp]
	mov	ecx, DWORD PTR ___$ReturnUdt$[ebp]
	call	??0Vector3@Ogre@@QAE@MMM@Z		; Ogre::Vector3::Vector3
	mov	eax, DWORD PTR ___$ReturnUdt$[ebp]

; 153  : 		}

	mov	esp, ebp
	pop	ebp
	ret	8
?getColumn3@Matrix4@Ogre@@QBE?AVVector3@2@I@Z ENDP	; Ogre::Matrix4::getColumn3
_TEXT	ENDS
PUBLIC	??0Vector4@Ogre@@QAE@MMMM@Z			; Ogre::Vector4::Vector4
PUBLIC	?getRow4@Matrix4@Ogre@@QBE?AVVector4@2@I@Z	; Ogre::Matrix4::getRow4
; Function compile flags: /Odtp
;	COMDAT ?getRow4@Matrix4@Ogre@@QBE?AVVector4@2@I@Z
_TEXT	SEGMENT
_this$ = -4						; size = 4
___$ReturnUdt$ = 8					; size = 4
_i$ = 12						; size = 4
?getRow4@Matrix4@Ogre@@QBE?AVVector4@2@I@Z PROC		; Ogre::Matrix4::getRow4, COMDAT
; _this$ = ecx

; 155  : 		{

	push	ebp
	mov	ebp, esp
	push	ecx
	mov	DWORD PTR _this$[ebp], ecx

; 156  : 			return Vector4(m[i][0], m[i][1], m[i][2], m[i][3]);

	mov	eax, DWORD PTR _i$[ebp]
	shl	eax, 4
	mov	ecx, DWORD PTR _this$[ebp]
	push	ecx
	fld	DWORD PTR [ecx+eax+12]
	fstp	DWORD PTR [esp]
	mov	edx, DWORD PTR _i$[ebp]
	shl	edx, 4
	mov	eax, DWORD PTR _this$[ebp]
	push	ecx
	fld	DWORD PTR [eax+edx+8]
	fstp	DWORD PTR [esp]
	mov	ecx, DWORD PTR _i$[ebp]
	shl	ecx, 4
	mov	edx, DWORD PTR _this$[ebp]
	push	ecx
	fld	DWORD PTR [edx+ecx+4]
	fstp	DWORD PTR [esp]
	mov	eax, DWORD PTR _i$[ebp]
	shl	eax, 4
	mov	ecx, DWORD PTR _this$[ebp]
	push	ecx
	fld	DWORD PTR [ecx+eax]
	fstp	DWORD PTR [esp]
	mov	ecx, DWORD PTR ___$ReturnUdt$[ebp]
	call	??0Vector4@Ogre@@QAE@MMMM@Z		; Ogre::Vector4::Vector4
	mov	eax, DWORD PTR ___$ReturnUdt$[ebp]

; 157  : 		}

	mov	esp, ebp
	pop	ebp
	ret	8
?getRow4@Matrix4@Ogre@@QBE?AVVector4@2@I@Z ENDP		; Ogre::Matrix4::getRow4
; Function compile flags: /Odtp
; File i:\svnroot\client\ogremain\ogrevector4.h
_TEXT	ENDS
;	COMDAT ??0Vector4@Ogre@@QAE@MMMM@Z
_TEXT	SEGMENT
_this$ = -4						; size = 4
_x1$ = 8						; size = 4
_y1$ = 12						; size = 4
_z1$ = 16						; size = 4
_w1$ = 20						; size = 4
??0Vector4@Ogre@@QAE@MMMM@Z PROC			; Ogre::Vector4::Vector4, COMDAT
; _this$ = ecx

; 44   : 		Vector4( float x1, float y1, float z1, float w1 ) : x(x1), y(y1), z(z1), w(w1){}

	push	ebp
	mov	ebp, esp
	push	ecx
	mov	DWORD PTR _this$[ebp], ecx
	mov	eax, DWORD PTR _this$[ebp]
	fld	DWORD PTR _x1$[ebp]
	fstp	DWORD PTR [eax]
	mov	ecx, DWORD PTR _this$[ebp]
	fld	DWORD PTR _y1$[ebp]
	fstp	DWORD PTR [ecx+4]
	mov	edx, DWORD PTR _this$[ebp]
	fld	DWORD PTR _z1$[ebp]
	fstp	DWORD PTR [edx+8]
	mov	eax, DWORD PTR _this$[ebp]
	fld	DWORD PTR _w1$[ebp]
	fstp	DWORD PTR [eax+12]
	mov	eax, DWORD PTR _this$[ebp]
	mov	esp, ebp
	pop	ebp
	ret	16					; 00000010H
??0Vector4@Ogre@@QAE@MMMM@Z ENDP			; Ogre::Vector4::Vector4
_TEXT	ENDS
PUBLIC	?getColumn4@Matrix4@Ogre@@QBE?AVVector4@2@I@Z	; Ogre::Matrix4::getColumn4
; Function compile flags: /Odtp
; File i:\svnroot\client\ogremain\ogrematrix4.h
;	COMDAT ?getColumn4@Matrix4@Ogre@@QBE?AVVector4@2@I@Z
_TEXT	SEGMENT
_this$ = -4						; size = 4
___$ReturnUdt$ = 8					; size = 4
_i$ = 12						; size = 4
?getColumn4@Matrix4@Ogre@@QBE?AVVector4@2@I@Z PROC	; Ogre::Matrix4::getColumn4, COMDAT
; _this$ = ecx

; 159  : 		{

	push	ebp
	mov	ebp, esp
	push	ecx
	mov	DWORD PTR _this$[ebp], ecx

; 160  : 			return Vector4(m[0][i], m[1][i], m[2][i], m[3][i]);

	mov	eax, DWORD PTR _i$[ebp]
	mov	ecx, DWORD PTR _this$[ebp]
	push	ecx
	fld	DWORD PTR [ecx+eax*4+48]
	fstp	DWORD PTR [esp]
	mov	edx, DWORD PTR _i$[ebp]
	mov	eax, DWORD PTR _this$[ebp]
	push	ecx
	fld	DWORD PTR [eax+edx*4+32]
	fstp	DWORD PTR [esp]
	mov	ecx, DWORD PTR _i$[ebp]
	mov	edx, DWORD PTR _this$[ebp]
	push	ecx
	fld	DWORD PTR [edx+ecx*4+16]
	fstp	DWORD PTR [esp]
	mov	eax, DWORD PTR _i$[ebp]
	mov	ecx, DWORD PTR _this$[ebp]
	push	ecx
	fld	DWORD PTR [ecx+eax*4]
	fstp	DWORD PTR [esp]
	mov	ecx, DWORD PTR ___$ReturnUdt$[ebp]
	call	??0Vector4@Ogre@@QAE@MMMM@Z		; Ogre::Vector4::Vector4
	mov	eax, DWORD PTR ___$ReturnUdt$[ebp]

; 161  : 		}

	mov	esp, ebp
	pop	ebp
	ret	8
?getColumn4@Matrix4@Ogre@@QBE?AVVector4@2@I@Z ENDP	; Ogre::Matrix4::getColumn4
_TEXT	ENDS
PUBLIC	?setTranslate@Matrix4@Ogre@@QAEXMMM@Z		; Ogre::Matrix4::setTranslate
; Function compile flags: /Odtp
;	COMDAT ?setTranslate@Matrix4@Ogre@@QAEXMMM@Z
_TEXT	SEGMENT
_this$ = -4						; size = 4
_x$ = 8							; size = 4
_y$ = 12						; size = 4
_z$ = 16						; size = 4
?setTranslate@Matrix4@Ogre@@QAEXMMM@Z PROC		; Ogre::Matrix4::setTranslate, COMDAT
; _this$ = ecx

; 163  : 		{

	push	ebp
	mov	ebp, esp
	push	ecx
	mov	DWORD PTR _this$[ebp], ecx

; 164  : 			setRow( 3, x, y, z, 1.0f );

	push	ecx
	fld1
	fstp	DWORD PTR [esp]
	push	ecx
	fld	DWORD PTR _z$[ebp]
	fstp	DWORD PTR [esp]
	push	ecx
	fld	DWORD PTR _y$[ebp]
	fstp	DWORD PTR [esp]
	push	ecx
	fld	DWORD PTR _x$[ebp]
	fstp	DWORD PTR [esp]
	push	3
	mov	ecx, DWORD PTR _this$[ebp]
	call	?setRow@Matrix4@Ogre@@QAEXIMMMM@Z	; Ogre::Matrix4::setRow

; 165  : 		}

	mov	esp, ebp
	pop	ebp
	ret	12					; 0000000cH
?setTranslate@Matrix4@Ogre@@QAEXMMM@Z ENDP		; Ogre::Matrix4::setTranslate
_TEXT	ENDS
PUBLIC	?setTranslate@Matrix4@Ogre@@QAEXABVVector3@2@@Z	; Ogre::Matrix4::setTranslate
; Function compile flags: /Odtp
;	COMDAT ?setTranslate@Matrix4@Ogre@@QAEXABVVector3@2@@Z
_TEXT	SEGMENT
_this$ = -4						; size = 4
_pos$ = 8						; size = 4
?setTranslate@Matrix4@Ogre@@QAEXABVVector3@2@@Z PROC	; Ogre::Matrix4::setTranslate, COMDAT
; _this$ = ecx

; 167  : 		{

	push	ebp
	mov	ebp, esp
	push	ecx
	mov	DWORD PTR _this$[ebp], ecx

; 168  : 			setTranslate( pos.x, pos.y, pos.z );

	mov	eax, DWORD PTR _pos$[ebp]
	push	ecx
	fld	DWORD PTR [eax+8]
	fstp	DWORD PTR [esp]
	mov	ecx, DWORD PTR _pos$[ebp]
	push	ecx
	fld	DWORD PTR [ecx+4]
	fstp	DWORD PTR [esp]
	mov	edx, DWORD PTR _pos$[ebp]
	push	ecx
	fld	DWORD PTR [edx]
	fstp	DWORD PTR [esp]
	mov	ecx, DWORD PTR _this$[ebp]
	call	?setTranslate@Matrix4@Ogre@@QAEXMMM@Z	; Ogre::Matrix4::setTranslate

; 169  : 		}

	mov	esp, ebp
	pop	ebp
	ret	4
?setTranslate@Matrix4@Ogre@@QAEXABVVector3@2@@Z ENDP	; Ogre::Matrix4::setTranslate
_TEXT	ENDS
PUBLIC	?getTranslate@Matrix4@Ogre@@QBE?AVVector3@2@XZ	; Ogre::Matrix4::getTranslate
; Function compile flags: /Odtp
;	COMDAT ?getTranslate@Matrix4@Ogre@@QBE?AVVector3@2@XZ
_TEXT	SEGMENT
_this$ = -4						; size = 4
___$ReturnUdt$ = 8					; size = 4
?getTranslate@Matrix4@Ogre@@QBE?AVVector3@2@XZ PROC	; Ogre::Matrix4::getTranslate, COMDAT
; _this$ = ecx

; 171  : 		{

	push	ebp
	mov	ebp, esp
	push	ecx
	mov	DWORD PTR _this$[ebp], ecx

; 172  : 			return getRow3(3);

	push	3
	mov	eax, DWORD PTR ___$ReturnUdt$[ebp]
	push	eax
	mov	ecx, DWORD PTR _this$[ebp]
	call	?getRow3@Matrix4@Ogre@@QBE?AVVector3@2@I@Z ; Ogre::Matrix4::getRow3
	mov	eax, DWORD PTR ___$ReturnUdt$[ebp]

; 173  : 		};

	mov	esp, ebp
	pop	ebp
	ret	4
?getTranslate@Matrix4@Ogre@@QBE?AVVector3@2@XZ ENDP	; Ogre::Matrix4::getTranslate
_TEXT	ENDS
PUBLIC	?transformCoord@Matrix4@Ogre@@QBE?AVVector3@2@ABV32@@Z ; Ogre::Matrix4::transformCoord
; Function compile flags: /Odtp
;	COMDAT ?transformCoord@Matrix4@Ogre@@QBE?AVVector3@2@ABV32@@Z
_TEXT	SEGMENT
tv182 = -16						; size = 4
tv174 = -12						; size = 4
tv166 = -8						; size = 4
_this$ = -4						; size = 4
___$ReturnUdt$ = 8					; size = 4
_vec$ = 12						; size = 4
?transformCoord@Matrix4@Ogre@@QBE?AVVector3@2@ABV32@@Z PROC ; Ogre::Matrix4::transformCoord, COMDAT
; _this$ = ecx

; 233  : 	{

	push	ebp
	mov	ebp, esp
	sub	esp, 16					; 00000010H
	mov	DWORD PTR _this$[ebp], ecx

; 234  : 		return Vector3( vec.x*_11 + vec.y*_21 + vec.z*_31 + _41,
; 235  : 			vec.x*_12 + vec.y*_22 + vec.z*_32 + _42,
; 236  : 			vec.x*_13 + vec.y*_23 + vec.z*_33 + _43 );

	mov	eax, DWORD PTR _vec$[ebp]
	fld	DWORD PTR [eax]
	mov	ecx, DWORD PTR _this$[ebp]
	fmul	DWORD PTR [ecx+8]
	mov	edx, DWORD PTR _vec$[ebp]
	fld	DWORD PTR [edx+4]
	mov	eax, DWORD PTR _this$[ebp]
	fmul	DWORD PTR [eax+24]
	faddp	ST(1), ST(0)
	mov	ecx, DWORD PTR _vec$[ebp]
	fld	DWORD PTR [ecx+8]
	mov	edx, DWORD PTR _this$[ebp]
	fmul	DWORD PTR [edx+40]
	faddp	ST(1), ST(0)
	mov	eax, DWORD PTR _this$[ebp]
	fadd	DWORD PTR [eax+56]
	fstp	DWORD PTR tv166[ebp]
	fld	DWORD PTR tv166[ebp]
	push	ecx
	fstp	DWORD PTR [esp]
	mov	ecx, DWORD PTR _vec$[ebp]
	fld	DWORD PTR [ecx]
	mov	edx, DWORD PTR _this$[ebp]
	fmul	DWORD PTR [edx+4]
	mov	eax, DWORD PTR _vec$[ebp]
	fld	DWORD PTR [eax+4]
	mov	ecx, DWORD PTR _this$[ebp]
	fmul	DWORD PTR [ecx+20]
	faddp	ST(1), ST(0)
	mov	edx, DWORD PTR _vec$[ebp]
	fld	DWORD PTR [edx+8]
	mov	eax, DWORD PTR _this$[ebp]
	fmul	DWORD PTR [eax+36]
	faddp	ST(1), ST(0)
	mov	ecx, DWORD PTR _this$[ebp]
	fadd	DWORD PTR [ecx+52]
	fstp	DWORD PTR tv174[ebp]
	fld	DWORD PTR tv174[ebp]
	push	ecx
	fstp	DWORD PTR [esp]
	mov	edx, DWORD PTR _vec$[ebp]
	fld	DWORD PTR [edx]
	mov	eax, DWORD PTR _this$[ebp]
	fmul	DWORD PTR [eax]
	mov	ecx, DWORD PTR _vec$[ebp]
	fld	DWORD PTR [ecx+4]
	mov	edx, DWORD PTR _this$[ebp]
	fmul	DWORD PTR [edx+16]
	faddp	ST(1), ST(0)
	mov	eax, DWORD PTR _vec$[ebp]
	fld	DWORD PTR [eax+8]
	mov	ecx, DWORD PTR _this$[ebp]
	fmul	DWORD PTR [ecx+32]
	faddp	ST(1), ST(0)
	mov	edx, DWORD PTR _this$[ebp]
	fadd	DWORD PTR [edx+48]
	fstp	DWORD PTR tv182[ebp]
	fld	DWORD PTR tv182[ebp]
	push	ecx
	fstp	DWORD PTR [esp]
	mov	ecx, DWORD PTR ___$ReturnUdt$[ebp]
	call	??0Vector3@Ogre@@QAE@MMM@Z		; Ogre::Vector3::Vector3
	mov	eax, DWORD PTR ___$ReturnUdt$[ebp]

; 237  : 	}

	mov	esp, ebp
	pop	ebp
	ret	8
?transformCoord@Matrix4@Ogre@@QBE?AVVector3@2@ABV32@@Z ENDP ; Ogre::Matrix4::transformCoord
_TEXT	ENDS
PUBLIC	??0WorldPos@Ogre@@QAE@XZ			; Ogre::WorldPos::WorldPos
; Function compile flags: /Odtp
; File i:\svnroot\client\ogremain\ogreworldpos.h
;	COMDAT ??0WorldPos@Ogre@@QAE@XZ
_TEXT	SEGMENT
_this$ = -4						; size = 4
??0WorldPos@Ogre@@QAE@XZ PROC				; Ogre::WorldPos::WorldPos, COMDAT
; _this$ = ecx

; 18   : 		WorldPos()

	push	ebp
	mov	ebp, esp
	push	ecx
	mov	DWORD PTR _this$[ebp], ecx

; 19   : 		{
; 20   : 		}

	mov	eax, DWORD PTR _this$[ebp]
	mov	esp, ebp
	pop	ebp
	ret	0
??0WorldPos@Ogre@@QAE@XZ ENDP				; Ogre::WorldPos::WorldPos
_TEXT	ENDS
PUBLIC	??0WorldPos@Ogre@@QAE@HHH@Z			; Ogre::WorldPos::WorldPos
; Function compile flags: /Odtp
;	COMDAT ??0WorldPos@Ogre@@QAE@HHH@Z
_TEXT	SEGMENT
_this$ = -4						; size = 4
__x$ = 8						; size = 4
__y$ = 12						; size = 4
__z$ = 16						; size = 4
??0WorldPos@Ogre@@QAE@HHH@Z PROC			; Ogre::WorldPos::WorldPos, COMDAT
; _this$ = ecx

; 23   : 		{

	push	ebp
	mov	ebp, esp
	push	ecx
	mov	DWORD PTR _this$[ebp], ecx
	mov	eax, DWORD PTR _this$[ebp]
	mov	ecx, DWORD PTR __x$[ebp]
	mov	DWORD PTR [eax], ecx
	mov	edx, DWORD PTR _this$[ebp]
	mov	eax, DWORD PTR __y$[ebp]
	mov	DWORD PTR [edx+4], eax
	mov	ecx, DWORD PTR _this$[ebp]
	mov	edx, DWORD PTR __z$[ebp]
	mov	DWORD PTR [ecx+8], edx

; 24   : 		}

	mov	eax, DWORD PTR _this$[ebp]
	mov	esp, ebp
	pop	ebp
	ret	12					; 0000000cH
??0WorldPos@Ogre@@QAE@HHH@Z ENDP			; Ogre::WorldPos::WorldPos
_TEXT	ENDS
PUBLIC	__real@4024000000000000
PUBLIC	??0WorldPos@Ogre@@QAE@ABVVector3@1@@Z		; Ogre::WorldPos::WorldPos
EXTRN	__ftol2_sse:PROC
;	COMDAT __real@4024000000000000
CONST	SEGMENT
__real@4024000000000000 DQ 04024000000000000r	; 10
; Function compile flags: /Odtp
CONST	ENDS
;	COMDAT ??0WorldPos@Ogre@@QAE@ABVVector3@1@@Z
_TEXT	SEGMENT
_this$ = -4						; size = 4
_vec$ = 8						; size = 4
??0WorldPos@Ogre@@QAE@ABVVector3@1@@Z PROC		; Ogre::WorldPos::WorldPos, COMDAT
; _this$ = ecx

; 26   : 		WorldPos( const Vector3 &vec )

	push	ebp
	mov	ebp, esp
	push	ecx
	mov	DWORD PTR _this$[ebp], ecx

; 27   : 		{
; 28   : 			x = (WPOS_T)(vec.x * UNIT);

	mov	eax, DWORD PTR _vec$[ebp]
	fld	DWORD PTR [eax]
	fmul	QWORD PTR __real@4024000000000000
	call	__ftol2_sse
	mov	ecx, DWORD PTR _this$[ebp]
	mov	DWORD PTR [ecx], eax

; 29   : 			y = (WPOS_T)(vec.y * UNIT);

	mov	edx, DWORD PTR _vec$[ebp]
	fld	DWORD PTR [edx+4]
	fmul	QWORD PTR __real@4024000000000000
	call	__ftol2_sse
	mov	ecx, DWORD PTR _this$[ebp]
	mov	DWORD PTR [ecx+4], eax

; 30   : 			z = (WPOS_T)(vec.z * UNIT);

	mov	edx, DWORD PTR _vec$[ebp]
	fld	DWORD PTR [edx+8]
	fmul	QWORD PTR __real@4024000000000000
	call	__ftol2_sse
	mov	ecx, DWORD PTR _this$[ebp]
	mov	DWORD PTR [ecx+8], eax

; 31   : 		}

	mov	eax, DWORD PTR _this$[ebp]
	mov	esp, ebp
	pop	ebp
	ret	4
??0WorldPos@Ogre@@QAE@ABVVector3@1@@Z ENDP		; Ogre::WorldPos::WorldPos
_TEXT	ENDS
PUBLIC	??4WorldPos@Ogre@@QAEABV01@ABVVector3@1@@Z	; Ogre::WorldPos::operator=
; Function compile flags: /Odtp
;	COMDAT ??4WorldPos@Ogre@@QAEABV01@ABVVector3@1@@Z
_TEXT	SEGMENT
_this$ = -4						; size = 4
_vec$ = 8						; size = 4
??4WorldPos@Ogre@@QAEABV01@ABVVector3@1@@Z PROC		; Ogre::WorldPos::operator=, COMDAT
; _this$ = ecx

; 34   : 		{

	push	ebp
	mov	ebp, esp
	push	ecx
	mov	DWORD PTR _this$[ebp], ecx

; 35   : 			x = (WPOS_T)(vec.x * UNIT);

	mov	eax, DWORD PTR _vec$[ebp]
	fld	DWORD PTR [eax]
	fmul	QWORD PTR __real@4024000000000000
	call	__ftol2_sse
	mov	ecx, DWORD PTR _this$[ebp]
	mov	DWORD PTR [ecx], eax

; 36   : 			y = (WPOS_T)(vec.y * UNIT);

	mov	edx, DWORD PTR _vec$[ebp]
	fld	DWORD PTR [edx+4]
	fmul	QWORD PTR __real@4024000000000000
	call	__ftol2_sse
	mov	ecx, DWORD PTR _this$[ebp]
	mov	DWORD PTR [ecx+4], eax

; 37   : 			z = (WPOS_T)(vec.z * UNIT);

	mov	edx, DWORD PTR _vec$[ebp]
	fld	DWORD PTR [edx+8]
	fmul	QWORD PTR __real@4024000000000000
	call	__ftol2_sse
	mov	ecx, DWORD PTR _this$[ebp]
	mov	DWORD PTR [ecx+8], eax

; 38   : 
; 39   : 			return *this;

	mov	eax, DWORD PTR _this$[ebp]

; 40   : 		}

	mov	esp, ebp
	pop	ebp
	ret	4
??4WorldPos@Ogre@@QAEABV01@ABVVector3@1@@Z ENDP		; Ogre::WorldPos::operator=
_TEXT	ENDS
PUBLIC	??YWorldPos@Ogre@@QAEABV01@ABVVector3@1@@Z	; Ogre::WorldPos::operator+=
; Function compile flags: /Odtp
;	COMDAT ??YWorldPos@Ogre@@QAEABV01@ABVVector3@1@@Z
_TEXT	SEGMENT
_this$ = -4						; size = 4
_vec$ = 8						; size = 4
??YWorldPos@Ogre@@QAEABV01@ABVVector3@1@@Z PROC		; Ogre::WorldPos::operator+=, COMDAT
; _this$ = ecx

; 43   : 		{

	push	ebp
	mov	ebp, esp
	push	ecx
	mov	DWORD PTR _this$[ebp], ecx

; 44   : 			x += (WPOS_T)(vec.x * UNIT);

	mov	eax, DWORD PTR _vec$[ebp]
	fld	DWORD PTR [eax]
	fmul	QWORD PTR __real@4024000000000000
	call	__ftol2_sse
	mov	ecx, DWORD PTR _this$[ebp]
	add	eax, DWORD PTR [ecx]
	mov	edx, DWORD PTR _this$[ebp]
	mov	DWORD PTR [edx], eax

; 45   : 			y += (WPOS_T)(vec.y * UNIT);

	mov	eax, DWORD PTR _vec$[ebp]
	fld	DWORD PTR [eax+4]
	fmul	QWORD PTR __real@4024000000000000
	call	__ftol2_sse
	mov	ecx, DWORD PTR _this$[ebp]
	add	eax, DWORD PTR [ecx+4]
	mov	edx, DWORD PTR _this$[ebp]
	mov	DWORD PTR [edx+4], eax

; 46   : 			z += (WPOS_T)(vec.z * UNIT);

	mov	eax, DWORD PTR _vec$[ebp]
	fld	DWORD PTR [eax+8]
	fmul	QWORD PTR __real@4024000000000000
	call	__ftol2_sse
	mov	ecx, DWORD PTR _this$[ebp]
	add	eax, DWORD PTR [ecx+8]
	mov	edx, DWORD PTR _this$[ebp]
	mov	DWORD PTR [edx+8], eax

; 47   : 
; 48   : 			return *this;

	mov	eax, DWORD PTR _this$[ebp]

; 49   : 		}

	mov	esp, ebp
	pop	ebp
	ret	4
??YWorldPos@Ogre@@QAEABV01@ABVVector3@1@@Z ENDP		; Ogre::WorldPos::operator+=
_TEXT	ENDS
PUBLIC	??YWorldPos@Ogre@@QAEABV01@ABV01@@Z		; Ogre::WorldPos::operator+=
; Function compile flags: /Odtp
;	COMDAT ??YWorldPos@Ogre@@QAEABV01@ABV01@@Z
_TEXT	SEGMENT
_this$ = -4						; size = 4
_pos$ = 8						; size = 4
??YWorldPos@Ogre@@QAEABV01@ABV01@@Z PROC		; Ogre::WorldPos::operator+=, COMDAT
; _this$ = ecx

; 52   : 		{

	push	ebp
	mov	ebp, esp
	push	ecx
	mov	DWORD PTR _this$[ebp], ecx

; 53   : 			x += pos.x;

	mov	eax, DWORD PTR _this$[ebp]
	mov	ecx, DWORD PTR [eax]
	mov	edx, DWORD PTR _pos$[ebp]
	add	ecx, DWORD PTR [edx]
	mov	eax, DWORD PTR _this$[ebp]
	mov	DWORD PTR [eax], ecx

; 54   : 			y += pos.y;

	mov	ecx, DWORD PTR _this$[ebp]
	mov	edx, DWORD PTR [ecx+4]
	mov	eax, DWORD PTR _pos$[ebp]
	add	edx, DWORD PTR [eax+4]
	mov	ecx, DWORD PTR _this$[ebp]
	mov	DWORD PTR [ecx+4], edx

; 55   : 			z += pos.z;

	mov	edx, DWORD PTR _this$[ebp]
	mov	eax, DWORD PTR [edx+8]
	mov	ecx, DWORD PTR _pos$[ebp]
	add	eax, DWORD PTR [ecx+8]
	mov	edx, DWORD PTR _this$[ebp]
	mov	DWORD PTR [edx+8], eax

; 56   : 
; 57   : 			return *this;

	mov	eax, DWORD PTR _this$[ebp]

; 58   : 		}

	mov	esp, ebp
	pop	ebp
	ret	4
??YWorldPos@Ogre@@QAEABV01@ABV01@@Z ENDP		; Ogre::WorldPos::operator+=
_TEXT	ENDS
PUBLIC	??ZWorldPos@Ogre@@QAEABV01@ABVVector3@1@@Z	; Ogre::WorldPos::operator-=
; Function compile flags: /Odtp
;	COMDAT ??ZWorldPos@Ogre@@QAEABV01@ABVVector3@1@@Z
_TEXT	SEGMENT
_this$ = -4						; size = 4
_vec$ = 8						; size = 4
??ZWorldPos@Ogre@@QAEABV01@ABVVector3@1@@Z PROC		; Ogre::WorldPos::operator-=, COMDAT
; _this$ = ecx

; 61   : 		{

	push	ebp
	mov	ebp, esp
	push	ecx
	mov	DWORD PTR _this$[ebp], ecx

; 62   : 			x -= (WPOS_T)(vec.x * UNIT);

	mov	eax, DWORD PTR _vec$[ebp]
	fld	DWORD PTR [eax]
	fmul	QWORD PTR __real@4024000000000000
	call	__ftol2_sse
	mov	ecx, DWORD PTR _this$[ebp]
	mov	edx, DWORD PTR [ecx]
	sub	edx, eax
	mov	eax, DWORD PTR _this$[ebp]
	mov	DWORD PTR [eax], edx

; 63   : 			y -= (WPOS_T)(vec.y * UNIT);

	mov	ecx, DWORD PTR _vec$[ebp]
	fld	DWORD PTR [ecx+4]
	fmul	QWORD PTR __real@4024000000000000
	call	__ftol2_sse
	mov	edx, DWORD PTR _this$[ebp]
	mov	ecx, DWORD PTR [edx+4]
	sub	ecx, eax
	mov	edx, DWORD PTR _this$[ebp]
	mov	DWORD PTR [edx+4], ecx

; 64   : 			z -= (WPOS_T)(vec.z * UNIT);

	mov	eax, DWORD PTR _vec$[ebp]
	fld	DWORD PTR [eax+8]
	fmul	QWORD PTR __real@4024000000000000
	call	__ftol2_sse
	mov	ecx, DWORD PTR _this$[ebp]
	mov	edx, DWORD PTR [ecx+8]
	sub	edx, eax
	mov	eax, DWORD PTR _this$[ebp]
	mov	DWORD PTR [eax+8], edx

; 65   : 
; 66   : 			return *this;

	mov	eax, DWORD PTR _this$[ebp]

; 67   : 		}

	mov	esp, ebp
	pop	ebp
	ret	4
??ZWorldPos@Ogre@@QAEABV01@ABVVector3@1@@Z ENDP		; Ogre::WorldPos::operator-=
_TEXT	ENDS
PUBLIC	??ZWorldPos@Ogre@@QAEABV01@ABV01@@Z		; Ogre::WorldPos::operator-=
; Function compile flags: /Odtp
;	COMDAT ??ZWorldPos@Ogre@@QAEABV01@ABV01@@Z
_TEXT	SEGMENT
_this$ = -4						; size = 4
_pos$ = 8						; size = 4
??ZWorldPos@Ogre@@QAEABV01@ABV01@@Z PROC		; Ogre::WorldPos::operator-=, COMDAT
; _this$ = ecx

; 70   : 		{

	push	ebp
	mov	ebp, esp
	push	ecx
	mov	DWORD PTR _this$[ebp], ecx

; 71   : 			x -= pos.x;

	mov	eax, DWORD PTR _this$[ebp]
	mov	ecx, DWORD PTR _pos$[ebp]
	mov	edx, DWORD PTR [eax]
	sub	edx, DWORD PTR [ecx]
	mov	eax, DWORD PTR _this$[ebp]
	mov	DWORD PTR [eax], edx

; 72   : 			y -= pos.y;

	mov	ecx, DWORD PTR _this$[ebp]
	mov	edx, DWORD PTR _pos$[ebp]
	mov	eax, DWORD PTR [ecx+4]
	sub	eax, DWORD PTR [edx+4]
	mov	ecx, DWORD PTR _this$[ebp]
	mov	DWORD PTR [ecx+4], eax

; 73   : 			z -= pos.z;

	mov	edx, DWORD PTR _this$[ebp]
	mov	eax, DWORD PTR _pos$[ebp]
	mov	ecx, DWORD PTR [edx+8]
	sub	ecx, DWORD PTR [eax+8]
	mov	edx, DWORD PTR _this$[ebp]
	mov	DWORD PTR [edx+8], ecx

; 74   : 
; 75   : 			return *this;

	mov	eax, DWORD PTR _this$[ebp]

; 76   : 		}

	mov	esp, ebp
	pop	ebp
	ret	4
??ZWorldPos@Ogre@@QAEABV01@ABV01@@Z ENDP		; Ogre::WorldPos::operator-=
_TEXT	ENDS
PUBLIC	??HWorldPos@Ogre@@QBE?AV01@ABV01@@Z		; Ogre::WorldPos::operator+
; Function compile flags: /Odtp
;	COMDAT ??HWorldPos@Ogre@@QBE?AV01@ABV01@@Z
_TEXT	SEGMENT
_this$ = -4						; size = 4
___$ReturnUdt$ = 8					; size = 4
_pos$ = 12						; size = 4
??HWorldPos@Ogre@@QBE?AV01@ABV01@@Z PROC		; Ogre::WorldPos::operator+, COMDAT
; _this$ = ecx

; 79   : 		{

	push	ebp
	mov	ebp, esp
	push	ecx
	mov	DWORD PTR _this$[ebp], ecx

; 80   : 			return WorldPos(x+pos.x, y+pos.y, z+pos.z);

	mov	eax, DWORD PTR _this$[ebp]
	mov	ecx, DWORD PTR [eax+8]
	mov	edx, DWORD PTR _pos$[ebp]
	add	ecx, DWORD PTR [edx+8]
	push	ecx
	mov	eax, DWORD PTR _this$[ebp]
	mov	ecx, DWORD PTR [eax+4]
	mov	edx, DWORD PTR _pos$[ebp]
	add	ecx, DWORD PTR [edx+4]
	push	ecx
	mov	eax, DWORD PTR _this$[ebp]
	mov	ecx, DWORD PTR [eax]
	mov	edx, DWORD PTR _pos$[ebp]
	add	ecx, DWORD PTR [edx]
	push	ecx
	mov	ecx, DWORD PTR ___$ReturnUdt$[ebp]
	call	??0WorldPos@Ogre@@QAE@HHH@Z		; Ogre::WorldPos::WorldPos
	mov	eax, DWORD PTR ___$ReturnUdt$[ebp]

; 81   : 		}

	mov	esp, ebp
	pop	ebp
	ret	8
??HWorldPos@Ogre@@QBE?AV01@ABV01@@Z ENDP		; Ogre::WorldPos::operator+
_TEXT	ENDS
PUBLIC	??GWorldPos@Ogre@@QBE?AV01@ABV01@@Z		; Ogre::WorldPos::operator-
; Function compile flags: /Odtp
;	COMDAT ??GWorldPos@Ogre@@QBE?AV01@ABV01@@Z
_TEXT	SEGMENT
_this$ = -4						; size = 4
___$ReturnUdt$ = 8					; size = 4
_pos$ = 12						; size = 4
??GWorldPos@Ogre@@QBE?AV01@ABV01@@Z PROC		; Ogre::WorldPos::operator-, COMDAT
; _this$ = ecx

; 84   : 		{

	push	ebp
	mov	ebp, esp
	push	ecx
	mov	DWORD PTR _this$[ebp], ecx

; 85   : 			return WorldPos(x-pos.x, y-pos.y, z-pos.z);

	mov	eax, DWORD PTR _this$[ebp]
	mov	ecx, DWORD PTR _pos$[ebp]
	mov	edx, DWORD PTR [eax+8]
	sub	edx, DWORD PTR [ecx+8]
	push	edx
	mov	eax, DWORD PTR _this$[ebp]
	mov	ecx, DWORD PTR _pos$[ebp]
	mov	edx, DWORD PTR [eax+4]
	sub	edx, DWORD PTR [ecx+4]
	push	edx
	mov	eax, DWORD PTR _this$[ebp]
	mov	ecx, DWORD PTR _pos$[ebp]
	mov	edx, DWORD PTR [eax]
	sub	edx, DWORD PTR [ecx]
	push	edx
	mov	ecx, DWORD PTR ___$ReturnUdt$[ebp]
	call	??0WorldPos@Ogre@@QAE@HHH@Z		; Ogre::WorldPos::WorldPos
	mov	eax, DWORD PTR ___$ReturnUdt$[ebp]

; 86   : 		}

	mov	esp, ebp
	pop	ebp
	ret	8
??GWorldPos@Ogre@@QBE?AV01@ABV01@@Z ENDP		; Ogre::WorldPos::operator-
_TEXT	ENDS
PUBLIC	??HWorldPos@Ogre@@QBE?AV01@ABVVector3@1@@Z	; Ogre::WorldPos::operator+
; Function compile flags: /Odtp
;	COMDAT ??HWorldPos@Ogre@@QBE?AV01@ABVVector3@1@@Z
_TEXT	SEGMENT
_this$ = -4						; size = 4
___$ReturnUdt$ = 8					; size = 4
_pos$ = 12						; size = 4
??HWorldPos@Ogre@@QBE?AV01@ABVVector3@1@@Z PROC		; Ogre::WorldPos::operator+, COMDAT
; _this$ = ecx

; 89   : 		{

	push	ebp
	mov	ebp, esp
	push	ecx
	mov	DWORD PTR _this$[ebp], ecx

; 90   : 			return WorldPos(x+(WPOS_T)(pos.x*UNIT), y+(WPOS_T)(pos.y*UNIT), z+(WPOS_T)(pos.z*UNIT));

	mov	eax, DWORD PTR _pos$[ebp]
	fld	DWORD PTR [eax+8]
	fmul	QWORD PTR __real@4024000000000000
	call	__ftol2_sse
	mov	ecx, DWORD PTR _this$[ebp]
	add	eax, DWORD PTR [ecx+8]
	push	eax
	mov	edx, DWORD PTR _pos$[ebp]
	fld	DWORD PTR [edx+4]
	fmul	QWORD PTR __real@4024000000000000
	call	__ftol2_sse
	mov	ecx, DWORD PTR _this$[ebp]
	add	eax, DWORD PTR [ecx+4]
	push	eax
	mov	edx, DWORD PTR _pos$[ebp]
	fld	DWORD PTR [edx]
	fmul	QWORD PTR __real@4024000000000000
	call	__ftol2_sse
	mov	ecx, DWORD PTR _this$[ebp]
	add	eax, DWORD PTR [ecx]
	push	eax
	mov	ecx, DWORD PTR ___$ReturnUdt$[ebp]
	call	??0WorldPos@Ogre@@QAE@HHH@Z		; Ogre::WorldPos::WorldPos
	mov	eax, DWORD PTR ___$ReturnUdt$[ebp]

; 91   : 		}

	mov	esp, ebp
	pop	ebp
	ret	8
??HWorldPos@Ogre@@QBE?AV01@ABVVector3@1@@Z ENDP		; Ogre::WorldPos::operator+
_TEXT	ENDS
PUBLIC	??GWorldPos@Ogre@@QBE?AV01@ABVVector3@1@@Z	; Ogre::WorldPos::operator-
; Function compile flags: /Odtp
;	COMDAT ??GWorldPos@Ogre@@QBE?AV01@ABVVector3@1@@Z
_TEXT	SEGMENT
_this$ = -4						; size = 4
___$ReturnUdt$ = 8					; size = 4
_pos$ = 12						; size = 4
??GWorldPos@Ogre@@QBE?AV01@ABVVector3@1@@Z PROC		; Ogre::WorldPos::operator-, COMDAT
; _this$ = ecx

; 94   : 		{

	push	ebp
	mov	ebp, esp
	push	ecx
	mov	DWORD PTR _this$[ebp], ecx

; 95   : 			return WorldPos(x-(WPOS_T)(pos.x*UNIT), y-(WPOS_T)(pos.y*UNIT), z-(WPOS_T)(pos.z*UNIT));

	mov	eax, DWORD PTR _pos$[ebp]
	fld	DWORD PTR [eax+8]
	fmul	QWORD PTR __real@4024000000000000
	call	__ftol2_sse
	mov	ecx, DWORD PTR _this$[ebp]
	mov	edx, DWORD PTR [ecx+8]
	sub	edx, eax
	push	edx
	mov	eax, DWORD PTR _pos$[ebp]
	fld	DWORD PTR [eax+4]
	fmul	QWORD PTR __real@4024000000000000
	call	__ftol2_sse
	mov	ecx, DWORD PTR _this$[ebp]
	mov	edx, DWORD PTR [ecx+4]
	sub	edx, eax
	push	edx
	mov	eax, DWORD PTR _pos$[ebp]
	fld	DWORD PTR [eax]
	fmul	QWORD PTR __real@4024000000000000
	call	__ftol2_sse
	mov	ecx, DWORD PTR _this$[ebp]
	mov	edx, DWORD PTR [ecx]
	sub	edx, eax
	push	edx
	mov	ecx, DWORD PTR ___$ReturnUdt$[ebp]
	call	??0WorldPos@Ogre@@QAE@HHH@Z		; Ogre::WorldPos::WorldPos
	mov	eax, DWORD PTR ___$ReturnUdt$[ebp]

; 96   : 		}

	mov	esp, ebp
	pop	ebp
	ret	8
??GWorldPos@Ogre@@QBE?AV01@ABVVector3@1@@Z ENDP		; Ogre::WorldPos::operator-
_TEXT	ENDS
PUBLIC	??DWorldPos@Ogre@@QBE?AV01@H@Z			; Ogre::WorldPos::operator*
; Function compile flags: /Odtp
;	COMDAT ??DWorldPos@Ogre@@QBE?AV01@H@Z
_TEXT	SEGMENT
_this$ = -4						; size = 4
___$ReturnUdt$ = 8					; size = 4
_s$ = 12						; size = 4
??DWorldPos@Ogre@@QBE?AV01@H@Z PROC			; Ogre::WorldPos::operator*, COMDAT
; _this$ = ecx

; 99   : 		{

	push	ebp
	mov	ebp, esp
	push	ecx
	mov	DWORD PTR _this$[ebp], ecx

; 100  : 			return WorldPos((WPOS_T)(x*s), (WPOS_T)(y*s), (WPOS_T)(z*s));

	mov	eax, DWORD PTR _this$[ebp]
	mov	ecx, DWORD PTR [eax+8]
	imul	ecx, DWORD PTR _s$[ebp]
	push	ecx
	mov	edx, DWORD PTR _this$[ebp]
	mov	eax, DWORD PTR [edx+4]
	imul	eax, DWORD PTR _s$[ebp]
	push	eax
	mov	ecx, DWORD PTR _this$[ebp]
	mov	edx, DWORD PTR [ecx]
	imul	edx, DWORD PTR _s$[ebp]
	push	edx
	mov	ecx, DWORD PTR ___$ReturnUdt$[ebp]
	call	??0WorldPos@Ogre@@QAE@HHH@Z		; Ogre::WorldPos::WorldPos
	mov	eax, DWORD PTR ___$ReturnUdt$[ebp]

; 101  : 		}

	mov	esp, ebp
	pop	ebp
	ret	8
??DWorldPos@Ogre@@QBE?AV01@H@Z ENDP			; Ogre::WorldPos::operator*
_TEXT	ENDS
PUBLIC	??DWorldPos@Ogre@@QBE?AV01@M@Z			; Ogre::WorldPos::operator*
; Function compile flags: /Odtp
;	COMDAT ??DWorldPos@Ogre@@QBE?AV01@M@Z
_TEXT	SEGMENT
_this$ = -4						; size = 4
___$ReturnUdt$ = 8					; size = 4
_s$ = 12						; size = 4
??DWorldPos@Ogre@@QBE?AV01@M@Z PROC			; Ogre::WorldPos::operator*, COMDAT
; _this$ = ecx

; 104  : 		{

	push	ebp
	mov	ebp, esp
	push	ecx
	mov	DWORD PTR _this$[ebp], ecx

; 105  : 			return WorldPos((WPOS_T)(x*s), (WPOS_T)(y*s), (WPOS_T)(z*s));

	mov	eax, DWORD PTR _this$[ebp]
	fild	DWORD PTR [eax+8]
	fmul	DWORD PTR _s$[ebp]
	call	__ftol2_sse
	push	eax
	mov	ecx, DWORD PTR _this$[ebp]
	fild	DWORD PTR [ecx+4]
	fmul	DWORD PTR _s$[ebp]
	call	__ftol2_sse
	push	eax
	mov	edx, DWORD PTR _this$[ebp]
	fild	DWORD PTR [edx]
	fmul	DWORD PTR _s$[ebp]
	call	__ftol2_sse
	push	eax
	mov	ecx, DWORD PTR ___$ReturnUdt$[ebp]
	call	??0WorldPos@Ogre@@QAE@HHH@Z		; Ogre::WorldPos::WorldPos
	mov	eax, DWORD PTR ___$ReturnUdt$[ebp]

; 106  : 		}

	mov	esp, ebp
	pop	ebp
	ret	8
??DWorldPos@Ogre@@QBE?AV01@M@Z ENDP			; Ogre::WorldPos::operator*
_TEXT	ENDS
PUBLIC	??KWorldPos@Ogre@@QBE?AV01@H@Z			; Ogre::WorldPos::operator/
; Function compile flags: /Odtp
;	COMDAT ??KWorldPos@Ogre@@QBE?AV01@H@Z
_TEXT	SEGMENT
_this$ = -4						; size = 4
___$ReturnUdt$ = 8					; size = 4
_s$ = 12						; size = 4
??KWorldPos@Ogre@@QBE?AV01@H@Z PROC			; Ogre::WorldPos::operator/, COMDAT
; _this$ = ecx

; 109  : 		{

	push	ebp
	mov	ebp, esp
	push	ecx
	mov	DWORD PTR _this$[ebp], ecx

; 110  : 			return WorldPos((WPOS_T)(x/s), (WPOS_T)(y/s), (WPOS_T)(z/s));

	mov	eax, DWORD PTR _this$[ebp]
	mov	eax, DWORD PTR [eax+8]
	cdq
	idiv	DWORD PTR _s$[ebp]
	push	eax
	mov	ecx, DWORD PTR _this$[ebp]
	mov	eax, DWORD PTR [ecx+4]
	cdq
	idiv	DWORD PTR _s$[ebp]
	push	eax
	mov	edx, DWORD PTR _this$[ebp]
	mov	eax, DWORD PTR [edx]
	cdq
	idiv	DWORD PTR _s$[ebp]
	push	eax
	mov	ecx, DWORD PTR ___$ReturnUdt$[ebp]
	call	??0WorldPos@Ogre@@QAE@HHH@Z		; Ogre::WorldPos::WorldPos
	mov	eax, DWORD PTR ___$ReturnUdt$[ebp]

; 111  : 		}

	mov	esp, ebp
	pop	ebp
	ret	8
??KWorldPos@Ogre@@QBE?AV01@H@Z ENDP			; Ogre::WorldPos::operator/
_TEXT	ENDS
PUBLIC	??8WorldPos@Ogre@@QBE_NABV01@@Z			; Ogre::WorldPos::operator==
; Function compile flags: /Odtp
;	COMDAT ??8WorldPos@Ogre@@QBE_NABV01@@Z
_TEXT	SEGMENT
tv71 = -8						; size = 4
_this$ = -4						; size = 4
_rhs$ = 8						; size = 4
??8WorldPos@Ogre@@QBE_NABV01@@Z PROC			; Ogre::WorldPos::operator==, COMDAT
; _this$ = ecx

; 114  : 		{

	push	ebp
	mov	ebp, esp
	sub	esp, 8
	mov	DWORD PTR _this$[ebp], ecx

; 115  : 			return x==rhs.x && y==rhs.y && z==rhs.z;

	mov	eax, DWORD PTR _this$[ebp]
	mov	ecx, DWORD PTR _rhs$[ebp]
	mov	edx, DWORD PTR [eax]
	cmp	edx, DWORD PTR [ecx]
	jne	SHORT $LN3@operator@2
	mov	eax, DWORD PTR _this$[ebp]
	mov	ecx, DWORD PTR _rhs$[ebp]
	mov	edx, DWORD PTR [eax+4]
	cmp	edx, DWORD PTR [ecx+4]
	jne	SHORT $LN3@operator@2
	mov	eax, DWORD PTR _this$[ebp]
	mov	ecx, DWORD PTR _rhs$[ebp]
	mov	edx, DWORD PTR [eax+8]
	cmp	edx, DWORD PTR [ecx+8]
	jne	SHORT $LN3@operator@2
	mov	DWORD PTR tv71[ebp], 1
	jmp	SHORT $LN4@operator@2
$LN3@operator@2:
	mov	DWORD PTR tv71[ebp], 0
$LN4@operator@2:
	mov	al, BYTE PTR tv71[ebp]

; 116  : 		}

	mov	esp, ebp
	pop	ebp
	ret	4
??8WorldPos@Ogre@@QBE_NABV01@@Z ENDP			; Ogre::WorldPos::operator==
_TEXT	ENDS
PUBLIC	??9WorldPos@Ogre@@QBE_NABV01@@Z			; Ogre::WorldPos::operator!=
; Function compile flags: /Odtp
;	COMDAT ??9WorldPos@Ogre@@QBE_NABV01@@Z
_TEXT	SEGMENT
tv71 = -8						; size = 4
_this$ = -4						; size = 4
_rhs$ = 8						; size = 4
??9WorldPos@Ogre@@QBE_NABV01@@Z PROC			; Ogre::WorldPos::operator!=, COMDAT
; _this$ = ecx

; 119  : 		{

	push	ebp
	mov	ebp, esp
	sub	esp, 8
	mov	DWORD PTR _this$[ebp], ecx

; 120  : 			return x!=rhs.x || y!=rhs.y || z!=rhs.z;

	mov	eax, DWORD PTR _this$[ebp]
	mov	ecx, DWORD PTR _rhs$[ebp]
	mov	edx, DWORD PTR [eax]
	cmp	edx, DWORD PTR [ecx]
	jne	SHORT $LN3@operator@3
	mov	eax, DWORD PTR _this$[ebp]
	mov	ecx, DWORD PTR _rhs$[ebp]
	mov	edx, DWORD PTR [eax+4]
	cmp	edx, DWORD PTR [ecx+4]
	jne	SHORT $LN3@operator@3
	mov	eax, DWORD PTR _this$[ebp]
	mov	ecx, DWORD PTR _rhs$[ebp]
	mov	edx, DWORD PTR [eax+8]
	cmp	edx, DWORD PTR [ecx+8]
	jne	SHORT $LN3@operator@3
	mov	DWORD PTR tv71[ebp], 0
	jmp	SHORT $LN4@operator@3
$LN3@operator@3:
	mov	DWORD PTR tv71[ebp], 1
$LN4@operator@3:
	mov	al, BYTE PTR tv71[ebp]

; 121  : 		}

	mov	esp, ebp
	pop	ebp
	ret	4
??9WorldPos@Ogre@@QBE_NABV01@@Z ENDP			; Ogre::WorldPos::operator!=
_TEXT	ENDS
PUBLIC	?inverse@WorldPos@Ogre@@QAEXXZ			; Ogre::WorldPos::inverse
; Function compile flags: /Odtp
;	COMDAT ?inverse@WorldPos@Ogre@@QAEXXZ
_TEXT	SEGMENT
_this$ = -4						; size = 4
?inverse@WorldPos@Ogre@@QAEXXZ PROC			; Ogre::WorldPos::inverse, COMDAT
; _this$ = ecx

; 124  : 		{

	push	ebp
	mov	ebp, esp
	push	ecx
	mov	DWORD PTR _this$[ebp], ecx

; 125  : 			x = -x;

	mov	eax, DWORD PTR _this$[ebp]
	mov	ecx, DWORD PTR [eax]
	neg	ecx
	mov	edx, DWORD PTR _this$[ebp]
	mov	DWORD PTR [edx], ecx

; 126  : 			y = -y;

	mov	eax, DWORD PTR _this$[ebp]
	mov	ecx, DWORD PTR [eax+4]
	neg	ecx
	mov	edx, DWORD PTR _this$[ebp]
	mov	DWORD PTR [edx+4], ecx

; 127  : 			z = -z;

	mov	eax, DWORD PTR _this$[ebp]
	mov	ecx, DWORD PTR [eax+8]
	neg	ecx
	mov	edx, DWORD PTR _this$[ebp]
	mov	DWORD PTR [edx+8], ecx

; 128  : 		}

	mov	esp, ebp
	pop	ebp
	ret	0
?inverse@WorldPos@Ogre@@QAEXXZ ENDP			; Ogre::WorldPos::inverse
_TEXT	ENDS
PUBLIC	?normalize@WorldPos@Ogre@@QBE?AVVector3@2@XZ	; Ogre::WorldPos::normalize
; Function compile flags: /Odtp
;	COMDAT ?normalize@WorldPos@Ogre@@QBE?AVVector3@2@XZ
_TEXT	SEGMENT
tv133 = -48						; size = 4
tv131 = -44						; size = 4
tv129 = -40						; size = 4
_this$ = -36						; size = 4
_fy$ = -32						; size = 8
_fz$ = -24						; size = 8
_len$ = -16						; size = 8
_fx$ = -8						; size = 8
___$ReturnUdt$ = 8					; size = 4
?normalize@WorldPos@Ogre@@QBE?AVVector3@2@XZ PROC	; Ogre::WorldPos::normalize, COMDAT
; _this$ = ecx

; 131  : 		{

	push	ebp
	mov	ebp, esp
	sub	esp, 48					; 00000030H
	mov	DWORD PTR _this$[ebp], ecx

; 132  : 			double fx = double(x);

	mov	eax, DWORD PTR _this$[ebp]
	fild	DWORD PTR [eax]
	fstp	QWORD PTR _fx$[ebp]

; 133  : 			double fy = double(y);

	mov	ecx, DWORD PTR _this$[ebp]
	fild	DWORD PTR [ecx+4]
	fstp	QWORD PTR _fy$[ebp]

; 134  : 			double fz = double(z);

	mov	edx, DWORD PTR _this$[ebp]
	fild	DWORD PTR [edx+8]
	fstp	QWORD PTR _fz$[ebp]

; 135  : 			double len = sqrt( fx*fx + fy*fy + fz*fz );

	fld	QWORD PTR _fx$[ebp]
	fmul	QWORD PTR _fx$[ebp]
	fld	QWORD PTR _fy$[ebp]
	fmul	QWORD PTR _fy$[ebp]
	faddp	ST(1), ST(0)
	fld	QWORD PTR _fz$[ebp]
	fmul	QWORD PTR _fz$[ebp]
	faddp	ST(1), ST(0)
	sub	esp, 8
	fstp	QWORD PTR [esp]
	call	_sqrt
	add	esp, 8
	fstp	QWORD PTR _len$[ebp]

; 136  : 
; 137  : 			return Vector3( float(fx/len), float(fy/len), float(fz/len) );

	fld	QWORD PTR _fz$[ebp]
	fdiv	QWORD PTR _len$[ebp]
	fstp	DWORD PTR tv129[ebp]
	fld	DWORD PTR tv129[ebp]
	push	ecx
	fstp	DWORD PTR [esp]
	fld	QWORD PTR _fy$[ebp]
	fdiv	QWORD PTR _len$[ebp]
	fstp	DWORD PTR tv131[ebp]
	fld	DWORD PTR tv131[ebp]
	push	ecx
	fstp	DWORD PTR [esp]
	fld	QWORD PTR _fx$[ebp]
	fdiv	QWORD PTR _len$[ebp]
	fstp	DWORD PTR tv133[ebp]
	fld	DWORD PTR tv133[ebp]
	push	ecx
	fstp	DWORD PTR [esp]
	mov	ecx, DWORD PTR ___$ReturnUdt$[ebp]
	call	??0Vector3@Ogre@@QAE@MMM@Z		; Ogre::Vector3::Vector3
	mov	eax, DWORD PTR ___$ReturnUdt$[ebp]

; 138  : 		}

	mov	esp, ebp
	pop	ebp
	ret	4
?normalize@WorldPos@Ogre@@QBE?AVVector3@2@XZ ENDP	; Ogre::WorldPos::normalize
_TEXT	ENDS
PUBLIC	?subtract@WorldPos@Ogre@@QBE?AVVector3@2@ABV12@@Z ; Ogre::WorldPos::subtract
PUBLIC	?toVector3@WorldPos@Ogre@@QBE?AVVector3@2@XZ	; Ogre::WorldPos::toVector3
EXTRN	?m_Origin@WorldPos@Ogre@@2V12@A:BYTE		; Ogre::WorldPos::m_Origin
; Function compile flags: /Odtp
;	COMDAT ?toVector3@WorldPos@Ogre@@QBE?AVVector3@2@XZ
_TEXT	SEGMENT
_this$ = -4						; size = 4
___$ReturnUdt$ = 8					; size = 4
?toVector3@WorldPos@Ogre@@QBE?AVVector3@2@XZ PROC	; Ogre::WorldPos::toVector3, COMDAT
; _this$ = ecx

; 141  : 		{

	push	ebp
	mov	ebp, esp
	push	ecx
	mov	DWORD PTR _this$[ebp], ecx

; 142  : 			return subtract(m_Origin);

	push	OFFSET ?m_Origin@WorldPos@Ogre@@2V12@A	; Ogre::WorldPos::m_Origin
	mov	eax, DWORD PTR ___$ReturnUdt$[ebp]
	push	eax
	mov	ecx, DWORD PTR _this$[ebp]
	call	?subtract@WorldPos@Ogre@@QBE?AVVector3@2@ABV12@@Z ; Ogre::WorldPos::subtract
	mov	eax, DWORD PTR ___$ReturnUdt$[ebp]

; 143  : 		}

	mov	esp, ebp
	pop	ebp
	ret	4
?toVector3@WorldPos@Ogre@@QBE?AVVector3@2@XZ ENDP	; Ogre::WorldPos::toVector3
; Function compile flags: /Odtp
_TEXT	ENDS
;	COMDAT ?subtract@WorldPos@Ogre@@QBE?AVVector3@2@ABV12@@Z
_TEXT	SEGMENT
tv130 = -28						; size = 4
tv129 = -24						; size = 4
tv93 = -20						; size = 4
tv92 = -16						; size = 4
tv88 = -12						; size = 4
tv87 = -8						; size = 4
_this$ = -4						; size = 4
___$ReturnUdt$ = 8					; size = 4
_pos$ = 12						; size = 4
?subtract@WorldPos@Ogre@@QBE?AVVector3@2@ABV12@@Z PROC	; Ogre::WorldPos::subtract, COMDAT
; _this$ = ecx

; 146  : 		{

	push	ebp
	mov	ebp, esp
	sub	esp, 28					; 0000001cH
	mov	DWORD PTR _this$[ebp], ecx

; 147  : 			return Vector3( float(double(x-pos.x)/UNIT), float(double(y-pos.y)/UNIT), float(double(z-pos.z)/UNIT) );

	mov	eax, DWORD PTR _this$[ebp]
	mov	ecx, DWORD PTR _pos$[ebp]
	mov	edx, DWORD PTR [eax+8]
	sub	edx, DWORD PTR [ecx+8]
	mov	DWORD PTR tv87[ebp], edx
	fild	DWORD PTR tv87[ebp]
	fdiv	QWORD PTR __real@4024000000000000
	fstp	DWORD PTR tv88[ebp]
	fld	DWORD PTR tv88[ebp]
	push	ecx
	fstp	DWORD PTR [esp]
	mov	eax, DWORD PTR _this$[ebp]
	mov	ecx, DWORD PTR _pos$[ebp]
	mov	edx, DWORD PTR [eax+4]
	sub	edx, DWORD PTR [ecx+4]
	mov	DWORD PTR tv92[ebp], edx
	fild	DWORD PTR tv92[ebp]
	fdiv	QWORD PTR __real@4024000000000000
	fstp	DWORD PTR tv93[ebp]
	fld	DWORD PTR tv93[ebp]
	push	ecx
	fstp	DWORD PTR [esp]
	mov	eax, DWORD PTR _this$[ebp]
	mov	ecx, DWORD PTR _pos$[ebp]
	mov	edx, DWORD PTR [eax]
	sub	edx, DWORD PTR [ecx]
	mov	DWORD PTR tv129[ebp], edx
	fild	DWORD PTR tv129[ebp]
	fdiv	QWORD PTR __real@4024000000000000
	fstp	DWORD PTR tv130[ebp]
	fld	DWORD PTR tv130[ebp]
	push	ecx
	fstp	DWORD PTR [esp]
	mov	ecx, DWORD PTR ___$ReturnUdt$[ebp]
	call	??0Vector3@Ogre@@QAE@MMM@Z		; Ogre::Vector3::Vector3
	mov	eax, DWORD PTR ___$ReturnUdt$[ebp]

; 148  : 		}

	mov	esp, ebp
	pop	ebp
	ret	8
?subtract@WorldPos@Ogre@@QBE?AVVector3@2@ABV12@@Z ENDP	; Ogre::WorldPos::subtract
_TEXT	ENDS
PUBLIC	?Flt2Fix@WorldPos@Ogre@@SAHM@Z			; Ogre::WorldPos::Flt2Fix
; Function compile flags: /Odtp
;	COMDAT ?Flt2Fix@WorldPos@Ogre@@SAHM@Z
_TEXT	SEGMENT
_x$ = 8							; size = 4
?Flt2Fix@WorldPos@Ogre@@SAHM@Z PROC			; Ogre::WorldPos::Flt2Fix, COMDAT

; 151  : 		{

	push	ebp
	mov	ebp, esp

; 152  : 			return (WPOS_T)(x*UNIT);

	fld	DWORD PTR _x$[ebp]
	fmul	QWORD PTR __real@4024000000000000
	call	__ftol2_sse

; 153  : 		}

	pop	ebp
	ret	0
?Flt2Fix@WorldPos@Ogre@@SAHM@Z ENDP			; Ogre::WorldPos::Flt2Fix
_TEXT	ENDS
PUBLIC	?Fix2Flt@WorldPos@Ogre@@SAMH@Z			; Ogre::WorldPos::Fix2Flt
; Function compile flags: /Odtp
;	COMDAT ?Fix2Flt@WorldPos@Ogre@@SAMH@Z
_TEXT	SEGMENT
tv67 = -4						; size = 4
_x$ = 8							; size = 4
?Fix2Flt@WorldPos@Ogre@@SAMH@Z PROC			; Ogre::WorldPos::Fix2Flt, COMDAT

; 156  : 		{

	push	ebp
	mov	ebp, esp
	push	ecx

; 157  : 			return float(double(x)/UNIT);

	fild	DWORD PTR _x$[ebp]
	fdiv	QWORD PTR __real@4024000000000000
	fstp	DWORD PTR tv67[ebp]
	fld	DWORD PTR tv67[ebp]

; 158  : 		}

	mov	esp, ebp
	pop	ebp
	ret	0
?Fix2Flt@WorldPos@Ogre@@SAMH@Z ENDP			; Ogre::WorldPos::Fix2Flt
_TEXT	ENDS
PUBLIC	??4WorldPos@Ogre@@QAEAAV01@ABV01@@Z		; Ogre::WorldPos::operator=
; Function compile flags: /Odtp
;	COMDAT ??4WorldPos@Ogre@@QAEAAV01@ABV01@@Z
_TEXT	SEGMENT
_this$ = -4						; size = 4
___that$ = 8						; size = 4
??4WorldPos@Ogre@@QAEAAV01@ABV01@@Z PROC		; Ogre::WorldPos::operator=, COMDAT
; _this$ = ecx
	push	ebp
	mov	ebp, esp
	push	ecx
	mov	DWORD PTR _this$[ebp], ecx
	mov	eax, DWORD PTR ___that$[ebp]
	mov	ecx, DWORD PTR _this$[ebp]
	mov	edx, DWORD PTR [eax]
	mov	DWORD PTR [ecx], edx
	mov	edx, DWORD PTR [eax+4]
	mov	DWORD PTR [ecx+4], edx
	mov	eax, DWORD PTR [eax+8]
	mov	DWORD PTR [ecx+8], eax
	mov	eax, DWORD PTR _this$[ebp]
	mov	esp, ebp
	pop	ebp
	ret	4
??4WorldPos@Ogre@@QAEAAV01@ABV01@@Z ENDP		; Ogre::WorldPos::operator=
_TEXT	ENDS
PUBLIC	?setMatrix@Quaternion@Ogre@@QAEXABVMatrix4@2@@Z	; Ogre::Quaternion::setMatrix
PUBLIC	?CrossProduct@Ogre@@YA?AVVector3@1@ABV21@0@Z	; Ogre::CrossProduct
PUBLIC	__real@bfefd70a40000000
PUBLIC	__real@3fefd70a40000000
PUBLIC	?DotProduct@Ogre@@YAMABVVector3@1@0@Z		; Ogre::DotProduct
PUBLIC	?Normalize@Ogre@@YAABVVector3@1@AAV21@@Z	; Ogre::Normalize
PUBLIC	??0Quaternion@Ogre@@QAE@ABVVector3@1@0@Z	; Ogre::Quaternion::Quaternion
EXTRN	??0Matrix4@Ogre@@QAE@XZ:PROC			; Ogre::Matrix4::Matrix4
;	COMDAT __real@bfefd70a40000000
; File i:\svnroot\client\ogremain\ogrequaternion.cpp
CONST	SEGMENT
__real@bfefd70a40000000 DQ 0bfefd70a40000000r	; -0.995
CONST	ENDS
;	COMDAT __real@3fefd70a40000000
CONST	SEGMENT
__real@3fefd70a40000000 DQ 03fefd70a40000000r	; 0.995
; Function compile flags: /Odtp
CONST	ENDS
_TEXT	SEGMENT
_this$ = -132						; size = 4
_vTempUp$ = -128					; size = 12
_vRight$ = -116						; size = 12
_vU$ = -104						; size = 12
_vTrueUp$ = -92						; size = 12
_mTemp$ = -80						; size = 64
_vF$ = -16						; size = 12
_fDot$ = -4						; size = 4
_vForward$ = 8						; size = 4
_vUp$ = 12						; size = 4
??0Quaternion@Ogre@@QAE@ABVVector3@1@0@Z PROC		; Ogre::Quaternion::Quaternion
; _this$ = ecx

; 57   : 	{

	push	ebp
	mov	ebp, esp
	sub	esp, 132				; 00000084H
	mov	DWORD PTR _this$[ebp], ecx

; 58   : 		// Are the vectors the same?
; 59   : 		Vector3 vF, vU;

	lea	ecx, DWORD PTR _vF$[ebp]
	call	??0Vector3@Ogre@@QAE@XZ			; Ogre::Vector3::Vector3
	lea	ecx, DWORD PTR _vU$[ebp]
	call	??0Vector3@Ogre@@QAE@XZ			; Ogre::Vector3::Vector3

; 60   : 		vF = vForward;

	mov	eax, DWORD PTR _vForward$[ebp]
	push	eax
	lea	ecx, DWORD PTR _vF$[ebp]
	call	??4Vector3@Ogre@@QAEABV01@ABV01@@Z	; Ogre::Vector3::operator=

; 61   : 		vU = vUp;

	mov	ecx, DWORD PTR _vUp$[ebp]
	push	ecx
	lea	ecx, DWORD PTR _vU$[ebp]
	call	??4Vector3@Ogre@@QAEABV01@ABV01@@Z	; Ogre::Vector3::operator=

; 62   : 		Normalize(vF);

	lea	edx, DWORD PTR _vF$[ebp]
	push	edx
	call	?Normalize@Ogre@@YAABVVector3@1@AAV21@@Z ; Ogre::Normalize
	add	esp, 4

; 63   : 		Normalize(vU);

	lea	eax, DWORD PTR _vU$[ebp]
	push	eax
	call	?Normalize@Ogre@@YAABVVector3@1@AAV21@@Z ; Ogre::Normalize
	add	esp, 4

; 64   : 
; 65   : 		Vector3 vTempUp = vU;

	lea	ecx, DWORD PTR _vU$[ebp]
	push	ecx
	lea	ecx, DWORD PTR _vTempUp$[ebp]
	call	??0Vector3@Ogre@@QAE@ABV01@@Z		; Ogre::Vector3::Vector3

; 66   : 		float fDot = DotProduct(vF, vU);

	lea	edx, DWORD PTR _vU$[ebp]
	push	edx
	lea	eax, DWORD PTR _vF$[ebp]
	push	eax
	call	?DotProduct@Ogre@@YAMABVVector3@1@0@Z	; Ogre::DotProduct
	add	esp, 8
	fstp	DWORD PTR _fDot$[ebp]

; 67   : 
; 68   : 		if(fDot > 0.995f || fDot < -0.995f)

	fld	DWORD PTR _fDot$[ebp]
	fcomp	QWORD PTR __real@3fefd70a40000000
	fnstsw	ax
	test	ah, 65					; 00000041H
	je	SHORT $LN1@Quaternion
	fld	DWORD PTR _fDot$[ebp]
	fcomp	QWORD PTR __real@bfefd70a40000000
	fnstsw	ax
	test	ah, 5
	jp	SHORT $LN2@Quaternion
$LN1@Quaternion:

; 69   : 		{
; 70   : 			// Generate a new up vector
; 71   : 			vTempUp.x = vF.y;

	fld	DWORD PTR _vF$[ebp+4]
	fstp	DWORD PTR _vTempUp$[ebp]

; 72   : 			vTempUp.y = vF.z;

	fld	DWORD PTR _vF$[ebp+8]
	fstp	DWORD PTR _vTempUp$[ebp+4]

; 73   : 			vTempUp.z = vF.x;

	fld	DWORD PTR _vF$[ebp]
	fstp	DWORD PTR _vTempUp$[ebp+8]
$LN2@Quaternion:

; 74   : 		}
; 75   : 
; 76   : 		Matrix4 mTemp;

	lea	ecx, DWORD PTR _mTemp$[ebp]
	call	??0Matrix4@Ogre@@QAE@XZ			; Ogre::Matrix4::Matrix4

; 77   : 		Vector3 vRight = CrossProduct(vTempUp, vF);

	lea	ecx, DWORD PTR _vF$[ebp]
	push	ecx
	lea	edx, DWORD PTR _vTempUp$[ebp]
	push	edx
	lea	eax, DWORD PTR _vRight$[ebp]
	push	eax
	call	?CrossProduct@Ogre@@YA?AVVector3@1@ABV21@0@Z ; Ogre::CrossProduct
	add	esp, 12					; 0000000cH

; 78   : 		Normalize(vRight);

	lea	ecx, DWORD PTR _vRight$[ebp]
	push	ecx
	call	?Normalize@Ogre@@YAABVVector3@1@AAV21@@Z ; Ogre::Normalize
	add	esp, 4

; 79   : 		Vector3 vTrueUp = CrossProduct(vF, vRight);

	lea	edx, DWORD PTR _vRight$[ebp]
	push	edx
	lea	eax, DWORD PTR _vF$[ebp]
	push	eax
	lea	ecx, DWORD PTR _vTrueUp$[ebp]
	push	ecx
	call	?CrossProduct@Ogre@@YA?AVVector3@1@ABV21@0@Z ; Ogre::CrossProduct

; 80   : 		mTemp.setRow(0, vRight.x, vRight.y, vRight.z, 0.0f);

	add	esp, 8
	fldz
	fstp	DWORD PTR [esp]
	push	ecx
	fld	DWORD PTR _vRight$[ebp+8]
	fstp	DWORD PTR [esp]
	push	ecx
	fld	DWORD PTR _vRight$[ebp+4]
	fstp	DWORD PTR [esp]
	push	ecx
	fld	DWORD PTR _vRight$[ebp]
	fstp	DWORD PTR [esp]
	push	0
	lea	ecx, DWORD PTR _mTemp$[ebp]
	call	?setRow@Matrix4@Ogre@@QAEXIMMMM@Z	; Ogre::Matrix4::setRow

; 81   : 		mTemp.setRow(1, vTrueUp.x, vTrueUp.y, vTrueUp.z, 0.0f);

	push	ecx
	fldz
	fstp	DWORD PTR [esp]
	push	ecx
	fld	DWORD PTR _vTrueUp$[ebp+8]
	fstp	DWORD PTR [esp]
	push	ecx
	fld	DWORD PTR _vTrueUp$[ebp+4]
	fstp	DWORD PTR [esp]
	push	ecx
	fld	DWORD PTR _vTrueUp$[ebp]
	fstp	DWORD PTR [esp]
	push	1
	lea	ecx, DWORD PTR _mTemp$[ebp]
	call	?setRow@Matrix4@Ogre@@QAEXIMMMM@Z	; Ogre::Matrix4::setRow

; 82   : 		mTemp.setRow(2, vF.x, vF.y, vF.z, 0.0f);

	push	ecx
	fldz
	fstp	DWORD PTR [esp]
	push	ecx
	fld	DWORD PTR _vF$[ebp+8]
	fstp	DWORD PTR [esp]
	push	ecx
	fld	DWORD PTR _vF$[ebp+4]
	fstp	DWORD PTR [esp]
	push	ecx
	fld	DWORD PTR _vF$[ebp]
	fstp	DWORD PTR [esp]
	push	2
	lea	ecx, DWORD PTR _mTemp$[ebp]
	call	?setRow@Matrix4@Ogre@@QAEXIMMMM@Z	; Ogre::Matrix4::setRow

; 83   : 		mTemp.setRow(3, 0.0f, 0.0f, 0.0f, 1.0f);

	push	ecx
	fld1
	fstp	DWORD PTR [esp]
	push	ecx
	fldz
	fstp	DWORD PTR [esp]
	push	ecx
	fldz
	fstp	DWORD PTR [esp]
	push	ecx
	fldz
	fstp	DWORD PTR [esp]
	push	3
	lea	ecx, DWORD PTR _mTemp$[ebp]
	call	?setRow@Matrix4@Ogre@@QAEXIMMMM@Z	; Ogre::Matrix4::setRow

; 84   : 		setMatrix(mTemp);

	lea	edx, DWORD PTR _mTemp$[ebp]
	push	edx
	mov	ecx, DWORD PTR _this$[ebp]
	call	?setMatrix@Quaternion@Ogre@@QAEXABVMatrix4@2@@Z ; Ogre::Quaternion::setMatrix

; 85   : 	}

	mov	eax, DWORD PTR _this$[ebp]
	mov	esp, ebp
	pop	ebp
	ret	8
??0Quaternion@Ogre@@QAE@ABVVector3@1@0@Z ENDP		; Ogre::Quaternion::Quaternion
_TEXT	ENDS
PUBLIC	__real@3ff0000000000000
PUBLIC	__real@0000000000000000
;	COMDAT __real@3ff0000000000000
; File i:\svnroot\client\ogremain\ogrevector3.h
CONST	SEGMENT
__real@3ff0000000000000 DQ 03ff0000000000000r	; 1
CONST	ENDS
;	COMDAT __real@0000000000000000
CONST	SEGMENT
__real@0000000000000000 DQ 00000000000000000r	; 0
; Function compile flags: /Odtp
CONST	ENDS
;	COMDAT ?Normalize@Ogre@@YAABVVector3@1@AAV21@@Z
_TEXT	SEGMENT
_scale$57529 = -4					; size = 4
_v$ = 8							; size = 4
?Normalize@Ogre@@YAABVVector3@1@AAV21@@Z PROC		; Ogre::Normalize, COMDAT

; 219  : 	{

	push	ebp
	mov	ebp, esp
	push	ecx

; 220  : 		//assert( v.length() > 0 );
; 221  : 		if(v.length() > 0)

	mov	ecx, DWORD PTR _v$[ebp]
	call	?length@Vector3@Ogre@@QBEMXZ		; Ogre::Vector3::length
	fcomp	QWORD PTR __real@0000000000000000
	fnstsw	ax
	test	ah, 65					; 00000041H
	jne	SHORT $LN2@Normalize

; 222  : 		{
; 223  : 			float scale = 1.0f/v.length();

	mov	ecx, DWORD PTR _v$[ebp]
	call	?length@Vector3@Ogre@@QBEMXZ		; Ogre::Vector3::length
	fld1
	fdivrp	ST(1), ST(0)
	fstp	DWORD PTR _scale$57529[ebp]

; 224  : 			v.x *= scale;

	mov	eax, DWORD PTR _v$[ebp]
	fld	DWORD PTR [eax]
	fmul	DWORD PTR _scale$57529[ebp]
	mov	ecx, DWORD PTR _v$[ebp]
	fstp	DWORD PTR [ecx]

; 225  : 			v.y *= scale;

	mov	edx, DWORD PTR _v$[ebp]
	fld	DWORD PTR [edx+4]
	fmul	DWORD PTR _scale$57529[ebp]
	mov	eax, DWORD PTR _v$[ebp]
	fstp	DWORD PTR [eax+4]

; 226  : 			v.z *= scale;

	mov	ecx, DWORD PTR _v$[ebp]
	fld	DWORD PTR [ecx+8]
	fmul	DWORD PTR _scale$57529[ebp]
	mov	edx, DWORD PTR _v$[ebp]
	fstp	DWORD PTR [edx+8]

; 227  : 		}
; 228  : 		else

	jmp	SHORT $LN1@Normalize
$LN2@Normalize:

; 229  : 		{
; 230  : 			v.x = 0.0f;

	mov	eax, DWORD PTR _v$[ebp]
	fldz
	fstp	DWORD PTR [eax]

; 231  : 			v.y = 0.0f;

	mov	ecx, DWORD PTR _v$[ebp]
	fldz
	fstp	DWORD PTR [ecx+4]

; 232  : 			v.z = 0.0f;

	mov	edx, DWORD PTR _v$[ebp]
	fldz
	fstp	DWORD PTR [edx+8]
$LN1@Normalize:

; 233  : 		}
; 234  : 
; 235  : 		return v;

	mov	eax, DWORD PTR _v$[ebp]

; 236  : 	}

	mov	esp, ebp
	pop	ebp
	ret	0
?Normalize@Ogre@@YAABVVector3@1@AAV21@@Z ENDP		; Ogre::Normalize
; Function compile flags: /Odtp
_TEXT	ENDS
;	COMDAT ?DotProduct@Ogre@@YAMABVVector3@1@0@Z
_TEXT	SEGMENT
tv86 = -4						; size = 4
_v1$ = 8						; size = 4
_v2$ = 12						; size = 4
?DotProduct@Ogre@@YAMABVVector3@1@0@Z PROC		; Ogre::DotProduct, COMDAT

; 263  : 	{

	push	ebp
	mov	ebp, esp
	push	ecx

; 264  : 		return v1.x*v2.x + v1.y*v2.y + v1.z*v2.z;

	mov	eax, DWORD PTR _v1$[ebp]
	fld	DWORD PTR [eax]
	mov	ecx, DWORD PTR _v2$[ebp]
	fmul	DWORD PTR [ecx]
	mov	edx, DWORD PTR _v1$[ebp]
	fld	DWORD PTR [edx+4]
	mov	eax, DWORD PTR _v2$[ebp]
	fmul	DWORD PTR [eax+4]
	faddp	ST(1), ST(0)
	mov	ecx, DWORD PTR _v1$[ebp]
	fld	DWORD PTR [ecx+8]
	mov	edx, DWORD PTR _v2$[ebp]
	fmul	DWORD PTR [edx+8]
	faddp	ST(1), ST(0)
	fstp	DWORD PTR tv86[ebp]
	fld	DWORD PTR tv86[ebp]

; 265  : 	}

	mov	esp, ebp
	pop	ebp
	ret	0
?DotProduct@Ogre@@YAMABVVector3@1@0@Z ENDP		; Ogre::DotProduct
; Function compile flags: /Odtp
_TEXT	ENDS
;	COMDAT ?CrossProduct@Ogre@@YA?AVVector3@1@ABV21@0@Z
_TEXT	SEGMENT
tv146 = -12						; size = 4
tv141 = -8						; size = 4
tv136 = -4						; size = 4
___$ReturnUdt$ = 8					; size = 4
_v1$ = 12						; size = 4
_v2$ = 16						; size = 4
?CrossProduct@Ogre@@YA?AVVector3@1@ABV21@0@Z PROC	; Ogre::CrossProduct, COMDAT

; 268  : 	{

	push	ebp
	mov	ebp, esp
	sub	esp, 12					; 0000000cH

; 269  : 		return Vector3(v1.y*v2.z-v1.z*v2.y, v1.z*v2.x-v1.x*v2.z, v1.x*v2.y-v1.y*v2.x);

	mov	eax, DWORD PTR _v1$[ebp]
	fld	DWORD PTR [eax]
	mov	ecx, DWORD PTR _v2$[ebp]
	fmul	DWORD PTR [ecx+4]
	mov	edx, DWORD PTR _v1$[ebp]
	fld	DWORD PTR [edx+4]
	mov	eax, DWORD PTR _v2$[ebp]
	fmul	DWORD PTR [eax]
	fsubp	ST(1), ST(0)
	fstp	DWORD PTR tv136[ebp]
	fld	DWORD PTR tv136[ebp]
	push	ecx
	fstp	DWORD PTR [esp]
	mov	ecx, DWORD PTR _v1$[ebp]
	fld	DWORD PTR [ecx+8]
	mov	edx, DWORD PTR _v2$[ebp]
	fmul	DWORD PTR [edx]
	mov	eax, DWORD PTR _v1$[ebp]
	fld	DWORD PTR [eax]
	mov	ecx, DWORD PTR _v2$[ebp]
	fmul	DWORD PTR [ecx+8]
	fsubp	ST(1), ST(0)
	fstp	DWORD PTR tv141[ebp]
	fld	DWORD PTR tv141[ebp]
	push	ecx
	fstp	DWORD PTR [esp]
	mov	edx, DWORD PTR _v1$[ebp]
	fld	DWORD PTR [edx+4]
	mov	eax, DWORD PTR _v2$[ebp]
	fmul	DWORD PTR [eax+8]
	mov	ecx, DWORD PTR _v1$[ebp]
	fld	DWORD PTR [ecx+8]
	mov	edx, DWORD PTR _v2$[ebp]
	fmul	DWORD PTR [edx+4]
	fsubp	ST(1), ST(0)
	fstp	DWORD PTR tv146[ebp]
	fld	DWORD PTR tv146[ebp]
	push	ecx
	fstp	DWORD PTR [esp]
	mov	ecx, DWORD PTR ___$ReturnUdt$[ebp]
	call	??0Vector3@Ogre@@QAE@MMM@Z		; Ogre::Vector3::Vector3
	mov	eax, DWORD PTR ___$ReturnUdt$[ebp]

; 270  : 	}

	mov	esp, ebp
	pop	ebp
	ret	0
?CrossProduct@Ogre@@YA?AVVector3@1@ABV21@0@Z ENDP	; Ogre::CrossProduct
_TEXT	ENDS
PUBLIC	??$Abs@M@Ogre@@YAMABM@Z				; Ogre::Abs<float>
PUBLIC	__real@38d1b717
;	COMDAT __real@38d1b717
; File i:\svnroot\client\ogremain\ogrequaternion.cpp
CONST	SEGMENT
__real@38d1b717 DD 038d1b717r			; 0.0001
; Function compile flags: /Odtp
CONST	ENDS
_TEXT	SEGMENT
tv138 = -28						; size = 4
_this$ = -24						; size = 4
$T63488 = -20						; size = 4
$T63487 = -16						; size = 4
$T63485 = -12						; size = 4
$T63484 = -8						; size = 4
_QUAT_EPSILON$ = -4					; size = 4
_quat$ = 8						; size = 4
??8Quaternion@Ogre@@QBE_NABV01@@Z PROC			; Ogre::Quaternion::operator==
; _this$ = ecx

; 88   : 	{

	push	ebp
	mov	ebp, esp
	sub	esp, 28					; 0000001cH
	mov	DWORD PTR _this$[ebp], ecx

; 89   : 		const float QUAT_EPSILON = 0.0001f;

	fld	DWORD PTR __real@38d1b717
	fstp	DWORD PTR _QUAT_EPSILON$[ebp]

; 90   : 
; 91   : 		return ( Abs(x-quat.x)<QUAT_EPSILON && 
; 92   : 			Abs(y-quat.y)<QUAT_EPSILON && 
; 93   : 			Abs(z-quat.z)<QUAT_EPSILON && 
; 94   : 			Abs(w-quat.w)<QUAT_EPSILON );

	mov	eax, DWORD PTR _this$[ebp]
	fld	DWORD PTR [eax]
	mov	ecx, DWORD PTR _quat$[ebp]
	fsub	DWORD PTR [ecx]
	fstp	DWORD PTR $T63484[ebp]
	lea	edx, DWORD PTR $T63484[ebp]
	push	edx
	call	??$Abs@M@Ogre@@YAMABM@Z			; Ogre::Abs<float>
	add	esp, 4
	fld	DWORD PTR _QUAT_EPSILON$[ebp]
	fcompp
	fnstsw	ax
	test	ah, 65					; 00000041H
	jne	SHORT $LN3@operator@4
	mov	eax, DWORD PTR _this$[ebp]
	fld	DWORD PTR [eax+4]
	mov	ecx, DWORD PTR _quat$[ebp]
	fsub	DWORD PTR [ecx+4]
	fstp	DWORD PTR $T63485[ebp]
	lea	edx, DWORD PTR $T63485[ebp]
	push	edx
	call	??$Abs@M@Ogre@@YAMABM@Z			; Ogre::Abs<float>
	add	esp, 4
	fld	DWORD PTR _QUAT_EPSILON$[ebp]
	fcompp
	fnstsw	ax
	test	ah, 65					; 00000041H
	jne	SHORT $LN3@operator@4
	mov	eax, DWORD PTR _this$[ebp]
	fld	DWORD PTR [eax+8]
	mov	ecx, DWORD PTR _quat$[ebp]
	fsub	DWORD PTR [ecx+8]
	fstp	DWORD PTR $T63487[ebp]
	lea	edx, DWORD PTR $T63487[ebp]
	push	edx
	call	??$Abs@M@Ogre@@YAMABM@Z			; Ogre::Abs<float>
	add	esp, 4
	fld	DWORD PTR _QUAT_EPSILON$[ebp]
	fcompp
	fnstsw	ax
	test	ah, 65					; 00000041H
	jne	SHORT $LN3@operator@4
	mov	eax, DWORD PTR _this$[ebp]
	fld	DWORD PTR [eax+12]
	mov	ecx, DWORD PTR _quat$[ebp]
	fsub	DWORD PTR [ecx+12]
	fstp	DWORD PTR $T63488[ebp]
	lea	edx, DWORD PTR $T63488[ebp]
	push	edx
	call	??$Abs@M@Ogre@@YAMABM@Z			; Ogre::Abs<float>
	add	esp, 4
	fld	DWORD PTR _QUAT_EPSILON$[ebp]
	fcompp
	fnstsw	ax
	test	ah, 65					; 00000041H
	jne	SHORT $LN3@operator@4
	mov	DWORD PTR tv138[ebp], 1
	jmp	SHORT $LN4@operator@4
$LN3@operator@4:
	mov	DWORD PTR tv138[ebp], 0
$LN4@operator@4:
	mov	al, BYTE PTR tv138[ebp]

; 95   : 	}

	mov	esp, ebp
	pop	ebp
	ret	4
??8Quaternion@Ogre@@QBE_NABV01@@Z ENDP			; Ogre::Quaternion::operator==
_TEXT	ENDS
PUBLIC	?magnitude@Quaternion@Ogre@@QAEMXZ		; Ogre::Quaternion::magnitude
; Function compile flags: /Odtp
_TEXT	SEGMENT
_this$ = -8						; size = 4
_n$ = -4						; size = 4
?magnitude@Quaternion@Ogre@@QAEMXZ PROC			; Ogre::Quaternion::magnitude
; _this$ = ecx

; 98   : 	{

	push	ebp
	mov	ebp, esp
	sub	esp, 8
	mov	DWORD PTR _this$[ebp], ecx

; 99   : 		float n = norm();

	mov	ecx, DWORD PTR _this$[ebp]
	call	?norm@Quaternion@Ogre@@QAEMXZ		; Ogre::Quaternion::norm
	fstp	DWORD PTR _n$[ebp]

; 100  : 		if( n > 0 ) return Sqrt(n);

	fld	DWORD PTR _n$[ebp]
	fcomp	QWORD PTR __real@0000000000000000
	fnstsw	ax
	test	ah, 65					; 00000041H
	jne	SHORT $LN2@magnitude
	push	ecx
	fld	DWORD PTR _n$[ebp]
	fstp	DWORD PTR [esp]
	call	?Sqrt@Ogre@@YAMM@Z			; Ogre::Sqrt
	add	esp, 4
	jmp	SHORT $LN1@magnitude
	jmp	SHORT $LN1@magnitude
$LN2@magnitude:

; 101  : 		else return 0.0f;

	fldz
$LN1@magnitude:

; 102  : 	}

	mov	esp, ebp
	pop	ebp
	ret	0
?magnitude@Quaternion@Ogre@@QAEMXZ ENDP			; Ogre::Quaternion::magnitude
_TEXT	ENDS
PUBLIC	??DOgre@@YA?AVQuaternion@0@ABV10@0@Z		; Ogre::operator*
PUBLIC	??XQuaternion@Ogre@@QAEXABV01@@Z		; Ogre::Quaternion::operator*=
; Function compile flags: /Odtp
_TEXT	SEGMENT
_this$ = -20						; size = 4
$T63494 = -16						; size = 16
_quat$ = 8						; size = 4
??XQuaternion@Ogre@@QAEXABV01@@Z PROC			; Ogre::Quaternion::operator*=
; _this$ = ecx

; 105  : 	{

	push	ebp
	mov	ebp, esp
	sub	esp, 20					; 00000014H
	mov	DWORD PTR _this$[ebp], ecx

; 106  : 		*this = (*this) * quat;

	mov	eax, DWORD PTR _quat$[ebp]
	push	eax
	mov	ecx, DWORD PTR _this$[ebp]
	push	ecx
	lea	edx, DWORD PTR $T63494[ebp]
	push	edx
	call	??DOgre@@YA?AVQuaternion@0@ABV10@0@Z	; Ogre::operator*
	add	esp, 12					; 0000000cH
	push	eax
	mov	ecx, DWORD PTR _this$[ebp]
	call	??4Quaternion@Ogre@@QAEAAV01@ABV01@@Z	; Ogre::Quaternion::operator=

; 107  : 	}

	mov	esp, ebp
	pop	ebp
	ret	4
??XQuaternion@Ogre@@QAEXABV01@@Z ENDP			; Ogre::Quaternion::operator*=
; Function compile flags: /Odtp
; File i:\svnroot\client\ogremain\ogrequaternion.h
_TEXT	ENDS
;	COMDAT ??DOgre@@YA?AVQuaternion@0@ABV10@0@Z
_TEXT	SEGMENT
tv224 = -16						; size = 4
tv215 = -12						; size = 4
tv206 = -8						; size = 4
tv197 = -4						; size = 4
___$ReturnUdt$ = 8					; size = 4
_q1$ = 12						; size = 4
_q2$ = 16						; size = 4
??DOgre@@YA?AVQuaternion@0@ABV10@0@Z PROC		; Ogre::operator*, COMDAT

; 158  : 	{

	push	ebp
	mov	ebp, esp
	sub	esp, 16					; 00000010H

; 159  : 		return Quaternion( q2.x*q1.w + q2.w*q1.x + q2.y*q1.z - q2.z*q1.y,
; 160  : 			q2.y*q1.w + q2.w*q1.y + q2.z*q1.x - q2.x*q1.z,
; 161  : 			q2.z*q1.w + q2.w*q1.z + q2.x*q1.y - q2.y*q1.x,
; 162  : 			q2.w*q1.w - q2.x*q1.x - q2.y*q1.y - q2.z*q1.z );

	mov	eax, DWORD PTR _q2$[ebp]
	fld	DWORD PTR [eax+12]
	mov	ecx, DWORD PTR _q1$[ebp]
	fmul	DWORD PTR [ecx+12]
	mov	edx, DWORD PTR _q2$[ebp]
	fld	DWORD PTR [edx]
	mov	eax, DWORD PTR _q1$[ebp]
	fmul	DWORD PTR [eax]
	fsubp	ST(1), ST(0)
	mov	ecx, DWORD PTR _q2$[ebp]
	fld	DWORD PTR [ecx+4]
	mov	edx, DWORD PTR _q1$[ebp]
	fmul	DWORD PTR [edx+4]
	fsubp	ST(1), ST(0)
	mov	eax, DWORD PTR _q2$[ebp]
	fld	DWORD PTR [eax+8]
	mov	ecx, DWORD PTR _q1$[ebp]
	fmul	DWORD PTR [ecx+8]
	fsubp	ST(1), ST(0)
	fstp	DWORD PTR tv197[ebp]
	fld	DWORD PTR tv197[ebp]
	push	ecx
	fstp	DWORD PTR [esp]
	mov	edx, DWORD PTR _q2$[ebp]
	fld	DWORD PTR [edx+8]
	mov	eax, DWORD PTR _q1$[ebp]
	fmul	DWORD PTR [eax+12]
	mov	ecx, DWORD PTR _q2$[ebp]
	fld	DWORD PTR [ecx+12]
	mov	edx, DWORD PTR _q1$[ebp]
	fmul	DWORD PTR [edx+8]
	faddp	ST(1), ST(0)
	mov	eax, DWORD PTR _q2$[ebp]
	fld	DWORD PTR [eax]
	mov	ecx, DWORD PTR _q1$[ebp]
	fmul	DWORD PTR [ecx+4]
	faddp	ST(1), ST(0)
	mov	edx, DWORD PTR _q2$[ebp]
	fld	DWORD PTR [edx+4]
	mov	eax, DWORD PTR _q1$[ebp]
	fmul	DWORD PTR [eax]
	fsubp	ST(1), ST(0)
	fstp	DWORD PTR tv206[ebp]
	fld	DWORD PTR tv206[ebp]
	push	ecx
	fstp	DWORD PTR [esp]
	mov	ecx, DWORD PTR _q2$[ebp]
	fld	DWORD PTR [ecx+4]
	mov	edx, DWORD PTR _q1$[ebp]
	fmul	DWORD PTR [edx+12]
	mov	eax, DWORD PTR _q2$[ebp]
	fld	DWORD PTR [eax+12]
	mov	ecx, DWORD PTR _q1$[ebp]
	fmul	DWORD PTR [ecx+4]
	faddp	ST(1), ST(0)
	mov	edx, DWORD PTR _q2$[ebp]
	fld	DWORD PTR [edx+8]
	mov	eax, DWORD PTR _q1$[ebp]
	fmul	DWORD PTR [eax]
	faddp	ST(1), ST(0)
	mov	ecx, DWORD PTR _q2$[ebp]
	fld	DWORD PTR [ecx]
	mov	edx, DWORD PTR _q1$[ebp]
	fmul	DWORD PTR [edx+8]
	fsubp	ST(1), ST(0)
	fstp	DWORD PTR tv215[ebp]
	fld	DWORD PTR tv215[ebp]
	push	ecx
	fstp	DWORD PTR [esp]
	mov	eax, DWORD PTR _q2$[ebp]
	fld	DWORD PTR [eax]
	mov	ecx, DWORD PTR _q1$[ebp]
	fmul	DWORD PTR [ecx+12]
	mov	edx, DWORD PTR _q2$[ebp]
	fld	DWORD PTR [edx+12]
	mov	eax, DWORD PTR _q1$[ebp]
	fmul	DWORD PTR [eax]
	faddp	ST(1), ST(0)
	mov	ecx, DWORD PTR _q2$[ebp]
	fld	DWORD PTR [ecx+4]
	mov	edx, DWORD PTR _q1$[ebp]
	fmul	DWORD PTR [edx+8]
	faddp	ST(1), ST(0)
	mov	eax, DWORD PTR _q2$[ebp]
	fld	DWORD PTR [eax+8]
	mov	ecx, DWORD PTR _q1$[ebp]
	fmul	DWORD PTR [ecx+4]
	fsubp	ST(1), ST(0)
	fstp	DWORD PTR tv224[ebp]
	fld	DWORD PTR tv224[ebp]
	push	ecx
	fstp	DWORD PTR [esp]
	mov	ecx, DWORD PTR ___$ReturnUdt$[ebp]
	call	??0Quaternion@Ogre@@QAE@MMMM@Z		; Ogre::Quaternion::Quaternion
	mov	eax, DWORD PTR ___$ReturnUdt$[ebp]

; 163  : 	}

	mov	esp, ebp
	pop	ebp
	ret	0
??DOgre@@YA?AVQuaternion@0@ABV10@0@Z ENDP		; Ogre::operator*
_TEXT	ENDS
PUBLIC	?normalize@Quaternion@Ogre@@QAEXXZ		; Ogre::Quaternion::normalize
; Function compile flags: /Odtp
; File i:\svnroot\client\ogremain\ogrequaternion.cpp
_TEXT	SEGMENT
tv80 = -12						; size = 4
_this$ = -8						; size = 4
_tmp$ = -4						; size = 4
?normalize@Quaternion@Ogre@@QAEXXZ PROC			; Ogre::Quaternion::normalize
; _this$ = ecx

; 110  : 	{

	push	ebp
	mov	ebp, esp
	sub	esp, 12					; 0000000cH
	mov	DWORD PTR _this$[ebp], ecx

; 111  : 		float tmp = magnitude();

	mov	ecx, DWORD PTR _this$[ebp]
	call	?magnitude@Quaternion@Ogre@@QAEMXZ	; Ogre::Quaternion::magnitude
	fstp	DWORD PTR _tmp$[ebp]

; 112  : 		if( tmp > 0 ) *this *= 1.0f/tmp;

	fld	DWORD PTR _tmp$[ebp]
	fcomp	QWORD PTR __real@0000000000000000
	fnstsw	ax
	test	ah, 65					; 00000041H
	jne	SHORT $LN2@normalize
	fld	DWORD PTR _tmp$[ebp]
	fld1
	fdivrp	ST(1), ST(0)
	fstp	DWORD PTR tv80[ebp]
	fld	DWORD PTR tv80[ebp]
	push	ecx
	fstp	DWORD PTR [esp]
	mov	ecx, DWORD PTR _this$[ebp]
	call	??XQuaternion@Ogre@@QAEXM@Z		; Ogre::Quaternion::operator*=
	jmp	SHORT $LN1@normalize
$LN2@normalize:

; 113  : 		else identity();

	mov	ecx, DWORD PTR _this$[ebp]
	call	?identity@Quaternion@Ogre@@QAEXXZ	; Ogre::Quaternion::identity
$LN1@normalize:

; 114  : 	}

	mov	esp, ebp
	pop	ebp
	ret	0
?normalize@Quaternion@Ogre@@QAEXXZ ENDP			; Ogre::Quaternion::normalize
_TEXT	ENDS
PUBLIC	?Cos@Ogre@@YAMM@Z				; Ogre::Cos
PUBLIC	?Sin@Ogre@@YAMM@Z				; Ogre::Sin
PUBLIC	__real@3fe0000000000000
PUBLIC	?setAxisAngle@Quaternion@Ogre@@QAEXABVVector3@2@M@Z ; Ogre::Quaternion::setAxisAngle
;	COMDAT __real@3fe0000000000000
CONST	SEGMENT
__real@3fe0000000000000 DQ 03fe0000000000000r	; 0.5
; Function compile flags: /Odtp
CONST	ENDS
_TEXT	SEGMENT
_this$ = -8						; size = 4
_mysin$ = -4						; size = 4
_axis$ = 8						; size = 4
_angle$ = 12						; size = 4
?setAxisAngle@Quaternion@Ogre@@QAEXABVVector3@2@M@Z PROC ; Ogre::Quaternion::setAxisAngle
; _this$ = ecx

; 117  : 	{

	push	ebp
	mov	ebp, esp
	sub	esp, 8
	mov	DWORD PTR _this$[ebp], ecx

; 118  : 		assert( IsNormalized(axis) );
; 119  : 
; 120  : 		angle *= 0.5f;

	fld	DWORD PTR _angle$[ebp]
	fmul	QWORD PTR __real@3fe0000000000000
	fstp	DWORD PTR _angle$[ebp]

; 121  : 		float mysin = Sin(angle);

	push	ecx
	fld	DWORD PTR _angle$[ebp]
	fstp	DWORD PTR [esp]
	call	?Sin@Ogre@@YAMM@Z			; Ogre::Sin
	add	esp, 4
	fstp	DWORD PTR _mysin$[ebp]

; 122  : 		x = axis.x * mysin;

	mov	eax, DWORD PTR _axis$[ebp]
	fld	DWORD PTR [eax]
	fmul	DWORD PTR _mysin$[ebp]
	mov	ecx, DWORD PTR _this$[ebp]
	fstp	DWORD PTR [ecx]

; 123  : 		y = axis.y * mysin;

	mov	edx, DWORD PTR _axis$[ebp]
	fld	DWORD PTR [edx+4]
	fmul	DWORD PTR _mysin$[ebp]
	mov	eax, DWORD PTR _this$[ebp]
	fstp	DWORD PTR [eax+4]

; 124  : 		z = axis.z * mysin;

	mov	ecx, DWORD PTR _axis$[ebp]
	fld	DWORD PTR [ecx+8]
	fmul	DWORD PTR _mysin$[ebp]
	mov	edx, DWORD PTR _this$[ebp]
	fstp	DWORD PTR [edx+8]

; 125  : 		w = Cos(angle);

	push	ecx
	fld	DWORD PTR _angle$[ebp]
	fstp	DWORD PTR [esp]
	call	?Cos@Ogre@@YAMM@Z			; Ogre::Cos
	add	esp, 4
	mov	eax, DWORD PTR _this$[ebp]
	fstp	DWORD PTR [eax+12]

; 126  : 	}

	mov	esp, ebp
	pop	ebp
	ret	8
?setAxisAngle@Quaternion@Ogre@@QAEXABVVector3@2@M@Z ENDP ; Ogre::Quaternion::setAxisAngle
_TEXT	ENDS
PUBLIC	?sin@@YAMM@Z					; sin
PUBLIC	?Deg2Rad@Ogre@@YAMM@Z				; Ogre::Deg2Rad
; Function compile flags: /Odtp
; File i:\svnroot\client\ogremain\ogremath.h
;	COMDAT ?Sin@Ogre@@YAMM@Z
_TEXT	SEGMENT
_x$ = 8							; size = 4
?Sin@Ogre@@YAMM@Z PROC					; Ogre::Sin, COMDAT

; 26   : 	{

	push	ebp
	mov	ebp, esp

; 27   : 		return (float)sin( Deg2Rad(x) );

	push	ecx
	fld	DWORD PTR _x$[ebp]
	fstp	DWORD PTR [esp]
	call	?Deg2Rad@Ogre@@YAMM@Z			; Ogre::Deg2Rad
	fstp	DWORD PTR [esp]
	call	?sin@@YAMM@Z				; sin
	add	esp, 4

; 28   : 	}

	pop	ebp
	ret	0
?Sin@Ogre@@YAMM@Z ENDP					; Ogre::Sin
_TEXT	ENDS
PUBLIC	_sinf
; Function compile flags: /Odtp
; File d:\program files (x86)\microsoft visual studio 9.0\vc\include\math.h
;	COMDAT ?sin@@YAMM@Z
_TEXT	SEGMENT
__X$ = 8						; size = 4
?sin@@YAMM@Z PROC					; sin, COMDAT

; 530  :         {return (sinf(_X)); }

	push	ebp
	mov	ebp, esp
	push	ecx
	fld	DWORD PTR __X$[ebp]
	fstp	DWORD PTR [esp]
	call	_sinf
	add	esp, 4
	pop	ebp
	ret	0
?sin@@YAMM@Z ENDP					; sin
_TEXT	ENDS
EXTRN	_sin:PROC
; Function compile flags: /Odtp
;	COMDAT _sinf
_TEXT	SEGMENT
tv73 = -4						; size = 4
__X$ = 8						; size = 4
_sinf	PROC						; COMDAT

; 419  :         {return ((float)sin((double)_X)); }

	push	ebp
	mov	ebp, esp
	push	ecx
	fld	DWORD PTR __X$[ebp]
	sub	esp, 8
	fstp	QWORD PTR [esp]
	call	_sin
	add	esp, 8
	fstp	DWORD PTR tv73[ebp]
	fld	DWORD PTR tv73[ebp]
	mov	esp, ebp
	pop	ebp
	ret	0
_sinf	ENDP
; Function compile flags: /Odtp
; File i:\svnroot\client\ogremain\ogremath.h
_TEXT	ENDS
;	COMDAT ?Deg2Rad@Ogre@@YAMM@Z
_TEXT	SEGMENT
tv68 = -4						; size = 4
_x$ = 8							; size = 4
?Deg2Rad@Ogre@@YAMM@Z PROC				; Ogre::Deg2Rad, COMDAT

; 17   : 	{

	push	ebp
	mov	ebp, esp
	push	ecx

; 18   : 		return x*RADS_PER_DEG;

	fld	DWORD PTR _x$[ebp]
	fmul	DWORD PTR _RADS_PER_DEG
	fstp	DWORD PTR tv68[ebp]
	fld	DWORD PTR tv68[ebp]

; 19   : 	}

	mov	esp, ebp
	pop	ebp
	ret	0
?Deg2Rad@Ogre@@YAMM@Z ENDP				; Ogre::Deg2Rad
_TEXT	ENDS
PUBLIC	?cos@@YAMM@Z					; cos
; Function compile flags: /Odtp
;	COMDAT ?Cos@Ogre@@YAMM@Z
_TEXT	SEGMENT
_x$ = 8							; size = 4
?Cos@Ogre@@YAMM@Z PROC					; Ogre::Cos, COMDAT

; 31   : 	{

	push	ebp
	mov	ebp, esp

; 32   : 		return (float)cos( Deg2Rad(x) );

	push	ecx
	fld	DWORD PTR _x$[ebp]
	fstp	DWORD PTR [esp]
	call	?Deg2Rad@Ogre@@YAMM@Z			; Ogre::Deg2Rad
	fstp	DWORD PTR [esp]
	call	?cos@@YAMM@Z				; cos
	add	esp, 4

; 33   : 	}

	pop	ebp
	ret	0
?Cos@Ogre@@YAMM@Z ENDP					; Ogre::Cos
_TEXT	ENDS
PUBLIC	_cosf
; Function compile flags: /Odtp
; File d:\program files (x86)\microsoft visual studio 9.0\vc\include\math.h
;	COMDAT ?cos@@YAMM@Z
_TEXT	SEGMENT
__X$ = 8						; size = 4
?cos@@YAMM@Z PROC					; cos, COMDAT

; 504  :         {return (cosf(_X)); }

	push	ebp
	mov	ebp, esp
	push	ecx
	fld	DWORD PTR __X$[ebp]
	fstp	DWORD PTR [esp]
	call	_cosf
	add	esp, 4
	pop	ebp
	ret	0
?cos@@YAMM@Z ENDP					; cos
_TEXT	ENDS
EXTRN	_cos:PROC
; Function compile flags: /Odtp
;	COMDAT _cosf
_TEXT	SEGMENT
tv73 = -4						; size = 4
__X$ = 8						; size = 4
_cosf	PROC						; COMDAT

; 399  :         {return ((float)cos((double)_X)); }

	push	ebp
	mov	ebp, esp
	push	ecx
	fld	DWORD PTR __X$[ebp]
	sub	esp, 8
	fstp	QWORD PTR [esp]
	call	_cos
	add	esp, 8
	fstp	DWORD PTR tv73[ebp]
	fld	DWORD PTR tv73[ebp]
	mov	esp, ebp
	pop	ebp
	ret	0
_cosf	ENDP
_TEXT	ENDS
PUBLIC	?rotate@Quaternion@Ogre@@QAEXABVVector3@2@M@Z	; Ogre::Quaternion::rotate
; Function compile flags: /Odtp
; File i:\svnroot\client\ogremain\ogrequaternion.cpp
_TEXT	SEGMENT
_this$ = -36						; size = 4
$T63516 = -32						; size = 16
_rTemp$ = -16						; size = 16
_vAxis$ = 8						; size = 4
_fAngle$ = 12						; size = 4
?rotate@Quaternion@Ogre@@QAEXABVVector3@2@M@Z PROC	; Ogre::Quaternion::rotate
; _this$ = ecx

; 129  : 	{

	push	ebp
	mov	ebp, esp
	sub	esp, 36					; 00000024H
	mov	DWORD PTR _this$[ebp], ecx

; 130  : 		Quaternion rTemp;

	lea	ecx, DWORD PTR _rTemp$[ebp]
	call	??0Quaternion@Ogre@@QAE@XZ		; Ogre::Quaternion::Quaternion

; 131  : 		rTemp.setAxisAngle(vAxis, fAngle);

	push	ecx
	fld	DWORD PTR _fAngle$[ebp]
	fstp	DWORD PTR [esp]
	mov	eax, DWORD PTR _vAxis$[ebp]
	push	eax
	lea	ecx, DWORD PTR _rTemp$[ebp]
	call	?setAxisAngle@Quaternion@Ogre@@QAEXABVVector3@2@M@Z ; Ogre::Quaternion::setAxisAngle

; 132  : 		*this = (*this) * rTemp;

	lea	ecx, DWORD PTR _rTemp$[ebp]
	push	ecx
	mov	edx, DWORD PTR _this$[ebp]
	push	edx
	lea	eax, DWORD PTR $T63516[ebp]
	push	eax
	call	??DOgre@@YA?AVQuaternion@0@ABV10@0@Z	; Ogre::operator*
	add	esp, 12					; 0000000cH
	push	eax
	mov	ecx, DWORD PTR _this$[ebp]
	call	??4Quaternion@Ogre@@QAEAAV01@ABV01@@Z	; Ogre::Quaternion::operator=

; 133  : 	}

	mov	esp, ebp
	pop	ebp
	ret	8
?rotate@Quaternion@Ogre@@QAEXABVVector3@2@M@Z ENDP	; Ogre::Quaternion::rotate
_TEXT	ENDS
PUBLIC	?setAxisAngleX@Quaternion@Ogre@@QAEXM@Z		; Ogre::Quaternion::setAxisAngleX
; Function compile flags: /Odtp
_TEXT	SEGMENT
_this$ = -16						; size = 4
$T63518 = -12						; size = 12
_angle$ = 8						; size = 4
?setAxisAngleX@Quaternion@Ogre@@QAEXM@Z PROC		; Ogre::Quaternion::setAxisAngleX
; _this$ = ecx

; 136  : 	{

	push	ebp
	mov	ebp, esp
	sub	esp, 16					; 00000010H
	mov	DWORD PTR _this$[ebp], ecx

; 137  : 		setAxisAngle( Vector3(1,0,0), angle );

	push	ecx
	fld	DWORD PTR _angle$[ebp]
	fstp	DWORD PTR [esp]
	push	ecx
	fldz
	fstp	DWORD PTR [esp]
	push	ecx
	fldz
	fstp	DWORD PTR [esp]
	push	ecx
	fld1
	fstp	DWORD PTR [esp]
	lea	ecx, DWORD PTR $T63518[ebp]
	call	??0Vector3@Ogre@@QAE@MMM@Z		; Ogre::Vector3::Vector3
	push	eax
	mov	ecx, DWORD PTR _this$[ebp]
	call	?setAxisAngle@Quaternion@Ogre@@QAEXABVVector3@2@M@Z ; Ogre::Quaternion::setAxisAngle

; 138  : 	}

	mov	esp, ebp
	pop	ebp
	ret	4
?setAxisAngleX@Quaternion@Ogre@@QAEXM@Z ENDP		; Ogre::Quaternion::setAxisAngleX
_TEXT	ENDS
PUBLIC	?setAxisAngleY@Quaternion@Ogre@@QAEXM@Z		; Ogre::Quaternion::setAxisAngleY
; Function compile flags: /Odtp
_TEXT	SEGMENT
_this$ = -16						; size = 4
$T63520 = -12						; size = 12
_angle$ = 8						; size = 4
?setAxisAngleY@Quaternion@Ogre@@QAEXM@Z PROC		; Ogre::Quaternion::setAxisAngleY
; _this$ = ecx

; 141  : 	{

	push	ebp
	mov	ebp, esp
	sub	esp, 16					; 00000010H
	mov	DWORD PTR _this$[ebp], ecx

; 142  : 		setAxisAngle( Vector3(0,1,0), angle );

	push	ecx
	fld	DWORD PTR _angle$[ebp]
	fstp	DWORD PTR [esp]
	push	ecx
	fldz
	fstp	DWORD PTR [esp]
	push	ecx
	fld1
	fstp	DWORD PTR [esp]
	push	ecx
	fldz
	fstp	DWORD PTR [esp]
	lea	ecx, DWORD PTR $T63520[ebp]
	call	??0Vector3@Ogre@@QAE@MMM@Z		; Ogre::Vector3::Vector3
	push	eax
	mov	ecx, DWORD PTR _this$[ebp]
	call	?setAxisAngle@Quaternion@Ogre@@QAEXABVVector3@2@M@Z ; Ogre::Quaternion::setAxisAngle

; 143  : 	}

	mov	esp, ebp
	pop	ebp
	ret	4
?setAxisAngleY@Quaternion@Ogre@@QAEXM@Z ENDP		; Ogre::Quaternion::setAxisAngleY
_TEXT	ENDS
PUBLIC	?setAxisAngleZ@Quaternion@Ogre@@QAEXM@Z		; Ogre::Quaternion::setAxisAngleZ
; Function compile flags: /Odtp
_TEXT	SEGMENT
_this$ = -16						; size = 4
$T63522 = -12						; size = 12
_angle$ = 8						; size = 4
?setAxisAngleZ@Quaternion@Ogre@@QAEXM@Z PROC		; Ogre::Quaternion::setAxisAngleZ
; _this$ = ecx

; 146  : 	{

	push	ebp
	mov	ebp, esp
	sub	esp, 16					; 00000010H
	mov	DWORD PTR _this$[ebp], ecx

; 147  : 		setAxisAngle( Vector3(0,0,1), angle );

	push	ecx
	fld	DWORD PTR _angle$[ebp]
	fstp	DWORD PTR [esp]
	push	ecx
	fld1
	fstp	DWORD PTR [esp]
	push	ecx
	fldz
	fstp	DWORD PTR [esp]
	push	ecx
	fldz
	fstp	DWORD PTR [esp]
	lea	ecx, DWORD PTR $T63522[ebp]
	call	??0Vector3@Ogre@@QAE@MMM@Z		; Ogre::Vector3::Vector3
	push	eax
	mov	ecx, DWORD PTR _this$[ebp]
	call	?setAxisAngle@Quaternion@Ogre@@QAEXABVVector3@2@M@Z ; Ogre::Quaternion::setAxisAngle

; 148  : 	}

	mov	esp, ebp
	pop	ebp
	ret	4
?setAxisAngleZ@Quaternion@Ogre@@QAEXM@Z ENDP		; Ogre::Quaternion::setAxisAngleZ
_TEXT	ENDS
PUBLIC	??HOgre@@YA?AVQuaternion@0@ABV10@0@Z		; Ogre::operator+
PUBLIC	??DOgre@@YA?AVQuaternion@0@ABV10@M@Z		; Ogre::operator*
PUBLIC	?ACos@Ogre@@YAMM@Z				; Ogre::ACos
PUBLIC	__real@bf800000
PUBLIC	?DotProduct@Ogre@@YAMABVQuaternion@1@0@Z	; Ogre::DotProduct
PUBLIC	?slerp@Quaternion@Ogre@@QAEXABV12@0M@Z		; Ogre::Quaternion::slerp
;	COMDAT __real@bf800000
CONST	SEGMENT
__real@bf800000 DD 0bf800000r			; -1
; Function compile flags: /Odtp
CONST	ENDS
_TEXT	SEGMENT
tv188 = -88						; size = 4
_this$ = -84						; size = 4
$T63526 = -80						; size = 16
$T63525 = -64						; size = 16
$T63524 = -48						; size = 16
_theta$58331 = -32					; size = 4
_sin_theta$58332 = -28					; size = 4
_t_theta$58333 = -24					; size = 4
_inv_sin_theta$58334 = -20				; size = 4
_sign$ = -16						; size = 4
_c2$ = -12						; size = 4
_c1$ = -8						; size = 4
_cos_theta$ = -4					; size = 4
_q1$ = 8						; size = 4
_q2$ = 12						; size = 4
_t$ = 16						; size = 4
?slerp@Quaternion@Ogre@@QAEXABV12@0M@Z PROC		; Ogre::Quaternion::slerp
; _this$ = ecx

; 151  : 	{

	push	ebp
	mov	ebp, esp
	sub	esp, 88					; 00000058H
	mov	DWORD PTR _this$[ebp], ecx

; 152  : 		float cos_theta = DotProduct(q1, q2);

	mov	eax, DWORD PTR _q2$[ebp]
	push	eax
	mov	ecx, DWORD PTR _q1$[ebp]
	push	ecx
	call	?DotProduct@Ogre@@YAMABVQuaternion@1@0@Z ; Ogre::DotProduct
	add	esp, 8
	fstp	DWORD PTR _cos_theta$[ebp]

; 153  : 
; 154  : 		// if B is on opposite hemisphere from A, use -B instead
; 155  : 		float sign;
; 156  : 		if ( cos_theta < 0.f )

	fld	DWORD PTR _cos_theta$[ebp]
	fcomp	QWORD PTR __real@0000000000000000
	fnstsw	ax
	test	ah, 5
	jp	SHORT $LN4@slerp

; 157  : 		{
; 158  : 			cos_theta = -cos_theta;

	fld	DWORD PTR _cos_theta$[ebp]
	fchs
	fstp	DWORD PTR _cos_theta$[ebp]

; 159  : 			sign = -1.f;

	fld	DWORD PTR __real@bf800000
	fstp	DWORD PTR _sign$[ebp]
	jmp	SHORT $LN3@slerp
$LN4@slerp:

; 160  : 		}
; 161  : 		else sign = 1.f;

	fld1
	fstp	DWORD PTR _sign$[ebp]
$LN3@slerp:

; 162  : 
; 163  : 		float c1,c2;
; 164  : 		if( cos_theta > 1.f - EPSILON )

	fld	DWORD PTR _EPSILON
	fld1
	fsubrp	ST(1), ST(0)
	fld	DWORD PTR _cos_theta$[ebp]
	fcompp
	fnstsw	ax
	test	ah, 65					; 00000041H
	jne	SHORT $LN2@slerp

; 165  : 		{
; 166  : 			// if q2 is (within precision limits) the same as q1,
; 167  : 			// just linear interpolate between A and B.
; 168  : 
; 169  : 			c2 = t;

	fld	DWORD PTR _t$[ebp]
	fstp	DWORD PTR _c2$[ebp]

; 170  : 			c1 = 1.f - t;

	fld	DWORD PTR _t$[ebp]
	fld1
	fsubrp	ST(1), ST(0)
	fstp	DWORD PTR _c1$[ebp]

; 171  : 		}
; 172  : 		else

	jmp	SHORT $LN1@slerp
$LN2@slerp:

; 173  : 		{
; 174  : 			//float theta = gFloat::ArcCosTable(cos_theta);
; 175  : 			// faster than table-based :
; 176  : 			//const float theta = myacos(cos_theta);
; 177  : 			float theta = ACos(cos_theta);

	push	ecx
	fld	DWORD PTR _cos_theta$[ebp]
	fstp	DWORD PTR [esp]
	call	?ACos@Ogre@@YAMM@Z			; Ogre::ACos
	add	esp, 4
	fstp	DWORD PTR _theta$58331[ebp]

; 178  : 			float sin_theta = Sin(theta);

	push	ecx
	fld	DWORD PTR _theta$58331[ebp]
	fstp	DWORD PTR [esp]
	call	?Sin@Ogre@@YAMM@Z			; Ogre::Sin
	add	esp, 4
	fstp	DWORD PTR _sin_theta$58332[ebp]

; 179  : 			float t_theta = t*theta;

	fld	DWORD PTR _t$[ebp]
	fmul	DWORD PTR _theta$58331[ebp]
	fstp	DWORD PTR _t_theta$58333[ebp]

; 180  : 			float inv_sin_theta = 1.f / sin_theta;

	fld	DWORD PTR _sin_theta$58332[ebp]
	fld1
	fdivrp	ST(1), ST(0)
	fstp	DWORD PTR _inv_sin_theta$58334[ebp]

; 181  : 			c2 = Sin(        t_theta) * inv_sin_theta;

	push	ecx
	fld	DWORD PTR _t_theta$58333[ebp]
	fstp	DWORD PTR [esp]
	call	?Sin@Ogre@@YAMM@Z			; Ogre::Sin
	add	esp, 4
	fmul	DWORD PTR _inv_sin_theta$58334[ebp]
	fstp	DWORD PTR _c2$[ebp]

; 182  : 			c1 = Sin(theta - t_theta) * inv_sin_theta;

	fld	DWORD PTR _theta$58331[ebp]
	fsub	DWORD PTR _t_theta$58333[ebp]
	fstp	DWORD PTR tv188[ebp]
	fld	DWORD PTR tv188[ebp]
	push	ecx
	fstp	DWORD PTR [esp]
	call	?Sin@Ogre@@YAMM@Z			; Ogre::Sin
	add	esp, 4
	fmul	DWORD PTR _inv_sin_theta$58334[ebp]
	fstp	DWORD PTR _c1$[ebp]
$LN1@slerp:

; 183  : 		}
; 184  : 
; 185  : 		c2 *= sign; // or c1 *= sign

	fld	DWORD PTR _c2$[ebp]
	fmul	DWORD PTR _sign$[ebp]
	fstp	DWORD PTR _c2$[ebp]

; 186  : 		// just affects the overrall sign of the output
; 187  : 
; 188  : 		// interpolate
; 189  : 		*this = q1*c1 + q2*c2;

	push	ecx
	fld	DWORD PTR _c2$[ebp]
	fstp	DWORD PTR [esp]
	mov	edx, DWORD PTR _q2$[ebp]
	push	edx
	lea	eax, DWORD PTR $T63524[ebp]
	push	eax
	call	??DOgre@@YA?AVQuaternion@0@ABV10@M@Z	; Ogre::operator*
	add	esp, 12					; 0000000cH
	push	eax
	push	ecx
	fld	DWORD PTR _c1$[ebp]
	fstp	DWORD PTR [esp]
	mov	ecx, DWORD PTR _q1$[ebp]
	push	ecx
	lea	edx, DWORD PTR $T63525[ebp]
	push	edx
	call	??DOgre@@YA?AVQuaternion@0@ABV10@M@Z	; Ogre::operator*
	add	esp, 12					; 0000000cH
	push	eax
	lea	eax, DWORD PTR $T63526[ebp]
	push	eax
	call	??HOgre@@YA?AVQuaternion@0@ABV10@0@Z	; Ogre::operator+
	add	esp, 12					; 0000000cH
	push	eax
	mov	ecx, DWORD PTR _this$[ebp]
	call	??4Quaternion@Ogre@@QAEAAV01@ABV01@@Z	; Ogre::Quaternion::operator=

; 190  : 	}

	mov	esp, ebp
	pop	ebp
	ret	12					; 0000000cH
?slerp@Quaternion@Ogre@@QAEXABV12@0M@Z ENDP		; Ogre::Quaternion::slerp
_TEXT	ENDS
PUBLIC	?Rad2Deg@Ogre@@YAMM@Z				; Ogre::Rad2Deg
PUBLIC	?acos@@YAMM@Z					; acos
; Function compile flags: /Odtp
; File i:\svnroot\client\ogremain\ogremath.h
;	COMDAT ?ACos@Ogre@@YAMM@Z
_TEXT	SEGMENT
_x$ = 8							; size = 4
?ACos@Ogre@@YAMM@Z PROC					; Ogre::ACos, COMDAT

; 54   : 	{

	push	ebp
	mov	ebp, esp

; 55   : 		return Rad2Deg((float)acos(x));

	push	ecx
	fld	DWORD PTR _x$[ebp]
	fstp	DWORD PTR [esp]
	call	?acos@@YAMM@Z				; acos
	fstp	DWORD PTR [esp]
	call	?Rad2Deg@Ogre@@YAMM@Z			; Ogre::Rad2Deg
	add	esp, 4

; 56   : 	}

	pop	ebp
	ret	0
?ACos@Ogre@@YAMM@Z ENDP					; Ogre::ACos
_TEXT	ENDS
PUBLIC	_acosf
; Function compile flags: /Odtp
; File d:\program files (x86)\microsoft visual studio 9.0\vc\include\math.h
;	COMDAT ?acos@@YAMM@Z
_TEXT	SEGMENT
__X$ = 8						; size = 4
?acos@@YAMM@Z PROC					; acos, COMDAT

; 494  :         {return (acosf(_X)); }

	push	ebp
	mov	ebp, esp
	push	ecx
	fld	DWORD PTR __X$[ebp]
	fstp	DWORD PTR [esp]
	call	_acosf
	add	esp, 4
	pop	ebp
	ret	0
?acos@@YAMM@Z ENDP					; acos
_TEXT	ENDS
EXTRN	_acos:PROC
; Function compile flags: /Odtp
;	COMDAT _acosf
_TEXT	SEGMENT
tv73 = -4						; size = 4
__X$ = 8						; size = 4
_acosf	PROC						; COMDAT

; 389  :         {return ((float)acos((double)_X)); }

	push	ebp
	mov	ebp, esp
	push	ecx
	fld	DWORD PTR __X$[ebp]
	sub	esp, 8
	fstp	QWORD PTR [esp]
	call	_acos
	add	esp, 8
	fstp	DWORD PTR tv73[ebp]
	fld	DWORD PTR tv73[ebp]
	mov	esp, ebp
	pop	ebp
	ret	0
_acosf	ENDP
; Function compile flags: /Odtp
; File i:\svnroot\client\ogremain\ogremath.h
_TEXT	ENDS
;	COMDAT ?Rad2Deg@Ogre@@YAMM@Z
_TEXT	SEGMENT
tv68 = -4						; size = 4
_x$ = 8							; size = 4
?Rad2Deg@Ogre@@YAMM@Z PROC				; Ogre::Rad2Deg, COMDAT

; 21   : 	{

	push	ebp
	mov	ebp, esp
	push	ecx

; 22   : 		return x*DEGS_PER_RAD;

	fld	DWORD PTR _x$[ebp]
	fmul	DWORD PTR _DEGS_PER_RAD
	fstp	DWORD PTR tv68[ebp]
	fld	DWORD PTR tv68[ebp]

; 23   : 	}

	mov	esp, ebp
	pop	ebp
	ret	0
?Rad2Deg@Ogre@@YAMM@Z ENDP				; Ogre::Rad2Deg
; Function compile flags: /Odtp
; File i:\svnroot\client\ogremain\ogrequaternion.h
_TEXT	ENDS
;	COMDAT ??DOgre@@YA?AVQuaternion@0@ABV10@M@Z
_TEXT	SEGMENT
tv95 = -16						; size = 4
tv93 = -12						; size = 4
tv91 = -8						; size = 4
tv89 = -4						; size = 4
___$ReturnUdt$ = 8					; size = 4
_q$ = 12						; size = 4
_s$ = 16						; size = 4
??DOgre@@YA?AVQuaternion@0@ABV10@M@Z PROC		; Ogre::operator*, COMDAT

; 143  : 	{

	push	ebp
	mov	ebp, esp
	sub	esp, 16					; 00000010H

; 144  : 		return Quaternion(q.x*s, q.y*s, q.z*s, q.w*s);

	mov	eax, DWORD PTR _q$[ebp]
	fld	DWORD PTR [eax+12]
	fmul	DWORD PTR _s$[ebp]
	fstp	DWORD PTR tv89[ebp]
	fld	DWORD PTR tv89[ebp]
	push	ecx
	fstp	DWORD PTR [esp]
	mov	ecx, DWORD PTR _q$[ebp]
	fld	DWORD PTR [ecx+8]
	fmul	DWORD PTR _s$[ebp]
	fstp	DWORD PTR tv91[ebp]
	fld	DWORD PTR tv91[ebp]
	push	ecx
	fstp	DWORD PTR [esp]
	mov	edx, DWORD PTR _q$[ebp]
	fld	DWORD PTR [edx+4]
	fmul	DWORD PTR _s$[ebp]
	fstp	DWORD PTR tv93[ebp]
	fld	DWORD PTR tv93[ebp]
	push	ecx
	fstp	DWORD PTR [esp]
	mov	eax, DWORD PTR _q$[ebp]
	fld	DWORD PTR [eax]
	fmul	DWORD PTR _s$[ebp]
	fstp	DWORD PTR tv95[ebp]
	fld	DWORD PTR tv95[ebp]
	push	ecx
	fstp	DWORD PTR [esp]
	mov	ecx, DWORD PTR ___$ReturnUdt$[ebp]
	call	??0Quaternion@Ogre@@QAE@MMMM@Z		; Ogre::Quaternion::Quaternion
	mov	eax, DWORD PTR ___$ReturnUdt$[ebp]

; 145  : 	}

	mov	esp, ebp
	pop	ebp
	ret	0
??DOgre@@YA?AVQuaternion@0@ABV10@M@Z ENDP		; Ogre::operator*
; Function compile flags: /Odtp
_TEXT	ENDS
;	COMDAT ??HOgre@@YA?AVQuaternion@0@ABV10@0@Z
_TEXT	SEGMENT
tv134 = -16						; size = 4
tv131 = -12						; size = 4
tv128 = -8						; size = 4
tv93 = -4						; size = 4
___$ReturnUdt$ = 8					; size = 4
_q1$ = 12						; size = 4
_q2$ = 16						; size = 4
??HOgre@@YA?AVQuaternion@0@ABV10@0@Z PROC		; Ogre::operator+, COMDAT

; 148  : 	{

	push	ebp
	mov	ebp, esp
	sub	esp, 16					; 00000010H

; 149  : 		return Quaternion(q1.x+q2.x, q1.y+q2.y, q1.z+q2.z, q1.w+q2.w);

	mov	eax, DWORD PTR _q1$[ebp]
	fld	DWORD PTR [eax+12]
	mov	ecx, DWORD PTR _q2$[ebp]
	fadd	DWORD PTR [ecx+12]
	fstp	DWORD PTR tv93[ebp]
	fld	DWORD PTR tv93[ebp]
	push	ecx
	fstp	DWORD PTR [esp]
	mov	edx, DWORD PTR _q1$[ebp]
	fld	DWORD PTR [edx+8]
	mov	eax, DWORD PTR _q2$[ebp]
	fadd	DWORD PTR [eax+8]
	fstp	DWORD PTR tv128[ebp]
	fld	DWORD PTR tv128[ebp]
	push	ecx
	fstp	DWORD PTR [esp]
	mov	ecx, DWORD PTR _q1$[ebp]
	fld	DWORD PTR [ecx+4]
	mov	edx, DWORD PTR _q2$[ebp]
	fadd	DWORD PTR [edx+4]
	fstp	DWORD PTR tv131[ebp]
	fld	DWORD PTR tv131[ebp]
	push	ecx
	fstp	DWORD PTR [esp]
	mov	eax, DWORD PTR _q1$[ebp]
	fld	DWORD PTR [eax]
	mov	ecx, DWORD PTR _q2$[ebp]
	fadd	DWORD PTR [ecx]
	fstp	DWORD PTR tv134[ebp]
	fld	DWORD PTR tv134[ebp]
	push	ecx
	fstp	DWORD PTR [esp]
	mov	ecx, DWORD PTR ___$ReturnUdt$[ebp]
	call	??0Quaternion@Ogre@@QAE@MMMM@Z		; Ogre::Quaternion::Quaternion
	mov	eax, DWORD PTR ___$ReturnUdt$[ebp]

; 150  : 	}

	mov	esp, ebp
	pop	ebp
	ret	0
??HOgre@@YA?AVQuaternion@0@ABV10@0@Z ENDP		; Ogre::operator+
; Function compile flags: /Odtp
_TEXT	ENDS
;	COMDAT ?DotProduct@Ogre@@YAMABVQuaternion@1@0@Z
_TEXT	SEGMENT
tv94 = -4						; size = 4
_q1$ = 8						; size = 4
_q2$ = 12						; size = 4
?DotProduct@Ogre@@YAMABVQuaternion@1@0@Z PROC		; Ogre::DotProduct, COMDAT

; 153  : 	{

	push	ebp
	mov	ebp, esp
	push	ecx

; 154  : 		return q1.x*q2.x + q1.y*q2.y + q1.z*q2.z + q1.w*q2.w;

	mov	eax, DWORD PTR _q1$[ebp]
	fld	DWORD PTR [eax]
	mov	ecx, DWORD PTR _q2$[ebp]
	fmul	DWORD PTR [ecx]
	mov	edx, DWORD PTR _q1$[ebp]
	fld	DWORD PTR [edx+4]
	mov	eax, DWORD PTR _q2$[ebp]
	fmul	DWORD PTR [eax+4]
	faddp	ST(1), ST(0)
	mov	ecx, DWORD PTR _q1$[ebp]
	fld	DWORD PTR [ecx+8]
	mov	edx, DWORD PTR _q2$[ebp]
	fmul	DWORD PTR [edx+8]
	faddp	ST(1), ST(0)
	mov	eax, DWORD PTR _q1$[ebp]
	fld	DWORD PTR [eax+12]
	mov	ecx, DWORD PTR _q2$[ebp]
	fmul	DWORD PTR [ecx+12]
	faddp	ST(1), ST(0)
	fstp	DWORD PTR tv94[ebp]
	fld	DWORD PTR tv94[ebp]

; 155  : 	}

	mov	esp, ebp
	pop	ebp
	ret	0
?DotProduct@Ogre@@YAMABVQuaternion@1@0@Z ENDP		; Ogre::DotProduct
_TEXT	ENDS
PUBLIC	?rotate@Quaternion@Ogre@@QBEXAAVVector3@2@ABV32@@Z ; Ogre::Quaternion::rotate
; Function compile flags: /Odtp
; File i:\svnroot\client\ogremain\ogrequaternion.cpp
_TEXT	SEGMENT
tv272 = -64						; size = 4
tv264 = -60						; size = 4
tv256 = -56						; size = 4
_this$ = -52						; size = 4
_yy$ = -48						; size = 4
_xy$ = -44						; size = 4
_ys$ = -40						; size = 4
_wx$ = -36						; size = 4
_zz$ = -32						; size = 4
_xs$ = -28						; size = 4
_zs$ = -24						; size = 4
_wy$ = -20						; size = 4
_wz$ = -16						; size = 4
_xz$ = -12						; size = 4
_yz$ = -8						; size = 4
_xx$ = -4						; size = 4
_dest$ = 8						; size = 4
_src$ = 12						; size = 4
?rotate@Quaternion@Ogre@@QBEXAAVVector3@2@ABV32@@Z PROC	; Ogre::Quaternion::rotate
; _this$ = ecx

; 193  : 	{

	push	ebp
	mov	ebp, esp
	sub	esp, 64					; 00000040H
	mov	DWORD PTR _this$[ebp], ecx

; 194  : 		// we're basically making the matrix and applying it to the gvector
; 195  : 		// 18 muls
; 196  : 		float xs = x * 2.f;

	mov	eax, DWORD PTR _this$[ebp]
	fld	DWORD PTR [eax]
	fadd	ST(0), ST(0)
	fstp	DWORD PTR _xs$[ebp]

; 197  : 		float ys = y * 2.f;

	mov	ecx, DWORD PTR _this$[ebp]
	fld	DWORD PTR [ecx+4]
	fadd	ST(0), ST(0)
	fstp	DWORD PTR _ys$[ebp]

; 198  : 		float zs = z * 2.f;

	mov	edx, DWORD PTR _this$[ebp]
	fld	DWORD PTR [edx+8]
	fadd	ST(0), ST(0)
	fstp	DWORD PTR _zs$[ebp]

; 199  : 
; 200  : 		float wx = w * xs;

	mov	eax, DWORD PTR _this$[ebp]
	fld	DWORD PTR [eax+12]
	fmul	DWORD PTR _xs$[ebp]
	fstp	DWORD PTR _wx$[ebp]

; 201  : 		float wy = w * ys;

	mov	ecx, DWORD PTR _this$[ebp]
	fld	DWORD PTR [ecx+12]
	fmul	DWORD PTR _ys$[ebp]
	fstp	DWORD PTR _wy$[ebp]

; 202  : 		float wz = w * zs;

	mov	edx, DWORD PTR _this$[ebp]
	fld	DWORD PTR [edx+12]
	fmul	DWORD PTR _zs$[ebp]
	fstp	DWORD PTR _wz$[ebp]

; 203  : 
; 204  : 		float xx = x * xs;

	mov	eax, DWORD PTR _this$[ebp]
	fld	DWORD PTR [eax]
	fmul	DWORD PTR _xs$[ebp]
	fstp	DWORD PTR _xx$[ebp]

; 205  : 		float yy = y * ys;

	mov	ecx, DWORD PTR _this$[ebp]
	fld	DWORD PTR [ecx+4]
	fmul	DWORD PTR _ys$[ebp]
	fstp	DWORD PTR _yy$[ebp]

; 206  : 		float zz = z * zs;

	mov	edx, DWORD PTR _this$[ebp]
	fld	DWORD PTR [edx+8]
	fmul	DWORD PTR _zs$[ebp]
	fstp	DWORD PTR _zz$[ebp]

; 207  : 		float xy = x * ys;

	mov	eax, DWORD PTR _this$[ebp]
	fld	DWORD PTR [eax]
	fmul	DWORD PTR _ys$[ebp]
	fstp	DWORD PTR _xy$[ebp]

; 208  : 		float xz = x * zs;

	mov	ecx, DWORD PTR _this$[ebp]
	fld	DWORD PTR [ecx]
	fmul	DWORD PTR _zs$[ebp]
	fstp	DWORD PTR _xz$[ebp]

; 209  : 		float yz = y * zs;

	mov	edx, DWORD PTR _this$[ebp]
	fld	DWORD PTR [edx+4]
	fmul	DWORD PTR _zs$[ebp]
	fstp	DWORD PTR _yz$[ebp]

; 210  : 
; 211  : 		dest.setElement(
; 212  : 			(1 - yy - zz) * src.x +     (xy - wz) * src.y +     (xz + wy) * src.z,
; 213  : 			(xy + wz) * src.x + (1 - xx - zz) * src.y +     (yz - wx) * src.z,
; 214  : 			(xz - wy) * src.x +     (yz + wx) * src.y + (1 - xx - yy) * src.z );

	fld	DWORD PTR _xz$[ebp]
	fsub	DWORD PTR _wy$[ebp]
	mov	eax, DWORD PTR _src$[ebp]
	fmul	DWORD PTR [eax]
	fld	DWORD PTR _yz$[ebp]
	fadd	DWORD PTR _wx$[ebp]
	mov	ecx, DWORD PTR _src$[ebp]
	fmul	DWORD PTR [ecx+4]
	faddp	ST(1), ST(0)
	fld	DWORD PTR _xx$[ebp]
	fld1
	fsubrp	ST(1), ST(0)
	fsub	DWORD PTR _yy$[ebp]
	mov	edx, DWORD PTR _src$[ebp]
	fmul	DWORD PTR [edx+8]
	faddp	ST(1), ST(0)
	fstp	DWORD PTR tv256[ebp]
	fld	DWORD PTR tv256[ebp]
	push	ecx
	fstp	DWORD PTR [esp]
	fld	DWORD PTR _xy$[ebp]
	fadd	DWORD PTR _wz$[ebp]
	mov	eax, DWORD PTR _src$[ebp]
	fmul	DWORD PTR [eax]
	fld	DWORD PTR _xx$[ebp]
	fld1
	fsubrp	ST(1), ST(0)
	fsub	DWORD PTR _zz$[ebp]
	mov	ecx, DWORD PTR _src$[ebp]
	fmul	DWORD PTR [ecx+4]
	faddp	ST(1), ST(0)
	fld	DWORD PTR _yz$[ebp]
	fsub	DWORD PTR _wx$[ebp]
	mov	edx, DWORD PTR _src$[ebp]
	fmul	DWORD PTR [edx+8]
	faddp	ST(1), ST(0)
	fstp	DWORD PTR tv264[ebp]
	fld	DWORD PTR tv264[ebp]
	push	ecx
	fstp	DWORD PTR [esp]
	fld	DWORD PTR _yy$[ebp]
	fld1
	fsubrp	ST(1), ST(0)
	fsub	DWORD PTR _zz$[ebp]
	mov	eax, DWORD PTR _src$[ebp]
	fmul	DWORD PTR [eax]
	fld	DWORD PTR _xy$[ebp]
	fsub	DWORD PTR _wz$[ebp]
	mov	ecx, DWORD PTR _src$[ebp]
	fmul	DWORD PTR [ecx+4]
	faddp	ST(1), ST(0)
	fld	DWORD PTR _xz$[ebp]
	fadd	DWORD PTR _wy$[ebp]
	mov	edx, DWORD PTR _src$[ebp]
	fmul	DWORD PTR [edx+8]
	faddp	ST(1), ST(0)
	fstp	DWORD PTR tv272[ebp]
	fld	DWORD PTR tv272[ebp]
	push	ecx
	fstp	DWORD PTR [esp]
	mov	ecx, DWORD PTR _dest$[ebp]
	call	?setElement@Vector3@Ogre@@QAEXMMM@Z	; Ogre::Vector3::setElement

; 215  : 	}

	mov	esp, ebp
	pop	ebp
	ret	8
?rotate@Quaternion@Ogre@@QBEXAAVVector3@2@ABV32@@Z ENDP	; Ogre::Quaternion::rotate
_TEXT	ENDS
PUBLIC	?rotate@Quaternion@Ogre@@QBEXAAVWorldPos@2@ABV32@@Z ; Ogre::Quaternion::rotate
; Function compile flags: /Odtp
_TEXT	SEGMENT
_this$ = -76						; size = 4
_yy$ = -72						; size = 4
_xy$ = -68						; size = 4
_src_x$ = -64						; size = 8
_ys$ = -56						; size = 4
_wx$ = -52						; size = 4
_zz$ = -48						; size = 4
_xs$ = -44						; size = 4
_zs$ = -40						; size = 4
_wy$ = -36						; size = 4
_wz$ = -32						; size = 4
_xz$ = -28						; size = 4
_yz$ = -24						; size = 4
_xx$ = -20						; size = 4
_src_y$ = -16						; size = 8
_src_z$ = -8						; size = 8
_dest$ = 8						; size = 4
_src$ = 12						; size = 4
?rotate@Quaternion@Ogre@@QBEXAAVWorldPos@2@ABV32@@Z PROC ; Ogre::Quaternion::rotate
; _this$ = ecx

; 218  : 	{

	push	ebp
	mov	ebp, esp
	sub	esp, 76					; 0000004cH
	mov	DWORD PTR _this$[ebp], ecx

; 219  : 		float xs = x * 2.f;

	mov	eax, DWORD PTR _this$[ebp]
	fld	DWORD PTR [eax]
	fadd	ST(0), ST(0)
	fstp	DWORD PTR _xs$[ebp]

; 220  : 		float ys = y * 2.f;

	mov	ecx, DWORD PTR _this$[ebp]
	fld	DWORD PTR [ecx+4]
	fadd	ST(0), ST(0)
	fstp	DWORD PTR _ys$[ebp]

; 221  : 		float zs = z * 2.f;

	mov	edx, DWORD PTR _this$[ebp]
	fld	DWORD PTR [edx+8]
	fadd	ST(0), ST(0)
	fstp	DWORD PTR _zs$[ebp]

; 222  : 
; 223  : 		float wx = w * xs;

	mov	eax, DWORD PTR _this$[ebp]
	fld	DWORD PTR [eax+12]
	fmul	DWORD PTR _xs$[ebp]
	fstp	DWORD PTR _wx$[ebp]

; 224  : 		float wy = w * ys;

	mov	ecx, DWORD PTR _this$[ebp]
	fld	DWORD PTR [ecx+12]
	fmul	DWORD PTR _ys$[ebp]
	fstp	DWORD PTR _wy$[ebp]

; 225  : 		float wz = w * zs;

	mov	edx, DWORD PTR _this$[ebp]
	fld	DWORD PTR [edx+12]
	fmul	DWORD PTR _zs$[ebp]
	fstp	DWORD PTR _wz$[ebp]

; 226  : 
; 227  : 		float xx = x * xs;

	mov	eax, DWORD PTR _this$[ebp]
	fld	DWORD PTR [eax]
	fmul	DWORD PTR _xs$[ebp]
	fstp	DWORD PTR _xx$[ebp]

; 228  : 		float yy = y * ys;

	mov	ecx, DWORD PTR _this$[ebp]
	fld	DWORD PTR [ecx+4]
	fmul	DWORD PTR _ys$[ebp]
	fstp	DWORD PTR _yy$[ebp]

; 229  : 		float zz = z * zs;

	mov	edx, DWORD PTR _this$[ebp]
	fld	DWORD PTR [edx+8]
	fmul	DWORD PTR _zs$[ebp]
	fstp	DWORD PTR _zz$[ebp]

; 230  : 		float xy = x * ys;

	mov	eax, DWORD PTR _this$[ebp]
	fld	DWORD PTR [eax]
	fmul	DWORD PTR _ys$[ebp]
	fstp	DWORD PTR _xy$[ebp]

; 231  : 		float xz = x * zs;

	mov	ecx, DWORD PTR _this$[ebp]
	fld	DWORD PTR [ecx]
	fmul	DWORD PTR _zs$[ebp]
	fstp	DWORD PTR _xz$[ebp]

; 232  : 		float yz = y * zs;

	mov	edx, DWORD PTR _this$[ebp]
	fld	DWORD PTR [edx+4]
	fmul	DWORD PTR _zs$[ebp]
	fstp	DWORD PTR _yz$[ebp]

; 233  : 
; 234  : 		double src_x = double(src.x);

	mov	eax, DWORD PTR _src$[ebp]
	fild	DWORD PTR [eax]
	fstp	QWORD PTR _src_x$[ebp]

; 235  : 		double src_y = double(src.y);

	mov	ecx, DWORD PTR _src$[ebp]
	fild	DWORD PTR [ecx+4]
	fstp	QWORD PTR _src_y$[ebp]

; 236  : 		double src_z = double(src.z);

	mov	edx, DWORD PTR _src$[ebp]
	fild	DWORD PTR [edx+8]
	fstp	QWORD PTR _src_z$[ebp]

; 237  : 		dest.x = (WPOS_T)( (1 - yy - zz)*src_x + (xy - wz)*src_y + (xz + wy)*src_z );

	fld	DWORD PTR _yy$[ebp]
	fld1
	fsubrp	ST(1), ST(0)
	fsub	DWORD PTR _zz$[ebp]
	fmul	QWORD PTR _src_x$[ebp]
	fld	DWORD PTR _xy$[ebp]
	fsub	DWORD PTR _wz$[ebp]
	fmul	QWORD PTR _src_y$[ebp]
	faddp	ST(1), ST(0)
	fld	DWORD PTR _xz$[ebp]
	fadd	DWORD PTR _wy$[ebp]
	fmul	QWORD PTR _src_z$[ebp]
	faddp	ST(1), ST(0)
	call	__ftol2_sse
	mov	ecx, DWORD PTR _dest$[ebp]
	mov	DWORD PTR [ecx], eax

; 238  : 		dest.y = (WPOS_T)( (xy + wz)*src_x + (1 - xx - zz)*src_y + (yz - wx)*src_z );

	fld	DWORD PTR _xy$[ebp]
	fadd	DWORD PTR _wz$[ebp]
	fmul	QWORD PTR _src_x$[ebp]
	fld	DWORD PTR _xx$[ebp]
	fld1
	fsubrp	ST(1), ST(0)
	fsub	DWORD PTR _zz$[ebp]
	fmul	QWORD PTR _src_y$[ebp]
	faddp	ST(1), ST(0)
	fld	DWORD PTR _yz$[ebp]
	fsub	DWORD PTR _wx$[ebp]
	fmul	QWORD PTR _src_z$[ebp]
	faddp	ST(1), ST(0)
	call	__ftol2_sse
	mov	edx, DWORD PTR _dest$[ebp]
	mov	DWORD PTR [edx+4], eax

; 239  : 		dest.z = (WPOS_T)( (xz - wy)*src_x + (yz + wx)*src_y + (1 - xx - yy)*src_z );

	fld	DWORD PTR _xz$[ebp]
	fsub	DWORD PTR _wy$[ebp]
	fmul	QWORD PTR _src_x$[ebp]
	fld	DWORD PTR _yz$[ebp]
	fadd	DWORD PTR _wx$[ebp]
	fmul	QWORD PTR _src_y$[ebp]
	faddp	ST(1), ST(0)
	fld	DWORD PTR _xx$[ebp]
	fld1
	fsubrp	ST(1), ST(0)
	fsub	DWORD PTR _yy$[ebp]
	fmul	QWORD PTR _src_z$[ebp]
	faddp	ST(1), ST(0)
	call	__ftol2_sse
	mov	ecx, DWORD PTR _dest$[ebp]
	mov	DWORD PTR [ecx+8], eax

; 240  : 	}

	mov	esp, ebp
	pop	ebp
	ret	8
?rotate@Quaternion@Ogre@@QBEXAAVWorldPos@2@ABV32@@Z ENDP ; Ogre::Quaternion::rotate
_TEXT	ENDS
PUBLIC	?getMatrix@Quaternion@Ogre@@QBEXAAVMatrix4@2@@Z	; Ogre::Quaternion::getMatrix
; Function compile flags: /Odtp
_TEXT	SEGMENT
tv263 = -88						; size = 4
tv262 = -84						; size = 4
tv261 = -80						; size = 4
tv251 = -76						; size = 4
tv250 = -72						; size = 4
tv248 = -68						; size = 4
tv239 = -64						; size = 4
tv237 = -60						; size = 4
tv236 = -56						; size = 4
_this$ = -52						; size = 4
_yy$ = -48						; size = 4
_xy$ = -44						; size = 4
_ys$ = -40						; size = 4
_wx$ = -36						; size = 4
_zz$ = -32						; size = 4
_xs$ = -28						; size = 4
_zs$ = -24						; size = 4
_wy$ = -20						; size = 4
_wz$ = -16						; size = 4
_xz$ = -12						; size = 4
_yz$ = -8						; size = 4
_xx$ = -4						; size = 4
_mat$ = 8						; size = 4
?getMatrix@Quaternion@Ogre@@QBEXAAVMatrix4@2@@Z PROC	; Ogre::Quaternion::getMatrix
; _this$ = ecx

; 243  : 	{

	push	ebp
	mov	ebp, esp
	sub	esp, 88					; 00000058H
	mov	DWORD PTR _this$[ebp], ecx

; 244  : 		float xs = x * 2.f;

	mov	eax, DWORD PTR _this$[ebp]
	fld	DWORD PTR [eax]
	fadd	ST(0), ST(0)
	fstp	DWORD PTR _xs$[ebp]

; 245  : 		float ys = y * 2.f;

	mov	ecx, DWORD PTR _this$[ebp]
	fld	DWORD PTR [ecx+4]
	fadd	ST(0), ST(0)
	fstp	DWORD PTR _ys$[ebp]

; 246  : 		float zs = z * 2.f;

	mov	edx, DWORD PTR _this$[ebp]
	fld	DWORD PTR [edx+8]
	fadd	ST(0), ST(0)
	fstp	DWORD PTR _zs$[ebp]

; 247  : 
; 248  : 		float wx = w * xs;

	mov	eax, DWORD PTR _this$[ebp]
	fld	DWORD PTR [eax+12]
	fmul	DWORD PTR _xs$[ebp]
	fstp	DWORD PTR _wx$[ebp]

; 249  : 		float wy = w * ys;

	mov	ecx, DWORD PTR _this$[ebp]
	fld	DWORD PTR [ecx+12]
	fmul	DWORD PTR _ys$[ebp]
	fstp	DWORD PTR _wy$[ebp]

; 250  : 		float wz = w * zs;

	mov	edx, DWORD PTR _this$[ebp]
	fld	DWORD PTR [edx+12]
	fmul	DWORD PTR _zs$[ebp]
	fstp	DWORD PTR _wz$[ebp]

; 251  : 
; 252  : 		float xx = x * xs;

	mov	eax, DWORD PTR _this$[ebp]
	fld	DWORD PTR [eax]
	fmul	DWORD PTR _xs$[ebp]
	fstp	DWORD PTR _xx$[ebp]

; 253  : 		float yy = y * ys;

	mov	ecx, DWORD PTR _this$[ebp]
	fld	DWORD PTR [ecx+4]
	fmul	DWORD PTR _ys$[ebp]
	fstp	DWORD PTR _yy$[ebp]

; 254  : 		float zz = z * zs;

	mov	edx, DWORD PTR _this$[ebp]
	fld	DWORD PTR [edx+8]
	fmul	DWORD PTR _zs$[ebp]
	fstp	DWORD PTR _zz$[ebp]

; 255  : 		float xy = x * ys;

	mov	eax, DWORD PTR _this$[ebp]
	fld	DWORD PTR [eax]
	fmul	DWORD PTR _ys$[ebp]
	fstp	DWORD PTR _xy$[ebp]

; 256  : 		float xz = x * zs;

	mov	ecx, DWORD PTR _this$[ebp]
	fld	DWORD PTR [ecx]
	fmul	DWORD PTR _zs$[ebp]
	fstp	DWORD PTR _xz$[ebp]

; 257  : 		float yz = y * zs;

	mov	edx, DWORD PTR _this$[ebp]
	fld	DWORD PTR [edx+4]
	fmul	DWORD PTR _zs$[ebp]
	fstp	DWORD PTR _yz$[ebp]

; 258  : 
; 259  : 		mat.setRow( 0, 1 - yy - zz,     xy + wz,     xz - wy,    0 );

	push	ecx
	fldz
	fstp	DWORD PTR [esp]
	fld	DWORD PTR _xz$[ebp]
	fsub	DWORD PTR _wy$[ebp]
	fstp	DWORD PTR tv236[ebp]
	fld	DWORD PTR tv236[ebp]
	push	ecx
	fstp	DWORD PTR [esp]
	fld	DWORD PTR _xy$[ebp]
	fadd	DWORD PTR _wz$[ebp]
	fstp	DWORD PTR tv237[ebp]
	fld	DWORD PTR tv237[ebp]
	push	ecx
	fstp	DWORD PTR [esp]
	fld	DWORD PTR _yy$[ebp]
	fld1
	fsubrp	ST(1), ST(0)
	fsub	DWORD PTR _zz$[ebp]
	fstp	DWORD PTR tv239[ebp]
	fld	DWORD PTR tv239[ebp]
	push	ecx
	fstp	DWORD PTR [esp]
	push	0
	mov	ecx, DWORD PTR _mat$[ebp]
	call	?setRow@Matrix4@Ogre@@QAEXIMMMM@Z	; Ogre::Matrix4::setRow

; 260  : 		mat.setRow( 1,     xy - wz, 1 - xx - zz,     yz + wx,    0 );

	push	ecx
	fldz
	fstp	DWORD PTR [esp]
	fld	DWORD PTR _yz$[ebp]
	fadd	DWORD PTR _wx$[ebp]
	fstp	DWORD PTR tv248[ebp]
	fld	DWORD PTR tv248[ebp]
	push	ecx
	fstp	DWORD PTR [esp]
	fld	DWORD PTR _xx$[ebp]
	fld1
	fsubrp	ST(1), ST(0)
	fsub	DWORD PTR _zz$[ebp]
	fstp	DWORD PTR tv250[ebp]
	fld	DWORD PTR tv250[ebp]
	push	ecx
	fstp	DWORD PTR [esp]
	fld	DWORD PTR _xy$[ebp]
	fsub	DWORD PTR _wz$[ebp]
	fstp	DWORD PTR tv251[ebp]
	fld	DWORD PTR tv251[ebp]
	push	ecx
	fstp	DWORD PTR [esp]
	push	1
	mov	ecx, DWORD PTR _mat$[ebp]
	call	?setRow@Matrix4@Ogre@@QAEXIMMMM@Z	; Ogre::Matrix4::setRow

; 261  : 		mat.setRow( 2,     xz + wy,     yz - wx, 1 - xx - yy,    0 );

	push	ecx
	fldz
	fstp	DWORD PTR [esp]
	fld	DWORD PTR _xx$[ebp]
	fld1
	fsubrp	ST(1), ST(0)
	fsub	DWORD PTR _yy$[ebp]
	fstp	DWORD PTR tv261[ebp]
	fld	DWORD PTR tv261[ebp]
	push	ecx
	fstp	DWORD PTR [esp]
	fld	DWORD PTR _yz$[ebp]
	fsub	DWORD PTR _wx$[ebp]
	fstp	DWORD PTR tv262[ebp]
	fld	DWORD PTR tv262[ebp]
	push	ecx
	fstp	DWORD PTR [esp]
	fld	DWORD PTR _xz$[ebp]
	fadd	DWORD PTR _wy$[ebp]
	fstp	DWORD PTR tv263[ebp]
	fld	DWORD PTR tv263[ebp]
	push	ecx
	fstp	DWORD PTR [esp]
	push	2
	mov	ecx, DWORD PTR _mat$[ebp]
	call	?setRow@Matrix4@Ogre@@QAEXIMMMM@Z	; Ogre::Matrix4::setRow

; 262  : 		mat.setRow( 3,           0,           0,           0, 1.0f );

	push	ecx
	fld1
	fstp	DWORD PTR [esp]
	push	ecx
	fldz
	fstp	DWORD PTR [esp]
	push	ecx
	fldz
	fstp	DWORD PTR [esp]
	push	ecx
	fldz
	fstp	DWORD PTR [esp]
	push	3
	mov	ecx, DWORD PTR _mat$[ebp]
	call	?setRow@Matrix4@Ogre@@QAEXIMMMM@Z	; Ogre::Matrix4::setRow

; 263  : 	}

	mov	esp, ebp
	pop	ebp
	ret	4
?getMatrix@Quaternion@Ogre@@QBEXAAVMatrix4@2@@Z ENDP	; Ogre::Quaternion::getMatrix
_TEXT	ENDS
PUBLIC	?getMatrix@Quaternion@Ogre@@QBEXAAVMatrix3@2@@Z	; Ogre::Quaternion::getMatrix
; Function compile flags: /Odtp
_TEXT	SEGMENT
tv250 = -88						; size = 4
tv249 = -84						; size = 4
tv248 = -80						; size = 4
tv240 = -76						; size = 4
tv239 = -72						; size = 4
tv237 = -68						; size = 4
tv230 = -64						; size = 4
tv228 = -60						; size = 4
tv227 = -56						; size = 4
_this$ = -52						; size = 4
_yy$ = -48						; size = 4
_xy$ = -44						; size = 4
_ys$ = -40						; size = 4
_wx$ = -36						; size = 4
_zz$ = -32						; size = 4
_xs$ = -28						; size = 4
_zs$ = -24						; size = 4
_wy$ = -20						; size = 4
_wz$ = -16						; size = 4
_xz$ = -12						; size = 4
_yz$ = -8						; size = 4
_xx$ = -4						; size = 4
_mat$ = 8						; size = 4
?getMatrix@Quaternion@Ogre@@QBEXAAVMatrix3@2@@Z PROC	; Ogre::Quaternion::getMatrix
; _this$ = ecx

; 266  : 	{

	push	ebp
	mov	ebp, esp
	sub	esp, 88					; 00000058H
	mov	DWORD PTR _this$[ebp], ecx

; 267  : 		float xs = x * 2.f;

	mov	eax, DWORD PTR _this$[ebp]
	fld	DWORD PTR [eax]
	fadd	ST(0), ST(0)
	fstp	DWORD PTR _xs$[ebp]

; 268  : 		float ys = y * 2.f;

	mov	ecx, DWORD PTR _this$[ebp]
	fld	DWORD PTR [ecx+4]
	fadd	ST(0), ST(0)
	fstp	DWORD PTR _ys$[ebp]

; 269  : 		float zs = z * 2.f;

	mov	edx, DWORD PTR _this$[ebp]
	fld	DWORD PTR [edx+8]
	fadd	ST(0), ST(0)
	fstp	DWORD PTR _zs$[ebp]

; 270  : 
; 271  : 		float wx = w * xs;

	mov	eax, DWORD PTR _this$[ebp]
	fld	DWORD PTR [eax+12]
	fmul	DWORD PTR _xs$[ebp]
	fstp	DWORD PTR _wx$[ebp]

; 272  : 		float wy = w * ys;

	mov	ecx, DWORD PTR _this$[ebp]
	fld	DWORD PTR [ecx+12]
	fmul	DWORD PTR _ys$[ebp]
	fstp	DWORD PTR _wy$[ebp]

; 273  : 		float wz = w * zs;

	mov	edx, DWORD PTR _this$[ebp]
	fld	DWORD PTR [edx+12]
	fmul	DWORD PTR _zs$[ebp]
	fstp	DWORD PTR _wz$[ebp]

; 274  : 
; 275  : 		float xx = x * xs;

	mov	eax, DWORD PTR _this$[ebp]
	fld	DWORD PTR [eax]
	fmul	DWORD PTR _xs$[ebp]
	fstp	DWORD PTR _xx$[ebp]

; 276  : 		float yy = y * ys;

	mov	ecx, DWORD PTR _this$[ebp]
