; Listing generated by Microsoft (R) Optimizing Compiler Version 15.00.30729.01 

	TITLE	i:\svnroot\client\OgreMain\OgreFog.cpp
	.686P
	.XMM
	include listing.inc
	.model	flat

INCLUDELIB MSVCRT
INCLUDELIB OLDNAMES

PUBLIC	?_Value@?$_Is_swap_move@U_Swap_move_tag@std@@@std@@2_NB ; std::_Is_swap_move<std::_Swap_move_tag>::_Value
PUBLIC	?collate@?$_Locbase@H@std@@2HB			; std::_Locbase<int>::collate
PUBLIC	?ctype@?$_Locbase@H@std@@2HB			; std::_Locbase<int>::ctype
PUBLIC	?monetary@?$_Locbase@H@std@@2HB			; std::_Locbase<int>::monetary
PUBLIC	?numeric@?$_Locbase@H@std@@2HB			; std::_Locbase<int>::numeric
PUBLIC	?time@?$_Locbase@H@std@@2HB			; std::_Locbase<int>::time
PUBLIC	?messages@?$_Locbase@H@std@@2HB			; std::_Locbase<int>::messages
PUBLIC	?all@?$_Locbase@H@std@@2HB			; std::_Locbase<int>::all
PUBLIC	?none@?$_Locbase@H@std@@2HB			; std::_Locbase<int>::none
PUBLIC	?skipws@?$_Iosb@H@std@@2W4_Fmtflags@12@B	; std::_Iosb<int>::skipws
PUBLIC	?unitbuf@?$_Iosb@H@std@@2W4_Fmtflags@12@B	; std::_Iosb<int>::unitbuf
PUBLIC	?uppercase@?$_Iosb@H@std@@2W4_Fmtflags@12@B	; std::_Iosb<int>::uppercase
PUBLIC	?showbase@?$_Iosb@H@std@@2W4_Fmtflags@12@B	; std::_Iosb<int>::showbase
PUBLIC	?showpoint@?$_Iosb@H@std@@2W4_Fmtflags@12@B	; std::_Iosb<int>::showpoint
PUBLIC	?showpos@?$_Iosb@H@std@@2W4_Fmtflags@12@B	; std::_Iosb<int>::showpos
PUBLIC	?left@?$_Iosb@H@std@@2W4_Fmtflags@12@B		; std::_Iosb<int>::left
PUBLIC	?right@?$_Iosb@H@std@@2W4_Fmtflags@12@B		; std::_Iosb<int>::right
PUBLIC	?internal@?$_Iosb@H@std@@2W4_Fmtflags@12@B	; std::_Iosb<int>::internal
PUBLIC	?dec@?$_Iosb@H@std@@2W4_Fmtflags@12@B		; std::_Iosb<int>::dec
PUBLIC	?oct@?$_Iosb@H@std@@2W4_Fmtflags@12@B		; std::_Iosb<int>::oct
PUBLIC	?hex@?$_Iosb@H@std@@2W4_Fmtflags@12@B		; std::_Iosb<int>::hex
PUBLIC	?scientific@?$_Iosb@H@std@@2W4_Fmtflags@12@B	; std::_Iosb<int>::scientific
PUBLIC	?fixed@?$_Iosb@H@std@@2W4_Fmtflags@12@B		; std::_Iosb<int>::fixed
PUBLIC	?hexfloat@?$_Iosb@H@std@@2W4_Fmtflags@12@B	; std::_Iosb<int>::hexfloat
PUBLIC	?boolalpha@?$_Iosb@H@std@@2W4_Fmtflags@12@B	; std::_Iosb<int>::boolalpha
PUBLIC	?_Stdio@?$_Iosb@H@std@@2W4_Fmtflags@12@B	; std::_Iosb<int>::_Stdio
PUBLIC	?adjustfield@?$_Iosb@H@std@@2W4_Fmtflags@12@B	; std::_Iosb<int>::adjustfield
PUBLIC	?basefield@?$_Iosb@H@std@@2W4_Fmtflags@12@B	; std::_Iosb<int>::basefield
PUBLIC	?floatfield@?$_Iosb@H@std@@2W4_Fmtflags@12@B	; std::_Iosb<int>::floatfield
PUBLIC	?goodbit@?$_Iosb@H@std@@2W4_Iostate@12@B	; std::_Iosb<int>::goodbit
PUBLIC	?eofbit@?$_Iosb@H@std@@2W4_Iostate@12@B		; std::_Iosb<int>::eofbit
PUBLIC	?failbit@?$_Iosb@H@std@@2W4_Iostate@12@B	; std::_Iosb<int>::failbit
PUBLIC	?badbit@?$_Iosb@H@std@@2W4_Iostate@12@B		; std::_Iosb<int>::badbit
PUBLIC	?_Hardfail@?$_Iosb@H@std@@2W4_Iostate@12@B	; std::_Iosb<int>::_Hardfail
PUBLIC	?in@?$_Iosb@H@std@@2W4_Openmode@12@B		; std::_Iosb<int>::in
PUBLIC	?out@?$_Iosb@H@std@@2W4_Openmode@12@B		; std::_Iosb<int>::out
PUBLIC	?ate@?$_Iosb@H@std@@2W4_Openmode@12@B		; std::_Iosb<int>::ate
PUBLIC	?app@?$_Iosb@H@std@@2W4_Openmode@12@B		; std::_Iosb<int>::app
PUBLIC	?trunc@?$_Iosb@H@std@@2W4_Openmode@12@B		; std::_Iosb<int>::trunc
PUBLIC	?_Nocreate@?$_Iosb@H@std@@2W4_Openmode@12@B	; std::_Iosb<int>::_Nocreate
PUBLIC	?_Noreplace@?$_Iosb@H@std@@2W4_Openmode@12@B	; std::_Iosb<int>::_Noreplace
PUBLIC	?binary@?$_Iosb@H@std@@2W4_Openmode@12@B	; std::_Iosb<int>::binary
PUBLIC	?beg@?$_Iosb@H@std@@2W4_Seekdir@12@B		; std::_Iosb<int>::beg
PUBLIC	?cur@?$_Iosb@H@std@@2W4_Seekdir@12@B		; std::_Iosb<int>::cur
PUBLIC	?end@?$_Iosb@H@std@@2W4_Seekdir@12@B		; std::_Iosb<int>::end
PUBLIC	?value@?$integral_constant@_N$0A@@tr1@std@@2_NB	; std::tr1::integral_constant<bool,0>::value
PUBLIC	?value@?$integral_constant@_N$00@tr1@std@@2_NB	; std::tr1::integral_constant<bool,1>::value
;	COMDAT ?value@?$integral_constant@_N$00@tr1@std@@2_NB
CONST	SEGMENT
?value@?$integral_constant@_N$00@tr1@std@@2_NB DB 01H	; std::tr1::integral_constant<bool,1>::value
CONST	ENDS
;	COMDAT ?value@?$integral_constant@_N$0A@@tr1@std@@2_NB
CONST	SEGMENT
?value@?$integral_constant@_N$0A@@tr1@std@@2_NB DB 00H	; std::tr1::integral_constant<bool,0>::value
CONST	ENDS
;	COMDAT ?end@?$_Iosb@H@std@@2W4_Seekdir@12@B
CONST	SEGMENT
?end@?$_Iosb@H@std@@2W4_Seekdir@12@B DD 02H		; std::_Iosb<int>::end
CONST	ENDS
;	COMDAT ?cur@?$_Iosb@H@std@@2W4_Seekdir@12@B
CONST	SEGMENT
?cur@?$_Iosb@H@std@@2W4_Seekdir@12@B DD 01H		; std::_Iosb<int>::cur
CONST	ENDS
;	COMDAT ?beg@?$_Iosb@H@std@@2W4_Seekdir@12@B
CONST	SEGMENT
?beg@?$_Iosb@H@std@@2W4_Seekdir@12@B DD 00H		; std::_Iosb<int>::beg
CONST	ENDS
;	COMDAT ?binary@?$_Iosb@H@std@@2W4_Openmode@12@B
CONST	SEGMENT
?binary@?$_Iosb@H@std@@2W4_Openmode@12@B DD 020H	; std::_Iosb<int>::binary
CONST	ENDS
;	COMDAT ?_Noreplace@?$_Iosb@H@std@@2W4_Openmode@12@B
CONST	SEGMENT
?_Noreplace@?$_Iosb@H@std@@2W4_Openmode@12@B DD 080H	; std::_Iosb<int>::_Noreplace
CONST	ENDS
;	COMDAT ?_Nocreate@?$_Iosb@H@std@@2W4_Openmode@12@B
CONST	SEGMENT
?_Nocreate@?$_Iosb@H@std@@2W4_Openmode@12@B DD 040H	; std::_Iosb<int>::_Nocreate
CONST	ENDS
;	COMDAT ?trunc@?$_Iosb@H@std@@2W4_Openmode@12@B
CONST	SEGMENT
?trunc@?$_Iosb@H@std@@2W4_Openmode@12@B DD 010H		; std::_Iosb<int>::trunc
CONST	ENDS
;	COMDAT ?app@?$_Iosb@H@std@@2W4_Openmode@12@B
CONST	SEGMENT
?app@?$_Iosb@H@std@@2W4_Openmode@12@B DD 08H		; std::_Iosb<int>::app
CONST	ENDS
;	COMDAT ?ate@?$_Iosb@H@std@@2W4_Openmode@12@B
CONST	SEGMENT
?ate@?$_Iosb@H@std@@2W4_Openmode@12@B DD 04H		; std::_Iosb<int>::ate
CONST	ENDS
;	COMDAT ?out@?$_Iosb@H@std@@2W4_Openmode@12@B
CONST	SEGMENT
?out@?$_Iosb@H@std@@2W4_Openmode@12@B DD 02H		; std::_Iosb<int>::out
CONST	ENDS
;	COMDAT ?in@?$_Iosb@H@std@@2W4_Openmode@12@B
CONST	SEGMENT
?in@?$_Iosb@H@std@@2W4_Openmode@12@B DD 01H		; std::_Iosb<int>::in
CONST	ENDS
;	COMDAT ?_Hardfail@?$_Iosb@H@std@@2W4_Iostate@12@B
CONST	SEGMENT
?_Hardfail@?$_Iosb@H@std@@2W4_Iostate@12@B DD 010H	; std::_Iosb<int>::_Hardfail
CONST	ENDS
;	COMDAT ?badbit@?$_Iosb@H@std@@2W4_Iostate@12@B
CONST	SEGMENT
?badbit@?$_Iosb@H@std@@2W4_Iostate@12@B DD 04H		; std::_Iosb<int>::badbit
CONST	ENDS
;	COMDAT ?failbit@?$_Iosb@H@std@@2W4_Iostate@12@B
CONST	SEGMENT
?failbit@?$_Iosb@H@std@@2W4_Iostate@12@B DD 02H		; std::_Iosb<int>::failbit
CONST	ENDS
;	COMDAT ?eofbit@?$_Iosb@H@std@@2W4_Iostate@12@B
CONST	SEGMENT
?eofbit@?$_Iosb@H@std@@2W4_Iostate@12@B DD 01H		; std::_Iosb<int>::eofbit
CONST	ENDS
;	COMDAT ?goodbit@?$_Iosb@H@std@@2W4_Iostate@12@B
CONST	SEGMENT
?goodbit@?$_Iosb@H@std@@2W4_Iostate@12@B DD 00H		; std::_Iosb<int>::goodbit
CONST	ENDS
;	COMDAT ?floatfield@?$_Iosb@H@std@@2W4_Fmtflags@12@B
CONST	SEGMENT
?floatfield@?$_Iosb@H@std@@2W4_Fmtflags@12@B DD 03000H	; std::_Iosb<int>::floatfield
CONST	ENDS
;	COMDAT ?basefield@?$_Iosb@H@std@@2W4_Fmtflags@12@B
CONST	SEGMENT
?basefield@?$_Iosb@H@std@@2W4_Fmtflags@12@B DD 0e00H	; std::_Iosb<int>::basefield
CONST	ENDS
;	COMDAT ?adjustfield@?$_Iosb@H@std@@2W4_Fmtflags@12@B
CONST	SEGMENT
?adjustfield@?$_Iosb@H@std@@2W4_Fmtflags@12@B DD 01c0H	; std::_Iosb<int>::adjustfield
CONST	ENDS
;	COMDAT ?_Stdio@?$_Iosb@H@std@@2W4_Fmtflags@12@B
CONST	SEGMENT
?_Stdio@?$_Iosb@H@std@@2W4_Fmtflags@12@B DD 08000H	; std::_Iosb<int>::_Stdio
CONST	ENDS
;	COMDAT ?boolalpha@?$_Iosb@H@std@@2W4_Fmtflags@12@B
CONST	SEGMENT
?boolalpha@?$_Iosb@H@std@@2W4_Fmtflags@12@B DD 04000H	; std::_Iosb<int>::boolalpha
CONST	ENDS
;	COMDAT ?hexfloat@?$_Iosb@H@std@@2W4_Fmtflags@12@B
CONST	SEGMENT
?hexfloat@?$_Iosb@H@std@@2W4_Fmtflags@12@B DD 03000H	; std::_Iosb<int>::hexfloat
CONST	ENDS
;	COMDAT ?fixed@?$_Iosb@H@std@@2W4_Fmtflags@12@B
CONST	SEGMENT
?fixed@?$_Iosb@H@std@@2W4_Fmtflags@12@B DD 02000H	; std::_Iosb<int>::fixed
CONST	ENDS
;	COMDAT ?scientific@?$_Iosb@H@std@@2W4_Fmtflags@12@B
CONST	SEGMENT
?scientific@?$_Iosb@H@std@@2W4_Fmtflags@12@B DD 01000H	; std::_Iosb<int>::scientific
CONST	ENDS
;	COMDAT ?hex@?$_Iosb@H@std@@2W4_Fmtflags@12@B
CONST	SEGMENT
?hex@?$_Iosb@H@std@@2W4_Fmtflags@12@B DD 0800H		; std::_Iosb<int>::hex
CONST	ENDS
;	COMDAT ?oct@?$_Iosb@H@std@@2W4_Fmtflags@12@B
CONST	SEGMENT
?oct@?$_Iosb@H@std@@2W4_Fmtflags@12@B DD 0400H		; std::_Iosb<int>::oct
CONST	ENDS
;	COMDAT ?dec@?$_Iosb@H@std@@2W4_Fmtflags@12@B
CONST	SEGMENT
?dec@?$_Iosb@H@std@@2W4_Fmtflags@12@B DD 0200H		; std::_Iosb<int>::dec
CONST	ENDS
;	COMDAT ?internal@?$_Iosb@H@std@@2W4_Fmtflags@12@B
CONST	SEGMENT
?internal@?$_Iosb@H@std@@2W4_Fmtflags@12@B DD 0100H	; std::_Iosb<int>::internal
CONST	ENDS
;	COMDAT ?right@?$_Iosb@H@std@@2W4_Fmtflags@12@B
CONST	SEGMENT
?right@?$_Iosb@H@std@@2W4_Fmtflags@12@B DD 080H		; std::_Iosb<int>::right
CONST	ENDS
;	COMDAT ?left@?$_Iosb@H@std@@2W4_Fmtflags@12@B
CONST	SEGMENT
?left@?$_Iosb@H@std@@2W4_Fmtflags@12@B DD 040H		; std::_Iosb<int>::left
CONST	ENDS
;	COMDAT ?showpos@?$_Iosb@H@std@@2W4_Fmtflags@12@B
CONST	SEGMENT
?showpos@?$_Iosb@H@std@@2W4_Fmtflags@12@B DD 020H	; std::_Iosb<int>::showpos
CONST	ENDS
;	COMDAT ?showpoint@?$_Iosb@H@std@@2W4_Fmtflags@12@B
CONST	SEGMENT
?showpoint@?$_Iosb@H@std@@2W4_Fmtflags@12@B DD 010H	; std::_Iosb<int>::showpoint
CONST	ENDS
;	COMDAT ?showbase@?$_Iosb@H@std@@2W4_Fmtflags@12@B
CONST	SEGMENT
?showbase@?$_Iosb@H@std@@2W4_Fmtflags@12@B DD 08H	; std::_Iosb<int>::showbase
CONST	ENDS
;	COMDAT ?uppercase@?$_Iosb@H@std@@2W4_Fmtflags@12@B
CONST	SEGMENT
?uppercase@?$_Iosb@H@std@@2W4_Fmtflags@12@B DD 04H	; std::_Iosb<int>::uppercase
CONST	ENDS
;	COMDAT ?unitbuf@?$_Iosb@H@std@@2W4_Fmtflags@12@B
CONST	SEGMENT
?unitbuf@?$_Iosb@H@std@@2W4_Fmtflags@12@B DD 02H	; std::_Iosb<int>::unitbuf
CONST	ENDS
;	COMDAT ?skipws@?$_Iosb@H@std@@2W4_Fmtflags@12@B
CONST	SEGMENT
?skipws@?$_Iosb@H@std@@2W4_Fmtflags@12@B DD 01H		; std::_Iosb<int>::skipws
CONST	ENDS
;	COMDAT ?none@?$_Locbase@H@std@@2HB
CONST	SEGMENT
?none@?$_Locbase@H@std@@2HB DD 00H			; std::_Locbase<int>::none
CONST	ENDS
;	COMDAT ?all@?$_Locbase@H@std@@2HB
CONST	SEGMENT
?all@?$_Locbase@H@std@@2HB DD 03fH			; std::_Locbase<int>::all
CONST	ENDS
;	COMDAT ?messages@?$_Locbase@H@std@@2HB
CONST	SEGMENT
?messages@?$_Locbase@H@std@@2HB DD 020H			; std::_Locbase<int>::messages
CONST	ENDS
;	COMDAT ?time@?$_Locbase@H@std@@2HB
CONST	SEGMENT
?time@?$_Locbase@H@std@@2HB DD 010H			; std::_Locbase<int>::time
CONST	ENDS
;	COMDAT ?numeric@?$_Locbase@H@std@@2HB
CONST	SEGMENT
?numeric@?$_Locbase@H@std@@2HB DD 08H			; std::_Locbase<int>::numeric
CONST	ENDS
;	COMDAT ?monetary@?$_Locbase@H@std@@2HB
CONST	SEGMENT
?monetary@?$_Locbase@H@std@@2HB DD 04H			; std::_Locbase<int>::monetary
CONST	ENDS
;	COMDAT ?ctype@?$_Locbase@H@std@@2HB
CONST	SEGMENT
?ctype@?$_Locbase@H@std@@2HB DD 02H			; std::_Locbase<int>::ctype
CONST	ENDS
;	COMDAT ?collate@?$_Locbase@H@std@@2HB
CONST	SEGMENT
?collate@?$_Locbase@H@std@@2HB DD 01H			; std::_Locbase<int>::collate
CONST	ENDS
;	COMDAT ?_Value@?$_Is_swap_move@U_Swap_move_tag@std@@@std@@2_NB
CONST	SEGMENT
?_Value@?$_Is_swap_move@U_Swap_move_tag@std@@@std@@2_NB DB 01H ; std::_Is_swap_move<std::_Swap_move_tag>::_Value
CONST	ENDS
_DATA	SEGMENT
__bad_alloc_Message DD FLAT:$SG5716
_DATA	ENDS
CONST	SEGMENT
$SG5716	DB	'bad allocation', 00H
	ORG $+1
_MAX_FLOAT DD	07f7fffffr			; 3.40282e+038
_ONE_PI	DD	040490fd0r			; 3.14159
_EPSILON DD	03727c5acr			; 1e-005
_RADS_PER_DEG DD 03c8efa35r			; 0.0174533
_DEGS_PER_RAD DD 042652ee1r			; 57.2958
$SG59865 DB	'FogEffect', 00H
CONST	ENDS
PUBLIC	??4MemoryDelegation@Ogre@@QAEAAV01@ABV01@@Z	; Ogre::MemoryDelegation::operator=
; Function compile flags: /Odtp
;	COMDAT ??4MemoryDelegation@Ogre@@QAEAAV01@ABV01@@Z
_TEXT	SEGMENT
_this$ = -4						; size = 4
___that$ = 8						; size = 4
??4MemoryDelegation@Ogre@@QAEAAV01@ABV01@@Z PROC	; Ogre::MemoryDelegation::operator=, COMDAT
; _this$ = ecx
	push	ebp
	mov	ebp, esp
	push	ecx
	mov	DWORD PTR _this$[ebp], ecx
	mov	eax, DWORD PTR _this$[ebp]
	mov	esp, ebp
	pop	ebp
	ret	4
??4MemoryDelegation@Ogre@@QAEAAV01@ABV01@@Z ENDP	; Ogre::MemoryDelegation::operator=
_TEXT	ENDS
PUBLIC	?getBaseClass@RuntimeClass@Ogre@@QBEPBV12@XZ	; Ogre::RuntimeClass::getBaseClass
; Function compile flags: /Odtp
; File i:\svnroot\client\ogremain\ogrebaseobject.h
;	COMDAT ?getBaseClass@RuntimeClass@Ogre@@QBEPBV12@XZ
_TEXT	SEGMENT
_this$ = -4						; size = 4
?getBaseClass@RuntimeClass@Ogre@@QBEPBV12@XZ PROC	; Ogre::RuntimeClass::getBaseClass, COMDAT
; _this$ = ecx

; 20   : 		{

	push	ebp
	mov	ebp, esp
	push	ecx
	mov	DWORD PTR _this$[ebp], ecx

; 21   : 			return m_pBaseClass;

	mov	eax, DWORD PTR _this$[ebp]
	mov	eax, DWORD PTR [eax+4]

; 22   : 		}

	mov	esp, ebp
	pop	ebp
	ret	0
?getBaseClass@RuntimeClass@Ogre@@QBEPBV12@XZ ENDP	; Ogre::RuntimeClass::getBaseClass
_TEXT	ENDS
PUBLIC	?getClassName@RuntimeClass@Ogre@@QBEPBDXZ	; Ogre::RuntimeClass::getClassName
; Function compile flags: /Odtp
;	COMDAT ?getClassName@RuntimeClass@Ogre@@QBEPBDXZ
_TEXT	SEGMENT
_this$ = -4						; size = 4
?getClassName@RuntimeClass@Ogre@@QBEPBDXZ PROC		; Ogre::RuntimeClass::getClassName, COMDAT
; _this$ = ecx

; 25   : 		{

	push	ebp
	mov	ebp, esp
	push	ecx
	mov	DWORD PTR _this$[ebp], ecx

; 26   : 			return m_pClassName; 

	mov	eax, DWORD PTR _this$[ebp]
	mov	eax, DWORD PTR [eax]

; 27   : 		}

	mov	esp, ebp
	pop	ebp
	ret	0
?getClassName@RuntimeClass@Ogre@@QBEPBDXZ ENDP		; Ogre::RuntimeClass::getClassName
_TEXT	ENDS
PUBLIC	?getVersion@RuntimeClass@Ogre@@QBEHXZ		; Ogre::RuntimeClass::getVersion
; Function compile flags: /Odtp
;	COMDAT ?getVersion@RuntimeClass@Ogre@@QBEHXZ
_TEXT	SEGMENT
_this$ = -4						; size = 4
?getVersion@RuntimeClass@Ogre@@QBEHXZ PROC		; Ogre::RuntimeClass::getVersion, COMDAT
; _this$ = ecx

; 30   : 		{

	push	ebp
	mov	ebp, esp
	push	ecx
	mov	DWORD PTR _this$[ebp], ecx

; 31   : 			return m_Version;

	mov	eax, DWORD PTR _this$[ebp]
	mov	eax, DWORD PTR [eax+8]

; 32   : 		}

	mov	esp, ebp
	pop	ebp
	ret	0
?getVersion@RuntimeClass@Ogre@@QBEHXZ ENDP		; Ogre::RuntimeClass::getVersion
_TEXT	ENDS
PUBLIC	?newObject@RuntimeClass@Ogre@@QAEPAVBaseObject@2@XZ ; Ogre::RuntimeClass::newObject
; Function compile flags: /Odtp
;	COMDAT ?newObject@RuntimeClass@Ogre@@QAEPAVBaseObject@2@XZ
_TEXT	SEGMENT
_this$ = -4						; size = 4
?newObject@RuntimeClass@Ogre@@QAEPAVBaseObject@2@XZ PROC ; Ogre::RuntimeClass::newObject, COMDAT
; _this$ = ecx

; 35   : 		{

	push	ebp
	mov	ebp, esp
	push	ecx
	mov	DWORD PTR _this$[ebp], ecx

; 36   : 			return (*m_pNewFunc)();

	mov	eax, DWORD PTR _this$[ebp]
	mov	ecx, DWORD PTR [eax+12]
	call	ecx

; 37   : 		}

	mov	esp, ebp
	pop	ebp
	ret	0
?newObject@RuntimeClass@Ogre@@QAEPAVBaseObject@2@XZ ENDP ; Ogre::RuntimeClass::newObject
_TEXT	ENDS
PUBLIC	??4RuntimeClass@Ogre@@QAEAAV01@ABV01@@Z		; Ogre::RuntimeClass::operator=
; Function compile flags: /Odtp
;	COMDAT ??4RuntimeClass@Ogre@@QAEAAV01@ABV01@@Z
_TEXT	SEGMENT
_this$ = -4						; size = 4
___that$ = 8						; size = 4
??4RuntimeClass@Ogre@@QAEAAV01@ABV01@@Z PROC		; Ogre::RuntimeClass::operator=, COMDAT
; _this$ = ecx
	push	ebp
	mov	ebp, esp
	push	ecx
	mov	DWORD PTR _this$[ebp], ecx
	mov	eax, DWORD PTR ___that$[ebp]
	mov	ecx, DWORD PTR _this$[ebp]
	mov	edx, DWORD PTR [eax]
	mov	DWORD PTR [ecx], edx
	mov	edx, DWORD PTR [eax+4]
	mov	DWORD PTR [ecx+4], edx
	mov	edx, DWORD PTR [eax+8]
	mov	DWORD PTR [ecx+8], edx
	mov	edx, DWORD PTR [eax+12]
	mov	DWORD PTR [ecx+12], edx
	mov	eax, DWORD PTR [eax+16]
	mov	DWORD PTR [ecx+16], eax
	mov	eax, DWORD PTR _this$[ebp]
	mov	esp, ebp
	pop	ebp
	ret	4
??4RuntimeClass@Ogre@@QAEAAV01@ABV01@@Z ENDP		; Ogre::RuntimeClass::operator=
_TEXT	ENDS
PUBLIC	?getRTTI@BaseObject@Ogre@@UBEPBVRuntimeClass@2@XZ ; Ogre::BaseObject::getRTTI
EXTRN	?m_RTTI@BaseObject@Ogre@@2VRuntimeClass@2@B:BYTE ; Ogre::BaseObject::m_RTTI
; Function compile flags: /Odtp
;	COMDAT ?getRTTI@BaseObject@Ogre@@UBEPBVRuntimeClass@2@XZ
_TEXT	SEGMENT
_this$ = -4						; size = 4
?getRTTI@BaseObject@Ogre@@UBEPBVRuntimeClass@2@XZ PROC	; Ogre::BaseObject::getRTTI, COMDAT
; _this$ = ecx

; 56   : 		{

	push	ebp
	mov	ebp, esp
	push	ecx
	mov	DWORD PTR _this$[ebp], ecx

; 57   : 			return &m_RTTI;

	mov	eax, OFFSET ?m_RTTI@BaseObject@Ogre@@2VRuntimeClass@2@B ; Ogre::BaseObject::m_RTTI

; 58   : 		}

	mov	esp, ebp
	pop	ebp
	ret	0
?getRTTI@BaseObject@Ogre@@UBEPBVRuntimeClass@2@XZ ENDP	; Ogre::BaseObject::getRTTI
_TEXT	ENDS
PUBLIC	?isExactKindOf@BaseObject@Ogre@@QBE_NPBVRuntimeClass@2@@Z ; Ogre::BaseObject::isExactKindOf
; Function compile flags: /Odtp
;	COMDAT ?isExactKindOf@BaseObject@Ogre@@QBE_NPBVRuntimeClass@2@@Z
_TEXT	SEGMENT
_this$ = -4						; size = 4
_prtti$ = 8						; size = 4
?isExactKindOf@BaseObject@Ogre@@QBE_NPBVRuntimeClass@2@@Z PROC ; Ogre::BaseObject::isExactKindOf, COMDAT
; _this$ = ecx

; 61   : 		{

	push	ebp
	mov	ebp, esp
	push	ecx
	mov	DWORD PTR _this$[ebp], ecx

; 62   : 			return (getRTTI() == prtti);

	mov	eax, DWORD PTR _this$[ebp]
	mov	edx, DWORD PTR [eax]
	mov	ecx, DWORD PTR _this$[ebp]
	mov	eax, DWORD PTR [edx]
	call	eax
	xor	ecx, ecx
	cmp	eax, DWORD PTR _prtti$[ebp]
	sete	cl
	mov	al, cl

; 63   : 		}

	mov	esp, ebp
	pop	ebp
	ret	4
?isExactKindOf@BaseObject@Ogre@@QBE_NPBVRuntimeClass@2@@Z ENDP ; Ogre::BaseObject::isExactKindOf
_TEXT	ENDS
PUBLIC	?release@BaseObject@Ogre@@UAEXXZ		; Ogre::BaseObject::release
; Function compile flags: /Odtp
;	COMDAT ?release@BaseObject@Ogre@@UAEXXZ
_TEXT	SEGMENT
_this$ = -4						; size = 4
?release@BaseObject@Ogre@@UAEXXZ PROC			; Ogre::BaseObject::release, COMDAT
; _this$ = ecx

; 68   : 		{

	push	ebp
	mov	ebp, esp
	push	ecx
	mov	DWORD PTR _this$[ebp], ecx

; 69   : 			m_RefCount--;

	mov	eax, DWORD PTR _this$[ebp]
	mov	ecx, DWORD PTR [eax+4]
	sub	ecx, 1
	mov	edx, DWORD PTR _this$[ebp]
	mov	DWORD PTR [edx+4], ecx

; 70   : 			if(m_RefCount <= 0 )

	mov	eax, DWORD PTR _this$[ebp]
	cmp	DWORD PTR [eax+4], 0
	jg	SHORT $LN2@release

; 71   : 			{
; 72   : 				deleteThis();

	mov	ecx, DWORD PTR _this$[ebp]
	mov	edx, DWORD PTR [ecx]
	mov	ecx, DWORD PTR _this$[ebp]
	mov	eax, DWORD PTR [edx+24]
	call	eax
$LN2@release:

; 73   : 			}
; 74   : 		}

	mov	esp, ebp
	pop	ebp
	ret	0
?release@BaseObject@Ogre@@UAEXXZ ENDP			; Ogre::BaseObject::release
_TEXT	ENDS
PUBLIC	?addRef@BaseObject@Ogre@@UAEXXZ			; Ogre::BaseObject::addRef
; Function compile flags: /Odtp
;	COMDAT ?addRef@BaseObject@Ogre@@UAEXXZ
_TEXT	SEGMENT
_this$ = -4						; size = 4
?addRef@BaseObject@Ogre@@UAEXXZ PROC			; Ogre::BaseObject::addRef, COMDAT
; _this$ = ecx

; 77   : 		{

	push	ebp
	mov	ebp, esp
	push	ecx
	mov	DWORD PTR _this$[ebp], ecx

; 78   : 			m_RefCount++;

	mov	eax, DWORD PTR _this$[ebp]
	mov	ecx, DWORD PTR [eax+4]
	add	ecx, 1
	mov	edx, DWORD PTR _this$[ebp]
	mov	DWORD PTR [edx+4], ecx

; 79   : 		}

	mov	esp, ebp
	pop	ebp
	ret	0
?addRef@BaseObject@Ogre@@UAEXXZ ENDP			; Ogre::BaseObject::addRef
_TEXT	ENDS
PUBLIC	?getRefCount@BaseObject@Ogre@@UAEHXZ		; Ogre::BaseObject::getRefCount
; Function compile flags: /Odtp
;	COMDAT ?getRefCount@BaseObject@Ogre@@UAEHXZ
_TEXT	SEGMENT
_this$ = -4						; size = 4
?getRefCount@BaseObject@Ogre@@UAEHXZ PROC		; Ogre::BaseObject::getRefCount, COMDAT
; _this$ = ecx

; 82   : 		{

	push	ebp
	mov	ebp, esp
	push	ecx
	mov	DWORD PTR _this$[ebp], ecx

; 83   : 			return m_RefCount;

	mov	eax, DWORD PTR _this$[ebp]
	mov	eax, DWORD PTR [eax+4]

; 84   : 		}

	mov	esp, ebp
	pop	ebp
	ret	0
?getRefCount@BaseObject@Ogre@@UAEHXZ ENDP		; Ogre::BaseObject::getRefCount
_TEXT	ENDS
PUBLIC	?_serialize@BaseObject@Ogre@@UAEXAAVArchive@2@H@Z ; Ogre::BaseObject::_serialize
; Function compile flags: /Odtp
;	COMDAT ?_serialize@BaseObject@Ogre@@UAEXAAVArchive@2@H@Z
_TEXT	SEGMENT
_this$ = -4						; size = 4
_ar$ = 8						; size = 4
_version$ = 12						; size = 4
?_serialize@BaseObject@Ogre@@UAEXAAVArchive@2@H@Z PROC	; Ogre::BaseObject::_serialize, COMDAT
; _this$ = ecx

; 87   : 		{

	push	ebp
	mov	ebp, esp
	push	ecx
	mov	DWORD PTR _this$[ebp], ecx

; 88   : 		}

	mov	esp, ebp
	pop	ebp
	ret	8
?_serialize@BaseObject@Ogre@@UAEXAAVArchive@2@H@Z ENDP	; Ogre::BaseObject::_serialize
_TEXT	ENDS
PUBLIC	??_7BaseObject@Ogre@@6B@			; Ogre::BaseObject::`vftable'
PUBLIC	??0BaseObject@Ogre@@IAE@XZ			; Ogre::BaseObject::BaseObject
PUBLIC	??_R4BaseObject@Ogre@@6B@			; Ogre::BaseObject::`RTTI Complete Object Locator'
PUBLIC	??_R0?AVBaseObject@Ogre@@@8			; Ogre::BaseObject `RTTI Type Descriptor'
PUBLIC	??_R3BaseObject@Ogre@@8				; Ogre::BaseObject::`RTTI Class Hierarchy Descriptor'
PUBLIC	??_R2BaseObject@Ogre@@8				; Ogre::BaseObject::`RTTI Base Class Array'
PUBLIC	??_R1A@?0A@EA@BaseObject@Ogre@@8		; Ogre::BaseObject::`RTTI Base Class Descriptor at (0,-1,0,64)'
PUBLIC	??_R13?0A@EA@MemoryDelegation@Ogre@@8		; Ogre::MemoryDelegation::`RTTI Base Class Descriptor at (4,-1,0,64)'
PUBLIC	??_R0?AVMemoryDelegation@Ogre@@@8		; Ogre::MemoryDelegation `RTTI Type Descriptor'
PUBLIC	??_R3MemoryDelegation@Ogre@@8			; Ogre::MemoryDelegation::`RTTI Class Hierarchy Descriptor'
PUBLIC	??_R2MemoryDelegation@Ogre@@8			; Ogre::MemoryDelegation::`RTTI Base Class Array'
PUBLIC	??_R1A@?0A@EA@MemoryDelegation@Ogre@@8		; Ogre::MemoryDelegation::`RTTI Base Class Descriptor at (0,-1,0,64)'
PUBLIC	??_EBaseObject@Ogre@@MAEPAXI@Z			; Ogre::BaseObject::`vector deleting destructor'
PUBLIC	?deleteThis@BaseObject@Ogre@@MAEXXZ		; Ogre::BaseObject::deleteThis
EXTRN	??_7type_info@@6B@:QWORD			; type_info::`vftable'
;	COMDAT ??_R1A@?0A@EA@MemoryDelegation@Ogre@@8
rdata$r	SEGMENT
??_R1A@?0A@EA@MemoryDelegation@Ogre@@8 DD FLAT:??_R0?AVMemoryDelegation@Ogre@@@8 ; Ogre::MemoryDelegation::`RTTI Base Class Descriptor at (0,-1,0,64)'
	DD	00H
	DD	00H
	DD	0ffffffffH
	DD	00H
	DD	040H
	DD	FLAT:??_R3MemoryDelegation@Ogre@@8
rdata$r	ENDS
;	COMDAT ??_R2MemoryDelegation@Ogre@@8
rdata$r	SEGMENT
??_R2MemoryDelegation@Ogre@@8 DD FLAT:??_R1A@?0A@EA@MemoryDelegation@Ogre@@8 ; Ogre::MemoryDelegation::`RTTI Base Class Array'
rdata$r	ENDS
;	COMDAT ??_R3MemoryDelegation@Ogre@@8
rdata$r	SEGMENT
??_R3MemoryDelegation@Ogre@@8 DD 00H			; Ogre::MemoryDelegation::`RTTI Class Hierarchy Descriptor'
	DD	00H
	DD	01H
	DD	FLAT:??_R2MemoryDelegation@Ogre@@8
rdata$r	ENDS
;	COMDAT ??_R0?AVMemoryDelegation@Ogre@@@8
_DATA	SEGMENT
??_R0?AVMemoryDelegation@Ogre@@@8 DD FLAT:??_7type_info@@6B@ ; Ogre::MemoryDelegation `RTTI Type Descriptor'
	DD	00H
	DB	'.?AVMemoryDelegation@Ogre@@', 00H
_DATA	ENDS
;	COMDAT ??_R13?0A@EA@MemoryDelegation@Ogre@@8
rdata$r	SEGMENT
??_R13?0A@EA@MemoryDelegation@Ogre@@8 DD FLAT:??_R0?AVMemoryDelegation@Ogre@@@8 ; Ogre::MemoryDelegation::`RTTI Base Class Descriptor at (4,-1,0,64)'
	DD	00H
	DD	04H
	DD	0ffffffffH
	DD	00H
	DD	040H
	DD	FLAT:??_R3MemoryDelegation@Ogre@@8
rdata$r	ENDS
;	COMDAT ??_R1A@?0A@EA@BaseObject@Ogre@@8
rdata$r	SEGMENT
??_R1A@?0A@EA@BaseObject@Ogre@@8 DD FLAT:??_R0?AVBaseObject@Ogre@@@8 ; Ogre::BaseObject::`RTTI Base Class Descriptor at (0,-1,0,64)'
	DD	01H
	DD	00H
	DD	0ffffffffH
	DD	00H
	DD	040H
	DD	FLAT:??_R3BaseObject@Ogre@@8
rdata$r	ENDS
;	COMDAT ??_R2BaseObject@Ogre@@8
rdata$r	SEGMENT
??_R2BaseObject@Ogre@@8 DD FLAT:??_R1A@?0A@EA@BaseObject@Ogre@@8 ; Ogre::BaseObject::`RTTI Base Class Array'
	DD	FLAT:??_R13?0A@EA@MemoryDelegation@Ogre@@8
rdata$r	ENDS
;	COMDAT ??_R3BaseObject@Ogre@@8
rdata$r	SEGMENT
??_R3BaseObject@Ogre@@8 DD 00H				; Ogre::BaseObject::`RTTI Class Hierarchy Descriptor'
	DD	00H
	DD	02H
	DD	FLAT:??_R2BaseObject@Ogre@@8
rdata$r	ENDS
;	COMDAT ??_R0?AVBaseObject@Ogre@@@8
_DATA	SEGMENT
??_R0?AVBaseObject@Ogre@@@8 DD FLAT:??_7type_info@@6B@	; Ogre::BaseObject `RTTI Type Descriptor'
	DD	00H
	DB	'.?AVBaseObject@Ogre@@', 00H
_DATA	ENDS
;	COMDAT ??_R4BaseObject@Ogre@@6B@
rdata$r	SEGMENT
??_R4BaseObject@Ogre@@6B@ DD 00H			; Ogre::BaseObject::`RTTI Complete Object Locator'
	DD	00H
	DD	00H
	DD	FLAT:??_R0?AVBaseObject@Ogre@@@8
	DD	FLAT:??_R3BaseObject@Ogre@@8
rdata$r	ENDS
;	COMDAT ??_7BaseObject@Ogre@@6B@
CONST	SEGMENT
??_7BaseObject@Ogre@@6B@ DD FLAT:??_R4BaseObject@Ogre@@6B@ ; Ogre::BaseObject::`vftable'
	DD	FLAT:?getRTTI@BaseObject@Ogre@@UBEPBVRuntimeClass@2@XZ
	DD	FLAT:?release@BaseObject@Ogre@@UAEXXZ
	DD	FLAT:?addRef@BaseObject@Ogre@@UAEXXZ
	DD	FLAT:?getRefCount@BaseObject@Ogre@@UAEHXZ
	DD	FLAT:?_serialize@BaseObject@Ogre@@UAEXAAVArchive@2@H@Z
	DD	FLAT:??_EBaseObject@Ogre@@MAEPAXI@Z
	DD	FLAT:?deleteThis@BaseObject@Ogre@@MAEXXZ
; Function compile flags: /Odtp
CONST	ENDS
;	COMDAT ??0BaseObject@Ogre@@IAE@XZ
_TEXT	SEGMENT
_this$ = -4						; size = 4
??0BaseObject@Ogre@@IAE@XZ PROC				; Ogre::BaseObject::BaseObject, COMDAT
; _this$ = ecx

; 92   : 		{

	push	ebp
	mov	ebp, esp
	push	ecx
	mov	DWORD PTR _this$[ebp], ecx
	mov	eax, DWORD PTR _this$[ebp]
	mov	DWORD PTR [eax], OFFSET ??_7BaseObject@Ogre@@6B@
	mov	ecx, DWORD PTR _this$[ebp]
	mov	DWORD PTR [ecx+4], 1

; 93   : 		}

	mov	eax, DWORD PTR _this$[ebp]
	mov	esp, ebp
	pop	ebp
	ret	0
??0BaseObject@Ogre@@IAE@XZ ENDP				; Ogre::BaseObject::BaseObject
_TEXT	ENDS
PUBLIC	??1BaseObject@Ogre@@MAE@XZ			; Ogre::BaseObject::~BaseObject
; Function compile flags: /Odtp
;	COMDAT ??1BaseObject@Ogre@@MAE@XZ
_TEXT	SEGMENT
_this$ = -4						; size = 4
??1BaseObject@Ogre@@MAE@XZ PROC				; Ogre::BaseObject::~BaseObject, COMDAT
; _this$ = ecx

; 96   : 		{

	push	ebp
	mov	ebp, esp
	push	ecx
	mov	DWORD PTR _this$[ebp], ecx
	mov	eax, DWORD PTR _this$[ebp]
	mov	DWORD PTR [eax], OFFSET ??_7BaseObject@Ogre@@6B@

; 97   : 		}

	mov	esp, ebp
	pop	ebp
	ret	0
??1BaseObject@Ogre@@MAE@XZ ENDP				; Ogre::BaseObject::~BaseObject
; Function compile flags: /Odtp
_TEXT	ENDS
;	COMDAT ?deleteThis@BaseObject@Ogre@@MAEXXZ
_TEXT	SEGMENT
tv70 = -16						; size = 4
_this$ = -12						; size = 4
$T64770 = -8						; size = 4
$T64769 = -4						; size = 4
?deleteThis@BaseObject@Ogre@@MAEXXZ PROC		; Ogre::BaseObject::deleteThis, COMDAT
; _this$ = ecx

; 100  : 		{

	push	ebp
	mov	ebp, esp
	sub	esp, 16					; 00000010H
	mov	DWORD PTR _this$[ebp], ecx

; 101  : 			delete this;

	mov	eax, DWORD PTR _this$[ebp]
	mov	DWORD PTR $T64770[ebp], eax
	mov	ecx, DWORD PTR $T64770[ebp]
	mov	DWORD PTR $T64769[ebp], ecx
	cmp	DWORD PTR $T64769[ebp], 0
	je	SHORT $LN3@deleteThis
	push	1
	mov	edx, DWORD PTR $T64769[ebp]
	mov	eax, DWORD PTR [edx]
	mov	ecx, DWORD PTR $T64769[ebp]
	mov	edx, DWORD PTR [eax+20]
	call	edx
	mov	DWORD PTR tv70[ebp], eax
	jmp	SHORT $LN1@deleteThis
$LN3@deleteThis:
	mov	DWORD PTR tv70[ebp], 0
$LN1@deleteThis:

; 102  : 		}

	mov	esp, ebp
	pop	ebp
	ret	0
?deleteThis@BaseObject@Ogre@@MAEXXZ ENDP		; Ogre::BaseObject::deleteThis
_TEXT	ENDS
PUBLIC	??0BaseObject@Ogre@@QAE@ABV01@@Z		; Ogre::BaseObject::BaseObject
; Function compile flags: /Odtp
;	COMDAT ??0BaseObject@Ogre@@QAE@ABV01@@Z
_TEXT	SEGMENT
tv68 = -8						; size = 4
_this$ = -4						; size = 4
___that$ = 8						; size = 4
??0BaseObject@Ogre@@QAE@ABV01@@Z PROC			; Ogre::BaseObject::BaseObject, COMDAT
; _this$ = ecx
	push	ebp
	mov	ebp, esp
	sub	esp, 8
	mov	DWORD PTR _this$[ebp], ecx
	cmp	DWORD PTR ___that$[ebp], 0
	je	SHORT $LN3@BaseObject
	mov	eax, DWORD PTR ___that$[ebp]
	add	eax, 4
	mov	DWORD PTR tv68[ebp], eax
	jmp	SHORT $LN4@BaseObject
$LN3@BaseObject:
	mov	DWORD PTR tv68[ebp], 0
$LN4@BaseObject:
	mov	ecx, DWORD PTR _this$[ebp]
	mov	DWORD PTR [ecx], OFFSET ??_7BaseObject@Ogre@@6B@
	mov	edx, DWORD PTR _this$[ebp]
	mov	eax, DWORD PTR ___that$[ebp]
	mov	ecx, DWORD PTR [eax+4]
	mov	DWORD PTR [edx+4], ecx
	mov	eax, DWORD PTR _this$[ebp]
	mov	esp, ebp
	pop	ebp
	ret	4
??0BaseObject@Ogre@@QAE@ABV01@@Z ENDP			; Ogre::BaseObject::BaseObject
_TEXT	ENDS
PUBLIC	??4BaseObject@Ogre@@QAEAAV01@ABV01@@Z		; Ogre::BaseObject::operator=
; Function compile flags: /Odtp
;	COMDAT ??4BaseObject@Ogre@@QAEAAV01@ABV01@@Z
_TEXT	SEGMENT
_this$ = -4						; size = 4
___that$ = 8						; size = 4
??4BaseObject@Ogre@@QAEAAV01@ABV01@@Z PROC		; Ogre::BaseObject::operator=, COMDAT
; _this$ = ecx
	push	ebp
	mov	ebp, esp
	push	ecx
	mov	DWORD PTR _this$[ebp], ecx
	mov	eax, DWORD PTR _this$[ebp]
	mov	ecx, DWORD PTR ___that$[ebp]
	mov	edx, DWORD PTR [ecx+4]
	mov	DWORD PTR [eax+4], edx
	mov	eax, DWORD PTR _this$[ebp]
	mov	esp, ebp
	pop	ebp
	ret	4
??4BaseObject@Ogre@@QAEAAV01@ABV01@@Z ENDP		; Ogre::BaseObject::operator=
_TEXT	ENDS
PUBLIC	??_GBaseObject@Ogre@@MAEPAXI@Z			; Ogre::BaseObject::`scalar deleting destructor'
EXTRN	??3MemoryDelegation@Ogre@@SAXPAXI@Z:PROC	; Ogre::MemoryDelegation::operator delete
; Function compile flags: /Odtp
;	COMDAT ??_GBaseObject@Ogre@@MAEPAXI@Z
_TEXT	SEGMENT
_this$ = -4						; size = 4
___flags$ = 8						; size = 4
??_GBaseObject@Ogre@@MAEPAXI@Z PROC			; Ogre::BaseObject::`scalar deleting destructor', COMDAT
; _this$ = ecx
	push	ebp
	mov	ebp, esp
	push	ecx
	mov	DWORD PTR _this$[ebp], ecx
	mov	ecx, DWORD PTR _this$[ebp]
	call	??1BaseObject@Ogre@@MAE@XZ		; Ogre::BaseObject::~BaseObject
	mov	eax, DWORD PTR ___flags$[ebp]
	and	eax, 1
	je	SHORT $LN1@scalar
	push	8
	mov	ecx, DWORD PTR _this$[ebp]
	push	ecx
	call	??3MemoryDelegation@Ogre@@SAXPAXI@Z	; Ogre::MemoryDelegation::operator delete
	add	esp, 8
$LN1@scalar:
	mov	eax, DWORD PTR _this$[ebp]
	mov	esp, ebp
	pop	ebp
	ret	4
??_GBaseObject@Ogre@@MAEPAXI@Z ENDP			; Ogre::BaseObject::`scalar deleting destructor'
_TEXT	ENDS
EXTRN	??_VMemoryDelegation@Ogre@@SAXPAXI@Z:PROC	; Ogre::MemoryDelegation::operator delete[]
EXTRN	??_M@YGXPAXIHP6EX0@Z@Z:PROC			; `eh vector destructor iterator'
; Function compile flags: /Odtp
;	COMDAT ??_EBaseObject@Ogre@@MAEPAXI@Z
_TEXT	SEGMENT
_this$ = -4						; size = 4
___flags$ = 8						; size = 4
??_EBaseObject@Ogre@@MAEPAXI@Z PROC			; Ogre::BaseObject::`vector deleting destructor', COMDAT
; _this$ = ecx
	push	ebp
	mov	ebp, esp
	push	ecx
	mov	DWORD PTR _this$[ebp], ecx
	mov	eax, DWORD PTR ___flags$[ebp]
	and	eax, 2
	je	SHORT $LN3@vector
	push	OFFSET ??1BaseObject@Ogre@@MAE@XZ	; Ogre::BaseObject::~BaseObject
	mov	ecx, DWORD PTR _this$[ebp]
	mov	edx, DWORD PTR [ecx-4]
	push	edx
	push	8
	mov	eax, DWORD PTR _this$[ebp]
	push	eax
	call	??_M@YGXPAXIHP6EX0@Z@Z
	mov	ecx, DWORD PTR ___flags$[ebp]
	and	ecx, 1
	je	SHORT $LN2@vector
	push	8
	mov	edx, DWORD PTR _this$[ebp]
	sub	edx, 4
	push	edx
	call	??_VMemoryDelegation@Ogre@@SAXPAXI@Z	; Ogre::MemoryDelegation::operator delete[]
	add	esp, 8
$LN2@vector:
	mov	eax, DWORD PTR _this$[ebp]
	sub	eax, 4
	jmp	SHORT $LN4@vector
$LN3@vector:
	mov	ecx, DWORD PTR _this$[ebp]
	call	??1BaseObject@Ogre@@MAE@XZ		; Ogre::BaseObject::~BaseObject
	mov	eax, DWORD PTR ___flags$[ebp]
	and	eax, 1
	je	SHORT $LN1@vector
	push	8
	mov	ecx, DWORD PTR _this$[ebp]
	push	ecx
	call	??3MemoryDelegation@Ogre@@SAXPAXI@Z	; Ogre::MemoryDelegation::operator delete
	add	esp, 8
$LN1@vector:
	mov	eax, DWORD PTR _this$[ebp]
$LN4@vector:
	mov	esp, ebp
	pop	ebp
	ret	4
??_EBaseObject@Ogre@@MAEPAXI@Z ENDP			; Ogre::BaseObject::`vector deleting destructor'
_TEXT	ENDS
PUBLIC	??_7DataStream@Ogre@@6B@			; Ogre::DataStream::`vftable'
PUBLIC	??0DataStream@Ogre@@QAE@XZ			; Ogre::DataStream::DataStream
PUBLIC	??_R4DataStream@Ogre@@6B@			; Ogre::DataStream::`RTTI Complete Object Locator'
PUBLIC	??_R0?AVDataStream@Ogre@@@8			; Ogre::DataStream `RTTI Type Descriptor'
PUBLIC	??_R3DataStream@Ogre@@8				; Ogre::DataStream::`RTTI Class Hierarchy Descriptor'
PUBLIC	??_R2DataStream@Ogre@@8				; Ogre::DataStream::`RTTI Base Class Array'
PUBLIC	??_R1A@?0A@EA@DataStream@Ogre@@8		; Ogre::DataStream::`RTTI Base Class Descriptor at (0,-1,0,64)'
PUBLIC	??_EDataStream@Ogre@@UAEPAXI@Z			; Ogre::DataStream::`vector deleting destructor'
PUBLIC	?size@DataStream@Ogre@@UBEIXZ			; Ogre::DataStream::size
EXTRN	__imp_??1?$basic_string@DU?$char_traits@D@std@@V?$allocator@D@2@@std@@QAE@XZ:PROC
EXTRN	__imp_??0?$basic_string@DU?$char_traits@D@std@@V?$allocator@D@2@@std@@QAE@XZ:PROC
EXTRN	___security_cookie:DWORD
EXTRN	___CxxFrameHandler3:PROC
EXTRN	@__security_check_cookie@4:PROC
EXTRN	__purecall:PROC
EXTRN	?readLine@DataStream@Ogre@@UAEIPADIABV?$basic_string@DU?$char_traits@D@std@@V?$allocator@D@2@@std@@@Z:PROC ; Ogre::DataStream::readLine
EXTRN	?getLine@DataStream@Ogre@@UAE?AV?$basic_string@DU?$char_traits@D@std@@V?$allocator@D@2@@std@@_N@Z:PROC ; Ogre::DataStream::getLine
EXTRN	?getAsString@DataStream@Ogre@@UAE?AV?$basic_string@DU?$char_traits@D@std@@V?$allocator@D@2@@std@@XZ:PROC ; Ogre::DataStream::getAsString
EXTRN	?skipLine@DataStream@Ogre@@UAEIABV?$basic_string@DU?$char_traits@D@std@@V?$allocator@D@2@@std@@@Z:PROC ; Ogre::DataStream::skipLine
;	COMDAT ??_R1A@?0A@EA@DataStream@Ogre@@8
; File i:\svnroot\client\ogremain\ogredatastream.h
rdata$r	SEGMENT
??_R1A@?0A@EA@DataStream@Ogre@@8 DD FLAT:??_R0?AVDataStream@Ogre@@@8 ; Ogre::DataStream::`RTTI Base Class Descriptor at (0,-1,0,64)'
	DD	00H
	DD	00H
	DD	0ffffffffH
	DD	00H
	DD	040H
	DD	FLAT:??_R3DataStream@Ogre@@8
rdata$r	ENDS
;	COMDAT ??_R2DataStream@Ogre@@8
rdata$r	SEGMENT
??_R2DataStream@Ogre@@8 DD FLAT:??_R1A@?0A@EA@DataStream@Ogre@@8 ; Ogre::DataStream::`RTTI Base Class Array'
rdata$r	ENDS
;	COMDAT ??_R3DataStream@Ogre@@8
rdata$r	SEGMENT
??_R3DataStream@Ogre@@8 DD 00H				; Ogre::DataStream::`RTTI Class Hierarchy Descriptor'
	DD	00H
	DD	01H
	DD	FLAT:??_R2DataStream@Ogre@@8
rdata$r	ENDS
;	COMDAT ??_R0?AVDataStream@Ogre@@@8
_DATA	SEGMENT
??_R0?AVDataStream@Ogre@@@8 DD FLAT:??_7type_info@@6B@	; Ogre::DataStream `RTTI Type Descriptor'
	DD	00H
	DB	'.?AVDataStream@Ogre@@', 00H
_DATA	ENDS
;	COMDAT ??_R4DataStream@Ogre@@6B@
rdata$r	SEGMENT
??_R4DataStream@Ogre@@6B@ DD 00H			; Ogre::DataStream::`RTTI Complete Object Locator'
	DD	00H
	DD	00H
	DD	FLAT:??_R0?AVDataStream@Ogre@@@8
	DD	FLAT:??_R3DataStream@Ogre@@8
rdata$r	ENDS
;	COMDAT ??_7DataStream@Ogre@@6B@
CONST	SEGMENT
??_7DataStream@Ogre@@6B@ DD FLAT:??_R4DataStream@Ogre@@6B@ ; Ogre::DataStream::`vftable'
	DD	FLAT:??_EDataStream@Ogre@@UAEPAXI@Z
	DD	FLAT:__purecall
	DD	FLAT:__purecall
	DD	FLAT:?readLine@DataStream@Ogre@@UAEIPADIABV?$basic_string@DU?$char_traits@D@std@@V?$allocator@D@2@@std@@@Z
	DD	FLAT:?getLine@DataStream@Ogre@@UAE?AV?$basic_string@DU?$char_traits@D@std@@V?$allocator@D@2@@std@@_N@Z
	DD	FLAT:?getAsString@DataStream@Ogre@@UAE?AV?$basic_string@DU?$char_traits@D@std@@V?$allocator@D@2@@std@@XZ
	DD	FLAT:?skipLine@DataStream@Ogre@@UAEIABV?$basic_string@DU?$char_traits@D@std@@V?$allocator@D@2@@std@@@Z
	DD	FLAT:__purecall
	DD	FLAT:__purecall
	DD	FLAT:__purecall
	DD	FLAT:__purecall
	DD	FLAT:?size@DataStream@Ogre@@UBEIXZ
	DD	FLAT:__purecall
	DD	FLAT:__purecall
CONST	ENDS
;	COMDAT xdata$x
xdata$x	SEGMENT
__unwindtable$??0DataStream@Ogre@@QAE@XZ DD 0ffffffffH
	DD	FLAT:__unwindfunclet$??0DataStream@Ogre@@QAE@XZ$0
__ehfuncinfo$??0DataStream@Ogre@@QAE@XZ DD 019930522H
	DD	01H
	DD	FLAT:__unwindtable$??0DataStream@Ogre@@QAE@XZ
	DD	2 DUP(00H)
	DD	2 DUP(00H)
	DD	00H
	DD	00H
; Function compile flags: /Odtp
xdata$x	ENDS
;	COMDAT ??0DataStream@Ogre@@QAE@XZ
_TEXT	SEGMENT
_this$ = -16						; size = 4
__$EHRec$ = -12						; size = 12
??0DataStream@Ogre@@QAE@XZ PROC				; Ogre::DataStream::DataStream, COMDAT
; _this$ = ecx

; 68   : 		DataStream() : mSize(0) {}

	push	ebp
	mov	ebp, esp
	push	-1
	push	__ehhandler$??0DataStream@Ogre@@QAE@XZ
	mov	eax, DWORD PTR fs:0
	push	eax
	push	ecx
	mov	eax, DWORD PTR ___security_cookie
	xor	eax, ebp
	push	eax
	lea	eax, DWORD PTR __$EHRec$[ebp]
	mov	DWORD PTR fs:0, eax
	mov	DWORD PTR _this$[ebp], ecx
	mov	eax, DWORD PTR _this$[ebp]
	mov	DWORD PTR [eax], OFFSET ??_7DataStream@Ogre@@6B@
	mov	ecx, DWORD PTR _this$[ebp]
	add	ecx, 4
	call	DWORD PTR __imp_??0?$basic_string@DU?$char_traits@D@std@@V?$allocator@D@2@@std@@QAE@XZ
	mov	DWORD PTR __$EHRec$[ebp+8], 0
	mov	ecx, DWORD PTR _this$[ebp]
	mov	DWORD PTR [ecx+32], 0
	mov	DWORD PTR __$EHRec$[ebp+8], -1
	mov	eax, DWORD PTR _this$[ebp]
	mov	ecx, DWORD PTR __$EHRec$[ebp]
	mov	DWORD PTR fs:0, ecx
	pop	ecx
	mov	esp, ebp
	pop	ebp
	ret	0
_TEXT	ENDS
;	COMDAT text$x
text$x	SEGMENT
__unwindfunclet$??0DataStream@Ogre@@QAE@XZ$0:
	mov	ecx, DWORD PTR _this$[ebp]
	add	ecx, 4
	jmp	DWORD PTR __imp_??1?$basic_string@DU?$char_traits@D@std@@V?$allocator@D@2@@std@@QAE@XZ
__ehhandler$??0DataStream@Ogre@@QAE@XZ:
	mov	edx, DWORD PTR [esp+8]
	lea	eax, DWORD PTR [edx+12]
	mov	ecx, DWORD PTR [edx-8]
	xor	ecx, eax
	call	@__security_check_cookie@4
	mov	eax, OFFSET __ehfuncinfo$??0DataStream@Ogre@@QAE@XZ
	jmp	___CxxFrameHandler3
text$x	ENDS
??0DataStream@Ogre@@QAE@XZ ENDP				; Ogre::DataStream::DataStream
PUBLIC	??0DataStream@Ogre@@QAE@ABV?$basic_string@DU?$char_traits@D@std@@V?$allocator@D@2@@std@@@Z ; Ogre::DataStream::DataStream
EXTRN	__imp_??0?$basic_string@DU?$char_traits@D@std@@V?$allocator@D@2@@std@@QAE@ABV01@@Z:PROC
;	COMDAT xdata$x
xdata$x	SEGMENT
__unwindtable$??0DataStream@Ogre@@QAE@ABV?$basic_string@DU?$char_traits@D@std@@V?$allocator@D@2@@std@@@Z DD 0ffffffffH
	DD	FLAT:__unwindfunclet$??0DataStream@Ogre@@QAE@ABV?$basic_string@DU?$char_traits@D@std@@V?$allocator@D@2@@std@@@Z$0
__ehfuncinfo$??0DataStream@Ogre@@QAE@ABV?$basic_string@DU?$char_traits@D@std@@V?$allocator@D@2@@std@@@Z DD 019930522H
	DD	01H
	DD	FLAT:__unwindtable$??0DataStream@Ogre@@QAE@ABV?$basic_string@DU?$char_traits@D@std@@V?$allocator@D@2@@std@@@Z
	DD	2 DUP(00H)
	DD	2 DUP(00H)
	DD	00H
	DD	00H
; Function compile flags: /Odtp
xdata$x	ENDS
;	COMDAT ??0DataStream@Ogre@@QAE@ABV?$basic_string@DU?$char_traits@D@std@@V?$allocator@D@2@@std@@@Z
_TEXT	SEGMENT
_this$ = -16						; size = 4
__$EHRec$ = -12						; size = 12
_name$ = 8						; size = 4
??0DataStream@Ogre@@QAE@ABV?$basic_string@DU?$char_traits@D@std@@V?$allocator@D@2@@std@@@Z PROC ; Ogre::DataStream::DataStream, COMDAT
; _this$ = ecx

; 70   : 		DataStream(const String& name) : mName(name), mSize(0) {}

	push	ebp
	mov	ebp, esp
	push	-1
	push	__ehhandler$??0DataStream@Ogre@@QAE@ABV?$basic_string@DU?$char_traits@D@std@@V?$allocator@D@2@@std@@@Z
	mov	eax, DWORD PTR fs:0
	push	eax
	push	ecx
	mov	eax, DWORD PTR ___security_cookie
	xor	eax, ebp
	push	eax
	lea	eax, DWORD PTR __$EHRec$[ebp]
	mov	DWORD PTR fs:0, eax
	mov	DWORD PTR _this$[ebp], ecx
	mov	eax, DWORD PTR _this$[ebp]
	mov	DWORD PTR [eax], OFFSET ??_7DataStream@Ogre@@6B@
	mov	ecx, DWORD PTR _name$[ebp]
	push	ecx
	mov	ecx, DWORD PTR _this$[ebp]
	add	ecx, 4
	call	DWORD PTR __imp_??0?$basic_string@DU?$char_traits@D@std@@V?$allocator@D@2@@std@@QAE@ABV01@@Z
	mov	DWORD PTR __$EHRec$[ebp+8], 0
	mov	edx, DWORD PTR _this$[ebp]
	mov	DWORD PTR [edx+32], 0
	mov	DWORD PTR __$EHRec$[ebp+8], -1
	mov	eax, DWORD PTR _this$[ebp]
	mov	ecx, DWORD PTR __$EHRec$[ebp]
	mov	DWORD PTR fs:0, ecx
	pop	ecx
	mov	esp, ebp
	pop	ebp
	ret	4
_TEXT	ENDS
;	COMDAT text$x
text$x	SEGMENT
__unwindfunclet$??0DataStream@Ogre@@QAE@ABV?$basic_string@DU?$char_traits@D@std@@V?$allocator@D@2@@std@@@Z$0:
	mov	ecx, DWORD PTR _this$[ebp]
	add	ecx, 4
	jmp	DWORD PTR __imp_??1?$basic_string@DU?$char_traits@D@std@@V?$allocator@D@2@@std@@QAE@XZ
__ehhandler$??0DataStream@Ogre@@QAE@ABV?$basic_string@DU?$char_traits@D@std@@V?$allocator@D@2@@std@@@Z:
	mov	edx, DWORD PTR [esp+8]
	lea	eax, DWORD PTR [edx+12]
	mov	ecx, DWORD PTR [edx-8]
	xor	ecx, eax
	call	@__security_check_cookie@4
	mov	eax, OFFSET __ehfuncinfo$??0DataStream@Ogre@@QAE@ABV?$basic_string@DU?$char_traits@D@std@@V?$allocator@D@2@@std@@@Z
	jmp	___CxxFrameHandler3
text$x	ENDS
??0DataStream@Ogre@@QAE@ABV?$basic_string@DU?$char_traits@D@std@@V?$allocator@D@2@@std@@@Z ENDP ; Ogre::DataStream::DataStream
PUBLIC	?getName@DataStream@Ogre@@QAEABV?$basic_string@DU?$char_traits@D@std@@V?$allocator@D@2@@std@@XZ ; Ogre::DataStream::getName
; Function compile flags: /Odtp
;	COMDAT ?getName@DataStream@Ogre@@QAEABV?$basic_string@DU?$char_traits@D@std@@V?$allocator@D@2@@std@@XZ
_TEXT	SEGMENT
_this$ = -4						; size = 4
?getName@DataStream@Ogre@@QAEABV?$basic_string@DU?$char_traits@D@std@@V?$allocator@D@2@@std@@XZ PROC ; Ogre::DataStream::getName, COMDAT
; _this$ = ecx

; 72   : 		const String& getName(void) { return mName; }

	push	ebp
	mov	ebp, esp
	push	ecx
	mov	DWORD PTR _this$[ebp], ecx
	mov	eax, DWORD PTR _this$[ebp]
	add	eax, 4
	mov	esp, ebp
	pop	ebp
	ret	0
?getName@DataStream@Ogre@@QAEABV?$basic_string@DU?$char_traits@D@std@@V?$allocator@D@2@@std@@XZ ENDP ; Ogre::DataStream::getName
_TEXT	ENDS
PUBLIC	??1DataStream@Ogre@@UAE@XZ			; Ogre::DataStream::~DataStream
;	COMDAT xdata$x
xdata$x	SEGMENT
__unwindtable$??1DataStream@Ogre@@UAE@XZ DD 0ffffffffH
	DD	FLAT:__unwindfunclet$??1DataStream@Ogre@@UAE@XZ$0
__ehfuncinfo$??1DataStream@Ogre@@UAE@XZ DD 019930522H
	DD	01H
	DD	FLAT:__unwindtable$??1DataStream@Ogre@@UAE@XZ
	DD	2 DUP(00H)
	DD	2 DUP(00H)
	DD	00H
	DD	00H
; Function compile flags: /Odtp
xdata$x	ENDS
;	COMDAT ??1DataStream@Ogre@@UAE@XZ
_TEXT	SEGMENT
_this$ = -16						; size = 4
__$EHRec$ = -12						; size = 12
??1DataStream@Ogre@@UAE@XZ PROC				; Ogre::DataStream::~DataStream, COMDAT
; _this$ = ecx

; 73   : 		virtual ~DataStream() {}

	push	ebp
	mov	ebp, esp
	push	-1
	push	__ehhandler$??1DataStream@Ogre@@UAE@XZ
	mov	eax, DWORD PTR fs:0
	push	eax
	push	ecx
	mov	eax, DWORD PTR ___security_cookie
	xor	eax, ebp
	push	eax
	lea	eax, DWORD PTR __$EHRec$[ebp]
	mov	DWORD PTR fs:0, eax
	mov	DWORD PTR _this$[ebp], ecx
	mov	eax, DWORD PTR _this$[ebp]
	mov	DWORD PTR [eax], OFFSET ??_7DataStream@Ogre@@6B@
	mov	DWORD PTR __$EHRec$[ebp+8], 0
	mov	DWORD PTR __$EHRec$[ebp+8], -1
	mov	ecx, DWORD PTR _this$[ebp]
	add	ecx, 4
	call	DWORD PTR __imp_??1?$basic_string@DU?$char_traits@D@std@@V?$allocator@D@2@@std@@QAE@XZ
	mov	ecx, DWORD PTR __$EHRec$[ebp]
	mov	DWORD PTR fs:0, ecx
	pop	ecx
	mov	esp, ebp
	pop	ebp
	ret	0
_TEXT	ENDS
;	COMDAT text$x
text$x	SEGMENT
__unwindfunclet$??1DataStream@Ogre@@UAE@XZ$0:
	mov	ecx, DWORD PTR _this$[ebp]
	add	ecx, 4
	jmp	DWORD PTR __imp_??1?$basic_string@DU?$char_traits@D@std@@V?$allocator@D@2@@std@@QAE@XZ
__ehhandler$??1DataStream@Ogre@@UAE@XZ:
	mov	edx, DWORD PTR [esp+8]
	lea	eax, DWORD PTR [edx+12]
	mov	ecx, DWORD PTR [edx-8]
	xor	ecx, eax
	call	@__security_check_cookie@4
	mov	eax, OFFSET __ehfuncinfo$??1DataStream@Ogre@@UAE@XZ
	jmp	___CxxFrameHandler3
text$x	ENDS
??1DataStream@Ogre@@UAE@XZ ENDP				; Ogre::DataStream::~DataStream
; Function compile flags: /Odtp
;	COMDAT ?size@DataStream@Ogre@@UBEIXZ
_TEXT	SEGMENT
_this$ = -4						; size = 4
?size@DataStream@Ogre@@UBEIXZ PROC			; Ogre::DataStream::size, COMDAT
; _this$ = ecx

; 157  : 		virtual size_t size(void) const { return mSize; }

	push	ebp
	mov	ebp, esp
	push	ecx
	mov	DWORD PTR _this$[ebp], ecx
	mov	eax, DWORD PTR _this$[ebp]
	mov	eax, DWORD PTR [eax+32]
	mov	esp, ebp
	pop	ebp
	ret	0
?size@DataStream@Ogre@@UBEIXZ ENDP			; Ogre::DataStream::size
_TEXT	ENDS
PUBLIC	??0DataStream@Ogre@@QAE@ABV01@@Z		; Ogre::DataStream::DataStream
;	COMDAT xdata$x
xdata$x	SEGMENT
__unwindtable$??0DataStream@Ogre@@QAE@ABV01@@Z DD 0ffffffffH
	DD	FLAT:__unwindfunclet$??0DataStream@Ogre@@QAE@ABV01@@Z$0
__ehfuncinfo$??0DataStream@Ogre@@QAE@ABV01@@Z DD 019930522H
	DD	01H
	DD	FLAT:__unwindtable$??0DataStream@Ogre@@QAE@ABV01@@Z
	DD	2 DUP(00H)
	DD	2 DUP(00H)
	DD	00H
	DD	00H
; Function compile flags: /Odtp
xdata$x	ENDS
;	COMDAT ??0DataStream@Ogre@@QAE@ABV01@@Z
_TEXT	SEGMENT
_this$ = -16						; size = 4
__$EHRec$ = -12						; size = 12
___that$ = 8						; size = 4
??0DataStream@Ogre@@QAE@ABV01@@Z PROC			; Ogre::DataStream::DataStream, COMDAT
; _this$ = ecx
	push	ebp
	mov	ebp, esp
	push	-1
	push	__ehhandler$??0DataStream@Ogre@@QAE@ABV01@@Z
	mov	eax, DWORD PTR fs:0
	push	eax
	push	ecx
	mov	eax, DWORD PTR ___security_cookie
	xor	eax, ebp
	push	eax
	lea	eax, DWORD PTR __$EHRec$[ebp]
	mov	DWORD PTR fs:0, eax
	mov	DWORD PTR _this$[ebp], ecx
	mov	eax, DWORD PTR _this$[ebp]
	mov	DWORD PTR [eax], OFFSET ??_7DataStream@Ogre@@6B@
	mov	ecx, DWORD PTR ___that$[ebp]
	add	ecx, 4
	push	ecx
	mov	ecx, DWORD PTR _this$[ebp]
	add	ecx, 4
	call	DWORD PTR __imp_??0?$basic_string@DU?$char_traits@D@std@@V?$allocator@D@2@@std@@QAE@ABV01@@Z
	mov	DWORD PTR __$EHRec$[ebp+8], 0
	mov	edx, DWORD PTR _this$[ebp]
	mov	eax, DWORD PTR ___that$[ebp]
	mov	ecx, DWORD PTR [eax+32]
	mov	DWORD PTR [edx+32], ecx
	mov	DWORD PTR __$EHRec$[ebp+8], -1
	mov	eax, DWORD PTR _this$[ebp]
	mov	ecx, DWORD PTR __$EHRec$[ebp]
	mov	DWORD PTR fs:0, ecx
	pop	ecx
	mov	esp, ebp
	pop	ebp
	ret	4
_TEXT	ENDS
;	COMDAT text$x
text$x	SEGMENT
__unwindfunclet$??0DataStream@Ogre@@QAE@ABV01@@Z$0:
	mov	ecx, DWORD PTR _this$[ebp]
	add	ecx, 4
	jmp	DWORD PTR __imp_??1?$basic_string@DU?$char_traits@D@std@@V?$allocator@D@2@@std@@QAE@XZ
__ehhandler$??0DataStream@Ogre@@QAE@ABV01@@Z:
	mov	edx, DWORD PTR [esp+8]
	lea	eax, DWORD PTR [edx+12]
	mov	ecx, DWORD PTR [edx-8]
	xor	ecx, eax
	call	@__security_check_cookie@4
	mov	eax, OFFSET __ehfuncinfo$??0DataStream@Ogre@@QAE@ABV01@@Z
	jmp	___CxxFrameHandler3
text$x	ENDS
??0DataStream@Ogre@@QAE@ABV01@@Z ENDP			; Ogre::DataStream::DataStream
PUBLIC	??4DataStream@Ogre@@QAEAAV01@ABV01@@Z		; Ogre::DataStream::operator=
EXTRN	__imp_??4?$basic_string@DU?$char_traits@D@std@@V?$allocator@D@2@@std@@QAEAAV01@ABV01@@Z:PROC
; Function compile flags: /Odtp
;	COMDAT ??4DataStream@Ogre@@QAEAAV01@ABV01@@Z
_TEXT	SEGMENT
_this$ = -4						; size = 4
___that$ = 8						; size = 4
??4DataStream@Ogre@@QAEAAV01@ABV01@@Z PROC		; Ogre::DataStream::operator=, COMDAT
; _this$ = ecx
	push	ebp
	mov	ebp, esp
	push	ecx
	mov	DWORD PTR _this$[ebp], ecx
	mov	eax, DWORD PTR ___that$[ebp]
	add	eax, 4
	push	eax
	mov	ecx, DWORD PTR _this$[ebp]
	add	ecx, 4
	call	DWORD PTR __imp_??4?$basic_string@DU?$char_traits@D@std@@V?$allocator@D@2@@std@@QAEAAV01@ABV01@@Z
	mov	ecx, DWORD PTR _this$[ebp]
	mov	edx, DWORD PTR ___that$[ebp]
	mov	eax, DWORD PTR [edx+32]
	mov	DWORD PTR [ecx+32], eax
	mov	eax, DWORD PTR _this$[ebp]
	mov	esp, ebp
	pop	ebp
	ret	4
??4DataStream@Ogre@@QAEAAV01@ABV01@@Z ENDP		; Ogre::DataStream::operator=
_TEXT	ENDS
PUBLIC	??_GDataStream@Ogre@@UAEPAXI@Z			; Ogre::DataStream::`scalar deleting destructor'
EXTRN	??3@YAXPAX@Z:PROC				; operator delete
; Function compile flags: /Odtp
;	COMDAT ??_GDataStream@Ogre@@UAEPAXI@Z
_TEXT	SEGMENT
_this$ = -4						; size = 4
___flags$ = 8						; size = 4
??_GDataStream@Ogre@@UAEPAXI@Z PROC			; Ogre::DataStream::`scalar deleting destructor', COMDAT
; _this$ = ecx
	push	ebp
	mov	ebp, esp
	push	ecx
	mov	DWORD PTR _this$[ebp], ecx
	mov	ecx, DWORD PTR _this$[ebp]
	call	??1DataStream@Ogre@@UAE@XZ		; Ogre::DataStream::~DataStream
	mov	eax, DWORD PTR ___flags$[ebp]
	and	eax, 1
	je	SHORT $LN1@scalar@2
	mov	ecx, DWORD PTR _this$[ebp]
	push	ecx
	call	??3@YAXPAX@Z				; operator delete
	add	esp, 4
$LN1@scalar@2:
	mov	eax, DWORD PTR _this$[ebp]
	mov	esp, ebp
	pop	ebp
	ret	4
??_GDataStream@Ogre@@UAEPAXI@Z ENDP			; Ogre::DataStream::`scalar deleting destructor'
_TEXT	ENDS
EXTRN	??_V@YAXPAX@Z:PROC				; operator delete[]
; Function compile flags: /Odtp
;	COMDAT ??_EDataStream@Ogre@@UAEPAXI@Z
_TEXT	SEGMENT
_this$ = -4						; size = 4
___flags$ = 8						; size = 4
??_EDataStream@Ogre@@UAEPAXI@Z PROC			; Ogre::DataStream::`vector deleting destructor', COMDAT
; _this$ = ecx
	push	ebp
	mov	ebp, esp
	push	ecx
	mov	DWORD PTR _this$[ebp], ecx
	mov	eax, DWORD PTR ___flags$[ebp]
	and	eax, 2
	je	SHORT $LN3@vector@2
	push	OFFSET ??1DataStream@Ogre@@UAE@XZ	; Ogre::DataStream::~DataStream
	mov	ecx, DWORD PTR _this$[ebp]
	mov	edx, DWORD PTR [ecx-4]
	push	edx
	push	36					; 00000024H
	mov	eax, DWORD PTR _this$[ebp]
	push	eax
	call	??_M@YGXPAXIHP6EX0@Z@Z
	mov	ecx, DWORD PTR ___flags$[ebp]
	and	ecx, 1
	je	SHORT $LN2@vector@2
	mov	edx, DWORD PTR _this$[ebp]
	sub	edx, 4
	push	edx
	call	??_V@YAXPAX@Z				; operator delete[]
	add	esp, 4
$LN2@vector@2:
	mov	eax, DWORD PTR _this$[ebp]
	sub	eax, 4
	jmp	SHORT $LN4@vector@2
$LN3@vector@2:
	mov	ecx, DWORD PTR _this$[ebp]
	call	??1DataStream@Ogre@@UAE@XZ		; Ogre::DataStream::~DataStream
	mov	eax, DWORD PTR ___flags$[ebp]
	and	eax, 1
	je	SHORT $LN1@vector@2
	mov	ecx, DWORD PTR _this$[ebp]
	push	ecx
	call	??3@YAXPAX@Z				; operator delete
	add	esp, 4
$LN1@vector@2:
	mov	eax, DWORD PTR _this$[ebp]
$LN4@vector@2:
	mov	esp, ebp
	pop	ebp
	ret	4
??_EDataStream@Ogre@@UAEPAXI@Z ENDP			; Ogre::DataStream::`vector deleting destructor'
_TEXT	ENDS
PUBLIC	?getPtr@MemoryDataStream@Ogre@@QAEPAEXZ		; Ogre::MemoryDataStream::getPtr
; Function compile flags: /Odtp
;	COMDAT ?getPtr@MemoryDataStream@Ogre@@QAEPAEXZ
_TEXT	SEGMENT
_this$ = -4						; size = 4
?getPtr@MemoryDataStream@Ogre@@QAEPAEXZ PROC		; Ogre::MemoryDataStream::getPtr, COMDAT
; _this$ = ecx

; 267  : 		uchar* getPtr(void) { return mData; }

	push	ebp
	mov	ebp, esp
	push	ecx
	mov	DWORD PTR _this$[ebp], ecx
	mov	eax, DWORD PTR _this$[ebp]
	mov	eax, DWORD PTR [eax+36]
	mov	esp, ebp
	pop	ebp
	ret	0
?getPtr@MemoryDataStream@Ogre@@QAEPAEXZ ENDP		; Ogre::MemoryDataStream::getPtr
_TEXT	ENDS
PUBLIC	?getCurrentPtr@MemoryDataStream@Ogre@@QAEPAEXZ	; Ogre::MemoryDataStream::getCurrentPtr
; Function compile flags: /Odtp
;	COMDAT ?getCurrentPtr@MemoryDataStream@Ogre@@QAEPAEXZ
_TEXT	SEGMENT
_this$ = -4						; size = 4
?getCurrentPtr@MemoryDataStream@Ogre@@QAEPAEXZ PROC	; Ogre::MemoryDataStream::getCurrentPtr, COMDAT
; _this$ = ecx

; 270  : 		uchar* getCurrentPtr(void) { return mPos; }

	push	ebp
	mov	ebp, esp
	push	ecx
	mov	DWORD PTR _this$[ebp], ecx
	mov	eax, DWORD PTR _this$[ebp]
	mov	eax, DWORD PTR [eax+40]
	mov	esp, ebp
	pop	ebp
	ret	0
?getCurrentPtr@MemoryDataStream@Ogre@@QAEPAEXZ ENDP	; Ogre::MemoryDataStream::getCurrentPtr
_TEXT	ENDS
PUBLIC	?getMemoryImage@MemoryDataStream@Ogre@@UAEPAXXZ	; Ogre::MemoryDataStream::getMemoryImage
; Function compile flags: /Odtp
;	COMDAT ?getMemoryImage@MemoryDataStream@Ogre@@UAEPAXXZ
_TEXT	SEGMENT
_this$ = -4						; size = 4
?getMemoryImage@MemoryDataStream@Ogre@@UAEPAXXZ PROC	; Ogre::MemoryDataStream::getMemoryImage, COMDAT
; _this$ = ecx

; 307  : 		{

	push	ebp
	mov	ebp, esp
	push	ecx
	mov	DWORD PTR _this$[ebp], ecx

; 308  : 			return mData;

	mov	eax, DWORD PTR _this$[ebp]
	mov	eax, DWORD PTR [eax+36]

; 309  : 		}

	mov	esp, ebp
	pop	ebp
	ret	0
?getMemoryImage@MemoryDataStream@Ogre@@UAEPAXXZ ENDP	; Ogre::MemoryDataStream::getMemoryImage
_TEXT	ENDS
PUBLIC	?setFreeOnClose@MemoryDataStream@Ogre@@QAEXP6AXPAX@Z@Z ; Ogre::MemoryDataStream::setFreeOnClose
; Function compile flags: /Odtp
;	COMDAT ?setFreeOnClose@MemoryDataStream@Ogre@@QAEXP6AXPAX@Z@Z
_TEXT	SEGMENT
_this$ = -4						; size = 4
_freeOnClose$ = 8					; size = 4
?setFreeOnClose@MemoryDataStream@Ogre@@QAEXP6AXPAX@Z@Z PROC ; Ogre::MemoryDataStream::setFreeOnClose, COMDAT
; _this$ = ecx

; 313  : 		void setFreeOnClose(void (*freeOnClose)(void *)) { mFreeOnClose = freeOnClose; }

	push	ebp
	mov	ebp, esp
	push	ecx
	mov	DWORD PTR _this$[ebp], ecx
	mov	eax, DWORD PTR _this$[ebp]
	mov	ecx, DWORD PTR _freeOnClose$[ebp]
	mov	DWORD PTR [eax+48], ecx
	mov	esp, ebp
	pop	ebp
	ret	4
?setFreeOnClose@MemoryDataStream@Ogre@@QAEXP6AXPAX@Z@Z ENDP ; Ogre::MemoryDataStream::setFreeOnClose
_TEXT	ENDS
PUBLIC	??_7MemoryDataStream@Ogre@@6B@			; Ogre::MemoryDataStream::`vftable'
PUBLIC	??0MemoryDataStream@Ogre@@QAE@ABV01@@Z		; Ogre::MemoryDataStream::MemoryDataStream
PUBLIC	??_R4MemoryDataStream@Ogre@@6B@			; Ogre::MemoryDataStream::`RTTI Complete Object Locator'
PUBLIC	??_R0?AVMemoryDataStream@Ogre@@@8		; Ogre::MemoryDataStream `RTTI Type Descriptor'
PUBLIC	??_R3MemoryDataStream@Ogre@@8			; Ogre::MemoryDataStream::`RTTI Class Hierarchy Descriptor'
PUBLIC	??_R2MemoryDataStream@Ogre@@8			; Ogre::MemoryDataStream::`RTTI Base Class Array'
PUBLIC	??_R1A@?0A@EA@MemoryDataStream@Ogre@@8		; Ogre::MemoryDataStream::`RTTI Base Class Descriptor at (0,-1,0,64)'
PUBLIC	??_EMemoryDataStream@Ogre@@UAEPAXI@Z		; Ogre::MemoryDataStream::`vector deleting destructor'
EXTRN	?read@MemoryDataStream@Ogre@@UAEIPAXI@Z:PROC	; Ogre::MemoryDataStream::read
EXTRN	?write@MemoryDataStream@Ogre@@UAEIPBXI@Z:PROC	; Ogre::MemoryDataStream::write
EXTRN	?readLine@MemoryDataStream@Ogre@@UAEIPADIABV?$basic_string@DU?$char_traits@D@std@@V?$allocator@D@2@@std@@@Z:PROC ; Ogre::MemoryDataStream::readLine
EXTRN	?skipLine@MemoryDataStream@Ogre@@UAEIABV?$basic_string@DU?$char_traits@D@std@@V?$allocator@D@2@@std@@@Z:PROC ; Ogre::MemoryDataStream::skipLine
EXTRN	?skip@MemoryDataStream@Ogre@@UAEXJ@Z:PROC	; Ogre::MemoryDataStream::skip
EXTRN	?seek@MemoryDataStream@Ogre@@UAEXI@Z:PROC	; Ogre::MemoryDataStream::seek
EXTRN	?tell@MemoryDataStream@Ogre@@UBEIXZ:PROC	; Ogre::MemoryDataStream::tell
EXTRN	?eof@MemoryDataStream@Ogre@@UBE_NXZ:PROC	; Ogre::MemoryDataStream::eof
EXTRN	?close@MemoryDataStream@Ogre@@UAEXXZ:PROC	; Ogre::MemoryDataStream::close
;	COMDAT ??_R1A@?0A@EA@MemoryDataStream@Ogre@@8
rdata$r	SEGMENT
??_R1A@?0A@EA@MemoryDataStream@Ogre@@8 DD FLAT:??_R0?AVMemoryDataStream@Ogre@@@8 ; Ogre::MemoryDataStream::`RTTI Base Class Descriptor at (0,-1,0,64)'
	DD	01H
	DD	00H
	DD	0ffffffffH
	DD	00H
	DD	040H
	DD	FLAT:??_R3MemoryDataStream@Ogre@@8
rdata$r	ENDS
;	COMDAT ??_R2MemoryDataStream@Ogre@@8
rdata$r	SEGMENT
??_R2MemoryDataStream@Ogre@@8 DD FLAT:??_R1A@?0A@EA@MemoryDataStream@Ogre@@8 ; Ogre::MemoryDataStream::`RTTI Base Class Array'
	DD	FLAT:??_R1A@?0A@EA@DataStream@Ogre@@8
rdata$r	ENDS
;	COMDAT ??_R3MemoryDataStream@Ogre@@8
rdata$r	SEGMENT
??_R3MemoryDataStream@Ogre@@8 DD 00H			; Ogre::MemoryDataStream::`RTTI Class Hierarchy Descriptor'
	DD	00H
	DD	02H
	DD	FLAT:??_R2MemoryDataStream@Ogre@@8
rdata$r	ENDS
;	COMDAT ??_R0?AVMemoryDataStream@Ogre@@@8
_DATA	SEGMENT
??_R0?AVMemoryDataStream@Ogre@@@8 DD FLAT:??_7type_info@@6B@ ; Ogre::MemoryDataStream `RTTI Type Descriptor'
	DD	00H
	DB	'.?AVMemoryDataStream@Ogre@@', 00H
_DATA	ENDS
;	COMDAT ??_R4MemoryDataStream@Ogre@@6B@
rdata$r	SEGMENT
??_R4MemoryDataStream@Ogre@@6B@ DD 00H			; Ogre::MemoryDataStream::`RTTI Complete Object Locator'
	DD	00H
	DD	00H
	DD	FLAT:??_R0?AVMemoryDataStream@Ogre@@@8
	DD	FLAT:??_R3MemoryDataStream@Ogre@@8
rdata$r	ENDS
;	COMDAT ??_7MemoryDataStream@Ogre@@6B@
CONST	SEGMENT
??_7MemoryDataStream@Ogre@@6B@ DD FLAT:??_R4MemoryDataStream@Ogre@@6B@ ; Ogre::MemoryDataStream::`vftable'
	DD	FLAT:??_EMemoryDataStream@Ogre@@UAEPAXI@Z
	DD	FLAT:?read@MemoryDataStream@Ogre@@UAEIPAXI@Z
	DD	FLAT:?write@MemoryDataStream@Ogre@@UAEIPBXI@Z
	DD	FLAT:?readLine@MemoryDataStream@Ogre@@UAEIPADIABV?$basic_string@DU?$char_traits@D@std@@V?$allocator@D@2@@std@@@Z
	DD	FLAT:?getLine@DataStream@Ogre@@UAE?AV?$basic_string@DU?$char_traits@D@std@@V?$allocator@D@2@@std@@_N@Z
	DD	FLAT:?getAsString@DataStream@Ogre@@UAE?AV?$basic_string@DU?$char_traits@D@std@@V?$allocator@D@2@@std@@XZ
	DD	FLAT:?skipLine@MemoryDataStream@Ogre@@UAEIABV?$basic_string@DU?$char_traits@D@std@@V?$allocator@D@2@@std@@@Z
	DD	FLAT:?skip@MemoryDataStream@Ogre@@UAEXJ@Z
	DD	FLAT:?seek@MemoryDataStream@Ogre@@UAEXI@Z
	DD	FLAT:?tell@MemoryDataStream@Ogre@@UBEIXZ
	DD	FLAT:?eof@MemoryDataStream@Ogre@@UBE_NXZ
	DD	FLAT:?size@DataStream@Ogre@@UBEIXZ
	DD	FLAT:?close@MemoryDataStream@Ogre@@UAEXXZ
	DD	FLAT:?getMemoryImage@MemoryDataStream@Ogre@@UAEPAXXZ
CONST	ENDS
;	COMDAT xdata$x
xdata$x	SEGMENT
__unwindtable$??0MemoryDataStream@Ogre@@QAE@ABV01@@Z DD 0ffffffffH
	DD	FLAT:__unwindfunclet$??0MemoryDataStream@Ogre@@QAE@ABV01@@Z$0
__ehfuncinfo$??0MemoryDataStream@Ogre@@QAE@ABV01@@Z DD 019930522H
	DD	01H
	DD	FLAT:__unwindtable$??0MemoryDataStream@Ogre@@QAE@ABV01@@Z
	DD	2 DUP(00H)
	DD	2 DUP(00H)
	DD	00H
	DD	00H
; Function compile flags: /Odtp
xdata$x	ENDS
;	COMDAT ??0MemoryDataStream@Ogre@@QAE@ABV01@@Z
_TEXT	SEGMENT
_this$ = -16						; size = 4
__$EHRec$ = -12						; size = 12
___that$ = 8						; size = 4
??0MemoryDataStream@Ogre@@QAE@ABV01@@Z PROC		; Ogre::MemoryDataStream::MemoryDataStream, COMDAT
; _this$ = ecx
	push	ebp
	mov	ebp, esp
	push	-1
	push	__ehhandler$??0MemoryDataStream@Ogre@@QAE@ABV01@@Z
	mov	eax, DWORD PTR fs:0
	push	eax
	push	ecx
	mov	eax, DWORD PTR ___security_cookie
	xor	eax, ebp
	push	eax
	lea	eax, DWORD PTR __$EHRec$[ebp]
	mov	DWORD PTR fs:0, eax
	mov	DWORD PTR _this$[ebp], ecx
	mov	eax, DWORD PTR ___that$[ebp]
	push	eax
	mov	ecx, DWORD PTR _this$[ebp]
	call	??0DataStream@Ogre@@QAE@ABV01@@Z
	mov	DWORD PTR __$EHRec$[ebp+8], 0
	mov	ecx, DWORD PTR _this$[ebp]
	mov	DWORD PTR [ecx], OFFSET ??_7MemoryDataStream@Ogre@@6B@
	mov	edx, DWORD PTR _this$[ebp]
	mov	eax, DWORD PTR ___that$[ebp]
	mov	ecx, DWORD PTR [eax+36]
	mov	DWORD PTR [edx+36], ecx
	mov	edx, DWORD PTR _this$[ebp]
	mov	eax, DWORD PTR ___that$[ebp]
	mov	ecx, DWORD PTR [eax+40]
	mov	DWORD PTR [edx+40], ecx
	mov	edx, DWORD PTR _this$[ebp]
	mov	eax, DWORD PTR ___that$[ebp]
	mov	ecx, DWORD PTR [eax+44]
	mov	DWORD PTR [edx+44], ecx
	mov	edx, DWORD PTR _this$[ebp]
	mov	eax, DWORD PTR ___that$[ebp]
	mov	ecx, DWORD PTR [eax+48]
	mov	DWORD PTR [edx+48], ecx
	mov	DWORD PTR __$EHRec$[ebp+8], -1
	mov	eax, DWORD PTR _this$[ebp]
	mov	ecx, DWORD PTR __$EHRec$[ebp]
	mov	DWORD PTR fs:0, ecx
	pop	ecx
	mov	esp, ebp
	pop	ebp
	ret	4
_TEXT	ENDS
;	COMDAT text$x
text$x	SEGMENT
__unwindfunclet$??0MemoryDataStream@Ogre@@QAE@ABV01@@Z$0:
	mov	ecx, DWORD PTR _this$[ebp]
	jmp	??1DataStream@Ogre@@UAE@XZ		; Ogre::DataStream::~DataStream
__ehhandler$??0MemoryDataStream@Ogre@@QAE@ABV01@@Z:
	mov	edx, DWORD PTR [esp+8]
	lea	eax, DWORD PTR [edx+12]
	mov	ecx, DWORD PTR [edx-8]
	xor	ecx, eax
	call	@__security_check_cookie@4
	mov	eax, OFFSET __ehfuncinfo$??0MemoryDataStream@Ogre@@QAE@ABV01@@Z
	jmp	___CxxFrameHandler3
text$x	ENDS
??0MemoryDataStream@Ogre@@QAE@ABV01@@Z ENDP		; Ogre::MemoryDataStream::MemoryDataStream
PUBLIC	??4MemoryDataStream@Ogre@@QAEAAV01@ABV01@@Z	; Ogre::MemoryDataStream::operator=
; Function compile flags: /Odtp
;	COMDAT ??4MemoryDataStream@Ogre@@QAEAAV01@ABV01@@Z
_TEXT	SEGMENT
_this$ = -4						; size = 4
___that$ = 8						; size = 4
??4MemoryDataStream@Ogre@@QAEAAV01@ABV01@@Z PROC	; Ogre::MemoryDataStream::operator=, COMDAT
; _this$ = ecx
	push	ebp
	mov	ebp, esp
	push	ecx
	mov	DWORD PTR _this$[ebp], ecx
	mov	eax, DWORD PTR ___that$[ebp]
	push	eax
	mov	ecx, DWORD PTR _this$[ebp]
	call	??4DataStream@Ogre@@QAEAAV01@ABV01@@Z
	mov	ecx, DWORD PTR _this$[ebp]
	mov	edx, DWORD PTR ___that$[ebp]
	mov	eax, DWORD PTR [edx+36]
	mov	DWORD PTR [ecx+36], eax
	mov	ecx, DWORD PTR _this$[ebp]
	mov	edx, DWORD PTR ___that$[ebp]
	mov	eax, DWORD PTR [edx+40]
	mov	DWORD PTR [ecx+40], eax
	mov	ecx, DWORD PTR _this$[ebp]
	mov	edx, DWORD PTR ___that$[ebp]
	mov	eax, DWORD PTR [edx+44]
	mov	DWORD PTR [ecx+44], eax
	mov	ecx, DWORD PTR _this$[ebp]
	mov	edx, DWORD PTR ___that$[ebp]
	mov	eax, DWORD PTR [edx+48]
	mov	DWORD PTR [ecx+48], eax
	mov	eax, DWORD PTR _this$[ebp]
	mov	esp, ebp
	pop	ebp
	ret	4
??4MemoryDataStream@Ogre@@QAEAAV01@ABV01@@Z ENDP	; Ogre::MemoryDataStream::operator=
_TEXT	ENDS
PUBLIC	??_GMemoryDataStream@Ogre@@UAEPAXI@Z		; Ogre::MemoryDataStream::`scalar deleting destructor'
EXTRN	??1MemoryDataStream@Ogre@@UAE@XZ:PROC		; Ogre::MemoryDataStream::~MemoryDataStream
; Function compile flags: /Odtp
;	COMDAT ??_GMemoryDataStream@Ogre@@UAEPAXI@Z
_TEXT	SEGMENT
_this$ = -4						; size = 4
___flags$ = 8						; size = 4
??_GMemoryDataStream@Ogre@@UAEPAXI@Z PROC		; Ogre::MemoryDataStream::`scalar deleting destructor', COMDAT
; _this$ = ecx
	push	ebp
	mov	ebp, esp
	push	ecx
	mov	DWORD PTR _this$[ebp], ecx
	mov	ecx, DWORD PTR _this$[ebp]
	call	??1MemoryDataStream@Ogre@@UAE@XZ	; Ogre::MemoryDataStream::~MemoryDataStream
	mov	eax, DWORD PTR ___flags$[ebp]
	and	eax, 1
	je	SHORT $LN1@scalar@3
	mov	ecx, DWORD PTR _this$[ebp]
	push	ecx
	call	??3@YAXPAX@Z				; operator delete
	add	esp, 4
$LN1@scalar@3:
	mov	eax, DWORD PTR _this$[ebp]
	mov	esp, ebp
	pop	ebp
	ret	4
??_GMemoryDataStream@Ogre@@UAEPAXI@Z ENDP		; Ogre::MemoryDataStream::`scalar deleting destructor'
; Function compile flags: /Odtp
_TEXT	ENDS
;	COMDAT ??_EMemoryDataStream@Ogre@@UAEPAXI@Z
_TEXT	SEGMENT
_this$ = -4						; size = 4
___flags$ = 8						; size = 4
??_EMemoryDataStream@Ogre@@UAEPAXI@Z PROC		; Ogre::MemoryDataStream::`vector deleting destructor', COMDAT
; _this$ = ecx
	push	ebp
	mov	ebp, esp
	push	ecx
	mov	DWORD PTR _this$[ebp], ecx
	mov	eax, DWORD PTR ___flags$[ebp]
	and	eax, 2
	je	SHORT $LN3@vector@3
	push	OFFSET ??1MemoryDataStream@Ogre@@UAE@XZ	; Ogre::MemoryDataStream::~MemoryDataStream
	mov	ecx, DWORD PTR _this$[ebp]
	mov	edx, DWORD PTR [ecx-4]
	push	edx
	push	52					; 00000034H
	mov	eax, DWORD PTR _this$[ebp]
	push	eax
	call	??_M@YGXPAXIHP6EX0@Z@Z
	mov	ecx, DWORD PTR ___flags$[ebp]
	and	ecx, 1
	je	SHORT $LN2@vector@3
	mov	edx, DWORD PTR _this$[ebp]
	sub	edx, 4
	push	edx
	call	??_V@YAXPAX@Z				; operator delete[]
	add	esp, 4
$LN2@vector@3:
	mov	eax, DWORD PTR _this$[ebp]
	sub	eax, 4
	jmp	SHORT $LN4@vector@3
$LN3@vector@3:
	mov	ecx, DWORD PTR _this$[ebp]
	call	??1MemoryDataStream@Ogre@@UAE@XZ	; Ogre::MemoryDataStream::~MemoryDataStream
	mov	eax, DWORD PTR ___flags$[ebp]
	and	eax, 1
	je	SHORT $LN1@vector@3
	mov	ecx, DWORD PTR _this$[ebp]
	push	ecx
	call	??3@YAXPAX@Z				; operator delete
	add	esp, 4
$LN1@vector@3:
	mov	eax, DWORD PTR _this$[ebp]
$LN4@vector@3:
	mov	esp, ebp
	pop	ebp
	ret	4
??_EMemoryDataStream@Ogre@@UAEPAXI@Z ENDP		; Ogre::MemoryDataStream::`vector deleting destructor'
_TEXT	ENDS
PUBLIC	??_7FileStreamDataStream@Ogre@@6B@		; Ogre::FileStreamDataStream::`vftable'
PUBLIC	??0FileStreamDataStream@Ogre@@QAE@ABV01@@Z	; Ogre::FileStreamDataStream::FileStreamDataStream
PUBLIC	??_R4FileStreamDataStream@Ogre@@6B@		; Ogre::FileStreamDataStream::`RTTI Complete Object Locator'
PUBLIC	??_R0?AVFileStreamDataStream@Ogre@@@8		; Ogre::FileStreamDataStream `RTTI Type Descriptor'
PUBLIC	??_R3FileStreamDataStream@Ogre@@8		; Ogre::FileStreamDataStream::`RTTI Class Hierarchy Descriptor'
PUBLIC	??_R2FileStreamDataStream@Ogre@@8		; Ogre::FileStreamDataStream::`RTTI Base Class Array'
PUBLIC	??_R1A@?0A@EA@FileStreamDataStream@Ogre@@8	; Ogre::FileStreamDataStream::`RTTI Base Class Descriptor at (0,-1,0,64)'
PUBLIC	??_EFileStreamDataStream@Ogre@@UAEPAXI@Z	; Ogre::FileStreamDataStream::`vector deleting destructor'
EXTRN	?read@FileStreamDataStream@Ogre@@UAEIPAXI@Z:PROC ; Ogre::FileStreamDataStream::read
EXTRN	?write@FileStreamDataStream@Ogre@@UAEIPBXI@Z:PROC ; Ogre::FileStreamDataStream::write
EXTRN	?readLine@FileStreamDataStream@Ogre@@UAEIPADIABV?$basic_string@DU?$char_traits@D@std@@V?$allocator@D@2@@std@@@Z:PROC ; Ogre::FileStreamDataStream::readLine
EXTRN	?skip@FileStreamDataStream@Ogre@@UAEXJ@Z:PROC	; Ogre::FileStreamDataStream::skip
EXTRN	?seek@FileStreamDataStream@Ogre@@UAEXI@Z:PROC	; Ogre::FileStreamDataStream::seek
EXTRN	?tell@FileStreamDataStream@Ogre@@UBEIXZ:PROC	; Ogre::FileStreamDataStream::tell
EXTRN	?eof@FileStreamDataStream@Ogre@@UBE_NXZ:PROC	; Ogre::FileStreamDataStream::eof
EXTRN	?close@FileStreamDataStream@Ogre@@UAEXXZ:PROC	; Ogre::FileStreamDataStream::close
EXTRN	?getMemoryImage@FileStreamDataStream@Ogre@@UAEPAXXZ:PROC ; Ogre::FileStreamDataStream::getMemoryImage
;	COMDAT ??_R1A@?0A@EA@FileStreamDataStream@Ogre@@8
rdata$r	SEGMENT
??_R1A@?0A@EA@FileStreamDataStream@Ogre@@8 DD FLAT:??_R0?AVFileStreamDataStream@Ogre@@@8 ; Ogre::FileStreamDataStream::`RTTI Base Class Descriptor at (0,-1,0,64)'
	DD	01H
	DD	00H
	DD	0ffffffffH
	DD	00H
	DD	040H
	DD	FLAT:??_R3FileStreamDataStream@Ogre@@8
rdata$r	ENDS
;	COMDAT ??_R2FileStreamDataStream@Ogre@@8
rdata$r	SEGMENT
??_R2FileStreamDataStream@Ogre@@8 DD FLAT:??_R1A@?0A@EA@FileStreamDataStream@Ogre@@8 ; Ogre::FileStreamDataStream::`RTTI Base Class Array'
	DD	FLAT:??_R1A@?0A@EA@DataStream@Ogre@@8
rdata$r	ENDS
;	COMDAT ??_R3FileStreamDataStream@Ogre@@8
rdata$r	SEGMENT
??_R3FileStreamDataStream@Ogre@@8 DD 00H		; Ogre::FileStreamDataStream::`RTTI Class Hierarchy Descriptor'
	DD	00H
	DD	02H
	DD	FLAT:??_R2FileStreamDataStream@Ogre@@8
rdata$r	ENDS
;	COMDAT ??_R0?AVFileStreamDataStream@Ogre@@@8
_DATA	SEGMENT
??_R0?AVFileStreamDataStream@Ogre@@@8 DD FLAT:??_7type_info@@6B@ ; Ogre::FileStreamDataStream `RTTI Type Descriptor'
	DD	00H
	DB	'.?AVFileStreamDataStream@Ogre@@', 00H
_DATA	ENDS
;	COMDAT ??_R4FileStreamDataStream@Ogre@@6B@
rdata$r	SEGMENT
??_R4FileStreamDataStream@Ogre@@6B@ DD 00H		; Ogre::FileStreamDataStream::`RTTI Complete Object Locator'
	DD	00H
	DD	00H
	DD	FLAT:??_R0?AVFileStreamDataStream@Ogre@@@8
	DD	FLAT:??_R3FileStreamDataStream@Ogre@@8
rdata$r	ENDS
;	COMDAT ??_7FileStreamDataStream@Ogre@@6B@
CONST	SEGMENT
??_7FileStreamDataStream@Ogre@@6B@ DD FLAT:??_R4FileStreamDataStream@Ogre@@6B@ ; Ogre::FileStreamDataStream::`vftable'
	DD	FLAT:??_EFileStreamDataStream@Ogre@@UAEPAXI@Z
	DD	FLAT:?read@FileStreamDataStream@Ogre@@UAEIPAXI@Z
	DD	FLAT:?write@FileStreamDataStream@Ogre@@UAEIPBXI@Z
	DD	FLAT:?readLine@FileStreamDataStream@Ogre@@UAEIPADIABV?$basic_string@DU?$char_traits@D@std@@V?$allocator@D@2@@std@@@Z
	DD	FLAT:?getLine@DataStream@Ogre@@UAE?AV?$basic_string@DU?$char_traits@D@std@@V?$allocator@D@2@@std@@_N@Z
	DD	FLAT:?getAsString@DataStream@Ogre@@UAE?AV?$basic_string@DU?$char_traits@D@std@@V?$allocator@D@2@@std@@XZ
	DD	FLAT:?skipLine@DataStream@Ogre@@UAEIABV?$basic_string@DU?$char_traits@D@std@@V?$allocator@D@2@@std@@@Z
	DD	FLAT:?skip@FileStreamDataStream@Ogre@@UAEXJ@Z
	DD	FLAT:?seek@FileStreamDataStream@Ogre@@UAEXI@Z
	DD	FLAT:?tell@FileStreamDataStream@Ogre@@UBEIXZ
	DD	FLAT:?eof@FileStreamDataStream@Ogre@@UBE_NXZ
	DD	FLAT:?size@DataStream@Ogre@@UBEIXZ
	DD	FLAT:?close@FileStreamDataStream@Ogre@@UAEXXZ
	DD	FLAT:?getMemoryImage@FileStreamDataStream@Ogre@@UAEPAXXZ
CONST	ENDS
;	COMDAT xdata$x
xdata$x	SEGMENT
__unwindtable$??0FileStreamDataStream@Ogre@@QAE@ABV01@@Z DD 0ffffffffH
	DD	FLAT:__unwindfunclet$??0FileStreamDataStream@Ogre@@QAE@ABV01@@Z$0
__ehfuncinfo$??0FileStreamDataStream@Ogre@@QAE@ABV01@@Z DD 019930522H
	DD	01H
	DD	FLAT:__unwindtable$??0FileStreamDataStream@Ogre@@QAE@ABV01@@Z
	DD	2 DUP(00H)
	DD	2 DUP(00H)
	DD	00H
	DD	00H
; Function compile flags: /Odtp
xdata$x	ENDS
;	COMDAT ??0FileStreamDataStream@Ogre@@QAE@ABV01@@Z
_TEXT	SEGMENT
_this$ = -16						; size = 4
__$EHRec$ = -12						; size = 12
___that$ = 8						; size = 4
??0FileStreamDataStream@Ogre@@QAE@ABV01@@Z PROC		; Ogre::FileStreamDataStream::FileStreamDataStream, COMDAT
; _this$ = ecx
	push	ebp
	mov	ebp, esp
	push	-1
	push	__ehhandler$??0FileStreamDataStream@Ogre@@QAE@ABV01@@Z
	mov	eax, DWORD PTR fs:0
	push	eax
	push	ecx
	mov	eax, DWORD PTR ___security_cookie
	xor	eax, ebp
	push	eax
	lea	eax, DWORD PTR __$EHRec$[ebp]
	mov	DWORD PTR fs:0, eax
	mov	DWORD PTR _this$[ebp], ecx
	mov	eax, DWORD PTR ___that$[ebp]
	push	eax
	mov	ecx, DWORD PTR _this$[ebp]
	call	??0DataStream@Ogre@@QAE@ABV01@@Z
	mov	DWORD PTR __$EHRec$[ebp+8], 0
	mov	ecx, DWORD PTR _this$[ebp]
	mov	DWORD PTR [ecx], OFFSET ??_7FileStreamDataStream@Ogre@@6B@
	mov	edx, DWORD PTR _this$[ebp]
	mov	eax, DWORD PTR ___that$[ebp]
	mov	ecx, DWORD PTR [eax+36]
	mov	DWORD PTR [edx+36], ecx
	mov	edx, DWORD PTR _this$[ebp]
	mov	eax, DWORD PTR ___that$[ebp]
	mov	cl, BYTE PTR [eax+40]
	mov	BYTE PTR [edx+40], cl
	mov	DWORD PTR __$EHRec$[ebp+8], -1
	mov	eax, DWORD PTR _this$[ebp]
	mov	ecx, DWORD PTR __$EHRec$[ebp]
	mov	DWORD PTR fs:0, ecx
	pop	ecx
	mov	esp, ebp
	pop	ebp
	ret	4
_TEXT	ENDS
;	COMDAT text$x
text$x	SEGMENT
__unwindfunclet$??0FileStreamDataStream@Ogre@@QAE@ABV01@@Z$0:
	mov	ecx, DWORD PTR _this$[ebp]
	jmp	??1DataStream@Ogre@@UAE@XZ		; Ogre::DataStream::~DataStream
__ehhandler$??0FileStreamDataStream@Ogre@@QAE@ABV01@@Z:
	mov	edx, DWORD PTR [esp+8]
	lea	eax, DWORD PTR [edx+12]
	mov	ecx, DWORD PTR [edx-8]
	xor	ecx, eax
	call	@__security_check_cookie@4
	mov	eax, OFFSET __ehfuncinfo$??0FileStreamDataStream@Ogre@@QAE@ABV01@@Z
	jmp	___CxxFrameHandler3
text$x	ENDS
??0FileStreamDataStream@Ogre@@QAE@ABV01@@Z ENDP		; Ogre::FileStreamDataStream::FileStreamDataStream
PUBLIC	??4FileStreamDataStream@Ogre@@QAEAAV01@ABV01@@Z	; Ogre::FileStreamDataStream::operator=
; Function compile flags: /Odtp
;	COMDAT ??4FileStreamDataStream@Ogre@@QAEAAV01@ABV01@@Z
_TEXT	SEGMENT
_this$ = -4						; size = 4
___that$ = 8						; size = 4
??4FileStreamDataStream@Ogre@@QAEAAV01@ABV01@@Z PROC	; Ogre::FileStreamDataStream::operator=, COMDAT
; _this$ = ecx
	push	ebp
	mov	ebp, esp
	push	ecx
	mov	DWORD PTR _this$[ebp], ecx
	mov	eax, DWORD PTR ___that$[ebp]
	push	eax
	mov	ecx, DWORD PTR _this$[ebp]
	call	??4DataStream@Ogre@@QAEAAV01@ABV01@@Z
	mov	ecx, DWORD PTR _this$[ebp]
	mov	edx, DWORD PTR ___that$[ebp]
	mov	eax, DWORD PTR [edx+36]
	mov	DWORD PTR [ecx+36], eax
	mov	ecx, DWORD PTR _this$[ebp]
	mov	edx, DWORD PTR ___that$[ebp]
	mov	al, BYTE PTR [edx+40]
	mov	BYTE PTR [ecx+40], al
	mov	eax, DWORD PTR _this$[ebp]
	mov	esp, ebp
	pop	ebp
	ret	4
??4FileStreamDataStream@Ogre@@QAEAAV01@ABV01@@Z ENDP	; Ogre::FileStreamDataStream::operator=
_TEXT	ENDS
PUBLIC	??_GFileStreamDataStream@Ogre@@UAEPAXI@Z	; Ogre::FileStreamDataStream::`scalar deleting destructor'
EXTRN	??1FileStreamDataStream@Ogre@@UAE@XZ:PROC	; Ogre::FileStreamDataStream::~FileStreamDataStream
; Function compile flags: /Odtp
;	COMDAT ??_GFileStreamDataStream@Ogre@@UAEPAXI@Z
_TEXT	SEGMENT
_this$ = -4						; size = 4
___flags$ = 8						; size = 4
??_GFileStreamDataStream@Ogre@@UAEPAXI@Z PROC		; Ogre::FileStreamDataStream::`scalar deleting destructor', COMDAT
; _this$ = ecx
	push	ebp
	mov	ebp, esp
	push	ecx
	mov	DWORD PTR _this$[ebp], ecx
	mov	ecx, DWORD PTR _this$[ebp]
	call	??1FileStreamDataStream@Ogre@@UAE@XZ	; Ogre::FileStreamDataStream::~FileStreamDataStream
	mov	eax, DWORD PTR ___flags$[ebp]
	and	eax, 1
	je	SHORT $LN1@scalar@4
	mov	ecx, DWORD PTR _this$[ebp]
	push	ecx
	call	??3@YAXPAX@Z				; operator delete
	add	esp, 4
$LN1@scalar@4:
	mov	eax, DWORD PTR _this$[ebp]
	mov	esp, ebp
	pop	ebp
	ret	4
??_GFileStreamDataStream@Ogre@@UAEPAXI@Z ENDP		; Ogre::FileStreamDataStream::`scalar deleting destructor'
; Function compile flags: /Odtp
_TEXT	ENDS
;	COMDAT ??_EFileStreamDataStream@Ogre@@UAEPAXI@Z
_TEXT	SEGMENT
_this$ = -4						; size = 4
___flags$ = 8						; size = 4
??_EFileStreamDataStream@Ogre@@UAEPAXI@Z PROC		; Ogre::FileStreamDataStream::`vector deleting destructor', COMDAT
; _this$ = ecx
	push	ebp
	mov	ebp, esp
	push	ecx
	mov	DWORD PTR _this$[ebp], ecx
	mov	eax, DWORD PTR ___flags$[ebp]
	and	eax, 2
	je	SHORT $LN3@vector@4
	push	OFFSET ??1FileStreamDataStream@Ogre@@UAE@XZ ; Ogre::FileStreamDataStream::~FileStreamDataStream
	mov	ecx, DWORD PTR _this$[ebp]
	mov	edx, DWORD PTR [ecx-4]
	push	edx
	push	44					; 0000002cH
	mov	eax, DWORD PTR _this$[ebp]
	push	eax
	call	??_M@YGXPAXIHP6EX0@Z@Z
	mov	ecx, DWORD PTR ___flags$[ebp]
	and	ecx, 1
	je	SHORT $LN2@vector@4
	mov	edx, DWORD PTR _this$[ebp]
	sub	edx, 4
	push	edx
	call	??_V@YAXPAX@Z				; operator delete[]
	add	esp, 4
$LN2@vector@4:
	mov	eax, DWORD PTR _this$[ebp]
	sub	eax, 4
	jmp	SHORT $LN4@vector@4
$LN3@vector@4:
	mov	ecx, DWORD PTR _this$[ebp]
	call	??1FileStreamDataStream@Ogre@@UAE@XZ	; Ogre::FileStreamDataStream::~FileStreamDataStream
	mov	eax, DWORD PTR ___flags$[ebp]
	and	eax, 1
	je	SHORT $LN1@vector@4
	mov	ecx, DWORD PTR _this$[ebp]
	push	ecx
	call	??3@YAXPAX@Z				; operator delete
	add	esp, 4
$LN1@vector@4:
	mov	eax, DWORD PTR _this$[ebp]
$LN4@vector@4:
	mov	esp, ebp
	pop	ebp
	ret	4
??_EFileStreamDataStream@Ogre@@UAEPAXI@Z ENDP		; Ogre::FileStreamDataStream::`vector deleting destructor'
_TEXT	ENDS
PUBLIC	??_7FileHandleDataStream@Ogre@@6B@		; Ogre::FileHandleDataStream::`vftable'
PUBLIC	??0FileHandleDataStream@Ogre@@QAE@ABV01@@Z	; Ogre::FileHandleDataStream::FileHandleDataStream
PUBLIC	??_R4FileHandleDataStream@Ogre@@6B@		; Ogre::FileHandleDataStream::`RTTI Complete Object Locator'
PUBLIC	??_R0?AVFileHandleDataStream@Ogre@@@8		; Ogre::FileHandleDataStream `RTTI Type Descriptor'
PUBLIC	??_R3FileHandleDataStream@Ogre@@8		; Ogre::FileHandleDataStream::`RTTI Class Hierarchy Descriptor'
PUBLIC	??_R2FileHandleDataStream@Ogre@@8		; Ogre::FileHandleDataStream::`RTTI Base Class Array'
PUBLIC	??_R1A@?0A@EA@FileHandleDataStream@Ogre@@8	; Ogre::FileHandleDataStream::`RTTI Base Class Descriptor at (0,-1,0,64)'
PUBLIC	??_EFileHandleDataStream@Ogre@@UAEPAXI@Z	; Ogre::FileHandleDataStream::`vector deleting destructor'
EXTRN	?read@FileHandleDataStream@Ogre@@UAEIPAXI@Z:PROC ; Ogre::FileHandleDataStream::read
EXTRN	?write@FileHandleDataStream@Ogre@@UAEIPBXI@Z:PROC ; Ogre::FileHandleDataStream::write
EXTRN	?skip@FileHandleDataStream@Ogre@@UAEXJ@Z:PROC	; Ogre::FileHandleDataStream::skip
EXTRN	?seek@FileHandleDataStream@Ogre@@UAEXI@Z:PROC	; Ogre::FileHandleDataStream::seek
EXTRN	?tell@FileHandleDataStream@Ogre@@UBEIXZ:PROC	; Ogre::FileHandleDataStream::tell
EXTRN	?eof@FileHandleDataStream@Ogre@@UBE_NXZ:PROC	; Ogre::FileHandleDataStream::eof
EXTRN	?close@FileHandleDataStream@Ogre@@UAEXXZ:PROC	; Ogre::FileHandleDataStream::close
EXTRN	?getMemoryImage@FileHandleDataStream@Ogre@@UAEPAXXZ:PROC ; Ogre::FileHandleDataStream::getMemoryImage
;	COMDAT ??_R1A@?0A@EA@FileHandleDataStream@Ogre@@8
rdata$r	SEGMENT
??_R1A@?0A@EA@FileHandleDataStream@Ogre@@8 DD FLAT:??_R0?AVFileHandleDataStream@Ogre@@@8 ; Ogre::FileHandleDataStream::`RTTI Base Class Descriptor at (0,-1,0,64)'
	DD	01H
	DD	00H
	DD	0ffffffffH
	DD	00H
	DD	040H
	DD	FLAT:??_R3FileHandleDataStream@Ogre@@8
rdata$r	ENDS
;	COMDAT ??_R2FileHandleDataStream@Ogre@@8
rdata$r	SEGMENT
??_R2FileHandleDataStream@Ogre@@8 DD FLAT:??_R1A@?0A@EA@FileHandleDataStream@Ogre@@8 ; Ogre::FileHandleDataStream::`RTTI Base Class Array'
	DD	FLAT:??_R1A@?0A@EA@DataStream@Ogre@@8
rdata$r	ENDS
;	COMDAT ??_R3FileHandleDataStream@Ogre@@8
rdata$r	SEGMENT
??_R3FileHandleDataStream@Ogre@@8 DD 00H		; Ogre::FileHandleDataStream::`RTTI Class Hierarchy Descriptor'
	DD	00H
	DD	02H
	DD	FLAT:??_R2FileHandleDataStream@Ogre@@8
rdata$r	ENDS
;	COMDAT ??_R0?AVFileHandleDataStream@Ogre@@@8
_DATA	SEGMENT
??_R0?AVFileHandleDataStream@Ogre@@@8 DD FLAT:??_7type_info@@6B@ ; Ogre::FileHandleDataStream `RTTI Type Descriptor'
	DD	00H
	DB	'.?AVFileHandleDataStream@Ogre@@', 00H
_DATA	ENDS
;	COMDAT ??_R4FileHandleDataStream@Ogre@@6B@
rdata$r	SEGMENT
??_R4FileHandleDataStream@Ogre@@6B@ DD 00H		; Ogre::FileHandleDataStream::`RTTI Complete Object Locator'
	DD	00H
	DD	00H
	DD	FLAT:??_R0?AVFileHandleDataStream@Ogre@@@8
	DD	FLAT:??_R3FileHandleDataStream@Ogre@@8
rdata$r	ENDS
;	COMDAT ??_7FileHandleDataStream@Ogre@@6B@
CONST	SEGMENT
??_7FileHandleDataStream@Ogre@@6B@ DD FLAT:??_R4FileHandleDataStream@Ogre@@6B@ ; Ogre::FileHandleDataStream::`vftable'
	DD	FLAT:??_EFileHandleDataStream@Ogre@@UAEPAXI@Z
	DD	FLAT:?read@FileHandleDataStream@Ogre@@UAEIPAXI@Z
	DD	FLAT:?write@FileHandleDataStream@Ogre@@UAEIPBXI@Z
	DD	FLAT:?readLine@DataStream@Ogre@@UAEIPADIABV?$basic_string@DU?$char_traits@D@std@@V?$allocator@D@2@@std@@@Z
	DD	FLAT:?getLine@DataStream@Ogre@@UAE?AV?$basic_string@DU?$char_traits@D@std@@V?$allocator@D@2@@std@@_N@Z
	DD	FLAT:?getAsString@DataStream@Ogre@@UAE?AV?$basic_string@DU?$char_traits@D@std@@V?$allocator@D@2@@std@@XZ
	DD	FLAT:?skipLine@DataStream@Ogre@@UAEIABV?$basic_string@DU?$char_traits@D@std@@V?$allocator@D@2@@std@@@Z
	DD	FLAT:?skip@FileHandleDataStream@Ogre@@UAEXJ@Z
	DD	FLAT:?seek@FileHandleDataStream@Ogre@@UAEXI@Z
	DD	FLAT:?tell@FileHandleDataStream@Ogre@@UBEIXZ
	DD	FLAT:?eof@FileHandleDataStream@Ogre@@UBE_NXZ
	DD	FLAT:?size@DataStream@Ogre@@UBEIXZ
	DD	FLAT:?close@FileHandleDataStream@Ogre@@UAEXXZ
	DD	FLAT:?getMemoryImage@FileHandleDataStream@Ogre@@UAEPAXXZ
CONST	ENDS
;	COMDAT xdata$x
xdata$x	SEGMENT
__unwindtable$??0FileHandleDataStream@Ogre@@QAE@ABV01@@Z DD 0ffffffffH
	DD	FLAT:__unwindfunclet$??0FileHandleDataStream@Ogre@@QAE@ABV01@@Z$0
__ehfuncinfo$??0FileHandleDataStream@Ogre@@QAE@ABV01@@Z DD 019930522H
	DD	01H
	DD	FLAT:__unwindtable$??0FileHandleDataStream@Ogre@@QAE@ABV01@@Z
	DD	2 DUP(00H)
	DD	2 DUP(00H)
	DD	00H
	DD	00H
; Function compile flags: /Odtp
xdata$x	ENDS
;	COMDAT ??0FileHandleDataStream@Ogre@@QAE@ABV01@@Z
_TEXT	SEGMENT
_this$ = -16						; size = 4
__$EHRec$ = -12						; size = 12
___that$ = 8						; size = 4
??0FileHandleDataStream@Ogre@@QAE@ABV01@@Z PROC		; Ogre::FileHandleDataStream::FileHandleDataStream, COMDAT
; _this$ = ecx
	push	ebp
	mov	ebp, esp
	push	-1
	push	__ehhandler$??0FileHandleDataStream@Ogre@@QAE@ABV01@@Z
	mov	eax, DWORD PTR fs:0
	push	eax
	push	ecx
	mov	eax, DWORD PTR ___security_cookie
	xor	eax, ebp
	push	eax
	lea	eax, DWORD PTR __$EHRec$[ebp]
	mov	DWORD PTR fs:0, eax
	mov	DWORD PTR _this$[ebp], ecx
	mov	eax, DWORD PTR ___that$[ebp]
	push	eax
	mov	ecx, DWORD PTR _this$[ebp]
	call	??0DataStream@Ogre@@QAE@ABV01@@Z
	mov	DWORD PTR __$EHRec$[ebp+8], 0
	mov	ecx, DWORD PTR _this$[ebp]
	mov	DWORD PTR [ecx], OFFSET ??_7FileHandleDataStream@Ogre@@6B@
	mov	edx, DWORD PTR _this$[ebp]
	mov	eax, DWORD PTR ___that$[ebp]
	mov	ecx, DWORD PTR [eax+36]
	mov	DWORD PTR [edx+36], ecx
	mov	edx, DWORD PTR _this$[ebp]
	mov	eax, DWORD PTR ___that$[ebp]
	mov	ecx, DWORD PTR [eax+40]
	mov	DWORD PTR [edx+40], ecx
	mov	DWORD PTR __$EHRec$[ebp+8], -1
	mov	eax, DWORD PTR _this$[ebp]
	mov	ecx, DWORD PTR __$EHRec$[ebp]
	mov	DWORD PTR fs:0, ecx
	pop	ecx
	mov	esp, ebp
	pop	ebp
	ret	4
_TEXT	ENDS
;	COMDAT text$x
text$x	SEGMENT
__unwindfunclet$??0FileHandleDataStream@Ogre@@QAE@ABV01@@Z$0:
	mov	ecx, DWORD PTR _this$[ebp]
	jmp	??1DataStream@Ogre@@UAE@XZ		; Ogre::DataStream::~DataStream
__ehhandler$??0FileHandleDataStream@Ogre@@QAE@ABV01@@Z:
	mov	edx, DWORD PTR [esp+8]
	lea	eax, DWORD PTR [edx+12]
	mov	ecx, DWORD PTR [edx-8]
	xor	ecx, eax
	call	@__security_check_cookie@4
	mov	eax, OFFSET __ehfuncinfo$??0FileHandleDataStream@Ogre@@QAE@ABV01@@Z
	jmp	___CxxFrameHandler3
text$x	ENDS
??0FileHandleDataStream@Ogre@@QAE@ABV01@@Z ENDP		; Ogre::FileHandleDataStream::FileHandleDataStream
PUBLIC	??4FileHandleDataStream@Ogre@@QAEAAV01@ABV01@@Z	; Ogre::FileHandleDataStream::operator=
; Function compile flags: /Odtp
;	COMDAT ??4FileHandleDataStream@Ogre@@QAEAAV01@ABV01@@Z
_TEXT	SEGMENT
_this$ = -4						; size = 4
___that$ = 8						; size = 4
??4FileHandleDataStream@Ogre@@QAEAAV01@ABV01@@Z PROC	; Ogre::FileHandleDataStream::operator=, COMDAT
; _this$ = ecx
	push	ebp
	mov	ebp, esp
	push	ecx
	mov	DWORD PTR _this$[ebp], ecx
	mov	eax, DWORD PTR ___that$[ebp]
	push	eax
	mov	ecx, DWORD PTR _this$[ebp]
	call	??4DataStream@Ogre@@QAEAAV01@ABV01@@Z
	mov	ecx, DWORD PTR _this$[ebp]
	mov	edx, DWORD PTR ___that$[ebp]
	mov	eax, DWORD PTR [edx+36]
	mov	DWORD PTR [ecx+36], eax
	mov	ecx, DWORD PTR _this$[ebp]
	mov	edx, DWORD PTR ___that$[ebp]
	mov	eax, DWORD PTR [edx+40]
	mov	DWORD PTR [ecx+40], eax
	mov	eax, DWORD PTR _this$[ebp]
	mov	esp, ebp
	pop	ebp
	ret	4
??4FileHandleDataStream@Ogre@@QAEAAV01@ABV01@@Z ENDP	; Ogre::FileHandleDataStream::operator=
_TEXT	ENDS
PUBLIC	??_GFileHandleDataStream@Ogre@@UAEPAXI@Z	; Ogre::FileHandleDataStream::`scalar deleting destructor'
EXTRN	??1FileHandleDataStream@Ogre@@UAE@XZ:PROC	; Ogre::FileHandleDataStream::~FileHandleDataStream
; Function compile flags: /Odtp
;	COMDAT ??_GFileHandleDataStream@Ogre@@UAEPAXI@Z
_TEXT	SEGMENT
_this$ = -4						; size = 4
___flags$ = 8						; size = 4
??_GFileHandleDataStream@Ogre@@UAEPAXI@Z PROC		; Ogre::FileHandleDataStream::`scalar deleting destructor', COMDAT
; _this$ = ecx
	push	ebp
	mov	ebp, esp
	push	ecx
	mov	DWORD PTR _this$[ebp], ecx
	mov	ecx, DWORD PTR _this$[ebp]
	call	??1FileHandleDataStream@Ogre@@UAE@XZ	; Ogre::FileHandleDataStream::~FileHandleDataStream
	mov	eax, DWORD PTR ___flags$[ebp]
	and	eax, 1
	je	SHORT $LN1@scalar@5
	mov	ecx, DWORD PTR _this$[ebp]
	push	ecx
	call	??3@YAXPAX@Z				; operator delete
	add	esp, 4
$LN1@scalar@5:
	mov	eax, DWORD PTR _this$[ebp]
	mov	esp, ebp
	pop	ebp
	ret	4
??_GFileHandleDataStream@Ogre@@UAEPAXI@Z ENDP		; Ogre::FileHandleDataStream::`scalar deleting destructor'
; Function compile flags: /Odtp
_TEXT	ENDS
;	COMDAT ??_EFileHandleDataStream@Ogre@@UAEPAXI@Z
_TEXT	SEGMENT
_this$ = -4						; size = 4
___flags$ = 8						; size = 4
??_EFileHandleDataStream@Ogre@@UAEPAXI@Z PROC		; Ogre::FileHandleDataStream::`vector deleting destructor', COMDAT
; _this$ = ecx
	push	ebp
	mov	ebp, esp
	push	ecx
	mov	DWORD PTR _this$[ebp], ecx
	mov	eax, DWORD PTR ___flags$[ebp]
	and	eax, 2
	je	SHORT $LN3@vector@5
	push	OFFSET ??1FileHandleDataStream@Ogre@@UAE@XZ ; Ogre::FileHandleDataStream::~FileHandleDataStream
	mov	ecx, DWORD PTR _this$[ebp]
	mov	edx, DWORD PTR [ecx-4]
	push	edx
	push	44					; 0000002cH
	mov	eax, DWORD PTR _this$[ebp]
	push	eax
	call	??_M@YGXPAXIHP6EX0@Z@Z
	mov	ecx, DWORD PTR ___flags$[ebp]
	and	ecx, 1
	je	SHORT $LN2@vector@5
	mov	edx, DWORD PTR _this$[ebp]
	sub	edx, 4
	push	edx
	call	??_V@YAXPAX@Z				; operator delete[]
	add	esp, 4
$LN2@vector@5:
	mov	eax, DWORD PTR _this$[ebp]
	sub	eax, 4
	jmp	SHORT $LN4@vector@5
$LN3@vector@5:
	mov	ecx, DWORD PTR _this$[ebp]
	call	??1FileHandleDataStream@Ogre@@UAE@XZ	; Ogre::FileHandleDataStream::~FileHandleDataStream
	mov	eax, DWORD PTR ___flags$[ebp]
	and	eax, 1
	je	SHORT $LN1@vector@5
	mov	ecx, DWORD PTR _this$[ebp]
	push	ecx
	call	??3@YAXPAX@Z				; operator delete
	add	esp, 4
$LN1@vector@5:
	mov	eax, DWORD PTR _this$[ebp]
$LN4@vector@5:
	mov	esp, ebp
	pop	ebp
	ret	4
??_EFileHandleDataStream@Ogre@@UAEPAXI@Z ENDP		; Ogre::FileHandleDataStream::`vector deleting destructor'
_TEXT	ENDS
PUBLIC	??_7DataStreamObject@Ogre@@6B@			; Ogre::DataStreamObject::`vftable'
PUBLIC	??1DataStreamObject@Ogre@@MAE@XZ		; Ogre::DataStreamObject::~DataStreamObject
PUBLIC	??_R4DataStreamObject@Ogre@@6B@			; Ogre::DataStreamObject::`RTTI Complete Object Locator'
PUBLIC	??_R0?AVDataStreamObject@Ogre@@@8		; Ogre::DataStreamObject `RTTI Type Descriptor'
PUBLIC	??_R3DataStreamObject@Ogre@@8			; Ogre::DataStreamObject::`RTTI Class Hierarchy Descriptor'
PUBLIC	??_R2DataStreamObject@Ogre@@8			; Ogre::DataStreamObject::`RTTI Base Class Array'
PUBLIC	??_R1A@?0A@EA@DataStreamObject@Ogre@@8		; Ogre::DataStreamObject::`RTTI Base Class Descriptor at (0,-1,0,64)'
PUBLIC	??_EDataStreamObject@Ogre@@MAEPAXI@Z		; Ogre::DataStreamObject::`vector deleting destructor'
;	COMDAT ??_R1A@?0A@EA@DataStreamObject@Ogre@@8
rdata$r	SEGMENT
??_R1A@?0A@EA@DataStreamObject@Ogre@@8 DD FLAT:??_R0?AVDataStreamObject@Ogre@@@8 ; Ogre::DataStreamObject::`RTTI Base Class Descriptor at (0,-1,0,64)'
	DD	00H
	DD	00H
	DD	0ffffffffH
	DD	00H
	DD	040H
	DD	FLAT:??_R3DataStreamObject@Ogre@@8
rdata$r	ENDS
;	COMDAT ??_R2DataStreamObject@Ogre@@8
rdata$r	SEGMENT
??_R2DataStreamObject@Ogre@@8 DD FLAT:??_R1A@?0A@EA@DataStreamObject@Ogre@@8 ; Ogre::DataStreamObject::`RTTI Base Class Array'
rdata$r	ENDS
;	COMDAT ??_R3DataStreamObject@Ogre@@8
rdata$r	SEGMENT
??_R3DataStreamObject@Ogre@@8 DD 00H			; Ogre::DataStreamObject::`RTTI Class Hierarchy Descriptor'
	DD	00H
	DD	01H
	DD	FLAT:??_R2DataStreamObject@Ogre@@8
rdata$r	ENDS
;	COMDAT ??_R0?AVDataStreamObject@Ogre@@@8
_DATA	SEGMENT
??_R0?AVDataStreamObject@Ogre@@@8 DD FLAT:??_7type_info@@6B@ ; Ogre::DataStreamObject `RTTI Type Descriptor'
	DD	00H
	DB	'.?AVDataStreamObject@Ogre@@', 00H
_DATA	ENDS
;	COMDAT ??_R4DataStreamObject@Ogre@@6B@
rdata$r	SEGMENT
??_R4DataStreamObject@Ogre@@6B@ DD 00H			; Ogre::DataStreamObject::`RTTI Complete Object Locator'
	DD	00H
	DD	00H
	DD	FLAT:??_R0?AVDataStreamObject@Ogre@@@8
	DD	FLAT:??_R3DataStreamObject@Ogre@@8
rdata$r	ENDS
;	COMDAT ??_7DataStreamObject@Ogre@@6B@
CONST	SEGMENT
??_7DataStreamObject@Ogre@@6B@ DD FLAT:??_R4DataStreamObject@Ogre@@6B@ ; Ogre::DataStreamObject::`vftable'
	DD	FLAT:??_EDataStreamObject@Ogre@@MAEPAXI@Z
	DD	FLAT:__purecall
	DD	FLAT:__purecall
	DD	FLAT:__purecall
	DD	FLAT:__purecall
	DD	FLAT:__purecall
	DD	FLAT:__purecall
; Function compile flags: /Odtp
CONST	ENDS
;	COMDAT ??1DataStreamObject@Ogre@@MAE@XZ
_TEXT	SEGMENT
_this$ = -4						; size = 4
??1DataStreamObject@Ogre@@MAE@XZ PROC			; Ogre::DataStreamObject::~DataStreamObject, COMDAT
; _this$ = ecx

; 445  : 		virtual ~DataStreamObject(){}

	push	ebp
	mov	ebp, esp
	push	ecx
	mov	DWORD PTR _this$[ebp], ecx
	mov	eax, DWORD PTR _this$[ebp]
	mov	DWORD PTR [eax], OFFSET ??_7DataStreamObject@Ogre@@6B@
	mov	esp, ebp
	pop	ebp
	ret	0
??1DataStreamObject@Ogre@@MAE@XZ ENDP			; Ogre::DataStreamObject::~DataStreamObject
_TEXT	ENDS
PUBLIC	??0DataStreamObject@Ogre@@QAE@XZ		; Ogre::DataStreamObject::DataStreamObject
; Function compile flags: /Odtp
;	COMDAT ??0DataStreamObject@Ogre@@QAE@XZ
_TEXT	SEGMENT
_this$ = -4						; size = 4
??0DataStreamObject@Ogre@@QAE@XZ PROC			; Ogre::DataStreamObject::DataStreamObject, COMDAT
; _this$ = ecx
	push	ebp
	mov	ebp, esp
	push	ecx
	mov	DWORD PTR _this$[ebp], ecx
	mov	eax, DWORD PTR _this$[ebp]
	mov	DWORD PTR [eax], OFFSET ??_7DataStreamObject@Ogre@@6B@
	mov	eax, DWORD PTR _this$[ebp]
	mov	esp, ebp
	pop	ebp
	ret	0
??0DataStreamObject@Ogre@@QAE@XZ ENDP			; Ogre::DataStreamObject::DataStreamObject
_TEXT	ENDS
PUBLIC	??0DataStreamObject@Ogre@@QAE@ABV01@@Z		; Ogre::DataStreamObject::DataStreamObject
; Function compile flags: /Odtp
;	COMDAT ??0DataStreamObject@Ogre@@QAE@ABV01@@Z
_TEXT	SEGMENT
_this$ = -4						; size = 4
___that$ = 8						; size = 4
??0DataStreamObject@Ogre@@QAE@ABV01@@Z PROC		; Ogre::DataStreamObject::DataStreamObject, COMDAT
; _this$ = ecx
	push	ebp
	mov	ebp, esp
	push	ecx
	mov	DWORD PTR _this$[ebp], ecx
	mov	eax, DWORD PTR _this$[ebp]
	mov	DWORD PTR [eax], OFFSET ??_7DataStreamObject@Ogre@@6B@
	mov	eax, DWORD PTR _this$[ebp]
	mov	esp, ebp
	pop	ebp
	ret	4
??0DataStreamObject@Ogre@@QAE@ABV01@@Z ENDP		; Ogre::DataStreamObject::DataStreamObject
_TEXT	ENDS
PUBLIC	??4DataStreamObject@Ogre@@QAEAAV01@ABV01@@Z	; Ogre::DataStreamObject::operator=
; Function compile flags: /Odtp
;	COMDAT ??4DataStreamObject@Ogre@@QAEAAV01@ABV01@@Z
_TEXT	SEGMENT
_this$ = -4						; size = 4
___that$ = 8						; size = 4
??4DataStreamObject@Ogre@@QAEAAV01@ABV01@@Z PROC	; Ogre::DataStreamObject::operator=, COMDAT
; _this$ = ecx
	push	ebp
	mov	ebp, esp
	push	ecx
	mov	DWORD PTR _this$[ebp], ecx
	mov	eax, DWORD PTR _this$[ebp]
	mov	esp, ebp
	pop	ebp
	ret	4
??4DataStreamObject@Ogre@@QAEAAV01@ABV01@@Z ENDP	; Ogre::DataStreamObject::operator=
_TEXT	ENDS
PUBLIC	??_GDataStreamObject@Ogre@@MAEPAXI@Z		; Ogre::DataStreamObject::`scalar deleting destructor'
; Function compile flags: /Odtp
;	COMDAT ??_GDataStreamObject@Ogre@@MAEPAXI@Z
_TEXT	SEGMENT
_this$ = -4						; size = 4
___flags$ = 8						; size = 4
??_GDataStreamObject@Ogre@@MAEPAXI@Z PROC		; Ogre::DataStreamObject::`scalar deleting destructor', COMDAT
; _this$ = ecx
	push	ebp
	mov	ebp, esp
	push	ecx
	mov	DWORD PTR _this$[ebp], ecx
	mov	ecx, DWORD PTR _this$[ebp]
	call	??1DataStreamObject@Ogre@@MAE@XZ	; Ogre::DataStreamObject::~DataStreamObject
	mov	eax, DWORD PTR ___flags$[ebp]
	and	eax, 1
	je	SHORT $LN1@scalar@6
	mov	ecx, DWORD PTR _this$[ebp]
	push	ecx
	call	??3@YAXPAX@Z				; operator delete
	add	esp, 4
$LN1@scalar@6:
	mov	eax, DWORD PTR _this$[ebp]
	mov	esp, ebp
	pop	ebp
	ret	4
??_GDataStreamObject@Ogre@@MAEPAXI@Z ENDP		; Ogre::DataStreamObject::`scalar deleting destructor'
; Function compile flags: /Odtp
_TEXT	ENDS
;	COMDAT ??_EDataStreamObject@Ogre@@MAEPAXI@Z
_TEXT	SEGMENT
_this$ = -4						; size = 4
___flags$ = 8						; size = 4
??_EDataStreamObject@Ogre@@MAEPAXI@Z PROC		; Ogre::DataStreamObject::`vector deleting destructor', COMDAT
; _this$ = ecx
	push	ebp
	mov	ebp, esp
	push	ecx
	mov	DWORD PTR _this$[ebp], ecx
	mov	eax, DWORD PTR ___flags$[ebp]
	and	eax, 2
	je	SHORT $LN3@vector@6
	push	OFFSET ??1DataStreamObject@Ogre@@MAE@XZ	; Ogre::DataStreamObject::~DataStreamObject
	mov	ecx, DWORD PTR _this$[ebp]
	mov	edx, DWORD PTR [ecx-4]
	push	edx
	push	4
	mov	eax, DWORD PTR _this$[ebp]
	push	eax
	call	??_M@YGXPAXIHP6EX0@Z@Z
	mov	ecx, DWORD PTR ___flags$[ebp]
	and	ecx, 1
	je	SHORT $LN2@vector@6
	mov	edx, DWORD PTR _this$[ebp]
	sub	edx, 4
	push	edx
	call	??_V@YAXPAX@Z				; operator delete[]
	add	esp, 4
$LN2@vector@6:
	mov	eax, DWORD PTR _this$[ebp]
	sub	eax, 4
	jmp	SHORT $LN4@vector@6
$LN3@vector@6:
	mov	ecx, DWORD PTR _this$[ebp]
	call	??1DataStreamObject@Ogre@@MAE@XZ	; Ogre::DataStreamObject::~DataStreamObject
	mov	eax, DWORD PTR ___flags$[ebp]
	and	eax, 1
	je	SHORT $LN1@vector@6
	mov	ecx, DWORD PTR _this$[ebp]
	push	ecx
	call	??3@YAXPAX@Z				; operator delete
	add	esp, 4
$LN1@vector@6:
	mov	eax, DWORD PTR _this$[ebp]
$LN4@vector@6:
	mov	esp, ebp
	pop	ebp
	ret	4
??_EDataStreamObject@Ogre@@MAEPAXI@Z ENDP		; Ogre::DataStreamObject::`vector deleting destructor'
_TEXT	ENDS
PUBLIC	??_7ObjectDataStream@Ogre@@6B@			; Ogre::ObjectDataStream::`vftable'
PUBLIC	??0ObjectDataStream@Ogre@@QAE@ABV01@@Z		; Ogre::ObjectDataStream::ObjectDataStream
PUBLIC	??_R4ObjectDataStream@Ogre@@6B@			; Ogre::ObjectDataStream::`RTTI Complete Object Locator'
PUBLIC	??_R0?AVObjectDataStream@Ogre@@@8		; Ogre::ObjectDataStream `RTTI Type Descriptor'
PUBLIC	??_R3ObjectDataStream@Ogre@@8			; Ogre::ObjectDataStream::`RTTI Class Hierarchy Descriptor'
PUBLIC	??_R2ObjectDataStream@Ogre@@8			; Ogre::ObjectDataStream::`RTTI Base Class Array'
PUBLIC	??_R1A@?0A@EA@ObjectDataStream@Ogre@@8		; Ogre::ObjectDataStream::`RTTI Base Class Descriptor at (0,-1,0,64)'
PUBLIC	??_EObjectDataStream@Ogre@@UAEPAXI@Z		; Ogre::ObjectDataStream::`vector deleting destructor'
EXTRN	?read@ObjectDataStream@Ogre@@UAEIPAXI@Z:PROC	; Ogre::ObjectDataStream::read
EXTRN	?write@ObjectDataStream@Ogre@@UAEIPBXI@Z:PROC	; Ogre::ObjectDataStream::write
EXTRN	?skip@ObjectDataStream@Ogre@@UAEXJ@Z:PROC	; Ogre::ObjectDataStream::skip
EXTRN	?seek@ObjectDataStream@Ogre@@UAEXI@Z:PROC	; Ogre::ObjectDataStream::seek
EXTRN	?tell@ObjectDataStream@Ogre@@UBEIXZ:PROC	; Ogre::ObjectDataStream::tell
EXTRN	?eof@ObjectDataStream@Ogre@@UBE_NXZ:PROC	; Ogre::ObjectDataStream::eof
EXTRN	?size@ObjectDataStream@Ogre@@UBEIXZ:PROC	; Ogre::ObjectDataStream::size
EXTRN	?close@ObjectDataStream@Ogre@@UAEXXZ:PROC	; Ogre::ObjectDataStream::close
EXTRN	?getMemoryImage@ObjectDataStream@Ogre@@UAEPAXXZ:PROC ; Ogre::ObjectDataStream::getMemoryImage
;	COMDAT ??_R1A@?0A@EA@ObjectDataStream@Ogre@@8
rdata$r	SEGMENT
??_R1A@?0A@EA@ObjectDataStream@Ogre@@8 DD FLAT:??_R0?AVObjectDataStream@Ogre@@@8 ; Ogre::ObjectDataStream::`RTTI Base Class Descriptor at (0,-1,0,64)'
	DD	01H
	DD	00H
	DD	0ffffffffH
	DD	00H
	DD	040H
	DD	FLAT:??_R3ObjectDataStream@Ogre@@8
rdata$r	ENDS
;	COMDAT ??_R2ObjectDataStream@Ogre@@8
rdata$r	SEGMENT
??_R2ObjectDataStream@Ogre@@8 DD FLAT:??_R1A@?0A@EA@ObjectDataStream@Ogre@@8 ; Ogre::ObjectDataStream::`RTTI Base Class Array'
	DD	FLAT:??_R1A@?0A@EA@DataStream@Ogre@@8
rdata$r	ENDS
;	COMDAT ??_R3ObjectDataStream@Ogre@@8
rdata$r	SEGMENT
??_R3ObjectDataStream@Ogre@@8 DD 00H			; Ogre::ObjectDataStream::`RTTI Class Hierarchy Descriptor'
	DD	00H
	DD	02H
	DD	FLAT:??_R2ObjectDataStream@Ogre@@8
rdata$r	ENDS
;	COMDAT ??_R0?AVObjectDataStream@Ogre@@@8
_DATA	SEGMENT
??_R0?AVObjectDataStream@Ogre@@@8 DD FLAT:??_7type_info@@6B@ ; Ogre::ObjectDataStream `RTTI Type Descriptor'
	DD	00H
	DB	'.?AVObjectDataStream@Ogre@@', 00H
_DATA	ENDS
;	COMDAT ??_R4ObjectDataStream@Ogre@@6B@
rdata$r	SEGMENT
??_R4ObjectDataStream@Ogre@@6B@ DD 00H			; Ogre::ObjectDataStream::`RTTI Complete Object Locator'
	DD	00H
	DD	00H
	DD	FLAT:??_R0?AVObjectDataStream@Ogre@@@8
	DD	FLAT:??_R3ObjectDataStream@Ogre@@8
rdata$r	ENDS
;	COMDAT ??_7ObjectDataStream@Ogre@@6B@
CONST	SEGMENT
??_7ObjectDataStream@Ogre@@6B@ DD FLAT:??_R4ObjectDataStream@Ogre@@6B@ ; Ogre::ObjectDataStream::`vftable'
	DD	FLAT:??_EObjectDataStream@Ogre@@UAEPAXI@Z
	DD	FLAT:?read@ObjectDataStream@Ogre@@UAEIPAXI@Z
	DD	FLAT:?write@ObjectDataStream@Ogre@@UAEIPBXI@Z
	DD	FLAT:?readLine@DataStream@Ogre@@UAEIPADIABV?$basic_string@DU?$char_traits@D@std@@V?$allocator@D@2@@std@@@Z
	DD	FLAT:?getLine@DataStream@Ogre@@UAE?AV?$basic_string@DU?$char_traits@D@std@@V?$allocator@D@2@@std@@_N@Z
	DD	FLAT:?getAsString@DataStream@Ogre@@UAE?AV?$basic_string@DU?$char_traits@D@std@@V?$allocator@D@2@@std@@XZ
	DD	FLAT:?skipLine@DataStream@Ogre@@UAEIABV?$basic_string@DU?$char_traits@D@std@@V?$allocator@D@2@@std@@@Z
	DD	FLAT:?skip@ObjectDataStream@Ogre@@UAEXJ@Z
	DD	FLAT:?seek@ObjectDataStream@Ogre@@UAEXI@Z
	DD	FLAT:?tell@ObjectDataStream@Ogre@@UBEIXZ
	DD	FLAT:?eof@ObjectDataStream@Ogre@@UBE_NXZ
	DD	FLAT:?size@ObjectDataStream@Ogre@@UBEIXZ
	DD	FLAT:?close@ObjectDataStream@Ogre@@UAEXXZ
	DD	FLAT:?getMemoryImage@ObjectDataStream@Ogre@@UAEPAXXZ
CONST	ENDS
;	COMDAT xdata$x
xdata$x	SEGMENT
__unwindtable$??0ObjectDataStream@Ogre@@QAE@ABV01@@Z DD 0ffffffffH
	DD	FLAT:__unwindfunclet$??0ObjectDataStream@Ogre@@QAE@ABV01@@Z$0
__ehfuncinfo$??0ObjectDataStream@Ogre@@QAE@ABV01@@Z DD 019930522H
	DD	01H
	DD	FLAT:__unwindtable$??0ObjectDataStream@Ogre@@QAE@ABV01@@Z
	DD	2 DUP(00H)
	DD	2 DUP(00H)
	DD	00H
	DD	00H
; Function compile flags: /Odtp
xdata$x	ENDS
;	COMDAT ??0ObjectDataStream@Ogre@@QAE@ABV01@@Z
_TEXT	SEGMENT
_this$ = -16						; size = 4
__$EHRec$ = -12						; size = 12
___that$ = 8						; size = 4
??0ObjectDataStream@Ogre@@QAE@ABV01@@Z PROC		; Ogre::ObjectDataStream::ObjectDataStream, COMDAT
; _this$ = ecx
	push	ebp
	mov	ebp, esp
	push	-1
	push	__ehhandler$??0ObjectDataStream@Ogre@@QAE@ABV01@@Z
	mov	eax, DWORD PTR fs:0
	push	eax
	push	ecx
	mov	eax, DWORD PTR ___security_cookie
	xor	eax, ebp
	push	eax
	lea	eax, DWORD PTR __$EHRec$[ebp]
	mov	DWORD PTR fs:0, eax
	mov	DWORD PTR _this$[ebp], ecx
	mov	eax, DWORD PTR ___that$[ebp]
	push	eax
	mov	ecx, DWORD PTR _this$[ebp]
	call	??0DataStream@Ogre@@QAE@ABV01@@Z
	mov	DWORD PTR __$EHRec$[ebp+8], 0
	mov	ecx, DWORD PTR _this$[ebp]
	mov	DWORD PTR [ecx], OFFSET ??_7ObjectDataStream@Ogre@@6B@
	mov	edx, DWORD PTR _this$[ebp]
	mov	eax, DWORD PTR ___that$[ebp]
	mov	ecx, DWORD PTR [eax+36]
	mov	DWORD PTR [edx+36], ecx
	mov	edx, DWORD PTR _this$[ebp]
	mov	eax, DWORD PTR ___that$[ebp]
	mov	ecx, DWORD PTR [eax+40]
	mov	DWORD PTR [edx+40], ecx
	mov	DWORD PTR __$EHRec$[ebp+8], -1
	mov	eax, DWORD PTR _this$[ebp]
	mov	ecx, DWORD PTR __$EHRec$[ebp]
	mov	DWORD PTR fs:0, ecx
	pop	ecx
	mov	esp, ebp
	pop	ebp
	ret	4
_TEXT	ENDS
;	COMDAT text$x
text$x	SEGMENT
__unwindfunclet$??0ObjectDataStream@Ogre@@QAE@ABV01@@Z$0:
	mov	ecx, DWORD PTR _this$[ebp]
	jmp	??1DataStream@Ogre@@UAE@XZ		; Ogre::DataStream::~DataStream
__ehhandler$??0ObjectDataStream@Ogre@@QAE@ABV01@@Z:
	mov	edx, DWORD PTR [esp+8]
	lea	eax, DWORD PTR [edx+12]
	mov	ecx, DWORD PTR [edx-8]
	xor	ecx, eax
	call	@__security_check_cookie@4
	mov	eax, OFFSET __ehfuncinfo$??0ObjectDataStream@Ogre@@QAE@ABV01@@Z
	jmp	___CxxFrameHandler3
text$x	ENDS
??0ObjectDataStream@Ogre@@QAE@ABV01@@Z ENDP		; Ogre::ObjectDataStream::ObjectDataStream
PUBLIC	??4ObjectDataStream@Ogre@@QAEAAV01@ABV01@@Z	; Ogre::ObjectDataStream::operator=
; Function compile flags: /Odtp
;	COMDAT ??4ObjectDataStream@Ogre@@QAEAAV01@ABV01@@Z
_TEXT	SEGMENT
_this$ = -4						; size = 4
___that$ = 8						; size = 4
??4ObjectDataStream@Ogre@@QAEAAV01@ABV01@@Z PROC	; Ogre::ObjectDataStream::operator=, COMDAT
; _this$ = ecx
	push	ebp
	mov	ebp, esp
	push	ecx
	mov	DWORD PTR _this$[ebp], ecx
	mov	eax, DWORD PTR ___that$[ebp]
	push	eax
	mov	ecx, DWORD PTR _this$[ebp]
	call	??4DataStream@Ogre@@QAEAAV01@ABV01@@Z
	mov	ecx, DWORD PTR _this$[ebp]
	mov	edx, DWORD PTR ___that$[ebp]
	mov	eax, DWORD PTR [edx+36]
	mov	DWORD PTR [ecx+36], eax
	mov	ecx, DWORD PTR _this$[ebp]
	mov	edx, DWORD PTR ___that$[ebp]
	mov	eax, DWORD PTR [edx+40]
	mov	DWORD PTR [ecx+40], eax
	mov	eax, DWORD PTR _this$[ebp]
	mov	esp, ebp
	pop	ebp
	ret	4
??4ObjectDataStream@Ogre@@QAEAAV01@ABV01@@Z ENDP	; Ogre::ObjectDataStream::operator=
_TEXT	ENDS
PUBLIC	??_GObjectDataStream@Ogre@@UAEPAXI@Z		; Ogre::ObjectDataStream::`scalar deleting destructor'
EXTRN	??1ObjectDataStream@Ogre@@UAE@XZ:PROC		; Ogre::ObjectDataStream::~ObjectDataStream
; Function compile flags: /Odtp
;	COMDAT ??_GObjectDataStream@Ogre@@UAEPAXI@Z
_TEXT	SEGMENT
_this$ = -4						; size = 4
___flags$ = 8						; size = 4
??_GObjectDataStream@Ogre@@UAEPAXI@Z PROC		; Ogre::ObjectDataStream::`scalar deleting destructor', COMDAT
; _this$ = ecx
	push	ebp
	mov	ebp, esp
	push	ecx
	mov	DWORD PTR _this$[ebp], ecx
	mov	ecx, DWORD PTR _this$[ebp]
	call	??1ObjectDataStream@Ogre@@UAE@XZ	; Ogre::ObjectDataStream::~ObjectDataStream
	mov	eax, DWORD PTR ___flags$[ebp]
	and	eax, 1
	je	SHORT $LN1@scalar@7
	mov	ecx, DWORD PTR _this$[ebp]
	push	ecx
	call	??3@YAXPAX@Z				; operator delete
	add	esp, 4
$LN1@scalar@7:
	mov	eax, DWORD PTR _this$[ebp]
	mov	esp, ebp
	pop	ebp
	ret	4
??_GObjectDataStream@Ogre@@UAEPAXI@Z ENDP		; Ogre::ObjectDataStream::`scalar deleting destructor'
; Function compile flags: /Odtp
_TEXT	ENDS
;	COMDAT ??_EObjectDataStream@Ogre@@UAEPAXI@Z
_TEXT	SEGMENT
_this$ = -4						; size = 4
___flags$ = 8						; size = 4
??_EObjectDataStream@Ogre@@UAEPAXI@Z PROC		; Ogre::ObjectDataStream::`vector deleting destructor', COMDAT
; _this$ = ecx
	push	ebp
	mov	ebp, esp
	push	ecx
	mov	DWORD PTR _this$[ebp], ecx
	mov	eax, DWORD PTR ___flags$[ebp]
	and	eax, 2
	je	SHORT $LN3@vector@7
	push	OFFSET ??1ObjectDataStream@Ogre@@UAE@XZ	; Ogre::ObjectDataStream::~ObjectDataStream
	mov	ecx, DWORD PTR _this$[ebp]
	mov	edx, DWORD PTR [ecx-4]
	push	edx
	push	44					; 0000002cH
	mov	eax, DWORD PTR _this$[ebp]
	push	eax
	call	??_M@YGXPAXIHP6EX0@Z@Z
	mov	ecx, DWORD PTR ___flags$[ebp]
	and	ecx, 1
	je	SHORT $LN2@vector@7
	mov	edx, DWORD PTR _this$[ebp]
	sub	edx, 4
	push	edx
	call	??_V@YAXPAX@Z				; operator delete[]
	add	esp, 4
$LN2@vector@7:
	mov	eax, DWORD PTR _this$[ebp]
	sub	eax, 4
	jmp	SHORT $LN4@vector@7
$LN3@vector@7:
	mov	ecx, DWORD PTR _this$[ebp]
	call	??1ObjectDataStream@Ogre@@UAE@XZ	; Ogre::ObjectDataStream::~ObjectDataStream
	mov	eax, DWORD PTR ___flags$[ebp]
	and	eax, 1
	je	SHORT $LN1@vector@7
	mov	ecx, DWORD PTR _this$[ebp]
	push	ecx
	call	??3@YAXPAX@Z				; operator delete
	add	esp, 4
$LN1@vector@7:
	mov	eax, DWORD PTR _this$[ebp]
$LN4@vector@7:
	mov	esp, ebp
	pop	ebp
	ret	4
??_EObjectDataStream@Ogre@@UAEPAXI@Z ENDP		; Ogre::ObjectDataStream::`vector deleting destructor'
_TEXT	ENDS
PUBLIC	??_7Archive@Ogre@@6B@				; Ogre::Archive::`vftable'
PUBLIC	??0Archive@Ogre@@QAE@PAVDataStream@1@H@Z	; Ogre::Archive::Archive
PUBLIC	??_R4Archive@Ogre@@6B@				; Ogre::Archive::`RTTI Complete Object Locator'
PUBLIC	??_R0?AVArchive@Ogre@@@8			; Ogre::Archive `RTTI Type Descriptor'
PUBLIC	??_R3Archive@Ogre@@8				; Ogre::Archive::`RTTI Class Hierarchy Descriptor'
PUBLIC	??_R2Archive@Ogre@@8				; Ogre::Archive::`RTTI Base Class Array'
PUBLIC	??_R1A@?0A@EA@Archive@Ogre@@8			; Ogre::Archive::`RTTI Base Class Descriptor at (0,-1,0,64)'
PUBLIC	??_EArchive@Ogre@@UAEPAXI@Z			; Ogre::Archive::`vector deleting destructor'
;	COMDAT ??_R1A@?0A@EA@Archive@Ogre@@8
; File i:\svnroot\client\ogremain\ogrearchive.h
rdata$r	SEGMENT
??_R1A@?0A@EA@Archive@Ogre@@8 DD FLAT:??_R0?AVArchive@Ogre@@@8 ; Ogre::Archive::`RTTI Base Class Descriptor at (0,-1,0,64)'
	DD	00H
	DD	00H
	DD	0ffffffffH
	DD	00H
	DD	040H
	DD	FLAT:??_R3Archive@Ogre@@8
rdata$r	ENDS
;	COMDAT ??_R2Archive@Ogre@@8
rdata$r	SEGMENT
??_R2Archive@Ogre@@8 DD FLAT:??_R1A@?0A@EA@Archive@Ogre@@8 ; Ogre::Archive::`RTTI Base Class Array'
rdata$r	ENDS
;	COMDAT ??_R3Archive@Ogre@@8
rdata$r	SEGMENT
??_R3Archive@Ogre@@8 DD 00H				; Ogre::Archive::`RTTI Class Hierarchy Descriptor'
	DD	00H
	DD	01H
	DD	FLAT:??_R2Archive@Ogre@@8
rdata$r	ENDS
;	COMDAT ??_R0?AVArchive@Ogre@@@8
_DATA	SEGMENT
??_R0?AVArchive@Ogre@@@8 DD FLAT:??_7type_info@@6B@	; Ogre::Archive `RTTI Type Descriptor'
	DD	00H
	DB	'.?AVArchive@Ogre@@', 00H
_DATA	ENDS
;	COMDAT ??_R4Archive@Ogre@@6B@
rdata$r	SEGMENT
??_R4Archive@Ogre@@6B@ DD 00H				; Ogre::Archive::`RTTI Complete Object Locator'
	DD	00H
	DD	00H
	DD	FLAT:??_R0?AVArchive@Ogre@@@8
	DD	FLAT:??_R3Archive@Ogre@@8
rdata$r	ENDS
;	COMDAT ??_7Archive@Ogre@@6B@
CONST	SEGMENT
??_7Archive@Ogre@@6B@ DD FLAT:??_R4Archive@Ogre@@6B@	; Ogre::Archive::`vftable'
	DD	FLAT:??_EArchive@Ogre@@UAEPAXI@Z
; Function compile flags: /Odtp
CONST	ENDS
;	COMDAT ??0Archive@Ogre@@QAE@PAVDataStream@1@H@Z
_TEXT	SEGMENT
_this$ = -4						; size = 4
_pstream$ = 8						; size = 4
_mode$ = 12						; size = 4
??0Archive@Ogre@@QAE@PAVDataStream@1@H@Z PROC		; Ogre::Archive::Archive, COMDAT
; _this$ = ecx

; 22   : 		{

	push	ebp
	mov	ebp, esp
	push	ecx
	mov	DWORD PTR _this$[ebp], ecx
	mov	eax, DWORD PTR _this$[ebp]
	mov	DWORD PTR [eax], OFFSET ??_7Archive@Ogre@@6B@
	mov	ecx, DWORD PTR _this$[ebp]
	mov	edx, DWORD PTR _pstream$[ebp]
	mov	DWORD PTR [ecx+4], edx
	mov	eax, DWORD PTR _this$[ebp]
	mov	ecx, DWORD PTR _mode$[ebp]
	mov	DWORD PTR [eax+8], ecx

; 23   : 		}

	mov	eax, DWORD PTR _this$[ebp]
	mov	esp, ebp
	pop	ebp
	ret	8
??0Archive@Ogre@@QAE@PAVDataStream@1@H@Z ENDP		; Ogre::Archive::Archive
_TEXT	ENDS
PUBLIC	??1Archive@Ogre@@UAE@XZ				; Ogre::Archive::~Archive
; Function compile flags: /Odtp
;	COMDAT ??1Archive@Ogre@@UAE@XZ
_TEXT	SEGMENT
_this$ = -4						; size = 4
??1Archive@Ogre@@UAE@XZ PROC				; Ogre::Archive::~Archive, COMDAT
; _this$ = ecx

; 26   : 		{

	push	ebp
	mov	ebp, esp
	push	ecx
	mov	DWORD PTR _this$[ebp], ecx
	mov	eax, DWORD PTR _this$[ebp]
	mov	DWORD PTR [eax], OFFSET ??_7Archive@Ogre@@6B@

; 27   : 		}

	mov	esp, ebp
	pop	ebp
	ret	0
??1Archive@Ogre@@UAE@XZ ENDP				; Ogre::Archive::~Archive
_TEXT	ENDS
PUBLIC	?isLoading@Archive@Ogre@@QAE_NXZ		; Ogre::Archive::isLoading
; Function compile flags: /Odtp
;	COMDAT ?isLoading@Archive@Ogre@@QAE_NXZ
_TEXT	SEGMENT
_this$ = -4						; size = 4
?isLoading@Archive@Ogre@@QAE_NXZ PROC			; Ogre::Archive::isLoading, COMDAT
; _this$ = ecx

; 30   : 		{

	push	ebp
	mov	ebp, esp
	push	ecx
	mov	DWORD PTR _this$[ebp], ecx

; 31   : 			return m_Mode==MODE_LOAD;

	mov	eax, DWORD PTR _this$[ebp]
	xor	ecx, ecx
	cmp	DWORD PTR [eax+8], 1
	sete	cl
	mov	al, cl

; 32   : 		}

	mov	esp, ebp
	pop	ebp
	ret	0
?isLoading@Archive@Ogre@@QAE_NXZ ENDP			; Ogre::Archive::isLoading
_TEXT	ENDS
PUBLIC	?serialize@Archive@Ogre@@QAEAAV12@PAXI@Z	; Ogre::Archive::serialize
PUBLIC	??6Archive@Ogre@@QAEAAV01@AAD@Z			; Ogre::Archive::operator<<
; Function compile flags: /Odtp
;	COMDAT ??6Archive@Ogre@@QAEAAV01@AAD@Z
_TEXT	SEGMENT
_this$ = -4						; size = 4
_value$ = 8						; size = 4
??6Archive@Ogre@@QAEAAV01@AAD@Z PROC			; Ogre::Archive::operator<<, COMDAT
; _this$ = ecx

; 108  : 		SERIALIZE_PRIMITIVE_FUNC(char)

	push	ebp
	mov	ebp, esp
	push	ecx
	mov	DWORD PTR _this$[ebp], ecx
	push	1
	mov	eax, DWORD PTR _value$[ebp]
	push	eax
	mov	ecx, DWORD PTR _this$[ebp]
	call	?serialize@Archive@Ogre@@QAEAAV12@PAXI@Z ; Ogre::Archive::serialize
	mov	eax, DWORD PTR _this$[ebp]
	mov	esp, ebp
	pop	ebp
	ret	4
??6Archive@Ogre@@QAEAAV01@AAD@Z ENDP			; Ogre::Archive::operator<<
_TEXT	ENDS
PUBLIC	??6Archive@Ogre@@QAEAAV01@AAF@Z			; Ogre::Archive::operator<<
; Function compile flags: /Odtp
;	COMDAT ??6Archive@Ogre@@QAEAAV01@AAF@Z
_TEXT	SEGMENT
_this$ = -4						; size = 4
_value$ = 8						; size = 4
??6Archive@Ogre@@QAEAAV01@AAF@Z PROC			; Ogre::Archive::operator<<, COMDAT
; _this$ = ecx

; 109  : 		SERIALIZE_PRIMITIVE_FUNC(short)

	push	ebp
	mov	ebp, esp
	push	ecx
	mov	DWORD PTR _this$[ebp], ecx
	push	2
	mov	eax, DWORD PTR _value$[ebp]
	push	eax
	mov	ecx, DWORD PTR _this$[ebp]
	call	?serialize@Archive@Ogre@@QAEAAV12@PAXI@Z ; Ogre::Archive::serialize
	mov	eax, DWORD PTR _this$[ebp]
	mov	esp, ebp
	pop	ebp
	ret	4
??6Archive@Ogre@@QAEAAV01@AAF@Z ENDP			; Ogre::Archive::operator<<
_TEXT	ENDS
PUBLIC	??6Archive@Ogre@@QAEAAV01@AAH@Z			; Ogre::Archive::operator<<
; Function compile flags: /Odtp
;	COMDAT ??6Archive@Ogre@@QAEAAV01@AAH@Z
_TEXT	SEGMENT
_this$ = -4						; size = 4
_value$ = 8						; size = 4
??6Archive@Ogre@@QAEAAV01@AAH@Z PROC			; Ogre::Archive::operator<<, COMDAT
; _this$ = ecx

; 110  : 		SERIALIZE_PRIMITIVE_FUNC(int)

	push	ebp
	mov	ebp, esp
	push	ecx
	mov	DWORD PTR _this$[ebp], ecx
	push	4
	mov	eax, DWORD PTR _value$[ebp]
	push	eax
	mov	ecx, DWORD PTR _this$[ebp]
	call	?serialize@Archive@Ogre@@QAEAAV12@PAXI@Z ; Ogre::Archive::serialize
	mov	eax, DWORD PTR _this$[ebp]
	mov	esp, ebp
	pop	ebp
	ret	4
??6Archive@Ogre@@QAEAAV01@AAH@Z ENDP			; Ogre::Archive::operator<<
_TEXT	ENDS
PUBLIC	??6Archive@Ogre@@QAEAAV01@AA_J@Z		; Ogre::Archive::operator<<
; Function compile flags: /Odtp
;	COMDAT ??6Archive@Ogre@@QAEAAV01@AA_J@Z
_TEXT	SEGMENT
_this$ = -4						; size = 4
_value$ = 8						; size = 4
??6Archive@Ogre@@QAEAAV01@AA_J@Z PROC			; Ogre::Archive::operator<<, COMDAT
; _this$ = ecx

; 111  : 		SERIALIZE_PRIMITIVE_FUNC(int64)

	push	ebp
	mov	ebp, esp
	push	ecx
	mov	DWORD PTR _this$[ebp], ecx
	push	8
	mov	eax, DWORD PTR _value$[ebp]
	push	eax
	mov	ecx, DWORD PTR _this$[ebp]
	call	?serialize@Archive@Ogre@@QAEAAV12@PAXI@Z ; Ogre::Archive::serialize
	mov	eax, DWORD PTR _this$[ebp]
	mov	esp, ebp
	pop	ebp
	ret	4
??6Archive@Ogre@@QAEAAV01@AA_J@Z ENDP			; Ogre::Archive::operator<<
_TEXT	ENDS
PUBLIC	??6Archive@Ogre@@QAEAAV01@AAE@Z			; Ogre::Archive::operator<<
; Function compile flags: /Odtp
;	COMDAT ??6Archive@Ogre@@QAEAAV01@AAE@Z
_TEXT	SEGMENT
_this$ = -4						; size = 4
_value$ = 8						; size = 4
??6Archive@Ogre@@QAEAAV01@AAE@Z PROC			; Ogre::Archive::operator<<, COMDAT
; _this$ = ecx

; 112  : 		SERIALIZE_PRIMITIVE_FUNC(uchar)

	push	ebp
	mov	ebp, esp
	push	ecx
	mov	DWORD PTR _this$[ebp], ecx
	push	1
	mov	eax, DWORD PTR _value$[ebp]
	push	eax
	mov	ecx, DWORD PTR _this$[ebp]
	call	?serialize@Archive@Ogre@@QAEAAV12@PAXI@Z ; Ogre::Archive::serialize
	mov	eax, DWORD PTR _this$[ebp]
	mov	esp, ebp
	pop	ebp
	ret	4
??6Archive@Ogre@@QAEAAV01@AAE@Z ENDP			; Ogre::Archive::operator<<
_TEXT	ENDS
PUBLIC	??6Archive@Ogre@@QAEAAV01@AAG@Z			; Ogre::Archive::operator<<
; Function compile flags: /Odtp
;	COMDAT ??6Archive@Ogre@@QAEAAV01@AAG@Z
_TEXT	SEGMENT
_this$ = -4						; size = 4
_value$ = 8						; size = 4
??6Archive@Ogre@@QAEAAV01@AAG@Z PROC			; Ogre::Archive::operator<<, COMDAT
; _this$ = ecx

; 113  : 		SERIALIZE_PRIMITIVE_FUNC(ushort)

	push	ebp
	mov	ebp, esp
	push	ecx
	mov	DWORD PTR _this$[ebp], ecx
	push	2
	mov	eax, DWORD PTR _value$[ebp]
	push	eax
	mov	ecx, DWORD PTR _this$[ebp]
	call	?serialize@Archive@Ogre@@QAEAAV12@PAXI@Z ; Ogre::Archive::serialize
	mov	eax, DWORD PTR _this$[ebp]
	mov	esp, ebp
	pop	ebp
	ret	4
??6Archive@Ogre@@QAEAAV01@AAG@Z ENDP			; Ogre::Archive::operator<<
_TEXT	ENDS
PUBLIC	??6Archive@Ogre@@QAEAAV01@AAI@Z			; Ogre::Archive::operator<<
; Function compile flags: /Odtp
;	COMDAT ??6Archive@Ogre@@QAEAAV01@AAI@Z
_TEXT	SEGMENT
_this$ = -4						; size = 4
_value$ = 8						; size = 4
??6Archive@Ogre@@QAEAAV01@AAI@Z PROC			; Ogre::Archive::operator<<, COMDAT
; _this$ = ecx

; 114  : 		SERIALIZE_PRIMITIVE_FUNC(uint)

	push	ebp
	mov	ebp, esp
	push	ecx
	mov	DWORD PTR _this$[ebp], ecx
	push	4
	mov	eax, DWORD PTR _value$[ebp]
	push	eax
	mov	ecx, DWORD PTR _this$[ebp]
	call	?serialize@Archive@Ogre@@QAEAAV12@PAXI@Z ; Ogre::Archive::serialize
	mov	eax, DWORD PTR _this$[ebp]
	mov	esp, ebp
	pop	ebp
	ret	4
??6Archive@Ogre@@QAEAAV01@AAI@Z ENDP			; Ogre::Archive::operator<<
_TEXT	ENDS
PUBLIC	??6Archive@Ogre@@QAEAAV01@AA_K@Z		; Ogre::Archive::operator<<
; Function compile flags: /Odtp
;	COMDAT ??6Archive@Ogre@@QAEAAV01@AA_K@Z
_TEXT	SEGMENT
_this$ = -4						; size = 4
_value$ = 8						; size = 4
??6Archive@Ogre@@QAEAAV01@AA_K@Z PROC			; Ogre::Archive::operator<<, COMDAT
; _this$ = ecx

; 115  : 		SERIALIZE_PRIMITIVE_FUNC(uint64)

	push	ebp
	mov	ebp, esp
	push	ecx
	mov	DWORD PTR _this$[ebp], ecx
	push	8
	mov	eax, DWORD PTR _value$[ebp]
	push	eax
	mov	ecx, DWORD PTR _this$[ebp]
	call	?serialize@Archive@Ogre@@QAEAAV12@PAXI@Z ; Ogre::Archive::serialize
	mov	eax, DWORD PTR _this$[ebp]
	mov	esp, ebp
	pop	ebp
	ret	4
??6Archive@Ogre@@QAEAAV01@AA_K@Z ENDP			; Ogre::Archive::operator<<
_TEXT	ENDS
PUBLIC	??6Archive@Ogre@@QAEAAV01@AA_N@Z		; Ogre::Archive::operator<<
; Function compile flags: /Odtp
;	COMDAT ??6Archive@Ogre@@QAEAAV01@AA_N@Z
_TEXT	SEGMENT
_this$ = -4						; size = 4
_value$ = 8						; size = 4
??6Archive@Ogre@@QAEAAV01@AA_N@Z PROC			; Ogre::Archive::operator<<, COMDAT
; _this$ = ecx

; 116  : 		SERIALIZE_PRIMITIVE_FUNC(bool)

	push	ebp
	mov	ebp, esp
	push	ecx
	mov	DWORD PTR _this$[ebp], ecx
	push	1
	mov	eax, DWORD PTR _value$[ebp]
	push	eax
	mov	ecx, DWORD PTR _this$[ebp]
	call	?serialize@Archive@Ogre@@QAEAAV12@PAXI@Z ; Ogre::Archive::serialize
	mov	eax, DWORD PTR _this$[ebp]
	mov	esp, ebp
	pop	ebp
	ret	4
??6Archive@Ogre@@QAEAAV01@AA_N@Z ENDP			; Ogre::Archive::operator<<
_TEXT	ENDS
PUBLIC	??6Archive@Ogre@@QAEAAV01@AAM@Z			; Ogre::Archive::operator<<
; Function compile flags: /Odtp
;	COMDAT ??6Archive@Ogre@@QAEAAV01@AAM@Z
_TEXT	SEGMENT
_this$ = -4						; size = 4
_value$ = 8						; size = 4
??6Archive@Ogre@@QAEAAV01@AAM@Z PROC			; Ogre::Archive::operator<<, COMDAT
; _this$ = ecx

; 117  : 		SERIALIZE_PRIMITIVE_FUNC(float)

	push	ebp
	mov	ebp, esp
	push	ecx
	mov	DWORD PTR _this$[ebp], ecx
	push	4
	mov	eax, DWORD PTR _value$[ebp]
	push	eax
	mov	ecx, DWORD PTR _this$[ebp]
	call	?serialize@Archive@Ogre@@QAEAAV12@PAXI@Z ; Ogre::Archive::serialize
	mov	eax, DWORD PTR _this$[ebp]
	mov	esp, ebp
	pop	ebp
	ret	4
??6Archive@Ogre@@QAEAAV01@AAM@Z ENDP			; Ogre::Archive::operator<<
; Function compile flags: /Odtp
_TEXT	ENDS
;	COMDAT ?serialize@Archive@Ogre@@QAEAAV12@PAXI@Z
_TEXT	SEGMENT
_this$ = -4						; size = 4
_pbuf$ = 8						; size = 4
_len$ = 12						; size = 4
?serialize@Archive@Ogre@@QAEAAV12@PAXI@Z PROC		; Ogre::Archive::serialize, COMDAT
; _this$ = ecx

; 155  : 		{

	push	ebp
	mov	ebp, esp
	push	ecx
	mov	DWORD PTR _this$[ebp], ecx

; 156  : 			if(isLoading()) m_pStream->read(pbuf, len);

	mov	ecx, DWORD PTR _this$[ebp]
	call	?isLoading@Archive@Ogre@@QAE_NXZ	; Ogre::Archive::isLoading
	movzx	eax, al
	test	eax, eax
	je	SHORT $LN2@serialize
	mov	ecx, DWORD PTR _len$[ebp]
	push	ecx
	mov	edx, DWORD PTR _pbuf$[ebp]
	push	edx
	mov	eax, DWORD PTR _this$[ebp]
	mov	ecx, DWORD PTR [eax+4]
	mov	edx, DWORD PTR _this$[ebp]
	mov	eax, DWORD PTR [edx+4]
	mov	edx, DWORD PTR [ecx]
	mov	ecx, eax
	mov	eax, DWORD PTR [edx+4]
	call	eax
	jmp	SHORT $LN1@serialize
$LN2@serialize:

; 157  : 			else m_pStream->write(pbuf, len);

	mov	ecx, DWORD PTR _len$[ebp]
	push	ecx
	mov	edx, DWORD PTR _pbuf$[ebp]
	push	edx
	mov	eax, DWORD PTR _this$[ebp]
	mov	ecx, DWORD PTR [eax+4]
	mov	edx, DWORD PTR _this$[ebp]
	mov	eax, DWORD PTR [edx+4]
	mov	edx, DWORD PTR [ecx]
	mov	ecx, eax
	mov	eax, DWORD PTR [edx+8]
	call	eax
$LN1@serialize:

; 158  : 
; 159  : 			return *this;

	mov	eax, DWORD PTR _this$[ebp]

; 160  : 		}

	mov	esp, ebp
	pop	ebp
	ret	8
?serialize@Archive@Ogre@@QAEAAV12@PAXI@Z ENDP		; Ogre::Archive::serialize
_TEXT	ENDS
PUBLIC	?read@Archive@Ogre@@QAEXPAXI@Z			; Ogre::Archive::read
; Function compile flags: /Odtp
;	COMDAT ?read@Archive@Ogre@@QAEXPAXI@Z
_TEXT	SEGMENT
_this$ = -4						; size = 4
_pbuf$ = 8						; size = 4
_len$ = 12						; size = 4
?read@Archive@Ogre@@QAEXPAXI@Z PROC			; Ogre::Archive::read, COMDAT
; _this$ = ecx

; 163  : 		{

	push	ebp
	mov	ebp, esp
	push	ecx
	mov	DWORD PTR _this$[ebp], ecx

; 164  : 			m_pStream->read(pbuf, len);

	mov	eax, DWORD PTR _len$[ebp]
	push	eax
	mov	ecx, DWORD PTR _pbuf$[ebp]
	push	ecx
	mov	edx, DWORD PTR _this$[ebp]
	mov	eax, DWORD PTR [edx+4]
	mov	ecx, DWORD PTR _this$[ebp]
	mov	ecx, DWORD PTR [ecx+4]
	mov	edx, DWORD PTR [eax]
	mov	eax, DWORD PTR [edx+4]
	call	eax

; 165  : 		}

	mov	esp, ebp
	pop	ebp
	ret	8
?read@Archive@Ogre@@QAEXPAXI@Z ENDP			; Ogre::Archive::read
_TEXT	ENDS
PUBLIC	?write@Archive@Ogre@@QAEXPBXI@Z			; Ogre::Archive::write
; Function compile flags: /Odtp
;	COMDAT ?write@Archive@Ogre@@QAEXPBXI@Z
_TEXT	SEGMENT
_this$ = -4						; size = 4
_pbuf$ = 8						; size = 4
_len$ = 12						; size = 4
?write@Archive@Ogre@@QAEXPBXI@Z PROC			; Ogre::Archive::write, COMDAT
; _this$ = ecx

; 168  : 		{

	push	ebp
	mov	ebp, esp
	push	ecx
	mov	DWORD PTR _this$[ebp], ecx

; 169  : 			m_pStream->write(pbuf, len);

	mov	eax, DWORD PTR _len$[ebp]
	push	eax
	mov	ecx, DWORD PTR _pbuf$[ebp]
	push	ecx
	mov	edx, DWORD PTR _this$[ebp]
	mov	eax, DWORD PTR [edx+4]
	mov	ecx, DWORD PTR _this$[ebp]
	mov	ecx, DWORD PTR [ecx+4]
	mov	edx, DWORD PTR [eax]
	mov	eax, DWORD PTR [edx+8]
	call	eax

; 170  : 		}

	mov	esp, ebp
	pop	ebp
	ret	8
?write@Archive@Ogre@@QAEXPBXI@Z ENDP			; Ogre::Archive::write
_TEXT	ENDS
PUBLIC	??0Archive@Ogre@@QAE@ABV01@@Z			; Ogre::Archive::Archive
; Function compile flags: /Odtp
;	COMDAT ??0Archive@Ogre@@QAE@ABV01@@Z
_TEXT	SEGMENT
_this$ = -4						; size = 4
___that$ = 8						; size = 4
??0Archive@Ogre@@QAE@ABV01@@Z PROC			; Ogre::Archive::Archive, COMDAT
; _this$ = ecx
	push	ebp
	mov	ebp, esp
	push	ecx
	mov	DWORD PTR _this$[ebp], ecx
	mov	eax, DWORD PTR _this$[ebp]
	mov	DWORD PTR [eax], OFFSET ??_7Archive@Ogre@@6B@
	mov	ecx, DWORD PTR _this$[ebp]
	mov	edx, DWORD PTR ___that$[ebp]
	mov	eax, DWORD PTR [edx+4]
	mov	DWORD PTR [ecx+4], eax
	mov	ecx, DWORD PTR _this$[ebp]
	mov	edx, DWORD PTR ___that$[ebp]
	mov	eax, DWORD PTR [edx+8]
	mov	DWORD PTR [ecx+8], eax
	mov	eax, DWORD PTR _this$[ebp]
	mov	esp, ebp
	pop	ebp
	ret	4
??0Archive@Ogre@@QAE@ABV01@@Z ENDP			; Ogre::Archive::Archive
_TEXT	ENDS
PUBLIC	??4Archive@Ogre@@QAEAAV01@ABV01@@Z		; Ogre::Archive::operator=
; Function compile flags: /Odtp
;	COMDAT ??4Archive@Ogre@@QAEAAV01@ABV01@@Z
_TEXT	SEGMENT
_this$ = -4						; size = 4
___that$ = 8						; size = 4
??4Archive@Ogre@@QAEAAV01@ABV01@@Z PROC			; Ogre::Archive::operator=, COMDAT
; _this$ = ecx
	push	ebp
	mov	ebp, esp
	push	ecx
	mov	DWORD PTR _this$[ebp], ecx
	mov	eax, DWORD PTR _this$[ebp]
	mov	ecx, DWORD PTR ___that$[ebp]
	mov	edx, DWORD PTR [ecx+4]
	mov	DWORD PTR [eax+4], edx
	mov	eax, DWORD PTR _this$[ebp]
	mov	ecx, DWORD PTR ___that$[ebp]
	mov	edx, DWORD PTR [ecx+8]
	mov	DWORD PTR [eax+8], edx
	mov	eax, DWORD PTR _this$[ebp]
	mov	esp, ebp
	pop	ebp
	ret	4
??4Archive@Ogre@@QAEAAV01@ABV01@@Z ENDP			; Ogre::Archive::operator=
_TEXT	ENDS
PUBLIC	??_GArchive@Ogre@@UAEPAXI@Z			; Ogre::Archive::`scalar deleting destructor'
; Function compile flags: /Odtp
;	COMDAT ??_GArchive@Ogre@@UAEPAXI@Z
_TEXT	SEGMENT
_this$ = -4						; size = 4
___flags$ = 8						; size = 4
??_GArchive@Ogre@@UAEPAXI@Z PROC			; Ogre::Archive::`scalar deleting destructor', COMDAT
; _this$ = ecx
	push	ebp
	mov	ebp, esp
	push	ecx
	mov	DWORD PTR _this$[ebp], ecx
	mov	ecx, DWORD PTR _this$[ebp]
	call	??1Archive@Ogre@@UAE@XZ			; Ogre::Archive::~Archive
	mov	eax, DWORD PTR ___flags$[ebp]
	and	eax, 1
	je	SHORT $LN1@scalar@8
	mov	ecx, DWORD PTR _this$[ebp]
	push	ecx
	call	??3@YAXPAX@Z				; operator delete
	add	esp, 4
$LN1@scalar@8:
	mov	eax, DWORD PTR _this$[ebp]
	mov	esp, ebp
	pop	ebp
	ret	4
??_GArchive@Ogre@@UAEPAXI@Z ENDP			; Ogre::Archive::`scalar deleting destructor'
; Function compile flags: /Odtp
_TEXT	ENDS
;	COMDAT ??_EArchive@Ogre@@UAEPAXI@Z
_TEXT	SEGMENT
_this$ = -4						; size = 4
___flags$ = 8						; size = 4
??_EArchive@Ogre@@UAEPAXI@Z PROC			; Ogre::Archive::`vector deleting destructor', COMDAT
; _this$ = ecx
	push	ebp
	mov	ebp, esp
	push	ecx
	mov	DWORD PTR _this$[ebp], ecx
	mov	eax, DWORD PTR ___flags$[ebp]
	and	eax, 2
	je	SHORT $LN3@vector@8
	push	OFFSET ??1Archive@Ogre@@UAE@XZ		; Ogre::Archive::~Archive
	mov	ecx, DWORD PTR _this$[ebp]
	mov	edx, DWORD PTR [ecx-4]
	push	edx
	push	12					; 0000000cH
	mov	eax, DWORD PTR _this$[ebp]
	push	eax
	call	??_M@YGXPAXIHP6EX0@Z@Z
	mov	ecx, DWORD PTR ___flags$[ebp]
	and	ecx, 1
	je	SHORT $LN2@vector@8
	mov	edx, DWORD PTR _this$[ebp]
	sub	edx, 4
	push	edx
	call	??_V@YAXPAX@Z				; operator delete[]
	add	esp, 4
$LN2@vector@8:
	mov	eax, DWORD PTR _this$[ebp]
	sub	eax, 4
	jmp	SHORT $LN4@vector@8
$LN3@vector@8:
	mov	ecx, DWORD PTR _this$[ebp]
	call	??1Archive@Ogre@@UAE@XZ			; Ogre::Archive::~Archive
	mov	eax, DWORD PTR ___flags$[ebp]
	and	eax, 1
	je	SHORT $LN1@vector@8
	mov	ecx, DWORD PTR _this$[ebp]
	push	ecx
	call	??3@YAXPAX@Z				; operator delete
	add	esp, 4
$LN1@vector@8:
	mov	eax, DWORD PTR _this$[ebp]
$LN4@vector@8:
	mov	esp, ebp
	pop	ebp
	ret	4
??_EArchive@Ogre@@UAEPAXI@Z ENDP			; Ogre::Archive::`vector deleting destructor'
_TEXT	ENDS
PUBLIC	??0Vector3@Ogre@@QAE@XZ				; Ogre::Vector3::Vector3
; Function compile flags: /Odtp
; File i:\svnroot\client\ogremain\ogrevector3.h
;	COMDAT ??0Vector3@Ogre@@QAE@XZ
_TEXT	SEGMENT
_this$ = -4						; size = 4
??0Vector3@Ogre@@QAE@XZ PROC				; Ogre::Vector3::Vector3, COMDAT
; _this$ = ecx

; 49   : 		Vector3(){}

	push	ebp
	mov	ebp, esp
	push	ecx
	mov	DWORD PTR _this$[ebp], ecx
	mov	eax, DWORD PTR _this$[ebp]
	mov	esp, ebp
	pop	ebp
	ret	0
??0Vector3@Ogre@@QAE@XZ ENDP				; Ogre::Vector3::Vector3
_TEXT	ENDS
PUBLIC	??0Vector3@Ogre@@QAE@ABV01@@Z			; Ogre::Vector3::Vector3
EXTRN	__fltused:DWORD
; Function compile flags: /Odtp
;	COMDAT ??0Vector3@Ogre@@QAE@ABV01@@Z
_TEXT	SEGMENT
_this$ = -4						; size = 4
_rhs$ = 8						; size = 4
??0Vector3@Ogre@@QAE@ABV01@@Z PROC			; Ogre::Vector3::Vector3, COMDAT
; _this$ = ecx

; 50   : 		Vector3(const Vector3 &rhs)

	push	ebp
	mov	ebp, esp
	push	ecx
	mov	DWORD PTR _this$[ebp], ecx

; 51   : 		{
; 52   : 			x = rhs.x;

	mov	eax, DWORD PTR _this$[ebp]
	mov	ecx, DWORD PTR _rhs$[ebp]
	fld	DWORD PTR [ecx]
	fstp	DWORD PTR [eax]

; 53   : 			y = rhs.y;

	mov	edx, DWORD PTR _this$[ebp]
	mov	eax, DWORD PTR _rhs$[ebp]
	fld	DWORD PTR [eax+4]
	fstp	DWORD PTR [edx+4]

; 54   : 			z = rhs.z;

	mov	ecx, DWORD PTR _this$[ebp]
	mov	edx, DWORD PTR _rhs$[ebp]
	fld	DWORD PTR [edx+8]
	fstp	DWORD PTR [ecx+8]

; 55   : 		}

	mov	eax, DWORD PTR _this$[ebp]
	mov	esp, ebp
	pop	ebp
	ret	4
??0Vector3@Ogre@@QAE@ABV01@@Z ENDP			; Ogre::Vector3::Vector3
_TEXT	ENDS
PUBLIC	??0Vector3@Ogre@@QAE@MMM@Z			; Ogre::Vector3::Vector3
; Function compile flags: /Odtp
;	COMDAT ??0Vector3@Ogre@@QAE@MMM@Z
_TEXT	SEGMENT
_this$ = -4						; size = 4
_x1$ = 8						; size = 4
_y1$ = 12						; size = 4
_z1$ = 16						; size = 4
??0Vector3@Ogre@@QAE@MMM@Z PROC				; Ogre::Vector3::Vector3, COMDAT
; _this$ = ecx

; 56   : 		Vector3( float x1, float y1, float z1 ) : x(x1), y(y1), z(z1){}

	push	ebp
	mov	ebp, esp
	push	ecx
	mov	DWORD PTR _this$[ebp], ecx
	mov	eax, DWORD PTR _this$[ebp]
	fld	DWORD PTR _x1$[ebp]
	fstp	DWORD PTR [eax]
	mov	ecx, DWORD PTR _this$[ebp]
	fld	DWORD PTR _y1$[ebp]
	fstp	DWORD PTR [ecx+4]
	mov	edx, DWORD PTR _this$[ebp]
	fld	DWORD PTR _z1$[ebp]
	fstp	DWORD PTR [edx+8]
	mov	eax, DWORD PTR _this$[ebp]
	mov	esp, ebp
	pop	ebp
	ret	12					; 0000000cH
??0Vector3@Ogre@@QAE@MMM@Z ENDP				; Ogre::Vector3::Vector3
_TEXT	ENDS
PUBLIC	??0Vector3@Ogre@@QAE@M@Z			; Ogre::Vector3::Vector3
; Function compile flags: /Odtp
;	COMDAT ??0Vector3@Ogre@@QAE@M@Z
_TEXT	SEGMENT
_this$ = -4						; size = 4
_v$ = 8							; size = 4
??0Vector3@Ogre@@QAE@M@Z PROC				; Ogre::Vector3::Vector3, COMDAT
; _this$ = ecx

; 57   : 		Vector3(float v) : x(v), y(v), z(v){}

	push	ebp
	mov	ebp, esp
	push	ecx
	mov	DWORD PTR _this$[ebp], ecx
	mov	eax, DWORD PTR _this$[ebp]
	fld	DWORD PTR _v$[ebp]
	fstp	DWORD PTR [eax]
	mov	ecx, DWORD PTR _this$[ebp]
	fld	DWORD PTR _v$[ebp]
	fstp	DWORD PTR [ecx+4]
	mov	edx, DWORD PTR _this$[ebp]
	fld	DWORD PTR _v$[ebp]
	fstp	DWORD PTR [edx+8]
	mov	eax, DWORD PTR _this$[ebp]
	mov	esp, ebp
	pop	ebp
	ret	4
??0Vector3@Ogre@@QAE@M@Z ENDP				; Ogre::Vector3::Vector3
_TEXT	ENDS
PUBLIC	??0Vector3@Ogre@@QAE@PAM@Z			; Ogre::Vector3::Vector3
; Function compile flags: /Odtp
;	COMDAT ??0Vector3@Ogre@@QAE@PAM@Z
_TEXT	SEGMENT
_this$ = -4						; size = 4
_v$ = 8							; size = 4
??0Vector3@Ogre@@QAE@PAM@Z PROC				; Ogre::Vector3::Vector3, COMDAT
; _this$ = ecx

; 58   : 		Vector3(float* v) : x(v[0]), y(v[1]), z(v[2]){}

	push	ebp
	mov	ebp, esp
	push	ecx
	mov	DWORD PTR _this$[ebp], ecx
	mov	eax, DWORD PTR _this$[ebp]
	mov	ecx, DWORD PTR _v$[ebp]
	fld	DWORD PTR [ecx]
	fstp	DWORD PTR [eax]
	mov	edx, DWORD PTR _this$[ebp]
	mov	eax, DWORD PTR _v$[ebp]
	fld	DWORD PTR [eax+4]
	fstp	DWORD PTR [edx+4]
	mov	ecx, DWORD PTR _this$[ebp]
	mov	edx, DWORD PTR _v$[ebp]
	fld	DWORD PTR [edx+8]
	fstp	DWORD PTR [ecx+8]
	mov	eax, DWORD PTR _this$[ebp]
	mov	esp, ebp
	pop	ebp
	ret	4
??0Vector3@Ogre@@QAE@PAM@Z ENDP				; Ogre::Vector3::Vector3
_TEXT	ENDS
PUBLIC	??4Vector3@Ogre@@QAEABV01@ABV01@@Z		; Ogre::Vector3::operator=
; Function compile flags: /Odtp
;	COMDAT ??4Vector3@Ogre@@QAEABV01@ABV01@@Z
_TEXT	SEGMENT
_this$ = -4						; size = 4
_vec$ = 8						; size = 4
??4Vector3@Ogre@@QAEABV01@ABV01@@Z PROC			; Ogre::Vector3::operator=, COMDAT
; _this$ = ecx

; 61   : 		{

	push	ebp
	mov	ebp, esp
	push	ecx
	mov	DWORD PTR _this$[ebp], ecx

; 62   : 			x = vec.x;

	mov	eax, DWORD PTR _this$[ebp]
	mov	ecx, DWORD PTR _vec$[ebp]
	fld	DWORD PTR [ecx]
	fstp	DWORD PTR [eax]

; 63   : 			y = vec.y;

	mov	edx, DWORD PTR _this$[ebp]
	mov	eax, DWORD PTR _vec$[ebp]
	fld	DWORD PTR [eax+4]
	fstp	DWORD PTR [edx+4]

; 64   : 			z = vec.z;

	mov	ecx, DWORD PTR _this$[ebp]
	mov	edx, DWORD PTR _vec$[ebp]
	fld	DWORD PTR [edx+8]
	fstp	DWORD PTR [ecx+8]

; 65   : 			return *this;

	mov	eax, DWORD PTR _this$[ebp]

; 66   : 		}

	mov	esp, ebp
	pop	ebp
	ret	4
??4Vector3@Ogre@@QAEABV01@ABV01@@Z ENDP			; Ogre::Vector3::operator=
_TEXT	ENDS
PUBLIC	??YVector3@Ogre@@QAEXABV01@@Z			; Ogre::Vector3::operator+=
; Function compile flags: /Odtp
;	COMDAT ??YVector3@Ogre@@QAEXABV01@@Z
_TEXT	SEGMENT
_this$ = -4						; size = 4
_vec$ = 8						; size = 4
??YVector3@Ogre@@QAEXABV01@@Z PROC			; Ogre::Vector3::operator+=, COMDAT
; _this$ = ecx

; 68   : 		{

	push	ebp
	mov	ebp, esp
	push	ecx
	mov	DWORD PTR _this$[ebp], ecx

; 69   : 			x += vec.x;

	mov	eax, DWORD PTR _this$[ebp]
	fld	DWORD PTR [eax]
	mov	ecx, DWORD PTR _vec$[ebp]
	fadd	DWORD PTR [ecx]
	mov	edx, DWORD PTR _this$[ebp]
	fstp	DWORD PTR [edx]

; 70   : 			y += vec.y;

	mov	eax, DWORD PTR _this$[ebp]
	fld	DWORD PTR [eax+4]
	mov	ecx, DWORD PTR _vec$[ebp]
	fadd	DWORD PTR [ecx+4]
	mov	edx, DWORD PTR _this$[ebp]
	fstp	DWORD PTR [edx+4]

; 71   : 			z += vec.z;

	mov	eax, DWORD PTR _this$[ebp]
	fld	DWORD PTR [eax+8]
	mov	ecx, DWORD PTR _vec$[ebp]
	fadd	DWORD PTR [ecx+8]
	mov	edx, DWORD PTR _this$[ebp]
	fstp	DWORD PTR [edx+8]

; 72   : 		}

	mov	esp, ebp
	pop	ebp
	ret	4
??YVector3@Ogre@@QAEXABV01@@Z ENDP			; Ogre::Vector3::operator+=
_TEXT	ENDS
PUBLIC	??ZVector3@Ogre@@QAEXABV01@@Z			; Ogre::Vector3::operator-=
; Function compile flags: /Odtp
;	COMDAT ??ZVector3@Ogre@@QAEXABV01@@Z
_TEXT	SEGMENT
_this$ = -4						; size = 4
_vec$ = 8						; size = 4
??ZVector3@Ogre@@QAEXABV01@@Z PROC			; Ogre::Vector3::operator-=, COMDAT
; _this$ = ecx

; 74   : 		{

	push	ebp
	mov	ebp, esp
	push	ecx
	mov	DWORD PTR _this$[ebp], ecx

; 75   : 			x -= vec.x;

	mov	eax, DWORD PTR _this$[ebp]
	fld	DWORD PTR [eax]
	mov	ecx, DWORD PTR _vec$[ebp]
	fsub	DWORD PTR [ecx]
	mov	edx, DWORD PTR _this$[ebp]
	fstp	DWORD PTR [edx]

; 76   : 			y -= vec.y;

	mov	eax, DWORD PTR _this$[ebp]
	fld	DWORD PTR [eax+4]
	mov	ecx, DWORD PTR _vec$[ebp]
	fsub	DWORD PTR [ecx+4]
	mov	edx, DWORD PTR _this$[ebp]
	fstp	DWORD PTR [edx+4]

; 77   : 			z -= vec.z;

	mov	eax, DWORD PTR _this$[ebp]
	fld	DWORD PTR [eax+8]
	mov	ecx, DWORD PTR _vec$[ebp]
	fsub	DWORD PTR [ecx+8]
	mov	edx, DWORD PTR _this$[ebp]
	fstp	DWORD PTR [edx+8]

; 78   : 		}

	mov	esp, ebp
	pop	ebp
	ret	4
??ZVector3@Ogre@@QAEXABV01@@Z ENDP			; Ogre::Vector3::operator-=
_TEXT	ENDS
PUBLIC	??XVector3@Ogre@@QAEXM@Z			; Ogre::Vector3::operator*=
; Function compile flags: /Odtp
;	COMDAT ??XVector3@Ogre@@QAEXM@Z
_TEXT	SEGMENT
_this$ = -4						; size = 4
_s$ = 8							; size = 4
??XVector3@Ogre@@QAEXM@Z PROC				; Ogre::Vector3::operator*=, COMDAT
; _this$ = ecx

; 81   : 		{

	push	ebp
	mov	ebp, esp
	push	ecx
	mov	DWORD PTR _this$[ebp], ecx

; 82   : 			x *= s;

	mov	eax, DWORD PTR _this$[ebp]
	fld	DWORD PTR [eax]
	fmul	DWORD PTR _s$[ebp]
	mov	ecx, DWORD PTR _this$[ebp]
	fstp	DWORD PTR [ecx]

; 83   : 			y *= s;

	mov	edx, DWORD PTR _this$[ebp]
	fld	DWORD PTR [edx+4]
	fmul	DWORD PTR _s$[ebp]
	mov	eax, DWORD PTR _this$[ebp]
	fstp	DWORD PTR [eax+4]

; 84   : 			z *= s;

	mov	ecx, DWORD PTR _this$[ebp]
	fld	DWORD PTR [ecx+8]
	fmul	DWORD PTR _s$[ebp]
	mov	edx, DWORD PTR _this$[ebp]
	fstp	DWORD PTR [edx+8]

; 85   : 		}

	mov	esp, ebp
	pop	ebp
	ret	4
??XVector3@Ogre@@QAEXM@Z ENDP				; Ogre::Vector3::operator*=
_TEXT	ENDS
PUBLIC	??XVector3@Ogre@@QAEXABV01@@Z			; Ogre::Vector3::operator*=
; Function compile flags: /Odtp
;	COMDAT ??XVector3@Ogre@@QAEXABV01@@Z
_TEXT	SEGMENT
_this$ = -4						; size = 4
_vec$ = 8						; size = 4
??XVector3@Ogre@@QAEXABV01@@Z PROC			; Ogre::Vector3::operator*=, COMDAT
; _this$ = ecx

; 88   : 		{

	push	ebp
	mov	ebp, esp
	push	ecx
	mov	DWORD PTR _this$[ebp], ecx

; 89   : 			x *= vec.x;

	mov	eax, DWORD PTR _this$[ebp]
	fld	DWORD PTR [eax]
	mov	ecx, DWORD PTR _vec$[ebp]
	fmul	DWORD PTR [ecx]
	mov	edx, DWORD PTR _this$[ebp]
	fstp	DWORD PTR [edx]

; 90   : 			y *= vec.y;

	mov	eax, DWORD PTR _this$[ebp]
	fld	DWORD PTR [eax+4]
	mov	ecx, DWORD PTR _vec$[ebp]
	fmul	DWORD PTR [ecx+4]
	mov	edx, DWORD PTR _this$[ebp]
	fstp	DWORD PTR [edx+4]

; 91   : 			z *= vec.z;

	mov	eax, DWORD PTR _this$[ebp]
	fld	DWORD PTR [eax+8]
	mov	ecx, DWORD PTR _vec$[ebp]
	fmul	DWORD PTR [ecx+8]
	mov	edx, DWORD PTR _this$[ebp]
	fstp	DWORD PTR [edx+8]

; 92   : 		}

	mov	esp, ebp
	pop	ebp
	ret	4
??XVector3@Ogre@@QAEXABV01@@Z ENDP			; Ogre::Vector3::operator*=
_TEXT	ENDS
PUBLIC	??_0Vector3@Ogre@@QAEXM@Z			; Ogre::Vector3::operator/=
; Function compile flags: /Odtp
;	COMDAT ??_0Vector3@Ogre@@QAEXM@Z
_TEXT	SEGMENT
_this$ = -4						; size = 4
_s$ = 8							; size = 4
??_0Vector3@Ogre@@QAEXM@Z PROC				; Ogre::Vector3::operator/=, COMDAT
; _this$ = ecx

; 95   : 		{

	push	ebp
	mov	ebp, esp
	push	ecx
	mov	DWORD PTR _this$[ebp], ecx

; 96   : 			x /= s;

	mov	eax, DWORD PTR _this$[ebp]
	fld	DWORD PTR [eax]
	fdiv	DWORD PTR _s$[ebp]
	mov	ecx, DWORD PTR _this$[ebp]
	fstp	DWORD PTR [ecx]

; 97   : 			y /= s;

	mov	edx, DWORD PTR _this$[ebp]
	fld	DWORD PTR [edx+4]
	fdiv	DWORD PTR _s$[ebp]
	mov	eax, DWORD PTR _this$[ebp]
	fstp	DWORD PTR [eax+4]

; 98   : 			z /= s;

	mov	ecx, DWORD PTR _this$[ebp]
	fld	DWORD PTR [ecx+8]
	fdiv	DWORD PTR _s$[ebp]
	mov	edx, DWORD PTR _this$[ebp]
	fstp	DWORD PTR [edx+8]

; 99   : 		}

	mov	esp, ebp
	pop	ebp
	ret	4
??_0Vector3@Ogre@@QAEXM@Z ENDP				; Ogre::Vector3::operator/=
_TEXT	ENDS
PUBLIC	??BVector3@Ogre@@QAEPAMXZ			; Ogre::Vector3::operator float *
; Function compile flags: /Odtp
;	COMDAT ??BVector3@Ogre@@QAEPAMXZ
_TEXT	SEGMENT
_this$ = -4						; size = 4
??BVector3@Ogre@@QAEPAMXZ PROC				; Ogre::Vector3::operator float *, COMDAT
; _this$ = ecx

; 101  : 		{

	push	ebp
	mov	ebp, esp
	push	ecx
	mov	DWORD PTR _this$[ebp], ecx

; 102  : 			return &x;

	mov	eax, DWORD PTR _this$[ebp]

; 103  : 		}

	mov	esp, ebp
	pop	ebp
	ret	0
??BVector3@Ogre@@QAEPAMXZ ENDP				; Ogre::Vector3::operator float *
_TEXT	ENDS
PUBLIC	??BVector3@Ogre@@QBEPBMXZ			; Ogre::Vector3::operator float const *
; Function compile flags: /Odtp
;	COMDAT ??BVector3@Ogre@@QBEPBMXZ
_TEXT	SEGMENT
_this$ = -4						; size = 4
??BVector3@Ogre@@QBEPBMXZ PROC				; Ogre::Vector3::operator float const *, COMDAT
; _this$ = ecx

; 105  : 		{

	push	ebp
	mov	ebp, esp
	push	ecx
	mov	DWORD PTR _this$[ebp], ecx

; 106  : 			return &x;

	mov	eax, DWORD PTR _this$[ebp]

; 107  : 		}

	mov	esp, ebp
	pop	ebp
	ret	0
??BVector3@Ogre@@QBEPBMXZ ENDP				; Ogre::Vector3::operator float const *
_TEXT	ENDS
PUBLIC	??HVector3@Ogre@@QBE?AV01@XZ			; Ogre::Vector3::operator+
; Function compile flags: /Odtp
;	COMDAT ??HVector3@Ogre@@QBE?AV01@XZ
_TEXT	SEGMENT
_this$ = -4						; size = 4
___$ReturnUdt$ = 8					; size = 4
??HVector3@Ogre@@QBE?AV01@XZ PROC			; Ogre::Vector3::operator+, COMDAT
; _this$ = ecx

; 109  : 		{

	push	ebp
	mov	ebp, esp
	push	ecx
	mov	DWORD PTR _this$[ebp], ecx

; 110  : 			return *this;

	mov	eax, DWORD PTR _this$[ebp]
	push	eax
	mov	ecx, DWORD PTR ___$ReturnUdt$[ebp]
	call	??0Vector3@Ogre@@QAE@ABV01@@Z		; Ogre::Vector3::Vector3
	mov	eax, DWORD PTR ___$ReturnUdt$[ebp]

; 111  : 		}

	mov	esp, ebp
	pop	ebp
	ret	4
??HVector3@Ogre@@QBE?AV01@XZ ENDP			; Ogre::Vector3::operator+
_TEXT	ENDS
PUBLIC	??GVector3@Ogre@@QBE?AV01@XZ			; Ogre::Vector3::operator-
; Function compile flags: /Odtp
;	COMDAT ??GVector3@Ogre@@QBE?AV01@XZ
_TEXT	SEGMENT
_this$ = -4						; size = 4
___$ReturnUdt$ = 8					; size = 4
??GVector3@Ogre@@QBE?AV01@XZ PROC			; Ogre::Vector3::operator-, COMDAT
; _this$ = ecx

; 113  : 		{

	push	ebp
	mov	ebp, esp
	push	ecx
	mov	DWORD PTR _this$[ebp], ecx

; 114  : 			return Vector3(-x, -y, -z);

	mov	eax, DWORD PTR _this$[ebp]
	fld	DWORD PTR [eax+8]
	fchs
	push	ecx
	fstp	DWORD PTR [esp]
	mov	ecx, DWORD PTR _this$[ebp]
	fld	DWORD PTR [ecx+4]
	fchs
	push	ecx
	fstp	DWORD PTR [esp]
	mov	edx, DWORD PTR _this$[ebp]
	fld	DWORD PTR [edx]
	fchs
	push	ecx
	fstp	DWORD PTR [esp]
	mov	ecx, DWORD PTR ___$ReturnUdt$[ebp]
	call	??0Vector3@Ogre@@QAE@MMM@Z		; Ogre::Vector3::Vector3
	mov	eax, DWORD PTR ___$ReturnUdt$[ebp]

; 115  : 		}

	mov	esp, ebp
	pop	ebp
	ret	4
??GVector3@Ogre@@QBE?AV01@XZ ENDP			; Ogre::Vector3::operator-
_TEXT	ENDS
PUBLIC	??8Vector3@Ogre@@QBE_NABV01@@Z			; Ogre::Vector3::operator==
; Function compile flags: /Odtp
;	COMDAT ??8Vector3@Ogre@@QBE_NABV01@@Z
_TEXT	SEGMENT
tv77 = -8						; size = 4
_this$ = -4						; size = 4
_vec$ = 8						; size = 4
??8Vector3@Ogre@@QBE_NABV01@@Z PROC			; Ogre::Vector3::operator==, COMDAT
; _this$ = ecx

; 117  : 		{

	push	ebp
	mov	ebp, esp
	sub	esp, 8
	mov	DWORD PTR _this$[ebp], ecx

; 118  : 			return (x==vec.x && y==vec.y && z==vec.z);

	mov	eax, DWORD PTR _this$[ebp]
	fld	DWORD PTR [eax]
	mov	ecx, DWORD PTR _vec$[ebp]
	fld	DWORD PTR [ecx]
	fucompp
	fnstsw	ax
	test	ah, 68					; 00000044H
	jp	SHORT $LN3@operator
	mov	edx, DWORD PTR _this$[ebp]
	fld	DWORD PTR [edx+4]
	mov	eax, DWORD PTR _vec$[ebp]
	fld	DWORD PTR [eax+4]
	fucompp
	fnstsw	ax
	test	ah, 68					; 00000044H
	jp	SHORT $LN3@operator
	mov	ecx, DWORD PTR _this$[ebp]
	fld	DWORD PTR [ecx+8]
	mov	edx, DWORD PTR _vec$[ebp]
	fld	DWORD PTR [edx+8]
	fucompp
	fnstsw	ax
	test	ah, 68					; 00000044H
	jp	SHORT $LN3@operator
	mov	DWORD PTR tv77[ebp], 1
	jmp	SHORT $LN4@operator
$LN3@operator:
	mov	DWORD PTR tv77[ebp], 0
$LN4@operator:
	mov	al, BYTE PTR tv77[ebp]

; 119  : 		}

	mov	esp, ebp
	pop	ebp
	ret	4
??8Vector3@Ogre@@QBE_NABV01@@Z ENDP			; Ogre::Vector3::operator==
_TEXT	ENDS
PUBLIC	?setElement@Vector3@Ogre@@QAEXMMM@Z		; Ogre::Vector3::setElement
; Function compile flags: /Odtp
;	COMDAT ?setElement@Vector3@Ogre@@QAEXMMM@Z
_TEXT	SEGMENT
_this$ = -4						; size = 4
_x1$ = 8						; size = 4
_y1$ = 12						; size = 4
_z1$ = 16						; size = 4
?setElement@Vector3@Ogre@@QAEXMMM@Z PROC		; Ogre::Vector3::setElement, COMDAT
; _this$ = ecx

; 121  : 		{

	push	ebp
	mov	ebp, esp
	push	ecx
	mov	DWORD PTR _this$[ebp], ecx

; 122  : 			x = x1;

	mov	eax, DWORD PTR _this$[ebp]
	fld	DWORD PTR _x1$[ebp]
	fstp	DWORD PTR [eax]

; 123  : 			y = y1;

	mov	ecx, DWORD PTR _this$[ebp]
	fld	DWORD PTR _y1$[ebp]
	fstp	DWORD PTR [ecx+4]

; 124  : 			z = z1;

	mov	edx, DWORD PTR _this$[ebp]
	fld	DWORD PTR _z1$[ebp]
	fstp	DWORD PTR [edx+8]

; 125  : 		}

	mov	esp, ebp
	pop	ebp
	ret	12					; 0000000cH
?setElement@Vector3@Ogre@@QAEXMMM@Z ENDP		; Ogre::Vector3::setElement
_TEXT	ENDS
PUBLIC	?setElement@Vector3@Ogre@@QAEXPAM@Z		; Ogre::Vector3::setElement
; Function compile flags: /Odtp
;	COMDAT ?setElement@Vector3@Ogre@@QAEXPAM@Z
_TEXT	SEGMENT
_this$ = -4						; size = 4
_p$ = 8							; size = 4
?setElement@Vector3@Ogre@@QAEXPAM@Z PROC		; Ogre::Vector3::setElement, COMDAT
; _this$ = ecx

; 127  : 		{

	push	ebp
	mov	ebp, esp
	push	ecx
	mov	DWORD PTR _this$[ebp], ecx

; 128  : 			x = p[0];

	mov	eax, DWORD PTR _this$[ebp]
	mov	ecx, DWORD PTR _p$[ebp]
	fld	DWORD PTR [ecx]
	fstp	DWORD PTR [eax]

; 129  : 			y = p[1];

	mov	edx, DWORD PTR _this$[ebp]
	mov	eax, DWORD PTR _p$[ebp]
	fld	DWORD PTR [eax+4]
	fstp	DWORD PTR [edx+4]

; 130  : 			z = p[2];

	mov	ecx, DWORD PTR _this$[ebp]
	mov	edx, DWORD PTR _p$[ebp]
	fld	DWORD PTR [edx+8]
	fstp	DWORD PTR [ecx+8]

; 131  : 		}

	mov	esp, ebp
	pop	ebp
	ret	4
?setElement@Vector3@Ogre@@QAEXPAM@Z ENDP		; Ogre::Vector3::setElement
_TEXT	ENDS
PUBLIC	?Sqrt@Ogre@@YAMM@Z				; Ogre::Sqrt
PUBLIC	?length@Vector3@Ogre@@QBEMXZ			; Ogre::Vector3::length
; Function compile flags: /Odtp
;	COMDAT ?length@Vector3@Ogre@@QBEMXZ
_TEXT	SEGMENT
tv88 = -8						; size = 4
_this$ = -4						; size = 4
?length@Vector3@Ogre@@QBEMXZ PROC			; Ogre::Vector3::length, COMDAT
; _this$ = ecx

; 133  : 		{

	push	ebp
	mov	ebp, esp
	sub	esp, 8
	mov	DWORD PTR _this$[ebp], ecx

; 134  : 			return (float)Sqrt(x*x+y*y+z*z);

	mov	eax, DWORD PTR _this$[ebp]
	fld	DWORD PTR [eax]
	mov	ecx, DWORD PTR _this$[ebp]
	fmul	DWORD PTR [ecx]
	mov	edx, DWORD PTR _this$[ebp]
	fld	DWORD PTR [edx+4]
	mov	eax, DWORD PTR _this$[ebp]
	fmul	DWORD PTR [eax+4]
	faddp	ST(1), ST(0)
	mov	ecx, DWORD PTR _this$[ebp]
	fld	DWORD PTR [ecx+8]
	mov	edx, DWORD PTR _this$[ebp]
	fmul	DWORD PTR [edx+8]
	faddp	ST(1), ST(0)
	fstp	DWORD PTR tv88[ebp]
	fld	DWORD PTR tv88[ebp]
	push	ecx
	fstp	DWORD PTR [esp]
	call	?Sqrt@Ogre@@YAMM@Z			; Ogre::Sqrt
	add	esp, 4

; 135  : 		}

	mov	esp, ebp
	pop	ebp
	ret	0
?length@Vector3@Ogre@@QBEMXZ ENDP			; Ogre::Vector3::length
_TEXT	ENDS
PUBLIC	?sqrt@@YAMM@Z					; sqrt
; Function compile flags: /Odtp
; File i:\svnroot\client\ogremain\ogremath.h
;	COMDAT ?Sqrt@Ogre@@YAMM@Z
_TEXT	SEGMENT
_x$ = 8							; size = 4
?Sqrt@Ogre@@YAMM@Z PROC					; Ogre::Sqrt, COMDAT

; 59   : 	{

	push	ebp
	mov	ebp, esp

; 60   : 		return (float)sqrt(x);

	push	ecx
	fld	DWORD PTR _x$[ebp]
	fstp	DWORD PTR [esp]
	call	?sqrt@@YAMM@Z				; sqrt
	add	esp, 4

; 61   : 	}

	pop	ebp
	ret	0
?Sqrt@Ogre@@YAMM@Z ENDP					; Ogre::Sqrt
_TEXT	ENDS
PUBLIC	_sqrtf
; Function compile flags: /Odtp
; File d:\program files (x86)\microsoft visual studio 9.0\vc\include\math.h
;	COMDAT ?sqrt@@YAMM@Z
_TEXT	SEGMENT
__X$ = 8						; size = 4
?sqrt@@YAMM@Z PROC					; sqrt, COMDAT

; 534  :         {return (sqrtf(_X)); }

	push	ebp
	mov	ebp, esp
	push	ecx
	fld	DWORD PTR __X$[ebp]
	fstp	DWORD PTR [esp]
	call	_sqrtf
	add	esp, 4
	pop	ebp
	ret	0
?sqrt@@YAMM@Z ENDP					; sqrt
_TEXT	ENDS
EXTRN	_sqrt:PROC
; Function compile flags: /Odtp
;	COMDAT _sqrtf
_TEXT	SEGMENT
tv73 = -4						; size = 4
__X$ = 8						; size = 4
_sqrtf	PROC						; COMDAT

; 423  :         {return ((float)sqrt((double)_X)); }

	push	ebp
	mov	ebp, esp
	push	ecx
	fld	DWORD PTR __X$[ebp]
	sub	esp, 8
	fstp	QWORD PTR [esp]
	call	_sqrt
	add	esp, 8
	fstp	DWORD PTR tv73[ebp]
	fld	DWORD PTR tv73[ebp]
	mov	esp, ebp
	pop	ebp
	ret	0
_sqrtf	ENDP
_TEXT	ENDS
PUBLIC	?lengthSqr@Vector3@Ogre@@QBEMXZ			; Ogre::Vector3::lengthSqr
; Function compile flags: /Odtp
; File i:\svnroot\client\ogremain\ogrevector3.h
;	COMDAT ?lengthSqr@Vector3@Ogre@@QBEMXZ
_TEXT	SEGMENT
tv88 = -8						; size = 4
_this$ = -4						; size = 4
?lengthSqr@Vector3@Ogre@@QBEMXZ PROC			; Ogre::Vector3::lengthSqr, COMDAT
; _this$ = ecx

; 137  : 		{

	push	ebp
	mov	ebp, esp
	sub	esp, 8
	mov	DWORD PTR _this$[ebp], ecx

; 138  : 			return (x*x+y*y+z*z);

	mov	eax, DWORD PTR _this$[ebp]
	fld	DWORD PTR [eax]
	mov	ecx, DWORD PTR _this$[ebp]
	fmul	DWORD PTR [ecx]
	mov	edx, DWORD PTR _this$[ebp]
	fld	DWORD PTR [edx+4]
	mov	eax, DWORD PTR _this$[ebp]
	fmul	DWORD PTR [eax+4]
	faddp	ST(1), ST(0)
	mov	ecx, DWORD PTR _this$[ebp]
	fld	DWORD PTR [ecx+8]
	mov	edx, DWORD PTR _this$[ebp]
	fmul	DWORD PTR [edx+8]
	faddp	ST(1), ST(0)
	fstp	DWORD PTR tv88[ebp]
	fld	DWORD PTR tv88[ebp]

; 139  : 		}

	mov	esp, ebp
	pop	ebp
	ret	0
?lengthSqr@Vector3@Ogre@@QBEMXZ ENDP			; Ogre::Vector3::lengthSqr
_TEXT	ENDS
PUBLIC	??0WorldPos@Ogre@@QAE@XZ			; Ogre::WorldPos::WorldPos
; Function compile flags: /Odtp
; File i:\svnroot\client\ogremain\ogreworldpos.h
;	COMDAT ??0WorldPos@Ogre@@QAE@XZ
_TEXT	SEGMENT
_this$ = -4						; size = 4
??0WorldPos@Ogre@@QAE@XZ PROC				; Ogre::WorldPos::WorldPos, COMDAT
; _this$ = ecx

; 18   : 		WorldPos()

	push	ebp
	mov	ebp, esp
	push	ecx
	mov	DWORD PTR _this$[ebp], ecx

; 19   : 		{
; 20   : 		}

	mov	eax, DWORD PTR _this$[ebp]
	mov	esp, ebp
	pop	ebp
	ret	0
??0WorldPos@Ogre@@QAE@XZ ENDP				; Ogre::WorldPos::WorldPos
_TEXT	ENDS
PUBLIC	??0WorldPos@Ogre@@QAE@HHH@Z			; Ogre::WorldPos::WorldPos
; Function compile flags: /Odtp
;	COMDAT ??0WorldPos@Ogre@@QAE@HHH@Z
_TEXT	SEGMENT
_this$ = -4						; size = 4
__x$ = 8						; size = 4
__y$ = 12						; size = 4
__z$ = 16						; size = 4
??0WorldPos@Ogre@@QAE@HHH@Z PROC			; Ogre::WorldPos::WorldPos, COMDAT
; _this$ = ecx

; 23   : 		{

	push	ebp
	mov	ebp, esp
	push	ecx
	mov	DWORD PTR _this$[ebp], ecx
	mov	eax, DWORD PTR _this$[ebp]
	mov	ecx, DWORD PTR __x$[ebp]
	mov	DWORD PTR [eax], ecx
	mov	edx, DWORD PTR _this$[ebp]
	mov	eax, DWORD PTR __y$[ebp]
	mov	DWORD PTR [edx+4], eax
	mov	ecx, DWORD PTR _this$[ebp]
	mov	edx, DWORD PTR __z$[ebp]
	mov	DWORD PTR [ecx+8], edx

; 24   : 		}

	mov	eax, DWORD PTR _this$[ebp]
	mov	esp, ebp
	pop	ebp
	ret	12					; 0000000cH
??0WorldPos@Ogre@@QAE@HHH@Z ENDP			; Ogre::WorldPos::WorldPos
_TEXT	ENDS
PUBLIC	__real@4024000000000000
PUBLIC	??0WorldPos@Ogre@@QAE@ABVVector3@1@@Z		; Ogre::WorldPos::WorldPos
EXTRN	__ftol2_sse:PROC
;	COMDAT __real@4024000000000000
CONST	SEGMENT
__real@4024000000000000 DQ 04024000000000000r	; 10
; Function compile flags: /Odtp
CONST	ENDS
;	COMDAT ??0WorldPos@Ogre@@QAE@ABVVector3@1@@Z
_TEXT	SEGMENT
_this$ = -4						; size = 4
_vec$ = 8						; size = 4
??0WorldPos@Ogre@@QAE@ABVVector3@1@@Z PROC		; Ogre::WorldPos::WorldPos, COMDAT
; _this$ = ecx

; 26   : 		WorldPos( const Vector3 &vec )

	push	ebp
	mov	ebp, esp
	push	ecx
	mov	DWORD PTR _this$[ebp], ecx

; 27   : 		{
; 28   : 			x = (WPOS_T)(vec.x * UNIT);

	mov	eax, DWORD PTR _vec$[ebp]
	fld	DWORD PTR [eax]
	fmul	QWORD PTR __real@4024000000000000
	call	__ftol2_sse
	mov	ecx, DWORD PTR _this$[ebp]
	mov	DWORD PTR [ecx], eax

; 29   : 			y = (WPOS_T)(vec.y * UNIT);

	mov	edx, DWORD PTR _vec$[ebp]
	fld	DWORD PTR [edx+4]
	fmul	QWORD PTR __real@4024000000000000
	call	__ftol2_sse
	mov	ecx, DWORD PTR _this$[ebp]
	mov	DWORD PTR [ecx+4], eax

; 30   : 			z = (WPOS_T)(vec.z * UNIT);

	mov	edx, DWORD PTR _vec$[ebp]
	fld	DWORD PTR [edx+8]
	fmul	QWORD PTR __real@4024000000000000
	call	__ftol2_sse
	mov	ecx, DWORD PTR _this$[ebp]
	mov	DWORD PTR [ecx+8], eax

; 31   : 		}

	mov	eax, DWORD PTR _this$[ebp]
	mov	esp, ebp
	pop	ebp
	ret	4
??0WorldPos@Ogre@@QAE@ABVVector3@1@@Z ENDP		; Ogre::WorldPos::WorldPos
_TEXT	ENDS
PUBLIC	??4WorldPos@Ogre@@QAEABV01@ABVVector3@1@@Z	; Ogre::WorldPos::operator=
; Function compile flags: /Odtp
;	COMDAT ??4WorldPos@Ogre@@QAEABV01@ABVVector3@1@@Z
_TEXT	SEGMENT
_this$ = -4						; size = 4
_vec$ = 8						; size = 4
??4WorldPos@Ogre@@QAEABV01@ABVVector3@1@@Z PROC		; Ogre::WorldPos::operator=, COMDAT
; _this$ = ecx

; 34   : 		{

	push	ebp
	mov	ebp, esp
	push	ecx
	mov	DWORD PTR _this$[ebp], ecx

; 35   : 			x = (WPOS_T)(vec.x * UNIT);

	mov	eax, DWORD PTR _vec$[ebp]
	fld	DWORD PTR [eax]
	fmul	QWORD PTR __real@4024000000000000
	call	__ftol2_sse
	mov	ecx, DWORD PTR _this$[ebp]
	mov	DWORD PTR [ecx], eax

; 36   : 			y = (WPOS_T)(vec.y * UNIT);

	mov	edx, DWORD PTR _vec$[ebp]
	fld	DWORD PTR [edx+4]
	fmul	QWORD PTR __real@4024000000000000
	call	__ftol2_sse
	mov	ecx, DWORD PTR _this$[ebp]
	mov	DWORD PTR [ecx+4], eax

; 37   : 			z = (WPOS_T)(vec.z * UNIT);

	mov	edx, DWORD PTR _vec$[ebp]
	fld	DWORD PTR [edx+8]
	fmul	QWORD PTR __real@4024000000000000
	call	__ftol2_sse
	mov	ecx, DWORD PTR _this$[ebp]
	mov	DWORD PTR [ecx+8], eax

; 38   : 
; 39   : 			return *this;

	mov	eax, DWORD PTR _this$[ebp]

; 40   : 		}

	mov	esp, ebp
	pop	ebp
	ret	4
??4WorldPos@Ogre@@QAEABV01@ABVVector3@1@@Z ENDP		; Ogre::WorldPos::operator=
_TEXT	ENDS
PUBLIC	??YWorldPos@Ogre@@QAEABV01@ABVVector3@1@@Z	; Ogre::WorldPos::operator+=
; Function compile flags: /Odtp
;	COMDAT ??YWorldPos@Ogre@@QAEABV01@ABVVector3@1@@Z
_TEXT	SEGMENT
_this$ = -4						; size = 4
_vec$ = 8						; size = 4
??YWorldPos@Ogre@@QAEABV01@ABVVector3@1@@Z PROC		; Ogre::WorldPos::operator+=, COMDAT
; _this$ = ecx

; 43   : 		{

	push	ebp
	mov	ebp, esp
	push	ecx
	mov	DWORD PTR _this$[ebp], ecx

; 44   : 			x += (WPOS_T)(vec.x * UNIT);

	mov	eax, DWORD PTR _vec$[ebp]
	fld	DWORD PTR [eax]
	fmul	QWORD PTR __real@4024000000000000
	call	__ftol2_sse
	mov	ecx, DWORD PTR _this$[ebp]
	add	eax, DWORD PTR [ecx]
	mov	edx, DWORD PTR _this$[ebp]
	mov	DWORD PTR [edx], eax

; 45   : 			y += (WPOS_T)(vec.y * UNIT);

	mov	eax, DWORD PTR _vec$[ebp]
	fld	DWORD PTR [eax+4]
	fmul	QWORD PTR __real@4024000000000000
	call	__ftol2_sse
	mov	ecx, DWORD PTR _this$[ebp]
	add	eax, DWORD PTR [ecx+4]
	mov	edx, DWORD PTR _this$[ebp]
	mov	DWORD PTR [edx+4], eax

; 46   : 			z += (WPOS_T)(vec.z * UNIT);

	mov	eax, DWORD PTR _vec$[ebp]
	fld	DWORD PTR [eax+8]
	fmul	QWORD PTR __real@4024000000000000
	call	__ftol2_sse
	mov	ecx, DWORD PTR _this$[ebp]
	add	eax, DWORD PTR [ecx+8]
	mov	edx, DWORD PTR _this$[ebp]
	mov	DWORD PTR [edx+8], eax

; 47   : 
; 48   : 			return *this;

	mov	eax, DWORD PTR _this$[ebp]

; 49   : 		}

	mov	esp, ebp
	pop	ebp
	ret	4
??YWorldPos@Ogre@@QAEABV01@ABVVector3@1@@Z ENDP		; Ogre::WorldPos::operator+=
_TEXT	ENDS
PUBLIC	??YWorldPos@Ogre@@QAEABV01@ABV01@@Z		; Ogre::WorldPos::operator+=
; Function compile flags: /Odtp
;	COMDAT ??YWorldPos@Ogre@@QAEABV01@ABV01@@Z
_TEXT	SEGMENT
_this$ = -4						; size = 4
_pos$ = 8						; size = 4
??YWorldPos@Ogre@@QAEABV01@ABV01@@Z PROC		; Ogre::WorldPos::operator+=, COMDAT
; _this$ = ecx

; 52   : 		{

	push	ebp
	mov	ebp, esp
	push	ecx
	mov	DWORD PTR _this$[ebp], ecx

; 53   : 			x += pos.x;

	mov	eax, DWORD PTR _this$[ebp]
	mov	ecx, DWORD PTR [eax]
	mov	edx, DWORD PTR _pos$[ebp]
	add	ecx, DWORD PTR [edx]
	mov	eax, DWORD PTR _this$[ebp]
	mov	DWORD PTR [eax], ecx

; 54   : 			y += pos.y;

	mov	ecx, DWORD PTR _this$[ebp]
	mov	edx, DWORD PTR [ecx+4]
	mov	eax, DWORD PTR _pos$[ebp]
	add	edx, DWORD PTR [eax+4]
	mov	ecx, DWORD PTR _this$[ebp]
	mov	DWORD PTR [ecx+4], edx

; 55   : 			z += pos.z;

	mov	edx, DWORD PTR _this$[ebp]
	mov	eax, DWORD PTR [edx+8]
	mov	ecx, DWORD PTR _pos$[ebp]
	add	eax, DWORD PTR [ecx+8]
	mov	edx, DWORD PTR _this$[ebp]
	mov	DWORD PTR [edx+8], eax

; 56   : 
; 57   : 			return *this;

	mov	eax, DWORD PTR _this$[ebp]

; 58   : 		}

	mov	esp, ebp
	pop	ebp
	ret	4
??YWorldPos@Ogre@@QAEABV01@ABV01@@Z ENDP		; Ogre::WorldPos::operator+=
_TEXT	ENDS
PUBLIC	??ZWorldPos@Ogre@@QAEABV01@ABVVector3@1@@Z	; Ogre::WorldPos::operator-=
; Function compile flags: /Odtp
;	COMDAT ??ZWorldPos@Ogre@@QAEABV01@ABVVector3@1@@Z
_TEXT	SEGMENT
_this$ = -4						; size = 4
_vec$ = 8						; size = 4
??ZWorldPos@Ogre@@QAEABV01@ABVVector3@1@@Z PROC		; Ogre::WorldPos::operator-=, COMDAT
; _this$ = ecx

; 61   : 		{

	push	ebp
	mov	ebp, esp
	push	ecx
	mov	DWORD PTR _this$[ebp], ecx

; 62   : 			x -= (WPOS_T)(vec.x * UNIT);

	mov	eax, DWORD PTR _vec$[ebp]
	fld	DWORD PTR [eax]
	fmul	QWORD PTR __real@4024000000000000
	call	__ftol2_sse
	mov	ecx, DWORD PTR _this$[ebp]
	mov	edx, DWORD PTR [ecx]
	sub	edx, eax
	mov	eax, DWORD PTR _this$[ebp]
	mov	DWORD PTR [eax], edx

; 63   : 			y -= (WPOS_T)(vec.y * UNIT);

	mov	ecx, DWORD PTR _vec$[ebp]
	fld	DWORD PTR [ecx+4]
	fmul	QWORD PTR __real@4024000000000000
	call	__ftol2_sse
	mov	edx, DWORD PTR _this$[ebp]
	mov	ecx, DWORD PTR [edx+4]
	sub	ecx, eax
	mov	edx, DWORD PTR _this$[ebp]
	mov	DWORD PTR [edx+4], ecx

; 64   : 			z -= (WPOS_T)(vec.z * UNIT);

	mov	eax, DWORD PTR _vec$[ebp]
	fld	DWORD PTR [eax+8]
	fmul	QWORD PTR __real@4024000000000000
	call	__ftol2_sse
	mov	ecx, DWORD PTR _this$[ebp]
	mov	edx, DWORD PTR [ecx+8]
	sub	edx, eax
	mov	eax, DWORD PTR _this$[ebp]
	mov	DWORD PTR [eax+8], edx

; 65   : 
; 66   : 			return *this;

	mov	eax, DWORD PTR _this$[ebp]

; 67   : 		}

	mov	esp, ebp
	pop	ebp
	ret	4
??ZWorldPos@Ogre@@QAEABV01@ABVVector3@1@@Z ENDP		; Ogre::WorldPos::operator-=
_TEXT	ENDS
PUBLIC	??ZWorldPos@Ogre@@QAEABV01@ABV01@@Z		; Ogre::WorldPos::operator-=
; Function compile flags: /Odtp
;	COMDAT ??ZWorldPos@Ogre@@QAEABV01@ABV01@@Z
_TEXT	SEGMENT
_this$ = -4						; size = 4
_pos$ = 8						; size = 4
??ZWorldPos@Ogre@@QAEABV01@ABV01@@Z PROC		; Ogre::WorldPos::operator-=, COMDAT
; _this$ = ecx

; 70   : 		{

	push	ebp
	mov	ebp, esp
	push	ecx
	mov	DWORD PTR _this$[ebp], ecx

; 71   : 			x -= pos.x;

	mov	eax, DWORD PTR _this$[ebp]
	mov	ecx, DWORD PTR _pos$[ebp]
	mov	edx, DWORD PTR [eax]
	sub	edx, DWORD PTR [ecx]
	mov	eax, DWORD PTR _this$[ebp]
	mov	DWORD PTR [eax], edx

; 72   : 			y -= pos.y;

	mov	ecx, DWORD PTR _this$[ebp]
	mov	edx, DWORD PTR _pos$[ebp]
	mov	eax, DWORD PTR [ecx+4]
	sub	eax, DWORD PTR [edx+4]
	mov	ecx, DWORD PTR _this$[ebp]
	mov	DWORD PTR [ecx+4], eax

; 73   : 			z -= pos.z;

	mov	edx, DWORD PTR _this$[ebp]
	mov	eax, DWORD PTR _pos$[ebp]
	mov	ecx, DWORD PTR [edx+8]
	sub	ecx, DWORD PTR [eax+8]
	mov	edx, DWORD PTR _this$[ebp]
	mov	DWORD PTR [edx+8], ecx

; 74   : 
; 75   : 			return *this;

	mov	eax, DWORD PTR _this$[ebp]

; 76   : 		}

	mov	esp, ebp
	pop	ebp
	ret	4
??ZWorldPos@Ogre@@QAEABV01@ABV01@@Z ENDP		; Ogre::WorldPos::operator-=
_TEXT	ENDS
PUBLIC	??HWorldPos@Ogre@@QBE?AV01@ABV01@@Z		; Ogre::WorldPos::operator+
; Function compile flags: /Odtp
;	COMDAT ??HWorldPos@Ogre@@QBE?AV01@ABV01@@Z
_TEXT	SEGMENT
_this$ = -4						; size = 4
___$ReturnUdt$ = 8					; size = 4
_pos$ = 12						; size = 4
??HWorldPos@Ogre@@QBE?AV01@ABV01@@Z PROC		; Ogre::WorldPos::operator+, COMDAT
; _this$ = ecx

; 79   : 		{

	push	ebp
	mov	ebp, esp
	push	ecx
	mov	DWORD PTR _this$[ebp], ecx

; 80   : 			return WorldPos(x+pos.x, y+pos.y, z+pos.z);

	mov	eax, DWORD PTR _this$[ebp]
	mov	ecx, DWORD PTR [eax+8]
	mov	edx, DWORD PTR _pos$[ebp]
	add	ecx, DWORD PTR [edx+8]
	push	ecx
	mov	eax, DWORD PTR _this$[ebp]
	mov	ecx, DWORD PTR [eax+4]
	mov	edx, DWORD PTR _pos$[ebp]
	add	ecx, DWORD PTR [edx+4]
	push	ecx
	mov	eax, DWORD PTR _this$[ebp]
	mov	ecx, DWORD PTR [eax]
	mov	edx, DWORD PTR _pos$[ebp]
	add	ecx, DWORD PTR [edx]
	push	ecx
	mov	ecx, DWORD PTR ___$ReturnUdt$[ebp]
	call	??0WorldPos@Ogre@@QAE@HHH@Z		; Ogre::WorldPos::WorldPos
	mov	eax, DWORD PTR ___$ReturnUdt$[ebp]

; 81   : 		}

	mov	esp, ebp
	pop	ebp
	ret	8
??HWorldPos@Ogre@@QBE?AV01@ABV01@@Z ENDP		; Ogre::WorldPos::operator+
_TEXT	ENDS
PUBLIC	??GWorldPos@Ogre@@QBE?AV01@ABV01@@Z		; Ogre::WorldPos::operator-
; Function compile flags: /Odtp
;	COMDAT ??GWorldPos@Ogre@@QBE?AV01@ABV01@@Z
_TEXT	SEGMENT
_this$ = -4						; size = 4
___$ReturnUdt$ = 8					; size = 4
_pos$ = 12						; size = 4
??GWorldPos@Ogre@@QBE?AV01@ABV01@@Z PROC		; Ogre::WorldPos::operator-, COMDAT
; _this$ = ecx

; 84   : 		{

	push	ebp
	mov	ebp, esp
	push	ecx
	mov	DWORD PTR _this$[ebp], ecx

; 85   : 			return WorldPos(x-pos.x, y-pos.y, z-pos.z);

	mov	eax, DWORD PTR _this$[ebp]
	mov	ecx, DWORD PTR _pos$[ebp]
	mov	edx, DWORD PTR [eax+8]
	sub	edx, DWORD PTR [ecx+8]
	push	edx
	mov	eax, DWORD PTR _this$[ebp]
	mov	ecx, DWORD PTR _pos$[ebp]
	mov	edx, DWORD PTR [eax+4]
	sub	edx, DWORD PTR [ecx+4]
	push	edx
	mov	eax, DWORD PTR _this$[ebp]
	mov	ecx, DWORD PTR _pos$[ebp]
	mov	edx, DWORD PTR [eax]
	sub	edx, DWORD PTR [ecx]
	push	edx
	mov	ecx, DWORD PTR ___$ReturnUdt$[ebp]
	call	??0WorldPos@Ogre@@QAE@HHH@Z		; Ogre::WorldPos::WorldPos
	mov	eax, DWORD PTR ___$ReturnUdt$[ebp]

; 86   : 		}

	mov	esp, ebp
	pop	ebp
	ret	8
??GWorldPos@Ogre@@QBE?AV01@ABV01@@Z ENDP		; Ogre::WorldPos::operator-
_TEXT	ENDS
PUBLIC	??HWorldPos@Ogre@@QBE?AV01@ABVVector3@1@@Z	; Ogre::WorldPos::operator+
; Function compile flags: /Odtp
;	COMDAT ??HWorldPos@Ogre@@QBE?AV01@ABVVector3@1@@Z
_TEXT	SEGMENT
_this$ = -4						; size = 4
___$ReturnUdt$ = 8					; size = 4
_pos$ = 12						; size = 4
??HWorldPos@Ogre@@QBE?AV01@ABVVector3@1@@Z PROC		; Ogre::WorldPos::operator+, COMDAT
; _this$ = ecx

; 89   : 		{

	push	ebp
	mov	ebp, esp
	push	ecx
	mov	DWORD PTR _this$[ebp], ecx

; 90   : 			return WorldPos(x+(WPOS_T)(pos.x*UNIT), y+(WPOS_T)(pos.y*UNIT), z+(WPOS_T)(pos.z*UNIT));

	mov	eax, DWORD PTR _pos$[ebp]
	fld	DWORD PTR [eax+8]
	fmul	QWORD PTR __real@4024000000000000
	call	__ftol2_sse
	mov	ecx, DWORD PTR _this$[ebp]
	add	eax, DWORD PTR [ecx+8]
	push	eax
	mov	edx, DWORD PTR _pos$[ebp]
	fld	DWORD PTR [edx+4]
	fmul	QWORD PTR __real@4024000000000000
	call	__ftol2_sse
	mov	ecx, DWORD PTR _this$[ebp]
	add	eax, DWORD PTR [ecx+4]
	push	eax
	mov	edx, DWORD PTR _pos$[ebp]
	fld	DWORD PTR [edx]
	fmul	QWORD PTR __real@4024000000000000
	call	__ftol2_sse
	mov	ecx, DWORD PTR _this$[ebp]
	add	eax, DWORD PTR [ecx]
	push	eax
	mov	ecx, DWORD PTR ___$ReturnUdt$[ebp]
	call	??0WorldPos@Ogre@@QAE@HHH@Z		; Ogre::WorldPos::WorldPos
	mov	eax, DWORD PTR ___$ReturnUdt$[ebp]

; 91   : 		}

	mov	esp, ebp
	pop	ebp
	ret	8
??HWorldPos@Ogre@@QBE?AV01@ABVVector3@1@@Z ENDP		; Ogre::WorldPos::operator+
_TEXT	ENDS
PUBLIC	??GWorldPos@Ogre@@QBE?AV01@ABVVector3@1@@Z	; Ogre::WorldPos::operator-
; Function compile flags: /Odtp
;	COMDAT ??GWorldPos@Ogre@@QBE?AV01@ABVVector3@1@@Z
_TEXT	SEGMENT
_this$ = -4						; size = 4
___$ReturnUdt$ = 8					; size = 4
_pos$ = 12						; size = 4
??GWorldPos@Ogre@@QBE?AV01@ABVVector3@1@@Z PROC		; Ogre::WorldPos::operator-, COMDAT
; _this$ = ecx

; 94   : 		{

	push	ebp
	mov	ebp, esp
	push	ecx
	mov	DWORD PTR _this$[ebp], ecx

; 95   : 			return WorldPos(x-(WPOS_T)(pos.x*UNIT), y-(WPOS_T)(pos.y*UNIT), z-(WPOS_T)(pos.z*UNIT));

	mov	eax, DWORD PTR _pos$[ebp]
	fld	DWORD PTR [eax+8]
	fmul	QWORD PTR __real@4024000000000000
	call	__ftol2_sse
	mov	ecx, DWORD PTR _this$[ebp]
	mov	edx, DWORD PTR [ecx+8]
	sub	edx, eax
	push	edx
	mov	eax, DWORD PTR _pos$[ebp]
	fld	DWORD PTR [eax+4]
	fmul	QWORD PTR __real@4024000000000000
	call	__ftol2_sse
	mov	ecx, DWORD PTR _this$[ebp]
	mov	edx, DWORD PTR [ecx+4]
	sub	edx, eax
	push	edx
	mov	eax, DWORD PTR _pos$[ebp]
	fld	DWORD PTR [eax]
	fmul	QWORD PTR __real@4024000000000000
	call	__ftol2_sse
	mov	ecx, DWORD PTR _this$[ebp]
	mov	edx, DWORD PTR [ecx]
	sub	edx, eax
	push	edx
	mov	ecx, DWORD PTR ___$ReturnUdt$[ebp]
	call	??0WorldPos@Ogre@@QAE@HHH@Z		; Ogre::WorldPos::WorldPos
	mov	eax, DWORD PTR ___$ReturnUdt$[ebp]

; 96   : 		}

	mov	esp, ebp
	pop	ebp
	ret	8
??GWorldPos@Ogre@@QBE?AV01@ABVVector3@1@@Z ENDP		; Ogre::WorldPos::operator-
_TEXT	ENDS
PUBLIC	??DWorldPos@Ogre@@QBE?AV01@H@Z			; Ogre::WorldPos::operator*
; Function compile flags: /Odtp
;	COMDAT ??DWorldPos@Ogre@@QBE?AV01@H@Z
_TEXT	SEGMENT
_this$ = -4						; size = 4
___$ReturnUdt$ = 8					; size = 4
_s$ = 12						; size = 4
??DWorldPos@Ogre@@QBE?AV01@H@Z PROC			; Ogre::WorldPos::operator*, COMDAT
; _this$ = ecx

; 99   : 		{

	push	ebp
	mov	ebp, esp
	push	ecx
	mov	DWORD PTR _this$[ebp], ecx

; 100  : 			return WorldPos((WPOS_T)(x*s), (WPOS_T)(y*s), (WPOS_T)(z*s));

	mov	eax, DWORD PTR _this$[ebp]
	mov	ecx, DWORD PTR [eax+8]
	imul	ecx, DWORD PTR _s$[ebp]
	push	ecx
	mov	edx, DWORD PTR _this$[ebp]
	mov	eax, DWORD PTR [edx+4]
	imul	eax, DWORD PTR _s$[ebp]
	push	eax
	mov	ecx, DWORD PTR _this$[ebp]
	mov	edx, DWORD PTR [ecx]
	imul	edx, DWORD PTR _s$[ebp]
	push	edx
	mov	ecx, DWORD PTR ___$ReturnUdt$[ebp]
	call	??0WorldPos@Ogre@@QAE@HHH@Z		; Ogre::WorldPos::WorldPos
	mov	eax, DWORD PTR ___$ReturnUdt$[ebp]

; 101  : 		}

	mov	esp, ebp
	pop	ebp
	ret	8
??DWorldPos@Ogre@@QBE?AV01@H@Z ENDP			; Ogre::WorldPos::operator*
_TEXT	ENDS
PUBLIC	??DWorldPos@Ogre@@QBE?AV01@M@Z			; Ogre::WorldPos::operator*
; Function compile flags: /Odtp
;	COMDAT ??DWorldPos@Ogre@@QBE?AV01@M@Z
_TEXT	SEGMENT
_this$ = -4						; size = 4
___$ReturnUdt$ = 8					; size = 4
_s$ = 12						; size = 4
??DWorldPos@Ogre@@QBE?AV01@M@Z PROC			; Ogre::WorldPos::operator*, COMDAT
; _this$ = ecx

; 104  : 		{

	push	ebp
	mov	ebp, esp
	push	ecx
	mov	DWORD PTR _this$[ebp], ecx

; 105  : 			return WorldPos((WPOS_T)(x*s), (WPOS_T)(y*s), (WPOS_T)(z*s));

	mov	eax, DWORD PTR _this$[ebp]
	fild	DWORD PTR [eax+8]
	fmul	DWORD PTR _s$[ebp]
	call	__ftol2_sse
	push	eax
	mov	ecx, DWORD PTR _this$[ebp]
	fild	DWORD PTR [ecx+4]
	fmul	DWORD PTR _s$[ebp]
	call	__ftol2_sse
	push	eax
	mov	edx, DWORD PTR _this$[ebp]
	fild	DWORD PTR [edx]
	fmul	DWORD PTR _s$[ebp]
	call	__ftol2_sse
	push	eax
	mov	ecx, DWORD PTR ___$ReturnUdt$[ebp]
	call	??0WorldPos@Ogre@@QAE@HHH@Z		; Ogre::WorldPos::WorldPos
	mov	eax, DWORD PTR ___$ReturnUdt$[ebp]

; 106  : 		}

	mov	esp, ebp
	pop	ebp
	ret	8
??DWorldPos@Ogre@@QBE?AV01@M@Z ENDP			; Ogre::WorldPos::operator*
_TEXT	ENDS
PUBLIC	??KWorldPos@Ogre@@QBE?AV01@H@Z			; Ogre::WorldPos::operator/
; Function compile flags: /Odtp
;	COMDAT ??KWorldPos@Ogre@@QBE?AV01@H@Z
_TEXT	SEGMENT
_this$ = -4						; size = 4
___$ReturnUdt$ = 8					; size = 4
_s$ = 12						; size = 4
??KWorldPos@Ogre@@QBE?AV01@H@Z PROC			; Ogre::WorldPos::operator/, COMDAT
; _this$ = ecx

; 109  : 		{

	push	ebp
	mov	ebp, esp
	push	ecx
	mov	DWORD PTR _this$[ebp], ecx

; 110  : 			return WorldPos((WPOS_T)(x/s), (WPOS_T)(y/s), (WPOS_T)(z/s));

	mov	eax, DWORD PTR _this$[ebp]
	mov	eax, DWORD PTR [eax+8]
	cdq
	idiv	DWORD PTR _s$[ebp]
	push	eax
	mov	ecx, DWORD PTR _this$[ebp]
	mov	eax, DWORD PTR [ecx+4]
	cdq
	idiv	DWORD PTR _s$[ebp]
	push	eax
	mov	edx, DWORD PTR _this$[ebp]
	mov	eax, DWORD PTR [edx]
	cdq
	idiv	DWORD PTR _s$[ebp]
	push	eax
	mov	ecx, DWORD PTR ___$ReturnUdt$[ebp]
	call	??0WorldPos@Ogre@@QAE@HHH@Z		; Ogre::WorldPos::WorldPos
	mov	eax, DWORD PTR ___$ReturnUdt$[ebp]

; 111  : 		}

	mov	esp, ebp
	pop	ebp
	ret	8
??KWorldPos@Ogre@@QBE?AV01@H@Z ENDP			; Ogre::WorldPos::operator/
_TEXT	ENDS
PUBLIC	??8WorldPos@Ogre@@QBE_NABV01@@Z			; Ogre::WorldPos::operator==
; Function compile flags: /Odtp
;	COMDAT ??8WorldPos@Ogre@@QBE_NABV01@@Z
_TEXT	SEGMENT
tv71 = -8						; size = 4
_this$ = -4						; size = 4
_rhs$ = 8						; size = 4
??8WorldPos@Ogre@@QBE_NABV01@@Z PROC			; Ogre::WorldPos::operator==, COMDAT
; _this$ = ecx

; 114  : 		{

	push	ebp
	mov	ebp, esp
	sub	esp, 8
	mov	DWORD PTR _this$[ebp], ecx

; 115  : 			return x==rhs.x && y==rhs.y && z==rhs.z;

	mov	eax, DWORD PTR _this$[ebp]
	mov	ecx, DWORD PTR _rhs$[ebp]
	mov	edx, DWORD PTR [eax]
	cmp	edx, DWORD PTR [ecx]
	jne	SHORT $LN3@operator@2
	mov	eax, DWORD PTR _this$[ebp]
	mov	ecx, DWORD PTR _rhs$[ebp]
	mov	edx, DWORD PTR [eax+4]
	cmp	edx, DWORD PTR [ecx+4]
	jne	SHORT $LN3@operator@2
	mov	eax, DWORD PTR _this$[ebp]
	mov	ecx, DWORD PTR _rhs$[ebp]
	mov	edx, DWORD PTR [eax+8]
	cmp	edx, DWORD PTR [ecx+8]
	jne	SHORT $LN3@operator@2
	mov	DWORD PTR tv71[ebp], 1
	jmp	SHORT $LN4@operator@2
$LN3@operator@2:
	mov	DWORD PTR tv71[ebp], 0
$LN4@operator@2:
	mov	al, BYTE PTR tv71[ebp]

; 116  : 		}

	mov	esp, ebp
	pop	ebp
	ret	4
??8WorldPos@Ogre@@QBE_NABV01@@Z ENDP			; Ogre::WorldPos::operator==
_TEXT	ENDS
PUBLIC	??9WorldPos@Ogre@@QBE_NABV01@@Z			; Ogre::WorldPos::operator!=
; Function compile flags: /Odtp
;	COMDAT ??9WorldPos@Ogre@@QBE_NABV01@@Z
_TEXT	SEGMENT
tv71 = -8						; size = 4
_this$ = -4						; size = 4
_rhs$ = 8						; size = 4
??9WorldPos@Ogre@@QBE_NABV01@@Z PROC			; Ogre::WorldPos::operator!=, COMDAT
; _this$ = ecx

; 119  : 		{

	push	ebp
	mov	ebp, esp
	sub	esp, 8
	mov	DWORD PTR _this$[ebp], ecx

; 120  : 			return x!=rhs.x || y!=rhs.y || z!=rhs.z;

	mov	eax, DWORD PTR _this$[ebp]
	mov	ecx, DWORD PTR _rhs$[ebp]
	mov	edx, DWORD PTR [eax]
	cmp	edx, DWORD PTR [ecx]
	jne	SHORT $LN3@operator@3
	mov	eax, DWORD PTR _this$[ebp]
	mov	ecx, DWORD PTR _rhs$[ebp]
	mov	edx, DWORD PTR [eax+4]
	cmp	edx, DWORD PTR [ecx+4]
	jne	SHORT $LN3@operator@3
	mov	eax, DWORD PTR _this$[ebp]
	mov	ecx, DWORD PTR _rhs$[ebp]
	mov	edx, DWORD PTR [eax+8]
	cmp	edx, DWORD PTR [ecx+8]
	jne	SHORT $LN3@operator@3
	mov	DWORD PTR tv71[ebp], 0
	jmp	SHORT $LN4@operator@3
$LN3@operator@3:
	mov	DWORD PTR tv71[ebp], 1
$LN4@operator@3:
	mov	al, BYTE PTR tv71[ebp]

; 121  : 		}

	mov	esp, ebp
	pop	ebp
	ret	4
??9WorldPos@Ogre@@QBE_NABV01@@Z ENDP			; Ogre::WorldPos::operator!=
_TEXT	ENDS
PUBLIC	?inverse@WorldPos@Ogre@@QAEXXZ			; Ogre::WorldPos::inverse
; Function compile flags: /Odtp
;	COMDAT ?inverse@WorldPos@Ogre@@QAEXXZ
_TEXT	SEGMENT
_this$ = -4						; size = 4
?inverse@WorldPos@Ogre@@QAEXXZ PROC			; Ogre::WorldPos::inverse, COMDAT
; _this$ = ecx

; 124  : 		{

	push	ebp
	mov	ebp, esp
	push	ecx
	mov	DWORD PTR _this$[ebp], ecx

; 125  : 			x = -x;

	mov	eax, DWORD PTR _this$[ebp]
	mov	ecx, DWORD PTR [eax]
	neg	ecx
	mov	edx, DWORD PTR _this$[ebp]
	mov	DWORD PTR [edx], ecx

; 126  : 			y = -y;

	mov	eax, DWORD PTR _this$[ebp]
	mov	ecx, DWORD PTR [eax+4]
	neg	ecx
	mov	edx, DWORD PTR _this$[ebp]
	mov	DWORD PTR [edx+4], ecx

; 127  : 			z = -z;

	mov	eax, DWORD PTR _this$[ebp]
	mov	ecx, DWORD PTR [eax+8]
	neg	ecx
	mov	edx, DWORD PTR _this$[ebp]
	mov	DWORD PTR [edx+8], ecx

; 128  : 		}

	mov	esp, ebp
	pop	ebp
	ret	0
?inverse@WorldPos@Ogre@@QAEXXZ ENDP			; Ogre::WorldPos::inverse
_TEXT	ENDS
PUBLIC	?normalize@WorldPos@Ogre@@QBE?AVVector3@2@XZ	; Ogre::WorldPos::normalize
; Function compile flags: /Odtp
;	COMDAT ?normalize@WorldPos@Ogre@@QBE?AVVector3@2@XZ
_TEXT	SEGMENT
tv133 = -48						; size = 4
tv131 = -44						; size = 4
tv129 = -40						; size = 4
_this$ = -36						; size = 4
_fy$ = -32						; size = 8
_fz$ = -24						; size = 8
_len$ = -16						; size = 8
_fx$ = -8						; size = 8
___$ReturnUdt$ = 8					; size = 4
?normalize@WorldPos@Ogre@@QBE?AVVector3@2@XZ PROC	; Ogre::WorldPos::normalize, COMDAT
; _this$ = ecx

; 131  : 		{

	push	ebp
	mov	ebp, esp
	sub	esp, 48					; 00000030H
	mov	DWORD PTR _this$[ebp], ecx

; 132  : 			double fx = double(x);

	mov	eax, DWORD PTR _this$[ebp]
	fild	DWORD PTR [eax]
	fstp	QWORD PTR _fx$[ebp]

; 133  : 			double fy = double(y);

	mov	ecx, DWORD PTR _this$[ebp]
	fild	DWORD PTR [ecx+4]
	fstp	QWORD PTR _fy$[ebp]

; 134  : 			double fz = double(z);

	mov	edx, DWORD PTR _this$[ebp]
	fild	DWORD PTR [edx+8]
	fstp	QWORD PTR _fz$[ebp]

; 135  : 			double len = sqrt( fx*fx + fy*fy + fz*fz );

	fld	QWORD PTR _fx$[ebp]
	fmul	QWORD PTR _fx$[ebp]
	fld	QWORD PTR _fy$[ebp]
	fmul	QWORD PTR _fy$[ebp]
	faddp	ST(1), ST(0)
	fld	QWORD PTR _fz$[ebp]
	fmul	QWORD PTR _fz$[ebp]
	faddp	ST(1), ST(0)
	sub	esp, 8
	fstp	QWORD PTR [esp]
	call	_sqrt
	add	esp, 8
	fstp	QWORD PTR _len$[ebp]

; 136  : 
; 137  : 			return Vector3( float(fx/len), float(fy/len), float(fz/len) );

	fld	QWORD PTR _fz$[ebp]
	fdiv	QWORD PTR _len$[ebp]
	fstp	DWORD PTR tv129[ebp]
	fld	DWORD PTR tv129[ebp]
	push	ecx
	fstp	DWORD PTR [esp]
	fld	QWORD PTR _fy$[ebp]
	fdiv	QWORD PTR _len$[ebp]
	fstp	DWORD PTR tv131[ebp]
	fld	DWORD PTR tv131[ebp]
	push	ecx
	fstp	DWORD PTR [esp]
	fld	QWORD PTR _fx$[ebp]
	fdiv	QWORD PTR _len$[ebp]
	fstp	DWORD PTR tv133[ebp]
	fld	DWORD PTR tv133[ebp]
	push	ecx
	fstp	DWORD PTR [esp]
	mov	ecx, DWORD PTR ___$ReturnUdt$[ebp]
	call	??0Vector3@Ogre@@QAE@MMM@Z		; Ogre::Vector3::Vector3
	mov	eax, DWORD PTR ___$ReturnUdt$[ebp]

; 138  : 		}

	mov	esp, ebp
	pop	ebp
	ret	4
?normalize@WorldPos@Ogre@@QBE?AVVector3@2@XZ ENDP	; Ogre::WorldPos::normalize
_TEXT	ENDS
PUBLIC	?subtract@WorldPos@Ogre@@QBE?AVVector3@2@ABV12@@Z ; Ogre::WorldPos::subtract
PUBLIC	?toVector3@WorldPos@Ogre@@QBE?AVVector3@2@XZ	; Ogre::WorldPos::toVector3
EXTRN	?m_Origin@WorldPos@Ogre@@2V12@A:BYTE		; Ogre::WorldPos::m_Origin
; Function compile flags: /Odtp
;	COMDAT ?toVector3@WorldPos@Ogre@@QBE?AVVector3@2@XZ
_TEXT	SEGMENT
_this$ = -4						; size = 4
___$ReturnUdt$ = 8					; size = 4
?toVector3@WorldPos@Ogre@@QBE?AVVector3@2@XZ PROC	; Ogre::WorldPos::toVector3, COMDAT
; _this$ = ecx

; 141  : 		{

	push	ebp
	mov	ebp, esp
	push	ecx
	mov	DWORD PTR _this$[ebp], ecx

; 142  : 			return subtract(m_Origin);

	push	OFFSET ?m_Origin@WorldPos@Ogre@@2V12@A	; Ogre::WorldPos::m_Origin
	mov	eax, DWORD PTR ___$ReturnUdt$[ebp]
	push	eax
	mov	ecx, DWORD PTR _this$[ebp]
	call	?subtract@WorldPos@Ogre@@QBE?AVVector3@2@ABV12@@Z ; Ogre::WorldPos::subtract
	mov	eax, DWORD PTR ___$ReturnUdt$[ebp]

; 143  : 		}

	mov	esp, ebp
	pop	ebp
	ret	4
?toVector3@WorldPos@Ogre@@QBE?AVVector3@2@XZ ENDP	; Ogre::WorldPos::toVector3
; Function compile flags: /Odtp
_TEXT	ENDS
;	COMDAT ?subtract@WorldPos@Ogre@@QBE?AVVector3@2@ABV12@@Z
_TEXT	SEGMENT
tv130 = -28						; size = 4
tv129 = -24						; size = 4
tv93 = -20						; size = 4
tv92 = -16						; size = 4
tv88 = -12						; size = 4
tv87 = -8						; size = 4
_this$ = -4						; size = 4
___$ReturnUdt$ = 8					; size = 4
_pos$ = 12						; size = 4
?subtract@WorldPos@Ogre@@QBE?AVVector3@2@ABV12@@Z PROC	; Ogre::WorldPos::subtract, COMDAT
; _this$ = ecx

; 146  : 		{

	push	ebp
	mov	ebp, esp
	sub	esp, 28					; 0000001cH
	mov	DWORD PTR _this$[ebp], ecx

; 147  : 			return Vector3( float(double(x-pos.x)/UNIT), float(double(y-pos.y)/UNIT), float(double(z-pos.z)/UNIT) );

	mov	eax, DWORD PTR _this$[ebp]
	mov	ecx, DWORD PTR _pos$[ebp]
	mov	edx, DWORD PTR [eax+8]
	sub	edx, DWORD PTR [ecx+8]
	mov	DWORD PTR tv87[ebp], edx
	fild	DWORD PTR tv87[ebp]
	fdiv	QWORD PTR __real@4024000000000000
	fstp	DWORD PTR tv88[ebp]
	fld	DWORD PTR tv88[ebp]
	push	ecx
	fstp	DWORD PTR [esp]
	mov	eax, DWORD PTR _this$[ebp]
	mov	ecx, DWORD PTR _pos$[ebp]
	mov	edx, DWORD PTR [eax+4]
	sub	edx, DWORD PTR [ecx+4]
	mov	DWORD PTR tv92[ebp], edx
	fild	DWORD PTR tv92[ebp]
	fdiv	QWORD PTR __real@4024000000000000
	fstp	DWORD PTR tv93[ebp]
	fld	DWORD PTR tv93[ebp]
	push	ecx
	fstp	DWORD PTR [esp]
	mov	eax, DWORD PTR _this$[ebp]
	mov	ecx, DWORD PTR _pos$[ebp]
	mov	edx, DWORD PTR [eax]
	sub	edx, DWORD PTR [ecx]
	mov	DWORD PTR tv129[ebp], edx
	fild	DWORD PTR tv129[ebp]
	fdiv	QWORD PTR __real@4024000000000000
	fstp	DWORD PTR tv130[ebp]
	fld	DWORD PTR tv130[ebp]
	push	ecx
	fstp	DWORD PTR [esp]
	mov	ecx, DWORD PTR ___$ReturnUdt$[ebp]
	call	??0Vector3@Ogre@@QAE@MMM@Z		; Ogre::Vector3::Vector3
	mov	eax, DWORD PTR ___$ReturnUdt$[ebp]

; 148  : 		}

	mov	esp, ebp
	pop	ebp
	ret	8
?subtract@WorldPos@Ogre@@QBE?AVVector3@2@ABV12@@Z ENDP	; Ogre::WorldPos::subtract
_TEXT	ENDS
PUBLIC	?Flt2Fix@WorldPos@Ogre@@SAHM@Z			; Ogre::WorldPos::Flt2Fix
; Function compile flags: /Odtp
;	COMDAT ?Flt2Fix@WorldPos@Ogre@@SAHM@Z
_TEXT	SEGMENT
_x$ = 8							; size = 4
?Flt2Fix@WorldPos@Ogre@@SAHM@Z PROC			; Ogre::WorldPos::Flt2Fix, COMDAT

; 151  : 		{

	push	ebp
	mov	ebp, esp

; 152  : 			return (WPOS_T)(x*UNIT);

	fld	DWORD PTR _x$[ebp]
	fmul	QWORD PTR __real@4024000000000000
	call	__ftol2_sse

; 153  : 		}

	pop	ebp
	ret	0
?Flt2Fix@WorldPos@Ogre@@SAHM@Z ENDP			; Ogre::WorldPos::Flt2Fix
_TEXT	ENDS
PUBLIC	?Fix2Flt@WorldPos@Ogre@@SAMH@Z			; Ogre::WorldPos::Fix2Flt
; Function compile flags: /Odtp
;	COMDAT ?Fix2Flt@WorldPos@Ogre@@SAMH@Z
_TEXT	SEGMENT
tv67 = -4						; size = 4
_x$ = 8							; size = 4
?Fix2Flt@WorldPos@Ogre@@SAMH@Z PROC			; Ogre::WorldPos::Fix2Flt, COMDAT

; 156  : 		{

	push	ebp
	mov	ebp, esp
	push	ecx

; 157  : 			return float(double(x)/UNIT);

	fild	DWORD PTR _x$[ebp]
	fdiv	QWORD PTR __real@4024000000000000
	fstp	DWORD PTR tv67[ebp]
	fld	DWORD PTR tv67[ebp]

; 158  : 		}

	mov	esp, ebp
	pop	ebp
	ret	0
?Fix2Flt@WorldPos@Ogre@@SAMH@Z ENDP			; Ogre::WorldPos::Fix2Flt
_TEXT	ENDS
PUBLIC	??4WorldPos@Ogre@@QAEAAV01@ABV01@@Z		; Ogre::WorldPos::operator=
; Function compile flags: /Odtp
;	COMDAT ??4WorldPos@Ogre@@QAEAAV01@ABV01@@Z
_TEXT	SEGMENT
_this$ = -4						; size = 4
___that$ = 8						; size = 4
??4WorldPos@Ogre@@QAEAAV01@ABV01@@Z PROC		; Ogre::WorldPos::operator=, COMDAT
; _this$ = ecx
	push	ebp
	mov	ebp, esp
	push	ecx
	mov	DWORD PTR _this$[ebp], ecx
	mov	eax, DWORD PTR ___that$[ebp]
	mov	ecx, DWORD PTR _this$[ebp]
	mov	edx, DWORD PTR [eax]
	mov	DWORD PTR [ecx], edx
	mov	edx, DWORD PTR [eax+4]
	mov	DWORD PTR [ecx+4], edx
	mov	eax, DWORD PTR [eax+8]
	mov	DWORD PTR [ecx+8], eax
	mov	eax, DWORD PTR _this$[ebp]
	mov	esp, ebp
	pop	ebp
	ret	4
??4WorldPos@Ogre@@QAEAAV01@ABV01@@Z ENDP		; Ogre::WorldPos::operator=
_TEXT	ENDS
PUBLIC	__real@3f800000
PUBLIC	__real@00000000
PUBLIC	??0Quaternion@Ogre@@QAE@XZ			; Ogre::Quaternion::Quaternion
;	COMDAT __real@3f800000
; File i:\svnroot\client\ogremain\ogrequaternion.h
CONST	SEGMENT
__real@3f800000 DD 03f800000r			; 1
CONST	ENDS
;	COMDAT __real@00000000
CONST	SEGMENT
__real@00000000 DD 000000000r			; 0
; Function compile flags: /Odtp
CONST	ENDS
;	COMDAT ??0Quaternion@Ogre@@QAE@XZ
_TEXT	SEGMENT
_this$ = -4						; size = 4
??0Quaternion@Ogre@@QAE@XZ PROC				; Ogre::Quaternion::Quaternion, COMDAT
; _this$ = ecx

; 54   : 		Quaternion():x(0), y(0), z(0), w(1.0f){}

	push	ebp
	mov	ebp, esp
	push	ecx
	mov	DWORD PTR _this$[ebp], ecx
	mov	eax, DWORD PTR _this$[ebp]
	fldz
	fstp	DWORD PTR [eax]
	mov	ecx, DWORD PTR _this$[ebp]
	fldz
	fstp	DWORD PTR [ecx+4]
	mov	edx, DWORD PTR _this$[ebp]
	fldz
	fstp	DWORD PTR [edx+8]
	mov	eax, DWORD PTR _this$[ebp]
	fld1
	fstp	DWORD PTR [eax+12]
	mov	eax, DWORD PTR _this$[ebp]
	mov	esp, ebp
	pop	ebp
	ret	0
??0Quaternion@Ogre@@QAE@XZ ENDP				; Ogre::Quaternion::Quaternion
_TEXT	ENDS
PUBLIC	??0Quaternion@Ogre@@QAE@MMMM@Z			; Ogre::Quaternion::Quaternion
; Function compile flags: /Odtp
;	COMDAT ??0Quaternion@Ogre@@QAE@MMMM@Z
_TEXT	SEGMENT
_this$ = -4						; size = 4
_x1$ = 8						; size = 4
_y1$ = 12						; size = 4
_z1$ = 16						; size = 4
_w1$ = 20						; size = 4
??0Quaternion@Ogre@@QAE@MMMM@Z PROC			; Ogre::Quaternion::Quaternion, COMDAT
; _this$ = ecx

; 55   : 		Quaternion( float x1, float y1, float z1, float w1 ) : x(x1), y(y1), z(z1), w(w1){}

	push	ebp
	mov	ebp, esp
	push	ecx
	mov	DWORD PTR _this$[ebp], ecx
	mov	eax, DWORD PTR _this$[ebp]
	fld	DWORD PTR _x1$[ebp]
	fstp	DWORD PTR [eax]
	mov	ecx, DWORD PTR _this$[ebp]
	fld	DWORD PTR _y1$[ebp]
	fstp	DWORD PTR [ecx+4]
	mov	edx, DWORD PTR _this$[ebp]
	fld	DWORD PTR _z1$[ebp]
	fstp	DWORD PTR [edx+8]
	mov	eax, DWORD PTR _this$[ebp]
	fld	DWORD PTR _w1$[ebp]
	fstp	DWORD PTR [eax+12]
	mov	eax, DWORD PTR _this$[ebp]
	mov	esp, ebp
	pop	ebp
	ret	16					; 00000010H
??0Quaternion@Ogre@@QAE@MMMM@Z ENDP			; Ogre::Quaternion::Quaternion
_TEXT	ENDS
PUBLIC	??4Quaternion@Ogre@@QAEAAV01@ABV01@@Z		; Ogre::Quaternion::operator=
; Function compile flags: /Odtp
;	COMDAT ??4Quaternion@Ogre@@QAEAAV01@ABV01@@Z
_TEXT	SEGMENT
_this$ = -4						; size = 4
_quat$ = 8						; size = 4
??4Quaternion@Ogre@@QAEAAV01@ABV01@@Z PROC		; Ogre::Quaternion::operator=, COMDAT
; _this$ = ecx

; 59   : 		{

	push	ebp
	mov	ebp, esp
	push	ecx
	mov	DWORD PTR _this$[ebp], ecx

; 60   : 			x = quat.x;

	mov	eax, DWORD PTR _this$[ebp]
	mov	ecx, DWORD PTR _quat$[ebp]
	fld	DWORD PTR [ecx]
	fstp	DWORD PTR [eax]

; 61   : 			y = quat.y;

	mov	edx, DWORD PTR _this$[ebp]
	mov	eax, DWORD PTR _quat$[ebp]
	fld	DWORD PTR [eax+4]
	fstp	DWORD PTR [edx+4]

; 62   : 			z = quat.z;

	mov	ecx, DWORD PTR _this$[ebp]
	mov	edx, DWORD PTR _quat$[ebp]
	fld	DWORD PTR [edx+8]
	fstp	DWORD PTR [ecx+8]

; 63   : 			w = quat.w;

	mov	eax, DWORD PTR _this$[ebp]
	mov	ecx, DWORD PTR _quat$[ebp]
	fld	DWORD PTR [ecx+12]
	fstp	DWORD PTR [eax+12]

; 64   : 			return *this;

	mov	eax, DWORD PTR _this$[ebp]

; 65   : 		}

	mov	esp, ebp
	pop	ebp
	ret	4
??4Quaternion@Ogre@@QAEAAV01@ABV01@@Z ENDP		; Ogre::Quaternion::operator=
_TEXT	ENDS
PUBLIC	??XQuaternion@Ogre@@QAEXM@Z			; Ogre::Quaternion::operator*=
; Function compile flags: /Odtp
;	COMDAT ??XQuaternion@Ogre@@QAEXM@Z
_TEXT	SEGMENT
_this$ = -4						; size = 4
_s$ = 8							; size = 4
??XQuaternion@Ogre@@QAEXM@Z PROC			; Ogre::Quaternion::operator*=, COMDAT
; _this$ = ecx

; 67   : 		{

	push	ebp
	mov	ebp, esp
	push	ecx
	mov	DWORD PTR _this$[ebp], ecx

; 68   : 			x *= s;

	mov	eax, DWORD PTR _this$[ebp]
	fld	DWORD PTR [eax]
	fmul	DWORD PTR _s$[ebp]
	mov	ecx, DWORD PTR _this$[ebp]
	fstp	DWORD PTR [ecx]

; 69   : 			y *= s;

	mov	edx, DWORD PTR _this$[ebp]
	fld	DWORD PTR [edx+4]
	fmul	DWORD PTR _s$[ebp]
	mov	eax, DWORD PTR _this$[ebp]
	fstp	DWORD PTR [eax+4]

; 70   : 			z *= s;

	mov	ecx, DWORD PTR _this$[ebp]
	fld	DWORD PTR [ecx+8]
	fmul	DWORD PTR _s$[ebp]
	mov	edx, DWORD PTR _this$[ebp]
	fstp	DWORD PTR [edx+8]

; 71   : 			w *= s;

	mov	eax, DWORD PTR _this$[ebp]
	fld	DWORD PTR [eax+12]
	fmul	DWORD PTR _s$[ebp]
	mov	ecx, DWORD PTR _this$[ebp]
	fstp	DWORD PTR [ecx+12]

; 72   : 		}

	mov	esp, ebp
	pop	ebp
	ret	4
??XQuaternion@Ogre@@QAEXM@Z ENDP			; Ogre::Quaternion::operator*=
_TEXT	ENDS
PUBLIC	?norm@Quaternion@Ogre@@QAEMXZ			; Ogre::Quaternion::norm
; Function compile flags: /Odtp
;	COMDAT ?norm@Quaternion@Ogre@@QAEMXZ
_TEXT	SEGMENT
tv94 = -8						; size = 4
_this$ = -4						; size = 4
?norm@Quaternion@Ogre@@QAEMXZ PROC			; Ogre::Quaternion::norm, COMDAT
; _this$ = ecx

; 74   : 		{

	push	ebp
	mov	ebp, esp
	sub	esp, 8
	mov	DWORD PTR _this$[ebp], ecx

; 75   : 			return x*x+y*y+z*z+w*w;

	mov	eax, DWORD PTR _this$[ebp]
	fld	DWORD PTR [eax]
	mov	ecx, DWORD PTR _this$[ebp]
	fmul	DWORD PTR [ecx]
	mov	edx, DWORD PTR _this$[ebp]
	fld	DWORD PTR [edx+4]
	mov	eax, DWORD PTR _this$[ebp]
	fmul	DWORD PTR [eax+4]
	faddp	ST(1), ST(0)
	mov	ecx, DWORD PTR _this$[ebp]
	fld	DWORD PTR [ecx+8]
	mov	edx, DWORD PTR _this$[ebp]
	fmul	DWORD PTR [edx+8]
	faddp	ST(1), ST(0)
	mov	eax, DWORD PTR _this$[ebp]
	fld	DWORD PTR [eax+12]
	mov	ecx, DWORD PTR _this$[ebp]
	fmul	DWORD PTR [ecx+12]
	faddp	ST(1), ST(0)
	fstp	DWORD PTR tv94[ebp]
	fld	DWORD PTR tv94[ebp]

; 76   : 		}

	mov	esp, ebp
	pop	ebp
	ret	0
?norm@Quaternion@Ogre@@QAEMXZ ENDP			; Ogre::Quaternion::norm
_TEXT	ENDS
PUBLIC	?identity@Quaternion@Ogre@@QAEXXZ		; Ogre::Quaternion::identity
; Function compile flags: /Odtp
;	COMDAT ?identity@Quaternion@Ogre@@QAEXXZ
_TEXT	SEGMENT
_this$ = -4						; size = 4
?identity@Quaternion@Ogre@@QAEXXZ PROC			; Ogre::Quaternion::identity, COMDAT
; _this$ = ecx

; 78   : 		{

	push	ebp
	mov	ebp, esp
	push	ecx
	mov	DWORD PTR _this$[ebp], ecx

; 79   : 			x = y = z = 0;

	mov	eax, DWORD PTR _this$[ebp]
	fldz
	fstp	DWORD PTR [eax+8]
	mov	ecx, DWORD PTR _this$[ebp]
	fldz
	fstp	DWORD PTR [ecx+4]
	mov	edx, DWORD PTR _this$[ebp]
	fldz
	fstp	DWORD PTR [edx]

; 80   : 			w = 1.0f;

	mov	eax, DWORD PTR _this$[ebp]
	fld1
	fstp	DWORD PTR [eax+12]

; 81   : 		}

	mov	esp, ebp
	pop	ebp
	ret	0
?identity@Quaternion@Ogre@@QAEXXZ ENDP			; Ogre::Quaternion::identity
_TEXT	ENDS
PUBLIC	?inverse@Quaternion@Ogre@@QAEXXZ		; Ogre::Quaternion::inverse
; Function compile flags: /Odtp
;	COMDAT ?inverse@Quaternion@Ogre@@QAEXXZ
_TEXT	SEGMENT
_this$ = -4						; size = 4
?inverse@Quaternion@Ogre@@QAEXXZ PROC			; Ogre::Quaternion::inverse, COMDAT
; _this$ = ecx

; 83   : 		{

	push	ebp
	mov	ebp, esp
	push	ecx
	mov	DWORD PTR _this$[ebp], ecx

; 84   : 			x = -x;

	mov	eax, DWORD PTR _this$[ebp]
	fld	DWORD PTR [eax]
	fchs
	mov	ecx, DWORD PTR _this$[ebp]
	fstp	DWORD PTR [ecx]

; 85   : 			y = -y;

	mov	edx, DWORD PTR _this$[ebp]
	fld	DWORD PTR [edx+4]
	fchs
	mov	eax, DWORD PTR _this$[ebp]
	fstp	DWORD PTR [eax+4]

; 86   : 			z = -z;

	mov	ecx, DWORD PTR _this$[ebp]
	fld	DWORD PTR [ecx+8]
	fchs
	mov	edx, DWORD PTR _this$[ebp]
	fstp	DWORD PTR [edx+8]

; 87   : 		}

	mov	esp, ebp
	pop	ebp
	ret	0
?inverse@Quaternion@Ogre@@QAEXXZ ENDP			; Ogre::Quaternion::inverse
_TEXT	ENDS
PUBLIC	?inverse@Quaternion@Ogre@@QBEXAAV12@@Z		; Ogre::Quaternion::inverse
; Function compile flags: /Odtp
;	COMDAT ?inverse@Quaternion@Ogre@@QBEXAAV12@@Z
_TEXT	SEGMENT
_this$ = -4						; size = 4
_quat$ = 8						; size = 4
?inverse@Quaternion@Ogre@@QBEXAAV12@@Z PROC		; Ogre::Quaternion::inverse, COMDAT
; _this$ = ecx

; 89   : 		{

	push	ebp
	mov	ebp, esp
	push	ecx
	mov	DWORD PTR _this$[ebp], ecx

; 90   : 			quat.x = -x;

	mov	eax, DWORD PTR _this$[ebp]
	fld	DWORD PTR [eax]
	fchs
	mov	ecx, DWORD PTR _quat$[ebp]
	fstp	DWORD PTR [ecx]

; 91   : 			quat.y = -y;

	mov	edx, DWORD PTR _this$[ebp]
	fld	DWORD PTR [edx+4]
	fchs
	mov	eax, DWORD PTR _quat$[ebp]
	fstp	DWORD PTR [eax+4]

; 92   : 			quat.z = -z;

	mov	ecx, DWORD PTR _this$[ebp]
	fld	DWORD PTR [ecx+8]
	fchs
	mov	edx, DWORD PTR _quat$[ebp]
	fstp	DWORD PTR [edx+8]

; 93   : 			quat.w = w;

	mov	eax, DWORD PTR _quat$[ebp]
	mov	ecx, DWORD PTR _this$[ebp]
	fld	DWORD PTR [ecx+12]
	fstp	DWORD PTR [eax+12]

; 94   : 		}

	mov	esp, ebp
	pop	ebp
	ret	4
?inverse@Quaternion@Ogre@@QBEXAAV12@@Z ENDP		; Ogre::Quaternion::inverse
_TEXT	ENDS
PUBLIC	?setElement@Quaternion@Ogre@@QAEXMMMM@Z		; Ogre::Quaternion::setElement
; Function compile flags: /Odtp
;	COMDAT ?setElement@Quaternion@Ogre@@QAEXMMMM@Z
_TEXT	SEGMENT
_this$ = -4						; size = 4
_x1$ = 8						; size = 4
_y1$ = 12						; size = 4
_z1$ = 16						; size = 4
_w1$ = 20						; size = 4
?setElement@Quaternion@Ogre@@QAEXMMMM@Z PROC		; Ogre::Quaternion::setElement, COMDAT
; _this$ = ecx

; 96   : 		{

	push	ebp
	mov	ebp, esp
	push	ecx
	mov	DWORD PTR _this$[ebp], ecx

; 97   : 			x = x1;

	mov	eax, DWORD PTR _this$[ebp]
	fld	DWORD PTR _x1$[ebp]
	fstp	DWORD PTR [eax]

; 98   : 			y = y1;

	mov	ecx, DWORD PTR _this$[ebp]
	fld	DWORD PTR _y1$[ebp]
	fstp	DWORD PTR [ecx+4]

; 99   : 			z = z1;

	mov	edx, DWORD PTR _this$[ebp]
	fld	DWORD PTR _z1$[ebp]
	fstp	DWORD PTR [edx+8]

; 100  : 			w = w1;

	mov	eax, DWORD PTR _this$[ebp]
	fld	DWORD PTR _w1$[ebp]
	fstp	DWORD PTR [eax+12]

; 101  : 		}

	mov	esp, ebp
	pop	ebp
	ret	16					; 00000010H
?setElement@Quaternion@Ogre@@QAEXMMMM@Z ENDP		; Ogre::Quaternion::setElement
_TEXT	ENDS
PUBLIC	??9Quaternion@Ogre@@QBE_NABV01@@Z		; Ogre::Quaternion::operator!=
EXTRN	??8Quaternion@Ogre@@QBE_NABV01@@Z:PROC		; Ogre::Quaternion::operator==
; Function compile flags: /Odtp
;	COMDAT ??9Quaternion@Ogre@@QBE_NABV01@@Z
_TEXT	SEGMENT
_this$ = -4						; size = 4
_quat$ = 8						; size = 4
??9Quaternion@Ogre@@QBE_NABV01@@Z PROC			; Ogre::Quaternion::operator!=, COMDAT
; _this$ = ecx

; 105  : 		{

	push	ebp
	mov	ebp, esp
	push	ecx
	mov	DWORD PTR _this$[ebp], ecx

; 106  : 			return !operator==(quat);

	mov	eax, DWORD PTR _quat$[ebp]
	push	eax
	mov	ecx, DWORD PTR _this$[ebp]
	call	??8Quaternion@Ogre@@QBE_NABV01@@Z	; Ogre::Quaternion::operator==
	movzx	eax, al
	neg	eax
	sbb	eax, eax
	add	eax, 1

; 107  : 		}

	mov	esp, ebp
	pop	ebp
	ret	4
??9Quaternion@Ogre@@QBE_NABV01@@Z ENDP			; Ogre::Quaternion::operator!=
_TEXT	ENDS
PUBLIC	?getRow3@Matrix3@Ogre@@QBE?AVVector3@2@I@Z	; Ogre::Matrix3::getRow3
; Function compile flags: /Odtp
; File i:\svnroot\client\ogremain\ogrematrix3.h
;	COMDAT ?getRow3@Matrix3@Ogre@@QBE?AVVector3@2@I@Z
_TEXT	SEGMENT
_this$ = -4						; size = 4
___$ReturnUdt$ = 8					; size = 4
_i$ = 12						; size = 4
?getRow3@Matrix3@Ogre@@QBE?AVVector3@2@I@Z PROC		; Ogre::Matrix3::getRow3, COMDAT
; _this$ = ecx

; 67   : 		{

	push	ebp
	mov	ebp, esp
	push	ecx
	mov	DWORD PTR _this$[ebp], ecx

; 68   : 			return Vector3(m[i][0], m[i][1], m[i][2]);

	mov	eax, DWORD PTR _i$[ebp]
	imul	eax, 12					; 0000000cH
	mov	ecx, DWORD PTR _this$[ebp]
	push	ecx
	fld	DWORD PTR [ecx+eax+8]
	fstp	DWORD PTR [esp]
	mov	edx, DWORD PTR _i$[ebp]
	imul	edx, 12					; 0000000cH
	mov	eax, DWORD PTR _this$[ebp]
	push	ecx
	fld	DWORD PTR [eax+edx+4]
	fstp	DWORD PTR [esp]
	mov	ecx, DWORD PTR _i$[ebp]
	imul	ecx, 12					; 0000000cH
	mov	edx, DWORD PTR _this$[ebp]
	push	ecx
	fld	DWORD PTR [edx+ecx]
	fstp	DWORD PTR [esp]
	mov	ecx, DWORD PTR ___$ReturnUdt$[ebp]
	call	??0Vector3@Ogre@@QAE@MMM@Z		; Ogre::Vector3::Vector3
	mov	eax, DWORD PTR ___$ReturnUdt$[ebp]

; 69   : 		}

	mov	esp, ebp
	pop	ebp
	ret	8
?getRow3@Matrix3@Ogre@@QBE?AVVector3@2@I@Z ENDP		; Ogre::Matrix3::getRow3
_TEXT	ENDS
PUBLIC	?identity@Matrix3@Ogre@@QAEXXZ			; Ogre::Matrix3::identity
; Function compile flags: /Odtp
;	COMDAT ?identity@Matrix3@Ogre@@QAEXXZ
_TEXT	SEGMENT
_this$ = -4						; size = 4
?identity@Matrix3@Ogre@@QAEXXZ PROC			; Ogre::Matrix3::identity, COMDAT
; _this$ = ecx

; 71   : 		{

	push	ebp
	mov	ebp, esp
	push	ecx
	mov	DWORD PTR _this$[ebp], ecx

; 72   : 			_11=1.0f, _12=0.0f, _13=0.0f;

	mov	eax, DWORD PTR _this$[ebp]
	fld1
	fstp	DWORD PTR [eax]
	mov	ecx, DWORD PTR _this$[ebp]
	fldz
	fstp	DWORD PTR [ecx+4]
	mov	edx, DWORD PTR _this$[ebp]
	fldz
	fstp	DWORD PTR [edx+8]

; 73   : 			_21=0.0f, _22=1.0f, _23=0.0f;

	mov	eax, DWORD PTR _this$[ebp]
	fldz
	fstp	DWORD PTR [eax+12]
	mov	ecx, DWORD PTR _this$[ebp]
	fld1
	fstp	DWORD PTR [ecx+16]
	mov	edx, DWORD PTR _this$[ebp]
	fldz
	fstp	DWORD PTR [edx+20]

; 74   : 			_31=0.0f, _32=0.0f, _33=1.0f;

	mov	eax, DWORD PTR _this$[ebp]
	fldz
	fstp	DWORD PTR [eax+24]
	mov	ecx, DWORD PTR _this$[ebp]
	fldz
	fstp	DWORD PTR [ecx+28]
	mov	edx, DWORD PTR _this$[ebp]
	fld1
	fstp	DWORD PTR [edx+32]

; 75   : 		}

	mov	esp, ebp
	pop	ebp
	ret	0
?identity@Matrix3@Ogre@@QAEXXZ ENDP			; Ogre::Matrix3::identity
_TEXT	ENDS
PUBLIC	?setRow@Matrix3@Ogre@@QAEXIMMM@Z		; Ogre::Matrix3::setRow
; Function compile flags: /Odtp
;	COMDAT ?setRow@Matrix3@Ogre@@QAEXIMMM@Z
_TEXT	SEGMENT
_this$ = -4						; size = 4
_i$ = 8							; size = 4
_x$ = 12						; size = 4
_y$ = 16						; size = 4
_z$ = 20						; size = 4
?setRow@Matrix3@Ogre@@QAEXIMMM@Z PROC			; Ogre::Matrix3::setRow, COMDAT
; _this$ = ecx

; 77   : 		{

	push	ebp
	mov	ebp, esp
	push	ecx
	mov	DWORD PTR _this$[ebp], ecx

; 78   : 			m[i][0] = x;

	mov	eax, DWORD PTR _i$[ebp]
	imul	eax, 12					; 0000000cH
	mov	ecx, DWORD PTR _this$[ebp]
	fld	DWORD PTR _x$[ebp]
	fstp	DWORD PTR [ecx+eax]

; 79   : 			m[i][1] = y;

	mov	edx, DWORD PTR _i$[ebp]
	imul	edx, 12					; 0000000cH
	mov	eax, DWORD PTR _this$[ebp]
	fld	DWORD PTR _y$[ebp]
	fstp	DWORD PTR [eax+edx+4]

; 80   : 			m[i][2] = z;

	mov	ecx, DWORD PTR _i$[ebp]
	imul	ecx, 12					; 0000000cH
	mov	edx, DWORD PTR _this$[ebp]
	fld	DWORD PTR _z$[ebp]
	fstp	DWORD PTR [edx+ecx+8]

; 81   : 		}

	mov	esp, ebp
	pop	ebp
	ret	16					; 00000010H
?setRow@Matrix3@Ogre@@QAEXIMMM@Z ENDP			; Ogre::Matrix3::setRow
_TEXT	ENDS
PUBLIC	?getColumn@Matrix3@Ogre@@QBE?AVVector3@2@I@Z	; Ogre::Matrix3::getColumn
; Function compile flags: /Odtp
;	COMDAT ?getColumn@Matrix3@Ogre@@QBE?AVVector3@2@I@Z
_TEXT	SEGMENT
_this$ = -4						; size = 4
___$ReturnUdt$ = 8					; size = 4
_i$ = 12						; size = 4
?getColumn@Matrix3@Ogre@@QBE?AVVector3@2@I@Z PROC	; Ogre::Matrix3::getColumn, COMDAT
; _this$ = ecx

; 84   : 		{

	push	ebp
	mov	ebp, esp
	push	ecx
	mov	DWORD PTR _this$[ebp], ecx

; 85   : 			return Vector3(m[0][i], m[1][i], m[2][i]);

	mov	eax, DWORD PTR _i$[ebp]
	mov	ecx, DWORD PTR _this$[ebp]
	push	ecx
	fld	DWORD PTR [ecx+eax*4+24]
	fstp	DWORD PTR [esp]
	mov	edx, DWORD PTR _i$[ebp]
	mov	eax, DWORD PTR _this$[ebp]
	push	ecx
	fld	DWORD PTR [eax+edx*4+12]
	fstp	DWORD PTR [esp]
	mov	ecx, DWORD PTR _i$[ebp]
	mov	edx, DWORD PTR _this$[ebp]
	push	ecx
	fld	DWORD PTR [edx+ecx*4]
	fstp	DWORD PTR [esp]
	mov	ecx, DWORD PTR ___$ReturnUdt$[ebp]
	call	??0Vector3@Ogre@@QAE@MMM@Z		; Ogre::Vector3::Vector3
	mov	eax, DWORD PTR ___$ReturnUdt$[ebp]

; 86   : 		}

	mov	esp, ebp
	pop	ebp
	ret	8
?getColumn@Matrix3@Ogre@@QBE?AVVector3@2@I@Z ENDP	; Ogre::Matrix3::getColumn
_TEXT	ENDS
PUBLIC	?makeScaleMatrix@Matrix3@Ogre@@QAEXM@Z		; Ogre::Matrix3::makeScaleMatrix
EXTRN	?makeScaleMatrix@Matrix3@Ogre@@QAEXABVVector3@2@@Z:PROC ; Ogre::Matrix3::makeScaleMatrix
; Function compile flags: /Odtp
;	COMDAT ?makeScaleMatrix@Matrix3@Ogre@@QAEXM@Z
_TEXT	SEGMENT
_this$ = -16						; size = 4
$T65092 = -12						; size = 12
_s$ = 8							; size = 4
?makeScaleMatrix@Matrix3@Ogre@@QAEXM@Z PROC		; Ogre::Matrix3::makeScaleMatrix, COMDAT
; _this$ = ecx

; 93   : 		{

	push	ebp
	mov	ebp, esp
	sub	esp, 16					; 00000010H
	mov	DWORD PTR _this$[ebp], ecx

; 94   : 			makeScaleMatrix(Vector3(s, s, s));

	push	ecx
	fld	DWORD PTR _s$[ebp]
	fstp	DWORD PTR [esp]
	push	ecx
	fld	DWORD PTR _s$[ebp]
	fstp	DWORD PTR [esp]
	push	ecx
	fld	DWORD PTR _s$[ebp]
	fstp	DWORD PTR [esp]
	lea	ecx, DWORD PTR $T65092[ebp]
	call	??0Vector3@Ogre@@QAE@MMM@Z		; Ogre::Vector3::Vector3
	push	eax
	mov	ecx, DWORD PTR _this$[ebp]
	call	?makeScaleMatrix@Matrix3@Ogre@@QAEXABVVector3@2@@Z ; Ogre::Matrix3::makeScaleMatrix

; 95   : 		}

	mov	esp, ebp
	pop	ebp
	ret	4
?makeScaleMatrix@Matrix3@Ogre@@QAEXM@Z ENDP		; Ogre::Matrix3::makeScaleMatrix
_TEXT	ENDS
PUBLIC	??4Matrix3@Ogre@@QAEAAV01@ABV01@@Z		; Ogre::Matrix3::operator=
; Function compile flags: /Odtp
;	COMDAT ??4Matrix3@Ogre@@QAEAAV01@ABV01@@Z
_TEXT	SEGMENT
_this$ = -4						; size = 4
___that$ = 8						; size = 4
??4Matrix3@Ogre@@QAEAAV01@ABV01@@Z PROC			; Ogre::Matrix3::operator=, COMDAT
; _this$ = ecx
	push	ebp
	mov	ebp, esp
	push	ecx
	push	esi
	push	edi
	mov	DWORD PTR _this$[ebp], ecx
	mov	esi, DWORD PTR ___that$[ebp]
	mov	ecx, 9
	mov	edi, DWORD PTR _this$[ebp]
	rep movsd
	mov	eax, DWORD PTR _this$[ebp]
	pop	edi
	pop	esi
	mov	esp, ebp
	pop	ebp
	ret	4
??4Matrix3@Ogre@@QAEAAV01@ABV01@@Z ENDP			; Ogre::Matrix3::operator=
_TEXT	ENDS
PUBLIC	??AMatrix4@Ogre@@QBEPBMI@Z			; Ogre::Matrix4::operator[]
; Function compile flags: /Odtp
; File i:\svnroot\client\ogremain\ogrematrix4.h
;	COMDAT ??AMatrix4@Ogre@@QBEPBMI@Z
_TEXT	SEGMENT
_this$ = -4						; size = 4
_irow$ = 8						; size = 4
??AMatrix4@Ogre@@QBEPBMI@Z PROC				; Ogre::Matrix4::operator[], COMDAT
; _this$ = ecx

; 88   : 		{

	push	ebp
	mov	ebp, esp
	push	ecx
	mov	DWORD PTR _this$[ebp], ecx

; 89   : 			return &m[irow][0];

	mov	eax, DWORD PTR _irow$[ebp]
	shl	eax, 4
	add	eax, DWORD PTR _this$[ebp]

; 90   : 		}

	mov	esp, ebp
	pop	ebp
	ret	4
??AMatrix4@Ogre@@QBEPBMI@Z ENDP				; Ogre::Matrix4::operator[]
_TEXT	ENDS
PUBLIC	??AMatrix4@Ogre@@QAEPAMI@Z			; Ogre::Matrix4::operator[]
; Function compile flags: /Odtp
;	COMDAT ??AMatrix4@Ogre@@QAEPAMI@Z
_TEXT	SEGMENT
_this$ = -4						; size = 4
_irow$ = 8						; size = 4
??AMatrix4@Ogre@@QAEPAMI@Z PROC				; Ogre::Matrix4::operator[], COMDAT
; _this$ = ecx

; 92   : 		{

	push	ebp
	mov	ebp, esp
	push	ecx
	mov	DWORD PTR _this$[ebp], ecx

; 93   : 			return &m[irow][0];

	mov	eax, DWORD PTR _irow$[ebp]
	shl	eax, 4
	add	eax, DWORD PTR _this$[ebp]

; 94   : 		}

	mov	esp, ebp
	pop	ebp
	ret	4
??AMatrix4@Ogre@@QAEPAMI@Z ENDP				; Ogre::Matrix4::operator[]
_TEXT	ENDS
PUBLIC	?makeScaleMatrix@Matrix4@Ogre@@QAEXM@Z		; Ogre::Matrix4::makeScaleMatrix
EXTRN	?makeScaleMatrix@Matrix4@Ogre@@QAEXABVVector3@2@@Z:PROC ; Ogre::Matrix4::makeScaleMatrix
; Function compile flags: /Odtp
;	COMDAT ?makeScaleMatrix@Matrix4@Ogre@@QAEXM@Z
_TEXT	SEGMENT
_this$ = -16						; size = 4
$T65101 = -12						; size = 12
_s$ = 8							; size = 4
?makeScaleMatrix@Matrix4@Ogre@@QAEXM@Z PROC		; Ogre::Matrix4::makeScaleMatrix, COMDAT
; _this$ = ecx

; 101  : 		{

	push	ebp
	mov	ebp, esp
	sub	esp, 16					; 00000010H
	mov	DWORD PTR _this$[ebp], ecx

; 102  : 			makeScaleMatrix(Vector3(s, s, s));

	push	ecx
	fld	DWORD PTR _s$[ebp]
	fstp	DWORD PTR [esp]
	push	ecx
	fld	DWORD PTR _s$[ebp]
	fstp	DWORD PTR [esp]
	push	ecx
	fld	DWORD PTR _s$[ebp]
	fstp	DWORD PTR [esp]
	lea	ecx, DWORD PTR $T65101[ebp]
	call	??0Vector3@Ogre@@QAE@MMM@Z		; Ogre::Vector3::Vector3
	push	eax
	mov	ecx, DWORD PTR _this$[ebp]
	call	?makeScaleMatrix@Matrix4@Ogre@@QAEXABVVector3@2@@Z ; Ogre::Matrix4::makeScaleMatrix

; 103  : 		}

	mov	esp, ebp
	pop	ebp
	ret	4
?makeScaleMatrix@Matrix4@Ogre@@QAEXM@Z ENDP		; Ogre::Matrix4::makeScaleMatrix
_TEXT	ENDS
PUBLIC	?setRow@Matrix4@Ogre@@QAEXIMMMM@Z		; Ogre::Matrix4::setRow
; Function compile flags: /Odtp
;	COMDAT ?setRow@Matrix4@Ogre@@QAEXIMMMM@Z
_TEXT	SEGMENT
_this$ = -4						; size = 4
_i$ = 8							; size = 4
_x$ = 12						; size = 4
_y$ = 16						; size = 4
_z$ = 20						; size = 4
_w$ = 24						; size = 4
?setRow@Matrix4@Ogre@@QAEXIMMMM@Z PROC			; Ogre::Matrix4::setRow, COMDAT
; _this$ = ecx

; 133  : 		{

	push	ebp
	mov	ebp, esp
	push	ecx
	mov	DWORD PTR _this$[ebp], ecx

; 134  : 			m[i][0] = x;

	mov	eax, DWORD PTR _i$[ebp]
	shl	eax, 4
	mov	ecx, DWORD PTR _this$[ebp]
	fld	DWORD PTR _x$[ebp]
	fstp	DWORD PTR [ecx+eax]

; 135  : 			m[i][1] = y;

	mov	edx, DWORD PTR _i$[ebp]
	shl	edx, 4
	mov	eax, DWORD PTR _this$[ebp]
	fld	DWORD PTR _y$[ebp]
	fstp	DWORD PTR [eax+edx+4]

; 136  : 			m[i][2] = z;

	mov	ecx, DWORD PTR _i$[ebp]
	shl	ecx, 4
	mov	edx, DWORD PTR _this$[ebp]
	fld	DWORD PTR _z$[ebp]
	fstp	DWORD PTR [edx+ecx+8]

; 137  : 			m[i][3] = w;

	mov	eax, DWORD PTR _i$[ebp]
	shl	eax, 4
	mov	ecx, DWORD PTR _this$[ebp]
	fld	DWORD PTR _w$[ebp]
	fstp	DWORD PTR [ecx+eax+12]

; 138  : 		}

	mov	esp, ebp
	pop	ebp
	ret	20					; 00000014H
?setRow@Matrix4@Ogre@@QAEXIMMMM@Z ENDP			; Ogre::Matrix4::setRow
_TEXT	ENDS
PUBLIC	?setColumn@Matrix4@Ogre@@QAEXIMMMM@Z		; Ogre::Matrix4::setColumn
; Function compile flags: /Odtp
;	COMDAT ?setColumn@Matrix4@Ogre@@QAEXIMMMM@Z
_TEXT	SEGMENT
_this$ = -4						; size = 4
_i$ = 8							; size = 4
_x$ = 12						; size = 4
_y$ = 16						; size = 4
_z$ = 20						; size = 4
_w$ = 24						; size = 4
?setColumn@Matrix4@Ogre@@QAEXIMMMM@Z PROC		; Ogre::Matrix4::setColumn, COMDAT
; _this$ = ecx

; 140  : 		{

	push	ebp
	mov	ebp, esp
	push	ecx
	mov	DWORD PTR _this$[ebp], ecx

; 141  : 			m[0][i] = x;

	mov	eax, DWORD PTR _i$[ebp]
	mov	ecx, DWORD PTR _this$[ebp]
	fld	DWORD PTR _x$[ebp]
	fstp	DWORD PTR [ecx+eax*4]

; 142  : 			m[1][i] = y;

	mov	edx, DWORD PTR _i$[ebp]
	mov	eax, DWORD PTR _this$[ebp]
	fld	DWORD PTR _y$[ebp]
	fstp	DWORD PTR [eax+edx*4+16]

; 143  : 			m[2][i] = z;

	mov	ecx, DWORD PTR _i$[ebp]
	mov	edx, DWORD PTR _this$[ebp]
	fld	DWORD PTR _z$[ebp]
	fstp	DWORD PTR [edx+ecx*4+32]

; 144  : 			m[3][i] = w;

	mov	eax, DWORD PTR _i$[ebp]
	mov	ecx, DWORD PTR _this$[ebp]
	fld	DWORD PTR _w$[ebp]
	fstp	DWORD PTR [ecx+eax*4+48]

; 145  : 		}

	mov	esp, ebp
	pop	ebp
	ret	20					; 00000014H
?setColumn@Matrix4@Ogre@@QAEXIMMMM@Z ENDP		; Ogre::Matrix4::setColumn
_TEXT	ENDS
PUBLIC	?getRow3@Matrix4@Ogre@@QBE?AVVector3@2@I@Z	; Ogre::Matrix4::getRow3
; Function compile flags: /Odtp
;	COMDAT ?getRow3@Matrix4@Ogre@@QBE?AVVector3@2@I@Z
_TEXT	SEGMENT
_this$ = -4						; size = 4
___$ReturnUdt$ = 8					; size = 4
_i$ = 12						; size = 4
?getRow3@Matrix4@Ogre@@QBE?AVVector3@2@I@Z PROC		; Ogre::Matrix4::getRow3, COMDAT
; _this$ = ecx

; 147  : 		{

	push	ebp
	mov	ebp, esp
	push	ecx
	mov	DWORD PTR _this$[ebp], ecx

; 148  : 			return Vector3(m[i][0], m[i][1], m[i][2]);

	mov	eax, DWORD PTR _i$[ebp]
	shl	eax, 4
	mov	ecx, DWORD PTR _this$[ebp]
	push	ecx
	fld	DWORD PTR [ecx+eax+8]
	fstp	DWORD PTR [esp]
	mov	edx, DWORD PTR _i$[ebp]
	shl	edx, 4
	mov	eax, DWORD PTR _this$[ebp]
	push	ecx
	fld	DWORD PTR [eax+edx+4]
	fstp	DWORD PTR [esp]
	mov	ecx, DWORD PTR _i$[ebp]
	shl	ecx, 4
	mov	edx, DWORD PTR _this$[ebp]
	push	ecx
	fld	DWORD PTR [edx+ecx]
	fstp	DWORD PTR [esp]
	mov	ecx, DWORD PTR ___$ReturnUdt$[ebp]
	call	??0Vector3@Ogre@@QAE@MMM@Z		; Ogre::Vector3::Vector3
	mov	eax, DWORD PTR ___$ReturnUdt$[ebp]

; 149  : 		}

	mov	esp, ebp
	pop	ebp
	ret	8
?getRow3@Matrix4@Ogre@@QBE?AVVector3@2@I@Z ENDP		; Ogre::Matrix4::getRow3
_TEXT	ENDS
PUBLIC	?getColumn3@Matrix4@Ogre@@QBE?AVVector3@2@I@Z	; Ogre::Matrix4::getColumn3
; Function compile flags: /Odtp
;	COMDAT ?getColumn3@Matrix4@Ogre@@QBE?AVVector3@2@I@Z
_TEXT	SEGMENT
_this$ = -4						; size = 4
___$ReturnUdt$ = 8					; size = 4
_i$ = 12						; size = 4
?getColumn3@Matrix4@Ogre@@QBE?AVVector3@2@I@Z PROC	; Ogre::Matrix4::getColumn3, COMDAT
; _this$ = ecx

; 151  : 		{

	push	ebp
	mov	ebp, esp
	push	ecx
	mov	DWORD PTR _this$[ebp], ecx

; 152  : 			return Vector3(m[0][i], m[1][i], m[2][i]);

	mov	eax, DWORD PTR _i$[ebp]
	mov	ecx, DWORD PTR _this$[ebp]
	push	ecx
	fld	DWORD PTR [ecx+eax*4+32]
	fstp	DWORD PTR [esp]
	mov	edx, DWORD PTR _i$[ebp]
	mov	eax, DWORD PTR _this$[ebp]
	push	ecx
	fld	DWORD PTR [eax+edx*4+16]
	fstp	DWORD PTR [esp]
	mov	ecx, DWORD PTR _i$[ebp]
	mov	edx, DWORD PTR _this$[ebp]
	push	ecx
	fld	DWORD PTR [edx+ecx*4]
	fstp	DWORD PTR [esp]
	mov	ecx, DWORD PTR ___$ReturnUdt$[ebp]
	call	??0Vector3@Ogre@@QAE@MMM@Z		; Ogre::Vector3::Vector3
	mov	eax, DWORD PTR ___$ReturnUdt$[ebp]

; 153  : 		}

	mov	esp, ebp
	pop	ebp
	ret	8
?getColumn3@Matrix4@Ogre@@QBE?AVVector3@2@I@Z ENDP	; Ogre::Matrix4::getColumn3
_TEXT	ENDS
PUBLIC	??0Vector4@Ogre@@QAE@MMMM@Z			; Ogre::Vector4::Vector4
PUBLIC	?getRow4@Matrix4@Ogre@@QBE?AVVector4@2@I@Z	; Ogre::Matrix4::getRow4
; Function compile flags: /Odtp
;	COMDAT ?getRow4@Matrix4@Ogre@@QBE?AVVector4@2@I@Z
_TEXT	SEGMENT
_this$ = -4						; size = 4
___$ReturnUdt$ = 8					; size = 4
_i$ = 12						; size = 4
?getRow4@Matrix4@Ogre@@QBE?AVVector4@2@I@Z PROC		; Ogre::Matrix4::getRow4, COMDAT
; _this$ = ecx

; 155  : 		{

	push	ebp
	mov	ebp, esp
	push	ecx
	mov	DWORD PTR _this$[ebp], ecx

; 156  : 			return Vector4(m[i][0], m[i][1], m[i][2], m[i][3]);

	mov	eax, DWORD PTR _i$[ebp]
	shl	eax, 4
	mov	ecx, DWORD PTR _this$[ebp]
	push	ecx
	fld	DWORD PTR [ecx+eax+12]
	fstp	DWORD PTR [esp]
	mov	edx, DWORD PTR _i$[ebp]
	shl	edx, 4
	mov	eax, DWORD PTR _this$[ebp]
	push	ecx
	fld	DWORD PTR [eax+edx+8]
	fstp	DWORD PTR [esp]
	mov	ecx, DWORD PTR _i$[ebp]
	shl	ecx, 4
	mov	edx, DWORD PTR _this$[ebp]
	push	ecx
	fld	DWORD PTR [edx+ecx+4]
	fstp	DWORD PTR [esp]
	mov	eax, DWORD PTR _i$[ebp]
	shl	eax, 4
	mov	ecx, DWORD PTR _this$[ebp]
	push	ecx
	fld	DWORD PTR [ecx+eax]
	fstp	DWORD PTR [esp]
	mov	ecx, DWORD PTR ___$ReturnUdt$[ebp]
	call	??0Vector4@Ogre@@QAE@MMMM@Z		; Ogre::Vector4::Vector4
	mov	eax, DWORD PTR ___$ReturnUdt$[ebp]

; 157  : 		}

	mov	esp, ebp
	pop	ebp
	ret	8
?getRow4@Matrix4@Ogre@@QBE?AVVector4@2@I@Z ENDP		; Ogre::Matrix4::getRow4
; Function compile flags: /Odtp
; File i:\svnroot\client\ogremain\ogrevector4.h
_TEXT	ENDS
;	COMDAT ??0Vector4@Ogre@@QAE@MMMM@Z
_TEXT	SEGMENT
_this$ = -4						; size = 4
_x1$ = 8						; size = 4
_y1$ = 12						; size = 4
_z1$ = 16						; size = 4
_w1$ = 20						; size = 4
??0Vector4@Ogre@@QAE@MMMM@Z PROC			; Ogre::Vector4::Vector4, COMDAT
; _this$ = ecx

; 44   : 		Vector4( float x1, float y1, float z1, float w1 ) : x(x1), y(y1), z(z1), w(w1){}

	push	ebp
	mov	ebp, esp
	push	ecx
	mov	DWORD PTR _this$[ebp], ecx
	mov	eax, DWORD PTR _this$[ebp]
	fld	DWORD PTR _x1$[ebp]
	fstp	DWORD PTR [eax]
	mov	ecx, DWORD PTR _this$[ebp]
	fld	DWORD PTR _y1$[ebp]
	fstp	DWORD PTR [ecx+4]
	mov	edx, DWORD PTR _this$[ebp]
	fld	DWORD PTR _z1$[ebp]
	fstp	DWORD PTR [edx+8]
	mov	eax, DWORD PTR _this$[ebp]
	fld	DWORD PTR _w1$[ebp]
	fstp	DWORD PTR [eax+12]
	mov	eax, DWORD PTR _this$[ebp]
	mov	esp, ebp
	pop	ebp
	ret	16					; 00000010H
??0Vector4@Ogre@@QAE@MMMM@Z ENDP			; Ogre::Vector4::Vector4
_TEXT	ENDS
PUBLIC	?getColumn4@Matrix4@Ogre@@QBE?AVVector4@2@I@Z	; Ogre::Matrix4::getColumn4
; Function compile flags: /Odtp
; File i:\svnroot\client\ogremain\ogrematrix4.h
;	COMDAT ?getColumn4@Matrix4@Ogre@@QBE?AVVector4@2@I@Z
_TEXT	SEGMENT
_this$ = -4						; size = 4
___$ReturnUdt$ = 8					; size = 4
_i$ = 12						; size = 4
?getColumn4@Matrix4@Ogre@@QBE?AVVector4@2@I@Z PROC	; Ogre::Matrix4::getColumn4, COMDAT
; _this$ = ecx

; 159  : 		{

	push	ebp
	mov	ebp, esp
	push	ecx
	mov	DWORD PTR _this$[ebp], ecx

; 160  : 			return Vector4(m[0][i], m[1][i], m[2][i], m[3][i]);

	mov	eax, DWORD PTR _i$[ebp]
	mov	ecx, DWORD PTR _this$[ebp]
	push	ecx
	fld	DWORD PTR [ecx+eax*4+48]
	fstp	DWORD PTR [esp]
	mov	edx, DWORD PTR _i$[ebp]
	mov	eax, DWORD PTR _this$[ebp]
	push	ecx
	fld	DWORD PTR [eax+edx*4+32]
	fstp	DWORD PTR [esp]
	mov	ecx, DWORD PTR _i$[ebp]
	mov	edx, DWORD PTR _this$[ebp]
	push	ecx
	fld	DWORD PTR [edx+ecx*4+16]
	fstp	DWORD PTR [esp]
	mov	eax, DWORD PTR _i$[ebp]
	mov	ecx, DWORD PTR _this$[ebp]
	push	ecx
	fld	DWORD PTR [ecx+eax*4]
	fstp	DWORD PTR [esp]
	mov	ecx, DWORD PTR ___$ReturnUdt$[ebp]
	call	??0Vector4@Ogre@@QAE@MMMM@Z		; Ogre::Vector4::Vector4
	mov	eax, DWORD PTR ___$ReturnUdt$[ebp]

; 161  : 		}

	mov	esp, ebp
	pop	ebp
	ret	8
?getColumn4@Matrix4@Ogre@@QBE?AVVector4@2@I@Z ENDP	; Ogre::Matrix4::getColumn4
_TEXT	ENDS
PUBLIC	?setTranslate@Matrix4@Ogre@@QAEXMMM@Z		; Ogre::Matrix4::setTranslate
; Function compile flags: /Odtp
;	COMDAT ?setTranslate@Matrix4@Ogre@@QAEXMMM@Z
_TEXT	SEGMENT
_this$ = -4						; size = 4
_x$ = 8							; size = 4
_y$ = 12						; size = 4
_z$ = 16						; size = 4
?setTranslate@Matrix4@Ogre@@QAEXMMM@Z PROC		; Ogre::Matrix4::setTranslate, COMDAT
; _this$ = ecx

; 163  : 		{

	push	ebp
	mov	ebp, esp
	push	ecx
	mov	DWORD PTR _this$[ebp], ecx

; 164  : 			setRow( 3, x, y, z, 1.0f );

	push	ecx
	fld1
	fstp	DWORD PTR [esp]
	push	ecx
	fld	DWORD PTR _z$[ebp]
	fstp	DWORD PTR [esp]
	push	ecx
	fld	DWORD PTR _y$[ebp]
	fstp	DWORD PTR [esp]
	push	ecx
	fld	DWORD PTR _x$[ebp]
	fstp	DWORD PTR [esp]
	push	3
	mov	ecx, DWORD PTR _this$[ebp]
	call	?setRow@Matrix4@Ogre@@QAEXIMMMM@Z	; Ogre::Matrix4::setRow

; 165  : 		}

	mov	esp, ebp
	pop	ebp
	ret	12					; 0000000cH
?setTranslate@Matrix4@Ogre@@QAEXMMM@Z ENDP		; Ogre::Matrix4::setTranslate
_TEXT	ENDS
PUBLIC	?setTranslate@Matrix4@Ogre@@QAEXABVVector3@2@@Z	; Ogre::Matrix4::setTranslate
; Function compile flags: /Odtp
;	COMDAT ?setTranslate@Matrix4@Ogre@@QAEXABVVector3@2@@Z
_TEXT	SEGMENT
_this$ = -4						; size = 4
_pos$ = 8						; size = 4
?setTranslate@Matrix4@Ogre@@QAEXABVVector3@2@@Z PROC	; Ogre::Matrix4::setTranslate, COMDAT
; _this$ = ecx

; 167  : 		{

	push	ebp
	mov	ebp, esp
	push	ecx
	mov	DWORD PTR _this$[ebp], ecx

; 168  : 			setTranslate( pos.x, pos.y, pos.z );

	mov	eax, DWORD PTR _pos$[ebp]
	push	ecx
	fld	DWORD PTR [eax+8]
	fstp	DWORD PTR [esp]
	mov	ecx, DWORD PTR _pos$[ebp]
	push	ecx
	fld	DWORD PTR [ecx+4]
	fstp	DWORD PTR [esp]
	mov	edx, DWORD PTR _pos$[ebp]
	push	ecx
	fld	DWORD PTR [edx]
	fstp	DWORD PTR [esp]
	mov	ecx, DWORD PTR _this$[ebp]
	call	?setTranslate@Matrix4@Ogre@@QAEXMMM@Z	; Ogre::Matrix4::setTranslate

; 169  : 		}

	mov	esp, ebp
	pop	ebp
	ret	4
?setTranslate@Matrix4@Ogre@@QAEXABVVector3@2@@Z ENDP	; Ogre::Matrix4::setTranslate
_TEXT	ENDS
PUBLIC	?getTranslate@Matrix4@Ogre@@QBE?AVVector3@2@XZ	; Ogre::Matrix4::getTranslate
; Function compile flags: /Odtp
;	COMDAT ?getTranslate@Matrix4@Ogre@@QBE?AVVector3@2@XZ
_TEXT	SEGMENT
_this$ = -4						; size = 4
___$ReturnUdt$ = 8					; size = 4
?getTranslate@Matrix4@Ogre@@QBE?AVVector3@2@XZ PROC	; Ogre::Matrix4::getTranslate, COMDAT
; _this$ = ecx

; 171  : 		{

	push	ebp
	mov	ebp, esp
	push	ecx
	mov	DWORD PTR _this$[ebp], ecx

; 172  : 			return getRow3(3);

	push	3
	mov	eax, DWORD PTR ___$ReturnUdt$[ebp]
	push	eax
	mov	ecx, DWORD PTR _this$[ebp]
	call	?getRow3@Matrix4@Ogre@@QBE?AVVector3@2@I@Z ; Ogre::Matrix4::getRow3
	mov	eax, DWORD PTR ___$ReturnUdt$[ebp]

; 173  : 		};

	mov	esp, ebp
	pop	ebp
	ret	4
?getTranslate@Matrix4@Ogre@@QBE?AVVector3@2@XZ ENDP	; Ogre::Matrix4::getTranslate
_TEXT	ENDS
PUBLIC	?transformCoord@Matrix4@Ogre@@QBE?AVVector3@2@ABV32@@Z ; Ogre::Matrix4::transformCoord
; Function compile flags: /Odtp
;	COMDAT ?transformCoord@Matrix4@Ogre@@QBE?AVVector3@2@ABV32@@Z
_TEXT	SEGMENT
tv182 = -16						; size = 4
tv174 = -12						; size = 4
tv166 = -8						; size = 4
_this$ = -4						; size = 4
___$ReturnUdt$ = 8					; size = 4
_vec$ = 12						; size = 4
?transformCoord@Matrix4@Ogre@@QBE?AVVector3@2@ABV32@@Z PROC ; Ogre::Matrix4::transformCoord, COMDAT
; _this$ = ecx

; 233  : 	{

	push	ebp
	mov	ebp, esp
	sub	esp, 16					; 00000010H
	mov	DWORD PTR _this$[ebp], ecx

; 234  : 		return Vector3( vec.x*_11 + vec.y*_21 + vec.z*_31 + _41,
; 235  : 			vec.x*_12 + vec.y*_22 + vec.z*_32 + _42,
; 236  : 			vec.x*_13 + vec.y*_23 + vec.z*_33 + _43 );

	mov	eax, DWORD PTR _vec$[ebp]
	fld	DWORD PTR [eax]
	mov	ecx, DWORD PTR _this$[ebp]
	fmul	DWORD PTR [ecx+8]
	mov	edx, DWORD PTR _vec$[ebp]
	fld	DWORD PTR [edx+4]
	mov	eax, DWORD PTR _this$[ebp]
	fmul	DWORD PTR [eax+24]
	faddp	ST(1), ST(0)
	mov	ecx, DWORD PTR _vec$[ebp]
	fld	DWORD PTR [ecx+8]
	mov	edx, DWORD PTR _this$[ebp]
	fmul	DWORD PTR [edx+40]
	faddp	ST(1), ST(0)
	mov	eax, DWORD PTR _this$[ebp]
	fadd	DWORD PTR [eax+56]
	fstp	DWORD PTR tv166[ebp]
	fld	DWORD PTR tv166[ebp]
	push	ecx
	fstp	DWORD PTR [esp]
	mov	ecx, DWORD PTR _vec$[ebp]
	fld	DWORD PTR [ecx]
	mov	edx, DWORD PTR _this$[ebp]
	fmul	DWORD PTR [edx+4]
	mov	eax, DWORD PTR _vec$[ebp]
	fld	DWORD PTR [eax+4]
	mov	ecx, DWORD PTR _this$[ebp]
	fmul	DWORD PTR [ecx+20]
	faddp	ST(1), ST(0)
	mov	edx, DWORD PTR _vec$[ebp]
	fld	DWORD PTR [edx+8]
	mov	eax, DWORD PTR _this$[ebp]
	fmul	DWORD PTR [eax+36]
	faddp	ST(1), ST(0)
	mov	ecx, DWORD PTR _this$[ebp]
	fadd	DWORD PTR [ecx+52]
	fstp	DWORD PTR tv174[ebp]
	fld	DWORD PTR tv174[ebp]
	push	ecx
	fstp	DWORD PTR [esp]
	mov	edx, DWORD PTR _vec$[ebp]
	fld	DWORD PTR [edx]
	mov	eax, DWORD PTR _this$[ebp]
	fmul	DWORD PTR [eax]
	mov	ecx, DWORD PTR _vec$[ebp]
	fld	DWORD PTR [ecx+4]
	mov	edx, DWORD PTR _this$[ebp]
	fmul	DWORD PTR [edx+16]
	faddp	ST(1), ST(0)
	mov	eax, DWORD PTR _vec$[ebp]
	fld	DWORD PTR [eax+8]
	mov	ecx, DWORD PTR _this$[ebp]
	fmul	DWORD PTR [ecx+32]
	faddp	ST(1), ST(0)
	mov	edx, DWORD PTR _this$[ebp]
	fadd	DWORD PTR [edx+48]
	fstp	DWORD PTR tv182[ebp]
	fld	DWORD PTR tv182[ebp]
	push	ecx
	fstp	DWORD PTR [esp]
	mov	ecx, DWORD PTR ___$ReturnUdt$[ebp]
	call	??0Vector3@Ogre@@QAE@MMM@Z		; Ogre::Vector3::Vector3
	mov	eax, DWORD PTR ___$ReturnUdt$[ebp]

; 237  : 	}

	mov	esp, ebp
	pop	ebp
	ret	8
?transformCoord@Matrix4@Ogre@@QBE?AVVector3@2@ABV32@@Z ENDP ; Ogre::Matrix4::transformCoord
_TEXT	ENDS
PUBLIC	??0BoxBound@Ogre@@QAE@XZ			; Ogre::BoxBound::BoxBound
; Function compile flags: /Odtp
; File i:\svnroot\client\ogremain\ogrebounding.h
;	COMDAT ??0BoxBound@Ogre@@QAE@XZ
_TEXT	SEGMENT
_this$ = -4						; size = 4
??0BoxBound@Ogre@@QAE@XZ PROC				; Ogre::BoxBound::BoxBound, COMDAT
; _this$ = ecx

; 14   : 		BoxBound() : m_isValid(false){}

	push	ebp
	mov	ebp, esp
	push	ecx
	mov	DWORD PTR _this$[ebp], ecx
	mov	ecx, DWORD PTR _this$[ebp]
	call	??0Vector3@Ogre@@QAE@XZ			; Ogre::Vector3::Vector3
	mov	ecx, DWORD PTR _this$[ebp]
	add	ecx, 12					; 0000000cH
	call	??0Vector3@Ogre@@QAE@XZ			; Ogre::Vector3::Vector3
	mov	eax, DWORD PTR _this$[ebp]
	mov	BYTE PTR [eax+24], 0
	mov	eax, DWORD PTR _this$[ebp]
	mov	esp, ebp
	pop	ebp
	ret	0
??0BoxBound@Ogre@@QAE@XZ ENDP				; Ogre::BoxBound::BoxBound
_TEXT	ENDS
PUBLIC	??0BoxBound@Ogre@@QAE@ABVVector3@1@0@Z		; Ogre::BoxBound::BoxBound
; Function compile flags: /Odtp
;	COMDAT ??0BoxBound@Ogre@@QAE@ABVVector3@1@0@Z
_TEXT	SEGMENT
_this$ = -4						; size = 4
_minpos$ = 8						; size = 4
_maxpos$ = 12						; size = 4
??0BoxBound@Ogre@@QAE@ABVVector3@1@0@Z PROC		; Ogre::BoxBound::BoxBound, COMDAT
; _this$ = ecx

; 15   : 		BoxBound(const Vector3 &minpos, const Vector3 &maxpos) : m_MinPos(minpos), m_MaxPos(maxpos), m_isValid(true){}

	push	ebp
	mov	ebp, esp
	push	ecx
	mov	DWORD PTR _this$[ebp], ecx
	mov	eax, DWORD PTR _minpos$[ebp]
	push	eax
	mov	ecx, DWORD PTR _this$[ebp]
	call	??0Vector3@Ogre@@QAE@ABV01@@Z		; Ogre::Vector3::Vector3
	mov	ecx, DWORD PTR _maxpos$[ebp]
	push	ecx
	mov	ecx, DWORD PTR _this$[ebp]
	add	ecx, 12					; 0000000cH
	call	??0Vector3@Ogre@@QAE@ABV01@@Z		; Ogre::Vector3::Vector3
	mov	edx, DWORD PTR _this$[ebp]
	mov	BYTE PTR [edx+24], 1
	mov	eax, DWORD PTR _this$[ebp]
	mov	esp, ebp
	pop	ebp
	ret	8
??0BoxBound@Ogre@@QAE@ABVVector3@1@0@Z ENDP		; Ogre::BoxBound::BoxBound
_TEXT	ENDS
PUBLIC	??0BoxBound@Ogre@@QAE@ABV01@@Z			; Ogre::BoxBound::BoxBound
; Function compile flags: /Odtp
;	COMDAT ??0BoxBound@Ogre@@QAE@ABV01@@Z
_TEXT	SEGMENT
_this$ = -4						; size = 4
_rhs$ = 8						; size = 4
??0BoxBound@Ogre@@QAE@ABV01@@Z PROC			; Ogre::BoxBound::BoxBound, COMDAT
; _this$ = ecx

; 16   : 		BoxBound(const BoxBound &rhs) : m_MinPos(rhs.m_MinPos), m_MaxPos(rhs.m_MaxPos), m_isValid(rhs.m_isValid){}

	push	ebp
	mov	ebp, esp
	push	ecx
	mov	DWORD PTR _this$[ebp], ecx
	mov	eax, DWORD PTR _rhs$[ebp]
	push	eax
	mov	ecx, DWORD PTR _this$[ebp]
	call	??0Vector3@Ogre@@QAE@ABV01@@Z		; Ogre::Vector3::Vector3
	mov	ecx, DWORD PTR _rhs$[ebp]
	add	ecx, 12					; 0000000cH
	push	ecx
	mov	ecx, DWORD PTR _this$[ebp]
	add	ecx, 12					; 0000000cH
	call	??0Vector3@Ogre@@QAE@ABV01@@Z		; Ogre::Vector3::Vector3
	mov	edx, DWORD PTR _this$[ebp]
	mov	eax, DWORD PTR _rhs$[ebp]
	mov	cl, BYTE PTR [eax+24]
	mov	BYTE PTR [edx+24], cl
	mov	eax, DWORD PTR _this$[ebp]
	mov	esp, ebp
	pop	ebp
	ret	4
??0BoxBound@Ogre@@QAE@ABV01@@Z ENDP			; Ogre::BoxBound::BoxBound
_TEXT	ENDS
PUBLIC	??$Max@M@Ogre@@YAMABM0@Z			; Ogre::Max<float>
PUBLIC	??$Min@M@Ogre@@YAMABM0@Z			; Ogre::Min<float>
PUBLIC	??YBoxBound@Ogre@@QAEAAV01@ABVVector3@1@@Z	; Ogre::BoxBound::operator+=
; Function compile flags: /Odtp
;	COMDAT ??YBoxBound@Ogre@@QAEAAV01@ABVVector3@1@@Z
_TEXT	SEGMENT
_this$ = -4						; size = 4
_Other$ = 8						; size = 4
??YBoxBound@Ogre@@QAEAAV01@ABVVector3@1@@Z PROC		; Ogre::BoxBound::operator+=, COMDAT
; _this$ = ecx

; 19   : 		{

	push	ebp
	mov	ebp, esp
	push	ecx
	mov	DWORD PTR _this$[ebp], ecx

; 20   : 			if( m_isValid )

	mov	eax, DWORD PTR _this$[ebp]
	movzx	ecx, BYTE PTR [eax+24]
	test	ecx, ecx
	je	$LN2@operator@4

; 21   : 			{
; 22   : #if ASM_x86
; 23   : 				__asm
; 24   : 				{
; 25   : 						mov		eax,[Other]
; 26   : 						mov		ecx,[this]
; 27   : 
; 28   : 						movss	xmm3,[eax]Vector3.x
; 29   : 						movss	xmm4,[eax]Vector3.y
; 30   : 						movss	xmm5,[eax]Vector3.z
; 31   : 
; 32   : 						movss	xmm0,[ecx]BoxBound.m_MinPos.x
; 33   : 						movss	xmm1,[ecx]BoxBound.m_MinPos.y
; 34   : 						movss	xmm2,[ecx]BoxBound.m_MinPos.z
; 35   : 						minss	xmm0,xmm3
; 36   : 						minss	xmm1,xmm4
; 37   : 						minss	xmm2,xmm5
; 38   : 						movss	[ecx]BoxBound.m_MinPos.x,xmm0
; 39   : 						movss	[ecx]BoxBound.m_MinPos.y,xmm1
; 40   : 						movss	[ecx]BoxBound.m_MinPos.z,xmm2
; 41   : 
; 42   : 						movss	xmm0,[ecx]BoxBound.m_MaxPos.x
; 43   : 						movss	xmm1,[ecx]BoxBound.m_MaxPos.y
; 44   : 						movss	xmm2,[ecx]BoxBound.m_MaxPos.z
; 45   : 						maxss	xmm0,xmm3
; 46   : 						maxss	xmm1,xmm4
; 47   : 						maxss	xmm2,xmm5
; 48   : 						movss	[ecx]BoxBound.m_MaxPos.x,xmm0
; 49   : 						movss	[ecx]BoxBound.m_MaxPos.y,xmm1
; 50   : 						movss	[ecx]BoxBound.m_MaxPos.z,xmm2
; 51   : 				}
; 52   : #else
; 53   : 				m_MinPos.x = Min( m_MinPos.x, Other.x );

	mov	edx, DWORD PTR _Other$[ebp]
	push	edx
	mov	eax, DWORD PTR _this$[ebp]
	push	eax
	call	??$Min@M@Ogre@@YAMABM0@Z		; Ogre::Min<float>
	add	esp, 8
	mov	ecx, DWORD PTR _this$[ebp]
	fstp	DWORD PTR [ecx]

; 54   : 				m_MinPos.y = Min( m_MinPos.y, Other.y );

	mov	edx, DWORD PTR _Other$[ebp]
	add	edx, 4
	push	edx
	mov	eax, DWORD PTR _this$[ebp]
	add	eax, 4
	push	eax
	call	??$Min@M@Ogre@@YAMABM0@Z		; Ogre::Min<float>
	add	esp, 8
	mov	ecx, DWORD PTR _this$[ebp]
	fstp	DWORD PTR [ecx+4]

; 55   : 				m_MinPos.z = Min( m_MinPos.z, Other.z );

	mov	edx, DWORD PTR _Other$[ebp]
	add	edx, 8
	push	edx
	mov	eax, DWORD PTR _this$[ebp]
	add	eax, 8
	push	eax
	call	??$Min@M@Ogre@@YAMABM0@Z		; Ogre::Min<float>
	add	esp, 8
	mov	ecx, DWORD PTR _this$[ebp]
	fstp	DWORD PTR [ecx+8]

; 56   : 
; 57   : 				m_MaxPos.x = Max( m_MaxPos.x, Other.x );

	mov	edx, DWORD PTR _Other$[ebp]
	push	edx
	mov	eax, DWORD PTR _this$[ebp]
	add	eax, 12					; 0000000cH
	push	eax
	call	??$Max@M@Ogre@@YAMABM0@Z		; Ogre::Max<float>
	add	esp, 8
	mov	ecx, DWORD PTR _this$[ebp]
	fstp	DWORD PTR [ecx+12]

; 58   : 				m_MaxPos.y = Max( m_MaxPos.y, Other.y );

	mov	edx, DWORD PTR _Other$[ebp]
	add	edx, 4
	push	edx
	mov	eax, DWORD PTR _this$[ebp]
	add	eax, 16					; 00000010H
	push	eax
	call	??$Max@M@Ogre@@YAMABM0@Z		; Ogre::Max<float>
	add	esp, 8
	mov	ecx, DWORD PTR _this$[ebp]
	fstp	DWORD PTR [ecx+16]

; 59   : 				m_MaxPos.z = Max( m_MaxPos.z, Other.z );

	mov	edx, DWORD PTR _Other$[ebp]
	add	edx, 8
	push	edx
	mov	eax, DWORD PTR _this$[ebp]
	add	eax, 20					; 00000014H
	push	eax
	call	??$Max@M@Ogre@@YAMABM0@Z		; Ogre::Max<float>
	add	esp, 8
	mov	ecx, DWORD PTR _this$[ebp]
	fstp	DWORD PTR [ecx+20]

; 60   : #endif
; 61   : 			}
; 62   : 			else

	jmp	SHORT $LN1@operator@4
$LN2@operator@4:

; 63   : 			{
; 64   : 				m_MinPos = m_MaxPos = Other;

	mov	edx, DWORD PTR _Other$[ebp]
	push	edx
	mov	ecx, DWORD PTR _this$[ebp]
	add	ecx, 12					; 0000000cH
	call	??4Vector3@Ogre@@QAEABV01@ABV01@@Z	; Ogre::Vector3::operator=
	push	eax
	mov	ecx, DWORD PTR _this$[ebp]
	call	??4Vector3@Ogre@@QAEABV01@ABV01@@Z	; Ogre::Vector3::operator=

; 65   : 				m_isValid = true;

	mov	eax, DWORD PTR _this$[ebp]
	mov	BYTE PTR [eax+24], 1
$LN1@operator@4:

; 66   : 			}
; 67   : 			return *this;

	mov	eax, DWORD PTR _this$[ebp]

; 68   : 		}

	mov	esp, ebp
	pop	ebp
	ret	4
??YBoxBound@Ogre@@QAEAAV01@ABVVector3@1@@Z ENDP		; Ogre::BoxBound::operator+=
_TEXT	ENDS
PUBLIC	??4BoxBound@Ogre@@QAEAAV01@ABV01@@Z		; Ogre::BoxBound::operator=
PUBLIC	??YBoxBound@Ogre@@QAEAAV01@ABV01@@Z		; Ogre::BoxBound::operator+=
; Function compile flags: /Odtp
;	COMDAT ??YBoxBound@Ogre@@QAEAAV01@ABV01@@Z
_TEXT	SEGMENT
_this$ = -4						; size = 4
_Other$ = 8						; size = 4
??YBoxBound@Ogre@@QAEAAV01@ABV01@@Z PROC		; Ogre::BoxBound::operator+=, COMDAT
; _this$ = ecx

; 71   : 		{

	push	ebp
	mov	ebp, esp
	push	ecx
	mov	DWORD PTR _this$[ebp], ecx

; 72   : 			if( m_isValid && Other.m_isValid )

	mov	eax, DWORD PTR _this$[ebp]
	movzx	ecx, BYTE PTR [eax+24]
	test	ecx, ecx
	je	$LN3@operator@5
	mov	edx, DWORD PTR _Other$[ebp]
	movzx	eax, BYTE PTR [edx+24]
	test	eax, eax
	je	$LN3@operator@5

; 73   : 			{
; 74   : #if ASM_X86
; 75   : 				__asm
; 76   : 				{
; 77   : 						mov		eax,[Other]
; 78   : 						mov		ecx,[this]
; 79   : 
; 80   : 						movss	xmm0,[ecx]BoxBound.m_MinPos.x
; 81   : 						movss	xmm1,[ecx]BoxBound.m_MinPos.y
; 82   : 						movss	xmm2,[ecx]BoxBound.m_MinPos.z
; 83   : 						minss	xmm0,[eax]BoxBound.m_MinPos.x
; 84   : 						minss	xmm1,[eax]BoxBound.m_MinPos.y
; 85   : 						minss	xmm2,[eax]BoxBound.m_MinPos.z
; 86   : 						movss	[ecx]BoxBound.m_MinPos.x,xmm0
; 87   : 						movss	[ecx]BoxBound.m_MinPos.y,xmm1
; 88   : 						movss	[ecx]BoxBound.m_MinPos.z,xmm2
; 89   : 
; 90   : 						movss	xmm0,[ecx]BoxBound.m_MaxPos.x
; 91   : 						movss	xmm1,[ecx]BoxBound.m_MaxPos.y
; 92   : 						movss	xmm2,[ecx]BoxBound.m_MaxPos.z
; 93   : 						maxss	xmm0,[eax]BoxBound.m_MaxPos.x
; 94   : 						maxss	xmm1,[eax]BoxBound.m_MaxPos.y
; 95   : 						maxss	xmm2,[eax]BoxBound.m_MaxPos.z
; 96   : 						movss	[ecx]BoxBound.m_MaxPos.x,xmm0
; 97   : 						movss	[ecx]BoxBound.m_MaxPos.y,xmm1
; 98   : 						movss	[ecx]BoxBound.m_MaxPos.z,xmm2
; 99   : 				}
; 100  : #else
; 101  : 				m_MinPos.x = Min( m_MinPos.x, Other.m_MinPos.x );

	mov	ecx, DWORD PTR _Other$[ebp]
	push	ecx
	mov	edx, DWORD PTR _this$[ebp]
	push	edx
	call	??$Min@M@Ogre@@YAMABM0@Z		; Ogre::Min<float>
	add	esp, 8
	mov	eax, DWORD PTR _this$[ebp]
	fstp	DWORD PTR [eax]

; 102  : 				m_MinPos.y = Min( m_MinPos.y, Other.m_MinPos.y );

	mov	ecx, DWORD PTR _Other$[ebp]
	add	ecx, 4
	push	ecx
	mov	edx, DWORD PTR _this$[ebp]
	add	edx, 4
	push	edx
	call	??$Min@M@Ogre@@YAMABM0@Z		; Ogre::Min<float>
	add	esp, 8
	mov	eax, DWORD PTR _this$[ebp]
	fstp	DWORD PTR [eax+4]

; 103  : 				m_MinPos.z = Min( m_MinPos.z, Other.m_MinPos.z );

	mov	ecx, DWORD PTR _Other$[ebp]
	add	ecx, 8
	push	ecx
	mov	edx, DWORD PTR _this$[ebp]
	add	edx, 8
	push	edx
	call	??$Min@M@Ogre@@YAMABM0@Z		; Ogre::Min<float>
	add	esp, 8
	mov	eax, DWORD PTR _this$[ebp]
	fstp	DWORD PTR [eax+8]

; 104  : 
; 105  : 				m_MaxPos.x = Max( m_MaxPos.x, Other.m_MaxPos.x );

	mov	ecx, DWORD PTR _Other$[ebp]
	add	ecx, 12					; 0000000cH
	push	ecx
	mov	edx, DWORD PTR _this$[ebp]
	add	edx, 12					; 0000000cH
	push	edx
	call	??$Max@M@Ogre@@YAMABM0@Z		; Ogre::Max<float>
	add	esp, 8
	mov	eax, DWORD PTR _this$[ebp]
	fstp	DWORD PTR [eax+12]

; 106  : 				m_MaxPos.y = Max( m_MaxPos.y, Other.m_MaxPos.y );

	mov	ecx, DWORD PTR _Other$[ebp]
	add	ecx, 16					; 00000010H
	push	ecx
	mov	edx, DWORD PTR _this$[ebp]
	add	edx, 16					; 00000010H
	push	edx
	call	??$Max@M@Ogre@@YAMABM0@Z		; Ogre::Max<float>
	add	esp, 8
	mov	eax, DWORD PTR _this$[ebp]
	fstp	DWORD PTR [eax+16]

; 107  : 				m_MaxPos.z = Max( m_MaxPos.z, Other.m_MaxPos.z );

	mov	ecx, DWORD PTR _Other$[ebp]
	add	ecx, 20					; 00000014H
	push	ecx
	mov	edx, DWORD PTR _this$[ebp]
	add	edx, 20					; 00000014H
	push	edx
	call	??$Max@M@Ogre@@YAMABM0@Z		; Ogre::Max<float>
	add	esp, 8
	mov	eax, DWORD PTR _this$[ebp]
	fstp	DWORD PTR [eax+20]
	jmp	SHORT $LN1@operator@5
$LN3@operator@5:

; 108  : #endif
; 109  : 			}
; 110  : 			else if( Other.m_isValid )

	mov	ecx, DWORD PTR _Other$[ebp]
	movzx	edx, BYTE PTR [ecx+24]
	test	edx, edx
	je	SHORT $LN1@operator@5

; 111  : 			{
; 112  : 				*this = Other;

	mov	eax, DWORD PTR _Other$[ebp]
	push	eax
	mov	ecx, DWORD PTR _this$[ebp]
	call	??4BoxBound@Ogre@@QAEAAV01@ABV01@@Z
$LN1@operator@5:

; 113  : 			}
; 114  : 			return *this;

	mov	eax, DWORD PTR _this$[ebp]

; 115  : 		}

	mov	esp, ebp
	pop	ebp
	ret	4
??YBoxBound@Ogre@@QAEAAV01@ABV01@@Z ENDP		; Ogre::BoxBound::operator+=
_TEXT	ENDS
PUBLIC	?setRange@BoxBound@Ogre@@QAEXABVVector3@2@0@Z	; Ogre::BoxBound::setRange
; Function compile flags: /Odtp
;	COMDAT ?setRange@BoxBound@Ogre@@QAEXABVVector3@2@0@Z
_TEXT	SEGMENT
_this$ = -4						; size = 4
_minpt$ = 8						; size = 4
_maxpt$ = 12						; size = 4
?setRange@BoxBound@Ogre@@QAEXABVVector3@2@0@Z PROC	; Ogre::BoxBound::setRange, COMDAT
; _this$ = ecx

; 118  : 		{

	push	ebp
	mov	ebp, esp
	push	ecx
	mov	DWORD PTR _this$[ebp], ecx

; 119  : 			m_MinPos = minpt;

	mov	eax, DWORD PTR _minpt$[ebp]
	push	eax
	mov	ecx, DWORD PTR _this$[ebp]
	call	??4Vector3@Ogre@@QAEABV01@ABV01@@Z	; Ogre::Vector3::operator=

; 120  : 			m_MaxPos = maxpt;

	mov	ecx, DWORD PTR _maxpt$[ebp]
	push	ecx
	mov	ecx, DWORD PTR _this$[ebp]
	add	ecx, 12					; 0000000cH
	call	??4Vector3@Ogre@@QAEABV01@ABV01@@Z	; Ogre::Vector3::operator=

; 121  : 			m_isValid = true;

	mov	edx, DWORD PTR _this$[ebp]
	mov	BYTE PTR [edx+24], 1

; 122  : 		}

	mov	esp, ebp
	pop	ebp
	ret	8
?setRange@BoxBound@Ogre@@QAEXABVVector3@2@0@Z ENDP	; Ogre::BoxBound::setRange
_TEXT	ENDS
PUBLIC	??HOgre@@YA?AVVector3@0@ABV10@0@Z		; Ogre::operator+
PUBLIC	??GOgre@@YA?AVVector3@0@ABV10@0@Z		; Ogre::operator-
PUBLIC	?setCenterExtension@BoxBound@Ogre@@QAEXABVVector3@2@0@Z ; Ogre::BoxBound::setCenterExtension
; Function compile flags: /Odtp
;	COMDAT ?setCenterExtension@BoxBound@Ogre@@QAEXABVVector3@2@0@Z
_TEXT	SEGMENT
_this$ = -28						; size = 4
$T65139 = -24						; size = 12
$T65138 = -12						; size = 12
_center$ = 8						; size = 4
_exten$ = 12						; size = 4
?setCenterExtension@BoxBound@Ogre@@QAEXABVVector3@2@0@Z PROC ; Ogre::BoxBound::setCenterExtension, COMDAT
; _this$ = ecx

; 125  : 		{

	push	ebp
	mov	ebp, esp
	sub	esp, 28					; 0000001cH
	mov	DWORD PTR _this$[ebp], ecx

; 126  : 			m_MinPos = center-exten;

	mov	eax, DWORD PTR _exten$[ebp]
	push	eax
	mov	ecx, DWORD PTR _center$[ebp]
	push	ecx
	lea	edx, DWORD PTR $T65138[ebp]
	push	edx
	call	??GOgre@@YA?AVVector3@0@ABV10@0@Z	; Ogre::operator-
	add	esp, 12					; 0000000cH
	push	eax
	mov	ecx, DWORD PTR _this$[ebp]
	call	??4Vector3@Ogre@@QAEABV01@ABV01@@Z	; Ogre::Vector3::operator=

; 127  : 			m_MaxPos = center+exten;

	mov	eax, DWORD PTR _exten$[ebp]
	push	eax
	mov	ecx, DWORD PTR _center$[ebp]
	push	ecx
	lea	edx, DWORD PTR $T65139[ebp]
	push	edx
	call	??HOgre@@YA?AVVector3@0@ABV10@0@Z	; Ogre::operator+
	add	esp, 12					; 0000000cH
	push	eax
	mov	ecx, DWORD PTR _this$[ebp]
	add	ecx, 12					; 0000000cH
	call	??4Vector3@Ogre@@QAEABV01@ABV01@@Z	; Ogre::Vector3::operator=

; 128  : 			m_isValid = true;

	mov	eax, DWORD PTR _this$[ebp]
	mov	BYTE PTR [eax+24], 1

; 129  : 		}

	mov	esp, ebp
	pop	ebp
	ret	8
?setCenterExtension@BoxBound@Ogre@@QAEXABVVector3@2@0@Z ENDP ; Ogre::BoxBound::setCenterExtension
; Function compile flags: /Odtp
; File i:\svnroot\client\ogremain\ogrevector3.h
_TEXT	ENDS
;	COMDAT ??HOgre@@YA?AVVector3@0@ABV10@0@Z
_TEXT	SEGMENT
tv92 = -12						; size = 4
tv89 = -8						; size = 4
tv86 = -4						; size = 4
___$ReturnUdt$ = 8					; size = 4
_v1$ = 12						; size = 4
_v2$ = 16						; size = 4
??HOgre@@YA?AVVector3@0@ABV10@0@Z PROC			; Ogre::operator+, COMDAT

; 164  : 	{

	push	ebp
	mov	ebp, esp
	sub	esp, 12					; 0000000cH

; 165  : 		return Vector3(v1.x+v2.x, v1.y+v2.y, v1.z+v2.z);

	mov	eax, DWORD PTR _v1$[ebp]
	fld	DWORD PTR [eax+8]
	mov	ecx, DWORD PTR _v2$[ebp]
	fadd	DWORD PTR [ecx+8]
	fstp	DWORD PTR tv86[ebp]
	fld	DWORD PTR tv86[ebp]
	push	ecx
	fstp	DWORD PTR [esp]
	mov	edx, DWORD PTR _v1$[ebp]
	fld	DWORD PTR [edx+4]
	mov	eax, DWORD PTR _v2$[ebp]
	fadd	DWORD PTR [eax+4]
	fstp	DWORD PTR tv89[ebp]
	fld	DWORD PTR tv89[ebp]
	push	ecx
	fstp	DWORD PTR [esp]
	mov	ecx, DWORD PTR _v1$[ebp]
	fld	DWORD PTR [ecx]
	mov	edx, DWORD PTR _v2$[ebp]
	fadd	DWORD PTR [edx]
	fstp	DWORD PTR tv92[ebp]
	fld	DWORD PTR tv92[ebp]
	push	ecx
	fstp	DWORD PTR [esp]
	mov	ecx, DWORD PTR ___$ReturnUdt$[ebp]
	call	??0Vector3@Ogre@@QAE@MMM@Z		; Ogre::Vector3::Vector3
	mov	eax, DWORD PTR ___$ReturnUdt$[ebp]

; 166  : 	}

	mov	esp, ebp
	pop	ebp
	ret	0
??HOgre@@YA?AVVector3@0@ABV10@0@Z ENDP			; Ogre::operator+
; Function compile flags: /Odtp
_TEXT	ENDS
;	COMDAT ??GOgre@@YA?AVVector3@0@ABV10@0@Z
_TEXT	SEGMENT
tv92 = -12						; size = 4
tv89 = -8						; size = 4
tv86 = -4						; size = 4
___$ReturnUdt$ = 8					; size = 4
_v1$ = 12						; size = 4
_v2$ = 16						; size = 4
??GOgre@@YA?AVVector3@0@ABV10@0@Z PROC			; Ogre::operator-, COMDAT

; 174  : 	{

	push	ebp
	mov	ebp, esp
	sub	esp, 12					; 0000000cH

; 175  : 		return Vector3(v1.x-v2.x, v1.y-v2.y, v1.z-v2.z);

	mov	eax, DWORD PTR _v1$[ebp]
	fld	DWORD PTR [eax+8]
	mov	ecx, DWORD PTR _v2$[ebp]
	fsub	DWORD PTR [ecx+8]
	fstp	DWORD PTR tv86[ebp]
	fld	DWORD PTR tv86[ebp]
	push	ecx
	fstp	DWORD PTR [esp]
	mov	edx, DWORD PTR _v1$[ebp]
	fld	DWORD PTR [edx+4]
	mov	eax, DWORD PTR _v2$[ebp]
	fsub	DWORD PTR [eax+4]
	fstp	DWORD PTR tv89[ebp]
	fld	DWORD PTR tv89[ebp]
	push	ecx
	fstp	DWORD PTR [esp]
	mov	ecx, DWORD PTR _v1$[ebp]
	fld	DWORD PTR [ecx]
	mov	edx, DWORD PTR _v2$[ebp]
	fsub	DWORD PTR [edx]
	fstp	DWORD PTR tv92[ebp]
	fld	DWORD PTR tv92[ebp]
	push	ecx
	fstp	DWORD PTR [esp]
	mov	ecx, DWORD PTR ___$ReturnUdt$[ebp]
	call	??0Vector3@Ogre@@QAE@MMM@Z		; Ogre::Vector3::Vector3
	mov	eax, DWORD PTR ___$ReturnUdt$[ebp]

; 176  : 	}

	mov	esp, ebp
	pop	ebp
	ret	0
??GOgre@@YA?AVVector3@0@ABV10@0@Z ENDP			; Ogre::operator-
_TEXT	ENDS
PUBLIC	?expandBy@BoxBound@Ogre@@QBE?AV12@M@Z		; Ogre::BoxBound::expandBy
; Function compile flags: /Odtp
; File i:\svnroot\client\ogremain\ogrebounding.h
;	COMDAT ?expandBy@BoxBound@Ogre@@QBE?AV12@M@Z
_TEXT	SEGMENT
_this$ = -52						; size = 4
$T65149 = -48						; size = 12
$T65148 = -36						; size = 12
$T65147 = -24						; size = 12
$T65146 = -12						; size = 12
___$ReturnUdt$ = 8					; size = 4
_w$ = 12						; size = 4
?expandBy@BoxBound@Ogre@@QBE?AV12@M@Z PROC		; Ogre::BoxBound::expandBy, COMDAT
; _this$ = ecx

; 134  : 		{

	push	ebp
	mov	ebp, esp
	sub	esp, 52					; 00000034H
	mov	DWORD PTR _this$[ebp], ecx

; 135  : 			return BoxBound( m_MinPos - Vector3(w,w,w), m_MaxPos + Vector3(w,w,w) );

	push	ecx
	fld	DWORD PTR _w$[ebp]
	fstp	DWORD PTR [esp]
	push	ecx
	fld	DWORD PTR _w$[ebp]
	fstp	DWORD PTR [esp]
	push	ecx
	fld	DWORD PTR _w$[ebp]
	fstp	DWORD PTR [esp]
	lea	ecx, DWORD PTR $T65146[ebp]
	call	??0Vector3@Ogre@@QAE@MMM@Z		; Ogre::Vector3::Vector3
	push	eax
	mov	eax, DWORD PTR _this$[ebp]
	add	eax, 12					; 0000000cH
	push	eax
	lea	ecx, DWORD PTR $T65147[ebp]
	push	ecx
	call	??HOgre@@YA?AVVector3@0@ABV10@0@Z	; Ogre::operator+
	add	esp, 12					; 0000000cH
	push	eax
	push	ecx
	fld	DWORD PTR _w$[ebp]
	fstp	DWORD PTR [esp]
	push	ecx
	fld	DWORD PTR _w$[ebp]
	fstp	DWORD PTR [esp]
	push	ecx
	fld	DWORD PTR _w$[ebp]
	fstp	DWORD PTR [esp]
	lea	ecx, DWORD PTR $T65148[ebp]
	call	??0Vector3@Ogre@@QAE@MMM@Z		; Ogre::Vector3::Vector3
	push	eax
	mov	edx, DWORD PTR _this$[ebp]
	push	edx
	lea	eax, DWORD PTR $T65149[ebp]
	push	eax
	call	??GOgre@@YA?AVVector3@0@ABV10@0@Z	; Ogre::operator-
	add	esp, 12					; 0000000cH
	push	eax
	mov	ecx, DWORD PTR ___$ReturnUdt$[ebp]
	call	??0BoxBound@Ogre@@QAE@ABVVector3@1@0@Z	; Ogre::BoxBound::BoxBound
	mov	eax, DWORD PTR ___$ReturnUdt$[ebp]

; 136  : 		}

	mov	esp, ebp
	pop	ebp
	ret	8
?expandBy@BoxBound@Ogre@@QBE?AV12@M@Z ENDP		; Ogre::BoxBound::expandBy
_TEXT	ENDS
PUBLIC	??DOgre@@YA?AVVector3@0@ABV10@M@Z		; Ogre::operator*
PUBLIC	__real@3f000000
PUBLIC	?getCenter@BoxBound@Ogre@@QBE?AVVector3@2@XZ	; Ogre::BoxBound::getCenter
;	COMDAT __real@3f000000
CONST	SEGMENT
__real@3f000000 DD 03f000000r			; 0.5
; Function compile flags: /Odtp
CONST	ENDS
;	COMDAT ?getCenter@BoxBound@Ogre@@QBE?AVVector3@2@XZ
_TEXT	SEGMENT
_this$ = -16						; size = 4
$T65152 = -12						; size = 12
___$ReturnUdt$ = 8					; size = 4
?getCenter@BoxBound@Ogre@@QBE?AVVector3@2@XZ PROC	; Ogre::BoxBound::getCenter, COMDAT
; _this$ = ecx

; 144  : 		Vector3 getCenter() const{ return (m_MinPos + m_MaxPos)*0.5f; }

	push	ebp
	mov	ebp, esp
	sub	esp, 16					; 00000010H
	mov	DWORD PTR _this$[ebp], ecx
	push	ecx
	fld	DWORD PTR __real@3f000000
	fstp	DWORD PTR [esp]
	mov	eax, DWORD PTR _this$[ebp]
	add	eax, 12					; 0000000cH
	push	eax
	mov	ecx, DWORD PTR _this$[ebp]
	push	ecx
	lea	edx, DWORD PTR $T65152[ebp]
	push	edx
	call	??HOgre@@YA?AVVector3@0@ABV10@0@Z	; Ogre::operator+
	add	esp, 12					; 0000000cH
	push	eax
	mov	eax, DWORD PTR ___$ReturnUdt$[ebp]
	push	eax
	call	??DOgre@@YA?AVVector3@0@ABV10@M@Z	; Ogre::operator*
	add	esp, 12					; 0000000cH
	mov	eax, DWORD PTR ___$ReturnUdt$[ebp]
	mov	esp, ebp
	pop	ebp
	ret	4
?getCenter@BoxBound@Ogre@@QBE?AVVector3@2@XZ ENDP	; Ogre::BoxBound::getCenter
; Function compile flags: /Odtp
; File i:\svnroot\client\ogremain\ogrevector3.h
_TEXT	ENDS
;	COMDAT ??DOgre@@YA?AVVector3@0@ABV10@M@Z
_TEXT	SEGMENT
tv87 = -12						; size = 4
tv85 = -8						; size = 4
tv83 = -4						; size = 4
___$ReturnUdt$ = 8					; size = 4
_v1$ = 12						; size = 4
_s$ = 16						; size = 4
??DOgre@@YA?AVVector3@0@ABV10@M@Z PROC			; Ogre::operator*, COMDAT

; 189  : 	{

	push	ebp
	mov	ebp, esp
	sub	esp, 12					; 0000000cH

; 190  : 		return Vector3(v1.x*s, v1.y*s, v1.z*s);

	mov	eax, DWORD PTR _v1$[ebp]
	fld	DWORD PTR [eax+8]
	fmul	DWORD PTR _s$[ebp]
	fstp	DWORD PTR tv83[ebp]
	fld	DWORD PTR tv83[ebp]
	push	ecx
	fstp	DWORD PTR [esp]
	mov	ecx, DWORD PTR _v1$[ebp]
	fld	DWORD PTR [ecx+4]
	fmul	DWORD PTR _s$[ebp]
	fstp	DWORD PTR tv85[ebp]
	fld	DWORD PTR tv85[ebp]
	push	ecx
	fstp	DWORD PTR [esp]
	mov	edx, DWORD PTR _v1$[ebp]
	fld	DWORD PTR [edx]
	fmul	DWORD PTR _s$[ebp]
	fstp	DWORD PTR tv87[ebp]
	fld	DWORD PTR tv87[ebp]
	push	ecx
	fstp	DWORD PTR [esp]
	mov	ecx, DWORD PTR ___$ReturnUdt$[ebp]
	call	??0Vector3@Ogre@@QAE@MMM@Z		; Ogre::Vector3::Vector3
	mov	eax, DWORD PTR ___$ReturnUdt$[ebp]

; 191  : 	}

	mov	esp, ebp
	pop	ebp
	ret	0
??DOgre@@YA?AVVector3@0@ABV10@M@Z ENDP			; Ogre::operator*
_TEXT	ENDS
PUBLIC	?getExtension@BoxBound@Ogre@@QBE?AVVector3@2@XZ	; Ogre::BoxBound::getExtension
; Function compile flags: /Odtp
; File i:\svnroot\client\ogremain\ogrebounding.h
;	COMDAT ?getExtension@BoxBound@Ogre@@QBE?AVVector3@2@XZ
_TEXT	SEGMENT
_this$ = -16						; size = 4
$T65159 = -12						; size = 12
___$ReturnUdt$ = 8					; size = 4
?getExtension@BoxBound@Ogre@@QBE?AVVector3@2@XZ PROC	; Ogre::BoxBound::getExtension, COMDAT
; _this$ = ecx

; 145  : 		Vector3 getExtension() const{ return (m_MaxPos - m_MinPos)*0.5f; }

	push	ebp
	mov	ebp, esp
	sub	esp, 16					; 00000010H
	mov	DWORD PTR _this$[ebp], ecx
	push	ecx
	fld	DWORD PTR __real@3f000000
	fstp	DWORD PTR [esp]
	mov	eax, DWORD PTR _this$[ebp]
	push	eax
	mov	ecx, DWORD PTR _this$[ebp]
	add	ecx, 12					; 0000000cH
	push	ecx
	lea	edx, DWORD PTR $T65159[ebp]
	push	edx
	call	??GOgre@@YA?AVVector3@0@ABV10@0@Z	; Ogre::operator-
	add	esp, 12					; 0000000cH
	push	eax
	mov	eax, DWORD PTR ___$ReturnUdt$[ebp]
	push	eax
	call	??DOgre@@YA?AVVector3@0@ABV10@M@Z	; Ogre::operator*
	add	esp, 12					; 0000000cH
	mov	eax, DWORD PTR ___$ReturnUdt$[ebp]
	mov	esp, ebp
	pop	ebp
	ret	4
?getExtension@BoxBound@Ogre@@QBE?AVVector3@2@XZ ENDP	; Ogre::BoxBound::getExtension
_TEXT	ENDS
PUBLIC	?getMinPos@BoxBound@Ogre@@QBEABVVector3@2@XZ	; Ogre::BoxBound::getMinPos
; Function compile flags: /Odtp
;	COMDAT ?getMinPos@BoxBound@Ogre@@QBEABVVector3@2@XZ
_TEXT	SEGMENT
_this$ = -4						; size = 4
?getMinPos@BoxBound@Ogre@@QBEABVVector3@2@XZ PROC	; Ogre::BoxBound::getMinPos, COMDAT
; _this$ = ecx

; 146  : 		const Vector3 &getMinPos() const{ return m_MinPos; }

	push	ebp
	mov	ebp, esp
	push	ecx
	mov	DWORD PTR _this$[ebp], ecx
	mov	eax, DWORD PTR _this$[ebp]
	mov	esp, ebp
	pop	ebp
	ret	0
?getMinPos@BoxBound@Ogre@@QBEABVVector3@2@XZ ENDP	; Ogre::BoxBound::getMinPos
_TEXT	ENDS
PUBLIC	?getMaxPos@BoxBound@Ogre@@QBEABVVector3@2@XZ	; Ogre::BoxBound::getMaxPos
; Function compile flags: /Odtp
;	COMDAT ?getMaxPos@BoxBound@Ogre@@QBEABVVector3@2@XZ
_TEXT	SEGMENT
_this$ = -4						; size = 4
?getMaxPos@BoxBound@Ogre@@QBEABVVector3@2@XZ PROC	; Ogre::BoxBound::getMaxPos, COMDAT
; _this$ = ecx

; 147  : 		const Vector3 &getMaxPos() const{ return m_MaxPos; }

	push	ebp
	mov	ebp, esp
	push	ecx
	mov	DWORD PTR _this$[ebp], ecx
	mov	eax, DWORD PTR _this$[ebp]
	add	eax, 12					; 0000000cH
	mov	esp, ebp
	pop	ebp
	ret	0
?getMaxPos@BoxBound@Ogre@@QBEABVVector3@2@XZ ENDP	; Ogre::BoxBound::getMaxPos
_TEXT	ENDS
PUBLIC	??$Abs@M@Ogre@@YAMABM@Z				; Ogre::Abs<float>
PUBLIC	?getRadiusInDirection@BoxBound@Ogre@@QBEMABVVector3@2@@Z ; Ogre::BoxBound::getRadiusInDirection
; Function compile flags: /Odtp
;	COMDAT ?getRadiusInDirection@BoxBound@Ogre@@QBEMABVVector3@2@@Z
_TEXT	SEGMENT
tv143 = -48						; size = 4
tv148 = -44						; size = 8
tv146 = -36						; size = 8
_this$ = -28						; size = 4
$T65168 = -24						; size = 4
$T65167 = -20						; size = 4
$T65166 = -16						; size = 4
_extent$ = -12						; size = 12
_dir$ = 8						; size = 4
?getRadiusInDirection@BoxBound@Ogre@@QBEMABVVector3@2@@Z PROC ; Ogre::BoxBound::getRadiusInDirection, COMDAT
; _this$ = ecx

; 150  : 		{

	push	ebp
	mov	ebp, esp
	sub	esp, 48					; 00000030H
	mov	DWORD PTR _this$[ebp], ecx

; 151  : 			Vector3 extent = getExtension();

	lea	eax, DWORD PTR _extent$[ebp]
	push	eax
	mov	ecx, DWORD PTR _this$[ebp]
	call	?getExtension@BoxBound@Ogre@@QBE?AVVector3@2@XZ ; Ogre::BoxBound::getExtension

; 152  : 			return Abs(dir.x*extent.x) + Abs(dir.y*extent.y) + Abs(dir.z*extent.z);

	mov	ecx, DWORD PTR _dir$[ebp]
	fld	DWORD PTR [ecx]
	fmul	DWORD PTR _extent$[ebp]
	fstp	DWORD PTR $T65166[ebp]
	mov	edx, DWORD PTR _dir$[ebp]
	fld	DWORD PTR [edx+4]
	fmul	DWORD PTR _extent$[ebp+4]
	fstp	DWORD PTR $T65167[ebp]
	mov	eax, DWORD PTR _dir$[ebp]
	fld	DWORD PTR [eax+8]
	fmul	DWORD PTR _extent$[ebp+8]
	fstp	DWORD PTR $T65168[ebp]
	lea	ecx, DWORD PTR $T65166[ebp]
	push	ecx
	call	??$Abs@M@Ogre@@YAMABM@Z			; Ogre::Abs<float>
	add	esp, 4
	lea	edx, DWORD PTR $T65167[ebp]
	push	edx
	fstp	QWORD PTR tv146[ebp]
	call	??$Abs@M@Ogre@@YAMABM@Z			; Ogre::Abs<float>
	add	esp, 4
	fadd	QWORD PTR tv146[ebp]
	lea	eax, DWORD PTR $T65168[ebp]
	push	eax
	fstp	QWORD PTR tv148[ebp]
	call	??$Abs@M@Ogre@@YAMABM@Z			; Ogre::Abs<float>
	add	esp, 4
	fadd	QWORD PTR tv148[ebp]
	fstp	DWORD PTR tv143[ebp]
	fld	DWORD PTR tv143[ebp]

; 153  : 		}

	mov	esp, ebp
	pop	ebp
	ret	4
?getRadiusInDirection@BoxBound@Ogre@@QBEMABVVector3@2@@Z ENDP ; Ogre::BoxBound::getRadiusInDirection
_TEXT	ENDS
PUBLIC	?isPointIn@BoxBound@Ogre@@QBE_NABVVector3@2@@Z	; Ogre::BoxBound::isPointIn
; Function compile flags: /Odtp
;	COMDAT ?isPointIn@BoxBound@Ogre@@QBE_NABVVector3@2@@Z
_TEXT	SEGMENT
tv94 = -8						; size = 4
_this$ = -4						; size = 4
_vPos$ = 8						; size = 4
?isPointIn@BoxBound@Ogre@@QBE_NABVVector3@2@@Z PROC	; Ogre::BoxBound::isPointIn, COMDAT
; _this$ = ecx

; 156  : 		{

	push	ebp
	mov	ebp, esp
	sub	esp, 8
	mov	DWORD PTR _this$[ebp], ecx

; 157  : 			return (vPos.x>m_MinPos.x && vPos.x<m_MaxPos.x 
; 158  : 				    &&vPos.y>m_MinPos.y && vPos.y<m_MaxPos.y
; 159  : 					&&vPos.z>m_MinPos.z && vPos.z<m_MaxPos.z );

	mov	eax, DWORD PTR _vPos$[ebp]
	fld	DWORD PTR [eax]
	mov	ecx, DWORD PTR _this$[ebp]
	fld	DWORD PTR [ecx]
	fcompp
	fnstsw	ax
	test	ah, 5
	jp	SHORT $LN3@isPointIn
	mov	edx, DWORD PTR _vPos$[ebp]
	fld	DWORD PTR [edx]
	mov	eax, DWORD PTR _this$[ebp]
	fld	DWORD PTR [eax+12]
	fcompp
	fnstsw	ax
	test	ah, 65					; 00000041H
	jne	SHORT $LN3@isPointIn
	mov	ecx, DWORD PTR _vPos$[ebp]
	fld	DWORD PTR [ecx+4]
	mov	edx, DWORD PTR _this$[ebp]
	fld	DWORD PTR [edx+4]
	fcompp
	fnstsw	ax
	test	ah, 5
	jp	SHORT $LN3@isPointIn
	mov	eax, DWORD PTR _vPos$[ebp]
	fld	DWORD PTR [eax+4]
	mov	ecx, DWORD PTR _this$[ebp]
	fld	DWORD PTR [ecx+16]
	fcompp
	fnstsw	ax
	test	ah, 65					; 00000041H
	jne	SHORT $LN3@isPointIn
	mov	edx, DWORD PTR _vPos$[ebp]
	fld	DWORD PTR [edx+8]
	mov	eax, DWORD PTR _this$[ebp]
	fld	DWORD PTR [eax+8]
	fcompp
	fnstsw	ax
	test	ah, 5
	jp	SHORT $LN3@isPointIn
	mov	ecx, DWORD PTR _vPos$[ebp]
	fld	DWORD PTR [ecx+8]
	mov	edx, DWORD PTR _this$[ebp]
	fld	DWORD PTR [edx+20]
	fcompp
	fnstsw	ax
	test	ah, 65					; 00000041H
	jne	SHORT $LN3@isPointIn
	mov	DWORD PTR tv94[ebp], 1
	jmp	SHORT $LN4@isPointIn
$LN3@isPointIn:
	mov	DWORD PTR tv94[ebp], 0
$LN4@isPointIn:
	mov	al, BYTE PTR tv94[ebp]

; 160  : 		}

	mov	esp, ebp
	pop	ebp
	ret	4
?isPointIn@BoxBound@Ogre@@QBE_NABVVector3@2@@Z ENDP	; Ogre::BoxBound::isPointIn
_TEXT	ENDS
PUBLIC	?isPointInXZ@BoxBound@Ogre@@QBE_NABVVector3@2@@Z ; Ogre::BoxBound::isPointInXZ
; Function compile flags: /Odtp
;	COMDAT ?isPointInXZ@BoxBound@Ogre@@QBE_NABVVector3@2@@Z
_TEXT	SEGMENT
tv83 = -8						; size = 4
_this$ = -4						; size = 4
_vPos$ = 8						; size = 4
?isPointInXZ@BoxBound@Ogre@@QBE_NABVVector3@2@@Z PROC	; Ogre::BoxBound::isPointInXZ, COMDAT
; _this$ = ecx

; 163  : 		{

	push	ebp
	mov	ebp, esp
	sub	esp, 8
	mov	DWORD PTR _this$[ebp], ecx

; 164  : 			return (vPos.x>m_MinPos.x && vPos.x<m_MaxPos.x 
; 165  : 				&&vPos.z>m_MinPos.z && vPos.z<m_MaxPos.z );

	mov	eax, DWORD PTR _vPos$[ebp]
	fld	DWORD PTR [eax]
	mov	ecx, DWORD PTR _this$[ebp]
	fld	DWORD PTR [ecx]
	fcompp
	fnstsw	ax
	test	ah, 5
	jp	SHORT $LN3@isPointInX
	mov	edx, DWORD PTR _vPos$[ebp]
	fld	DWORD PTR [edx]
	mov	eax, DWORD PTR _this$[ebp]
	fld	DWORD PTR [eax+12]
	fcompp
	fnstsw	ax
	test	ah, 65					; 00000041H
	jne	SHORT $LN3@isPointInX
	mov	ecx, DWORD PTR _vPos$[ebp]
	fld	DWORD PTR [ecx+8]
	mov	edx, DWORD PTR _this$[ebp]
	fld	DWORD PTR [edx+8]
	fcompp
	fnstsw	ax
	test	ah, 5
	jp	SHORT $LN3@isPointInX
	mov	eax, DWORD PTR _vPos$[ebp]
	fld	DWORD PTR [eax+8]
	mov	ecx, DWORD PTR _this$[ebp]
	fld	DWORD PTR [ecx+20]
	fcompp
	fnstsw	ax
	test	ah, 65					; 00000041H
	jne	SHORT $LN3@isPointInX
	mov	DWORD PTR tv83[ebp], 1
	jmp	SHORT $LN4@isPointInX
$LN3@isPointInX:
	mov	DWORD PTR tv83[ebp], 0
$LN4@isPointInX:
	mov	al, BYTE PTR tv83[ebp]

; 166  : 		}

	mov	esp, ebp
	pop	ebp
	ret	4
?isPointInXZ@BoxBound@Ogre@@QBE_NABVVector3@2@@Z ENDP	; Ogre::BoxBound::isPointInXZ
_TEXT	ENDS
PUBLIC	?intersectBoxBound@BoxBound@Ogre@@QBE_NABV12@@Z	; Ogre::BoxBound::intersectBoxBound
; Function compile flags: /Odtp
;	COMDAT ?intersectBoxBound@BoxBound@Ogre@@QBE_NABV12@@Z
_TEXT	SEGMENT
_this$ = -4						; size = 4
_other$ = 8						; size = 4
?intersectBoxBound@BoxBound@Ogre@@QBE_NABV12@@Z PROC	; Ogre::BoxBound::intersectBoxBound, COMDAT
; _this$ = ecx

; 169  : 		{

	push	ebp
	mov	ebp, esp
	push	ecx
	mov	DWORD PTR _this$[ebp], ecx

; 170  : 			if( m_MinPos.x > other.m_MaxPos.x || other.m_MinPos.x > m_MaxPos.x )

	mov	eax, DWORD PTR _this$[ebp]
	fld	DWORD PTR [eax]
	mov	ecx, DWORD PTR _other$[ebp]
	fld	DWORD PTR [ecx+12]
	fcompp
	fnstsw	ax
	test	ah, 5
	jnp	SHORT $LN5@intersectB
	mov	edx, DWORD PTR _other$[ebp]
	fld	DWORD PTR [edx]
	mov	eax, DWORD PTR _this$[ebp]
	fld	DWORD PTR [eax+12]
	fcompp
	fnstsw	ax
	test	ah, 5
	jp	SHORT $LN6@intersectB
$LN5@intersectB:

; 171  : 				return false;

	xor	al, al
	jmp	SHORT $LN7@intersectB
$LN6@intersectB:

; 172  : 			if( m_MinPos.y > other.m_MaxPos.y || other.m_MinPos.y > m_MaxPos.y )

	mov	ecx, DWORD PTR _this$[ebp]
	fld	DWORD PTR [ecx+4]
	mov	edx, DWORD PTR _other$[ebp]
	fld	DWORD PTR [edx+16]
	fcompp
	fnstsw	ax
	test	ah, 5
	jnp	SHORT $LN3@intersectB
	mov	eax, DWORD PTR _other$[ebp]
	fld	DWORD PTR [eax+4]
	mov	ecx, DWORD PTR _this$[ebp]
	fld	DWORD PTR [ecx+16]
	fcompp
	fnstsw	ax
	test	ah, 5
	jp	SHORT $LN4@intersectB
$LN3@intersectB:

; 173  : 				return false;

	xor	al, al
	jmp	SHORT $LN7@intersectB
$LN4@intersectB:

; 174  : 			if( m_MinPos.z > other.m_MaxPos.z || other.m_MinPos.z > m_MaxPos.z )

	mov	edx, DWORD PTR _this$[ebp]
	fld	DWORD PTR [edx+8]
	mov	eax, DWORD PTR _other$[ebp]
	fld	DWORD PTR [eax+20]
	fcompp
	fnstsw	ax
	test	ah, 5
	jnp	SHORT $LN1@intersectB
	mov	ecx, DWORD PTR _other$[ebp]
	fld	DWORD PTR [ecx+8]
	mov	edx, DWORD PTR _this$[ebp]
	fld	DWORD PTR [edx+20]
	fcompp
	fnstsw	ax
	test	ah, 5
	jp	SHORT $LN2@intersectB
$LN1@intersectB:

; 175  : 				return false;

	xor	al, al
	jmp	SHORT $LN7@intersectB
$LN2@intersectB:

; 176  : 			return true;

	mov	al, 1
$LN7@intersectB:

; 177  : 		}

	mov	esp, ebp
	pop	ebp
	ret	4
?intersectBoxBound@BoxBound@Ogre@@QBE_NABV12@@Z ENDP	; Ogre::BoxBound::intersectBoxBound
_TEXT	ENDS
PUBLIC	?isBoxBoundIn@BoxBound@Ogre@@QAE_NABV12@@Z	; Ogre::BoxBound::isBoxBoundIn
; Function compile flags: /Odtp
;	COMDAT ?isBoxBoundIn@BoxBound@Ogre@@QAE_NABV12@@Z
_TEXT	SEGMENT
_this$ = -4						; size = 4
_box$ = 8						; size = 4
?isBoxBoundIn@BoxBound@Ogre@@QAE_NABV12@@Z PROC		; Ogre::BoxBound::isBoxBoundIn, COMDAT
; _this$ = ecx

; 181  : 		{

	push	ebp
	mov	ebp, esp
	push	ecx
	mov	DWORD PTR _this$[ebp], ecx

; 182  : 			if( box.m_MaxPos.x > m_MaxPos.x ||
; 183  : 				box.m_MinPos.x < m_MinPos.x )

	mov	eax, DWORD PTR _box$[ebp]
	fld	DWORD PTR [eax+12]
	mov	ecx, DWORD PTR _this$[ebp]
	fld	DWORD PTR [ecx+12]
	fcompp
	fnstsw	ax
	test	ah, 5
	jnp	SHORT $LN5@isBoxBound
	mov	edx, DWORD PTR _box$[ebp]
	fld	DWORD PTR [edx]
	mov	eax, DWORD PTR _this$[ebp]
	fld	DWORD PTR [eax]
	fcompp
	fnstsw	ax
	test	ah, 65					; 00000041H
	jne	SHORT $LN6@isBoxBound
$LN5@isBoxBound:

; 184  : 				return false;

	xor	al, al
	jmp	SHORT $LN7@isBoxBound
$LN6@isBoxBound:

; 185  : 			if( box.m_MaxPos.y > m_MaxPos.y ||
; 186  : 				box.m_MinPos.y < m_MinPos.y )

	mov	ecx, DWORD PTR _box$[ebp]
	fld	DWORD PTR [ecx+16]
	mov	edx, DWORD PTR _this$[ebp]
	fld	DWORD PTR [edx+16]
	fcompp
	fnstsw	ax
	test	ah, 5
	jnp	SHORT $LN3@isBoxBound
	mov	eax, DWORD PTR _box$[ebp]
	fld	DWORD PTR [eax+4]
	mov	ecx, DWORD PTR _this$[ebp]
	fld	DWORD PTR [ecx+4]
	fcompp
	fnstsw	ax
	test	ah, 65					; 00000041H
	jne	SHORT $LN4@isBoxBound
$LN3@isBoxBound:

; 187  : 				return false;

	xor	al, al
	jmp	SHORT $LN7@isBoxBound
$LN4@isBoxBound:

; 188  : 			if( box.m_MaxPos.z > m_MaxPos.z ||
; 189  : 				box.m_MinPos.z < m_MinPos.z )

	mov	edx, DWORD PTR _box$[ebp]
	fld	DWORD PTR [edx+20]
	mov	eax, DWORD PTR _this$[ebp]
	fld	DWORD PTR [eax+20]
	fcompp
	fnstsw	ax
	test	ah, 5
	jnp	SHORT $LN1@isBoxBound
	mov	ecx, DWORD PTR _box$[ebp]
	fld	DWORD PTR [ecx+8]
	mov	edx, DWORD PTR _this$[ebp]
	fld	DWORD PTR [edx+8]
	fcompp
	fnstsw	ax
	test	ah, 65					; 00000041H
	jne	SHORT $LN2@isBoxBound
$LN1@isBoxBound:

; 190  : 				return false;

	xor	al, al
	jmp	SHORT $LN7@isBoxBound
$LN2@isBoxBound:

; 191  : 
; 192  : 			return true;

	mov	al, 1
$LN7@isBoxBound:

; 193  : 		}

	mov	esp, ebp
	pop	ebp
	ret	4
?isBoxBoundIn@BoxBound@Ogre@@QAE_NABV12@@Z ENDP		; Ogre::BoxBound::isBoxBoundIn
_TEXT	ENDS
PUBLIC	?Abs@Ogre@@YA?AVVector3@1@ABV21@@Z		; Ogre::Abs
PUBLIC	?isBoxBoundOut@BoxBound@Ogre@@QBE_NABV12@@Z	; Ogre::BoxBound::isBoxBoundOut
; Function compile flags: /Odtp
;	COMDAT ?isBoxBoundOut@BoxBound@Ogre@@QBE_NABV12@@Z
_TEXT	SEGMENT
_this$ = -88						; size = 4
$T65187 = -84						; size = 12
$T65186 = -72						; size = 12
$T65185 = -60						; size = 12
$T65184 = -48						; size = 12
$T65183 = -36						; size = 12
_vRadius$ = -24						; size = 12
_vDis$ = -12						; size = 12
_box$ = 8						; size = 4
?isBoxBoundOut@BoxBound@Ogre@@QBE_NABV12@@Z PROC	; Ogre::BoxBound::isBoxBoundOut, COMDAT
; _this$ = ecx

; 197  : 		{

	push	ebp
	mov	ebp, esp
	sub	esp, 88					; 00000058H
	mov	DWORD PTR _this$[ebp], ecx

; 198  : 			Vector3 vDis = Abs(box.getCenter() - getCenter());

	lea	eax, DWORD PTR $T65183[ebp]
	push	eax
	mov	ecx, DWORD PTR _this$[ebp]
	call	?getCenter@BoxBound@Ogre@@QBE?AVVector3@2@XZ ; Ogre::BoxBound::getCenter
	push	eax
	lea	ecx, DWORD PTR $T65184[ebp]
	push	ecx
	mov	ecx, DWORD PTR _box$[ebp]
	call	?getCenter@BoxBound@Ogre@@QBE?AVVector3@2@XZ ; Ogre::BoxBound::getCenter
	push	eax
	lea	edx, DWORD PTR $T65185[ebp]
	push	edx
	call	??GOgre@@YA?AVVector3@0@ABV10@0@Z	; Ogre::operator-
	add	esp, 12					; 0000000cH
	push	eax
	lea	eax, DWORD PTR _vDis$[ebp]
	push	eax
	call	?Abs@Ogre@@YA?AVVector3@1@ABV21@@Z	; Ogre::Abs
	add	esp, 8

; 199  : 			Vector3 vRadius = box.getExtension() + getExtension();

	lea	ecx, DWORD PTR $T65186[ebp]
	push	ecx
	mov	ecx, DWORD PTR _this$[ebp]
	call	?getExtension@BoxBound@Ogre@@QBE?AVVector3@2@XZ ; Ogre::BoxBound::getExtension
	push	eax
	lea	edx, DWORD PTR $T65187[ebp]
	push	edx
	mov	ecx, DWORD PTR _box$[ebp]
	call	?getExtension@BoxBound@Ogre@@QBE?AVVector3@2@XZ ; Ogre::BoxBound::getExtension
	push	eax
	lea	eax, DWORD PTR _vRadius$[ebp]
	push	eax
	call	??HOgre@@YA?AVVector3@0@ABV10@0@Z	; Ogre::operator+
	add	esp, 12					; 0000000cH

; 200  : 
; 201  : 			if( vDis.x > vRadius.x || vDis.y > vRadius.y || vDis.z > vRadius.z )

	fld	DWORD PTR _vDis$[ebp]
	fld	DWORD PTR _vRadius$[ebp]
	fcompp
	fnstsw	ax
	test	ah, 5
	jnp	SHORT $LN1@isBoxBound@2
	fld	DWORD PTR _vDis$[ebp+4]
	fld	DWORD PTR _vRadius$[ebp+4]
	fcompp
	fnstsw	ax
	test	ah, 5
	jnp	SHORT $LN1@isBoxBound@2
	fld	DWORD PTR _vDis$[ebp+8]
	fld	DWORD PTR _vRadius$[ebp+8]
	fcompp
	fnstsw	ax
	test	ah, 5
	jp	SHORT $LN2@isBoxBound@2
$LN1@isBoxBound@2:

; 202  : 				return true;

	mov	al, 1
	jmp	SHORT $LN3@isBoxBound@2
$LN2@isBoxBound@2:

; 203  : 
; 204  : 			return false;

	xor	al, al
$LN3@isBoxBound@2:

; 205  : 		}

	mov	esp, ebp
	pop	ebp
	ret	4
?isBoxBoundOut@BoxBound@Ogre@@QBE_NABV12@@Z ENDP	; Ogre::BoxBound::isBoxBoundOut
; Function compile flags: /Odtp
; File i:\svnroot\client\ogremain\ogrevector3.h
_TEXT	ENDS
;	COMDAT ?Abs@Ogre@@YA?AVVector3@1@ABV21@@Z
_TEXT	SEGMENT
___$ReturnUdt$ = 8					; size = 4
_v$ = 12						; size = 4
?Abs@Ogre@@YA?AVVector3@1@ABV21@@Z PROC			; Ogre::Abs, COMDAT

; 204  : 	{

	push	ebp
	mov	ebp, esp

; 205  : 		return Vector3( Abs(v.x), Abs(v.y), Abs(v.z) );

	mov	eax, DWORD PTR _v$[ebp]
	add	eax, 8
	push	eax
	call	??$Abs@M@Ogre@@YAMABM@Z			; Ogre::Abs<float>
	fstp	DWORD PTR [esp]
	mov	ecx, DWORD PTR _v$[ebp]
	add	ecx, 4
	push	ecx
	call	??$Abs@M@Ogre@@YAMABM@Z			; Ogre::Abs<float>
	fstp	DWORD PTR [esp]
	mov	edx, DWORD PTR _v$[ebp]
	push	edx
	call	??$Abs@M@Ogre@@YAMABM@Z			; Ogre::Abs<float>
	fstp	DWORD PTR [esp]
	mov	ecx, DWORD PTR ___$ReturnUdt$[ebp]
	call	??0Vector3@Ogre@@QAE@MMM@Z		; Ogre::Vector3::Vector3
	mov	eax, DWORD PTR ___$ReturnUdt$[ebp]

; 206  : 	}

	pop	ebp
	ret	0
?Abs@Ogre@@YA?AVVector3@1@ABV21@@Z ENDP			; Ogre::Abs
; Function compile flags: /Odtp
_TEXT	ENDS
;	COMDAT ??4BoxBound@Ogre@@QAEAAV01@ABV01@@Z
_TEXT	SEGMENT
_this$ = -4						; size = 4
___that$ = 8						; size = 4
??4BoxBound@Ogre@@QAEAAV01@ABV01@@Z PROC		; Ogre::BoxBound::operator=, COMDAT
; _this$ = ecx
	push	ebp
	mov	ebp, esp
	push	ecx
	mov	DWORD PTR _this$[ebp], ecx
	mov	eax, DWORD PTR ___that$[ebp]
	push	eax
	mov	ecx, DWORD PTR _this$[ebp]
	call	??4Vector3@Ogre@@QAEABV01@ABV01@@Z	; Ogre::Vector3::operator=
	mov	ecx, DWORD PTR ___that$[ebp]
	add	ecx, 12					; 0000000cH
	push	ecx
	mov	ecx, DWORD PTR _this$[ebp]
	add	ecx, 12					; 0000000cH
	call	??4Vector3@Ogre@@QAEABV01@ABV01@@Z	; Ogre::Vector3::operator=
	mov	edx, DWORD PTR _this$[ebp]
	mov	eax, DWORD PTR ___that$[ebp]
	mov	cl, BYTE PTR [eax+24]
	mov	BYTE PTR [edx+24], cl
	mov	eax, DWORD PTR _this$[ebp]
	mov	esp, ebp
	pop	ebp
	ret	4
??4BoxBound@Ogre@@QAEAAV01@ABV01@@Z ENDP		; Ogre::BoxBound::operator=
_TEXT	ENDS
PUBLIC	??0SphereBound@Ogre@@QAE@XZ			; Ogre::SphereBound::SphereBound
; Function compile flags: /Odtp
; File i:\svnroot\client\ogremain\ogrebounding.h
;	COMDAT ??0SphereBound@Ogre@@QAE@XZ
_TEXT	SEGMENT
_this$ = -4						; size = 4
??0SphereBound@Ogre@@QAE@XZ PROC			; Ogre::SphereBound::SphereBound, COMDAT
; _this$ = ecx

; 221  : 		SphereBound(){}

	push	ebp
	mov	ebp, esp
	push	ecx
	mov	DWORD PTR _this$[ebp], ecx
	mov	ecx, DWORD PTR _this$[ebp]
	call	??0Vector3@Ogre@@QAE@XZ			; Ogre::Vector3::Vector3
	mov	eax, DWORD PTR _this$[ebp]
	mov	esp, ebp
	pop	ebp
	ret	0
??0SphereBound@Ogre@@QAE@XZ ENDP			; Ogre::SphereBound::SphereBound
_TEXT	ENDS
PUBLIC	?getCenter@SphereBound@Ogre@@QBEABVVector3@2@XZ	; Ogre::SphereBound::getCenter
; Function compile flags: /Odtp
;	COMDAT ?getCenter@SphereBound@Ogre@@QBEABVVector3@2@XZ
_TEXT	SEGMENT
_this$ = -4						; size = 4
?getCenter@SphereBound@Ogre@@QBEABVVector3@2@XZ PROC	; Ogre::SphereBound::getCenter, COMDAT
; _this$ = ecx

; 229  : 		const Vector3 &getCenter() const{ return m_Center; }

	push	ebp
	mov	ebp, esp
	push	ecx
	mov	DWORD PTR _this$[ebp], ecx
	mov	eax, DWORD PTR _this$[ebp]
	mov	esp, ebp
	pop	ebp
	ret	0
?getCenter@SphereBound@Ogre@@QBEABVVector3@2@XZ ENDP	; Ogre::SphereBound::getCenter
_TEXT	ENDS
PUBLIC	?getRadius@SphereBound@Ogre@@QBEMXZ		; Ogre::SphereBound::getRadius
; Function compile flags: /Odtp
;	COMDAT ?getRadius@SphereBound@Ogre@@QBEMXZ
_TEXT	SEGMENT
_this$ = -4						; size = 4
?getRadius@SphereBound@Ogre@@QBEMXZ PROC		; Ogre::SphereBound::getRadius, COMDAT
; _this$ = ecx

; 230  : 		float   getRadius() const{ return m_Radius; }

	push	ebp
	mov	ebp, esp
	push	ecx
	mov	DWORD PTR _this$[ebp], ecx
	mov	eax, DWORD PTR _this$[ebp]
	fld	DWORD PTR [eax+12]
	mov	esp, ebp
	pop	ebp
	ret	0
?getRadius@SphereBound@Ogre@@QBEMXZ ENDP		; Ogre::SphereBound::getRadius
_TEXT	ENDS
PUBLIC	?isPointIn@SphereBound@Ogre@@QBE_NABVVector3@2@@Z ; Ogre::SphereBound::isPointIn
; Function compile flags: /Odtp
;	COMDAT ?isPointIn@SphereBound@Ogre@@QBE_NABVVector3@2@@Z
_TEXT	SEGMENT
tv79 = -24						; size = 4
tv89 = -20						; size = 4
_this$ = -16						; size = 4
$T65200 = -12						; size = 12
_vPos$ = 8						; size = 4
?isPointIn@SphereBound@Ogre@@QBE_NABVVector3@2@@Z PROC	; Ogre::SphereBound::isPointIn, COMDAT
; _this$ = ecx

; 233  : 		{

	push	ebp
	mov	ebp, esp
	sub	esp, 24					; 00000018H
	mov	DWORD PTR _this$[ebp], ecx

; 234  : 			return ( (vPos - m_Center).lengthSqr() < m_Radius * m_Radius );

	mov	eax, DWORD PTR _this$[ebp]
	push	eax
	mov	ecx, DWORD PTR _vPos$[ebp]
	push	ecx
	lea	edx, DWORD PTR $T65200[ebp]
	push	edx
	call	??GOgre@@YA?AVVector3@0@ABV10@0@Z	; Ogre::operator-
	add	esp, 12					; 0000000cH
	mov	ecx, eax
	call	?lengthSqr@Vector3@Ogre@@QBEMXZ		; Ogre::Vector3::lengthSqr
	mov	eax, DWORD PTR _this$[ebp]
	fld	DWORD PTR [eax+12]
	mov	ecx, DWORD PTR _this$[ebp]
	fmul	DWORD PTR [ecx+12]
	fstp	DWORD PTR tv89[ebp]
	fld	DWORD PTR tv89[ebp]
	fcompp
	fnstsw	ax
	test	ah, 65					; 00000041H
	jne	SHORT $LN3@isPointIn@2
	mov	DWORD PTR tv79[ebp], 1
	jmp	SHORT $LN4@isPointIn@2
$LN3@isPointIn@2:
	mov	DWORD PTR tv79[ebp], 0
$LN4@isPointIn@2:
	mov	al, BYTE PTR tv79[ebp]

; 235  : 		}

	mov	esp, ebp
	pop	ebp
	ret	4
?isPointIn@SphereBound@Ogre@@QBE_NABVVector3@2@@Z ENDP	; Ogre::SphereBound::isPointIn
_TEXT	ENDS
PUBLIC	??0SphereBound@Ogre@@QAE@ABV01@@Z		; Ogre::SphereBound::SphereBound
; Function compile flags: /Odtp
;	COMDAT ??0SphereBound@Ogre@@QAE@ABV01@@Z
_TEXT	SEGMENT
_this$ = -4						; size = 4
___that$ = 8						; size = 4
??0SphereBound@Ogre@@QAE@ABV01@@Z PROC			; Ogre::SphereBound::SphereBound, COMDAT
; _this$ = ecx
	push	ebp
	mov	ebp, esp
	push	ecx
	mov	DWORD PTR _this$[ebp], ecx
	mov	eax, DWORD PTR ___that$[ebp]
	push	eax
	mov	ecx, DWORD PTR _this$[ebp]
	call	??0Vector3@Ogre@@QAE@ABV01@@Z		; Ogre::Vector3::Vector3
	mov	ecx, DWORD PTR _this$[ebp]
	mov	edx, DWORD PTR ___that$[ebp]
	fld	DWORD PTR [edx+12]
	fstp	DWORD PTR [ecx+12]
	mov	eax, DWORD PTR _this$[ebp]
	mov	esp, ebp
	pop	ebp
	ret	4
??0SphereBound@Ogre@@QAE@ABV01@@Z ENDP			; Ogre::SphereBound::SphereBound
_TEXT	ENDS
PUBLIC	??4SphereBound@Ogre@@QAEAAV01@ABV01@@Z		; Ogre::SphereBound::operator=
; Function compile flags: /Odtp
;	COMDAT ??4SphereBound@Ogre@@QAEAAV01@ABV01@@Z
_TEXT	SEGMENT
_this$ = -4						; size = 4
___that$ = 8						; size = 4
??4SphereBound@Ogre@@QAEAAV01@ABV01@@Z PROC		; Ogre::SphereBound::operator=, COMDAT
; _this$ = ecx
	push	ebp
	mov	ebp, esp
	push	ecx
	mov	DWORD PTR _this$[ebp], ecx
	mov	eax, DWORD PTR ___that$[ebp]
	push	eax
	mov	ecx, DWORD PTR _this$[ebp]
	call	??4Vector3@Ogre@@QAEABV01@ABV01@@Z	; Ogre::Vector3::operator=
	mov	ecx, DWORD PTR _this$[ebp]
	mov	edx, DWORD PTR ___that$[ebp]
	fld	DWORD PTR [edx+12]
	fstp	DWORD PTR [ecx+12]
	mov	eax, DWORD PTR _this$[ebp]
	mov	esp, ebp
	pop	ebp
	ret	4
??4SphereBound@Ogre@@QAEAAV01@ABV01@@Z ENDP		; Ogre::SphereBound::operator=
_TEXT	ENDS
PUBLIC	??0BoxSphereBound@Ogre@@QAE@XZ			; Ogre::BoxSphereBound::BoxSphereBound
; Function compile flags: /Odtp
;	COMDAT ??0BoxSphereBound@Ogre@@QAE@XZ
_TEXT	SEGMENT
_this$ = -4						; size = 4
??0BoxSphereBound@Ogre@@QAE@XZ PROC			; Ogre::BoxSphereBound::BoxSphereBound, COMDAT
; _this$ = ecx

; 252  : 		BoxSphereBound()

	push	ebp
	mov	ebp, esp
	push	ecx
	mov	DWORD PTR _this$[ebp], ecx
	mov	ecx, DWORD PTR _this$[ebp]
	call	??0Vector3@Ogre@@QAE@XZ			; Ogre::Vector3::Vector3
	mov	ecx, DWORD PTR _this$[ebp]
	add	ecx, 12					; 0000000cH
	call	??0Vector3@Ogre@@QAE@XZ			; Ogre::Vector3::Vector3

; 253  : 		{
; 254  : 		}

	mov	eax, DWORD PTR _this$[ebp]
	mov	esp, ebp
	pop	ebp
	ret	0
??0BoxSphereBound@Ogre@@QAE@XZ ENDP			; Ogre::BoxSphereBound::BoxSphereBound
_TEXT	ENDS
PUBLIC	?fromBoxBound@BoxSphereBound@Ogre@@QAEXABVBoxBound@2@@Z ; Ogre::BoxSphereBound::fromBoxBound
PUBLIC	??0BoxSphereBound@Ogre@@QAE@ABVBoxBound@1@@Z	; Ogre::BoxSphereBound::BoxSphereBound
; Function compile flags: /Odtp
;	COMDAT ??0BoxSphereBound@Ogre@@QAE@ABVBoxBound@1@@Z
_TEXT	SEGMENT
_this$ = -4						; size = 4
_box$ = 8						; size = 4
??0BoxSphereBound@Ogre@@QAE@ABVBoxBound@1@@Z PROC	; Ogre::BoxSphereBound::BoxSphereBound, COMDAT
; _this$ = ecx

; 256  : 		BoxSphereBound(const BoxBound &box)

	push	ebp
	mov	ebp, esp
	push	ecx
	mov	DWORD PTR _this$[ebp], ecx
	mov	ecx, DWORD PTR _this$[ebp]
	call	??0Vector3@Ogre@@QAE@XZ			; Ogre::Vector3::Vector3
	mov	ecx, DWORD PTR _this$[ebp]
	add	ecx, 12					; 0000000cH
	call	??0Vector3@Ogre@@QAE@XZ			; Ogre::Vector3::Vector3

; 257  : 		{
; 258  : 			fromBoxBound(box);

	mov	eax, DWORD PTR _box$[ebp]
	push	eax
	mov	ecx, DWORD PTR _this$[ebp]
	call	?fromBoxBound@BoxSphereBound@Ogre@@QAEXABVBoxBound@2@@Z ; Ogre::BoxSphereBound::fromBoxBound

; 259  : 		}

	mov	eax, DWORD PTR _this$[ebp]
	mov	esp, ebp
	pop	ebp
	ret	4
??0BoxSphereBound@Ogre@@QAE@ABVBoxBound@1@@Z ENDP	; Ogre::BoxSphereBound::BoxSphereBound
_TEXT	ENDS
PUBLIC	?reset@BoxSphereBound@Ogre@@QAEXXZ		; Ogre::BoxSphereBound::reset
; Function compile flags: /Odtp
;	COMDAT ?reset@BoxSphereBound@Ogre@@QAEXXZ
_TEXT	SEGMENT
_this$ = -16						; size = 4
$T65213 = -12						; size = 12
?reset@BoxSphereBound@Ogre@@QAEXXZ PROC			; Ogre::BoxSphereBound::reset, COMDAT
; _this$ = ecx

; 262  : 		{

	push	ebp
	mov	ebp, esp
	sub	esp, 16					; 00000010H
	mov	DWORD PTR _this$[ebp], ecx

; 263  : 			m_Center = m_Extent = Vector3(0,0,0);

	push	ecx
	fldz
	fstp	DWORD PTR [esp]
	push	ecx
	fldz
	fstp	DWORD PTR [esp]
	push	ecx
	fldz
	fstp	DWORD PTR [esp]
	lea	ecx, DWORD PTR $T65213[ebp]
	call	??0Vector3@Ogre@@QAE@MMM@Z		; Ogre::Vector3::Vector3
	push	eax
	mov	ecx, DWORD PTR _this$[ebp]
	add	ecx, 12					; 0000000cH
	call	??4Vector3@Ogre@@QAEABV01@ABV01@@Z	; Ogre::Vector3::operator=
	push	eax
	mov	ecx, DWORD PTR _this$[ebp]
	call	??4Vector3@Ogre@@QAEABV01@ABV01@@Z	; Ogre::Vector3::operator=

; 264  : 			m_Radius = 0;

	mov	eax, DWORD PTR _this$[ebp]
	fldz
	fstp	DWORD PTR [eax+24]

; 265  : 		}

	mov	esp, ebp
	pop	ebp
	ret	0
?reset@BoxSphereBound@Ogre@@QAEXXZ ENDP			; Ogre::BoxSphereBound::reset
; Function compile flags: /Odtp
_TEXT	ENDS
;	COMDAT ?fromBoxBound@BoxSphereBound@Ogre@@QAEXABVBoxBound@2@@Z
_TEXT	SEGMENT
_this$ = -28						; size = 4
$T65217 = -24						; size = 12
$T65216 = -12						; size = 12
_box$ = 8						; size = 4
?fromBoxBound@BoxSphereBound@Ogre@@QAEXABVBoxBound@2@@Z PROC ; Ogre::BoxSphereBound::fromBoxBound, COMDAT
; _this$ = ecx

; 268  : 		{

	push	ebp
	mov	ebp, esp
	sub	esp, 28					; 0000001cH
	mov	DWORD PTR _this$[ebp], ecx

; 269  : 			m_Center = box.getCenter();

	lea	eax, DWORD PTR $T65216[ebp]
	push	eax
	mov	ecx, DWORD PTR _box$[ebp]
	call	?getCenter@BoxBound@Ogre@@QBE?AVVector3@2@XZ ; Ogre::BoxBound::getCenter
	push	eax
	mov	ecx, DWORD PTR _this$[ebp]
	call	??4Vector3@Ogre@@QAEABV01@ABV01@@Z	; Ogre::Vector3::operator=

; 270  : 			m_Extent = box.getExtension();

	lea	ecx, DWORD PTR $T65217[ebp]
	push	ecx
	mov	ecx, DWORD PTR _box$[ebp]
	call	?getExtension@BoxBound@Ogre@@QBE?AVVector3@2@XZ ; Ogre::BoxBound::getExtension
	push	eax
	mov	ecx, DWORD PTR _this$[ebp]
	add	ecx, 12					; 0000000cH
	call	??4Vector3@Ogre@@QAEABV01@ABV01@@Z	; Ogre::Vector3::operator=

; 271  : 
; 272  : 			m_Radius = m_Extent.length();

	mov	ecx, DWORD PTR _this$[ebp]
	add	ecx, 12					; 0000000cH
	call	?length@Vector3@Ogre@@QBEMXZ		; Ogre::Vector3::length
	mov	edx, DWORD PTR _this$[ebp]
	fstp	DWORD PTR [edx+24]

; 273  : 		}

	mov	esp, ebp
	pop	ebp
	ret	4
?fromBoxBound@BoxSphereBound@Ogre@@QAEXABVBoxBound@2@@Z ENDP ; Ogre::BoxSphereBound::fromBoxBound
_TEXT	ENDS
PUBLIC	?getSphere@BoxSphereBound@Ogre@@QBE?AVSphereBound@2@XZ ; Ogre::BoxSphereBound::getSphere
; Function compile flags: /Odtp
;	COMDAT ?getSphere@BoxSphereBound@Ogre@@QBE?AVSphereBound@2@XZ
_TEXT	SEGMENT
_this$ = -20						; size = 4
_sphere$ = -16						; size = 16
___$ReturnUdt$ = 8					; size = 4
?getSphere@BoxSphereBound@Ogre@@QBE?AVSphereBound@2@XZ PROC ; Ogre::BoxSphereBound::getSphere, COMDAT
; _this$ = ecx

; 276  : 		{

	push	ebp
	mov	ebp, esp
	sub	esp, 20					; 00000014H
	mov	DWORD PTR _this$[ebp], ecx

; 277  : 			SphereBound sphere;

	lea	ecx, DWORD PTR _sphere$[ebp]
	call	??0SphereBound@Ogre@@QAE@XZ		; Ogre::SphereBound::SphereBound

; 278  : 			sphere.m_Center = m_Center;

	mov	eax, DWORD PTR _this$[ebp]
	push	eax
	lea	ecx, DWORD PTR _sphere$[ebp]
	call	??4Vector3@Ogre@@QAEABV01@ABV01@@Z	; Ogre::Vector3::operator=

; 279  : 			sphere.m_Radius = m_Radius;

	mov	ecx, DWORD PTR _this$[ebp]
	fld	DWORD PTR [ecx+24]
	fstp	DWORD PTR _sphere$[ebp+12]

; 280  : 			return sphere;

	lea	edx, DWORD PTR _sphere$[ebp]
	push	edx
	mov	ecx, DWORD PTR ___$ReturnUdt$[ebp]
	call	??0SphereBound@Ogre@@QAE@ABV01@@Z
	mov	eax, DWORD PTR ___$ReturnUdt$[ebp]

; 281  : 		}

	mov	esp, ebp
	pop	ebp
	ret	4
?getSphere@BoxSphereBound@Ogre@@QBE?AVSphereBound@2@XZ ENDP ; Ogre::BoxSphereBound::getSphere
_TEXT	ENDS
PUBLIC	?getBox@BoxSphereBound@Ogre@@QBE?AVBoxBound@2@XZ ; Ogre::BoxSphereBound::getBox
; Function compile flags: /Odtp
;	COMDAT ?getBox@BoxSphereBound@Ogre@@QBE?AVBoxBound@2@XZ
_TEXT	SEGMENT
_this$ = -56						; size = 4
$T65223 = -52						; size = 12
$T65222 = -40						; size = 12
_box$ = -28						; size = 28
___$ReturnUdt$ = 8					; size = 4
?getBox@BoxSphereBound@Ogre@@QBE?AVBoxBound@2@XZ PROC	; Ogre::BoxSphereBound::getBox, COMDAT
; _this$ = ecx

; 284  : 		{

	push	ebp
	mov	ebp, esp
	sub	esp, 56					; 00000038H
	mov	DWORD PTR _this$[ebp], ecx

; 285  : 			BoxBound box;

	lea	ecx, DWORD PTR _box$[ebp]
	call	??0BoxBound@Ogre@@QAE@XZ		; Ogre::BoxBound::BoxBound

; 286  : 			box.m_MinPos = m_Center - m_Extent;

	mov	eax, DWORD PTR _this$[ebp]
	add	eax, 12					; 0000000cH
	push	eax
	mov	ecx, DWORD PTR _this$[ebp]
	push	ecx
	lea	edx, DWORD PTR $T65222[ebp]
	push	edx
	call	??GOgre@@YA?AVVector3@0@ABV10@0@Z	; Ogre::operator-
	add	esp, 12					; 0000000cH
	push	eax
	lea	ecx, DWORD PTR _box$[ebp]
	call	??4Vector3@Ogre@@QAEABV01@ABV01@@Z	; Ogre::Vector3::operator=

; 287  : 			box.m_MaxPos = m_Center + m_Extent;

	mov	eax, DWORD PTR _this$[ebp]
	add	eax, 12					; 0000000cH
	push	eax
	mov	ecx, DWORD PTR _this$[ebp]
	push	ecx
	lea	edx, DWORD PTR $T65223[ebp]
	push	edx
	call	??HOgre@@YA?AVVector3@0@ABV10@0@Z	; Ogre::operator+
	add	esp, 12					; 0000000cH
	push	eax
	lea	ecx, DWORD PTR _box$[ebp+12]
	call	??4Vector3@Ogre@@QAEABV01@ABV01@@Z	; Ogre::Vector3::operator=

; 288  : 			box.m_isValid = true;

	mov	BYTE PTR _box$[ebp+24], 1

; 289  : 			return box;

	lea	eax, DWORD PTR _box$[ebp]
	push	eax
	mov	ecx, DWORD PTR ___$ReturnUdt$[ebp]
	call	??0BoxBound@Ogre@@QAE@ABV01@@Z		; Ogre::BoxBound::BoxBound
	mov	eax, DWORD PTR ___$ReturnUdt$[ebp]

; 290  : 		}

	mov	esp, ebp
	pop	ebp
	ret	4
?getBox@BoxSphereBound@Ogre@@QBE?AVBoxBound@2@XZ ENDP	; Ogre::BoxSphereBound::getBox
_TEXT	ENDS
PUBLIC	?getMin@BoxSphereBound@Ogre@@QBE?AVVector3@2@XZ	; Ogre::BoxSphereBound::getMin
; Function compile flags: /Odtp
;	COMDAT ?getMin@BoxSphereBound@Ogre@@QBE?AVVector3@2@XZ
_TEXT	SEGMENT
_this$ = -4						; size = 4
___$ReturnUdt$ = 8					; size = 4
?getMin@BoxSphereBound@Ogre@@QBE?AVVector3@2@XZ PROC	; Ogre::BoxSphereBound::getMin, COMDAT
; _this$ = ecx

; 310  : 		{

	push	ebp
	mov	ebp, esp
	push	ecx
	mov	DWORD PTR _this$[ebp], ecx

; 311  : 			return m_Center-m_Extent;

	mov	eax, DWORD PTR _this$[ebp]
	add	eax, 12					; 0000000cH
	push	eax
	mov	ecx, DWORD PTR _this$[ebp]
	push	ecx
	mov	edx, DWORD PTR ___$ReturnUdt$[ebp]
	push	edx
	call	??GOgre@@YA?AVVector3@0@ABV10@0@Z	; Ogre::operator-
	add	esp, 12					; 0000000cH
	mov	eax, DWORD PTR ___$ReturnUdt$[ebp]

; 312  : 		}

	mov	esp, ebp
	pop	ebp
	ret	4
?getMin@BoxSphereBound@Ogre@@QBE?AVVector3@2@XZ ENDP	; Ogre::BoxSphereBound::getMin
_TEXT	ENDS
PUBLIC	?getMax@BoxSphereBound@Ogre@@QBE?AVVector3@2@XZ	; Ogre::BoxSphereBound::getMax
; Function compile flags: /Odtp
;	COMDAT ?getMax@BoxSphereBound@Ogre@@QBE?AVVector3@2@XZ
_TEXT	SEGMENT
_this$ = -4						; size = 4
___$ReturnUdt$ = 8					; size = 4
?getMax@BoxSphereBound@Ogre@@QBE?AVVector3@2@XZ PROC	; Ogre::BoxSphereBound::getMax, COMDAT
; _this$ = ecx

; 315  : 		{

	push	ebp
	mov	ebp, esp
	push	ecx
	mov	DWORD PTR _this$[ebp], ecx

; 316  : 			return m_Center+m_Extent;

	mov	eax, DWORD PTR _this$[ebp]
	add	eax, 12					; 0000000cH
	push	eax
	mov	ecx, DWORD PTR _this$[ebp]
	push	ecx
	mov	edx, DWORD PTR ___$ReturnUdt$[ebp]
	push	edx
	call	??HOgre@@YA?AVVector3@0@ABV10@0@Z	; Ogre::operator+
	add	esp, 12					; 0000000cH
	mov	eax, DWORD PTR ___$ReturnUdt$[ebp]

; 317  : 		}

	mov	esp, ebp
	pop	ebp
	ret	4
?getMax@BoxSphereBound@Ogre@@QBE?AVVector3@2@XZ ENDP	; Ogre::BoxSphereBound::getMax
_TEXT	ENDS
PUBLIC	?getCenter@BoxSphereBound@Ogre@@QBEABVVector3@2@XZ ; Ogre::BoxSphereBound::getCenter
; Function compile flags: /Odtp
;	COMDAT ?getCenter@BoxSphereBound@Ogre@@QBEABVVector3@2@XZ
_TEXT	SEGMENT
_this$ = -4						; size = 4
?getCenter@BoxSphereBound@Ogre@@QBEABVVector3@2@XZ PROC	; Ogre::BoxSphereBound::getCenter, COMDAT
; _this$ = ecx

; 320  : 		{

	push	ebp
	mov	ebp, esp
	push	ecx
	mov	DWORD PTR _this$[ebp], ecx

; 321  : 			return m_Center;

	mov	eax, DWORD PTR _this$[ebp]

; 322  : 		}

	mov	esp, ebp
	pop	ebp
	ret	0
?getCenter@BoxSphereBound@Ogre@@QBEABVVector3@2@XZ ENDP	; Ogre::BoxSphereBound::getCenter
_TEXT	ENDS
PUBLIC	?getExtension@BoxSphereBound@Ogre@@QBEABVVector3@2@XZ ; Ogre::BoxSphereBound::getExtension
; Function compile flags: /Odtp
;	COMDAT ?getExtension@BoxSphereBound@Ogre@@QBEABVVector3@2@XZ
_TEXT	SEGMENT
_this$ = -4						; size = 4
?getExtension@BoxSphereBound@Ogre@@QBEABVVector3@2@XZ PROC ; Ogre::BoxSphereBound::getExtension, COMDAT
; _this$ = ecx

; 325  : 		{

	push	ebp
	mov	ebp, esp
	push	ecx
	mov	DWORD PTR _this$[ebp], ecx

; 326  : 			return m_Extent;

	mov	eax, DWORD PTR _this$[ebp]
	add	eax, 12					; 0000000cH

; 327  : 		}

	mov	esp, ebp
	pop	ebp
	ret	0
?getExtension@BoxSphereBound@Ogre@@QBEABVVector3@2@XZ ENDP ; Ogre::BoxSphereBound::getExtension
_TEXT	ENDS
PUBLIC	??KOgre@@YA?AVVector3@0@ABV10@M@Z		; Ogre::operator/
PUBLIC	__real@40000000
PUBLIC	?fromBox@BoxSphereBound@Ogre@@QAEXABVVector3@2@0@Z ; Ogre::BoxSphereBound::fromBox
;	COMDAT __real@40000000
CONST	SEGMENT
__real@40000000 DD 040000000r			; 2
; Function compile flags: /Odtp
CONST	ENDS
;	COMDAT ?fromBox@BoxSphereBound@Ogre@@QAEXABVVector3@2@0@Z
_TEXT	SEGMENT
_this$ = -52						; size = 4
$T65237 = -48						; size = 12
$T65236 = -36						; size = 12
$T65235 = -24						; size = 12
$T65234 = -12						; size = 12
_minpt$ = 8						; size = 4
_maxpt$ = 12						; size = 4
?fromBox@BoxSphereBound@Ogre@@QAEXABVVector3@2@0@Z PROC	; Ogre::BoxSphereBound::fromBox, COMDAT
; _this$ = ecx

; 330  : 		{

	push	ebp
	mov	ebp, esp
	sub	esp, 52					; 00000034H
	mov	DWORD PTR _this$[ebp], ecx

; 331  : 			m_Center = (minpt + maxpt)/2.0f;

	push	ecx
	fld	DWORD PTR __real@40000000
	fstp	DWORD PTR [esp]
	mov	eax, DWORD PTR _maxpt$[ebp]
	push	eax
	mov	ecx, DWORD PTR _minpt$[ebp]
	push	ecx
	lea	edx, DWORD PTR $T65234[ebp]
	push	edx
	call	??HOgre@@YA?AVVector3@0@ABV10@0@Z	; Ogre::operator+
	add	esp, 12					; 0000000cH
	push	eax
	lea	eax, DWORD PTR $T65235[ebp]
	push	eax
	call	??KOgre@@YA?AVVector3@0@ABV10@M@Z	; Ogre::operator/
	add	esp, 12					; 0000000cH
	push	eax
	mov	ecx, DWORD PTR _this$[ebp]
	call	??4Vector3@Ogre@@QAEABV01@ABV01@@Z	; Ogre::Vector3::operator=

; 332  : 			m_Extent = (maxpt - minpt)/2.0f;

	push	ecx
	fld	DWORD PTR __real@40000000
	fstp	DWORD PTR [esp]
	mov	ecx, DWORD PTR _minpt$[ebp]
	push	ecx
	mov	edx, DWORD PTR _maxpt$[ebp]
	push	edx
	lea	eax, DWORD PTR $T65236[ebp]
	push	eax
	call	??GOgre@@YA?AVVector3@0@ABV10@0@Z	; Ogre::operator-
	add	esp, 12					; 0000000cH
	push	eax
	lea	ecx, DWORD PTR $T65237[ebp]
	push	ecx
	call	??KOgre@@YA?AVVector3@0@ABV10@M@Z	; Ogre::operator/
	add	esp, 12					; 0000000cH
	push	eax
	mov	ecx, DWORD PTR _this$[ebp]
	add	ecx, 12					; 0000000cH
	call	??4Vector3@Ogre@@QAEABV01@ABV01@@Z	; Ogre::Vector3::operator=

; 333  : 			m_Radius = m_Extent.length();

	mov	ecx, DWORD PTR _this$[ebp]
	add	ecx, 12					; 0000000cH
	call	?length@Vector3@Ogre@@QBEMXZ		; Ogre::Vector3::length
	mov	edx, DWORD PTR _this$[ebp]
	fstp	DWORD PTR [edx+24]

; 334  : 		}

	mov	esp, ebp
	pop	ebp
	ret	8
?fromBox@BoxSphereBound@Ogre@@QAEXABVVector3@2@0@Z ENDP	; Ogre::BoxSphereBound::fromBox
; Function compile flags: /Odtp
; File i:\svnroot\client\ogremain\ogrevector3.h
_TEXT	ENDS
;	COMDAT ??KOgre@@YA?AVVector3@0@ABV10@M@Z
_TEXT	SEGMENT
tv87 = -12						; size = 4
tv85 = -8						; size = 4
tv83 = -4						; size = 4
___$ReturnUdt$ = 8					; size = 4
_v1$ = 12						; size = 4
_s$ = 16						; size = 4
??KOgre@@YA?AVVector3@0@ABV10@M@Z PROC			; Ogre::operator/, COMDAT

; 199  : 	{

	push	ebp
	mov	ebp, esp
	sub	esp, 12					; 0000000cH

; 200  : 		return Vector3(v1.x/s, v1.y/s, v1.z/s);

	mov	eax, DWORD PTR _v1$[ebp]
	fld	DWORD PTR [eax+8]
	fdiv	DWORD PTR _s$[ebp]
	fstp	DWORD PTR tv83[ebp]
	fld	DWORD PTR tv83[ebp]
	push	ecx
	fstp	DWORD PTR [esp]
	mov	ecx, DWORD PTR _v1$[ebp]
	fld	DWORD PTR [ecx+4]
	fdiv	DWORD PTR _s$[ebp]
	fstp	DWORD PTR tv85[ebp]
	fld	DWORD PTR tv85[ebp]
	push	ecx
	fstp	DWORD PTR [esp]
	mov	edx, DWORD PTR _v1$[ebp]
	fld	DWORD PTR [edx]
	fdiv	DWORD PTR _s$[ebp]
	fstp	DWORD PTR tv87[ebp]
	fld	DWORD PTR tv87[ebp]
	push	ecx
	fstp	DWORD PTR [esp]
	mov	ecx, DWORD PTR ___$ReturnUdt$[ebp]
	call	??0Vector3@Ogre@@QAE@MMM@Z		; Ogre::Vector3::Vector3
	mov	eax, DWORD PTR ___$ReturnUdt$[ebp]

; 201  : 	}

	mov	esp, ebp
	pop	ebp
	ret	0
??KOgre@@YA?AVVector3@0@ABV10@M@Z ENDP			; Ogre::operator/
_TEXT	ENDS
PUBLIC	?intersect@BoxSphereBound@Ogre@@QBE_NABV12@@Z	; Ogre::BoxSphereBound::intersect
; Function compile flags: /Odtp
; File i:\svnroot\client\ogremain\ogrebounding.h
;	COMDAT ?intersect@BoxSphereBound@Ogre@@QBE_NABV12@@Z
_TEXT	SEGMENT
_this$ = -60						; size = 4
_box1$ = -56						; size = 28
_box2$ = -28						; size = 28
_other$ = 8						; size = 4
?intersect@BoxSphereBound@Ogre@@QBE_NABV12@@Z PROC	; Ogre::BoxSphereBound::intersect, COMDAT
; _this$ = ecx

; 337  : 		{

	push	ebp
	mov	ebp, esp
	sub	esp, 60					; 0000003cH
	mov	DWORD PTR _this$[ebp], ecx

; 338  : 			BoxBound box1 = getBox();

	lea	eax, DWORD PTR _box1$[ebp]
	push	eax
	mov	ecx, DWORD PTR _this$[ebp]
	call	?getBox@BoxSphereBound@Ogre@@QBE?AVBoxBound@2@XZ ; Ogre::BoxSphereBound::getBox

; 339  : 			BoxBound box2 = other.getBox();

	lea	ecx, DWORD PTR _box2$[ebp]
	push	ecx
	mov	ecx, DWORD PTR _other$[ebp]
	call	?getBox@BoxSphereBound@Ogre@@QBE?AVBoxBound@2@XZ ; Ogre::BoxSphereBound::getBox

; 340  : 			return box1.intersectBoxBound(box2);

	lea	edx, DWORD PTR _box2$[ebp]
	push	edx
	lea	ecx, DWORD PTR _box1$[ebp]
	call	?intersectBoxBound@BoxBound@Ogre@@QBE_NABV12@@Z ; Ogre::BoxBound::intersectBoxBound

; 341  : 		}

	mov	esp, ebp
	pop	ebp
	ret	4
?intersect@BoxSphereBound@Ogre@@QBE_NABV12@@Z ENDP	; Ogre::BoxSphereBound::intersect
_TEXT	ENDS
PUBLIC	??0BoxSphereBound@Ogre@@QAE@ABV01@@Z		; Ogre::BoxSphereBound::BoxSphereBound
; Function compile flags: /Odtp
;	COMDAT ??0BoxSphereBound@Ogre@@QAE@ABV01@@Z
_TEXT	SEGMENT
_this$ = -4						; size = 4
___that$ = 8						; size = 4
??0BoxSphereBound@Ogre@@QAE@ABV01@@Z PROC		; Ogre::BoxSphereBound::BoxSphereBound, COMDAT
; _this$ = ecx
	push	ebp
	mov	ebp, esp
	push	ecx
	mov	DWORD PTR _this$[ebp], ecx
	mov	eax, DWORD PTR ___that$[ebp]
	push	eax
	mov	ecx, DWORD PTR _this$[ebp]
	call	??0Vector3@Ogre@@QAE@ABV01@@Z		; Ogre::Vector3::Vector3
	mov	ecx, DWORD PTR ___that$[ebp]
	add	ecx, 12					; 0000000cH
	push	ecx
	mov	ecx, DWORD PTR _this$[ebp]
	add	ecx, 12					; 0000000cH
	call	??0Vector3@Ogre@@QAE@ABV01@@Z		; Ogre::Vector3::Vector3
	mov	edx, DWORD PTR _this$[ebp]
	mov	eax, DWORD PTR ___that$[ebp]
	fld	DWORD PTR [eax+24]
	fstp	DWORD PTR [edx+24]
	mov	eax, DWORD PTR _this$[ebp]
	mov	esp, ebp
	pop	ebp
	ret	4
??0BoxSphereBound@Ogre@@QAE@ABV01@@Z ENDP		; Ogre::BoxSphereBound::BoxSphereBound
_TEXT	ENDS
PUBLIC	??4BoxSphereBound@Ogre@@QAEAAV01@ABV01@@Z	; Ogre::BoxSphereBound::operator=
; Function compile flags: /Odtp
;	COMDAT ??4BoxSphereBound@Ogre@@QAEAAV01@ABV01@@Z
_TEXT	SEGMENT
_this$ = -4						; size = 4
___that$ = 8						; size = 4
??4BoxSphereBound@Ogre@@QAEAAV01@ABV01@@Z PROC		; Ogre::BoxSphereBound::operator=, COMDAT
; _this$ = ecx
	push	ebp
	mov	ebp, esp
	push	ecx
	mov	DWORD PTR _this$[ebp], ecx
	mov	eax, DWORD PTR ___that$[ebp]
	push	eax
	mov	ecx, DWORD PTR _this$[ebp]
	call	??4Vector3@Ogre@@QAEABV01@ABV01@@Z	; Ogre::Vector3::operator=
	mov	ecx, DWORD PTR ___that$[ebp]
	add	ecx, 12					; 0000000cH
	push	ecx
	mov	ecx, DWORD PTR _this$[ebp]
	add	ecx, 12					; 0000000cH
	call	??4Vector3@Ogre@@QAEABV01@ABV01@@Z	; Ogre::Vector3::operator=
	mov	edx, DWORD PTR _this$[ebp]
	mov	eax, DWORD PTR ___that$[ebp]
	fld	DWORD PTR [eax+24]
	fstp	DWORD PTR [edx+24]
	mov	eax, DWORD PTR _this$[ebp]
	mov	esp, ebp
	pop	ebp
	ret	4
??4BoxSphereBound@Ogre@@QAEAAV01@ABV01@@Z ENDP		; Ogre::BoxSphereBound::operator=
_TEXT	ENDS
PUBLIC	?getRTTI@MovableObject@Ogre@@UBEPBVRuntimeClass@2@XZ ; Ogre::MovableObject::getRTTI
EXTRN	?m_RTTI@MovableObject@Ogre@@2VRuntimeClass@2@B:BYTE ; Ogre::MovableObject::m_RTTI
; Function compile flags: /Odtp
; File i:\svnroot\client\ogremain\ogremovableobject.h
;	COMDAT ?getRTTI@MovableObject@Ogre@@UBEPBVRuntimeClass@2@XZ
_TEXT	SEGMENT
_this$ = -4						; size = 4
?getRTTI@MovableObject@Ogre@@UBEPBVRuntimeClass@2@XZ PROC ; Ogre::MovableObject::getRTTI, COMDAT
; _this$ = ecx

; 16   : 		DECLARE_RTTI_VIRTUAL(MovableObject)

	push	ebp
	mov	ebp, esp
	push	ecx
	mov	DWORD PTR _this$[ebp], ecx
	mov	eax, OFFSET ?m_RTTI@MovableObject@Ogre@@2VRuntimeClass@2@B ; Ogre::MovableObject::m_RTTI
	mov	esp, ebp
	pop	ebp
	ret	0
?getRTTI@MovableObject@Ogre@@UBEPBVRuntimeClass@2@XZ ENDP ; Ogre::MovableObject::getRTTI
_TEXT	ENDS
PUBLIC	?enableUVMask@MovableObject@Ogre@@UAEX_N0@Z	; Ogre::MovableObject::enableUVMask
; Function compile flags: /Odtp
;	COMDAT ?enableUVMask@MovableObject@Ogre@@UAEX_N0@Z
_TEXT	SEGMENT
_this$ = -4						; size = 4
_enable$ = 8						; size = 1
_stdmtlUse$ = 12					; size = 1
?enableUVMask@MovableObject@Ogre@@UAEX_N0@Z PROC	; Ogre::MovableObject::enableUVMask, COMDAT
; _this$ = ecx

; 23   : 		{

	push	ebp
	mov	ebp, esp
	push	ecx
	mov	DWORD PTR _this$[ebp], ecx

; 24   : 
; 25   : 		}

	mov	esp, ebp
	pop	ebp
	ret	8
?enableUVMask@MovableObject@Ogre@@UAEX_N0@Z ENDP	; Ogre::MovableObject::enableUVMask
_TEXT	ENDS
PUBLIC	?setLiuGuangTexture@MovableObject@Ogre@@UAEXPAVTextureData@2@@Z ; Ogre::MovableObject::setLiuGuangTexture
; Function compile flags: /Odtp
;	COMDAT ?setLiuGuangTexture@MovableObject@Ogre@@UAEXPAVTextureData@2@@Z
_TEXT	SEGMENT
_this$ = -4						; size = 4
_texture$ = 8						; size = 4
?setLiuGuangTexture@MovableObject@Ogre@@UAEXPAVTextureData@2@@Z PROC ; Ogre::MovableObject::setLiuGuangTexture, COMDAT
; _this$ = ecx

; 28   : 		{

	push	ebp
	mov	ebp, esp
	push	ecx
	mov	DWORD PTR _this$[ebp], ecx

; 29   : 
; 30   : 		}

	mov	esp, ebp
	pop	ebp
	ret	4
?setLiuGuangTexture@MovableObject@Ogre@@UAEXPAVTextureData@2@@Z ENDP ; Ogre::MovableObject::setLiuGuangTexture
_TEXT	ENDS
PUBLIC	?setLiuGuangTexture@MovableObject@Ogre@@UAEXPBD@Z ; Ogre::MovableObject::setLiuGuangTexture
; Function compile flags: /Odtp
;	COMDAT ?setLiuGuangTexture@MovableObject@Ogre@@UAEXPBD@Z
_TEXT	SEGMENT
_this$ = -4						; size = 4
_filename$ = 8						; size = 4
?setLiuGuangTexture@MovableObject@Ogre@@UAEXPBD@Z PROC	; Ogre::MovableObject::setLiuGuangTexture, COMDAT
; _this$ = ecx

; 33   : 		{

	push	ebp
	mov	ebp, esp
	push	ecx
	mov	DWORD PTR _this$[ebp], ecx

; 34   : 
; 35   : 		}

	mov	esp, ebp
	pop	ebp
	ret	4
?setLiuGuangTexture@MovableObject@Ogre@@UAEXPBD@Z ENDP	; Ogre::MovableObject::setLiuGuangTexture
_TEXT	ENDS
PUBLIC	?SetForceShadowMapCull@MovableObject@Ogre@@UAEX_N@Z ; Ogre::MovableObject::SetForceShadowMapCull
; Function compile flags: /Odtp
;	COMDAT ?SetForceShadowMapCull@MovableObject@Ogre@@UAEX_N@Z
_TEXT	SEGMENT
_this$ = -4						; size = 4
_cull$ = 8						; size = 1
?SetForceShadowMapCull@MovableObject@Ogre@@UAEX_N@Z PROC ; Ogre::MovableObject::SetForceShadowMapCull, COMDAT
; _this$ = ecx

; 39   : 		{

	push	ebp
	mov	ebp, esp
	push	ecx
	mov	DWORD PTR _this$[ebp], ecx

; 40   : 			m_bForceShadowMapCull = cull;

	mov	eax, DWORD PTR _this$[ebp]
	mov	cl, BYTE PTR _cull$[ebp]
	mov	BYTE PTR [eax+208], cl

; 41   : 		}

	mov	esp, ebp
	pop	ebp
	ret	4
?SetForceShadowMapCull@MovableObject@Ogre@@UAEX_N@Z ENDP ; Ogre::MovableObject::SetForceShadowMapCull
_TEXT	ENDS
PUBLIC	?IsForceShadowMapCull@MovableObject@Ogre@@QAE_NXZ ; Ogre::MovableObject::IsForceShadowMapCull
; Function compile flags: /Odtp
;	COMDAT ?IsForceShadowMapCull@MovableObject@Ogre@@QAE_NXZ
_TEXT	SEGMENT
_this$ = -4						; size = 4
?IsForceShadowMapCull@MovableObject@Ogre@@QAE_NXZ PROC	; Ogre::MovableObject::IsForceShadowMapCull, COMDAT
; _this$ = ecx

; 44   : 		{

	push	ebp
	mov	ebp, esp
	push	ecx
	mov	DWORD PTR _this$[ebp], ecx

; 45   : 			return m_bForceShadowMapCull;

	mov	eax, DWORD PTR _this$[ebp]
	mov	al, BYTE PTR [eax+208]

; 46   : 		}

	mov	esp, ebp
	pop	ebp
	ret	0
?IsForceShadowMapCull@MovableObject@Ogre@@QAE_NXZ ENDP	; Ogre::MovableObject::IsForceShadowMapCull
_TEXT	ENDS
PUBLIC	?resetUpdate@MovableObject@Ogre@@UAEX_NI@Z	; Ogre::MovableObject::resetUpdate
; Function compile flags: /Odtp
;	COMDAT ?resetUpdate@MovableObject@Ogre@@UAEX_NI@Z
_TEXT	SEGMENT
_this$ = -4						; size = 4
_pause$ = 8						; size = 1
_tick$ = 12						; size = 4
?resetUpdate@MovableObject@Ogre@@UAEX_NI@Z PROC		; Ogre::MovableObject::resetUpdate, COMDAT
; _this$ = ecx

; 50   : 		{

	push	ebp
	mov	ebp, esp
	push	ecx
	mov	DWORD PTR _this$[ebp], ecx

; 51   : 			m_bPause = pause;

	mov	eax, DWORD PTR _this$[ebp]
	mov	cl, BYTE PTR _pause$[ebp]
	mov	BYTE PTR [eax+184], cl

; 52   : 		}

	mov	esp, ebp
	pop	ebp
	ret	8
?resetUpdate@MovableObject@Ogre@@UAEX_NI@Z ENDP		; Ogre::MovableObject::resetUpdate
_TEXT	ENDS
PUBLIC	?getWorldMatrix@MovableObject@Ogre@@QAEABVMatrix4@2@XZ ; Ogre::MovableObject::getWorldMatrix
PUBLIC	?getAnchorWorldMatrix@MovableObject@Ogre@@UAE?AVMatrix4@2@H@Z ; Ogre::MovableObject::getAnchorWorldMatrix
EXTRN	??0Matrix4@Ogre@@QAE@ABV01@@Z:PROC		; Ogre::Matrix4::Matrix4
; Function compile flags: /Odtp
;	COMDAT ?getAnchorWorldMatrix@MovableObject@Ogre@@UAE?AVMatrix4@2@H@Z
_TEXT	SEGMENT
_this$ = -4						; size = 4
___$ReturnUdt$ = 8					; size = 4
_id$ = 12						; size = 4
?getAnchorWorldMatrix@MovableObject@Ogre@@UAE?AVMatrix4@2@H@Z PROC ; Ogre::MovableObject::getAnchorWorldMatrix, COMDAT
; _this$ = ecx

; 57   : 		{

	push	ebp
	mov	ebp, esp
	push	ecx
	mov	DWORD PTR _this$[ebp], ecx

; 58   : 			return getWorldMatrix();

	mov	ecx, DWORD PTR _this$[ebp]
	call	?getWorldMatrix@MovableObject@Ogre@@QAEABVMatrix4@2@XZ ; Ogre::MovableObject::getWorldMatrix
	push	eax
	mov	ecx, DWORD PTR ___$ReturnUdt$[ebp]
	call	??0Matrix4@Ogre@@QAE@ABV01@@Z		; Ogre::Matrix4::Matrix4
	mov	eax, DWORD PTR ___$ReturnUdt$[ebp]

; 59   : 		}

	mov	esp, ebp
	pop	ebp
	ret	8
?getAnchorWorldMatrix@MovableObject@Ogre@@UAE?AVMatrix4@2@H@Z ENDP ; Ogre::MovableObject::getAnchorWorldMatrix
_TEXT	ENDS
PUBLIC	?setPosition@MovableObject@Ogre@@QAEXABVWorldPos@2@@Z ; Ogre::MovableObject::setPosition
; Function compile flags: /Odtp
;	COMDAT ?setPosition@MovableObject@Ogre@@QAEXABVWorldPos@2@@Z
_TEXT	SEGMENT
_this$ = -4						; size = 4
_pos$ = 8						; size = 4
?setPosition@MovableObject@Ogre@@QAEXABVWorldPos@2@@Z PROC ; Ogre::MovableObject::setPosition, COMDAT
; _this$ = ecx

; 65   : 		{

	push	ebp
	mov	ebp, esp
	push	ecx
	mov	DWORD PTR _this$[ebp], ecx

; 66   : 			m_Position = pos;

	mov	eax, DWORD PTR _pos$[ebp]
	mov	ecx, DWORD PTR _this$[ebp]
	add	ecx, 8
	mov	edx, DWORD PTR [eax]
	mov	DWORD PTR [ecx], edx
	mov	edx, DWORD PTR [eax+4]
	mov	DWORD PTR [ecx+4], edx
	mov	eax, DWORD PTR [eax+8]
	mov	DWORD PTR [ecx+8], eax

; 67   : 			invalidWorldCache();

	mov	ecx, DWORD PTR _this$[ebp]
	mov	edx, DWORD PTR [ecx]
	mov	ecx, DWORD PTR _this$[ebp]
	mov	eax, DWORD PTR [edx+68]
	call	eax

; 68   : 		}

	mov	esp, ebp
	pop	ebp
	ret	4
?setPosition@MovableObject@Ogre@@QAEXABVWorldPos@2@@Z ENDP ; Ogre::MovableObject::setPosition
_TEXT	ENDS
PUBLIC	?setScale@MovableObject@Ogre@@QAEXABVVector3@2@@Z ; Ogre::MovableObject::setScale
; Function compile flags: /Odtp
;	COMDAT ?setScale@MovableObject@Ogre@@QAEXABVVector3@2@@Z
_TEXT	SEGMENT
_this$ = -4						; size = 4
_scale$ = 8						; size = 4
?setScale@MovableObject@Ogre@@QAEXABVVector3@2@@Z PROC	; Ogre::MovableObject::setScale, COMDAT
; _this$ = ecx

; 70   : 		{

	push	ebp
	mov	ebp, esp
	push	ecx
	mov	DWORD PTR _this$[ebp], ecx

; 71   : 			m_Scale = scale;

	mov	eax, DWORD PTR _scale$[ebp]
	push	eax
	mov	ecx, DWORD PTR _this$[ebp]
	add	ecx, 36					; 00000024H
	call	??4Vector3@Ogre@@QAEABV01@ABV01@@Z	; Ogre::Vector3::operator=

; 72   : 			invalidWorldCache();

	mov	ecx, DWORD PTR _this$[ebp]
	mov	edx, DWORD PTR [ecx]
	mov	ecx, DWORD PTR _this$[ebp]
	mov	eax, DWORD PTR [edx+68]
	call	eax

; 73   : 		}

	mov	esp, ebp
	pop	ebp
	ret	4
?setScale@MovableObject@Ogre@@QAEXABVVector3@2@@Z ENDP	; Ogre::MovableObject::setScale
_TEXT	ENDS
PUBLIC	?setRotation@MovableObject@Ogre@@QAEXABVQuaternion@2@@Z ; Ogre::MovableObject::setRotation
; Function compile flags: /Odtp
;	COMDAT ?setRotation@MovableObject@Ogre@@QAEXABVQuaternion@2@@Z
_TEXT	SEGMENT
_this$ = -4						; size = 4
_rot$ = 8						; size = 4
?setRotation@MovableObject@Ogre@@QAEXABVQuaternion@2@@Z PROC ; Ogre::MovableObject::setRotation, COMDAT
; _this$ = ecx

; 75   : 		{

	push	ebp
	mov	ebp, esp
	push	ecx
	mov	DWORD PTR _this$[ebp], ecx

; 76   : 			m_Rotation = rot;

	mov	eax, DWORD PTR _rot$[ebp]
	push	eax
	mov	ecx, DWORD PTR _this$[ebp]
	add	ecx, 20					; 00000014H
	call	??4Quaternion@Ogre@@QAEAAV01@ABV01@@Z	; Ogre::Quaternion::operator=

; 77   : 			invalidWorldCache();

	mov	ecx, DWORD PTR _this$[ebp]
	mov	edx, DWORD PTR [ecx]
	mov	ecx, DWORD PTR _this$[ebp]
	mov	eax, DWORD PTR [edx+68]
	call	eax

; 78   : 		}

	mov	esp, ebp
	pop	ebp
	ret	4
?setRotation@MovableObject@Ogre@@QAEXABVQuaternion@2@@Z ENDP ; Ogre::MovableObject::setRotation
_TEXT	ENDS
PUBLIC	?setRotation@MovableObject@Ogre@@QAEXMMM@Z	; Ogre::MovableObject::setRotation
EXTRN	?setEulerAngle@Quaternion@Ogre@@QAEXMMM@Z:PROC	; Ogre::Quaternion::setEulerAngle
; Function compile flags: /Odtp
;	COMDAT ?setRotation@MovableObject@Ogre@@QAEXMMM@Z
_TEXT	SEGMENT
_this$ = -4						; size = 4
_yaw$ = 8						; size = 4
_pitch$ = 12						; size = 4
_roll$ = 16						; size = 4
?setRotation@MovableObject@Ogre@@QAEXMMM@Z PROC		; Ogre::MovableObject::setRotation, COMDAT
; _this$ = ecx

; 80   : 		{

	push	ebp
	mov	ebp, esp
	push	ecx
	mov	DWORD PTR _this$[ebp], ecx

; 81   : 			m_Rotation.setEulerAngle(yaw, pitch, roll);

	push	ecx
	fld	DWORD PTR _roll$[ebp]
	fstp	DWORD PTR [esp]
	push	ecx
	fld	DWORD PTR _pitch$[ebp]
	fstp	DWORD PTR [esp]
	push	ecx
	fld	DWORD PTR _yaw$[ebp]
	fstp	DWORD PTR [esp]
	mov	ecx, DWORD PTR _this$[ebp]
	add	ecx, 20					; 00000014H
	call	?setEulerAngle@Quaternion@Ogre@@QAEXMMM@Z ; Ogre::Quaternion::setEulerAngle

; 82   : 			invalidWorldCache();

	mov	eax, DWORD PTR _this$[ebp]
	mov	edx, DWORD PTR [eax]
	mov	ecx, DWORD PTR _this$[ebp]
	mov	eax, DWORD PTR [edx+68]
	call	eax

; 83   : 		}

	mov	esp, ebp
	pop	ebp
	ret	12					; 0000000cH
?setRotation@MovableObject@Ogre@@QAEXMMM@Z ENDP		; Ogre::MovableObject::setRotation
_TEXT	ENDS
PUBLIC	?getPosition@MovableObject@Ogre@@QBEABVWorldPos@2@XZ ; Ogre::MovableObject::getPosition
; Function compile flags: /Odtp
;	COMDAT ?getPosition@MovableObject@Ogre@@QBEABVWorldPos@2@XZ
_TEXT	SEGMENT
_this$ = -4						; size = 4
?getPosition@MovableObject@Ogre@@QBEABVWorldPos@2@XZ PROC ; Ogre::MovableObject::getPosition, COMDAT
; _this$ = ecx

; 85   : 		{

	push	ebp
	mov	ebp, esp
	push	ecx
	mov	DWORD PTR _this$[ebp], ecx

; 86   : 			return m_Position;

	mov	eax, DWORD PTR _this$[ebp]
	add	eax, 8

; 87   : 		}

	mov	esp, ebp
	pop	ebp
	ret	0
?getPosition@MovableObject@Ogre@@QBEABVWorldPos@2@XZ ENDP ; Ogre::MovableObject::getPosition
_TEXT	ENDS
PUBLIC	?getScale@MovableObject@Ogre@@QBEABVVector3@2@XZ ; Ogre::MovableObject::getScale
; Function compile flags: /Odtp
;	COMDAT ?getScale@MovableObject@Ogre@@QBEABVVector3@2@XZ
_TEXT	SEGMENT
_this$ = -4						; size = 4
?getScale@MovableObject@Ogre@@QBEABVVector3@2@XZ PROC	; Ogre::MovableObject::getScale, COMDAT
; _this$ = ecx

; 89   : 		{

	push	ebp
	mov	ebp, esp
	push	ecx
	mov	DWORD PTR _this$[ebp], ecx

; 90   : 			return m_Scale;

	mov	eax, DWORD PTR _this$[ebp]
	add	eax, 36					; 00000024H

; 91   : 		}

	mov	esp, ebp
	pop	ebp
	ret	0
?getScale@MovableObject@Ogre@@QBEABVVector3@2@XZ ENDP	; Ogre::MovableObject::getScale
_TEXT	ENDS
PUBLIC	?getRotation@MovableObject@Ogre@@QBEABVQuaternion@2@XZ ; Ogre::MovableObject::getRotation
; Function compile flags: /Odtp
;	COMDAT ?getRotation@MovableObject@Ogre@@QBEABVQuaternion@2@XZ
_TEXT	SEGMENT
_this$ = -4						; size = 4
?getRotation@MovableObject@Ogre@@QBEABVQuaternion@2@XZ PROC ; Ogre::MovableObject::getRotation, COMDAT
; _this$ = ecx

; 93   : 		{

	push	ebp
	mov	ebp, esp
	push	ecx
	mov	DWORD PTR _this$[ebp], ecx

; 94   : 			return m_Rotation;

	mov	eax, DWORD PTR _this$[ebp]
	add	eax, 20					; 00000014H

; 95   : 		}

	mov	esp, ebp
	pop	ebp
	ret	0
?getRotation@MovableObject@Ogre@@QBEABVQuaternion@2@XZ ENDP ; Ogre::MovableObject::getRotation
; Function compile flags: /Odtp
_TEXT	ENDS
;	COMDAT ?getWorldMatrix@MovableObject@Ogre@@QAEABVMatrix4@2@XZ
_TEXT	SEGMENT
_this$ = -4						; size = 4
?getWorldMatrix@MovableObject@Ogre@@QAEABVMatrix4@2@XZ PROC ; Ogre::MovableObject::getWorldMatrix, COMDAT
; _this$ = ecx

; 97   : 		{

	push	ebp
	mov	ebp, esp
	push	ecx
	mov	DWORD PTR _this$[ebp], ecx

; 98   : 			if(m_bWorldCacheInvalid)

	mov	eax, DWORD PTR _this$[ebp]
	movzx	ecx, BYTE PTR [eax+180]
	test	ecx, ecx
	je	SHORT $LN1@getWorldMa

; 99   : 			{
; 100  : 				updateWorldCache();

	mov	edx, DWORD PTR _this$[ebp]
	mov	eax, DWORD PTR [edx]
	mov	ecx, DWORD PTR _this$[ebp]
	mov	edx, DWORD PTR [eax+72]
	call	edx
$LN1@getWorldMa:

; 101  : 			}
; 102  : 
; 103  : 			return m_WorldTM;

	mov	eax, DWORD PTR _this$[ebp]
	add	eax, 48					; 00000030H

; 104  : 		}

	mov	esp, ebp
	pop	ebp
	ret	0
?getWorldMatrix@MovableObject@Ogre@@QAEABVMatrix4@2@XZ ENDP ; Ogre::MovableObject::getWorldMatrix
_TEXT	ENDS
PUBLIC	?getWorldPosition@MovableObject@Ogre@@QAE?BVVector3@2@XZ ; Ogre::MovableObject::getWorldPosition
; Function compile flags: /Odtp
;	COMDAT ?getWorldPosition@MovableObject@Ogre@@QAE?BVVector3@2@XZ
_TEXT	SEGMENT
_this$ = -4						; size = 4
___$ReturnUdt$ = 8					; size = 4
?getWorldPosition@MovableObject@Ogre@@QAE?BVVector3@2@XZ PROC ; Ogre::MovableObject::getWorldPosition, COMDAT
; _this$ = ecx

; 106  : 		{

	push	ebp
	mov	ebp, esp
	push	ecx
	mov	DWORD PTR _this$[ebp], ecx

; 107  : 			return getWorldMatrix().getTranslate();

	mov	eax, DWORD PTR ___$ReturnUdt$[ebp]
	push	eax
	mov	ecx, DWORD PTR _this$[ebp]
	call	?getWorldMatrix@MovableObject@Ogre@@QAEABVMatrix4@2@XZ ; Ogre::MovableObject::getWorldMatrix
	mov	ecx, eax
	call	?getTranslate@Matrix4@Ogre@@QBE?AVVector3@2@XZ ; Ogre::Matrix4::getTranslate
	mov	eax, DWORD PTR ___$ReturnUdt$[ebp]

; 108  : 		}

	mov	esp, ebp
	pop	ebp
	ret	4
?getWorldPosition@MovableObject@Ogre@@QAE?BVVector3@2@XZ ENDP ; Ogre::MovableObject::getWorldPosition
_TEXT	ENDS
PUBLIC	?getWorldBounds@MovableObject@Ogre@@QAEABVBoxSphereBound@2@XZ ; Ogre::MovableObject::getWorldBounds
; Function compile flags: /Odtp
;	COMDAT ?getWorldBounds@MovableObject@Ogre@@QAEABVBoxSphereBound@2@XZ
_TEXT	SEGMENT
_this$ = -4						; size = 4
?getWorldBounds@MovableObject@Ogre@@QAEABVBoxSphereBound@2@XZ PROC ; Ogre::MovableObject::getWorldBounds, COMDAT
; _this$ = ecx

; 110  : 		{

	push	ebp
	mov	ebp, esp
	push	ecx
	mov	DWORD PTR _this$[ebp], ecx

; 111  : 			if(m_bWorldCacheInvalid)

	mov	eax, DWORD PTR _this$[ebp]
	movzx	ecx, BYTE PTR [eax+180]
	test	ecx, ecx
	je	SHORT $LN1@getWorldBo

; 112  : 			{
; 113  : 				updateWorldCache();

	mov	edx, DWORD PTR _this$[ebp]
	mov	eax, DWORD PTR [edx]
	mov	ecx, DWORD PTR _this$[ebp]
	mov	edx, DWORD PTR [eax+72]
	call	edx
$LN1@getWorldBo:

; 114  : 			}
; 115  : 
; 116  : 			return m_WorldBounds;

	mov	eax, DWORD PTR _this$[ebp]
	add	eax, 140				; 0000008cH

; 117  : 		}

	mov	esp, ebp
	pop	ebp
	ret	0
?getWorldBounds@MovableObject@Ogre@@QAEABVBoxSphereBound@2@XZ ENDP ; Ogre::MovableObject::getWorldBounds
_TEXT	ENDS
PUBLIC	?show@MovableObject@Ogre@@QAEX_N@Z		; Ogre::MovableObject::show
; Function compile flags: /Odtp
;	COMDAT ?show@MovableObject@Ogre@@QAEX_N@Z
_TEXT	SEGMENT
_this$ = -4						; size = 4
_b$ = 8							; size = 1
?show@MovableObject@Ogre@@QAEX_N@Z PROC			; Ogre::MovableObject::show, COMDAT
; _this$ = ecx

; 119  : 		void show(bool b){m_bShow = b;}

	push	ebp
	mov	ebp, esp
	push	ecx
	mov	DWORD PTR _this$[ebp], ecx
	mov	eax, DWORD PTR _this$[ebp]
	mov	cl, BYTE PTR _b$[ebp]
	mov	BYTE PTR [eax+183], cl
	mov	esp, ebp
	pop	ebp
	ret	4
?show@MovableObject@Ogre@@QAEX_N@Z ENDP			; Ogre::MovableObject::show
_TEXT	ENDS
PUBLIC	?isShow@MovableObject@Ogre@@QAE_NXZ		; Ogre::MovableObject::isShow
; Function compile flags: /Odtp
;	COMDAT ?isShow@MovableObject@Ogre@@QAE_NXZ
_TEXT	SEGMENT
_this$ = -4						; size = 4
?isShow@MovableObject@Ogre@@QAE_NXZ PROC		; Ogre::MovableObject::isShow, COMDAT
; _this$ = ecx

; 120  : 		bool isShow(){return m_bShow;}

	push	ebp
	mov	ebp, esp
	push	ecx
	mov	DWORD PTR _this$[ebp], ecx
	mov	eax, DWORD PTR _this$[ebp]
	mov	al, BYTE PTR [eax+183]
	mov	esp, ebp
	pop	ebp
	ret	0
?isShow@MovableObject@Ogre@@QAE_NXZ ENDP		; Ogre::MovableObject::isShow
_TEXT	ENDS
PUBLIC	?getScene@MovableObject@Ogre@@QAEPAVGameScene@2@XZ ; Ogre::MovableObject::getScene
; Function compile flags: /Odtp
;	COMDAT ?getScene@MovableObject@Ogre@@QAEPAVGameScene@2@XZ
_TEXT	SEGMENT
_this$ = -4						; size = 4
?getScene@MovableObject@Ogre@@QAEPAVGameScene@2@XZ PROC	; Ogre::MovableObject::getScene, COMDAT
; _this$ = ecx

; 123  : 		{

	push	ebp
	mov	ebp, esp
	push	ecx
	mov	DWORD PTR _this$[ebp], ecx

; 124  : 			return m_pScene;

	mov	eax, DWORD PTR _this$[ebp]
	mov	eax, DWORD PTR [eax+192]

; 125  : 		}

	mov	esp, ebp
	pop	ebp
	ret	0
?getScene@MovableObject@Ogre@@QAEPAVGameScene@2@XZ ENDP	; Ogre::MovableObject::getScene
_TEXT	ENDS
PUBLIC	?getSceneContainer@MovableObject@Ogre@@QAEPAXXZ	; Ogre::MovableObject::getSceneContainer
; Function compile flags: /Odtp
;	COMDAT ?getSceneContainer@MovableObject@Ogre@@QAEPAXXZ
_TEXT	SEGMENT
_this$ = -4						; size = 4
?getSceneContainer@MovableObject@Ogre@@QAEPAXXZ PROC	; Ogre::MovableObject::getSceneContainer, COMDAT
; _this$ = ecx

; 128  : 		{

	push	ebp
	mov	ebp, esp
	push	ecx
	mov	DWORD PTR _this$[ebp], ecx

; 129  : 			return m_pSceneContainer;

	mov	eax, DWORD PTR _this$[ebp]
	mov	eax, DWORD PTR [eax+196]

; 130  : 		}

	mov	esp, ebp
	pop	ebp
	ret	0
?getSceneContainer@MovableObject@Ogre@@QAEPAXXZ ENDP	; Ogre::MovableObject::getSceneContainer
_TEXT	ENDS
PUBLIC	?setScene@MovableObject@Ogre@@QAEXPAVGameScene@2@@Z ; Ogre::MovableObject::setScene
; Function compile flags: /Odtp
;	COMDAT ?setScene@MovableObject@Ogre@@QAEXPAVGameScene@2@@Z
_TEXT	SEGMENT
_this$ = -4						; size = 4
_pscene$ = 8						; size = 4
?setScene@MovableObject@Ogre@@QAEXPAVGameScene@2@@Z PROC ; Ogre::MovableObject::setScene, COMDAT
; _this$ = ecx

; 133  : 		{

	push	ebp
	mov	ebp, esp
	push	ecx
	mov	DWORD PTR _this$[ebp], ecx

; 134  : 			m_pScene = pscene;

	mov	eax, DWORD PTR _this$[ebp]
	mov	ecx, DWORD PTR _pscene$[ebp]
	mov	DWORD PTR [eax+192], ecx

; 135  : 		}

	mov	esp, ebp
	pop	ebp
	ret	4
?setScene@MovableObject@Ogre@@QAEXPAVGameScene@2@@Z ENDP ; Ogre::MovableObject::setScene
_TEXT	ENDS
PUBLIC	?setSceneContainer@MovableObject@Ogre@@QAEXPAX@Z ; Ogre::MovableObject::setSceneContainer
; Function compile flags: /Odtp
;	COMDAT ?setSceneContainer@MovableObject@Ogre@@QAEXPAX@Z
_TEXT	SEGMENT
_this$ = -4						; size = 4
_p$ = 8							; size = 4
?setSceneContainer@MovableObject@Ogre@@QAEXPAX@Z PROC	; Ogre::MovableObject::setSceneContainer, COMDAT
; _this$ = ecx

; 138  : 		{

	push	ebp
	mov	ebp, esp
	push	ecx
	mov	DWORD PTR _this$[ebp], ecx

; 139  : 			m_pSceneContainer = p;

	mov	eax, DWORD PTR _this$[ebp]
	mov	ecx, DWORD PTR _p$[ebp]
	mov	DWORD PTR [eax+196], ecx

; 140  : 		}

	mov	esp, ebp
	pop	ebp
	ret	4
?setSceneContainer@MovableObject@Ogre@@QAEXPAX@Z ENDP	; Ogre::MovableObject::setSceneContainer
_TEXT	ENDS
PUBLIC	?setPickParam@MovableObject@Ogre@@QAEXIPAV12@@Z	; Ogre::MovableObject::setPickParam
; Function compile flags: /Odtp
;	COMDAT ?setPickParam@MovableObject@Ogre@@QAEXIPAV12@@Z
_TEXT	SEGMENT
_this$ = -4						; size = 4
_type$ = 8						; size = 4
_pick_owner$ = 12					; size = 4
?setPickParam@MovableObject@Ogre@@QAEXIPAV12@@Z PROC	; Ogre::MovableObject::setPickParam, COMDAT
; _this$ = ecx

; 143  : 		{

	push	ebp
	mov	ebp, esp
	push	ecx
	mov	DWORD PTR _this$[ebp], ecx

; 144  : 			m_PickType = type;

	mov	eax, DWORD PTR _this$[ebp]
	mov	ecx, DWORD PTR _type$[ebp]
	mov	DWORD PTR [eax+200], ecx

; 145  : 			m_pPickOwner = pick_owner;

	mov	edx, DWORD PTR _this$[ebp]
	mov	eax, DWORD PTR _pick_owner$[ebp]
	mov	DWORD PTR [edx+204], eax

; 146  : 		}

	mov	esp, ebp
	pop	ebp
	ret	8
?setPickParam@MovableObject@Ogre@@QAEXIPAV12@@Z ENDP	; Ogre::MovableObject::setPickParam
_TEXT	ENDS
PUBLIC	?getPickType@MovableObject@Ogre@@QAEIXZ		; Ogre::MovableObject::getPickType
; Function compile flags: /Odtp
;	COMDAT ?getPickType@MovableObject@Ogre@@QAEIXZ
_TEXT	SEGMENT
_this$ = -4						; size = 4
?getPickType@MovableObject@Ogre@@QAEIXZ PROC		; Ogre::MovableObject::getPickType, COMDAT
; _this$ = ecx

; 149  : 		{

	push	ebp
	mov	ebp, esp
	push	ecx
	mov	DWORD PTR _this$[ebp], ecx

; 150  : 			return m_PickType;

	mov	eax, DWORD PTR _this$[ebp]
	mov	eax, DWORD PTR [eax+200]

; 151  : 		}

	mov	esp, ebp
	pop	ebp
	ret	0
?getPickType@MovableObject@Ogre@@QAEIXZ ENDP		; Ogre::MovableObject::getPickType
_TEXT	ENDS
PUBLIC	?getPickOwner@MovableObject@Ogre@@QAEPAV12@XZ	; Ogre::MovableObject::getPickOwner
; Function compile flags: /Odtp
;	COMDAT ?getPickOwner@MovableObject@Ogre@@QAEPAV12@XZ
_TEXT	SEGMENT
_this$ = -4						; size = 4
?getPickOwner@MovableObject@Ogre@@QAEPAV12@XZ PROC	; Ogre::MovableObject::getPickOwner, COMDAT
; _this$ = ecx

; 154  : 		{

	push	ebp
	mov	ebp, esp
	push	ecx
	mov	DWORD PTR _this$[ebp], ecx

; 155  : 			return m_pPickOwner;

	mov	eax, DWORD PTR _this$[ebp]
	mov	eax, DWORD PTR [eax+204]

; 156  : 		}

	mov	esp, ebp
	pop	ebp
	ret	0
?getPickOwner@MovableObject@Ogre@@QAEPAV12@XZ ENDP	; Ogre::MovableObject::getPickOwner
_TEXT	ENDS
PUBLIC	?isSceneAttached@MovableObject@Ogre@@QAE_NXZ	; Ogre::MovableObject::isSceneAttached
; Function compile flags: /Odtp
;	COMDAT ?isSceneAttached@MovableObject@Ogre@@QAE_NXZ
_TEXT	SEGMENT
_this$ = -4						; size = 4
?isSceneAttached@MovableObject@Ogre@@QAE_NXZ PROC	; Ogre::MovableObject::isSceneAttached, COMDAT
; _this$ = ecx

; 159  : 		{

	push	ebp
	mov	ebp, esp
	push	ecx
	mov	DWORD PTR _this$[ebp], ecx

; 160  : 			return m_bSceneAttached;

	mov	eax, DWORD PTR _this$[ebp]
	mov	al, BYTE PTR [eax+182]

; 161  : 		}

	mov	esp, ebp
	pop	ebp
	ret	0
?isSceneAttached@MovableObject@Ogre@@QAE_NXZ ENDP	; Ogre::MovableObject::isSceneAttached
_TEXT	ENDS
PUBLIC	?setFather@MovableObject@Ogre@@QAEXPAV12@@Z	; Ogre::MovableObject::setFather
; Function compile flags: /Odtp
;	COMDAT ?setFather@MovableObject@Ogre@@QAEXPAV12@@Z
_TEXT	SEGMENT
_this$ = -4						; size = 4
_pfather$ = 8						; size = 4
?setFather@MovableObject@Ogre@@QAEXPAV12@@Z PROC	; Ogre::MovableObject::setFather, COMDAT
; _this$ = ecx

; 164  : 		{

	push	ebp
	mov	ebp, esp
	push	ecx
	mov	DWORD PTR _this$[ebp], ecx

; 165  : 			m_pFather = pfather;

	mov	eax, DWORD PTR _this$[ebp]
	mov	ecx, DWORD PTR _pfather$[ebp]
	mov	DWORD PTR [eax+176], ecx

; 166  : 		}

	mov	esp, ebp
	pop	ebp
	ret	4
?setFather@MovableObject@Ogre@@QAEXPAV12@@Z ENDP	; Ogre::MovableObject::setFather
_TEXT	ENDS
PUBLIC	?getFather@MovableObject@Ogre@@QAEPAV12@XZ	; Ogre::MovableObject::getFather
; Function compile flags: /Odtp
;	COMDAT ?getFather@MovableObject@Ogre@@QAEPAV12@XZ
_TEXT	SEGMENT
_this$ = -4						; size = 4
?getFather@MovableObject@Ogre@@QAEPAV12@XZ PROC		; Ogre::MovableObject::getFather, COMDAT
; _this$ = ecx

; 169  : 		{

	push	ebp
	mov	ebp, esp
	push	ecx
	mov	DWORD PTR _this$[ebp], ecx

; 170  : 			return m_pFather;

	mov	eax, DWORD PTR _this$[ebp]
	mov	eax, DWORD PTR [eax+176]

; 171  : 		}

	mov	esp, ebp
	pop	ebp
	ret	0
?getFather@MovableObject@Ogre@@QAEPAV12@XZ ENDP		; Ogre::MovableObject::getFather
_TEXT	ENDS
PUBLIC	?getSRTFather@MovableObject@Ogre@@QAEPAV12@XZ	; Ogre::MovableObject::getSRTFather
; Function compile flags: /Odtp
;	COMDAT ?getSRTFather@MovableObject@Ogre@@QAEPAV12@XZ
_TEXT	SEGMENT
_this$ = -4						; size = 4
?getSRTFather@MovableObject@Ogre@@QAEPAV12@XZ PROC	; Ogre::MovableObject::getSRTFather, COMDAT
; _this$ = ecx

; 174  : 		{

	push	ebp
	mov	ebp, esp
	push	ecx
	mov	DWORD PTR _this$[ebp], ecx

; 175  : 			return m_pSRTFather;

	mov	eax, DWORD PTR _this$[ebp]
	mov	eax, DWORD PTR [eax+168]

; 176  : 		}

	mov	esp, ebp
	pop	ebp
	ret	0
?getSRTFather@MovableObject@Ogre@@QAEPAV12@XZ ENDP	; Ogre::MovableObject::getSRTFather
_TEXT	ENDS
PUBLIC	?setTransparent@MovableObject@Ogre@@QAEXM@Z	; Ogre::MovableObject::setTransparent
; Function compile flags: /Odtp
;	COMDAT ?setTransparent@MovableObject@Ogre@@QAEXM@Z
_TEXT	SEGMENT
_this$ = -4						; size = 4
_alpha$ = 8						; size = 4
?setTransparent@MovableObject@Ogre@@QAEXM@Z PROC	; Ogre::MovableObject::setTransparent, COMDAT
; _this$ = ecx

; 179  : 		{

	push	ebp
	mov	ebp, esp
	push	ecx
	mov	DWORD PTR _this$[ebp], ecx

; 180  : 			m_Transparent = alpha;

	mov	eax, DWORD PTR _this$[ebp]
	fld	DWORD PTR _alpha$[ebp]
	fstp	DWORD PTR [eax+188]

; 181  : 		}

	mov	esp, ebp
	pop	ebp
	ret	4
?setTransparent@MovableObject@Ogre@@QAEXM@Z ENDP	; Ogre::MovableObject::setTransparent
_TEXT	ENDS
PUBLIC	?getLocalTransparent@MovableObject@Ogre@@QAEMXZ	; Ogre::MovableObject::getLocalTransparent
; Function compile flags: /Odtp
;	COMDAT ?getLocalTransparent@MovableObject@Ogre@@QAEMXZ
_TEXT	SEGMENT
_this$ = -4						; size = 4
?getLocalTransparent@MovableObject@Ogre@@QAEMXZ PROC	; Ogre::MovableObject::getLocalTransparent, COMDAT
; _this$ = ecx

; 184  : 		{

	push	ebp
	mov	ebp, esp
	push	ecx
	mov	DWORD PTR _this$[ebp], ecx

; 185  : 			return m_Transparent;

	mov	eax, DWORD PTR _this$[ebp]
	fld	DWORD PTR [eax+188]

; 186  : 		}

	mov	esp, ebp
	pop	ebp
	ret	0
?getLocalTransparent@MovableObject@Ogre@@QAEMXZ ENDP	; Ogre::MovableObject::getLocalTransparent
_TEXT	ENDS
PUBLIC	?getTransparent@MovableObject@Ogre@@QAEMXZ	; Ogre::MovableObject::getTransparent
; Function compile flags: /Odtp
;	COMDAT ?getTransparent@MovableObject@Ogre@@QAEMXZ
_TEXT	SEGMENT
tv81 = -8						; size = 4
_this$ = -4						; size = 4
?getTransparent@MovableObject@Ogre@@QAEMXZ PROC		; Ogre::MovableObject::getTransparent, COMDAT
; _this$ = ecx

; 189  : 		{

	push	ebp
	mov	ebp, esp
	sub	esp, 8
	mov	DWORD PTR _this$[ebp], ecx

; 190  : 			if(m_pFather) return m_pFather->getTransparent()*m_Transparent;

	mov	eax, DWORD PTR _this$[ebp]
	cmp	DWORD PTR [eax+176], 0
	je	SHORT $LN2@getTranspa
	mov	ecx, DWORD PTR _this$[ebp]
	mov	ecx, DWORD PTR [ecx+176]
	call	?getTransparent@MovableObject@Ogre@@QAEMXZ ; Ogre::MovableObject::getTransparent
	mov	edx, DWORD PTR _this$[ebp]
	fmul	DWORD PTR [edx+188]
	fstp	DWORD PTR tv81[ebp]
	fld	DWORD PTR tv81[ebp]
	jmp	SHORT $LN1@getTranspa
	jmp	SHORT $LN1@getTranspa
$LN2@getTranspa:

; 191  : 			else return m_Transparent;

	mov	eax, DWORD PTR _this$[ebp]
	fld	DWORD PTR [eax+188]
$LN1@getTranspa:

; 192  : 		}

	mov	esp, ebp
	pop	ebp
	ret	0
?getTransparent@MovableObject@Ogre@@QAEMXZ ENDP		; Ogre::MovableObject::getTransparent
_TEXT	ENDS
PUBLIC	??_7MovableObject@Ogre@@6B@			; Ogre::MovableObject::`vftable'
PUBLIC	??0MovableObject@Ogre@@QAE@ABV01@@Z		; Ogre::MovableObject::MovableObject
PUBLIC	??_R4MovableObject@Ogre@@6B@			; Ogre::MovableObject::`RTTI Complete Object Locator'
PUBLIC	??_R0?AVMovableObject@Ogre@@@8			; Ogre::MovableObject `RTTI Type Descriptor'
PUBLIC	??_R3MovableObject@Ogre@@8			; Ogre::MovableObject::`RTTI Class Hierarchy Descriptor'
PUBLIC	??_R2MovableObject@Ogre@@8			; Ogre::MovableObject::`RTTI Base Class Array'
PUBLIC	??_R1A@?0A@EA@MovableObject@Ogre@@8		; Ogre::MovableObject::`RTTI Base Class Descriptor at (0,-1,0,64)'
PUBLIC	??_EMovableObject@Ogre@@UAEPAXI@Z		; Ogre::MovableObject::`vector deleting destructor'
EXTRN	?update@MovableObject@Ogre@@UAEXI@Z:PROC	; Ogre::MovableObject::update
EXTRN	?attachToScene@MovableObject@Ogre@@UAEXPAVGameScene@2@_N@Z:PROC ; Ogre::MovableObject::attachToScene
EXTRN	?detachFromScene@MovableObject@Ogre@@UAEXXZ:PROC ; Ogre::MovableObject::detachFromScene
EXTRN	?intersectRay@MovableObject@Ogre@@UAE_NW4IntersectType@2@ABVRay@2@PAM@Z:PROC ; Ogre::MovableObject::intersectRay
EXTRN	?invalidWorldCache@MovableObject@Ogre@@UAEXXZ:PROC ; Ogre::MovableObject::invalidWorldCache
EXTRN	?updateWorldCache@MovableObject@Ogre@@UAEXXZ:PROC ; Ogre::MovableObject::updateWorldCache
;	COMDAT ??_R1A@?0A@EA@MovableObject@Ogre@@8
rdata$r	SEGMENT
??_R1A@?0A@EA@MovableObject@Ogre@@8 DD FLAT:??_R0?AVMovableObject@Ogre@@@8 ; Ogre::MovableObject::`RTTI Base Class Descriptor at (0,-1,0,64)'
	DD	02H
	DD	00H
	DD	0ffffffffH
	DD	00H
	DD	040H
	DD	FLAT:??_R3MovableObject@Ogre@@8
rdata$r	ENDS
;	COMDAT ??_R2MovableObject@Ogre@@8
rdata$r	SEGMENT
??_R2MovableObject@Ogre@@8 DD FLAT:??_R1A@?0A@EA@MovableObject@Ogre@@8 ; Ogre::MovableObject::`RTTI Base Class Array'
	DD	FLAT:??_R1A@?0A@EA@BaseObject@Ogre@@8
	DD	FLAT:??_R13?0A@EA@MemoryDelegation@Ogre@@8
rdata$r	ENDS
;	COMDAT ??_R3MovableObject@Ogre@@8
rdata$r	SEGMENT
??_R3MovableObject@Ogre@@8 DD 00H			; Ogre::MovableObject::`RTTI Class Hierarchy Descriptor'
	DD	00H
	DD	03H
	DD	FLAT:??_R2MovableObject@Ogre@@8
rdata$r	ENDS
;	COMDAT ??_R0?AVMovableObject@Ogre@@@8
_DATA	SEGMENT
??_R0?AVMovableObject@Ogre@@@8 DD FLAT:??_7type_info@@6B@ ; Ogre::MovableObject `RTTI Type Descriptor'
	DD	00H
	DB	'.?AVMovableObject@Ogre@@', 00H
_DATA	ENDS
;	COMDAT ??_R4MovableObject@Ogre@@6B@
rdata$r	SEGMENT
??_R4MovableObject@Ogre@@6B@ DD 00H			; Ogre::MovableObject::`RTTI Complete Object Locator'
	DD	00H
	DD	00H
	DD	FLAT:??_R0?AVMovableObject@Ogre@@@8
	DD	FLAT:??_R3MovableObject@Ogre@@8
rdata$r	ENDS
;	COMDAT ??_7MovableObject@Ogre@@6B@
CONST	SEGMENT
??_7MovableObject@Ogre@@6B@ DD FLAT:??_R4MovableObject@Ogre@@6B@ ; Ogre::MovableObject::`vftable'
	DD	FLAT:?getRTTI@MovableObject@Ogre@@UBEPBVRuntimeClass@2@XZ
	DD	FLAT:?release@BaseObject@Ogre@@UAEXXZ
	DD	FLAT:?addRef@BaseObject@Ogre@@UAEXXZ
	DD	FLAT:?getRefCount@BaseObject@Ogre@@UAEHXZ
	DD	FLAT:?_serialize@BaseObject@Ogre@@UAEXAAVArchive@2@H@Z
	DD	FLAT:??_EMovableObject@Ogre@@UAEPAXI@Z
	DD	FLAT:?deleteThis@BaseObject@Ogre@@MAEXXZ
	DD	FLAT:?enableUVMask@MovableObject@Ogre@@UAEX_N0@Z
	DD	FLAT:?setLiuGuangTexture@MovableObject@Ogre@@UAEXPBD@Z
	DD	FLAT:?setLiuGuangTexture@MovableObject@Ogre@@UAEXPAVTextureData@2@@Z
	DD	FLAT:?SetForceShadowMapCull@MovableObject@Ogre@@UAEX_N@Z
	DD	FLAT:?update@MovableObject@Ogre@@UAEXI@Z
	DD	FLAT:?resetUpdate@MovableObject@Ogre@@UAEX_NI@Z
	DD	FLAT:?attachToScene@MovableObject@Ogre@@UAEXPAVGameScene@2@_N@Z
	DD	FLAT:?detachFromScene@MovableObject@Ogre@@UAEXXZ
	DD	FLAT:?intersectRay@MovableObject@Ogre@@UAE_NW4IntersectType@2@ABVRay@2@PAM@Z
	DD	FLAT:?getAnchorWorldMatrix@MovableObject@Ogre@@UAE?AVMatrix4@2@H@Z
	DD	FLAT:?invalidWorldCache@MovableObject@Ogre@@UAEXXZ
	DD	FLAT:?updateWorldCache@MovableObject@Ogre@@UAEXXZ
CONST	ENDS
;	COMDAT xdata$x
xdata$x	SEGMENT
__unwindtable$??0MovableObject@Ogre@@QAE@ABV01@@Z DD 0ffffffffH
	DD	FLAT:__unwindfunclet$??0MovableObject@Ogre@@QAE@ABV01@@Z$0
__ehfuncinfo$??0MovableObject@Ogre@@QAE@ABV01@@Z DD 019930522H
	DD	01H
	DD	FLAT:__unwindtable$??0MovableObject@Ogre@@QAE@ABV01@@Z
	DD	2 DUP(00H)
	DD	2 DUP(00H)
	DD	00H
	DD	00H
; Function compile flags: /Odtp
xdata$x	ENDS
;	COMDAT ??0MovableObject@Ogre@@QAE@ABV01@@Z
_TEXT	SEGMENT
_this$ = -16						; size = 4
__$EHRec$ = -12						; size = 12
___that$ = 8						; size = 4
??0MovableObject@Ogre@@QAE@ABV01@@Z PROC		; Ogre::MovableObject::MovableObject, COMDAT
; _this$ = ecx
	push	ebp
	mov	ebp, esp
	push	-1
	push	__ehhandler$??0MovableObject@Ogre@@QAE@ABV01@@Z
	mov	eax, DWORD PTR fs:0
	push	eax
	push	ecx
	mov	eax, DWORD PTR ___security_cookie
	xor	eax, ebp
	push	eax
	lea	eax, DWORD PTR __$EHRec$[ebp]
	mov	DWORD PTR fs:0, eax
	mov	DWORD PTR _this$[ebp], ecx
	mov	eax, DWORD PTR ___that$[ebp]
	push	eax
	mov	ecx, DWORD PTR _this$[ebp]
	call	??0BaseObject@Ogre@@QAE@ABV01@@Z
	mov	DWORD PTR __$EHRec$[ebp+8], 0
	mov	ecx, DWORD PTR _this$[ebp]
	mov	DWORD PTR [ecx], OFFSET ??_7MovableObject@Ogre@@6B@
	mov	edx, DWORD PTR ___that$[ebp]
	add	edx, 8
	mov	eax, DWORD PTR _this$[ebp]
	add	eax, 8
	mov	ecx, DWORD PTR [edx]
	mov	DWORD PTR [eax], ecx
	mov	ecx, DWORD PTR [edx+4]
	mov	DWORD PTR [eax+4], ecx
	mov	edx, DWORD PTR [edx+8]
	mov	DWORD PTR [eax+8], edx
	mov	eax, DWORD PTR ___that$[ebp]
	add	eax, 20					; 00000014H
	mov	ecx, DWORD PTR _this$[ebp]
	add	ecx, 20					; 00000014H
	mov	edx, DWORD PTR [eax]
	mov	DWORD PTR [ecx], edx
	mov	edx, DWORD PTR [eax+4]
	mov	DWORD PTR [ecx+4], edx
	mov	edx, DWORD PTR [eax+8]
	mov	DWORD PTR [ecx+8], edx
	mov	eax, DWORD PTR [eax+12]
	mov	DWORD PTR [ecx+12], eax
	mov	ecx, DWORD PTR ___that$[ebp]
	add	ecx, 36					; 00000024H
	push	ecx
	mov	ecx, DWORD PTR _this$[ebp]
	add	ecx, 36					; 00000024H
	call	??0Vector3@Ogre@@QAE@ABV01@@Z		; Ogre::Vector3::Vector3
	mov	edx, DWORD PTR ___that$[ebp]
	add	edx, 48					; 00000030H
	push	edx
	mov	ecx, DWORD PTR _this$[ebp]
	add	ecx, 48					; 00000030H
	call	??0Matrix4@Ogre@@QAE@ABV01@@Z		; Ogre::Matrix4::Matrix4
	mov	eax, DWORD PTR ___that$[ebp]
	add	eax, 112				; 00000070H
	push	eax
	mov	ecx, DWORD PTR _this$[ebp]
	add	ecx, 112				; 00000070H
	call	??0BoxBound@Ogre@@QAE@ABV01@@Z		; Ogre::BoxBound::BoxBound
	mov	ecx, DWORD PTR ___that$[ebp]
	add	ecx, 140				; 0000008cH
	push	ecx
	mov	ecx, DWORD PTR _this$[ebp]
	add	ecx, 140				; 0000008cH
	call	??0BoxSphereBound@Ogre@@QAE@ABV01@@Z
	mov	edx, DWORD PTR _this$[ebp]
	mov	eax, DWORD PTR ___that$[ebp]
	mov	ecx, DWORD PTR [eax+168]
	mov	DWORD PTR [edx+168], ecx
	mov	edx, DWORD PTR _this$[ebp]
	mov	eax, DWORD PTR ___that$[ebp]
	mov	ecx, DWORD PTR [eax+172]
	mov	DWORD PTR [edx+172], ecx
	mov	edx, DWORD PTR _this$[ebp]
	mov	eax, DWORD PTR ___that$[ebp]
	mov	ecx, DWORD PTR [eax+176]
	mov	DWORD PTR [edx+176], ecx
	mov	edx, DWORD PTR _this$[ebp]
	mov	eax, DWORD PTR ___that$[ebp]
	mov	cl, BYTE PTR [eax+180]
	mov	BYTE PTR [edx+180], cl
	mov	edx, DWORD PTR _this$[ebp]
	mov	eax, DWORD PTR ___that$[ebp]
	mov	cl, BYTE PTR [eax+181]
	mov	BYTE PTR [edx+181], cl
	mov	edx, DWORD PTR _this$[ebp]
	mov	eax, DWORD PTR ___that$[ebp]
	mov	cl, BYTE PTR [eax+182]
	mov	BYTE PTR [edx+182], cl
	mov	edx, DWORD PTR _this$[ebp]
	mov	eax, DWORD PTR ___that$[ebp]
	mov	cl, BYTE PTR [eax+183]
	mov	BYTE PTR [edx+183], cl
	mov	edx, DWORD PTR _this$[ebp]
	mov	eax, DWORD PTR ___that$[ebp]
	mov	cl, BYTE PTR [eax+184]
	mov	BYTE PTR [edx+184], cl
	mov	edx, DWORD PTR _this$[ebp]
	mov	eax, DWORD PTR ___that$[ebp]
	fld	DWORD PTR [eax+188]
	fstp	DWORD PTR [edx+188]
	mov	ecx, DWORD PTR _this$[ebp]
	mov	edx, DWORD PTR ___that$[ebp]
	mov	eax, DWORD PTR [edx+192]
	mov	DWORD PTR [ecx+192], eax
	mov	ecx, DWORD PTR _this$[ebp]
	mov	edx, DWORD PTR ___that$[ebp]
	mov	eax, DWORD PTR [edx+196]
	mov	DWORD PTR [ecx+196], eax
	mov	ecx, DWORD PTR _this$[ebp]
	mov	edx, DWORD PTR ___that$[ebp]
	mov	eax, DWORD PTR [edx+200]
	mov	DWORD PTR [ecx+200], eax
	mov	ecx, DWORD PTR _this$[ebp]
	mov	edx, DWORD PTR ___that$[ebp]
	mov	eax, DWORD PTR [edx+204]
	mov	DWORD PTR [ecx+204], eax
	mov	ecx, DWORD PTR _this$[ebp]
	mov	edx, DWORD PTR ___that$[ebp]
	mov	al, BYTE PTR [edx+208]
	mov	BYTE PTR [ecx+208], al
	mov	DWORD PTR __$EHRec$[ebp+8], -1
	mov	eax, DWORD PTR _this$[ebp]
	mov	ecx, DWORD PTR __$EHRec$[ebp]
	mov	DWORD PTR fs:0, ecx
	pop	ecx
	mov	esp, ebp
	pop	ebp
	ret	4
_TEXT	ENDS
;	COMDAT text$x
text$x	SEGMENT
__unwindfunclet$??0MovableObject@Ogre@@QAE@ABV01@@Z$0:
	mov	ecx, DWORD PTR _this$[ebp]
	jmp	??1BaseObject@Ogre@@MAE@XZ		; Ogre::BaseObject::~BaseObject
__ehhandler$??0MovableObject@Ogre@@QAE@ABV01@@Z:
	mov	edx, DWORD PTR [esp+8]
	lea	eax, DWORD PTR [edx+12]
	mov	ecx, DWORD PTR [edx-8]
	xor	ecx, eax
	call	@__security_check_cookie@4
	mov	eax, OFFSET __ehfuncinfo$??0MovableObject@Ogre@@QAE@ABV01@@Z
	jmp	___CxxFrameHandler3
text$x	ENDS
??0MovableObject@Ogre@@QAE@ABV01@@Z ENDP		; Ogre::MovableObject::MovableObject
PUBLIC	??4MovableObject@Ogre@@QAEAAV01@ABV01@@Z	; Ogre::MovableObject::operator=
EXTRN	??4Matrix4@Ogre@@QAEABV01@ABV01@@Z:PROC		; Ogre::Matrix4::operator=
; Function compile flags: /Odtp
;	COMDAT ??4MovableObject@Ogre@@QAEAAV01@ABV01@@Z
_TEXT	SEGMENT
_this$ = -4						; size = 4
___that$ = 8						; size = 4
??4MovableObject@Ogre@@QAEAAV01@ABV01@@Z PROC		; Ogre::MovableObject::operator=, COMDAT
; _this$ = ecx
	push	ebp
	mov	ebp, esp
	push	ecx
	mov	DWORD PTR _this$[ebp], ecx
	mov	eax, DWORD PTR ___that$[ebp]
	push	eax
	mov	ecx, DWORD PTR _this$[ebp]
	call	??4BaseObject@Ogre@@QAEAAV01@ABV01@@Z
	mov	ecx, DWORD PTR ___that$[ebp]
	add	ecx, 8
	mov	edx, DWORD PTR _this$[ebp]
	add	edx, 8
	mov	eax, DWORD PTR [ecx]
	mov	DWORD PTR [edx], eax
	mov	eax, DWORD PTR [ecx+4]
	mov	DWORD PTR [edx+4], eax
	mov	ecx, DWORD PTR [ecx+8]
	mov	DWORD PTR [edx+8], ecx
	mov	edx, DWORD PTR ___that$[ebp]
	add	edx, 20					; 00000014H
	push	edx
	mov	ecx, DWORD PTR _this$[ebp]
	add	ecx, 20					; 00000014H
	call	??4Quaternion@Ogre@@QAEAAV01@ABV01@@Z	; Ogre::Quaternion::operator=
	mov	eax, DWORD PTR ___that$[ebp]
	add	eax, 36					; 00000024H
	push	eax
	mov	ecx, DWORD PTR _this$[ebp]
	add	ecx, 36					; 00000024H
	call	??4Vector3@Ogre@@QAEABV01@ABV01@@Z	; Ogre::Vector3::operator=
	mov	ecx, DWORD PTR ___that$[ebp]
	add	ecx, 48					; 00000030H
	push	ecx
	mov	ecx, DWORD PTR _this$[ebp]
	add	ecx, 48					; 00000030H
	call	??4Matrix4@Ogre@@QAEABV01@ABV01@@Z	; Ogre::Matrix4::operator=
	mov	edx, DWORD PTR ___that$[ebp]
	add	edx, 112				; 00000070H
	push	edx
	mov	ecx, DWORD PTR _this$[ebp]
	add	ecx, 112				; 00000070H
	call	??4BoxBound@Ogre@@QAEAAV01@ABV01@@Z
	mov	eax, DWORD PTR ___that$[ebp]
	add	eax, 140				; 0000008cH
	push	eax
	mov	ecx, DWORD PTR _this$[ebp]
	add	ecx, 140				; 0000008cH
	call	??4BoxSphereBound@Ogre@@QAEAAV01@ABV01@@Z
	mov	ecx, DWORD PTR _this$[ebp]
	mov	edx, DWORD PTR ___that$[ebp]
	mov	eax, DWORD PTR [edx+168]
	mov	DWORD PTR [ecx+168], eax
	mov	ecx, DWORD PTR _this$[ebp]
	mov	edx, DWORD PTR ___that$[ebp]
	mov	eax, DWORD PTR [edx+172]
	mov	DWORD PTR [ecx+172], eax
	mov	ecx, DWORD PTR _this$[ebp]
	mov	edx, DWORD PTR ___that$[ebp]
	mov	eax, DWORD PTR [edx+176]
	mov	DWORD PTR [ecx+176], eax
	mov	ecx, DWORD PTR _this$[ebp]
	mov	edx, DWORD PTR ___that$[ebp]
	mov	al, BYTE PTR [edx+180]
	mov	BYTE PTR [ecx+180], al
	mov	ecx, DWORD PTR _this$[ebp]
	mov	edx, DWORD PTR ___that$[ebp]
	mov	al, BYTE PTR [edx+181]
	mov	BYTE PTR [ecx+181], al
	mov	ecx, DWORD PTR _this$[ebp]
	mov	edx, DWORD PTR ___that$[ebp]
	mov	al, BYTE PTR [edx+182]
	mov	BYTE PTR [ecx+182], al
	mov	ecx, DWORD PTR _this$[ebp]
	mov	edx, DWORD PTR ___that$[ebp]
	mov	al, BYTE PTR [edx+183]
	mov	BYTE PTR [ecx+183], al
	mov	ecx, DWORD PTR _this$[ebp]
	mov	edx, DWORD PTR ___that$[ebp]
	mov	al, BYTE PTR [edx+184]
	mov	BYTE PTR [ecx+184], al
	mov	ecx, DWORD PTR _this$[ebp]
	mov	edx, DWORD PTR ___that$[ebp]
	fld	DWORD PTR [edx+188]
	fstp	DWORD PTR [ecx+188]
	mov	eax, DWORD PTR _this$[ebp]
	mov	ecx, DWORD PTR ___that$[ebp]
	mov	edx, DWORD PTR [ecx+192]
	mov	DWORD PTR [eax+192], edx
	mov	eax, DWORD PTR _this$[ebp]
	mov	ecx, DWORD PTR ___that$[ebp]
	mov	edx, DWORD PTR [ecx+196]
	mov	DWORD PTR [eax+196], edx
	mov	eax, DWORD PTR _this$[ebp]
	mov	ecx, DWORD PTR ___that$[ebp]
	mov	edx, DWORD PTR [ecx+200]
	mov	DWORD PTR [eax+200], edx
	mov	eax, DWORD PTR _this$[ebp]
	mov	ecx, DWORD PTR ___that$[ebp]
	mov	edx, DWORD PTR [ecx+204]
	mov	DWORD PTR [eax+204], edx
	mov	eax, DWORD PTR _this$[ebp]
	mov	ecx, DWORD PTR ___that$[ebp]
	mov	dl, BYTE PTR [ecx+208]
	mov	BYTE PTR [eax+208], dl
	mov	eax, DWORD PTR _this$[ebp]
	mov	esp, ebp
	pop	ebp
	ret	4
??4MovableObject@Ogre@@QAEAAV01@ABV01@@Z ENDP		; Ogre::MovableObject::operator=
_TEXT	ENDS
PUBLIC	??_GMovableObject@Ogre@@UAEPAXI@Z		; Ogre::MovableObject::`scalar deleting destructor'
EXTRN	??1MovableObject@Ogre@@UAE@XZ:PROC		; Ogre::MovableObject::~MovableObject
; Function compile flags: /Odtp
;	COMDAT ??_GMovableObject@Ogre@@UAEPAXI@Z
_TEXT	SEGMENT
_this$ = -4						; size = 4
___flags$ = 8						; size = 4
??_GMovableObject@Ogre@@UAEPAXI@Z PROC			; Ogre::MovableObject::`scalar deleting destructor', COMDAT
; _this$ = ecx
	push	ebp
	mov	ebp, esp
	push	ecx
	mov	DWORD PTR _this$[ebp], ecx
	mov	ecx, DWORD PTR _this$[ebp]
	call	??1MovableObject@Ogre@@UAE@XZ		; Ogre::MovableObject::~MovableObject
	mov	eax, DWORD PTR ___flags$[ebp]
	and	eax, 1
	je	SHORT $LN1@scalar@9
	push	212					; 000000d4H
	mov	ecx, DWORD PTR _this$[ebp]
	push	ecx
	call	??3MemoryDelegation@Ogre@@SAXPAXI@Z	; Ogre::MemoryDelegation::operator delete
	add	esp, 8
$LN1@scalar@9:
	mov	eax, DWORD PTR _this$[ebp]
	mov	esp, ebp
	pop	ebp
	ret	4
??_GMovableObject@Ogre@@UAEPAXI@Z ENDP			; Ogre::MovableObject::`scalar deleting destructor'
; Function compile flags: /Odtp
_TEXT	ENDS
;	COMDAT ??_EMovableObject@Ogre@@UAEPAXI@Z
_TEXT	SEGMENT
_this$ = -4						; size = 4
___flags$ = 8						; size = 4
??_EMovableObject@Ogre@@UAEPAXI@Z PROC			; Ogre::MovableObject::`vector deleting destructor', COMDAT
; _this$ = ecx
	push	ebp
	mov	ebp, esp
	push	ecx
	mov	DWORD PTR _this$[ebp], ecx
	mov	eax, DWORD PTR ___flags$[ebp]
	and	eax, 2
	je	SHORT $LN3@vector@9
	push	OFFSET ??1MovableObject@Ogre@@UAE@XZ	; Ogre::MovableObject::~MovableObject
	mov	ecx, DWORD PTR _this$[ebp]
	mov	edx, DWORD PTR [ecx-4]
	push	edx
	push	212					; 000000d4H
	mov	eax, DWORD PTR _this$[ebp]
	push	eax
	call	??_M@YGXPAXIHP6EX0@Z@Z
	mov	ecx, DWORD PTR ___flags$[ebp]
	and	ecx, 1
	je	SHORT $LN2@vector@9
	push	212					; 000000d4H
	mov	edx, DWORD PTR _this$[ebp]
	sub	edx, 4
	push	edx
	call	??_VMemoryDelegation@Ogre@@SAXPAXI@Z	; Ogre::MemoryDelegation::operator delete[]
	add	esp, 8
$LN2@vector@9:
	mov	eax, DWORD PTR _this$[ebp]
	sub	eax, 4
	jmp	SHORT $LN4@vector@9
$LN3@vector@9:
	mov	ecx, DWORD PTR _this$[ebp]
	call	??1MovableObject@Ogre@@UAE@XZ		; Ogre::MovableObject::~MovableObject
	mov	eax, DWORD PTR ___flags$[ebp]
	and	eax, 1
	je	SHORT $LN1@vector@9
	push	212					; 000000d4H
	mov	ecx, DWORD PTR _this$[ebp]
	push	ecx
	call	??3MemoryDelegation@Ogre@@SAXPAXI@Z	; Ogre::MemoryDelegation::operator delete
	add	esp, 8
$LN1@vector@9:
	mov	eax, DWORD PTR _this$[ebp]
$LN4@vector@9:
	mov	esp, ebp
	pop	ebp
	ret	4
??_EMovableObject@Ogre@@UAEPAXI@Z ENDP			; Ogre::MovableObject::`vector deleting destructor'
_TEXT	ENDS
PUBLIC	?getRTTI@EffectObject@Ogre@@UBEPBVRuntimeClass@2@XZ ; Ogre::EffectObject::getRTTI
EXTRN	?m_RTTI@EffectObject@Ogre@@2VRuntimeClass@2@B:BYTE ; Ogre::EffectObject::m_RTTI
; Function compile flags: /Odtp
; File i:\svnroot\client\ogremain\ogreeffectobject.h
;	COMDAT ?getRTTI@EffectObject@Ogre@@UBEPBVRuntimeClass@2@XZ
_TEXT	SEGMENT
_this$ = -4						; size = 4
?getRTTI@EffectObject@Ogre@@UBEPBVRuntimeClass@2@XZ PROC ; Ogre::EffectObject::getRTTI, COMDAT
; _this$ = ecx

; 11   : 		DECLARE_RTTI_VIRTUAL(EffectObject)

	push	ebp
	mov	ebp, esp
	push	ecx
	mov	DWORD PTR _this$[ebp], ecx
	mov	eax, OFFSET ?m_RTTI@EffectObject@Ogre@@2VRuntimeClass@2@B ; Ogre::EffectObject::m_RTTI
	mov	esp, ebp
	pop	ebp
	ret	0
?getRTTI@EffectObject@Ogre@@UBEPBVRuntimeClass@2@XZ ENDP ; Ogre::EffectObject::getRTTI
_TEXT	ENDS
PUBLIC	??_7EffectObject@Ogre@@6B@			; Ogre::EffectObject::`vftable'
PUBLIC	??0EffectObject@Ogre@@QAE@XZ			; Ogre::EffectObject::EffectObject
PUBLIC	??_R4EffectObject@Ogre@@6B@			; Ogre::EffectObject::`RTTI Complete Object Locator'
PUBLIC	??_R0?AVEffectObject@Ogre@@@8			; Ogre::EffectObject `RTTI Type Descriptor'
PUBLIC	??_R3EffectObject@Ogre@@8			; Ogre::EffectObject::`RTTI Class Hierarchy Descriptor'
PUBLIC	??_R2EffectObject@Ogre@@8			; Ogre::EffectObject::`RTTI Base Class Array'
PUBLIC	??_R1A@?0A@EA@EffectObject@Ogre@@8		; Ogre::EffectObject::`RTTI Base Class Descriptor at (0,-1,0,64)'
PUBLIC	??_EEffectObject@Ogre@@UAEPAXI@Z		; Ogre::EffectObject::`vector deleting destructor'
EXTRN	??0MovableObject@Ogre@@QAE@XZ:PROC		; Ogre::MovableObject::MovableObject
EXTRN	?attachToScene@EffectObject@Ogre@@UAEXPAVGameScene@2@_N@Z:PROC ; Ogre::EffectObject::attachToScene
;	COMDAT ??_R1A@?0A@EA@EffectObject@Ogre@@8
rdata$r	SEGMENT
??_R1A@?0A@EA@EffectObject@Ogre@@8 DD FLAT:??_R0?AVEffectObject@Ogre@@@8 ; Ogre::EffectObject::`RTTI Base Class Descriptor at (0,-1,0,64)'
	DD	03H
	DD	00H
	DD	0ffffffffH
	DD	00H
	DD	040H
	DD	FLAT:??_R3EffectObject@Ogre@@8
rdata$r	ENDS
;	COMDAT ??_R2EffectObject@Ogre@@8
rdata$r	SEGMENT
??_R2EffectObject@Ogre@@8 DD FLAT:??_R1A@?0A@EA@EffectObject@Ogre@@8 ; Ogre::EffectObject::`RTTI Base Class Array'
	DD	FLAT:??_R1A@?0A@EA@MovableObject@Ogre@@8
	DD	FLAT:??_R1A@?0A@EA@BaseObject@Ogre@@8
	DD	FLAT:??_R13?0A@EA@MemoryDelegation@Ogre@@8
rdata$r	ENDS
;	COMDAT ??_R3EffectObject@Ogre@@8
rdata$r	SEGMENT
??_R3EffectObject@Ogre@@8 DD 00H			; Ogre::EffectObject::`RTTI Class Hierarchy Descriptor'
	DD	00H
	DD	04H
	DD	FLAT:??_R2EffectObject@Ogre@@8
rdata$r	ENDS
;	COMDAT ??_R0?AVEffectObject@Ogre@@@8
_DATA	SEGMENT
??_R0?AVEffectObject@Ogre@@@8 DD FLAT:??_7type_info@@6B@ ; Ogre::EffectObject `RTTI Type Descriptor'
	DD	00H
	DB	'.?AVEffectObject@Ogre@@', 00H
_DATA	ENDS
;	COMDAT ??_R4EffectObject@Ogre@@6B@
rdata$r	SEGMENT
??_R4EffectObject@Ogre@@6B@ DD 00H			; Ogre::EffectObject::`RTTI Complete Object Locator'
	DD	00H
	DD	00H
	DD	FLAT:??_R0?AVEffectObject@Ogre@@@8
	DD	FLAT:??_R3EffectObject@Ogre@@8
rdata$r	ENDS
;	COMDAT ??_7EffectObject@Ogre@@6B@
CONST	SEGMENT
??_7EffectObject@Ogre@@6B@ DD FLAT:??_R4EffectObject@Ogre@@6B@ ; Ogre::EffectObject::`vftable'
	DD	FLAT:?getRTTI@EffectObject@Ogre@@UBEPBVRuntimeClass@2@XZ
	DD	FLAT:?release@BaseObject@Ogre@@UAEXXZ
	DD	FLAT:?addRef@BaseObject@Ogre@@UAEXXZ
	DD	FLAT:?getRefCount@BaseObject@Ogre@@UAEHXZ
	DD	FLAT:?_serialize@BaseObject@Ogre@@UAEXAAVArchive@2@H@Z
	DD	FLAT:??_EEffectObject@Ogre@@UAEPAXI@Z
	DD	FLAT:?deleteThis@BaseObject@Ogre@@MAEXXZ
	DD	FLAT:?enableUVMask@MovableObject@Ogre@@UAEX_N0@Z
	DD	FLAT:?setLiuGuangTexture@MovableObject@Ogre@@UAEXPBD@Z
	DD	FLAT:?setLiuGuangTexture@MovableObject@Ogre@@UAEXPAVTextureData@2@@Z
	DD	FLAT:?SetForceShadowMapCull@MovableObject@Ogre@@UAEX_N@Z
	DD	FLAT:?update@MovableObject@Ogre@@UAEXI@Z
	DD	FLAT:?resetUpdate@MovableObject@Ogre@@UAEX_NI@Z
	DD	FLAT:?attachToScene@EffectObject@Ogre@@UAEXPAVGameScene@2@_N@Z
	DD	FLAT:?detachFromScene@MovableObject@Ogre@@UAEXXZ
	DD	FLAT:?intersectRay@MovableObject@Ogre@@UAE_NW4IntersectType@2@ABVRay@2@PAM@Z
	DD	FLAT:?getAnchorWorldMatrix@MovableObject@Ogre@@UAE?AVMatrix4@2@H@Z
	DD	FLAT:?invalidWorldCache@MovableObject@Ogre@@UAEXXZ
	DD	FLAT:?updateWorldCache@MovableObject@Ogre@@UAEXXZ
	DD	FLAT:__purecall
	DD	FLAT:__purecall
	DD	FLAT:__purecall
CONST	ENDS
;	COMDAT xdata$x
xdata$x	SEGMENT
__unwindtable$??0EffectObject@Ogre@@QAE@XZ DD 0ffffffffH
	DD	FLAT:__unwindfunclet$??0EffectObject@Ogre@@QAE@XZ$0
__ehfuncinfo$??0EffectObject@Ogre@@QAE@XZ DD 019930522H
	DD	01H
	DD	FLAT:__unwindtable$??0EffectObject@Ogre@@QAE@XZ
	DD	2 DUP(00H)
	DD	2 DUP(00H)
	DD	00H
	DD	00H
; Function compile flags: /Odtp
xdata$x	ENDS
;	COMDAT ??0EffectObject@Ogre@@QAE@XZ
_TEXT	SEGMENT
_this$ = -16						; size = 4
__$EHRec$ = -12						; size = 12
??0EffectObject@Ogre@@QAE@XZ PROC			; Ogre::EffectObject::EffectObject, COMDAT
; _this$ = ecx

; 15   : 		{

	push	ebp
	mov	ebp, esp
	push	-1
	push	__ehhandler$??0EffectObject@Ogre@@QAE@XZ
	mov	eax, DWORD PTR fs:0
	push	eax
	push	ecx
	mov	eax, DWORD PTR ___security_cookie
	xor	eax, ebp
	push	eax
	lea	eax, DWORD PTR __$EHRec$[ebp]
	mov	DWORD PTR fs:0, eax
	mov	DWORD PTR _this$[ebp], ecx
	mov	ecx, DWORD PTR _this$[ebp]
	call	??0MovableObject@Ogre@@QAE@XZ		; Ogre::MovableObject::MovableObject
	mov	DWORD PTR __$EHRec$[ebp+8], 0
	mov	eax, DWORD PTR _this$[ebp]
	mov	DWORD PTR [eax], OFFSET ??_7EffectObject@Ogre@@6B@
	mov	ecx, DWORD PTR _this$[ebp]
	mov	BYTE PTR [ecx+212], 0

; 16   : 		}

	mov	DWORD PTR __$EHRec$[ebp+8], -1
	mov	eax, DWORD PTR _this$[ebp]
	mov	ecx, DWORD PTR __$EHRec$[ebp]
	mov	DWORD PTR fs:0, ecx
	pop	ecx
	mov	esp, ebp
	pop	ebp
	ret	0
_TEXT	ENDS
;	COMDAT text$x
text$x	SEGMENT
__unwindfunclet$??0EffectObject@Ogre@@QAE@XZ$0:
	mov	ecx, DWORD PTR _this$[ebp]
	jmp	??1MovableObject@Ogre@@UAE@XZ		; Ogre::MovableObject::~MovableObject
__ehhandler$??0EffectObject@Ogre@@QAE@XZ:
	mov	edx, DWORD PTR [esp+8]
	lea	eax, DWORD PTR [edx+12]
	mov	ecx, DWORD PTR [edx-8]
	xor	ecx, eax
	call	@__security_check_cookie@4
	mov	eax, OFFSET __ehfuncinfo$??0EffectObject@Ogre@@QAE@XZ
	jmp	___CxxFrameHandler3
text$x	ENDS
??0EffectObject@Ogre@@QAE@XZ ENDP			; Ogre::EffectObject::EffectObject
PUBLIC	?setGlobal@EffectObject@Ogre@@QAEX_N@Z		; Ogre::EffectObject::setGlobal
; Function compile flags: /Odtp
;	COMDAT ?setGlobal@EffectObject@Ogre@@QAEX_N@Z
_TEXT	SEGMENT
_this$ = -4						; size = 4
_b$ = 8							; size = 1
?setGlobal@EffectObject@Ogre@@QAEX_N@Z PROC		; Ogre::EffectObject::setGlobal, COMDAT
; _this$ = ecx

; 25   : 		{

	push	ebp
	mov	ebp, esp
	push	ecx
	mov	DWORD PTR _this$[ebp], ecx

; 26   : 			m_isGlobal = b;

	mov	eax, DWORD PTR _this$[ebp]
	mov	cl, BYTE PTR _b$[ebp]
	mov	BYTE PTR [eax+212], cl

; 27   : 		}

	mov	esp, ebp
	pop	ebp
	ret	4
?setGlobal@EffectObject@Ogre@@QAEX_N@Z ENDP		; Ogre::EffectObject::setGlobal
_TEXT	ENDS
PUBLIC	?isGlobal@EffectObject@Ogre@@QAE_NXZ		; Ogre::EffectObject::isGlobal
; Function compile flags: /Odtp
;	COMDAT ?isGlobal@EffectObject@Ogre@@QAE_NXZ
_TEXT	SEGMENT
_this$ = -4						; size = 4
?isGlobal@EffectObject@Ogre@@QAE_NXZ PROC		; Ogre::EffectObject::isGlobal, COMDAT
; _this$ = ecx

; 30   : 		{

	push	ebp
	mov	ebp, esp
	push	ecx
	mov	DWORD PTR _this$[ebp], ecx

; 31   : 			return m_isGlobal;

	mov	eax, DWORD PTR _this$[ebp]
	mov	al, BYTE PTR [eax+212]

; 32   : 		}

	mov	esp, ebp
	pop	ebp
	ret	0
?isGlobal@EffectObject@Ogre@@QAE_NXZ ENDP		; Ogre::EffectObject::isGlobal
_TEXT	ENDS
PUBLIC	??1EffectObject@Ogre@@UAE@XZ			; Ogre::EffectObject::~EffectObject
;	COMDAT xdata$x
xdata$x	SEGMENT
__unwindtable$??1EffectObject@Ogre@@UAE@XZ DD 0ffffffffH
	DD	FLAT:__unwindfunclet$??1EffectObject@Ogre@@UAE@XZ$0
__ehfuncinfo$??1EffectObject@Ogre@@UAE@XZ DD 019930522H
	DD	01H
	DD	FLAT:__unwindtable$??1EffectObject@Ogre@@UAE@XZ
	DD	2 DUP(00H)
	DD	2 DUP(00H)
	DD	00H
	DD	00H
; Function compile flags: /Odtp
xdata$x	ENDS
;	COMDAT ??1EffectObject@Ogre@@UAE@XZ
_TEXT	SEGMENT
_this$ = -16						; size = 4
__$EHRec$ = -12						; size = 12
??1EffectObject@Ogre@@UAE@XZ PROC			; Ogre::EffectObject::~EffectObject, COMDAT
; _this$ = ecx
	push	ebp
	mov	ebp, esp
	push	-1
	push	__ehhandler$??1EffectObject@Ogre@@UAE@XZ
	mov	eax, DWORD PTR fs:0
	push	eax
	push	ecx
	mov	eax, DWORD PTR ___security_cookie
	xor	eax, ebp
	push	eax
	lea	eax, DWORD PTR __$EHRec$[ebp]
	mov	DWORD PTR fs:0, eax
	mov	DWORD PTR _this$[ebp], ecx
	mov	DWORD PTR __$EHRec$[ebp+8], 0
	mov	DWORD PTR __$EHRec$[ebp+8], -1
	mov	ecx, DWORD PTR _this$[ebp]
	call	??1MovableObject@Ogre@@UAE@XZ		; Ogre::MovableObject::~MovableObject
	mov	ecx, DWORD PTR __$EHRec$[ebp]
	mov	DWORD PTR fs:0, ecx
	pop	ecx
	mov	esp, ebp
	pop	ebp
	ret	0
_TEXT	ENDS
;	COMDAT text$x
text$x	SEGMENT
__unwindfunclet$??1EffectObject@Ogre@@UAE@XZ$0:
	mov	ecx, DWORD PTR _this$[ebp]
	jmp	??1MovableObject@Ogre@@UAE@XZ		; Ogre::MovableObject::~MovableObject
__ehhandler$??1EffectObject@Ogre@@UAE@XZ:
	mov	edx, DWORD PTR [esp+8]
	lea	eax, DWORD PTR [edx+12]
	mov	ecx, DWORD PTR [edx-8]
	xor	ecx, eax
	call	@__security_check_cookie@4
	mov	eax, OFFSET __ehfuncinfo$??1EffectObject@Ogre@@UAE@XZ
	jmp	___CxxFrameHandler3
text$x	ENDS
??1EffectObject@Ogre@@UAE@XZ ENDP			; Ogre::EffectObject::~EffectObject
PUBLIC	??0EffectObject@Ogre@@QAE@ABV01@@Z		; Ogre::EffectObject::EffectObject
;	COMDAT xdata$x
xdata$x	SEGMENT
__unwindtable$??0EffectObject@Ogre@@QAE@ABV01@@Z DD 0ffffffffH
	DD	FLAT:__unwindfunclet$??0EffectObject@Ogre@@QAE@ABV01@@Z$0
__ehfuncinfo$??0EffectObject@Ogre@@QAE@ABV01@@Z DD 019930522H
	DD	01H
	DD	FLAT:__unwindtable$??0EffectObject@Ogre@@QAE@ABV01@@Z
	DD	2 DUP(00H)
	DD	2 DUP(00H)
	DD	00H
	DD	00H
; Function compile flags: /Odtp
xdata$x	ENDS
;	COMDAT ??0EffectObject@Ogre@@QAE@ABV01@@Z
_TEXT	SEGMENT
_this$ = -16						; size = 4
__$EHRec$ = -12						; size = 12
___that$ = 8						; size = 4
??0EffectObject@Ogre@@QAE@ABV01@@Z PROC			; Ogre::EffectObject::EffectObject, COMDAT
; _this$ = ecx
	push	ebp
	mov	ebp, esp
	push	-1
	push	__ehhandler$??0EffectObject@Ogre@@QAE@ABV01@@Z
	mov	eax, DWORD PTR fs:0
	push	eax
	push	ecx
	mov	eax, DWORD PTR ___security_cookie
	xor	eax, ebp
	push	eax
	lea	eax, DWORD PTR __$EHRec$[ebp]
	mov	DWORD PTR fs:0, eax
	mov	DWORD PTR _this$[ebp], ecx
	mov	eax, DWORD PTR ___that$[ebp]
	push	eax
	mov	ecx, DWORD PTR _this$[ebp]
	call	??0MovableObject@Ogre@@QAE@ABV01@@Z
	mov	DWORD PTR __$EHRec$[ebp+8], 0
	mov	ecx, DWORD PTR _this$[ebp]
	mov	DWORD PTR [ecx], OFFSET ??_7EffectObject@Ogre@@6B@
	mov	edx, DWORD PTR _this$[ebp]
	mov	eax, DWORD PTR ___that$[ebp]
	mov	cl, BYTE PTR [eax+212]
	mov	BYTE PTR [edx+212], cl
	mov	DWORD PTR __$EHRec$[ebp+8], -1
	mov	eax, DWORD PTR _this$[ebp]
	mov	ecx, DWORD PTR __$EHRec$[ebp]
	mov	DWORD PTR fs:0, ecx
	pop	ecx
	mov	esp, ebp
	pop	ebp
	ret	4
_TEXT	ENDS
;	COMDAT text$x
text$x	SEGMENT
__unwindfunclet$??0EffectObject@Ogre@@QAE@ABV01@@Z$0:
	mov	ecx, DWORD PTR _this$[ebp]
	jmp	??1MovableObject@Ogre@@UAE@XZ		; Ogre::MovableObject::~MovableObject
__ehhandler$??0EffectObject@Ogre@@QAE@ABV01@@Z:
	mov	edx, DWORD PTR [esp+8]
	lea	eax, DWORD PTR [edx+12]
	mov	ecx, DWORD PTR [edx-8]
	xor	ecx, eax
	call	@__security_check_cookie@4
	mov	eax, OFFSET __ehfuncinfo$??0EffectObject@Ogre@@QAE@ABV01@@Z
	jmp	___CxxFrameHandler3
text$x	ENDS
??0EffectObject@Ogre@@QAE@ABV01@@Z ENDP			; Ogre::EffectObject::EffectObject
PUBLIC	??4EffectObject@Ogre@@QAEAAV01@ABV01@@Z		; Ogre::EffectObject::operator=
; Function compile flags: /Odtp
;	COMDAT ??4EffectObject@Ogre@@QAEAAV01@ABV01@@Z
_TEXT	SEGMENT
_this$ = -4						; size = 4
___that$ = 8						; size = 4
??4EffectObject@Ogre@@QAEAAV01@ABV01@@Z PROC		; Ogre::EffectObject::operator=, COMDAT
; _this$ = ecx
	push	ebp
	mov	ebp, esp
	push	ecx
	mov	DWORD PTR _this$[ebp], ecx
	mov	eax, DWORD PTR ___that$[ebp]
	push	eax
	mov	ecx, DWORD PTR _this$[ebp]
	call	??4MovableObject@Ogre@@QAEAAV01@ABV01@@Z
	mov	ecx, DWORD PTR _this$[ebp]
	mov	edx, DWORD PTR ___that$[ebp]
	mov	al, BYTE PTR [edx+212]
	mov	BYTE PTR [ecx+212], al
	mov	eax, DWORD PTR _this$[ebp]
	mov	esp, ebp
	pop	ebp
	ret	4
??4EffectObject@Ogre@@QAEAAV01@ABV01@@Z ENDP		; Ogre::EffectObject::operator=
_TEXT	ENDS
PUBLIC	??_GEffectObject@Ogre@@UAEPAXI@Z		; Ogre::EffectObject::`scalar deleting destructor'
; Function compile flags: /Odtp
;	COMDAT ??_GEffectObject@Ogre@@UAEPAXI@Z
_TEXT	SEGMENT
_this$ = -4						; size = 4
___flags$ = 8						; size = 4
??_GEffectObject@Ogre@@UAEPAXI@Z PROC			; Ogre::EffectObject::`scalar deleting destructor', COMDAT
; _this$ = ecx
	push	ebp
	mov	ebp, esp
	push	ecx
	mov	DWORD PTR _this$[ebp], ecx
	mov	ecx, DWORD PTR _this$[ebp]
	call	??1EffectObject@Ogre@@UAE@XZ
	mov	eax, DWORD PTR ___flags$[ebp]
	and	eax, 1
	je	SHORT $LN1@scalar@10
	push	216					; 000000d8H
	mov	ecx, DWORD PTR _this$[ebp]
	push	ecx
	call	??3MemoryDelegation@Ogre@@SAXPAXI@Z	; Ogre::MemoryDelegation::operator delete
	add	esp, 8
$LN1@scalar@10:
	mov	eax, DWORD PTR _this$[ebp]
	mov	esp, ebp
	pop	ebp
	ret	4
??_GEffectObject@Ogre@@UAEPAXI@Z ENDP			; Ogre::EffectObject::`scalar deleting destructor'
; Function compile flags: /Odtp
_TEXT	ENDS
;	COMDAT ??_EEffectObject@Ogre@@UAEPAXI@Z
_TEXT	SEGMENT
_this$ = -4						; size = 4
___flags$ = 8						; size = 4
??_EEffectObject@Ogre@@UAEPAXI@Z PROC			; Ogre::EffectObject::`vector deleting destructor', COMDAT
; _this$ = ecx
	push	ebp
	mov	ebp, esp
	push	ecx
	mov	DWORD PTR _this$[ebp], ecx
	mov	eax, DWORD PTR ___flags$[ebp]
	and	eax, 2
	je	SHORT $LN3@vector@10
	push	OFFSET ??1EffectObject@Ogre@@UAE@XZ
	mov	ecx, DWORD PTR _this$[ebp]
	mov	edx, DWORD PTR [ecx-4]
	push	edx
	push	216					; 000000d8H
	mov	eax, DWORD PTR _this$[ebp]
	push	eax
	call	??_M@YGXPAXIHP6EX0@Z@Z
	mov	ecx, DWORD PTR ___flags$[ebp]
	and	ecx, 1
	je	SHORT $LN2@vector@10
	push	216					; 000000d8H
	mov	edx, DWORD PTR _this$[ebp]
	sub	edx, 4
	push	edx
	call	??_VMemoryDelegation@Ogre@@SAXPAXI@Z	; Ogre::MemoryDelegation::operator delete[]
	add	esp, 8
$LN2@vector@10:
	mov	eax, DWORD PTR _this$[ebp]
	sub	eax, 4
	jmp	SHORT $LN4@vector@10
$LN3@vector@10:
	mov	ecx, DWORD PTR _this$[ebp]
	call	??1EffectObject@Ogre@@UAE@XZ
	mov	eax, DWORD PTR ___flags$[ebp]
	and	eax, 1
	je	SHORT $LN1@vector@10
	push	216					; 000000d8H
	mov	ecx, DWORD PTR _this$[ebp]
	push	ecx
	call	??3MemoryDelegation@Ogre@@SAXPAXI@Z	; Ogre::MemoryDelegation::operator delete
	add	esp, 8
$LN1@vector@10:
	mov	eax, DWORD PTR _this$[ebp]
$LN4@vector@10:
	mov	esp, ebp
	pop	ebp
	ret	4
??_EEffectObject@Ogre@@UAEPAXI@Z ENDP			; Ogre::EffectObject::`vector deleting destructor'
_TEXT	ENDS
PUBLIC	??0ColourValue@Ogre@@QAE@MMMM@Z			; Ogre::ColourValue::ColourValue
; Function compile flags: /Odtp
; File i:\svnroot\client\ogremain\ogrecolourvalue.h
;	COMDAT ??0ColourValue@Ogre@@QAE@MMMM@Z
_TEXT	SEGMENT
_this$ = -4						; size = 4
_red$ = 8						; size = 4
_green$ = 12						; size = 4
_blue$ = 16						; size = 4
_alpha$ = 20						; size = 4
??0ColourValue@Ogre@@QAE@MMMM@Z PROC			; Ogre::ColourValue::ColourValue, COMDAT
; _this$ = ecx

; 68   : 		{ }

	push	ebp
	mov	ebp, esp
	push	ecx
	mov	DWORD PTR _this$[ebp], ecx
	mov	eax, DWORD PTR _this$[ebp]
	fld	DWORD PTR _red$[ebp]
	fstp	DWORD PTR [eax]
	mov	ecx, DWORD PTR _this$[ebp]
	fld	DWORD PTR _green$[ebp]
	fstp	DWORD PTR [ecx+4]
	mov	edx, DWORD PTR _this$[ebp]
	fld	DWORD PTR _blue$[ebp]
	fstp	DWORD PTR [edx+8]
	mov	eax, DWORD PTR _this$[ebp]
	fld	DWORD PTR _alpha$[ebp]
	fstp	DWORD PTR [eax+12]
	mov	eax, DWORD PTR _this$[ebp]
	mov	esp, ebp
	pop	ebp
	ret	16					; 00000010H
??0ColourValue@Ogre@@QAE@MMMM@Z ENDP			; Ogre::ColourValue::ColourValue
_TEXT	ENDS
PUBLIC	?set@ColourValue@Ogre@@QAEXMMMM@Z		; Ogre::ColourValue::set
; Function compile flags: /Odtp
;	COMDAT ?set@ColourValue@Ogre@@QAEXMMMM@Z
_TEXT	SEGMENT
_this$ = -4						; size = 4
_red$ = 8						; size = 4
_green$ = 12						; size = 4
_blue$ = 16						; size = 4
_alpha$ = 20						; size = 4
?set@ColourValue@Ogre@@QAEXMMMM@Z PROC			; Ogre::ColourValue::set, COMDAT
; _this$ = ecx

; 76   : 		{

	push	ebp
	mov	ebp, esp
	push	ecx
	mov	DWORD PTR _this$[ebp], ecx

; 77   : 			r	= red;

	mov	eax, DWORD PTR _this$[ebp]
	fld	DWORD PTR _red$[ebp]
	fstp	DWORD PTR [eax]

; 78   : 			g	= green;

	mov	ecx, DWORD PTR _this$[ebp]
	fld	DWORD PTR _green$[ebp]
	fstp	DWORD PTR [ecx+4]

; 79   : 			b	= blue;

	mov	edx, DWORD PTR _this$[ebp]
	fld	DWORD PTR _blue$[ebp]
	fstp	DWORD PTR [edx+8]

; 80   : 			a	= alpha;

	mov	eax, DWORD PTR _this$[ebp]
	fld	DWORD PTR _alpha$[ebp]
	fstp	DWORD PTR [eax+12]

; 81   : 		}

	mov	esp, ebp
	pop	ebp
	ret	16					; 00000010H
?set@ColourValue@Ogre@@QAEXMMMM@Z ENDP			; Ogre::ColourValue::set
_TEXT	ENDS
PUBLIC	__real@3ff0000000000000
PUBLIC	__real@0000000000000000
PUBLIC	?saturate@ColourValue@Ogre@@QAEXXZ		; Ogre::ColourValue::saturate
;	COMDAT __real@3ff0000000000000
CONST	SEGMENT
__real@3ff0000000000000 DQ 03ff0000000000000r	; 1
CONST	ENDS
;	COMDAT __real@0000000000000000
CONST	SEGMENT
__real@0000000000000000 DQ 00000000000000000r	; 0
; Function compile flags: /Odtp
CONST	ENDS
;	COMDAT ?saturate@ColourValue@Ogre@@QAEXXZ
_TEXT	SEGMENT
_this$ = -4						; size = 4
?saturate@ColourValue@Ogre@@QAEXXZ PROC			; Ogre::ColourValue::saturate, COMDAT
; _this$ = ecx

; 117  : 		{

	push	ebp
	mov	ebp, esp
	push	ecx
	mov	DWORD PTR _this$[ebp], ecx

; 118  : 			if (r < 0)

	mov	eax, DWORD PTR _this$[ebp]
	fld	DWORD PTR [eax]
	fcomp	QWORD PTR __real@0000000000000000
	fnstsw	ax
	test	ah, 5
	jp	SHORT $LN12@saturate

; 119  : 				r = 0;

	mov	ecx, DWORD PTR _this$[ebp]
	fldz
	fstp	DWORD PTR [ecx]
	jmp	SHORT $LN10@saturate
$LN12@saturate:

; 120  : 			else if (r > 1)

	mov	edx, DWORD PTR _this$[ebp]
	fld	DWORD PTR [edx]
	fcomp	QWORD PTR __real@3ff0000000000000
	fnstsw	ax
	test	ah, 65					; 00000041H
	jne	SHORT $LN10@saturate

; 121  : 				r = 1;

	mov	eax, DWORD PTR _this$[ebp]
	fld1
	fstp	DWORD PTR [eax]
$LN10@saturate:

; 122  : 
; 123  : 			if (g < 0)

	mov	ecx, DWORD PTR _this$[ebp]
	fld	DWORD PTR [ecx+4]
	fcomp	QWORD PTR __real@0000000000000000
	fnstsw	ax
	test	ah, 5
	jp	SHORT $LN9@saturate

; 124  : 				g = 0;

	mov	edx, DWORD PTR _this$[ebp]
	fldz
	fstp	DWORD PTR [edx+4]
	jmp	SHORT $LN7@saturate
$LN9@saturate:

; 125  : 			else if (g > 1)

	mov	eax, DWORD PTR _this$[ebp]
	fld	DWORD PTR [eax+4]
	fcomp	QWORD PTR __real@3ff0000000000000
	fnstsw	ax
	test	ah, 65					; 00000041H
	jne	SHORT $LN7@saturate

; 126  : 				g = 1;

	mov	ecx, DWORD PTR _this$[ebp]
	fld1
	fstp	DWORD PTR [ecx+4]
$LN7@saturate:

; 127  : 
; 128  : 			if (b < 0)

	mov	edx, DWORD PTR _this$[ebp]
	fld	DWORD PTR [edx+8]
	fcomp	QWORD PTR __real@0000000000000000
	fnstsw	ax
	test	ah, 5
	jp	SHORT $LN6@saturate

; 129  : 				b = 0;

	mov	eax, DWORD PTR _this$[ebp]
	fldz
	fstp	DWORD PTR [eax+8]
	jmp	SHORT $LN4@saturate
$LN6@saturate:

; 130  : 			else if (b > 1)

	mov	ecx, DWORD PTR _this$[ebp]
	fld	DWORD PTR [ecx+8]
	fcomp	QWORD PTR __real@3ff0000000000000
	fnstsw	ax
	test	ah, 65					; 00000041H
	jne	SHORT $LN4@saturate

; 131  : 				b = 1;

	mov	edx, DWORD PTR _this$[ebp]
	fld1
	fstp	DWORD PTR [edx+8]
$LN4@saturate:

; 132  : 
; 133  : 			if (a < 0)

	mov	eax, DWORD PTR _this$[ebp]
	fld	DWORD PTR [eax+12]
	fcomp	QWORD PTR __real@0000000000000000
	fnstsw	ax
	test	ah, 5
	jp	SHORT $LN3@saturate

; 134  : 				a = 0;

	mov	ecx, DWORD PTR _this$[ebp]
	fldz
	fstp	DWORD PTR [ecx+12]
	jmp	SHORT $LN1@saturate
$LN3@saturate:

; 135  : 			else if (a > 1)

	mov	edx, DWORD PTR _this$[ebp]
	fld	DWORD PTR [edx+12]
	fcomp	QWORD PTR __real@3ff0000000000000
	fnstsw	ax
	test	ah, 65					; 00000041H
	jne	SHORT $LN1@saturate

; 136  : 				a = 1;

	mov	eax, DWORD PTR _this$[ebp]
	fld1
	fstp	DWORD PTR [eax+12]
$LN1@saturate:

; 137  : 		}

	mov	esp, ebp
	pop	ebp
	ret	0
?saturate@ColourValue@Ogre@@QAEXXZ ENDP			; Ogre::ColourValue::saturate
_TEXT	ENDS
PUBLIC	?saturateCopy@ColourValue@Ogre@@QBE?AV12@XZ	; Ogre::ColourValue::saturateCopy
; Function compile flags: /Odtp
;	COMDAT ?saturateCopy@ColourValue@Ogre@@QBE?AV12@XZ
_TEXT	SEGMENT
_this$ = -20						; size = 4
_ret$ = -16						; size = 16
___$ReturnUdt$ = 8					; size = 4
?saturateCopy@ColourValue@Ogre@@QBE?AV12@XZ PROC	; Ogre::ColourValue::saturateCopy, COMDAT
; _this$ = ecx

; 142  : 		{

	push	ebp
	mov	ebp, esp
	sub	esp, 20					; 00000014H
	mov	DWORD PTR _this$[ebp], ecx

; 143  : 			ColourValue ret = *this;

	mov	eax, DWORD PTR _this$[ebp]
	mov	ecx, DWORD PTR [eax]
	mov	DWORD PTR _ret$[ebp], ecx
	mov	edx, DWORD PTR [eax+4]
	mov	DWORD PTR _ret$[ebp+4], edx
	mov	ecx, DWORD PTR [eax+8]
	mov	DWORD PTR _ret$[ebp+8], ecx
	mov	edx, DWORD PTR [eax+12]
	mov	DWORD PTR _ret$[ebp+12], edx

; 144  : 			ret.saturate();

	lea	ecx, DWORD PTR _ret$[ebp]
	call	?saturate@ColourValue@Ogre@@QAEXXZ	; Ogre::ColourValue::saturate

; 145  : 			return ret;

	mov	eax, DWORD PTR ___$ReturnUdt$[ebp]
	mov	ecx, DWORD PTR _ret$[ebp]
	mov	DWORD PTR [eax], ecx
	mov	edx, DWORD PTR _ret$[ebp+4]
	mov	DWORD PTR [eax+4], edx
	mov	ecx, DWORD PTR _ret$[ebp+8]
	mov	DWORD PTR [eax+8], ecx
	mov	edx, DWORD PTR _ret$[ebp+12]
	mov	DWORD PTR [eax+12], edx
	mov	eax, DWORD PTR ___$ReturnUdt$[ebp]

; 146  : 		}

	mov	esp, ebp
	pop	ebp
	ret	4
?saturateCopy@ColourValue@Ogre@@QBE?AV12@XZ ENDP	; Ogre::ColourValue::saturateCopy
_TEXT	ENDS
PUBLIC	??AColourValue@Ogre@@QBEMI@Z			; Ogre::ColourValue::operator[]
; Function compile flags: /Odtp
;	COMDAT ??AColourValue@Ogre@@QBEMI@Z
_TEXT	SEGMENT
_this$ = -4						; size = 4
_i$ = 8							; size = 4
??AColourValue@Ogre@@QBEMI@Z PROC			; Ogre::ColourValue::operator[], COMDAT
; _this$ = ecx

; 150  : 		{

	push	ebp
	mov	ebp, esp
	push	ecx
	mov	DWORD PTR _this$[ebp], ecx

; 151  : 			assert( i < 4 );
; 152  : 
; 153  : 			return *(&r+i);

	mov	eax, DWORD PTR _i$[ebp]
	mov	ecx, DWORD PTR _this$[ebp]
	fld	DWORD PTR [ecx+eax*4]

; 154  : 		}

	mov	esp, ebp
	pop	ebp
	ret	4
??AColourValue@Ogre@@QBEMI@Z ENDP			; Ogre::ColourValue::operator[]
_TEXT	ENDS
PUBLIC	??AColourValue@Ogre@@QAEAAMI@Z			; Ogre::ColourValue::operator[]
; Function compile flags: /Odtp
;	COMDAT ??AColourValue@Ogre@@QAEAAMI@Z
_TEXT	SEGMENT
_this$ = -4						; size = 4
_i$ = 8							; size = 4
??AColourValue@Ogre@@QAEAAMI@Z PROC			; Ogre::ColourValue::operator[], COMDAT
; _this$ = ecx

; 158  : 		{

	push	ebp
	mov	ebp, esp
	push	ecx
	mov	DWORD PTR _this$[ebp], ecx

; 159  : 			assert( i < 4 );
; 160  : 
; 161  : 			return *(&r+i);

	mov	eax, DWORD PTR _i$[ebp]
	mov	ecx, DWORD PTR _this$[ebp]
	lea	eax, DWORD PTR [ecx+eax*4]

; 162  : 		}

	mov	esp, ebp
	pop	ebp
	ret	4
??AColourValue@Ogre@@QAEAAMI@Z ENDP			; Ogre::ColourValue::operator[]
_TEXT	ENDS
PUBLIC	?ptr@ColourValue@Ogre@@QAEPAMXZ			; Ogre::ColourValue::ptr
; Function compile flags: /Odtp
;	COMDAT ?ptr@ColourValue@Ogre@@QAEPAMXZ
_TEXT	SEGMENT
_this$ = -4						; size = 4
?ptr@ColourValue@Ogre@@QAEPAMXZ PROC			; Ogre::ColourValue::ptr, COMDAT
; _this$ = ecx

; 166  : 		{

	push	ebp
	mov	ebp, esp
	push	ecx
	mov	DWORD PTR _this$[ebp], ecx

; 167  : 			return &r;

	mov	eax, DWORD PTR _this$[ebp]

; 168  : 		}

	mov	esp, ebp
	pop	ebp
	ret	0
?ptr@ColourValue@Ogre@@QAEPAMXZ ENDP			; Ogre::ColourValue::ptr
_TEXT	ENDS
PUBLIC	?ptr@ColourValue@Ogre@@QBEPBMXZ			; Ogre::ColourValue::ptr
; Function compile flags: /Odtp
;	COMDAT ?ptr@ColourValue@Ogre@@QBEPBMXZ
_TEXT	SEGMENT
_this$ = -4						; size = 4
?ptr@ColourValue@Ogre@@QBEPBMXZ PROC			; Ogre::ColourValue::ptr, COMDAT
; _this$ = ecx

; 171  : 		{

	push	ebp
	mov	ebp, esp
	push	ecx
	mov	DWORD PTR _this$[ebp], ecx

; 172  : 			return &r;

	mov	eax, DWORD PTR _this$[ebp]

; 173  : 		}

	mov	esp, ebp
	pop	ebp
	ret	0
?ptr@ColourValue@Ogre@@QBEPBMXZ ENDP			; Ogre::ColourValue::ptr
_TEXT	ENDS
PUBLIC	??HColourValue@Ogre@@QBE?AV01@ABV01@@Z		; Ogre::ColourValue::operator+
; Function compile flags: /Odtp
;	COMDAT ??HColourValue@Ogre@@QBE?AV01@ABV01@@Z
_TEXT	SEGMENT
_this$ = -20						; size = 4
_kSum$ = -16						; size = 16
___$ReturnUdt$ = 8					; size = 4
_rkVector$ = 12						; size = 4
??HColourValue@Ogre@@QBE?AV01@ABV01@@Z PROC		; Ogre::ColourValue::operator+, COMDAT
; _this$ = ecx

; 178  : 		{

	push	ebp
	mov	ebp, esp
	sub	esp, 20					; 00000014H
	mov	DWORD PTR _this$[ebp], ecx

; 179  : 			ColourValue kSum;

	push	ecx
	fld1
	fstp	DWORD PTR [esp]
	push	ecx
	fld1
	fstp	DWORD PTR [esp]
	push	ecx
	fld1
	fstp	DWORD PTR [esp]
	push	ecx
	fld1
	fstp	DWORD PTR [esp]
	lea	ecx, DWORD PTR _kSum$[ebp]
	call	??0ColourValue@Ogre@@QAE@MMMM@Z		; Ogre::ColourValue::ColourValue

; 180  : 
; 181  : 			kSum.r = r + rkVector.r;

	mov	eax, DWORD PTR _this$[ebp]
	fld	DWORD PTR [eax]
	mov	ecx, DWORD PTR _rkVector$[ebp]
	fadd	DWORD PTR [ecx]
	fstp	DWORD PTR _kSum$[ebp]

; 182  : 			kSum.g = g + rkVector.g;

	mov	edx, DWORD PTR _this$[ebp]
	fld	DWORD PTR [edx+4]
	mov	eax, DWORD PTR _rkVector$[ebp]
	fadd	DWORD PTR [eax+4]
	fstp	DWORD PTR _kSum$[ebp+4]

; 183  : 			kSum.b = b + rkVector.b;

	mov	ecx, DWORD PTR _this$[ebp]
	fld	DWORD PTR [ecx+8]
	mov	edx, DWORD PTR _rkVector$[ebp]
	fadd	DWORD PTR [edx+8]
	fstp	DWORD PTR _kSum$[ebp+8]

; 184  : 			kSum.a = a + rkVector.a;

	mov	eax, DWORD PTR _this$[ebp]
	fld	DWORD PTR [eax+12]
	mov	ecx, DWORD PTR _rkVector$[ebp]
	fadd	DWORD PTR [ecx+12]
	fstp	DWORD PTR _kSum$[ebp+12]

; 185  : 
; 186  : 			return kSum;

	mov	edx, DWORD PTR ___$ReturnUdt$[ebp]
	mov	eax, DWORD PTR _kSum$[ebp]
	mov	DWORD PTR [edx], eax
	mov	ecx, DWORD PTR _kSum$[ebp+4]
	mov	DWORD PTR [edx+4], ecx
	mov	eax, DWORD PTR _kSum$[ebp+8]
	mov	DWORD PTR [edx+8], eax
	mov	ecx, DWORD PTR _kSum$[ebp+12]
	mov	DWORD PTR [edx+12], ecx
	mov	eax, DWORD PTR ___$ReturnUdt$[ebp]

; 187  : 		}

	mov	esp, ebp
	pop	ebp
	ret	8
??HColourValue@Ogre@@QBE?AV01@ABV01@@Z ENDP		; Ogre::ColourValue::operator+
_TEXT	ENDS
PUBLIC	??GColourValue@Ogre@@QBE?AV01@ABV01@@Z		; Ogre::ColourValue::operator-
; Function compile flags: /Odtp
;	COMDAT ??GColourValue@Ogre@@QBE?AV01@ABV01@@Z
_TEXT	SEGMENT
_this$ = -20						; size = 4
_kDiff$ = -16						; size = 16
___$ReturnUdt$ = 8					; size = 4
_rkVector$ = 12						; size = 4
??GColourValue@Ogre@@QBE?AV01@ABV01@@Z PROC		; Ogre::ColourValue::operator-, COMDAT
; _this$ = ecx

; 190  : 		{

	push	ebp
	mov	ebp, esp
	sub	esp, 20					; 00000014H
	mov	DWORD PTR _this$[ebp], ecx

; 191  : 			ColourValue kDiff;

	push	ecx
	fld1
	fstp	DWORD PTR [esp]
	push	ecx
	fld1
	fstp	DWORD PTR [esp]
	push	ecx
	fld1
	fstp	DWORD PTR [esp]
	push	ecx
	fld1
	fstp	DWORD PTR [esp]
	lea	ecx, DWORD PTR _kDiff$[ebp]
	call	??0ColourValue@Ogre@@QAE@MMMM@Z		; Ogre::ColourValue::ColourValue

; 192  : 
; 193  : 			kDiff.r = r - rkVector.r;

	mov	eax, DWORD PTR _this$[ebp]
	fld	DWORD PTR [eax]
	mov	ecx, DWORD PTR _rkVector$[ebp]
	fsub	DWORD PTR [ecx]
	fstp	DWORD PTR _kDiff$[ebp]

; 194  : 			kDiff.g = g - rkVector.g;

	mov	edx, DWORD PTR _this$[ebp]
	fld	DWORD PTR [edx+4]
	mov	eax, DWORD PTR _rkVector$[ebp]
	fsub	DWORD PTR [eax+4]
	fstp	DWORD PTR _kDiff$[ebp+4]

; 195  : 			kDiff.b = b - rkVector.b;

	mov	ecx, DWORD PTR _this$[ebp]
	fld	DWORD PTR [ecx+8]
	mov	edx, DWORD PTR _rkVector$[ebp]
	fsub	DWORD PTR [edx+8]
	fstp	DWORD PTR _kDiff$[ebp+8]

; 196  : 			kDiff.a = a - rkVector.a;

	mov	eax, DWORD PTR _this$[ebp]
	fld	DWORD PTR [eax+12]
	mov	ecx, DWORD PTR _rkVector$[ebp]
	fsub	DWORD PTR [ecx+12]
	fstp	DWORD PTR _kDiff$[ebp+12]

; 197  : 
; 198  : 			return kDiff;

	mov	edx, DWORD PTR ___$ReturnUdt$[ebp]
	mov	eax, DWORD PTR _kDiff$[ebp]
	mov	DWORD PTR [edx], eax
	mov	ecx, DWORD PTR _kDiff$[ebp+4]
	mov	DWORD PTR [edx+4], ecx
	mov	eax, DWORD PTR _kDiff$[ebp+8]
	mov	DWORD PTR [edx+8], eax
	mov	ecx, DWORD PTR _kDiff$[ebp+12]
	mov	DWORD PTR [edx+12], ecx
	mov	eax, DWORD PTR ___$ReturnUdt$[ebp]

; 199  : 		}

	mov	esp, ebp
	pop	ebp
	ret	8
??GColourValue@Ogre@@QBE?AV01@ABV01@@Z ENDP		; Ogre::ColourValue::operator-
_TEXT	ENDS
PUBLIC	??DColourValue@Ogre@@QBE?AV01@M@Z		; Ogre::ColourValue::operator*
; Function compile flags: /Odtp
;	COMDAT ??DColourValue@Ogre@@QBE?AV01@M@Z
_TEXT	SEGMENT
_this$ = -20						; size = 4
_kProd$ = -16						; size = 16
___$ReturnUdt$ = 8					; size = 4
_fScalar$ = 12						; size = 4
??DColourValue@Ogre@@QBE?AV01@M@Z PROC			; Ogre::ColourValue::operator*, COMDAT
; _this$ = ecx

; 202  : 		{

	push	ebp
	mov	ebp, esp
	sub	esp, 20					; 00000014H
	mov	DWORD PTR _this$[ebp], ecx

; 203  : 			ColourValue kProd;

	push	ecx
	fld1
	fstp	DWORD PTR [esp]
	push	ecx
	fld1
	fstp	DWORD PTR [esp]
	push	ecx
	fld1
	fstp	DWORD PTR [esp]
	push	ecx
	fld1
	fstp	DWORD PTR [esp]
	lea	ecx, DWORD PTR _kProd$[ebp]
	call	??0ColourValue@Ogre@@QAE@MMMM@Z		; Ogre::ColourValue::ColourValue

; 204  : 
; 205  : 			kProd.r = fScalar*r;

	fld	DWORD PTR _fScalar$[ebp]
	mov	eax, DWORD PTR _this$[ebp]
	fmul	DWORD PTR [eax]
	fstp	DWORD PTR _kProd$[ebp]

; 206  : 			kProd.g = fScalar*g;

	fld	DWORD PTR _fScalar$[ebp]
	mov	ecx, DWORD PTR _this$[ebp]
	fmul	DWORD PTR [ecx+4]
	fstp	DWORD PTR _kProd$[ebp+4]

; 207  : 			kProd.b = fScalar*b;

	fld	DWORD PTR _fScalar$[ebp]
	mov	edx, DWORD PTR _this$[ebp]
	fmul	DWORD PTR [edx+8]
	fstp	DWORD PTR _kProd$[ebp+8]

; 208  : 			kProd.a = fScalar*a;

	fld	DWORD PTR _fScalar$[ebp]
	mov	eax, DWORD PTR _this$[ebp]
	fmul	DWORD PTR [eax+12]
	fstp	DWORD PTR _kProd$[ebp+12]

; 209  : 
; 210  : 			return kProd;

	mov	ecx, DWORD PTR ___$ReturnUdt$[ebp]
	mov	edx, DWORD PTR _kProd$[ebp]
	mov	DWORD PTR [ecx], edx
	mov	eax, DWORD PTR _kProd$[ebp+4]
	mov	DWORD PTR [ecx+4], eax
	mov	edx, DWORD PTR _kProd$[ebp+8]
	mov	DWORD PTR [ecx+8], edx
	mov	eax, DWORD PTR _kProd$[ebp+12]
	mov	DWORD PTR [ecx+12], eax
	mov	eax, DWORD PTR ___$ReturnUdt$[ebp]

; 211  : 		}

	mov	esp, ebp
	pop	ebp
	ret	8
??DColourValue@Ogre@@QBE?AV01@M@Z ENDP			; Ogre::ColourValue::operator*
_TEXT	ENDS
PUBLIC	??DColourValue@Ogre@@QBE?AV01@ABV01@@Z		; Ogre::ColourValue::operator*
; Function compile flags: /Odtp
;	COMDAT ??DColourValue@Ogre@@QBE?AV01@ABV01@@Z
_TEXT	SEGMENT
_this$ = -20						; size = 4
_kProd$ = -16						; size = 16
___$ReturnUdt$ = 8					; size = 4
_rhs$ = 12						; size = 4
??DColourValue@Ogre@@QBE?AV01@ABV01@@Z PROC		; Ogre::ColourValue::operator*, COMDAT
; _this$ = ecx

; 214  : 		{

	push	ebp
	mov	ebp, esp
	sub	esp, 20					; 00000014H
	mov	DWORD PTR _this$[ebp], ecx

; 215  : 			ColourValue kProd;

	push	ecx
	fld1
	fstp	DWORD PTR [esp]
	push	ecx
	fld1
	fstp	DWORD PTR [esp]
	push	ecx
	fld1
	fstp	DWORD PTR [esp]
	push	ecx
	fld1
	fstp	DWORD PTR [esp]
	lea	ecx, DWORD PTR _kProd$[ebp]
	call	??0ColourValue@Ogre@@QAE@MMMM@Z		; Ogre::ColourValue::ColourValue

; 216  : 
; 217  : 			kProd.r = rhs.r * r;

	mov	eax, DWORD PTR _rhs$[ebp]
	fld	DWORD PTR [eax]
	mov	ecx, DWORD PTR _this$[ebp]
	fmul	DWORD PTR [ecx]
	fstp	DWORD PTR _kProd$[ebp]

; 218  : 			kProd.g = rhs.g * g;

	mov	edx, DWORD PTR _rhs$[ebp]
	fld	DWORD PTR [edx+4]
	mov	eax, DWORD PTR _this$[ebp]
	fmul	DWORD PTR [eax+4]
	fstp	DWORD PTR _kProd$[ebp+4]

; 219  : 			kProd.b = rhs.b * b;

	mov	ecx, DWORD PTR _rhs$[ebp]
	fld	DWORD PTR [ecx+8]
	mov	edx, DWORD PTR _this$[ebp]
	fmul	DWORD PTR [edx+8]
	fstp	DWORD PTR _kProd$[ebp+8]

; 220  : 			kProd.a = rhs.a * a;

	mov	eax, DWORD PTR _rhs$[ebp]
	fld	DWORD PTR [eax+12]
	mov	ecx, DWORD PTR _this$[ebp]
	fmul	DWORD PTR [ecx+12]
	fstp	DWORD PTR _kProd$[ebp+12]

; 221  : 
; 222  : 			return kProd;

	mov	edx, DWORD PTR ___$ReturnUdt$[ebp]
	mov	eax, DWORD PTR _kProd$[ebp]
	mov	DWORD PTR [edx], eax
	mov	ecx, DWORD PTR _kProd$[ebp+4]
	mov	DWORD PTR [edx+4], ecx
	mov	eax, DWORD PTR _kProd$[ebp+8]
	mov	DWORD PTR [edx+8], eax
	mov	ecx, DWORD PTR _kProd$[ebp+12]
	mov	DWORD PTR [edx+12], ecx
	mov	eax, DWORD PTR ___$ReturnUdt$[ebp]

; 223  : 		}

	mov	esp, ebp
	pop	ebp
	ret	8
??DColourValue@Ogre@@QBE?AV01@ABV01@@Z ENDP		; Ogre::ColourValue::operator*
_TEXT	ENDS
PUBLIC	??KColourValue@Ogre@@QBE?AV01@ABV01@@Z		; Ogre::ColourValue::operator/
; Function compile flags: /Odtp
;	COMDAT ??KColourValue@Ogre@@QBE?AV01@ABV01@@Z
_TEXT	SEGMENT
_this$ = -20						; size = 4
_kProd$ = -16						; size = 16
___$ReturnUdt$ = 8					; size = 4
_rhs$ = 12						; size = 4
??KColourValue@Ogre@@QBE?AV01@ABV01@@Z PROC		; Ogre::ColourValue::operator/, COMDAT
; _this$ = ecx

; 226  : 		{

	push	ebp
	mov	ebp, esp
	sub	esp, 20					; 00000014H
	mov	DWORD PTR _this$[ebp], ecx

; 227  : 			ColourValue kProd;

	push	ecx
	fld1
	fstp	DWORD PTR [esp]
	push	ecx
	fld1
	fstp	DWORD PTR [esp]
	push	ecx
	fld1
	fstp	DWORD PTR [esp]
	push	ecx
	fld1
	fstp	DWORD PTR [esp]
	lea	ecx, DWORD PTR _kProd$[ebp]
	call	??0ColourValue@Ogre@@QAE@MMMM@Z		; Ogre::ColourValue::ColourValue

; 228  : 
; 229  : 			kProd.r = rhs.r / r;

	mov	eax, DWORD PTR _rhs$[ebp]
	fld	DWORD PTR [eax]
	mov	ecx, DWORD PTR _this$[ebp]
	fdiv	DWORD PTR [ecx]
	fstp	DWORD PTR _kProd$[ebp]

; 230  : 			kProd.g = rhs.g / g;

	mov	edx, DWORD PTR _rhs$[ebp]
	fld	DWORD PTR [edx+4]
	mov	eax, DWORD PTR _this$[ebp]
	fdiv	DWORD PTR [eax+4]
	fstp	DWORD PTR _kProd$[ebp+4]

; 231  : 			kProd.b = rhs.b / b;

	mov	ecx, DWORD PTR _rhs$[ebp]
	fld	DWORD PTR [ecx+8]
	mov	edx, DWORD PTR _this$[ebp]
	fdiv	DWORD PTR [edx+8]
	fstp	DWORD PTR _kProd$[ebp+8]

; 232  : 			kProd.a = rhs.a / a;

	mov	eax, DWORD PTR _rhs$[ebp]
	fld	DWORD PTR [eax+12]
	mov	ecx, DWORD PTR _this$[ebp]
	fdiv	DWORD PTR [ecx+12]
	fstp	DWORD PTR _kProd$[ebp+12]

; 233  : 
; 234  : 			return kProd;

	mov	edx, DWORD PTR ___$ReturnUdt$[ebp]
	mov	eax, DWORD PTR _kProd$[ebp]
	mov	DWORD PTR [edx], eax
	mov	ecx, DWORD PTR _kProd$[ebp+4]
	mov	DWORD PTR [edx+4], ecx
	mov	eax, DWORD PTR _kProd$[ebp+8]
	mov	DWORD PTR [edx+8], eax
	mov	ecx, DWORD PTR _kProd$[ebp+12]
	mov	DWORD PTR [edx+12], ecx
	mov	eax, DWORD PTR ___$ReturnUdt$[ebp]

; 235  : 		}

	mov	esp, ebp
	pop	ebp
	ret	8
??KColourValue@Ogre@@QBE?AV01@ABV01@@Z ENDP		; Ogre::ColourValue::operator/
_TEXT	ENDS
PUBLIC	??KColourValue@Ogre@@QBE?AV01@M@Z		; Ogre::ColourValue::operator/
; Function compile flags: /Odtp
;	COMDAT ??KColourValue@Ogre@@QBE?AV01@M@Z
_TEXT	SEGMENT
_this$ = -24						; size = 4
_kDiv$ = -20						; size = 16
_fInv$ = -4						; size = 4
___$ReturnUdt$ = 8					; size = 4
_fScalar$ = 12						; size = 4
??KColourValue@Ogre@@QBE?AV01@M@Z PROC			; Ogre::ColourValue::operator/, COMDAT
; _this$ = ecx

; 238  : 		{

	push	ebp
	mov	ebp, esp
	sub	esp, 24					; 00000018H
	mov	DWORD PTR _this$[ebp], ecx

; 239  : 			assert( fScalar != 0.0f );
; 240  : 
; 241  : 			ColourValue kDiv;

	push	ecx
	fld1
	fstp	DWORD PTR [esp]
	push	ecx
	fld1
	fstp	DWORD PTR [esp]
	push	ecx
	fld1
	fstp	DWORD PTR [esp]
	push	ecx
	fld1
	fstp	DWORD PTR [esp]
	lea	ecx, DWORD PTR _kDiv$[ebp]
	call	??0ColourValue@Ogre@@QAE@MMMM@Z		; Ogre::ColourValue::ColourValue

; 242  : 
; 243  : 			float fInv = 1.0f / fScalar;

	fld	DWORD PTR _fScalar$[ebp]
	fld1
	fdivrp	ST(1), ST(0)
	fstp	DWORD PTR _fInv$[ebp]

; 244  : 			kDiv.r = r * fInv;

	mov	eax, DWORD PTR _this$[ebp]
	fld	DWORD PTR [eax]
	fmul	DWORD PTR _fInv$[ebp]
	fstp	DWORD PTR _kDiv$[ebp]

; 245  : 			kDiv.g = g * fInv;

	mov	ecx, DWORD PTR _this$[ebp]
	fld	DWORD PTR [ecx+4]
	fmul	DWORD PTR _fInv$[ebp]
	fstp	DWORD PTR _kDiv$[ebp+4]

; 246  : 			kDiv.b = b * fInv;

	mov	edx, DWORD PTR _this$[ebp]
	fld	DWORD PTR [edx+8]
	fmul	DWORD PTR _fInv$[ebp]
	fstp	DWORD PTR _kDiv$[ebp+8]

; 247  : 			kDiv.a = a * fInv;

	mov	eax, DWORD PTR _this$[ebp]
	fld	DWORD PTR [eax+12]
	fmul	DWORD PTR _fInv$[ebp]
	fstp	DWORD PTR _kDiv$[ebp+12]

; 248  : 
; 249  : 			return kDiv;

	mov	ecx, DWORD PTR ___$ReturnUdt$[ebp]
	mov	edx, DWORD PTR _kDiv$[ebp]
	mov	DWORD PTR [ecx], edx
	mov	eax, DWORD PTR _kDiv$[ebp+4]
	mov	DWORD PTR [ecx+4], eax
	mov	edx, DWORD PTR _kDiv$[ebp+8]
	mov	DWORD PTR [ecx+8], edx
	mov	eax, DWORD PTR _kDiv$[ebp+12]
	mov	DWORD PTR [ecx+12], eax
	mov	eax, DWORD PTR ___$ReturnUdt$[ebp]

; 250  : 		}

	mov	esp, ebp
	pop	ebp
	ret	8
??KColourValue@Ogre@@QBE?AV01@M@Z ENDP			; Ogre::ColourValue::operator/
_TEXT	ENDS
PUBLIC	??YColourValue@Ogre@@QAEAAV01@ABV01@@Z		; Ogre::ColourValue::operator+=
; Function compile flags: /Odtp
;	COMDAT ??YColourValue@Ogre@@QAEAAV01@ABV01@@Z
_TEXT	SEGMENT
_this$ = -4						; size = 4
_rkVector$ = 8						; size = 4
??YColourValue@Ogre@@QAEAAV01@ABV01@@Z PROC		; Ogre::ColourValue::operator+=, COMDAT
; _this$ = ecx

; 266  : 		{

	push	ebp
	mov	ebp, esp
	push	ecx
	mov	DWORD PTR _this$[ebp], ecx

; 267  : 			r += rkVector.r;

	mov	eax, DWORD PTR _this$[ebp]
	fld	DWORD PTR [eax]
	mov	ecx, DWORD PTR _rkVector$[ebp]
	fadd	DWORD PTR [ecx]
	mov	edx, DWORD PTR _this$[ebp]
	fstp	DWORD PTR [edx]

; 268  : 			g += rkVector.g;

	mov	eax, DWORD PTR _this$[ebp]
	fld	DWORD PTR [eax+4]
	mov	ecx, DWORD PTR _rkVector$[ebp]
	fadd	DWORD PTR [ecx+4]
	mov	edx, DWORD PTR _this$[ebp]
	fstp	DWORD PTR [edx+4]

; 269  : 			b += rkVector.b;

	mov	eax, DWORD PTR _this$[ebp]
	fld	DWORD PTR [eax+8]
	mov	ecx, DWORD PTR _rkVector$[ebp]
	fadd	DWORD PTR [ecx+8]
	mov	edx, DWORD PTR _this$[ebp]
	fstp	DWORD PTR [edx+8]

; 270  : 			a += rkVector.a;

	mov	eax, DWORD PTR _this$[ebp]
	fld	DWORD PTR [eax+12]
	mov	ecx, DWORD PTR _rkVector$[ebp]
	fadd	DWORD PTR [ecx+12]
	mov	edx, DWORD PTR _this$[ebp]
	fstp	DWORD PTR [edx+12]

; 271  : 
; 272  : 			return *this;

	mov	eax, DWORD PTR _this$[ebp]

; 273  : 		}

	mov	esp, ebp
	pop	ebp
	ret	4
??YColourValue@Ogre@@QAEAAV01@ABV01@@Z ENDP		; Ogre::ColourValue::operator+=
_TEXT	ENDS
PUBLIC	??ZColourValue@Ogre@@QAEAAV01@ABV01@@Z		; Ogre::ColourValue::operator-=
; Function compile flags: /Odtp
;	COMDAT ??ZColourValue@Ogre@@QAEAAV01@ABV01@@Z
_TEXT	SEGMENT
_this$ = -4						; size = 4
_rkVector$ = 8						; size = 4
??ZColourValue@Ogre@@QAEAAV01@ABV01@@Z PROC		; Ogre::ColourValue::operator-=, COMDAT
; _this$ = ecx

; 276  : 		{

	push	ebp
	mov	ebp, esp
	push	ecx
	mov	DWORD PTR _this$[ebp], ecx

; 277  : 			r -= rkVector.r;

	mov	eax, DWORD PTR _this$[ebp]
	fld	DWORD PTR [eax]
	mov	ecx, DWORD PTR _rkVector$[ebp]
	fsub	DWORD PTR [ecx]
	mov	edx, DWORD PTR _this$[ebp]
	fstp	DWORD PTR [edx]

; 278  : 			g -= rkVector.g;

	mov	eax, DWORD PTR _this$[ebp]
	fld	DWORD PTR [eax+4]
	mov	ecx, DWORD PTR _rkVector$[ebp]
	fsub	DWORD PTR [ecx+4]
	mov	edx, DWORD PTR _this$[ebp]
	fstp	DWORD PTR [edx+4]

; 279  : 			b -= rkVector.b;

	mov	eax, DWORD PTR _this$[ebp]
	fld	DWORD PTR [eax+8]
	mov	ecx, DWORD PTR _rkVector$[ebp]
	fsub	DWORD PTR [ecx+8]
	mov	edx, DWORD PTR _this$[ebp]
	fstp	DWORD PTR [edx+8]

; 280  : 			a -= rkVector.a;

	mov	eax, DWORD PTR _this$[ebp]
	fld	DWORD PTR [eax+12]
	mov	ecx, DWORD PTR _rkVector$[ebp]
	fsub	DWORD PTR [ecx+12]
	mov	edx, DWORD PTR _this$[ebp]
	fstp	DWORD PTR [edx+12]

; 281  : 
; 282  : 			return *this;

	mov	eax, DWORD PTR _this$[ebp]

; 283  : 		}

	mov	esp, ebp
	pop	ebp
	ret	4
??ZColourValue@Ogre@@QAEAAV01@ABV01@@Z ENDP		; Ogre::ColourValue::operator-=
_TEXT	ENDS
PUBLIC	??XColourValue@Ogre@@QAEAAV01@M@Z		; Ogre::ColourValue::operator*=
; Function compile flags: /Odtp
;	COMDAT ??XColourValue@Ogre@@QAEAAV01@M@Z
_TEXT	SEGMENT
_this$ = -4						; size = 4
_fScalar$ = 8						; size = 4
??XColourValue@Ogre@@QAEAAV01@M@Z PROC			; Ogre::ColourValue::operator*=, COMDAT
; _this$ = ecx

; 286  : 		{

	push	ebp
	mov	ebp, esp
	push	ecx
	mov	DWORD PTR _this$[ebp], ecx

; 287  : 			r *= fScalar;

	mov	eax, DWORD PTR _this$[ebp]
	fld	DWORD PTR [eax]
	fmul	DWORD PTR _fScalar$[ebp]
	mov	ecx, DWORD PTR _this$[ebp]
	fstp	DWORD PTR [ecx]

; 288  : 			g *= fScalar;

	mov	edx, DWORD PTR _this$[ebp]
	fld	DWORD PTR [edx+4]
	fmul	DWORD PTR _fScalar$[ebp]
	mov	eax, DWORD PTR _this$[ebp]
	fstp	DWORD PTR [eax+4]

; 289  : 			b *= fScalar;

	mov	ecx, DWORD PTR _this$[ebp]
	fld	DWORD PTR [ecx+8]
	fmul	DWORD PTR _fScalar$[ebp]
	mov	edx, DWORD PTR _this$[ebp]
	fstp	DWORD PTR [edx+8]

; 290  : 			a *= fScalar;

	mov	eax, DWORD PTR _this$[ebp]
	fld	DWORD PTR [eax+12]
	fmul	DWORD PTR _fScalar$[ebp]
	mov	ecx, DWORD PTR _this$[ebp]
	fstp	DWORD PTR [ecx+12]

; 291  : 			return *this;

	mov	eax, DWORD PTR _this$[ebp]

; 292  : 		}

	mov	esp, ebp
	pop	ebp
	ret	4
??XColourValue@Ogre@@QAEAAV01@M@Z ENDP			; Ogre::ColourValue::operator*=
_TEXT	ENDS
PUBLIC	??_0ColourValue@Ogre@@QAEAAV01@M@Z		; Ogre::ColourValue::operator/=
; Function compile flags: /Odtp
;	COMDAT ??_0ColourValue@Ogre@@QAEAAV01@M@Z
_TEXT	SEGMENT
_this$ = -8						; size = 4
_fInv$ = -4						; size = 4
_fScalar$ = 8						; size = 4
??_0ColourValue@Ogre@@QAEAAV01@M@Z PROC			; Ogre::ColourValue::operator/=, COMDAT
; _this$ = ecx

; 295  : 		{

	push	ebp
	mov	ebp, esp
	sub	esp, 8
	mov	DWORD PTR _this$[ebp], ecx

; 296  : 			assert( fScalar != 0.0 );
; 297  : 
; 298  : 			float fInv = 1.0f / fScalar;

	fld	DWORD PTR _fScalar$[ebp]
	fld1
	fdivrp	ST(1), ST(0)
	fstp	DWORD PTR _fInv$[ebp]

; 299  : 
; 300  : 			r *= fInv;

	mov	eax, DWORD PTR _this$[ebp]
	fld	DWORD PTR [eax]
	fmul	DWORD PTR _fInv$[ebp]
	mov	ecx, DWORD PTR _this$[ebp]
	fstp	DWORD PTR [ecx]

; 301  : 			g *= fInv;

	mov	edx, DWORD PTR _this$[ebp]
	fld	DWORD PTR [edx+4]
	fmul	DWORD PTR _fInv$[ebp]
	mov	eax, DWORD PTR _this$[ebp]
	fstp	DWORD PTR [eax+4]

; 302  : 			b *= fInv;

	mov	ecx, DWORD PTR _this$[ebp]
	fld	DWORD PTR [ecx+8]
	fmul	DWORD PTR _fInv$[ebp]
	mov	edx, DWORD PTR _this$[ebp]
	fstp	DWORD PTR [edx+8]

; 303  : 			a *= fInv;

	mov	eax, DWORD PTR _this$[ebp]
	fld	DWORD PTR [eax+12]
	fmul	DWORD PTR _fInv$[ebp]
	mov	ecx, DWORD PTR _this$[ebp]
	fstp	DWORD PTR [ecx+12]

; 304  : 
; 305  : 			return *this;

	mov	eax, DWORD PTR _this$[ebp]

; 306  : 		}

	mov	esp, ebp
	pop	ebp
	ret	4
??_0ColourValue@Ogre@@QAEAAV01@M@Z ENDP			; Ogre::ColourValue::operator/=
_TEXT	ENDS
PUBLIC	??4ColourValue@Ogre@@QAEAAV01@ABV01@@Z		; Ogre::ColourValue::operator=
; Function compile flags: /Odtp
;	COMDAT ??4ColourValue@Ogre@@QAEAAV01@ABV01@@Z
_TEXT	SEGMENT
_this$ = -4						; size = 4
___that$ = 8						; size = 4
??4ColourValue@Ogre@@QAEAAV01@ABV01@@Z PROC		; Ogre::ColourValue::operator=, COMDAT
; _this$ = ecx
	push	ebp
	mov	ebp, esp
	push	ecx
	mov	DWORD PTR _this$[ebp], ecx
	mov	eax, DWORD PTR ___that$[ebp]
	mov	ecx, DWORD PTR _this$[ebp]
	mov	edx, DWORD PTR [eax]
	mov	DWORD PTR [ecx], edx
	mov	edx, DWORD PTR [eax+4]
	mov	DWORD PTR [ecx+4], edx
	mov	edx, DWORD PTR [eax+8]
	mov	DWORD PTR [ecx+8], edx
	mov	eax, DWORD PTR [eax+12]
	mov	DWORD PTR [ecx+12], eax
	mov	eax, DWORD PTR _this$[ebp]
	mov	esp, ebp
	pop	ebp
	ret	4
??4ColourValue@Ogre@@QAEAAV01@ABV01@@Z ENDP		; Ogre::ColourValue::operator=
_TEXT	ENDS
PUBLIC	??_FColourValue@Ogre@@QAEXXZ			; Ogre::ColourValue::`default constructor closure'
; Function compile flags: /Odtp
;	COMDAT ??_FColourValue@Ogre@@QAEXXZ
_TEXT	SEGMENT
_this$ = -4						; size = 4
??_FColourValue@Ogre@@QAEXXZ PROC			; Ogre::ColourValue::`default constructor closure', COMDAT
; _this$ = ecx
	push	ebp
	mov	ebp, esp
	push	ecx
	mov	DWORD PTR _this$[ebp], ecx
	push	ecx
	fld1
	fstp	DWORD PTR [esp]
	push	ecx
	fld1
	fstp	DWORD PTR [esp]
	push	ecx
	fld1
	fstp	DWORD PTR [esp]
	push	ecx
	fld1
	fstp	DWORD PTR [esp]
	mov	ecx, DWORD PTR _this$[ebp]
	call	??0ColourValue@Ogre@@QAE@MMMM@Z		; Ogre::ColourValue::ColourValue
	mov	esp, ebp
	pop	ebp
	ret	0
??_FColourValue@Ogre@@QAEXXZ ENDP			; Ogre::ColourValue::`default constructor closure'
_TEXT	ENDS
PUBLIC	?getRTTI@FogEffect@Ogre@@UBEPBVRuntimeClass@2@XZ ; Ogre::FogEffect::getRTTI
; Function compile flags: /Odtp
; File i:\svnroot\client\ogremain\ogrefog.h
;	COMDAT ?getRTTI@FogEffect@Ogre@@UBEPBVRuntimeClass@2@XZ
_TEXT	SEGMENT
_this$ = -4						; size = 4
?getRTTI@FogEffect@Ogre@@UBEPBVRuntimeClass@2@XZ PROC	; Ogre::FogEffect::getRTTI, COMDAT
; _this$ = ecx

; 18   : 		DECLARE_RTTI_VIRTUAL(FogEffect)

	push	ebp
	mov	ebp, esp
	push	ecx
	mov	DWORD PTR _this$[ebp], ecx
	mov	eax, OFFSET ?m_RTTI@FogEffect@Ogre@@2VRuntimeClass@2@B ; Ogre::FogEffect::m_RTTI
	mov	esp, ebp
	pop	ebp
	ret	0
?getRTTI@FogEffect@Ogre@@UBEPBVRuntimeClass@2@XZ ENDP	; Ogre::FogEffect::getRTTI
_TEXT	ENDS
PUBLIC	?setRange@FogEffect@Ogre@@QAEXMM@Z		; Ogre::FogEffect::setRange
; Function compile flags: /Odtp
;	COMDAT ?setRange@FogEffect@Ogre@@QAEXMM@Z
_TEXT	SEGMENT
_this$ = -4						; size = 4
_near$ = 8						; size = 4
_far$ = 12						; size = 4
?setRange@FogEffect@Ogre@@QAEXMM@Z PROC			; Ogre::FogEffect::setRange, COMDAT
; _this$ = ecx

; 29   : 		{

	push	ebp
	mov	ebp, esp
	push	ecx
	mov	DWORD PTR _this$[ebp], ecx

; 30   : 			m_Near = near;

	mov	eax, DWORD PTR _this$[ebp]
	fld	DWORD PTR _near$[ebp]
	fstp	DWORD PTR [eax+240]

; 31   : 			m_Far = far;

	mov	ecx, DWORD PTR _this$[ebp]
	fld	DWORD PTR _far$[ebp]
	fstp	DWORD PTR [ecx+244]

; 32   : 		}

	mov	esp, ebp
	pop	ebp
	ret	8
?setRange@FogEffect@Ogre@@QAEXMM@Z ENDP			; Ogre::FogEffect::setRange
_TEXT	ENDS
PUBLIC	??1FogEffect@Ogre@@UAE@XZ			; Ogre::FogEffect::~FogEffect
;	COMDAT xdata$x
xdata$x	SEGMENT
__unwindtable$??1FogEffect@Ogre@@UAE@XZ DD 0ffffffffH
	DD	FLAT:__unwindfunclet$??1FogEffect@Ogre@@UAE@XZ$0
__ehfuncinfo$??1FogEffect@Ogre@@UAE@XZ DD 019930522H
	DD	01H
	DD	FLAT:__unwindtable$??1FogEffect@Ogre@@UAE@XZ
	DD	2 DUP(00H)
	DD	2 DUP(00H)
	DD	00H
	DD	00H
; Function compile flags: /Odtp
xdata$x	ENDS
;	COMDAT ??1FogEffect@Ogre@@UAE@XZ
_TEXT	SEGMENT
_this$ = -16						; size = 4
__$EHRec$ = -12						; size = 12
??1FogEffect@Ogre@@UAE@XZ PROC				; Ogre::FogEffect::~FogEffect, COMDAT
; _this$ = ecx
	push	ebp
	mov	ebp, esp
	push	-1
	push	__ehhandler$??1FogEffect@Ogre@@UAE@XZ
	mov	eax, DWORD PTR fs:0
	push	eax
	push	ecx
	mov	eax, DWORD PTR ___security_cookie
	xor	eax, ebp
	push	eax
	lea	eax, DWORD PTR __$EHRec$[ebp]
	mov	DWORD PTR fs:0, eax
	mov	DWORD PTR _this$[ebp], ecx
	mov	DWORD PTR __$EHRec$[ebp+8], 0
	mov	DWORD PTR __$EHRec$[ebp+8], -1
	mov	ecx, DWORD PTR _this$[ebp]
	call	??1EffectObject@Ogre@@UAE@XZ
	mov	ecx, DWORD PTR __$EHRec$[ebp]
	mov	DWORD PTR fs:0, ecx
	pop	ecx
	mov	esp, ebp
	pop	ebp
	ret	0
_TEXT	ENDS
;	COMDAT text$x
text$x	SEGMENT
__unwindfunclet$??1FogEffect@Ogre@@UAE@XZ$0:
	mov	ecx, DWORD PTR _this$[ebp]
	jmp	??1EffectObject@Ogre@@UAE@XZ
__ehhandler$??1FogEffect@Ogre@@UAE@XZ:
	mov	edx, DWORD PTR [esp+8]
	lea	eax, DWORD PTR [edx+12]
	mov	ecx, DWORD PTR [edx-8]
	xor	ecx, eax
	call	@__security_check_cookie@4
	mov	eax, OFFSET __ehfuncinfo$??1FogEffect@Ogre@@UAE@XZ
	jmp	___CxxFrameHandler3
text$x	ENDS
??1FogEffect@Ogre@@UAE@XZ ENDP				; Ogre::FogEffect::~FogEffect
PUBLIC	??_7FogEffect@Ogre@@6B@				; Ogre::FogEffect::`vftable'
PUBLIC	??0FogEffect@Ogre@@QAE@ABV01@@Z			; Ogre::FogEffect::FogEffect
PUBLIC	??_R4FogEffect@Ogre@@6B@			; Ogre::FogEffect::`RTTI Complete Object Locator'
PUBLIC	??_R0?AVFogEffect@Ogre@@@8			; Ogre::FogEffect `RTTI Type Descriptor'
PUBLIC	??_R3FogEffect@Ogre@@8				; Ogre::FogEffect::`RTTI Class Hierarchy Descriptor'
PUBLIC	??_R2FogEffect@Ogre@@8				; Ogre::FogEffect::`RTTI Base Class Array'
PUBLIC	??_R1A@?0A@EA@FogEffect@Ogre@@8			; Ogre::FogEffect::`RTTI Base Class Descriptor at (0,-1,0,64)'
PUBLIC	?_serialize@FogEffect@Ogre@@UAEXAAVArchive@2@H@Z ; Ogre::FogEffect::_serialize
PUBLIC	??_EFogEffect@Ogre@@UAEPAXI@Z			; Ogre::FogEffect::`vector deleting destructor'
PUBLIC	?prepare@FogEffect@Ogre@@UAEXPAVSceneRenderer@2@I@Z ; Ogre::FogEffect::prepare
PUBLIC	?queryShaderEnv@FogEffect@Ogre@@UAEXAAUShaderEnvData@2@ABVMatrix4@2@@Z ; Ogre::FogEffect::queryShaderEnv
PUBLIC	?getEffectWeight@FogEffect@Ogre@@UAEMABVVector3@2@M@Z ; Ogre::FogEffect::getEffectWeight
;	COMDAT ??_R1A@?0A@EA@FogEffect@Ogre@@8
rdata$r	SEGMENT
??_R1A@?0A@EA@FogEffect@Ogre@@8 DD FLAT:??_R0?AVFogEffect@Ogre@@@8 ; Ogre::FogEffect::`RTTI Base Class Descriptor at (0,-1,0,64)'
	DD	04H
	DD	00H
	DD	0ffffffffH
	DD	00H
	DD	040H
	DD	FLAT:??_R3FogEffect@Ogre@@8
rdata$r	ENDS
;	COMDAT ??_R2FogEffect@Ogre@@8
rdata$r	SEGMENT
??_R2FogEffect@Ogre@@8 DD FLAT:??_R1A@?0A@EA@FogEffect@Ogre@@8 ; Ogre::FogEffect::`RTTI Base Class Array'
	DD	FLAT:??_R1A@?0A@EA@EffectObject@Ogre@@8
	DD	FLAT:??_R1A@?0A@EA@MovableObject@Ogre@@8
	DD	FLAT:??_R1A@?0A@EA@BaseObject@Ogre@@8
	DD	FLAT:??_R13?0A@EA@MemoryDelegation@Ogre@@8
rdata$r	ENDS
;	COMDAT ??_R3FogEffect@Ogre@@8
rdata$r	SEGMENT
??_R3FogEffect@Ogre@@8 DD 00H				; Ogre::FogEffect::`RTTI Class Hierarchy Descriptor'
	DD	00H
	DD	05H
	DD	FLAT:??_R2FogEffect@Ogre@@8
rdata$r	ENDS
;	COMDAT ??_R0?AVFogEffect@Ogre@@@8
_DATA	SEGMENT
??_R0?AVFogEffect@Ogre@@@8 DD FLAT:??_7type_info@@6B@	; Ogre::FogEffect `RTTI Type Descriptor'
	DD	00H
	DB	'.?AVFogEffect@Ogre@@', 00H
_DATA	ENDS
;	COMDAT ??_R4FogEffect@Ogre@@6B@
rdata$r	SEGMENT
??_R4FogEffect@Ogre@@6B@ DD 00H				; Ogre::FogEffect::`RTTI Complete Object Locator'
	DD	00H
	DD	00H
	DD	FLAT:??_R0?AVFogEffect@Ogre@@@8
	DD	FLAT:??_R3FogEffect@Ogre@@8
rdata$r	ENDS
;	COMDAT ??_7FogEffect@Ogre@@6B@
CONST	SEGMENT
??_7FogEffect@Ogre@@6B@ DD FLAT:??_R4FogEffect@Ogre@@6B@ ; Ogre::FogEffect::`vftable'
	DD	FLAT:?getRTTI@FogEffect@Ogre@@UBEPBVRuntimeClass@2@XZ
	DD	FLAT:?release@BaseObject@Ogre@@UAEXXZ
	DD	FLAT:?addRef@BaseObject@Ogre@@UAEXXZ
	DD	FLAT:?getRefCount@BaseObject@Ogre@@UAEHXZ
	DD	FLAT:?_serialize@FogEffect@Ogre@@UAEXAAVArchive@2@H@Z
	DD	FLAT:??_EFogEffect@Ogre@@UAEPAXI@Z
	DD	FLAT:?deleteThis@BaseObject@Ogre@@MAEXXZ
	DD	FLAT:?enableUVMask@MovableObject@Ogre@@UAEX_N0@Z
	DD	FLAT:?setLiuGuangTexture@MovableObject@Ogre@@UAEXPBD@Z
	DD	FLAT:?setLiuGuangTexture@MovableObject@Ogre@@UAEXPAVTextureData@2@@Z
	DD	FLAT:?SetForceShadowMapCull@MovableObject@Ogre@@UAEX_N@Z
	DD	FLAT:?update@MovableObject@Ogre@@UAEXI@Z
	DD	FLAT:?resetUpdate@MovableObject@Ogre@@UAEX_NI@Z
	DD	FLAT:?attachToScene@EffectObject@Ogre@@UAEXPAVGameScene@2@_N@Z
	DD	FLAT:?detachFromScene@MovableObject@Ogre@@UAEXXZ
	DD	FLAT:?intersectRay@MovableObject@Ogre@@UAE_NW4IntersectType@2@ABVRay@2@PAM@Z
	DD	FLAT:?getAnchorWorldMatrix@MovableObject@Ogre@@UAE?AVMatrix4@2@H@Z
	DD	FLAT:?invalidWorldCache@MovableObject@Ogre@@UAEXXZ
	DD	FLAT:?updateWorldCache@MovableObject@Ogre@@UAEXXZ
	DD	FLAT:?prepare@FogEffect@Ogre@@UAEXPAVSceneRenderer@2@I@Z
	DD	FLAT:?queryShaderEnv@FogEffect@Ogre@@UAEXAAUShaderEnvData@2@ABVMatrix4@2@@Z
	DD	FLAT:?getEffectWeight@FogEffect@Ogre@@UAEMABVVector3@2@M@Z
CONST	ENDS
;	COMDAT xdata$x
xdata$x	SEGMENT
__unwindtable$??0FogEffect@Ogre@@QAE@ABV01@@Z DD 0ffffffffH
	DD	FLAT:__unwindfunclet$??0FogEffect@Ogre@@QAE@ABV01@@Z$0
__ehfuncinfo$??0FogEffect@Ogre@@QAE@ABV01@@Z DD 019930522H
	DD	01H
	DD	FLAT:__unwindtable$??0FogEffect@Ogre@@QAE@ABV01@@Z
	DD	2 DUP(00H)
	DD	2 DUP(00H)
	DD	00H
	DD	00H
; Function compile flags: /Odtp
xdata$x	ENDS
;	COMDAT ??0FogEffect@Ogre@@QAE@ABV01@@Z
_TEXT	SEGMENT
_this$ = -16						; size = 4
__$EHRec$ = -12						; size = 12
___that$ = 8						; size = 4
??0FogEffect@Ogre@@QAE@ABV01@@Z PROC			; Ogre::FogEffect::FogEffect, COMDAT
; _this$ = ecx
	push	ebp
	mov	ebp, esp
	push	-1
	push	__ehhandler$??0FogEffect@Ogre@@QAE@ABV01@@Z
	mov	eax, DWORD PTR fs:0
	push	eax
	push	ecx
	mov	eax, DWORD PTR ___security_cookie
	xor	eax, ebp
	push	eax
	lea	eax, DWORD PTR __$EHRec$[ebp]
	mov	DWORD PTR fs:0, eax
	mov	DWORD PTR _this$[ebp], ecx
	mov	eax, DWORD PTR ___that$[ebp]
	push	eax
	mov	ecx, DWORD PTR _this$[ebp]
	call	??0EffectObject@Ogre@@QAE@ABV01@@Z
	mov	DWORD PTR __$EHRec$[ebp+8], 0
	mov	ecx, DWORD PTR _this$[ebp]
	mov	DWORD PTR [ecx], OFFSET ??_7FogEffect@Ogre@@6B@
	mov	edx, DWORD PTR _this$[ebp]
	mov	eax, DWORD PTR ___that$[ebp]
	mov	ecx, DWORD PTR [eax+216]
	mov	DWORD PTR [edx+216], ecx
	mov	edx, DWORD PTR ___that$[ebp]
	add	edx, 220				; 000000dcH
	mov	eax, DWORD PTR _this$[ebp]
	add	eax, 220				; 000000dcH
	mov	ecx, DWORD PTR [edx]
	mov	DWORD PTR [eax], ecx
	mov	ecx, DWORD PTR [edx+4]
	mov	DWORD PTR [eax+4], ecx
	mov	ecx, DWORD PTR [edx+8]
	mov	DWORD PTR [eax+8], ecx
	mov	edx, DWORD PTR [edx+12]
	mov	DWORD PTR [eax+12], edx
	mov	eax, DWORD PTR _this$[ebp]
	mov	ecx, DWORD PTR ___that$[ebp]
	fld	DWORD PTR [ecx+236]
	fstp	DWORD PTR [eax+236]
	mov	edx, DWORD PTR _this$[ebp]
	mov	eax, DWORD PTR ___that$[ebp]
	fld	DWORD PTR [eax+240]
	fstp	DWORD PTR [edx+240]
	mov	ecx, DWORD PTR _this$[ebp]
	mov	edx, DWORD PTR ___that$[ebp]
	fld	DWORD PTR [edx+244]
	fstp	DWORD PTR [ecx+244]
	mov	DWORD PTR __$EHRec$[ebp+8], -1
	mov	eax, DWORD PTR _this$[ebp]
	mov	ecx, DWORD PTR __$EHRec$[ebp]
	mov	DWORD PTR fs:0, ecx
	pop	ecx
	mov	esp, ebp
	pop	ebp
	ret	4
_TEXT	ENDS
;	COMDAT text$x
text$x	SEGMENT
__unwindfunclet$??0FogEffect@Ogre@@QAE@ABV01@@Z$0:
	mov	ecx, DWORD PTR _this$[ebp]
	jmp	??1EffectObject@Ogre@@UAE@XZ
__ehhandler$??0FogEffect@Ogre@@QAE@ABV01@@Z:
	mov	edx, DWORD PTR [esp+8]
	lea	eax, DWORD PTR [edx+12]
	mov	ecx, DWORD PTR [edx-8]
	xor	ecx, eax
	call	@__security_check_cookie@4
	mov	eax, OFFSET __ehfuncinfo$??0FogEffect@Ogre@@QAE@ABV01@@Z
	jmp	___CxxFrameHandler3
text$x	ENDS
??0FogEffect@Ogre@@QAE@ABV01@@Z ENDP			; Ogre::FogEffect::FogEffect
PUBLIC	??4FogEffect@Ogre@@QAEAAV01@ABV01@@Z		; Ogre::FogEffect::operator=
; Function compile flags: /Odtp
;	COMDAT ??4FogEffect@Ogre@@QAEAAV01@ABV01@@Z
_TEXT	SEGMENT
_this$ = -4						; size = 4
___that$ = 8						; size = 4
??4FogEffect@Ogre@@QAEAAV01@ABV01@@Z PROC		; Ogre::FogEffect::operator=, COMDAT
; _this$ = ecx
	push	ebp
	mov	ebp, esp
	push	ecx
	mov	DWORD PTR _this$[ebp], ecx
	mov	eax, DWORD PTR ___that$[ebp]
	push	eax
	mov	ecx, DWORD PTR _this$[ebp]
	call	??4EffectObject@Ogre@@QAEAAV01@ABV01@@Z
	mov	ecx, DWORD PTR _this$[ebp]
	mov	edx, DWORD PTR ___that$[ebp]
	mov	eax, DWORD PTR [edx+216]
	mov	DWORD PTR [ecx+216], eax
	mov	ecx, DWORD PTR ___that$[ebp]
	add	ecx, 220				; 000000dcH
	mov	edx, DWORD PTR _this$[ebp]
	add	edx, 220				; 000000dcH
	mov	eax, DWORD PTR [ecx]
	mov	DWORD PTR [edx], eax
	mov	eax, DWORD PTR [ecx+4]
	mov	DWORD PTR [edx+4], eax
	mov	eax, DWORD PTR [ecx+8]
	mov	DWORD PTR [edx+8], eax
	mov	ecx, DWORD PTR [ecx+12]
	mov	DWORD PTR [edx+12], ecx
	mov	edx, DWORD PTR _this$[ebp]
	mov	eax, DWORD PTR ___that$[ebp]
	fld	DWORD PTR [eax+236]
	fstp	DWORD PTR [edx+236]
	mov	ecx, DWORD PTR _this$[ebp]
	mov	edx, DWORD PTR ___that$[ebp]
	fld	DWORD PTR [edx+240]
	fstp	DWORD PTR [ecx+240]
	mov	eax, DWORD PTR _this$[ebp]
	mov	ecx, DWORD PTR ___that$[ebp]
	fld	DWORD PTR [ecx+244]
	fstp	DWORD PTR [eax+244]
	mov	eax, DWORD PTR _this$[ebp]
	mov	esp, ebp
	pop	ebp
	ret	4
??4FogEffect@Ogre@@QAEAAV01@ABV01@@Z ENDP		; Ogre::FogEffect::operator=
_TEXT	ENDS
PUBLIC	??_GFogEffect@Ogre@@UAEPAXI@Z			; Ogre::FogEffect::`scalar deleting destructor'
; Function compile flags: /Odtp
;	COMDAT ??_GFogEffect@Ogre@@UAEPAXI@Z
_TEXT	SEGMENT
_this$ = -4						; size = 4
___flags$ = 8						; size = 4
??_GFogEffect@Ogre@@UAEPAXI@Z PROC			; Ogre::FogEffect::`scalar deleting destructor', COMDAT
; _this$ = ecx
	push	ebp
	mov	ebp, esp
	push	ecx
	mov	DWORD PTR _this$[ebp], ecx
	mov	ecx, DWORD PTR _this$[ebp]
	call	??1FogEffect@Ogre@@UAE@XZ
	mov	eax, DWORD PTR ___flags$[ebp]
	and	eax, 1
	je	SHORT $LN1@scalar@11
	push	248					; 000000f8H
	mov	ecx, DWORD PTR _this$[ebp]
	push	ecx
	call	??3MemoryDelegation@Ogre@@SAXPAXI@Z	; Ogre::MemoryDelegation::operator delete
	add	esp, 8
$LN1@scalar@11:
	mov	eax, DWORD PTR _this$[ebp]
	mov	esp, ebp
	pop	ebp
	ret	4
??_GFogEffect@Ogre@@UAEPAXI@Z ENDP			; Ogre::FogEffect::`scalar deleting destructor'
; Function compile flags: /Odtp
_TEXT	ENDS
;	COMDAT ??_EFogEffect@Ogre@@UAEPAXI@Z
_TEXT	SEGMENT
_this$ = -4						; size = 4
___flags$ = 8						; size = 4
??_EFogEffect@Ogre@@UAEPAXI@Z PROC			; Ogre::FogEffect::`vector deleting destructor', COMDAT
; _this$ = ecx
	push	ebp
	mov	ebp, esp
	push	ecx
	mov	DWORD PTR _this$[ebp], ecx
	mov	eax, DWORD PTR ___flags$[ebp]
	and	eax, 2
	je	SHORT $LN3@vector@11
	push	OFFSET ??1FogEffect@Ogre@@UAE@XZ
	mov	ecx, DWORD PTR _this$[ebp]
	mov	edx, DWORD PTR [ecx-4]
	push	edx
	push	248					; 000000f8H
	mov	eax, DWORD PTR _this$[ebp]
	push	eax
	call	??_M@YGXPAXIHP6EX0@Z@Z
	mov	ecx, DWORD PTR ___flags$[ebp]
	and	ecx, 1
	je	SHORT $LN2@vector@11
	push	248					; 000000f8H
	mov	edx, DWORD PTR _this$[ebp]
	sub	edx, 4
	push	edx
	call	??_VMemoryDelegation@Ogre@@SAXPAXI@Z	; Ogre::MemoryDelegation::operator delete[]
	add	esp, 8
$LN2@vector@11:
	mov	eax, DWORD PTR _this$[ebp]
	sub	eax, 4
	jmp	SHORT $LN4@vector@11
$LN3@vector@11:
	mov	ecx, DWORD PTR _this$[ebp]
	call	??1FogEffect@Ogre@@UAE@XZ
	mov	eax, DWORD PTR ___flags$[ebp]
	and	eax, 1
	je	SHORT $LN1@vector@11
	push	248					; 000000f8H
	mov	ecx, DWORD PTR _this$[ebp]
	push	ecx
	call	??3MemoryDelegation@Ogre@@SAXPAXI@Z	; Ogre::MemoryDelegation::operator delete
	add	esp, 8
$LN1@vector@11:
	mov	eax, DWORD PTR _this$[ebp]
$LN4@vector@11:
	mov	esp, ebp
	pop	ebp
	ret	4
??_EFogEffect@Ogre@@UAEPAXI@Z ENDP			; Ogre::FogEffect::`vector deleting destructor'
_TEXT	ENDS
PUBLIC	?handle2Ptr@FixedString@Ogre@@SAPBDPAX@Z	; Ogre::FixedString::handle2Ptr
; Function compile flags: /Odtp
; File i:\svnroot\client\ogremain\ogrefixedstring.h
;	COMDAT ?handle2Ptr@FixedString@Ogre@@SAPBDPAX@Z
_TEXT	SEGMENT
_h$ = 8							; size = 4
?handle2Ptr@FixedString@Ogre@@SAPBDPAX@Z PROC		; Ogre::FixedString::handle2Ptr, COMDAT

; 22   : 		{

	push	ebp
	mov	ebp, esp

; 23   : 			return (const char *)h;

	mov	eax, DWORD PTR _h$[ebp]

; 24   : 		}

	pop	ebp
	ret	0
?handle2Ptr@FixedString@Ogre@@SAPBDPAX@Z ENDP		; Ogre::FixedString::handle2Ptr
_TEXT	ENDS
PUBLIC	??0FixedString@Ogre@@QAE@XZ			; Ogre::FixedString::FixedString
; Function compile flags: /Odtp
;	COMDAT ??0FixedString@Ogre@@QAE@XZ
_TEXT	SEGMENT
_this$ = -4						; size = 4
??0FixedString@Ogre@@QAE@XZ PROC			; Ogre::FixedString::FixedString, COMDAT
; _this$ = ecx

; 27   : 		FixedString() : m_StrHandle(NULL){}

	push	ebp
	mov	ebp, esp
	push	ecx
	mov	DWORD PTR _this$[ebp], ecx
	mov	eax, DWORD PTR _this$[ebp]
	mov	DWORD PTR [eax], 0
	mov	eax, DWORD PTR _this$[ebp]
	mov	esp, ebp
	pop	ebp
	ret	0
??0FixedString@Ogre@@QAE@XZ ENDP			; Ogre::FixedString::FixedString
_TEXT	ENDS
PUBLIC	??0FixedString@Ogre@@QAE@PAX@Z			; Ogre::FixedString::FixedString
EXTRN	?addRef@FixedString@Ogre@@SAXPAX@Z:PROC		; Ogre::FixedString::addRef
; Function compile flags: /Odtp
;	COMDAT ??0FixedString@Ogre@@QAE@PAX@Z
_TEXT	SEGMENT
_this$ = -4						; size = 4
_h$ = 8							; size = 4
??0FixedString@Ogre@@QAE@PAX@Z PROC			; Ogre::FixedString::FixedString, COMDAT
; _this$ = ecx

; 29   : 		{

	push	ebp
	mov	ebp, esp
	push	ecx
	mov	DWORD PTR _this$[ebp], ecx
	mov	eax, DWORD PTR _this$[ebp]
	mov	ecx, DWORD PTR _h$[ebp]
	mov	DWORD PTR [eax], ecx

; 30   : 			addRef(h);

	mov	edx, DWORD PTR _h$[ebp]
	push	edx
	call	?addRef@FixedString@Ogre@@SAXPAX@Z	; Ogre::FixedString::addRef
	add	esp, 4

; 31   : 		}

	mov	eax, DWORD PTR _this$[ebp]
	mov	esp, ebp
	pop	ebp
	ret	4
??0FixedString@Ogre@@QAE@PAX@Z ENDP			; Ogre::FixedString::FixedString
_TEXT	ENDS
PUBLIC	??0FixedString@Ogre@@QAE@ABV01@@Z		; Ogre::FixedString::FixedString
; Function compile flags: /Odtp
;	COMDAT ??0FixedString@Ogre@@QAE@ABV01@@Z
_TEXT	SEGMENT
_this$ = -4						; size = 4
_rhs$ = 8						; size = 4
??0FixedString@Ogre@@QAE@ABV01@@Z PROC			; Ogre::FixedString::FixedString, COMDAT
; _this$ = ecx

; 34   : 		{

	push	ebp
	mov	ebp, esp
	push	ecx
	mov	DWORD PTR _this$[ebp], ecx
	mov	eax, DWORD PTR _this$[ebp]
	mov	ecx, DWORD PTR _rhs$[ebp]
	mov	edx, DWORD PTR [ecx]
	mov	DWORD PTR [eax], edx

; 35   : 			addRef(m_StrHandle);

	mov	eax, DWORD PTR _this$[ebp]
	mov	ecx, DWORD PTR [eax]
	push	ecx
	call	?addRef@FixedString@Ogre@@SAXPAX@Z	; Ogre::FixedString::addRef
	add	esp, 4

; 36   : 		}

	mov	eax, DWORD PTR _this$[ebp]
	mov	esp, ebp
	pop	ebp
	ret	4
??0FixedString@Ogre@@QAE@ABV01@@Z ENDP			; Ogre::FixedString::FixedString
_TEXT	ENDS
PUBLIC	??0FixedString@Ogre@@QAE@PBD@Z			; Ogre::FixedString::FixedString
EXTRN	?insert@FixedString@Ogre@@SAPAXPBDH@Z:PROC	; Ogre::FixedString::insert
; Function compile flags: /Odtp
;	COMDAT ??0FixedString@Ogre@@QAE@PBD@Z
_TEXT	SEGMENT
_this$ = -4						; size = 4
_pstr$ = 8						; size = 4
??0FixedString@Ogre@@QAE@PBD@Z PROC			; Ogre::FixedString::FixedString, COMDAT
; _this$ = ecx

; 38   : 		FixedString(const char *pstr)

	push	ebp
	mov	ebp, esp
	push	ecx
	mov	DWORD PTR _this$[ebp], ecx

; 39   : 		{
; 40   : 			m_StrHandle = insert(pstr); 

	push	-1
	mov	eax, DWORD PTR _pstr$[ebp]
	push	eax
	call	?insert@FixedString@Ogre@@SAPAXPBDH@Z	; Ogre::FixedString::insert
	add	esp, 8
	mov	ecx, DWORD PTR _this$[ebp]
	mov	DWORD PTR [ecx], eax

; 41   : 		}

	mov	eax, DWORD PTR _this$[ebp]
	mov	esp, ebp
	pop	ebp
	ret	4
??0FixedString@Ogre@@QAE@PBD@Z ENDP			; Ogre::FixedString::FixedString
_TEXT	ENDS
PUBLIC	??0FixedString@Ogre@@QAE@PBDI@Z			; Ogre::FixedString::FixedString
; Function compile flags: /Odtp
;	COMDAT ??0FixedString@Ogre@@QAE@PBDI@Z
_TEXT	SEGMENT
_this$ = -4						; size = 4
_pstr$ = 8						; size = 4
_len$ = 12						; size = 4
??0FixedString@Ogre@@QAE@PBDI@Z PROC			; Ogre::FixedString::FixedString, COMDAT
; _this$ = ecx

; 43   : 		FixedString(const char *pstr, size_t len)

	push	ebp
	mov	ebp, esp
	push	ecx
	mov	DWORD PTR _this$[ebp], ecx

; 44   : 		{
; 45   : 			m_StrHandle = insert(pstr, (int)len); 

	mov	eax, DWORD PTR _len$[ebp]
	push	eax
	mov	ecx, DWORD PTR _pstr$[ebp]
	push	ecx
	call	?insert@FixedString@Ogre@@SAPAXPBDH@Z	; Ogre::FixedString::insert
	add	esp, 8
	mov	edx, DWORD PTR _this$[ebp]
	mov	DWORD PTR [edx], eax

; 46   : 		}

	mov	eax, DWORD PTR _this$[ebp]
	mov	esp, ebp
	pop	ebp
	ret	8
??0FixedString@Ogre@@QAE@PBDI@Z ENDP			; Ogre::FixedString::FixedString
_TEXT	ENDS
PUBLIC	??1FixedString@Ogre@@QAE@XZ			; Ogre::FixedString::~FixedString
EXTRN	?release@FixedString@Ogre@@SAXPAX@Z:PROC	; Ogre::FixedString::release
; Function compile flags: /Odtp
;	COMDAT ??1FixedString@Ogre@@QAE@XZ
_TEXT	SEGMENT
_this$ = -4						; size = 4
??1FixedString@Ogre@@QAE@XZ PROC			; Ogre::FixedString::~FixedString, COMDAT
; _this$ = ecx

; 49   : 		{

	push	ebp
	mov	ebp, esp
	push	ecx
	mov	DWORD PTR _this$[ebp], ecx

; 50   : 			release(m_StrHandle); 

	mov	eax, DWORD PTR _this$[ebp]
	mov	ecx, DWORD PTR [eax]
	push	ecx
	call	?release@FixedString@Ogre@@SAXPAX@Z	; Ogre::FixedString::release
	add	esp, 4

; 51   : 		}

	mov	esp, ebp
	pop	ebp
	ret	0
??1FixedString@Ogre@@QAE@XZ ENDP			; Ogre::FixedString::~FixedString
_TEXT	ENDS
PUBLIC	??BFixedString@Ogre@@QBEPBDXZ			; Ogre::FixedString::operator char const *
; Function compile flags: /Odtp
;	COMDAT ??BFixedString@Ogre@@QBEPBDXZ
_TEXT	SEGMENT
_this$ = -4						; size = 4
??BFixedString@Ogre@@QBEPBDXZ PROC			; Ogre::FixedString::operator char const *, COMDAT
; _this$ = ecx

; 54   : 		{

	push	ebp
	mov	ebp, esp
	push	ecx
	mov	DWORD PTR _this$[ebp], ecx

; 55   : 			return handle2Ptr(m_StrHandle);

	mov	eax, DWORD PTR _this$[ebp]
	mov	ecx, DWORD PTR [eax]
	push	ecx
	call	?handle2Ptr@FixedString@Ogre@@SAPBDPAX@Z ; Ogre::FixedString::handle2Ptr
	add	esp, 4

; 56   : 		}

	mov	esp, ebp
	pop	ebp
	ret	0
??BFixedString@Ogre@@QBEPBDXZ ENDP			; Ogre::FixedString::operator char const *
_TEXT	ENDS
PUBLIC	?getHandle@FixedString@Ogre@@QBEPAXXZ		; Ogre::FixedString::getHandle
; Function compile flags: /Odtp
;	COMDAT ?getHandle@FixedString@Ogre@@QBEPAXXZ
_TEXT	SEGMENT
_this$ = -4						; size = 4
?getHandle@FixedString@Ogre@@QBEPAXXZ PROC		; Ogre::FixedString::getHandle, COMDAT
; _this$ = ecx

; 59   : 		{

	push	ebp
	mov	ebp, esp
	push	ecx
	mov	DWORD PTR _this$[ebp], ecx

; 60   : 			return m_StrHandle;

	mov	eax, DWORD PTR _this$[ebp]
	mov	eax, DWORD PTR [eax]

; 61   : 		}

	mov	esp, ebp
	pop	ebp
	ret	0
?getHandle@FixedString@Ogre@@QBEPAXXZ ENDP		; Ogre::FixedString::getHandle
_TEXT	ENDS
PUBLIC	?getRTTI@Resource@Ogre@@UBEPBVRuntimeClass@2@XZ	; Ogre::Resource::getRTTI
EXTRN	?m_RTTI@Resource@Ogre@@2VRuntimeClass@2@B:BYTE	; Ogre::Resource::m_RTTI
; Function compile flags: /Odtp
; File i:\svnroot\client\ogremain\ogreresource.h
;	COMDAT ?getRTTI@Resource@Ogre@@UBEPBVRuntimeClass@2@XZ
_TEXT	SEGMENT
_this$ = -4						; size = 4
?getRTTI@Resource@Ogre@@UBEPBVRuntimeClass@2@XZ PROC	; Ogre::Resource::getRTTI, COMDAT
; _this$ = ecx

; 39   : 		DECLARE_RTTI_VIRTUAL(Resource)

	push	ebp
	mov	ebp, esp
	push	ecx
	mov	DWORD PTR _this$[ebp], ecx
	mov	eax, OFFSET ?m_RTTI@Resource@Ogre@@2VRuntimeClass@2@B ; Ogre::Resource::m_RTTI
	mov	esp, ebp
	pop	ebp
	ret	0
?getRTTI@Resource@Ogre@@UBEPBVRuntimeClass@2@XZ ENDP	; Ogre::Resource::getRTTI
_TEXT	ENDS
PUBLIC	?getResPath@Resource@Ogre@@QAEABVFixedString@2@XZ ; Ogre::Resource::getResPath
; Function compile flags: /Odtp
;	COMDAT ?getResPath@Resource@Ogre@@QAEABVFixedString@2@XZ
_TEXT	SEGMENT
_this$ = -4						; size = 4
?getResPath@Resource@Ogre@@QAEABVFixedString@2@XZ PROC	; Ogre::Resource::getResPath, COMDAT
; _this$ = ecx

; 44   : 		{

	push	ebp
	mov	ebp, esp
	push	ecx
	mov	DWORD PTR _this$[ebp], ecx

; 45   : 			return m_ResPath;

	mov	eax, DWORD PTR _this$[ebp]
	add	eax, 8

; 46   : 		}

	mov	esp, ebp
	pop	ebp
	ret	0
?getResPath@Resource@Ogre@@QAEABVFixedString@2@XZ ENDP	; Ogre::Resource::getResPath
_TEXT	ENDS
PUBLIC	?setResPath@Resource@Ogre@@QAEXABVFixedString@2@@Z ; Ogre::Resource::setResPath
EXTRN	??4FixedString@Ogre@@QAEAAV01@ABV01@@Z:PROC	; Ogre::FixedString::operator=
; Function compile flags: /Odtp
;	COMDAT ?setResPath@Resource@Ogre@@QAEXABVFixedString@2@@Z
_TEXT	SEGMENT
_this$ = -4						; size = 4
_path$ = 8						; size = 4
?setResPath@Resource@Ogre@@QAEXABVFixedString@2@@Z PROC	; Ogre::Resource::setResPath, COMDAT
; _this$ = ecx

; 48   : 		{

	push	ebp
	mov	ebp, esp
	push	ecx
	mov	DWORD PTR _this$[ebp], ecx

; 49   : 			m_ResPath = path;

	mov	eax, DWORD PTR _path$[ebp]
	push	eax
	mov	ecx, DWORD PTR _this$[ebp]
	add	ecx, 8
	call	??4FixedString@Ogre@@QAEAAV01@ABV01@@Z	; Ogre::FixedString::operator=

; 50   : 		}

	mov	esp, ebp
	pop	ebp
	ret	4
?setResPath@Resource@Ogre@@QAEXABVFixedString@2@@Z ENDP	; Ogre::Resource::setResPath
_TEXT	ENDS
PUBLIC	??_7Resource@Ogre@@6B@				; Ogre::Resource::`vftable'
PUBLIC	??0Resource@Ogre@@IAE@XZ			; Ogre::Resource::Resource
PUBLIC	??_R4Resource@Ogre@@6B@				; Ogre::Resource::`RTTI Complete Object Locator'
PUBLIC	??_R0?AVResource@Ogre@@@8			; Ogre::Resource `RTTI Type Descriptor'
PUBLIC	??_R3Resource@Ogre@@8				; Ogre::Resource::`RTTI Class Hierarchy Descriptor'
PUBLIC	??_R2Resource@Ogre@@8				; Ogre::Resource::`RTTI Base Class Array'
PUBLIC	??_R1A@?0A@EA@Resource@Ogre@@8			; Ogre::Resource::`RTTI Base Class Descriptor at (0,-1,0,64)'
PUBLIC	??_EResource@Ogre@@MAEPAXI@Z			; Ogre::Resource::`vector deleting destructor'
EXTRN	?release@Resource@Ogre@@UAEXXZ:PROC		; Ogre::Resource::release
EXTRN	?addRef@Resource@Ogre@@UAEXXZ:PROC		; Ogre::Resource::addRef
EXTRN	?getRefCount@Resource@Ogre@@UAEHXZ:PROC		; Ogre::Resource::getRefCount
;	COMDAT ??_R1A@?0A@EA@Resource@Ogre@@8
rdata$r	SEGMENT
??_R1A@?0A@EA@Resource@Ogre@@8 DD FLAT:??_R0?AVResource@Ogre@@@8 ; Ogre::Resource::`RTTI Base Class Descriptor at (0,-1,0,64)'
	DD	02H
	DD	00H
	DD	0ffffffffH
	DD	00H
	DD	040H
	DD	FLAT:??_R3Resource@Ogre@@8
rdata$r	ENDS
;	COMDAT ??_R2Resource@Ogre@@8
rdata$r	SEGMENT
??_R2Resource@Ogre@@8 DD FLAT:??_R1A@?0A@EA@Resource@Ogre@@8 ; Ogre::Resource::`RTTI Base Class Array'
	DD	FLAT:??_R1A@?0A@EA@BaseObject@Ogre@@8
	DD	FLAT:??_R13?0A@EA@MemoryDelegation@Ogre@@8
rdata$r	ENDS
;	COMDAT ??_R3Resource@Ogre@@8
rdata$r	SEGMENT
??_R3Resource@Ogre@@8 DD 00H				; Ogre::Resource::`RTTI Class Hierarchy Descriptor'
	DD	00H
	DD	03H
	DD	FLAT:??_R2Resource@Ogre@@8
rdata$r	ENDS
;	COMDAT ??_R0?AVResource@Ogre@@@8
_DATA	SEGMENT
??_R0?AVResource@Ogre@@@8 DD FLAT:??_7type_info@@6B@	; Ogre::Resource `RTTI Type Descriptor'
	DD	00H
	DB	'.?AVResource@Ogre@@', 00H
_DATA	ENDS
;	COMDAT ??_R4Resource@Ogre@@6B@
rdata$r	SEGMENT
??_R4Resource@Ogre@@6B@ DD 00H				; Ogre::Resource::`RTTI Complete Object Locator'
	DD	00H
	DD	00H
	DD	FLAT:??_R0?AVResource@Ogre@@@8
	DD	FLAT:??_R3Resource@Ogre@@8
rdata$r	ENDS
;	COMDAT ??_7Resource@Ogre@@6B@
CONST	SEGMENT
??_7Resource@Ogre@@6B@ DD FLAT:??_R4Resource@Ogre@@6B@	; Ogre::Resource::`vftable'
	DD	FLAT:?getRTTI@Resource@Ogre@@UBEPBVRuntimeClass@2@XZ
	DD	FLAT:?release@Resource@Ogre@@UAEXXZ
	DD	FLAT:?addRef@Resource@Ogre@@UAEXXZ
	DD	FLAT:?getRefCount@Resource@Ogre@@UAEHXZ
	DD	FLAT:?_serialize@BaseObject@Ogre@@UAEXAAVArchive@2@H@Z
	DD	FLAT:??_EResource@Ogre@@MAEPAXI@Z
	DD	FLAT:?deleteThis@BaseObject@Ogre@@MAEXXZ
CONST	ENDS
;	COMDAT xdata$x
xdata$x	SEGMENT
__unwindtable$??0Resource@Ogre@@IAE@XZ DD 0ffffffffH
	DD	FLAT:__unwindfunclet$??0Resource@Ogre@@IAE@XZ$0
	DD	00H
	DD	FLAT:__unwindfunclet$??0Resource@Ogre@@IAE@XZ$1
__ehfuncinfo$??0Resource@Ogre@@IAE@XZ DD 019930522H
	DD	02H
	DD	FLAT:__unwindtable$??0Resource@Ogre@@IAE@XZ
	DD	2 DUP(00H)
	DD	2 DUP(00H)
	DD	00H
	DD	00H
; Function compile flags: /Odtp
xdata$x	ENDS
;	COMDAT ??0Resource@Ogre@@IAE@XZ
_TEXT	SEGMENT
_this$ = -16						; size = 4
__$EHRec$ = -12						; size = 12
??0Resource@Ogre@@IAE@XZ PROC				; Ogre::Resource::Resource, COMDAT
; _this$ = ecx

; 72   : 		{

	push	ebp
	mov	ebp, esp
	push	-1
	push	__ehhandler$??0Resource@Ogre@@IAE@XZ
	mov	eax, DWORD PTR fs:0
	push	eax
	push	ecx
	mov	eax, DWORD PTR ___security_cookie
	xor	eax, ebp
	push	eax
	lea	eax, DWORD PTR __$EHRec$[ebp]
	mov	DWORD PTR fs:0, eax
	mov	DWORD PTR _this$[ebp], ecx
	mov	ecx, DWORD PTR _this$[ebp]
	call	??0BaseObject@Ogre@@IAE@XZ		; Ogre::BaseObject::BaseObject
	mov	DWORD PTR __$EHRec$[ebp+8], 0
	mov	eax, DWORD PTR _this$[ebp]
	mov	DWORD PTR [eax], OFFSET ??_7Resource@Ogre@@6B@
	mov	ecx, DWORD PTR _this$[ebp]
	add	ecx, 8
	call	??0FixedString@Ogre@@QAE@XZ		; Ogre::FixedString::FixedString
	mov	BYTE PTR __$EHRec$[ebp+8], 1
	mov	ecx, DWORD PTR _this$[ebp]
	mov	DWORD PTR [ecx+12], 1

; 73   : 		}

	mov	DWORD PTR __$EHRec$[ebp+8], -1
	mov	eax, DWORD PTR _this$[ebp]
	mov	ecx, DWORD PTR __$EHRec$[ebp]
	mov	DWORD PTR fs:0, ecx
	pop	ecx
	mov	esp, ebp
	pop	ebp
	ret	0
_TEXT	ENDS
;	COMDAT text$x
text$x	SEGMENT
__unwindfunclet$??0Resource@Ogre@@IAE@XZ$0:
	mov	ecx, DWORD PTR _this$[ebp]
	jmp	??1BaseObject@Ogre@@MAE@XZ		; Ogre::BaseObject::~BaseObject
__unwindfunclet$??0Resource@Ogre@@IAE@XZ$1:
	mov	ecx, DWORD PTR _this$[ebp]
	add	ecx, 8
	jmp	??1FixedString@Ogre@@QAE@XZ		; Ogre::FixedString::~FixedString
__ehhandler$??0Resource@Ogre@@IAE@XZ:
	mov	edx, DWORD PTR [esp+8]
	lea	eax, DWORD PTR [edx+12]
	mov	ecx, DWORD PTR [edx-8]
	xor	ecx, eax
	call	@__security_check_cookie@4
	mov	eax, OFFSET __ehfuncinfo$??0Resource@Ogre@@IAE@XZ
	jmp	___CxxFrameHandler3
text$x	ENDS
??0Resource@Ogre@@IAE@XZ ENDP				; Ogre::Resource::Resource
PUBLIC	??1Resource@Ogre@@MAE@XZ			; Ogre::Resource::~Resource
;	COMDAT xdata$x
xdata$x	SEGMENT
__unwindtable$??1Resource@Ogre@@MAE@XZ DD 0ffffffffH
	DD	FLAT:__unwindfunclet$??1Resource@Ogre@@MAE@XZ$0
	DD	00H
	DD	FLAT:__unwindfunclet$??1Resource@Ogre@@MAE@XZ$1
__ehfuncinfo$??1Resource@Ogre@@MAE@XZ DD 019930522H
	DD	02H
	DD	FLAT:__unwindtable$??1Resource@Ogre@@MAE@XZ
	DD	2 DUP(00H)
	DD	2 DUP(00H)
	DD	00H
	DD	00H
; Function compile flags: /Odtp
xdata$x	ENDS
;	COMDAT ??1Resource@Ogre@@MAE@XZ
_TEXT	SEGMENT
_this$ = -16						; size = 4
__$EHRec$ = -12						; size = 12
??1Resource@Ogre@@MAE@XZ PROC				; Ogre::Resource::~Resource, COMDAT
; _this$ = ecx

; 76   : 		{

	push	ebp
	mov	ebp, esp
	push	-1
	push	__ehhandler$??1Resource@Ogre@@MAE@XZ
	mov	eax, DWORD PTR fs:0
	push	eax
	push	ecx
	mov	eax, DWORD PTR ___security_cookie
	xor	eax, ebp
	push	eax
	lea	eax, DWORD PTR __$EHRec$[ebp]
	mov	DWORD PTR fs:0, eax
	mov	DWORD PTR _this$[ebp], ecx
	mov	eax, DWORD PTR _this$[ebp]
	mov	DWORD PTR [eax], OFFSET ??_7Resource@Ogre@@6B@
	mov	DWORD PTR __$EHRec$[ebp+8], 1

; 77   : 		}

	mov	BYTE PTR __$EHRec$[ebp+8], 0
	mov	ecx, DWORD PTR _this$[ebp]
	add	ecx, 8
	call	??1FixedString@Ogre@@QAE@XZ		; Ogre::FixedString::~FixedString
	mov	DWORD PTR __$EHRec$[ebp+8], -1
	mov	ecx, DWORD PTR _this$[ebp]
	call	??1BaseObject@Ogre@@MAE@XZ		; Ogre::BaseObject::~BaseObject
	mov	ecx, DWORD PTR __$EHRec$[ebp]
	mov	DWORD PTR fs:0, ecx
	pop	ecx
	mov	esp, ebp
	pop	ebp
	ret	0
_TEXT	ENDS
;	COMDAT text$x
text$x	SEGMENT
__unwindfunclet$??1Resource@Ogre@@MAE@XZ$0:
	mov	ecx, DWORD PTR _this$[ebp]
	jmp	??1BaseObject@Ogre@@MAE@XZ		; Ogre::BaseObject::~BaseObject
__unwindfunclet$??1Resource@Ogre@@MAE@XZ$1:
	mov	ecx, DWORD PTR _this$[ebp]
	add	ecx, 8
	jmp	??1FixedString@Ogre@@QAE@XZ		; Ogre::FixedString::~FixedString
__ehhandler$??1Resource@Ogre@@MAE@XZ:
	mov	edx, DWORD PTR [esp+8]
	lea	eax, DWORD PTR [edx+12]
	mov	ecx, DWORD PTR [edx-8]
	xor	ecx, eax
	call	@__security_check_cookie@4
	mov	eax, OFFSET __ehfuncinfo$??1Resource@Ogre@@MAE@XZ
	jmp	___CxxFrameHandler3
text$x	ENDS
??1Resource@Ogre@@MAE@XZ ENDP				; Ogre::Resource::~Resource
PUBLIC	??0Resource@Ogre@@QAE@ABV01@@Z			; Ogre::Resource::Resource
;	COMDAT xdata$x
xdata$x	SEGMENT
__unwindtable$??0Resource@Ogre@@QAE@ABV01@@Z DD 0ffffffffH
	DD	FLAT:__unwindfunclet$??0Resource@Ogre@@QAE@ABV01@@Z$0
	DD	00H
	DD	FLAT:__unwindfunclet$??0Resource@Ogre@@QAE@ABV01@@Z$1
__ehfuncinfo$??0Resource@Ogre@@QAE@ABV01@@Z DD 019930522H
	DD	02H
	DD	FLAT:__unwindtable$??0Resource@Ogre@@QAE@ABV01@@Z
	DD	2 DUP(00H)
	DD	2 DUP(00H)
	DD	00H
	DD	00H
; Function compile flags: /Odtp
xdata$x	ENDS
;	COMDAT ??0Resource@Ogre@@QAE@ABV01@@Z
_TEXT	SEGMENT
_this$ = -16						; size = 4
__$EHRec$ = -12						; size = 12
___that$ = 8						; size = 4
??0Resource@Ogre@@QAE@ABV01@@Z PROC			; Ogre::Resource::Resource, COMDAT
; _this$ = ecx
	push	ebp
	mov	ebp, esp
	push	-1
	push	__ehhandler$??0Resource@Ogre@@QAE@ABV01@@Z
	mov	eax, DWORD PTR fs:0
	push	eax
	push	ecx
	mov	eax, DWORD PTR ___security_cookie
	xor	eax, ebp
	push	eax
	lea	eax, DWORD PTR __$EHRec$[ebp]
	mov	DWORD PTR fs:0, eax
	mov	DWORD PTR _this$[ebp], ecx
	mov	eax, DWORD PTR ___that$[ebp]
	push	eax
	mov	ecx, DWORD PTR _this$[ebp]
	call	??0BaseObject@Ogre@@QAE@ABV01@@Z
	mov	DWORD PTR __$EHRec$[ebp+8], 0
	mov	ecx, DWORD PTR _this$[ebp]
	mov	DWORD PTR [ecx], OFFSET ??_7Resource@Ogre@@6B@
	mov	edx, DWORD PTR ___that$[ebp]
	add	edx, 8
	push	edx
	mov	ecx, DWORD PTR _this$[ebp]
	add	ecx, 8
	call	??0FixedString@Ogre@@QAE@ABV01@@Z	; Ogre::FixedString::FixedString
	mov	BYTE PTR __$EHRec$[ebp+8], 1
	mov	eax, DWORD PTR ___that$[ebp]
	mov	ecx, DWORD PTR [eax+12]
	mov	edx, DWORD PTR _this$[ebp]
	mov	DWORD PTR [edx+12], ecx
	mov	DWORD PTR __$EHRec$[ebp+8], -1
	mov	eax, DWORD PTR _this$[ebp]
	mov	ecx, DWORD PTR __$EHRec$[ebp]
	mov	DWORD PTR fs:0, ecx
	pop	ecx
	mov	esp, ebp
	pop	ebp
	ret	4
_TEXT	ENDS
;	COMDAT text$x
text$x	SEGMENT
__unwindfunclet$??0Resource@Ogre@@QAE@ABV01@@Z$0:
	mov	ecx, DWORD PTR _this$[ebp]
	jmp	??1BaseObject@Ogre@@MAE@XZ		; Ogre::BaseObject::~BaseObject
__unwindfunclet$??0Resource@Ogre@@QAE@ABV01@@Z$1:
	mov	ecx, DWORD PTR _this$[ebp]
	add	ecx, 8
	jmp	??1FixedString@Ogre@@QAE@XZ		; Ogre::FixedString::~FixedString
__ehhandler$??0Resource@Ogre@@QAE@ABV01@@Z:
	mov	edx, DWORD PTR [esp+8]
	lea	eax, DWORD PTR [edx+12]
	mov	ecx, DWORD PTR [edx-8]
	xor	ecx, eax
	call	@__security_check_cookie@4
	mov	eax, OFFSET __ehfuncinfo$??0Resource@Ogre@@QAE@ABV01@@Z
	jmp	___CxxFrameHandler3
text$x	ENDS
??0Resource@Ogre@@QAE@ABV01@@Z ENDP			; Ogre::Resource::Resource
PUBLIC	??4Resource@Ogre@@QAEAAV01@ABV01@@Z		; Ogre::Resource::operator=
; Function compile flags: /Odtp
;	COMDAT ??4Resource@Ogre@@QAEAAV01@ABV01@@Z
_TEXT	SEGMENT
_this$ = -4						; size = 4
___that$ = 8						; size = 4
??4Resource@Ogre@@QAEAAV01@ABV01@@Z PROC		; Ogre::Resource::operator=, COMDAT
; _this$ = ecx
	push	ebp
	mov	ebp, esp
	push	ecx
	mov	DWORD PTR _this$[ebp], ecx
	mov	eax, DWORD PTR ___that$[ebp]
	push	eax
	mov	ecx, DWORD PTR _this$[ebp]
	call	??4BaseObject@Ogre@@QAEAAV01@ABV01@@Z
	mov	ecx, DWORD PTR ___that$[ebp]
	add	ecx, 8
	push	ecx
	mov	ecx, DWORD PTR _this$[ebp]
	add	ecx, 8
	call	??4FixedString@Ogre@@QAEAAV01@ABV01@@Z	; Ogre::FixedString::operator=
	mov	edx, DWORD PTR ___that$[ebp]
	mov	eax, DWORD PTR [edx+12]
	mov	ecx, DWORD PTR _this$[ebp]
	mov	DWORD PTR [ecx+12], eax
	mov	eax, DWORD PTR _this$[ebp]
	mov	esp, ebp
	pop	ebp
	ret	4
??4Resource@Ogre@@QAEAAV01@ABV01@@Z ENDP		; Ogre::Resource::operator=
_TEXT	ENDS
PUBLIC	??_GResource@Ogre@@MAEPAXI@Z			; Ogre::Resource::`scalar deleting destructor'
; Function compile flags: /Odtp
;	COMDAT ??_GResource@Ogre@@MAEPAXI@Z
_TEXT	SEGMENT
_this$ = -4						; size = 4
___flags$ = 8						; size = 4
??_GResource@Ogre@@MAEPAXI@Z PROC			; Ogre::Resource::`scalar deleting destructor', COMDAT
; _this$ = ecx
	push	ebp
	mov	ebp, esp
	push	ecx
	mov	DWORD PTR _this$[ebp], ecx
	mov	ecx, DWORD PTR _this$[ebp]
	call	??1Resource@Ogre@@MAE@XZ		; Ogre::Resource::~Resource
	mov	eax, DWORD PTR ___flags$[ebp]
	and	eax, 1
	je	SHORT $LN1@scalar@12
	push	16					; 00000010H
	mov	ecx, DWORD PTR _this$[ebp]
	push	ecx
	call	??3MemoryDelegation@Ogre@@SAXPAXI@Z	; Ogre::MemoryDelegation::operator delete
	add	esp, 8
$LN1@scalar@12:
	mov	eax, DWORD PTR _this$[ebp]
	mov	esp, ebp
	pop	ebp
	ret	4
??_GResource@Ogre@@MAEPAXI@Z ENDP			; Ogre::Resource::`scalar deleting destructor'
; Function compile flags: /Odtp
_TEXT	ENDS
;	COMDAT ??_EResource@Ogre@@MAEPAXI@Z
_TEXT	SEGMENT
_this$ = -4						; size = 4
___flags$ = 8						; size = 4
??_EResource@Ogre@@MAEPAXI@Z PROC			; Ogre::Resource::`vector deleting destructor', COMDAT
; _this$ = ecx
	push	ebp
	mov	ebp, esp
	push	ecx
	mov	DWORD PTR _this$[ebp], ecx
	mov	eax, DWORD PTR ___flags$[ebp]
	and	eax, 2
	je	SHORT $LN3@vector@12
	push	OFFSET ??1Resource@Ogre@@MAE@XZ		; Ogre::Resource::~Resource
	mov	ecx, DWORD PTR _this$[ebp]
	mov	edx, DWORD PTR [ecx-4]
	push	edx
	push	16					; 00000010H
	mov	eax, DWORD PTR _this$[ebp]
	push	eax
	call	??_M@YGXPAXIHP6EX0@Z@Z
	mov	ecx, DWORD PTR ___flags$[ebp]
	and	ecx, 1
	je	SHORT $LN2@vector@12
	push	16					; 00000010H
	mov	edx, DWORD PTR _this$[ebp]
	sub	edx, 4
	push	edx
	call	??_VMemoryDelegation@Ogre@@SAXPAXI@Z	; Ogre::MemoryDelegation::operator delete[]
	add	esp, 8
$LN2@vector@12:
	mov	eax, DWORD PTR _this$[ebp]
	sub	eax, 4
	jmp	SHORT $LN4@vector@12
$LN3@vector@12:
	mov	ecx, DWORD PTR _this$[ebp]
	call	??1Resource@Ogre@@MAE@XZ		; Ogre::Resource::~Resource
	mov	eax, DWORD PTR ___flags$[ebp]
	and	eax, 1
	je	SHORT $LN1@vector@12
	push	16					; 00000010H
	mov	ecx, DWORD PTR _this$[ebp]
	push	ecx
	call	??3MemoryDelegation@Ogre@@SAXPAXI@Z	; Ogre::MemoryDelegation::operator delete
	add	esp, 8
$LN1@vector@12:
	mov	eax, DWORD PTR _this$[ebp]
$LN4@vector@12:
	mov	esp, ebp
	pop	ebp
	ret	4
??_EResource@Ogre@@MAEPAXI@Z ENDP			; Ogre::Resource::`vector deleting destructor'
_TEXT	ENDS
PUBLIC	?getRTTI@VertexBuffer@Ogre@@UBEPBVRuntimeClass@2@XZ ; Ogre::VertexBuffer::getRTTI
EXTRN	?m_RTTI@VertexBuffer@Ogre@@2VRuntimeClass@2@B:BYTE ; Ogre::VertexBuffer::m_RTTI
; Function compile flags: /Odtp
; File i:\svnroot\client\ogremain\ogrerendertypes.h
;	COMDAT ?getRTTI@VertexBuffer@Ogre@@UBEPBVRuntimeClass@2@XZ
_TEXT	SEGMENT
_this$ = -4						; size = 4
?getRTTI@VertexBuffer@Ogre@@UBEPBVRuntimeClass@2@XZ PROC ; Ogre::VertexBuffer::getRTTI, COMDAT
; _this$ = ecx

; 223  : 		DECLARE_RTTI_VIRTUAL(VertexBuffer)

	push	ebp
	mov	ebp, esp
	push	ecx
	mov	DWORD PTR _this$[ebp], ecx
	mov	eax, OFFSET ?m_RTTI@VertexBuffer@Ogre@@2VRuntimeClass@2@B ; Ogre::VertexBuffer::m_RTTI
	mov	esp, ebp
	pop	ebp
	ret	0
?getRTTI@VertexBuffer@Ogre@@UBEPBVRuntimeClass@2@XZ ENDP ; Ogre::VertexBuffer::getRTTI
_TEXT	ENDS
PUBLIC	??_7VertexBuffer@Ogre@@6B@			; Ogre::VertexBuffer::`vftable'
PUBLIC	??0VertexBuffer@Ogre@@QAE@XZ			; Ogre::VertexBuffer::VertexBuffer
PUBLIC	??_R4VertexBuffer@Ogre@@6B@			; Ogre::VertexBuffer::`RTTI Complete Object Locator'
PUBLIC	??_R0?AVVertexBuffer@Ogre@@@8			; Ogre::VertexBuffer `RTTI Type Descriptor'
PUBLIC	??_R3VertexBuffer@Ogre@@8			; Ogre::VertexBuffer::`RTTI Class Hierarchy Descriptor'
PUBLIC	??_R2VertexBuffer@Ogre@@8			; Ogre::VertexBuffer::`RTTI Base Class Array'
PUBLIC	??_R1A@?0A@EA@VertexBuffer@Ogre@@8		; Ogre::VertexBuffer::`RTTI Base Class Descriptor at (0,-1,0,64)'
PUBLIC	??_EVertexBuffer@Ogre@@UAEPAXI@Z		; Ogre::VertexBuffer::`vector deleting destructor'
;	COMDAT ??_R1A@?0A@EA@VertexBuffer@Ogre@@8
rdata$r	SEGMENT
??_R1A@?0A@EA@VertexBuffer@Ogre@@8 DD FLAT:??_R0?AVVertexBuffer@Ogre@@@8 ; Ogre::VertexBuffer::`RTTI Base Class Descriptor at (0,-1,0,64)'
	DD	03H
	DD	00H
	DD	0ffffffffH
	DD	00H
	DD	040H
	DD	FLAT:??_R3VertexBuffer@Ogre@@8
rdata$r	ENDS
;	COMDAT ??_R2VertexBuffer@Ogre@@8
rdata$r	SEGMENT
??_R2VertexBuffer@Ogre@@8 DD FLAT:??_R1A@?0A@EA@VertexBuffer@Ogre@@8 ; Ogre::VertexBuffer::`RTTI Base Class Array'
	DD	FLAT:??_R1A@?0A@EA@Resource@Ogre@@8
	DD	FLAT:??_R1A@?0A@EA@BaseObject@Ogre@@8
	DD	FLAT:??_R13?0A@EA@MemoryDelegation@Ogre@@8
rdata$r	ENDS
;	COMDAT ??_R3VertexBuffer@Ogre@@8
rdata$r	SEGMENT
??_R3VertexBuffer@Ogre@@8 DD 00H			; Ogre::VertexBuffer::`RTTI Class Hierarchy Descriptor'
	DD	00H
	DD	04H
	DD	FLAT:??_R2VertexBuffer@Ogre@@8
rdata$r	ENDS
;	COMDAT ??_R0?AVVertexBuffer@Ogre@@@8
_DATA	SEGMENT
??_R0?AVVertexBuffer@Ogre@@@8 DD FLAT:??_7type_info@@6B@ ; Ogre::VertexBuffer `RTTI Type Descriptor'
	DD	00H
	DB	'.?AVVertexBuffer@Ogre@@', 00H
_DATA	ENDS
;	COMDAT ??_R4VertexBuffer@Ogre@@6B@
rdata$r	SEGMENT
??_R4VertexBuffer@Ogre@@6B@ DD 00H			; Ogre::VertexBuffer::`RTTI Complete Object Locator'
	DD	00H
	DD	00H
	DD	FLAT:??_R0?AVVertexBuffer@Ogre@@@8
	DD	FLAT:??_R3VertexBuffer@Ogre@@8
rdata$r	ENDS
;	COMDAT ??_7VertexBuffer@Ogre@@6B@
CONST	SEGMENT
??_7VertexBuffer@Ogre@@6B@ DD FLAT:??_R4VertexBuffer@Ogre@@6B@ ; Ogre::VertexBuffer::`vftable'
	DD	FLAT:?getRTTI@VertexBuffer@Ogre@@UBEPBVRuntimeClass@2@XZ
	DD	FLAT:?release@Resource@Ogre@@UAEXXZ
	DD	FLAT:?addRef@Resource@Ogre@@UAEXXZ
	DD	FLAT:?getRefCount@Resource@Ogre@@UAEHXZ
	DD	FLAT:?_serialize@BaseObject@Ogre@@UAEXAAVArchive@2@H@Z
	DD	FLAT:??_EVertexBuffer@Ogre@@UAEPAXI@Z
	DD	FLAT:?deleteThis@BaseObject@Ogre@@MAEXXZ
	DD	FLAT:__purecall
CONST	ENDS
;	COMDAT xdata$x
xdata$x	SEGMENT
__unwindtable$??0VertexBuffer@Ogre@@QAE@XZ DD 0ffffffffH
	DD	FLAT:__unwindfunclet$??0VertexBuffer@Ogre@@QAE@XZ$0
__ehfuncinfo$??0VertexBuffer@Ogre@@QAE@XZ DD 019930522H
	DD	01H
	DD	FLAT:__unwindtable$??0VertexBuffer@Ogre@@QAE@XZ
	DD	2 DUP(00H)
	DD	2 DUP(00H)
	DD	00H
	DD	00H
; Function compile flags: /Odtp
xdata$x	ENDS
;	COMDAT ??0VertexBuffer@Ogre@@QAE@XZ
_TEXT	SEGMENT
_this$ = -16						; size = 4
__$EHRec$ = -12						; size = 12
??0VertexBuffer@Ogre@@QAE@XZ PROC			; Ogre::VertexBuffer::VertexBuffer, COMDAT
; _this$ = ecx
	push	ebp
	mov	ebp, esp
	push	-1
	push	__ehhandler$??0VertexBuffer@Ogre@@QAE@XZ
	mov	eax, DWORD PTR fs:0
	push	eax
	push	ecx
	mov	eax, DWORD PTR ___security_cookie
	xor	eax, ebp
	push	eax
	lea	eax, DWORD PTR __$EHRec$[ebp]
	mov	DWORD PTR fs:0, eax
	mov	DWORD PTR _this$[ebp], ecx
	mov	ecx, DWORD PTR _this$[ebp]
	call	??0Resource@Ogre@@IAE@XZ		; Ogre::Resource::Resource
	mov	DWORD PTR __$EHRec$[ebp+8], 0
	mov	eax, DWORD PTR _this$[ebp]
	mov	DWORD PTR [eax], OFFSET ??_7VertexBuffer@Ogre@@6B@
	mov	DWORD PTR __$EHRec$[ebp+8], -1
	mov	eax, DWORD PTR _this$[ebp]
	mov	ecx, DWORD PTR __$EHRec$[ebp]
	mov	DWORD PTR fs:0, ecx
	pop	ecx
	mov	esp, ebp
	pop	ebp
	ret	0
_TEXT	ENDS
;	COMDAT text$x
text$x	SEGMENT
__unwindfunclet$??0VertexBuffer@Ogre@@QAE@XZ$0:
	mov	ecx, DWORD PTR _this$[ebp]
	jmp	??1Resource@Ogre@@MAE@XZ		; Ogre::Resource::~Resource
__ehhandler$??0VertexBuffer@Ogre@@QAE@XZ:
	mov	edx, DWORD PTR [esp+8]
	lea	eax, DWORD PTR [edx+12]
	mov	ecx, DWORD PTR [edx-8]
	xor	ecx, eax
	call	@__security_check_cookie@4
	mov	eax, OFFSET __ehfuncinfo$??0VertexBuffer@Ogre@@QAE@XZ
	jmp	___CxxFrameHandler3
text$x	ENDS
??0VertexBuffer@Ogre@@QAE@XZ ENDP			; Ogre::VertexBuffer::VertexBuffer
PUBLIC	??1VertexBuffer@Ogre@@UAE@XZ			; Ogre::VertexBuffer::~VertexBuffer
;	COMDAT xdata$x
xdata$x	SEGMENT
__unwindtable$??1VertexBuffer@Ogre@@UAE@XZ DD 0ffffffffH
	DD	FLAT:__unwindfunclet$??1VertexBuffer@Ogre@@UAE@XZ$0
__ehfuncinfo$??1VertexBuffer@Ogre@@UAE@XZ DD 019930522H
	DD	01H
	DD	FLAT:__unwindtable$??1VertexBuffer@Ogre@@UAE@XZ
	DD	2 DUP(00H)
	DD	2 DUP(00H)
	DD	00H
	DD	00H
; Function compile flags: /Odtp
xdata$x	ENDS
;	COMDAT ??1VertexBuffer@Ogre@@UAE@XZ
_TEXT	SEGMENT
_this$ = -16						; size = 4
__$EHRec$ = -12						; size = 12
??1VertexBuffer@Ogre@@UAE@XZ PROC			; Ogre::VertexBuffer::~VertexBuffer, COMDAT
; _this$ = ecx
	push	ebp
	mov	ebp, esp
	push	-1
	push	__ehhandler$??1VertexBuffer@Ogre@@UAE@XZ
	mov	eax, DWORD PTR fs:0
	push	eax
	push	ecx
	mov	eax, DWORD PTR ___security_cookie
	xor	eax, ebp
	push	eax
	lea	eax, DWORD PTR __$EHRec$[ebp]
	mov	DWORD PTR fs:0, eax
	mov	DWORD PTR _this$[ebp], ecx
	mov	DWORD PTR __$EHRec$[ebp+8], 0
	mov	DWORD PTR __$EHRec$[ebp+8], -1
	mov	ecx, DWORD PTR _this$[ebp]
	call	??1Resource@Ogre@@MAE@XZ		; Ogre::Resource::~Resource
	mov	ecx, DWORD PTR __$EHRec$[ebp]
	mov	DWORD PTR fs:0, ecx
	pop	ecx
	mov	esp, ebp
	pop	ebp
	ret	0
_TEXT	ENDS
;	COMDAT text$x
text$x	SEGMENT
__unwindfunclet$??1VertexBuffer@Ogre@@UAE@XZ$0:
	mov	ecx, DWORD PTR _this$[ebp]
	jmp	??1Resource@Ogre@@MAE@XZ		; Ogre::Resource::~Resource
__ehhandler$??1VertexBuffer@Ogre@@UAE@XZ:
	mov	edx, DWORD PTR [esp+8]
	lea	eax, DWORD PTR [edx+12]
	mov	ecx, DWORD PTR [edx-8]
	xor	ecx, eax
	call	@__security_check_cookie@4
	mov	eax, OFFSET __ehfuncinfo$??1VertexBuffer@Ogre@@UAE@XZ
	jmp	___CxxFrameHandler3
text$x	ENDS
??1VertexBuffer@Ogre@@UAE@XZ ENDP			; Ogre::VertexBuffer::~VertexBuffer
PUBLIC	??0VertexBuffer@Ogre@@QAE@ABV01@@Z		; Ogre::VertexBuffer::VertexBuffer
;	COMDAT xdata$x
xdata$x	SEGMENT
__unwindtable$??0VertexBuffer@Ogre@@QAE@ABV01@@Z DD 0ffffffffH
	DD	FLAT:__unwindfunclet$??0VertexBuffer@Ogre@@QAE@ABV01@@Z$0
__ehfuncinfo$??0VertexBuffer@Ogre@@QAE@ABV01@@Z DD 019930522H
	DD	01H
	DD	FLAT:__unwindtable$??0VertexBuffer@Ogre@@QAE@ABV01@@Z
	DD	2 DUP(00H)
	DD	2 DUP(00H)
	DD	00H
	DD	00H
; Function compile flags: /Odtp
xdata$x	ENDS
;	COMDAT ??0VertexBuffer@Ogre@@QAE@ABV01@@Z
_TEXT	SEGMENT
_this$ = -16						; size = 4
__$EHRec$ = -12						; size = 12
___that$ = 8						; size = 4
??0VertexBuffer@Ogre@@QAE@ABV01@@Z PROC			; Ogre::VertexBuffer::VertexBuffer, COMDAT
; _this$ = ecx
	push	ebp
	mov	ebp, esp
	push	-1
	push	__ehhandler$??0VertexBuffer@Ogre@@QAE@ABV01@@Z
	mov	eax, DWORD PTR fs:0
	push	eax
	push	ecx
	mov	eax, DWORD PTR ___security_cookie
	xor	eax, ebp
	push	eax
	lea	eax, DWORD PTR __$EHRec$[ebp]
	mov	DWORD PTR fs:0, eax
	mov	DWORD PTR _this$[ebp], ecx
	mov	eax, DWORD PTR ___that$[ebp]
	push	eax
	mov	ecx, DWORD PTR _this$[ebp]
	call	??0Resource@Ogre@@QAE@ABV01@@Z
	mov	DWORD PTR __$EHRec$[ebp+8], 0
	mov	ecx, DWORD PTR _this$[ebp]
	mov	DWORD PTR [ecx], OFFSET ??_7VertexBuffer@Ogre@@6B@
	mov	DWORD PTR __$EHRec$[ebp+8], -1
	mov	eax, DWORD PTR _this$[ebp]
	mov	ecx, DWORD PTR __$EHRec$[ebp]
	mov	DWORD PTR fs:0, ecx
	pop	ecx
	mov	esp, ebp
	pop	ebp
	ret	4
_TEXT	ENDS
;	COMDAT text$x
text$x	SEGMENT
__unwindfunclet$??0VertexBuffer@Ogre@@QAE@ABV01@@Z$0:
	mov	ecx, DWORD PTR _this$[ebp]
	jmp	??1Resource@Ogre@@MAE@XZ		; Ogre::Resource::~Resource
__ehhandler$??0VertexBuffer@Ogre@@QAE@ABV01@@Z:
	mov	edx, DWORD PTR [esp+8]
	lea	eax, DWORD PTR [edx+12]
	mov	ecx, DWORD PTR [edx-8]
	xor	ecx, eax
	call	@__security_check_cookie@4
	mov	eax, OFFSET __ehfuncinfo$??0VertexBuffer@Ogre@@QAE@ABV01@@Z
	jmp	___CxxFrameHandler3
text$x	ENDS
??0VertexBuffer@Ogre@@QAE@ABV01@@Z ENDP			; Ogre::VertexBuffer::VertexBuffer
PUBLIC	??4VertexBuffer@Ogre@@QAEAAV01@ABV01@@Z		; Ogre::VertexBuffer::operator=
; Function compile flags: /Odtp
;	COMDAT ??4VertexBuffer@Ogre@@QAEAAV01@ABV01@@Z
_TEXT	SEGMENT
_this$ = -4						; size = 4
___that$ = 8						; size = 4
??4VertexBuffer@Ogre@@QAEAAV01@ABV01@@Z PROC		; Ogre::VertexBuffer::operator=, COMDAT
; _this$ = ecx
	push	ebp
	mov	ebp, esp
	push	ecx
	mov	DWORD PTR _this$[ebp], ecx
	mov	eax, DWORD PTR ___that$[ebp]
	push	eax
	mov	ecx, DWORD PTR _this$[ebp]
	call	??4Resource@Ogre@@QAEAAV01@ABV01@@Z
	mov	eax, DWORD PTR _this$[ebp]
	mov	esp, ebp
	pop	ebp
	ret	4
??4VertexBuffer@Ogre@@QAEAAV01@ABV01@@Z ENDP		; Ogre::VertexBuffer::operator=
_TEXT	ENDS
PUBLIC	??_GVertexBuffer@Ogre@@UAEPAXI@Z		; Ogre::VertexBuffer::`scalar deleting destructor'
; Function compile flags: /Odtp
;	COMDAT ??_GVertexBuffer@Ogre@@UAEPAXI@Z
_TEXT	SEGMENT
_this$ = -4						; size = 4
___flags$ = 8						; size = 4
??_GVertexBuffer@Ogre@@UAEPAXI@Z PROC			; Ogre::VertexBuffer::`scalar deleting destructor', COMDAT
; _this$ = ecx
	push	ebp
	mov	ebp, esp
	push	ecx
	mov	DWORD PTR _this$[ebp], ecx
	mov	ecx, DWORD PTR _this$[ebp]
	call	??1VertexBuffer@Ogre@@UAE@XZ
	mov	eax, DWORD PTR ___flags$[ebp]
	and	eax, 1
	je	SHORT $LN1@scalar@13
	push	16					; 00000010H
	mov	ecx, DWORD PTR _this$[ebp]
	push	ecx
	call	??3MemoryDelegation@Ogre@@SAXPAXI@Z	; Ogre::MemoryDelegation::operator delete
	add	esp, 8
$LN1@scalar@13:
	mov	eax, DWORD PTR _this$[ebp]
	mov	esp, ebp
	pop	ebp
	ret	4
??_GVertexBuffer@Ogre@@UAEPAXI@Z ENDP			; Ogre::VertexBuffer::`scalar deleting destructor'
; Function compile flags: /Odtp
_TEXT	ENDS
;	COMDAT ??_EVertexBuffer@Ogre@@UAEPAXI@Z
_TEXT	SEGMENT
_this$ = -4						; size = 4
___flags$ = 8						; size = 4
??_EVertexBuffer@Ogre@@UAEPAXI@Z PROC			; Ogre::VertexBuffer::`vector deleting destructor', COMDAT
; _this$ = ecx
	push	ebp
	mov	ebp, esp
	push	ecx
	mov	DWORD PTR _this$[ebp], ecx
	mov	eax, DWORD PTR ___flags$[ebp]
	and	eax, 2
	je	SHORT $LN3@vector@13
	push	OFFSET ??1VertexBuffer@Ogre@@UAE@XZ
	mov	ecx, DWORD PTR _this$[ebp]
	mov	edx, DWORD PTR [ecx-4]
	push	edx
	push	16					; 00000010H
	mov	eax, DWORD PTR _this$[ebp]
	push	eax
	call	??_M@YGXPAXIHP6EX0@Z@Z
	mov	ecx, DWORD PTR ___flags$[ebp]
	and	ecx, 1
	je	SHORT $LN2@vector@13
	push	16					; 00000010H
	mov	edx, DWORD PTR _this$[ebp]
	sub	edx, 4
	push	edx
	call	??_VMemoryDelegation@Ogre@@SAXPAXI@Z	; Ogre::MemoryDelegation::operator delete[]
	add	esp, 8
$LN2@vector@13:
	mov	eax, DWORD PTR _this$[ebp]
	sub	eax, 4
	jmp	SHORT $LN4@vector@13
$LN3@vector@13:
	mov	ecx, DWORD PTR _this$[ebp]
	call	??1VertexBuffer@Ogre@@UAE@XZ
	mov	eax, DWORD PTR ___flags$[ebp]
	and	eax, 1
	je	SHORT $LN1@vector@13
	push	16					; 00000010H
	mov	ecx, DWORD PTR _this$[ebp]
	push	ecx
	call	??3MemoryDelegation@Ogre@@SAXPAXI@Z	; Ogre::MemoryDelegation::operator delete
	add	esp, 8
$LN1@vector@13:
	mov	eax, DWORD PTR _this$[ebp]
$LN4@vector@13:
	mov	esp, ebp
	pop	ebp
	ret	4
??_EVertexBuffer@Ogre@@UAEPAXI@Z ENDP			; Ogre::VertexBuffer::`vector deleting destructor'
_TEXT	ENDS
PUBLIC	?getRTTI@IndexBuffer@Ogre@@UBEPBVRuntimeClass@2@XZ ; Ogre::IndexBuffer::getRTTI
EXTRN	?m_RTTI@IndexBuffer@Ogre@@2VRuntimeClass@2@B:BYTE ; Ogre::IndexBuffer::m_RTTI
; Function compile flags: /Odtp
;	COMDAT ?getRTTI@IndexBuffer@Ogre@@UBEPBVRuntimeClass@2@XZ
_TEXT	SEGMENT
_this$ = -4						; size = 4
?getRTTI@IndexBuffer@Ogre@@UBEPBVRuntimeClass@2@XZ PROC	; Ogre::IndexBuffer::getRTTI, COMDAT
; _this$ = ecx

; 230  : 		DECLARE_RTTI_VIRTUAL(IndexBuffer)

	push	ebp
	mov	ebp, esp
	push	ecx
	mov	DWORD PTR _this$[ebp], ecx
	mov	eax, OFFSET ?m_RTTI@IndexBuffer@Ogre@@2VRuntimeClass@2@B ; Ogre::IndexBuffer::m_RTTI
	mov	esp, ebp
	pop	ebp
	ret	0
?getRTTI@IndexBuffer@Ogre@@UBEPBVRuntimeClass@2@XZ ENDP	; Ogre::IndexBuffer::getRTTI
_TEXT	ENDS
PUBLIC	?setVertexRange@IndexBuffer@Ogre@@QAEXII@Z	; Ogre::IndexBuffer::setVertexRange
; Function compile flags: /Odtp
;	COMDAT ?setVertexRange@IndexBuffer@Ogre@@QAEXII@Z
_TEXT	SEGMENT
_this$ = -4						; size = 4
_start$ = 8						; size = 4
_num$ = 12						; size = 4
?setVertexRange@IndexBuffer@Ogre@@QAEXII@Z PROC		; Ogre::IndexBuffer::setVertexRange, COMDAT
; _this$ = ecx

; 235  : 		{

	push	ebp
	mov	ebp, esp
	push	ecx
	mov	DWORD PTR _this$[ebp], ecx

; 236  : 			m_RefVertStart = start;

	mov	eax, DWORD PTR _this$[ebp]
	mov	ecx, DWORD PTR _start$[ebp]
	mov	DWORD PTR [eax+16], ecx

; 237  : 			m_RefVertNum = num;

	mov	edx, DWORD PTR _this$[ebp]
	mov	eax, DWORD PTR _num$[ebp]
	mov	DWORD PTR [edx+20], eax

; 238  : 		}

	mov	esp, ebp
	pop	ebp
	ret	8
?setVertexRange@IndexBuffer@Ogre@@QAEXII@Z ENDP		; Ogre::IndexBuffer::setVertexRange
_TEXT	ENDS
PUBLIC	??_7IndexBuffer@Ogre@@6B@			; Ogre::IndexBuffer::`vftable'
PUBLIC	??0IndexBuffer@Ogre@@QAE@XZ			; Ogre::IndexBuffer::IndexBuffer
PUBLIC	??_R4IndexBuffer@Ogre@@6B@			; Ogre::IndexBuffer::`RTTI Complete Object Locator'
PUBLIC	??_R0?AVIndexBuffer@Ogre@@@8			; Ogre::IndexBuffer `RTTI Type Descriptor'
PUBLIC	??_R3IndexBuffer@Ogre@@8			; Ogre::IndexBuffer::`RTTI Class Hierarchy Descriptor'
PUBLIC	??_R2IndexBuffer@Ogre@@8			; Ogre::IndexBuffer::`RTTI Base Class Array'
PUBLIC	??_R1A@?0A@EA@IndexBuffer@Ogre@@8		; Ogre::IndexBuffer::`RTTI Base Class Descriptor at (0,-1,0,64)'
PUBLIC	??_EIndexBuffer@Ogre@@UAEPAXI@Z			; Ogre::IndexBuffer::`vector deleting destructor'
;	COMDAT ??_R1A@?0A@EA@IndexBuffer@Ogre@@8
rdata$r	SEGMENT
??_R1A@?0A@EA@IndexBuffer@Ogre@@8 DD FLAT:??_R0?AVIndexBuffer@Ogre@@@8 ; Ogre::IndexBuffer::`RTTI Base Class Descriptor at (0,-1,0,64)'
	DD	03H
	DD	00H
	DD	0ffffffffH
	DD	00H
	DD	040H
	DD	FLAT:??_R3IndexBuffer@Ogre@@8
rdata$r	ENDS
;	COMDAT ??_R2IndexBuffer@Ogre@@8
rdata$r	SEGMENT
??_R2IndexBuffer@Ogre@@8 DD FLAT:??_R1A@?0A@EA@IndexBuffer@Ogre@@8 ; Ogre::IndexBuffer::`RTTI Base Class Array'
	DD	FLAT:??_R1A@?0A@EA@Resource@Ogre@@8
	DD	FLAT:??_R1A@?0A@EA@BaseObject@Ogre@@8
	DD	FLAT:??_R13?0A@EA@MemoryDelegation@Ogre@@8
rdata$r	ENDS
;	COMDAT ??_R3IndexBuffer@Ogre@@8
rdata$r	SEGMENT
??_R3IndexBuffer@Ogre@@8 DD 00H				; Ogre::IndexBuffer::`RTTI Class Hierarchy Descriptor'
	DD	00H
	DD	04H
	DD	FLAT:??_R2IndexBuffer@Ogre@@8
rdata$r	ENDS
;	COMDAT ??_R0?AVIndexBuffer@Ogre@@@8
_DATA	SEGMENT
??_R0?AVIndexBuffer@Ogre@@@8 DD FLAT:??_7type_info@@6B@	; Ogre::IndexBuffer `RTTI Type Descriptor'
	DD	00H
	DB	'.?AVIndexBuffer@Ogre@@', 00H
_DATA	ENDS
;	COMDAT ??_R4IndexBuffer@Ogre@@6B@
rdata$r	SEGMENT
??_R4IndexBuffer@Ogre@@6B@ DD 00H			; Ogre::IndexBuffer::`RTTI Complete Object Locator'
	DD	00H
	DD	00H
	DD	FLAT:??_R0?AVIndexBuffer@Ogre@@@8
	DD	FLAT:??_R3IndexBuffer@Ogre@@8
rdata$r	ENDS
;	COMDAT ??_7IndexBuffer@Ogre@@6B@
CONST	SEGMENT
??_7IndexBuffer@Ogre@@6B@ DD FLAT:??_R4IndexBuffer@Ogre@@6B@ ; Ogre::IndexBuffer::`vftable'
	DD	FLAT:?getRTTI@IndexBuffer@Ogre@@UBEPBVRuntimeClass@2@XZ
	DD	FLAT:?release@Resource@Ogre@@UAEXXZ
	DD	FLAT:?addRef@Resource@Ogre@@UAEXXZ
	DD	FLAT:?getRefCount@Resource@Ogre@@UAEHXZ
	DD	FLAT:?_serialize@BaseObject@Ogre@@UAEXAAVArchive@2@H@Z
	DD	FLAT:??_EIndexBuffer@Ogre@@UAEPAXI@Z
	DD	FLAT:?deleteThis@BaseObject@Ogre@@MAEXXZ
	DD	FLAT:__purecall
CONST	ENDS
;	COMDAT xdata$x
xdata$x	SEGMENT
__unwindtable$??0IndexBuffer@Ogre@@QAE@XZ DD 0ffffffffH
	DD	FLAT:__unwindfunclet$??0IndexBuffer@Ogre@@QAE@XZ$0
__ehfuncinfo$??0IndexBuffer@Ogre@@QAE@XZ DD 019930522H
	DD	01H
	DD	FLAT:__unwindtable$??0IndexBuffer@Ogre@@QAE@XZ
	DD	2 DUP(00H)
	DD	2 DUP(00H)
	DD	00H
	DD	00H
; Function compile flags: /Odtp
xdata$x	ENDS
;	COMDAT ??0IndexBuffer@Ogre@@QAE@XZ
_TEXT	SEGMENT
_this$ = -16						; size = 4
__$EHRec$ = -12						; size = 12
??0IndexBuffer@Ogre@@QAE@XZ PROC			; Ogre::IndexBuffer::IndexBuffer, COMDAT
; _this$ = ecx
	push	ebp
	mov	ebp, esp
	push	-1
	push	__ehhandler$??0IndexBuffer@Ogre@@QAE@XZ
	mov	eax, DWORD PTR fs:0
	push	eax
	push	ecx
	mov	eax, DWORD PTR ___security_cookie
	xor	eax, ebp
	push	eax
	lea	eax, DWORD PTR __$EHRec$[ebp]
	mov	DWORD PTR fs:0, eax
	mov	DWORD PTR _this$[ebp], ecx
	mov	ecx, DWORD PTR _this$[ebp]
	call	??0Resource@Ogre@@IAE@XZ		; Ogre::Resource::Resource
	mov	DWORD PTR __$EHRec$[ebp+8], 0
	mov	eax, DWORD PTR _this$[ebp]
	mov	DWORD PTR [eax], OFFSET ??_7IndexBuffer@Ogre@@6B@
	mov	DWORD PTR __$EHRec$[ebp+8], -1
	mov	eax, DWORD PTR _this$[ebp]
	mov	ecx, DWORD PTR __$EHRec$[ebp]
	mov	DWORD PTR fs:0, ecx
	pop	ecx
	mov	esp, ebp
	pop	ebp
	ret	0
_TEXT	ENDS
;	COMDAT text$x
text$x	SEGMENT
__unwindfunclet$??0IndexBuffer@Ogre@@QAE@XZ$0:
	mov	ecx, DWORD PTR _this$[ebp]
	jmp	??1Resource@Ogre@@MAE@XZ		; Ogre::Resource::~Resource
__ehhandler$??0IndexBuffer@Ogre@@QAE@XZ:
	mov	edx, DWORD PTR [esp+8]
	lea	eax, DWORD PTR [edx+12]
	mov	ecx, DWORD PTR [edx-8]
	xor	ecx, eax
	call	@__security_check_cookie@4
	mov	eax, OFFSET __ehfuncinfo$??0IndexBuffer@Ogre@@QAE@XZ
	jmp	___CxxFrameHandler3
text$x	ENDS
??0IndexBuffer@Ogre@@QAE@XZ ENDP			; Ogre::IndexBuffer::IndexBuffer
PUBLIC	??1IndexBuffer@Ogre@@UAE@XZ			; Ogre::IndexBuffer::~IndexBuffer
;	COMDAT xdata$x
xdata$x	SEGMENT
__unwindtable$??1IndexBuffer@Ogre@@UAE@XZ DD 0ffffffffH
	DD	FLAT:__unwindfunclet$??1IndexBuffer@Ogre@@UAE@XZ$0
__ehfuncinfo$??1IndexBuffer@Ogre@@UAE@XZ DD 019930522H
	DD	01H
	DD	FLAT:__unwindtable$??1IndexBuffer@Ogre@@UAE@XZ
	DD	2 DUP(00H)
	DD	2 DUP(00H)
	DD	00H
	DD	00H
; Function compile flags: /Odtp
xdata$x	ENDS
;	COMDAT ??1IndexBuffer@Ogre@@UAE@XZ
_TEXT	SEGMENT
_this$ = -16						; size = 4
__$EHRec$ = -12						; size = 12
??1IndexBuffer@Ogre@@UAE@XZ PROC			; Ogre::IndexBuffer::~IndexBuffer, COMDAT
; _this$ = ecx
	push	ebp
	mov	ebp, esp
	push	-1
	push	__ehhandler$??1IndexBuffer@Ogre@@UAE@XZ
	mov	eax, DWORD PTR fs:0
	push	eax
	push	ecx
	mov	eax, DWORD PTR ___security_cookie
	xor	eax, ebp
	push	eax
	lea	eax, DWORD PTR __$EHRec$[ebp]
	mov	DWORD PTR fs:0, eax
	mov	DWORD PTR _this$[ebp], ecx
	mov	DWORD PTR __$EHRec$[ebp+8], 0
	mov	DWORD PTR __$EHRec$[ebp+8], -1
	mov	ecx, DWORD PTR _this$[ebp]
	call	??1Resource@Ogre@@MAE@XZ		; Ogre::Resource::~Resource
	mov	ecx, DWORD PTR __$EHRec$[ebp]
	mov	DWORD PTR fs:0, ecx
	pop	ecx
	mov	esp, ebp
	pop	ebp
	ret	0
_TEXT	ENDS
;	COMDAT text$x
text$x	SEGMENT
__unwindfunclet$??1IndexBuffer@Ogre@@UAE@XZ$0:
	mov	ecx, DWORD PTR _this$[ebp]
	jmp	??1Resource@Ogre@@MAE@XZ		; Ogre::Resource::~Resource
__ehhandler$??1IndexBuffer@Ogre@@UAE@XZ:
	mov	edx, DWORD PTR [esp+8]
	lea	eax, DWORD PTR [edx+12]
	mov	ecx, DWORD PTR [edx-8]
	xor	ecx, eax
	call	@__security_check_cookie@4
	mov	eax, OFFSET __ehfuncinfo$??1IndexBuffer@Ogre@@UAE@XZ
	jmp	___CxxFrameHandler3
text$x	ENDS
??1IndexBuffer@Ogre@@UAE@XZ ENDP			; Ogre::IndexBuffer::~IndexBuffer
PUBLIC	??0IndexBuffer@Ogre@@QAE@ABV01@@Z		; Ogre::IndexBuffer::IndexBuffer
;	COMDAT xdata$x
xdata$x	SEGMENT
__unwindtable$??0IndexBuffer@Ogre@@QAE@ABV01@@Z DD 0ffffffffH
	DD	FLAT:__unwindfunclet$??0IndexBuffer@Ogre@@QAE@ABV01@@Z$0
__ehfuncinfo$??0IndexBuffer@Ogre@@QAE@ABV01@@Z DD 019930522H
	DD	01H
	DD	FLAT:__unwindtable$??0IndexBuffer@Ogre@@QAE@ABV01@@Z
	DD	2 DUP(00H)
	DD	2 DUP(00H)
	DD	00H
	DD	00H
; Function compile flags: /Odtp
xdata$x	ENDS
;	COMDAT ??0IndexBuffer@Ogre@@QAE@ABV01@@Z
_TEXT	SEGMENT
_this$ = -16						; size = 4
__$EHRec$ = -12						; size = 12
___that$ = 8						; size = 4
??0IndexBuffer@Ogre@@QAE@ABV01@@Z PROC			; Ogre::IndexBuffer::IndexBuffer, COMDAT
; _this$ = ecx
	push	ebp
	mov	ebp, esp
	push	-1
	push	__ehhandler$??0IndexBuffer@Ogre@@QAE@ABV01@@Z
	mov	eax, DWORD PTR fs:0
	push	eax
	push	ecx
	mov	eax, DWORD PTR ___security_cookie
	xor	eax, ebp
	push	eax
	lea	eax, DWORD PTR __$EHRec$[ebp]
	mov	DWORD PTR fs:0, eax
	mov	DWORD PTR _this$[ebp], ecx
	mov	eax, DWORD PTR ___that$[ebp]
	push	eax
	mov	ecx, DWORD PTR _this$[ebp]
	call	??0Resource@Ogre@@QAE@ABV01@@Z
	mov	DWORD PTR __$EHRec$[ebp+8], 0
	mov	ecx, DWORD PTR _this$[ebp]
	mov	DWORD PTR [ecx], OFFSET ??_7IndexBuffer@Ogre@@6B@
	mov	edx, DWORD PTR _this$[ebp]
	mov	eax, DWORD PTR ___that$[ebp]
	mov	ecx, DWORD PTR [eax+16]
	mov	DWORD PTR [edx+16], ecx
	mov	edx, DWORD PTR _this$[ebp]
	mov	eax, DWORD PTR ___that$[ebp]
	mov	ecx, DWORD PTR [eax+20]
	mov	DWORD PTR [edx+20], ecx
	mov	DWORD PTR __$EHRec$[ebp+8], -1
	mov	eax, DWORD PTR _this$[ebp]
	mov	ecx, DWORD PTR __$EHRec$[ebp]
	mov	DWORD PTR fs:0, ecx
	pop	ecx
	mov	esp, ebp
	pop	ebp
	ret	4
_TEXT	ENDS
;	COMDAT text$x
text$x	SEGMENT
__unwindfunclet$??0IndexBuffer@Ogre@@QAE@ABV01@@Z$0:
	mov	ecx, DWORD PTR _this$[ebp]
	jmp	??1Resource@Ogre@@MAE@XZ		; Ogre::Resource::~Resource
__ehhandler$??0IndexBuffer@Ogre@@QAE@ABV01@@Z:
	mov	edx, DWORD PTR [esp+8]
	lea	eax, DWORD PTR [edx+12]
	mov	ecx, DWORD PTR [edx-8]
	xor	ecx, eax
	call	@__security_check_cookie@4
	mov	eax, OFFSET __ehfuncinfo$??0IndexBuffer@Ogre@@QAE@ABV01@@Z
	jmp	___CxxFrameHandler3
text$x	ENDS
??0IndexBuffer@Ogre@@QAE@ABV01@@Z ENDP			; Ogre::IndexBuffer::IndexBuffer
PUBLIC	??4IndexBuffer@Ogre@@QAEAAV01@ABV01@@Z		; Ogre::IndexBuffer::operator=
; Function compile flags: /Odtp
;	COMDAT ??4IndexBuffer@Ogre@@QAEAAV01@ABV01@@Z
_TEXT	SEGMENT
_this$ = -4						; size = 4
___that$ = 8						; size = 4
??4IndexBuffer@Ogre@@QAEAAV01@ABV01@@Z PROC		; Ogre::IndexBuffer::operator=, COMDAT
; _this$ = ecx
	push	ebp
	mov	ebp, esp
	push	ecx
	mov	DWORD PTR _this$[ebp], ecx
	mov	eax, DWORD PTR ___that$[ebp]
	push	eax
	mov	ecx, DWORD PTR _this$[ebp]
	call	??4Resource@Ogre@@QAEAAV01@ABV01@@Z
	mov	ecx, DWORD PTR _this$[ebp]
	mov	edx, DWORD PTR ___that$[ebp]
	mov	eax, DWORD PTR [edx+16]
	mov	DWORD PTR [ecx+16], eax
	mov	ecx, DWORD PTR _this$[ebp]
	mov	edx, DWORD PTR ___that$[ebp]
	mov	eax, DWORD PTR [edx+20]
	mov	DWORD PTR [ecx+20], eax
	mov	eax, DWORD PTR _this$[ebp]
	mov	esp, ebp
	pop	ebp
	ret	4
??4IndexBuffer@Ogre@@QAEAAV01@ABV01@@Z ENDP		; Ogre::IndexBuffer::operator=
_TEXT	ENDS
PUBLIC	??_GIndexBuffer@Ogre@@UAEPAXI@Z			; Ogre::IndexBuffer::`scalar deleting destructor'
; Function compile flags: /Odtp
;	COMDAT ??_GIndexBuffer@Ogre@@UAEPAXI@Z
_TEXT	SEGMENT
_this$ = -4						; size = 4
___flags$ = 8						; size = 4
??_GIndexBuffer@Ogre@@UAEPAXI@Z PROC			; Ogre::IndexBuffer::`scalar deleting destructor', COMDAT
; _this$ = ecx
	push	ebp
	mov	ebp, esp
	push	ecx
	mov	DWORD PTR _this$[ebp], ecx
	mov	ecx, DWORD PTR _this$[ebp]
	call	??1IndexBuffer@Ogre@@UAE@XZ
	mov	eax, DWORD PTR ___flags$[ebp]
	and	eax, 1
	je	SHORT $LN1@scalar@14
	push	24					; 00000018H
	mov	ecx, DWORD PTR _this$[ebp]
	push	ecx
	call	??3MemoryDelegation@Ogre@@SAXPAXI@Z	; Ogre::MemoryDelegation::operator delete
	add	esp, 8
$LN1@scalar@14:
	mov	eax, DWORD PTR _this$[ebp]
	mov	esp, ebp
	pop	ebp
	ret	4
??_GIndexBuffer@Ogre@@UAEPAXI@Z ENDP			; Ogre::IndexBuffer::`scalar deleting destructor'
; Function compile flags: /Odtp
_TEXT	ENDS
;	COMDAT ??_EIndexBuffer@Ogre@@UAEPAXI@Z
_TEXT	SEGMENT
_this$ = -4						; size = 4
___flags$ = 8						; size = 4
??_EIndexBuffer@Ogre@@UAEPAXI@Z PROC			; Ogre::IndexBuffer::`vector deleting destructor', COMDAT
; _this$ = ecx
	push	ebp
	mov	ebp, esp
	push	ecx
	mov	DWORD PTR _this$[ebp], ecx
	mov	eax, DWORD PTR ___flags$[ebp]
	and	eax, 2
	je	SHORT $LN3@vector@14
	push	OFFSET ??1IndexBuffer@Ogre@@UAE@XZ
	mov	ecx, DWORD PTR _this$[ebp]
	mov	edx, DWORD PTR [ecx-4]
	push	edx
	push	24					; 00000018H
	mov	eax, DWORD PTR _this$[ebp]
	push	eax
	call	??_M@YGXPAXIHP6EX0@Z@Z
	mov	ecx, DWORD PTR ___flags$[ebp]
	and	ecx, 1
	je	SHORT $LN2@vector@14
	push	24					; 00000018H
	mov	edx, DWORD PTR _this$[ebp]
	sub	edx, 4
	push	edx
	call	??_VMemoryDelegation@Ogre@@SAXPAXI@Z	; Ogre::MemoryDelegation::operator delete[]
	add	esp, 8
$LN2@vector@14:
	mov	eax, DWORD PTR _this$[ebp]
	sub	eax, 4
	jmp	SHORT $LN4@vector@14
$LN3@vector@14:
	mov	ecx, DWORD PTR _this$[ebp]
	call	??1IndexBuffer@Ogre@@UAE@XZ
	mov	eax, DWORD PTR ___flags$[ebp]
	and	eax, 1
	je	SHORT $LN1@vector@14
	push	24					; 00000018H
	mov	ecx, DWORD PTR _this$[ebp]
	push	ecx
	call	??3MemoryDelegation@Ogre@@SAXPAXI@Z	; Ogre::MemoryDelegation::operator delete
	add	esp, 8
$LN1@vector@14:
	mov	eax, DWORD PTR _this$[ebp]
$LN4@vector@14:
	mov	esp, ebp
	pop	ebp
	ret	4
??_EIndexBuffer@Ogre@@UAEPAXI@Z ENDP			; Ogre::IndexBuffer::`vector deleting destructor'
_TEXT	ENDS
PUBLIC	?getRTTI@Texture@Ogre@@UBEPBVRuntimeClass@2@XZ	; Ogre::Texture::getRTTI
EXTRN	?m_RTTI@Texture@Ogre@@2VRuntimeClass@2@B:BYTE	; Ogre::Texture::m_RTTI
; Function compile flags: /Odtp
;	COMDAT ?getRTTI@Texture@Ogre@@UBEPBVRuntimeClass@2@XZ
_TEXT	SEGMENT
_this$ = -4						; size = 4
?getRTTI@Texture@Ogre@@UBEPBVRuntimeClass@2@XZ PROC	; Ogre::Texture::getRTTI, COMDAT
; _this$ = ecx

; 248  : 		DECLARE_RTTI_VIRTUAL(Texture)

	push	ebp
	mov	ebp, esp
	push	ecx
	mov	DWORD PTR _this$[ebp], ecx
	mov	eax, OFFSET ?m_RTTI@Texture@Ogre@@2VRuntimeClass@2@B ; Ogre::Texture::m_RTTI
	mov	esp, ebp
	pop	ebp
	ret	0
?getRTTI@Texture@Ogre@@UBEPBVRuntimeClass@2@XZ ENDP	; Ogre::Texture::getRTTI
_TEXT	ENDS
PUBLIC	??_7Texture@Ogre@@6B@				; Ogre::Texture::`vftable'
PUBLIC	??1Texture@Ogre@@MAE@XZ				; Ogre::Texture::~Texture
PUBLIC	??_R4Texture@Ogre@@6B@				; Ogre::Texture::`RTTI Complete Object Locator'
PUBLIC	??_R0?AVTexture@Ogre@@@8			; Ogre::Texture `RTTI Type Descriptor'
PUBLIC	??_R3Texture@Ogre@@8				; Ogre::Texture::`RTTI Class Hierarchy Descriptor'
PUBLIC	??_R2Texture@Ogre@@8				; Ogre::Texture::`RTTI Base Class Array'
PUBLIC	??_R1A@?0A@EA@Texture@Ogre@@8			; Ogre::Texture::`RTTI Base Class Descriptor at (0,-1,0,64)'
PUBLIC	??_ETexture@Ogre@@MAEPAXI@Z			; Ogre::Texture::`vector deleting destructor'
;	COMDAT ??_R1A@?0A@EA@Texture@Ogre@@8
rdata$r	SEGMENT
??_R1A@?0A@EA@Texture@Ogre@@8 DD FLAT:??_R0?AVTexture@Ogre@@@8 ; Ogre::Texture::`RTTI Base Class Descriptor at (0,-1,0,64)'
	DD	03H
	DD	00H
	DD	0ffffffffH
	DD	00H
	DD	040H
	DD	FLAT:??_R3Texture@Ogre@@8
rdata$r	ENDS
;	COMDAT ??_R2Texture@Ogre@@8
rdata$r	SEGMENT
??_R2Texture@Ogre@@8 DD FLAT:??_R1A@?0A@EA@Texture@Ogre@@8 ; Ogre::Texture::`RTTI Base Class Array'
	DD	FLAT:??_R1A@?0A@EA@Resource@Ogre@@8
	DD	FLAT:??_R1A@?0A@EA@BaseObject@Ogre@@8
	DD	FLAT:??_R13?0A@EA@MemoryDelegation@Ogre@@8
rdata$r	ENDS
;	COMDAT ??_R3Texture@Ogre@@8
rdata$r	SEGMENT
??_R3Texture@Ogre@@8 DD 00H				; Ogre::Texture::`RTTI Class Hierarchy Descriptor'
	DD	00H
	DD	04H
	DD	FLAT:??_R2Texture@Ogre@@8
rdata$r	ENDS
;	COMDAT ??_R0?AVTexture@Ogre@@@8
_DATA	SEGMENT
??_R0?AVTexture@Ogre@@@8 DD FLAT:??_7type_info@@6B@	; Ogre::Texture `RTTI Type Descriptor'
	DD	00H
	DB	'.?AVTexture@Ogre@@', 00H
_DATA	ENDS
;	COMDAT ??_R4Texture@Ogre@@6B@
rdata$r	SEGMENT
??_R4Texture@Ogre@@6B@ DD 00H				; Ogre::Texture::`RTTI Complete Object Locator'
	DD	00H
	DD	00H
	DD	FLAT:??_R0?AVTexture@Ogre@@@8
	DD	FLAT:??_R3Texture@Ogre@@8
rdata$r	ENDS
;	COMDAT ??_7Texture@Ogre@@6B@
CONST	SEGMENT
??_7Texture@Ogre@@6B@ DD FLAT:??_R4Texture@Ogre@@6B@	; Ogre::Texture::`vftable'
	DD	FLAT:?getRTTI@Texture@Ogre@@UBEPBVRuntimeClass@2@XZ
	DD	FLAT:?release@Resource@Ogre@@UAEXXZ
	DD	FLAT:?addRef@Resource@Ogre@@UAEXXZ
	DD	FLAT:?getRefCount@Resource@Ogre@@UAEHXZ
	DD	FLAT:?_serialize@BaseObject@Ogre@@UAEXAAVArchive@2@H@Z
	DD	FLAT:??_ETexture@Ogre@@MAEPAXI@Z
	DD	FLAT:?deleteThis@BaseObject@Ogre@@MAEXXZ
	DD	FLAT:__purecall
	DD	FLAT:__purecall
	DD	FLAT:__purecall
	DD	FLAT:__purecall
CONST	ENDS
;	COMDAT xdata$x
xdata$x	SEGMENT
__unwindtable$??1Texture@Ogre@@MAE@XZ DD 0ffffffffH
	DD	FLAT:__unwindfunclet$??1Texture@Ogre@@MAE@XZ$0
__ehfuncinfo$??1Texture@Ogre@@MAE@XZ DD 019930522H
	DD	01H
	DD	FLAT:__unwindtable$??1Texture@Ogre@@MAE@XZ
	DD	2 DUP(00H)
	DD	2 DUP(00H)
	DD	00H
	DD	00H
; Function compile flags: /Odtp
xdata$x	ENDS
;	COMDAT ??1Texture@Ogre@@MAE@XZ
_TEXT	SEGMENT
_this$ = -16						; size = 4
__$EHRec$ = -12						; size = 12
??1Texture@Ogre@@MAE@XZ PROC				; Ogre::Texture::~Texture, COMDAT
; _this$ = ecx

; 257  : 		{

	push	ebp
	mov	ebp, esp
	push	-1
	push	__ehhandler$??1Texture@Ogre@@MAE@XZ
	mov	eax, DWORD PTR fs:0
	push	eax
	push	ecx
	mov	eax, DWORD PTR ___security_cookie
	xor	eax, ebp
	push	eax
	lea	eax, DWORD PTR __$EHRec$[ebp]
	mov	DWORD PTR fs:0, eax
	mov	DWORD PTR _this$[ebp], ecx
	mov	eax, DWORD PTR _this$[ebp]
	mov	DWORD PTR [eax], OFFSET ??_7Texture@Ogre@@6B@
	mov	DWORD PTR __$EHRec$[ebp+8], 0

; 258  : 		}

	mov	DWORD PTR __$EHRec$[ebp+8], -1
	mov	ecx, DWORD PTR _this$[ebp]
	call	??1Resource@Ogre@@MAE@XZ		; Ogre::Resource::~Resource
	mov	ecx, DWORD PTR __$EHRec$[ebp]
	mov	DWORD PTR fs:0, ecx
	pop	ecx
	mov	esp, ebp
	pop	ebp
	ret	0
_TEXT	ENDS
;	COMDAT text$x
text$x	SEGMENT
__unwindfunclet$??1Texture@Ogre@@MAE@XZ$0:
	mov	ecx, DWORD PTR _this$[ebp]
	jmp	??1Resource@Ogre@@MAE@XZ		; Ogre::Resource::~Resource
__ehhandler$??1Texture@Ogre@@MAE@XZ:
	mov	edx, DWORD PTR [esp+8]
	lea	eax, DWORD PTR [edx+12]
	mov	ecx, DWORD PTR [edx-8]
	xor	ecx, eax
	call	@__security_check_cookie@4
	mov	eax, OFFSET __ehfuncinfo$??1Texture@Ogre@@MAE@XZ
	jmp	___CxxFrameHandler3
text$x	ENDS
??1Texture@Ogre@@MAE@XZ ENDP				; Ogre::Texture::~Texture
PUBLIC	??0Texture@Ogre@@QAE@XZ				; Ogre::Texture::Texture
;	COMDAT xdata$x
xdata$x	SEGMENT
__unwindtable$??0Texture@Ogre@@QAE@XZ DD 0ffffffffH
	DD	FLAT:__unwindfunclet$??0Texture@Ogre@@QAE@XZ$0
__ehfuncinfo$??0Texture@Ogre@@QAE@XZ DD 019930522H
	DD	01H
	DD	FLAT:__unwindtable$??0Texture@Ogre@@QAE@XZ
	DD	2 DUP(00H)
	DD	2 DUP(00H)
	DD	00H
	DD	00H
; Function compile flags: /Odtp
xdata$x	ENDS
;	COMDAT ??0Texture@Ogre@@QAE@XZ
_TEXT	SEGMENT
_this$ = -16						; size = 4
__$EHRec$ = -12						; size = 12
??0Texture@Ogre@@QAE@XZ PROC				; Ogre::Texture::Texture, COMDAT
; _this$ = ecx
	push	ebp
	mov	ebp, esp
	push	-1
	push	__ehhandler$??0Texture@Ogre@@QAE@XZ
	mov	eax, DWORD PTR fs:0
	push	eax
	push	ecx
	mov	eax, DWORD PTR ___security_cookie
	xor	eax, ebp
	push	eax
	lea	eax, DWORD PTR __$EHRec$[ebp]
	mov	DWORD PTR fs:0, eax
	mov	DWORD PTR _this$[ebp], ecx
	mov	ecx, DWORD PTR _this$[ebp]
	call	??0Resource@Ogre@@IAE@XZ		; Ogre::Resource::Resource
	mov	DWORD PTR __$EHRec$[ebp+8], 0
	mov	eax, DWORD PTR _this$[ebp]
	mov	DWORD PTR [eax], OFFSET ??_7Texture@Ogre@@6B@
	mov	DWORD PTR __$EHRec$[ebp+8], -1
	mov	eax, DWORD PTR _this$[ebp]
	mov	ecx, DWORD PTR __$EHRec$[ebp]
	mov	DWORD PTR fs:0, ecx
	pop	ecx
	mov	esp, ebp
	pop	ebp
	ret	0
_TEXT	ENDS
;	COMDAT text$x
text$x	SEGMENT
__unwindfunclet$??0Texture@Ogre@@QAE@XZ$0:
	mov	ecx, DWORD PTR _this$[ebp]
	jmp	??1Resource@Ogre@@MAE@XZ		; Ogre::Resource::~Resource
__ehhandler$??0Texture@Ogre@@QAE@XZ:
	mov	edx, DWORD PTR [esp+8]
	lea	eax, DWORD PTR [edx+12]
	mov	ecx, DWORD PTR [edx-8]
	xor	ecx, eax
	call	@__security_check_cookie@4
	mov	eax, OFFSET __ehfuncinfo$??0Texture@Ogre@@QAE@XZ
	jmp	___CxxFrameHandler3
text$x	ENDS
??0Texture@Ogre@@QAE@XZ ENDP				; Ogre::Texture::Texture
PUBLIC	??0Texture@Ogre@@QAE@ABV01@@Z			; Ogre::Texture::Texture
;	COMDAT xdata$x
xdata$x	SEGMENT
__unwindtable$??0Texture@Ogre@@QAE@ABV01@@Z DD 0ffffffffH
	DD	FLAT:__unwindfunclet$??0Texture@Ogre@@QAE@ABV01@@Z$0
__ehfuncinfo$??0Texture@Ogre@@QAE@ABV01@@Z DD 019930522H
	DD	01H
	DD	FLAT:__unwindtable$??0Texture@Ogre@@QAE@ABV01@@Z
	DD	2 DUP(00H)
	DD	2 DUP(00H)
	DD	00H
	DD	00H
; Function compile flags: /Odtp
xdata$x	ENDS
;	COMDAT ??0Texture@Ogre@@QAE@ABV01@@Z
_TEXT	SEGMENT
_this$ = -16						; size = 4
__$EHRec$ = -12						; size = 12
___that$ = 8						; size = 4
??0Texture@Ogre@@QAE@ABV01@@Z PROC			; Ogre::Texture::Texture, COMDAT
; _this$ = ecx
	push	ebp
	mov	ebp, esp
	push	-1
	push	__ehhandler$??0Texture@Ogre@@QAE@ABV01@@Z
	mov	eax, DWORD PTR fs:0
	push	eax
	push	ecx
	mov	eax, DWORD PTR ___security_cookie
	xor	eax, ebp
	push	eax
	lea	eax, DWORD PTR __$EHRec$[ebp]
	mov	DWORD PTR fs:0, eax
	mov	DWORD PTR _this$[ebp], ecx
	mov	eax, DWORD PTR ___that$[ebp]
	push	eax
	mov	ecx, DWORD PTR _this$[ebp]
	call	??0Resource@Ogre@@QAE@ABV01@@Z
	mov	DWORD PTR __$EHRec$[ebp+8], 0
	mov	ecx, DWORD PTR _this$[ebp]
	mov	DWORD PTR [ecx], OFFSET ??_7Texture@Ogre@@6B@
	mov	DWORD PTR __$EHRec$[ebp+8], -1
	mov	eax, DWORD PTR _this$[ebp]
	mov	ecx, DWORD PTR __$EHRec$[ebp]
	mov	DWORD PTR fs:0, ecx
	pop	ecx
	mov	esp, ebp
	pop	ebp
	ret	4
_TEXT	ENDS
;	COMDAT text$x
text$x	SEGMENT
__unwindfunclet$??0Texture@Ogre@@QAE@ABV01@@Z$0:
	mov	ecx, DWORD PTR _this$[ebp]
	jmp	??1Resource@Ogre@@MAE@XZ		; Ogre::Resource::~Resource
__ehhandler$??0Texture@Ogre@@QAE@ABV01@@Z:
	mov	edx, DWORD PTR [esp+8]
	lea	eax, DWORD PTR [edx+12]
	mov	ecx, DWORD PTR [edx-8]
	xor	ecx, eax
	call	@__security_check_cookie@4
	mov	eax, OFFSET __ehfuncinfo$??0Texture@Ogre@@QAE@ABV01@@Z
	jmp	___CxxFrameHandler3
text$x	ENDS
??0Texture@Ogre@@QAE@ABV01@@Z ENDP			; Ogre::Texture::Texture
PUBLIC	??4Texture@Ogre@@QAEAAV01@ABV01@@Z		; Ogre::Texture::operator=
; Function compile flags: /Odtp
;	COMDAT ??4Texture@Ogre@@QAEAAV01@ABV01@@Z
_TEXT	SEGMENT
_this$ = -4						; size = 4
___that$ = 8						; size = 4
??4Texture@Ogre@@QAEAAV01@ABV01@@Z PROC			; Ogre::Texture::operator=, COMDAT
; _this$ = ecx
	push	ebp
	mov	ebp, esp
	push	ecx
	mov	DWORD PTR _this$[ebp], ecx
	mov	eax, DWORD PTR ___that$[ebp]
	push	eax
	mov	ecx, DWORD PTR _this$[ebp]
	call	??4Resource@Ogre@@QAEAAV01@ABV01@@Z
	mov	eax, DWORD PTR _this$[ebp]
	mov	esp, ebp
	pop	ebp
	ret	4
??4Texture@Ogre@@QAEAAV01@ABV01@@Z ENDP			; Ogre::Texture::operator=
_TEXT	ENDS
PUBLIC	??_GTexture@Ogre@@MAEPAXI@Z			; Ogre::Texture::`scalar deleting destructor'
; Function compile flags: /Odtp
;	COMDAT ??_GTexture@Ogre@@MAEPAXI@Z
_TEXT	SEGMENT
_this$ = -4						; size = 4
___flags$ = 8						; size = 4
??_GTexture@Ogre@@MAEPAXI@Z PROC			; Ogre::Texture::`scalar deleting destructor', COMDAT
; _this$ = ecx
	push	ebp
	mov	ebp, esp
	push	ecx
	mov	DWORD PTR _this$[ebp], ecx
	mov	ecx, DWORD PTR _this$[ebp]
	call	??1Texture@Ogre@@MAE@XZ			; Ogre::Texture::~Texture
	mov	eax, DWORD PTR ___flags$[ebp]
	and	eax, 1
	je	SHORT $LN1@scalar@15
	push	16					; 00000010H
	mov	ecx, DWORD PTR _this$[ebp]
	push	ecx
	call	??3MemoryDelegation@Ogre@@SAXPAXI@Z	; Ogre::MemoryDelegation::operator delete
	add	esp, 8
$LN1@scalar@15:
	mov	eax, DWORD PTR _this$[ebp]
	mov	esp, ebp
	pop	ebp
	ret	4
??_GTexture@Ogre@@MAEPAXI@Z ENDP			; Ogre::Texture::`scalar deleting destructor'
; Function compile flags: /Odtp
_TEXT	ENDS
;	COMDAT ??_ETexture@Ogre@@MAEPAXI@Z
_TEXT	SEGMENT
_this$ = -4						; size = 4
___flags$ = 8						; size = 4
??_ETexture@Ogre@@MAEPAXI@Z PROC			; Ogre::Texture::`vector deleting destructor', COMDAT
; _this$ = ecx
	push	ebp
	mov	ebp, esp
	push	ecx
	mov	DWORD PTR _this$[ebp], ecx
	mov	eax, DWORD PTR ___flags$[ebp]
	and	eax, 2
	je	SHORT $LN3@vector@15
	push	OFFSET ??1Texture@Ogre@@MAE@XZ		; Ogre::Texture::~Texture
	mov	ecx, DWORD PTR _this$[ebp]
	mov	edx, DWORD PTR [ecx-4]
	push	edx
	push	16					; 00000010H
	mov	eax, DWORD PTR _this$[ebp]
	push	eax
	call	??_M@YGXPAXIHP6EX0@Z@Z
	mov	ecx, DWORD PTR ___flags$[ebp]
	and	ecx, 1
	je	SHORT $LN2@vector@15
	push	16					; 00000010H
	mov	edx, DWORD PTR _this$[ebp]
	sub	edx, 4
	push	edx
	call	??_VMemoryDelegation@Ogre@@SAXPAXI@Z	; Ogre::MemoryDelegation::operator delete[]
	add	esp, 8
$LN2@vector@15:
	mov	eax, DWORD PTR _this$[ebp]
	sub	eax, 4
	jmp	SHORT $LN4@vector@15
$LN3@vector@15:
	mov	ecx, DWORD PTR _this$[ebp]
	call	??1Texture@Ogre@@MAE@XZ			; Ogre::Texture::~Texture
	mov	eax, DWORD PTR ___flags$[ebp]
	and	eax, 1
	je	SHORT $LN1@vector@15
	push	16					; 00000010H
	mov	ecx, DWORD PTR _this$[ebp]
	push	ecx
	call	??3MemoryDelegation@Ogre@@SAXPAXI@Z	; Ogre::MemoryDelegation::operator delete
	add	esp, 8
$LN1@vector@15:
	mov	eax, DWORD PTR _this$[ebp]
$LN4@vector@15:
	mov	esp, ebp
	pop	ebp
	ret	4
??_ETexture@Ogre@@MAEPAXI@Z ENDP			; Ogre::Texture::`vector deleting destructor'
_TEXT	ENDS
PUBLIC	??__G@YGXPAX0IHP6EPAX00@Z@Z			; `vector copy constructor iterator'
PUBLIC	??0ShaderEnvData@Ogre@@QAE@ABU01@@Z		; Ogre::ShaderEnvData::ShaderEnvData
; Function compile flags: /Odtp
;	COMDAT ??0ShaderEnvData@Ogre@@QAE@ABU01@@Z
_TEXT	SEGMENT
_this$ = -4						; size = 4
___that$ = 8						; size = 4
??0ShaderEnvData@Ogre@@QAE@ABU01@@Z PROC		; Ogre::ShaderEnvData::ShaderEnvData, COMDAT
; _this$ = ecx
	push	ebp
	mov	ebp, esp
	push	ecx
	push	esi
	push	edi
	mov	DWORD PTR _this$[ebp], ecx
	mov	eax, DWORD PTR ___that$[ebp]
	mov	ecx, DWORD PTR [eax]
	mov	edx, DWORD PTR [eax+4]
	mov	eax, DWORD PTR _this$[ebp]
	mov	DWORD PTR [eax], ecx
	mov	DWORD PTR [eax+4], edx
	mov	esi, DWORD PTR ___that$[ebp]
	add	esi, 8
	mov	edi, DWORD PTR _this$[ebp]
	add	edi, 8
	mov	ecx, 32					; 00000020H
	rep movsd
	mov	ecx, DWORD PTR ___that$[ebp]
	add	ecx, 136				; 00000088H
	mov	edx, DWORD PTR _this$[ebp]
	add	edx, 136				; 00000088H
	mov	eax, DWORD PTR [ecx]
	mov	DWORD PTR [edx], eax
	mov	eax, DWORD PTR [ecx+4]
	mov	DWORD PTR [edx+4], eax
	mov	eax, DWORD PTR [ecx+8]
	mov	DWORD PTR [edx+8], eax
	mov	ecx, DWORD PTR [ecx+12]
	mov	DWORD PTR [edx+12], ecx
	mov	edx, DWORD PTR ___that$[ebp]
	add	edx, 152				; 00000098H
	mov	eax, DWORD PTR _this$[ebp]
	add	eax, 152				; 00000098H
	mov	ecx, DWORD PTR [edx]
	mov	DWORD PTR [eax], ecx
	mov	ecx, DWORD PTR [edx+4]
	mov	DWORD PTR [eax+4], ecx
	mov	ecx, DWORD PTR [edx+8]
	mov	DWORD PTR [eax+8], ecx
	mov	edx, DWORD PTR [edx+12]
	mov	DWORD PTR [eax+12], edx
	mov	eax, DWORD PTR ___that$[ebp]
	add	eax, 168				; 000000a8H
	mov	ecx, DWORD PTR _this$[ebp]
	add	ecx, 168				; 000000a8H
	mov	edx, DWORD PTR [eax]
	mov	DWORD PTR [ecx], edx
	mov	edx, DWORD PTR [eax+4]
	mov	DWORD PTR [ecx+4], edx
	mov	edx, DWORD PTR [eax+8]
	mov	DWORD PTR [ecx+8], edx
	mov	eax, DWORD PTR [eax+12]
	mov	DWORD PTR [ecx+12], eax
	mov	ecx, DWORD PTR ___that$[ebp]
	add	ecx, 184				; 000000b8H
	mov	edx, DWORD PTR _this$[ebp]
	add	edx, 184				; 000000b8H
	mov	eax, DWORD PTR [ecx]
	mov	DWORD PTR [edx], eax
	mov	eax, DWORD PTR [ecx+4]
	mov	DWORD PTR [edx+4], eax
	mov	eax, DWORD PTR [ecx+8]
	mov	DWORD PTR [edx+8], eax
	mov	ecx, DWORD PTR [ecx+12]
	mov	DWORD PTR [edx+12], ecx
	mov	edx, DWORD PTR ___that$[ebp]
	add	edx, 200				; 000000c8H
	mov	eax, DWORD PTR _this$[ebp]
	add	eax, 200				; 000000c8H
	mov	ecx, DWORD PTR [edx]
	mov	DWORD PTR [eax], ecx
	mov	ecx, DWORD PTR [edx+4]
	mov	DWORD PTR [eax+4], ecx
	mov	ecx, DWORD PTR [edx+8]
	mov	DWORD PTR [eax+8], ecx
	mov	edx, DWORD PTR [edx+12]
	mov	DWORD PTR [eax+12], edx
	mov	eax, DWORD PTR _this$[ebp]
	mov	ecx, DWORD PTR ___that$[ebp]
	mov	edx, DWORD PTR [ecx+216]
	mov	DWORD PTR [eax+216], edx
	mov	eax, DWORD PTR _this$[ebp]
	mov	ecx, DWORD PTR ___that$[ebp]
	mov	edx, DWORD PTR [ecx+220]
	mov	DWORD PTR [eax+220], edx
	mov	eax, DWORD PTR _this$[ebp]
	mov	ecx, DWORD PTR ___that$[ebp]
	mov	edx, DWORD PTR [ecx+224]
	mov	DWORD PTR [eax+224], edx
	mov	eax, DWORD PTR _this$[ebp]
	mov	ecx, DWORD PTR ___that$[ebp]
	mov	edx, DWORD PTR [ecx+228]
	mov	DWORD PTR [eax+228], edx
	mov	eax, DWORD PTR ___that$[ebp]
	add	eax, 232				; 000000e8H
	push	eax
	mov	ecx, DWORD PTR _this$[ebp]
	add	ecx, 232				; 000000e8H
	call	??0Vector3@Ogre@@QAE@ABV01@@Z		; Ogre::Vector3::Vector3
	mov	ecx, DWORD PTR ___that$[ebp]
	add	ecx, 244				; 000000f4H
	push	ecx
	mov	ecx, DWORD PTR _this$[ebp]
	add	ecx, 244				; 000000f4H
	call	??0Matrix4@Ogre@@QAE@ABV01@@Z		; Ogre::Matrix4::Matrix4
	mov	edx, DWORD PTR ___that$[ebp]
	add	edx, 308				; 00000134H
	push	edx
	mov	ecx, DWORD PTR _this$[ebp]
	add	ecx, 308				; 00000134H
	call	??0Matrix4@Ogre@@QAE@ABV01@@Z		; Ogre::Matrix4::Matrix4
	mov	eax, DWORD PTR ___that$[ebp]
	add	eax, 372				; 00000174H
	push	eax
	mov	ecx, DWORD PTR _this$[ebp]
	add	ecx, 372				; 00000174H
	call	??0Matrix4@Ogre@@QAE@ABV01@@Z		; Ogre::Matrix4::Matrix4
	mov	ecx, DWORD PTR _this$[ebp]
	mov	edx, DWORD PTR ___that$[ebp]
	fld	DWORD PTR [edx+436]
	fstp	DWORD PTR [ecx+436]
	push	OFFSET ??0Matrix4@Ogre@@QAE@ABV01@@Z	; Ogre::Matrix4::Matrix4
	push	8
	push	64					; 00000040H
	mov	eax, DWORD PTR ___that$[ebp]
	add	eax, 440				; 000001b8H
	push	eax
	mov	ecx, DWORD PTR _this$[ebp]
	add	ecx, 440				; 000001b8H
	push	ecx
	call	??__G@YGXPAX0IHP6EPAX00@Z@Z
	mov	edx, DWORD PTR ___that$[ebp]
	add	edx, 952				; 000003b8H
	push	edx
	mov	ecx, DWORD PTR _this$[ebp]
	add	ecx, 952				; 000003b8H
	call	??0Matrix4@Ogre@@QAE@ABV01@@Z		; Ogre::Matrix4::Matrix4
	mov	eax, DWORD PTR ___that$[ebp]
	add	eax, 1016				; 000003f8H
	push	eax
	mov	ecx, DWORD PTR _this$[ebp]
	add	ecx, 1016				; 000003f8H
	call	??0Matrix4@Ogre@@QAE@ABV01@@Z		; Ogre::Matrix4::Matrix4
	mov	ecx, DWORD PTR ___that$[ebp]
	add	ecx, 1080				; 00000438H
	push	ecx
	mov	ecx, DWORD PTR _this$[ebp]
	add	ecx, 1080				; 00000438H
	call	??0Matrix4@Ogre@@QAE@ABV01@@Z		; Ogre::Matrix4::Matrix4
	mov	edx, DWORD PTR ___that$[ebp]
	add	edx, 1144				; 00000478H
	push	edx
	mov	ecx, DWORD PTR _this$[ebp]
	add	ecx, 1144				; 00000478H
	call	??0Vector3@Ogre@@QAE@ABV01@@Z		; Ogre::Vector3::Vector3
	mov	eax, DWORD PTR ___that$[ebp]
	add	eax, 1156				; 00000484H
	mov	ecx, DWORD PTR _this$[ebp]
	add	ecx, 1156				; 00000484H
	mov	edx, DWORD PTR [eax]
	mov	DWORD PTR [ecx], edx
	mov	edx, DWORD PTR [eax+4]
	mov	DWORD PTR [ecx+4], edx
	mov	edx, DWORD PTR [eax+8]
	mov	DWORD PTR [ecx+8], edx
	mov	eax, DWORD PTR [eax+12]
	mov	DWORD PTR [ecx+12], eax
	mov	esi, DWORD PTR ___that$[ebp]
	add	esi, 1172				; 00000494H
	mov	edi, DWORD PTR _this$[ebp]
	add	edi, 1172				; 00000494H
	mov	ecx, 16					; 00000010H
	rep movsd
	mov	ecx, DWORD PTR ___that$[ebp]
	add	ecx, 1236				; 000004d4H
	push	ecx
	mov	ecx, DWORD PTR _this$[ebp]
	add	ecx, 1236				; 000004d4H
	call	??0Vector3@Ogre@@QAE@ABV01@@Z		; Ogre::Vector3::Vector3
	mov	edx, DWORD PTR ___that$[ebp]
	add	edx, 1248				; 000004e0H
	push	edx
	mov	ecx, DWORD PTR _this$[ebp]
	add	ecx, 1248				; 000004e0H
	call	??0Vector3@Ogre@@QAE@ABV01@@Z		; Ogre::Vector3::Vector3
	mov	eax, DWORD PTR _this$[ebp]
	pop	edi
	pop	esi
	mov	esp, ebp
	pop	ebp
	ret	4
??0ShaderEnvData@Ogre@@QAE@ABU01@@Z ENDP		; Ogre::ShaderEnvData::ShaderEnvData
_TEXT	ENDS
PUBLIC	??4Vector4@Ogre@@QAEABV01@ABV01@@Z		; Ogre::Vector4::operator=
PUBLIC	??4SED_LightData@Ogre@@QAEAAU01@ABU01@@Z	; Ogre::SED_LightData::operator=
PUBLIC	??4ShaderEnvData@Ogre@@QAEAAU01@ABU01@@Z	; Ogre::ShaderEnvData::operator=
; Function compile flags: /Odtp
;	COMDAT ??4ShaderEnvData@Ogre@@QAEAAU01@ABU01@@Z
_TEXT	SEGMENT
_this$ = -16						; size = 4
_$S3$59680 = -12					; size = 4
_$S2$59676 = -8						; size = 4
_$S1$59672 = -4						; size = 4
___that$ = 8						; size = 4
??4ShaderEnvData@Ogre@@QAEAAU01@ABU01@@Z PROC		; Ogre::ShaderEnvData::operator=, COMDAT
; _this$ = ecx
	push	ebp
	mov	ebp, esp
	sub	esp, 16					; 00000010H
	push	esi
	mov	DWORD PTR _this$[ebp], ecx
	mov	eax, DWORD PTR ___that$[ebp]
	mov	ecx, DWORD PTR [eax]
	mov	edx, DWORD PTR [eax+4]
	mov	eax, DWORD PTR _this$[ebp]
	mov	DWORD PTR [eax], ecx
	mov	DWORD PTR [eax+4], edx
	mov	DWORD PTR _$S1$59672[ebp], 0
	jmp	SHORT $LN9@operator@6
$LN8@operator@6:
	mov	ecx, DWORD PTR _$S1$59672[ebp]
	add	ecx, 1
	mov	DWORD PTR _$S1$59672[ebp], ecx
$LN9@operator@6:
	cmp	DWORD PTR _$S1$59672[ebp], 4
	jae	SHORT $LN7@operator@6
	mov	edx, DWORD PTR _$S1$59672[ebp]
	shl	edx, 5
	mov	eax, DWORD PTR ___that$[ebp]
	lea	ecx, DWORD PTR [eax+edx+8]
	push	ecx
	mov	edx, DWORD PTR _$S1$59672[ebp]
	shl	edx, 5
	mov	eax, DWORD PTR _this$[ebp]
	lea	ecx, DWORD PTR [eax+edx+8]
	call	??4SED_LightData@Ogre@@QAEAAU01@ABU01@@Z
	jmp	SHORT $LN8@operator@6
$LN7@operator@6:
	mov	ecx, DWORD PTR ___that$[ebp]
	add	ecx, 136				; 00000088H
	mov	edx, DWORD PTR _this$[ebp]
	add	edx, 136				; 00000088H
	mov	eax, DWORD PTR [ecx]
	mov	DWORD PTR [edx], eax
	mov	eax, DWORD PTR [ecx+4]
	mov	DWORD PTR [edx+4], eax
	mov	eax, DWORD PTR [ecx+8]
	mov	DWORD PTR [edx+8], eax
	mov	ecx, DWORD PTR [ecx+12]
	mov	DWORD PTR [edx+12], ecx
	mov	edx, DWORD PTR ___that$[ebp]
	add	edx, 152				; 00000098H
	mov	eax, DWORD PTR _this$[ebp]
	add	eax, 152				; 00000098H
	mov	ecx, DWORD PTR [edx]
	mov	DWORD PTR [eax], ecx
	mov	ecx, DWORD PTR [edx+4]
	mov	DWORD PTR [eax+4], ecx
	mov	ecx, DWORD PTR [edx+8]
	mov	DWORD PTR [eax+8], ecx
	mov	edx, DWORD PTR [edx+12]
	mov	DWORD PTR [eax+12], edx
	mov	eax, DWORD PTR ___that$[ebp]
	add	eax, 168				; 000000a8H
	push	eax
	mov	ecx, DWORD PTR _this$[ebp]
	add	ecx, 168				; 000000a8H
	call	??4Vector4@Ogre@@QAEABV01@ABV01@@Z	; Ogre::Vector4::operator=
	mov	ecx, DWORD PTR ___that$[ebp]
	add	ecx, 184				; 000000b8H
	mov	edx, DWORD PTR _this$[ebp]
	add	edx, 184				; 000000b8H
	mov	eax, DWORD PTR [ecx]
	mov	DWORD PTR [edx], eax
	mov	eax, DWORD PTR [ecx+4]
	mov	DWORD PTR [edx+4], eax
	mov	eax, DWORD PTR [ecx+8]
	mov	DWORD PTR [edx+8], eax
	mov	ecx, DWORD PTR [ecx+12]
	mov	DWORD PTR [edx+12], ecx
	mov	edx, DWORD PTR ___that$[ebp]
	add	edx, 200				; 000000c8H
	mov	eax, DWORD PTR _this$[ebp]
	add	eax, 200				; 000000c8H
	mov	ecx, DWORD PTR [edx]
	mov	DWORD PTR [eax], ecx
	mov	ecx, DWORD PTR [edx+4]
	mov	DWORD PTR [eax+4], ecx
	mov	ecx, DWORD PTR [edx+8]
	mov	DWORD PTR [eax+8], ecx
	mov	edx, DWORD PTR [edx+12]
	mov	DWORD PTR [eax+12], edx
	mov	eax, DWORD PTR _this$[ebp]
	mov	ecx, DWORD PTR ___that$[ebp]
	mov	edx, DWORD PTR [ecx+216]
	mov	DWORD PTR [eax+216], edx
	mov	eax, DWORD PTR _this$[ebp]
	mov	ecx, DWORD PTR ___that$[ebp]
	mov	edx, DWORD PTR [ecx+220]
	mov	DWORD PTR [eax+220], edx
	mov	eax, DWORD PTR _this$[ebp]
	mov	ecx, DWORD PTR ___that$[ebp]
	mov	edx, DWORD PTR [ecx+224]
	mov	DWORD PTR [eax+224], edx
	mov	eax, DWORD PTR _this$[ebp]
	mov	ecx, DWORD PTR ___that$[ebp]
	mov	edx, DWORD PTR [ecx+228]
	mov	DWORD PTR [eax+228], edx
	mov	eax, DWORD PTR ___that$[ebp]
	add	eax, 232				; 000000e8H
	push	eax
	mov	ecx, DWORD PTR _this$[ebp]
	add	ecx, 232				; 000000e8H
	call	??4Vector3@Ogre@@QAEABV01@ABV01@@Z	; Ogre::Vector3::operator=
	mov	ecx, DWORD PTR ___that$[ebp]
	add	ecx, 244				; 000000f4H
	push	ecx
	mov	ecx, DWORD PTR _this$[ebp]
	add	ecx, 244				; 000000f4H
	call	??4Matrix4@Ogre@@QAEABV01@ABV01@@Z	; Ogre::Matrix4::operator=
	mov	edx, DWORD PTR ___that$[ebp]
	add	edx, 308				; 00000134H
	push	edx
	mov	ecx, DWORD PTR _this$[ebp]
	add	ecx, 308				; 00000134H
	call	??4Matrix4@Ogre@@QAEABV01@ABV01@@Z	; Ogre::Matrix4::operator=
	mov	eax, DWORD PTR ___that$[ebp]
	add	eax, 372				; 00000174H
	push	eax
	mov	ecx, DWORD PTR _this$[ebp]
	add	ecx, 372				; 00000174H
	call	??4Matrix4@Ogre@@QAEABV01@ABV01@@Z	; Ogre::Matrix4::operator=
	mov	ecx, DWORD PTR _this$[ebp]
	mov	edx, DWORD PTR ___that$[ebp]
	fld	DWORD PTR [edx+436]
	fstp	DWORD PTR [ecx+436]
	mov	DWORD PTR _$S2$59676[ebp], 0
	jmp	SHORT $LN6@operator@6
$LN5@operator@6:
	mov	eax, DWORD PTR _$S2$59676[ebp]
	add	eax, 1
	mov	DWORD PTR _$S2$59676[ebp], eax
$LN6@operator@6:
	cmp	DWORD PTR _$S2$59676[ebp], 8
	jae	SHORT $LN4@operator@6
	mov	ecx, DWORD PTR _$S2$59676[ebp]
	shl	ecx, 6
	mov	edx, DWORD PTR ___that$[ebp]
	lea	eax, DWORD PTR [edx+ecx+440]
	push	eax
	mov	ecx, DWORD PTR _$S2$59676[ebp]
	shl	ecx, 6
	mov	edx, DWORD PTR _this$[ebp]
	lea	ecx, DWORD PTR [edx+ecx+440]
	call	??4Matrix4@Ogre@@QAEABV01@ABV01@@Z	; Ogre::Matrix4::operator=
	jmp	SHORT $LN5@operator@6
$LN4@operator@6:
	mov	eax, DWORD PTR ___that$[ebp]
	add	eax, 952				; 000003b8H
	push	eax
	mov	ecx, DWORD PTR _this$[ebp]
	add	ecx, 952				; 000003b8H
	call	??4Matrix4@Ogre@@QAEABV01@ABV01@@Z	; Ogre::Matrix4::operator=
	mov	ecx, DWORD PTR ___that$[ebp]
	add	ecx, 1016				; 000003f8H
	push	ecx
	mov	ecx, DWORD PTR _this$[ebp]
	add	ecx, 1016				; 000003f8H
	call	??4Matrix4@Ogre@@QAEABV01@ABV01@@Z	; Ogre::Matrix4::operator=
	mov	edx, DWORD PTR ___that$[ebp]
	add	edx, 1080				; 00000438H
	push	edx
	mov	ecx, DWORD PTR _this$[ebp]
	add	ecx, 1080				; 00000438H
	call	??4Matrix4@Ogre@@QAEABV01@ABV01@@Z	; Ogre::Matrix4::operator=
	mov	eax, DWORD PTR ___that$[ebp]
	add	eax, 1144				; 00000478H
	push	eax
	mov	ecx, DWORD PTR _this$[ebp]
	add	ecx, 1144				; 00000478H
	call	??4Vector3@Ogre@@QAEABV01@ABV01@@Z	; Ogre::Vector3::operator=
	mov	ecx, DWORD PTR ___that$[ebp]
	add	ecx, 1156				; 00000484H
	push	ecx
	mov	ecx, DWORD PTR _this$[ebp]
	add	ecx, 1156				; 00000484H
	call	??4Vector4@Ogre@@QAEABV01@ABV01@@Z	; Ogre::Vector4::operator=
	mov	DWORD PTR _$S3$59680[ebp], 0
	jmp	SHORT $LN3@operator@6
$LN2@operator@6:
	mov	edx, DWORD PTR _$S3$59680[ebp]
	add	edx, 1
	mov	DWORD PTR _$S3$59680[ebp], edx
$LN3@operator@6:
	cmp	DWORD PTR _$S3$59680[ebp], 16		; 00000010H
	jae	SHORT $LN1@operator@6
	mov	eax, DWORD PTR _$S3$59680[ebp]
	mov	ecx, DWORD PTR _this$[ebp]
	mov	edx, DWORD PTR _$S3$59680[ebp]
	mov	esi, DWORD PTR ___that$[ebp]
	fld	DWORD PTR [esi+edx*4+1172]
	fstp	DWORD PTR [ecx+eax*4+1172]
	jmp	SHORT $LN2@operator@6
$LN1@operator@6:
	mov	eax, DWORD PTR ___that$[ebp]
	add	eax, 1236				; 000004d4H
	push	eax
	mov	ecx, DWORD PTR _this$[ebp]
	add	ecx, 1236				; 000004d4H
	call	??4Vector3@Ogre@@QAEABV01@ABV01@@Z	; Ogre::Vector3::operator=
	mov	ecx, DWORD PTR ___that$[ebp]
	add	ecx, 1248				; 000004e0H
	push	ecx
	mov	ecx, DWORD PTR _this$[ebp]
	add	ecx, 1248				; 000004e0H
	call	??4Vector3@Ogre@@QAEABV01@ABV01@@Z	; Ogre::Vector3::operator=
	mov	eax, DWORD PTR _this$[ebp]
	pop	esi
	mov	esp, ebp
	pop	ebp
	ret	4
??4ShaderEnvData@Ogre@@QAEAAU01@ABU01@@Z ENDP		; Ogre::ShaderEnvData::operator=
; Function compile flags: /Odtp
; File i:\svnroot\client\ogremain\ogrevector4.h
_TEXT	ENDS
;	COMDAT ??4Vector4@Ogre@@QAEABV01@ABV01@@Z
_TEXT	SEGMENT
_this$ = -4						; size = 4
_vec$ = 8						; size = 4
??4Vector4@Ogre@@QAEABV01@ABV01@@Z PROC			; Ogre::Vector4::operator=, COMDAT
; _this$ = ecx

; 49   : 		{

	push	ebp
	mov	ebp, esp
	push	ecx
	mov	DWORD PTR _this$[ebp], ecx

; 50   : 			x = vec.x;

	mov	eax, DWORD PTR _this$[ebp]
	mov	ecx, DWORD PTR _vec$[ebp]
	fld	DWORD PTR [ecx]
	fstp	DWORD PTR [eax]

; 51   : 			y = vec.y;

	mov	edx, DWORD PTR _this$[ebp]
	mov	eax, DWORD PTR _vec$[ebp]
	fld	DWORD PTR [eax+4]
	fstp	DWORD PTR [edx+4]

; 52   : 			z = vec.z;

	mov	ecx, DWORD PTR _this$[ebp]
	mov	edx, DWORD PTR _vec$[ebp]
	fld	DWORD PTR [edx+8]
	fstp	DWORD PTR [ecx+8]

; 53   : 			w = vec.w;

	mov	eax, DWORD PTR _this$[ebp]
	mov	ecx, DWORD PTR _vec$[ebp]
	fld	DWORD PTR [ecx+12]
	fstp	DWORD PTR [eax+12]

; 54   : 			return *this;

	mov	eax, DWORD PTR _this$[ebp]

; 55   : 		}

	mov	esp, ebp
	pop	ebp
	ret	4
??4Vector4@Ogre@@QAEABV01@ABV01@@Z ENDP			; Ogre::Vector4::operator=
; Function compile flags: /Odtp
_TEXT	ENDS
;	COMDAT ??4SED_LightData@Ogre@@QAEAAU01@ABU01@@Z
_TEXT	SEGMENT
_this$ = -4						; size = 4
___that$ = 8						; size = 4
??4SED_LightData@Ogre@@QAEAAU01@ABU01@@Z PROC		; Ogre::SED_LightData::operator=, COMDAT
; _this$ = ecx
	push	ebp
	mov	ebp, esp
	push	ecx
	mov	DWORD PTR _this$[ebp], ecx
	mov	eax, DWORD PTR ___that$[ebp]
	mov	ecx, DWORD PTR _this$[ebp]
	mov	edx, DWORD PTR [eax]
	mov	DWORD PTR [ecx], edx
	mov	edx, DWORD PTR [eax+4]
	mov	DWORD PTR [ecx+4], edx
	mov	edx, DWORD PTR [eax+8]
	mov	DWORD PTR [ecx+8], edx
	mov	eax, DWORD PTR [eax+12]
	mov	DWORD PTR [ecx+12], eax
	mov	ecx, DWORD PTR ___that$[ebp]
	add	ecx, 16					; 00000010H
	push	ecx
	mov	ecx, DWORD PTR _this$[ebp]
	add	ecx, 16					; 00000010H
	call	??4Vector4@Ogre@@QAEABV01@ABV01@@Z	; Ogre::Vector4::operator=
	mov	eax, DWORD PTR _this$[ebp]
	mov	esp, ebp
	pop	ebp
	ret	4
??4SED_LightData@Ogre@@QAEAAU01@ABU01@@Z ENDP		; Ogre::SED_LightData::operator=
; Function compile flags: /Odtp
_TEXT	ENDS
;	COMDAT ??__G@YGXPAX0IHP6EPAX00@Z@Z
_TEXT	SEGMENT
___t$ = 8						; size = 4
___u$ = 12						; size = 4
___s$ = 16						; size = 4
___n$ = 20						; size = 4
___f$ = 24						; size = 4
??__G@YGXPAX0IHP6EPAX00@Z@Z PROC			; `vector copy constructor iterator', COMDAT
	push	ebp
	mov	ebp, esp
$LN2@vector@16:
	mov	eax, DWORD PTR ___n$[ebp]
	sub	eax, 1
	mov	DWORD PTR ___n$[ebp], eax
	js	SHORT $LN3@vector@16
	mov	ecx, DWORD PTR ___u$[ebp]
	push	ecx
	mov	ecx, DWORD PTR ___t$[ebp]
	call	DWORD PTR ___f$[ebp]
	mov	edx, DWORD PTR ___t$[ebp]
	add	edx, DWORD PTR ___s$[ebp]
	mov	DWORD PTR ___t$[ebp], edx
	mov	eax, DWORD PTR ___u$[ebp]
	add	eax, DWORD PTR ___s$[ebp]
	mov	DWORD PTR ___u$[ebp], eax
	jmp	SHORT $LN2@vector@16
$LN3@vector@16:
	pop	ebp
	ret	20					; 00000014H
??__G@YGXPAX0IHP6EPAX00@Z@Z ENDP			; `vector copy constructor iterator'
_TEXT	ENDS
PUBLIC	??0FogEffect@Ogre@@QAE@W4FOG_TYPE@1@@Z		; Ogre::FogEffect::FogEffect
xdata$x	SEGMENT
__unwindtable$??0FogEffect@Ogre@@QAE@W4FOG_TYPE@1@@Z DD 0ffffffffH
	DD	FLAT:__unwindfunclet$??0FogEffect@Ogre@@QAE@W4FOG_TYPE@1@@Z$0
__ehfuncinfo$??0FogEffect@Ogre@@QAE@W4FOG_TYPE@1@@Z DD 019930522H
	DD	01H
	DD	FLAT:__unwindtable$??0FogEffect@Ogre@@QAE@W4FOG_TYPE@1@@Z
	DD	2 DUP(00H)
	DD	2 DUP(00H)
	DD	00H
	DD	00H
; Function compile flags: /Odtp
; File i:\svnroot\client\ogremain\ogrefog.cpp
xdata$x	ENDS
_TEXT	SEGMENT
_this$ = -16						; size = 4
__$EHRec$ = -12						; size = 12
_type$ = 8						; size = 4
??0FogEffect@Ogre@@QAE@W4FOG_TYPE@1@@Z PROC		; Ogre::FogEffect::FogEffect
; _this$ = ecx

; 9    : 	{

	push	ebp
	mov	ebp, esp
	push	-1
	push	__ehhandler$??0FogEffect@Ogre@@QAE@W4FOG_TYPE@1@@Z
	mov	eax, DWORD PTR fs:0
	push	eax
	push	ecx
	mov	eax, DWORD PTR ___security_cookie
	xor	eax, ebp
	push	eax
	lea	eax, DWORD PTR __$EHRec$[ebp]
	mov	DWORD PTR fs:0, eax
	mov	DWORD PTR _this$[ebp], ecx
	mov	ecx, DWORD PTR _this$[ebp]
	call	??0EffectObject@Ogre@@QAE@XZ		; Ogre::EffectObject::EffectObject
	mov	DWORD PTR __$EHRec$[ebp+8], 0
	mov	eax, DWORD PTR _this$[ebp]
	mov	DWORD PTR [eax], OFFSET ??_7FogEffect@Ogre@@6B@
	mov	ecx, DWORD PTR _this$[ebp]
	mov	edx, DWORD PTR _type$[ebp]
	mov	DWORD PTR [ecx+216], edx
	push	ecx
	fld1
	fstp	DWORD PTR [esp]
	push	ecx
	fld1
	fstp	DWORD PTR [esp]
	push	ecx
	fld1
	fstp	DWORD PTR [esp]
	push	ecx
	fld1
	fstp	DWORD PTR [esp]
	mov	ecx, DWORD PTR _this$[ebp]
	add	ecx, 220				; 000000dcH
	call	??0ColourValue@Ogre@@QAE@MMMM@Z		; Ogre::ColourValue::ColourValue
	mov	eax, DWORD PTR _this$[ebp]
	fld1
	fstp	DWORD PTR [eax+236]
	mov	ecx, DWORD PTR _this$[ebp]
	fldz
	fstp	DWORD PTR [ecx+240]
	mov	edx, DWORD PTR _this$[ebp]
	fld1
	fstp	DWORD PTR [edx+244]

; 10   : 	}

	mov	DWORD PTR __$EHRec$[ebp+8], -1
	mov	eax, DWORD PTR _this$[ebp]
	mov	ecx, DWORD PTR __$EHRec$[ebp]
	mov	DWORD PTR fs:0, ecx
	pop	ecx
	mov	esp, ebp
	pop	ebp
	ret	4
_TEXT	ENDS
text$x	SEGMENT
__unwindfunclet$??0FogEffect@Ogre@@QAE@W4FOG_TYPE@1@@Z$0:
	mov	ecx, DWORD PTR _this$[ebp]
	jmp	??1EffectObject@Ogre@@UAE@XZ
__ehhandler$??0FogEffect@Ogre@@QAE@W4FOG_TYPE@1@@Z:
	mov	edx, DWORD PTR [esp+8]
	lea	eax, DWORD PTR [edx+12]
	mov	ecx, DWORD PTR [edx-8]
	xor	ecx, eax
	call	@__security_check_cookie@4
	mov	eax, OFFSET __ehfuncinfo$??0FogEffect@Ogre@@QAE@W4FOG_TYPE@1@@Z
	jmp	___CxxFrameHandler3
text$x	ENDS
??0FogEffect@Ogre@@QAE@W4FOG_TYPE@1@@Z ENDP		; Ogre::FogEffect::FogEffect
PUBLIC	??6Ogre@@YAAAVArchive@0@AAV10@AAVColourValue@0@@Z ; Ogre::operator<<
; Function compile flags: /Odtp
_TEXT	SEGMENT
_this$ = -4						; size = 4
_ar$ = 8						; size = 4
_version$ = 12						; size = 4
?_serialize@FogEffect@Ogre@@UAEXAAVArchive@2@H@Z PROC	; Ogre::FogEffect::_serialize
; _this$ = ecx

; 13   : 	{

	push	ebp
	mov	ebp, esp
	push	ecx
	mov	DWORD PTR _this$[ebp], ecx

; 14   : 		ar << (int&)m_Type;

	mov	eax, DWORD PTR _this$[ebp]
	add	eax, 216				; 000000d8H
	push	eax
	mov	ecx, DWORD PTR _ar$[ebp]
	call	??6Archive@Ogre@@QAEAAV01@AAH@Z		; Ogre::Archive::operator<<

; 15   : 		ar << m_Color;

	mov	ecx, DWORD PTR _this$[ebp]
	add	ecx, 220				; 000000dcH
	push	ecx
	mov	edx, DWORD PTR _ar$[ebp]
	push	edx
	call	??6Ogre@@YAAAVArchive@0@AAV10@AAVColourValue@0@@Z ; Ogre::operator<<
	add	esp, 8

; 16   : 		ar << m_Density;

	mov	eax, DWORD PTR _this$[ebp]
	add	eax, 236				; 000000ecH
	push	eax
	mov	ecx, DWORD PTR _ar$[ebp]
	call	??6Archive@Ogre@@QAEAAV01@AAM@Z		; Ogre::Archive::operator<<

; 17   : 		ar << m_Near;

	mov	ecx, DWORD PTR _this$[ebp]
	add	ecx, 240				; 000000f0H
	push	ecx
	mov	ecx, DWORD PTR _ar$[ebp]
	call	??6Archive@Ogre@@QAEAAV01@AAM@Z		; Ogre::Archive::operator<<

; 18   : 		ar << m_Far;

	mov	edx, DWORD PTR _this$[ebp]
	add	edx, 244				; 000000f4H
	push	edx
	mov	ecx, DWORD PTR _ar$[ebp]
	call	??6Archive@Ogre@@QAEAAV01@AAM@Z		; Ogre::Archive::operator<<

; 19   : 	}

	mov	esp, ebp
	pop	ebp
	ret	8
?_serialize@FogEffect@Ogre@@UAEXAAVArchive@2@H@Z ENDP	; Ogre::FogEffect::_serialize
_TEXT	ENDS
PUBLIC	??$serializeRawType@VColourValue@Ogre@@@Archive@Ogre@@QAEXAAVColourValue@1@@Z ; Ogre::Archive::serializeRawType<Ogre::ColourValue>
; Function compile flags: /Odtp
; File i:\svnroot\client\ogremain\ogrecolourvalue.h
;	COMDAT ??6Ogre@@YAAAVArchive@0@AAV10@AAVColourValue@0@@Z
_TEXT	SEGMENT
_ar$ = 8						; size = 4
_color$ = 12						; size = 4
??6Ogre@@YAAAVArchive@0@AAV10@AAVColourValue@0@@Z PROC	; Ogre::operator<<, COMDAT

; 316  : 		{

	push	ebp
	mov	ebp, esp

; 317  : 			ar.serializeRawType(color);

	mov	eax, DWORD PTR _color$[ebp]
	push	eax
	mov	ecx, DWORD PTR _ar$[ebp]
	call	??$serializeRawType@VColourValue@Ogre@@@Archive@Ogre@@QAEXAAVColourValue@1@@Z ; Ogre::Archive::serializeRawType<Ogre::ColourValue>

; 318  : 			return ar;

	mov	eax, DWORD PTR _ar$[ebp]

; 319  : 		}

	pop	ebp
	ret	0
??6Ogre@@YAAAVArchive@0@AAV10@AAVColourValue@0@@Z ENDP	; Ogre::operator<<
; Function compile flags: /Odtp
; File i:\svnroot\client\ogremain\ogrefog.cpp
_TEXT	ENDS
_TEXT	SEGMENT
_this$ = -4						; size = 4
_pRenderer$ = 8						; size = 4
_framecount$ = 12					; size = 4
?prepare@FogEffect@Ogre@@UAEXPAVSceneRenderer@2@I@Z PROC ; Ogre::FogEffect::prepare
; _this$ = ecx

; 22   : 	{

	push	ebp
	mov	ebp, esp
	push	ecx
	mov	DWORD PTR _this$[ebp], ecx

; 23   : 	}

	mov	esp, ebp
	pop	ebp
	ret	8
?prepare@FogEffect@Ogre@@UAEXPAVSceneRenderer@2@I@Z ENDP ; Ogre::FogEffect::prepare
; Function compile flags: /Odtp
_this$ = -4						; size = 4
_envdata$ = 8						; size = 4
_obj_worldtm$ = 12					; size = 4
?queryShaderEnv@FogEffect@Ogre@@UAEXAAUShaderEnvData@2@ABVMatrix4@2@@Z PROC ; Ogre::FogEffect::queryShaderEnv
; _this$ = ecx

; 26   : 	{

	push	ebp
	mov	ebp, esp
	push	ecx
	mov	DWORD PTR _this$[ebp], ecx

; 27   : 		if(m_Type == FOG_DISTANCE)

	mov	eax, DWORD PTR _this$[ebp]
	cmp	DWORD PTR [eax+216], 0
	jne	SHORT $LN2@queryShade

; 28   : 		{
; 29   : 			envdata.flags.distfog = 1;

	mov	ecx, DWORD PTR _envdata$[ebp]
	mov	edx, DWORD PTR [ecx]
	or	edx, 32768				; 00008000H
	mov	eax, DWORD PTR _envdata$[ebp]
	mov	DWORD PTR [eax], edx

; 30   : 			envdata.fogdist.x = m_Near;

	mov	ecx, DWORD PTR _envdata$[ebp]
	mov	edx, DWORD PTR _this$[ebp]
	fld	DWORD PTR [edx+240]
	fstp	DWORD PTR [ecx+168]

; 31   : 			envdata.fogdist.y = m_Far;

	mov	eax, DWORD PTR _envdata$[ebp]
	mov	ecx, DWORD PTR _this$[ebp]
	fld	DWORD PTR [ecx+244]
	fstp	DWORD PTR [eax+172]

; 32   : 			envdata.distfogcolor = m_Color;

	mov	edx, DWORD PTR _this$[ebp]
	add	edx, 220				; 000000dcH
	mov	eax, DWORD PTR _envdata$[ebp]
	add	eax, 184				; 000000b8H
	mov	ecx, DWORD PTR [edx]
	mov	DWORD PTR [eax], ecx
	mov	ecx, DWORD PTR [edx+4]
	mov	DWORD PTR [eax+4], ecx
	mov	ecx, DWORD PTR [edx+8]
	mov	DWORD PTR [eax+8], ecx
	mov	edx, DWORD PTR [edx+12]
	mov	DWORD PTR [eax+12], edx

; 33   : 		}
; 34   : 		else

	jmp	SHORT $LN1@queryShade
$LN2@queryShade:

; 35   : 		{
; 36   : 			envdata.flags.heightfog = 1;

	mov	eax, DWORD PTR _envdata$[ebp]
	mov	ecx, DWORD PTR [eax]
	or	ecx, 65536				; 00010000H
	mov	edx, DWORD PTR _envdata$[ebp]
	mov	DWORD PTR [edx], ecx

; 37   : 			envdata.fogdist.z = m_Near;

	mov	eax, DWORD PTR _envdata$[ebp]
	mov	ecx, DWORD PTR _this$[ebp]
	fld	DWORD PTR [ecx+240]
	fstp	DWORD PTR [eax+176]

; 38   : 			envdata.fogdist.w = m_Far;

	mov	edx, DWORD PTR _envdata$[ebp]
	mov	eax, DWORD PTR _this$[ebp]
	fld	DWORD PTR [eax+244]
	fstp	DWORD PTR [edx+180]

; 39   : 			envdata.heightfogcolor = m_Color;

	mov	ecx, DWORD PTR _this$[ebp]
	add	ecx, 220				; 000000dcH
	mov	edx, DWORD PTR _envdata$[ebp]
	add	edx, 200				; 000000c8H
	mov	eax, DWORD PTR [ecx]
	mov	DWORD PTR [edx], eax
	mov	eax, DWORD PTR [ecx+4]
	mov	DWORD PTR [edx+4], eax
	mov	eax, DWORD PTR [ecx+8]
	mov	DWORD PTR [edx+8], eax
	mov	ecx, DWORD PTR [ecx+12]
	mov	DWORD PTR [edx+12], ecx
$LN1@queryShade:

; 40   : 		}
; 41   : 	}

	mov	esp, ebp
	pop	ebp
	ret	8
?queryShaderEnv@FogEffect@Ogre@@UAEXAAUShaderEnvData@2@ABVMatrix4@2@@Z ENDP ; Ogre::FogEffect::queryShaderEnv
; Function compile flags: /Odtp
_this$ = -4						; size = 4
_point$ = 8						; size = 4
_radius$ = 12						; size = 4
?getEffectWeight@FogEffect@Ogre@@UAEMABVVector3@2@M@Z PROC ; Ogre::FogEffect::getEffectWeight
; _this$ = ecx

; 44   : 	{

	push	ebp
	mov	ebp, esp
	push	ecx
	mov	DWORD PTR _this$[ebp], ecx

; 45   : 		return 1.0f;

	fld1

; 46   : 	}

	mov	esp, ebp
	pop	ebp
	ret	8
?getEffectWeight@FogEffect@Ogre@@UAEMABVVector3@2@M@Z ENDP ; Ogre::FogEffect::getEffectWeight
; Function compile flags: /Odtp
; File i:\svnroot\client\ogremain\ogremath.h
_TEXT	ENDS
;	COMDAT ??$Abs@M@Ogre@@YAMABM@Z
_TEXT	SEGMENT
tv68 = -4						; size = 4
_x$ = 8							; size = 4
??$Abs@M@Ogre@@YAMABM@Z PROC				; Ogre::Abs<float>, COMDAT

; 125  : 	{

	push	ebp
	mov	ebp, esp
	push	ecx

; 126  : 		return (x<0.0f) ? (-x) : x;

	mov	eax, DWORD PTR _x$[ebp]
	fld	DWORD PTR [eax]
	fcomp	QWORD PTR __real@0000000000000000
	fnstsw	ax
	test	ah, 5
	jp	SHORT $LN3@Abs
	mov	ecx, DWORD PTR _x$[ebp]
	fld	DWORD PTR [ecx]
	fchs
	fstp	DWORD PTR tv68[ebp]
	jmp	SHORT $LN4@Abs
$LN3@Abs:
	mov	edx, DWORD PTR _x$[ebp]
	fld	DWORD PTR [edx]
	fstp	DWORD PTR tv68[ebp]
$LN4@Abs:
	fld	DWORD PTR tv68[ebp]

; 127  : 	}

	mov	esp, ebp
	pop	ebp
	ret	0
??$Abs@M@Ogre@@YAMABM@Z ENDP				; Ogre::Abs<float>
; Function compile flags: /Odtp
_TEXT	ENDS
;	COMDAT ??$Max@M@Ogre@@YAMABM0@Z
_TEXT	SEGMENT
tv67 = -4						; size = 4
_a$ = 8							; size = 4
_b$ = 12						; size = 4
??$Max@M@Ogre@@YAMABM0@Z PROC				; Ogre::Max<float>, COMDAT

; 120  : 	{

	push	ebp
	mov	ebp, esp
	push	ecx

; 121  : 		return ( (a) > (b) ? (a) : (b) );

	mov	eax, DWORD PTR _a$[ebp]
	fld	DWORD PTR [eax]
	mov	ecx, DWORD PTR _b$[ebp]
	fld	DWORD PTR [ecx]
	fcompp
	fnstsw	ax
	test	ah, 5
	jp	SHORT $LN3@Max
	mov	edx, DWORD PTR _a$[ebp]
	fld	DWORD PTR [edx]
	fstp	DWORD PTR tv67[ebp]
	jmp	SHORT $LN4@Max
$LN3@Max:
	mov	eax, DWORD PTR _b$[ebp]
	fld	DWORD PTR [eax]
	fstp	DWORD PTR tv67[ebp]
$LN4@Max:
	fld	DWORD PTR tv67[ebp]

; 122  : 	}

	mov	esp, ebp
	pop	ebp
	ret	0
??$Max@M@Ogre@@YAMABM0@Z ENDP				; Ogre::Max<float>
; Function compile flags: /Odtp
_TEXT	ENDS
;	COMDAT ??$Min@M@Ogre@@YAMABM0@Z
_TEXT	SEGMENT
tv67 = -4						; size = 4
_a$ = 8							; size = 4
_b$ = 12						; size = 4
??$Min@M@Ogre@@YAMABM0@Z PROC				; Ogre::Min<float>, COMDAT

; 115  : 	{

	push	ebp
	mov	ebp, esp
	push	ecx

; 116  : 		return ( (a) < (b) ? (a) : (b) );

	mov	eax, DWORD PTR _a$[ebp]
	fld	DWORD PTR [eax]
	mov	ecx, DWORD PTR _b$[ebp]
	fld	DWORD PTR [ecx]
	fcompp
	fnstsw	ax
	test	ah, 65					; 00000041H
	jne	SHORT $LN3@Min
	mov	edx, DWORD PTR _a$[ebp]
	fld	DWORD PTR [edx]
	fstp	DWORD PTR tv67[ebp]
	jmp	SHORT $LN4@Min
$LN3@Min:
	mov	eax, DWORD PTR _b$[ebp]
	fld	DWORD PTR [eax]
	fstp	DWORD PTR tv67[ebp]
$LN4@Min:
	fld	DWORD PTR tv67[ebp]

; 117  : 	}

	mov	esp, ebp
	pop	ebp
	ret	0
??$Min@M@Ogre@@YAMABM0@Z ENDP				; Ogre::Min<float>
; Function compile flags: /Odtp
; File i:\svnroot\client\ogremain\ogrearchive.h
_TEXT	ENDS
;	COMDAT ??$serializeRawType@VColourValue@Ogre@@@Archive@Ogre@@QAEXAAVColourValue@1@@Z
_TEXT	SEGMENT
_this$ = -4						; size = 4
_value$ = 8						; size = 4
??$serializeRawType@VColourValue@Ogre@@@Archive@Ogre@@QAEXAAVColourValue@1@@Z PROC ; Ogre::Archive::serializeRawType<Ogre::ColourValue>, COMDAT
; _this$ = ecx

; 97   : 		{

	push	ebp
	mov	ebp, esp
	push	ecx
	mov	DWORD PTR _this$[ebp], ecx

; 98   : 			serialize(&value, sizeof(T));

	push	16					; 00000010H
	mov	eax, DWORD PTR _value$[ebp]
	push	eax
	mov	ecx, DWORD PTR _this$[ebp]
	call	?serialize@Archive@Ogre@@QAEAAV12@PAXI@Z ; Ogre::Archive::serialize

; 99   : 		}

	mov	esp, ebp
	pop	ebp
	ret	4
??$serializeRawType@VColourValue@Ogre@@@Archive@Ogre@@QAEXAAVColourValue@1@@Z ENDP ; Ogre::Archive::serializeRawType<Ogre::ColourValue>
; Function compile flags: /Odtp
; File i:\svnroot\client\ogremain\ogremath.h
_TEXT	ENDS
;	COMDAT ??__ETWO_PI@Ogre@@YAXXZ
text$yc	SEGMENT
??__ETWO_PI@Ogre@@YAXXZ PROC				; Ogre::`dynamic initializer for 'TWO_PI'', COMDAT

; 10   : 	const float TWO_PI = ONE_PI*2;

	push	ebp
	mov	ebp, esp
	fld	DWORD PTR _ONE_PI
	fadd	ST(0), ST(0)
	fstp	DWORD PTR _TWO_PI
	pop	ebp
	ret	0
??__ETWO_PI@Ogre@@YAXXZ ENDP				; Ogre::`dynamic initializer for 'TWO_PI''
text$yc	ENDS
PUBLIC	__real@3fe0000000000000
;	COMDAT __real@3fe0000000000000
CONST	SEGMENT
__real@3fe0000000000000 DQ 03fe0000000000000r	; 0.5
; Function compile flags: /Odtp
CONST	ENDS
;	COMDAT ??__EHALF_PI@Ogre@@YAXXZ
text$yc	SEGMENT
??__EHALF_PI@Ogre@@YAXXZ PROC				; Ogre::`dynamic initializer for 'HALF_PI'', COMDAT

; 11   : 	const float	HALF_PI = ONE_PI*0.5f;

	push	ebp
	mov	ebp, esp
	fld	DWORD PTR _ONE_PI
	fmul	QWORD PTR __real@3fe0000000000000
	fstp	DWORD PTR _HALF_PI
	pop	ebp
	ret	0
??__EHALF_PI@Ogre@@YAXXZ ENDP				; Ogre::`dynamic initializer for 'HALF_PI''
text$yc	ENDS
EXTRN	??0RuntimeClass@Ogre@@QAE@PBDPBV01@HP6APAVBaseObject@1@XZ@Z:PROC ; Ogre::RuntimeClass::RuntimeClass
; Function compile flags: /Odtp
; File i:\svnroot\client\ogremain\ogrefog.cpp
;	COMDAT ??__E?m_RTTI@FogEffect@Ogre@@2VRuntimeClass@2@B@@YAXXZ
text$yc	SEGMENT
??__E?m_RTTI@FogEffect@Ogre@@2VRuntimeClass@2@B@@YAXXZ PROC ; `dynamic initializer for 'Ogre::FogEffect::m_RTTI'', COMDAT

; 7    : 	IMPLEMENT_RTTI_VIRTUAL(FogEffect, EffectObject, 100)

	push	ebp
	mov	ebp, esp
	push	0
	push	100					; 00000064H
	push	OFFSET ?m_RTTI@EffectObject@Ogre@@2VRuntimeClass@2@B ; Ogre::EffectObject::m_RTTI
	push	OFFSET $SG59865
	mov	ecx, OFFSET ?m_RTTI@FogEffect@Ogre@@2VRuntimeClass@2@B ; Ogre::FogEffect::m_RTTI
	call	??0RuntimeClass@Ogre@@QAE@PBDPBV01@HP6APAVBaseObject@1@XZ@Z ; Ogre::RuntimeClass::RuntimeClass
	pop	ebp
	ret	0
??__E?m_RTTI@FogEffect@Ogre@@2VRuntimeClass@2@B@@YAXXZ ENDP ; `dynamic initializer for 'Ogre::FogEffect::m_RTTI''
text$yc	ENDS
PUBLIC	?m_RTTI@FogEffect@Ogre@@2VRuntimeClass@2@B	; Ogre::FogEffect::m_RTTI
_BSS	SEGMENT
_TWO_PI	DD	01H DUP (?)
_HALF_PI DD	01H DUP (?)
?m_RTTI@FogEffect@Ogre@@2VRuntimeClass@2@B DB 014H DUP (?) ; Ogre::FogEffect::m_RTTI
_BSS	ENDS
CRT$XCU	SEGMENT
_TWO_PI$initializer$ DD FLAT:??__ETWO_PI@Ogre@@YAXXZ
_HALF_PI$initializer$ DD FLAT:??__EHALF_PI@Ogre@@YAXXZ
?m_RTTI$initializer$@FogEffect@Ogre@@2P6AXXZA DD FLAT:??__E?m_RTTI@FogEffect@Ogre@@2VRuntimeClass@2@B@@YAXXZ ; Ogre::FogEffect::m_RTTI$initializer$
CRT$XCU	ENDS
END
