; Listing generated by Microsoft (R) Optimizing Compiler Version 15.00.30729.01 

	TITLE	i:\svnroot\client\OgreMain\OgreDDSCodec.cpp
	.686P
	.XMM
	include listing.inc
	.model	flat

INCLUDELIB MSVCRT
INCLUDELIB OLDNAMES

PUBLIC	?_Value@?$_Is_swap_move@U_Swap_move_tag@std@@@std@@2_NB ; std::_Is_swap_move<std::_Swap_move_tag>::_Value
PUBLIC	?collate@?$_Locbase@H@std@@2HB			; std::_Locbase<int>::collate
PUBLIC	?ctype@?$_Locbase@H@std@@2HB			; std::_Locbase<int>::ctype
PUBLIC	?monetary@?$_Locbase@H@std@@2HB			; std::_Locbase<int>::monetary
PUBLIC	?numeric@?$_Locbase@H@std@@2HB			; std::_Locbase<int>::numeric
PUBLIC	?time@?$_Locbase@H@std@@2HB			; std::_Locbase<int>::time
PUBLIC	?messages@?$_Locbase@H@std@@2HB			; std::_Locbase<int>::messages
PUBLIC	?all@?$_Locbase@H@std@@2HB			; std::_Locbase<int>::all
PUBLIC	?none@?$_Locbase@H@std@@2HB			; std::_Locbase<int>::none
PUBLIC	?skipws@?$_Iosb@H@std@@2W4_Fmtflags@12@B	; std::_Iosb<int>::skipws
PUBLIC	?unitbuf@?$_Iosb@H@std@@2W4_Fmtflags@12@B	; std::_Iosb<int>::unitbuf
PUBLIC	?uppercase@?$_Iosb@H@std@@2W4_Fmtflags@12@B	; std::_Iosb<int>::uppercase
PUBLIC	?showbase@?$_Iosb@H@std@@2W4_Fmtflags@12@B	; std::_Iosb<int>::showbase
PUBLIC	?showpoint@?$_Iosb@H@std@@2W4_Fmtflags@12@B	; std::_Iosb<int>::showpoint
PUBLIC	?showpos@?$_Iosb@H@std@@2W4_Fmtflags@12@B	; std::_Iosb<int>::showpos
PUBLIC	?left@?$_Iosb@H@std@@2W4_Fmtflags@12@B		; std::_Iosb<int>::left
PUBLIC	?right@?$_Iosb@H@std@@2W4_Fmtflags@12@B		; std::_Iosb<int>::right
PUBLIC	?internal@?$_Iosb@H@std@@2W4_Fmtflags@12@B	; std::_Iosb<int>::internal
PUBLIC	?dec@?$_Iosb@H@std@@2W4_Fmtflags@12@B		; std::_Iosb<int>::dec
PUBLIC	?oct@?$_Iosb@H@std@@2W4_Fmtflags@12@B		; std::_Iosb<int>::oct
PUBLIC	?hex@?$_Iosb@H@std@@2W4_Fmtflags@12@B		; std::_Iosb<int>::hex
PUBLIC	?scientific@?$_Iosb@H@std@@2W4_Fmtflags@12@B	; std::_Iosb<int>::scientific
PUBLIC	?fixed@?$_Iosb@H@std@@2W4_Fmtflags@12@B		; std::_Iosb<int>::fixed
PUBLIC	?hexfloat@?$_Iosb@H@std@@2W4_Fmtflags@12@B	; std::_Iosb<int>::hexfloat
PUBLIC	?boolalpha@?$_Iosb@H@std@@2W4_Fmtflags@12@B	; std::_Iosb<int>::boolalpha
PUBLIC	?_Stdio@?$_Iosb@H@std@@2W4_Fmtflags@12@B	; std::_Iosb<int>::_Stdio
PUBLIC	?adjustfield@?$_Iosb@H@std@@2W4_Fmtflags@12@B	; std::_Iosb<int>::adjustfield
PUBLIC	?basefield@?$_Iosb@H@std@@2W4_Fmtflags@12@B	; std::_Iosb<int>::basefield
PUBLIC	?floatfield@?$_Iosb@H@std@@2W4_Fmtflags@12@B	; std::_Iosb<int>::floatfield
PUBLIC	?goodbit@?$_Iosb@H@std@@2W4_Iostate@12@B	; std::_Iosb<int>::goodbit
PUBLIC	?eofbit@?$_Iosb@H@std@@2W4_Iostate@12@B		; std::_Iosb<int>::eofbit
PUBLIC	?failbit@?$_Iosb@H@std@@2W4_Iostate@12@B	; std::_Iosb<int>::failbit
PUBLIC	?badbit@?$_Iosb@H@std@@2W4_Iostate@12@B		; std::_Iosb<int>::badbit
PUBLIC	?_Hardfail@?$_Iosb@H@std@@2W4_Iostate@12@B	; std::_Iosb<int>::_Hardfail
PUBLIC	?in@?$_Iosb@H@std@@2W4_Openmode@12@B		; std::_Iosb<int>::in
PUBLIC	?out@?$_Iosb@H@std@@2W4_Openmode@12@B		; std::_Iosb<int>::out
PUBLIC	?ate@?$_Iosb@H@std@@2W4_Openmode@12@B		; std::_Iosb<int>::ate
PUBLIC	?app@?$_Iosb@H@std@@2W4_Openmode@12@B		; std::_Iosb<int>::app
PUBLIC	?trunc@?$_Iosb@H@std@@2W4_Openmode@12@B		; std::_Iosb<int>::trunc
PUBLIC	?_Nocreate@?$_Iosb@H@std@@2W4_Openmode@12@B	; std::_Iosb<int>::_Nocreate
PUBLIC	?_Noreplace@?$_Iosb@H@std@@2W4_Openmode@12@B	; std::_Iosb<int>::_Noreplace
PUBLIC	?binary@?$_Iosb@H@std@@2W4_Openmode@12@B	; std::_Iosb<int>::binary
PUBLIC	?beg@?$_Iosb@H@std@@2W4_Seekdir@12@B		; std::_Iosb<int>::beg
PUBLIC	?cur@?$_Iosb@H@std@@2W4_Seekdir@12@B		; std::_Iosb<int>::cur
PUBLIC	?end@?$_Iosb@H@std@@2W4_Seekdir@12@B		; std::_Iosb<int>::end
PUBLIC	?value@?$integral_constant@_N$0A@@tr1@std@@2_NB	; std::tr1::integral_constant<bool,0>::value
PUBLIC	?value@?$integral_constant@_N$00@tr1@std@@2_NB	; std::tr1::integral_constant<bool,1>::value
PUBLIC	?msInstance@DDSCodec@Ogre@@0PAV12@A		; Ogre::DDSCodec::msInstance
PUBLIC	?ms_Singleton@?$Singleton@VRenderSystem@Ogre@@@Ogre@@1PAVRenderSystem@2@A ; Ogre::Singleton<Ogre::RenderSystem>::ms_Singleton
_BSS	SEGMENT
?msInstance@DDSCodec@Ogre@@0PAV12@A DD 01H DUP (?)	; Ogre::DDSCodec::msInstance
_BSS	ENDS
;	COMDAT ?ms_Singleton@?$Singleton@VRenderSystem@Ogre@@@Ogre@@1PAVRenderSystem@2@A
_BSS	SEGMENT
?ms_Singleton@?$Singleton@VRenderSystem@Ogre@@@Ogre@@1PAVRenderSystem@2@A DD 01H DUP (?) ; Ogre::Singleton<Ogre::RenderSystem>::ms_Singleton
_BSS	ENDS
;	COMDAT ?value@?$integral_constant@_N$00@tr1@std@@2_NB
CONST	SEGMENT
?value@?$integral_constant@_N$00@tr1@std@@2_NB DB 01H	; std::tr1::integral_constant<bool,1>::value
CONST	ENDS
;	COMDAT ?value@?$integral_constant@_N$0A@@tr1@std@@2_NB
CONST	SEGMENT
?value@?$integral_constant@_N$0A@@tr1@std@@2_NB DB 00H	; std::tr1::integral_constant<bool,0>::value
CONST	ENDS
;	COMDAT ?end@?$_Iosb@H@std@@2W4_Seekdir@12@B
CONST	SEGMENT
?end@?$_Iosb@H@std@@2W4_Seekdir@12@B DD 02H		; std::_Iosb<int>::end
CONST	ENDS
;	COMDAT ?cur@?$_Iosb@H@std@@2W4_Seekdir@12@B
CONST	SEGMENT
?cur@?$_Iosb@H@std@@2W4_Seekdir@12@B DD 01H		; std::_Iosb<int>::cur
CONST	ENDS
;	COMDAT ?beg@?$_Iosb@H@std@@2W4_Seekdir@12@B
CONST	SEGMENT
?beg@?$_Iosb@H@std@@2W4_Seekdir@12@B DD 00H		; std::_Iosb<int>::beg
CONST	ENDS
;	COMDAT ?binary@?$_Iosb@H@std@@2W4_Openmode@12@B
CONST	SEGMENT
?binary@?$_Iosb@H@std@@2W4_Openmode@12@B DD 020H	; std::_Iosb<int>::binary
CONST	ENDS
;	COMDAT ?_Noreplace@?$_Iosb@H@std@@2W4_Openmode@12@B
CONST	SEGMENT
?_Noreplace@?$_Iosb@H@std@@2W4_Openmode@12@B DD 080H	; std::_Iosb<int>::_Noreplace
CONST	ENDS
;	COMDAT ?_Nocreate@?$_Iosb@H@std@@2W4_Openmode@12@B
CONST	SEGMENT
?_Nocreate@?$_Iosb@H@std@@2W4_Openmode@12@B DD 040H	; std::_Iosb<int>::_Nocreate
CONST	ENDS
;	COMDAT ?trunc@?$_Iosb@H@std@@2W4_Openmode@12@B
CONST	SEGMENT
?trunc@?$_Iosb@H@std@@2W4_Openmode@12@B DD 010H		; std::_Iosb<int>::trunc
CONST	ENDS
;	COMDAT ?app@?$_Iosb@H@std@@2W4_Openmode@12@B
CONST	SEGMENT
?app@?$_Iosb@H@std@@2W4_Openmode@12@B DD 08H		; std::_Iosb<int>::app
CONST	ENDS
;	COMDAT ?ate@?$_Iosb@H@std@@2W4_Openmode@12@B
CONST	SEGMENT
?ate@?$_Iosb@H@std@@2W4_Openmode@12@B DD 04H		; std::_Iosb<int>::ate
CONST	ENDS
;	COMDAT ?out@?$_Iosb@H@std@@2W4_Openmode@12@B
CONST	SEGMENT
?out@?$_Iosb@H@std@@2W4_Openmode@12@B DD 02H		; std::_Iosb<int>::out
CONST	ENDS
;	COMDAT ?in@?$_Iosb@H@std@@2W4_Openmode@12@B
CONST	SEGMENT
?in@?$_Iosb@H@std@@2W4_Openmode@12@B DD 01H		; std::_Iosb<int>::in
CONST	ENDS
;	COMDAT ?_Hardfail@?$_Iosb@H@std@@2W4_Iostate@12@B
CONST	SEGMENT
?_Hardfail@?$_Iosb@H@std@@2W4_Iostate@12@B DD 010H	; std::_Iosb<int>::_Hardfail
CONST	ENDS
;	COMDAT ?badbit@?$_Iosb@H@std@@2W4_Iostate@12@B
CONST	SEGMENT
?badbit@?$_Iosb@H@std@@2W4_Iostate@12@B DD 04H		; std::_Iosb<int>::badbit
CONST	ENDS
;	COMDAT ?failbit@?$_Iosb@H@std@@2W4_Iostate@12@B
CONST	SEGMENT
?failbit@?$_Iosb@H@std@@2W4_Iostate@12@B DD 02H		; std::_Iosb<int>::failbit
CONST	ENDS
;	COMDAT ?eofbit@?$_Iosb@H@std@@2W4_Iostate@12@B
CONST	SEGMENT
?eofbit@?$_Iosb@H@std@@2W4_Iostate@12@B DD 01H		; std::_Iosb<int>::eofbit
CONST	ENDS
;	COMDAT ?goodbit@?$_Iosb@H@std@@2W4_Iostate@12@B
CONST	SEGMENT
?goodbit@?$_Iosb@H@std@@2W4_Iostate@12@B DD 00H		; std::_Iosb<int>::goodbit
CONST	ENDS
;	COMDAT ?floatfield@?$_Iosb@H@std@@2W4_Fmtflags@12@B
CONST	SEGMENT
?floatfield@?$_Iosb@H@std@@2W4_Fmtflags@12@B DD 03000H	; std::_Iosb<int>::floatfield
CONST	ENDS
;	COMDAT ?basefield@?$_Iosb@H@std@@2W4_Fmtflags@12@B
CONST	SEGMENT
?basefield@?$_Iosb@H@std@@2W4_Fmtflags@12@B DD 0e00H	; std::_Iosb<int>::basefield
CONST	ENDS
;	COMDAT ?adjustfield@?$_Iosb@H@std@@2W4_Fmtflags@12@B
CONST	SEGMENT
?adjustfield@?$_Iosb@H@std@@2W4_Fmtflags@12@B DD 01c0H	; std::_Iosb<int>::adjustfield
CONST	ENDS
;	COMDAT ?_Stdio@?$_Iosb@H@std@@2W4_Fmtflags@12@B
CONST	SEGMENT
?_Stdio@?$_Iosb@H@std@@2W4_Fmtflags@12@B DD 08000H	; std::_Iosb<int>::_Stdio
CONST	ENDS
;	COMDAT ?boolalpha@?$_Iosb@H@std@@2W4_Fmtflags@12@B
CONST	SEGMENT
?boolalpha@?$_Iosb@H@std@@2W4_Fmtflags@12@B DD 04000H	; std::_Iosb<int>::boolalpha
CONST	ENDS
;	COMDAT ?hexfloat@?$_Iosb@H@std@@2W4_Fmtflags@12@B
CONST	SEGMENT
?hexfloat@?$_Iosb@H@std@@2W4_Fmtflags@12@B DD 03000H	; std::_Iosb<int>::hexfloat
CONST	ENDS
;	COMDAT ?fixed@?$_Iosb@H@std@@2W4_Fmtflags@12@B
CONST	SEGMENT
?fixed@?$_Iosb@H@std@@2W4_Fmtflags@12@B DD 02000H	; std::_Iosb<int>::fixed
CONST	ENDS
;	COMDAT ?scientific@?$_Iosb@H@std@@2W4_Fmtflags@12@B
CONST	SEGMENT
?scientific@?$_Iosb@H@std@@2W4_Fmtflags@12@B DD 01000H	; std::_Iosb<int>::scientific
CONST	ENDS
;	COMDAT ?hex@?$_Iosb@H@std@@2W4_Fmtflags@12@B
CONST	SEGMENT
?hex@?$_Iosb@H@std@@2W4_Fmtflags@12@B DD 0800H		; std::_Iosb<int>::hex
CONST	ENDS
;	COMDAT ?oct@?$_Iosb@H@std@@2W4_Fmtflags@12@B
CONST	SEGMENT
?oct@?$_Iosb@H@std@@2W4_Fmtflags@12@B DD 0400H		; std::_Iosb<int>::oct
CONST	ENDS
;	COMDAT ?dec@?$_Iosb@H@std@@2W4_Fmtflags@12@B
CONST	SEGMENT
?dec@?$_Iosb@H@std@@2W4_Fmtflags@12@B DD 0200H		; std::_Iosb<int>::dec
CONST	ENDS
;	COMDAT ?internal@?$_Iosb@H@std@@2W4_Fmtflags@12@B
CONST	SEGMENT
?internal@?$_Iosb@H@std@@2W4_Fmtflags@12@B DD 0100H	; std::_Iosb<int>::internal
CONST	ENDS
;	COMDAT ?right@?$_Iosb@H@std@@2W4_Fmtflags@12@B
CONST	SEGMENT
?right@?$_Iosb@H@std@@2W4_Fmtflags@12@B DD 080H		; std::_Iosb<int>::right
CONST	ENDS
;	COMDAT ?left@?$_Iosb@H@std@@2W4_Fmtflags@12@B
CONST	SEGMENT
?left@?$_Iosb@H@std@@2W4_Fmtflags@12@B DD 040H		; std::_Iosb<int>::left
CONST	ENDS
;	COMDAT ?showpos@?$_Iosb@H@std@@2W4_Fmtflags@12@B
CONST	SEGMENT
?showpos@?$_Iosb@H@std@@2W4_Fmtflags@12@B DD 020H	; std::_Iosb<int>::showpos
CONST	ENDS
;	COMDAT ?showpoint@?$_Iosb@H@std@@2W4_Fmtflags@12@B
CONST	SEGMENT
?showpoint@?$_Iosb@H@std@@2W4_Fmtflags@12@B DD 010H	; std::_Iosb<int>::showpoint
CONST	ENDS
;	COMDAT ?showbase@?$_Iosb@H@std@@2W4_Fmtflags@12@B
CONST	SEGMENT
?showbase@?$_Iosb@H@std@@2W4_Fmtflags@12@B DD 08H	; std::_Iosb<int>::showbase
CONST	ENDS
;	COMDAT ?uppercase@?$_Iosb@H@std@@2W4_Fmtflags@12@B
CONST	SEGMENT
?uppercase@?$_Iosb@H@std@@2W4_Fmtflags@12@B DD 04H	; std::_Iosb<int>::uppercase
CONST	ENDS
;	COMDAT ?unitbuf@?$_Iosb@H@std@@2W4_Fmtflags@12@B
CONST	SEGMENT
?unitbuf@?$_Iosb@H@std@@2W4_Fmtflags@12@B DD 02H	; std::_Iosb<int>::unitbuf
CONST	ENDS
;	COMDAT ?skipws@?$_Iosb@H@std@@2W4_Fmtflags@12@B
CONST	SEGMENT
?skipws@?$_Iosb@H@std@@2W4_Fmtflags@12@B DD 01H		; std::_Iosb<int>::skipws
CONST	ENDS
;	COMDAT ?none@?$_Locbase@H@std@@2HB
CONST	SEGMENT
?none@?$_Locbase@H@std@@2HB DD 00H			; std::_Locbase<int>::none
CONST	ENDS
;	COMDAT ?all@?$_Locbase@H@std@@2HB
CONST	SEGMENT
?all@?$_Locbase@H@std@@2HB DD 03fH			; std::_Locbase<int>::all
CONST	ENDS
;	COMDAT ?messages@?$_Locbase@H@std@@2HB
CONST	SEGMENT
?messages@?$_Locbase@H@std@@2HB DD 020H			; std::_Locbase<int>::messages
CONST	ENDS
;	COMDAT ?time@?$_Locbase@H@std@@2HB
CONST	SEGMENT
?time@?$_Locbase@H@std@@2HB DD 010H			; std::_Locbase<int>::time
CONST	ENDS
;	COMDAT ?numeric@?$_Locbase@H@std@@2HB
CONST	SEGMENT
?numeric@?$_Locbase@H@std@@2HB DD 08H			; std::_Locbase<int>::numeric
CONST	ENDS
;	COMDAT ?monetary@?$_Locbase@H@std@@2HB
CONST	SEGMENT
?monetary@?$_Locbase@H@std@@2HB DD 04H			; std::_Locbase<int>::monetary
CONST	ENDS
;	COMDAT ?ctype@?$_Locbase@H@std@@2HB
CONST	SEGMENT
?ctype@?$_Locbase@H@std@@2HB DD 02H			; std::_Locbase<int>::ctype
CONST	ENDS
;	COMDAT ?collate@?$_Locbase@H@std@@2HB
CONST	SEGMENT
?collate@?$_Locbase@H@std@@2HB DD 01H			; std::_Locbase<int>::collate
CONST	ENDS
;	COMDAT ?_Value@?$_Is_swap_move@U_Swap_move_tag@std@@@std@@2_NB
CONST	SEGMENT
?_Value@?$_Is_swap_move@U_Swap_move_tag@std@@@std@@2_NB DB 01H ; std::_Is_swap_move<std::_Swap_move_tag>::_Value
CONST	ENDS
_DATA	SEGMENT
__bad_alloc_Message DD FLAT:$SG5713
_DATA	ENDS
CONST	SEGMENT
$SG5713	DB	'bad allocation', 00H
	ORG $+1
_MAX_FLOAT DD	07f7fffffr			; 3.40282e+038
_ONE_PI	DD	040490fd0r			; 3.14159
_EPSILON DD	03727c5acr			; 1e-005
_RADS_PER_DEG DD 03c8efa35r			; 0.0174533
_DEGS_PER_RAD DD 042652ee1r			; 57.2958
$SG60415 DB	'.\OgreDDSCodec.cpp', 00H
	ORG $+1
$SG60416 DB	'DDS codec registering', 00H
	ORG $+2
$SG60430 DB	'dds', 00H
$SG60447 DB	'.\OgreDDSCodec.cpp', 00H
	ORG $+1
$SG60448 DB	'DDSCodec::code', 00H
	ORG $+1
$SG60449 DB	'DDS encoding not supported', 00H
	ORG $+1
$SG60461 DB	'.\OgreDDSCodec.cpp', 00H
	ORG $+1
$SG60462 DB	'DDSCodec::codeToFile', 00H
	ORG $+3
$SG60463 DB	'DDS encoding not supported', 00H
	ORG $+1
$SG60493 DB	'.\OgreDDSCodec.cpp', 00H
	ORG $+1
$SG60494 DB	'DDSCodec::decode', 00H
	ORG $+3
$SG60495 DB	'Unsupported FourCC format found in DDS file', 00H
$SG60520 DB	'.\OgreDDSCodec.cpp', 00H
	ORG $+1
$SG60521 DB	'DDSCodec::convertPixelFormat', 00H
	ORG $+3
$SG60522 DB	'Cannot determine pixel format', 00H
	ORG $+2
$SG60650 DB	'.\OgreDDSCodec.cpp', 00H
	ORG $+1
$SG60651 DB	'DDSCodec::decode', 00H
	ORG $+3
$SG60652 DB	'This is not a DDS file!', 00H
$SG60662 DB	'.\OgreDDSCodec.cpp', 00H
	ORG $+1
$SG60663 DB	'DDSCodec::decode', 00H
	ORG $+3
$SG60664 DB	'DDS header size mismatch!', 00H
	ORG $+2
$SG60671 DB	'.\OgreDDSCodec.cpp', 00H
	ORG $+1
$SG60672 DB	'DDSCodec::decode', 00H
	ORG $+3
$SG60673 DB	'DDS header size mismatch!', 00H
CONST	ENDS
PUBLIC	?getCapabilities@RenderSystem@Ogre@@QBEPBVRenderSystemCapabilities@2@XZ ; Ogre::RenderSystem::getCapabilities
; Function compile flags: /Odtp
; File i:\svnroot\client\ogremain\ogrerendersystem.h
;	COMDAT ?getCapabilities@RenderSystem@Ogre@@QBEPBVRenderSystemCapabilities@2@XZ
_TEXT	SEGMENT
_this$ = -4						; size = 4
?getCapabilities@RenderSystem@Ogre@@QBEPBVRenderSystemCapabilities@2@XZ PROC ; Ogre::RenderSystem::getCapabilities, COMDAT
; _this$ = ecx

; 126  : 		const RenderSystemCapabilities* getCapabilities(void) const { return m_Capabilities; }

	push	ebp
	mov	ebp, esp
	push	ecx
	mov	DWORD PTR _this$[ebp], ecx
	mov	eax, DWORD PTR _this$[ebp]
	mov	eax, DWORD PTR [eax+48]
	mov	esp, ebp
	pop	ebp
	ret	0
?getCapabilities@RenderSystem@Ogre@@QBEPBVRenderSystemCapabilities@2@XZ ENDP ; Ogre::RenderSystem::getCapabilities
_TEXT	ENDS
PUBLIC	?getWireframeShader@RenderSystem@Ogre@@QAEPAVShaderTechnique@2@XZ ; Ogre::RenderSystem::getWireframeShader
; Function compile flags: /Odtp
;	COMDAT ?getWireframeShader@RenderSystem@Ogre@@QAEPAVShaderTechnique@2@XZ
_TEXT	SEGMENT
_this$ = -4						; size = 4
?getWireframeShader@RenderSystem@Ogre@@QAEPAVShaderTechnique@2@XZ PROC ; Ogre::RenderSystem::getWireframeShader, COMDAT
; _this$ = ecx

; 129  : 		{

	push	ebp
	mov	ebp, esp
	push	ecx
	mov	DWORD PTR _this$[ebp], ecx

; 130  : 			return m_pWireframeShader;

	mov	eax, DWORD PTR _this$[ebp]
	mov	eax, DWORD PTR [eax+52]

; 131  : 		}

	mov	esp, ebp
	pop	ebp
	ret	0
?getWireframeShader@RenderSystem@Ogre@@QAEPAVShaderTechnique@2@XZ ENDP ; Ogre::RenderSystem::getWireframeShader
_TEXT	ENDS
PUBLIC	?GetRenderLevel@RenderSystem@Ogre@@QAEHXZ	; Ogre::RenderSystem::GetRenderLevel
; Function compile flags: /Odtp
;	COMDAT ?GetRenderLevel@RenderSystem@Ogre@@QAEHXZ
_TEXT	SEGMENT
_this$ = -4						; size = 4
?GetRenderLevel@RenderSystem@Ogre@@QAEHXZ PROC		; Ogre::RenderSystem::GetRenderLevel, COMDAT
; _this$ = ecx

; 134  : 		{

	push	ebp
	mov	ebp, esp
	push	ecx
	mov	DWORD PTR _this$[ebp], ecx

; 135  : 			return m_iLevel;

	mov	eax, DWORD PTR _this$[ebp]
	mov	eax, DWORD PTR [eax+56]

; 136  : 		}

	mov	esp, ebp
	pop	ebp
	ret	0
?GetRenderLevel@RenderSystem@Ogre@@QAEHXZ ENDP		; Ogre::RenderSystem::GetRenderLevel
_TEXT	ENDS
PUBLIC	?SetSaveCompiledShaders@RenderSystem@Ogre@@QAEX_N@Z ; Ogre::RenderSystem::SetSaveCompiledShaders
; Function compile flags: /Odtp
;	COMDAT ?SetSaveCompiledShaders@RenderSystem@Ogre@@QAEX_N@Z
_TEXT	SEGMENT
_this$ = -4						; size = 4
_bSave$ = 8						; size = 1
?SetSaveCompiledShaders@RenderSystem@Ogre@@QAEX_N@Z PROC ; Ogre::RenderSystem::SetSaveCompiledShaders, COMDAT
; _this$ = ecx

; 139  : 		{

	push	ebp
	mov	ebp, esp
	push	ecx
	mov	DWORD PTR _this$[ebp], ecx

; 140  : 			m_bSaveCompiledShader = bSave;

	mov	eax, DWORD PTR _this$[ebp]
	mov	cl, BYTE PTR _bSave$[ebp]
	mov	BYTE PTR [eax+60], cl

; 141  : 		}

	mov	esp, ebp
	pop	ebp
	ret	4
?SetSaveCompiledShaders@RenderSystem@Ogre@@QAEX_N@Z ENDP ; Ogre::RenderSystem::SetSaveCompiledShaders
_TEXT	ENDS
PUBLIC	?IsSaveCompiledShaders@RenderSystem@Ogre@@QAE_NXZ ; Ogre::RenderSystem::IsSaveCompiledShaders
; Function compile flags: /Odtp
;	COMDAT ?IsSaveCompiledShaders@RenderSystem@Ogre@@QAE_NXZ
_TEXT	SEGMENT
_this$ = -4						; size = 4
?IsSaveCompiledShaders@RenderSystem@Ogre@@QAE_NXZ PROC	; Ogre::RenderSystem::IsSaveCompiledShaders, COMDAT
; _this$ = ecx

; 144  : 		{

	push	ebp
	mov	ebp, esp
	push	ecx
	mov	DWORD PTR _this$[ebp], ecx

; 145  : 			return m_bSaveCompiledShader;

	mov	eax, DWORD PTR _this$[ebp]
	mov	al, BYTE PTR [eax+60]

; 146  : 		}

	mov	esp, ebp
	pop	ebp
	ret	0
?IsSaveCompiledShaders@RenderSystem@Ogre@@QAE_NXZ ENDP	; Ogre::RenderSystem::IsSaveCompiledShaders
_TEXT	ENDS
PUBLIC	?SetRestoreLostDeviceCallBack@RenderSystem@Ogre@@QAEXP6AXXZ@Z ; Ogre::RenderSystem::SetRestoreLostDeviceCallBack
; Function compile flags: /Odtp
;	COMDAT ?SetRestoreLostDeviceCallBack@RenderSystem@Ogre@@QAEXP6AXXZ@Z
_TEXT	SEGMENT
_this$ = -4						; size = 4
_pCallBack$ = 8						; size = 4
?SetRestoreLostDeviceCallBack@RenderSystem@Ogre@@QAEXP6AXXZ@Z PROC ; Ogre::RenderSystem::SetRestoreLostDeviceCallBack, COMDAT
; _this$ = ecx

; 148  : 		{

	push	ebp
	mov	ebp, esp
	push	ecx
	mov	DWORD PTR _this$[ebp], ecx

; 149  : 			m_restoreDeviceCallBack = pCallBack;

	mov	eax, DWORD PTR _this$[ebp]
	mov	ecx, DWORD PTR _pCallBack$[ebp]
	mov	DWORD PTR [eax+92], ecx

; 150  : 		}

	mov	esp, ebp
	pop	ebp
	ret	4
?SetRestoreLostDeviceCallBack@RenderSystem@Ogre@@QAEXP6AXXZ@Z ENDP ; Ogre::RenderSystem::SetRestoreLostDeviceCallBack
_TEXT	ENDS
PUBLIC	??4?$Singleton@VRenderSystem@Ogre@@@Ogre@@QAEAAV01@ABV01@@Z ; Ogre::Singleton<Ogre::RenderSystem>::operator=
; Function compile flags: /Odtp
;	COMDAT ??4?$Singleton@VRenderSystem@Ogre@@@Ogre@@QAEAAV01@ABV01@@Z
_TEXT	SEGMENT
_this$ = -4						; size = 4
___that$ = 8						; size = 4
??4?$Singleton@VRenderSystem@Ogre@@@Ogre@@QAEAAV01@ABV01@@Z PROC ; Ogre::Singleton<Ogre::RenderSystem>::operator=, COMDAT
; _this$ = ecx
	push	ebp
	mov	ebp, esp
	push	ecx
	mov	DWORD PTR _this$[ebp], ecx
	mov	eax, DWORD PTR _this$[ebp]
	mov	esp, ebp
	pop	ebp
	ret	4
??4?$Singleton@VRenderSystem@Ogre@@@Ogre@@QAEAAV01@ABV01@@Z ENDP ; Ogre::Singleton<Ogre::RenderSystem>::operator=
_TEXT	ENDS
PUBLIC	??1?$Singleton@VRenderSystem@Ogre@@@Ogre@@QAE@XZ ; Ogre::Singleton<Ogre::RenderSystem>::~Singleton<Ogre::RenderSystem>
PUBLIC	??_7RenderSystem@Ogre@@6B@			; Ogre::RenderSystem::`vftable'
PUBLIC	??0RenderSystem@Ogre@@QAE@ABV01@@Z		; Ogre::RenderSystem::RenderSystem
PUBLIC	??_R4RenderSystem@Ogre@@6B@			; Ogre::RenderSystem::`RTTI Complete Object Locator'
PUBLIC	??_R0?AVRenderSystem@Ogre@@@8			; Ogre::RenderSystem `RTTI Type Descriptor'
PUBLIC	??_R3RenderSystem@Ogre@@8			; Ogre::RenderSystem::`RTTI Class Hierarchy Descriptor'
PUBLIC	??_R2RenderSystem@Ogre@@8			; Ogre::RenderSystem::`RTTI Base Class Array'
PUBLIC	??_R1A@?0A@EA@RenderSystem@Ogre@@8		; Ogre::RenderSystem::`RTTI Base Class Descriptor at (0,-1,0,64)'
PUBLIC	??_R13?0A@EA@?$Singleton@VRenderSystem@Ogre@@@Ogre@@8 ; Ogre::Singleton<Ogre::RenderSystem>::`RTTI Base Class Descriptor at (4,-1,0,64)'
PUBLIC	??_R0?AV?$Singleton@VRenderSystem@Ogre@@@Ogre@@@8 ; Ogre::Singleton<Ogre::RenderSystem> `RTTI Type Descriptor'
PUBLIC	??_R3?$Singleton@VRenderSystem@Ogre@@@Ogre@@8	; Ogre::Singleton<Ogre::RenderSystem>::`RTTI Class Hierarchy Descriptor'
PUBLIC	??_R2?$Singleton@VRenderSystem@Ogre@@@Ogre@@8	; Ogre::Singleton<Ogre::RenderSystem>::`RTTI Base Class Array'
PUBLIC	??_R1A@?0A@EA@?$Singleton@VRenderSystem@Ogre@@@Ogre@@8 ; Ogre::Singleton<Ogre::RenderSystem>::`RTTI Base Class Descriptor at (0,-1,0,64)'
EXTRN	__imp_??1?$basic_string@DU?$char_traits@D@std@@V?$allocator@D@2@@std@@QAE@XZ:PROC
EXTRN	__imp_??0?$basic_string@DU?$char_traits@D@std@@V?$allocator@D@2@@std@@QAE@ABV01@@Z:PROC
EXTRN	___security_cookie:DWORD
EXTRN	___CxxFrameHandler3:PROC
EXTRN	@__security_check_cookie@4:PROC
EXTRN	??_7type_info@@6B@:QWORD			; type_info::`vftable'
EXTRN	__purecall:PROC
;	COMDAT ??_R1A@?0A@EA@?$Singleton@VRenderSystem@Ogre@@@Ogre@@8
rdata$r	SEGMENT
??_R1A@?0A@EA@?$Singleton@VRenderSystem@Ogre@@@Ogre@@8 DD FLAT:??_R0?AV?$Singleton@VRenderSystem@Ogre@@@Ogre@@@8 ; Ogre::Singleton<Ogre::RenderSystem>::`RTTI Base Class Descriptor at (0,-1,0,64)'
	DD	00H
	DD	00H
	DD	0ffffffffH
	DD	00H
	DD	040H
	DD	FLAT:??_R3?$Singleton@VRenderSystem@Ogre@@@Ogre@@8
rdata$r	ENDS
;	COMDAT ??_R2?$Singleton@VRenderSystem@Ogre@@@Ogre@@8
rdata$r	SEGMENT
??_R2?$Singleton@VRenderSystem@Ogre@@@Ogre@@8 DD FLAT:??_R1A@?0A@EA@?$Singleton@VRenderSystem@Ogre@@@Ogre@@8 ; Ogre::Singleton<Ogre::RenderSystem>::`RTTI Base Class Array'
rdata$r	ENDS
;	COMDAT ??_R3?$Singleton@VRenderSystem@Ogre@@@Ogre@@8
rdata$r	SEGMENT
??_R3?$Singleton@VRenderSystem@Ogre@@@Ogre@@8 DD 00H	; Ogre::Singleton<Ogre::RenderSystem>::`RTTI Class Hierarchy Descriptor'
	DD	00H
	DD	01H
	DD	FLAT:??_R2?$Singleton@VRenderSystem@Ogre@@@Ogre@@8
rdata$r	ENDS
;	COMDAT ??_R0?AV?$Singleton@VRenderSystem@Ogre@@@Ogre@@@8
_DATA	SEGMENT
??_R0?AV?$Singleton@VRenderSystem@Ogre@@@Ogre@@@8 DD FLAT:??_7type_info@@6B@ ; Ogre::Singleton<Ogre::RenderSystem> `RTTI Type Descriptor'
	DD	00H
	DB	'.?AV?$Singleton@VRenderSystem@Ogre@@@Ogre@@', 00H
_DATA	ENDS
;	COMDAT ??_R13?0A@EA@?$Singleton@VRenderSystem@Ogre@@@Ogre@@8
rdata$r	SEGMENT
??_R13?0A@EA@?$Singleton@VRenderSystem@Ogre@@@Ogre@@8 DD FLAT:??_R0?AV?$Singleton@VRenderSystem@Ogre@@@Ogre@@@8 ; Ogre::Singleton<Ogre::RenderSystem>::`RTTI Base Class Descriptor at (4,-1,0,64)'
	DD	00H
	DD	04H
	DD	0ffffffffH
	DD	00H
	DD	040H
	DD	FLAT:??_R3?$Singleton@VRenderSystem@Ogre@@@Ogre@@8
rdata$r	ENDS
;	COMDAT ??_R1A@?0A@EA@RenderSystem@Ogre@@8
rdata$r	SEGMENT
??_R1A@?0A@EA@RenderSystem@Ogre@@8 DD FLAT:??_R0?AVRenderSystem@Ogre@@@8 ; Ogre::RenderSystem::`RTTI Base Class Descriptor at (0,-1,0,64)'
	DD	01H
	DD	00H
	DD	0ffffffffH
	DD	00H
	DD	040H
	DD	FLAT:??_R3RenderSystem@Ogre@@8
rdata$r	ENDS
;	COMDAT ??_R2RenderSystem@Ogre@@8
rdata$r	SEGMENT
??_R2RenderSystem@Ogre@@8 DD FLAT:??_R1A@?0A@EA@RenderSystem@Ogre@@8 ; Ogre::RenderSystem::`RTTI Base Class Array'
	DD	FLAT:??_R13?0A@EA@?$Singleton@VRenderSystem@Ogre@@@Ogre@@8
rdata$r	ENDS
;	COMDAT ??_R3RenderSystem@Ogre@@8
rdata$r	SEGMENT
??_R3RenderSystem@Ogre@@8 DD 00H			; Ogre::RenderSystem::`RTTI Class Hierarchy Descriptor'
	DD	00H
	DD	02H
	DD	FLAT:??_R2RenderSystem@Ogre@@8
rdata$r	ENDS
;	COMDAT ??_R0?AVRenderSystem@Ogre@@@8
_DATA	SEGMENT
??_R0?AVRenderSystem@Ogre@@@8 DD FLAT:??_7type_info@@6B@ ; Ogre::RenderSystem `RTTI Type Descriptor'
	DD	00H
	DB	'.?AVRenderSystem@Ogre@@', 00H
_DATA	ENDS
;	COMDAT ??_R4RenderSystem@Ogre@@6B@
rdata$r	SEGMENT
??_R4RenderSystem@Ogre@@6B@ DD 00H			; Ogre::RenderSystem::`RTTI Complete Object Locator'
	DD	00H
	DD	00H
	DD	FLAT:??_R0?AVRenderSystem@Ogre@@@8
	DD	FLAT:??_R3RenderSystem@Ogre@@8
rdata$r	ENDS
;	COMDAT ??_7RenderSystem@Ogre@@6B@
CONST	SEGMENT
??_7RenderSystem@Ogre@@6B@ DD FLAT:??_R4RenderSystem@Ogre@@6B@ ; Ogre::RenderSystem::`vftable'
	DD	FLAT:__purecall
	DD	FLAT:__purecall
	DD	FLAT:__purecall
	DD	FLAT:__purecall
	DD	FLAT:__purecall
	DD	FLAT:__purecall
	DD	FLAT:__purecall
	DD	FLAT:__purecall
	DD	FLAT:__purecall
	DD	FLAT:__purecall
	DD	FLAT:__purecall
	DD	FLAT:__purecall
	DD	FLAT:__purecall
	DD	FLAT:__purecall
	DD	FLAT:__purecall
	DD	FLAT:__purecall
	DD	FLAT:__purecall
	DD	FLAT:__purecall
	DD	FLAT:__purecall
	DD	FLAT:__purecall
CONST	ENDS
;	COMDAT xdata$x
xdata$x	SEGMENT
__unwindtable$??0RenderSystem@Ogre@@QAE@ABV01@@Z DD 0ffffffffH
	DD	FLAT:__unwindfunclet$??0RenderSystem@Ogre@@QAE@ABV01@@Z$0
	DD	00H
	DD	FLAT:__unwindfunclet$??0RenderSystem@Ogre@@QAE@ABV01@@Z$1
__ehfuncinfo$??0RenderSystem@Ogre@@QAE@ABV01@@Z DD 019930522H
	DD	02H
	DD	FLAT:__unwindtable$??0RenderSystem@Ogre@@QAE@ABV01@@Z
	DD	2 DUP(00H)
	DD	2 DUP(00H)
	DD	00H
	DD	00H
; Function compile flags: /Odtp
xdata$x	ENDS
;	COMDAT ??0RenderSystem@Ogre@@QAE@ABV01@@Z
_TEXT	SEGMENT
tv68 = -20						; size = 4
_this$ = -16						; size = 4
__$EHRec$ = -12						; size = 12
___that$ = 8						; size = 4
??0RenderSystem@Ogre@@QAE@ABV01@@Z PROC			; Ogre::RenderSystem::RenderSystem, COMDAT
; _this$ = ecx
	push	ebp
	mov	ebp, esp
	push	-1
	push	__ehhandler$??0RenderSystem@Ogre@@QAE@ABV01@@Z
	mov	eax, DWORD PTR fs:0
	push	eax
	sub	esp, 8
	push	esi
	push	edi
	mov	eax, DWORD PTR ___security_cookie
	xor	eax, ebp
	push	eax
	lea	eax, DWORD PTR __$EHRec$[ebp]
	mov	DWORD PTR fs:0, eax
	mov	DWORD PTR _this$[ebp], ecx
	cmp	DWORD PTR ___that$[ebp], 0
	je	SHORT $LN3@RenderSyst
	mov	eax, DWORD PTR ___that$[ebp]
	add	eax, 4
	mov	DWORD PTR tv68[ebp], eax
	jmp	SHORT $LN4@RenderSyst
$LN3@RenderSyst:
	mov	DWORD PTR tv68[ebp], 0
$LN4@RenderSyst:
	mov	DWORD PTR __$EHRec$[ebp+8], 0
	mov	ecx, DWORD PTR _this$[ebp]
	mov	DWORD PTR [ecx], OFFSET ??_7RenderSystem@Ogre@@6B@
	mov	esi, DWORD PTR ___that$[ebp]
	add	esi, 4
	mov	edi, DWORD PTR _this$[ebp]
	add	edi, 4
	mov	ecx, 10					; 0000000aH
	rep movsd
	mov	edx, DWORD PTR _this$[ebp]
	mov	eax, DWORD PTR ___that$[ebp]
	mov	cl, BYTE PTR [eax+44]
	mov	BYTE PTR [edx+44], cl
	mov	edx, DWORD PTR _this$[ebp]
	mov	eax, DWORD PTR ___that$[ebp]
	mov	ecx, DWORD PTR [eax+48]
	mov	DWORD PTR [edx+48], ecx
	mov	edx, DWORD PTR _this$[ebp]
	mov	eax, DWORD PTR ___that$[ebp]
	mov	ecx, DWORD PTR [eax+52]
	mov	DWORD PTR [edx+52], ecx
	mov	edx, DWORD PTR _this$[ebp]
	mov	eax, DWORD PTR ___that$[ebp]
	mov	ecx, DWORD PTR [eax+56]
	mov	DWORD PTR [edx+56], ecx
	mov	edx, DWORD PTR _this$[ebp]
	mov	eax, DWORD PTR ___that$[ebp]
	mov	cl, BYTE PTR [eax+60]
	mov	BYTE PTR [edx+60], cl
	mov	edx, DWORD PTR ___that$[ebp]
	add	edx, 64					; 00000040H
	push	edx
	mov	ecx, DWORD PTR _this$[ebp]
	add	ecx, 64					; 00000040H
	call	DWORD PTR __imp_??0?$basic_string@DU?$char_traits@D@std@@V?$allocator@D@2@@std@@QAE@ABV01@@Z
	mov	BYTE PTR __$EHRec$[ebp+8], 1
	mov	eax, DWORD PTR _this$[ebp]
	mov	ecx, DWORD PTR ___that$[ebp]
	mov	edx, DWORD PTR [ecx+92]
	mov	DWORD PTR [eax+92], edx
	mov	DWORD PTR __$EHRec$[ebp+8], -1
	mov	eax, DWORD PTR _this$[ebp]
	mov	ecx, DWORD PTR __$EHRec$[ebp]
	mov	DWORD PTR fs:0, ecx
	pop	ecx
	pop	edi
	pop	esi
	mov	esp, ebp
	pop	ebp
	ret	4
_TEXT	ENDS
;	COMDAT text$x
text$x	SEGMENT
__unwindfunclet$??0RenderSystem@Ogre@@QAE@ABV01@@Z$0:
	mov	ecx, DWORD PTR _this$[ebp]
	add	ecx, 4
	jmp	??1?$Singleton@VRenderSystem@Ogre@@@Ogre@@QAE@XZ ; Ogre::Singleton<Ogre::RenderSystem>::~Singleton<Ogre::RenderSystem>
__unwindfunclet$??0RenderSystem@Ogre@@QAE@ABV01@@Z$1:
	mov	ecx, DWORD PTR _this$[ebp]
	add	ecx, 64					; 00000040H
	jmp	DWORD PTR __imp_??1?$basic_string@DU?$char_traits@D@std@@V?$allocator@D@2@@std@@QAE@XZ
__ehhandler$??0RenderSystem@Ogre@@QAE@ABV01@@Z:
	mov	edx, DWORD PTR [esp+8]
	lea	eax, DWORD PTR [edx+12]
	mov	ecx, DWORD PTR [edx-20]
	xor	ecx, eax
	call	@__security_check_cookie@4
	mov	eax, OFFSET __ehfuncinfo$??0RenderSystem@Ogre@@QAE@ABV01@@Z
	jmp	___CxxFrameHandler3
text$x	ENDS
??0RenderSystem@Ogre@@QAE@ABV01@@Z ENDP			; Ogre::RenderSystem::RenderSystem
PUBLIC	??4RenderSystem@Ogre@@QAEAAV01@ABV01@@Z		; Ogre::RenderSystem::operator=
EXTRN	__imp_??4?$basic_string@DU?$char_traits@D@std@@V?$allocator@D@2@@std@@QAEAAV01@ABV01@@Z:PROC
; Function compile flags: /Odtp
;	COMDAT ??4RenderSystem@Ogre@@QAEAAV01@ABV01@@Z
_TEXT	SEGMENT
_this$ = -4						; size = 4
___that$ = 8						; size = 4
??4RenderSystem@Ogre@@QAEAAV01@ABV01@@Z PROC		; Ogre::RenderSystem::operator=, COMDAT
; _this$ = ecx
	push	ebp
	mov	ebp, esp
	push	ecx
	push	esi
	push	edi
	mov	DWORD PTR _this$[ebp], ecx
	mov	esi, DWORD PTR ___that$[ebp]
	add	esi, 4
	mov	edi, DWORD PTR _this$[ebp]
	add	edi, 4
	mov	ecx, 10					; 0000000aH
	rep movsd
	mov	eax, DWORD PTR _this$[ebp]
	mov	ecx, DWORD PTR ___that$[ebp]
	mov	dl, BYTE PTR [ecx+44]
	mov	BYTE PTR [eax+44], dl
	mov	eax, DWORD PTR _this$[ebp]
	mov	ecx, DWORD PTR ___that$[ebp]
	mov	edx, DWORD PTR [ecx+48]
	mov	DWORD PTR [eax+48], edx
	mov	eax, DWORD PTR _this$[ebp]
	mov	ecx, DWORD PTR ___that$[ebp]
	mov	edx, DWORD PTR [ecx+52]
	mov	DWORD PTR [eax+52], edx
	mov	eax, DWORD PTR _this$[ebp]
	mov	ecx, DWORD PTR ___that$[ebp]
	mov	edx, DWORD PTR [ecx+56]
	mov	DWORD PTR [eax+56], edx
	mov	eax, DWORD PTR _this$[ebp]
	mov	ecx, DWORD PTR ___that$[ebp]
	mov	dl, BYTE PTR [ecx+60]
	mov	BYTE PTR [eax+60], dl
	mov	eax, DWORD PTR ___that$[ebp]
	add	eax, 64					; 00000040H
	push	eax
	mov	ecx, DWORD PTR _this$[ebp]
	add	ecx, 64					; 00000040H
	call	DWORD PTR __imp_??4?$basic_string@DU?$char_traits@D@std@@V?$allocator@D@2@@std@@QAEAAV01@ABV01@@Z
	mov	ecx, DWORD PTR _this$[ebp]
	mov	edx, DWORD PTR ___that$[ebp]
	mov	eax, DWORD PTR [edx+92]
	mov	DWORD PTR [ecx+92], eax
	mov	eax, DWORD PTR _this$[ebp]
	pop	edi
	pop	esi
	mov	esp, ebp
	pop	ebp
	ret	4
??4RenderSystem@Ogre@@QAEAAV01@ABV01@@Z ENDP		; Ogre::RenderSystem::operator=
_TEXT	ENDS
PUBLIC	??_7DataStream@Ogre@@6B@			; Ogre::DataStream::`vftable'
PUBLIC	??0DataStream@Ogre@@QAE@XZ			; Ogre::DataStream::DataStream
PUBLIC	??_R4DataStream@Ogre@@6B@			; Ogre::DataStream::`RTTI Complete Object Locator'
PUBLIC	??_R0?AVDataStream@Ogre@@@8			; Ogre::DataStream `RTTI Type Descriptor'
PUBLIC	??_R3DataStream@Ogre@@8				; Ogre::DataStream::`RTTI Class Hierarchy Descriptor'
PUBLIC	??_R2DataStream@Ogre@@8				; Ogre::DataStream::`RTTI Base Class Array'
PUBLIC	??_R1A@?0A@EA@DataStream@Ogre@@8		; Ogre::DataStream::`RTTI Base Class Descriptor at (0,-1,0,64)'
PUBLIC	??_EDataStream@Ogre@@UAEPAXI@Z			; Ogre::DataStream::`vector deleting destructor'
PUBLIC	?size@DataStream@Ogre@@UBEIXZ			; Ogre::DataStream::size
EXTRN	__imp_??0?$basic_string@DU?$char_traits@D@std@@V?$allocator@D@2@@std@@QAE@XZ:PROC
EXTRN	?readLine@DataStream@Ogre@@UAEIPADIABV?$basic_string@DU?$char_traits@D@std@@V?$allocator@D@2@@std@@@Z:PROC ; Ogre::DataStream::readLine
EXTRN	?getLine@DataStream@Ogre@@UAE?AV?$basic_string@DU?$char_traits@D@std@@V?$allocator@D@2@@std@@_N@Z:PROC ; Ogre::DataStream::getLine
EXTRN	?getAsString@DataStream@Ogre@@UAE?AV?$basic_string@DU?$char_traits@D@std@@V?$allocator@D@2@@std@@XZ:PROC ; Ogre::DataStream::getAsString
EXTRN	?skipLine@DataStream@Ogre@@UAEIABV?$basic_string@DU?$char_traits@D@std@@V?$allocator@D@2@@std@@@Z:PROC ; Ogre::DataStream::skipLine
;	COMDAT ??_R1A@?0A@EA@DataStream@Ogre@@8
; File i:\svnroot\client\ogremain\ogredatastream.h
rdata$r	SEGMENT
??_R1A@?0A@EA@DataStream@Ogre@@8 DD FLAT:??_R0?AVDataStream@Ogre@@@8 ; Ogre::DataStream::`RTTI Base Class Descriptor at (0,-1,0,64)'
	DD	00H
	DD	00H
	DD	0ffffffffH
	DD	00H
	DD	040H
	DD	FLAT:??_R3DataStream@Ogre@@8
rdata$r	ENDS
;	COMDAT ??_R2DataStream@Ogre@@8
rdata$r	SEGMENT
??_R2DataStream@Ogre@@8 DD FLAT:??_R1A@?0A@EA@DataStream@Ogre@@8 ; Ogre::DataStream::`RTTI Base Class Array'
rdata$r	ENDS
;	COMDAT ??_R3DataStream@Ogre@@8
rdata$r	SEGMENT
??_R3DataStream@Ogre@@8 DD 00H				; Ogre::DataStream::`RTTI Class Hierarchy Descriptor'
	DD	00H
	DD	01H
	DD	FLAT:??_R2DataStream@Ogre@@8
rdata$r	ENDS
;	COMDAT ??_R0?AVDataStream@Ogre@@@8
_DATA	SEGMENT
??_R0?AVDataStream@Ogre@@@8 DD FLAT:??_7type_info@@6B@	; Ogre::DataStream `RTTI Type Descriptor'
	DD	00H
	DB	'.?AVDataStream@Ogre@@', 00H
_DATA	ENDS
;	COMDAT ??_R4DataStream@Ogre@@6B@
rdata$r	SEGMENT
??_R4DataStream@Ogre@@6B@ DD 00H			; Ogre::DataStream::`RTTI Complete Object Locator'
	DD	00H
	DD	00H
	DD	FLAT:??_R0?AVDataStream@Ogre@@@8
	DD	FLAT:??_R3DataStream@Ogre@@8
rdata$r	ENDS
;	COMDAT ??_7DataStream@Ogre@@6B@
CONST	SEGMENT
??_7DataStream@Ogre@@6B@ DD FLAT:??_R4DataStream@Ogre@@6B@ ; Ogre::DataStream::`vftable'
	DD	FLAT:??_EDataStream@Ogre@@UAEPAXI@Z
	DD	FLAT:__purecall
	DD	FLAT:__purecall
	DD	FLAT:?readLine@DataStream@Ogre@@UAEIPADIABV?$basic_string@DU?$char_traits@D@std@@V?$allocator@D@2@@std@@@Z
	DD	FLAT:?getLine@DataStream@Ogre@@UAE?AV?$basic_string@DU?$char_traits@D@std@@V?$allocator@D@2@@std@@_N@Z
	DD	FLAT:?getAsString@DataStream@Ogre@@UAE?AV?$basic_string@DU?$char_traits@D@std@@V?$allocator@D@2@@std@@XZ
	DD	FLAT:?skipLine@DataStream@Ogre@@UAEIABV?$basic_string@DU?$char_traits@D@std@@V?$allocator@D@2@@std@@@Z
	DD	FLAT:__purecall
	DD	FLAT:__purecall
	DD	FLAT:__purecall
	DD	FLAT:__purecall
	DD	FLAT:?size@DataStream@Ogre@@UBEIXZ
	DD	FLAT:__purecall
	DD	FLAT:__purecall
CONST	ENDS
;	COMDAT xdata$x
xdata$x	SEGMENT
__unwindtable$??0DataStream@Ogre@@QAE@XZ DD 0ffffffffH
	DD	FLAT:__unwindfunclet$??0DataStream@Ogre@@QAE@XZ$0
__ehfuncinfo$??0DataStream@Ogre@@QAE@XZ DD 019930522H
	DD	01H
	DD	FLAT:__unwindtable$??0DataStream@Ogre@@QAE@XZ
	DD	2 DUP(00H)
	DD	2 DUP(00H)
	DD	00H
	DD	00H
; Function compile flags: /Odtp
xdata$x	ENDS
;	COMDAT ??0DataStream@Ogre@@QAE@XZ
_TEXT	SEGMENT
_this$ = -16						; size = 4
__$EHRec$ = -12						; size = 12
??0DataStream@Ogre@@QAE@XZ PROC				; Ogre::DataStream::DataStream, COMDAT
; _this$ = ecx

; 68   : 		DataStream() : mSize(0) {}

	push	ebp
	mov	ebp, esp
	push	-1
	push	__ehhandler$??0DataStream@Ogre@@QAE@XZ
	mov	eax, DWORD PTR fs:0
	push	eax
	push	ecx
	mov	eax, DWORD PTR ___security_cookie
	xor	eax, ebp
	push	eax
	lea	eax, DWORD PTR __$EHRec$[ebp]
	mov	DWORD PTR fs:0, eax
	mov	DWORD PTR _this$[ebp], ecx
	mov	eax, DWORD PTR _this$[ebp]
	mov	DWORD PTR [eax], OFFSET ??_7DataStream@Ogre@@6B@
	mov	ecx, DWORD PTR _this$[ebp]
	add	ecx, 4
	call	DWORD PTR __imp_??0?$basic_string@DU?$char_traits@D@std@@V?$allocator@D@2@@std@@QAE@XZ
	mov	DWORD PTR __$EHRec$[ebp+8], 0
	mov	ecx, DWORD PTR _this$[ebp]
	mov	DWORD PTR [ecx+32], 0
	mov	DWORD PTR __$EHRec$[ebp+8], -1
	mov	eax, DWORD PTR _this$[ebp]
	mov	ecx, DWORD PTR __$EHRec$[ebp]
	mov	DWORD PTR fs:0, ecx
	pop	ecx
	mov	esp, ebp
	pop	ebp
	ret	0
_TEXT	ENDS
;	COMDAT text$x
text$x	SEGMENT
__unwindfunclet$??0DataStream@Ogre@@QAE@XZ$0:
	mov	ecx, DWORD PTR _this$[ebp]
	add	ecx, 4
	jmp	DWORD PTR __imp_??1?$basic_string@DU?$char_traits@D@std@@V?$allocator@D@2@@std@@QAE@XZ
__ehhandler$??0DataStream@Ogre@@QAE@XZ:
	mov	edx, DWORD PTR [esp+8]
	lea	eax, DWORD PTR [edx+12]
	mov	ecx, DWORD PTR [edx-8]
	xor	ecx, eax
	call	@__security_check_cookie@4
	mov	eax, OFFSET __ehfuncinfo$??0DataStream@Ogre@@QAE@XZ
	jmp	___CxxFrameHandler3
text$x	ENDS
??0DataStream@Ogre@@QAE@XZ ENDP				; Ogre::DataStream::DataStream
PUBLIC	??0DataStream@Ogre@@QAE@ABV?$basic_string@DU?$char_traits@D@std@@V?$allocator@D@2@@std@@@Z ; Ogre::DataStream::DataStream
;	COMDAT xdata$x
xdata$x	SEGMENT
__unwindtable$??0DataStream@Ogre@@QAE@ABV?$basic_string@DU?$char_traits@D@std@@V?$allocator@D@2@@std@@@Z DD 0ffffffffH
	DD	FLAT:__unwindfunclet$??0DataStream@Ogre@@QAE@ABV?$basic_string@DU?$char_traits@D@std@@V?$allocator@D@2@@std@@@Z$0
__ehfuncinfo$??0DataStream@Ogre@@QAE@ABV?$basic_string@DU?$char_traits@D@std@@V?$allocator@D@2@@std@@@Z DD 019930522H
	DD	01H
	DD	FLAT:__unwindtable$??0DataStream@Ogre@@QAE@ABV?$basic_string@DU?$char_traits@D@std@@V?$allocator@D@2@@std@@@Z
	DD	2 DUP(00H)
	DD	2 DUP(00H)
	DD	00H
	DD	00H
; Function compile flags: /Odtp
xdata$x	ENDS
;	COMDAT ??0DataStream@Ogre@@QAE@ABV?$basic_string@DU?$char_traits@D@std@@V?$allocator@D@2@@std@@@Z
_TEXT	SEGMENT
_this$ = -16						; size = 4
__$EHRec$ = -12						; size = 12
_name$ = 8						; size = 4
??0DataStream@Ogre@@QAE@ABV?$basic_string@DU?$char_traits@D@std@@V?$allocator@D@2@@std@@@Z PROC ; Ogre::DataStream::DataStream, COMDAT
; _this$ = ecx

; 70   : 		DataStream(const String& name) : mName(name), mSize(0) {}

	push	ebp
	mov	ebp, esp
	push	-1
	push	__ehhandler$??0DataStream@Ogre@@QAE@ABV?$basic_string@DU?$char_traits@D@std@@V?$allocator@D@2@@std@@@Z
	mov	eax, DWORD PTR fs:0
	push	eax
	push	ecx
	mov	eax, DWORD PTR ___security_cookie
	xor	eax, ebp
	push	eax
	lea	eax, DWORD PTR __$EHRec$[ebp]
	mov	DWORD PTR fs:0, eax
	mov	DWORD PTR _this$[ebp], ecx
	mov	eax, DWORD PTR _this$[ebp]
	mov	DWORD PTR [eax], OFFSET ??_7DataStream@Ogre@@6B@
	mov	ecx, DWORD PTR _name$[ebp]
	push	ecx
	mov	ecx, DWORD PTR _this$[ebp]
	add	ecx, 4
	call	DWORD PTR __imp_??0?$basic_string@DU?$char_traits@D@std@@V?$allocator@D@2@@std@@QAE@ABV01@@Z
	mov	DWORD PTR __$EHRec$[ebp+8], 0
	mov	edx, DWORD PTR _this$[ebp]
	mov	DWORD PTR [edx+32], 0
	mov	DWORD PTR __$EHRec$[ebp+8], -1
	mov	eax, DWORD PTR _this$[ebp]
	mov	ecx, DWORD PTR __$EHRec$[ebp]
	mov	DWORD PTR fs:0, ecx
	pop	ecx
	mov	esp, ebp
	pop	ebp
	ret	4
_TEXT	ENDS
;	COMDAT text$x
text$x	SEGMENT
__unwindfunclet$??0DataStream@Ogre@@QAE@ABV?$basic_string@DU?$char_traits@D@std@@V?$allocator@D@2@@std@@@Z$0:
	mov	ecx, DWORD PTR _this$[ebp]
	add	ecx, 4
	jmp	DWORD PTR __imp_??1?$basic_string@DU?$char_traits@D@std@@V?$allocator@D@2@@std@@QAE@XZ
__ehhandler$??0DataStream@Ogre@@QAE@ABV?$basic_string@DU?$char_traits@D@std@@V?$allocator@D@2@@std@@@Z:
	mov	edx, DWORD PTR [esp+8]
	lea	eax, DWORD PTR [edx+12]
	mov	ecx, DWORD PTR [edx-8]
	xor	ecx, eax
	call	@__security_check_cookie@4
	mov	eax, OFFSET __ehfuncinfo$??0DataStream@Ogre@@QAE@ABV?$basic_string@DU?$char_traits@D@std@@V?$allocator@D@2@@std@@@Z
	jmp	___CxxFrameHandler3
text$x	ENDS
??0DataStream@Ogre@@QAE@ABV?$basic_string@DU?$char_traits@D@std@@V?$allocator@D@2@@std@@@Z ENDP ; Ogre::DataStream::DataStream
PUBLIC	?getName@DataStream@Ogre@@QAEABV?$basic_string@DU?$char_traits@D@std@@V?$allocator@D@2@@std@@XZ ; Ogre::DataStream::getName
; Function compile flags: /Odtp
;	COMDAT ?getName@DataStream@Ogre@@QAEABV?$basic_string@DU?$char_traits@D@std@@V?$allocator@D@2@@std@@XZ
_TEXT	SEGMENT
_this$ = -4						; size = 4
?getName@DataStream@Ogre@@QAEABV?$basic_string@DU?$char_traits@D@std@@V?$allocator@D@2@@std@@XZ PROC ; Ogre::DataStream::getName, COMDAT
; _this$ = ecx

; 72   : 		const String& getName(void) { return mName; }

	push	ebp
	mov	ebp, esp
	push	ecx
	mov	DWORD PTR _this$[ebp], ecx
	mov	eax, DWORD PTR _this$[ebp]
	add	eax, 4
	mov	esp, ebp
	pop	ebp
	ret	0
?getName@DataStream@Ogre@@QAEABV?$basic_string@DU?$char_traits@D@std@@V?$allocator@D@2@@std@@XZ ENDP ; Ogre::DataStream::getName
_TEXT	ENDS
PUBLIC	??1DataStream@Ogre@@UAE@XZ			; Ogre::DataStream::~DataStream
;	COMDAT xdata$x
xdata$x	SEGMENT
__unwindtable$??1DataStream@Ogre@@UAE@XZ DD 0ffffffffH
	DD	FLAT:__unwindfunclet$??1DataStream@Ogre@@UAE@XZ$0
__ehfuncinfo$??1DataStream@Ogre@@UAE@XZ DD 019930522H
	DD	01H
	DD	FLAT:__unwindtable$??1DataStream@Ogre@@UAE@XZ
	DD	2 DUP(00H)
	DD	2 DUP(00H)
	DD	00H
	DD	00H
; Function compile flags: /Odtp
xdata$x	ENDS
;	COMDAT ??1DataStream@Ogre@@UAE@XZ
_TEXT	SEGMENT
_this$ = -16						; size = 4
__$EHRec$ = -12						; size = 12
??1DataStream@Ogre@@UAE@XZ PROC				; Ogre::DataStream::~DataStream, COMDAT
; _this$ = ecx

; 73   : 		virtual ~DataStream() {}

	push	ebp
	mov	ebp, esp
	push	-1
	push	__ehhandler$??1DataStream@Ogre@@UAE@XZ
	mov	eax, DWORD PTR fs:0
	push	eax
	push	ecx
	mov	eax, DWORD PTR ___security_cookie
	xor	eax, ebp
	push	eax
	lea	eax, DWORD PTR __$EHRec$[ebp]
	mov	DWORD PTR fs:0, eax
	mov	DWORD PTR _this$[ebp], ecx
	mov	eax, DWORD PTR _this$[ebp]
	mov	DWORD PTR [eax], OFFSET ??_7DataStream@Ogre@@6B@
	mov	DWORD PTR __$EHRec$[ebp+8], 0
	mov	DWORD PTR __$EHRec$[ebp+8], -1
	mov	ecx, DWORD PTR _this$[ebp]
	add	ecx, 4
	call	DWORD PTR __imp_??1?$basic_string@DU?$char_traits@D@std@@V?$allocator@D@2@@std@@QAE@XZ
	mov	ecx, DWORD PTR __$EHRec$[ebp]
	mov	DWORD PTR fs:0, ecx
	pop	ecx
	mov	esp, ebp
	pop	ebp
	ret	0
_TEXT	ENDS
;	COMDAT text$x
text$x	SEGMENT
__unwindfunclet$??1DataStream@Ogre@@UAE@XZ$0:
	mov	ecx, DWORD PTR _this$[ebp]
	add	ecx, 4
	jmp	DWORD PTR __imp_??1?$basic_string@DU?$char_traits@D@std@@V?$allocator@D@2@@std@@QAE@XZ
__ehhandler$??1DataStream@Ogre@@UAE@XZ:
	mov	edx, DWORD PTR [esp+8]
	lea	eax, DWORD PTR [edx+12]
	mov	ecx, DWORD PTR [edx-8]
	xor	ecx, eax
	call	@__security_check_cookie@4
	mov	eax, OFFSET __ehfuncinfo$??1DataStream@Ogre@@UAE@XZ
	jmp	___CxxFrameHandler3
text$x	ENDS
??1DataStream@Ogre@@UAE@XZ ENDP				; Ogre::DataStream::~DataStream
; Function compile flags: /Odtp
;	COMDAT ?size@DataStream@Ogre@@UBEIXZ
_TEXT	SEGMENT
_this$ = -4						; size = 4
?size@DataStream@Ogre@@UBEIXZ PROC			; Ogre::DataStream::size, COMDAT
; _this$ = ecx

; 157  : 		virtual size_t size(void) const { return mSize; }

	push	ebp
	mov	ebp, esp
	push	ecx
	mov	DWORD PTR _this$[ebp], ecx
	mov	eax, DWORD PTR _this$[ebp]
	mov	eax, DWORD PTR [eax+32]
	mov	esp, ebp
	pop	ebp
	ret	0
?size@DataStream@Ogre@@UBEIXZ ENDP			; Ogre::DataStream::size
_TEXT	ENDS
PUBLIC	??0DataStream@Ogre@@QAE@ABV01@@Z		; Ogre::DataStream::DataStream
;	COMDAT xdata$x
xdata$x	SEGMENT
__unwindtable$??0DataStream@Ogre@@QAE@ABV01@@Z DD 0ffffffffH
	DD	FLAT:__unwindfunclet$??0DataStream@Ogre@@QAE@ABV01@@Z$0
__ehfuncinfo$??0DataStream@Ogre@@QAE@ABV01@@Z DD 019930522H
	DD	01H
	DD	FLAT:__unwindtable$??0DataStream@Ogre@@QAE@ABV01@@Z
	DD	2 DUP(00H)
	DD	2 DUP(00H)
	DD	00H
	DD	00H
; Function compile flags: /Odtp
xdata$x	ENDS
;	COMDAT ??0DataStream@Ogre@@QAE@ABV01@@Z
_TEXT	SEGMENT
_this$ = -16						; size = 4
__$EHRec$ = -12						; size = 12
___that$ = 8						; size = 4
??0DataStream@Ogre@@QAE@ABV01@@Z PROC			; Ogre::DataStream::DataStream, COMDAT
; _this$ = ecx
	push	ebp
	mov	ebp, esp
	push	-1
	push	__ehhandler$??0DataStream@Ogre@@QAE@ABV01@@Z
	mov	eax, DWORD PTR fs:0
	push	eax
	push	ecx
	mov	eax, DWORD PTR ___security_cookie
	xor	eax, ebp
	push	eax
	lea	eax, DWORD PTR __$EHRec$[ebp]
	mov	DWORD PTR fs:0, eax
	mov	DWORD PTR _this$[ebp], ecx
	mov	eax, DWORD PTR _this$[ebp]
	mov	DWORD PTR [eax], OFFSET ??_7DataStream@Ogre@@6B@
	mov	ecx, DWORD PTR ___that$[ebp]
	add	ecx, 4
	push	ecx
	mov	ecx, DWORD PTR _this$[ebp]
	add	ecx, 4
	call	DWORD PTR __imp_??0?$basic_string@DU?$char_traits@D@std@@V?$allocator@D@2@@std@@QAE@ABV01@@Z
	mov	DWORD PTR __$EHRec$[ebp+8], 0
	mov	edx, DWORD PTR _this$[ebp]
	mov	eax, DWORD PTR ___that$[ebp]
	mov	ecx, DWORD PTR [eax+32]
	mov	DWORD PTR [edx+32], ecx
	mov	DWORD PTR __$EHRec$[ebp+8], -1
	mov	eax, DWORD PTR _this$[ebp]
	mov	ecx, DWORD PTR __$EHRec$[ebp]
	mov	DWORD PTR fs:0, ecx
	pop	ecx
	mov	esp, ebp
	pop	ebp
	ret	4
_TEXT	ENDS
;	COMDAT text$x
text$x	SEGMENT
__unwindfunclet$??0DataStream@Ogre@@QAE@ABV01@@Z$0:
	mov	ecx, DWORD PTR _this$[ebp]
	add	ecx, 4
	jmp	DWORD PTR __imp_??1?$basic_string@DU?$char_traits@D@std@@V?$allocator@D@2@@std@@QAE@XZ
__ehhandler$??0DataStream@Ogre@@QAE@ABV01@@Z:
	mov	edx, DWORD PTR [esp+8]
	lea	eax, DWORD PTR [edx+12]
	mov	ecx, DWORD PTR [edx-8]
	xor	ecx, eax
	call	@__security_check_cookie@4
	mov	eax, OFFSET __ehfuncinfo$??0DataStream@Ogre@@QAE@ABV01@@Z
	jmp	___CxxFrameHandler3
text$x	ENDS
??0DataStream@Ogre@@QAE@ABV01@@Z ENDP			; Ogre::DataStream::DataStream
PUBLIC	??4DataStream@Ogre@@QAEAAV01@ABV01@@Z		; Ogre::DataStream::operator=
; Function compile flags: /Odtp
;	COMDAT ??4DataStream@Ogre@@QAEAAV01@ABV01@@Z
_TEXT	SEGMENT
_this$ = -4						; size = 4
___that$ = 8						; size = 4
??4DataStream@Ogre@@QAEAAV01@ABV01@@Z PROC		; Ogre::DataStream::operator=, COMDAT
; _this$ = ecx
	push	ebp
	mov	ebp, esp
	push	ecx
	mov	DWORD PTR _this$[ebp], ecx
	mov	eax, DWORD PTR ___that$[ebp]
	add	eax, 4
	push	eax
	mov	ecx, DWORD PTR _this$[ebp]
	add	ecx, 4
	call	DWORD PTR __imp_??4?$basic_string@DU?$char_traits@D@std@@V?$allocator@D@2@@std@@QAEAAV01@ABV01@@Z
	mov	ecx, DWORD PTR _this$[ebp]
	mov	edx, DWORD PTR ___that$[ebp]
	mov	eax, DWORD PTR [edx+32]
	mov	DWORD PTR [ecx+32], eax
	mov	eax, DWORD PTR _this$[ebp]
	mov	esp, ebp
	pop	ebp
	ret	4
??4DataStream@Ogre@@QAEAAV01@ABV01@@Z ENDP		; Ogre::DataStream::operator=
_TEXT	ENDS
PUBLIC	??_GDataStream@Ogre@@UAEPAXI@Z			; Ogre::DataStream::`scalar deleting destructor'
EXTRN	??3@YAXPAX@Z:PROC				; operator delete
; Function compile flags: /Odtp
;	COMDAT ??_GDataStream@Ogre@@UAEPAXI@Z
_TEXT	SEGMENT
_this$ = -4						; size = 4
___flags$ = 8						; size = 4
??_GDataStream@Ogre@@UAEPAXI@Z PROC			; Ogre::DataStream::`scalar deleting destructor', COMDAT
; _this$ = ecx
	push	ebp
	mov	ebp, esp
	push	ecx
	mov	DWORD PTR _this$[ebp], ecx
	mov	ecx, DWORD PTR _this$[ebp]
	call	??1DataStream@Ogre@@UAE@XZ		; Ogre::DataStream::~DataStream
	mov	eax, DWORD PTR ___flags$[ebp]
	and	eax, 1
	je	SHORT $LN1@scalar
	mov	ecx, DWORD PTR _this$[ebp]
	push	ecx
	call	??3@YAXPAX@Z				; operator delete
	add	esp, 4
$LN1@scalar:
	mov	eax, DWORD PTR _this$[ebp]
	mov	esp, ebp
	pop	ebp
	ret	4
??_GDataStream@Ogre@@UAEPAXI@Z ENDP			; Ogre::DataStream::`scalar deleting destructor'
_TEXT	ENDS
EXTRN	??_V@YAXPAX@Z:PROC				; operator delete[]
EXTRN	??_M@YGXPAXIHP6EX0@Z@Z:PROC			; `eh vector destructor iterator'
; Function compile flags: /Odtp
;	COMDAT ??_EDataStream@Ogre@@UAEPAXI@Z
_TEXT	SEGMENT
_this$ = -4						; size = 4
___flags$ = 8						; size = 4
??_EDataStream@Ogre@@UAEPAXI@Z PROC			; Ogre::DataStream::`vector deleting destructor', COMDAT
; _this$ = ecx
	push	ebp
	mov	ebp, esp
	push	ecx
	mov	DWORD PTR _this$[ebp], ecx
	mov	eax, DWORD PTR ___flags$[ebp]
	and	eax, 2
	je	SHORT $LN3@vector
	push	OFFSET ??1DataStream@Ogre@@UAE@XZ	; Ogre::DataStream::~DataStream
	mov	ecx, DWORD PTR _this$[ebp]
	mov	edx, DWORD PTR [ecx-4]
	push	edx
	push	36					; 00000024H
	mov	eax, DWORD PTR _this$[ebp]
	push	eax
	call	??_M@YGXPAXIHP6EX0@Z@Z
	mov	ecx, DWORD PTR ___flags$[ebp]
	and	ecx, 1
	je	SHORT $LN2@vector
	mov	edx, DWORD PTR _this$[ebp]
	sub	edx, 4
	push	edx
	call	??_V@YAXPAX@Z				; operator delete[]
	add	esp, 4
$LN2@vector:
	mov	eax, DWORD PTR _this$[ebp]
	sub	eax, 4
	jmp	SHORT $LN4@vector
$LN3@vector:
	mov	ecx, DWORD PTR _this$[ebp]
	call	??1DataStream@Ogre@@UAE@XZ		; Ogre::DataStream::~DataStream
	mov	eax, DWORD PTR ___flags$[ebp]
	and	eax, 1
	je	SHORT $LN1@vector
	mov	ecx, DWORD PTR _this$[ebp]
	push	ecx
	call	??3@YAXPAX@Z				; operator delete
	add	esp, 4
$LN1@vector:
	mov	eax, DWORD PTR _this$[ebp]
$LN4@vector:
	mov	esp, ebp
	pop	ebp
	ret	4
??_EDataStream@Ogre@@UAEPAXI@Z ENDP			; Ogre::DataStream::`vector deleting destructor'
_TEXT	ENDS
PUBLIC	?getPtr@MemoryDataStream@Ogre@@QAEPAEXZ		; Ogre::MemoryDataStream::getPtr
; Function compile flags: /Odtp
;	COMDAT ?getPtr@MemoryDataStream@Ogre@@QAEPAEXZ
_TEXT	SEGMENT
_this$ = -4						; size = 4
?getPtr@MemoryDataStream@Ogre@@QAEPAEXZ PROC		; Ogre::MemoryDataStream::getPtr, COMDAT
; _this$ = ecx

; 267  : 		uchar* getPtr(void) { return mData; }

	push	ebp
	mov	ebp, esp
	push	ecx
	mov	DWORD PTR _this$[ebp], ecx
	mov	eax, DWORD PTR _this$[ebp]
	mov	eax, DWORD PTR [eax+36]
	mov	esp, ebp
	pop	ebp
	ret	0
?getPtr@MemoryDataStream@Ogre@@QAEPAEXZ ENDP		; Ogre::MemoryDataStream::getPtr
_TEXT	ENDS
PUBLIC	?getCurrentPtr@MemoryDataStream@Ogre@@QAEPAEXZ	; Ogre::MemoryDataStream::getCurrentPtr
; Function compile flags: /Odtp
;	COMDAT ?getCurrentPtr@MemoryDataStream@Ogre@@QAEPAEXZ
_TEXT	SEGMENT
_this$ = -4						; size = 4
?getCurrentPtr@MemoryDataStream@Ogre@@QAEPAEXZ PROC	; Ogre::MemoryDataStream::getCurrentPtr, COMDAT
; _this$ = ecx

; 270  : 		uchar* getCurrentPtr(void) { return mPos; }

	push	ebp
	mov	ebp, esp
	push	ecx
	mov	DWORD PTR _this$[ebp], ecx
	mov	eax, DWORD PTR _this$[ebp]
	mov	eax, DWORD PTR [eax+40]
	mov	esp, ebp
	pop	ebp
	ret	0
?getCurrentPtr@MemoryDataStream@Ogre@@QAEPAEXZ ENDP	; Ogre::MemoryDataStream::getCurrentPtr
_TEXT	ENDS
PUBLIC	?getMemoryImage@MemoryDataStream@Ogre@@UAEPAXXZ	; Ogre::MemoryDataStream::getMemoryImage
; Function compile flags: /Odtp
;	COMDAT ?getMemoryImage@MemoryDataStream@Ogre@@UAEPAXXZ
_TEXT	SEGMENT
_this$ = -4						; size = 4
?getMemoryImage@MemoryDataStream@Ogre@@UAEPAXXZ PROC	; Ogre::MemoryDataStream::getMemoryImage, COMDAT
; _this$ = ecx

; 307  : 		{

	push	ebp
	mov	ebp, esp
	push	ecx
	mov	DWORD PTR _this$[ebp], ecx

; 308  : 			return mData;

	mov	eax, DWORD PTR _this$[ebp]
	mov	eax, DWORD PTR [eax+36]

; 309  : 		}

	mov	esp, ebp
	pop	ebp
	ret	0
?getMemoryImage@MemoryDataStream@Ogre@@UAEPAXXZ ENDP	; Ogre::MemoryDataStream::getMemoryImage
_TEXT	ENDS
PUBLIC	?setFreeOnClose@MemoryDataStream@Ogre@@QAEXP6AXPAX@Z@Z ; Ogre::MemoryDataStream::setFreeOnClose
; Function compile flags: /Odtp
;	COMDAT ?setFreeOnClose@MemoryDataStream@Ogre@@QAEXP6AXPAX@Z@Z
_TEXT	SEGMENT
_this$ = -4						; size = 4
_freeOnClose$ = 8					; size = 4
?setFreeOnClose@MemoryDataStream@Ogre@@QAEXP6AXPAX@Z@Z PROC ; Ogre::MemoryDataStream::setFreeOnClose, COMDAT
; _this$ = ecx

; 313  : 		void setFreeOnClose(void (*freeOnClose)(void *)) { mFreeOnClose = freeOnClose; }

	push	ebp
	mov	ebp, esp
	push	ecx
	mov	DWORD PTR _this$[ebp], ecx
	mov	eax, DWORD PTR _this$[ebp]
	mov	ecx, DWORD PTR _freeOnClose$[ebp]
	mov	DWORD PTR [eax+48], ecx
	mov	esp, ebp
	pop	ebp
	ret	4
?setFreeOnClose@MemoryDataStream@Ogre@@QAEXP6AXPAX@Z@Z ENDP ; Ogre::MemoryDataStream::setFreeOnClose
_TEXT	ENDS
PUBLIC	??_7MemoryDataStream@Ogre@@6B@			; Ogre::MemoryDataStream::`vftable'
PUBLIC	??0MemoryDataStream@Ogre@@QAE@ABV01@@Z		; Ogre::MemoryDataStream::MemoryDataStream
PUBLIC	??_R4MemoryDataStream@Ogre@@6B@			; Ogre::MemoryDataStream::`RTTI Complete Object Locator'
PUBLIC	??_R0?AVMemoryDataStream@Ogre@@@8		; Ogre::MemoryDataStream `RTTI Type Descriptor'
PUBLIC	??_R3MemoryDataStream@Ogre@@8			; Ogre::MemoryDataStream::`RTTI Class Hierarchy Descriptor'
PUBLIC	??_R2MemoryDataStream@Ogre@@8			; Ogre::MemoryDataStream::`RTTI Base Class Array'
PUBLIC	??_R1A@?0A@EA@MemoryDataStream@Ogre@@8		; Ogre::MemoryDataStream::`RTTI Base Class Descriptor at (0,-1,0,64)'
PUBLIC	??_EMemoryDataStream@Ogre@@UAEPAXI@Z		; Ogre::MemoryDataStream::`vector deleting destructor'
EXTRN	?read@MemoryDataStream@Ogre@@UAEIPAXI@Z:PROC	; Ogre::MemoryDataStream::read
EXTRN	?write@MemoryDataStream@Ogre@@UAEIPBXI@Z:PROC	; Ogre::MemoryDataStream::write
EXTRN	?readLine@MemoryDataStream@Ogre@@UAEIPADIABV?$basic_string@DU?$char_traits@D@std@@V?$allocator@D@2@@std@@@Z:PROC ; Ogre::MemoryDataStream::readLine
EXTRN	?skipLine@MemoryDataStream@Ogre@@UAEIABV?$basic_string@DU?$char_traits@D@std@@V?$allocator@D@2@@std@@@Z:PROC ; Ogre::MemoryDataStream::skipLine
EXTRN	?skip@MemoryDataStream@Ogre@@UAEXJ@Z:PROC	; Ogre::MemoryDataStream::skip
EXTRN	?seek@MemoryDataStream@Ogre@@UAEXI@Z:PROC	; Ogre::MemoryDataStream::seek
EXTRN	?tell@MemoryDataStream@Ogre@@UBEIXZ:PROC	; Ogre::MemoryDataStream::tell
EXTRN	?eof@MemoryDataStream@Ogre@@UBE_NXZ:PROC	; Ogre::MemoryDataStream::eof
EXTRN	?close@MemoryDataStream@Ogre@@UAEXXZ:PROC	; Ogre::MemoryDataStream::close
;	COMDAT ??_R1A@?0A@EA@MemoryDataStream@Ogre@@8
rdata$r	SEGMENT
??_R1A@?0A@EA@MemoryDataStream@Ogre@@8 DD FLAT:??_R0?AVMemoryDataStream@Ogre@@@8 ; Ogre::MemoryDataStream::`RTTI Base Class Descriptor at (0,-1,0,64)'
	DD	01H
	DD	00H
	DD	0ffffffffH
	DD	00H
	DD	040H
	DD	FLAT:??_R3MemoryDataStream@Ogre@@8
rdata$r	ENDS
;	COMDAT ??_R2MemoryDataStream@Ogre@@8
rdata$r	SEGMENT
??_R2MemoryDataStream@Ogre@@8 DD FLAT:??_R1A@?0A@EA@MemoryDataStream@Ogre@@8 ; Ogre::MemoryDataStream::`RTTI Base Class Array'
	DD	FLAT:??_R1A@?0A@EA@DataStream@Ogre@@8
rdata$r	ENDS
;	COMDAT ??_R3MemoryDataStream@Ogre@@8
rdata$r	SEGMENT
??_R3MemoryDataStream@Ogre@@8 DD 00H			; Ogre::MemoryDataStream::`RTTI Class Hierarchy Descriptor'
	DD	00H
	DD	02H
	DD	FLAT:??_R2MemoryDataStream@Ogre@@8
rdata$r	ENDS
;	COMDAT ??_R0?AVMemoryDataStream@Ogre@@@8
_DATA	SEGMENT
??_R0?AVMemoryDataStream@Ogre@@@8 DD FLAT:??_7type_info@@6B@ ; Ogre::MemoryDataStream `RTTI Type Descriptor'
	DD	00H
	DB	'.?AVMemoryDataStream@Ogre@@', 00H
_DATA	ENDS
;	COMDAT ??_R4MemoryDataStream@Ogre@@6B@
rdata$r	SEGMENT
??_R4MemoryDataStream@Ogre@@6B@ DD 00H			; Ogre::MemoryDataStream::`RTTI Complete Object Locator'
	DD	00H
	DD	00H
	DD	FLAT:??_R0?AVMemoryDataStream@Ogre@@@8
	DD	FLAT:??_R3MemoryDataStream@Ogre@@8
rdata$r	ENDS
;	COMDAT ??_7MemoryDataStream@Ogre@@6B@
CONST	SEGMENT
??_7MemoryDataStream@Ogre@@6B@ DD FLAT:??_R4MemoryDataStream@Ogre@@6B@ ; Ogre::MemoryDataStream::`vftable'
	DD	FLAT:??_EMemoryDataStream@Ogre@@UAEPAXI@Z
	DD	FLAT:?read@MemoryDataStream@Ogre@@UAEIPAXI@Z
	DD	FLAT:?write@MemoryDataStream@Ogre@@UAEIPBXI@Z
	DD	FLAT:?readLine@MemoryDataStream@Ogre@@UAEIPADIABV?$basic_string@DU?$char_traits@D@std@@V?$allocator@D@2@@std@@@Z
	DD	FLAT:?getLine@DataStream@Ogre@@UAE?AV?$basic_string@DU?$char_traits@D@std@@V?$allocator@D@2@@std@@_N@Z
	DD	FLAT:?getAsString@DataStream@Ogre@@UAE?AV?$basic_string@DU?$char_traits@D@std@@V?$allocator@D@2@@std@@XZ
	DD	FLAT:?skipLine@MemoryDataStream@Ogre@@UAEIABV?$basic_string@DU?$char_traits@D@std@@V?$allocator@D@2@@std@@@Z
	DD	FLAT:?skip@MemoryDataStream@Ogre@@UAEXJ@Z
	DD	FLAT:?seek@MemoryDataStream@Ogre@@UAEXI@Z
	DD	FLAT:?tell@MemoryDataStream@Ogre@@UBEIXZ
	DD	FLAT:?eof@MemoryDataStream@Ogre@@UBE_NXZ
	DD	FLAT:?size@DataStream@Ogre@@UBEIXZ
	DD	FLAT:?close@MemoryDataStream@Ogre@@UAEXXZ
	DD	FLAT:?getMemoryImage@MemoryDataStream@Ogre@@UAEPAXXZ
CONST	ENDS
;	COMDAT xdata$x
xdata$x	SEGMENT
__unwindtable$??0MemoryDataStream@Ogre@@QAE@ABV01@@Z DD 0ffffffffH
	DD	FLAT:__unwindfunclet$??0MemoryDataStream@Ogre@@QAE@ABV01@@Z$0
__ehfuncinfo$??0MemoryDataStream@Ogre@@QAE@ABV01@@Z DD 019930522H
	DD	01H
	DD	FLAT:__unwindtable$??0MemoryDataStream@Ogre@@QAE@ABV01@@Z
	DD	2 DUP(00H)
	DD	2 DUP(00H)
	DD	00H
	DD	00H
; Function compile flags: /Odtp
xdata$x	ENDS
;	COMDAT ??0MemoryDataStream@Ogre@@QAE@ABV01@@Z
_TEXT	SEGMENT
_this$ = -16						; size = 4
__$EHRec$ = -12						; size = 12
___that$ = 8						; size = 4
??0MemoryDataStream@Ogre@@QAE@ABV01@@Z PROC		; Ogre::MemoryDataStream::MemoryDataStream, COMDAT
; _this$ = ecx
	push	ebp
	mov	ebp, esp
	push	-1
	push	__ehhandler$??0MemoryDataStream@Ogre@@QAE@ABV01@@Z
	mov	eax, DWORD PTR fs:0
	push	eax
	push	ecx
	mov	eax, DWORD PTR ___security_cookie
	xor	eax, ebp
	push	eax
	lea	eax, DWORD PTR __$EHRec$[ebp]
	mov	DWORD PTR fs:0, eax
	mov	DWORD PTR _this$[ebp], ecx
	mov	eax, DWORD PTR ___that$[ebp]
	push	eax
	mov	ecx, DWORD PTR _this$[ebp]
	call	??0DataStream@Ogre@@QAE@ABV01@@Z
	mov	DWORD PTR __$EHRec$[ebp+8], 0
	mov	ecx, DWORD PTR _this$[ebp]
	mov	DWORD PTR [ecx], OFFSET ??_7MemoryDataStream@Ogre@@6B@
	mov	edx, DWORD PTR _this$[ebp]
	mov	eax, DWORD PTR ___that$[ebp]
	mov	ecx, DWORD PTR [eax+36]
	mov	DWORD PTR [edx+36], ecx
	mov	edx, DWORD PTR _this$[ebp]
	mov	eax, DWORD PTR ___that$[ebp]
	mov	ecx, DWORD PTR [eax+40]
	mov	DWORD PTR [edx+40], ecx
	mov	edx, DWORD PTR _this$[ebp]
	mov	eax, DWORD PTR ___that$[ebp]
	mov	ecx, DWORD PTR [eax+44]
	mov	DWORD PTR [edx+44], ecx
	mov	edx, DWORD PTR _this$[ebp]
	mov	eax, DWORD PTR ___that$[ebp]
	mov	ecx, DWORD PTR [eax+48]
	mov	DWORD PTR [edx+48], ecx
	mov	DWORD PTR __$EHRec$[ebp+8], -1
	mov	eax, DWORD PTR _this$[ebp]
	mov	ecx, DWORD PTR __$EHRec$[ebp]
	mov	DWORD PTR fs:0, ecx
	pop	ecx
	mov	esp, ebp
	pop	ebp
	ret	4
_TEXT	ENDS
;	COMDAT text$x
text$x	SEGMENT
__unwindfunclet$??0MemoryDataStream@Ogre@@QAE@ABV01@@Z$0:
	mov	ecx, DWORD PTR _this$[ebp]
	jmp	??1DataStream@Ogre@@UAE@XZ		; Ogre::DataStream::~DataStream
__ehhandler$??0MemoryDataStream@Ogre@@QAE@ABV01@@Z:
	mov	edx, DWORD PTR [esp+8]
	lea	eax, DWORD PTR [edx+12]
	mov	ecx, DWORD PTR [edx-8]
	xor	ecx, eax
	call	@__security_check_cookie@4
	mov	eax, OFFSET __ehfuncinfo$??0MemoryDataStream@Ogre@@QAE@ABV01@@Z
	jmp	___CxxFrameHandler3
text$x	ENDS
??0MemoryDataStream@Ogre@@QAE@ABV01@@Z ENDP		; Ogre::MemoryDataStream::MemoryDataStream
PUBLIC	??4MemoryDataStream@Ogre@@QAEAAV01@ABV01@@Z	; Ogre::MemoryDataStream::operator=
; Function compile flags: /Odtp
;	COMDAT ??4MemoryDataStream@Ogre@@QAEAAV01@ABV01@@Z
_TEXT	SEGMENT
_this$ = -4						; size = 4
___that$ = 8						; size = 4
??4MemoryDataStream@Ogre@@QAEAAV01@ABV01@@Z PROC	; Ogre::MemoryDataStream::operator=, COMDAT
; _this$ = ecx
	push	ebp
	mov	ebp, esp
	push	ecx
	mov	DWORD PTR _this$[ebp], ecx
	mov	eax, DWORD PTR ___that$[ebp]
	push	eax
	mov	ecx, DWORD PTR _this$[ebp]
	call	??4DataStream@Ogre@@QAEAAV01@ABV01@@Z
	mov	ecx, DWORD PTR _this$[ebp]
	mov	edx, DWORD PTR ___that$[ebp]
	mov	eax, DWORD PTR [edx+36]
	mov	DWORD PTR [ecx+36], eax
	mov	ecx, DWORD PTR _this$[ebp]
	mov	edx, DWORD PTR ___that$[ebp]
	mov	eax, DWORD PTR [edx+40]
	mov	DWORD PTR [ecx+40], eax
	mov	ecx, DWORD PTR _this$[ebp]
	mov	edx, DWORD PTR ___that$[ebp]
	mov	eax, DWORD PTR [edx+44]
	mov	DWORD PTR [ecx+44], eax
	mov	ecx, DWORD PTR _this$[ebp]
	mov	edx, DWORD PTR ___that$[ebp]
	mov	eax, DWORD PTR [edx+48]
	mov	DWORD PTR [ecx+48], eax
	mov	eax, DWORD PTR _this$[ebp]
	mov	esp, ebp
	pop	ebp
	ret	4
??4MemoryDataStream@Ogre@@QAEAAV01@ABV01@@Z ENDP	; Ogre::MemoryDataStream::operator=
_TEXT	ENDS
PUBLIC	??_GMemoryDataStream@Ogre@@UAEPAXI@Z		; Ogre::MemoryDataStream::`scalar deleting destructor'
EXTRN	??1MemoryDataStream@Ogre@@UAE@XZ:PROC		; Ogre::MemoryDataStream::~MemoryDataStream
; Function compile flags: /Odtp
;	COMDAT ??_GMemoryDataStream@Ogre@@UAEPAXI@Z
_TEXT	SEGMENT
_this$ = -4						; size = 4
___flags$ = 8						; size = 4
??_GMemoryDataStream@Ogre@@UAEPAXI@Z PROC		; Ogre::MemoryDataStream::`scalar deleting destructor', COMDAT
; _this$ = ecx
	push	ebp
	mov	ebp, esp
	push	ecx
	mov	DWORD PTR _this$[ebp], ecx
	mov	ecx, DWORD PTR _this$[ebp]
	call	??1MemoryDataStream@Ogre@@UAE@XZ	; Ogre::MemoryDataStream::~MemoryDataStream
	mov	eax, DWORD PTR ___flags$[ebp]
	and	eax, 1
	je	SHORT $LN1@scalar@2
	mov	ecx, DWORD PTR _this$[ebp]
	push	ecx
	call	??3@YAXPAX@Z				; operator delete
	add	esp, 4
$LN1@scalar@2:
	mov	eax, DWORD PTR _this$[ebp]
	mov	esp, ebp
	pop	ebp
	ret	4
??_GMemoryDataStream@Ogre@@UAEPAXI@Z ENDP		; Ogre::MemoryDataStream::`scalar deleting destructor'
; Function compile flags: /Odtp
_TEXT	ENDS
;	COMDAT ??_EMemoryDataStream@Ogre@@UAEPAXI@Z
_TEXT	SEGMENT
_this$ = -4						; size = 4
___flags$ = 8						; size = 4
??_EMemoryDataStream@Ogre@@UAEPAXI@Z PROC		; Ogre::MemoryDataStream::`vector deleting destructor', COMDAT
; _this$ = ecx
	push	ebp
	mov	ebp, esp
	push	ecx
	mov	DWORD PTR _this$[ebp], ecx
	mov	eax, DWORD PTR ___flags$[ebp]
	and	eax, 2
	je	SHORT $LN3@vector@2
	push	OFFSET ??1MemoryDataStream@Ogre@@UAE@XZ	; Ogre::MemoryDataStream::~MemoryDataStream
	mov	ecx, DWORD PTR _this$[ebp]
	mov	edx, DWORD PTR [ecx-4]
	push	edx
	push	52					; 00000034H
	mov	eax, DWORD PTR _this$[ebp]
	push	eax
	call	??_M@YGXPAXIHP6EX0@Z@Z
	mov	ecx, DWORD PTR ___flags$[ebp]
	and	ecx, 1
	je	SHORT $LN2@vector@2
	mov	edx, DWORD PTR _this$[ebp]
	sub	edx, 4
	push	edx
	call	??_V@YAXPAX@Z				; operator delete[]
	add	esp, 4
$LN2@vector@2:
	mov	eax, DWORD PTR _this$[ebp]
	sub	eax, 4
	jmp	SHORT $LN4@vector@2
$LN3@vector@2:
	mov	ecx, DWORD PTR _this$[ebp]
	call	??1MemoryDataStream@Ogre@@UAE@XZ	; Ogre::MemoryDataStream::~MemoryDataStream
	mov	eax, DWORD PTR ___flags$[ebp]
	and	eax, 1
	je	SHORT $LN1@vector@2
	mov	ecx, DWORD PTR _this$[ebp]
	push	ecx
	call	??3@YAXPAX@Z				; operator delete
	add	esp, 4
$LN1@vector@2:
	mov	eax, DWORD PTR _this$[ebp]
$LN4@vector@2:
	mov	esp, ebp
	pop	ebp
	ret	4
??_EMemoryDataStream@Ogre@@UAEPAXI@Z ENDP		; Ogre::MemoryDataStream::`vector deleting destructor'
_TEXT	ENDS
PUBLIC	??_7FileStreamDataStream@Ogre@@6B@		; Ogre::FileStreamDataStream::`vftable'
PUBLIC	??0FileStreamDataStream@Ogre@@QAE@ABV01@@Z	; Ogre::FileStreamDataStream::FileStreamDataStream
PUBLIC	??_R4FileStreamDataStream@Ogre@@6B@		; Ogre::FileStreamDataStream::`RTTI Complete Object Locator'
PUBLIC	??_R0?AVFileStreamDataStream@Ogre@@@8		; Ogre::FileStreamDataStream `RTTI Type Descriptor'
PUBLIC	??_R3FileStreamDataStream@Ogre@@8		; Ogre::FileStreamDataStream::`RTTI Class Hierarchy Descriptor'
PUBLIC	??_R2FileStreamDataStream@Ogre@@8		; Ogre::FileStreamDataStream::`RTTI Base Class Array'
PUBLIC	??_R1A@?0A@EA@FileStreamDataStream@Ogre@@8	; Ogre::FileStreamDataStream::`RTTI Base Class Descriptor at (0,-1,0,64)'
PUBLIC	??_EFileStreamDataStream@Ogre@@UAEPAXI@Z	; Ogre::FileStreamDataStream::`vector deleting destructor'
EXTRN	?read@FileStreamDataStream@Ogre@@UAEIPAXI@Z:PROC ; Ogre::FileStreamDataStream::read
EXTRN	?write@FileStreamDataStream@Ogre@@UAEIPBXI@Z:PROC ; Ogre::FileStreamDataStream::write
EXTRN	?readLine@FileStreamDataStream@Ogre@@UAEIPADIABV?$basic_string@DU?$char_traits@D@std@@V?$allocator@D@2@@std@@@Z:PROC ; Ogre::FileStreamDataStream::readLine
EXTRN	?skip@FileStreamDataStream@Ogre@@UAEXJ@Z:PROC	; Ogre::FileStreamDataStream::skip
EXTRN	?seek@FileStreamDataStream@Ogre@@UAEXI@Z:PROC	; Ogre::FileStreamDataStream::seek
EXTRN	?tell@FileStreamDataStream@Ogre@@UBEIXZ:PROC	; Ogre::FileStreamDataStream::tell
EXTRN	?eof@FileStreamDataStream@Ogre@@UBE_NXZ:PROC	; Ogre::FileStreamDataStream::eof
EXTRN	?close@FileStreamDataStream@Ogre@@UAEXXZ:PROC	; Ogre::FileStreamDataStream::close
EXTRN	?getMemoryImage@FileStreamDataStream@Ogre@@UAEPAXXZ:PROC ; Ogre::FileStreamDataStream::getMemoryImage
;	COMDAT ??_R1A@?0A@EA@FileStreamDataStream@Ogre@@8
rdata$r	SEGMENT
??_R1A@?0A@EA@FileStreamDataStream@Ogre@@8 DD FLAT:??_R0?AVFileStreamDataStream@Ogre@@@8 ; Ogre::FileStreamDataStream::`RTTI Base Class Descriptor at (0,-1,0,64)'
	DD	01H
	DD	00H
	DD	0ffffffffH
	DD	00H
	DD	040H
	DD	FLAT:??_R3FileStreamDataStream@Ogre@@8
rdata$r	ENDS
;	COMDAT ??_R2FileStreamDataStream@Ogre@@8
rdata$r	SEGMENT
??_R2FileStreamDataStream@Ogre@@8 DD FLAT:??_R1A@?0A@EA@FileStreamDataStream@Ogre@@8 ; Ogre::FileStreamDataStream::`RTTI Base Class Array'
	DD	FLAT:??_R1A@?0A@EA@DataStream@Ogre@@8
rdata$r	ENDS
;	COMDAT ??_R3FileStreamDataStream@Ogre@@8
rdata$r	SEGMENT
??_R3FileStreamDataStream@Ogre@@8 DD 00H		; Ogre::FileStreamDataStream::`RTTI Class Hierarchy Descriptor'
	DD	00H
	DD	02H
	DD	FLAT:??_R2FileStreamDataStream@Ogre@@8
rdata$r	ENDS
;	COMDAT ??_R0?AVFileStreamDataStream@Ogre@@@8
_DATA	SEGMENT
??_R0?AVFileStreamDataStream@Ogre@@@8 DD FLAT:??_7type_info@@6B@ ; Ogre::FileStreamDataStream `RTTI Type Descriptor'
	DD	00H
	DB	'.?AVFileStreamDataStream@Ogre@@', 00H
_DATA	ENDS
;	COMDAT ??_R4FileStreamDataStream@Ogre@@6B@
rdata$r	SEGMENT
??_R4FileStreamDataStream@Ogre@@6B@ DD 00H		; Ogre::FileStreamDataStream::`RTTI Complete Object Locator'
	DD	00H
	DD	00H
	DD	FLAT:??_R0?AVFileStreamDataStream@Ogre@@@8
	DD	FLAT:??_R3FileStreamDataStream@Ogre@@8
rdata$r	ENDS
;	COMDAT ??_7FileStreamDataStream@Ogre@@6B@
CONST	SEGMENT
??_7FileStreamDataStream@Ogre@@6B@ DD FLAT:??_R4FileStreamDataStream@Ogre@@6B@ ; Ogre::FileStreamDataStream::`vftable'
	DD	FLAT:??_EFileStreamDataStream@Ogre@@UAEPAXI@Z
	DD	FLAT:?read@FileStreamDataStream@Ogre@@UAEIPAXI@Z
	DD	FLAT:?write@FileStreamDataStream@Ogre@@UAEIPBXI@Z
	DD	FLAT:?readLine@FileStreamDataStream@Ogre@@UAEIPADIABV?$basic_string@DU?$char_traits@D@std@@V?$allocator@D@2@@std@@@Z
	DD	FLAT:?getLine@DataStream@Ogre@@UAE?AV?$basic_string@DU?$char_traits@D@std@@V?$allocator@D@2@@std@@_N@Z
	DD	FLAT:?getAsString@DataStream@Ogre@@UAE?AV?$basic_string@DU?$char_traits@D@std@@V?$allocator@D@2@@std@@XZ
	DD	FLAT:?skipLine@DataStream@Ogre@@UAEIABV?$basic_string@DU?$char_traits@D@std@@V?$allocator@D@2@@std@@@Z
	DD	FLAT:?skip@FileStreamDataStream@Ogre@@UAEXJ@Z
	DD	FLAT:?seek@FileStreamDataStream@Ogre@@UAEXI@Z
	DD	FLAT:?tell@FileStreamDataStream@Ogre@@UBEIXZ
	DD	FLAT:?eof@FileStreamDataStream@Ogre@@UBE_NXZ
	DD	FLAT:?size@DataStream@Ogre@@UBEIXZ
	DD	FLAT:?close@FileStreamDataStream@Ogre@@UAEXXZ
	DD	FLAT:?getMemoryImage@FileStreamDataStream@Ogre@@UAEPAXXZ
CONST	ENDS
;	COMDAT xdata$x
xdata$x	SEGMENT
__unwindtable$??0FileStreamDataStream@Ogre@@QAE@ABV01@@Z DD 0ffffffffH
	DD	FLAT:__unwindfunclet$??0FileStreamDataStream@Ogre@@QAE@ABV01@@Z$0
__ehfuncinfo$??0FileStreamDataStream@Ogre@@QAE@ABV01@@Z DD 019930522H
	DD	01H
	DD	FLAT:__unwindtable$??0FileStreamDataStream@Ogre@@QAE@ABV01@@Z
	DD	2 DUP(00H)
	DD	2 DUP(00H)
	DD	00H
	DD	00H
; Function compile flags: /Odtp
xdata$x	ENDS
;	COMDAT ??0FileStreamDataStream@Ogre@@QAE@ABV01@@Z
_TEXT	SEGMENT
_this$ = -16						; size = 4
__$EHRec$ = -12						; size = 12
___that$ = 8						; size = 4
??0FileStreamDataStream@Ogre@@QAE@ABV01@@Z PROC		; Ogre::FileStreamDataStream::FileStreamDataStream, COMDAT
; _this$ = ecx
	push	ebp
	mov	ebp, esp
	push	-1
	push	__ehhandler$??0FileStreamDataStream@Ogre@@QAE@ABV01@@Z
	mov	eax, DWORD PTR fs:0
	push	eax
	push	ecx
	mov	eax, DWORD PTR ___security_cookie
	xor	eax, ebp
	push	eax
	lea	eax, DWORD PTR __$EHRec$[ebp]
	mov	DWORD PTR fs:0, eax
	mov	DWORD PTR _this$[ebp], ecx
	mov	eax, DWORD PTR ___that$[ebp]
	push	eax
	mov	ecx, DWORD PTR _this$[ebp]
	call	??0DataStream@Ogre@@QAE@ABV01@@Z
	mov	DWORD PTR __$EHRec$[ebp+8], 0
	mov	ecx, DWORD PTR _this$[ebp]
	mov	DWORD PTR [ecx], OFFSET ??_7FileStreamDataStream@Ogre@@6B@
	mov	edx, DWORD PTR _this$[ebp]
	mov	eax, DWORD PTR ___that$[ebp]
	mov	ecx, DWORD PTR [eax+36]
	mov	DWORD PTR [edx+36], ecx
	mov	edx, DWORD PTR _this$[ebp]
	mov	eax, DWORD PTR ___that$[ebp]
	mov	cl, BYTE PTR [eax+40]
	mov	BYTE PTR [edx+40], cl
	mov	DWORD PTR __$EHRec$[ebp+8], -1
	mov	eax, DWORD PTR _this$[ebp]
	mov	ecx, DWORD PTR __$EHRec$[ebp]
	mov	DWORD PTR fs:0, ecx
	pop	ecx
	mov	esp, ebp
	pop	ebp
	ret	4
_TEXT	ENDS
;	COMDAT text$x
text$x	SEGMENT
__unwindfunclet$??0FileStreamDataStream@Ogre@@QAE@ABV01@@Z$0:
	mov	ecx, DWORD PTR _this$[ebp]
	jmp	??1DataStream@Ogre@@UAE@XZ		; Ogre::DataStream::~DataStream
__ehhandler$??0FileStreamDataStream@Ogre@@QAE@ABV01@@Z:
	mov	edx, DWORD PTR [esp+8]
	lea	eax, DWORD PTR [edx+12]
	mov	ecx, DWORD PTR [edx-8]
	xor	ecx, eax
	call	@__security_check_cookie@4
	mov	eax, OFFSET __ehfuncinfo$??0FileStreamDataStream@Ogre@@QAE@ABV01@@Z
	jmp	___CxxFrameHandler3
text$x	ENDS
??0FileStreamDataStream@Ogre@@QAE@ABV01@@Z ENDP		; Ogre::FileStreamDataStream::FileStreamDataStream
PUBLIC	??4FileStreamDataStream@Ogre@@QAEAAV01@ABV01@@Z	; Ogre::FileStreamDataStream::operator=
; Function compile flags: /Odtp
;	COMDAT ??4FileStreamDataStream@Ogre@@QAEAAV01@ABV01@@Z
_TEXT	SEGMENT
_this$ = -4						; size = 4
___that$ = 8						; size = 4
??4FileStreamDataStream@Ogre@@QAEAAV01@ABV01@@Z PROC	; Ogre::FileStreamDataStream::operator=, COMDAT
; _this$ = ecx
	push	ebp
	mov	ebp, esp
	push	ecx
	mov	DWORD PTR _this$[ebp], ecx
	mov	eax, DWORD PTR ___that$[ebp]
	push	eax
	mov	ecx, DWORD PTR _this$[ebp]
	call	??4DataStream@Ogre@@QAEAAV01@ABV01@@Z
	mov	ecx, DWORD PTR _this$[ebp]
	mov	edx, DWORD PTR ___that$[ebp]
	mov	eax, DWORD PTR [edx+36]
	mov	DWORD PTR [ecx+36], eax
	mov	ecx, DWORD PTR _this$[ebp]
	mov	edx, DWORD PTR ___that$[ebp]
	mov	al, BYTE PTR [edx+40]
	mov	BYTE PTR [ecx+40], al
	mov	eax, DWORD PTR _this$[ebp]
	mov	esp, ebp
	pop	ebp
	ret	4
??4FileStreamDataStream@Ogre@@QAEAAV01@ABV01@@Z ENDP	; Ogre::FileStreamDataStream::operator=
_TEXT	ENDS
PUBLIC	??_GFileStreamDataStream@Ogre@@UAEPAXI@Z	; Ogre::FileStreamDataStream::`scalar deleting destructor'
EXTRN	??1FileStreamDataStream@Ogre@@UAE@XZ:PROC	; Ogre::FileStreamDataStream::~FileStreamDataStream
; Function compile flags: /Odtp
;	COMDAT ??_GFileStreamDataStream@Ogre@@UAEPAXI@Z
_TEXT	SEGMENT
_this$ = -4						; size = 4
___flags$ = 8						; size = 4
??_GFileStreamDataStream@Ogre@@UAEPAXI@Z PROC		; Ogre::FileStreamDataStream::`scalar deleting destructor', COMDAT
; _this$ = ecx
	push	ebp
	mov	ebp, esp
	push	ecx
	mov	DWORD PTR _this$[ebp], ecx
	mov	ecx, DWORD PTR _this$[ebp]
	call	??1FileStreamDataStream@Ogre@@UAE@XZ	; Ogre::FileStreamDataStream::~FileStreamDataStream
	mov	eax, DWORD PTR ___flags$[ebp]
	and	eax, 1
	je	SHORT $LN1@scalar@3
	mov	ecx, DWORD PTR _this$[ebp]
	push	ecx
	call	??3@YAXPAX@Z				; operator delete
	add	esp, 4
$LN1@scalar@3:
	mov	eax, DWORD PTR _this$[ebp]
	mov	esp, ebp
	pop	ebp
	ret	4
??_GFileStreamDataStream@Ogre@@UAEPAXI@Z ENDP		; Ogre::FileStreamDataStream::`scalar deleting destructor'
; Function compile flags: /Odtp
_TEXT	ENDS
;	COMDAT ??_EFileStreamDataStream@Ogre@@UAEPAXI@Z
_TEXT	SEGMENT
_this$ = -4						; size = 4
___flags$ = 8						; size = 4
??_EFileStreamDataStream@Ogre@@UAEPAXI@Z PROC		; Ogre::FileStreamDataStream::`vector deleting destructor', COMDAT
; _this$ = ecx
	push	ebp
	mov	ebp, esp
	push	ecx
	mov	DWORD PTR _this$[ebp], ecx
	mov	eax, DWORD PTR ___flags$[ebp]
	and	eax, 2
	je	SHORT $LN3@vector@3
	push	OFFSET ??1FileStreamDataStream@Ogre@@UAE@XZ ; Ogre::FileStreamDataStream::~FileStreamDataStream
	mov	ecx, DWORD PTR _this$[ebp]
	mov	edx, DWORD PTR [ecx-4]
	push	edx
	push	44					; 0000002cH
	mov	eax, DWORD PTR _this$[ebp]
	push	eax
	call	??_M@YGXPAXIHP6EX0@Z@Z
	mov	ecx, DWORD PTR ___flags$[ebp]
	and	ecx, 1
	je	SHORT $LN2@vector@3
	mov	edx, DWORD PTR _this$[ebp]
	sub	edx, 4
	push	edx
	call	??_V@YAXPAX@Z				; operator delete[]
	add	esp, 4
$LN2@vector@3:
	mov	eax, DWORD PTR _this$[ebp]
	sub	eax, 4
	jmp	SHORT $LN4@vector@3
$LN3@vector@3:
	mov	ecx, DWORD PTR _this$[ebp]
	call	??1FileStreamDataStream@Ogre@@UAE@XZ	; Ogre::FileStreamDataStream::~FileStreamDataStream
	mov	eax, DWORD PTR ___flags$[ebp]
	and	eax, 1
	je	SHORT $LN1@vector@3
	mov	ecx, DWORD PTR _this$[ebp]
	push	ecx
	call	??3@YAXPAX@Z				; operator delete
	add	esp, 4
$LN1@vector@3:
	mov	eax, DWORD PTR _this$[ebp]
$LN4@vector@3:
	mov	esp, ebp
	pop	ebp
	ret	4
??_EFileStreamDataStream@Ogre@@UAEPAXI@Z ENDP		; Ogre::FileStreamDataStream::`vector deleting destructor'
_TEXT	ENDS
PUBLIC	??_7FileHandleDataStream@Ogre@@6B@		; Ogre::FileHandleDataStream::`vftable'
PUBLIC	??0FileHandleDataStream@Ogre@@QAE@ABV01@@Z	; Ogre::FileHandleDataStream::FileHandleDataStream
PUBLIC	??_R4FileHandleDataStream@Ogre@@6B@		; Ogre::FileHandleDataStream::`RTTI Complete Object Locator'
PUBLIC	??_R0?AVFileHandleDataStream@Ogre@@@8		; Ogre::FileHandleDataStream `RTTI Type Descriptor'
PUBLIC	??_R3FileHandleDataStream@Ogre@@8		; Ogre::FileHandleDataStream::`RTTI Class Hierarchy Descriptor'
PUBLIC	??_R2FileHandleDataStream@Ogre@@8		; Ogre::FileHandleDataStream::`RTTI Base Class Array'
PUBLIC	??_R1A@?0A@EA@FileHandleDataStream@Ogre@@8	; Ogre::FileHandleDataStream::`RTTI Base Class Descriptor at (0,-1,0,64)'
PUBLIC	??_EFileHandleDataStream@Ogre@@UAEPAXI@Z	; Ogre::FileHandleDataStream::`vector deleting destructor'
EXTRN	?read@FileHandleDataStream@Ogre@@UAEIPAXI@Z:PROC ; Ogre::FileHandleDataStream::read
EXTRN	?write@FileHandleDataStream@Ogre@@UAEIPBXI@Z:PROC ; Ogre::FileHandleDataStream::write
EXTRN	?skip@FileHandleDataStream@Ogre@@UAEXJ@Z:PROC	; Ogre::FileHandleDataStream::skip
EXTRN	?seek@FileHandleDataStream@Ogre@@UAEXI@Z:PROC	; Ogre::FileHandleDataStream::seek
EXTRN	?tell@FileHandleDataStream@Ogre@@UBEIXZ:PROC	; Ogre::FileHandleDataStream::tell
EXTRN	?eof@FileHandleDataStream@Ogre@@UBE_NXZ:PROC	; Ogre::FileHandleDataStream::eof
EXTRN	?close@FileHandleDataStream@Ogre@@UAEXXZ:PROC	; Ogre::FileHandleDataStream::close
EXTRN	?getMemoryImage@FileHandleDataStream@Ogre@@UAEPAXXZ:PROC ; Ogre::FileHandleDataStream::getMemoryImage
;	COMDAT ??_R1A@?0A@EA@FileHandleDataStream@Ogre@@8
rdata$r	SEGMENT
??_R1A@?0A@EA@FileHandleDataStream@Ogre@@8 DD FLAT:??_R0?AVFileHandleDataStream@Ogre@@@8 ; Ogre::FileHandleDataStream::`RTTI Base Class Descriptor at (0,-1,0,64)'
	DD	01H
	DD	00H
	DD	0ffffffffH
	DD	00H
	DD	040H
	DD	FLAT:??_R3FileHandleDataStream@Ogre@@8
rdata$r	ENDS
;	COMDAT ??_R2FileHandleDataStream@Ogre@@8
rdata$r	SEGMENT
??_R2FileHandleDataStream@Ogre@@8 DD FLAT:??_R1A@?0A@EA@FileHandleDataStream@Ogre@@8 ; Ogre::FileHandleDataStream::`RTTI Base Class Array'
	DD	FLAT:??_R1A@?0A@EA@DataStream@Ogre@@8
rdata$r	ENDS
;	COMDAT ??_R3FileHandleDataStream@Ogre@@8
rdata$r	SEGMENT
??_R3FileHandleDataStream@Ogre@@8 DD 00H		; Ogre::FileHandleDataStream::`RTTI Class Hierarchy Descriptor'
	DD	00H
	DD	02H
	DD	FLAT:??_R2FileHandleDataStream@Ogre@@8
rdata$r	ENDS
;	COMDAT ??_R0?AVFileHandleDataStream@Ogre@@@8
_DATA	SEGMENT
??_R0?AVFileHandleDataStream@Ogre@@@8 DD FLAT:??_7type_info@@6B@ ; Ogre::FileHandleDataStream `RTTI Type Descriptor'
	DD	00H
	DB	'.?AVFileHandleDataStream@Ogre@@', 00H
_DATA	ENDS
;	COMDAT ??_R4FileHandleDataStream@Ogre@@6B@
rdata$r	SEGMENT
??_R4FileHandleDataStream@Ogre@@6B@ DD 00H		; Ogre::FileHandleDataStream::`RTTI Complete Object Locator'
	DD	00H
	DD	00H
	DD	FLAT:??_R0?AVFileHandleDataStream@Ogre@@@8
	DD	FLAT:??_R3FileHandleDataStream@Ogre@@8
rdata$r	ENDS
;	COMDAT ??_7FileHandleDataStream@Ogre@@6B@
CONST	SEGMENT
??_7FileHandleDataStream@Ogre@@6B@ DD FLAT:??_R4FileHandleDataStream@Ogre@@6B@ ; Ogre::FileHandleDataStream::`vftable'
	DD	FLAT:??_EFileHandleDataStream@Ogre@@UAEPAXI@Z
	DD	FLAT:?read@FileHandleDataStream@Ogre@@UAEIPAXI@Z
	DD	FLAT:?write@FileHandleDataStream@Ogre@@UAEIPBXI@Z
	DD	FLAT:?readLine@DataStream@Ogre@@UAEIPADIABV?$basic_string@DU?$char_traits@D@std@@V?$allocator@D@2@@std@@@Z
	DD	FLAT:?getLine@DataStream@Ogre@@UAE?AV?$basic_string@DU?$char_traits@D@std@@V?$allocator@D@2@@std@@_N@Z
	DD	FLAT:?getAsString@DataStream@Ogre@@UAE?AV?$basic_string@DU?$char_traits@D@std@@V?$allocator@D@2@@std@@XZ
	DD	FLAT:?skipLine@DataStream@Ogre@@UAEIABV?$basic_string@DU?$char_traits@D@std@@V?$allocator@D@2@@std@@@Z
	DD	FLAT:?skip@FileHandleDataStream@Ogre@@UAEXJ@Z
	DD	FLAT:?seek@FileHandleDataStream@Ogre@@UAEXI@Z
	DD	FLAT:?tell@FileHandleDataStream@Ogre@@UBEIXZ
	DD	FLAT:?eof@FileHandleDataStream@Ogre@@UBE_NXZ
	DD	FLAT:?size@DataStream@Ogre@@UBEIXZ
	DD	FLAT:?close@FileHandleDataStream@Ogre@@UAEXXZ
	DD	FLAT:?getMemoryImage@FileHandleDataStream@Ogre@@UAEPAXXZ
CONST	ENDS
;	COMDAT xdata$x
xdata$x	SEGMENT
__unwindtable$??0FileHandleDataStream@Ogre@@QAE@ABV01@@Z DD 0ffffffffH
	DD	FLAT:__unwindfunclet$??0FileHandleDataStream@Ogre@@QAE@ABV01@@Z$0
__ehfuncinfo$??0FileHandleDataStream@Ogre@@QAE@ABV01@@Z DD 019930522H
	DD	01H
	DD	FLAT:__unwindtable$??0FileHandleDataStream@Ogre@@QAE@ABV01@@Z
	DD	2 DUP(00H)
	DD	2 DUP(00H)
	DD	00H
	DD	00H
; Function compile flags: /Odtp
xdata$x	ENDS
;	COMDAT ??0FileHandleDataStream@Ogre@@QAE@ABV01@@Z
_TEXT	SEGMENT
_this$ = -16						; size = 4
__$EHRec$ = -12						; size = 12
___that$ = 8						; size = 4
??0FileHandleDataStream@Ogre@@QAE@ABV01@@Z PROC		; Ogre::FileHandleDataStream::FileHandleDataStream, COMDAT
; _this$ = ecx
	push	ebp
	mov	ebp, esp
	push	-1
	push	__ehhandler$??0FileHandleDataStream@Ogre@@QAE@ABV01@@Z
	mov	eax, DWORD PTR fs:0
	push	eax
	push	ecx
	mov	eax, DWORD PTR ___security_cookie
	xor	eax, ebp
	push	eax
	lea	eax, DWORD PTR __$EHRec$[ebp]
	mov	DWORD PTR fs:0, eax
	mov	DWORD PTR _this$[ebp], ecx
	mov	eax, DWORD PTR ___that$[ebp]
	push	eax
	mov	ecx, DWORD PTR _this$[ebp]
	call	??0DataStream@Ogre@@QAE@ABV01@@Z
	mov	DWORD PTR __$EHRec$[ebp+8], 0
	mov	ecx, DWORD PTR _this$[ebp]
	mov	DWORD PTR [ecx], OFFSET ??_7FileHandleDataStream@Ogre@@6B@
	mov	edx, DWORD PTR _this$[ebp]
	mov	eax, DWORD PTR ___that$[ebp]
	mov	ecx, DWORD PTR [eax+36]
	mov	DWORD PTR [edx+36], ecx
	mov	edx, DWORD PTR _this$[ebp]
	mov	eax, DWORD PTR ___that$[ebp]
	mov	ecx, DWORD PTR [eax+40]
	mov	DWORD PTR [edx+40], ecx
	mov	DWORD PTR __$EHRec$[ebp+8], -1
	mov	eax, DWORD PTR _this$[ebp]
	mov	ecx, DWORD PTR __$EHRec$[ebp]
	mov	DWORD PTR fs:0, ecx
	pop	ecx
	mov	esp, ebp
	pop	ebp
	ret	4
_TEXT	ENDS
;	COMDAT text$x
text$x	SEGMENT
__unwindfunclet$??0FileHandleDataStream@Ogre@@QAE@ABV01@@Z$0:
	mov	ecx, DWORD PTR _this$[ebp]
	jmp	??1DataStream@Ogre@@UAE@XZ		; Ogre::DataStream::~DataStream
__ehhandler$??0FileHandleDataStream@Ogre@@QAE@ABV01@@Z:
	mov	edx, DWORD PTR [esp+8]
	lea	eax, DWORD PTR [edx+12]
	mov	ecx, DWORD PTR [edx-8]
	xor	ecx, eax
	call	@__security_check_cookie@4
	mov	eax, OFFSET __ehfuncinfo$??0FileHandleDataStream@Ogre@@QAE@ABV01@@Z
	jmp	___CxxFrameHandler3
text$x	ENDS
??0FileHandleDataStream@Ogre@@QAE@ABV01@@Z ENDP		; Ogre::FileHandleDataStream::FileHandleDataStream
PUBLIC	??4FileHandleDataStream@Ogre@@QAEAAV01@ABV01@@Z	; Ogre::FileHandleDataStream::operator=
; Function compile flags: /Odtp
;	COMDAT ??4FileHandleDataStream@Ogre@@QAEAAV01@ABV01@@Z
_TEXT	SEGMENT
_this$ = -4						; size = 4
___that$ = 8						; size = 4
??4FileHandleDataStream@Ogre@@QAEAAV01@ABV01@@Z PROC	; Ogre::FileHandleDataStream::operator=, COMDAT
; _this$ = ecx
	push	ebp
	mov	ebp, esp
	push	ecx
	mov	DWORD PTR _this$[ebp], ecx
	mov	eax, DWORD PTR ___that$[ebp]
	push	eax
	mov	ecx, DWORD PTR _this$[ebp]
	call	??4DataStream@Ogre@@QAEAAV01@ABV01@@Z
	mov	ecx, DWORD PTR _this$[ebp]
	mov	edx, DWORD PTR ___that$[ebp]
	mov	eax, DWORD PTR [edx+36]
	mov	DWORD PTR [ecx+36], eax
	mov	ecx, DWORD PTR _this$[ebp]
	mov	edx, DWORD PTR ___that$[ebp]
	mov	eax, DWORD PTR [edx+40]
	mov	DWORD PTR [ecx+40], eax
	mov	eax, DWORD PTR _this$[ebp]
	mov	esp, ebp
	pop	ebp
	ret	4
??4FileHandleDataStream@Ogre@@QAEAAV01@ABV01@@Z ENDP	; Ogre::FileHandleDataStream::operator=
_TEXT	ENDS
PUBLIC	??_GFileHandleDataStream@Ogre@@UAEPAXI@Z	; Ogre::FileHandleDataStream::`scalar deleting destructor'
EXTRN	??1FileHandleDataStream@Ogre@@UAE@XZ:PROC	; Ogre::FileHandleDataStream::~FileHandleDataStream
; Function compile flags: /Odtp
;	COMDAT ??_GFileHandleDataStream@Ogre@@UAEPAXI@Z
_TEXT	SEGMENT
_this$ = -4						; size = 4
___flags$ = 8						; size = 4
??_GFileHandleDataStream@Ogre@@UAEPAXI@Z PROC		; Ogre::FileHandleDataStream::`scalar deleting destructor', COMDAT
; _this$ = ecx
	push	ebp
	mov	ebp, esp
	push	ecx
	mov	DWORD PTR _this$[ebp], ecx
	mov	ecx, DWORD PTR _this$[ebp]
	call	??1FileHandleDataStream@Ogre@@UAE@XZ	; Ogre::FileHandleDataStream::~FileHandleDataStream
	mov	eax, DWORD PTR ___flags$[ebp]
	and	eax, 1
	je	SHORT $LN1@scalar@4
	mov	ecx, DWORD PTR _this$[ebp]
	push	ecx
	call	??3@YAXPAX@Z				; operator delete
	add	esp, 4
$LN1@scalar@4:
	mov	eax, DWORD PTR _this$[ebp]
	mov	esp, ebp
	pop	ebp
	ret	4
??_GFileHandleDataStream@Ogre@@UAEPAXI@Z ENDP		; Ogre::FileHandleDataStream::`scalar deleting destructor'
; Function compile flags: /Odtp
_TEXT	ENDS
;	COMDAT ??_EFileHandleDataStream@Ogre@@UAEPAXI@Z
_TEXT	SEGMENT
_this$ = -4						; size = 4
___flags$ = 8						; size = 4
??_EFileHandleDataStream@Ogre@@UAEPAXI@Z PROC		; Ogre::FileHandleDataStream::`vector deleting destructor', COMDAT
; _this$ = ecx
	push	ebp
	mov	ebp, esp
	push	ecx
	mov	DWORD PTR _this$[ebp], ecx
	mov	eax, DWORD PTR ___flags$[ebp]
	and	eax, 2
	je	SHORT $LN3@vector@4
	push	OFFSET ??1FileHandleDataStream@Ogre@@UAE@XZ ; Ogre::FileHandleDataStream::~FileHandleDataStream
	mov	ecx, DWORD PTR _this$[ebp]
	mov	edx, DWORD PTR [ecx-4]
	push	edx
	push	44					; 0000002cH
	mov	eax, DWORD PTR _this$[ebp]
	push	eax
	call	??_M@YGXPAXIHP6EX0@Z@Z
	mov	ecx, DWORD PTR ___flags$[ebp]
	and	ecx, 1
	je	SHORT $LN2@vector@4
	mov	edx, DWORD PTR _this$[ebp]
	sub	edx, 4
	push	edx
	call	??_V@YAXPAX@Z				; operator delete[]
	add	esp, 4
$LN2@vector@4:
	mov	eax, DWORD PTR _this$[ebp]
	sub	eax, 4
	jmp	SHORT $LN4@vector@4
$LN3@vector@4:
	mov	ecx, DWORD PTR _this$[ebp]
	call	??1FileHandleDataStream@Ogre@@UAE@XZ	; Ogre::FileHandleDataStream::~FileHandleDataStream
	mov	eax, DWORD PTR ___flags$[ebp]
	and	eax, 1
	je	SHORT $LN1@vector@4
	mov	ecx, DWORD PTR _this$[ebp]
	push	ecx
	call	??3@YAXPAX@Z				; operator delete
	add	esp, 4
$LN1@vector@4:
	mov	eax, DWORD PTR _this$[ebp]
$LN4@vector@4:
	mov	esp, ebp
	pop	ebp
	ret	4
??_EFileHandleDataStream@Ogre@@UAEPAXI@Z ENDP		; Ogre::FileHandleDataStream::`vector deleting destructor'
_TEXT	ENDS
PUBLIC	??_7DataStreamObject@Ogre@@6B@			; Ogre::DataStreamObject::`vftable'
PUBLIC	??1DataStreamObject@Ogre@@MAE@XZ		; Ogre::DataStreamObject::~DataStreamObject
PUBLIC	??_R4DataStreamObject@Ogre@@6B@			; Ogre::DataStreamObject::`RTTI Complete Object Locator'
PUBLIC	??_R0?AVDataStreamObject@Ogre@@@8		; Ogre::DataStreamObject `RTTI Type Descriptor'
PUBLIC	??_R3DataStreamObject@Ogre@@8			; Ogre::DataStreamObject::`RTTI Class Hierarchy Descriptor'
PUBLIC	??_R2DataStreamObject@Ogre@@8			; Ogre::DataStreamObject::`RTTI Base Class Array'
PUBLIC	??_R1A@?0A@EA@DataStreamObject@Ogre@@8		; Ogre::DataStreamObject::`RTTI Base Class Descriptor at (0,-1,0,64)'
PUBLIC	??_EDataStreamObject@Ogre@@MAEPAXI@Z		; Ogre::DataStreamObject::`vector deleting destructor'
;	COMDAT ??_R1A@?0A@EA@DataStreamObject@Ogre@@8
rdata$r	SEGMENT
??_R1A@?0A@EA@DataStreamObject@Ogre@@8 DD FLAT:??_R0?AVDataStreamObject@Ogre@@@8 ; Ogre::DataStreamObject::`RTTI Base Class Descriptor at (0,-1,0,64)'
	DD	00H
	DD	00H
	DD	0ffffffffH
	DD	00H
	DD	040H
	DD	FLAT:??_R3DataStreamObject@Ogre@@8
rdata$r	ENDS
;	COMDAT ??_R2DataStreamObject@Ogre@@8
rdata$r	SEGMENT
??_R2DataStreamObject@Ogre@@8 DD FLAT:??_R1A@?0A@EA@DataStreamObject@Ogre@@8 ; Ogre::DataStreamObject::`RTTI Base Class Array'
rdata$r	ENDS
;	COMDAT ??_R3DataStreamObject@Ogre@@8
rdata$r	SEGMENT
??_R3DataStreamObject@Ogre@@8 DD 00H			; Ogre::DataStreamObject::`RTTI Class Hierarchy Descriptor'
	DD	00H
	DD	01H
	DD	FLAT:??_R2DataStreamObject@Ogre@@8
rdata$r	ENDS
;	COMDAT ??_R0?AVDataStreamObject@Ogre@@@8
_DATA	SEGMENT
??_R0?AVDataStreamObject@Ogre@@@8 DD FLAT:??_7type_info@@6B@ ; Ogre::DataStreamObject `RTTI Type Descriptor'
	DD	00H
	DB	'.?AVDataStreamObject@Ogre@@', 00H
_DATA	ENDS
;	COMDAT ??_R4DataStreamObject@Ogre@@6B@
rdata$r	SEGMENT
??_R4DataStreamObject@Ogre@@6B@ DD 00H			; Ogre::DataStreamObject::`RTTI Complete Object Locator'
	DD	00H
	DD	00H
	DD	FLAT:??_R0?AVDataStreamObject@Ogre@@@8
	DD	FLAT:??_R3DataStreamObject@Ogre@@8
rdata$r	ENDS
;	COMDAT ??_7DataStreamObject@Ogre@@6B@
CONST	SEGMENT
??_7DataStreamObject@Ogre@@6B@ DD FLAT:??_R4DataStreamObject@Ogre@@6B@ ; Ogre::DataStreamObject::`vftable'
	DD	FLAT:??_EDataStreamObject@Ogre@@MAEPAXI@Z
	DD	FLAT:__purecall
	DD	FLAT:__purecall
	DD	FLAT:__purecall
	DD	FLAT:__purecall
	DD	FLAT:__purecall
	DD	FLAT:__purecall
; Function compile flags: /Odtp
CONST	ENDS
;	COMDAT ??1DataStreamObject@Ogre@@MAE@XZ
_TEXT	SEGMENT
_this$ = -4						; size = 4
??1DataStreamObject@Ogre@@MAE@XZ PROC			; Ogre::DataStreamObject::~DataStreamObject, COMDAT
; _this$ = ecx

; 445  : 		virtual ~DataStreamObject(){}

	push	ebp
	mov	ebp, esp
	push	ecx
	mov	DWORD PTR _this$[ebp], ecx
	mov	eax, DWORD PTR _this$[ebp]
	mov	DWORD PTR [eax], OFFSET ??_7DataStreamObject@Ogre@@6B@
	mov	esp, ebp
	pop	ebp
	ret	0
??1DataStreamObject@Ogre@@MAE@XZ ENDP			; Ogre::DataStreamObject::~DataStreamObject
_TEXT	ENDS
PUBLIC	??0DataStreamObject@Ogre@@QAE@XZ		; Ogre::DataStreamObject::DataStreamObject
; Function compile flags: /Odtp
;	COMDAT ??0DataStreamObject@Ogre@@QAE@XZ
_TEXT	SEGMENT
_this$ = -4						; size = 4
??0DataStreamObject@Ogre@@QAE@XZ PROC			; Ogre::DataStreamObject::DataStreamObject, COMDAT
; _this$ = ecx
	push	ebp
	mov	ebp, esp
	push	ecx
	mov	DWORD PTR _this$[ebp], ecx
	mov	eax, DWORD PTR _this$[ebp]
	mov	DWORD PTR [eax], OFFSET ??_7DataStreamObject@Ogre@@6B@
	mov	eax, DWORD PTR _this$[ebp]
	mov	esp, ebp
	pop	ebp
	ret	0
??0DataStreamObject@Ogre@@QAE@XZ ENDP			; Ogre::DataStreamObject::DataStreamObject
_TEXT	ENDS
PUBLIC	??0DataStreamObject@Ogre@@QAE@ABV01@@Z		; Ogre::DataStreamObject::DataStreamObject
; Function compile flags: /Odtp
;	COMDAT ??0DataStreamObject@Ogre@@QAE@ABV01@@Z
_TEXT	SEGMENT
_this$ = -4						; size = 4
___that$ = 8						; size = 4
??0DataStreamObject@Ogre@@QAE@ABV01@@Z PROC		; Ogre::DataStreamObject::DataStreamObject, COMDAT
; _this$ = ecx
	push	ebp
	mov	ebp, esp
	push	ecx
	mov	DWORD PTR _this$[ebp], ecx
	mov	eax, DWORD PTR _this$[ebp]
	mov	DWORD PTR [eax], OFFSET ??_7DataStreamObject@Ogre@@6B@
	mov	eax, DWORD PTR _this$[ebp]
	mov	esp, ebp
	pop	ebp
	ret	4
??0DataStreamObject@Ogre@@QAE@ABV01@@Z ENDP		; Ogre::DataStreamObject::DataStreamObject
_TEXT	ENDS
PUBLIC	??4DataStreamObject@Ogre@@QAEAAV01@ABV01@@Z	; Ogre::DataStreamObject::operator=
; Function compile flags: /Odtp
;	COMDAT ??4DataStreamObject@Ogre@@QAEAAV01@ABV01@@Z
_TEXT	SEGMENT
_this$ = -4						; size = 4
___that$ = 8						; size = 4
??4DataStreamObject@Ogre@@QAEAAV01@ABV01@@Z PROC	; Ogre::DataStreamObject::operator=, COMDAT
; _this$ = ecx
	push	ebp
	mov	ebp, esp
	push	ecx
	mov	DWORD PTR _this$[ebp], ecx
	mov	eax, DWORD PTR _this$[ebp]
	mov	esp, ebp
	pop	ebp
	ret	4
??4DataStreamObject@Ogre@@QAEAAV01@ABV01@@Z ENDP	; Ogre::DataStreamObject::operator=
_TEXT	ENDS
PUBLIC	??_GDataStreamObject@Ogre@@MAEPAXI@Z		; Ogre::DataStreamObject::`scalar deleting destructor'
; Function compile flags: /Odtp
;	COMDAT ??_GDataStreamObject@Ogre@@MAEPAXI@Z
_TEXT	SEGMENT
_this$ = -4						; size = 4
___flags$ = 8						; size = 4
??_GDataStreamObject@Ogre@@MAEPAXI@Z PROC		; Ogre::DataStreamObject::`scalar deleting destructor', COMDAT
; _this$ = ecx
	push	ebp
	mov	ebp, esp
	push	ecx
	mov	DWORD PTR _this$[ebp], ecx
	mov	ecx, DWORD PTR _this$[ebp]
	call	??1DataStreamObject@Ogre@@MAE@XZ	; Ogre::DataStreamObject::~DataStreamObject
	mov	eax, DWORD PTR ___flags$[ebp]
	and	eax, 1
	je	SHORT $LN1@scalar@5
	mov	ecx, DWORD PTR _this$[ebp]
	push	ecx
	call	??3@YAXPAX@Z				; operator delete
	add	esp, 4
$LN1@scalar@5:
	mov	eax, DWORD PTR _this$[ebp]
	mov	esp, ebp
	pop	ebp
	ret	4
??_GDataStreamObject@Ogre@@MAEPAXI@Z ENDP		; Ogre::DataStreamObject::`scalar deleting destructor'
; Function compile flags: /Odtp
_TEXT	ENDS
;	COMDAT ??_EDataStreamObject@Ogre@@MAEPAXI@Z
_TEXT	SEGMENT
_this$ = -4						; size = 4
___flags$ = 8						; size = 4
??_EDataStreamObject@Ogre@@MAEPAXI@Z PROC		; Ogre::DataStreamObject::`vector deleting destructor', COMDAT
; _this$ = ecx
	push	ebp
	mov	ebp, esp
	push	ecx
	mov	DWORD PTR _this$[ebp], ecx
	mov	eax, DWORD PTR ___flags$[ebp]
	and	eax, 2
	je	SHORT $LN3@vector@5
	push	OFFSET ??1DataStreamObject@Ogre@@MAE@XZ	; Ogre::DataStreamObject::~DataStreamObject
	mov	ecx, DWORD PTR _this$[ebp]
	mov	edx, DWORD PTR [ecx-4]
	push	edx
	push	4
	mov	eax, DWORD PTR _this$[ebp]
	push	eax
	call	??_M@YGXPAXIHP6EX0@Z@Z
	mov	ecx, DWORD PTR ___flags$[ebp]
	and	ecx, 1
	je	SHORT $LN2@vector@5
	mov	edx, DWORD PTR _this$[ebp]
	sub	edx, 4
	push	edx
	call	??_V@YAXPAX@Z				; operator delete[]
	add	esp, 4
$LN2@vector@5:
	mov	eax, DWORD PTR _this$[ebp]
	sub	eax, 4
	jmp	SHORT $LN4@vector@5
$LN3@vector@5:
	mov	ecx, DWORD PTR _this$[ebp]
	call	??1DataStreamObject@Ogre@@MAE@XZ	; Ogre::DataStreamObject::~DataStreamObject
	mov	eax, DWORD PTR ___flags$[ebp]
	and	eax, 1
	je	SHORT $LN1@vector@5
	mov	ecx, DWORD PTR _this$[ebp]
	push	ecx
	call	??3@YAXPAX@Z				; operator delete
	add	esp, 4
$LN1@vector@5:
	mov	eax, DWORD PTR _this$[ebp]
$LN4@vector@5:
	mov	esp, ebp
	pop	ebp
	ret	4
??_EDataStreamObject@Ogre@@MAEPAXI@Z ENDP		; Ogre::DataStreamObject::`vector deleting destructor'
_TEXT	ENDS
PUBLIC	??_7ObjectDataStream@Ogre@@6B@			; Ogre::ObjectDataStream::`vftable'
PUBLIC	??0ObjectDataStream@Ogre@@QAE@ABV01@@Z		; Ogre::ObjectDataStream::ObjectDataStream
PUBLIC	??_R4ObjectDataStream@Ogre@@6B@			; Ogre::ObjectDataStream::`RTTI Complete Object Locator'
PUBLIC	??_R0?AVObjectDataStream@Ogre@@@8		; Ogre::ObjectDataStream `RTTI Type Descriptor'
PUBLIC	??_R3ObjectDataStream@Ogre@@8			; Ogre::ObjectDataStream::`RTTI Class Hierarchy Descriptor'
PUBLIC	??_R2ObjectDataStream@Ogre@@8			; Ogre::ObjectDataStream::`RTTI Base Class Array'
PUBLIC	??_R1A@?0A@EA@ObjectDataStream@Ogre@@8		; Ogre::ObjectDataStream::`RTTI Base Class Descriptor at (0,-1,0,64)'
PUBLIC	??_EObjectDataStream@Ogre@@UAEPAXI@Z		; Ogre::ObjectDataStream::`vector deleting destructor'
EXTRN	?read@ObjectDataStream@Ogre@@UAEIPAXI@Z:PROC	; Ogre::ObjectDataStream::read
EXTRN	?write@ObjectDataStream@Ogre@@UAEIPBXI@Z:PROC	; Ogre::ObjectDataStream::write
EXTRN	?skip@ObjectDataStream@Ogre@@UAEXJ@Z:PROC	; Ogre::ObjectDataStream::skip
EXTRN	?seek@ObjectDataStream@Ogre@@UAEXI@Z:PROC	; Ogre::ObjectDataStream::seek
EXTRN	?tell@ObjectDataStream@Ogre@@UBEIXZ:PROC	; Ogre::ObjectDataStream::tell
EXTRN	?eof@ObjectDataStream@Ogre@@UBE_NXZ:PROC	; Ogre::ObjectDataStream::eof
EXTRN	?size@ObjectDataStream@Ogre@@UBEIXZ:PROC	; Ogre::ObjectDataStream::size
EXTRN	?close@ObjectDataStream@Ogre@@UAEXXZ:PROC	; Ogre::ObjectDataStream::close
EXTRN	?getMemoryImage@ObjectDataStream@Ogre@@UAEPAXXZ:PROC ; Ogre::ObjectDataStream::getMemoryImage
;	COMDAT ??_R1A@?0A@EA@ObjectDataStream@Ogre@@8
rdata$r	SEGMENT
??_R1A@?0A@EA@ObjectDataStream@Ogre@@8 DD FLAT:??_R0?AVObjectDataStream@Ogre@@@8 ; Ogre::ObjectDataStream::`RTTI Base Class Descriptor at (0,-1,0,64)'
	DD	01H
	DD	00H
	DD	0ffffffffH
	DD	00H
	DD	040H
	DD	FLAT:??_R3ObjectDataStream@Ogre@@8
rdata$r	ENDS
;	COMDAT ??_R2ObjectDataStream@Ogre@@8
rdata$r	SEGMENT
??_R2ObjectDataStream@Ogre@@8 DD FLAT:??_R1A@?0A@EA@ObjectDataStream@Ogre@@8 ; Ogre::ObjectDataStream::`RTTI Base Class Array'
	DD	FLAT:??_R1A@?0A@EA@DataStream@Ogre@@8
rdata$r	ENDS
;	COMDAT ??_R3ObjectDataStream@Ogre@@8
rdata$r	SEGMENT
??_R3ObjectDataStream@Ogre@@8 DD 00H			; Ogre::ObjectDataStream::`RTTI Class Hierarchy Descriptor'
	DD	00H
	DD	02H
	DD	FLAT:??_R2ObjectDataStream@Ogre@@8
rdata$r	ENDS
;	COMDAT ??_R0?AVObjectDataStream@Ogre@@@8
_DATA	SEGMENT
??_R0?AVObjectDataStream@Ogre@@@8 DD FLAT:??_7type_info@@6B@ ; Ogre::ObjectDataStream `RTTI Type Descriptor'
	DD	00H
	DB	'.?AVObjectDataStream@Ogre@@', 00H
_DATA	ENDS
;	COMDAT ??_R4ObjectDataStream@Ogre@@6B@
rdata$r	SEGMENT
??_R4ObjectDataStream@Ogre@@6B@ DD 00H			; Ogre::ObjectDataStream::`RTTI Complete Object Locator'
	DD	00H
	DD	00H
	DD	FLAT:??_R0?AVObjectDataStream@Ogre@@@8
	DD	FLAT:??_R3ObjectDataStream@Ogre@@8
rdata$r	ENDS
;	COMDAT ??_7ObjectDataStream@Ogre@@6B@
CONST	SEGMENT
??_7ObjectDataStream@Ogre@@6B@ DD FLAT:??_R4ObjectDataStream@Ogre@@6B@ ; Ogre::ObjectDataStream::`vftable'
	DD	FLAT:??_EObjectDataStream@Ogre@@UAEPAXI@Z
	DD	FLAT:?read@ObjectDataStream@Ogre@@UAEIPAXI@Z
	DD	FLAT:?write@ObjectDataStream@Ogre@@UAEIPBXI@Z
	DD	FLAT:?readLine@DataStream@Ogre@@UAEIPADIABV?$basic_string@DU?$char_traits@D@std@@V?$allocator@D@2@@std@@@Z
	DD	FLAT:?getLine@DataStream@Ogre@@UAE?AV?$basic_string@DU?$char_traits@D@std@@V?$allocator@D@2@@std@@_N@Z
	DD	FLAT:?getAsString@DataStream@Ogre@@UAE?AV?$basic_string@DU?$char_traits@D@std@@V?$allocator@D@2@@std@@XZ
	DD	FLAT:?skipLine@DataStream@Ogre@@UAEIABV?$basic_string@DU?$char_traits@D@std@@V?$allocator@D@2@@std@@@Z
	DD	FLAT:?skip@ObjectDataStream@Ogre@@UAEXJ@Z
	DD	FLAT:?seek@ObjectDataStream@Ogre@@UAEXI@Z
	DD	FLAT:?tell@ObjectDataStream@Ogre@@UBEIXZ
	DD	FLAT:?eof@ObjectDataStream@Ogre@@UBE_NXZ
	DD	FLAT:?size@ObjectDataStream@Ogre@@UBEIXZ
	DD	FLAT:?close@ObjectDataStream@Ogre@@UAEXXZ
	DD	FLAT:?getMemoryImage@ObjectDataStream@Ogre@@UAEPAXXZ
CONST	ENDS
;	COMDAT xdata$x
xdata$x	SEGMENT
__unwindtable$??0ObjectDataStream@Ogre@@QAE@ABV01@@Z DD 0ffffffffH
	DD	FLAT:__unwindfunclet$??0ObjectDataStream@Ogre@@QAE@ABV01@@Z$0
__ehfuncinfo$??0ObjectDataStream@Ogre@@QAE@ABV01@@Z DD 019930522H
	DD	01H
	DD	FLAT:__unwindtable$??0ObjectDataStream@Ogre@@QAE@ABV01@@Z
	DD	2 DUP(00H)
	DD	2 DUP(00H)
	DD	00H
	DD	00H
; Function compile flags: /Odtp
xdata$x	ENDS
;	COMDAT ??0ObjectDataStream@Ogre@@QAE@ABV01@@Z
_TEXT	SEGMENT
_this$ = -16						; size = 4
__$EHRec$ = -12						; size = 12
___that$ = 8						; size = 4
??0ObjectDataStream@Ogre@@QAE@ABV01@@Z PROC		; Ogre::ObjectDataStream::ObjectDataStream, COMDAT
; _this$ = ecx
	push	ebp
	mov	ebp, esp
	push	-1
	push	__ehhandler$??0ObjectDataStream@Ogre@@QAE@ABV01@@Z
	mov	eax, DWORD PTR fs:0
	push	eax
	push	ecx
	mov	eax, DWORD PTR ___security_cookie
	xor	eax, ebp
	push	eax
	lea	eax, DWORD PTR __$EHRec$[ebp]
	mov	DWORD PTR fs:0, eax
	mov	DWORD PTR _this$[ebp], ecx
	mov	eax, DWORD PTR ___that$[ebp]
	push	eax
	mov	ecx, DWORD PTR _this$[ebp]
	call	??0DataStream@Ogre@@QAE@ABV01@@Z
	mov	DWORD PTR __$EHRec$[ebp+8], 0
	mov	ecx, DWORD PTR _this$[ebp]
	mov	DWORD PTR [ecx], OFFSET ??_7ObjectDataStream@Ogre@@6B@
	mov	edx, DWORD PTR _this$[ebp]
	mov	eax, DWORD PTR ___that$[ebp]
	mov	ecx, DWORD PTR [eax+36]
	mov	DWORD PTR [edx+36], ecx
	mov	edx, DWORD PTR _this$[ebp]
	mov	eax, DWORD PTR ___that$[ebp]
	mov	ecx, DWORD PTR [eax+40]
	mov	DWORD PTR [edx+40], ecx
	mov	DWORD PTR __$EHRec$[ebp+8], -1
	mov	eax, DWORD PTR _this$[ebp]
	mov	ecx, DWORD PTR __$EHRec$[ebp]
	mov	DWORD PTR fs:0, ecx
	pop	ecx
	mov	esp, ebp
	pop	ebp
	ret	4
_TEXT	ENDS
;	COMDAT text$x
text$x	SEGMENT
__unwindfunclet$??0ObjectDataStream@Ogre@@QAE@ABV01@@Z$0:
	mov	ecx, DWORD PTR _this$[ebp]
	jmp	??1DataStream@Ogre@@UAE@XZ		; Ogre::DataStream::~DataStream
__ehhandler$??0ObjectDataStream@Ogre@@QAE@ABV01@@Z:
	mov	edx, DWORD PTR [esp+8]
	lea	eax, DWORD PTR [edx+12]
	mov	ecx, DWORD PTR [edx-8]
	xor	ecx, eax
	call	@__security_check_cookie@4
	mov	eax, OFFSET __ehfuncinfo$??0ObjectDataStream@Ogre@@QAE@ABV01@@Z
	jmp	___CxxFrameHandler3
text$x	ENDS
??0ObjectDataStream@Ogre@@QAE@ABV01@@Z ENDP		; Ogre::ObjectDataStream::ObjectDataStream
PUBLIC	??4ObjectDataStream@Ogre@@QAEAAV01@ABV01@@Z	; Ogre::ObjectDataStream::operator=
; Function compile flags: /Odtp
;	COMDAT ??4ObjectDataStream@Ogre@@QAEAAV01@ABV01@@Z
_TEXT	SEGMENT
_this$ = -4						; size = 4
___that$ = 8						; size = 4
??4ObjectDataStream@Ogre@@QAEAAV01@ABV01@@Z PROC	; Ogre::ObjectDataStream::operator=, COMDAT
; _this$ = ecx
	push	ebp
	mov	ebp, esp
	push	ecx
	mov	DWORD PTR _this$[ebp], ecx
	mov	eax, DWORD PTR ___that$[ebp]
	push	eax
	mov	ecx, DWORD PTR _this$[ebp]
	call	??4DataStream@Ogre@@QAEAAV01@ABV01@@Z
	mov	ecx, DWORD PTR _this$[ebp]
	mov	edx, DWORD PTR ___that$[ebp]
	mov	eax, DWORD PTR [edx+36]
	mov	DWORD PTR [ecx+36], eax
	mov	ecx, DWORD PTR _this$[ebp]
	mov	edx, DWORD PTR ___that$[ebp]
	mov	eax, DWORD PTR [edx+40]
	mov	DWORD PTR [ecx+40], eax
	mov	eax, DWORD PTR _this$[ebp]
	mov	esp, ebp
	pop	ebp
	ret	4
??4ObjectDataStream@Ogre@@QAEAAV01@ABV01@@Z ENDP	; Ogre::ObjectDataStream::operator=
_TEXT	ENDS
PUBLIC	??_GObjectDataStream@Ogre@@UAEPAXI@Z		; Ogre::ObjectDataStream::`scalar deleting destructor'
EXTRN	??1ObjectDataStream@Ogre@@UAE@XZ:PROC		; Ogre::ObjectDataStream::~ObjectDataStream
; Function compile flags: /Odtp
;	COMDAT ??_GObjectDataStream@Ogre@@UAEPAXI@Z
_TEXT	SEGMENT
_this$ = -4						; size = 4
___flags$ = 8						; size = 4
??_GObjectDataStream@Ogre@@UAEPAXI@Z PROC		; Ogre::ObjectDataStream::`scalar deleting destructor', COMDAT
; _this$ = ecx
	push	ebp
	mov	ebp, esp
	push	ecx
	mov	DWORD PTR _this$[ebp], ecx
	mov	ecx, DWORD PTR _this$[ebp]
	call	??1ObjectDataStream@Ogre@@UAE@XZ	; Ogre::ObjectDataStream::~ObjectDataStream
	mov	eax, DWORD PTR ___flags$[ebp]
	and	eax, 1
	je	SHORT $LN1@scalar@6
	mov	ecx, DWORD PTR _this$[ebp]
	push	ecx
	call	??3@YAXPAX@Z				; operator delete
	add	esp, 4
$LN1@scalar@6:
	mov	eax, DWORD PTR _this$[ebp]
	mov	esp, ebp
	pop	ebp
	ret	4
??_GObjectDataStream@Ogre@@UAEPAXI@Z ENDP		; Ogre::ObjectDataStream::`scalar deleting destructor'
; Function compile flags: /Odtp
_TEXT	ENDS
;	COMDAT ??_EObjectDataStream@Ogre@@UAEPAXI@Z
_TEXT	SEGMENT
_this$ = -4						; size = 4
___flags$ = 8						; size = 4
??_EObjectDataStream@Ogre@@UAEPAXI@Z PROC		; Ogre::ObjectDataStream::`vector deleting destructor', COMDAT
; _this$ = ecx
	push	ebp
	mov	ebp, esp
	push	ecx
	mov	DWORD PTR _this$[ebp], ecx
	mov	eax, DWORD PTR ___flags$[ebp]
	and	eax, 2
	je	SHORT $LN3@vector@6
	push	OFFSET ??1ObjectDataStream@Ogre@@UAE@XZ	; Ogre::ObjectDataStream::~ObjectDataStream
	mov	ecx, DWORD PTR _this$[ebp]
	mov	edx, DWORD PTR [ecx-4]
	push	edx
	push	44					; 0000002cH
	mov	eax, DWORD PTR _this$[ebp]
	push	eax
	call	??_M@YGXPAXIHP6EX0@Z@Z
	mov	ecx, DWORD PTR ___flags$[ebp]
	and	ecx, 1
	je	SHORT $LN2@vector@6
	mov	edx, DWORD PTR _this$[ebp]
	sub	edx, 4
	push	edx
	call	??_V@YAXPAX@Z				; operator delete[]
	add	esp, 4
$LN2@vector@6:
	mov	eax, DWORD PTR _this$[ebp]
	sub	eax, 4
	jmp	SHORT $LN4@vector@6
$LN3@vector@6:
	mov	ecx, DWORD PTR _this$[ebp]
	call	??1ObjectDataStream@Ogre@@UAE@XZ	; Ogre::ObjectDataStream::~ObjectDataStream
	mov	eax, DWORD PTR ___flags$[ebp]
	and	eax, 1
	je	SHORT $LN1@vector@6
	mov	ecx, DWORD PTR _this$[ebp]
	push	ecx
	call	??3@YAXPAX@Z				; operator delete
	add	esp, 4
$LN1@vector@6:
	mov	eax, DWORD PTR _this$[ebp]
$LN4@vector@6:
	mov	esp, ebp
	pop	ebp
	ret	4
??_EObjectDataStream@Ogre@@UAEPAXI@Z ENDP		; Ogre::ObjectDataStream::`vector deleting destructor'
_TEXT	ENDS
PUBLIC	??A?$map@V?$basic_string@DU?$char_traits@D@std@@V?$allocator@D@2@@std@@PAVCodec@Ogre@@U?$less@V?$basic_string@DU?$char_traits@D@std@@V?$allocator@D@2@@std@@@2@V?$allocator@U?$pair@$$CBV?$basic_string@DU?$char_traits@D@std@@V?$allocator@D@2@@std@@PAVCodec@Ogre@@@std@@@2@@std@@QAEAAPAVCodec@Ogre@@ABV?$basic_string@DU?$char_traits@D@std@@V?$allocator@D@2@@1@@Z ; std::map<std::basic_string<char,std::char_traits<char>,std::allocator<char> >,Ogre::Codec *,std::less<std::basic_string<char,std::char_traits<char>,std::allocator<char> > >,std::allocator<std::pair<std::basic_string<char,std::char_traits<char>,std::allocator<char> > const ,Ogre::Codec *> > >::operator[]
PUBLIC	?registerCodec@Codec@Ogre@@SAXPAV12@@Z		; Ogre::Codec::registerCodec
EXTRN	?ms_mapCodecs@Codec@Ogre@@1V?$map@V?$basic_string@DU?$char_traits@D@std@@V?$allocator@D@2@@std@@PAVCodec@Ogre@@U?$less@V?$basic_string@DU?$char_traits@D@std@@V?$allocator@D@2@@std@@@2@V?$allocator@U?$pair@$$CBV?$basic_string@DU?$char_traits@D@std@@V?$allocator@D@2@@std@@PAVCodec@Ogre@@@std@@@2@@std@@A:BYTE ; Ogre::Codec::ms_mapCodecs
;	COMDAT xdata$x
; File i:\svnroot\client\ogremain\ogrecodec.h
xdata$x	SEGMENT
__unwindtable$?registerCodec@Codec@Ogre@@SAXPAV12@@Z DD 0ffffffffH
	DD	FLAT:__unwindfunclet$?registerCodec@Codec@Ogre@@SAXPAV12@@Z$0
__ehfuncinfo$?registerCodec@Codec@Ogre@@SAXPAV12@@Z DD 019930522H
	DD	01H
	DD	FLAT:__unwindtable$?registerCodec@Codec@Ogre@@SAXPAV12@@Z
	DD	2 DUP(00H)
	DD	2 DUP(00H)
	DD	00H
	DD	00H
; Function compile flags: /Odtp
xdata$x	ENDS
;	COMDAT ?registerCodec@Codec@Ogre@@SAXPAV12@@Z
_TEXT	SEGMENT
tv75 = -48						; size = 4
tv76 = -44						; size = 4
$T66665 = -40						; size = 28
__$EHRec$ = -12						; size = 12
_pCodec$ = 8						; size = 4
?registerCodec@Codec@Ogre@@SAXPAV12@@Z PROC		; Ogre::Codec::registerCodec, COMDAT

; 76   : 		{

	push	ebp
	mov	ebp, esp
	push	-1
	push	__ehhandler$?registerCodec@Codec@Ogre@@SAXPAV12@@Z
	mov	eax, DWORD PTR fs:0
	push	eax
	sub	esp, 36					; 00000024H
	mov	eax, DWORD PTR ___security_cookie
	xor	eax, ebp
	push	eax
	lea	eax, DWORD PTR __$EHRec$[ebp]
	mov	DWORD PTR fs:0, eax

; 77   : 			ms_mapCodecs[pCodec->getType()] = pCodec;

	lea	eax, DWORD PTR $T66665[ebp]
	push	eax
	mov	ecx, DWORD PTR _pCodec$[ebp]
	mov	edx, DWORD PTR [ecx]
	mov	ecx, DWORD PTR _pCodec$[ebp]
	mov	eax, DWORD PTR [edx+16]
	call	eax
	mov	DWORD PTR tv76[ebp], eax
	mov	ecx, DWORD PTR tv76[ebp]
	mov	DWORD PTR tv75[ebp], ecx
	mov	DWORD PTR __$EHRec$[ebp+8], 0
	mov	edx, DWORD PTR tv75[ebp]
	push	edx
	mov	ecx, OFFSET ?ms_mapCodecs@Codec@Ogre@@1V?$map@V?$basic_string@DU?$char_traits@D@std@@V?$allocator@D@2@@std@@PAVCodec@Ogre@@U?$less@V?$basic_string@DU?$char_traits@D@std@@V?$allocator@D@2@@std@@@2@V?$allocator@U?$pair@$$CBV?$basic_string@DU?$char_traits@D@std@@V?$allocator@D@2@@std@@PAVCodec@Ogre@@@std@@@2@@std@@A ; Ogre::Codec::ms_mapCodecs
	call	??A?$map@V?$basic_string@DU?$char_traits@D@std@@V?$allocator@D@2@@std@@PAVCodec@Ogre@@U?$less@V?$basic_string@DU?$char_traits@D@std@@V?$allocator@D@2@@std@@@2@V?$allocator@U?$pair@$$CBV?$basic_string@DU?$char_traits@D@std@@V?$allocator@D@2@@std@@PAVCodec@Ogre@@@std@@@2@@std@@QAEAAPAVCodec@Ogre@@ABV?$basic_string@DU?$char_traits@D@std@@V?$allocator@D@2@@1@@Z ; std::map<std::basic_string<char,std::char_traits<char>,std::allocator<char> >,Ogre::Codec *,std::less<std::basic_string<char,std::char_traits<char>,std::allocator<char> > >,std::allocator<std::pair<std::basic_string<char,std::char_traits<char>,std::allocator<char> > const ,Ogre::Codec *> > >::operator[]
	mov	ecx, DWORD PTR _pCodec$[ebp]
	mov	DWORD PTR [eax], ecx
	mov	DWORD PTR __$EHRec$[ebp+8], -1
	lea	ecx, DWORD PTR $T66665[ebp]
	call	DWORD PTR __imp_??1?$basic_string@DU?$char_traits@D@std@@V?$allocator@D@2@@std@@QAE@XZ

; 78   : 		}

	mov	ecx, DWORD PTR __$EHRec$[ebp]
	mov	DWORD PTR fs:0, ecx
	pop	ecx
	mov	esp, ebp
	pop	ebp
	ret	0
_TEXT	ENDS
;	COMDAT text$x
text$x	SEGMENT
__unwindfunclet$?registerCodec@Codec@Ogre@@SAXPAV12@@Z$0:
	lea	ecx, DWORD PTR $T66665[ebp]
	jmp	DWORD PTR __imp_??1?$basic_string@DU?$char_traits@D@std@@V?$allocator@D@2@@std@@QAE@XZ
__ehhandler$?registerCodec@Codec@Ogre@@SAXPAV12@@Z:
	mov	edx, DWORD PTR [esp+8]
	lea	eax, DWORD PTR [edx+12]
	mov	ecx, DWORD PTR [edx-40]
	xor	ecx, eax
	call	@__security_check_cookie@4
	mov	eax, OFFSET __ehfuncinfo$?registerCodec@Codec@Ogre@@SAXPAV12@@Z
	jmp	___CxxFrameHandler3
text$x	ENDS
?registerCodec@Codec@Ogre@@SAXPAV12@@Z ENDP		; Ogre::Codec::registerCodec
PUBLIC	?erase@?$_Tree@V?$_Tmap_traits@V?$basic_string@DU?$char_traits@D@std@@V?$allocator@D@2@@std@@PAVCodec@Ogre@@U?$less@V?$basic_string@DU?$char_traits@D@std@@V?$allocator@D@2@@std@@@2@V?$allocator@U?$pair@$$CBV?$basic_string@DU?$char_traits@D@std@@V?$allocator@D@2@@std@@PAVCodec@Ogre@@@std@@@2@$0A@@std@@@std@@QAEIABV?$basic_string@DU?$char_traits@D@std@@V?$allocator@D@2@@2@@Z ; std::_Tree<std::_Tmap_traits<std::basic_string<char,std::char_traits<char>,std::allocator<char> >,Ogre::Codec *,std::less<std::basic_string<char,std::char_traits<char>,std::allocator<char> > >,std::allocator<std::pair<std::basic_string<char,std::char_traits<char>,std::allocator<char> > const ,Ogre::Codec *> >,0> >::erase
PUBLIC	?unRegisterCodec@Codec@Ogre@@SAXPAV12@@Z	; Ogre::Codec::unRegisterCodec
;	COMDAT xdata$x
xdata$x	SEGMENT
__unwindtable$?unRegisterCodec@Codec@Ogre@@SAXPAV12@@Z DD 0ffffffffH
	DD	FLAT:__unwindfunclet$?unRegisterCodec@Codec@Ogre@@SAXPAV12@@Z$0
__ehfuncinfo$?unRegisterCodec@Codec@Ogre@@SAXPAV12@@Z DD 019930522H
	DD	01H
	DD	FLAT:__unwindtable$?unRegisterCodec@Codec@Ogre@@SAXPAV12@@Z
	DD	2 DUP(00H)
	DD	2 DUP(00H)
	DD	00H
	DD	00H
; Function compile flags: /Odtp
xdata$x	ENDS
;	COMDAT ?unRegisterCodec@Codec@Ogre@@SAXPAV12@@Z
_TEXT	SEGMENT
tv78 = -48						; size = 4
tv79 = -44						; size = 4
$T66675 = -40						; size = 28
__$EHRec$ = -12						; size = 12
_pCodec$ = 8						; size = 4
?unRegisterCodec@Codec@Ogre@@SAXPAV12@@Z PROC		; Ogre::Codec::unRegisterCodec, COMDAT

; 83   : 		{

	push	ebp
	mov	ebp, esp
	push	-1
	push	__ehhandler$?unRegisterCodec@Codec@Ogre@@SAXPAV12@@Z
	mov	eax, DWORD PTR fs:0
	push	eax
	sub	esp, 36					; 00000024H
	mov	eax, DWORD PTR ___security_cookie
	xor	eax, ebp
	push	eax
	lea	eax, DWORD PTR __$EHRec$[ebp]
	mov	DWORD PTR fs:0, eax

; 84   : 			ms_mapCodecs.erase(pCodec->getType());

	lea	eax, DWORD PTR $T66675[ebp]
	push	eax
	mov	ecx, DWORD PTR _pCodec$[ebp]
	mov	edx, DWORD PTR [ecx]
	mov	ecx, DWORD PTR _pCodec$[ebp]
	mov	eax, DWORD PTR [edx+16]
	call	eax
	mov	DWORD PTR tv79[ebp], eax
	mov	ecx, DWORD PTR tv79[ebp]
	mov	DWORD PTR tv78[ebp], ecx
	mov	DWORD PTR __$EHRec$[ebp+8], 0
	mov	edx, DWORD PTR tv78[ebp]
	push	edx
	mov	ecx, OFFSET ?ms_mapCodecs@Codec@Ogre@@1V?$map@V?$basic_string@DU?$char_traits@D@std@@V?$allocator@D@2@@std@@PAVCodec@Ogre@@U?$less@V?$basic_string@DU?$char_traits@D@std@@V?$allocator@D@2@@std@@@2@V?$allocator@U?$pair@$$CBV?$basic_string@DU?$char_traits@D@std@@V?$allocator@D@2@@std@@PAVCodec@Ogre@@@std@@@2@@std@@A ; Ogre::Codec::ms_mapCodecs
	call	?erase@?$_Tree@V?$_Tmap_traits@V?$basic_string@DU?$char_traits@D@std@@V?$allocator@D@2@@std@@PAVCodec@Ogre@@U?$less@V?$basic_string@DU?$char_traits@D@std@@V?$allocator@D@2@@std@@@2@V?$allocator@U?$pair@$$CBV?$basic_string@DU?$char_traits@D@std@@V?$allocator@D@2@@std@@PAVCodec@Ogre@@@std@@@2@$0A@@std@@@std@@QAEIABV?$basic_string@DU?$char_traits@D@std@@V?$allocator@D@2@@2@@Z ; std::_Tree<std::_Tmap_traits<std::basic_string<char,std::char_traits<char>,std::allocator<char> >,Ogre::Codec *,std::less<std::basic_string<char,std::char_traits<char>,std::allocator<char> > >,std::allocator<std::pair<std::basic_string<char,std::char_traits<char>,std::allocator<char> > const ,Ogre::Codec *> >,0> >::erase
	mov	DWORD PTR __$EHRec$[ebp+8], -1
	lea	ecx, DWORD PTR $T66675[ebp]
	call	DWORD PTR __imp_??1?$basic_string@DU?$char_traits@D@std@@V?$allocator@D@2@@std@@QAE@XZ

; 85   : 		}

	mov	ecx, DWORD PTR __$EHRec$[ebp]
	mov	DWORD PTR fs:0, ecx
	pop	ecx
	mov	esp, ebp
	pop	ebp
	ret	0
_TEXT	ENDS
;	COMDAT text$x
text$x	SEGMENT
__unwindfunclet$?unRegisterCodec@Codec@Ogre@@SAXPAV12@@Z$0:
	lea	ecx, DWORD PTR $T66675[ebp]
	jmp	DWORD PTR __imp_??1?$basic_string@DU?$char_traits@D@std@@V?$allocator@D@2@@std@@QAE@XZ
__ehhandler$?unRegisterCodec@Codec@Ogre@@SAXPAV12@@Z:
	mov	edx, DWORD PTR [esp+8]
	lea	eax, DWORD PTR [edx+12]
	mov	ecx, DWORD PTR [edx-40]
	xor	ecx, eax
	call	@__security_check_cookie@4
	mov	eax, OFFSET __ehfuncinfo$?unRegisterCodec@Codec@Ogre@@SAXPAV12@@Z
	jmp	___CxxFrameHandler3
text$x	ENDS
?unRegisterCodec@Codec@Ogre@@SAXPAV12@@Z ENDP		; Ogre::Codec::unRegisterCodec
PUBLIC	??0?$ConstMapIterator@V?$map@V?$basic_string@DU?$char_traits@D@std@@V?$allocator@D@2@@std@@PAVCodec@Ogre@@U?$less@V?$basic_string@DU?$char_traits@D@std@@V?$allocator@D@2@@std@@@2@V?$allocator@U?$pair@$$CBV?$basic_string@DU?$char_traits@D@std@@V?$allocator@D@2@@std@@PAVCodec@Ogre@@@std@@@2@@std@@@Ogre@@QAE@Vconst_iterator@?$_Tree@V?$_Tmap_traits@V?$basic_string@DU?$char_traits@D@std@@V?$allocator@D@2@@std@@PAVCodec@Ogre@@U?$less@V?$basic_string@DU?$char_traits@D@std@@V?$allocator@D@2@@std@@@2@V?$allocator@U?$pair@$$CBV?$basic_string@DU?$char_traits@D@std@@V?$allocator@D@2@@std@@PAVCodec@Ogre@@@std@@@2@$0A@@std@@@std@@0@Z ; Ogre::ConstMapIterator<std::map<std::basic_string<char,std::char_traits<char>,std::allocator<char> >,Ogre::Codec *,std::less<std::basic_string<char,std::char_traits<char>,std::allocator<char> > >,std::allocator<std::pair<std::basic_string<char,std::char_traits<char>,std::allocator<char> > const ,Ogre::Codec *> > > >::ConstMapIterator<std::map<std::basic_string<char,std::char_traits<char>,std::allocator<char> >,Ogre::Codec *,std::less<std::basic_string<char,std::char_traits<char>,std::allocator<char> > >,std::allocator<std::pair<std::basic_string<char,std::char_traits<char>,std::allocator<char> > const ,Ogre::Codec *> > > >
PUBLIC	?begin@?$_Tree@V?$_Tmap_traits@V?$basic_string@DU?$char_traits@D@std@@V?$allocator@D@2@@std@@PAVCodec@Ogre@@U?$less@V?$basic_string@DU?$char_traits@D@std@@V?$allocator@D@2@@std@@@2@V?$allocator@U?$pair@$$CBV?$basic_string@DU?$char_traits@D@std@@V?$allocator@D@2@@std@@PAVCodec@Ogre@@@std@@@2@$0A@@std@@@std@@QAE?AViterator@12@XZ ; std::_Tree<std::_Tmap_traits<std::basic_string<char,std::char_traits<char>,std::allocator<char> >,Ogre::Codec *,std::less<std::basic_string<char,std::char_traits<char>,std::allocator<char> > >,std::allocator<std::pair<std::basic_string<char,std::char_traits<char>,std::allocator<char> > const ,Ogre::Codec *> >,0> >::begin
PUBLIC	?end@?$_Tree@V?$_Tmap_traits@V?$basic_string@DU?$char_traits@D@std@@V?$allocator@D@2@@std@@PAVCodec@Ogre@@U?$less@V?$basic_string@DU?$char_traits@D@std@@V?$allocator@D@2@@std@@@2@V?$allocator@U?$pair@$$CBV?$basic_string@DU?$char_traits@D@std@@V?$allocator@D@2@@std@@PAVCodec@Ogre@@@std@@@2@$0A@@std@@@std@@QAE?AViterator@12@XZ ; std::_Tree<std::_Tmap_traits<std::basic_string<char,std::char_traits<char>,std::allocator<char> >,Ogre::Codec *,std::less<std::basic_string<char,std::char_traits<char>,std::allocator<char> > >,std::allocator<std::pair<std::basic_string<char,std::char_traits<char>,std::allocator<char> > const ,Ogre::Codec *> >,0> >::end
PUBLIC	?getCodecIterator@Codec@Ogre@@SA?AV?$ConstMapIterator@V?$map@V?$basic_string@DU?$char_traits@D@std@@V?$allocator@D@2@@std@@PAVCodec@Ogre@@U?$less@V?$basic_string@DU?$char_traits@D@std@@V?$allocator@D@2@@std@@@2@V?$allocator@U?$pair@$$CBV?$basic_string@DU?$char_traits@D@std@@V?$allocator@D@2@@std@@PAVCodec@Ogre@@@std@@@2@@std@@@2@XZ ; Ogre::Codec::getCodecIterator
; Function compile flags: /Odtp
;	COMDAT ?getCodecIterator@Codec@Ogre@@SA?AV?$ConstMapIterator@V?$map@V?$basic_string@DU?$char_traits@D@std@@V?$allocator@D@2@@std@@PAVCodec@Ogre@@U?$less@V?$basic_string@DU?$char_traits@D@std@@V?$allocator@D@2@@std@@@2@V?$allocator@U?$pair@$$CBV?$basic_string@DU?$char_traits@D@std@@V?$allocator@D@2@@std@@PAVCodec@Ogre@@@std@@@2@@std@@@2@XZ
_TEXT	SEGMENT
$T66688 = -32						; size = 8
$T66687 = -24						; size = 8
$T66686 = -16						; size = 8
$T66685 = -8						; size = 8
___$ReturnUdt$ = 8					; size = 4
?getCodecIterator@Codec@Ogre@@SA?AV?$ConstMapIterator@V?$map@V?$basic_string@DU?$char_traits@D@std@@V?$allocator@D@2@@std@@PAVCodec@Ogre@@U?$less@V?$basic_string@DU?$char_traits@D@std@@V?$allocator@D@2@@std@@@2@V?$allocator@U?$pair@$$CBV?$basic_string@DU?$char_traits@D@std@@V?$allocator@D@2@@std@@PAVCodec@Ogre@@@std@@@2@@std@@@2@XZ PROC ; Ogre::Codec::getCodecIterator, COMDAT

; 89   : 		{

	push	ebp
	mov	ebp, esp
	sub	esp, 32					; 00000020H

; 90   : 			return CodecIterator(ms_mapCodecs.begin(), ms_mapCodecs.end());

	lea	eax, DWORD PTR $T66686[ebp]
	push	eax
	mov	ecx, OFFSET ?ms_mapCodecs@Codec@Ogre@@1V?$map@V?$basic_string@DU?$char_traits@D@std@@V?$allocator@D@2@@std@@PAVCodec@Ogre@@U?$less@V?$basic_string@DU?$char_traits@D@std@@V?$allocator@D@2@@std@@@2@V?$allocator@U?$pair@$$CBV?$basic_string@DU?$char_traits@D@std@@V?$allocator@D@2@@std@@PAVCodec@Ogre@@@std@@@2@@std@@A ; Ogre::Codec::ms_mapCodecs
	call	?end@?$_Tree@V?$_Tmap_traits@V?$basic_string@DU?$char_traits@D@std@@V?$allocator@D@2@@std@@PAVCodec@Ogre@@U?$less@V?$basic_string@DU?$char_traits@D@std@@V?$allocator@D@2@@std@@@2@V?$allocator@U?$pair@$$CBV?$basic_string@DU?$char_traits@D@std@@V?$allocator@D@2@@std@@PAVCodec@Ogre@@@std@@@2@$0A@@std@@@std@@QAE?AViterator@12@XZ ; std::_Tree<std::_Tmap_traits<std::basic_string<char,std::char_traits<char>,std::allocator<char> >,Ogre::Codec *,std::less<std::basic_string<char,std::char_traits<char>,std::allocator<char> > >,std::allocator<std::pair<std::basic_string<char,std::char_traits<char>,std::allocator<char> > const ,Ogre::Codec *> >,0> >::end
	mov	ecx, DWORD PTR [eax]
	mov	edx, DWORD PTR [eax+4]
	mov	DWORD PTR $T66685[ebp], ecx
	mov	DWORD PTR $T66685[ebp+4], edx
	lea	eax, DWORD PTR $T66688[ebp]
	push	eax
	mov	ecx, OFFSET ?ms_mapCodecs@Codec@Ogre@@1V?$map@V?$basic_string@DU?$char_traits@D@std@@V?$allocator@D@2@@std@@PAVCodec@Ogre@@U?$less@V?$basic_string@DU?$char_traits@D@std@@V?$allocator@D@2@@std@@@2@V?$allocator@U?$pair@$$CBV?$basic_string@DU?$char_traits@D@std@@V?$allocator@D@2@@std@@PAVCodec@Ogre@@@std@@@2@@std@@A ; Ogre::Codec::ms_mapCodecs
	call	?begin@?$_Tree@V?$_Tmap_traits@V?$basic_string@DU?$char_traits@D@std@@V?$allocator@D@2@@std@@PAVCodec@Ogre@@U?$less@V?$basic_string@DU?$char_traits@D@std@@V?$allocator@D@2@@std@@@2@V?$allocator@U?$pair@$$CBV?$basic_string@DU?$char_traits@D@std@@V?$allocator@D@2@@std@@PAVCodec@Ogre@@@std@@@2@$0A@@std@@@std@@QAE?AViterator@12@XZ ; std::_Tree<std::_Tmap_traits<std::basic_string<char,std::char_traits<char>,std::allocator<char> >,Ogre::Codec *,std::less<std::basic_string<char,std::char_traits<char>,std::allocator<char> > >,std::allocator<std::pair<std::basic_string<char,std::char_traits<char>,std::allocator<char> > const ,Ogre::Codec *> >,0> >::begin
	mov	ecx, DWORD PTR [eax]
	mov	edx, DWORD PTR [eax+4]
	mov	DWORD PTR $T66687[ebp], ecx
	mov	DWORD PTR $T66687[ebp+4], edx
	mov	eax, DWORD PTR $T66685[ebp+4]
	push	eax
	mov	ecx, DWORD PTR $T66685[ebp]
	push	ecx
	mov	edx, DWORD PTR $T66687[ebp+4]
	push	edx
	mov	eax, DWORD PTR $T66687[ebp]
	push	eax
	mov	ecx, DWORD PTR ___$ReturnUdt$[ebp]
	call	??0?$ConstMapIterator@V?$map@V?$basic_string@DU?$char_traits@D@std@@V?$allocator@D@2@@std@@PAVCodec@Ogre@@U?$less@V?$basic_string@DU?$char_traits@D@std@@V?$allocator@D@2@@std@@@2@V?$allocator@U?$pair@$$CBV?$basic_string@DU?$char_traits@D@std@@V?$allocator@D@2@@std@@PAVCodec@Ogre@@@std@@@2@@std@@@Ogre@@QAE@Vconst_iterator@?$_Tree@V?$_Tmap_traits@V?$basic_string@DU?$char_traits@D@std@@V?$allocator@D@2@@std@@PAVCodec@Ogre@@U?$less@V?$basic_string@DU?$char_traits@D@std@@V?$allocator@D@2@@std@@@2@V?$allocator@U?$pair@$$CBV?$basic_string@DU?$char_traits@D@std@@V?$allocator@D@2@@std@@PAVCodec@Ogre@@@std@@@2@$0A@@std@@@std@@0@Z ; Ogre::ConstMapIterator<std::map<std::basic_string<char,std::char_traits<char>,std::allocator<char> >,Ogre::Codec *,std::less<std::basic_string<char,std::char_traits<char>,std::allocator<char> > >,std::allocator<std::pair<std::basic_string<char,std::char_traits<char>,std::allocator<char> > const ,Ogre::Codec *> > > >::ConstMapIterator<std::map<std::basic_string<char,std::char_traits<char>,std::allocator<char> >,Ogre::Codec *,std::less<std::basic_string<char,std::char_traits<char>,std::allocator<char> > >,std::allocator<std::pair<std::basic_string<char,std::char_traits<char>,std::allocator<char> > const ,Ogre::Codec *> > > >
	mov	eax, DWORD PTR ___$ReturnUdt$[ebp]

; 91   : 		}

	mov	esp, ebp
	pop	ebp
	ret	0
?getCodecIterator@Codec@Ogre@@SA?AV?$ConstMapIterator@V?$map@V?$basic_string@DU?$char_traits@D@std@@V?$allocator@D@2@@std@@PAVCodec@Ogre@@U?$less@V?$basic_string@DU?$char_traits@D@std@@V?$allocator@D@2@@std@@@2@V?$allocator@U?$pair@$$CBV?$basic_string@DU?$char_traits@D@std@@V?$allocator@D@2@@std@@PAVCodec@Ogre@@@std@@@2@@std@@@2@XZ ENDP ; Ogre::Codec::getCodecIterator
_TEXT	ENDS
PUBLIC	??_7Codec@Ogre@@6B@				; Ogre::Codec::`vftable'
PUBLIC	??0Codec@Ogre@@QAE@XZ				; Ogre::Codec::Codec
PUBLIC	??_R4Codec@Ogre@@6B@				; Ogre::Codec::`RTTI Complete Object Locator'
PUBLIC	??_R0?AVCodec@Ogre@@@8				; Ogre::Codec `RTTI Type Descriptor'
PUBLIC	??_R3Codec@Ogre@@8				; Ogre::Codec::`RTTI Class Hierarchy Descriptor'
PUBLIC	??_R2Codec@Ogre@@8				; Ogre::Codec::`RTTI Base Class Array'
PUBLIC	??_R1A@?0A@EA@Codec@Ogre@@8			; Ogre::Codec::`RTTI Base Class Descriptor at (0,-1,0,64)'
PUBLIC	??_ECodec@Ogre@@UAEPAXI@Z			; Ogre::Codec::`vector deleting destructor'
;	COMDAT ??_R1A@?0A@EA@Codec@Ogre@@8
rdata$r	SEGMENT
??_R1A@?0A@EA@Codec@Ogre@@8 DD FLAT:??_R0?AVCodec@Ogre@@@8 ; Ogre::Codec::`RTTI Base Class Descriptor at (0,-1,0,64)'
	DD	00H
	DD	00H
	DD	0ffffffffH
	DD	00H
	DD	040H
	DD	FLAT:??_R3Codec@Ogre@@8
rdata$r	ENDS
;	COMDAT ??_R2Codec@Ogre@@8
rdata$r	SEGMENT
??_R2Codec@Ogre@@8 DD FLAT:??_R1A@?0A@EA@Codec@Ogre@@8	; Ogre::Codec::`RTTI Base Class Array'
rdata$r	ENDS
;	COMDAT ??_R3Codec@Ogre@@8
rdata$r	SEGMENT
??_R3Codec@Ogre@@8 DD 00H				; Ogre::Codec::`RTTI Class Hierarchy Descriptor'
	DD	00H
	DD	01H
	DD	FLAT:??_R2Codec@Ogre@@8
rdata$r	ENDS
;	COMDAT ??_R0?AVCodec@Ogre@@@8
_DATA	SEGMENT
??_R0?AVCodec@Ogre@@@8 DD FLAT:??_7type_info@@6B@	; Ogre::Codec `RTTI Type Descriptor'
	DD	00H
	DB	'.?AVCodec@Ogre@@', 00H
_DATA	ENDS
;	COMDAT ??_R4Codec@Ogre@@6B@
rdata$r	SEGMENT
??_R4Codec@Ogre@@6B@ DD 00H				; Ogre::Codec::`RTTI Complete Object Locator'
	DD	00H
	DD	00H
	DD	FLAT:??_R0?AVCodec@Ogre@@@8
	DD	FLAT:??_R3Codec@Ogre@@8
rdata$r	ENDS
;	COMDAT ??_7Codec@Ogre@@6B@
CONST	SEGMENT
??_7Codec@Ogre@@6B@ DD FLAT:??_R4Codec@Ogre@@6B@	; Ogre::Codec::`vftable'
	DD	FLAT:??_ECodec@Ogre@@UAEPAXI@Z
	DD	FLAT:__purecall
	DD	FLAT:__purecall
	DD	FLAT:__purecall
	DD	FLAT:__purecall
	DD	FLAT:__purecall
; Function compile flags: /Odtp
CONST	ENDS
;	COMDAT ??0Codec@Ogre@@QAE@XZ
_TEXT	SEGMENT
_this$ = -4						; size = 4
??0Codec@Ogre@@QAE@XZ PROC				; Ogre::Codec::Codec, COMDAT
; _this$ = ecx
	push	ebp
	mov	ebp, esp
	push	ecx
	mov	DWORD PTR _this$[ebp], ecx
	mov	eax, DWORD PTR _this$[ebp]
	mov	DWORD PTR [eax], OFFSET ??_7Codec@Ogre@@6B@
	mov	eax, DWORD PTR _this$[ebp]
	mov	esp, ebp
	pop	ebp
	ret	0
??0Codec@Ogre@@QAE@XZ ENDP				; Ogre::Codec::Codec
_TEXT	ENDS
PUBLIC	??0Codec@Ogre@@QAE@ABV01@@Z			; Ogre::Codec::Codec
; Function compile flags: /Odtp
;	COMDAT ??0Codec@Ogre@@QAE@ABV01@@Z
_TEXT	SEGMENT
_this$ = -4						; size = 4
___that$ = 8						; size = 4
??0Codec@Ogre@@QAE@ABV01@@Z PROC			; Ogre::Codec::Codec, COMDAT
; _this$ = ecx
	push	ebp
	mov	ebp, esp
	push	ecx
	mov	DWORD PTR _this$[ebp], ecx
	mov	eax, DWORD PTR _this$[ebp]
	mov	DWORD PTR [eax], OFFSET ??_7Codec@Ogre@@6B@
	mov	eax, DWORD PTR _this$[ebp]
	mov	esp, ebp
	pop	ebp
	ret	4
??0Codec@Ogre@@QAE@ABV01@@Z ENDP			; Ogre::Codec::Codec
_TEXT	ENDS
PUBLIC	??4Codec@Ogre@@QAEAAV01@ABV01@@Z		; Ogre::Codec::operator=
; Function compile flags: /Odtp
;	COMDAT ??4Codec@Ogre@@QAEAAV01@ABV01@@Z
_TEXT	SEGMENT
_this$ = -4						; size = 4
___that$ = 8						; size = 4
??4Codec@Ogre@@QAEAAV01@ABV01@@Z PROC			; Ogre::Codec::operator=, COMDAT
; _this$ = ecx
	push	ebp
	mov	ebp, esp
	push	ecx
	mov	DWORD PTR _this$[ebp], ecx
	mov	eax, DWORD PTR _this$[ebp]
	mov	esp, ebp
	pop	ebp
	ret	4
??4Codec@Ogre@@QAEAAV01@ABV01@@Z ENDP			; Ogre::Codec::operator=
_TEXT	ENDS
PUBLIC	??_GCodec@Ogre@@UAEPAXI@Z			; Ogre::Codec::`scalar deleting destructor'
EXTRN	??1Codec@Ogre@@UAE@XZ:PROC			; Ogre::Codec::~Codec
; Function compile flags: /Odtp
;	COMDAT ??_GCodec@Ogre@@UAEPAXI@Z
_TEXT	SEGMENT
_this$ = -4						; size = 4
___flags$ = 8						; size = 4
??_GCodec@Ogre@@UAEPAXI@Z PROC				; Ogre::Codec::`scalar deleting destructor', COMDAT
; _this$ = ecx
	push	ebp
	mov	ebp, esp
	push	ecx
	mov	DWORD PTR _this$[ebp], ecx
	mov	ecx, DWORD PTR _this$[ebp]
	call	??1Codec@Ogre@@UAE@XZ			; Ogre::Codec::~Codec
	mov	eax, DWORD PTR ___flags$[ebp]
	and	eax, 1
	je	SHORT $LN1@scalar@7
	mov	ecx, DWORD PTR _this$[ebp]
	push	ecx
	call	??3@YAXPAX@Z				; operator delete
	add	esp, 4
$LN1@scalar@7:
	mov	eax, DWORD PTR _this$[ebp]
	mov	esp, ebp
	pop	ebp
	ret	4
??_GCodec@Ogre@@UAEPAXI@Z ENDP				; Ogre::Codec::`scalar deleting destructor'
; Function compile flags: /Odtp
_TEXT	ENDS
;	COMDAT ??_ECodec@Ogre@@UAEPAXI@Z
_TEXT	SEGMENT
_this$ = -4						; size = 4
___flags$ = 8						; size = 4
??_ECodec@Ogre@@UAEPAXI@Z PROC				; Ogre::Codec::`vector deleting destructor', COMDAT
; _this$ = ecx
	push	ebp
	mov	ebp, esp
	push	ecx
	mov	DWORD PTR _this$[ebp], ecx
	mov	eax, DWORD PTR ___flags$[ebp]
	and	eax, 2
	je	SHORT $LN3@vector@7
	push	OFFSET ??1Codec@Ogre@@UAE@XZ		; Ogre::Codec::~Codec
	mov	ecx, DWORD PTR _this$[ebp]
	mov	edx, DWORD PTR [ecx-4]
	push	edx
	push	4
	mov	eax, DWORD PTR _this$[ebp]
	push	eax
	call	??_M@YGXPAXIHP6EX0@Z@Z
	mov	ecx, DWORD PTR ___flags$[ebp]
	and	ecx, 1
	je	SHORT $LN2@vector@7
	mov	edx, DWORD PTR _this$[ebp]
	sub	edx, 4
	push	edx
	call	??_V@YAXPAX@Z				; operator delete[]
	add	esp, 4
$LN2@vector@7:
	mov	eax, DWORD PTR _this$[ebp]
	sub	eax, 4
	jmp	SHORT $LN4@vector@7
$LN3@vector@7:
	mov	ecx, DWORD PTR _this$[ebp]
	call	??1Codec@Ogre@@UAE@XZ			; Ogre::Codec::~Codec
	mov	eax, DWORD PTR ___flags$[ebp]
	and	eax, 1
	je	SHORT $LN1@vector@7
	mov	ecx, DWORD PTR _this$[ebp]
	push	ecx
	call	??3@YAXPAX@Z				; operator delete
	add	esp, 4
$LN1@vector@7:
	mov	eax, DWORD PTR _this$[ebp]
$LN4@vector@7:
	mov	esp, ebp
	pop	ebp
	ret	4
??_ECodec@Ogre@@UAEPAXI@Z ENDP				; Ogre::Codec::`vector deleting destructor'
_TEXT	ENDS
PUBLIC	??0?$TBox@H@Ogre@@QAE@XZ			; Ogre::TBox<int>::TBox<int>
PUBLIC	??0PixelBox@Ogre@@QAE@XZ			; Ogre::PixelBox::PixelBox
; Function compile flags: /Odtp
; File i:\svnroot\client\ogremain\ogrepixelformat.h
;	COMDAT ??0PixelBox@Ogre@@QAE@XZ
_TEXT	SEGMENT
_this$ = -4						; size = 4
??0PixelBox@Ogre@@QAE@XZ PROC				; Ogre::PixelBox::PixelBox, COMDAT
; _this$ = ecx

; 183  : 		PixelBox() {}

	push	ebp
	mov	ebp, esp
	push	ecx
	mov	DWORD PTR _this$[ebp], ecx
	mov	ecx, DWORD PTR _this$[ebp]
	call	??0?$TBox@H@Ogre@@QAE@XZ		; Ogre::TBox<int>::TBox<int>
	mov	eax, DWORD PTR _this$[ebp]
	mov	esp, ebp
	pop	ebp
	ret	0
??0PixelBox@Ogre@@QAE@XZ ENDP				; Ogre::PixelBox::PixelBox
_TEXT	ENDS
PUBLIC	?setConsecutive@PixelBox@Ogre@@QAEXXZ		; Ogre::PixelBox::setConsecutive
PUBLIC	??0PixelBox@Ogre@@QAE@ABV?$TBox@H@1@W4PixelFormat@1@PAX@Z ; Ogre::PixelBox::PixelBox
; Function compile flags: /Odtp
;	COMDAT ??0PixelBox@Ogre@@QAE@ABV?$TBox@H@1@W4PixelFormat@1@PAX@Z
_TEXT	SEGMENT
_this$ = -4						; size = 4
_extents$ = 8						; size = 4
_pixelFormat$ = 12					; size = 4
_pixelData$ = 16					; size = 4
??0PixelBox@Ogre@@QAE@ABV?$TBox@H@1@W4PixelFormat@1@PAX@Z PROC ; Ogre::PixelBox::PixelBox, COMDAT
; _this$ = ecx

; 193  : 		{

	push	ebp
	mov	ebp, esp
	push	ecx
	mov	DWORD PTR _this$[ebp], ecx
	mov	eax, DWORD PTR _extents$[ebp]
	mov	ecx, DWORD PTR _this$[ebp]
	mov	edx, DWORD PTR [eax]
	mov	DWORD PTR [ecx], edx
	mov	edx, DWORD PTR [eax+4]
	mov	DWORD PTR [ecx+4], edx
	mov	edx, DWORD PTR [eax+8]
	mov	DWORD PTR [ecx+8], edx
	mov	edx, DWORD PTR [eax+12]
	mov	DWORD PTR [ecx+12], edx
	mov	edx, DWORD PTR [eax+16]
	mov	DWORD PTR [ecx+16], edx
	mov	eax, DWORD PTR [eax+20]
	mov	DWORD PTR [ecx+20], eax
	mov	ecx, DWORD PTR _this$[ebp]
	mov	edx, DWORD PTR _pixelData$[ebp]
	mov	DWORD PTR [ecx+24], edx
	mov	eax, DWORD PTR _this$[ebp]
	mov	ecx, DWORD PTR _pixelFormat$[ebp]
	mov	DWORD PTR [eax+28], ecx

; 194  : 			setConsecutive();

	mov	ecx, DWORD PTR _this$[ebp]
	call	?setConsecutive@PixelBox@Ogre@@QAEXXZ	; Ogre::PixelBox::setConsecutive

; 195  : 		}

	mov	eax, DWORD PTR _this$[ebp]
	mov	esp, ebp
	pop	ebp
	ret	12					; 0000000cH
??0PixelBox@Ogre@@QAE@ABV?$TBox@H@1@W4PixelFormat@1@PAX@Z ENDP ; Ogre::PixelBox::PixelBox
_TEXT	ENDS
PUBLIC	??0?$TBox@H@Ogre@@QAE@HHHHHH@Z			; Ogre::TBox<int>::TBox<int>
PUBLIC	??0PixelBox@Ogre@@QAE@IIIW4PixelFormat@1@PAX@Z	; Ogre::PixelBox::PixelBox
; Function compile flags: /Odtp
;	COMDAT ??0PixelBox@Ogre@@QAE@IIIW4PixelFormat@1@PAX@Z
_TEXT	SEGMENT
_this$ = -4						; size = 4
_width$ = 8						; size = 4
_height$ = 12						; size = 4
_depth$ = 16						; size = 4
_pixelFormat$ = 20					; size = 4
_pixelData$ = 24					; size = 4
??0PixelBox@Ogre@@QAE@IIIW4PixelFormat@1@PAX@Z PROC	; Ogre::PixelBox::PixelBox, COMDAT
; _this$ = ecx

; 208  : 		{

	push	ebp
	mov	ebp, esp
	push	ecx
	mov	DWORD PTR _this$[ebp], ecx
	mov	eax, DWORD PTR _depth$[ebp]
	push	eax
	mov	ecx, DWORD PTR _height$[ebp]
	push	ecx
	mov	edx, DWORD PTR _width$[ebp]
	push	edx
	push	0
	push	0
	push	0
	mov	ecx, DWORD PTR _this$[ebp]
	call	??0?$TBox@H@Ogre@@QAE@HHHHHH@Z		; Ogre::TBox<int>::TBox<int>
	mov	eax, DWORD PTR _this$[ebp]
	mov	ecx, DWORD PTR _pixelData$[ebp]
	mov	DWORD PTR [eax+24], ecx
	mov	edx, DWORD PTR _this$[ebp]
	mov	eax, DWORD PTR _pixelFormat$[ebp]
	mov	DWORD PTR [edx+28], eax

; 209  : 			setConsecutive();

	mov	ecx, DWORD PTR _this$[ebp]
	call	?setConsecutive@PixelBox@Ogre@@QAEXXZ	; Ogre::PixelBox::setConsecutive

; 210  : 		}

	mov	eax, DWORD PTR _this$[ebp]
	mov	esp, ebp
	pop	ebp
	ret	20					; 00000014H
??0PixelBox@Ogre@@QAE@IIIW4PixelFormat@1@PAX@Z ENDP	; Ogre::PixelBox::PixelBox
_TEXT	ENDS
PUBLIC	?getHeight@?$TBox@H@Ogre@@QBEHXZ		; Ogre::TBox<int>::getHeight
PUBLIC	?getWidth@?$TBox@H@Ogre@@QBEHXZ			; Ogre::TBox<int>::getWidth
; Function compile flags: /Odtp
;	COMDAT ?setConsecutive@PixelBox@Ogre@@QAEXXZ
_TEXT	SEGMENT
_this$ = -4						; size = 4
?setConsecutive@PixelBox@Ogre@@QAEXXZ PROC		; Ogre::PixelBox::setConsecutive, COMDAT
; _this$ = ecx

; 232  : 		{

	push	ebp
	mov	ebp, esp
	push	ecx
	push	esi
	mov	DWORD PTR _this$[ebp], ecx

; 233  : 			rowPitch = getWidth();

	mov	ecx, DWORD PTR _this$[ebp]
	call	?getWidth@?$TBox@H@Ogre@@QBEHXZ		; Ogre::TBox<int>::getWidth
	mov	ecx, DWORD PTR _this$[ebp]
	mov	DWORD PTR [ecx+32], eax

; 234  : 			slicePitch = getWidth()*getHeight();

	mov	ecx, DWORD PTR _this$[ebp]
	call	?getWidth@?$TBox@H@Ogre@@QBEHXZ		; Ogre::TBox<int>::getWidth
	mov	esi, eax
	mov	ecx, DWORD PTR _this$[ebp]
	call	?getHeight@?$TBox@H@Ogre@@QBEHXZ	; Ogre::TBox<int>::getHeight
	imul	esi, eax
	mov	edx, DWORD PTR _this$[ebp]
	mov	DWORD PTR [edx+36], esi

; 235  : 		}

	pop	esi
	mov	esp, ebp
	pop	ebp
	ret	0
?setConsecutive@PixelBox@Ogre@@QAEXXZ ENDP		; Ogre::PixelBox::setConsecutive
_TEXT	ENDS
PUBLIC	?getRowSkip@PixelBox@Ogre@@QBEIXZ		; Ogre::PixelBox::getRowSkip
; Function compile flags: /Odtp
;	COMDAT ?getRowSkip@PixelBox@Ogre@@QBEIXZ
_TEXT	SEGMENT
_this$ = -4						; size = 4
?getRowSkip@PixelBox@Ogre@@QBEIXZ PROC			; Ogre::PixelBox::getRowSkip, COMDAT
; _this$ = ecx

; 240  : 		size_t getRowSkip() const { return rowPitch - getWidth(); }

	push	ebp
	mov	ebp, esp
	push	ecx
	mov	DWORD PTR _this$[ebp], ecx
	mov	ecx, DWORD PTR _this$[ebp]
	call	?getWidth@?$TBox@H@Ogre@@QBEHXZ		; Ogre::TBox<int>::getWidth
	mov	ecx, DWORD PTR _this$[ebp]
	mov	edx, DWORD PTR [ecx+32]
	sub	edx, eax
	mov	eax, edx
	mov	esp, ebp
	pop	ebp
	ret	0
?getRowSkip@PixelBox@Ogre@@QBEIXZ ENDP			; Ogre::PixelBox::getRowSkip
_TEXT	ENDS
PUBLIC	?getSliceSkip@PixelBox@Ogre@@QBEIXZ		; Ogre::PixelBox::getSliceSkip
; Function compile flags: /Odtp
;	COMDAT ?getSliceSkip@PixelBox@Ogre@@QBEIXZ
_TEXT	SEGMENT
_this$ = -4						; size = 4
?getSliceSkip@PixelBox@Ogre@@QBEIXZ PROC		; Ogre::PixelBox::getSliceSkip, COMDAT
; _this$ = ecx

; 245  : 		size_t getSliceSkip() const { return slicePitch - (getHeight() * rowPitch); }

	push	ebp
	mov	ebp, esp
	push	ecx
	mov	DWORD PTR _this$[ebp], ecx
	mov	ecx, DWORD PTR _this$[ebp]
	call	?getHeight@?$TBox@H@Ogre@@QBEHXZ	; Ogre::TBox<int>::getHeight
	mov	ecx, DWORD PTR _this$[ebp]
	imul	eax, DWORD PTR [ecx+32]
	mov	edx, DWORD PTR _this$[ebp]
	mov	ecx, DWORD PTR [edx+36]
	sub	ecx, eax
	mov	eax, ecx
	mov	esp, ebp
	pop	ebp
	ret	0
?getSliceSkip@PixelBox@Ogre@@QBEIXZ ENDP		; Ogre::PixelBox::getSliceSkip
_TEXT	ENDS
PUBLIC	?isConsecutive@PixelBox@Ogre@@QBE_NXZ		; Ogre::PixelBox::isConsecutive
; Function compile flags: /Odtp
;	COMDAT ?isConsecutive@PixelBox@Ogre@@QBE_NXZ
_TEXT	SEGMENT
tv87 = -8						; size = 4
_this$ = -4						; size = 4
?isConsecutive@PixelBox@Ogre@@QBE_NXZ PROC		; Ogre::PixelBox::isConsecutive, COMDAT
; _this$ = ecx

; 251  : 		{ 

	push	ebp
	mov	ebp, esp
	sub	esp, 8
	push	esi
	mov	DWORD PTR _this$[ebp], ecx

; 252  : 			return rowPitch == getWidth() && slicePitch == getWidth()*getHeight(); 

	mov	ecx, DWORD PTR _this$[ebp]
	call	?getWidth@?$TBox@H@Ogre@@QBEHXZ		; Ogre::TBox<int>::getWidth
	mov	ecx, DWORD PTR _this$[ebp]
	cmp	DWORD PTR [ecx+32], eax
	jne	SHORT $LN3@isConsecut
	mov	ecx, DWORD PTR _this$[ebp]
	call	?getWidth@?$TBox@H@Ogre@@QBEHXZ		; Ogre::TBox<int>::getWidth
	mov	esi, eax
	mov	ecx, DWORD PTR _this$[ebp]
	call	?getHeight@?$TBox@H@Ogre@@QBEHXZ	; Ogre::TBox<int>::getHeight
	imul	esi, eax
	mov	edx, DWORD PTR _this$[ebp]
	cmp	DWORD PTR [edx+36], esi
	jne	SHORT $LN3@isConsecut
	mov	DWORD PTR tv87[ebp], 1
	jmp	SHORT $LN4@isConsecut
$LN3@isConsecut:
	mov	DWORD PTR tv87[ebp], 0
$LN4@isConsecut:
	mov	al, BYTE PTR tv87[ebp]

; 253  : 		}

	pop	esi
	mov	esp, ebp
	pop	ebp
	ret	0
?isConsecutive@PixelBox@Ogre@@QBE_NXZ ENDP		; Ogre::PixelBox::isConsecutive
_TEXT	ENDS
PUBLIC	??4?$TBox@H@Ogre@@QAEAAV01@ABV01@@Z		; Ogre::TBox<int>::operator=
; Function compile flags: /Odtp
;	COMDAT ??4?$TBox@H@Ogre@@QAEAAV01@ABV01@@Z
_TEXT	SEGMENT
_this$ = -4						; size = 4
___that$ = 8						; size = 4
??4?$TBox@H@Ogre@@QAEAAV01@ABV01@@Z PROC		; Ogre::TBox<int>::operator=, COMDAT
; _this$ = ecx
	push	ebp
	mov	ebp, esp
	push	ecx
	mov	DWORD PTR _this$[ebp], ecx
	mov	eax, DWORD PTR ___that$[ebp]
	mov	ecx, DWORD PTR _this$[ebp]
	mov	edx, DWORD PTR [eax]
	mov	DWORD PTR [ecx], edx
	mov	edx, DWORD PTR [eax+4]
	mov	DWORD PTR [ecx+4], edx
	mov	edx, DWORD PTR [eax+8]
	mov	DWORD PTR [ecx+8], edx
	mov	edx, DWORD PTR [eax+12]
	mov	DWORD PTR [ecx+12], edx
	mov	edx, DWORD PTR [eax+16]
	mov	DWORD PTR [ecx+16], edx
	mov	eax, DWORD PTR [eax+20]
	mov	DWORD PTR [ecx+20], eax
	mov	eax, DWORD PTR _this$[ebp]
	mov	esp, ebp
	pop	ebp
	ret	4
??4?$TBox@H@Ogre@@QAEAAV01@ABV01@@Z ENDP		; Ogre::TBox<int>::operator=
_TEXT	ENDS
PUBLIC	??4PixelBox@Ogre@@QAEAAV01@ABV01@@Z		; Ogre::PixelBox::operator=
; Function compile flags: /Odtp
;	COMDAT ??4PixelBox@Ogre@@QAEAAV01@ABV01@@Z
_TEXT	SEGMENT
_this$ = -4						; size = 4
___that$ = 8						; size = 4
??4PixelBox@Ogre@@QAEAAV01@ABV01@@Z PROC		; Ogre::PixelBox::operator=, COMDAT
; _this$ = ecx
	push	ebp
	mov	ebp, esp
	push	ecx
	push	esi
	push	edi
	mov	DWORD PTR _this$[ebp], ecx
	mov	esi, DWORD PTR ___that$[ebp]
	mov	ecx, 10					; 0000000aH
	mov	edi, DWORD PTR _this$[ebp]
	rep movsd
	mov	eax, DWORD PTR _this$[ebp]
	pop	edi
	pop	esi
	mov	esp, ebp
	pop	ebp
	ret	4
??4PixelBox@Ogre@@QAEAAV01@ABV01@@Z ENDP		; Ogre::PixelBox::operator=
_TEXT	ENDS
PUBLIC	??4PixelUtil@Ogre@@QAEAAV01@ABV01@@Z		; Ogre::PixelUtil::operator=
; Function compile flags: /Odtp
;	COMDAT ??4PixelUtil@Ogre@@QAEAAV01@ABV01@@Z
_TEXT	SEGMENT
_this$ = -4						; size = 4
___that$ = 8						; size = 4
??4PixelUtil@Ogre@@QAEAAV01@ABV01@@Z PROC		; Ogre::PixelUtil::operator=, COMDAT
; _this$ = ecx
	push	ebp
	mov	ebp, esp
	push	ecx
	mov	DWORD PTR _this$[ebp], ecx
	mov	eax, DWORD PTR _this$[ebp]
	mov	esp, ebp
	pop	ebp
	ret	4
??4PixelUtil@Ogre@@QAEAAV01@ABV01@@Z ENDP		; Ogre::PixelUtil::operator=
_TEXT	ENDS
PUBLIC	??_7ImageCodec@Ogre@@6B@			; Ogre::ImageCodec::`vftable'
PUBLIC	??1ImageCodec@Ogre@@UAE@XZ			; Ogre::ImageCodec::~ImageCodec
PUBLIC	??_R4ImageCodec@Ogre@@6B@			; Ogre::ImageCodec::`RTTI Complete Object Locator'
PUBLIC	??_R0?AVImageCodec@Ogre@@@8			; Ogre::ImageCodec `RTTI Type Descriptor'
PUBLIC	??_R3ImageCodec@Ogre@@8				; Ogre::ImageCodec::`RTTI Class Hierarchy Descriptor'
PUBLIC	??_R2ImageCodec@Ogre@@8				; Ogre::ImageCodec::`RTTI Base Class Array'
PUBLIC	??_R1A@?0A@EA@ImageCodec@Ogre@@8		; Ogre::ImageCodec::`RTTI Base Class Descriptor at (0,-1,0,64)'
PUBLIC	??_EImageCodec@Ogre@@UAEPAXI@Z			; Ogre::ImageCodec::`vector deleting destructor'
PUBLIC	?getDataType@ImageCodec@Ogre@@UBE?AV?$basic_string@DU?$char_traits@D@std@@V?$allocator@D@2@@std@@XZ ; Ogre::ImageCodec::getDataType
;	COMDAT ??_R1A@?0A@EA@ImageCodec@Ogre@@8
; File i:\svnroot\client\ogremain\ogreimagecodec.h
rdata$r	SEGMENT
??_R1A@?0A@EA@ImageCodec@Ogre@@8 DD FLAT:??_R0?AVImageCodec@Ogre@@@8 ; Ogre::ImageCodec::`RTTI Base Class Descriptor at (0,-1,0,64)'
	DD	01H
	DD	00H
	DD	0ffffffffH
	DD	00H
	DD	040H
	DD	FLAT:??_R3ImageCodec@Ogre@@8
rdata$r	ENDS
;	COMDAT ??_R2ImageCodec@Ogre@@8
rdata$r	SEGMENT
??_R2ImageCodec@Ogre@@8 DD FLAT:??_R1A@?0A@EA@ImageCodec@Ogre@@8 ; Ogre::ImageCodec::`RTTI Base Class Array'
	DD	FLAT:??_R1A@?0A@EA@Codec@Ogre@@8
rdata$r	ENDS
;	COMDAT ??_R3ImageCodec@Ogre@@8
rdata$r	SEGMENT
??_R3ImageCodec@Ogre@@8 DD 00H				; Ogre::ImageCodec::`RTTI Class Hierarchy Descriptor'
	DD	00H
	DD	02H
	DD	FLAT:??_R2ImageCodec@Ogre@@8
rdata$r	ENDS
;	COMDAT ??_R0?AVImageCodec@Ogre@@@8
_DATA	SEGMENT
??_R0?AVImageCodec@Ogre@@@8 DD FLAT:??_7type_info@@6B@	; Ogre::ImageCodec `RTTI Type Descriptor'
	DD	00H
	DB	'.?AVImageCodec@Ogre@@', 00H
_DATA	ENDS
;	COMDAT ??_R4ImageCodec@Ogre@@6B@
rdata$r	SEGMENT
??_R4ImageCodec@Ogre@@6B@ DD 00H			; Ogre::ImageCodec::`RTTI Complete Object Locator'
	DD	00H
	DD	00H
	DD	FLAT:??_R0?AVImageCodec@Ogre@@@8
	DD	FLAT:??_R3ImageCodec@Ogre@@8
rdata$r	ENDS
;	COMDAT ??_7ImageCodec@Ogre@@6B@
CONST	SEGMENT
??_7ImageCodec@Ogre@@6B@ DD FLAT:??_R4ImageCodec@Ogre@@6B@ ; Ogre::ImageCodec::`vftable'
	DD	FLAT:??_EImageCodec@Ogre@@UAEPAXI@Z
	DD	FLAT:__purecall
	DD	FLAT:__purecall
	DD	FLAT:__purecall
	DD	FLAT:__purecall
	DD	FLAT:?getDataType@ImageCodec@Ogre@@UBE?AV?$basic_string@DU?$char_traits@D@std@@V?$allocator@D@2@@std@@XZ
CONST	ENDS
;	COMDAT xdata$x
xdata$x	SEGMENT
__unwindtable$??1ImageCodec@Ogre@@UAE@XZ DD 0ffffffffH
	DD	FLAT:__unwindfunclet$??1ImageCodec@Ogre@@UAE@XZ$0
__ehfuncinfo$??1ImageCodec@Ogre@@UAE@XZ DD 019930522H
	DD	01H
	DD	FLAT:__unwindtable$??1ImageCodec@Ogre@@UAE@XZ
	DD	2 DUP(00H)
	DD	2 DUP(00H)
	DD	00H
	DD	00H
; Function compile flags: /Odtp
xdata$x	ENDS
;	COMDAT ??1ImageCodec@Ogre@@UAE@XZ
_TEXT	SEGMENT
_this$ = -16						; size = 4
__$EHRec$ = -12						; size = 12
??1ImageCodec@Ogre@@UAE@XZ PROC				; Ogre::ImageCodec::~ImageCodec, COMDAT
; _this$ = ecx

; 46   : 		{

	push	ebp
	mov	ebp, esp
	push	-1
	push	__ehhandler$??1ImageCodec@Ogre@@UAE@XZ
	mov	eax, DWORD PTR fs:0
	push	eax
	push	ecx
	mov	eax, DWORD PTR ___security_cookie
	xor	eax, ebp
	push	eax
	lea	eax, DWORD PTR __$EHRec$[ebp]
	mov	DWORD PTR fs:0, eax
	mov	DWORD PTR _this$[ebp], ecx
	mov	eax, DWORD PTR _this$[ebp]
	mov	DWORD PTR [eax], OFFSET ??_7ImageCodec@Ogre@@6B@
	mov	DWORD PTR __$EHRec$[ebp+8], 0

; 47   : 		}

	mov	DWORD PTR __$EHRec$[ebp+8], -1
	mov	ecx, DWORD PTR _this$[ebp]
	call	??1Codec@Ogre@@UAE@XZ			; Ogre::Codec::~Codec
	mov	ecx, DWORD PTR __$EHRec$[ebp]
	mov	DWORD PTR fs:0, ecx
	pop	ecx
	mov	esp, ebp
	pop	ebp
	ret	0
_TEXT	ENDS
;	COMDAT text$x
text$x	SEGMENT
__unwindfunclet$??1ImageCodec@Ogre@@UAE@XZ$0:
	mov	ecx, DWORD PTR _this$[ebp]
	jmp	??1Codec@Ogre@@UAE@XZ			; Ogre::Codec::~Codec
__ehhandler$??1ImageCodec@Ogre@@UAE@XZ:
	mov	edx, DWORD PTR [esp+8]
	lea	eax, DWORD PTR [edx+12]
	mov	ecx, DWORD PTR [edx-8]
	xor	ecx, eax
	call	@__security_check_cookie@4
	mov	eax, OFFSET __ehfuncinfo$??1ImageCodec@Ogre@@UAE@XZ
	jmp	___CxxFrameHandler3
text$x	ENDS
??1ImageCodec@Ogre@@UAE@XZ ENDP				; Ogre::ImageCodec::~ImageCodec
PUBLIC	??_C@_09NIGIGFDC@ImageData?$AA@			; `string'
EXTRN	__imp_??0?$basic_string@DU?$char_traits@D@std@@V?$allocator@D@2@@std@@QAE@PBD@Z:PROC
;	COMDAT ??_C@_09NIGIGFDC@ImageData?$AA@
CONST	SEGMENT
??_C@_09NIGIGFDC@ImageData?$AA@ DB 'ImageData', 00H	; `string'
CONST	ENDS
;	COMDAT xdata$x
xdata$x	SEGMENT
__unwindtable$?getDataType@ImageCodec@Ogre@@UBE?AV?$basic_string@DU?$char_traits@D@std@@V?$allocator@D@2@@std@@XZ DD 0ffffffffH
	DD	FLAT:__unwindfunclet$?getDataType@ImageCodec@Ogre@@UBE?AV?$basic_string@DU?$char_traits@D@std@@V?$allocator@D@2@@std@@XZ$0
__ehfuncinfo$?getDataType@ImageCodec@Ogre@@UBE?AV?$basic_string@DU?$char_traits@D@std@@V?$allocator@D@2@@std@@XZ DD 019930522H
	DD	01H
	DD	FLAT:__unwindtable$?getDataType@ImageCodec@Ogre@@UBE?AV?$basic_string@DU?$char_traits@D@std@@V?$allocator@D@2@@std@@XZ
	DD	2 DUP(00H)
	DD	2 DUP(00H)
	DD	00H
	DD	00H
; Function compile flags: /Odtp
xdata$x	ENDS
;	COMDAT ?getDataType@ImageCodec@Ogre@@UBE?AV?$basic_string@DU?$char_traits@D@std@@V?$allocator@D@2@@std@@XZ
_TEXT	SEGMENT
_this$ = -20						; size = 4
$T66733 = -16						; size = 4
__$EHRec$ = -12						; size = 12
___$ReturnUdt$ = 8					; size = 4
?getDataType@ImageCodec@Ogre@@UBE?AV?$basic_string@DU?$char_traits@D@std@@V?$allocator@D@2@@std@@XZ PROC ; Ogre::ImageCodec::getDataType, COMDAT
; _this$ = ecx

; 78   : 		{

	push	ebp
	mov	ebp, esp
	push	-1
	push	__ehhandler$?getDataType@ImageCodec@Ogre@@UBE?AV?$basic_string@DU?$char_traits@D@std@@V?$allocator@D@2@@std@@XZ
	mov	eax, DWORD PTR fs:0
	push	eax
	sub	esp, 8
	mov	eax, DWORD PTR ___security_cookie
	xor	eax, ebp
	push	eax
	lea	eax, DWORD PTR __$EHRec$[ebp]
	mov	DWORD PTR fs:0, eax
	mov	DWORD PTR _this$[ebp], ecx
	mov	DWORD PTR $T66733[ebp], 0

; 79   : 			return "ImageData";

	push	OFFSET ??_C@_09NIGIGFDC@ImageData?$AA@
	mov	ecx, DWORD PTR ___$ReturnUdt$[ebp]
	call	DWORD PTR __imp_??0?$basic_string@DU?$char_traits@D@std@@V?$allocator@D@2@@std@@QAE@PBD@Z
	mov	DWORD PTR __$EHRec$[ebp+8], 0
	mov	eax, DWORD PTR $T66733[ebp]
	or	eax, 1
	mov	DWORD PTR $T66733[ebp], eax
	mov	eax, DWORD PTR ___$ReturnUdt$[ebp]

; 80   : 		}

	mov	ecx, DWORD PTR __$EHRec$[ebp]
	mov	DWORD PTR fs:0, ecx
	pop	ecx
	mov	esp, ebp
	pop	ebp
	ret	4
_TEXT	ENDS
;	COMDAT text$x
text$x	SEGMENT
__unwindfunclet$?getDataType@ImageCodec@Ogre@@UBE?AV?$basic_string@DU?$char_traits@D@std@@V?$allocator@D@2@@std@@XZ$0:
	mov	eax, DWORD PTR $T66733[ebp]
	and	eax, 1
	je	$LN4@getDataTyp
	and	DWORD PTR $T66733[ebp], -2		; fffffffeH
	mov	ecx, DWORD PTR ___$ReturnUdt$[ebp]
	jmp	DWORD PTR __imp_??1?$basic_string@DU?$char_traits@D@std@@V?$allocator@D@2@@std@@QAE@XZ
$LN4@getDataTyp:
	ret	0
__ehhandler$?getDataType@ImageCodec@Ogre@@UBE?AV?$basic_string@DU?$char_traits@D@std@@V?$allocator@D@2@@std@@XZ:
	mov	edx, DWORD PTR [esp+8]
	lea	eax, DWORD PTR [edx+12]
	mov	ecx, DWORD PTR [edx-12]
	xor	ecx, eax
	call	@__security_check_cookie@4
	mov	eax, OFFSET __ehfuncinfo$?getDataType@ImageCodec@Ogre@@UBE?AV?$basic_string@DU?$char_traits@D@std@@V?$allocator@D@2@@std@@XZ
	jmp	___CxxFrameHandler3
text$x	ENDS
?getDataType@ImageCodec@Ogre@@UBE?AV?$basic_string@DU?$char_traits@D@std@@V?$allocator@D@2@@std@@XZ ENDP ; Ogre::ImageCodec::getDataType
PUBLIC	??0ImageCodec@Ogre@@QAE@XZ			; Ogre::ImageCodec::ImageCodec
;	COMDAT xdata$x
xdata$x	SEGMENT
__unwindtable$??0ImageCodec@Ogre@@QAE@XZ DD 0ffffffffH
	DD	FLAT:__unwindfunclet$??0ImageCodec@Ogre@@QAE@XZ$0
__ehfuncinfo$??0ImageCodec@Ogre@@QAE@XZ DD 019930522H
	DD	01H
	DD	FLAT:__unwindtable$??0ImageCodec@Ogre@@QAE@XZ
	DD	2 DUP(00H)
	DD	2 DUP(00H)
	DD	00H
	DD	00H
; Function compile flags: /Odtp
xdata$x	ENDS
;	COMDAT ??0ImageCodec@Ogre@@QAE@XZ
_TEXT	SEGMENT
_this$ = -16						; size = 4
__$EHRec$ = -12						; size = 12
??0ImageCodec@Ogre@@QAE@XZ PROC				; Ogre::ImageCodec::ImageCodec, COMDAT
; _this$ = ecx
	push	ebp
	mov	ebp, esp
	push	-1
	push	__ehhandler$??0ImageCodec@Ogre@@QAE@XZ
	mov	eax, DWORD PTR fs:0
	push	eax
	push	ecx
	mov	eax, DWORD PTR ___security_cookie
	xor	eax, ebp
	push	eax
	lea	eax, DWORD PTR __$EHRec$[ebp]
	mov	DWORD PTR fs:0, eax
	mov	DWORD PTR _this$[ebp], ecx
	mov	ecx, DWORD PTR _this$[ebp]
	call	??0Codec@Ogre@@QAE@XZ
	mov	DWORD PTR __$EHRec$[ebp+8], 0
	mov	eax, DWORD PTR _this$[ebp]
	mov	DWORD PTR [eax], OFFSET ??_7ImageCodec@Ogre@@6B@
	mov	DWORD PTR __$EHRec$[ebp+8], -1
	mov	eax, DWORD PTR _this$[ebp]
	mov	ecx, DWORD PTR __$EHRec$[ebp]
	mov	DWORD PTR fs:0, ecx
	pop	ecx
	mov	esp, ebp
	pop	ebp
	ret	0
_TEXT	ENDS
;	COMDAT text$x
text$x	SEGMENT
__unwindfunclet$??0ImageCodec@Ogre@@QAE@XZ$0:
	mov	ecx, DWORD PTR _this$[ebp]
	jmp	??1Codec@Ogre@@UAE@XZ			; Ogre::Codec::~Codec
__ehhandler$??0ImageCodec@Ogre@@QAE@XZ:
	mov	edx, DWORD PTR [esp+8]
	lea	eax, DWORD PTR [edx+12]
	mov	ecx, DWORD PTR [edx-8]
	xor	ecx, eax
	call	@__security_check_cookie@4
	mov	eax, OFFSET __ehfuncinfo$??0ImageCodec@Ogre@@QAE@XZ
	jmp	___CxxFrameHandler3
text$x	ENDS
??0ImageCodec@Ogre@@QAE@XZ ENDP				; Ogre::ImageCodec::ImageCodec
PUBLIC	??0ImageCodec@Ogre@@QAE@ABV01@@Z		; Ogre::ImageCodec::ImageCodec
;	COMDAT xdata$x
xdata$x	SEGMENT
__unwindtable$??0ImageCodec@Ogre@@QAE@ABV01@@Z DD 0ffffffffH
	DD	FLAT:__unwindfunclet$??0ImageCodec@Ogre@@QAE@ABV01@@Z$0
__ehfuncinfo$??0ImageCodec@Ogre@@QAE@ABV01@@Z DD 019930522H
	DD	01H
	DD	FLAT:__unwindtable$??0ImageCodec@Ogre@@QAE@ABV01@@Z
	DD	2 DUP(00H)
	DD	2 DUP(00H)
	DD	00H
	DD	00H
; Function compile flags: /Odtp
xdata$x	ENDS
;	COMDAT ??0ImageCodec@Ogre@@QAE@ABV01@@Z
_TEXT	SEGMENT
_this$ = -16						; size = 4
__$EHRec$ = -12						; size = 12
___that$ = 8						; size = 4
??0ImageCodec@Ogre@@QAE@ABV01@@Z PROC			; Ogre::ImageCodec::ImageCodec, COMDAT
; _this$ = ecx
	push	ebp
	mov	ebp, esp
	push	-1
	push	__ehhandler$??0ImageCodec@Ogre@@QAE@ABV01@@Z
	mov	eax, DWORD PTR fs:0
	push	eax
	push	ecx
	mov	eax, DWORD PTR ___security_cookie
	xor	eax, ebp
	push	eax
	lea	eax, DWORD PTR __$EHRec$[ebp]
	mov	DWORD PTR fs:0, eax
	mov	DWORD PTR _this$[ebp], ecx
	mov	eax, DWORD PTR ___that$[ebp]
	push	eax
	mov	ecx, DWORD PTR _this$[ebp]
	call	??0Codec@Ogre@@QAE@ABV01@@Z
	mov	DWORD PTR __$EHRec$[ebp+8], 0
	mov	ecx, DWORD PTR _this$[ebp]
	mov	DWORD PTR [ecx], OFFSET ??_7ImageCodec@Ogre@@6B@
	mov	DWORD PTR __$EHRec$[ebp+8], -1
	mov	eax, DWORD PTR _this$[ebp]
	mov	ecx, DWORD PTR __$EHRec$[ebp]
	mov	DWORD PTR fs:0, ecx
	pop	ecx
	mov	esp, ebp
	pop	ebp
	ret	4
_TEXT	ENDS
;	COMDAT text$x
text$x	SEGMENT
__unwindfunclet$??0ImageCodec@Ogre@@QAE@ABV01@@Z$0:
	mov	ecx, DWORD PTR _this$[ebp]
	jmp	??1Codec@Ogre@@UAE@XZ			; Ogre::Codec::~Codec
__ehhandler$??0ImageCodec@Ogre@@QAE@ABV01@@Z:
	mov	edx, DWORD PTR [esp+8]
	lea	eax, DWORD PTR [edx+12]
	mov	ecx, DWORD PTR [edx-8]
	xor	ecx, eax
	call	@__security_check_cookie@4
	mov	eax, OFFSET __ehfuncinfo$??0ImageCodec@Ogre@@QAE@ABV01@@Z
	jmp	___CxxFrameHandler3
text$x	ENDS
??0ImageCodec@Ogre@@QAE@ABV01@@Z ENDP			; Ogre::ImageCodec::ImageCodec
PUBLIC	??4ImageCodec@Ogre@@QAEAAV01@ABV01@@Z		; Ogre::ImageCodec::operator=
; Function compile flags: /Odtp
;	COMDAT ??4ImageCodec@Ogre@@QAEAAV01@ABV01@@Z
_TEXT	SEGMENT
_this$ = -4						; size = 4
___that$ = 8						; size = 4
??4ImageCodec@Ogre@@QAEAAV01@ABV01@@Z PROC		; Ogre::ImageCodec::operator=, COMDAT
; _this$ = ecx
	push	ebp
	mov	ebp, esp
	push	ecx
	mov	DWORD PTR _this$[ebp], ecx
	mov	eax, DWORD PTR ___that$[ebp]
	push	eax
	mov	ecx, DWORD PTR _this$[ebp]
	call	??4Codec@Ogre@@QAEAAV01@ABV01@@Z
	mov	eax, DWORD PTR _this$[ebp]
	mov	esp, ebp
	pop	ebp
	ret	4
??4ImageCodec@Ogre@@QAEAAV01@ABV01@@Z ENDP		; Ogre::ImageCodec::operator=
_TEXT	ENDS
PUBLIC	??_GImageCodec@Ogre@@UAEPAXI@Z			; Ogre::ImageCodec::`scalar deleting destructor'
; Function compile flags: /Odtp
;	COMDAT ??_GImageCodec@Ogre@@UAEPAXI@Z
_TEXT	SEGMENT
_this$ = -4						; size = 4
___flags$ = 8						; size = 4
??_GImageCodec@Ogre@@UAEPAXI@Z PROC			; Ogre::ImageCodec::`scalar deleting destructor', COMDAT
; _this$ = ecx
	push	ebp
	mov	ebp, esp
	push	ecx
	mov	DWORD PTR _this$[ebp], ecx
	mov	ecx, DWORD PTR _this$[ebp]
	call	??1ImageCodec@Ogre@@UAE@XZ		; Ogre::ImageCodec::~ImageCodec
	mov	eax, DWORD PTR ___flags$[ebp]
	and	eax, 1
	je	SHORT $LN1@scalar@8
	mov	ecx, DWORD PTR _this$[ebp]
	push	ecx
	call	??3@YAXPAX@Z				; operator delete
	add	esp, 4
$LN1@scalar@8:
	mov	eax, DWORD PTR _this$[ebp]
	mov	esp, ebp
	pop	ebp
	ret	4
??_GImageCodec@Ogre@@UAEPAXI@Z ENDP			; Ogre::ImageCodec::`scalar deleting destructor'
; Function compile flags: /Odtp
_TEXT	ENDS
;	COMDAT ??_EImageCodec@Ogre@@UAEPAXI@Z
_TEXT	SEGMENT
_this$ = -4						; size = 4
___flags$ = 8						; size = 4
??_EImageCodec@Ogre@@UAEPAXI@Z PROC			; Ogre::ImageCodec::`vector deleting destructor', COMDAT
; _this$ = ecx
	push	ebp
	mov	ebp, esp
	push	ecx
	mov	DWORD PTR _this$[ebp], ecx
	mov	eax, DWORD PTR ___flags$[ebp]
	and	eax, 2
	je	SHORT $LN3@vector@8
	push	OFFSET ??1ImageCodec@Ogre@@UAE@XZ	; Ogre::ImageCodec::~ImageCodec
	mov	ecx, DWORD PTR _this$[ebp]
	mov	edx, DWORD PTR [ecx-4]
	push	edx
	push	4
	mov	eax, DWORD PTR _this$[ebp]
	push	eax
	call	??_M@YGXPAXIHP6EX0@Z@Z
	mov	ecx, DWORD PTR ___flags$[ebp]
	and	ecx, 1
	je	SHORT $LN2@vector@8
	mov	edx, DWORD PTR _this$[ebp]
	sub	edx, 4
	push	edx
	call	??_V@YAXPAX@Z				; operator delete[]
	add	esp, 4
$LN2@vector@8:
	mov	eax, DWORD PTR _this$[ebp]
	sub	eax, 4
	jmp	SHORT $LN4@vector@8
$LN3@vector@8:
	mov	ecx, DWORD PTR _this$[ebp]
	call	??1ImageCodec@Ogre@@UAE@XZ		; Ogre::ImageCodec::~ImageCodec
	mov	eax, DWORD PTR ___flags$[ebp]
	and	eax, 1
	je	SHORT $LN1@vector@8
	mov	ecx, DWORD PTR _this$[ebp]
	push	ecx
	call	??3@YAXPAX@Z				; operator delete
	add	esp, 4
$LN1@vector@8:
	mov	eax, DWORD PTR _this$[ebp]
$LN4@vector@8:
	mov	esp, ebp
	pop	ebp
	ret	4
??_EImageCodec@Ogre@@UAEPAXI@Z ENDP			; Ogre::ImageCodec::`vector deleting destructor'
_TEXT	ENDS
PUBLIC	??_7DDSCodec@Ogre@@6B@				; Ogre::DDSCodec::`vftable'
PUBLIC	??1DDSCodec@Ogre@@UAE@XZ			; Ogre::DDSCodec::~DDSCodec
PUBLIC	??_R4DDSCodec@Ogre@@6B@				; Ogre::DDSCodec::`RTTI Complete Object Locator'
PUBLIC	??_R0?AVDDSCodec@Ogre@@@8			; Ogre::DDSCodec `RTTI Type Descriptor'
PUBLIC	??_R3DDSCodec@Ogre@@8				; Ogre::DDSCodec::`RTTI Class Hierarchy Descriptor'
PUBLIC	??_R2DDSCodec@Ogre@@8				; Ogre::DDSCodec::`RTTI Base Class Array'
PUBLIC	??_R1A@?0A@EA@DDSCodec@Ogre@@8			; Ogre::DDSCodec::`RTTI Base Class Descriptor at (0,-1,0,64)'
PUBLIC	??_EDDSCodec@Ogre@@UAEPAXI@Z			; Ogre::DDSCodec::`vector deleting destructor'
PUBLIC	?code@DDSCodec@Ogre@@UBEPAVDataStream@2@PAVMemoryDataStream@2@PAVCodecData@Codec@2@@Z ; Ogre::DDSCodec::code
PUBLIC	?codeToFile@DDSCodec@Ogre@@UBEXPAVMemoryDataStream@2@ABV?$basic_string@DU?$char_traits@D@std@@V?$allocator@D@2@@std@@PAVCodecData@Codec@2@@Z ; Ogre::DDSCodec::codeToFile
PUBLIC	?decode@DDSCodec@Ogre@@UBE?AU?$pair@PAVMemoryDataStream@Ogre@@PAVCodecData@Codec@2@@std@@PAVDataStream@2@@Z ; Ogre::DDSCodec::decode
PUBLIC	?getType@DDSCodec@Ogre@@UBE?AV?$basic_string@DU?$char_traits@D@std@@V?$allocator@D@2@@std@@XZ ; Ogre::DDSCodec::getType
;	COMDAT ??_R1A@?0A@EA@DDSCodec@Ogre@@8
; File i:\svnroot\client\ogremain\ogreddscodec.h
rdata$r	SEGMENT
??_R1A@?0A@EA@DDSCodec@Ogre@@8 DD FLAT:??_R0?AVDDSCodec@Ogre@@@8 ; Ogre::DDSCodec::`RTTI Base Class Descriptor at (0,-1,0,64)'
	DD	02H
	DD	00H
	DD	0ffffffffH
	DD	00H
	DD	040H
	DD	FLAT:??_R3DDSCodec@Ogre@@8
rdata$r	ENDS
;	COMDAT ??_R2DDSCodec@Ogre@@8
rdata$r	SEGMENT
??_R2DDSCodec@Ogre@@8 DD FLAT:??_R1A@?0A@EA@DDSCodec@Ogre@@8 ; Ogre::DDSCodec::`RTTI Base Class Array'
	DD	FLAT:??_R1A@?0A@EA@ImageCodec@Ogre@@8
	DD	FLAT:??_R1A@?0A@EA@Codec@Ogre@@8
rdata$r	ENDS
;	COMDAT ??_R3DDSCodec@Ogre@@8
rdata$r	SEGMENT
??_R3DDSCodec@Ogre@@8 DD 00H				; Ogre::DDSCodec::`RTTI Class Hierarchy Descriptor'
	DD	00H
	DD	03H
	DD	FLAT:??_R2DDSCodec@Ogre@@8
rdata$r	ENDS
;	COMDAT ??_R0?AVDDSCodec@Ogre@@@8
_DATA	SEGMENT
??_R0?AVDDSCodec@Ogre@@@8 DD FLAT:??_7type_info@@6B@	; Ogre::DDSCodec `RTTI Type Descriptor'
	DD	00H
	DB	'.?AVDDSCodec@Ogre@@', 00H
_DATA	ENDS
;	COMDAT ??_R4DDSCodec@Ogre@@6B@
rdata$r	SEGMENT
??_R4DDSCodec@Ogre@@6B@ DD 00H				; Ogre::DDSCodec::`RTTI Complete Object Locator'
	DD	00H
	DD	00H
	DD	FLAT:??_R0?AVDDSCodec@Ogre@@@8
	DD	FLAT:??_R3DDSCodec@Ogre@@8
rdata$r	ENDS
;	COMDAT ??_7DDSCodec@Ogre@@6B@
CONST	SEGMENT
??_7DDSCodec@Ogre@@6B@ DD FLAT:??_R4DDSCodec@Ogre@@6B@	; Ogre::DDSCodec::`vftable'
	DD	FLAT:??_EDDSCodec@Ogre@@UAEPAXI@Z
	DD	FLAT:?code@DDSCodec@Ogre@@UBEPAVDataStream@2@PAVMemoryDataStream@2@PAVCodecData@Codec@2@@Z
	DD	FLAT:?codeToFile@DDSCodec@Ogre@@UBEXPAVMemoryDataStream@2@ABV?$basic_string@DU?$char_traits@D@std@@V?$allocator@D@2@@std@@PAVCodecData@Codec@2@@Z
	DD	FLAT:?decode@DDSCodec@Ogre@@UBE?AU?$pair@PAVMemoryDataStream@Ogre@@PAVCodecData@Codec@2@@std@@PAVDataStream@2@@Z
	DD	FLAT:?getType@DDSCodec@Ogre@@UBE?AV?$basic_string@DU?$char_traits@D@std@@V?$allocator@D@2@@std@@XZ
	DD	FLAT:?getDataType@ImageCodec@Ogre@@UBE?AV?$basic_string@DU?$char_traits@D@std@@V?$allocator@D@2@@std@@XZ
CONST	ENDS
;	COMDAT xdata$x
xdata$x	SEGMENT
__unwindtable$??1DDSCodec@Ogre@@UAE@XZ DD 0ffffffffH
	DD	FLAT:__unwindfunclet$??1DDSCodec@Ogre@@UAE@XZ$0
	DD	00H
	DD	FLAT:__unwindfunclet$??1DDSCodec@Ogre@@UAE@XZ$1
__ehfuncinfo$??1DDSCodec@Ogre@@UAE@XZ DD 019930522H
	DD	02H
	DD	FLAT:__unwindtable$??1DDSCodec@Ogre@@UAE@XZ
	DD	2 DUP(00H)
	DD	2 DUP(00H)
	DD	00H
	DD	00H
; Function compile flags: /Odtp
xdata$x	ENDS
;	COMDAT ??1DDSCodec@Ogre@@UAE@XZ
_TEXT	SEGMENT
_this$ = -16						; size = 4
__$EHRec$ = -12						; size = 12
??1DDSCodec@Ogre@@UAE@XZ PROC				; Ogre::DDSCodec::~DDSCodec, COMDAT
; _this$ = ecx

; 68   : 		virtual ~DDSCodec() { }

	push	ebp
	mov	ebp, esp
	push	-1
	push	__ehhandler$??1DDSCodec@Ogre@@UAE@XZ
	mov	eax, DWORD PTR fs:0
	push	eax
	push	ecx
	mov	eax, DWORD PTR ___security_cookie
	xor	eax, ebp
	push	eax
	lea	eax, DWORD PTR __$EHRec$[ebp]
	mov	DWORD PTR fs:0, eax
	mov	DWORD PTR _this$[ebp], ecx
	mov	eax, DWORD PTR _this$[ebp]
	mov	DWORD PTR [eax], OFFSET ??_7DDSCodec@Ogre@@6B@
	mov	DWORD PTR __$EHRec$[ebp+8], 1
	mov	BYTE PTR __$EHRec$[ebp+8], 0
	mov	ecx, DWORD PTR _this$[ebp]
	add	ecx, 4
	call	DWORD PTR __imp_??1?$basic_string@DU?$char_traits@D@std@@V?$allocator@D@2@@std@@QAE@XZ
	mov	DWORD PTR __$EHRec$[ebp+8], -1
	mov	ecx, DWORD PTR _this$[ebp]
	call	??1ImageCodec@Ogre@@UAE@XZ		; Ogre::ImageCodec::~ImageCodec
	mov	ecx, DWORD PTR __$EHRec$[ebp]
	mov	DWORD PTR fs:0, ecx
	pop	ecx
	mov	esp, ebp
	pop	ebp
	ret	0
_TEXT	ENDS
;	COMDAT text$x
text$x	SEGMENT
__unwindfunclet$??1DDSCodec@Ogre@@UAE@XZ$0:
	mov	ecx, DWORD PTR _this$[ebp]
	jmp	??1ImageCodec@Ogre@@UAE@XZ		; Ogre::ImageCodec::~ImageCodec
__unwindfunclet$??1DDSCodec@Ogre@@UAE@XZ$1:
	mov	ecx, DWORD PTR _this$[ebp]
	add	ecx, 4
	jmp	DWORD PTR __imp_??1?$basic_string@DU?$char_traits@D@std@@V?$allocator@D@2@@std@@QAE@XZ
__ehhandler$??1DDSCodec@Ogre@@UAE@XZ:
	mov	edx, DWORD PTR [esp+8]
	lea	eax, DWORD PTR [edx+12]
	mov	ecx, DWORD PTR [edx-8]
	xor	ecx, eax
	call	@__security_check_cookie@4
	mov	eax, OFFSET __ehfuncinfo$??1DDSCodec@Ogre@@UAE@XZ
	jmp	___CxxFrameHandler3
text$x	ENDS
??1DDSCodec@Ogre@@UAE@XZ ENDP				; Ogre::DDSCodec::~DDSCodec
PUBLIC	??0DDSCodec@Ogre@@QAE@ABV01@@Z			; Ogre::DDSCodec::DDSCodec
;	COMDAT xdata$x
xdata$x	SEGMENT
__unwindtable$??0DDSCodec@Ogre@@QAE@ABV01@@Z DD 0ffffffffH
	DD	FLAT:__unwindfunclet$??0DDSCodec@Ogre@@QAE@ABV01@@Z$0
	DD	00H
	DD	FLAT:__unwindfunclet$??0DDSCodec@Ogre@@QAE@ABV01@@Z$1
__ehfuncinfo$??0DDSCodec@Ogre@@QAE@ABV01@@Z DD 019930522H
	DD	02H
	DD	FLAT:__unwindtable$??0DDSCodec@Ogre@@QAE@ABV01@@Z
	DD	2 DUP(00H)
	DD	2 DUP(00H)
	DD	00H
	DD	00H
; Function compile flags: /Odtp
xdata$x	ENDS
;	COMDAT ??0DDSCodec@Ogre@@QAE@ABV01@@Z
_TEXT	SEGMENT
_this$ = -16						; size = 4
__$EHRec$ = -12						; size = 12
___that$ = 8						; size = 4
??0DDSCodec@Ogre@@QAE@ABV01@@Z PROC			; Ogre::DDSCodec::DDSCodec, COMDAT
; _this$ = ecx
	push	ebp
	mov	ebp, esp
	push	-1
	push	__ehhandler$??0DDSCodec@Ogre@@QAE@ABV01@@Z
	mov	eax, DWORD PTR fs:0
	push	eax
	push	ecx
	mov	eax, DWORD PTR ___security_cookie
	xor	eax, ebp
	push	eax
	lea	eax, DWORD PTR __$EHRec$[ebp]
	mov	DWORD PTR fs:0, eax
	mov	DWORD PTR _this$[ebp], ecx
	mov	eax, DWORD PTR ___that$[ebp]
	push	eax
	mov	ecx, DWORD PTR _this$[ebp]
	call	??0ImageCodec@Ogre@@QAE@ABV01@@Z
	mov	DWORD PTR __$EHRec$[ebp+8], 0
	mov	ecx, DWORD PTR _this$[ebp]
	mov	DWORD PTR [ecx], OFFSET ??_7DDSCodec@Ogre@@6B@
	mov	edx, DWORD PTR ___that$[ebp]
	add	edx, 4
	push	edx
	mov	ecx, DWORD PTR _this$[ebp]
	add	ecx, 4
	call	DWORD PTR __imp_??0?$basic_string@DU?$char_traits@D@std@@V?$allocator@D@2@@std@@QAE@ABV01@@Z
	mov	BYTE PTR __$EHRec$[ebp+8], 1
	mov	DWORD PTR __$EHRec$[ebp+8], -1
	mov	eax, DWORD PTR _this$[ebp]
	mov	ecx, DWORD PTR __$EHRec$[ebp]
	mov	DWORD PTR fs:0, ecx
	pop	ecx
	mov	esp, ebp
	pop	ebp
	ret	4
_TEXT	ENDS
;	COMDAT text$x
text$x	SEGMENT
__unwindfunclet$??0DDSCodec@Ogre@@QAE@ABV01@@Z$0:
	mov	ecx, DWORD PTR _this$[ebp]
	jmp	??1ImageCodec@Ogre@@UAE@XZ		; Ogre::ImageCodec::~ImageCodec
__unwindfunclet$??0DDSCodec@Ogre@@QAE@ABV01@@Z$1:
	mov	ecx, DWORD PTR _this$[ebp]
	add	ecx, 4
	jmp	DWORD PTR __imp_??1?$basic_string@DU?$char_traits@D@std@@V?$allocator@D@2@@std@@QAE@XZ
__ehhandler$??0DDSCodec@Ogre@@QAE@ABV01@@Z:
	mov	edx, DWORD PTR [esp+8]
	lea	eax, DWORD PTR [edx+12]
	mov	ecx, DWORD PTR [edx-8]
	xor	ecx, eax
	call	@__security_check_cookie@4
	mov	eax, OFFSET __ehfuncinfo$??0DDSCodec@Ogre@@QAE@ABV01@@Z
	jmp	___CxxFrameHandler3
text$x	ENDS
??0DDSCodec@Ogre@@QAE@ABV01@@Z ENDP			; Ogre::DDSCodec::DDSCodec
PUBLIC	??4DDSCodec@Ogre@@QAEAAV01@ABV01@@Z		; Ogre::DDSCodec::operator=
; Function compile flags: /Odtp
;	COMDAT ??4DDSCodec@Ogre@@QAEAAV01@ABV01@@Z
_TEXT	SEGMENT
_this$ = -4						; size = 4
___that$ = 8						; size = 4
??4DDSCodec@Ogre@@QAEAAV01@ABV01@@Z PROC		; Ogre::DDSCodec::operator=, COMDAT
; _this$ = ecx
	push	ebp
	mov	ebp, esp
	push	ecx
	mov	DWORD PTR _this$[ebp], ecx
	mov	eax, DWORD PTR ___that$[ebp]
	push	eax
	mov	ecx, DWORD PTR _this$[ebp]
	call	??4ImageCodec@Ogre@@QAEAAV01@ABV01@@Z
	mov	ecx, DWORD PTR ___that$[ebp]
	add	ecx, 4
	push	ecx
	mov	ecx, DWORD PTR _this$[ebp]
	add	ecx, 4
	call	DWORD PTR __imp_??4?$basic_string@DU?$char_traits@D@std@@V?$allocator@D@2@@std@@QAEAAV01@ABV01@@Z
	mov	eax, DWORD PTR _this$[ebp]
	mov	esp, ebp
	pop	ebp
	ret	4
??4DDSCodec@Ogre@@QAEAAV01@ABV01@@Z ENDP		; Ogre::DDSCodec::operator=
_TEXT	ENDS
PUBLIC	??_GDDSCodec@Ogre@@UAEPAXI@Z			; Ogre::DDSCodec::`scalar deleting destructor'
; Function compile flags: /Odtp
;	COMDAT ??_GDDSCodec@Ogre@@UAEPAXI@Z
_TEXT	SEGMENT
_this$ = -4						; size = 4
___flags$ = 8						; size = 4
??_GDDSCodec@Ogre@@UAEPAXI@Z PROC			; Ogre::DDSCodec::`scalar deleting destructor', COMDAT
; _this$ = ecx
	push	ebp
	mov	ebp, esp
	push	ecx
	mov	DWORD PTR _this$[ebp], ecx
	mov	ecx, DWORD PTR _this$[ebp]
	call	??1DDSCodec@Ogre@@UAE@XZ		; Ogre::DDSCodec::~DDSCodec
	mov	eax, DWORD PTR ___flags$[ebp]
	and	eax, 1
	je	SHORT $LN1@scalar@9
	mov	ecx, DWORD PTR _this$[ebp]
	push	ecx
	call	??3@YAXPAX@Z				; operator delete
	add	esp, 4
$LN1@scalar@9:
	mov	eax, DWORD PTR _this$[ebp]
	mov	esp, ebp
	pop	ebp
	ret	4
??_GDDSCodec@Ogre@@UAEPAXI@Z ENDP			; Ogre::DDSCodec::`scalar deleting destructor'
; Function compile flags: /Odtp
_TEXT	ENDS
;	COMDAT ??_EDDSCodec@Ogre@@UAEPAXI@Z
_TEXT	SEGMENT
_this$ = -4						; size = 4
___flags$ = 8						; size = 4
??_EDDSCodec@Ogre@@UAEPAXI@Z PROC			; Ogre::DDSCodec::`vector deleting destructor', COMDAT
; _this$ = ecx
	push	ebp
	mov	ebp, esp
	push	ecx
	mov	DWORD PTR _this$[ebp], ecx
	mov	eax, DWORD PTR ___flags$[ebp]
	and	eax, 2
	je	SHORT $LN3@vector@9
	push	OFFSET ??1DDSCodec@Ogre@@UAE@XZ		; Ogre::DDSCodec::~DDSCodec
	mov	ecx, DWORD PTR _this$[ebp]
	mov	edx, DWORD PTR [ecx-4]
	push	edx
	push	32					; 00000020H
	mov	eax, DWORD PTR _this$[ebp]
	push	eax
	call	??_M@YGXPAXIHP6EX0@Z@Z
	mov	ecx, DWORD PTR ___flags$[ebp]
	and	ecx, 1
	je	SHORT $LN2@vector@9
	mov	edx, DWORD PTR _this$[ebp]
	sub	edx, 4
	push	edx
	call	??_V@YAXPAX@Z				; operator delete[]
	add	esp, 4
$LN2@vector@9:
	mov	eax, DWORD PTR _this$[ebp]
	sub	eax, 4
	jmp	SHORT $LN4@vector@9
$LN3@vector@9:
	mov	ecx, DWORD PTR _this$[ebp]
	call	??1DDSCodec@Ogre@@UAE@XZ		; Ogre::DDSCodec::~DDSCodec
	mov	eax, DWORD PTR ___flags$[ebp]
	and	eax, 1
	je	SHORT $LN1@vector@9
	mov	ecx, DWORD PTR _this$[ebp]
	push	ecx
	call	??3@YAXPAX@Z				; operator delete
	add	esp, 4
$LN1@vector@9:
	mov	eax, DWORD PTR _this$[ebp]
$LN4@vector@9:
	mov	esp, ebp
	pop	ebp
	ret	4
??_EDDSCodec@Ogre@@UAEPAXI@Z ENDP			; Ogre::DDSCodec::`vector deleting destructor'
_TEXT	ENDS
PUBLIC	?loadDynamicImage@Image@Ogre@@QAEAAV12@PAEIIW4PixelFormat@2@@Z ; Ogre::Image::loadDynamicImage
EXTRN	?loadDynamicImage@Image@Ogre@@QAEAAV12@PAEIIIW4PixelFormat@2@_NII@Z:PROC ; Ogre::Image::loadDynamicImage
; Function compile flags: /Odtp
; File i:\svnroot\client\ogremain\ogreimage.h
;	COMDAT ?loadDynamicImage@Image@Ogre@@QAEAAV12@PAEIIW4PixelFormat@2@@Z
_TEXT	SEGMENT
_this$ = -4						; size = 4
_pData$ = 8						; size = 4
_uWidth$ = 12						; size = 4
_uHeight$ = 16						; size = 4
_eFormat$ = 20						; size = 4
?loadDynamicImage@Image@Ogre@@QAEAAV12@PAEIIW4PixelFormat@2@@Z PROC ; Ogre::Image::loadDynamicImage, COMDAT
; _this$ = ecx

; 195  : 		{

	push	ebp
	mov	ebp, esp
	push	ecx
	mov	DWORD PTR _this$[ebp], ecx

; 196  : 			return loadDynamicImage(pData, uWidth, uHeight, 1, eFormat);

	push	0
	push	1
	push	0
	mov	eax, DWORD PTR _eFormat$[ebp]
	push	eax
	push	1
	mov	ecx, DWORD PTR _uHeight$[ebp]
	push	ecx
	mov	edx, DWORD PTR _uWidth$[ebp]
	push	edx
	mov	eax, DWORD PTR _pData$[ebp]
	push	eax
	mov	ecx, DWORD PTR _this$[ebp]
	call	?loadDynamicImage@Image@Ogre@@QAEAAV12@PAEIIIW4PixelFormat@2@_NII@Z ; Ogre::Image::loadDynamicImage

; 197  : 		}

	mov	esp, ebp
	pop	ebp
	ret	16					; 00000010H
?loadDynamicImage@Image@Ogre@@QAEAAV12@PAEIIW4PixelFormat@2@@Z ENDP ; Ogre::Image::loadDynamicImage
_TEXT	ENDS
PUBLIC	?loadRawData@Image@Ogre@@QAEAAV12@PAVDataStream@2@IIW4PixelFormat@2@@Z ; Ogre::Image::loadRawData
EXTRN	?loadRawData@Image@Ogre@@QAEAAV12@PAVDataStream@2@IIIW4PixelFormat@2@II@Z:PROC ; Ogre::Image::loadRawData
; Function compile flags: /Odtp
;	COMDAT ?loadRawData@Image@Ogre@@QAEAAV12@PAVDataStream@2@IIW4PixelFormat@2@@Z
_TEXT	SEGMENT
_this$ = -4						; size = 4
_stream$ = 8						; size = 4
_uWidth$ = 12						; size = 4
_uHeight$ = 16						; size = 4
_eFormat$ = 20						; size = 4
?loadRawData@Image@Ogre@@QAEAAV12@PAVDataStream@2@IIW4PixelFormat@2@@Z PROC ; Ogre::Image::loadRawData, COMDAT
; _this$ = ecx

; 245  : 		{

	push	ebp
	mov	ebp, esp
	push	ecx
	mov	DWORD PTR _this$[ebp], ecx

; 246  : 			return loadRawData(stream, uWidth, uHeight, 1, eFormat);

	push	0
	push	1
	mov	eax, DWORD PTR _eFormat$[ebp]
	push	eax
	push	1
	mov	ecx, DWORD PTR _uHeight$[ebp]
	push	ecx
	mov	edx, DWORD PTR _uWidth$[ebp]
	push	edx
	mov	eax, DWORD PTR _stream$[ebp]
	push	eax
	mov	ecx, DWORD PTR _this$[ebp]
	call	?loadRawData@Image@Ogre@@QAEAAV12@PAVDataStream@2@IIIW4PixelFormat@2@II@Z ; Ogre::Image::loadRawData

; 247  : 		}

	mov	esp, ebp
	pop	ebp
	ret	16					; 00000010H
?loadRawData@Image@Ogre@@QAEAAV12@PAVDataStream@2@IIW4PixelFormat@2@@Z ENDP ; Ogre::Image::loadRawData
_TEXT	ENDS
PUBLIC	??_7Exception@Ogre@@6B@				; Ogre::Exception::`vftable'
PUBLIC	??1Exception@Ogre@@UAE@XZ			; Ogre::Exception::~Exception
PUBLIC	??_R4Exception@Ogre@@6B@			; Ogre::Exception::`RTTI Complete Object Locator'
PUBLIC	??_R0?AVException@Ogre@@@8			; Ogre::Exception `RTTI Type Descriptor'
PUBLIC	??_R3Exception@Ogre@@8				; Ogre::Exception::`RTTI Class Hierarchy Descriptor'
PUBLIC	??_R2Exception@Ogre@@8				; Ogre::Exception::`RTTI Base Class Array'
PUBLIC	??_R1A@?0A@EA@Exception@Ogre@@8			; Ogre::Exception::`RTTI Base Class Descriptor at (0,-1,0,64)'
PUBLIC	??_R1A@?0A@EA@exception@std@@8			; std::exception::`RTTI Base Class Descriptor at (0,-1,0,64)'
PUBLIC	??_R0?AVexception@std@@@8			; std::exception `RTTI Type Descriptor'
PUBLIC	??_R3exception@std@@8				; std::exception::`RTTI Class Hierarchy Descriptor'
PUBLIC	??_R2exception@std@@8				; std::exception::`RTTI Base Class Array'
PUBLIC	??_EException@Ogre@@UAEPAXI@Z			; Ogre::Exception::`vector deleting destructor'
PUBLIC	?what@Exception@Ogre@@UBEPBDXZ			; Ogre::Exception::what
PUBLIC	?getSource@Exception@Ogre@@UBEABV?$basic_string@DU?$char_traits@D@std@@V?$allocator@D@2@@std@@XZ ; Ogre::Exception::getSource
PUBLIC	?getFile@Exception@Ogre@@UBEABV?$basic_string@DU?$char_traits@D@std@@V?$allocator@D@2@@std@@XZ ; Ogre::Exception::getFile
PUBLIC	?getLine@Exception@Ogre@@UBEJXZ			; Ogre::Exception::getLine
PUBLIC	?getDescription@Exception@Ogre@@UBEABV?$basic_string@DU?$char_traits@D@std@@V?$allocator@D@2@@std@@XZ ; Ogre::Exception::getDescription
EXTRN	__imp_??1exception@std@@UAE@XZ:PROC
EXTRN	?getFullDescription@Exception@Ogre@@UBEABV?$basic_string@DU?$char_traits@D@std@@V?$allocator@D@2@@std@@XZ:PROC ; Ogre::Exception::getFullDescription
EXTRN	?getNumber@Exception@Ogre@@UBEHXZ:PROC		; Ogre::Exception::getNumber
;	COMDAT ??_R2exception@std@@8
; File i:\svnroot\client\ogremain\ogreexception.h
rdata$r	SEGMENT
??_R2exception@std@@8 DD FLAT:??_R1A@?0A@EA@exception@std@@8 ; std::exception::`RTTI Base Class Array'
rdata$r	ENDS
;	COMDAT ??_R3exception@std@@8
rdata$r	SEGMENT
??_R3exception@std@@8 DD 00H				; std::exception::`RTTI Class Hierarchy Descriptor'
	DD	00H
	DD	01H
	DD	FLAT:??_R2exception@std@@8
rdata$r	ENDS
;	COMDAT ??_R0?AVexception@std@@@8
_DATA	SEGMENT
??_R0?AVexception@std@@@8 DD FLAT:??_7type_info@@6B@	; std::exception `RTTI Type Descriptor'
	DD	00H
	DB	'.?AVexception@std@@', 00H
_DATA	ENDS
;	COMDAT ??_R1A@?0A@EA@exception@std@@8
rdata$r	SEGMENT
??_R1A@?0A@EA@exception@std@@8 DD FLAT:??_R0?AVexception@std@@@8 ; std::exception::`RTTI Base Class Descriptor at (0,-1,0,64)'
	DD	00H
	DD	00H
	DD	0ffffffffH
	DD	00H
	DD	040H
	DD	FLAT:??_R3exception@std@@8
rdata$r	ENDS
;	COMDAT ??_R1A@?0A@EA@Exception@Ogre@@8
rdata$r	SEGMENT
??_R1A@?0A@EA@Exception@Ogre@@8 DD FLAT:??_R0?AVException@Ogre@@@8 ; Ogre::Exception::`RTTI Base Class Descriptor at (0,-1,0,64)'
	DD	01H
	DD	00H
	DD	0ffffffffH
	DD	00H
	DD	040H
	DD	FLAT:??_R3Exception@Ogre@@8
rdata$r	ENDS
;	COMDAT ??_R2Exception@Ogre@@8
rdata$r	SEGMENT
??_R2Exception@Ogre@@8 DD FLAT:??_R1A@?0A@EA@Exception@Ogre@@8 ; Ogre::Exception::`RTTI Base Class Array'
	DD	FLAT:??_R1A@?0A@EA@exception@std@@8
rdata$r	ENDS
;	COMDAT ??_R3Exception@Ogre@@8
rdata$r	SEGMENT
??_R3Exception@Ogre@@8 DD 00H				; Ogre::Exception::`RTTI Class Hierarchy Descriptor'
	DD	00H
	DD	02H
	DD	FLAT:??_R2Exception@Ogre@@8
rdata$r	ENDS
;	COMDAT ??_R0?AVException@Ogre@@@8
_DATA	SEGMENT
??_R0?AVException@Ogre@@@8 DD FLAT:??_7type_info@@6B@	; Ogre::Exception `RTTI Type Descriptor'
	DD	00H
	DB	'.?AVException@Ogre@@', 00H
_DATA	ENDS
;	COMDAT ??_R4Exception@Ogre@@6B@
rdata$r	SEGMENT
??_R4Exception@Ogre@@6B@ DD 00H				; Ogre::Exception::`RTTI Complete Object Locator'
	DD	00H
	DD	00H
	DD	FLAT:??_R0?AVException@Ogre@@@8
	DD	FLAT:??_R3Exception@Ogre@@8
rdata$r	ENDS
;	COMDAT ??_7Exception@Ogre@@6B@
CONST	SEGMENT
??_7Exception@Ogre@@6B@ DD FLAT:??_R4Exception@Ogre@@6B@ ; Ogre::Exception::`vftable'
	DD	FLAT:??_EException@Ogre@@UAEPAXI@Z
	DD	FLAT:?what@Exception@Ogre@@UBEPBDXZ
	DD	FLAT:?getFullDescription@Exception@Ogre@@UBEABV?$basic_string@DU?$char_traits@D@std@@V?$allocator@D@2@@std@@XZ
	DD	FLAT:?getNumber@Exception@Ogre@@UBEHXZ
	DD	FLAT:?getSource@Exception@Ogre@@UBEABV?$basic_string@DU?$char_traits@D@std@@V?$allocator@D@2@@std@@XZ
	DD	FLAT:?getFile@Exception@Ogre@@UBEABV?$basic_string@DU?$char_traits@D@std@@V?$allocator@D@2@@std@@XZ
	DD	FLAT:?getLine@Exception@Ogre@@UBEJXZ
	DD	FLAT:?getDescription@Exception@Ogre@@UBEABV?$basic_string@DU?$char_traits@D@std@@V?$allocator@D@2@@std@@XZ
CONST	ENDS
;	COMDAT xdata$x
xdata$x	SEGMENT
__ehfuncinfo$??1Exception@Ogre@@UAE@XZ DD 019930522H
	DD	06H
	DD	FLAT:__unwindtable$??1Exception@Ogre@@UAE@XZ
	DD	2 DUP(00H)
	DD	2 DUP(00H)
	DD	00H
	DD	00H
__unwindtable$??1Exception@Ogre@@UAE@XZ DD 0ffffffffH
	DD	FLAT:__unwindfunclet$??1Exception@Ogre@@UAE@XZ$0
	DD	00H
	DD	FLAT:__unwindfunclet$??1Exception@Ogre@@UAE@XZ$1
	DD	01H
	DD	FLAT:__unwindfunclet$??1Exception@Ogre@@UAE@XZ$2
	DD	02H
	DD	FLAT:__unwindfunclet$??1Exception@Ogre@@UAE@XZ$3
	DD	03H
	DD	FLAT:__unwindfunclet$??1Exception@Ogre@@UAE@XZ$4
	DD	04H
	DD	FLAT:__unwindfunclet$??1Exception@Ogre@@UAE@XZ$5
; Function compile flags: /Odtp
xdata$x	ENDS
;	COMDAT ??1Exception@Ogre@@UAE@XZ
_TEXT	SEGMENT
_this$ = -16						; size = 4
__$EHRec$ = -12						; size = 12
??1Exception@Ogre@@UAE@XZ PROC				; Ogre::Exception::~Exception, COMDAT
; _this$ = ecx

; 127  : 		~Exception() throw() {}

	push	ebp
	mov	ebp, esp
	push	-1
	push	__ehhandler$??1Exception@Ogre@@UAE@XZ
	mov	eax, DWORD PTR fs:0
	push	eax
	push	ecx
	mov	eax, DWORD PTR ___security_cookie
	xor	eax, ebp
	push	eax
	lea	eax, DWORD PTR __$EHRec$[ebp]
	mov	DWORD PTR fs:0, eax
	mov	DWORD PTR _this$[ebp], ecx
	mov	eax, DWORD PTR _this$[ebp]
	mov	DWORD PTR [eax], OFFSET ??_7Exception@Ogre@@6B@
	mov	DWORD PTR __$EHRec$[ebp+8], 5
	mov	BYTE PTR __$EHRec$[ebp+8], 4
	mov	ecx, DWORD PTR _this$[ebp]
	add	ecx, 132				; 00000084H
	call	DWORD PTR __imp_??1?$basic_string@DU?$char_traits@D@std@@V?$allocator@D@2@@std@@QAE@XZ
	mov	BYTE PTR __$EHRec$[ebp+8], 3
	mov	ecx, DWORD PTR _this$[ebp]
	add	ecx, 104				; 00000068H
	call	DWORD PTR __imp_??1?$basic_string@DU?$char_traits@D@std@@V?$allocator@D@2@@std@@QAE@XZ
	mov	BYTE PTR __$EHRec$[ebp+8], 2
	mov	ecx, DWORD PTR _this$[ebp]
	add	ecx, 76					; 0000004cH
	call	DWORD PTR __imp_??1?$basic_string@DU?$char_traits@D@std@@V?$allocator@D@2@@std@@QAE@XZ
	mov	BYTE PTR __$EHRec$[ebp+8], 1
	mov	ecx, DWORD PTR _this$[ebp]
	add	ecx, 48					; 00000030H
	call	DWORD PTR __imp_??1?$basic_string@DU?$char_traits@D@std@@V?$allocator@D@2@@std@@QAE@XZ
	mov	BYTE PTR __$EHRec$[ebp+8], 0
	mov	ecx, DWORD PTR _this$[ebp]
	add	ecx, 20					; 00000014H
	call	DWORD PTR __imp_??1?$basic_string@DU?$char_traits@D@std@@V?$allocator@D@2@@std@@QAE@XZ
	mov	DWORD PTR __$EHRec$[ebp+8], -1
	mov	ecx, DWORD PTR _this$[ebp]
	call	DWORD PTR __imp_??1exception@std@@UAE@XZ
	mov	ecx, DWORD PTR __$EHRec$[ebp]
	mov	DWORD PTR fs:0, ecx
	pop	ecx
	mov	esp, ebp
	pop	ebp
	ret	0
_TEXT	ENDS
;	COMDAT text$x
text$x	SEGMENT
__unwindfunclet$??1Exception@Ogre@@UAE@XZ$0:
	mov	ecx, DWORD PTR _this$[ebp]
	jmp	DWORD PTR __imp_??1exception@std@@UAE@XZ
__unwindfunclet$??1Exception@Ogre@@UAE@XZ$1:
	mov	ecx, DWORD PTR _this$[ebp]
	add	ecx, 20					; 00000014H
	jmp	DWORD PTR __imp_??1?$basic_string@DU?$char_traits@D@std@@V?$allocator@D@2@@std@@QAE@XZ
__unwindfunclet$??1Exception@Ogre@@UAE@XZ$2:
	mov	ecx, DWORD PTR _this$[ebp]
	add	ecx, 48					; 00000030H
	jmp	DWORD PTR __imp_??1?$basic_string@DU?$char_traits@D@std@@V?$allocator@D@2@@std@@QAE@XZ
__unwindfunclet$??1Exception@Ogre@@UAE@XZ$3:
	mov	ecx, DWORD PTR _this$[ebp]
	add	ecx, 76					; 0000004cH
	jmp	DWORD PTR __imp_??1?$basic_string@DU?$char_traits@D@std@@V?$allocator@D@2@@std@@QAE@XZ
__unwindfunclet$??1Exception@Ogre@@UAE@XZ$4:
	mov	ecx, DWORD PTR _this$[ebp]
	add	ecx, 104				; 00000068H
	jmp	DWORD PTR __imp_??1?$basic_string@DU?$char_traits@D@std@@V?$allocator@D@2@@std@@QAE@XZ
__unwindfunclet$??1Exception@Ogre@@UAE@XZ$5:
	mov	ecx, DWORD PTR _this$[ebp]
	add	ecx, 132				; 00000084H
	jmp	DWORD PTR __imp_??1?$basic_string@DU?$char_traits@D@std@@V?$allocator@D@2@@std@@QAE@XZ
__ehhandler$??1Exception@Ogre@@UAE@XZ:
	mov	edx, DWORD PTR [esp+8]
	lea	eax, DWORD PTR [edx+12]
	mov	ecx, DWORD PTR [edx-8]
	xor	ecx, eax
	call	@__security_check_cookie@4
	mov	eax, OFFSET __ehfuncinfo$??1Exception@Ogre@@UAE@XZ
	jmp	___CxxFrameHandler3
text$x	ENDS
??1Exception@Ogre@@UAE@XZ ENDP				; Ogre::Exception::~Exception
; Function compile flags: /Odtp
;	COMDAT ?getSource@Exception@Ogre@@UBEABV?$basic_string@DU?$char_traits@D@std@@V?$allocator@D@2@@std@@XZ
_TEXT	SEGMENT
_this$ = -4						; size = 4
?getSource@Exception@Ogre@@UBEABV?$basic_string@DU?$char_traits@D@std@@V?$allocator@D@2@@std@@XZ PROC ; Ogre::Exception::getSource, COMDAT
; _this$ = ecx

; 151  : 		virtual const String &getSource() const { return source; }

	push	ebp
	mov	ebp, esp
	push	ecx
	mov	DWORD PTR _this$[ebp], ecx
	mov	eax, DWORD PTR _this$[ebp]
	add	eax, 76					; 0000004cH
	mov	esp, ebp
	pop	ebp
	ret	0
?getSource@Exception@Ogre@@UBEABV?$basic_string@DU?$char_traits@D@std@@V?$allocator@D@2@@std@@XZ ENDP ; Ogre::Exception::getSource
; Function compile flags: /Odtp
_TEXT	ENDS
;	COMDAT ?getFile@Exception@Ogre@@UBEABV?$basic_string@DU?$char_traits@D@std@@V?$allocator@D@2@@std@@XZ
_TEXT	SEGMENT
_this$ = -4						; size = 4
?getFile@Exception@Ogre@@UBEABV?$basic_string@DU?$char_traits@D@std@@V?$allocator@D@2@@std@@XZ PROC ; Ogre::Exception::getFile, COMDAT
; _this$ = ecx

; 155  : 		virtual const String &getFile() const { return file; }

	push	ebp
	mov	ebp, esp
	push	ecx
	mov	DWORD PTR _this$[ebp], ecx
	mov	eax, DWORD PTR _this$[ebp]
	add	eax, 104				; 00000068H
	mov	esp, ebp
	pop	ebp
	ret	0
?getFile@Exception@Ogre@@UBEABV?$basic_string@DU?$char_traits@D@std@@V?$allocator@D@2@@std@@XZ ENDP ; Ogre::Exception::getFile
; Function compile flags: /Odtp
_TEXT	ENDS
;	COMDAT ?getLine@Exception@Ogre@@UBEJXZ
_TEXT	SEGMENT
_this$ = -4						; size = 4
?getLine@Exception@Ogre@@UBEJXZ PROC			; Ogre::Exception::getLine, COMDAT
; _this$ = ecx

; 159  : 		virtual long getLine() const { return line; }

	push	ebp
	mov	ebp, esp
	push	ecx
	mov	DWORD PTR _this$[ebp], ecx
	mov	eax, DWORD PTR _this$[ebp]
	mov	eax, DWORD PTR [eax+12]
	mov	esp, ebp
	pop	ebp
	ret	0
?getLine@Exception@Ogre@@UBEJXZ ENDP			; Ogre::Exception::getLine
; Function compile flags: /Odtp
_TEXT	ENDS
;	COMDAT ?getDescription@Exception@Ogre@@UBEABV?$basic_string@DU?$char_traits@D@std@@V?$allocator@D@2@@std@@XZ
_TEXT	SEGMENT
_this$ = -4						; size = 4
?getDescription@Exception@Ogre@@UBEABV?$basic_string@DU?$char_traits@D@std@@V?$allocator@D@2@@std@@XZ PROC ; Ogre::Exception::getDescription, COMDAT
; _this$ = ecx

; 165  : 		virtual const String &getDescription(void) const { return description; }

	push	ebp
	mov	ebp, esp
	push	ecx
	mov	DWORD PTR _this$[ebp], ecx
	mov	eax, DWORD PTR _this$[ebp]
	add	eax, 48					; 00000030H
	mov	esp, ebp
	pop	ebp
	ret	0
?getDescription@Exception@Ogre@@UBEABV?$basic_string@DU?$char_traits@D@std@@V?$allocator@D@2@@std@@XZ ENDP ; Ogre::Exception::getDescription
_TEXT	ENDS
EXTRN	__imp_?c_str@?$basic_string@DU?$char_traits@D@std@@V?$allocator@D@2@@std@@QBEPBDXZ:PROC
; Function compile flags: /Odtp
;	COMDAT ?what@Exception@Ogre@@UBEPBDXZ
_TEXT	SEGMENT
_this$ = -4						; size = 4
?what@Exception@Ogre@@UBEPBDXZ PROC			; Ogre::Exception::what, COMDAT
; _this$ = ecx

; 168  : 		const char* what() const throw() { return getFullDescription().c_str(); }

	push	ebp
	mov	ebp, esp
	push	ecx
	mov	DWORD PTR _this$[ebp], ecx
	mov	eax, DWORD PTR _this$[ebp]
	mov	edx, DWORD PTR [eax]
	mov	ecx, DWORD PTR _this$[ebp]
	mov	eax, DWORD PTR [edx+8]
	call	eax
	mov	ecx, eax
	call	DWORD PTR __imp_?c_str@?$basic_string@DU?$char_traits@D@std@@V?$allocator@D@2@@std@@QBEPBDXZ
	mov	esp, ebp
	pop	ebp
	ret	0
?what@Exception@Ogre@@UBEPBDXZ ENDP			; Ogre::Exception::what
_TEXT	ENDS
PUBLIC	??_GException@Ogre@@UAEPAXI@Z			; Ogre::Exception::`scalar deleting destructor'
; Function compile flags: /Odtp
;	COMDAT ??_GException@Ogre@@UAEPAXI@Z
_TEXT	SEGMENT
_this$ = -4						; size = 4
___flags$ = 8						; size = 4
??_GException@Ogre@@UAEPAXI@Z PROC			; Ogre::Exception::`scalar deleting destructor', COMDAT
; _this$ = ecx
	push	ebp
	mov	ebp, esp
	push	ecx
	mov	DWORD PTR _this$[ebp], ecx
	mov	ecx, DWORD PTR _this$[ebp]
	call	??1Exception@Ogre@@UAE@XZ		; Ogre::Exception::~Exception
	mov	eax, DWORD PTR ___flags$[ebp]
	and	eax, 1
	je	SHORT $LN1@scalar@10
	mov	ecx, DWORD PTR _this$[ebp]
	push	ecx
	call	??3@YAXPAX@Z				; operator delete
	add	esp, 4
$LN1@scalar@10:
	mov	eax, DWORD PTR _this$[ebp]
	mov	esp, ebp
	pop	ebp
	ret	4
??_GException@Ogre@@UAEPAXI@Z ENDP			; Ogre::Exception::`scalar deleting destructor'
; Function compile flags: /Odtp
_TEXT	ENDS
;	COMDAT ??_EException@Ogre@@UAEPAXI@Z
_TEXT	SEGMENT
_this$ = -4						; size = 4
___flags$ = 8						; size = 4
??_EException@Ogre@@UAEPAXI@Z PROC			; Ogre::Exception::`vector deleting destructor', COMDAT
; _this$ = ecx
	push	ebp
	mov	ebp, esp
	push	ecx
	mov	DWORD PTR _this$[ebp], ecx
	mov	eax, DWORD PTR ___flags$[ebp]
	and	eax, 2
	je	SHORT $LN3@vector@10
	push	OFFSET ??1Exception@Ogre@@UAE@XZ	; Ogre::Exception::~Exception
	mov	ecx, DWORD PTR _this$[ebp]
	mov	edx, DWORD PTR [ecx-4]
	push	edx
	push	160					; 000000a0H
	mov	eax, DWORD PTR _this$[ebp]
	push	eax
	call	??_M@YGXPAXIHP6EX0@Z@Z
	mov	ecx, DWORD PTR ___flags$[ebp]
	and	ecx, 1
	je	SHORT $LN2@vector@10
	mov	edx, DWORD PTR _this$[ebp]
	sub	edx, 4
	push	edx
	call	??_V@YAXPAX@Z				; operator delete[]
	add	esp, 4
$LN2@vector@10:
	mov	eax, DWORD PTR _this$[ebp]
	sub	eax, 4
	jmp	SHORT $LN4@vector@10
$LN3@vector@10:
	mov	ecx, DWORD PTR _this$[ebp]
	call	??1Exception@Ogre@@UAE@XZ		; Ogre::Exception::~Exception
	mov	eax, DWORD PTR ___flags$[ebp]
	and	eax, 1
	je	SHORT $LN1@vector@10
	mov	ecx, DWORD PTR _this$[ebp]
	push	ecx
	call	??3@YAXPAX@Z				; operator delete
	add	esp, 4
$LN1@vector@10:
	mov	eax, DWORD PTR _this$[ebp]
$LN4@vector@10:
	mov	esp, ebp
	pop	ebp
	ret	4
??_EException@Ogre@@UAEPAXI@Z ENDP			; Ogre::Exception::`vector deleting destructor'
_TEXT	ENDS
PUBLIC	??_7UnimplementedException@Ogre@@6B@		; Ogre::UnimplementedException::`vftable'
PUBLIC	??_C@_0BH@LOKECLHE@UnimplementedException?$AA@	; `string'
PUBLIC	??0UnimplementedException@Ogre@@QAE@HABV?$basic_string@DU?$char_traits@D@std@@V?$allocator@D@2@@std@@0PBDJ@Z ; Ogre::UnimplementedException::UnimplementedException
PUBLIC	??_R4UnimplementedException@Ogre@@6B@		; Ogre::UnimplementedException::`RTTI Complete Object Locator'
PUBLIC	??_R0?AVUnimplementedException@Ogre@@@8		; Ogre::UnimplementedException `RTTI Type Descriptor'
PUBLIC	??_R3UnimplementedException@Ogre@@8		; Ogre::UnimplementedException::`RTTI Class Hierarchy Descriptor'
PUBLIC	??_R2UnimplementedException@Ogre@@8		; Ogre::UnimplementedException::`RTTI Base Class Array'
PUBLIC	??_R1A@?0A@EA@UnimplementedException@Ogre@@8	; Ogre::UnimplementedException::`RTTI Base Class Descriptor at (0,-1,0,64)'
PUBLIC	??_EUnimplementedException@Ogre@@UAEPAXI@Z	; Ogre::UnimplementedException::`vector deleting destructor'
EXTRN	??0Exception@Ogre@@QAE@HABV?$basic_string@DU?$char_traits@D@std@@V?$allocator@D@2@@std@@0PBD1J@Z:PROC ; Ogre::Exception::Exception
;	COMDAT ??_R1A@?0A@EA@UnimplementedException@Ogre@@8
rdata$r	SEGMENT
??_R1A@?0A@EA@UnimplementedException@Ogre@@8 DD FLAT:??_R0?AVUnimplementedException@Ogre@@@8 ; Ogre::UnimplementedException::`RTTI Base Class Descriptor at (0,-1,0,64)'
	DD	02H
	DD	00H
	DD	0ffffffffH
	DD	00H
	DD	040H
	DD	FLAT:??_R3UnimplementedException@Ogre@@8
rdata$r	ENDS
;	COMDAT ??_R2UnimplementedException@Ogre@@8
rdata$r	SEGMENT
??_R2UnimplementedException@Ogre@@8 DD FLAT:??_R1A@?0A@EA@UnimplementedException@Ogre@@8 ; Ogre::UnimplementedException::`RTTI Base Class Array'
	DD	FLAT:??_R1A@?0A@EA@Exception@Ogre@@8
	DD	FLAT:??_R1A@?0A@EA@exception@std@@8
rdata$r	ENDS
;	COMDAT ??_R3UnimplementedException@Ogre@@8
rdata$r	SEGMENT
??_R3UnimplementedException@Ogre@@8 DD 00H		; Ogre::UnimplementedException::`RTTI Class Hierarchy Descriptor'
	DD	00H
	DD	03H
	DD	FLAT:??_R2UnimplementedException@Ogre@@8
rdata$r	ENDS
;	COMDAT ??_R0?AVUnimplementedException@Ogre@@@8
_DATA	SEGMENT
??_R0?AVUnimplementedException@Ogre@@@8 DD FLAT:??_7type_info@@6B@ ; Ogre::UnimplementedException `RTTI Type Descriptor'
	DD	00H
	DB	'.?AVUnimplementedException@Ogre@@', 00H
_DATA	ENDS
;	COMDAT ??_R4UnimplementedException@Ogre@@6B@
rdata$r	SEGMENT
??_R4UnimplementedException@Ogre@@6B@ DD 00H		; Ogre::UnimplementedException::`RTTI Complete Object Locator'
	DD	00H
	DD	00H
	DD	FLAT:??_R0?AVUnimplementedException@Ogre@@@8
	DD	FLAT:??_R3UnimplementedException@Ogre@@8
rdata$r	ENDS
;	COMDAT ??_7UnimplementedException@Ogre@@6B@
CONST	SEGMENT
??_7UnimplementedException@Ogre@@6B@ DD FLAT:??_R4UnimplementedException@Ogre@@6B@ ; Ogre::UnimplementedException::`vftable'
	DD	FLAT:??_EUnimplementedException@Ogre@@UAEPAXI@Z
	DD	FLAT:?what@Exception@Ogre@@UBEPBDXZ
	DD	FLAT:?getFullDescription@Exception@Ogre@@UBEABV?$basic_string@DU?$char_traits@D@std@@V?$allocator@D@2@@std@@XZ
	DD	FLAT:?getNumber@Exception@Ogre@@UBEHXZ
	DD	FLAT:?getSource@Exception@Ogre@@UBEABV?$basic_string@DU?$char_traits@D@std@@V?$allocator@D@2@@std@@XZ
	DD	FLAT:?getFile@Exception@Ogre@@UBEABV?$basic_string@DU?$char_traits@D@std@@V?$allocator@D@2@@std@@XZ
	DD	FLAT:?getLine@Exception@Ogre@@UBEJXZ
	DD	FLAT:?getDescription@Exception@Ogre@@UBEABV?$basic_string@DU?$char_traits@D@std@@V?$allocator@D@2@@std@@XZ
CONST	ENDS
;	COMDAT ??_C@_0BH@LOKECLHE@UnimplementedException?$AA@
CONST	SEGMENT
??_C@_0BH@LOKECLHE@UnimplementedException?$AA@ DB 'UnimplementedException'
	DB	00H						; `string'
CONST	ENDS
;	COMDAT xdata$x
xdata$x	SEGMENT
__unwindtable$??0UnimplementedException@Ogre@@QAE@HABV?$basic_string@DU?$char_traits@D@std@@V?$allocator@D@2@@std@@0PBDJ@Z DD 0ffffffffH
	DD	FLAT:__unwindfunclet$??0UnimplementedException@Ogre@@QAE@HABV?$basic_string@DU?$char_traits@D@std@@V?$allocator@D@2@@std@@0PBDJ@Z$0
__ehfuncinfo$??0UnimplementedException@Ogre@@QAE@HABV?$basic_string@DU?$char_traits@D@std@@V?$allocator@D@2@@std@@0PBDJ@Z DD 019930522H
	DD	01H
	DD	FLAT:__unwindtable$??0UnimplementedException@Ogre@@QAE@HABV?$basic_string@DU?$char_traits@D@std@@V?$allocator@D@2@@std@@0PBDJ@Z
	DD	2 DUP(00H)
	DD	2 DUP(00H)
	DD	00H
	DD	00H
; Function compile flags: /Odtp
xdata$x	ENDS
;	COMDAT ??0UnimplementedException@Ogre@@QAE@HABV?$basic_string@DU?$char_traits@D@std@@V?$allocator@D@2@@std@@0PBDJ@Z
_TEXT	SEGMENT
_this$ = -16						; size = 4
__$EHRec$ = -12						; size = 12
_number$ = 8						; size = 4
_description$ = 12					; size = 4
_source$ = 16						; size = 4
_file$ = 20						; size = 4
_line$ = 24						; size = 4
??0UnimplementedException@Ogre@@QAE@HABV?$basic_string@DU?$char_traits@D@std@@V?$allocator@D@2@@std@@0PBDJ@Z PROC ; Ogre::UnimplementedException::UnimplementedException, COMDAT
; _this$ = ecx

; 191  : 		UnimplementedException(int number, const String& description, const String& source, const char* file, long line)

	push	ebp
	mov	ebp, esp
	push	-1
	push	__ehhandler$??0UnimplementedException@Ogre@@QAE@HABV?$basic_string@DU?$char_traits@D@std@@V?$allocator@D@2@@std@@0PBDJ@Z
	mov	eax, DWORD PTR fs:0
	push	eax
	push	ecx
	mov	eax, DWORD PTR ___security_cookie
	xor	eax, ebp
	push	eax
	lea	eax, DWORD PTR __$EHRec$[ebp]
	mov	DWORD PTR fs:0, eax
	mov	DWORD PTR _this$[ebp], ecx
	mov	eax, DWORD PTR _line$[ebp]
	push	eax
	mov	ecx, DWORD PTR _file$[ebp]
	push	ecx
	push	OFFSET ??_C@_0BH@LOKECLHE@UnimplementedException?$AA@
	mov	edx, DWORD PTR _source$[ebp]
	push	edx
	mov	eax, DWORD PTR _description$[ebp]
	push	eax
	mov	ecx, DWORD PTR _number$[ebp]
	push	ecx
	mov	ecx, DWORD PTR _this$[ebp]
	call	??0Exception@Ogre@@QAE@HABV?$basic_string@DU?$char_traits@D@std@@V?$allocator@D@2@@std@@0PBD1J@Z ; Ogre::Exception::Exception
	mov	DWORD PTR __$EHRec$[ebp+8], 0
	mov	edx, DWORD PTR _this$[ebp]
	mov	DWORD PTR [edx], OFFSET ??_7UnimplementedException@Ogre@@6B@
	mov	DWORD PTR __$EHRec$[ebp+8], -1
	mov	eax, DWORD PTR _this$[ebp]
	mov	ecx, DWORD PTR __$EHRec$[ebp]
	mov	DWORD PTR fs:0, ecx
	pop	ecx
	mov	esp, ebp
	pop	ebp
	ret	20					; 00000014H
_TEXT	ENDS
;	COMDAT text$x
text$x	SEGMENT
__unwindfunclet$??0UnimplementedException@Ogre@@QAE@HABV?$basic_string@DU?$char_traits@D@std@@V?$allocator@D@2@@std@@0PBDJ@Z$0:
	mov	ecx, DWORD PTR _this$[ebp]
	jmp	??1Exception@Ogre@@UAE@XZ		; Ogre::Exception::~Exception
__ehhandler$??0UnimplementedException@Ogre@@QAE@HABV?$basic_string@DU?$char_traits@D@std@@V?$allocator@D@2@@std@@0PBDJ@Z:
	mov	edx, DWORD PTR [esp+8]
	lea	eax, DWORD PTR [edx+12]
	mov	ecx, DWORD PTR [edx-8]
	xor	ecx, eax
	call	@__security_check_cookie@4
	mov	eax, OFFSET __ehfuncinfo$??0UnimplementedException@Ogre@@QAE@HABV?$basic_string@DU?$char_traits@D@std@@V?$allocator@D@2@@std@@0PBDJ@Z
	jmp	___CxxFrameHandler3
text$x	ENDS
??0UnimplementedException@Ogre@@QAE@HABV?$basic_string@DU?$char_traits@D@std@@V?$allocator@D@2@@std@@0PBDJ@Z ENDP ; Ogre::UnimplementedException::UnimplementedException
PUBLIC	??1UnimplementedException@Ogre@@UAE@XZ		; Ogre::UnimplementedException::~UnimplementedException
;	COMDAT xdata$x
xdata$x	SEGMENT
__unwindtable$??1UnimplementedException@Ogre@@UAE@XZ DD 0ffffffffH
	DD	FLAT:__unwindfunclet$??1UnimplementedException@Ogre@@UAE@XZ$0
__ehfuncinfo$??1UnimplementedException@Ogre@@UAE@XZ DD 019930522H
	DD	01H
	DD	FLAT:__unwindtable$??1UnimplementedException@Ogre@@UAE@XZ
	DD	2 DUP(00H)
	DD	2 DUP(00H)
	DD	00H
	DD	00H
; Function compile flags: /Odtp
xdata$x	ENDS
;	COMDAT ??1UnimplementedException@Ogre@@UAE@XZ
_TEXT	SEGMENT
_this$ = -16						; size = 4
__$EHRec$ = -12						; size = 12
??1UnimplementedException@Ogre@@UAE@XZ PROC		; Ogre::UnimplementedException::~UnimplementedException, COMDAT
; _this$ = ecx
	push	ebp
	mov	ebp, esp
	push	-1
	push	__ehhandler$??1UnimplementedException@Ogre@@UAE@XZ
	mov	eax, DWORD PTR fs:0
	push	eax
	push	ecx
	mov	eax, DWORD PTR ___security_cookie
	xor	eax, ebp
	push	eax
	lea	eax, DWORD PTR __$EHRec$[ebp]
	mov	DWORD PTR fs:0, eax
	mov	DWORD PTR _this$[ebp], ecx
	mov	DWORD PTR __$EHRec$[ebp+8], 0
	mov	DWORD PTR __$EHRec$[ebp+8], -1
	mov	ecx, DWORD PTR _this$[ebp]
	call	??1Exception@Ogre@@UAE@XZ		; Ogre::Exception::~Exception
	mov	ecx, DWORD PTR __$EHRec$[ebp]
	mov	DWORD PTR fs:0, ecx
	pop	ecx
	mov	esp, ebp
	pop	ebp
	ret	0
_TEXT	ENDS
;	COMDAT text$x
text$x	SEGMENT
__unwindfunclet$??1UnimplementedException@Ogre@@UAE@XZ$0:
	mov	ecx, DWORD PTR _this$[ebp]
	jmp	??1Exception@Ogre@@UAE@XZ		; Ogre::Exception::~Exception
__ehhandler$??1UnimplementedException@Ogre@@UAE@XZ:
	mov	edx, DWORD PTR [esp+8]
	lea	eax, DWORD PTR [edx+12]
	mov	ecx, DWORD PTR [edx-8]
	xor	ecx, eax
	call	@__security_check_cookie@4
	mov	eax, OFFSET __ehfuncinfo$??1UnimplementedException@Ogre@@UAE@XZ
	jmp	___CxxFrameHandler3
text$x	ENDS
??1UnimplementedException@Ogre@@UAE@XZ ENDP		; Ogre::UnimplementedException::~UnimplementedException
PUBLIC	??0UnimplementedException@Ogre@@QAE@ABV01@@Z	; Ogre::UnimplementedException::UnimplementedException
EXTRN	??0Exception@Ogre@@QAE@ABV01@@Z:PROC		; Ogre::Exception::Exception
;	COMDAT xdata$x
xdata$x	SEGMENT
__unwindtable$??0UnimplementedException@Ogre@@QAE@ABV01@@Z DD 0ffffffffH
	DD	FLAT:__unwindfunclet$??0UnimplementedException@Ogre@@QAE@ABV01@@Z$0
__ehfuncinfo$??0UnimplementedException@Ogre@@QAE@ABV01@@Z DD 019930522H
	DD	01H
	DD	FLAT:__unwindtable$??0UnimplementedException@Ogre@@QAE@ABV01@@Z
	DD	2 DUP(00H)
	DD	2 DUP(00H)
	DD	00H
	DD	00H
; Function compile flags: /Odtp
xdata$x	ENDS
;	COMDAT ??0UnimplementedException@Ogre@@QAE@ABV01@@Z
_TEXT	SEGMENT
_this$ = -16						; size = 4
__$EHRec$ = -12						; size = 12
___that$ = 8						; size = 4
??0UnimplementedException@Ogre@@QAE@ABV01@@Z PROC	; Ogre::UnimplementedException::UnimplementedException, COMDAT
; _this$ = ecx
	push	ebp
	mov	ebp, esp
	push	-1
	push	__ehhandler$??0UnimplementedException@Ogre@@QAE@ABV01@@Z
	mov	eax, DWORD PTR fs:0
	push	eax
	push	ecx
	mov	eax, DWORD PTR ___security_cookie
	xor	eax, ebp
	push	eax
	lea	eax, DWORD PTR __$EHRec$[ebp]
	mov	DWORD PTR fs:0, eax
	mov	DWORD PTR _this$[ebp], ecx
	mov	eax, DWORD PTR ___that$[ebp]
	push	eax
	mov	ecx, DWORD PTR _this$[ebp]
	call	??0Exception@Ogre@@QAE@ABV01@@Z		; Ogre::Exception::Exception
	mov	DWORD PTR __$EHRec$[ebp+8], 0
	mov	ecx, DWORD PTR _this$[ebp]
	mov	DWORD PTR [ecx], OFFSET ??_7UnimplementedException@Ogre@@6B@
	mov	DWORD PTR __$EHRec$[ebp+8], -1
	mov	eax, DWORD PTR _this$[ebp]
	mov	ecx, DWORD PTR __$EHRec$[ebp]
	mov	DWORD PTR fs:0, ecx
	pop	ecx
	mov	esp, ebp
	pop	ebp
	ret	4
_TEXT	ENDS
;	COMDAT text$x
text$x	SEGMENT
__unwindfunclet$??0UnimplementedException@Ogre@@QAE@ABV01@@Z$0:
	mov	ecx, DWORD PTR _this$[ebp]
	jmp	??1Exception@Ogre@@UAE@XZ		; Ogre::Exception::~Exception
__ehhandler$??0UnimplementedException@Ogre@@QAE@ABV01@@Z:
	mov	edx, DWORD PTR [esp+8]
	lea	eax, DWORD PTR [edx+12]
	mov	ecx, DWORD PTR [edx-8]
	xor	ecx, eax
	call	@__security_check_cookie@4
	mov	eax, OFFSET __ehfuncinfo$??0UnimplementedException@Ogre@@QAE@ABV01@@Z
	jmp	___CxxFrameHandler3
text$x	ENDS
??0UnimplementedException@Ogre@@QAE@ABV01@@Z ENDP	; Ogre::UnimplementedException::UnimplementedException
PUBLIC	??4UnimplementedException@Ogre@@QAEAAV01@ABV01@@Z ; Ogre::UnimplementedException::operator=
EXTRN	??4Exception@Ogre@@QAEXABV01@@Z:PROC		; Ogre::Exception::operator=
; Function compile flags: /Odtp
;	COMDAT ??4UnimplementedException@Ogre@@QAEAAV01@ABV01@@Z
_TEXT	SEGMENT
_this$ = -4						; size = 4
___that$ = 8						; size = 4
??4UnimplementedException@Ogre@@QAEAAV01@ABV01@@Z PROC	; Ogre::UnimplementedException::operator=, COMDAT
; _this$ = ecx
	push	ebp
	mov	ebp, esp
	push	ecx
	mov	DWORD PTR _this$[ebp], ecx
	mov	eax, DWORD PTR ___that$[ebp]
	push	eax
	mov	ecx, DWORD PTR _this$[ebp]
	call	??4Exception@Ogre@@QAEXABV01@@Z		; Ogre::Exception::operator=
	mov	eax, DWORD PTR _this$[ebp]
	mov	esp, ebp
	pop	ebp
	ret	4
??4UnimplementedException@Ogre@@QAEAAV01@ABV01@@Z ENDP	; Ogre::UnimplementedException::operator=
_TEXT	ENDS
PUBLIC	??_GUnimplementedException@Ogre@@UAEPAXI@Z	; Ogre::UnimplementedException::`scalar deleting destructor'
; Function compile flags: /Odtp
;	COMDAT ??_GUnimplementedException@Ogre@@UAEPAXI@Z
_TEXT	SEGMENT
_this$ = -4						; size = 4
___flags$ = 8						; size = 4
??_GUnimplementedException@Ogre@@UAEPAXI@Z PROC		; Ogre::UnimplementedException::`scalar deleting destructor', COMDAT
; _this$ = ecx
	push	ebp
	mov	ebp, esp
	push	ecx
	mov	DWORD PTR _this$[ebp], ecx
	mov	ecx, DWORD PTR _this$[ebp]
	call	??1UnimplementedException@Ogre@@UAE@XZ
	mov	eax, DWORD PTR ___flags$[ebp]
	and	eax, 1
	je	SHORT $LN1@scalar@11
	mov	ecx, DWORD PTR _this$[ebp]
	push	ecx
	call	??3@YAXPAX@Z				; operator delete
	add	esp, 4
$LN1@scalar@11:
	mov	eax, DWORD PTR _this$[ebp]
	mov	esp, ebp
	pop	ebp
	ret	4
??_GUnimplementedException@Ogre@@UAEPAXI@Z ENDP		; Ogre::UnimplementedException::`scalar deleting destructor'
; Function compile flags: /Odtp
_TEXT	ENDS
;	COMDAT ??_EUnimplementedException@Ogre@@UAEPAXI@Z
_TEXT	SEGMENT
_this$ = -4						; size = 4
___flags$ = 8						; size = 4
??_EUnimplementedException@Ogre@@UAEPAXI@Z PROC		; Ogre::UnimplementedException::`vector deleting destructor', COMDAT
; _this$ = ecx
	push	ebp
	mov	ebp, esp
	push	ecx
	mov	DWORD PTR _this$[ebp], ecx
	mov	eax, DWORD PTR ___flags$[ebp]
	and	eax, 2
	je	SHORT $LN3@vector@11
	push	OFFSET ??1UnimplementedException@Ogre@@UAE@XZ
	mov	ecx, DWORD PTR _this$[ebp]
	mov	edx, DWORD PTR [ecx-4]
	push	edx
	push	160					; 000000a0H
	mov	eax, DWORD PTR _this$[ebp]
	push	eax
	call	??_M@YGXPAXIHP6EX0@Z@Z
	mov	ecx, DWORD PTR ___flags$[ebp]
	and	ecx, 1
	je	SHORT $LN2@vector@11
	mov	edx, DWORD PTR _this$[ebp]
	sub	edx, 4
	push	edx
	call	??_V@YAXPAX@Z				; operator delete[]
	add	esp, 4
$LN2@vector@11:
	mov	eax, DWORD PTR _this$[ebp]
	sub	eax, 4
	jmp	SHORT $LN4@vector@11
$LN3@vector@11:
	mov	ecx, DWORD PTR _this$[ebp]
	call	??1UnimplementedException@Ogre@@UAE@XZ
	mov	eax, DWORD PTR ___flags$[ebp]
	and	eax, 1
	je	SHORT $LN1@vector@11
	mov	ecx, DWORD PTR _this$[ebp]
	push	ecx
	call	??3@YAXPAX@Z				; operator delete
	add	esp, 4
$LN1@vector@11:
	mov	eax, DWORD PTR _this$[ebp]
$LN4@vector@11:
	mov	esp, ebp
	pop	ebp
	ret	4
??_EUnimplementedException@Ogre@@UAEPAXI@Z ENDP		; Ogre::UnimplementedException::`vector deleting destructor'
_TEXT	ENDS
PUBLIC	??_7FileNotFoundException@Ogre@@6B@		; Ogre::FileNotFoundException::`vftable'
PUBLIC	??_C@_0BG@HLJIKHGO@FileNotFoundException?$AA@	; `string'
PUBLIC	??0FileNotFoundException@Ogre@@QAE@HABV?$basic_string@DU?$char_traits@D@std@@V?$allocator@D@2@@std@@0PBDJ@Z ; Ogre::FileNotFoundException::FileNotFoundException
PUBLIC	??_R4FileNotFoundException@Ogre@@6B@		; Ogre::FileNotFoundException::`RTTI Complete Object Locator'
PUBLIC	??_R0?AVFileNotFoundException@Ogre@@@8		; Ogre::FileNotFoundException `RTTI Type Descriptor'
PUBLIC	??_R3FileNotFoundException@Ogre@@8		; Ogre::FileNotFoundException::`RTTI Class Hierarchy Descriptor'
PUBLIC	??_R2FileNotFoundException@Ogre@@8		; Ogre::FileNotFoundException::`RTTI Base Class Array'
PUBLIC	??_R1A@?0A@EA@FileNotFoundException@Ogre@@8	; Ogre::FileNotFoundException::`RTTI Base Class Descriptor at (0,-1,0,64)'
PUBLIC	??_EFileNotFoundException@Ogre@@UAEPAXI@Z	; Ogre::FileNotFoundException::`vector deleting destructor'
;	COMDAT ??_R1A@?0A@EA@FileNotFoundException@Ogre@@8
rdata$r	SEGMENT
??_R1A@?0A@EA@FileNotFoundException@Ogre@@8 DD FLAT:??_R0?AVFileNotFoundException@Ogre@@@8 ; Ogre::FileNotFoundException::`RTTI Base Class Descriptor at (0,-1,0,64)'
	DD	02H
	DD	00H
	DD	0ffffffffH
	DD	00H
	DD	040H
	DD	FLAT:??_R3FileNotFoundException@Ogre@@8
rdata$r	ENDS
;	COMDAT ??_R2FileNotFoundException@Ogre@@8
rdata$r	SEGMENT
??_R2FileNotFoundException@Ogre@@8 DD FLAT:??_R1A@?0A@EA@FileNotFoundException@Ogre@@8 ; Ogre::FileNotFoundException::`RTTI Base Class Array'
	DD	FLAT:??_R1A@?0A@EA@Exception@Ogre@@8
	DD	FLAT:??_R1A@?0A@EA@exception@std@@8
rdata$r	ENDS
;	COMDAT ??_R3FileNotFoundException@Ogre@@8
rdata$r	SEGMENT
??_R3FileNotFoundException@Ogre@@8 DD 00H		; Ogre::FileNotFoundException::`RTTI Class Hierarchy Descriptor'
	DD	00H
	DD	03H
	DD	FLAT:??_R2FileNotFoundException@Ogre@@8
rdata$r	ENDS
;	COMDAT ??_R0?AVFileNotFoundException@Ogre@@@8
_DATA	SEGMENT
??_R0?AVFileNotFoundException@Ogre@@@8 DD FLAT:??_7type_info@@6B@ ; Ogre::FileNotFoundException `RTTI Type Descriptor'
	DD	00H
	DB	'.?AVFileNotFoundException@Ogre@@', 00H
_DATA	ENDS
;	COMDAT ??_R4FileNotFoundException@Ogre@@6B@
rdata$r	SEGMENT
??_R4FileNotFoundException@Ogre@@6B@ DD 00H		; Ogre::FileNotFoundException::`RTTI Complete Object Locator'
	DD	00H
	DD	00H
	DD	FLAT:??_R0?AVFileNotFoundException@Ogre@@@8
	DD	FLAT:??_R3FileNotFoundException@Ogre@@8
rdata$r	ENDS
;	COMDAT ??_7FileNotFoundException@Ogre@@6B@
CONST	SEGMENT
??_7FileNotFoundException@Ogre@@6B@ DD FLAT:??_R4FileNotFoundException@Ogre@@6B@ ; Ogre::FileNotFoundException::`vftable'
	DD	FLAT:??_EFileNotFoundException@Ogre@@UAEPAXI@Z
	DD	FLAT:?what@Exception@Ogre@@UBEPBDXZ
	DD	FLAT:?getFullDescription@Exception@Ogre@@UBEABV?$basic_string@DU?$char_traits@D@std@@V?$allocator@D@2@@std@@XZ
	DD	FLAT:?getNumber@Exception@Ogre@@UBEHXZ
	DD	FLAT:?getSource@Exception@Ogre@@UBEABV?$basic_string@DU?$char_traits@D@std@@V?$allocator@D@2@@std@@XZ
	DD	FLAT:?getFile@Exception@Ogre@@UBEABV?$basic_string@DU?$char_traits@D@std@@V?$allocator@D@2@@std@@XZ
	DD	FLAT:?getLine@Exception@Ogre@@UBEJXZ
	DD	FLAT:?getDescription@Exception@Ogre@@UBEABV?$basic_string@DU?$char_traits@D@std@@V?$allocator@D@2@@std@@XZ
CONST	ENDS
;	COMDAT ??_C@_0BG@HLJIKHGO@FileNotFoundException?$AA@
CONST	SEGMENT
??_C@_0BG@HLJIKHGO@FileNotFoundException?$AA@ DB 'FileNotFoundException', 00H ; `string'
CONST	ENDS
;	COMDAT xdata$x
xdata$x	SEGMENT
__unwindtable$??0FileNotFoundException@Ogre@@QAE@HABV?$basic_string@DU?$char_traits@D@std@@V?$allocator@D@2@@std@@0PBDJ@Z DD 0ffffffffH
	DD	FLAT:__unwindfunclet$??0FileNotFoundException@Ogre@@QAE@HABV?$basic_string@DU?$char_traits@D@std@@V?$allocator@D@2@@std@@0PBDJ@Z$0
__ehfuncinfo$??0FileNotFoundException@Ogre@@QAE@HABV?$basic_string@DU?$char_traits@D@std@@V?$allocator@D@2@@std@@0PBDJ@Z DD 019930522H
	DD	01H
	DD	FLAT:__unwindtable$??0FileNotFoundException@Ogre@@QAE@HABV?$basic_string@DU?$char_traits@D@std@@V?$allocator@D@2@@std@@0PBDJ@Z
	DD	2 DUP(00H)
	DD	2 DUP(00H)
	DD	00H
	DD	00H
; Function compile flags: /Odtp
xdata$x	ENDS
;	COMDAT ??0FileNotFoundException@Ogre@@QAE@HABV?$basic_string@DU?$char_traits@D@std@@V?$allocator@D@2@@std@@0PBDJ@Z
_TEXT	SEGMENT
_this$ = -16						; size = 4
__$EHRec$ = -12						; size = 12
_number$ = 8						; size = 4
_description$ = 12					; size = 4
_source$ = 16						; size = 4
_file$ = 20						; size = 4
_line$ = 24						; size = 4
??0FileNotFoundException@Ogre@@QAE@HABV?$basic_string@DU?$char_traits@D@std@@V?$allocator@D@2@@std@@0PBDJ@Z PROC ; Ogre::FileNotFoundException::FileNotFoundException, COMDAT
; _this$ = ecx

; 197  : 		FileNotFoundException(int number, const String& description, const String& source, const char* file, long line)

	push	ebp
	mov	ebp, esp
	push	-1
	push	__ehhandler$??0FileNotFoundException@Ogre@@QAE@HABV?$basic_string@DU?$char_traits@D@std@@V?$allocator@D@2@@std@@0PBDJ@Z
	mov	eax, DWORD PTR fs:0
	push	eax
	push	ecx
	mov	eax, DWORD PTR ___security_cookie
	xor	eax, ebp
	push	eax
	lea	eax, DWORD PTR __$EHRec$[ebp]
	mov	DWORD PTR fs:0, eax
	mov	DWORD PTR _this$[ebp], ecx
	mov	eax, DWORD PTR _line$[ebp]
	push	eax
	mov	ecx, DWORD PTR _file$[ebp]
	push	ecx
	push	OFFSET ??_C@_0BG@HLJIKHGO@FileNotFoundException?$AA@
	mov	edx, DWORD PTR _source$[ebp]
	push	edx
	mov	eax, DWORD PTR _description$[ebp]
	push	eax
	mov	ecx, DWORD PTR _number$[ebp]
	push	ecx
	mov	ecx, DWORD PTR _this$[ebp]
	call	??0Exception@Ogre@@QAE@HABV?$basic_string@DU?$char_traits@D@std@@V?$allocator@D@2@@std@@0PBD1J@Z ; Ogre::Exception::Exception
	mov	DWORD PTR __$EHRec$[ebp+8], 0
	mov	edx, DWORD PTR _this$[ebp]
	mov	DWORD PTR [edx], OFFSET ??_7FileNotFoundException@Ogre@@6B@
	mov	DWORD PTR __$EHRec$[ebp+8], -1
	mov	eax, DWORD PTR _this$[ebp]
	mov	ecx, DWORD PTR __$EHRec$[ebp]
	mov	DWORD PTR fs:0, ecx
	pop	ecx
	mov	esp, ebp
	pop	ebp
	ret	20					; 00000014H
_TEXT	ENDS
;	COMDAT text$x
text$x	SEGMENT
__unwindfunclet$??0FileNotFoundException@Ogre@@QAE@HABV?$basic_string@DU?$char_traits@D@std@@V?$allocator@D@2@@std@@0PBDJ@Z$0:
	mov	ecx, DWORD PTR _this$[ebp]
	jmp	??1Exception@Ogre@@UAE@XZ		; Ogre::Exception::~Exception
__ehhandler$??0FileNotFoundException@Ogre@@QAE@HABV?$basic_string@DU?$char_traits@D@std@@V?$allocator@D@2@@std@@0PBDJ@Z:
	mov	edx, DWORD PTR [esp+8]
	lea	eax, DWORD PTR [edx+12]
	mov	ecx, DWORD PTR [edx-8]
	xor	ecx, eax
	call	@__security_check_cookie@4
	mov	eax, OFFSET __ehfuncinfo$??0FileNotFoundException@Ogre@@QAE@HABV?$basic_string@DU?$char_traits@D@std@@V?$allocator@D@2@@std@@0PBDJ@Z
	jmp	___CxxFrameHandler3
text$x	ENDS
??0FileNotFoundException@Ogre@@QAE@HABV?$basic_string@DU?$char_traits@D@std@@V?$allocator@D@2@@std@@0PBDJ@Z ENDP ; Ogre::FileNotFoundException::FileNotFoundException
PUBLIC	??1FileNotFoundException@Ogre@@UAE@XZ		; Ogre::FileNotFoundException::~FileNotFoundException
;	COMDAT xdata$x
xdata$x	SEGMENT
__unwindtable$??1FileNotFoundException@Ogre@@UAE@XZ DD 0ffffffffH
	DD	FLAT:__unwindfunclet$??1FileNotFoundException@Ogre@@UAE@XZ$0
__ehfuncinfo$??1FileNotFoundException@Ogre@@UAE@XZ DD 019930522H
	DD	01H
	DD	FLAT:__unwindtable$??1FileNotFoundException@Ogre@@UAE@XZ
	DD	2 DUP(00H)
	DD	2 DUP(00H)
	DD	00H
	DD	00H
; Function compile flags: /Odtp
xdata$x	ENDS
;	COMDAT ??1FileNotFoundException@Ogre@@UAE@XZ
_TEXT	SEGMENT
_this$ = -16						; size = 4
__$EHRec$ = -12						; size = 12
??1FileNotFoundException@Ogre@@UAE@XZ PROC		; Ogre::FileNotFoundException::~FileNotFoundException, COMDAT
; _this$ = ecx
	push	ebp
	mov	ebp, esp
	push	-1
	push	__ehhandler$??1FileNotFoundException@Ogre@@UAE@XZ
	mov	eax, DWORD PTR fs:0
	push	eax
	push	ecx
	mov	eax, DWORD PTR ___security_cookie
	xor	eax, ebp
	push	eax
	lea	eax, DWORD PTR __$EHRec$[ebp]
	mov	DWORD PTR fs:0, eax
	mov	DWORD PTR _this$[ebp], ecx
	mov	DWORD PTR __$EHRec$[ebp+8], 0
	mov	DWORD PTR __$EHRec$[ebp+8], -1
	mov	ecx, DWORD PTR _this$[ebp]
	call	??1Exception@Ogre@@UAE@XZ		; Ogre::Exception::~Exception
	mov	ecx, DWORD PTR __$EHRec$[ebp]
	mov	DWORD PTR fs:0, ecx
	pop	ecx
	mov	esp, ebp
	pop	ebp
	ret	0
_TEXT	ENDS
;	COMDAT text$x
text$x	SEGMENT
__unwindfunclet$??1FileNotFoundException@Ogre@@UAE@XZ$0:
	mov	ecx, DWORD PTR _this$[ebp]
	jmp	??1Exception@Ogre@@UAE@XZ		; Ogre::Exception::~Exception
__ehhandler$??1FileNotFoundException@Ogre@@UAE@XZ:
	mov	edx, DWORD PTR [esp+8]
	lea	eax, DWORD PTR [edx+12]
	mov	ecx, DWORD PTR [edx-8]
	xor	ecx, eax
	call	@__security_check_cookie@4
	mov	eax, OFFSET __ehfuncinfo$??1FileNotFoundException@Ogre@@UAE@XZ
	jmp	___CxxFrameHandler3
text$x	ENDS
??1FileNotFoundException@Ogre@@UAE@XZ ENDP		; Ogre::FileNotFoundException::~FileNotFoundException
PUBLIC	??0FileNotFoundException@Ogre@@QAE@ABV01@@Z	; Ogre::FileNotFoundException::FileNotFoundException
;	COMDAT xdata$x
xdata$x	SEGMENT
__unwindtable$??0FileNotFoundException@Ogre@@QAE@ABV01@@Z DD 0ffffffffH
	DD	FLAT:__unwindfunclet$??0FileNotFoundException@Ogre@@QAE@ABV01@@Z$0
__ehfuncinfo$??0FileNotFoundException@Ogre@@QAE@ABV01@@Z DD 019930522H
	DD	01H
	DD	FLAT:__unwindtable$??0FileNotFoundException@Ogre@@QAE@ABV01@@Z
	DD	2 DUP(00H)
	DD	2 DUP(00H)
	DD	00H
	DD	00H
; Function compile flags: /Odtp
xdata$x	ENDS
;	COMDAT ??0FileNotFoundException@Ogre@@QAE@ABV01@@Z
_TEXT	SEGMENT
_this$ = -16						; size = 4
__$EHRec$ = -12						; size = 12
___that$ = 8						; size = 4
??0FileNotFoundException@Ogre@@QAE@ABV01@@Z PROC	; Ogre::FileNotFoundException::FileNotFoundException, COMDAT
; _this$ = ecx
	push	ebp
	mov	ebp, esp
	push	-1
	push	__ehhandler$??0FileNotFoundException@Ogre@@QAE@ABV01@@Z
	mov	eax, DWORD PTR fs:0
	push	eax
	push	ecx
	mov	eax, DWORD PTR ___security_cookie
	xor	eax, ebp
	push	eax
	lea	eax, DWORD PTR __$EHRec$[ebp]
	mov	DWORD PTR fs:0, eax
	mov	DWORD PTR _this$[ebp], ecx
	mov	eax, DWORD PTR ___that$[ebp]
	push	eax
	mov	ecx, DWORD PTR _this$[ebp]
	call	??0Exception@Ogre@@QAE@ABV01@@Z		; Ogre::Exception::Exception
	mov	DWORD PTR __$EHRec$[ebp+8], 0
	mov	ecx, DWORD PTR _this$[ebp]
	mov	DWORD PTR [ecx], OFFSET ??_7FileNotFoundException@Ogre@@6B@
	mov	DWORD PTR __$EHRec$[ebp+8], -1
	mov	eax, DWORD PTR _this$[ebp]
	mov	ecx, DWORD PTR __$EHRec$[ebp]
	mov	DWORD PTR fs:0, ecx
	pop	ecx
	mov	esp, ebp
	pop	ebp
	ret	4
_TEXT	ENDS
;	COMDAT text$x
text$x	SEGMENT
__unwindfunclet$??0FileNotFoundException@Ogre@@QAE@ABV01@@Z$0:
	mov	ecx, DWORD PTR _this$[ebp]
	jmp	??1Exception@Ogre@@UAE@XZ		; Ogre::Exception::~Exception
__ehhandler$??0FileNotFoundException@Ogre@@QAE@ABV01@@Z:
	mov	edx, DWORD PTR [esp+8]
	lea	eax, DWORD PTR [edx+12]
	mov	ecx, DWORD PTR [edx-8]
	xor	ecx, eax
	call	@__security_check_cookie@4
	mov	eax, OFFSET __ehfuncinfo$??0FileNotFoundException@Ogre@@QAE@ABV01@@Z
	jmp	___CxxFrameHandler3
text$x	ENDS
??0FileNotFoundException@Ogre@@QAE@ABV01@@Z ENDP	; Ogre::FileNotFoundException::FileNotFoundException
PUBLIC	??4FileNotFoundException@Ogre@@QAEAAV01@ABV01@@Z ; Ogre::FileNotFoundException::operator=
; Function compile flags: /Odtp
;	COMDAT ??4FileNotFoundException@Ogre@@QAEAAV01@ABV01@@Z
_TEXT	SEGMENT
_this$ = -4						; size = 4
___that$ = 8						; size = 4
??4FileNotFoundException@Ogre@@QAEAAV01@ABV01@@Z PROC	; Ogre::FileNotFoundException::operator=, COMDAT
; _this$ = ecx
	push	ebp
	mov	ebp, esp
	push	ecx
	mov	DWORD PTR _this$[ebp], ecx
	mov	eax, DWORD PTR ___that$[ebp]
	push	eax
	mov	ecx, DWORD PTR _this$[ebp]
	call	??4Exception@Ogre@@QAEXABV01@@Z		; Ogre::Exception::operator=
	mov	eax, DWORD PTR _this$[ebp]
	mov	esp, ebp
	pop	ebp
	ret	4
??4FileNotFoundException@Ogre@@QAEAAV01@ABV01@@Z ENDP	; Ogre::FileNotFoundException::operator=
_TEXT	ENDS
PUBLIC	??_GFileNotFoundException@Ogre@@UAEPAXI@Z	; Ogre::FileNotFoundException::`scalar deleting destructor'
; Function compile flags: /Odtp
;	COMDAT ??_GFileNotFoundException@Ogre@@UAEPAXI@Z
_TEXT	SEGMENT
_this$ = -4						; size = 4
___flags$ = 8						; size = 4
??_GFileNotFoundException@Ogre@@UAEPAXI@Z PROC		; Ogre::FileNotFoundException::`scalar deleting destructor', COMDAT
; _this$ = ecx
	push	ebp
	mov	ebp, esp
	push	ecx
	mov	DWORD PTR _this$[ebp], ecx
	mov	ecx, DWORD PTR _this$[ebp]
	call	??1FileNotFoundException@Ogre@@UAE@XZ
	mov	eax, DWORD PTR ___flags$[ebp]
	and	eax, 1
	je	SHORT $LN1@scalar@12
	mov	ecx, DWORD PTR _this$[ebp]
	push	ecx
	call	??3@YAXPAX@Z				; operator delete
	add	esp, 4
$LN1@scalar@12:
	mov	eax, DWORD PTR _this$[ebp]
	mov	esp, ebp
	pop	ebp
	ret	4
??_GFileNotFoundException@Ogre@@UAEPAXI@Z ENDP		; Ogre::FileNotFoundException::`scalar deleting destructor'
; Function compile flags: /Odtp
_TEXT	ENDS
;	COMDAT ??_EFileNotFoundException@Ogre@@UAEPAXI@Z
_TEXT	SEGMENT
_this$ = -4						; size = 4
___flags$ = 8						; size = 4
??_EFileNotFoundException@Ogre@@UAEPAXI@Z PROC		; Ogre::FileNotFoundException::`vector deleting destructor', COMDAT
; _this$ = ecx
	push	ebp
	mov	ebp, esp
	push	ecx
	mov	DWORD PTR _this$[ebp], ecx
	mov	eax, DWORD PTR ___flags$[ebp]
	and	eax, 2
	je	SHORT $LN3@vector@12
	push	OFFSET ??1FileNotFoundException@Ogre@@UAE@XZ
	mov	ecx, DWORD PTR _this$[ebp]
	mov	edx, DWORD PTR [ecx-4]
	push	edx
	push	160					; 000000a0H
	mov	eax, DWORD PTR _this$[ebp]
	push	eax
	call	??_M@YGXPAXIHP6EX0@Z@Z
	mov	ecx, DWORD PTR ___flags$[ebp]
	and	ecx, 1
	je	SHORT $LN2@vector@12
	mov	edx, DWORD PTR _this$[ebp]
	sub	edx, 4
	push	edx
	call	??_V@YAXPAX@Z				; operator delete[]
	add	esp, 4
$LN2@vector@12:
	mov	eax, DWORD PTR _this$[ebp]
	sub	eax, 4
	jmp	SHORT $LN4@vector@12
$LN3@vector@12:
	mov	ecx, DWORD PTR _this$[ebp]
	call	??1FileNotFoundException@Ogre@@UAE@XZ
	mov	eax, DWORD PTR ___flags$[ebp]
	and	eax, 1
	je	SHORT $LN1@vector@12
	mov	ecx, DWORD PTR _this$[ebp]
	push	ecx
	call	??3@YAXPAX@Z				; operator delete
	add	esp, 4
$LN1@vector@12:
	mov	eax, DWORD PTR _this$[ebp]
$LN4@vector@12:
	mov	esp, ebp
	pop	ebp
	ret	4
??_EFileNotFoundException@Ogre@@UAEPAXI@Z ENDP		; Ogre::FileNotFoundException::`vector deleting destructor'
_TEXT	ENDS
PUBLIC	??_7IOException@Ogre@@6B@			; Ogre::IOException::`vftable'
PUBLIC	??_C@_0M@CBPJAJJI@IOException?$AA@		; `string'
PUBLIC	??0IOException@Ogre@@QAE@HABV?$basic_string@DU?$char_traits@D@std@@V?$allocator@D@2@@std@@0PBDJ@Z ; Ogre::IOException::IOException
PUBLIC	??_R4IOException@Ogre@@6B@			; Ogre::IOException::`RTTI Complete Object Locator'
PUBLIC	??_R0?AVIOException@Ogre@@@8			; Ogre::IOException `RTTI Type Descriptor'
PUBLIC	??_R3IOException@Ogre@@8			; Ogre::IOException::`RTTI Class Hierarchy Descriptor'
PUBLIC	??_R2IOException@Ogre@@8			; Ogre::IOException::`RTTI Base Class Array'
PUBLIC	??_R1A@?0A@EA@IOException@Ogre@@8		; Ogre::IOException::`RTTI Base Class Descriptor at (0,-1,0,64)'
PUBLIC	??_EIOException@Ogre@@UAEPAXI@Z			; Ogre::IOException::`vector deleting destructor'
;	COMDAT ??_R1A@?0A@EA@IOException@Ogre@@8
rdata$r	SEGMENT
??_R1A@?0A@EA@IOException@Ogre@@8 DD FLAT:??_R0?AVIOException@Ogre@@@8 ; Ogre::IOException::`RTTI Base Class Descriptor at (0,-1,0,64)'
	DD	02H
	DD	00H
	DD	0ffffffffH
	DD	00H
	DD	040H
	DD	FLAT:??_R3IOException@Ogre@@8
rdata$r	ENDS
;	COMDAT ??_R2IOException@Ogre@@8
rdata$r	SEGMENT
??_R2IOException@Ogre@@8 DD FLAT:??_R1A@?0A@EA@IOException@Ogre@@8 ; Ogre::IOException::`RTTI Base Class Array'
	DD	FLAT:??_R1A@?0A@EA@Exception@Ogre@@8
	DD	FLAT:??_R1A@?0A@EA@exception@std@@8
rdata$r	ENDS
;	COMDAT ??_R3IOException@Ogre@@8
rdata$r	SEGMENT
??_R3IOException@Ogre@@8 DD 00H				; Ogre::IOException::`RTTI Class Hierarchy Descriptor'
	DD	00H
	DD	03H
	DD	FLAT:??_R2IOException@Ogre@@8
rdata$r	ENDS
;	COMDAT ??_R0?AVIOException@Ogre@@@8
_DATA	SEGMENT
??_R0?AVIOException@Ogre@@@8 DD FLAT:??_7type_info@@6B@	; Ogre::IOException `RTTI Type Descriptor'
	DD	00H
	DB	'.?AVIOException@Ogre@@', 00H
_DATA	ENDS
;	COMDAT ??_R4IOException@Ogre@@6B@
rdata$r	SEGMENT
??_R4IOException@Ogre@@6B@ DD 00H			; Ogre::IOException::`RTTI Complete Object Locator'
	DD	00H
	DD	00H
	DD	FLAT:??_R0?AVIOException@Ogre@@@8
	DD	FLAT:??_R3IOException@Ogre@@8
rdata$r	ENDS
;	COMDAT ??_7IOException@Ogre@@6B@
CONST	SEGMENT
??_7IOException@Ogre@@6B@ DD FLAT:??_R4IOException@Ogre@@6B@ ; Ogre::IOException::`vftable'
	DD	FLAT:??_EIOException@Ogre@@UAEPAXI@Z
	DD	FLAT:?what@Exception@Ogre@@UBEPBDXZ
	DD	FLAT:?getFullDescription@Exception@Ogre@@UBEABV?$basic_string@DU?$char_traits@D@std@@V?$allocator@D@2@@std@@XZ
	DD	FLAT:?getNumber@Exception@Ogre@@UBEHXZ
	DD	FLAT:?getSource@Exception@Ogre@@UBEABV?$basic_string@DU?$char_traits@D@std@@V?$allocator@D@2@@std@@XZ
	DD	FLAT:?getFile@Exception@Ogre@@UBEABV?$basic_string@DU?$char_traits@D@std@@V?$allocator@D@2@@std@@XZ
	DD	FLAT:?getLine@Exception@Ogre@@UBEJXZ
	DD	FLAT:?getDescription@Exception@Ogre@@UBEABV?$basic_string@DU?$char_traits@D@std@@V?$allocator@D@2@@std@@XZ
CONST	ENDS
;	COMDAT ??_C@_0M@CBPJAJJI@IOException?$AA@
CONST	SEGMENT
??_C@_0M@CBPJAJJI@IOException?$AA@ DB 'IOException', 00H ; `string'
CONST	ENDS
;	COMDAT xdata$x
xdata$x	SEGMENT
__unwindtable$??0IOException@Ogre@@QAE@HABV?$basic_string@DU?$char_traits@D@std@@V?$allocator@D@2@@std@@0PBDJ@Z DD 0ffffffffH
	DD	FLAT:__unwindfunclet$??0IOException@Ogre@@QAE@HABV?$basic_string@DU?$char_traits@D@std@@V?$allocator@D@2@@std@@0PBDJ@Z$0
__ehfuncinfo$??0IOException@Ogre@@QAE@HABV?$basic_string@DU?$char_traits@D@std@@V?$allocator@D@2@@std@@0PBDJ@Z DD 019930522H
	DD	01H
	DD	FLAT:__unwindtable$??0IOException@Ogre@@QAE@HABV?$basic_string@DU?$char_traits@D@std@@V?$allocator@D@2@@std@@0PBDJ@Z
	DD	2 DUP(00H)
	DD	2 DUP(00H)
	DD	00H
	DD	00H
; Function compile flags: /Odtp
xdata$x	ENDS
;	COMDAT ??0IOException@Ogre@@QAE@HABV?$basic_string@DU?$char_traits@D@std@@V?$allocator@D@2@@std@@0PBDJ@Z
_TEXT	SEGMENT
_this$ = -16						; size = 4
__$EHRec$ = -12						; size = 12
_number$ = 8						; size = 4
_description$ = 12					; size = 4
_source$ = 16						; size = 4
_file$ = 20						; size = 4
_line$ = 24						; size = 4
??0IOException@Ogre@@QAE@HABV?$basic_string@DU?$char_traits@D@std@@V?$allocator@D@2@@std@@0PBDJ@Z PROC ; Ogre::IOException::IOException, COMDAT
; _this$ = ecx

; 203  : 		IOException(int number, const String& description, const String& source, const char* file, long line)

	push	ebp
	mov	ebp, esp
	push	-1
	push	__ehhandler$??0IOException@Ogre@@QAE@HABV?$basic_string@DU?$char_traits@D@std@@V?$allocator@D@2@@std@@0PBDJ@Z
	mov	eax, DWORD PTR fs:0
	push	eax
	push	ecx
	mov	eax, DWORD PTR ___security_cookie
	xor	eax, ebp
	push	eax
	lea	eax, DWORD PTR __$EHRec$[ebp]
	mov	DWORD PTR fs:0, eax
	mov	DWORD PTR _this$[ebp], ecx
	mov	eax, DWORD PTR _line$[ebp]
	push	eax
	mov	ecx, DWORD PTR _file$[ebp]
	push	ecx
	push	OFFSET ??_C@_0M@CBPJAJJI@IOException?$AA@
	mov	edx, DWORD PTR _source$[ebp]
	push	edx
	mov	eax, DWORD PTR _description$[ebp]
	push	eax
	mov	ecx, DWORD PTR _number$[ebp]
	push	ecx
	mov	ecx, DWORD PTR _this$[ebp]
	call	??0Exception@Ogre@@QAE@HABV?$basic_string@DU?$char_traits@D@std@@V?$allocator@D@2@@std@@0PBD1J@Z ; Ogre::Exception::Exception
	mov	DWORD PTR __$EHRec$[ebp+8], 0
	mov	edx, DWORD PTR _this$[ebp]
	mov	DWORD PTR [edx], OFFSET ??_7IOException@Ogre@@6B@
	mov	DWORD PTR __$EHRec$[ebp+8], -1
	mov	eax, DWORD PTR _this$[ebp]
	mov	ecx, DWORD PTR __$EHRec$[ebp]
	mov	DWORD PTR fs:0, ecx
	pop	ecx
	mov	esp, ebp
	pop	ebp
	ret	20					; 00000014H
_TEXT	ENDS
;	COMDAT text$x
text$x	SEGMENT
__unwindfunclet$??0IOException@Ogre@@QAE@HABV?$basic_string@DU?$char_traits@D@std@@V?$allocator@D@2@@std@@0PBDJ@Z$0:
	mov	ecx, DWORD PTR _this$[ebp]
	jmp	??1Exception@Ogre@@UAE@XZ		; Ogre::Exception::~Exception
__ehhandler$??0IOException@Ogre@@QAE@HABV?$basic_string@DU?$char_traits@D@std@@V?$allocator@D@2@@std@@0PBDJ@Z:
	mov	edx, DWORD PTR [esp+8]
	lea	eax, DWORD PTR [edx+12]
	mov	ecx, DWORD PTR [edx-8]
	xor	ecx, eax
	call	@__security_check_cookie@4
	mov	eax, OFFSET __ehfuncinfo$??0IOException@Ogre@@QAE@HABV?$basic_string@DU?$char_traits@D@std@@V?$allocator@D@2@@std@@0PBDJ@Z
	jmp	___CxxFrameHandler3
text$x	ENDS
??0IOException@Ogre@@QAE@HABV?$basic_string@DU?$char_traits@D@std@@V?$allocator@D@2@@std@@0PBDJ@Z ENDP ; Ogre::IOException::IOException
PUBLIC	??1IOException@Ogre@@UAE@XZ			; Ogre::IOException::~IOException
;	COMDAT xdata$x
xdata$x	SEGMENT
__unwindtable$??1IOException@Ogre@@UAE@XZ DD 0ffffffffH
	DD	FLAT:__unwindfunclet$??1IOException@Ogre@@UAE@XZ$0
__ehfuncinfo$??1IOException@Ogre@@UAE@XZ DD 019930522H
	DD	01H
	DD	FLAT:__unwindtable$??1IOException@Ogre@@UAE@XZ
	DD	2 DUP(00H)
	DD	2 DUP(00H)
	DD	00H
	DD	00H
; Function compile flags: /Odtp
xdata$x	ENDS
;	COMDAT ??1IOException@Ogre@@UAE@XZ
_TEXT	SEGMENT
_this$ = -16						; size = 4
__$EHRec$ = -12						; size = 12
??1IOException@Ogre@@UAE@XZ PROC			; Ogre::IOException::~IOException, COMDAT
; _this$ = ecx
	push	ebp
	mov	ebp, esp
	push	-1
	push	__ehhandler$??1IOException@Ogre@@UAE@XZ
	mov	eax, DWORD PTR fs:0
	push	eax
	push	ecx
	mov	eax, DWORD PTR ___security_cookie
	xor	eax, ebp
	push	eax
	lea	eax, DWORD PTR __$EHRec$[ebp]
	mov	DWORD PTR fs:0, eax
	mov	DWORD PTR _this$[ebp], ecx
	mov	DWORD PTR __$EHRec$[ebp+8], 0
	mov	DWORD PTR __$EHRec$[ebp+8], -1
	mov	ecx, DWORD PTR _this$[ebp]
	call	??1Exception@Ogre@@UAE@XZ		; Ogre::Exception::~Exception
	mov	ecx, DWORD PTR __$EHRec$[ebp]
	mov	DWORD PTR fs:0, ecx
	pop	ecx
	mov	esp, ebp
	pop	ebp
	ret	0
_TEXT	ENDS
;	COMDAT text$x
text$x	SEGMENT
__unwindfunclet$??1IOException@Ogre@@UAE@XZ$0:
	mov	ecx, DWORD PTR _this$[ebp]
	jmp	??1Exception@Ogre@@UAE@XZ		; Ogre::Exception::~Exception
__ehhandler$??1IOException@Ogre@@UAE@XZ:
	mov	edx, DWORD PTR [esp+8]
	lea	eax, DWORD PTR [edx+12]
	mov	ecx, DWORD PTR [edx-8]
	xor	ecx, eax
	call	@__security_check_cookie@4
	mov	eax, OFFSET __ehfuncinfo$??1IOException@Ogre@@UAE@XZ
	jmp	___CxxFrameHandler3
text$x	ENDS
??1IOException@Ogre@@UAE@XZ ENDP			; Ogre::IOException::~IOException
PUBLIC	??0IOException@Ogre@@QAE@ABV01@@Z		; Ogre::IOException::IOException
;	COMDAT xdata$x
xdata$x	SEGMENT
__unwindtable$??0IOException@Ogre@@QAE@ABV01@@Z DD 0ffffffffH
	DD	FLAT:__unwindfunclet$??0IOException@Ogre@@QAE@ABV01@@Z$0
__ehfuncinfo$??0IOException@Ogre@@QAE@ABV01@@Z DD 019930522H
	DD	01H
	DD	FLAT:__unwindtable$??0IOException@Ogre@@QAE@ABV01@@Z
	DD	2 DUP(00H)
	DD	2 DUP(00H)
	DD	00H
	DD	00H
; Function compile flags: /Odtp
xdata$x	ENDS
;	COMDAT ??0IOException@Ogre@@QAE@ABV01@@Z
_TEXT	SEGMENT
_this$ = -16						; size = 4
__$EHRec$ = -12						; size = 12
___that$ = 8						; size = 4
??0IOException@Ogre@@QAE@ABV01@@Z PROC			; Ogre::IOException::IOException, COMDAT
; _this$ = ecx
	push	ebp
	mov	ebp, esp
	push	-1
	push	__ehhandler$??0IOException@Ogre@@QAE@ABV01@@Z
	mov	eax, DWORD PTR fs:0
	push	eax
	push	ecx
	mov	eax, DWORD PTR ___security_cookie
	xor	eax, ebp
	push	eax
	lea	eax, DWORD PTR __$EHRec$[ebp]
	mov	DWORD PTR fs:0, eax
	mov	DWORD PTR _this$[ebp], ecx
	mov	eax, DWORD PTR ___that$[ebp]
	push	eax
	mov	ecx, DWORD PTR _this$[ebp]
	call	??0Exception@Ogre@@QAE@ABV01@@Z		; Ogre::Exception::Exception
	mov	DWORD PTR __$EHRec$[ebp+8], 0
	mov	ecx, DWORD PTR _this$[ebp]
	mov	DWORD PTR [ecx], OFFSET ??_7IOException@Ogre@@6B@
	mov	DWORD PTR __$EHRec$[ebp+8], -1
	mov	eax, DWORD PTR _this$[ebp]
	mov	ecx, DWORD PTR __$EHRec$[ebp]
	mov	DWORD PTR fs:0, ecx
	pop	ecx
	mov	esp, ebp
	pop	ebp
	ret	4
_TEXT	ENDS
;	COMDAT text$x
text$x	SEGMENT
__unwindfunclet$??0IOException@Ogre@@QAE@ABV01@@Z$0:
	mov	ecx, DWORD PTR _this$[ebp]
	jmp	??1Exception@Ogre@@UAE@XZ		; Ogre::Exception::~Exception
__ehhandler$??0IOException@Ogre@@QAE@ABV01@@Z:
	mov	edx, DWORD PTR [esp+8]
	lea	eax, DWORD PTR [edx+12]
	mov	ecx, DWORD PTR [edx-8]
	xor	ecx, eax
	call	@__security_check_cookie@4
	mov	eax, OFFSET __ehfuncinfo$??0IOException@Ogre@@QAE@ABV01@@Z
	jmp	___CxxFrameHandler3
text$x	ENDS
??0IOException@Ogre@@QAE@ABV01@@Z ENDP			; Ogre::IOException::IOException
PUBLIC	??4IOException@Ogre@@QAEAAV01@ABV01@@Z		; Ogre::IOException::operator=
; Function compile flags: /Odtp
;	COMDAT ??4IOException@Ogre@@QAEAAV01@ABV01@@Z
_TEXT	SEGMENT
_this$ = -4						; size = 4
___that$ = 8						; size = 4
??4IOException@Ogre@@QAEAAV01@ABV01@@Z PROC		; Ogre::IOException::operator=, COMDAT
; _this$ = ecx
	push	ebp
	mov	ebp, esp
	push	ecx
	mov	DWORD PTR _this$[ebp], ecx
	mov	eax, DWORD PTR ___that$[ebp]
	push	eax
	mov	ecx, DWORD PTR _this$[ebp]
	call	??4Exception@Ogre@@QAEXABV01@@Z		; Ogre::Exception::operator=
	mov	eax, DWORD PTR _this$[ebp]
	mov	esp, ebp
	pop	ebp
	ret	4
??4IOException@Ogre@@QAEAAV01@ABV01@@Z ENDP		; Ogre::IOException::operator=
_TEXT	ENDS
PUBLIC	??_GIOException@Ogre@@UAEPAXI@Z			; Ogre::IOException::`scalar deleting destructor'
; Function compile flags: /Odtp
;	COMDAT ??_GIOException@Ogre@@UAEPAXI@Z
_TEXT	SEGMENT
_this$ = -4						; size = 4
___flags$ = 8						; size = 4
??_GIOException@Ogre@@UAEPAXI@Z PROC			; Ogre::IOException::`scalar deleting destructor', COMDAT
; _this$ = ecx
	push	ebp
	mov	ebp, esp
	push	ecx
	mov	DWORD PTR _this$[ebp], ecx
	mov	ecx, DWORD PTR _this$[ebp]
	call	??1IOException@Ogre@@UAE@XZ
	mov	eax, DWORD PTR ___flags$[ebp]
	and	eax, 1
	je	SHORT $LN1@scalar@13
	mov	ecx, DWORD PTR _this$[ebp]
	push	ecx
	call	??3@YAXPAX@Z				; operator delete
	add	esp, 4
$LN1@scalar@13:
	mov	eax, DWORD PTR _this$[ebp]
	mov	esp, ebp
	pop	ebp
	ret	4
??_GIOException@Ogre@@UAEPAXI@Z ENDP			; Ogre::IOException::`scalar deleting destructor'
; Function compile flags: /Odtp
_TEXT	ENDS
;	COMDAT ??_EIOException@Ogre@@UAEPAXI@Z
_TEXT	SEGMENT
_this$ = -4						; size = 4
___flags$ = 8						; size = 4
??_EIOException@Ogre@@UAEPAXI@Z PROC			; Ogre::IOException::`vector deleting destructor', COMDAT
; _this$ = ecx
	push	ebp
	mov	ebp, esp
	push	ecx
	mov	DWORD PTR _this$[ebp], ecx
	mov	eax, DWORD PTR ___flags$[ebp]
	and	eax, 2
	je	SHORT $LN3@vector@13
	push	OFFSET ??1IOException@Ogre@@UAE@XZ
	mov	ecx, DWORD PTR _this$[ebp]
	mov	edx, DWORD PTR [ecx-4]
	push	edx
	push	160					; 000000a0H
	mov	eax, DWORD PTR _this$[ebp]
	push	eax
	call	??_M@YGXPAXIHP6EX0@Z@Z
	mov	ecx, DWORD PTR ___flags$[ebp]
	and	ecx, 1
	je	SHORT $LN2@vector@13
	mov	edx, DWORD PTR _this$[ebp]
	sub	edx, 4
	push	edx
	call	??_V@YAXPAX@Z				; operator delete[]
	add	esp, 4
$LN2@vector@13:
	mov	eax, DWORD PTR _this$[ebp]
	sub	eax, 4
	jmp	SHORT $LN4@vector@13
$LN3@vector@13:
	mov	ecx, DWORD PTR _this$[ebp]
	call	??1IOException@Ogre@@UAE@XZ
	mov	eax, DWORD PTR ___flags$[ebp]
	and	eax, 1
	je	SHORT $LN1@vector@13
	mov	ecx, DWORD PTR _this$[ebp]
	push	ecx
	call	??3@YAXPAX@Z				; operator delete
	add	esp, 4
$LN1@vector@13:
	mov	eax, DWORD PTR _this$[ebp]
$LN4@vector@13:
	mov	esp, ebp
	pop	ebp
	ret	4
??_EIOException@Ogre@@UAEPAXI@Z ENDP			; Ogre::IOException::`vector deleting destructor'
_TEXT	ENDS
PUBLIC	??_7InvalidStateException@Ogre@@6B@		; Ogre::InvalidStateException::`vftable'
PUBLIC	??_C@_0BG@IEKPFFPO@InvalidStateException?$AA@	; `string'
PUBLIC	??0InvalidStateException@Ogre@@QAE@HABV?$basic_string@DU?$char_traits@D@std@@V?$allocator@D@2@@std@@0PBDJ@Z ; Ogre::InvalidStateException::InvalidStateException
PUBLIC	??_R4InvalidStateException@Ogre@@6B@		; Ogre::InvalidStateException::`RTTI Complete Object Locator'
PUBLIC	??_R0?AVInvalidStateException@Ogre@@@8		; Ogre::InvalidStateException `RTTI Type Descriptor'
PUBLIC	??_R3InvalidStateException@Ogre@@8		; Ogre::InvalidStateException::`RTTI Class Hierarchy Descriptor'
PUBLIC	??_R2InvalidStateException@Ogre@@8		; Ogre::InvalidStateException::`RTTI Base Class Array'
PUBLIC	??_R1A@?0A@EA@InvalidStateException@Ogre@@8	; Ogre::InvalidStateException::`RTTI Base Class Descriptor at (0,-1,0,64)'
PUBLIC	??_EInvalidStateException@Ogre@@UAEPAXI@Z	; Ogre::InvalidStateException::`vector deleting destructor'
;	COMDAT ??_R1A@?0A@EA@InvalidStateException@Ogre@@8
rdata$r	SEGMENT
??_R1A@?0A@EA@InvalidStateException@Ogre@@8 DD FLAT:??_R0?AVInvalidStateException@Ogre@@@8 ; Ogre::InvalidStateException::`RTTI Base Class Descriptor at (0,-1,0,64)'
	DD	02H
	DD	00H
	DD	0ffffffffH
	DD	00H
	DD	040H
	DD	FLAT:??_R3InvalidStateException@Ogre@@8
rdata$r	ENDS
;	COMDAT ??_R2InvalidStateException@Ogre@@8
rdata$r	SEGMENT
??_R2InvalidStateException@Ogre@@8 DD FLAT:??_R1A@?0A@EA@InvalidStateException@Ogre@@8 ; Ogre::InvalidStateException::`RTTI Base Class Array'
	DD	FLAT:??_R1A@?0A@EA@Exception@Ogre@@8
	DD	FLAT:??_R1A@?0A@EA@exception@std@@8
rdata$r	ENDS
;	COMDAT ??_R3InvalidStateException@Ogre@@8
rdata$r	SEGMENT
??_R3InvalidStateException@Ogre@@8 DD 00H		; Ogre::InvalidStateException::`RTTI Class Hierarchy Descriptor'
	DD	00H
	DD	03H
	DD	FLAT:??_R2InvalidStateException@Ogre@@8
rdata$r	ENDS
;	COMDAT ??_R0?AVInvalidStateException@Ogre@@@8
_DATA	SEGMENT
??_R0?AVInvalidStateException@Ogre@@@8 DD FLAT:??_7type_info@@6B@ ; Ogre::InvalidStateException `RTTI Type Descriptor'
	DD	00H
	DB	'.?AVInvalidStateException@Ogre@@', 00H
_DATA	ENDS
;	COMDAT ??_R4InvalidStateException@Ogre@@6B@
rdata$r	SEGMENT
??_R4InvalidStateException@Ogre@@6B@ DD 00H		; Ogre::InvalidStateException::`RTTI Complete Object Locator'
	DD	00H
	DD	00H
	DD	FLAT:??_R0?AVInvalidStateException@Ogre@@@8
	DD	FLAT:??_R3InvalidStateException@Ogre@@8
rdata$r	ENDS
;	COMDAT ??_7InvalidStateException@Ogre@@6B@
CONST	SEGMENT
??_7InvalidStateException@Ogre@@6B@ DD FLAT:??_R4InvalidStateException@Ogre@@6B@ ; Ogre::InvalidStateException::`vftable'
	DD	FLAT:??_EInvalidStateException@Ogre@@UAEPAXI@Z
	DD	FLAT:?what@Exception@Ogre@@UBEPBDXZ
	DD	FLAT:?getFullDescription@Exception@Ogre@@UBEABV?$basic_string@DU?$char_traits@D@std@@V?$allocator@D@2@@std@@XZ
	DD	FLAT:?getNumber@Exception@Ogre@@UBEHXZ
	DD	FLAT:?getSource@Exception@Ogre@@UBEABV?$basic_string@DU?$char_traits@D@std@@V?$allocator@D@2@@std@@XZ
	DD	FLAT:?getFile@Exception@Ogre@@UBEABV?$basic_string@DU?$char_traits@D@std@@V?$allocator@D@2@@std@@XZ
	DD	FLAT:?getLine@Exception@Ogre@@UBEJXZ
	DD	FLAT:?getDescription@Exception@Ogre@@UBEABV?$basic_string@DU?$char_traits@D@std@@V?$allocator@D@2@@std@@XZ
CONST	ENDS
;	COMDAT ??_C@_0BG@IEKPFFPO@InvalidStateException?$AA@
CONST	SEGMENT
??_C@_0BG@IEKPFFPO@InvalidStateException?$AA@ DB 'InvalidStateException', 00H ; `string'
CONST	ENDS
;	COMDAT xdata$x
xdata$x	SEGMENT
__unwindtable$??0InvalidStateException@Ogre@@QAE@HABV?$basic_string@DU?$char_traits@D@std@@V?$allocator@D@2@@std@@0PBDJ@Z DD 0ffffffffH
	DD	FLAT:__unwindfunclet$??0InvalidStateException@Ogre@@QAE@HABV?$basic_string@DU?$char_traits@D@std@@V?$allocator@D@2@@std@@0PBDJ@Z$0
__ehfuncinfo$??0InvalidStateException@Ogre@@QAE@HABV?$basic_string@DU?$char_traits@D@std@@V?$allocator@D@2@@std@@0PBDJ@Z DD 019930522H
	DD	01H
	DD	FLAT:__unwindtable$??0InvalidStateException@Ogre@@QAE@HABV?$basic_string@DU?$char_traits@D@std@@V?$allocator@D@2@@std@@0PBDJ@Z
	DD	2 DUP(00H)
	DD	2 DUP(00H)
	DD	00H
	DD	00H
; Function compile flags: /Odtp
xdata$x	ENDS
;	COMDAT ??0InvalidStateException@Ogre@@QAE@HABV?$basic_string@DU?$char_traits@D@std@@V?$allocator@D@2@@std@@0PBDJ@Z
_TEXT	SEGMENT
_this$ = -16						; size = 4
__$EHRec$ = -12						; size = 12
_number$ = 8						; size = 4
_description$ = 12					; size = 4
_source$ = 16						; size = 4
_file$ = 20						; size = 4
_line$ = 24						; size = 4
??0InvalidStateException@Ogre@@QAE@HABV?$basic_string@DU?$char_traits@D@std@@V?$allocator@D@2@@std@@0PBDJ@Z PROC ; Ogre::InvalidStateException::InvalidStateException, COMDAT
; _this$ = ecx

; 209  : 		InvalidStateException(int number, const String& description, const String& source, const char* file, long line)

	push	ebp
	mov	ebp, esp
	push	-1
	push	__ehhandler$??0InvalidStateException@Ogre@@QAE@HABV?$basic_string@DU?$char_traits@D@std@@V?$allocator@D@2@@std@@0PBDJ@Z
	mov	eax, DWORD PTR fs:0
	push	eax
	push	ecx
	mov	eax, DWORD PTR ___security_cookie
	xor	eax, ebp
	push	eax
	lea	eax, DWORD PTR __$EHRec$[ebp]
	mov	DWORD PTR fs:0, eax
	mov	DWORD PTR _this$[ebp], ecx
	mov	eax, DWORD PTR _line$[ebp]
	push	eax
	mov	ecx, DWORD PTR _file$[ebp]
	push	ecx
	push	OFFSET ??_C@_0BG@IEKPFFPO@InvalidStateException?$AA@
	mov	edx, DWORD PTR _source$[ebp]
	push	edx
	mov	eax, DWORD PTR _description$[ebp]
	push	eax
	mov	ecx, DWORD PTR _number$[ebp]
	push	ecx
	mov	ecx, DWORD PTR _this$[ebp]
	call	??0Exception@Ogre@@QAE@HABV?$basic_string@DU?$char_traits@D@std@@V?$allocator@D@2@@std@@0PBD1J@Z ; Ogre::Exception::Exception
	mov	DWORD PTR __$EHRec$[ebp+8], 0
	mov	edx, DWORD PTR _this$[ebp]
	mov	DWORD PTR [edx], OFFSET ??_7InvalidStateException@Ogre@@6B@
	mov	DWORD PTR __$EHRec$[ebp+8], -1
	mov	eax, DWORD PTR _this$[ebp]
	mov	ecx, DWORD PTR __$EHRec$[ebp]
	mov	DWORD PTR fs:0, ecx
	pop	ecx
	mov	esp, ebp
	pop	ebp
	ret	20					; 00000014H
_TEXT	ENDS
;	COMDAT text$x
text$x	SEGMENT
__unwindfunclet$??0InvalidStateException@Ogre@@QAE@HABV?$basic_string@DU?$char_traits@D@std@@V?$allocator@D@2@@std@@0PBDJ@Z$0:
	mov	ecx, DWORD PTR _this$[ebp]
	jmp	??1Exception@Ogre@@UAE@XZ		; Ogre::Exception::~Exception
__ehhandler$??0InvalidStateException@Ogre@@QAE@HABV?$basic_string@DU?$char_traits@D@std@@V?$allocator@D@2@@std@@0PBDJ@Z:
	mov	edx, DWORD PTR [esp+8]
	lea	eax, DWORD PTR [edx+12]
	mov	ecx, DWORD PTR [edx-8]
	xor	ecx, eax
	call	@__security_check_cookie@4
	mov	eax, OFFSET __ehfuncinfo$??0InvalidStateException@Ogre@@QAE@HABV?$basic_string@DU?$char_traits@D@std@@V?$allocator@D@2@@std@@0PBDJ@Z
	jmp	___CxxFrameHandler3
text$x	ENDS
??0InvalidStateException@Ogre@@QAE@HABV?$basic_string@DU?$char_traits@D@std@@V?$allocator@D@2@@std@@0PBDJ@Z ENDP ; Ogre::InvalidStateException::InvalidStateException
PUBLIC	??1InvalidStateException@Ogre@@UAE@XZ		; Ogre::InvalidStateException::~InvalidStateException
;	COMDAT xdata$x
xdata$x	SEGMENT
__unwindtable$??1InvalidStateException@Ogre@@UAE@XZ DD 0ffffffffH
	DD	FLAT:__unwindfunclet$??1InvalidStateException@Ogre@@UAE@XZ$0
__ehfuncinfo$??1InvalidStateException@Ogre@@UAE@XZ DD 019930522H
	DD	01H
	DD	FLAT:__unwindtable$??1InvalidStateException@Ogre@@UAE@XZ
	DD	2 DUP(00H)
	DD	2 DUP(00H)
	DD	00H
	DD	00H
; Function compile flags: /Odtp
xdata$x	ENDS
;	COMDAT ??1InvalidStateException@Ogre@@UAE@XZ
_TEXT	SEGMENT
_this$ = -16						; size = 4
__$EHRec$ = -12						; size = 12
??1InvalidStateException@Ogre@@UAE@XZ PROC		; Ogre::InvalidStateException::~InvalidStateException, COMDAT
; _this$ = ecx
	push	ebp
	mov	ebp, esp
	push	-1
	push	__ehhandler$??1InvalidStateException@Ogre@@UAE@XZ
	mov	eax, DWORD PTR fs:0
	push	eax
	push	ecx
	mov	eax, DWORD PTR ___security_cookie
	xor	eax, ebp
	push	eax
	lea	eax, DWORD PTR __$EHRec$[ebp]
	mov	DWORD PTR fs:0, eax
	mov	DWORD PTR _this$[ebp], ecx
	mov	DWORD PTR __$EHRec$[ebp+8], 0
	mov	DWORD PTR __$EHRec$[ebp+8], -1
	mov	ecx, DWORD PTR _this$[ebp]
	call	??1Exception@Ogre@@UAE@XZ		; Ogre::Exception::~Exception
	mov	ecx, DWORD PTR __$EHRec$[ebp]
	mov	DWORD PTR fs:0, ecx
	pop	ecx
	mov	esp, ebp
	pop	ebp
	ret	0
_TEXT	ENDS
;	COMDAT text$x
text$x	SEGMENT
__unwindfunclet$??1InvalidStateException@Ogre@@UAE@XZ$0:
	mov	ecx, DWORD PTR _this$[ebp]
	jmp	??1Exception@Ogre@@UAE@XZ		; Ogre::Exception::~Exception
__ehhandler$??1InvalidStateException@Ogre@@UAE@XZ:
	mov	edx, DWORD PTR [esp+8]
	lea	eax, DWORD PTR [edx+12]
	mov	ecx, DWORD PTR [edx-8]
	xor	ecx, eax
	call	@__security_check_cookie@4
	mov	eax, OFFSET __ehfuncinfo$??1InvalidStateException@Ogre@@UAE@XZ
	jmp	___CxxFrameHandler3
text$x	ENDS
??1InvalidStateException@Ogre@@UAE@XZ ENDP		; Ogre::InvalidStateException::~InvalidStateException
PUBLIC	??0InvalidStateException@Ogre@@QAE@ABV01@@Z	; Ogre::InvalidStateException::InvalidStateException
;	COMDAT xdata$x
xdata$x	SEGMENT
__unwindtable$??0InvalidStateException@Ogre@@QAE@ABV01@@Z DD 0ffffffffH
	DD	FLAT:__unwindfunclet$??0InvalidStateException@Ogre@@QAE@ABV01@@Z$0
__ehfuncinfo$??0InvalidStateException@Ogre@@QAE@ABV01@@Z DD 019930522H
	DD	01H
	DD	FLAT:__unwindtable$??0InvalidStateException@Ogre@@QAE@ABV01@@Z
	DD	2 DUP(00H)
	DD	2 DUP(00H)
	DD	00H
	DD	00H
; Function compile flags: /Odtp
xdata$x	ENDS
;	COMDAT ??0InvalidStateException@Ogre@@QAE@ABV01@@Z
_TEXT	SEGMENT
_this$ = -16						; size = 4
__$EHRec$ = -12						; size = 12
___that$ = 8						; size = 4
??0InvalidStateException@Ogre@@QAE@ABV01@@Z PROC	; Ogre::InvalidStateException::InvalidStateException, COMDAT
; _this$ = ecx
	push	ebp
	mov	ebp, esp
	push	-1
	push	__ehhandler$??0InvalidStateException@Ogre@@QAE@ABV01@@Z
	mov	eax, DWORD PTR fs:0
	push	eax
	push	ecx
	mov	eax, DWORD PTR ___security_cookie
	xor	eax, ebp
	push	eax
	lea	eax, DWORD PTR __$EHRec$[ebp]
	mov	DWORD PTR fs:0, eax
	mov	DWORD PTR _this$[ebp], ecx
	mov	eax, DWORD PTR ___that$[ebp]
	push	eax
	mov	ecx, DWORD PTR _this$[ebp]
	call	??0Exception@Ogre@@QAE@ABV01@@Z		; Ogre::Exception::Exception
	mov	DWORD PTR __$EHRec$[ebp+8], 0
	mov	ecx, DWORD PTR _this$[ebp]
	mov	DWORD PTR [ecx], OFFSET ??_7InvalidStateException@Ogre@@6B@
	mov	DWORD PTR __$EHRec$[ebp+8], -1
	mov	eax, DWORD PTR _this$[ebp]
	mov	ecx, DWORD PTR __$EHRec$[ebp]
	mov	DWORD PTR fs:0, ecx
	pop	ecx
	mov	esp, ebp
	pop	ebp
	ret	4
_TEXT	ENDS
;	COMDAT text$x
text$x	SEGMENT
__unwindfunclet$??0InvalidStateException@Ogre@@QAE@ABV01@@Z$0:
	mov	ecx, DWORD PTR _this$[ebp]
	jmp	??1Exception@Ogre@@UAE@XZ		; Ogre::Exception::~Exception
__ehhandler$??0InvalidStateException@Ogre@@QAE@ABV01@@Z:
	mov	edx, DWORD PTR [esp+8]
	lea	eax, DWORD PTR [edx+12]
	mov	ecx, DWORD PTR [edx-8]
	xor	ecx, eax
	call	@__security_check_cookie@4
	mov	eax, OFFSET __ehfuncinfo$??0InvalidStateException@Ogre@@QAE@ABV01@@Z
	jmp	___CxxFrameHandler3
text$x	ENDS
??0InvalidStateException@Ogre@@QAE@ABV01@@Z ENDP	; Ogre::InvalidStateException::InvalidStateException
PUBLIC	??4InvalidStateException@Ogre@@QAEAAV01@ABV01@@Z ; Ogre::InvalidStateException::operator=
; Function compile flags: /Odtp
;	COMDAT ??4InvalidStateException@Ogre@@QAEAAV01@ABV01@@Z
_TEXT	SEGMENT
_this$ = -4						; size = 4
___that$ = 8						; size = 4
??4InvalidStateException@Ogre@@QAEAAV01@ABV01@@Z PROC	; Ogre::InvalidStateException::operator=, COMDAT
; _this$ = ecx
	push	ebp
	mov	ebp, esp
	push	ecx
	mov	DWORD PTR _this$[ebp], ecx
	mov	eax, DWORD PTR ___that$[ebp]
	push	eax
	mov	ecx, DWORD PTR _this$[ebp]
	call	??4Exception@Ogre@@QAEXABV01@@Z		; Ogre::Exception::operator=
	mov	eax, DWORD PTR _this$[ebp]
	mov	esp, ebp
	pop	ebp
	ret	4
??4InvalidStateException@Ogre@@QAEAAV01@ABV01@@Z ENDP	; Ogre::InvalidStateException::operator=
_TEXT	ENDS
PUBLIC	??_GInvalidStateException@Ogre@@UAEPAXI@Z	; Ogre::InvalidStateException::`scalar deleting destructor'
; Function compile flags: /Odtp
;	COMDAT ??_GInvalidStateException@Ogre@@UAEPAXI@Z
_TEXT	SEGMENT
_this$ = -4						; size = 4
___flags$ = 8						; size = 4
??_GInvalidStateException@Ogre@@UAEPAXI@Z PROC		; Ogre::InvalidStateException::`scalar deleting destructor', COMDAT
; _this$ = ecx
	push	ebp
	mov	ebp, esp
	push	ecx
	mov	DWORD PTR _this$[ebp], ecx
	mov	ecx, DWORD PTR _this$[ebp]
	call	??1InvalidStateException@Ogre@@UAE@XZ
	mov	eax, DWORD PTR ___flags$[ebp]
	and	eax, 1
	je	SHORT $LN1@scalar@14
	mov	ecx, DWORD PTR _this$[ebp]
	push	ecx
	call	??3@YAXPAX@Z				; operator delete
	add	esp, 4
$LN1@scalar@14:
	mov	eax, DWORD PTR _this$[ebp]
	mov	esp, ebp
	pop	ebp
	ret	4
??_GInvalidStateException@Ogre@@UAEPAXI@Z ENDP		; Ogre::InvalidStateException::`scalar deleting destructor'
; Function compile flags: /Odtp
_TEXT	ENDS
;	COMDAT ??_EInvalidStateException@Ogre@@UAEPAXI@Z
_TEXT	SEGMENT
_this$ = -4						; size = 4
___flags$ = 8						; size = 4
??_EInvalidStateException@Ogre@@UAEPAXI@Z PROC		; Ogre::InvalidStateException::`vector deleting destructor', COMDAT
; _this$ = ecx
	push	ebp
	mov	ebp, esp
	push	ecx
	mov	DWORD PTR _this$[ebp], ecx
	mov	eax, DWORD PTR ___flags$[ebp]
	and	eax, 2
	je	SHORT $LN3@vector@14
	push	OFFSET ??1InvalidStateException@Ogre@@UAE@XZ
	mov	ecx, DWORD PTR _this$[ebp]
	mov	edx, DWORD PTR [ecx-4]
	push	edx
	push	160					; 000000a0H
	mov	eax, DWORD PTR _this$[ebp]
	push	eax
	call	??_M@YGXPAXIHP6EX0@Z@Z
	mov	ecx, DWORD PTR ___flags$[ebp]
	and	ecx, 1
	je	SHORT $LN2@vector@14
	mov	edx, DWORD PTR _this$[ebp]
	sub	edx, 4
	push	edx
	call	??_V@YAXPAX@Z				; operator delete[]
	add	esp, 4
$LN2@vector@14:
	mov	eax, DWORD PTR _this$[ebp]
	sub	eax, 4
	jmp	SHORT $LN4@vector@14
$LN3@vector@14:
	mov	ecx, DWORD PTR _this$[ebp]
	call	??1InvalidStateException@Ogre@@UAE@XZ
	mov	eax, DWORD PTR ___flags$[ebp]
	and	eax, 1
	je	SHORT $LN1@vector@14
	mov	ecx, DWORD PTR _this$[ebp]
	push	ecx
	call	??3@YAXPAX@Z				; operator delete
	add	esp, 4
$LN1@vector@14:
	mov	eax, DWORD PTR _this$[ebp]
$LN4@vector@14:
	mov	esp, ebp
	pop	ebp
	ret	4
??_EInvalidStateException@Ogre@@UAEPAXI@Z ENDP		; Ogre::InvalidStateException::`vector deleting destructor'
_TEXT	ENDS
PUBLIC	??_7InvalidParametersException@Ogre@@6B@	; Ogre::InvalidParametersException::`vftable'
PUBLIC	??_C@_0BL@CDIKBDOO@InvalidParametersException?$AA@ ; `string'
PUBLIC	??0InvalidParametersException@Ogre@@QAE@HABV?$basic_string@DU?$char_traits@D@std@@V?$allocator@D@2@@std@@0PBDJ@Z ; Ogre::InvalidParametersException::InvalidParametersException
PUBLIC	??_R4InvalidParametersException@Ogre@@6B@	; Ogre::InvalidParametersException::`RTTI Complete Object Locator'
PUBLIC	??_R0?AVInvalidParametersException@Ogre@@@8	; Ogre::InvalidParametersException `RTTI Type Descriptor'
PUBLIC	??_R3InvalidParametersException@Ogre@@8		; Ogre::InvalidParametersException::`RTTI Class Hierarchy Descriptor'
PUBLIC	??_R2InvalidParametersException@Ogre@@8		; Ogre::InvalidParametersException::`RTTI Base Class Array'
PUBLIC	??_R1A@?0A@EA@InvalidParametersException@Ogre@@8 ; Ogre::InvalidParametersException::`RTTI Base Class Descriptor at (0,-1,0,64)'
PUBLIC	??_EInvalidParametersException@Ogre@@UAEPAXI@Z	; Ogre::InvalidParametersException::`vector deleting destructor'
;	COMDAT ??_R1A@?0A@EA@InvalidParametersException@Ogre@@8
rdata$r	SEGMENT
??_R1A@?0A@EA@InvalidParametersException@Ogre@@8 DD FLAT:??_R0?AVInvalidParametersException@Ogre@@@8 ; Ogre::InvalidParametersException::`RTTI Base Class Descriptor at (0,-1,0,64)'
	DD	02H
	DD	00H
	DD	0ffffffffH
	DD	00H
	DD	040H
	DD	FLAT:??_R3InvalidParametersException@Ogre@@8
rdata$r	ENDS
;	COMDAT ??_R2InvalidParametersException@Ogre@@8
rdata$r	SEGMENT
??_R2InvalidParametersException@Ogre@@8 DD FLAT:??_R1A@?0A@EA@InvalidParametersException@Ogre@@8 ; Ogre::InvalidParametersException::`RTTI Base Class Array'
	DD	FLAT:??_R1A@?0A@EA@Exception@Ogre@@8
	DD	FLAT:??_R1A@?0A@EA@exception@std@@8
rdata$r	ENDS
;	COMDAT ??_R3InvalidParametersException@Ogre@@8
rdata$r	SEGMENT
??_R3InvalidParametersException@Ogre@@8 DD 00H		; Ogre::InvalidParametersException::`RTTI Class Hierarchy Descriptor'
	DD	00H
	DD	03H
	DD	FLAT:??_R2InvalidParametersException@Ogre@@8
rdata$r	ENDS
;	COMDAT ??_R0?AVInvalidParametersException@Ogre@@@8
_DATA	SEGMENT
??_R0?AVInvalidParametersException@Ogre@@@8 DD FLAT:??_7type_info@@6B@ ; Ogre::InvalidParametersException `RTTI Type Descriptor'
	DD	00H
	DB	'.?AVInvalidParametersException@Ogre@@', 00H
_DATA	ENDS
;	COMDAT ??_R4InvalidParametersException@Ogre@@6B@
rdata$r	SEGMENT
??_R4InvalidParametersException@Ogre@@6B@ DD 00H	; Ogre::InvalidParametersException::`RTTI Complete Object Locator'
	DD	00H
	DD	00H
	DD	FLAT:??_R0?AVInvalidParametersException@Ogre@@@8
	DD	FLAT:??_R3InvalidParametersException@Ogre@@8
rdata$r	ENDS
;	COMDAT ??_7InvalidParametersException@Ogre@@6B@
CONST	SEGMENT
??_7InvalidParametersException@Ogre@@6B@ DD FLAT:??_R4InvalidParametersException@Ogre@@6B@ ; Ogre::InvalidParametersException::`vftable'
	DD	FLAT:??_EInvalidParametersException@Ogre@@UAEPAXI@Z
	DD	FLAT:?what@Exception@Ogre@@UBEPBDXZ
	DD	FLAT:?getFullDescription@Exception@Ogre@@UBEABV?$basic_string@DU?$char_traits@D@std@@V?$allocator@D@2@@std@@XZ
	DD	FLAT:?getNumber@Exception@Ogre@@UBEHXZ
	DD	FLAT:?getSource@Exception@Ogre@@UBEABV?$basic_string@DU?$char_traits@D@std@@V?$allocator@D@2@@std@@XZ
	DD	FLAT:?getFile@Exception@Ogre@@UBEABV?$basic_string@DU?$char_traits@D@std@@V?$allocator@D@2@@std@@XZ
	DD	FLAT:?getLine@Exception@Ogre@@UBEJXZ
	DD	FLAT:?getDescription@Exception@Ogre@@UBEABV?$basic_string@DU?$char_traits@D@std@@V?$allocator@D@2@@std@@XZ
CONST	ENDS
;	COMDAT ??_C@_0BL@CDIKBDOO@InvalidParametersException?$AA@
CONST	SEGMENT
??_C@_0BL@CDIKBDOO@InvalidParametersException?$AA@ DB 'InvalidParametersE'
	DB	'xception', 00H				; `string'
CONST	ENDS
;	COMDAT xdata$x
xdata$x	SEGMENT
__unwindtable$??0InvalidParametersException@Ogre@@QAE@HABV?$basic_string@DU?$char_traits@D@std@@V?$allocator@D@2@@std@@0PBDJ@Z DD 0ffffffffH
	DD	FLAT:__unwindfunclet$??0InvalidParametersException@Ogre@@QAE@HABV?$basic_string@DU?$char_traits@D@std@@V?$allocator@D@2@@std@@0PBDJ@Z$0
__ehfuncinfo$??0InvalidParametersException@Ogre@@QAE@HABV?$basic_string@DU?$char_traits@D@std@@V?$allocator@D@2@@std@@0PBDJ@Z DD 019930522H
	DD	01H
	DD	FLAT:__unwindtable$??0InvalidParametersException@Ogre@@QAE@HABV?$basic_string@DU?$char_traits@D@std@@V?$allocator@D@2@@std@@0PBDJ@Z
	DD	2 DUP(00H)
	DD	2 DUP(00H)
	DD	00H
	DD	00H
; Function compile flags: /Odtp
xdata$x	ENDS
;	COMDAT ??0InvalidParametersException@Ogre@@QAE@HABV?$basic_string@DU?$char_traits@D@std@@V?$allocator@D@2@@std@@0PBDJ@Z
_TEXT	SEGMENT
_this$ = -16						; size = 4
__$EHRec$ = -12						; size = 12
_number$ = 8						; size = 4
_description$ = 12					; size = 4
_source$ = 16						; size = 4
_file$ = 20						; size = 4
_line$ = 24						; size = 4
??0InvalidParametersException@Ogre@@QAE@HABV?$basic_string@DU?$char_traits@D@std@@V?$allocator@D@2@@std@@0PBDJ@Z PROC ; Ogre::InvalidParametersException::InvalidParametersException, COMDAT
; _this$ = ecx

; 215  : 		InvalidParametersException(int number, const String& description, const String& source, const char* file, long line)

	push	ebp
	mov	ebp, esp
	push	-1
	push	__ehhandler$??0InvalidParametersException@Ogre@@QAE@HABV?$basic_string@DU?$char_traits@D@std@@V?$allocator@D@2@@std@@0PBDJ@Z
	mov	eax, DWORD PTR fs:0
	push	eax
	push	ecx
	mov	eax, DWORD PTR ___security_cookie
	xor	eax, ebp
	push	eax
	lea	eax, DWORD PTR __$EHRec$[ebp]
	mov	DWORD PTR fs:0, eax
	mov	DWORD PTR _this$[ebp], ecx
	mov	eax, DWORD PTR _line$[ebp]
	push	eax
	mov	ecx, DWORD PTR _file$[ebp]
	push	ecx
	push	OFFSET ??_C@_0BL@CDIKBDOO@InvalidParametersException?$AA@
	mov	edx, DWORD PTR _source$[ebp]
	push	edx
	mov	eax, DWORD PTR _description$[ebp]
	push	eax
	mov	ecx, DWORD PTR _number$[ebp]
	push	ecx
	mov	ecx, DWORD PTR _this$[ebp]
	call	??0Exception@Ogre@@QAE@HABV?$basic_string@DU?$char_traits@D@std@@V?$allocator@D@2@@std@@0PBD1J@Z ; Ogre::Exception::Exception
	mov	DWORD PTR __$EHRec$[ebp+8], 0
	mov	edx, DWORD PTR _this$[ebp]
	mov	DWORD PTR [edx], OFFSET ??_7InvalidParametersException@Ogre@@6B@
	mov	DWORD PTR __$EHRec$[ebp+8], -1
	mov	eax, DWORD PTR _this$[ebp]
	mov	ecx, DWORD PTR __$EHRec$[ebp]
	mov	DWORD PTR fs:0, ecx
	pop	ecx
	mov	esp, ebp
	pop	ebp
	ret	20					; 00000014H
_TEXT	ENDS
;	COMDAT text$x
text$x	SEGMENT
__unwindfunclet$??0InvalidParametersException@Ogre@@QAE@HABV?$basic_string@DU?$char_traits@D@std@@V?$allocator@D@2@@std@@0PBDJ@Z$0:
	mov	ecx, DWORD PTR _this$[ebp]
	jmp	??1Exception@Ogre@@UAE@XZ		; Ogre::Exception::~Exception
__ehhandler$??0InvalidParametersException@Ogre@@QAE@HABV?$basic_string@DU?$char_traits@D@std@@V?$allocator@D@2@@std@@0PBDJ@Z:
	mov	edx, DWORD PTR [esp+8]
	lea	eax, DWORD PTR [edx+12]
	mov	ecx, DWORD PTR [edx-8]
	xor	ecx, eax
	call	@__security_check_cookie@4
	mov	eax, OFFSET __ehfuncinfo$??0InvalidParametersException@Ogre@@QAE@HABV?$basic_string@DU?$char_traits@D@std@@V?$allocator@D@2@@std@@0PBDJ@Z
	jmp	___CxxFrameHandler3
text$x	ENDS
??0InvalidParametersException@Ogre@@QAE@HABV?$basic_string@DU?$char_traits@D@std@@V?$allocator@D@2@@std@@0PBDJ@Z ENDP ; Ogre::InvalidParametersException::InvalidParametersException
PUBLIC	??1InvalidParametersException@Ogre@@UAE@XZ	; Ogre::InvalidParametersException::~InvalidParametersException
;	COMDAT xdata$x
xdata$x	SEGMENT
__unwindtable$??1InvalidParametersException@Ogre@@UAE@XZ DD 0ffffffffH
	DD	FLAT:__unwindfunclet$??1InvalidParametersException@Ogre@@UAE@XZ$0
__ehfuncinfo$??1InvalidParametersException@Ogre@@UAE@XZ DD 019930522H
	DD	01H
	DD	FLAT:__unwindtable$??1InvalidParametersException@Ogre@@UAE@XZ
	DD	2 DUP(00H)
	DD	2 DUP(00H)
	DD	00H
	DD	00H
; Function compile flags: /Odtp
xdata$x	ENDS
;	COMDAT ??1InvalidParametersException@Ogre@@UAE@XZ
_TEXT	SEGMENT
_this$ = -16						; size = 4
__$EHRec$ = -12						; size = 12
??1InvalidParametersException@Ogre@@UAE@XZ PROC		; Ogre::InvalidParametersException::~InvalidParametersException, COMDAT
; _this$ = ecx
	push	ebp
	mov	ebp, esp
	push	-1
	push	__ehhandler$??1InvalidParametersException@Ogre@@UAE@XZ
	mov	eax, DWORD PTR fs:0
	push	eax
	push	ecx
	mov	eax, DWORD PTR ___security_cookie
	xor	eax, ebp
	push	eax
	lea	eax, DWORD PTR __$EHRec$[ebp]
	mov	DWORD PTR fs:0, eax
	mov	DWORD PTR _this$[ebp], ecx
	mov	DWORD PTR __$EHRec$[ebp+8], 0
	mov	DWORD PTR __$EHRec$[ebp+8], -1
	mov	ecx, DWORD PTR _this$[ebp]
	call	??1Exception@Ogre@@UAE@XZ		; Ogre::Exception::~Exception
	mov	ecx, DWORD PTR __$EHRec$[ebp]
	mov	DWORD PTR fs:0, ecx
	pop	ecx
	mov	esp, ebp
	pop	ebp
	ret	0
_TEXT	ENDS
;	COMDAT text$x
text$x	SEGMENT
__unwindfunclet$??1InvalidParametersException@Ogre@@UAE@XZ$0:
	mov	ecx, DWORD PTR _this$[ebp]
	jmp	??1Exception@Ogre@@UAE@XZ		; Ogre::Exception::~Exception
__ehhandler$??1InvalidParametersException@Ogre@@UAE@XZ:
	mov	edx, DWORD PTR [esp+8]
	lea	eax, DWORD PTR [edx+12]
	mov	ecx, DWORD PTR [edx-8]
	xor	ecx, eax
	call	@__security_check_cookie@4
	mov	eax, OFFSET __ehfuncinfo$??1InvalidParametersException@Ogre@@UAE@XZ
	jmp	___CxxFrameHandler3
text$x	ENDS
??1InvalidParametersException@Ogre@@UAE@XZ ENDP		; Ogre::InvalidParametersException::~InvalidParametersException
PUBLIC	??0InvalidParametersException@Ogre@@QAE@ABV01@@Z ; Ogre::InvalidParametersException::InvalidParametersException
;	COMDAT xdata$x
xdata$x	SEGMENT
__unwindtable$??0InvalidParametersException@Ogre@@QAE@ABV01@@Z DD 0ffffffffH
	DD	FLAT:__unwindfunclet$??0InvalidParametersException@Ogre@@QAE@ABV01@@Z$0
__ehfuncinfo$??0InvalidParametersException@Ogre@@QAE@ABV01@@Z DD 019930522H
	DD	01H
	DD	FLAT:__unwindtable$??0InvalidParametersException@Ogre@@QAE@ABV01@@Z
	DD	2 DUP(00H)
	DD	2 DUP(00H)
	DD	00H
	DD	00H
; Function compile flags: /Odtp
xdata$x	ENDS
;	COMDAT ??0InvalidParametersException@Ogre@@QAE@ABV01@@Z
_TEXT	SEGMENT
_this$ = -16						; size = 4
__$EHRec$ = -12						; size = 12
___that$ = 8						; size = 4
??0InvalidParametersException@Ogre@@QAE@ABV01@@Z PROC	; Ogre::InvalidParametersException::InvalidParametersException, COMDAT
; _this$ = ecx
	push	ebp
	mov	ebp, esp
	push	-1
	push	__ehhandler$??0InvalidParametersException@Ogre@@QAE@ABV01@@Z
	mov	eax, DWORD PTR fs:0
	push	eax
	push	ecx
	mov	eax, DWORD PTR ___security_cookie
	xor	eax, ebp
	push	eax
	lea	eax, DWORD PTR __$EHRec$[ebp]
	mov	DWORD PTR fs:0, eax
	mov	DWORD PTR _this$[ebp], ecx
	mov	eax, DWORD PTR ___that$[ebp]
	push	eax
	mov	ecx, DWORD PTR _this$[ebp]
	call	??0Exception@Ogre@@QAE@ABV01@@Z		; Ogre::Exception::Exception
	mov	DWORD PTR __$EHRec$[ebp+8], 0
	mov	ecx, DWORD PTR _this$[ebp]
	mov	DWORD PTR [ecx], OFFSET ??_7InvalidParametersException@Ogre@@6B@
	mov	DWORD PTR __$EHRec$[ebp+8], -1
	mov	eax, DWORD PTR _this$[ebp]
	mov	ecx, DWORD PTR __$EHRec$[ebp]
	mov	DWORD PTR fs:0, ecx
	pop	ecx
	mov	esp, ebp
	pop	ebp
	ret	4
_TEXT	ENDS
;	COMDAT text$x
text$x	SEGMENT
__unwindfunclet$??0InvalidParametersException@Ogre@@QAE@ABV01@@Z$0:
	mov	ecx, DWORD PTR _this$[ebp]
	jmp	??1Exception@Ogre@@UAE@XZ		; Ogre::Exception::~Exception
__ehhandler$??0InvalidParametersException@Ogre@@QAE@ABV01@@Z:
	mov	edx, DWORD PTR [esp+8]
	lea	eax, DWORD PTR [edx+12]
	mov	ecx, DWORD PTR [edx-8]
	xor	ecx, eax
	call	@__security_check_cookie@4
	mov	eax, OFFSET __ehfuncinfo$??0InvalidParametersException@Ogre@@QAE@ABV01@@Z
	jmp	___CxxFrameHandler3
text$x	ENDS
??0InvalidParametersException@Ogre@@QAE@ABV01@@Z ENDP	; Ogre::InvalidParametersException::InvalidParametersException
PUBLIC	??4InvalidParametersException@Ogre@@QAEAAV01@ABV01@@Z ; Ogre::InvalidParametersException::operator=
; Function compile flags: /Odtp
;	COMDAT ??4InvalidParametersException@Ogre@@QAEAAV01@ABV01@@Z
_TEXT	SEGMENT
_this$ = -4						; size = 4
___that$ = 8						; size = 4
??4InvalidParametersException@Ogre@@QAEAAV01@ABV01@@Z PROC ; Ogre::InvalidParametersException::operator=, COMDAT
; _this$ = ecx
	push	ebp
	mov	ebp, esp
	push	ecx
	mov	DWORD PTR _this$[ebp], ecx
	mov	eax, DWORD PTR ___that$[ebp]
	push	eax
	mov	ecx, DWORD PTR _this$[ebp]
	call	??4Exception@Ogre@@QAEXABV01@@Z		; Ogre::Exception::operator=
	mov	eax, DWORD PTR _this$[ebp]
	mov	esp, ebp
	pop	ebp
	ret	4
??4InvalidParametersException@Ogre@@QAEAAV01@ABV01@@Z ENDP ; Ogre::InvalidParametersException::operator=
_TEXT	ENDS
PUBLIC	??_GInvalidParametersException@Ogre@@UAEPAXI@Z	; Ogre::InvalidParametersException::`scalar deleting destructor'
; Function compile flags: /Odtp
;	COMDAT ??_GInvalidParametersException@Ogre@@UAEPAXI@Z
_TEXT	SEGMENT
_this$ = -4						; size = 4
___flags$ = 8						; size = 4
??_GInvalidParametersException@Ogre@@UAEPAXI@Z PROC	; Ogre::InvalidParametersException::`scalar deleting destructor', COMDAT
; _this$ = ecx
	push	ebp
	mov	ebp, esp
	push	ecx
	mov	DWORD PTR _this$[ebp], ecx
	mov	ecx, DWORD PTR _this$[ebp]
	call	??1InvalidParametersException@Ogre@@UAE@XZ
	mov	eax, DWORD PTR ___flags$[ebp]
	and	eax, 1
	je	SHORT $LN1@scalar@15
	mov	ecx, DWORD PTR _this$[ebp]
	push	ecx
	call	??3@YAXPAX@Z				; operator delete
	add	esp, 4
$LN1@scalar@15:
	mov	eax, DWORD PTR _this$[ebp]
	mov	esp, ebp
	pop	ebp
	ret	4
??_GInvalidParametersException@Ogre@@UAEPAXI@Z ENDP	; Ogre::InvalidParametersException::`scalar deleting destructor'
; Function compile flags: /Odtp
_TEXT	ENDS
;	COMDAT ??_EInvalidParametersException@Ogre@@UAEPAXI@Z
_TEXT	SEGMENT
_this$ = -4						; size = 4
___flags$ = 8						; size = 4
??_EInvalidParametersException@Ogre@@UAEPAXI@Z PROC	; Ogre::InvalidParametersException::`vector deleting destructor', COMDAT
; _this$ = ecx
	push	ebp
	mov	ebp, esp
	push	ecx
	mov	DWORD PTR _this$[ebp], ecx
	mov	eax, DWORD PTR ___flags$[ebp]
	and	eax, 2
	je	SHORT $LN3@vector@15
	push	OFFSET ??1InvalidParametersException@Ogre@@UAE@XZ
	mov	ecx, DWORD PTR _this$[ebp]
	mov	edx, DWORD PTR [ecx-4]
	push	edx
	push	160					; 000000a0H
	mov	eax, DWORD PTR _this$[ebp]
	push	eax
	call	??_M@YGXPAXIHP6EX0@Z@Z
	mov	ecx, DWORD PTR ___flags$[ebp]
	and	ecx, 1
	je	SHORT $LN2@vector@15
	mov	edx, DWORD PTR _this$[ebp]
	sub	edx, 4
	push	edx
	call	??_V@YAXPAX@Z				; operator delete[]
	add	esp, 4
$LN2@vector@15:
	mov	eax, DWORD PTR _this$[ebp]
	sub	eax, 4
	jmp	SHORT $LN4@vector@15
$LN3@vector@15:
	mov	ecx, DWORD PTR _this$[ebp]
	call	??1InvalidParametersException@Ogre@@UAE@XZ
	mov	eax, DWORD PTR ___flags$[ebp]
	and	eax, 1
	je	SHORT $LN1@vector@15
	mov	ecx, DWORD PTR _this$[ebp]
	push	ecx
	call	??3@YAXPAX@Z				; operator delete
	add	esp, 4
$LN1@vector@15:
	mov	eax, DWORD PTR _this$[ebp]
$LN4@vector@15:
	mov	esp, ebp
	pop	ebp
	ret	4
??_EInvalidParametersException@Ogre@@UAEPAXI@Z ENDP	; Ogre::InvalidParametersException::`vector deleting destructor'
_TEXT	ENDS
PUBLIC	??_7ItemIdentityException@Ogre@@6B@		; Ogre::ItemIdentityException::`vftable'
PUBLIC	??_C@_0BG@GKPHAEHJ@ItemIdentityException?$AA@	; `string'
PUBLIC	??0ItemIdentityException@Ogre@@QAE@HABV?$basic_string@DU?$char_traits@D@std@@V?$allocator@D@2@@std@@0PBDJ@Z ; Ogre::ItemIdentityException::ItemIdentityException
PUBLIC	??_R4ItemIdentityException@Ogre@@6B@		; Ogre::ItemIdentityException::`RTTI Complete Object Locator'
PUBLIC	??_R0?AVItemIdentityException@Ogre@@@8		; Ogre::ItemIdentityException `RTTI Type Descriptor'
PUBLIC	??_R3ItemIdentityException@Ogre@@8		; Ogre::ItemIdentityException::`RTTI Class Hierarchy Descriptor'
PUBLIC	??_R2ItemIdentityException@Ogre@@8		; Ogre::ItemIdentityException::`RTTI Base Class Array'
PUBLIC	??_R1A@?0A@EA@ItemIdentityException@Ogre@@8	; Ogre::ItemIdentityException::`RTTI Base Class Descriptor at (0,-1,0,64)'
PUBLIC	??_EItemIdentityException@Ogre@@UAEPAXI@Z	; Ogre::ItemIdentityException::`vector deleting destructor'
;	COMDAT ??_R1A@?0A@EA@ItemIdentityException@Ogre@@8
rdata$r	SEGMENT
??_R1A@?0A@EA@ItemIdentityException@Ogre@@8 DD FLAT:??_R0?AVItemIdentityException@Ogre@@@8 ; Ogre::ItemIdentityException::`RTTI Base Class Descriptor at (0,-1,0,64)'
	DD	02H
	DD	00H
	DD	0ffffffffH
	DD	00H
	DD	040H
	DD	FLAT:??_R3ItemIdentityException@Ogre@@8
rdata$r	ENDS
;	COMDAT ??_R2ItemIdentityException@Ogre@@8
rdata$r	SEGMENT
??_R2ItemIdentityException@Ogre@@8 DD FLAT:??_R1A@?0A@EA@ItemIdentityException@Ogre@@8 ; Ogre::ItemIdentityException::`RTTI Base Class Array'
	DD	FLAT:??_R1A@?0A@EA@Exception@Ogre@@8
	DD	FLAT:??_R1A@?0A@EA@exception@std@@8
rdata$r	ENDS
;	COMDAT ??_R3ItemIdentityException@Ogre@@8
rdata$r	SEGMENT
??_R3ItemIdentityException@Ogre@@8 DD 00H		; Ogre::ItemIdentityException::`RTTI Class Hierarchy Descriptor'
	DD	00H
	DD	03H
	DD	FLAT:??_R2ItemIdentityException@Ogre@@8
rdata$r	ENDS
;	COMDAT ??_R0?AVItemIdentityException@Ogre@@@8
_DATA	SEGMENT
??_R0?AVItemIdentityException@Ogre@@@8 DD FLAT:??_7type_info@@6B@ ; Ogre::ItemIdentityException `RTTI Type Descriptor'
	DD	00H
	DB	'.?AVItemIdentityException@Ogre@@', 00H
_DATA	ENDS
;	COMDAT ??_R4ItemIdentityException@Ogre@@6B@
rdata$r	SEGMENT
??_R4ItemIdentityException@Ogre@@6B@ DD 00H		; Ogre::ItemIdentityException::`RTTI Complete Object Locator'
	DD	00H
	DD	00H
	DD	FLAT:??_R0?AVItemIdentityException@Ogre@@@8
	DD	FLAT:??_R3ItemIdentityException@Ogre@@8
rdata$r	ENDS
;	COMDAT ??_7ItemIdentityException@Ogre@@6B@
CONST	SEGMENT
??_7ItemIdentityException@Ogre@@6B@ DD FLAT:??_R4ItemIdentityException@Ogre@@6B@ ; Ogre::ItemIdentityException::`vftable'
	DD	FLAT:??_EItemIdentityException@Ogre@@UAEPAXI@Z
	DD	FLAT:?what@Exception@Ogre@@UBEPBDXZ
	DD	FLAT:?getFullDescription@Exception@Ogre@@UBEABV?$basic_string@DU?$char_traits@D@std@@V?$allocator@D@2@@std@@XZ
	DD	FLAT:?getNumber@Exception@Ogre@@UBEHXZ
	DD	FLAT:?getSource@Exception@Ogre@@UBEABV?$basic_string@DU?$char_traits@D@std@@V?$allocator@D@2@@std@@XZ
	DD	FLAT:?getFile@Exception@Ogre@@UBEABV?$basic_string@DU?$char_traits@D@std@@V?$allocator@D@2@@std@@XZ
	DD	FLAT:?getLine@Exception@Ogre@@UBEJXZ
	DD	FLAT:?getDescription@Exception@Ogre@@UBEABV?$basic_string@DU?$char_traits@D@std@@V?$allocator@D@2@@std@@XZ
CONST	ENDS
;	COMDAT ??_C@_0BG@GKPHAEHJ@ItemIdentityException?$AA@
CONST	SEGMENT
??_C@_0BG@GKPHAEHJ@ItemIdentityException?$AA@ DB 'ItemIdentityException', 00H ; `string'
CONST	ENDS
;	COMDAT xdata$x
xdata$x	SEGMENT
__unwindtable$??0ItemIdentityException@Ogre@@QAE@HABV?$basic_string@DU?$char_traits@D@std@@V?$allocator@D@2@@std@@0PBDJ@Z DD 0ffffffffH
	DD	FLAT:__unwindfunclet$??0ItemIdentityException@Ogre@@QAE@HABV?$basic_string@DU?$char_traits@D@std@@V?$allocator@D@2@@std@@0PBDJ@Z$0
__ehfuncinfo$??0ItemIdentityException@Ogre@@QAE@HABV?$basic_string@DU?$char_traits@D@std@@V?$allocator@D@2@@std@@0PBDJ@Z DD 019930522H
	DD	01H
	DD	FLAT:__unwindtable$??0ItemIdentityException@Ogre@@QAE@HABV?$basic_string@DU?$char_traits@D@std@@V?$allocator@D@2@@std@@0PBDJ@Z
	DD	2 DUP(00H)
	DD	2 DUP(00H)
	DD	00H
	DD	00H
; Function compile flags: /Odtp
xdata$x	ENDS
;	COMDAT ??0ItemIdentityException@Ogre@@QAE@HABV?$basic_string@DU?$char_traits@D@std@@V?$allocator@D@2@@std@@0PBDJ@Z
_TEXT	SEGMENT
_this$ = -16						; size = 4
__$EHRec$ = -12						; size = 12
_number$ = 8						; size = 4
_description$ = 12					; size = 4
_source$ = 16						; size = 4
_file$ = 20						; size = 4
_line$ = 24						; size = 4
??0ItemIdentityException@Ogre@@QAE@HABV?$basic_string@DU?$char_traits@D@std@@V?$allocator@D@2@@std@@0PBDJ@Z PROC ; Ogre::ItemIdentityException::ItemIdentityException, COMDAT
; _this$ = ecx

; 221  : 		ItemIdentityException(int number, const String& description, const String& source, const char* file, long line)

	push	ebp
	mov	ebp, esp
	push	-1
	push	__ehhandler$??0ItemIdentityException@Ogre@@QAE@HABV?$basic_string@DU?$char_traits@D@std@@V?$allocator@D@2@@std@@0PBDJ@Z
	mov	eax, DWORD PTR fs:0
	push	eax
	push	ecx
	mov	eax, DWORD PTR ___security_cookie
	xor	eax, ebp
	push	eax
	lea	eax, DWORD PTR __$EHRec$[ebp]
	mov	DWORD PTR fs:0, eax
	mov	DWORD PTR _this$[ebp], ecx
	mov	eax, DWORD PTR _line$[ebp]
	push	eax
	mov	ecx, DWORD PTR _file$[ebp]
	push	ecx
	push	OFFSET ??_C@_0BG@GKPHAEHJ@ItemIdentityException?$AA@
	mov	edx, DWORD PTR _source$[ebp]
	push	edx
	mov	eax, DWORD PTR _description$[ebp]
	push	eax
	mov	ecx, DWORD PTR _number$[ebp]
	push	ecx
	mov	ecx, DWORD PTR _this$[ebp]
	call	??0Exception@Ogre@@QAE@HABV?$basic_string@DU?$char_traits@D@std@@V?$allocator@D@2@@std@@0PBD1J@Z ; Ogre::Exception::Exception
	mov	DWORD PTR __$EHRec$[ebp+8], 0
	mov	edx, DWORD PTR _this$[ebp]
	mov	DWORD PTR [edx], OFFSET ??_7ItemIdentityException@Ogre@@6B@
	mov	DWORD PTR __$EHRec$[ebp+8], -1
	mov	eax, DWORD PTR _this$[ebp]
	mov	ecx, DWORD PTR __$EHRec$[ebp]
	mov	DWORD PTR fs:0, ecx
	pop	ecx
	mov	esp, ebp
	pop	ebp
	ret	20					; 00000014H
_TEXT	ENDS
;	COMDAT text$x
text$x	SEGMENT
__unwindfunclet$??0ItemIdentityException@Ogre@@QAE@HABV?$basic_string@DU?$char_traits@D@std@@V?$allocator@D@2@@std@@0PBDJ@Z$0:
	mov	ecx, DWORD PTR _this$[ebp]
	jmp	??1Exception@Ogre@@UAE@XZ		; Ogre::Exception::~Exception
__ehhandler$??0ItemIdentityException@Ogre@@QAE@HABV?$basic_string@DU?$char_traits@D@std@@V?$allocator@D@2@@std@@0PBDJ@Z:
	mov	edx, DWORD PTR [esp+8]
	lea	eax, DWORD PTR [edx+12]
	mov	ecx, DWORD PTR [edx-8]
	xor	ecx, eax
	call	@__security_check_cookie@4
	mov	eax, OFFSET __ehfuncinfo$??0ItemIdentityException@Ogre@@QAE@HABV?$basic_string@DU?$char_traits@D@std@@V?$allocator@D@2@@std@@0PBDJ@Z
	jmp	___CxxFrameHandler3
text$x	ENDS
??0ItemIdentityException@Ogre@@QAE@HABV?$basic_string@DU?$char_traits@D@std@@V?$allocator@D@2@@std@@0PBDJ@Z ENDP ; Ogre::ItemIdentityException::ItemIdentityException
PUBLIC	??1ItemIdentityException@Ogre@@UAE@XZ		; Ogre::ItemIdentityException::~ItemIdentityException
;	COMDAT xdata$x
xdata$x	SEGMENT
__unwindtable$??1ItemIdentityException@Ogre@@UAE@XZ DD 0ffffffffH
	DD	FLAT:__unwindfunclet$??1ItemIdentityException@Ogre@@UAE@XZ$0
__ehfuncinfo$??1ItemIdentityException@Ogre@@UAE@XZ DD 019930522H
	DD	01H
	DD	FLAT:__unwindtable$??1ItemIdentityException@Ogre@@UAE@XZ
	DD	2 DUP(00H)
	DD	2 DUP(00H)
	DD	00H
	DD	00H
; Function compile flags: /Odtp
xdata$x	ENDS
;	COMDAT ??1ItemIdentityException@Ogre@@UAE@XZ
_TEXT	SEGMENT
_this$ = -16						; size = 4
__$EHRec$ = -12						; size = 12
??1ItemIdentityException@Ogre@@UAE@XZ PROC		; Ogre::ItemIdentityException::~ItemIdentityException, COMDAT
; _this$ = ecx
	push	ebp
	mov	ebp, esp
	push	-1
	push	__ehhandler$??1ItemIdentityException@Ogre@@UAE@XZ
	mov	eax, DWORD PTR fs:0
	push	eax
	push	ecx
	mov	eax, DWORD PTR ___security_cookie
	xor	eax, ebp
	push	eax
	lea	eax, DWORD PTR __$EHRec$[ebp]
	mov	DWORD PTR fs:0, eax
	mov	DWORD PTR _this$[ebp], ecx
	mov	DWORD PTR __$EHRec$[ebp+8], 0
	mov	DWORD PTR __$EHRec$[ebp+8], -1
	mov	ecx, DWORD PTR _this$[ebp]
	call	??1Exception@Ogre@@UAE@XZ		; Ogre::Exception::~Exception
	mov	ecx, DWORD PTR __$EHRec$[ebp]
	mov	DWORD PTR fs:0, ecx
	pop	ecx
	mov	esp, ebp
	pop	ebp
	ret	0
_TEXT	ENDS
;	COMDAT text$x
text$x	SEGMENT
__unwindfunclet$??1ItemIdentityException@Ogre@@UAE@XZ$0:
	mov	ecx, DWORD PTR _this$[ebp]
	jmp	??1Exception@Ogre@@UAE@XZ		; Ogre::Exception::~Exception
__ehhandler$??1ItemIdentityException@Ogre@@UAE@XZ:
	mov	edx, DWORD PTR [esp+8]
	lea	eax, DWORD PTR [edx+12]
	mov	ecx, DWORD PTR [edx-8]
	xor	ecx, eax
	call	@__security_check_cookie@4
	mov	eax, OFFSET __ehfuncinfo$??1ItemIdentityException@Ogre@@UAE@XZ
	jmp	___CxxFrameHandler3
text$x	ENDS
??1ItemIdentityException@Ogre@@UAE@XZ ENDP		; Ogre::ItemIdentityException::~ItemIdentityException
PUBLIC	??0ItemIdentityException@Ogre@@QAE@ABV01@@Z	; Ogre::ItemIdentityException::ItemIdentityException
;	COMDAT xdata$x
xdata$x	SEGMENT
__unwindtable$??0ItemIdentityException@Ogre@@QAE@ABV01@@Z DD 0ffffffffH
	DD	FLAT:__unwindfunclet$??0ItemIdentityException@Ogre@@QAE@ABV01@@Z$0
__ehfuncinfo$??0ItemIdentityException@Ogre@@QAE@ABV01@@Z DD 019930522H
	DD	01H
	DD	FLAT:__unwindtable$??0ItemIdentityException@Ogre@@QAE@ABV01@@Z
	DD	2 DUP(00H)
	DD	2 DUP(00H)
	DD	00H
	DD	00H
; Function compile flags: /Odtp
xdata$x	ENDS
;	COMDAT ??0ItemIdentityException@Ogre@@QAE@ABV01@@Z
_TEXT	SEGMENT
_this$ = -16						; size = 4
__$EHRec$ = -12						; size = 12
___that$ = 8						; size = 4
??0ItemIdentityException@Ogre@@QAE@ABV01@@Z PROC	; Ogre::ItemIdentityException::ItemIdentityException, COMDAT
; _this$ = ecx
	push	ebp
	mov	ebp, esp
	push	-1
	push	__ehhandler$??0ItemIdentityException@Ogre@@QAE@ABV01@@Z
	mov	eax, DWORD PTR fs:0
	push	eax
	push	ecx
	mov	eax, DWORD PTR ___security_cookie
	xor	eax, ebp
	push	eax
	lea	eax, DWORD PTR __$EHRec$[ebp]
	mov	DWORD PTR fs:0, eax
	mov	DWORD PTR _this$[ebp], ecx
	mov	eax, DWORD PTR ___that$[ebp]
	push	eax
	mov	ecx, DWORD PTR _this$[ebp]
	call	??0Exception@Ogre@@QAE@ABV01@@Z		; Ogre::Exception::Exception
	mov	DWORD PTR __$EHRec$[ebp+8], 0
	mov	ecx, DWORD PTR _this$[ebp]
	mov	DWORD PTR [ecx], OFFSET ??_7ItemIdentityException@Ogre@@6B@
	mov	DWORD PTR __$EHRec$[ebp+8], -1
	mov	eax, DWORD PTR _this$[ebp]
	mov	ecx, DWORD PTR __$EHRec$[ebp]
	mov	DWORD PTR fs:0, ecx
	pop	ecx
	mov	esp, ebp
	pop	ebp
	ret	4
_TEXT	ENDS
;	COMDAT text$x
text$x	SEGMENT
__unwindfunclet$??0ItemIdentityException@Ogre@@QAE@ABV01@@Z$0:
	mov	ecx, DWORD PTR _this$[ebp]
	jmp	??1Exception@Ogre@@UAE@XZ		; Ogre::Exception::~Exception
__ehhandler$??0ItemIdentityException@Ogre@@QAE@ABV01@@Z:
	mov	edx, DWORD PTR [esp+8]
	lea	eax, DWORD PTR [edx+12]
	mov	ecx, DWORD PTR [edx-8]
	xor	ecx, eax
	call	@__security_check_cookie@4
	mov	eax, OFFSET __ehfuncinfo$??0ItemIdentityException@Ogre@@QAE@ABV01@@Z
	jmp	___CxxFrameHandler3
text$x	ENDS
??0ItemIdentityException@Ogre@@QAE@ABV01@@Z ENDP	; Ogre::ItemIdentityException::ItemIdentityException
PUBLIC	??4ItemIdentityException@Ogre@@QAEAAV01@ABV01@@Z ; Ogre::ItemIdentityException::operator=
; Function compile flags: /Odtp
;	COMDAT ??4ItemIdentityException@Ogre@@QAEAAV01@ABV01@@Z
_TEXT	SEGMENT
_this$ = -4						; size = 4
___that$ = 8						; size = 4
??4ItemIdentityException@Ogre@@QAEAAV01@ABV01@@Z PROC	; Ogre::ItemIdentityException::operator=, COMDAT
; _this$ = ecx
	push	ebp
	mov	ebp, esp
	push	ecx
	mov	DWORD PTR _this$[ebp], ecx
	mov	eax, DWORD PTR ___that$[ebp]
	push	eax
	mov	ecx, DWORD PTR _this$[ebp]
	call	??4Exception@Ogre@@QAEXABV01@@Z		; Ogre::Exception::operator=
	mov	eax, DWORD PTR _this$[ebp]
	mov	esp, ebp
	pop	ebp
	ret	4
??4ItemIdentityException@Ogre@@QAEAAV01@ABV01@@Z ENDP	; Ogre::ItemIdentityException::operator=
_TEXT	ENDS
PUBLIC	??_GItemIdentityException@Ogre@@UAEPAXI@Z	; Ogre::ItemIdentityException::`scalar deleting destructor'
; Function compile flags: /Odtp
;	COMDAT ??_GItemIdentityException@Ogre@@UAEPAXI@Z
_TEXT	SEGMENT
_this$ = -4						; size = 4
___flags$ = 8						; size = 4
??_GItemIdentityException@Ogre@@UAEPAXI@Z PROC		; Ogre::ItemIdentityException::`scalar deleting destructor', COMDAT
; _this$ = ecx
	push	ebp
	mov	ebp, esp
	push	ecx
	mov	DWORD PTR _this$[ebp], ecx
	mov	ecx, DWORD PTR _this$[ebp]
	call	??1ItemIdentityException@Ogre@@UAE@XZ
	mov	eax, DWORD PTR ___flags$[ebp]
	and	eax, 1
	je	SHORT $LN1@scalar@16
	mov	ecx, DWORD PTR _this$[ebp]
	push	ecx
	call	??3@YAXPAX@Z				; operator delete
	add	esp, 4
$LN1@scalar@16:
	mov	eax, DWORD PTR _this$[ebp]
	mov	esp, ebp
	pop	ebp
	ret	4
??_GItemIdentityException@Ogre@@UAEPAXI@Z ENDP		; Ogre::ItemIdentityException::`scalar deleting destructor'
; Function compile flags: /Odtp
_TEXT	ENDS
;	COMDAT ??_EItemIdentityException@Ogre@@UAEPAXI@Z
_TEXT	SEGMENT
_this$ = -4						; size = 4
___flags$ = 8						; size = 4
??_EItemIdentityException@Ogre@@UAEPAXI@Z PROC		; Ogre::ItemIdentityException::`vector deleting destructor', COMDAT
; _this$ = ecx
	push	ebp
	mov	ebp, esp
	push	ecx
	mov	DWORD PTR _this$[ebp], ecx
	mov	eax, DWORD PTR ___flags$[ebp]
	and	eax, 2
	je	SHORT $LN3@vector@16
	push	OFFSET ??1ItemIdentityException@Ogre@@UAE@XZ
	mov	ecx, DWORD PTR _this$[ebp]
	mov	edx, DWORD PTR [ecx-4]
	push	edx
	push	160					; 000000a0H
	mov	eax, DWORD PTR _this$[ebp]
	push	eax
	call	??_M@YGXPAXIHP6EX0@Z@Z
	mov	ecx, DWORD PTR ___flags$[ebp]
	and	ecx, 1
	je	SHORT $LN2@vector@16
	mov	edx, DWORD PTR _this$[ebp]
	sub	edx, 4
	push	edx
	call	??_V@YAXPAX@Z				; operator delete[]
	add	esp, 4
$LN2@vector@16:
	mov	eax, DWORD PTR _this$[ebp]
	sub	eax, 4
	jmp	SHORT $LN4@vector@16
$LN3@vector@16:
	mov	ecx, DWORD PTR _this$[ebp]
	call	??1ItemIdentityException@Ogre@@UAE@XZ
	mov	eax, DWORD PTR ___flags$[ebp]
	and	eax, 1
	je	SHORT $LN1@vector@16
	mov	ecx, DWORD PTR _this$[ebp]
	push	ecx
	call	??3@YAXPAX@Z				; operator delete
	add	esp, 4
$LN1@vector@16:
	mov	eax, DWORD PTR _this$[ebp]
$LN4@vector@16:
	mov	esp, ebp
	pop	ebp
	ret	4
??_EItemIdentityException@Ogre@@UAEPAXI@Z ENDP		; Ogre::ItemIdentityException::`vector deleting destructor'
_TEXT	ENDS
PUBLIC	??_7InternalErrorException@Ogre@@6B@		; Ogre::InternalErrorException::`vftable'
PUBLIC	??_C@_0BH@KFMOHEEH@InternalErrorException?$AA@	; `string'
PUBLIC	??0InternalErrorException@Ogre@@QAE@HABV?$basic_string@DU?$char_traits@D@std@@V?$allocator@D@2@@std@@0PBDJ@Z ; Ogre::InternalErrorException::InternalErrorException
PUBLIC	??_R4InternalErrorException@Ogre@@6B@		; Ogre::InternalErrorException::`RTTI Complete Object Locator'
PUBLIC	??_R0?AVInternalErrorException@Ogre@@@8		; Ogre::InternalErrorException `RTTI Type Descriptor'
PUBLIC	??_R3InternalErrorException@Ogre@@8		; Ogre::InternalErrorException::`RTTI Class Hierarchy Descriptor'
PUBLIC	??_R2InternalErrorException@Ogre@@8		; Ogre::InternalErrorException::`RTTI Base Class Array'
PUBLIC	??_R1A@?0A@EA@InternalErrorException@Ogre@@8	; Ogre::InternalErrorException::`RTTI Base Class Descriptor at (0,-1,0,64)'
PUBLIC	??_EInternalErrorException@Ogre@@UAEPAXI@Z	; Ogre::InternalErrorException::`vector deleting destructor'
;	COMDAT ??_R1A@?0A@EA@InternalErrorException@Ogre@@8
rdata$r	SEGMENT
