; Listing generated by Microsoft (R) Optimizing Compiler Version 15.00.30729.01 

	TITLE	i:\svnroot\client\OgreMain\OgreSkeletonData.cpp
	.686P
	.XMM
	include listing.inc
	.model	flat

INCLUDELIB MSVCRT
INCLUDELIB OLDNAMES

PUBLIC	?_Value@?$_Is_swap_move@U_Swap_move_tag@std@@@std@@2_NB ; std::_Is_swap_move<std::_Swap_move_tag>::_Value
PUBLIC	?collate@?$_Locbase@H@std@@2HB			; std::_Locbase<int>::collate
PUBLIC	?ctype@?$_Locbase@H@std@@2HB			; std::_Locbase<int>::ctype
PUBLIC	?monetary@?$_Locbase@H@std@@2HB			; std::_Locbase<int>::monetary
PUBLIC	?numeric@?$_Locbase@H@std@@2HB			; std::_Locbase<int>::numeric
PUBLIC	?time@?$_Locbase@H@std@@2HB			; std::_Locbase<int>::time
PUBLIC	?messages@?$_Locbase@H@std@@2HB			; std::_Locbase<int>::messages
PUBLIC	?all@?$_Locbase@H@std@@2HB			; std::_Locbase<int>::all
PUBLIC	?none@?$_Locbase@H@std@@2HB			; std::_Locbase<int>::none
PUBLIC	?skipws@?$_Iosb@H@std@@2W4_Fmtflags@12@B	; std::_Iosb<int>::skipws
PUBLIC	?unitbuf@?$_Iosb@H@std@@2W4_Fmtflags@12@B	; std::_Iosb<int>::unitbuf
PUBLIC	?uppercase@?$_Iosb@H@std@@2W4_Fmtflags@12@B	; std::_Iosb<int>::uppercase
PUBLIC	?showbase@?$_Iosb@H@std@@2W4_Fmtflags@12@B	; std::_Iosb<int>::showbase
PUBLIC	?showpoint@?$_Iosb@H@std@@2W4_Fmtflags@12@B	; std::_Iosb<int>::showpoint
PUBLIC	?showpos@?$_Iosb@H@std@@2W4_Fmtflags@12@B	; std::_Iosb<int>::showpos
PUBLIC	?left@?$_Iosb@H@std@@2W4_Fmtflags@12@B		; std::_Iosb<int>::left
PUBLIC	?right@?$_Iosb@H@std@@2W4_Fmtflags@12@B		; std::_Iosb<int>::right
PUBLIC	?internal@?$_Iosb@H@std@@2W4_Fmtflags@12@B	; std::_Iosb<int>::internal
PUBLIC	?dec@?$_Iosb@H@std@@2W4_Fmtflags@12@B		; std::_Iosb<int>::dec
PUBLIC	?oct@?$_Iosb@H@std@@2W4_Fmtflags@12@B		; std::_Iosb<int>::oct
PUBLIC	?hex@?$_Iosb@H@std@@2W4_Fmtflags@12@B		; std::_Iosb<int>::hex
PUBLIC	?scientific@?$_Iosb@H@std@@2W4_Fmtflags@12@B	; std::_Iosb<int>::scientific
PUBLIC	?fixed@?$_Iosb@H@std@@2W4_Fmtflags@12@B		; std::_Iosb<int>::fixed
PUBLIC	?hexfloat@?$_Iosb@H@std@@2W4_Fmtflags@12@B	; std::_Iosb<int>::hexfloat
PUBLIC	?boolalpha@?$_Iosb@H@std@@2W4_Fmtflags@12@B	; std::_Iosb<int>::boolalpha
PUBLIC	?_Stdio@?$_Iosb@H@std@@2W4_Fmtflags@12@B	; std::_Iosb<int>::_Stdio
PUBLIC	?adjustfield@?$_Iosb@H@std@@2W4_Fmtflags@12@B	; std::_Iosb<int>::adjustfield
PUBLIC	?basefield@?$_Iosb@H@std@@2W4_Fmtflags@12@B	; std::_Iosb<int>::basefield
PUBLIC	?floatfield@?$_Iosb@H@std@@2W4_Fmtflags@12@B	; std::_Iosb<int>::floatfield
PUBLIC	?goodbit@?$_Iosb@H@std@@2W4_Iostate@12@B	; std::_Iosb<int>::goodbit
PUBLIC	?eofbit@?$_Iosb@H@std@@2W4_Iostate@12@B		; std::_Iosb<int>::eofbit
PUBLIC	?failbit@?$_Iosb@H@std@@2W4_Iostate@12@B	; std::_Iosb<int>::failbit
PUBLIC	?badbit@?$_Iosb@H@std@@2W4_Iostate@12@B		; std::_Iosb<int>::badbit
PUBLIC	?_Hardfail@?$_Iosb@H@std@@2W4_Iostate@12@B	; std::_Iosb<int>::_Hardfail
PUBLIC	?in@?$_Iosb@H@std@@2W4_Openmode@12@B		; std::_Iosb<int>::in
PUBLIC	?out@?$_Iosb@H@std@@2W4_Openmode@12@B		; std::_Iosb<int>::out
PUBLIC	?ate@?$_Iosb@H@std@@2W4_Openmode@12@B		; std::_Iosb<int>::ate
PUBLIC	?app@?$_Iosb@H@std@@2W4_Openmode@12@B		; std::_Iosb<int>::app
PUBLIC	?trunc@?$_Iosb@H@std@@2W4_Openmode@12@B		; std::_Iosb<int>::trunc
PUBLIC	?_Nocreate@?$_Iosb@H@std@@2W4_Openmode@12@B	; std::_Iosb<int>::_Nocreate
PUBLIC	?_Noreplace@?$_Iosb@H@std@@2W4_Openmode@12@B	; std::_Iosb<int>::_Noreplace
PUBLIC	?binary@?$_Iosb@H@std@@2W4_Openmode@12@B	; std::_Iosb<int>::binary
PUBLIC	?beg@?$_Iosb@H@std@@2W4_Seekdir@12@B		; std::_Iosb<int>::beg
PUBLIC	?cur@?$_Iosb@H@std@@2W4_Seekdir@12@B		; std::_Iosb<int>::cur
PUBLIC	?end@?$_Iosb@H@std@@2W4_Seekdir@12@B		; std::_Iosb<int>::end
PUBLIC	?value@?$integral_constant@_N$0A@@tr1@std@@2_NB	; std::tr1::integral_constant<bool,0>::value
PUBLIC	?value@?$integral_constant@_N$00@tr1@std@@2_NB	; std::tr1::integral_constant<bool,1>::value
;	COMDAT ?value@?$integral_constant@_N$00@tr1@std@@2_NB
CONST	SEGMENT
?value@?$integral_constant@_N$00@tr1@std@@2_NB DB 01H	; std::tr1::integral_constant<bool,1>::value
CONST	ENDS
;	COMDAT ?value@?$integral_constant@_N$0A@@tr1@std@@2_NB
CONST	SEGMENT
?value@?$integral_constant@_N$0A@@tr1@std@@2_NB DB 00H	; std::tr1::integral_constant<bool,0>::value
CONST	ENDS
;	COMDAT ?end@?$_Iosb@H@std@@2W4_Seekdir@12@B
CONST	SEGMENT
?end@?$_Iosb@H@std@@2W4_Seekdir@12@B DD 02H		; std::_Iosb<int>::end
CONST	ENDS
;	COMDAT ?cur@?$_Iosb@H@std@@2W4_Seekdir@12@B
CONST	SEGMENT
?cur@?$_Iosb@H@std@@2W4_Seekdir@12@B DD 01H		; std::_Iosb<int>::cur
CONST	ENDS
;	COMDAT ?beg@?$_Iosb@H@std@@2W4_Seekdir@12@B
CONST	SEGMENT
?beg@?$_Iosb@H@std@@2W4_Seekdir@12@B DD 00H		; std::_Iosb<int>::beg
CONST	ENDS
;	COMDAT ?binary@?$_Iosb@H@std@@2W4_Openmode@12@B
CONST	SEGMENT
?binary@?$_Iosb@H@std@@2W4_Openmode@12@B DD 020H	; std::_Iosb<int>::binary
CONST	ENDS
;	COMDAT ?_Noreplace@?$_Iosb@H@std@@2W4_Openmode@12@B
CONST	SEGMENT
?_Noreplace@?$_Iosb@H@std@@2W4_Openmode@12@B DD 080H	; std::_Iosb<int>::_Noreplace
CONST	ENDS
;	COMDAT ?_Nocreate@?$_Iosb@H@std@@2W4_Openmode@12@B
CONST	SEGMENT
?_Nocreate@?$_Iosb@H@std@@2W4_Openmode@12@B DD 040H	; std::_Iosb<int>::_Nocreate
CONST	ENDS
;	COMDAT ?trunc@?$_Iosb@H@std@@2W4_Openmode@12@B
CONST	SEGMENT
?trunc@?$_Iosb@H@std@@2W4_Openmode@12@B DD 010H		; std::_Iosb<int>::trunc
CONST	ENDS
;	COMDAT ?app@?$_Iosb@H@std@@2W4_Openmode@12@B
CONST	SEGMENT
?app@?$_Iosb@H@std@@2W4_Openmode@12@B DD 08H		; std::_Iosb<int>::app
CONST	ENDS
;	COMDAT ?ate@?$_Iosb@H@std@@2W4_Openmode@12@B
CONST	SEGMENT
?ate@?$_Iosb@H@std@@2W4_Openmode@12@B DD 04H		; std::_Iosb<int>::ate
CONST	ENDS
;	COMDAT ?out@?$_Iosb@H@std@@2W4_Openmode@12@B
CONST	SEGMENT
?out@?$_Iosb@H@std@@2W4_Openmode@12@B DD 02H		; std::_Iosb<int>::out
CONST	ENDS
;	COMDAT ?in@?$_Iosb@H@std@@2W4_Openmode@12@B
CONST	SEGMENT
?in@?$_Iosb@H@std@@2W4_Openmode@12@B DD 01H		; std::_Iosb<int>::in
CONST	ENDS
;	COMDAT ?_Hardfail@?$_Iosb@H@std@@2W4_Iostate@12@B
CONST	SEGMENT
?_Hardfail@?$_Iosb@H@std@@2W4_Iostate@12@B DD 010H	; std::_Iosb<int>::_Hardfail
CONST	ENDS
;	COMDAT ?badbit@?$_Iosb@H@std@@2W4_Iostate@12@B
CONST	SEGMENT
?badbit@?$_Iosb@H@std@@2W4_Iostate@12@B DD 04H		; std::_Iosb<int>::badbit
CONST	ENDS
;	COMDAT ?failbit@?$_Iosb@H@std@@2W4_Iostate@12@B
CONST	SEGMENT
?failbit@?$_Iosb@H@std@@2W4_Iostate@12@B DD 02H		; std::_Iosb<int>::failbit
CONST	ENDS
;	COMDAT ?eofbit@?$_Iosb@H@std@@2W4_Iostate@12@B
CONST	SEGMENT
?eofbit@?$_Iosb@H@std@@2W4_Iostate@12@B DD 01H		; std::_Iosb<int>::eofbit
CONST	ENDS
;	COMDAT ?goodbit@?$_Iosb@H@std@@2W4_Iostate@12@B
CONST	SEGMENT
?goodbit@?$_Iosb@H@std@@2W4_Iostate@12@B DD 00H		; std::_Iosb<int>::goodbit
CONST	ENDS
;	COMDAT ?floatfield@?$_Iosb@H@std@@2W4_Fmtflags@12@B
CONST	SEGMENT
?floatfield@?$_Iosb@H@std@@2W4_Fmtflags@12@B DD 03000H	; std::_Iosb<int>::floatfield
CONST	ENDS
;	COMDAT ?basefield@?$_Iosb@H@std@@2W4_Fmtflags@12@B
CONST	SEGMENT
?basefield@?$_Iosb@H@std@@2W4_Fmtflags@12@B DD 0e00H	; std::_Iosb<int>::basefield
CONST	ENDS
;	COMDAT ?adjustfield@?$_Iosb@H@std@@2W4_Fmtflags@12@B
CONST	SEGMENT
?adjustfield@?$_Iosb@H@std@@2W4_Fmtflags@12@B DD 01c0H	; std::_Iosb<int>::adjustfield
CONST	ENDS
;	COMDAT ?_Stdio@?$_Iosb@H@std@@2W4_Fmtflags@12@B
CONST	SEGMENT
?_Stdio@?$_Iosb@H@std@@2W4_Fmtflags@12@B DD 08000H	; std::_Iosb<int>::_Stdio
CONST	ENDS
;	COMDAT ?boolalpha@?$_Iosb@H@std@@2W4_Fmtflags@12@B
CONST	SEGMENT
?boolalpha@?$_Iosb@H@std@@2W4_Fmtflags@12@B DD 04000H	; std::_Iosb<int>::boolalpha
CONST	ENDS
;	COMDAT ?hexfloat@?$_Iosb@H@std@@2W4_Fmtflags@12@B
CONST	SEGMENT
?hexfloat@?$_Iosb@H@std@@2W4_Fmtflags@12@B DD 03000H	; std::_Iosb<int>::hexfloat
CONST	ENDS
;	COMDAT ?fixed@?$_Iosb@H@std@@2W4_Fmtflags@12@B
CONST	SEGMENT
?fixed@?$_Iosb@H@std@@2W4_Fmtflags@12@B DD 02000H	; std::_Iosb<int>::fixed
CONST	ENDS
;	COMDAT ?scientific@?$_Iosb@H@std@@2W4_Fmtflags@12@B
CONST	SEGMENT
?scientific@?$_Iosb@H@std@@2W4_Fmtflags@12@B DD 01000H	; std::_Iosb<int>::scientific
CONST	ENDS
;	COMDAT ?hex@?$_Iosb@H@std@@2W4_Fmtflags@12@B
CONST	SEGMENT
?hex@?$_Iosb@H@std@@2W4_Fmtflags@12@B DD 0800H		; std::_Iosb<int>::hex
CONST	ENDS
;	COMDAT ?oct@?$_Iosb@H@std@@2W4_Fmtflags@12@B
CONST	SEGMENT
?oct@?$_Iosb@H@std@@2W4_Fmtflags@12@B DD 0400H		; std::_Iosb<int>::oct
CONST	ENDS
;	COMDAT ?dec@?$_Iosb@H@std@@2W4_Fmtflags@12@B
CONST	SEGMENT
?dec@?$_Iosb@H@std@@2W4_Fmtflags@12@B DD 0200H		; std::_Iosb<int>::dec
CONST	ENDS
;	COMDAT ?internal@?$_Iosb@H@std@@2W4_Fmtflags@12@B
CONST	SEGMENT
?internal@?$_Iosb@H@std@@2W4_Fmtflags@12@B DD 0100H	; std::_Iosb<int>::internal
CONST	ENDS
;	COMDAT ?right@?$_Iosb@H@std@@2W4_Fmtflags@12@B
CONST	SEGMENT
?right@?$_Iosb@H@std@@2W4_Fmtflags@12@B DD 080H		; std::_Iosb<int>::right
CONST	ENDS
;	COMDAT ?left@?$_Iosb@H@std@@2W4_Fmtflags@12@B
CONST	SEGMENT
?left@?$_Iosb@H@std@@2W4_Fmtflags@12@B DD 040H		; std::_Iosb<int>::left
CONST	ENDS
;	COMDAT ?showpos@?$_Iosb@H@std@@2W4_Fmtflags@12@B
CONST	SEGMENT
?showpos@?$_Iosb@H@std@@2W4_Fmtflags@12@B DD 020H	; std::_Iosb<int>::showpos
CONST	ENDS
;	COMDAT ?showpoint@?$_Iosb@H@std@@2W4_Fmtflags@12@B
CONST	SEGMENT
?showpoint@?$_Iosb@H@std@@2W4_Fmtflags@12@B DD 010H	; std::_Iosb<int>::showpoint
CONST	ENDS
;	COMDAT ?showbase@?$_Iosb@H@std@@2W4_Fmtflags@12@B
CONST	SEGMENT
?showbase@?$_Iosb@H@std@@2W4_Fmtflags@12@B DD 08H	; std::_Iosb<int>::showbase
CONST	ENDS
;	COMDAT ?uppercase@?$_Iosb@H@std@@2W4_Fmtflags@12@B
CONST	SEGMENT
?uppercase@?$_Iosb@H@std@@2W4_Fmtflags@12@B DD 04H	; std::_Iosb<int>::uppercase
CONST	ENDS
;	COMDAT ?unitbuf@?$_Iosb@H@std@@2W4_Fmtflags@12@B
CONST	SEGMENT
?unitbuf@?$_Iosb@H@std@@2W4_Fmtflags@12@B DD 02H	; std::_Iosb<int>::unitbuf
CONST	ENDS
;	COMDAT ?skipws@?$_Iosb@H@std@@2W4_Fmtflags@12@B
CONST	SEGMENT
?skipws@?$_Iosb@H@std@@2W4_Fmtflags@12@B DD 01H		; std::_Iosb<int>::skipws
CONST	ENDS
;	COMDAT ?none@?$_Locbase@H@std@@2HB
CONST	SEGMENT
?none@?$_Locbase@H@std@@2HB DD 00H			; std::_Locbase<int>::none
CONST	ENDS
;	COMDAT ?all@?$_Locbase@H@std@@2HB
CONST	SEGMENT
?all@?$_Locbase@H@std@@2HB DD 03fH			; std::_Locbase<int>::all
CONST	ENDS
;	COMDAT ?messages@?$_Locbase@H@std@@2HB
CONST	SEGMENT
?messages@?$_Locbase@H@std@@2HB DD 020H			; std::_Locbase<int>::messages
CONST	ENDS
;	COMDAT ?time@?$_Locbase@H@std@@2HB
CONST	SEGMENT
?time@?$_Locbase@H@std@@2HB DD 010H			; std::_Locbase<int>::time
CONST	ENDS
;	COMDAT ?numeric@?$_Locbase@H@std@@2HB
CONST	SEGMENT
?numeric@?$_Locbase@H@std@@2HB DD 08H			; std::_Locbase<int>::numeric
CONST	ENDS
;	COMDAT ?monetary@?$_Locbase@H@std@@2HB
CONST	SEGMENT
?monetary@?$_Locbase@H@std@@2HB DD 04H			; std::_Locbase<int>::monetary
CONST	ENDS
;	COMDAT ?ctype@?$_Locbase@H@std@@2HB
CONST	SEGMENT
?ctype@?$_Locbase@H@std@@2HB DD 02H			; std::_Locbase<int>::ctype
CONST	ENDS
;	COMDAT ?collate@?$_Locbase@H@std@@2HB
CONST	SEGMENT
?collate@?$_Locbase@H@std@@2HB DD 01H			; std::_Locbase<int>::collate
CONST	ENDS
;	COMDAT ?_Value@?$_Is_swap_move@U_Swap_move_tag@std@@@std@@2_NB
CONST	SEGMENT
?_Value@?$_Is_swap_move@U_Swap_move_tag@std@@@std@@2_NB DB 01H ; std::_Is_swap_move<std::_Swap_move_tag>::_Value
CONST	ENDS
_DATA	SEGMENT
__bad_alloc_Message DD FLAT:$SG5715
_DATA	ENDS
CONST	SEGMENT
$SG5715	DB	'bad allocation', 00H
	ORG $+1
_MAX_FLOAT DD	07f7fffffr			; 3.40282e+038
_ONE_PI	DD	040490fd0r			; 3.14159
_EPSILON DD	03727c5acr			; 1e-005
_RADS_PER_DEG DD 03c8efa35r			; 0.0174533
_DEGS_PER_RAD DD 042652ee1r			; 57.2958
$SG59251 DB	'BoneData', 00H
	ORG $+3
$SG59255 DB	'SkeletonData', 00H
CONST	ENDS
PUBLIC	??4MemoryDelegation@Ogre@@QAEAAV01@ABV01@@Z	; Ogre::MemoryDelegation::operator=
; Function compile flags: /Odtp
;	COMDAT ??4MemoryDelegation@Ogre@@QAEAAV01@ABV01@@Z
_TEXT	SEGMENT
_this$ = -4						; size = 4
___that$ = 8						; size = 4
??4MemoryDelegation@Ogre@@QAEAAV01@ABV01@@Z PROC	; Ogre::MemoryDelegation::operator=, COMDAT
; _this$ = ecx
	push	ebp
	mov	ebp, esp
	push	ecx
	mov	DWORD PTR _this$[ebp], ecx
	mov	eax, DWORD PTR _this$[ebp]
	mov	esp, ebp
	pop	ebp
	ret	4
??4MemoryDelegation@Ogre@@QAEAAV01@ABV01@@Z ENDP	; Ogre::MemoryDelegation::operator=
_TEXT	ENDS
PUBLIC	?getBaseClass@RuntimeClass@Ogre@@QBEPBV12@XZ	; Ogre::RuntimeClass::getBaseClass
; Function compile flags: /Odtp
; File i:\svnroot\client\ogremain\ogrebaseobject.h
;	COMDAT ?getBaseClass@RuntimeClass@Ogre@@QBEPBV12@XZ
_TEXT	SEGMENT
_this$ = -4						; size = 4
?getBaseClass@RuntimeClass@Ogre@@QBEPBV12@XZ PROC	; Ogre::RuntimeClass::getBaseClass, COMDAT
; _this$ = ecx

; 20   : 		{

	push	ebp
	mov	ebp, esp
	push	ecx
	mov	DWORD PTR _this$[ebp], ecx

; 21   : 			return m_pBaseClass;

	mov	eax, DWORD PTR _this$[ebp]
	mov	eax, DWORD PTR [eax+4]

; 22   : 		}

	mov	esp, ebp
	pop	ebp
	ret	0
?getBaseClass@RuntimeClass@Ogre@@QBEPBV12@XZ ENDP	; Ogre::RuntimeClass::getBaseClass
_TEXT	ENDS
PUBLIC	?getClassName@RuntimeClass@Ogre@@QBEPBDXZ	; Ogre::RuntimeClass::getClassName
; Function compile flags: /Odtp
;	COMDAT ?getClassName@RuntimeClass@Ogre@@QBEPBDXZ
_TEXT	SEGMENT
_this$ = -4						; size = 4
?getClassName@RuntimeClass@Ogre@@QBEPBDXZ PROC		; Ogre::RuntimeClass::getClassName, COMDAT
; _this$ = ecx

; 25   : 		{

	push	ebp
	mov	ebp, esp
	push	ecx
	mov	DWORD PTR _this$[ebp], ecx

; 26   : 			return m_pClassName; 

	mov	eax, DWORD PTR _this$[ebp]
	mov	eax, DWORD PTR [eax]

; 27   : 		}

	mov	esp, ebp
	pop	ebp
	ret	0
?getClassName@RuntimeClass@Ogre@@QBEPBDXZ ENDP		; Ogre::RuntimeClass::getClassName
_TEXT	ENDS
PUBLIC	?getVersion@RuntimeClass@Ogre@@QBEHXZ		; Ogre::RuntimeClass::getVersion
; Function compile flags: /Odtp
;	COMDAT ?getVersion@RuntimeClass@Ogre@@QBEHXZ
_TEXT	SEGMENT
_this$ = -4						; size = 4
?getVersion@RuntimeClass@Ogre@@QBEHXZ PROC		; Ogre::RuntimeClass::getVersion, COMDAT
; _this$ = ecx

; 30   : 		{

	push	ebp
	mov	ebp, esp
	push	ecx
	mov	DWORD PTR _this$[ebp], ecx

; 31   : 			return m_Version;

	mov	eax, DWORD PTR _this$[ebp]
	mov	eax, DWORD PTR [eax+8]

; 32   : 		}

	mov	esp, ebp
	pop	ebp
	ret	0
?getVersion@RuntimeClass@Ogre@@QBEHXZ ENDP		; Ogre::RuntimeClass::getVersion
_TEXT	ENDS
PUBLIC	?newObject@RuntimeClass@Ogre@@QAEPAVBaseObject@2@XZ ; Ogre::RuntimeClass::newObject
; Function compile flags: /Odtp
;	COMDAT ?newObject@RuntimeClass@Ogre@@QAEPAVBaseObject@2@XZ
_TEXT	SEGMENT
_this$ = -4						; size = 4
?newObject@RuntimeClass@Ogre@@QAEPAVBaseObject@2@XZ PROC ; Ogre::RuntimeClass::newObject, COMDAT
; _this$ = ecx

; 35   : 		{

	push	ebp
	mov	ebp, esp
	push	ecx
	mov	DWORD PTR _this$[ebp], ecx

; 36   : 			return (*m_pNewFunc)();

	mov	eax, DWORD PTR _this$[ebp]
	mov	ecx, DWORD PTR [eax+12]
	call	ecx

; 37   : 		}

	mov	esp, ebp
	pop	ebp
	ret	0
?newObject@RuntimeClass@Ogre@@QAEPAVBaseObject@2@XZ ENDP ; Ogre::RuntimeClass::newObject
_TEXT	ENDS
PUBLIC	??4RuntimeClass@Ogre@@QAEAAV01@ABV01@@Z		; Ogre::RuntimeClass::operator=
; Function compile flags: /Odtp
;	COMDAT ??4RuntimeClass@Ogre@@QAEAAV01@ABV01@@Z
_TEXT	SEGMENT
_this$ = -4						; size = 4
___that$ = 8						; size = 4
??4RuntimeClass@Ogre@@QAEAAV01@ABV01@@Z PROC		; Ogre::RuntimeClass::operator=, COMDAT
; _this$ = ecx
	push	ebp
	mov	ebp, esp
	push	ecx
	mov	DWORD PTR _this$[ebp], ecx
	mov	eax, DWORD PTR ___that$[ebp]
	mov	ecx, DWORD PTR _this$[ebp]
	mov	edx, DWORD PTR [eax]
	mov	DWORD PTR [ecx], edx
	mov	edx, DWORD PTR [eax+4]
	mov	DWORD PTR [ecx+4], edx
	mov	edx, DWORD PTR [eax+8]
	mov	DWORD PTR [ecx+8], edx
	mov	edx, DWORD PTR [eax+12]
	mov	DWORD PTR [ecx+12], edx
	mov	eax, DWORD PTR [eax+16]
	mov	DWORD PTR [ecx+16], eax
	mov	eax, DWORD PTR _this$[ebp]
	mov	esp, ebp
	pop	ebp
	ret	4
??4RuntimeClass@Ogre@@QAEAAV01@ABV01@@Z ENDP		; Ogre::RuntimeClass::operator=
_TEXT	ENDS
PUBLIC	?getRTTI@BaseObject@Ogre@@UBEPBVRuntimeClass@2@XZ ; Ogre::BaseObject::getRTTI
EXTRN	?m_RTTI@BaseObject@Ogre@@2VRuntimeClass@2@B:BYTE ; Ogre::BaseObject::m_RTTI
; Function compile flags: /Odtp
;	COMDAT ?getRTTI@BaseObject@Ogre@@UBEPBVRuntimeClass@2@XZ
_TEXT	SEGMENT
_this$ = -4						; size = 4
?getRTTI@BaseObject@Ogre@@UBEPBVRuntimeClass@2@XZ PROC	; Ogre::BaseObject::getRTTI, COMDAT
; _this$ = ecx

; 56   : 		{

	push	ebp
	mov	ebp, esp
	push	ecx
	mov	DWORD PTR _this$[ebp], ecx

; 57   : 			return &m_RTTI;

	mov	eax, OFFSET ?m_RTTI@BaseObject@Ogre@@2VRuntimeClass@2@B ; Ogre::BaseObject::m_RTTI

; 58   : 		}

	mov	esp, ebp
	pop	ebp
	ret	0
?getRTTI@BaseObject@Ogre@@UBEPBVRuntimeClass@2@XZ ENDP	; Ogre::BaseObject::getRTTI
_TEXT	ENDS
PUBLIC	?isExactKindOf@BaseObject@Ogre@@QBE_NPBVRuntimeClass@2@@Z ; Ogre::BaseObject::isExactKindOf
; Function compile flags: /Odtp
;	COMDAT ?isExactKindOf@BaseObject@Ogre@@QBE_NPBVRuntimeClass@2@@Z
_TEXT	SEGMENT
_this$ = -4						; size = 4
_prtti$ = 8						; size = 4
?isExactKindOf@BaseObject@Ogre@@QBE_NPBVRuntimeClass@2@@Z PROC ; Ogre::BaseObject::isExactKindOf, COMDAT
; _this$ = ecx

; 61   : 		{

	push	ebp
	mov	ebp, esp
	push	ecx
	mov	DWORD PTR _this$[ebp], ecx

; 62   : 			return (getRTTI() == prtti);

	mov	eax, DWORD PTR _this$[ebp]
	mov	edx, DWORD PTR [eax]
	mov	ecx, DWORD PTR _this$[ebp]
	mov	eax, DWORD PTR [edx]
	call	eax
	xor	ecx, ecx
	cmp	eax, DWORD PTR _prtti$[ebp]
	sete	cl
	mov	al, cl

; 63   : 		}

	mov	esp, ebp
	pop	ebp
	ret	4
?isExactKindOf@BaseObject@Ogre@@QBE_NPBVRuntimeClass@2@@Z ENDP ; Ogre::BaseObject::isExactKindOf
_TEXT	ENDS
PUBLIC	?release@BaseObject@Ogre@@UAEXXZ		; Ogre::BaseObject::release
; Function compile flags: /Odtp
;	COMDAT ?release@BaseObject@Ogre@@UAEXXZ
_TEXT	SEGMENT
_this$ = -4						; size = 4
?release@BaseObject@Ogre@@UAEXXZ PROC			; Ogre::BaseObject::release, COMDAT
; _this$ = ecx

; 68   : 		{

	push	ebp
	mov	ebp, esp
	push	ecx
	mov	DWORD PTR _this$[ebp], ecx

; 69   : 			m_RefCount--;

	mov	eax, DWORD PTR _this$[ebp]
	mov	ecx, DWORD PTR [eax+4]
	sub	ecx, 1
	mov	edx, DWORD PTR _this$[ebp]
	mov	DWORD PTR [edx+4], ecx

; 70   : 			if(m_RefCount <= 0 )

	mov	eax, DWORD PTR _this$[ebp]
	cmp	DWORD PTR [eax+4], 0
	jg	SHORT $LN2@release

; 71   : 			{
; 72   : 				deleteThis();

	mov	ecx, DWORD PTR _this$[ebp]
	mov	edx, DWORD PTR [ecx]
	mov	ecx, DWORD PTR _this$[ebp]
	mov	eax, DWORD PTR [edx+24]
	call	eax
$LN2@release:

; 73   : 			}
; 74   : 		}

	mov	esp, ebp
	pop	ebp
	ret	0
?release@BaseObject@Ogre@@UAEXXZ ENDP			; Ogre::BaseObject::release
_TEXT	ENDS
PUBLIC	?addRef@BaseObject@Ogre@@UAEXXZ			; Ogre::BaseObject::addRef
; Function compile flags: /Odtp
;	COMDAT ?addRef@BaseObject@Ogre@@UAEXXZ
_TEXT	SEGMENT
_this$ = -4						; size = 4
?addRef@BaseObject@Ogre@@UAEXXZ PROC			; Ogre::BaseObject::addRef, COMDAT
; _this$ = ecx

; 77   : 		{

	push	ebp
	mov	ebp, esp
	push	ecx
	mov	DWORD PTR _this$[ebp], ecx

; 78   : 			m_RefCount++;

	mov	eax, DWORD PTR _this$[ebp]
	mov	ecx, DWORD PTR [eax+4]
	add	ecx, 1
	mov	edx, DWORD PTR _this$[ebp]
	mov	DWORD PTR [edx+4], ecx

; 79   : 		}

	mov	esp, ebp
	pop	ebp
	ret	0
?addRef@BaseObject@Ogre@@UAEXXZ ENDP			; Ogre::BaseObject::addRef
_TEXT	ENDS
PUBLIC	?getRefCount@BaseObject@Ogre@@UAEHXZ		; Ogre::BaseObject::getRefCount
; Function compile flags: /Odtp
;	COMDAT ?getRefCount@BaseObject@Ogre@@UAEHXZ
_TEXT	SEGMENT
_this$ = -4						; size = 4
?getRefCount@BaseObject@Ogre@@UAEHXZ PROC		; Ogre::BaseObject::getRefCount, COMDAT
; _this$ = ecx

; 82   : 		{

	push	ebp
	mov	ebp, esp
	push	ecx
	mov	DWORD PTR _this$[ebp], ecx

; 83   : 			return m_RefCount;

	mov	eax, DWORD PTR _this$[ebp]
	mov	eax, DWORD PTR [eax+4]

; 84   : 		}

	mov	esp, ebp
	pop	ebp
	ret	0
?getRefCount@BaseObject@Ogre@@UAEHXZ ENDP		; Ogre::BaseObject::getRefCount
_TEXT	ENDS
PUBLIC	?_serialize@BaseObject@Ogre@@UAEXAAVArchive@2@H@Z ; Ogre::BaseObject::_serialize
; Function compile flags: /Odtp
;	COMDAT ?_serialize@BaseObject@Ogre@@UAEXAAVArchive@2@H@Z
_TEXT	SEGMENT
_this$ = -4						; size = 4
_ar$ = 8						; size = 4
_version$ = 12						; size = 4
?_serialize@BaseObject@Ogre@@UAEXAAVArchive@2@H@Z PROC	; Ogre::BaseObject::_serialize, COMDAT
; _this$ = ecx

; 87   : 		{

	push	ebp
	mov	ebp, esp
	push	ecx
	mov	DWORD PTR _this$[ebp], ecx

; 88   : 		}

	mov	esp, ebp
	pop	ebp
	ret	8
?_serialize@BaseObject@Ogre@@UAEXAAVArchive@2@H@Z ENDP	; Ogre::BaseObject::_serialize
_TEXT	ENDS
PUBLIC	??_7BaseObject@Ogre@@6B@			; Ogre::BaseObject::`vftable'
PUBLIC	??0BaseObject@Ogre@@IAE@XZ			; Ogre::BaseObject::BaseObject
PUBLIC	??_R4BaseObject@Ogre@@6B@			; Ogre::BaseObject::`RTTI Complete Object Locator'
PUBLIC	??_R0?AVBaseObject@Ogre@@@8			; Ogre::BaseObject `RTTI Type Descriptor'
PUBLIC	??_R3BaseObject@Ogre@@8				; Ogre::BaseObject::`RTTI Class Hierarchy Descriptor'
PUBLIC	??_R2BaseObject@Ogre@@8				; Ogre::BaseObject::`RTTI Base Class Array'
PUBLIC	??_R1A@?0A@EA@BaseObject@Ogre@@8		; Ogre::BaseObject::`RTTI Base Class Descriptor at (0,-1,0,64)'
PUBLIC	??_R13?0A@EA@MemoryDelegation@Ogre@@8		; Ogre::MemoryDelegation::`RTTI Base Class Descriptor at (4,-1,0,64)'
PUBLIC	??_R0?AVMemoryDelegation@Ogre@@@8		; Ogre::MemoryDelegation `RTTI Type Descriptor'
PUBLIC	??_R3MemoryDelegation@Ogre@@8			; Ogre::MemoryDelegation::`RTTI Class Hierarchy Descriptor'
PUBLIC	??_R2MemoryDelegation@Ogre@@8			; Ogre::MemoryDelegation::`RTTI Base Class Array'
PUBLIC	??_R1A@?0A@EA@MemoryDelegation@Ogre@@8		; Ogre::MemoryDelegation::`RTTI Base Class Descriptor at (0,-1,0,64)'
PUBLIC	??_EBaseObject@Ogre@@MAEPAXI@Z			; Ogre::BaseObject::`vector deleting destructor'
PUBLIC	?deleteThis@BaseObject@Ogre@@MAEXXZ		; Ogre::BaseObject::deleteThis
EXTRN	??_7type_info@@6B@:QWORD			; type_info::`vftable'
;	COMDAT ??_R1A@?0A@EA@MemoryDelegation@Ogre@@8
rdata$r	SEGMENT
??_R1A@?0A@EA@MemoryDelegation@Ogre@@8 DD FLAT:??_R0?AVMemoryDelegation@Ogre@@@8 ; Ogre::MemoryDelegation::`RTTI Base Class Descriptor at (0,-1,0,64)'
	DD	00H
	DD	00H
	DD	0ffffffffH
	DD	00H
	DD	040H
	DD	FLAT:??_R3MemoryDelegation@Ogre@@8
rdata$r	ENDS
;	COMDAT ??_R2MemoryDelegation@Ogre@@8
rdata$r	SEGMENT
??_R2MemoryDelegation@Ogre@@8 DD FLAT:??_R1A@?0A@EA@MemoryDelegation@Ogre@@8 ; Ogre::MemoryDelegation::`RTTI Base Class Array'
rdata$r	ENDS
;	COMDAT ??_R3MemoryDelegation@Ogre@@8
rdata$r	SEGMENT
??_R3MemoryDelegation@Ogre@@8 DD 00H			; Ogre::MemoryDelegation::`RTTI Class Hierarchy Descriptor'
	DD	00H
	DD	01H
	DD	FLAT:??_R2MemoryDelegation@Ogre@@8
rdata$r	ENDS
;	COMDAT ??_R0?AVMemoryDelegation@Ogre@@@8
_DATA	SEGMENT
??_R0?AVMemoryDelegation@Ogre@@@8 DD FLAT:??_7type_info@@6B@ ; Ogre::MemoryDelegation `RTTI Type Descriptor'
	DD	00H
	DB	'.?AVMemoryDelegation@Ogre@@', 00H
_DATA	ENDS
;	COMDAT ??_R13?0A@EA@MemoryDelegation@Ogre@@8
rdata$r	SEGMENT
??_R13?0A@EA@MemoryDelegation@Ogre@@8 DD FLAT:??_R0?AVMemoryDelegation@Ogre@@@8 ; Ogre::MemoryDelegation::`RTTI Base Class Descriptor at (4,-1,0,64)'
	DD	00H
	DD	04H
	DD	0ffffffffH
	DD	00H
	DD	040H
	DD	FLAT:??_R3MemoryDelegation@Ogre@@8
rdata$r	ENDS
;	COMDAT ??_R1A@?0A@EA@BaseObject@Ogre@@8
rdata$r	SEGMENT
??_R1A@?0A@EA@BaseObject@Ogre@@8 DD FLAT:??_R0?AVBaseObject@Ogre@@@8 ; Ogre::BaseObject::`RTTI Base Class Descriptor at (0,-1,0,64)'
	DD	01H
	DD	00H
	DD	0ffffffffH
	DD	00H
	DD	040H
	DD	FLAT:??_R3BaseObject@Ogre@@8
rdata$r	ENDS
;	COMDAT ??_R2BaseObject@Ogre@@8
rdata$r	SEGMENT
??_R2BaseObject@Ogre@@8 DD FLAT:??_R1A@?0A@EA@BaseObject@Ogre@@8 ; Ogre::BaseObject::`RTTI Base Class Array'
	DD	FLAT:??_R13?0A@EA@MemoryDelegation@Ogre@@8
rdata$r	ENDS
;	COMDAT ??_R3BaseObject@Ogre@@8
rdata$r	SEGMENT
??_R3BaseObject@Ogre@@8 DD 00H				; Ogre::BaseObject::`RTTI Class Hierarchy Descriptor'
	DD	00H
	DD	02H
	DD	FLAT:??_R2BaseObject@Ogre@@8
rdata$r	ENDS
;	COMDAT ??_R0?AVBaseObject@Ogre@@@8
_DATA	SEGMENT
??_R0?AVBaseObject@Ogre@@@8 DD FLAT:??_7type_info@@6B@	; Ogre::BaseObject `RTTI Type Descriptor'
	DD	00H
	DB	'.?AVBaseObject@Ogre@@', 00H
_DATA	ENDS
;	COMDAT ??_R4BaseObject@Ogre@@6B@
rdata$r	SEGMENT
??_R4BaseObject@Ogre@@6B@ DD 00H			; Ogre::BaseObject::`RTTI Complete Object Locator'
	DD	00H
	DD	00H
	DD	FLAT:??_R0?AVBaseObject@Ogre@@@8
	DD	FLAT:??_R3BaseObject@Ogre@@8
rdata$r	ENDS
;	COMDAT ??_7BaseObject@Ogre@@6B@
CONST	SEGMENT
??_7BaseObject@Ogre@@6B@ DD FLAT:??_R4BaseObject@Ogre@@6B@ ; Ogre::BaseObject::`vftable'
	DD	FLAT:?getRTTI@BaseObject@Ogre@@UBEPBVRuntimeClass@2@XZ
	DD	FLAT:?release@BaseObject@Ogre@@UAEXXZ
	DD	FLAT:?addRef@BaseObject@Ogre@@UAEXXZ
	DD	FLAT:?getRefCount@BaseObject@Ogre@@UAEHXZ
	DD	FLAT:?_serialize@BaseObject@Ogre@@UAEXAAVArchive@2@H@Z
	DD	FLAT:??_EBaseObject@Ogre@@MAEPAXI@Z
	DD	FLAT:?deleteThis@BaseObject@Ogre@@MAEXXZ
; Function compile flags: /Odtp
CONST	ENDS
;	COMDAT ??0BaseObject@Ogre@@IAE@XZ
_TEXT	SEGMENT
_this$ = -4						; size = 4
??0BaseObject@Ogre@@IAE@XZ PROC				; Ogre::BaseObject::BaseObject, COMDAT
; _this$ = ecx

; 92   : 		{

	push	ebp
	mov	ebp, esp
	push	ecx
	mov	DWORD PTR _this$[ebp], ecx
	mov	eax, DWORD PTR _this$[ebp]
	mov	DWORD PTR [eax], OFFSET ??_7BaseObject@Ogre@@6B@
	mov	ecx, DWORD PTR _this$[ebp]
	mov	DWORD PTR [ecx+4], 1

; 93   : 		}

	mov	eax, DWORD PTR _this$[ebp]
	mov	esp, ebp
	pop	ebp
	ret	0
??0BaseObject@Ogre@@IAE@XZ ENDP				; Ogre::BaseObject::BaseObject
_TEXT	ENDS
PUBLIC	??1BaseObject@Ogre@@MAE@XZ			; Ogre::BaseObject::~BaseObject
; Function compile flags: /Odtp
;	COMDAT ??1BaseObject@Ogre@@MAE@XZ
_TEXT	SEGMENT
_this$ = -4						; size = 4
??1BaseObject@Ogre@@MAE@XZ PROC				; Ogre::BaseObject::~BaseObject, COMDAT
; _this$ = ecx

; 96   : 		{

	push	ebp
	mov	ebp, esp
	push	ecx
	mov	DWORD PTR _this$[ebp], ecx
	mov	eax, DWORD PTR _this$[ebp]
	mov	DWORD PTR [eax], OFFSET ??_7BaseObject@Ogre@@6B@

; 97   : 		}

	mov	esp, ebp
	pop	ebp
	ret	0
??1BaseObject@Ogre@@MAE@XZ ENDP				; Ogre::BaseObject::~BaseObject
; Function compile flags: /Odtp
_TEXT	ENDS
;	COMDAT ?deleteThis@BaseObject@Ogre@@MAEXXZ
_TEXT	SEGMENT
tv70 = -16						; size = 4
_this$ = -12						; size = 4
$T66058 = -8						; size = 4
$T66057 = -4						; size = 4
?deleteThis@BaseObject@Ogre@@MAEXXZ PROC		; Ogre::BaseObject::deleteThis, COMDAT
; _this$ = ecx

; 100  : 		{

	push	ebp
	mov	ebp, esp
	sub	esp, 16					; 00000010H
	mov	DWORD PTR _this$[ebp], ecx

; 101  : 			delete this;

	mov	eax, DWORD PTR _this$[ebp]
	mov	DWORD PTR $T66058[ebp], eax
	mov	ecx, DWORD PTR $T66058[ebp]
	mov	DWORD PTR $T66057[ebp], ecx
	cmp	DWORD PTR $T66057[ebp], 0
	je	SHORT $LN3@deleteThis
	push	1
	mov	edx, DWORD PTR $T66057[ebp]
	mov	eax, DWORD PTR [edx]
	mov	ecx, DWORD PTR $T66057[ebp]
	mov	edx, DWORD PTR [eax+20]
	call	edx
	mov	DWORD PTR tv70[ebp], eax
	jmp	SHORT $LN1@deleteThis
$LN3@deleteThis:
	mov	DWORD PTR tv70[ebp], 0
$LN1@deleteThis:

; 102  : 		}

	mov	esp, ebp
	pop	ebp
	ret	0
?deleteThis@BaseObject@Ogre@@MAEXXZ ENDP		; Ogre::BaseObject::deleteThis
_TEXT	ENDS
PUBLIC	??0BaseObject@Ogre@@QAE@ABV01@@Z		; Ogre::BaseObject::BaseObject
; Function compile flags: /Odtp
;	COMDAT ??0BaseObject@Ogre@@QAE@ABV01@@Z
_TEXT	SEGMENT
tv68 = -8						; size = 4
_this$ = -4						; size = 4
___that$ = 8						; size = 4
??0BaseObject@Ogre@@QAE@ABV01@@Z PROC			; Ogre::BaseObject::BaseObject, COMDAT
; _this$ = ecx
	push	ebp
	mov	ebp, esp
	sub	esp, 8
	mov	DWORD PTR _this$[ebp], ecx
	cmp	DWORD PTR ___that$[ebp], 0
	je	SHORT $LN3@BaseObject
	mov	eax, DWORD PTR ___that$[ebp]
	add	eax, 4
	mov	DWORD PTR tv68[ebp], eax
	jmp	SHORT $LN4@BaseObject
$LN3@BaseObject:
	mov	DWORD PTR tv68[ebp], 0
$LN4@BaseObject:
	mov	ecx, DWORD PTR _this$[ebp]
	mov	DWORD PTR [ecx], OFFSET ??_7BaseObject@Ogre@@6B@
	mov	edx, DWORD PTR _this$[ebp]
	mov	eax, DWORD PTR ___that$[ebp]
	mov	ecx, DWORD PTR [eax+4]
	mov	DWORD PTR [edx+4], ecx
	mov	eax, DWORD PTR _this$[ebp]
	mov	esp, ebp
	pop	ebp
	ret	4
??0BaseObject@Ogre@@QAE@ABV01@@Z ENDP			; Ogre::BaseObject::BaseObject
_TEXT	ENDS
PUBLIC	??4BaseObject@Ogre@@QAEAAV01@ABV01@@Z		; Ogre::BaseObject::operator=
; Function compile flags: /Odtp
;	COMDAT ??4BaseObject@Ogre@@QAEAAV01@ABV01@@Z
_TEXT	SEGMENT
_this$ = -4						; size = 4
___that$ = 8						; size = 4
??4BaseObject@Ogre@@QAEAAV01@ABV01@@Z PROC		; Ogre::BaseObject::operator=, COMDAT
; _this$ = ecx
	push	ebp
	mov	ebp, esp
	push	ecx
	mov	DWORD PTR _this$[ebp], ecx
	mov	eax, DWORD PTR _this$[ebp]
	mov	ecx, DWORD PTR ___that$[ebp]
	mov	edx, DWORD PTR [ecx+4]
	mov	DWORD PTR [eax+4], edx
	mov	eax, DWORD PTR _this$[ebp]
	mov	esp, ebp
	pop	ebp
	ret	4
??4BaseObject@Ogre@@QAEAAV01@ABV01@@Z ENDP		; Ogre::BaseObject::operator=
_TEXT	ENDS
PUBLIC	??_GBaseObject@Ogre@@MAEPAXI@Z			; Ogre::BaseObject::`scalar deleting destructor'
EXTRN	??3MemoryDelegation@Ogre@@SAXPAXI@Z:PROC	; Ogre::MemoryDelegation::operator delete
; Function compile flags: /Odtp
;	COMDAT ??_GBaseObject@Ogre@@MAEPAXI@Z
_TEXT	SEGMENT
_this$ = -4						; size = 4
___flags$ = 8						; size = 4
??_GBaseObject@Ogre@@MAEPAXI@Z PROC			; Ogre::BaseObject::`scalar deleting destructor', COMDAT
; _this$ = ecx
	push	ebp
	mov	ebp, esp
	push	ecx
	mov	DWORD PTR _this$[ebp], ecx
	mov	ecx, DWORD PTR _this$[ebp]
	call	??1BaseObject@Ogre@@MAE@XZ		; Ogre::BaseObject::~BaseObject
	mov	eax, DWORD PTR ___flags$[ebp]
	and	eax, 1
	je	SHORT $LN1@scalar
	push	8
	mov	ecx, DWORD PTR _this$[ebp]
	push	ecx
	call	??3MemoryDelegation@Ogre@@SAXPAXI@Z	; Ogre::MemoryDelegation::operator delete
	add	esp, 8
$LN1@scalar:
	mov	eax, DWORD PTR _this$[ebp]
	mov	esp, ebp
	pop	ebp
	ret	4
??_GBaseObject@Ogre@@MAEPAXI@Z ENDP			; Ogre::BaseObject::`scalar deleting destructor'
_TEXT	ENDS
EXTRN	??_VMemoryDelegation@Ogre@@SAXPAXI@Z:PROC	; Ogre::MemoryDelegation::operator delete[]
EXTRN	??_M@YGXPAXIHP6EX0@Z@Z:PROC			; `eh vector destructor iterator'
; Function compile flags: /Odtp
;	COMDAT ??_EBaseObject@Ogre@@MAEPAXI@Z
_TEXT	SEGMENT
_this$ = -4						; size = 4
___flags$ = 8						; size = 4
??_EBaseObject@Ogre@@MAEPAXI@Z PROC			; Ogre::BaseObject::`vector deleting destructor', COMDAT
; _this$ = ecx
	push	ebp
	mov	ebp, esp
	push	ecx
	mov	DWORD PTR _this$[ebp], ecx
	mov	eax, DWORD PTR ___flags$[ebp]
	and	eax, 2
	je	SHORT $LN3@vector
	push	OFFSET ??1BaseObject@Ogre@@MAE@XZ	; Ogre::BaseObject::~BaseObject
	mov	ecx, DWORD PTR _this$[ebp]
	mov	edx, DWORD PTR [ecx-4]
	push	edx
	push	8
	mov	eax, DWORD PTR _this$[ebp]
	push	eax
	call	??_M@YGXPAXIHP6EX0@Z@Z
	mov	ecx, DWORD PTR ___flags$[ebp]
	and	ecx, 1
	je	SHORT $LN2@vector
	push	8
	mov	edx, DWORD PTR _this$[ebp]
	sub	edx, 4
	push	edx
	call	??_VMemoryDelegation@Ogre@@SAXPAXI@Z	; Ogre::MemoryDelegation::operator delete[]
	add	esp, 8
$LN2@vector:
	mov	eax, DWORD PTR _this$[ebp]
	sub	eax, 4
	jmp	SHORT $LN4@vector
$LN3@vector:
	mov	ecx, DWORD PTR _this$[ebp]
	call	??1BaseObject@Ogre@@MAE@XZ		; Ogre::BaseObject::~BaseObject
	mov	eax, DWORD PTR ___flags$[ebp]
	and	eax, 1
	je	SHORT $LN1@vector
	push	8
	mov	ecx, DWORD PTR _this$[ebp]
	push	ecx
	call	??3MemoryDelegation@Ogre@@SAXPAXI@Z	; Ogre::MemoryDelegation::operator delete
	add	esp, 8
$LN1@vector:
	mov	eax, DWORD PTR _this$[ebp]
$LN4@vector:
	mov	esp, ebp
	pop	ebp
	ret	4
??_EBaseObject@Ogre@@MAEPAXI@Z ENDP			; Ogre::BaseObject::`vector deleting destructor'
_TEXT	ENDS
PUBLIC	?handle2Ptr@FixedString@Ogre@@SAPBDPAX@Z	; Ogre::FixedString::handle2Ptr
; Function compile flags: /Odtp
; File i:\svnroot\client\ogremain\ogrefixedstring.h
;	COMDAT ?handle2Ptr@FixedString@Ogre@@SAPBDPAX@Z
_TEXT	SEGMENT
_h$ = 8							; size = 4
?handle2Ptr@FixedString@Ogre@@SAPBDPAX@Z PROC		; Ogre::FixedString::handle2Ptr, COMDAT

; 22   : 		{

	push	ebp
	mov	ebp, esp

; 23   : 			return (const char *)h;

	mov	eax, DWORD PTR _h$[ebp]

; 24   : 		}

	pop	ebp
	ret	0
?handle2Ptr@FixedString@Ogre@@SAPBDPAX@Z ENDP		; Ogre::FixedString::handle2Ptr
_TEXT	ENDS
PUBLIC	??0FixedString@Ogre@@QAE@XZ			; Ogre::FixedString::FixedString
; Function compile flags: /Odtp
;	COMDAT ??0FixedString@Ogre@@QAE@XZ
_TEXT	SEGMENT
_this$ = -4						; size = 4
??0FixedString@Ogre@@QAE@XZ PROC			; Ogre::FixedString::FixedString, COMDAT
; _this$ = ecx

; 27   : 		FixedString() : m_StrHandle(NULL){}

	push	ebp
	mov	ebp, esp
	push	ecx
	mov	DWORD PTR _this$[ebp], ecx
	mov	eax, DWORD PTR _this$[ebp]
	mov	DWORD PTR [eax], 0
	mov	eax, DWORD PTR _this$[ebp]
	mov	esp, ebp
	pop	ebp
	ret	0
??0FixedString@Ogre@@QAE@XZ ENDP			; Ogre::FixedString::FixedString
_TEXT	ENDS
PUBLIC	??0FixedString@Ogre@@QAE@PAX@Z			; Ogre::FixedString::FixedString
EXTRN	?addRef@FixedString@Ogre@@SAXPAX@Z:PROC		; Ogre::FixedString::addRef
; Function compile flags: /Odtp
;	COMDAT ??0FixedString@Ogre@@QAE@PAX@Z
_TEXT	SEGMENT
_this$ = -4						; size = 4
_h$ = 8							; size = 4
??0FixedString@Ogre@@QAE@PAX@Z PROC			; Ogre::FixedString::FixedString, COMDAT
; _this$ = ecx

; 29   : 		{

	push	ebp
	mov	ebp, esp
	push	ecx
	mov	DWORD PTR _this$[ebp], ecx
	mov	eax, DWORD PTR _this$[ebp]
	mov	ecx, DWORD PTR _h$[ebp]
	mov	DWORD PTR [eax], ecx

; 30   : 			addRef(h);

	mov	edx, DWORD PTR _h$[ebp]
	push	edx
	call	?addRef@FixedString@Ogre@@SAXPAX@Z	; Ogre::FixedString::addRef
	add	esp, 4

; 31   : 		}

	mov	eax, DWORD PTR _this$[ebp]
	mov	esp, ebp
	pop	ebp
	ret	4
??0FixedString@Ogre@@QAE@PAX@Z ENDP			; Ogre::FixedString::FixedString
_TEXT	ENDS
PUBLIC	??0FixedString@Ogre@@QAE@ABV01@@Z		; Ogre::FixedString::FixedString
; Function compile flags: /Odtp
;	COMDAT ??0FixedString@Ogre@@QAE@ABV01@@Z
_TEXT	SEGMENT
_this$ = -4						; size = 4
_rhs$ = 8						; size = 4
??0FixedString@Ogre@@QAE@ABV01@@Z PROC			; Ogre::FixedString::FixedString, COMDAT
; _this$ = ecx

; 34   : 		{

	push	ebp
	mov	ebp, esp
	push	ecx
	mov	DWORD PTR _this$[ebp], ecx
	mov	eax, DWORD PTR _this$[ebp]
	mov	ecx, DWORD PTR _rhs$[ebp]
	mov	edx, DWORD PTR [ecx]
	mov	DWORD PTR [eax], edx

; 35   : 			addRef(m_StrHandle);

	mov	eax, DWORD PTR _this$[ebp]
	mov	ecx, DWORD PTR [eax]
	push	ecx
	call	?addRef@FixedString@Ogre@@SAXPAX@Z	; Ogre::FixedString::addRef
	add	esp, 4

; 36   : 		}

	mov	eax, DWORD PTR _this$[ebp]
	mov	esp, ebp
	pop	ebp
	ret	4
??0FixedString@Ogre@@QAE@ABV01@@Z ENDP			; Ogre::FixedString::FixedString
_TEXT	ENDS
PUBLIC	??0FixedString@Ogre@@QAE@PBD@Z			; Ogre::FixedString::FixedString
EXTRN	?insert@FixedString@Ogre@@SAPAXPBDH@Z:PROC	; Ogre::FixedString::insert
; Function compile flags: /Odtp
;	COMDAT ??0FixedString@Ogre@@QAE@PBD@Z
_TEXT	SEGMENT
_this$ = -4						; size = 4
_pstr$ = 8						; size = 4
??0FixedString@Ogre@@QAE@PBD@Z PROC			; Ogre::FixedString::FixedString, COMDAT
; _this$ = ecx

; 38   : 		FixedString(const char *pstr)

	push	ebp
	mov	ebp, esp
	push	ecx
	mov	DWORD PTR _this$[ebp], ecx

; 39   : 		{
; 40   : 			m_StrHandle = insert(pstr); 

	push	-1
	mov	eax, DWORD PTR _pstr$[ebp]
	push	eax
	call	?insert@FixedString@Ogre@@SAPAXPBDH@Z	; Ogre::FixedString::insert
	add	esp, 8
	mov	ecx, DWORD PTR _this$[ebp]
	mov	DWORD PTR [ecx], eax

; 41   : 		}

	mov	eax, DWORD PTR _this$[ebp]
	mov	esp, ebp
	pop	ebp
	ret	4
??0FixedString@Ogre@@QAE@PBD@Z ENDP			; Ogre::FixedString::FixedString
_TEXT	ENDS
PUBLIC	??0FixedString@Ogre@@QAE@PBDI@Z			; Ogre::FixedString::FixedString
; Function compile flags: /Odtp
;	COMDAT ??0FixedString@Ogre@@QAE@PBDI@Z
_TEXT	SEGMENT
_this$ = -4						; size = 4
_pstr$ = 8						; size = 4
_len$ = 12						; size = 4
??0FixedString@Ogre@@QAE@PBDI@Z PROC			; Ogre::FixedString::FixedString, COMDAT
; _this$ = ecx

; 43   : 		FixedString(const char *pstr, size_t len)

	push	ebp
	mov	ebp, esp
	push	ecx
	mov	DWORD PTR _this$[ebp], ecx

; 44   : 		{
; 45   : 			m_StrHandle = insert(pstr, (int)len); 

	mov	eax, DWORD PTR _len$[ebp]
	push	eax
	mov	ecx, DWORD PTR _pstr$[ebp]
	push	ecx
	call	?insert@FixedString@Ogre@@SAPAXPBDH@Z	; Ogre::FixedString::insert
	add	esp, 8
	mov	edx, DWORD PTR _this$[ebp]
	mov	DWORD PTR [edx], eax

; 46   : 		}

	mov	eax, DWORD PTR _this$[ebp]
	mov	esp, ebp
	pop	ebp
	ret	8
??0FixedString@Ogre@@QAE@PBDI@Z ENDP			; Ogre::FixedString::FixedString
_TEXT	ENDS
PUBLIC	??1FixedString@Ogre@@QAE@XZ			; Ogre::FixedString::~FixedString
EXTRN	?release@FixedString@Ogre@@SAXPAX@Z:PROC	; Ogre::FixedString::release
; Function compile flags: /Odtp
;	COMDAT ??1FixedString@Ogre@@QAE@XZ
_TEXT	SEGMENT
_this$ = -4						; size = 4
??1FixedString@Ogre@@QAE@XZ PROC			; Ogre::FixedString::~FixedString, COMDAT
; _this$ = ecx

; 49   : 		{

	push	ebp
	mov	ebp, esp
	push	ecx
	mov	DWORD PTR _this$[ebp], ecx

; 50   : 			release(m_StrHandle); 

	mov	eax, DWORD PTR _this$[ebp]
	mov	ecx, DWORD PTR [eax]
	push	ecx
	call	?release@FixedString@Ogre@@SAXPAX@Z	; Ogre::FixedString::release
	add	esp, 4

; 51   : 		}

	mov	esp, ebp
	pop	ebp
	ret	0
??1FixedString@Ogre@@QAE@XZ ENDP			; Ogre::FixedString::~FixedString
_TEXT	ENDS
PUBLIC	??BFixedString@Ogre@@QBEPBDXZ			; Ogre::FixedString::operator char const *
; Function compile flags: /Odtp
;	COMDAT ??BFixedString@Ogre@@QBEPBDXZ
_TEXT	SEGMENT
_this$ = -4						; size = 4
??BFixedString@Ogre@@QBEPBDXZ PROC			; Ogre::FixedString::operator char const *, COMDAT
; _this$ = ecx

; 54   : 		{

	push	ebp
	mov	ebp, esp
	push	ecx
	mov	DWORD PTR _this$[ebp], ecx

; 55   : 			return handle2Ptr(m_StrHandle);

	mov	eax, DWORD PTR _this$[ebp]
	mov	ecx, DWORD PTR [eax]
	push	ecx
	call	?handle2Ptr@FixedString@Ogre@@SAPBDPAX@Z ; Ogre::FixedString::handle2Ptr
	add	esp, 4

; 56   : 		}

	mov	esp, ebp
	pop	ebp
	ret	0
??BFixedString@Ogre@@QBEPBDXZ ENDP			; Ogre::FixedString::operator char const *
_TEXT	ENDS
PUBLIC	?getHandle@FixedString@Ogre@@QBEPAXXZ		; Ogre::FixedString::getHandle
; Function compile flags: /Odtp
;	COMDAT ?getHandle@FixedString@Ogre@@QBEPAXXZ
_TEXT	SEGMENT
_this$ = -4						; size = 4
?getHandle@FixedString@Ogre@@QBEPAXXZ PROC		; Ogre::FixedString::getHandle, COMDAT
; _this$ = ecx

; 59   : 		{

	push	ebp
	mov	ebp, esp
	push	ecx
	mov	DWORD PTR _this$[ebp], ecx

; 60   : 			return m_StrHandle;

	mov	eax, DWORD PTR _this$[ebp]
	mov	eax, DWORD PTR [eax]

; 61   : 		}

	mov	esp, ebp
	pop	ebp
	ret	0
?getHandle@FixedString@Ogre@@QBEPAXXZ ENDP		; Ogre::FixedString::getHandle
_TEXT	ENDS
PUBLIC	?getRTTI@Resource@Ogre@@UBEPBVRuntimeClass@2@XZ	; Ogre::Resource::getRTTI
EXTRN	?m_RTTI@Resource@Ogre@@2VRuntimeClass@2@B:BYTE	; Ogre::Resource::m_RTTI
; Function compile flags: /Odtp
; File i:\svnroot\client\ogremain\ogreresource.h
;	COMDAT ?getRTTI@Resource@Ogre@@UBEPBVRuntimeClass@2@XZ
_TEXT	SEGMENT
_this$ = -4						; size = 4
?getRTTI@Resource@Ogre@@UBEPBVRuntimeClass@2@XZ PROC	; Ogre::Resource::getRTTI, COMDAT
; _this$ = ecx

; 39   : 		DECLARE_RTTI_VIRTUAL(Resource)

	push	ebp
	mov	ebp, esp
	push	ecx
	mov	DWORD PTR _this$[ebp], ecx
	mov	eax, OFFSET ?m_RTTI@Resource@Ogre@@2VRuntimeClass@2@B ; Ogre::Resource::m_RTTI
	mov	esp, ebp
	pop	ebp
	ret	0
?getRTTI@Resource@Ogre@@UBEPBVRuntimeClass@2@XZ ENDP	; Ogre::Resource::getRTTI
_TEXT	ENDS
PUBLIC	?getResPath@Resource@Ogre@@QAEABVFixedString@2@XZ ; Ogre::Resource::getResPath
; Function compile flags: /Odtp
;	COMDAT ?getResPath@Resource@Ogre@@QAEABVFixedString@2@XZ
_TEXT	SEGMENT
_this$ = -4						; size = 4
?getResPath@Resource@Ogre@@QAEABVFixedString@2@XZ PROC	; Ogre::Resource::getResPath, COMDAT
; _this$ = ecx

; 44   : 		{

	push	ebp
	mov	ebp, esp
	push	ecx
	mov	DWORD PTR _this$[ebp], ecx

; 45   : 			return m_ResPath;

	mov	eax, DWORD PTR _this$[ebp]
	add	eax, 8

; 46   : 		}

	mov	esp, ebp
	pop	ebp
	ret	0
?getResPath@Resource@Ogre@@QAEABVFixedString@2@XZ ENDP	; Ogre::Resource::getResPath
_TEXT	ENDS
PUBLIC	?setResPath@Resource@Ogre@@QAEXABVFixedString@2@@Z ; Ogre::Resource::setResPath
EXTRN	??4FixedString@Ogre@@QAEAAV01@ABV01@@Z:PROC	; Ogre::FixedString::operator=
; Function compile flags: /Odtp
;	COMDAT ?setResPath@Resource@Ogre@@QAEXABVFixedString@2@@Z
_TEXT	SEGMENT
_this$ = -4						; size = 4
_path$ = 8						; size = 4
?setResPath@Resource@Ogre@@QAEXABVFixedString@2@@Z PROC	; Ogre::Resource::setResPath, COMDAT
; _this$ = ecx

; 48   : 		{

	push	ebp
	mov	ebp, esp
	push	ecx
	mov	DWORD PTR _this$[ebp], ecx

; 49   : 			m_ResPath = path;

	mov	eax, DWORD PTR _path$[ebp]
	push	eax
	mov	ecx, DWORD PTR _this$[ebp]
	add	ecx, 8
	call	??4FixedString@Ogre@@QAEAAV01@ABV01@@Z	; Ogre::FixedString::operator=

; 50   : 		}

	mov	esp, ebp
	pop	ebp
	ret	4
?setResPath@Resource@Ogre@@QAEXABVFixedString@2@@Z ENDP	; Ogre::Resource::setResPath
_TEXT	ENDS
PUBLIC	??_7Resource@Ogre@@6B@				; Ogre::Resource::`vftable'
PUBLIC	??0Resource@Ogre@@IAE@XZ			; Ogre::Resource::Resource
PUBLIC	??_R4Resource@Ogre@@6B@				; Ogre::Resource::`RTTI Complete Object Locator'
PUBLIC	??_R0?AVResource@Ogre@@@8			; Ogre::Resource `RTTI Type Descriptor'
PUBLIC	??_R3Resource@Ogre@@8				; Ogre::Resource::`RTTI Class Hierarchy Descriptor'
PUBLIC	??_R2Resource@Ogre@@8				; Ogre::Resource::`RTTI Base Class Array'
PUBLIC	??_R1A@?0A@EA@Resource@Ogre@@8			; Ogre::Resource::`RTTI Base Class Descriptor at (0,-1,0,64)'
PUBLIC	??_EResource@Ogre@@MAEPAXI@Z			; Ogre::Resource::`vector deleting destructor'
EXTRN	___security_cookie:DWORD
EXTRN	___CxxFrameHandler3:PROC
EXTRN	@__security_check_cookie@4:PROC
EXTRN	?release@Resource@Ogre@@UAEXXZ:PROC		; Ogre::Resource::release
EXTRN	?addRef@Resource@Ogre@@UAEXXZ:PROC		; Ogre::Resource::addRef
EXTRN	?getRefCount@Resource@Ogre@@UAEHXZ:PROC		; Ogre::Resource::getRefCount
;	COMDAT ??_R1A@?0A@EA@Resource@Ogre@@8
rdata$r	SEGMENT
??_R1A@?0A@EA@Resource@Ogre@@8 DD FLAT:??_R0?AVResource@Ogre@@@8 ; Ogre::Resource::`RTTI Base Class Descriptor at (0,-1,0,64)'
	DD	02H
	DD	00H
	DD	0ffffffffH
	DD	00H
	DD	040H
	DD	FLAT:??_R3Resource@Ogre@@8
rdata$r	ENDS
;	COMDAT ??_R2Resource@Ogre@@8
rdata$r	SEGMENT
??_R2Resource@Ogre@@8 DD FLAT:??_R1A@?0A@EA@Resource@Ogre@@8 ; Ogre::Resource::`RTTI Base Class Array'
	DD	FLAT:??_R1A@?0A@EA@BaseObject@Ogre@@8
	DD	FLAT:??_R13?0A@EA@MemoryDelegation@Ogre@@8
rdata$r	ENDS
;	COMDAT ??_R3Resource@Ogre@@8
rdata$r	SEGMENT
??_R3Resource@Ogre@@8 DD 00H				; Ogre::Resource::`RTTI Class Hierarchy Descriptor'
	DD	00H
	DD	03H
	DD	FLAT:??_R2Resource@Ogre@@8
rdata$r	ENDS
;	COMDAT ??_R0?AVResource@Ogre@@@8
_DATA	SEGMENT
??_R0?AVResource@Ogre@@@8 DD FLAT:??_7type_info@@6B@	; Ogre::Resource `RTTI Type Descriptor'
	DD	00H
	DB	'.?AVResource@Ogre@@', 00H
_DATA	ENDS
;	COMDAT ??_R4Resource@Ogre@@6B@
rdata$r	SEGMENT
??_R4Resource@Ogre@@6B@ DD 00H				; Ogre::Resource::`RTTI Complete Object Locator'
	DD	00H
	DD	00H
	DD	FLAT:??_R0?AVResource@Ogre@@@8
	DD	FLAT:??_R3Resource@Ogre@@8
rdata$r	ENDS
;	COMDAT ??_7Resource@Ogre@@6B@
CONST	SEGMENT
??_7Resource@Ogre@@6B@ DD FLAT:??_R4Resource@Ogre@@6B@	; Ogre::Resource::`vftable'
	DD	FLAT:?getRTTI@Resource@Ogre@@UBEPBVRuntimeClass@2@XZ
	DD	FLAT:?release@Resource@Ogre@@UAEXXZ
	DD	FLAT:?addRef@Resource@Ogre@@UAEXXZ
	DD	FLAT:?getRefCount@Resource@Ogre@@UAEHXZ
	DD	FLAT:?_serialize@BaseObject@Ogre@@UAEXAAVArchive@2@H@Z
	DD	FLAT:??_EResource@Ogre@@MAEPAXI@Z
	DD	FLAT:?deleteThis@BaseObject@Ogre@@MAEXXZ
CONST	ENDS
;	COMDAT xdata$x
xdata$x	SEGMENT
__unwindtable$??0Resource@Ogre@@IAE@XZ DD 0ffffffffH
	DD	FLAT:__unwindfunclet$??0Resource@Ogre@@IAE@XZ$0
	DD	00H
	DD	FLAT:__unwindfunclet$??0Resource@Ogre@@IAE@XZ$1
__ehfuncinfo$??0Resource@Ogre@@IAE@XZ DD 019930522H
	DD	02H
	DD	FLAT:__unwindtable$??0Resource@Ogre@@IAE@XZ
	DD	2 DUP(00H)
	DD	2 DUP(00H)
	DD	00H
	DD	00H
; Function compile flags: /Odtp
xdata$x	ENDS
;	COMDAT ??0Resource@Ogre@@IAE@XZ
_TEXT	SEGMENT
_this$ = -16						; size = 4
__$EHRec$ = -12						; size = 12
??0Resource@Ogre@@IAE@XZ PROC				; Ogre::Resource::Resource, COMDAT
; _this$ = ecx

; 72   : 		{

	push	ebp
	mov	ebp, esp
	push	-1
	push	__ehhandler$??0Resource@Ogre@@IAE@XZ
	mov	eax, DWORD PTR fs:0
	push	eax
	push	ecx
	mov	eax, DWORD PTR ___security_cookie
	xor	eax, ebp
	push	eax
	lea	eax, DWORD PTR __$EHRec$[ebp]
	mov	DWORD PTR fs:0, eax
	mov	DWORD PTR _this$[ebp], ecx
	mov	ecx, DWORD PTR _this$[ebp]
	call	??0BaseObject@Ogre@@IAE@XZ		; Ogre::BaseObject::BaseObject
	mov	DWORD PTR __$EHRec$[ebp+8], 0
	mov	eax, DWORD PTR _this$[ebp]
	mov	DWORD PTR [eax], OFFSET ??_7Resource@Ogre@@6B@
	mov	ecx, DWORD PTR _this$[ebp]
	add	ecx, 8
	call	??0FixedString@Ogre@@QAE@XZ		; Ogre::FixedString::FixedString
	mov	BYTE PTR __$EHRec$[ebp+8], 1
	mov	ecx, DWORD PTR _this$[ebp]
	mov	DWORD PTR [ecx+12], 1

; 73   : 		}

	mov	DWORD PTR __$EHRec$[ebp+8], -1
	mov	eax, DWORD PTR _this$[ebp]
	mov	ecx, DWORD PTR __$EHRec$[ebp]
	mov	DWORD PTR fs:0, ecx
	pop	ecx
	mov	esp, ebp
	pop	ebp
	ret	0
_TEXT	ENDS
;	COMDAT text$x
text$x	SEGMENT
__unwindfunclet$??0Resource@Ogre@@IAE@XZ$0:
	mov	ecx, DWORD PTR _this$[ebp]
	jmp	??1BaseObject@Ogre@@MAE@XZ		; Ogre::BaseObject::~BaseObject
__unwindfunclet$??0Resource@Ogre@@IAE@XZ$1:
	mov	ecx, DWORD PTR _this$[ebp]
	add	ecx, 8
	jmp	??1FixedString@Ogre@@QAE@XZ		; Ogre::FixedString::~FixedString
__ehhandler$??0Resource@Ogre@@IAE@XZ:
	mov	edx, DWORD PTR [esp+8]
	lea	eax, DWORD PTR [edx+12]
	mov	ecx, DWORD PTR [edx-8]
	xor	ecx, eax
	call	@__security_check_cookie@4
	mov	eax, OFFSET __ehfuncinfo$??0Resource@Ogre@@IAE@XZ
	jmp	___CxxFrameHandler3
text$x	ENDS
??0Resource@Ogre@@IAE@XZ ENDP				; Ogre::Resource::Resource
PUBLIC	??1Resource@Ogre@@MAE@XZ			; Ogre::Resource::~Resource
;	COMDAT xdata$x
xdata$x	SEGMENT
__unwindtable$??1Resource@Ogre@@MAE@XZ DD 0ffffffffH
	DD	FLAT:__unwindfunclet$??1Resource@Ogre@@MAE@XZ$0
	DD	00H
	DD	FLAT:__unwindfunclet$??1Resource@Ogre@@MAE@XZ$1
__ehfuncinfo$??1Resource@Ogre@@MAE@XZ DD 019930522H
	DD	02H
	DD	FLAT:__unwindtable$??1Resource@Ogre@@MAE@XZ
	DD	2 DUP(00H)
	DD	2 DUP(00H)
	DD	00H
	DD	00H
; Function compile flags: /Odtp
xdata$x	ENDS
;	COMDAT ??1Resource@Ogre@@MAE@XZ
_TEXT	SEGMENT
_this$ = -16						; size = 4
__$EHRec$ = -12						; size = 12
??1Resource@Ogre@@MAE@XZ PROC				; Ogre::Resource::~Resource, COMDAT
; _this$ = ecx

; 76   : 		{

	push	ebp
	mov	ebp, esp
	push	-1
	push	__ehhandler$??1Resource@Ogre@@MAE@XZ
	mov	eax, DWORD PTR fs:0
	push	eax
	push	ecx
	mov	eax, DWORD PTR ___security_cookie
	xor	eax, ebp
	push	eax
	lea	eax, DWORD PTR __$EHRec$[ebp]
	mov	DWORD PTR fs:0, eax
	mov	DWORD PTR _this$[ebp], ecx
	mov	eax, DWORD PTR _this$[ebp]
	mov	DWORD PTR [eax], OFFSET ??_7Resource@Ogre@@6B@
	mov	DWORD PTR __$EHRec$[ebp+8], 1

; 77   : 		}

	mov	BYTE PTR __$EHRec$[ebp+8], 0
	mov	ecx, DWORD PTR _this$[ebp]
	add	ecx, 8
	call	??1FixedString@Ogre@@QAE@XZ		; Ogre::FixedString::~FixedString
	mov	DWORD PTR __$EHRec$[ebp+8], -1
	mov	ecx, DWORD PTR _this$[ebp]
	call	??1BaseObject@Ogre@@MAE@XZ		; Ogre::BaseObject::~BaseObject
	mov	ecx, DWORD PTR __$EHRec$[ebp]
	mov	DWORD PTR fs:0, ecx
	pop	ecx
	mov	esp, ebp
	pop	ebp
	ret	0
_TEXT	ENDS
;	COMDAT text$x
text$x	SEGMENT
__unwindfunclet$??1Resource@Ogre@@MAE@XZ$0:
	mov	ecx, DWORD PTR _this$[ebp]
	jmp	??1BaseObject@Ogre@@MAE@XZ		; Ogre::BaseObject::~BaseObject
__unwindfunclet$??1Resource@Ogre@@MAE@XZ$1:
	mov	ecx, DWORD PTR _this$[ebp]
	add	ecx, 8
	jmp	??1FixedString@Ogre@@QAE@XZ		; Ogre::FixedString::~FixedString
__ehhandler$??1Resource@Ogre@@MAE@XZ:
	mov	edx, DWORD PTR [esp+8]
	lea	eax, DWORD PTR [edx+12]
	mov	ecx, DWORD PTR [edx-8]
	xor	ecx, eax
	call	@__security_check_cookie@4
	mov	eax, OFFSET __ehfuncinfo$??1Resource@Ogre@@MAE@XZ
	jmp	___CxxFrameHandler3
text$x	ENDS
??1Resource@Ogre@@MAE@XZ ENDP				; Ogre::Resource::~Resource
PUBLIC	??0Resource@Ogre@@QAE@ABV01@@Z			; Ogre::Resource::Resource
;	COMDAT xdata$x
xdata$x	SEGMENT
__unwindtable$??0Resource@Ogre@@QAE@ABV01@@Z DD 0ffffffffH
	DD	FLAT:__unwindfunclet$??0Resource@Ogre@@QAE@ABV01@@Z$0
	DD	00H
	DD	FLAT:__unwindfunclet$??0Resource@Ogre@@QAE@ABV01@@Z$1
__ehfuncinfo$??0Resource@Ogre@@QAE@ABV01@@Z DD 019930522H
	DD	02H
	DD	FLAT:__unwindtable$??0Resource@Ogre@@QAE@ABV01@@Z
	DD	2 DUP(00H)
	DD	2 DUP(00H)
	DD	00H
	DD	00H
; Function compile flags: /Odtp
xdata$x	ENDS
;	COMDAT ??0Resource@Ogre@@QAE@ABV01@@Z
_TEXT	SEGMENT
_this$ = -16						; size = 4
__$EHRec$ = -12						; size = 12
___that$ = 8						; size = 4
??0Resource@Ogre@@QAE@ABV01@@Z PROC			; Ogre::Resource::Resource, COMDAT
; _this$ = ecx
	push	ebp
	mov	ebp, esp
	push	-1
	push	__ehhandler$??0Resource@Ogre@@QAE@ABV01@@Z
	mov	eax, DWORD PTR fs:0
	push	eax
	push	ecx
	mov	eax, DWORD PTR ___security_cookie
	xor	eax, ebp
	push	eax
	lea	eax, DWORD PTR __$EHRec$[ebp]
	mov	DWORD PTR fs:0, eax
	mov	DWORD PTR _this$[ebp], ecx
	mov	eax, DWORD PTR ___that$[ebp]
	push	eax
	mov	ecx, DWORD PTR _this$[ebp]
	call	??0BaseObject@Ogre@@QAE@ABV01@@Z
	mov	DWORD PTR __$EHRec$[ebp+8], 0
	mov	ecx, DWORD PTR _this$[ebp]
	mov	DWORD PTR [ecx], OFFSET ??_7Resource@Ogre@@6B@
	mov	edx, DWORD PTR ___that$[ebp]
	add	edx, 8
	push	edx
	mov	ecx, DWORD PTR _this$[ebp]
	add	ecx, 8
	call	??0FixedString@Ogre@@QAE@ABV01@@Z	; Ogre::FixedString::FixedString
	mov	BYTE PTR __$EHRec$[ebp+8], 1
	mov	eax, DWORD PTR ___that$[ebp]
	mov	ecx, DWORD PTR [eax+12]
	mov	edx, DWORD PTR _this$[ebp]
	mov	DWORD PTR [edx+12], ecx
	mov	DWORD PTR __$EHRec$[ebp+8], -1
	mov	eax, DWORD PTR _this$[ebp]
	mov	ecx, DWORD PTR __$EHRec$[ebp]
	mov	DWORD PTR fs:0, ecx
	pop	ecx
	mov	esp, ebp
	pop	ebp
	ret	4
_TEXT	ENDS
;	COMDAT text$x
text$x	SEGMENT
__unwindfunclet$??0Resource@Ogre@@QAE@ABV01@@Z$0:
	mov	ecx, DWORD PTR _this$[ebp]
	jmp	??1BaseObject@Ogre@@MAE@XZ		; Ogre::BaseObject::~BaseObject
__unwindfunclet$??0Resource@Ogre@@QAE@ABV01@@Z$1:
	mov	ecx, DWORD PTR _this$[ebp]
	add	ecx, 8
	jmp	??1FixedString@Ogre@@QAE@XZ		; Ogre::FixedString::~FixedString
__ehhandler$??0Resource@Ogre@@QAE@ABV01@@Z:
	mov	edx, DWORD PTR [esp+8]
	lea	eax, DWORD PTR [edx+12]
	mov	ecx, DWORD PTR [edx-8]
	xor	ecx, eax
	call	@__security_check_cookie@4
	mov	eax, OFFSET __ehfuncinfo$??0Resource@Ogre@@QAE@ABV01@@Z
	jmp	___CxxFrameHandler3
text$x	ENDS
??0Resource@Ogre@@QAE@ABV01@@Z ENDP			; Ogre::Resource::Resource
PUBLIC	??4Resource@Ogre@@QAEAAV01@ABV01@@Z		; Ogre::Resource::operator=
; Function compile flags: /Odtp
;	COMDAT ??4Resource@Ogre@@QAEAAV01@ABV01@@Z
_TEXT	SEGMENT
_this$ = -4						; size = 4
___that$ = 8						; size = 4
??4Resource@Ogre@@QAEAAV01@ABV01@@Z PROC		; Ogre::Resource::operator=, COMDAT
; _this$ = ecx
	push	ebp
	mov	ebp, esp
	push	ecx
	mov	DWORD PTR _this$[ebp], ecx
	mov	eax, DWORD PTR ___that$[ebp]
	push	eax
	mov	ecx, DWORD PTR _this$[ebp]
	call	??4BaseObject@Ogre@@QAEAAV01@ABV01@@Z
	mov	ecx, DWORD PTR ___that$[ebp]
	add	ecx, 8
	push	ecx
	mov	ecx, DWORD PTR _this$[ebp]
	add	ecx, 8
	call	??4FixedString@Ogre@@QAEAAV01@ABV01@@Z	; Ogre::FixedString::operator=
	mov	edx, DWORD PTR ___that$[ebp]
	mov	eax, DWORD PTR [edx+12]
	mov	ecx, DWORD PTR _this$[ebp]
	mov	DWORD PTR [ecx+12], eax
	mov	eax, DWORD PTR _this$[ebp]
	mov	esp, ebp
	pop	ebp
	ret	4
??4Resource@Ogre@@QAEAAV01@ABV01@@Z ENDP		; Ogre::Resource::operator=
_TEXT	ENDS
PUBLIC	??_GResource@Ogre@@MAEPAXI@Z			; Ogre::Resource::`scalar deleting destructor'
; Function compile flags: /Odtp
;	COMDAT ??_GResource@Ogre@@MAEPAXI@Z
_TEXT	SEGMENT
_this$ = -4						; size = 4
___flags$ = 8						; size = 4
??_GResource@Ogre@@MAEPAXI@Z PROC			; Ogre::Resource::`scalar deleting destructor', COMDAT
; _this$ = ecx
	push	ebp
	mov	ebp, esp
	push	ecx
	mov	DWORD PTR _this$[ebp], ecx
	mov	ecx, DWORD PTR _this$[ebp]
	call	??1Resource@Ogre@@MAE@XZ		; Ogre::Resource::~Resource
	mov	eax, DWORD PTR ___flags$[ebp]
	and	eax, 1
	je	SHORT $LN1@scalar@2
	push	16					; 00000010H
	mov	ecx, DWORD PTR _this$[ebp]
	push	ecx
	call	??3MemoryDelegation@Ogre@@SAXPAXI@Z	; Ogre::MemoryDelegation::operator delete
	add	esp, 8
$LN1@scalar@2:
	mov	eax, DWORD PTR _this$[ebp]
	mov	esp, ebp
	pop	ebp
	ret	4
??_GResource@Ogre@@MAEPAXI@Z ENDP			; Ogre::Resource::`scalar deleting destructor'
; Function compile flags: /Odtp
_TEXT	ENDS
;	COMDAT ??_EResource@Ogre@@MAEPAXI@Z
_TEXT	SEGMENT
_this$ = -4						; size = 4
___flags$ = 8						; size = 4
??_EResource@Ogre@@MAEPAXI@Z PROC			; Ogre::Resource::`vector deleting destructor', COMDAT
; _this$ = ecx
	push	ebp
	mov	ebp, esp
	push	ecx
	mov	DWORD PTR _this$[ebp], ecx
	mov	eax, DWORD PTR ___flags$[ebp]
	and	eax, 2
	je	SHORT $LN3@vector@2
	push	OFFSET ??1Resource@Ogre@@MAE@XZ		; Ogre::Resource::~Resource
	mov	ecx, DWORD PTR _this$[ebp]
	mov	edx, DWORD PTR [ecx-4]
	push	edx
	push	16					; 00000010H
	mov	eax, DWORD PTR _this$[ebp]
	push	eax
	call	??_M@YGXPAXIHP6EX0@Z@Z
	mov	ecx, DWORD PTR ___flags$[ebp]
	and	ecx, 1
	je	SHORT $LN2@vector@2
	push	16					; 00000010H
	mov	edx, DWORD PTR _this$[ebp]
	sub	edx, 4
	push	edx
	call	??_VMemoryDelegation@Ogre@@SAXPAXI@Z	; Ogre::MemoryDelegation::operator delete[]
	add	esp, 8
$LN2@vector@2:
	mov	eax, DWORD PTR _this$[ebp]
	sub	eax, 4
	jmp	SHORT $LN4@vector@2
$LN3@vector@2:
	mov	ecx, DWORD PTR _this$[ebp]
	call	??1Resource@Ogre@@MAE@XZ		; Ogre::Resource::~Resource
	mov	eax, DWORD PTR ___flags$[ebp]
	and	eax, 1
	je	SHORT $LN1@vector@2
	push	16					; 00000010H
	mov	ecx, DWORD PTR _this$[ebp]
	push	ecx
	call	??3MemoryDelegation@Ogre@@SAXPAXI@Z	; Ogre::MemoryDelegation::operator delete
	add	esp, 8
$LN1@vector@2:
	mov	eax, DWORD PTR _this$[ebp]
$LN4@vector@2:
	mov	esp, ebp
	pop	ebp
	ret	4
??_EResource@Ogre@@MAEPAXI@Z ENDP			; Ogre::Resource::`vector deleting destructor'
_TEXT	ENDS
PUBLIC	??_7DataStream@Ogre@@6B@			; Ogre::DataStream::`vftable'
PUBLIC	??0DataStream@Ogre@@QAE@XZ			; Ogre::DataStream::DataStream
PUBLIC	??_R4DataStream@Ogre@@6B@			; Ogre::DataStream::`RTTI Complete Object Locator'
PUBLIC	??_R0?AVDataStream@Ogre@@@8			; Ogre::DataStream `RTTI Type Descriptor'
PUBLIC	??_R3DataStream@Ogre@@8				; Ogre::DataStream::`RTTI Class Hierarchy Descriptor'
PUBLIC	??_R2DataStream@Ogre@@8				; Ogre::DataStream::`RTTI Base Class Array'
PUBLIC	??_R1A@?0A@EA@DataStream@Ogre@@8		; Ogre::DataStream::`RTTI Base Class Descriptor at (0,-1,0,64)'
PUBLIC	??_EDataStream@Ogre@@UAEPAXI@Z			; Ogre::DataStream::`vector deleting destructor'
PUBLIC	?size@DataStream@Ogre@@UBEIXZ			; Ogre::DataStream::size
EXTRN	__imp_??1?$basic_string@DU?$char_traits@D@std@@V?$allocator@D@2@@std@@QAE@XZ:PROC
EXTRN	__imp_??0?$basic_string@DU?$char_traits@D@std@@V?$allocator@D@2@@std@@QAE@XZ:PROC
EXTRN	__purecall:PROC
EXTRN	?readLine@DataStream@Ogre@@UAEIPADIABV?$basic_string@DU?$char_traits@D@std@@V?$allocator@D@2@@std@@@Z:PROC ; Ogre::DataStream::readLine
EXTRN	?getLine@DataStream@Ogre@@UAE?AV?$basic_string@DU?$char_traits@D@std@@V?$allocator@D@2@@std@@_N@Z:PROC ; Ogre::DataStream::getLine
EXTRN	?getAsString@DataStream@Ogre@@UAE?AV?$basic_string@DU?$char_traits@D@std@@V?$allocator@D@2@@std@@XZ:PROC ; Ogre::DataStream::getAsString
EXTRN	?skipLine@DataStream@Ogre@@UAEIABV?$basic_string@DU?$char_traits@D@std@@V?$allocator@D@2@@std@@@Z:PROC ; Ogre::DataStream::skipLine
;	COMDAT ??_R1A@?0A@EA@DataStream@Ogre@@8
; File i:\svnroot\client\ogremain\ogredatastream.h
rdata$r	SEGMENT
??_R1A@?0A@EA@DataStream@Ogre@@8 DD FLAT:??_R0?AVDataStream@Ogre@@@8 ; Ogre::DataStream::`RTTI Base Class Descriptor at (0,-1,0,64)'
	DD	00H
	DD	00H
	DD	0ffffffffH
	DD	00H
	DD	040H
	DD	FLAT:??_R3DataStream@Ogre@@8
rdata$r	ENDS
;	COMDAT ??_R2DataStream@Ogre@@8
rdata$r	SEGMENT
??_R2DataStream@Ogre@@8 DD FLAT:??_R1A@?0A@EA@DataStream@Ogre@@8 ; Ogre::DataStream::`RTTI Base Class Array'
rdata$r	ENDS
;	COMDAT ??_R3DataStream@Ogre@@8
rdata$r	SEGMENT
??_R3DataStream@Ogre@@8 DD 00H				; Ogre::DataStream::`RTTI Class Hierarchy Descriptor'
	DD	00H
	DD	01H
	DD	FLAT:??_R2DataStream@Ogre@@8
rdata$r	ENDS
;	COMDAT ??_R0?AVDataStream@Ogre@@@8
_DATA	SEGMENT
??_R0?AVDataStream@Ogre@@@8 DD FLAT:??_7type_info@@6B@	; Ogre::DataStream `RTTI Type Descriptor'
	DD	00H
	DB	'.?AVDataStream@Ogre@@', 00H
_DATA	ENDS
;	COMDAT ??_R4DataStream@Ogre@@6B@
rdata$r	SEGMENT
??_R4DataStream@Ogre@@6B@ DD 00H			; Ogre::DataStream::`RTTI Complete Object Locator'
	DD	00H
	DD	00H
	DD	FLAT:??_R0?AVDataStream@Ogre@@@8
	DD	FLAT:??_R3DataStream@Ogre@@8
rdata$r	ENDS
;	COMDAT ??_7DataStream@Ogre@@6B@
CONST	SEGMENT
??_7DataStream@Ogre@@6B@ DD FLAT:??_R4DataStream@Ogre@@6B@ ; Ogre::DataStream::`vftable'
	DD	FLAT:??_EDataStream@Ogre@@UAEPAXI@Z
	DD	FLAT:__purecall
	DD	FLAT:__purecall
	DD	FLAT:?readLine@DataStream@Ogre@@UAEIPADIABV?$basic_string@DU?$char_traits@D@std@@V?$allocator@D@2@@std@@@Z
	DD	FLAT:?getLine@DataStream@Ogre@@UAE?AV?$basic_string@DU?$char_traits@D@std@@V?$allocator@D@2@@std@@_N@Z
	DD	FLAT:?getAsString@DataStream@Ogre@@UAE?AV?$basic_string@DU?$char_traits@D@std@@V?$allocator@D@2@@std@@XZ
	DD	FLAT:?skipLine@DataStream@Ogre@@UAEIABV?$basic_string@DU?$char_traits@D@std@@V?$allocator@D@2@@std@@@Z
	DD	FLAT:__purecall
	DD	FLAT:__purecall
	DD	FLAT:__purecall
	DD	FLAT:__purecall
	DD	FLAT:?size@DataStream@Ogre@@UBEIXZ
	DD	FLAT:__purecall
	DD	FLAT:__purecall
CONST	ENDS
;	COMDAT xdata$x
xdata$x	SEGMENT
__unwindtable$??0DataStream@Ogre@@QAE@XZ DD 0ffffffffH
	DD	FLAT:__unwindfunclet$??0DataStream@Ogre@@QAE@XZ$0
__ehfuncinfo$??0DataStream@Ogre@@QAE@XZ DD 019930522H
	DD	01H
	DD	FLAT:__unwindtable$??0DataStream@Ogre@@QAE@XZ
	DD	2 DUP(00H)
	DD	2 DUP(00H)
	DD	00H
	DD	00H
; Function compile flags: /Odtp
xdata$x	ENDS
;	COMDAT ??0DataStream@Ogre@@QAE@XZ
_TEXT	SEGMENT
_this$ = -16						; size = 4
__$EHRec$ = -12						; size = 12
??0DataStream@Ogre@@QAE@XZ PROC				; Ogre::DataStream::DataStream, COMDAT
; _this$ = ecx

; 68   : 		DataStream() : mSize(0) {}

	push	ebp
	mov	ebp, esp
	push	-1
	push	__ehhandler$??0DataStream@Ogre@@QAE@XZ
	mov	eax, DWORD PTR fs:0
	push	eax
	push	ecx
	mov	eax, DWORD PTR ___security_cookie
	xor	eax, ebp
	push	eax
	lea	eax, DWORD PTR __$EHRec$[ebp]
	mov	DWORD PTR fs:0, eax
	mov	DWORD PTR _this$[ebp], ecx
	mov	eax, DWORD PTR _this$[ebp]
	mov	DWORD PTR [eax], OFFSET ??_7DataStream@Ogre@@6B@
	mov	ecx, DWORD PTR _this$[ebp]
	add	ecx, 4
	call	DWORD PTR __imp_??0?$basic_string@DU?$char_traits@D@std@@V?$allocator@D@2@@std@@QAE@XZ
	mov	DWORD PTR __$EHRec$[ebp+8], 0
	mov	ecx, DWORD PTR _this$[ebp]
	mov	DWORD PTR [ecx+32], 0
	mov	DWORD PTR __$EHRec$[ebp+8], -1
	mov	eax, DWORD PTR _this$[ebp]
	mov	ecx, DWORD PTR __$EHRec$[ebp]
	mov	DWORD PTR fs:0, ecx
	pop	ecx
	mov	esp, ebp
	pop	ebp
	ret	0
_TEXT	ENDS
;	COMDAT text$x
text$x	SEGMENT
__unwindfunclet$??0DataStream@Ogre@@QAE@XZ$0:
	mov	ecx, DWORD PTR _this$[ebp]
	add	ecx, 4
	jmp	DWORD PTR __imp_??1?$basic_string@DU?$char_traits@D@std@@V?$allocator@D@2@@std@@QAE@XZ
__ehhandler$??0DataStream@Ogre@@QAE@XZ:
	mov	edx, DWORD PTR [esp+8]
	lea	eax, DWORD PTR [edx+12]
	mov	ecx, DWORD PTR [edx-8]
	xor	ecx, eax
	call	@__security_check_cookie@4
	mov	eax, OFFSET __ehfuncinfo$??0DataStream@Ogre@@QAE@XZ
	jmp	___CxxFrameHandler3
text$x	ENDS
??0DataStream@Ogre@@QAE@XZ ENDP				; Ogre::DataStream::DataStream
PUBLIC	??0DataStream@Ogre@@QAE@ABV?$basic_string@DU?$char_traits@D@std@@V?$allocator@D@2@@std@@@Z ; Ogre::DataStream::DataStream
EXTRN	__imp_??0?$basic_string@DU?$char_traits@D@std@@V?$allocator@D@2@@std@@QAE@ABV01@@Z:PROC
;	COMDAT xdata$x
xdata$x	SEGMENT
__unwindtable$??0DataStream@Ogre@@QAE@ABV?$basic_string@DU?$char_traits@D@std@@V?$allocator@D@2@@std@@@Z DD 0ffffffffH
	DD	FLAT:__unwindfunclet$??0DataStream@Ogre@@QAE@ABV?$basic_string@DU?$char_traits@D@std@@V?$allocator@D@2@@std@@@Z$0
__ehfuncinfo$??0DataStream@Ogre@@QAE@ABV?$basic_string@DU?$char_traits@D@std@@V?$allocator@D@2@@std@@@Z DD 019930522H
	DD	01H
	DD	FLAT:__unwindtable$??0DataStream@Ogre@@QAE@ABV?$basic_string@DU?$char_traits@D@std@@V?$allocator@D@2@@std@@@Z
	DD	2 DUP(00H)
	DD	2 DUP(00H)
	DD	00H
	DD	00H
; Function compile flags: /Odtp
xdata$x	ENDS
;	COMDAT ??0DataStream@Ogre@@QAE@ABV?$basic_string@DU?$char_traits@D@std@@V?$allocator@D@2@@std@@@Z
_TEXT	SEGMENT
_this$ = -16						; size = 4
__$EHRec$ = -12						; size = 12
_name$ = 8						; size = 4
??0DataStream@Ogre@@QAE@ABV?$basic_string@DU?$char_traits@D@std@@V?$allocator@D@2@@std@@@Z PROC ; Ogre::DataStream::DataStream, COMDAT
; _this$ = ecx

; 70   : 		DataStream(const String& name) : mName(name), mSize(0) {}

	push	ebp
	mov	ebp, esp
	push	-1
	push	__ehhandler$??0DataStream@Ogre@@QAE@ABV?$basic_string@DU?$char_traits@D@std@@V?$allocator@D@2@@std@@@Z
	mov	eax, DWORD PTR fs:0
	push	eax
	push	ecx
	mov	eax, DWORD PTR ___security_cookie
	xor	eax, ebp
	push	eax
	lea	eax, DWORD PTR __$EHRec$[ebp]
	mov	DWORD PTR fs:0, eax
	mov	DWORD PTR _this$[ebp], ecx
	mov	eax, DWORD PTR _this$[ebp]
	mov	DWORD PTR [eax], OFFSET ??_7DataStream@Ogre@@6B@
	mov	ecx, DWORD PTR _name$[ebp]
	push	ecx
	mov	ecx, DWORD PTR _this$[ebp]
	add	ecx, 4
	call	DWORD PTR __imp_??0?$basic_string@DU?$char_traits@D@std@@V?$allocator@D@2@@std@@QAE@ABV01@@Z
	mov	DWORD PTR __$EHRec$[ebp+8], 0
	mov	edx, DWORD PTR _this$[ebp]
	mov	DWORD PTR [edx+32], 0
	mov	DWORD PTR __$EHRec$[ebp+8], -1
	mov	eax, DWORD PTR _this$[ebp]
	mov	ecx, DWORD PTR __$EHRec$[ebp]
	mov	DWORD PTR fs:0, ecx
	pop	ecx
	mov	esp, ebp
	pop	ebp
	ret	4
_TEXT	ENDS
;	COMDAT text$x
text$x	SEGMENT
__unwindfunclet$??0DataStream@Ogre@@QAE@ABV?$basic_string@DU?$char_traits@D@std@@V?$allocator@D@2@@std@@@Z$0:
	mov	ecx, DWORD PTR _this$[ebp]
	add	ecx, 4
	jmp	DWORD PTR __imp_??1?$basic_string@DU?$char_traits@D@std@@V?$allocator@D@2@@std@@QAE@XZ
__ehhandler$??0DataStream@Ogre@@QAE@ABV?$basic_string@DU?$char_traits@D@std@@V?$allocator@D@2@@std@@@Z:
	mov	edx, DWORD PTR [esp+8]
	lea	eax, DWORD PTR [edx+12]
	mov	ecx, DWORD PTR [edx-8]
	xor	ecx, eax
	call	@__security_check_cookie@4
	mov	eax, OFFSET __ehfuncinfo$??0DataStream@Ogre@@QAE@ABV?$basic_string@DU?$char_traits@D@std@@V?$allocator@D@2@@std@@@Z
	jmp	___CxxFrameHandler3
text$x	ENDS
??0DataStream@Ogre@@QAE@ABV?$basic_string@DU?$char_traits@D@std@@V?$allocator@D@2@@std@@@Z ENDP ; Ogre::DataStream::DataStream
PUBLIC	?getName@DataStream@Ogre@@QAEABV?$basic_string@DU?$char_traits@D@std@@V?$allocator@D@2@@std@@XZ ; Ogre::DataStream::getName
; Function compile flags: /Odtp
;	COMDAT ?getName@DataStream@Ogre@@QAEABV?$basic_string@DU?$char_traits@D@std@@V?$allocator@D@2@@std@@XZ
_TEXT	SEGMENT
_this$ = -4						; size = 4
?getName@DataStream@Ogre@@QAEABV?$basic_string@DU?$char_traits@D@std@@V?$allocator@D@2@@std@@XZ PROC ; Ogre::DataStream::getName, COMDAT
; _this$ = ecx

; 72   : 		const String& getName(void) { return mName; }

	push	ebp
	mov	ebp, esp
	push	ecx
	mov	DWORD PTR _this$[ebp], ecx
	mov	eax, DWORD PTR _this$[ebp]
	add	eax, 4
	mov	esp, ebp
	pop	ebp
	ret	0
?getName@DataStream@Ogre@@QAEABV?$basic_string@DU?$char_traits@D@std@@V?$allocator@D@2@@std@@XZ ENDP ; Ogre::DataStream::getName
_TEXT	ENDS
PUBLIC	??1DataStream@Ogre@@UAE@XZ			; Ogre::DataStream::~DataStream
;	COMDAT xdata$x
xdata$x	SEGMENT
__unwindtable$??1DataStream@Ogre@@UAE@XZ DD 0ffffffffH
	DD	FLAT:__unwindfunclet$??1DataStream@Ogre@@UAE@XZ$0
__ehfuncinfo$??1DataStream@Ogre@@UAE@XZ DD 019930522H
	DD	01H
	DD	FLAT:__unwindtable$??1DataStream@Ogre@@UAE@XZ
	DD	2 DUP(00H)
	DD	2 DUP(00H)
	DD	00H
	DD	00H
; Function compile flags: /Odtp
xdata$x	ENDS
;	COMDAT ??1DataStream@Ogre@@UAE@XZ
_TEXT	SEGMENT
_this$ = -16						; size = 4
__$EHRec$ = -12						; size = 12
??1DataStream@Ogre@@UAE@XZ PROC				; Ogre::DataStream::~DataStream, COMDAT
; _this$ = ecx

; 73   : 		virtual ~DataStream() {}

	push	ebp
	mov	ebp, esp
	push	-1
	push	__ehhandler$??1DataStream@Ogre@@UAE@XZ
	mov	eax, DWORD PTR fs:0
	push	eax
	push	ecx
	mov	eax, DWORD PTR ___security_cookie
	xor	eax, ebp
	push	eax
	lea	eax, DWORD PTR __$EHRec$[ebp]
	mov	DWORD PTR fs:0, eax
	mov	DWORD PTR _this$[ebp], ecx
	mov	eax, DWORD PTR _this$[ebp]
	mov	DWORD PTR [eax], OFFSET ??_7DataStream@Ogre@@6B@
	mov	DWORD PTR __$EHRec$[ebp+8], 0
	mov	DWORD PTR __$EHRec$[ebp+8], -1
	mov	ecx, DWORD PTR _this$[ebp]
	add	ecx, 4
	call	DWORD PTR __imp_??1?$basic_string@DU?$char_traits@D@std@@V?$allocator@D@2@@std@@QAE@XZ
	mov	ecx, DWORD PTR __$EHRec$[ebp]
	mov	DWORD PTR fs:0, ecx
	pop	ecx
	mov	esp, ebp
	pop	ebp
	ret	0
_TEXT	ENDS
;	COMDAT text$x
text$x	SEGMENT
__unwindfunclet$??1DataStream@Ogre@@UAE@XZ$0:
	mov	ecx, DWORD PTR _this$[ebp]
	add	ecx, 4
	jmp	DWORD PTR __imp_??1?$basic_string@DU?$char_traits@D@std@@V?$allocator@D@2@@std@@QAE@XZ
__ehhandler$??1DataStream@Ogre@@UAE@XZ:
	mov	edx, DWORD PTR [esp+8]
	lea	eax, DWORD PTR [edx+12]
	mov	ecx, DWORD PTR [edx-8]
	xor	ecx, eax
	call	@__security_check_cookie@4
	mov	eax, OFFSET __ehfuncinfo$??1DataStream@Ogre@@UAE@XZ
	jmp	___CxxFrameHandler3
text$x	ENDS
??1DataStream@Ogre@@UAE@XZ ENDP				; Ogre::DataStream::~DataStream
; Function compile flags: /Odtp
;	COMDAT ?size@DataStream@Ogre@@UBEIXZ
_TEXT	SEGMENT
_this$ = -4						; size = 4
?size@DataStream@Ogre@@UBEIXZ PROC			; Ogre::DataStream::size, COMDAT
; _this$ = ecx

; 157  : 		virtual size_t size(void) const { return mSize; }

	push	ebp
	mov	ebp, esp
	push	ecx
	mov	DWORD PTR _this$[ebp], ecx
	mov	eax, DWORD PTR _this$[ebp]
	mov	eax, DWORD PTR [eax+32]
	mov	esp, ebp
	pop	ebp
	ret	0
?size@DataStream@Ogre@@UBEIXZ ENDP			; Ogre::DataStream::size
_TEXT	ENDS
PUBLIC	??0DataStream@Ogre@@QAE@ABV01@@Z		; Ogre::DataStream::DataStream
;	COMDAT xdata$x
xdata$x	SEGMENT
__unwindtable$??0DataStream@Ogre@@QAE@ABV01@@Z DD 0ffffffffH
	DD	FLAT:__unwindfunclet$??0DataStream@Ogre@@QAE@ABV01@@Z$0
__ehfuncinfo$??0DataStream@Ogre@@QAE@ABV01@@Z DD 019930522H
	DD	01H
	DD	FLAT:__unwindtable$??0DataStream@Ogre@@QAE@ABV01@@Z
	DD	2 DUP(00H)
	DD	2 DUP(00H)
	DD	00H
	DD	00H
; Function compile flags: /Odtp
xdata$x	ENDS
;	COMDAT ??0DataStream@Ogre@@QAE@ABV01@@Z
_TEXT	SEGMENT
_this$ = -16						; size = 4
__$EHRec$ = -12						; size = 12
___that$ = 8						; size = 4
??0DataStream@Ogre@@QAE@ABV01@@Z PROC			; Ogre::DataStream::DataStream, COMDAT
; _this$ = ecx
	push	ebp
	mov	ebp, esp
	push	-1
	push	__ehhandler$??0DataStream@Ogre@@QAE@ABV01@@Z
	mov	eax, DWORD PTR fs:0
	push	eax
	push	ecx
	mov	eax, DWORD PTR ___security_cookie
	xor	eax, ebp
	push	eax
	lea	eax, DWORD PTR __$EHRec$[ebp]
	mov	DWORD PTR fs:0, eax
	mov	DWORD PTR _this$[ebp], ecx
	mov	eax, DWORD PTR _this$[ebp]
	mov	DWORD PTR [eax], OFFSET ??_7DataStream@Ogre@@6B@
	mov	ecx, DWORD PTR ___that$[ebp]
	add	ecx, 4
	push	ecx
	mov	ecx, DWORD PTR _this$[ebp]
	add	ecx, 4
	call	DWORD PTR __imp_??0?$basic_string@DU?$char_traits@D@std@@V?$allocator@D@2@@std@@QAE@ABV01@@Z
	mov	DWORD PTR __$EHRec$[ebp+8], 0
	mov	edx, DWORD PTR _this$[ebp]
	mov	eax, DWORD PTR ___that$[ebp]
	mov	ecx, DWORD PTR [eax+32]
	mov	DWORD PTR [edx+32], ecx
	mov	DWORD PTR __$EHRec$[ebp+8], -1
	mov	eax, DWORD PTR _this$[ebp]
	mov	ecx, DWORD PTR __$EHRec$[ebp]
	mov	DWORD PTR fs:0, ecx
	pop	ecx
	mov	esp, ebp
	pop	ebp
	ret	4
_TEXT	ENDS
;	COMDAT text$x
text$x	SEGMENT
__unwindfunclet$??0DataStream@Ogre@@QAE@ABV01@@Z$0:
	mov	ecx, DWORD PTR _this$[ebp]
	add	ecx, 4
	jmp	DWORD PTR __imp_??1?$basic_string@DU?$char_traits@D@std@@V?$allocator@D@2@@std@@QAE@XZ
__ehhandler$??0DataStream@Ogre@@QAE@ABV01@@Z:
	mov	edx, DWORD PTR [esp+8]
	lea	eax, DWORD PTR [edx+12]
	mov	ecx, DWORD PTR [edx-8]
	xor	ecx, eax
	call	@__security_check_cookie@4
	mov	eax, OFFSET __ehfuncinfo$??0DataStream@Ogre@@QAE@ABV01@@Z
	jmp	___CxxFrameHandler3
text$x	ENDS
??0DataStream@Ogre@@QAE@ABV01@@Z ENDP			; Ogre::DataStream::DataStream
PUBLIC	??4DataStream@Ogre@@QAEAAV01@ABV01@@Z		; Ogre::DataStream::operator=
EXTRN	__imp_??4?$basic_string@DU?$char_traits@D@std@@V?$allocator@D@2@@std@@QAEAAV01@ABV01@@Z:PROC
; Function compile flags: /Odtp
;	COMDAT ??4DataStream@Ogre@@QAEAAV01@ABV01@@Z
_TEXT	SEGMENT
_this$ = -4						; size = 4
___that$ = 8						; size = 4
??4DataStream@Ogre@@QAEAAV01@ABV01@@Z PROC		; Ogre::DataStream::operator=, COMDAT
; _this$ = ecx
	push	ebp
	mov	ebp, esp
	push	ecx
	mov	DWORD PTR _this$[ebp], ecx
	mov	eax, DWORD PTR ___that$[ebp]
	add	eax, 4
	push	eax
	mov	ecx, DWORD PTR _this$[ebp]
	add	ecx, 4
	call	DWORD PTR __imp_??4?$basic_string@DU?$char_traits@D@std@@V?$allocator@D@2@@std@@QAEAAV01@ABV01@@Z
	mov	ecx, DWORD PTR _this$[ebp]
	mov	edx, DWORD PTR ___that$[ebp]
	mov	eax, DWORD PTR [edx+32]
	mov	DWORD PTR [ecx+32], eax
	mov	eax, DWORD PTR _this$[ebp]
	mov	esp, ebp
	pop	ebp
	ret	4
??4DataStream@Ogre@@QAEAAV01@ABV01@@Z ENDP		; Ogre::DataStream::operator=
_TEXT	ENDS
PUBLIC	??_GDataStream@Ogre@@UAEPAXI@Z			; Ogre::DataStream::`scalar deleting destructor'
EXTRN	??3@YAXPAX@Z:PROC				; operator delete
; Function compile flags: /Odtp
;	COMDAT ??_GDataStream@Ogre@@UAEPAXI@Z
_TEXT	SEGMENT
_this$ = -4						; size = 4
___flags$ = 8						; size = 4
??_GDataStream@Ogre@@UAEPAXI@Z PROC			; Ogre::DataStream::`scalar deleting destructor', COMDAT
; _this$ = ecx
	push	ebp
	mov	ebp, esp
	push	ecx
	mov	DWORD PTR _this$[ebp], ecx
	mov	ecx, DWORD PTR _this$[ebp]
	call	??1DataStream@Ogre@@UAE@XZ		; Ogre::DataStream::~DataStream
	mov	eax, DWORD PTR ___flags$[ebp]
	and	eax, 1
	je	SHORT $LN1@scalar@3
	mov	ecx, DWORD PTR _this$[ebp]
	push	ecx
	call	??3@YAXPAX@Z				; operator delete
	add	esp, 4
$LN1@scalar@3:
	mov	eax, DWORD PTR _this$[ebp]
	mov	esp, ebp
	pop	ebp
	ret	4
??_GDataStream@Ogre@@UAEPAXI@Z ENDP			; Ogre::DataStream::`scalar deleting destructor'
_TEXT	ENDS
EXTRN	??_V@YAXPAX@Z:PROC				; operator delete[]
; Function compile flags: /Odtp
;	COMDAT ??_EDataStream@Ogre@@UAEPAXI@Z
_TEXT	SEGMENT
_this$ = -4						; size = 4
___flags$ = 8						; size = 4
??_EDataStream@Ogre@@UAEPAXI@Z PROC			; Ogre::DataStream::`vector deleting destructor', COMDAT
; _this$ = ecx
	push	ebp
	mov	ebp, esp
	push	ecx
	mov	DWORD PTR _this$[ebp], ecx
	mov	eax, DWORD PTR ___flags$[ebp]
	and	eax, 2
	je	SHORT $LN3@vector@3
	push	OFFSET ??1DataStream@Ogre@@UAE@XZ	; Ogre::DataStream::~DataStream
	mov	ecx, DWORD PTR _this$[ebp]
	mov	edx, DWORD PTR [ecx-4]
	push	edx
	push	36					; 00000024H
	mov	eax, DWORD PTR _this$[ebp]
	push	eax
	call	??_M@YGXPAXIHP6EX0@Z@Z
	mov	ecx, DWORD PTR ___flags$[ebp]
	and	ecx, 1
	je	SHORT $LN2@vector@3
	mov	edx, DWORD PTR _this$[ebp]
	sub	edx, 4
	push	edx
	call	??_V@YAXPAX@Z				; operator delete[]
	add	esp, 4
$LN2@vector@3:
	mov	eax, DWORD PTR _this$[ebp]
	sub	eax, 4
	jmp	SHORT $LN4@vector@3
$LN3@vector@3:
	mov	ecx, DWORD PTR _this$[ebp]
	call	??1DataStream@Ogre@@UAE@XZ		; Ogre::DataStream::~DataStream
	mov	eax, DWORD PTR ___flags$[ebp]
	and	eax, 1
	je	SHORT $LN1@vector@3
	mov	ecx, DWORD PTR _this$[ebp]
	push	ecx
	call	??3@YAXPAX@Z				; operator delete
	add	esp, 4
$LN1@vector@3:
	mov	eax, DWORD PTR _this$[ebp]
$LN4@vector@3:
	mov	esp, ebp
	pop	ebp
	ret	4
??_EDataStream@Ogre@@UAEPAXI@Z ENDP			; Ogre::DataStream::`vector deleting destructor'
_TEXT	ENDS
PUBLIC	?getPtr@MemoryDataStream@Ogre@@QAEPAEXZ		; Ogre::MemoryDataStream::getPtr
; Function compile flags: /Odtp
;	COMDAT ?getPtr@MemoryDataStream@Ogre@@QAEPAEXZ
_TEXT	SEGMENT
_this$ = -4						; size = 4
?getPtr@MemoryDataStream@Ogre@@QAEPAEXZ PROC		; Ogre::MemoryDataStream::getPtr, COMDAT
; _this$ = ecx

; 267  : 		uchar* getPtr(void) { return mData; }

	push	ebp
	mov	ebp, esp
	push	ecx
	mov	DWORD PTR _this$[ebp], ecx
	mov	eax, DWORD PTR _this$[ebp]
	mov	eax, DWORD PTR [eax+36]
	mov	esp, ebp
	pop	ebp
	ret	0
?getPtr@MemoryDataStream@Ogre@@QAEPAEXZ ENDP		; Ogre::MemoryDataStream::getPtr
_TEXT	ENDS
PUBLIC	?getCurrentPtr@MemoryDataStream@Ogre@@QAEPAEXZ	; Ogre::MemoryDataStream::getCurrentPtr
; Function compile flags: /Odtp
;	COMDAT ?getCurrentPtr@MemoryDataStream@Ogre@@QAEPAEXZ
_TEXT	SEGMENT
_this$ = -4						; size = 4
?getCurrentPtr@MemoryDataStream@Ogre@@QAEPAEXZ PROC	; Ogre::MemoryDataStream::getCurrentPtr, COMDAT
; _this$ = ecx

; 270  : 		uchar* getCurrentPtr(void) { return mPos; }

	push	ebp
	mov	ebp, esp
	push	ecx
	mov	DWORD PTR _this$[ebp], ecx
	mov	eax, DWORD PTR _this$[ebp]
	mov	eax, DWORD PTR [eax+40]
	mov	esp, ebp
	pop	ebp
	ret	0
?getCurrentPtr@MemoryDataStream@Ogre@@QAEPAEXZ ENDP	; Ogre::MemoryDataStream::getCurrentPtr
_TEXT	ENDS
PUBLIC	?getMemoryImage@MemoryDataStream@Ogre@@UAEPAXXZ	; Ogre::MemoryDataStream::getMemoryImage
; Function compile flags: /Odtp
;	COMDAT ?getMemoryImage@MemoryDataStream@Ogre@@UAEPAXXZ
_TEXT	SEGMENT
_this$ = -4						; size = 4
?getMemoryImage@MemoryDataStream@Ogre@@UAEPAXXZ PROC	; Ogre::MemoryDataStream::getMemoryImage, COMDAT
; _this$ = ecx

; 307  : 		{

	push	ebp
	mov	ebp, esp
	push	ecx
	mov	DWORD PTR _this$[ebp], ecx

; 308  : 			return mData;

	mov	eax, DWORD PTR _this$[ebp]
	mov	eax, DWORD PTR [eax+36]

; 309  : 		}

	mov	esp, ebp
	pop	ebp
	ret	0
?getMemoryImage@MemoryDataStream@Ogre@@UAEPAXXZ ENDP	; Ogre::MemoryDataStream::getMemoryImage
_TEXT	ENDS
PUBLIC	?setFreeOnClose@MemoryDataStream@Ogre@@QAEXP6AXPAX@Z@Z ; Ogre::MemoryDataStream::setFreeOnClose
; Function compile flags: /Odtp
;	COMDAT ?setFreeOnClose@MemoryDataStream@Ogre@@QAEXP6AXPAX@Z@Z
_TEXT	SEGMENT
_this$ = -4						; size = 4
_freeOnClose$ = 8					; size = 4
?setFreeOnClose@MemoryDataStream@Ogre@@QAEXP6AXPAX@Z@Z PROC ; Ogre::MemoryDataStream::setFreeOnClose, COMDAT
; _this$ = ecx

; 313  : 		void setFreeOnClose(void (*freeOnClose)(void *)) { mFreeOnClose = freeOnClose; }

	push	ebp
	mov	ebp, esp
	push	ecx
	mov	DWORD PTR _this$[ebp], ecx
	mov	eax, DWORD PTR _this$[ebp]
	mov	ecx, DWORD PTR _freeOnClose$[ebp]
	mov	DWORD PTR [eax+48], ecx
	mov	esp, ebp
	pop	ebp
	ret	4
?setFreeOnClose@MemoryDataStream@Ogre@@QAEXP6AXPAX@Z@Z ENDP ; Ogre::MemoryDataStream::setFreeOnClose
_TEXT	ENDS
PUBLIC	??_7MemoryDataStream@Ogre@@6B@			; Ogre::MemoryDataStream::`vftable'
PUBLIC	??0MemoryDataStream@Ogre@@QAE@ABV01@@Z		; Ogre::MemoryDataStream::MemoryDataStream
PUBLIC	??_R4MemoryDataStream@Ogre@@6B@			; Ogre::MemoryDataStream::`RTTI Complete Object Locator'
PUBLIC	??_R0?AVMemoryDataStream@Ogre@@@8		; Ogre::MemoryDataStream `RTTI Type Descriptor'
PUBLIC	??_R3MemoryDataStream@Ogre@@8			; Ogre::MemoryDataStream::`RTTI Class Hierarchy Descriptor'
PUBLIC	??_R2MemoryDataStream@Ogre@@8			; Ogre::MemoryDataStream::`RTTI Base Class Array'
PUBLIC	??_R1A@?0A@EA@MemoryDataStream@Ogre@@8		; Ogre::MemoryDataStream::`RTTI Base Class Descriptor at (0,-1,0,64)'
PUBLIC	??_EMemoryDataStream@Ogre@@UAEPAXI@Z		; Ogre::MemoryDataStream::`vector deleting destructor'
EXTRN	?read@MemoryDataStream@Ogre@@UAEIPAXI@Z:PROC	; Ogre::MemoryDataStream::read
EXTRN	?write@MemoryDataStream@Ogre@@UAEIPBXI@Z:PROC	; Ogre::MemoryDataStream::write
EXTRN	?readLine@MemoryDataStream@Ogre@@UAEIPADIABV?$basic_string@DU?$char_traits@D@std@@V?$allocator@D@2@@std@@@Z:PROC ; Ogre::MemoryDataStream::readLine
EXTRN	?skipLine@MemoryDataStream@Ogre@@UAEIABV?$basic_string@DU?$char_traits@D@std@@V?$allocator@D@2@@std@@@Z:PROC ; Ogre::MemoryDataStream::skipLine
EXTRN	?skip@MemoryDataStream@Ogre@@UAEXJ@Z:PROC	; Ogre::MemoryDataStream::skip
EXTRN	?seek@MemoryDataStream@Ogre@@UAEXI@Z:PROC	; Ogre::MemoryDataStream::seek
EXTRN	?tell@MemoryDataStream@Ogre@@UBEIXZ:PROC	; Ogre::MemoryDataStream::tell
EXTRN	?eof@MemoryDataStream@Ogre@@UBE_NXZ:PROC	; Ogre::MemoryDataStream::eof
EXTRN	?close@MemoryDataStream@Ogre@@UAEXXZ:PROC	; Ogre::MemoryDataStream::close
;	COMDAT ??_R1A@?0A@EA@MemoryDataStream@Ogre@@8
rdata$r	SEGMENT
??_R1A@?0A@EA@MemoryDataStream@Ogre@@8 DD FLAT:??_R0?AVMemoryDataStream@Ogre@@@8 ; Ogre::MemoryDataStream::`RTTI Base Class Descriptor at (0,-1,0,64)'
	DD	01H
	DD	00H
	DD	0ffffffffH
	DD	00H
	DD	040H
	DD	FLAT:??_R3MemoryDataStream@Ogre@@8
rdata$r	ENDS
;	COMDAT ??_R2MemoryDataStream@Ogre@@8
rdata$r	SEGMENT
??_R2MemoryDataStream@Ogre@@8 DD FLAT:??_R1A@?0A@EA@MemoryDataStream@Ogre@@8 ; Ogre::MemoryDataStream::`RTTI Base Class Array'
	DD	FLAT:??_R1A@?0A@EA@DataStream@Ogre@@8
rdata$r	ENDS
;	COMDAT ??_R3MemoryDataStream@Ogre@@8
rdata$r	SEGMENT
??_R3MemoryDataStream@Ogre@@8 DD 00H			; Ogre::MemoryDataStream::`RTTI Class Hierarchy Descriptor'
	DD	00H
	DD	02H
	DD	FLAT:??_R2MemoryDataStream@Ogre@@8
rdata$r	ENDS
;	COMDAT ??_R0?AVMemoryDataStream@Ogre@@@8
_DATA	SEGMENT
??_R0?AVMemoryDataStream@Ogre@@@8 DD FLAT:??_7type_info@@6B@ ; Ogre::MemoryDataStream `RTTI Type Descriptor'
	DD	00H
	DB	'.?AVMemoryDataStream@Ogre@@', 00H
_DATA	ENDS
;	COMDAT ??_R4MemoryDataStream@Ogre@@6B@
rdata$r	SEGMENT
??_R4MemoryDataStream@Ogre@@6B@ DD 00H			; Ogre::MemoryDataStream::`RTTI Complete Object Locator'
	DD	00H
	DD	00H
	DD	FLAT:??_R0?AVMemoryDataStream@Ogre@@@8
	DD	FLAT:??_R3MemoryDataStream@Ogre@@8
rdata$r	ENDS
;	COMDAT ??_7MemoryDataStream@Ogre@@6B@
CONST	SEGMENT
??_7MemoryDataStream@Ogre@@6B@ DD FLAT:??_R4MemoryDataStream@Ogre@@6B@ ; Ogre::MemoryDataStream::`vftable'
	DD	FLAT:??_EMemoryDataStream@Ogre@@UAEPAXI@Z
	DD	FLAT:?read@MemoryDataStream@Ogre@@UAEIPAXI@Z
	DD	FLAT:?write@MemoryDataStream@Ogre@@UAEIPBXI@Z
	DD	FLAT:?readLine@MemoryDataStream@Ogre@@UAEIPADIABV?$basic_string@DU?$char_traits@D@std@@V?$allocator@D@2@@std@@@Z
	DD	FLAT:?getLine@DataStream@Ogre@@UAE?AV?$basic_string@DU?$char_traits@D@std@@V?$allocator@D@2@@std@@_N@Z
	DD	FLAT:?getAsString@DataStream@Ogre@@UAE?AV?$basic_string@DU?$char_traits@D@std@@V?$allocator@D@2@@std@@XZ
	DD	FLAT:?skipLine@MemoryDataStream@Ogre@@UAEIABV?$basic_string@DU?$char_traits@D@std@@V?$allocator@D@2@@std@@@Z
	DD	FLAT:?skip@MemoryDataStream@Ogre@@UAEXJ@Z
	DD	FLAT:?seek@MemoryDataStream@Ogre@@UAEXI@Z
	DD	FLAT:?tell@MemoryDataStream@Ogre@@UBEIXZ
	DD	FLAT:?eof@MemoryDataStream@Ogre@@UBE_NXZ
	DD	FLAT:?size@DataStream@Ogre@@UBEIXZ
	DD	FLAT:?close@MemoryDataStream@Ogre@@UAEXXZ
	DD	FLAT:?getMemoryImage@MemoryDataStream@Ogre@@UAEPAXXZ
CONST	ENDS
;	COMDAT xdata$x
xdata$x	SEGMENT
__unwindtable$??0MemoryDataStream@Ogre@@QAE@ABV01@@Z DD 0ffffffffH
	DD	FLAT:__unwindfunclet$??0MemoryDataStream@Ogre@@QAE@ABV01@@Z$0
__ehfuncinfo$??0MemoryDataStream@Ogre@@QAE@ABV01@@Z DD 019930522H
	DD	01H
	DD	FLAT:__unwindtable$??0MemoryDataStream@Ogre@@QAE@ABV01@@Z
	DD	2 DUP(00H)
	DD	2 DUP(00H)
	DD	00H
	DD	00H
; Function compile flags: /Odtp
xdata$x	ENDS
;	COMDAT ??0MemoryDataStream@Ogre@@QAE@ABV01@@Z
_TEXT	SEGMENT
_this$ = -16						; size = 4
__$EHRec$ = -12						; size = 12
___that$ = 8						; size = 4
??0MemoryDataStream@Ogre@@QAE@ABV01@@Z PROC		; Ogre::MemoryDataStream::MemoryDataStream, COMDAT
; _this$ = ecx
	push	ebp
	mov	ebp, esp
	push	-1
	push	__ehhandler$??0MemoryDataStream@Ogre@@QAE@ABV01@@Z
	mov	eax, DWORD PTR fs:0
	push	eax
	push	ecx
	mov	eax, DWORD PTR ___security_cookie
	xor	eax, ebp
	push	eax
	lea	eax, DWORD PTR __$EHRec$[ebp]
	mov	DWORD PTR fs:0, eax
	mov	DWORD PTR _this$[ebp], ecx
	mov	eax, DWORD PTR ___that$[ebp]
	push	eax
	mov	ecx, DWORD PTR _this$[ebp]
	call	??0DataStream@Ogre@@QAE@ABV01@@Z
	mov	DWORD PTR __$EHRec$[ebp+8], 0
	mov	ecx, DWORD PTR _this$[ebp]
	mov	DWORD PTR [ecx], OFFSET ??_7MemoryDataStream@Ogre@@6B@
	mov	edx, DWORD PTR _this$[ebp]
	mov	eax, DWORD PTR ___that$[ebp]
	mov	ecx, DWORD PTR [eax+36]
	mov	DWORD PTR [edx+36], ecx
	mov	edx, DWORD PTR _this$[ebp]
	mov	eax, DWORD PTR ___that$[ebp]
	mov	ecx, DWORD PTR [eax+40]
	mov	DWORD PTR [edx+40], ecx
	mov	edx, DWORD PTR _this$[ebp]
	mov	eax, DWORD PTR ___that$[ebp]
	mov	ecx, DWORD PTR [eax+44]
	mov	DWORD PTR [edx+44], ecx
	mov	edx, DWORD PTR _this$[ebp]
	mov	eax, DWORD PTR ___that$[ebp]
	mov	ecx, DWORD PTR [eax+48]
	mov	DWORD PTR [edx+48], ecx
	mov	DWORD PTR __$EHRec$[ebp+8], -1
	mov	eax, DWORD PTR _this$[ebp]
	mov	ecx, DWORD PTR __$EHRec$[ebp]
	mov	DWORD PTR fs:0, ecx
	pop	ecx
	mov	esp, ebp
	pop	ebp
	ret	4
_TEXT	ENDS
;	COMDAT text$x
text$x	SEGMENT
__unwindfunclet$??0MemoryDataStream@Ogre@@QAE@ABV01@@Z$0:
	mov	ecx, DWORD PTR _this$[ebp]
	jmp	??1DataStream@Ogre@@UAE@XZ		; Ogre::DataStream::~DataStream
__ehhandler$??0MemoryDataStream@Ogre@@QAE@ABV01@@Z:
	mov	edx, DWORD PTR [esp+8]
	lea	eax, DWORD PTR [edx+12]
	mov	ecx, DWORD PTR [edx-8]
	xor	ecx, eax
	call	@__security_check_cookie@4
	mov	eax, OFFSET __ehfuncinfo$??0MemoryDataStream@Ogre@@QAE@ABV01@@Z
	jmp	___CxxFrameHandler3
text$x	ENDS
??0MemoryDataStream@Ogre@@QAE@ABV01@@Z ENDP		; Ogre::MemoryDataStream::MemoryDataStream
PUBLIC	??4MemoryDataStream@Ogre@@QAEAAV01@ABV01@@Z	; Ogre::MemoryDataStream::operator=
; Function compile flags: /Odtp
;	COMDAT ??4MemoryDataStream@Ogre@@QAEAAV01@ABV01@@Z
_TEXT	SEGMENT
_this$ = -4						; size = 4
___that$ = 8						; size = 4
??4MemoryDataStream@Ogre@@QAEAAV01@ABV01@@Z PROC	; Ogre::MemoryDataStream::operator=, COMDAT
; _this$ = ecx
	push	ebp
	mov	ebp, esp
	push	ecx
	mov	DWORD PTR _this$[ebp], ecx
	mov	eax, DWORD PTR ___that$[ebp]
	push	eax
	mov	ecx, DWORD PTR _this$[ebp]
	call	??4DataStream@Ogre@@QAEAAV01@ABV01@@Z
	mov	ecx, DWORD PTR _this$[ebp]
	mov	edx, DWORD PTR ___that$[ebp]
	mov	eax, DWORD PTR [edx+36]
	mov	DWORD PTR [ecx+36], eax
	mov	ecx, DWORD PTR _this$[ebp]
	mov	edx, DWORD PTR ___that$[ebp]
	mov	eax, DWORD PTR [edx+40]
	mov	DWORD PTR [ecx+40], eax
	mov	ecx, DWORD PTR _this$[ebp]
	mov	edx, DWORD PTR ___that$[ebp]
	mov	eax, DWORD PTR [edx+44]
	mov	DWORD PTR [ecx+44], eax
	mov	ecx, DWORD PTR _this$[ebp]
	mov	edx, DWORD PTR ___that$[ebp]
	mov	eax, DWORD PTR [edx+48]
	mov	DWORD PTR [ecx+48], eax
	mov	eax, DWORD PTR _this$[ebp]
	mov	esp, ebp
	pop	ebp
	ret	4
??4MemoryDataStream@Ogre@@QAEAAV01@ABV01@@Z ENDP	; Ogre::MemoryDataStream::operator=
_TEXT	ENDS
PUBLIC	??_GMemoryDataStream@Ogre@@UAEPAXI@Z		; Ogre::MemoryDataStream::`scalar deleting destructor'
EXTRN	??1MemoryDataStream@Ogre@@UAE@XZ:PROC		; Ogre::MemoryDataStream::~MemoryDataStream
; Function compile flags: /Odtp
;	COMDAT ??_GMemoryDataStream@Ogre@@UAEPAXI@Z
_TEXT	SEGMENT
_this$ = -4						; size = 4
___flags$ = 8						; size = 4
??_GMemoryDataStream@Ogre@@UAEPAXI@Z PROC		; Ogre::MemoryDataStream::`scalar deleting destructor', COMDAT
; _this$ = ecx
	push	ebp
	mov	ebp, esp
	push	ecx
	mov	DWORD PTR _this$[ebp], ecx
	mov	ecx, DWORD PTR _this$[ebp]
	call	??1MemoryDataStream@Ogre@@UAE@XZ	; Ogre::MemoryDataStream::~MemoryDataStream
	mov	eax, DWORD PTR ___flags$[ebp]
	and	eax, 1
	je	SHORT $LN1@scalar@4
	mov	ecx, DWORD PTR _this$[ebp]
	push	ecx
	call	??3@YAXPAX@Z				; operator delete
	add	esp, 4
$LN1@scalar@4:
	mov	eax, DWORD PTR _this$[ebp]
	mov	esp, ebp
	pop	ebp
	ret	4
??_GMemoryDataStream@Ogre@@UAEPAXI@Z ENDP		; Ogre::MemoryDataStream::`scalar deleting destructor'
; Function compile flags: /Odtp
_TEXT	ENDS
;	COMDAT ??_EMemoryDataStream@Ogre@@UAEPAXI@Z
_TEXT	SEGMENT
_this$ = -4						; size = 4
___flags$ = 8						; size = 4
??_EMemoryDataStream@Ogre@@UAEPAXI@Z PROC		; Ogre::MemoryDataStream::`vector deleting destructor', COMDAT
; _this$ = ecx
	push	ebp
	mov	ebp, esp
	push	ecx
	mov	DWORD PTR _this$[ebp], ecx
	mov	eax, DWORD PTR ___flags$[ebp]
	and	eax, 2
	je	SHORT $LN3@vector@4
	push	OFFSET ??1MemoryDataStream@Ogre@@UAE@XZ	; Ogre::MemoryDataStream::~MemoryDataStream
	mov	ecx, DWORD PTR _this$[ebp]
	mov	edx, DWORD PTR [ecx-4]
	push	edx
	push	52					; 00000034H
	mov	eax, DWORD PTR _this$[ebp]
	push	eax
	call	??_M@YGXPAXIHP6EX0@Z@Z
	mov	ecx, DWORD PTR ___flags$[ebp]
	and	ecx, 1
	je	SHORT $LN2@vector@4
	mov	edx, DWORD PTR _this$[ebp]
	sub	edx, 4
	push	edx
	call	??_V@YAXPAX@Z				; operator delete[]
	add	esp, 4
$LN2@vector@4:
	mov	eax, DWORD PTR _this$[ebp]
	sub	eax, 4
	jmp	SHORT $LN4@vector@4
$LN3@vector@4:
	mov	ecx, DWORD PTR _this$[ebp]
	call	??1MemoryDataStream@Ogre@@UAE@XZ	; Ogre::MemoryDataStream::~MemoryDataStream
	mov	eax, DWORD PTR ___flags$[ebp]
	and	eax, 1
	je	SHORT $LN1@vector@4
	mov	ecx, DWORD PTR _this$[ebp]
	push	ecx
	call	??3@YAXPAX@Z				; operator delete
	add	esp, 4
$LN1@vector@4:
	mov	eax, DWORD PTR _this$[ebp]
$LN4@vector@4:
	mov	esp, ebp
	pop	ebp
	ret	4
??_EMemoryDataStream@Ogre@@UAEPAXI@Z ENDP		; Ogre::MemoryDataStream::`vector deleting destructor'
_TEXT	ENDS
PUBLIC	??_7FileStreamDataStream@Ogre@@6B@		; Ogre::FileStreamDataStream::`vftable'
PUBLIC	??0FileStreamDataStream@Ogre@@QAE@ABV01@@Z	; Ogre::FileStreamDataStream::FileStreamDataStream
PUBLIC	??_R4FileStreamDataStream@Ogre@@6B@		; Ogre::FileStreamDataStream::`RTTI Complete Object Locator'
PUBLIC	??_R0?AVFileStreamDataStream@Ogre@@@8		; Ogre::FileStreamDataStream `RTTI Type Descriptor'
PUBLIC	??_R3FileStreamDataStream@Ogre@@8		; Ogre::FileStreamDataStream::`RTTI Class Hierarchy Descriptor'
PUBLIC	??_R2FileStreamDataStream@Ogre@@8		; Ogre::FileStreamDataStream::`RTTI Base Class Array'
PUBLIC	??_R1A@?0A@EA@FileStreamDataStream@Ogre@@8	; Ogre::FileStreamDataStream::`RTTI Base Class Descriptor at (0,-1,0,64)'
PUBLIC	??_EFileStreamDataStream@Ogre@@UAEPAXI@Z	; Ogre::FileStreamDataStream::`vector deleting destructor'
EXTRN	?read@FileStreamDataStream@Ogre@@UAEIPAXI@Z:PROC ; Ogre::FileStreamDataStream::read
EXTRN	?write@FileStreamDataStream@Ogre@@UAEIPBXI@Z:PROC ; Ogre::FileStreamDataStream::write
EXTRN	?readLine@FileStreamDataStream@Ogre@@UAEIPADIABV?$basic_string@DU?$char_traits@D@std@@V?$allocator@D@2@@std@@@Z:PROC ; Ogre::FileStreamDataStream::readLine
EXTRN	?skip@FileStreamDataStream@Ogre@@UAEXJ@Z:PROC	; Ogre::FileStreamDataStream::skip
EXTRN	?seek@FileStreamDataStream@Ogre@@UAEXI@Z:PROC	; Ogre::FileStreamDataStream::seek
EXTRN	?tell@FileStreamDataStream@Ogre@@UBEIXZ:PROC	; Ogre::FileStreamDataStream::tell
EXTRN	?eof@FileStreamDataStream@Ogre@@UBE_NXZ:PROC	; Ogre::FileStreamDataStream::eof
EXTRN	?close@FileStreamDataStream@Ogre@@UAEXXZ:PROC	; Ogre::FileStreamDataStream::close
EXTRN	?getMemoryImage@FileStreamDataStream@Ogre@@UAEPAXXZ:PROC ; Ogre::FileStreamDataStream::getMemoryImage
;	COMDAT ??_R1A@?0A@EA@FileStreamDataStream@Ogre@@8
rdata$r	SEGMENT
??_R1A@?0A@EA@FileStreamDataStream@Ogre@@8 DD FLAT:??_R0?AVFileStreamDataStream@Ogre@@@8 ; Ogre::FileStreamDataStream::`RTTI Base Class Descriptor at (0,-1,0,64)'
	DD	01H
	DD	00H
	DD	0ffffffffH
	DD	00H
	DD	040H
	DD	FLAT:??_R3FileStreamDataStream@Ogre@@8
rdata$r	ENDS
;	COMDAT ??_R2FileStreamDataStream@Ogre@@8
rdata$r	SEGMENT
??_R2FileStreamDataStream@Ogre@@8 DD FLAT:??_R1A@?0A@EA@FileStreamDataStream@Ogre@@8 ; Ogre::FileStreamDataStream::`RTTI Base Class Array'
	DD	FLAT:??_R1A@?0A@EA@DataStream@Ogre@@8
rdata$r	ENDS
;	COMDAT ??_R3FileStreamDataStream@Ogre@@8
rdata$r	SEGMENT
??_R3FileStreamDataStream@Ogre@@8 DD 00H		; Ogre::FileStreamDataStream::`RTTI Class Hierarchy Descriptor'
	DD	00H
	DD	02H
	DD	FLAT:??_R2FileStreamDataStream@Ogre@@8
rdata$r	ENDS
;	COMDAT ??_R0?AVFileStreamDataStream@Ogre@@@8
_DATA	SEGMENT
??_R0?AVFileStreamDataStream@Ogre@@@8 DD FLAT:??_7type_info@@6B@ ; Ogre::FileStreamDataStream `RTTI Type Descriptor'
	DD	00H
	DB	'.?AVFileStreamDataStream@Ogre@@', 00H
_DATA	ENDS
;	COMDAT ??_R4FileStreamDataStream@Ogre@@6B@
rdata$r	SEGMENT
??_R4FileStreamDataStream@Ogre@@6B@ DD 00H		; Ogre::FileStreamDataStream::`RTTI Complete Object Locator'
	DD	00H
	DD	00H
	DD	FLAT:??_R0?AVFileStreamDataStream@Ogre@@@8
	DD	FLAT:??_R3FileStreamDataStream@Ogre@@8
rdata$r	ENDS
;	COMDAT ??_7FileStreamDataStream@Ogre@@6B@
CONST	SEGMENT
??_7FileStreamDataStream@Ogre@@6B@ DD FLAT:??_R4FileStreamDataStream@Ogre@@6B@ ; Ogre::FileStreamDataStream::`vftable'
	DD	FLAT:??_EFileStreamDataStream@Ogre@@UAEPAXI@Z
	DD	FLAT:?read@FileStreamDataStream@Ogre@@UAEIPAXI@Z
	DD	FLAT:?write@FileStreamDataStream@Ogre@@UAEIPBXI@Z
	DD	FLAT:?readLine@FileStreamDataStream@Ogre@@UAEIPADIABV?$basic_string@DU?$char_traits@D@std@@V?$allocator@D@2@@std@@@Z
	DD	FLAT:?getLine@DataStream@Ogre@@UAE?AV?$basic_string@DU?$char_traits@D@std@@V?$allocator@D@2@@std@@_N@Z
	DD	FLAT:?getAsString@DataStream@Ogre@@UAE?AV?$basic_string@DU?$char_traits@D@std@@V?$allocator@D@2@@std@@XZ
	DD	FLAT:?skipLine@DataStream@Ogre@@UAEIABV?$basic_string@DU?$char_traits@D@std@@V?$allocator@D@2@@std@@@Z
	DD	FLAT:?skip@FileStreamDataStream@Ogre@@UAEXJ@Z
	DD	FLAT:?seek@FileStreamDataStream@Ogre@@UAEXI@Z
	DD	FLAT:?tell@FileStreamDataStream@Ogre@@UBEIXZ
	DD	FLAT:?eof@FileStreamDataStream@Ogre@@UBE_NXZ
	DD	FLAT:?size@DataStream@Ogre@@UBEIXZ
	DD	FLAT:?close@FileStreamDataStream@Ogre@@UAEXXZ
	DD	FLAT:?getMemoryImage@FileStreamDataStream@Ogre@@UAEPAXXZ
CONST	ENDS
;	COMDAT xdata$x
xdata$x	SEGMENT
__unwindtable$??0FileStreamDataStream@Ogre@@QAE@ABV01@@Z DD 0ffffffffH
	DD	FLAT:__unwindfunclet$??0FileStreamDataStream@Ogre@@QAE@ABV01@@Z$0
__ehfuncinfo$??0FileStreamDataStream@Ogre@@QAE@ABV01@@Z DD 019930522H
	DD	01H
	DD	FLAT:__unwindtable$??0FileStreamDataStream@Ogre@@QAE@ABV01@@Z
	DD	2 DUP(00H)
	DD	2 DUP(00H)
	DD	00H
	DD	00H
; Function compile flags: /Odtp
xdata$x	ENDS
;	COMDAT ??0FileStreamDataStream@Ogre@@QAE@ABV01@@Z
_TEXT	SEGMENT
_this$ = -16						; size = 4
__$EHRec$ = -12						; size = 12
___that$ = 8						; size = 4
??0FileStreamDataStream@Ogre@@QAE@ABV01@@Z PROC		; Ogre::FileStreamDataStream::FileStreamDataStream, COMDAT
; _this$ = ecx
	push	ebp
	mov	ebp, esp
	push	-1
	push	__ehhandler$??0FileStreamDataStream@Ogre@@QAE@ABV01@@Z
	mov	eax, DWORD PTR fs:0
	push	eax
	push	ecx
	mov	eax, DWORD PTR ___security_cookie
	xor	eax, ebp
	push	eax
	lea	eax, DWORD PTR __$EHRec$[ebp]
	mov	DWORD PTR fs:0, eax
	mov	DWORD PTR _this$[ebp], ecx
	mov	eax, DWORD PTR ___that$[ebp]
	push	eax
	mov	ecx, DWORD PTR _this$[ebp]
	call	??0DataStream@Ogre@@QAE@ABV01@@Z
	mov	DWORD PTR __$EHRec$[ebp+8], 0
	mov	ecx, DWORD PTR _this$[ebp]
	mov	DWORD PTR [ecx], OFFSET ??_7FileStreamDataStream@Ogre@@6B@
	mov	edx, DWORD PTR _this$[ebp]
	mov	eax, DWORD PTR ___that$[ebp]
	mov	ecx, DWORD PTR [eax+36]
	mov	DWORD PTR [edx+36], ecx
	mov	edx, DWORD PTR _this$[ebp]
	mov	eax, DWORD PTR ___that$[ebp]
	mov	cl, BYTE PTR [eax+40]
	mov	BYTE PTR [edx+40], cl
	mov	DWORD PTR __$EHRec$[ebp+8], -1
	mov	eax, DWORD PTR _this$[ebp]
	mov	ecx, DWORD PTR __$EHRec$[ebp]
	mov	DWORD PTR fs:0, ecx
	pop	ecx
	mov	esp, ebp
	pop	ebp
	ret	4
_TEXT	ENDS
;	COMDAT text$x
text$x	SEGMENT
__unwindfunclet$??0FileStreamDataStream@Ogre@@QAE@ABV01@@Z$0:
	mov	ecx, DWORD PTR _this$[ebp]
	jmp	??1DataStream@Ogre@@UAE@XZ		; Ogre::DataStream::~DataStream
__ehhandler$??0FileStreamDataStream@Ogre@@QAE@ABV01@@Z:
	mov	edx, DWORD PTR [esp+8]
	lea	eax, DWORD PTR [edx+12]
	mov	ecx, DWORD PTR [edx-8]
	xor	ecx, eax
	call	@__security_check_cookie@4
	mov	eax, OFFSET __ehfuncinfo$??0FileStreamDataStream@Ogre@@QAE@ABV01@@Z
	jmp	___CxxFrameHandler3
text$x	ENDS
??0FileStreamDataStream@Ogre@@QAE@ABV01@@Z ENDP		; Ogre::FileStreamDataStream::FileStreamDataStream
PUBLIC	??4FileStreamDataStream@Ogre@@QAEAAV01@ABV01@@Z	; Ogre::FileStreamDataStream::operator=
; Function compile flags: /Odtp
;	COMDAT ??4FileStreamDataStream@Ogre@@QAEAAV01@ABV01@@Z
_TEXT	SEGMENT
_this$ = -4						; size = 4
___that$ = 8						; size = 4
??4FileStreamDataStream@Ogre@@QAEAAV01@ABV01@@Z PROC	; Ogre::FileStreamDataStream::operator=, COMDAT
; _this$ = ecx
	push	ebp
	mov	ebp, esp
	push	ecx
	mov	DWORD PTR _this$[ebp], ecx
	mov	eax, DWORD PTR ___that$[ebp]
	push	eax
	mov	ecx, DWORD PTR _this$[ebp]
	call	??4DataStream@Ogre@@QAEAAV01@ABV01@@Z
	mov	ecx, DWORD PTR _this$[ebp]
	mov	edx, DWORD PTR ___that$[ebp]
	mov	eax, DWORD PTR [edx+36]
	mov	DWORD PTR [ecx+36], eax
	mov	ecx, DWORD PTR _this$[ebp]
	mov	edx, DWORD PTR ___that$[ebp]
	mov	al, BYTE PTR [edx+40]
	mov	BYTE PTR [ecx+40], al
	mov	eax, DWORD PTR _this$[ebp]
	mov	esp, ebp
	pop	ebp
	ret	4
??4FileStreamDataStream@Ogre@@QAEAAV01@ABV01@@Z ENDP	; Ogre::FileStreamDataStream::operator=
_TEXT	ENDS
PUBLIC	??_GFileStreamDataStream@Ogre@@UAEPAXI@Z	; Ogre::FileStreamDataStream::`scalar deleting destructor'
EXTRN	??1FileStreamDataStream@Ogre@@UAE@XZ:PROC	; Ogre::FileStreamDataStream::~FileStreamDataStream
; Function compile flags: /Odtp
;	COMDAT ??_GFileStreamDataStream@Ogre@@UAEPAXI@Z
_TEXT	SEGMENT
_this$ = -4						; size = 4
___flags$ = 8						; size = 4
??_GFileStreamDataStream@Ogre@@UAEPAXI@Z PROC		; Ogre::FileStreamDataStream::`scalar deleting destructor', COMDAT
; _this$ = ecx
	push	ebp
	mov	ebp, esp
	push	ecx
	mov	DWORD PTR _this$[ebp], ecx
	mov	ecx, DWORD PTR _this$[ebp]
	call	??1FileStreamDataStream@Ogre@@UAE@XZ	; Ogre::FileStreamDataStream::~FileStreamDataStream
	mov	eax, DWORD PTR ___flags$[ebp]
	and	eax, 1
	je	SHORT $LN1@scalar@5
	mov	ecx, DWORD PTR _this$[ebp]
	push	ecx
	call	??3@YAXPAX@Z				; operator delete
	add	esp, 4
$LN1@scalar@5:
	mov	eax, DWORD PTR _this$[ebp]
	mov	esp, ebp
	pop	ebp
	ret	4
??_GFileStreamDataStream@Ogre@@UAEPAXI@Z ENDP		; Ogre::FileStreamDataStream::`scalar deleting destructor'
; Function compile flags: /Odtp
_TEXT	ENDS
;	COMDAT ??_EFileStreamDataStream@Ogre@@UAEPAXI@Z
_TEXT	SEGMENT
_this$ = -4						; size = 4
___flags$ = 8						; size = 4
??_EFileStreamDataStream@Ogre@@UAEPAXI@Z PROC		; Ogre::FileStreamDataStream::`vector deleting destructor', COMDAT
; _this$ = ecx
	push	ebp
	mov	ebp, esp
	push	ecx
	mov	DWORD PTR _this$[ebp], ecx
	mov	eax, DWORD PTR ___flags$[ebp]
	and	eax, 2
	je	SHORT $LN3@vector@5
	push	OFFSET ??1FileStreamDataStream@Ogre@@UAE@XZ ; Ogre::FileStreamDataStream::~FileStreamDataStream
	mov	ecx, DWORD PTR _this$[ebp]
	mov	edx, DWORD PTR [ecx-4]
	push	edx
	push	44					; 0000002cH
	mov	eax, DWORD PTR _this$[ebp]
	push	eax
	call	??_M@YGXPAXIHP6EX0@Z@Z
	mov	ecx, DWORD PTR ___flags$[ebp]
	and	ecx, 1
	je	SHORT $LN2@vector@5
	mov	edx, DWORD PTR _this$[ebp]
	sub	edx, 4
	push	edx
	call	??_V@YAXPAX@Z				; operator delete[]
	add	esp, 4
$LN2@vector@5:
	mov	eax, DWORD PTR _this$[ebp]
	sub	eax, 4
	jmp	SHORT $LN4@vector@5
$LN3@vector@5:
	mov	ecx, DWORD PTR _this$[ebp]
	call	??1FileStreamDataStream@Ogre@@UAE@XZ	; Ogre::FileStreamDataStream::~FileStreamDataStream
	mov	eax, DWORD PTR ___flags$[ebp]
	and	eax, 1
	je	SHORT $LN1@vector@5
	mov	ecx, DWORD PTR _this$[ebp]
	push	ecx
	call	??3@YAXPAX@Z				; operator delete
	add	esp, 4
$LN1@vector@5:
	mov	eax, DWORD PTR _this$[ebp]
$LN4@vector@5:
	mov	esp, ebp
	pop	ebp
	ret	4
??_EFileStreamDataStream@Ogre@@UAEPAXI@Z ENDP		; Ogre::FileStreamDataStream::`vector deleting destructor'
_TEXT	ENDS
PUBLIC	??_7FileHandleDataStream@Ogre@@6B@		; Ogre::FileHandleDataStream::`vftable'
PUBLIC	??0FileHandleDataStream@Ogre@@QAE@ABV01@@Z	; Ogre::FileHandleDataStream::FileHandleDataStream
PUBLIC	??_R4FileHandleDataStream@Ogre@@6B@		; Ogre::FileHandleDataStream::`RTTI Complete Object Locator'
PUBLIC	??_R0?AVFileHandleDataStream@Ogre@@@8		; Ogre::FileHandleDataStream `RTTI Type Descriptor'
PUBLIC	??_R3FileHandleDataStream@Ogre@@8		; Ogre::FileHandleDataStream::`RTTI Class Hierarchy Descriptor'
PUBLIC	??_R2FileHandleDataStream@Ogre@@8		; Ogre::FileHandleDataStream::`RTTI Base Class Array'
PUBLIC	??_R1A@?0A@EA@FileHandleDataStream@Ogre@@8	; Ogre::FileHandleDataStream::`RTTI Base Class Descriptor at (0,-1,0,64)'
PUBLIC	??_EFileHandleDataStream@Ogre@@UAEPAXI@Z	; Ogre::FileHandleDataStream::`vector deleting destructor'
EXTRN	?read@FileHandleDataStream@Ogre@@UAEIPAXI@Z:PROC ; Ogre::FileHandleDataStream::read
EXTRN	?write@FileHandleDataStream@Ogre@@UAEIPBXI@Z:PROC ; Ogre::FileHandleDataStream::write
EXTRN	?skip@FileHandleDataStream@Ogre@@UAEXJ@Z:PROC	; Ogre::FileHandleDataStream::skip
EXTRN	?seek@FileHandleDataStream@Ogre@@UAEXI@Z:PROC	; Ogre::FileHandleDataStream::seek
EXTRN	?tell@FileHandleDataStream@Ogre@@UBEIXZ:PROC	; Ogre::FileHandleDataStream::tell
EXTRN	?eof@FileHandleDataStream@Ogre@@UBE_NXZ:PROC	; Ogre::FileHandleDataStream::eof
EXTRN	?close@FileHandleDataStream@Ogre@@UAEXXZ:PROC	; Ogre::FileHandleDataStream::close
EXTRN	?getMemoryImage@FileHandleDataStream@Ogre@@UAEPAXXZ:PROC ; Ogre::FileHandleDataStream::getMemoryImage
;	COMDAT ??_R1A@?0A@EA@FileHandleDataStream@Ogre@@8
rdata$r	SEGMENT
??_R1A@?0A@EA@FileHandleDataStream@Ogre@@8 DD FLAT:??_R0?AVFileHandleDataStream@Ogre@@@8 ; Ogre::FileHandleDataStream::`RTTI Base Class Descriptor at (0,-1,0,64)'
	DD	01H
	DD	00H
	DD	0ffffffffH
	DD	00H
	DD	040H
	DD	FLAT:??_R3FileHandleDataStream@Ogre@@8
rdata$r	ENDS
;	COMDAT ??_R2FileHandleDataStream@Ogre@@8
rdata$r	SEGMENT
??_R2FileHandleDataStream@Ogre@@8 DD FLAT:??_R1A@?0A@EA@FileHandleDataStream@Ogre@@8 ; Ogre::FileHandleDataStream::`RTTI Base Class Array'
	DD	FLAT:??_R1A@?0A@EA@DataStream@Ogre@@8
rdata$r	ENDS
;	COMDAT ??_R3FileHandleDataStream@Ogre@@8
rdata$r	SEGMENT
??_R3FileHandleDataStream@Ogre@@8 DD 00H		; Ogre::FileHandleDataStream::`RTTI Class Hierarchy Descriptor'
	DD	00H
	DD	02H
	DD	FLAT:??_R2FileHandleDataStream@Ogre@@8
rdata$r	ENDS
;	COMDAT ??_R0?AVFileHandleDataStream@Ogre@@@8
_DATA	SEGMENT
??_R0?AVFileHandleDataStream@Ogre@@@8 DD FLAT:??_7type_info@@6B@ ; Ogre::FileHandleDataStream `RTTI Type Descriptor'
	DD	00H
	DB	'.?AVFileHandleDataStream@Ogre@@', 00H
_DATA	ENDS
;	COMDAT ??_R4FileHandleDataStream@Ogre@@6B@
rdata$r	SEGMENT
??_R4FileHandleDataStream@Ogre@@6B@ DD 00H		; Ogre::FileHandleDataStream::`RTTI Complete Object Locator'
	DD	00H
	DD	00H
	DD	FLAT:??_R0?AVFileHandleDataStream@Ogre@@@8
	DD	FLAT:??_R3FileHandleDataStream@Ogre@@8
rdata$r	ENDS
;	COMDAT ??_7FileHandleDataStream@Ogre@@6B@
CONST	SEGMENT
??_7FileHandleDataStream@Ogre@@6B@ DD FLAT:??_R4FileHandleDataStream@Ogre@@6B@ ; Ogre::FileHandleDataStream::`vftable'
	DD	FLAT:??_EFileHandleDataStream@Ogre@@UAEPAXI@Z
	DD	FLAT:?read@FileHandleDataStream@Ogre@@UAEIPAXI@Z
	DD	FLAT:?write@FileHandleDataStream@Ogre@@UAEIPBXI@Z
	DD	FLAT:?readLine@DataStream@Ogre@@UAEIPADIABV?$basic_string@DU?$char_traits@D@std@@V?$allocator@D@2@@std@@@Z
	DD	FLAT:?getLine@DataStream@Ogre@@UAE?AV?$basic_string@DU?$char_traits@D@std@@V?$allocator@D@2@@std@@_N@Z
	DD	FLAT:?getAsString@DataStream@Ogre@@UAE?AV?$basic_string@DU?$char_traits@D@std@@V?$allocator@D@2@@std@@XZ
	DD	FLAT:?skipLine@DataStream@Ogre@@UAEIABV?$basic_string@DU?$char_traits@D@std@@V?$allocator@D@2@@std@@@Z
	DD	FLAT:?skip@FileHandleDataStream@Ogre@@UAEXJ@Z
	DD	FLAT:?seek@FileHandleDataStream@Ogre@@UAEXI@Z
	DD	FLAT:?tell@FileHandleDataStream@Ogre@@UBEIXZ
	DD	FLAT:?eof@FileHandleDataStream@Ogre@@UBE_NXZ
	DD	FLAT:?size@DataStream@Ogre@@UBEIXZ
	DD	FLAT:?close@FileHandleDataStream@Ogre@@UAEXXZ
	DD	FLAT:?getMemoryImage@FileHandleDataStream@Ogre@@UAEPAXXZ
CONST	ENDS
;	COMDAT xdata$x
xdata$x	SEGMENT
__unwindtable$??0FileHandleDataStream@Ogre@@QAE@ABV01@@Z DD 0ffffffffH
	DD	FLAT:__unwindfunclet$??0FileHandleDataStream@Ogre@@QAE@ABV01@@Z$0
__ehfuncinfo$??0FileHandleDataStream@Ogre@@QAE@ABV01@@Z DD 019930522H
	DD	01H
	DD	FLAT:__unwindtable$??0FileHandleDataStream@Ogre@@QAE@ABV01@@Z
	DD	2 DUP(00H)
	DD	2 DUP(00H)
	DD	00H
	DD	00H
; Function compile flags: /Odtp
xdata$x	ENDS
;	COMDAT ??0FileHandleDataStream@Ogre@@QAE@ABV01@@Z
_TEXT	SEGMENT
_this$ = -16						; size = 4
__$EHRec$ = -12						; size = 12
___that$ = 8						; size = 4
??0FileHandleDataStream@Ogre@@QAE@ABV01@@Z PROC		; Ogre::FileHandleDataStream::FileHandleDataStream, COMDAT
; _this$ = ecx
	push	ebp
	mov	ebp, esp
	push	-1
	push	__ehhandler$??0FileHandleDataStream@Ogre@@QAE@ABV01@@Z
	mov	eax, DWORD PTR fs:0
	push	eax
	push	ecx
	mov	eax, DWORD PTR ___security_cookie
	xor	eax, ebp
	push	eax
	lea	eax, DWORD PTR __$EHRec$[ebp]
	mov	DWORD PTR fs:0, eax
	mov	DWORD PTR _this$[ebp], ecx
	mov	eax, DWORD PTR ___that$[ebp]
	push	eax
	mov	ecx, DWORD PTR _this$[ebp]
	call	??0DataStream@Ogre@@QAE@ABV01@@Z
	mov	DWORD PTR __$EHRec$[ebp+8], 0
	mov	ecx, DWORD PTR _this$[ebp]
	mov	DWORD PTR [ecx], OFFSET ??_7FileHandleDataStream@Ogre@@6B@
	mov	edx, DWORD PTR _this$[ebp]
	mov	eax, DWORD PTR ___that$[ebp]
	mov	ecx, DWORD PTR [eax+36]
	mov	DWORD PTR [edx+36], ecx
	mov	edx, DWORD PTR _this$[ebp]
	mov	eax, DWORD PTR ___that$[ebp]
	mov	ecx, DWORD PTR [eax+40]
	mov	DWORD PTR [edx+40], ecx
	mov	DWORD PTR __$EHRec$[ebp+8], -1
	mov	eax, DWORD PTR _this$[ebp]
	mov	ecx, DWORD PTR __$EHRec$[ebp]
	mov	DWORD PTR fs:0, ecx
	pop	ecx
	mov	esp, ebp
	pop	ebp
	ret	4
_TEXT	ENDS
;	COMDAT text$x
text$x	SEGMENT
__unwindfunclet$??0FileHandleDataStream@Ogre@@QAE@ABV01@@Z$0:
	mov	ecx, DWORD PTR _this$[ebp]
	jmp	??1DataStream@Ogre@@UAE@XZ		; Ogre::DataStream::~DataStream
__ehhandler$??0FileHandleDataStream@Ogre@@QAE@ABV01@@Z:
	mov	edx, DWORD PTR [esp+8]
	lea	eax, DWORD PTR [edx+12]
	mov	ecx, DWORD PTR [edx-8]
	xor	ecx, eax
	call	@__security_check_cookie@4
	mov	eax, OFFSET __ehfuncinfo$??0FileHandleDataStream@Ogre@@QAE@ABV01@@Z
	jmp	___CxxFrameHandler3
text$x	ENDS
??0FileHandleDataStream@Ogre@@QAE@ABV01@@Z ENDP		; Ogre::FileHandleDataStream::FileHandleDataStream
PUBLIC	??4FileHandleDataStream@Ogre@@QAEAAV01@ABV01@@Z	; Ogre::FileHandleDataStream::operator=
; Function compile flags: /Odtp
;	COMDAT ??4FileHandleDataStream@Ogre@@QAEAAV01@ABV01@@Z
_TEXT	SEGMENT
_this$ = -4						; size = 4
___that$ = 8						; size = 4
??4FileHandleDataStream@Ogre@@QAEAAV01@ABV01@@Z PROC	; Ogre::FileHandleDataStream::operator=, COMDAT
; _this$ = ecx
	push	ebp
	mov	ebp, esp
	push	ecx
	mov	DWORD PTR _this$[ebp], ecx
	mov	eax, DWORD PTR ___that$[ebp]
	push	eax
	mov	ecx, DWORD PTR _this$[ebp]
	call	??4DataStream@Ogre@@QAEAAV01@ABV01@@Z
	mov	ecx, DWORD PTR _this$[ebp]
	mov	edx, DWORD PTR ___that$[ebp]
	mov	eax, DWORD PTR [edx+36]
	mov	DWORD PTR [ecx+36], eax
	mov	ecx, DWORD PTR _this$[ebp]
	mov	edx, DWORD PTR ___that$[ebp]
	mov	eax, DWORD PTR [edx+40]
	mov	DWORD PTR [ecx+40], eax
	mov	eax, DWORD PTR _this$[ebp]
	mov	esp, ebp
	pop	ebp
	ret	4
??4FileHandleDataStream@Ogre@@QAEAAV01@ABV01@@Z ENDP	; Ogre::FileHandleDataStream::operator=
_TEXT	ENDS
PUBLIC	??_GFileHandleDataStream@Ogre@@UAEPAXI@Z	; Ogre::FileHandleDataStream::`scalar deleting destructor'
EXTRN	??1FileHandleDataStream@Ogre@@UAE@XZ:PROC	; Ogre::FileHandleDataStream::~FileHandleDataStream
; Function compile flags: /Odtp
;	COMDAT ??_GFileHandleDataStream@Ogre@@UAEPAXI@Z
_TEXT	SEGMENT
_this$ = -4						; size = 4
___flags$ = 8						; size = 4
??_GFileHandleDataStream@Ogre@@UAEPAXI@Z PROC		; Ogre::FileHandleDataStream::`scalar deleting destructor', COMDAT
; _this$ = ecx
	push	ebp
	mov	ebp, esp
	push	ecx
	mov	DWORD PTR _this$[ebp], ecx
	mov	ecx, DWORD PTR _this$[ebp]
	call	??1FileHandleDataStream@Ogre@@UAE@XZ	; Ogre::FileHandleDataStream::~FileHandleDataStream
	mov	eax, DWORD PTR ___flags$[ebp]
	and	eax, 1
	je	SHORT $LN1@scalar@6
	mov	ecx, DWORD PTR _this$[ebp]
	push	ecx
	call	??3@YAXPAX@Z				; operator delete
	add	esp, 4
$LN1@scalar@6:
	mov	eax, DWORD PTR _this$[ebp]
	mov	esp, ebp
	pop	ebp
	ret	4
??_GFileHandleDataStream@Ogre@@UAEPAXI@Z ENDP		; Ogre::FileHandleDataStream::`scalar deleting destructor'
; Function compile flags: /Odtp
_TEXT	ENDS
;	COMDAT ??_EFileHandleDataStream@Ogre@@UAEPAXI@Z
_TEXT	SEGMENT
_this$ = -4						; size = 4
___flags$ = 8						; size = 4
??_EFileHandleDataStream@Ogre@@UAEPAXI@Z PROC		; Ogre::FileHandleDataStream::`vector deleting destructor', COMDAT
; _this$ = ecx
	push	ebp
	mov	ebp, esp
	push	ecx
	mov	DWORD PTR _this$[ebp], ecx
	mov	eax, DWORD PTR ___flags$[ebp]
	and	eax, 2
	je	SHORT $LN3@vector@6
	push	OFFSET ??1FileHandleDataStream@Ogre@@UAE@XZ ; Ogre::FileHandleDataStream::~FileHandleDataStream
	mov	ecx, DWORD PTR _this$[ebp]
	mov	edx, DWORD PTR [ecx-4]
	push	edx
	push	44					; 0000002cH
	mov	eax, DWORD PTR _this$[ebp]
	push	eax
	call	??_M@YGXPAXIHP6EX0@Z@Z
	mov	ecx, DWORD PTR ___flags$[ebp]
	and	ecx, 1
	je	SHORT $LN2@vector@6
	mov	edx, DWORD PTR _this$[ebp]
	sub	edx, 4
	push	edx
	call	??_V@YAXPAX@Z				; operator delete[]
	add	esp, 4
$LN2@vector@6:
	mov	eax, DWORD PTR _this$[ebp]
	sub	eax, 4
	jmp	SHORT $LN4@vector@6
$LN3@vector@6:
	mov	ecx, DWORD PTR _this$[ebp]
	call	??1FileHandleDataStream@Ogre@@UAE@XZ	; Ogre::FileHandleDataStream::~FileHandleDataStream
	mov	eax, DWORD PTR ___flags$[ebp]
	and	eax, 1
	je	SHORT $LN1@vector@6
	mov	ecx, DWORD PTR _this$[ebp]
	push	ecx
	call	??3@YAXPAX@Z				; operator delete
	add	esp, 4
$LN1@vector@6:
	mov	eax, DWORD PTR _this$[ebp]
$LN4@vector@6:
	mov	esp, ebp
	pop	ebp
	ret	4
??_EFileHandleDataStream@Ogre@@UAEPAXI@Z ENDP		; Ogre::FileHandleDataStream::`vector deleting destructor'
_TEXT	ENDS
PUBLIC	??_7DataStreamObject@Ogre@@6B@			; Ogre::DataStreamObject::`vftable'
PUBLIC	??1DataStreamObject@Ogre@@MAE@XZ		; Ogre::DataStreamObject::~DataStreamObject
PUBLIC	??_R4DataStreamObject@Ogre@@6B@			; Ogre::DataStreamObject::`RTTI Complete Object Locator'
PUBLIC	??_R0?AVDataStreamObject@Ogre@@@8		; Ogre::DataStreamObject `RTTI Type Descriptor'
PUBLIC	??_R3DataStreamObject@Ogre@@8			; Ogre::DataStreamObject::`RTTI Class Hierarchy Descriptor'
PUBLIC	??_R2DataStreamObject@Ogre@@8			; Ogre::DataStreamObject::`RTTI Base Class Array'
PUBLIC	??_R1A@?0A@EA@DataStreamObject@Ogre@@8		; Ogre::DataStreamObject::`RTTI Base Class Descriptor at (0,-1,0,64)'
PUBLIC	??_EDataStreamObject@Ogre@@MAEPAXI@Z		; Ogre::DataStreamObject::`vector deleting destructor'
;	COMDAT ??_R1A@?0A@EA@DataStreamObject@Ogre@@8
rdata$r	SEGMENT
??_R1A@?0A@EA@DataStreamObject@Ogre@@8 DD FLAT:??_R0?AVDataStreamObject@Ogre@@@8 ; Ogre::DataStreamObject::`RTTI Base Class Descriptor at (0,-1,0,64)'
	DD	00H
	DD	00H
	DD	0ffffffffH
	DD	00H
	DD	040H
	DD	FLAT:??_R3DataStreamObject@Ogre@@8
rdata$r	ENDS
;	COMDAT ??_R2DataStreamObject@Ogre@@8
rdata$r	SEGMENT
??_R2DataStreamObject@Ogre@@8 DD FLAT:??_R1A@?0A@EA@DataStreamObject@Ogre@@8 ; Ogre::DataStreamObject::`RTTI Base Class Array'
rdata$r	ENDS
;	COMDAT ??_R3DataStreamObject@Ogre@@8
rdata$r	SEGMENT
??_R3DataStreamObject@Ogre@@8 DD 00H			; Ogre::DataStreamObject::`RTTI Class Hierarchy Descriptor'
	DD	00H
	DD	01H
	DD	FLAT:??_R2DataStreamObject@Ogre@@8
rdata$r	ENDS
;	COMDAT ??_R0?AVDataStreamObject@Ogre@@@8
_DATA	SEGMENT
??_R0?AVDataStreamObject@Ogre@@@8 DD FLAT:??_7type_info@@6B@ ; Ogre::DataStreamObject `RTTI Type Descriptor'
	DD	00H
	DB	'.?AVDataStreamObject@Ogre@@', 00H
_DATA	ENDS
;	COMDAT ??_R4DataStreamObject@Ogre@@6B@
rdata$r	SEGMENT
??_R4DataStreamObject@Ogre@@6B@ DD 00H			; Ogre::DataStreamObject::`RTTI Complete Object Locator'
	DD	00H
	DD	00H
	DD	FLAT:??_R0?AVDataStreamObject@Ogre@@@8
	DD	FLAT:??_R3DataStreamObject@Ogre@@8
rdata$r	ENDS
;	COMDAT ??_7DataStreamObject@Ogre@@6B@
CONST	SEGMENT
??_7DataStreamObject@Ogre@@6B@ DD FLAT:??_R4DataStreamObject@Ogre@@6B@ ; Ogre::DataStreamObject::`vftable'
	DD	FLAT:??_EDataStreamObject@Ogre@@MAEPAXI@Z
	DD	FLAT:__purecall
	DD	FLAT:__purecall
	DD	FLAT:__purecall
	DD	FLAT:__purecall
	DD	FLAT:__purecall
	DD	FLAT:__purecall
; Function compile flags: /Odtp
CONST	ENDS
;	COMDAT ??1DataStreamObject@Ogre@@MAE@XZ
_TEXT	SEGMENT
_this$ = -4						; size = 4
??1DataStreamObject@Ogre@@MAE@XZ PROC			; Ogre::DataStreamObject::~DataStreamObject, COMDAT
; _this$ = ecx

; 445  : 		virtual ~DataStreamObject(){}

	push	ebp
	mov	ebp, esp
	push	ecx
	mov	DWORD PTR _this$[ebp], ecx
	mov	eax, DWORD PTR _this$[ebp]
	mov	DWORD PTR [eax], OFFSET ??_7DataStreamObject@Ogre@@6B@
	mov	esp, ebp
	pop	ebp
	ret	0
??1DataStreamObject@Ogre@@MAE@XZ ENDP			; Ogre::DataStreamObject::~DataStreamObject
_TEXT	ENDS
PUBLIC	??0DataStreamObject@Ogre@@QAE@XZ		; Ogre::DataStreamObject::DataStreamObject
; Function compile flags: /Odtp
;	COMDAT ??0DataStreamObject@Ogre@@QAE@XZ
_TEXT	SEGMENT
_this$ = -4						; size = 4
??0DataStreamObject@Ogre@@QAE@XZ PROC			; Ogre::DataStreamObject::DataStreamObject, COMDAT
; _this$ = ecx
	push	ebp
	mov	ebp, esp
	push	ecx
	mov	DWORD PTR _this$[ebp], ecx
	mov	eax, DWORD PTR _this$[ebp]
	mov	DWORD PTR [eax], OFFSET ??_7DataStreamObject@Ogre@@6B@
	mov	eax, DWORD PTR _this$[ebp]
	mov	esp, ebp
	pop	ebp
	ret	0
??0DataStreamObject@Ogre@@QAE@XZ ENDP			; Ogre::DataStreamObject::DataStreamObject
_TEXT	ENDS
PUBLIC	??0DataStreamObject@Ogre@@QAE@ABV01@@Z		; Ogre::DataStreamObject::DataStreamObject
; Function compile flags: /Odtp
;	COMDAT ??0DataStreamObject@Ogre@@QAE@ABV01@@Z
_TEXT	SEGMENT
_this$ = -4						; size = 4
___that$ = 8						; size = 4
??0DataStreamObject@Ogre@@QAE@ABV01@@Z PROC		; Ogre::DataStreamObject::DataStreamObject, COMDAT
; _this$ = ecx
	push	ebp
	mov	ebp, esp
	push	ecx
	mov	DWORD PTR _this$[ebp], ecx
	mov	eax, DWORD PTR _this$[ebp]
	mov	DWORD PTR [eax], OFFSET ??_7DataStreamObject@Ogre@@6B@
	mov	eax, DWORD PTR _this$[ebp]
	mov	esp, ebp
	pop	ebp
	ret	4
??0DataStreamObject@Ogre@@QAE@ABV01@@Z ENDP		; Ogre::DataStreamObject::DataStreamObject
_TEXT	ENDS
PUBLIC	??4DataStreamObject@Ogre@@QAEAAV01@ABV01@@Z	; Ogre::DataStreamObject::operator=
; Function compile flags: /Odtp
;	COMDAT ??4DataStreamObject@Ogre@@QAEAAV01@ABV01@@Z
_TEXT	SEGMENT
_this$ = -4						; size = 4
___that$ = 8						; size = 4
??4DataStreamObject@Ogre@@QAEAAV01@ABV01@@Z PROC	; Ogre::DataStreamObject::operator=, COMDAT
; _this$ = ecx
	push	ebp
	mov	ebp, esp
	push	ecx
	mov	DWORD PTR _this$[ebp], ecx
	mov	eax, DWORD PTR _this$[ebp]
	mov	esp, ebp
	pop	ebp
	ret	4
??4DataStreamObject@Ogre@@QAEAAV01@ABV01@@Z ENDP	; Ogre::DataStreamObject::operator=
_TEXT	ENDS
PUBLIC	??_GDataStreamObject@Ogre@@MAEPAXI@Z		; Ogre::DataStreamObject::`scalar deleting destructor'
; Function compile flags: /Odtp
;	COMDAT ??_GDataStreamObject@Ogre@@MAEPAXI@Z
_TEXT	SEGMENT
_this$ = -4						; size = 4
___flags$ = 8						; size = 4
??_GDataStreamObject@Ogre@@MAEPAXI@Z PROC		; Ogre::DataStreamObject::`scalar deleting destructor', COMDAT
; _this$ = ecx
	push	ebp
	mov	ebp, esp
	push	ecx
	mov	DWORD PTR _this$[ebp], ecx
	mov	ecx, DWORD PTR _this$[ebp]
	call	??1DataStreamObject@Ogre@@MAE@XZ	; Ogre::DataStreamObject::~DataStreamObject
	mov	eax, DWORD PTR ___flags$[ebp]
	and	eax, 1
	je	SHORT $LN1@scalar@7
	mov	ecx, DWORD PTR _this$[ebp]
	push	ecx
	call	??3@YAXPAX@Z				; operator delete
	add	esp, 4
$LN1@scalar@7:
	mov	eax, DWORD PTR _this$[ebp]
	mov	esp, ebp
	pop	ebp
	ret	4
??_GDataStreamObject@Ogre@@MAEPAXI@Z ENDP		; Ogre::DataStreamObject::`scalar deleting destructor'
; Function compile flags: /Odtp
_TEXT	ENDS
;	COMDAT ??_EDataStreamObject@Ogre@@MAEPAXI@Z
_TEXT	SEGMENT
_this$ = -4						; size = 4
___flags$ = 8						; size = 4
??_EDataStreamObject@Ogre@@MAEPAXI@Z PROC		; Ogre::DataStreamObject::`vector deleting destructor', COMDAT
; _this$ = ecx
	push	ebp
	mov	ebp, esp
	push	ecx
	mov	DWORD PTR _this$[ebp], ecx
	mov	eax, DWORD PTR ___flags$[ebp]
	and	eax, 2
	je	SHORT $LN3@vector@7
	push	OFFSET ??1DataStreamObject@Ogre@@MAE@XZ	; Ogre::DataStreamObject::~DataStreamObject
	mov	ecx, DWORD PTR _this$[ebp]
	mov	edx, DWORD PTR [ecx-4]
	push	edx
	push	4
	mov	eax, DWORD PTR _this$[ebp]
	push	eax
	call	??_M@YGXPAXIHP6EX0@Z@Z
	mov	ecx, DWORD PTR ___flags$[ebp]
	and	ecx, 1
	je	SHORT $LN2@vector@7
	mov	edx, DWORD PTR _this$[ebp]
	sub	edx, 4
	push	edx
	call	??_V@YAXPAX@Z				; operator delete[]
	add	esp, 4
$LN2@vector@7:
	mov	eax, DWORD PTR _this$[ebp]
	sub	eax, 4
	jmp	SHORT $LN4@vector@7
$LN3@vector@7:
	mov	ecx, DWORD PTR _this$[ebp]
	call	??1DataStreamObject@Ogre@@MAE@XZ	; Ogre::DataStreamObject::~DataStreamObject
	mov	eax, DWORD PTR ___flags$[ebp]
	and	eax, 1
	je	SHORT $LN1@vector@7
	mov	ecx, DWORD PTR _this$[ebp]
	push	ecx
	call	??3@YAXPAX@Z				; operator delete
	add	esp, 4
$LN1@vector@7:
	mov	eax, DWORD PTR _this$[ebp]
$LN4@vector@7:
	mov	esp, ebp
	pop	ebp
	ret	4
??_EDataStreamObject@Ogre@@MAEPAXI@Z ENDP		; Ogre::DataStreamObject::`vector deleting destructor'
_TEXT	ENDS
PUBLIC	??_7ObjectDataStream@Ogre@@6B@			; Ogre::ObjectDataStream::`vftable'
PUBLIC	??0ObjectDataStream@Ogre@@QAE@ABV01@@Z		; Ogre::ObjectDataStream::ObjectDataStream
PUBLIC	??_R4ObjectDataStream@Ogre@@6B@			; Ogre::ObjectDataStream::`RTTI Complete Object Locator'
PUBLIC	??_R0?AVObjectDataStream@Ogre@@@8		; Ogre::ObjectDataStream `RTTI Type Descriptor'
PUBLIC	??_R3ObjectDataStream@Ogre@@8			; Ogre::ObjectDataStream::`RTTI Class Hierarchy Descriptor'
PUBLIC	??_R2ObjectDataStream@Ogre@@8			; Ogre::ObjectDataStream::`RTTI Base Class Array'
PUBLIC	??_R1A@?0A@EA@ObjectDataStream@Ogre@@8		; Ogre::ObjectDataStream::`RTTI Base Class Descriptor at (0,-1,0,64)'
PUBLIC	??_EObjectDataStream@Ogre@@UAEPAXI@Z		; Ogre::ObjectDataStream::`vector deleting destructor'
EXTRN	?read@ObjectDataStream@Ogre@@UAEIPAXI@Z:PROC	; Ogre::ObjectDataStream::read
EXTRN	?write@ObjectDataStream@Ogre@@UAEIPBXI@Z:PROC	; Ogre::ObjectDataStream::write
EXTRN	?skip@ObjectDataStream@Ogre@@UAEXJ@Z:PROC	; Ogre::ObjectDataStream::skip
EXTRN	?seek@ObjectDataStream@Ogre@@UAEXI@Z:PROC	; Ogre::ObjectDataStream::seek
EXTRN	?tell@ObjectDataStream@Ogre@@UBEIXZ:PROC	; Ogre::ObjectDataStream::tell
EXTRN	?eof@ObjectDataStream@Ogre@@UBE_NXZ:PROC	; Ogre::ObjectDataStream::eof
EXTRN	?size@ObjectDataStream@Ogre@@UBEIXZ:PROC	; Ogre::ObjectDataStream::size
EXTRN	?close@ObjectDataStream@Ogre@@UAEXXZ:PROC	; Ogre::ObjectDataStream::close
EXTRN	?getMemoryImage@ObjectDataStream@Ogre@@UAEPAXXZ:PROC ; Ogre::ObjectDataStream::getMemoryImage
;	COMDAT ??_R1A@?0A@EA@ObjectDataStream@Ogre@@8
rdata$r	SEGMENT
??_R1A@?0A@EA@ObjectDataStream@Ogre@@8 DD FLAT:??_R0?AVObjectDataStream@Ogre@@@8 ; Ogre::ObjectDataStream::`RTTI Base Class Descriptor at (0,-1,0,64)'
	DD	01H
	DD	00H
	DD	0ffffffffH
	DD	00H
	DD	040H
	DD	FLAT:??_R3ObjectDataStream@Ogre@@8
rdata$r	ENDS
;	COMDAT ??_R2ObjectDataStream@Ogre@@8
rdata$r	SEGMENT
??_R2ObjectDataStream@Ogre@@8 DD FLAT:??_R1A@?0A@EA@ObjectDataStream@Ogre@@8 ; Ogre::ObjectDataStream::`RTTI Base Class Array'
	DD	FLAT:??_R1A@?0A@EA@DataStream@Ogre@@8
rdata$r	ENDS
;	COMDAT ??_R3ObjectDataStream@Ogre@@8
rdata$r	SEGMENT
??_R3ObjectDataStream@Ogre@@8 DD 00H			; Ogre::ObjectDataStream::`RTTI Class Hierarchy Descriptor'
	DD	00H
	DD	02H
	DD	FLAT:??_R2ObjectDataStream@Ogre@@8
rdata$r	ENDS
;	COMDAT ??_R0?AVObjectDataStream@Ogre@@@8
_DATA	SEGMENT
??_R0?AVObjectDataStream@Ogre@@@8 DD FLAT:??_7type_info@@6B@ ; Ogre::ObjectDataStream `RTTI Type Descriptor'
	DD	00H
	DB	'.?AVObjectDataStream@Ogre@@', 00H
_DATA	ENDS
;	COMDAT ??_R4ObjectDataStream@Ogre@@6B@
rdata$r	SEGMENT
??_R4ObjectDataStream@Ogre@@6B@ DD 00H			; Ogre::ObjectDataStream::`RTTI Complete Object Locator'
	DD	00H
	DD	00H
	DD	FLAT:??_R0?AVObjectDataStream@Ogre@@@8
	DD	FLAT:??_R3ObjectDataStream@Ogre@@8
rdata$r	ENDS
;	COMDAT ??_7ObjectDataStream@Ogre@@6B@
CONST	SEGMENT
??_7ObjectDataStream@Ogre@@6B@ DD FLAT:??_R4ObjectDataStream@Ogre@@6B@ ; Ogre::ObjectDataStream::`vftable'
	DD	FLAT:??_EObjectDataStream@Ogre@@UAEPAXI@Z
	DD	FLAT:?read@ObjectDataStream@Ogre@@UAEIPAXI@Z
	DD	FLAT:?write@ObjectDataStream@Ogre@@UAEIPBXI@Z
	DD	FLAT:?readLine@DataStream@Ogre@@UAEIPADIABV?$basic_string@DU?$char_traits@D@std@@V?$allocator@D@2@@std@@@Z
	DD	FLAT:?getLine@DataStream@Ogre@@UAE?AV?$basic_string@DU?$char_traits@D@std@@V?$allocator@D@2@@std@@_N@Z
	DD	FLAT:?getAsString@DataStream@Ogre@@UAE?AV?$basic_string@DU?$char_traits@D@std@@V?$allocator@D@2@@std@@XZ
	DD	FLAT:?skipLine@DataStream@Ogre@@UAEIABV?$basic_string@DU?$char_traits@D@std@@V?$allocator@D@2@@std@@@Z
	DD	FLAT:?skip@ObjectDataStream@Ogre@@UAEXJ@Z
	DD	FLAT:?seek@ObjectDataStream@Ogre@@UAEXI@Z
	DD	FLAT:?tell@ObjectDataStream@Ogre@@UBEIXZ
	DD	FLAT:?eof@ObjectDataStream@Ogre@@UBE_NXZ
	DD	FLAT:?size@ObjectDataStream@Ogre@@UBEIXZ
	DD	FLAT:?close@ObjectDataStream@Ogre@@UAEXXZ
	DD	FLAT:?getMemoryImage@ObjectDataStream@Ogre@@UAEPAXXZ
CONST	ENDS
;	COMDAT xdata$x
xdata$x	SEGMENT
__unwindtable$??0ObjectDataStream@Ogre@@QAE@ABV01@@Z DD 0ffffffffH
	DD	FLAT:__unwindfunclet$??0ObjectDataStream@Ogre@@QAE@ABV01@@Z$0
__ehfuncinfo$??0ObjectDataStream@Ogre@@QAE@ABV01@@Z DD 019930522H
	DD	01H
	DD	FLAT:__unwindtable$??0ObjectDataStream@Ogre@@QAE@ABV01@@Z
	DD	2 DUP(00H)
	DD	2 DUP(00H)
	DD	00H
	DD	00H
; Function compile flags: /Odtp
xdata$x	ENDS
;	COMDAT ??0ObjectDataStream@Ogre@@QAE@ABV01@@Z
_TEXT	SEGMENT
_this$ = -16						; size = 4
__$EHRec$ = -12						; size = 12
___that$ = 8						; size = 4
??0ObjectDataStream@Ogre@@QAE@ABV01@@Z PROC		; Ogre::ObjectDataStream::ObjectDataStream, COMDAT
; _this$ = ecx
	push	ebp
	mov	ebp, esp
	push	-1
	push	__ehhandler$??0ObjectDataStream@Ogre@@QAE@ABV01@@Z
	mov	eax, DWORD PTR fs:0
	push	eax
	push	ecx
	mov	eax, DWORD PTR ___security_cookie
	xor	eax, ebp
	push	eax
	lea	eax, DWORD PTR __$EHRec$[ebp]
	mov	DWORD PTR fs:0, eax
	mov	DWORD PTR _this$[ebp], ecx
	mov	eax, DWORD PTR ___that$[ebp]
	push	eax
	mov	ecx, DWORD PTR _this$[ebp]
	call	??0DataStream@Ogre@@QAE@ABV01@@Z
	mov	DWORD PTR __$EHRec$[ebp+8], 0
	mov	ecx, DWORD PTR _this$[ebp]
	mov	DWORD PTR [ecx], OFFSET ??_7ObjectDataStream@Ogre@@6B@
	mov	edx, DWORD PTR _this$[ebp]
	mov	eax, DWORD PTR ___that$[ebp]
	mov	ecx, DWORD PTR [eax+36]
	mov	DWORD PTR [edx+36], ecx
	mov	edx, DWORD PTR _this$[ebp]
	mov	eax, DWORD PTR ___that$[ebp]
	mov	ecx, DWORD PTR [eax+40]
	mov	DWORD PTR [edx+40], ecx
	mov	DWORD PTR __$EHRec$[ebp+8], -1
	mov	eax, DWORD PTR _this$[ebp]
	mov	ecx, DWORD PTR __$EHRec$[ebp]
	mov	DWORD PTR fs:0, ecx
	pop	ecx
	mov	esp, ebp
	pop	ebp
	ret	4
_TEXT	ENDS
;	COMDAT text$x
text$x	SEGMENT
__unwindfunclet$??0ObjectDataStream@Ogre@@QAE@ABV01@@Z$0:
	mov	ecx, DWORD PTR _this$[ebp]
	jmp	??1DataStream@Ogre@@UAE@XZ		; Ogre::DataStream::~DataStream
__ehhandler$??0ObjectDataStream@Ogre@@QAE@ABV01@@Z:
	mov	edx, DWORD PTR [esp+8]
	lea	eax, DWORD PTR [edx+12]
	mov	ecx, DWORD PTR [edx-8]
	xor	ecx, eax
	call	@__security_check_cookie@4
	mov	eax, OFFSET __ehfuncinfo$??0ObjectDataStream@Ogre@@QAE@ABV01@@Z
	jmp	___CxxFrameHandler3
text$x	ENDS
??0ObjectDataStream@Ogre@@QAE@ABV01@@Z ENDP		; Ogre::ObjectDataStream::ObjectDataStream
PUBLIC	??4ObjectDataStream@Ogre@@QAEAAV01@ABV01@@Z	; Ogre::ObjectDataStream::operator=
; Function compile flags: /Odtp
;	COMDAT ??4ObjectDataStream@Ogre@@QAEAAV01@ABV01@@Z
_TEXT	SEGMENT
_this$ = -4						; size = 4
___that$ = 8						; size = 4
??4ObjectDataStream@Ogre@@QAEAAV01@ABV01@@Z PROC	; Ogre::ObjectDataStream::operator=, COMDAT
; _this$ = ecx
	push	ebp
	mov	ebp, esp
	push	ecx
	mov	DWORD PTR _this$[ebp], ecx
	mov	eax, DWORD PTR ___that$[ebp]
	push	eax
	mov	ecx, DWORD PTR _this$[ebp]
	call	??4DataStream@Ogre@@QAEAAV01@ABV01@@Z
	mov	ecx, DWORD PTR _this$[ebp]
	mov	edx, DWORD PTR ___that$[ebp]
	mov	eax, DWORD PTR [edx+36]
	mov	DWORD PTR [ecx+36], eax
	mov	ecx, DWORD PTR _this$[ebp]
	mov	edx, DWORD PTR ___that$[ebp]
	mov	eax, DWORD PTR [edx+40]
	mov	DWORD PTR [ecx+40], eax
	mov	eax, DWORD PTR _this$[ebp]
	mov	esp, ebp
	pop	ebp
	ret	4
??4ObjectDataStream@Ogre@@QAEAAV01@ABV01@@Z ENDP	; Ogre::ObjectDataStream::operator=
_TEXT	ENDS
PUBLIC	??_GObjectDataStream@Ogre@@UAEPAXI@Z		; Ogre::ObjectDataStream::`scalar deleting destructor'
EXTRN	??1ObjectDataStream@Ogre@@UAE@XZ:PROC		; Ogre::ObjectDataStream::~ObjectDataStream
; Function compile flags: /Odtp
;	COMDAT ??_GObjectDataStream@Ogre@@UAEPAXI@Z
_TEXT	SEGMENT
_this$ = -4						; size = 4
___flags$ = 8						; size = 4
??_GObjectDataStream@Ogre@@UAEPAXI@Z PROC		; Ogre::ObjectDataStream::`scalar deleting destructor', COMDAT
; _this$ = ecx
	push	ebp
	mov	ebp, esp
	push	ecx
	mov	DWORD PTR _this$[ebp], ecx
	mov	ecx, DWORD PTR _this$[ebp]
	call	??1ObjectDataStream@Ogre@@UAE@XZ	; Ogre::ObjectDataStream::~ObjectDataStream
	mov	eax, DWORD PTR ___flags$[ebp]
	and	eax, 1
	je	SHORT $LN1@scalar@8
	mov	ecx, DWORD PTR _this$[ebp]
	push	ecx
	call	??3@YAXPAX@Z				; operator delete
	add	esp, 4
$LN1@scalar@8:
	mov	eax, DWORD PTR _this$[ebp]
	mov	esp, ebp
	pop	ebp
	ret	4
??_GObjectDataStream@Ogre@@UAEPAXI@Z ENDP		; Ogre::ObjectDataStream::`scalar deleting destructor'
; Function compile flags: /Odtp
_TEXT	ENDS
;	COMDAT ??_EObjectDataStream@Ogre@@UAEPAXI@Z
_TEXT	SEGMENT
_this$ = -4						; size = 4
___flags$ = 8						; size = 4
??_EObjectDataStream@Ogre@@UAEPAXI@Z PROC		; Ogre::ObjectDataStream::`vector deleting destructor', COMDAT
; _this$ = ecx
	push	ebp
	mov	ebp, esp
	push	ecx
	mov	DWORD PTR _this$[ebp], ecx
	mov	eax, DWORD PTR ___flags$[ebp]
	and	eax, 2
	je	SHORT $LN3@vector@8
	push	OFFSET ??1ObjectDataStream@Ogre@@UAE@XZ	; Ogre::ObjectDataStream::~ObjectDataStream
	mov	ecx, DWORD PTR _this$[ebp]
	mov	edx, DWORD PTR [ecx-4]
	push	edx
	push	44					; 0000002cH
	mov	eax, DWORD PTR _this$[ebp]
	push	eax
	call	??_M@YGXPAXIHP6EX0@Z@Z
	mov	ecx, DWORD PTR ___flags$[ebp]
	and	ecx, 1
	je	SHORT $LN2@vector@8
	mov	edx, DWORD PTR _this$[ebp]
	sub	edx, 4
	push	edx
	call	??_V@YAXPAX@Z				; operator delete[]
	add	esp, 4
$LN2@vector@8:
	mov	eax, DWORD PTR _this$[ebp]
	sub	eax, 4
	jmp	SHORT $LN4@vector@8
$LN3@vector@8:
	mov	ecx, DWORD PTR _this$[ebp]
	call	??1ObjectDataStream@Ogre@@UAE@XZ	; Ogre::ObjectDataStream::~ObjectDataStream
	mov	eax, DWORD PTR ___flags$[ebp]
	and	eax, 1
	je	SHORT $LN1@vector@8
	mov	ecx, DWORD PTR _this$[ebp]
	push	ecx
	call	??3@YAXPAX@Z				; operator delete
	add	esp, 4
$LN1@vector@8:
	mov	eax, DWORD PTR _this$[ebp]
$LN4@vector@8:
	mov	esp, ebp
	pop	ebp
	ret	4
??_EObjectDataStream@Ogre@@UAEPAXI@Z ENDP		; Ogre::ObjectDataStream::`vector deleting destructor'
_TEXT	ENDS
PUBLIC	??_7Archive@Ogre@@6B@				; Ogre::Archive::`vftable'
PUBLIC	??0Archive@Ogre@@QAE@PAVDataStream@1@H@Z	; Ogre::Archive::Archive
PUBLIC	??_R4Archive@Ogre@@6B@				; Ogre::Archive::`RTTI Complete Object Locator'
PUBLIC	??_R0?AVArchive@Ogre@@@8			; Ogre::Archive `RTTI Type Descriptor'
PUBLIC	??_R3Archive@Ogre@@8				; Ogre::Archive::`RTTI Class Hierarchy Descriptor'
PUBLIC	??_R2Archive@Ogre@@8				; Ogre::Archive::`RTTI Base Class Array'
PUBLIC	??_R1A@?0A@EA@Archive@Ogre@@8			; Ogre::Archive::`RTTI Base Class Descriptor at (0,-1,0,64)'
PUBLIC	??_EArchive@Ogre@@UAEPAXI@Z			; Ogre::Archive::`vector deleting destructor'
;	COMDAT ??_R1A@?0A@EA@Archive@Ogre@@8
; File i:\svnroot\client\ogremain\ogrearchive.h
rdata$r	SEGMENT
??_R1A@?0A@EA@Archive@Ogre@@8 DD FLAT:??_R0?AVArchive@Ogre@@@8 ; Ogre::Archive::`RTTI Base Class Descriptor at (0,-1,0,64)'
	DD	00H
	DD	00H
	DD	0ffffffffH
	DD	00H
	DD	040H
	DD	FLAT:??_R3Archive@Ogre@@8
rdata$r	ENDS
;	COMDAT ??_R2Archive@Ogre@@8
rdata$r	SEGMENT
??_R2Archive@Ogre@@8 DD FLAT:??_R1A@?0A@EA@Archive@Ogre@@8 ; Ogre::Archive::`RTTI Base Class Array'
rdata$r	ENDS
;	COMDAT ??_R3Archive@Ogre@@8
rdata$r	SEGMENT
??_R3Archive@Ogre@@8 DD 00H				; Ogre::Archive::`RTTI Class Hierarchy Descriptor'
	DD	00H
	DD	01H
	DD	FLAT:??_R2Archive@Ogre@@8
rdata$r	ENDS
;	COMDAT ??_R0?AVArchive@Ogre@@@8
_DATA	SEGMENT
??_R0?AVArchive@Ogre@@@8 DD FLAT:??_7type_info@@6B@	; Ogre::Archive `RTTI Type Descriptor'
	DD	00H
	DB	'.?AVArchive@Ogre@@', 00H
_DATA	ENDS
;	COMDAT ??_R4Archive@Ogre@@6B@
rdata$r	SEGMENT
??_R4Archive@Ogre@@6B@ DD 00H				; Ogre::Archive::`RTTI Complete Object Locator'
	DD	00H
	DD	00H
	DD	FLAT:??_R0?AVArchive@Ogre@@@8
	DD	FLAT:??_R3Archive@Ogre@@8
rdata$r	ENDS
;	COMDAT ??_7Archive@Ogre@@6B@
CONST	SEGMENT
??_7Archive@Ogre@@6B@ DD FLAT:??_R4Archive@Ogre@@6B@	; Ogre::Archive::`vftable'
	DD	FLAT:??_EArchive@Ogre@@UAEPAXI@Z
; Function compile flags: /Odtp
CONST	ENDS
;	COMDAT ??0Archive@Ogre@@QAE@PAVDataStream@1@H@Z
_TEXT	SEGMENT
_this$ = -4						; size = 4
_pstream$ = 8						; size = 4
_mode$ = 12						; size = 4
??0Archive@Ogre@@QAE@PAVDataStream@1@H@Z PROC		; Ogre::Archive::Archive, COMDAT
; _this$ = ecx

; 22   : 		{

	push	ebp
	mov	ebp, esp
	push	ecx
	mov	DWORD PTR _this$[ebp], ecx
	mov	eax, DWORD PTR _this$[ebp]
	mov	DWORD PTR [eax], OFFSET ??_7Archive@Ogre@@6B@
	mov	ecx, DWORD PTR _this$[ebp]
	mov	edx, DWORD PTR _pstream$[ebp]
	mov	DWORD PTR [ecx+4], edx
	mov	eax, DWORD PTR _this$[ebp]
	mov	ecx, DWORD PTR _mode$[ebp]
	mov	DWORD PTR [eax+8], ecx

; 23   : 		}

	mov	eax, DWORD PTR _this$[ebp]
	mov	esp, ebp
	pop	ebp
	ret	8
??0Archive@Ogre@@QAE@PAVDataStream@1@H@Z ENDP		; Ogre::Archive::Archive
_TEXT	ENDS
PUBLIC	??1Archive@Ogre@@UAE@XZ				; Ogre::Archive::~Archive
; Function compile flags: /Odtp
;	COMDAT ??1Archive@Ogre@@UAE@XZ
_TEXT	SEGMENT
_this$ = -4						; size = 4
??1Archive@Ogre@@UAE@XZ PROC				; Ogre::Archive::~Archive, COMDAT
; _this$ = ecx

; 26   : 		{

	push	ebp
	mov	ebp, esp
	push	ecx
	mov	DWORD PTR _this$[ebp], ecx
	mov	eax, DWORD PTR _this$[ebp]
	mov	DWORD PTR [eax], OFFSET ??_7Archive@Ogre@@6B@

; 27   : 		}

	mov	esp, ebp
	pop	ebp
	ret	0
??1Archive@Ogre@@UAE@XZ ENDP				; Ogre::Archive::~Archive
_TEXT	ENDS
PUBLIC	?isLoading@Archive@Ogre@@QAE_NXZ		; Ogre::Archive::isLoading
; Function compile flags: /Odtp
;	COMDAT ?isLoading@Archive@Ogre@@QAE_NXZ
_TEXT	SEGMENT
_this$ = -4						; size = 4
?isLoading@Archive@Ogre@@QAE_NXZ PROC			; Ogre::Archive::isLoading, COMDAT
; _this$ = ecx

; 30   : 		{

	push	ebp
	mov	ebp, esp
	push	ecx
	mov	DWORD PTR _this$[ebp], ecx

; 31   : 			return m_Mode==MODE_LOAD;

	mov	eax, DWORD PTR _this$[ebp]
	xor	ecx, ecx
	cmp	DWORD PTR [eax+8], 1
	sete	cl
	mov	al, cl

; 32   : 		}

	mov	esp, ebp
	pop	ebp
	ret	0
?isLoading@Archive@Ogre@@QAE_NXZ ENDP			; Ogre::Archive::isLoading
_TEXT	ENDS
PUBLIC	?serialize@Archive@Ogre@@QAEAAV12@PAXI@Z	; Ogre::Archive::serialize
PUBLIC	??6Archive@Ogre@@QAEAAV01@AAD@Z			; Ogre::Archive::operator<<
; Function compile flags: /Odtp
;	COMDAT ??6Archive@Ogre@@QAEAAV01@AAD@Z
_TEXT	SEGMENT
_this$ = -4						; size = 4
_value$ = 8						; size = 4
??6Archive@Ogre@@QAEAAV01@AAD@Z PROC			; Ogre::Archive::operator<<, COMDAT
; _this$ = ecx

; 108  : 		SERIALIZE_PRIMITIVE_FUNC(char)

	push	ebp
	mov	ebp, esp
	push	ecx
	mov	DWORD PTR _this$[ebp], ecx
	push	1
	mov	eax, DWORD PTR _value$[ebp]
	push	eax
	mov	ecx, DWORD PTR _this$[ebp]
	call	?serialize@Archive@Ogre@@QAEAAV12@PAXI@Z ; Ogre::Archive::serialize
	mov	eax, DWORD PTR _this$[ebp]
	mov	esp, ebp
	pop	ebp
	ret	4
??6Archive@Ogre@@QAEAAV01@AAD@Z ENDP			; Ogre::Archive::operator<<
_TEXT	ENDS
PUBLIC	??6Archive@Ogre@@QAEAAV01@AAF@Z			; Ogre::Archive::operator<<
; Function compile flags: /Odtp
;	COMDAT ??6Archive@Ogre@@QAEAAV01@AAF@Z
_TEXT	SEGMENT
_this$ = -4						; size = 4
_value$ = 8						; size = 4
??6Archive@Ogre@@QAEAAV01@AAF@Z PROC			; Ogre::Archive::operator<<, COMDAT
; _this$ = ecx

; 109  : 		SERIALIZE_PRIMITIVE_FUNC(short)

	push	ebp
	mov	ebp, esp
	push	ecx
	mov	DWORD PTR _this$[ebp], ecx
	push	2
	mov	eax, DWORD PTR _value$[ebp]
	push	eax
	mov	ecx, DWORD PTR _this$[ebp]
	call	?serialize@Archive@Ogre@@QAEAAV12@PAXI@Z ; Ogre::Archive::serialize
	mov	eax, DWORD PTR _this$[ebp]
	mov	esp, ebp
	pop	ebp
	ret	4
??6Archive@Ogre@@QAEAAV01@AAF@Z ENDP			; Ogre::Archive::operator<<
_TEXT	ENDS
PUBLIC	??6Archive@Ogre@@QAEAAV01@AAH@Z			; Ogre::Archive::operator<<
; Function compile flags: /Odtp
;	COMDAT ??6Archive@Ogre@@QAEAAV01@AAH@Z
_TEXT	SEGMENT
_this$ = -4						; size = 4
_value$ = 8						; size = 4
??6Archive@Ogre@@QAEAAV01@AAH@Z PROC			; Ogre::Archive::operator<<, COMDAT
; _this$ = ecx

; 110  : 		SERIALIZE_PRIMITIVE_FUNC(int)

	push	ebp
	mov	ebp, esp
	push	ecx
	mov	DWORD PTR _this$[ebp], ecx
	push	4
	mov	eax, DWORD PTR _value$[ebp]
	push	eax
	mov	ecx, DWORD PTR _this$[ebp]
	call	?serialize@Archive@Ogre@@QAEAAV12@PAXI@Z ; Ogre::Archive::serialize
	mov	eax, DWORD PTR _this$[ebp]
	mov	esp, ebp
	pop	ebp
	ret	4
??6Archive@Ogre@@QAEAAV01@AAH@Z ENDP			; Ogre::Archive::operator<<
_TEXT	ENDS
PUBLIC	??6Archive@Ogre@@QAEAAV01@AA_J@Z		; Ogre::Archive::operator<<
; Function compile flags: /Odtp
;	COMDAT ??6Archive@Ogre@@QAEAAV01@AA_J@Z
_TEXT	SEGMENT
_this$ = -4						; size = 4
_value$ = 8						; size = 4
??6Archive@Ogre@@QAEAAV01@AA_J@Z PROC			; Ogre::Archive::operator<<, COMDAT
; _this$ = ecx

; 111  : 		SERIALIZE_PRIMITIVE_FUNC(int64)

	push	ebp
	mov	ebp, esp
	push	ecx
	mov	DWORD PTR _this$[ebp], ecx
	push	8
	mov	eax, DWORD PTR _value$[ebp]
	push	eax
	mov	ecx, DWORD PTR _this$[ebp]
	call	?serialize@Archive@Ogre@@QAEAAV12@PAXI@Z ; Ogre::Archive::serialize
	mov	eax, DWORD PTR _this$[ebp]
	mov	esp, ebp
	pop	ebp
	ret	4
??6Archive@Ogre@@QAEAAV01@AA_J@Z ENDP			; Ogre::Archive::operator<<
_TEXT	ENDS
PUBLIC	??6Archive@Ogre@@QAEAAV01@AAE@Z			; Ogre::Archive::operator<<
; Function compile flags: /Odtp
;	COMDAT ??6Archive@Ogre@@QAEAAV01@AAE@Z
_TEXT	SEGMENT
_this$ = -4						; size = 4
_value$ = 8						; size = 4
??6Archive@Ogre@@QAEAAV01@AAE@Z PROC			; Ogre::Archive::operator<<, COMDAT
; _this$ = ecx

; 112  : 		SERIALIZE_PRIMITIVE_FUNC(uchar)

	push	ebp
	mov	ebp, esp
	push	ecx
	mov	DWORD PTR _this$[ebp], ecx
	push	1
	mov	eax, DWORD PTR _value$[ebp]
	push	eax
	mov	ecx, DWORD PTR _this$[ebp]
	call	?serialize@Archive@Ogre@@QAEAAV12@PAXI@Z ; Ogre::Archive::serialize
	mov	eax, DWORD PTR _this$[ebp]
	mov	esp, ebp
	pop	ebp
	ret	4
??6Archive@Ogre@@QAEAAV01@AAE@Z ENDP			; Ogre::Archive::operator<<
_TEXT	ENDS
PUBLIC	??6Archive@Ogre@@QAEAAV01@AAG@Z			; Ogre::Archive::operator<<
; Function compile flags: /Odtp
;	COMDAT ??6Archive@Ogre@@QAEAAV01@AAG@Z
_TEXT	SEGMENT
_this$ = -4						; size = 4
_value$ = 8						; size = 4
??6Archive@Ogre@@QAEAAV01@AAG@Z PROC			; Ogre::Archive::operator<<, COMDAT
; _this$ = ecx

; 113  : 		SERIALIZE_PRIMITIVE_FUNC(ushort)

	push	ebp
	mov	ebp, esp
	push	ecx
	mov	DWORD PTR _this$[ebp], ecx
	push	2
	mov	eax, DWORD PTR _value$[ebp]
	push	eax
	mov	ecx, DWORD PTR _this$[ebp]
	call	?serialize@Archive@Ogre@@QAEAAV12@PAXI@Z ; Ogre::Archive::serialize
	mov	eax, DWORD PTR _this$[ebp]
	mov	esp, ebp
	pop	ebp
	ret	4
??6Archive@Ogre@@QAEAAV01@AAG@Z ENDP			; Ogre::Archive::operator<<
_TEXT	ENDS
PUBLIC	??6Archive@Ogre@@QAEAAV01@AAI@Z			; Ogre::Archive::operator<<
; Function compile flags: /Odtp
;	COMDAT ??6Archive@Ogre@@QAEAAV01@AAI@Z
_TEXT	SEGMENT
_this$ = -4						; size = 4
_value$ = 8						; size = 4
??6Archive@Ogre@@QAEAAV01@AAI@Z PROC			; Ogre::Archive::operator<<, COMDAT
; _this$ = ecx

; 114  : 		SERIALIZE_PRIMITIVE_FUNC(uint)

	push	ebp
	mov	ebp, esp
	push	ecx
	mov	DWORD PTR _this$[ebp], ecx
	push	4
	mov	eax, DWORD PTR _value$[ebp]
	push	eax
	mov	ecx, DWORD PTR _this$[ebp]
	call	?serialize@Archive@Ogre@@QAEAAV12@PAXI@Z ; Ogre::Archive::serialize
	mov	eax, DWORD PTR _this$[ebp]
	mov	esp, ebp
	pop	ebp
	ret	4
??6Archive@Ogre@@QAEAAV01@AAI@Z ENDP			; Ogre::Archive::operator<<
_TEXT	ENDS
PUBLIC	??6Archive@Ogre@@QAEAAV01@AA_K@Z		; Ogre::Archive::operator<<
; Function compile flags: /Odtp
;	COMDAT ??6Archive@Ogre@@QAEAAV01@AA_K@Z
_TEXT	SEGMENT
_this$ = -4						; size = 4
_value$ = 8						; size = 4
??6Archive@Ogre@@QAEAAV01@AA_K@Z PROC			; Ogre::Archive::operator<<, COMDAT
; _this$ = ecx

; 115  : 		SERIALIZE_PRIMITIVE_FUNC(uint64)

	push	ebp
	mov	ebp, esp
	push	ecx
	mov	DWORD PTR _this$[ebp], ecx
	push	8
	mov	eax, DWORD PTR _value$[ebp]
	push	eax
	mov	ecx, DWORD PTR _this$[ebp]
	call	?serialize@Archive@Ogre@@QAEAAV12@PAXI@Z ; Ogre::Archive::serialize
	mov	eax, DWORD PTR _this$[ebp]
	mov	esp, ebp
	pop	ebp
	ret	4
??6Archive@Ogre@@QAEAAV01@AA_K@Z ENDP			; Ogre::Archive::operator<<
_TEXT	ENDS
PUBLIC	??6Archive@Ogre@@QAEAAV01@AA_N@Z		; Ogre::Archive::operator<<
; Function compile flags: /Odtp
;	COMDAT ??6Archive@Ogre@@QAEAAV01@AA_N@Z
_TEXT	SEGMENT
_this$ = -4						; size = 4
_value$ = 8						; size = 4
??6Archive@Ogre@@QAEAAV01@AA_N@Z PROC			; Ogre::Archive::operator<<, COMDAT
; _this$ = ecx

; 116  : 		SERIALIZE_PRIMITIVE_FUNC(bool)

	push	ebp
	mov	ebp, esp
	push	ecx
	mov	DWORD PTR _this$[ebp], ecx
	push	1
	mov	eax, DWORD PTR _value$[ebp]
	push	eax
	mov	ecx, DWORD PTR _this$[ebp]
	call	?serialize@Archive@Ogre@@QAEAAV12@PAXI@Z ; Ogre::Archive::serialize
	mov	eax, DWORD PTR _this$[ebp]
	mov	esp, ebp
	pop	ebp
	ret	4
??6Archive@Ogre@@QAEAAV01@AA_N@Z ENDP			; Ogre::Archive::operator<<
_TEXT	ENDS
PUBLIC	??6Archive@Ogre@@QAEAAV01@AAM@Z			; Ogre::Archive::operator<<
; Function compile flags: /Odtp
;	COMDAT ??6Archive@Ogre@@QAEAAV01@AAM@Z
_TEXT	SEGMENT
_this$ = -4						; size = 4
_value$ = 8						; size = 4
??6Archive@Ogre@@QAEAAV01@AAM@Z PROC			; Ogre::Archive::operator<<, COMDAT
; _this$ = ecx

; 117  : 		SERIALIZE_PRIMITIVE_FUNC(float)

	push	ebp
	mov	ebp, esp
	push	ecx
	mov	DWORD PTR _this$[ebp], ecx
	push	4
	mov	eax, DWORD PTR _value$[ebp]
	push	eax
	mov	ecx, DWORD PTR _this$[ebp]
	call	?serialize@Archive@Ogre@@QAEAAV12@PAXI@Z ; Ogre::Archive::serialize
	mov	eax, DWORD PTR _this$[ebp]
	mov	esp, ebp
	pop	ebp
	ret	4
??6Archive@Ogre@@QAEAAV01@AAM@Z ENDP			; Ogre::Archive::operator<<
; Function compile flags: /Odtp
_TEXT	ENDS
;	COMDAT ?serialize@Archive@Ogre@@QAEAAV12@PAXI@Z
_TEXT	SEGMENT
_this$ = -4						; size = 4
_pbuf$ = 8						; size = 4
_len$ = 12						; size = 4
?serialize@Archive@Ogre@@QAEAAV12@PAXI@Z PROC		; Ogre::Archive::serialize, COMDAT
; _this$ = ecx

; 155  : 		{

	push	ebp
	mov	ebp, esp
	push	ecx
	mov	DWORD PTR _this$[ebp], ecx

; 156  : 			if(isLoading()) m_pStream->read(pbuf, len);

	mov	ecx, DWORD PTR _this$[ebp]
	call	?isLoading@Archive@Ogre@@QAE_NXZ	; Ogre::Archive::isLoading
	movzx	eax, al
	test	eax, eax
	je	SHORT $LN2@serialize
	mov	ecx, DWORD PTR _len$[ebp]
	push	ecx
	mov	edx, DWORD PTR _pbuf$[ebp]
	push	edx
	mov	eax, DWORD PTR _this$[ebp]
	mov	ecx, DWORD PTR [eax+4]
	mov	edx, DWORD PTR _this$[ebp]
	mov	eax, DWORD PTR [edx+4]
	mov	edx, DWORD PTR [ecx]
	mov	ecx, eax
	mov	eax, DWORD PTR [edx+4]
	call	eax
	jmp	SHORT $LN1@serialize
$LN2@serialize:

; 157  : 			else m_pStream->write(pbuf, len);

	mov	ecx, DWORD PTR _len$[ebp]
	push	ecx
	mov	edx, DWORD PTR _pbuf$[ebp]
	push	edx
	mov	eax, DWORD PTR _this$[ebp]
	mov	ecx, DWORD PTR [eax+4]
	mov	edx, DWORD PTR _this$[ebp]
	mov	eax, DWORD PTR [edx+4]
	mov	edx, DWORD PTR [ecx]
	mov	ecx, eax
	mov	eax, DWORD PTR [edx+8]
	call	eax
$LN1@serialize:

; 158  : 
; 159  : 			return *this;

	mov	eax, DWORD PTR _this$[ebp]

; 160  : 		}

	mov	esp, ebp
	pop	ebp
	ret	8
?serialize@Archive@Ogre@@QAEAAV12@PAXI@Z ENDP		; Ogre::Archive::serialize
_TEXT	ENDS
PUBLIC	?read@Archive@Ogre@@QAEXPAXI@Z			; Ogre::Archive::read
; Function compile flags: /Odtp
;	COMDAT ?read@Archive@Ogre@@QAEXPAXI@Z
_TEXT	SEGMENT
_this$ = -4						; size = 4
_pbuf$ = 8						; size = 4
_len$ = 12						; size = 4
?read@Archive@Ogre@@QAEXPAXI@Z PROC			; Ogre::Archive::read, COMDAT
; _this$ = ecx

; 163  : 		{

	push	ebp
	mov	ebp, esp
	push	ecx
	mov	DWORD PTR _this$[ebp], ecx

; 164  : 			m_pStream->read(pbuf, len);

	mov	eax, DWORD PTR _len$[ebp]
	push	eax
	mov	ecx, DWORD PTR _pbuf$[ebp]
	push	ecx
	mov	edx, DWORD PTR _this$[ebp]
	mov	eax, DWORD PTR [edx+4]
	mov	ecx, DWORD PTR _this$[ebp]
	mov	ecx, DWORD PTR [ecx+4]
	mov	edx, DWORD PTR [eax]
	mov	eax, DWORD PTR [edx+4]
	call	eax

; 165  : 		}

	mov	esp, ebp
	pop	ebp
	ret	8
?read@Archive@Ogre@@QAEXPAXI@Z ENDP			; Ogre::Archive::read
_TEXT	ENDS
PUBLIC	?write@Archive@Ogre@@QAEXPBXI@Z			; Ogre::Archive::write
; Function compile flags: /Odtp
;	COMDAT ?write@Archive@Ogre@@QAEXPBXI@Z
_TEXT	SEGMENT
_this$ = -4						; size = 4
_pbuf$ = 8						; size = 4
_len$ = 12						; size = 4
?write@Archive@Ogre@@QAEXPBXI@Z PROC			; Ogre::Archive::write, COMDAT
; _this$ = ecx

; 168  : 		{

	push	ebp
	mov	ebp, esp
	push	ecx
	mov	DWORD PTR _this$[ebp], ecx

; 169  : 			m_pStream->write(pbuf, len);

	mov	eax, DWORD PTR _len$[ebp]
	push	eax
	mov	ecx, DWORD PTR _pbuf$[ebp]
	push	ecx
	mov	edx, DWORD PTR _this$[ebp]
	mov	eax, DWORD PTR [edx+4]
	mov	ecx, DWORD PTR _this$[ebp]
	mov	ecx, DWORD PTR [ecx+4]
	mov	edx, DWORD PTR [eax]
	mov	eax, DWORD PTR [edx+8]
	call	eax

; 170  : 		}

	mov	esp, ebp
	pop	ebp
	ret	8
?write@Archive@Ogre@@QAEXPBXI@Z ENDP			; Ogre::Archive::write
_TEXT	ENDS
PUBLIC	??0Archive@Ogre@@QAE@ABV01@@Z			; Ogre::Archive::Archive
; Function compile flags: /Odtp
;	COMDAT ??0Archive@Ogre@@QAE@ABV01@@Z
_TEXT	SEGMENT
_this$ = -4						; size = 4
___that$ = 8						; size = 4
??0Archive@Ogre@@QAE@ABV01@@Z PROC			; Ogre::Archive::Archive, COMDAT
; _this$ = ecx
	push	ebp
	mov	ebp, esp
	push	ecx
	mov	DWORD PTR _this$[ebp], ecx
	mov	eax, DWORD PTR _this$[ebp]
	mov	DWORD PTR [eax], OFFSET ??_7Archive@Ogre@@6B@
	mov	ecx, DWORD PTR _this$[ebp]
	mov	edx, DWORD PTR ___that$[ebp]
	mov	eax, DWORD PTR [edx+4]
	mov	DWORD PTR [ecx+4], eax
	mov	ecx, DWORD PTR _this$[ebp]
	mov	edx, DWORD PTR ___that$[ebp]
	mov	eax, DWORD PTR [edx+8]
	mov	DWORD PTR [ecx+8], eax
	mov	eax, DWORD PTR _this$[ebp]
	mov	esp, ebp
	pop	ebp
	ret	4
??0Archive@Ogre@@QAE@ABV01@@Z ENDP			; Ogre::Archive::Archive
_TEXT	ENDS
PUBLIC	??4Archive@Ogre@@QAEAAV01@ABV01@@Z		; Ogre::Archive::operator=
; Function compile flags: /Odtp
;	COMDAT ??4Archive@Ogre@@QAEAAV01@ABV01@@Z
_TEXT	SEGMENT
_this$ = -4						; size = 4
___that$ = 8						; size = 4
??4Archive@Ogre@@QAEAAV01@ABV01@@Z PROC			; Ogre::Archive::operator=, COMDAT
; _this$ = ecx
	push	ebp
	mov	ebp, esp
	push	ecx
	mov	DWORD PTR _this$[ebp], ecx
	mov	eax, DWORD PTR _this$[ebp]
	mov	ecx, DWORD PTR ___that$[ebp]
	mov	edx, DWORD PTR [ecx+4]
	mov	DWORD PTR [eax+4], edx
	mov	eax, DWORD PTR _this$[ebp]
	mov	ecx, DWORD PTR ___that$[ebp]
	mov	edx, DWORD PTR [ecx+8]
	mov	DWORD PTR [eax+8], edx
	mov	eax, DWORD PTR _this$[ebp]
	mov	esp, ebp
	pop	ebp
	ret	4
??4Archive@Ogre@@QAEAAV01@ABV01@@Z ENDP			; Ogre::Archive::operator=
_TEXT	ENDS
PUBLIC	??_GArchive@Ogre@@UAEPAXI@Z			; Ogre::Archive::`scalar deleting destructor'
; Function compile flags: /Odtp
;	COMDAT ??_GArchive@Ogre@@UAEPAXI@Z
_TEXT	SEGMENT
_this$ = -4						; size = 4
___flags$ = 8						; size = 4
??_GArchive@Ogre@@UAEPAXI@Z PROC			; Ogre::Archive::`scalar deleting destructor', COMDAT
; _this$ = ecx
	push	ebp
	mov	ebp, esp
	push	ecx
	mov	DWORD PTR _this$[ebp], ecx
	mov	ecx, DWORD PTR _this$[ebp]
	call	??1Archive@Ogre@@UAE@XZ			; Ogre::Archive::~Archive
	mov	eax, DWORD PTR ___flags$[ebp]
	and	eax, 1
	je	SHORT $LN1@scalar@9
	mov	ecx, DWORD PTR _this$[ebp]
	push	ecx
	call	??3@YAXPAX@Z				; operator delete
	add	esp, 4
$LN1@scalar@9:
	mov	eax, DWORD PTR _this$[ebp]
	mov	esp, ebp
	pop	ebp
	ret	4
??_GArchive@Ogre@@UAEPAXI@Z ENDP			; Ogre::Archive::`scalar deleting destructor'
; Function compile flags: /Odtp
_TEXT	ENDS
;	COMDAT ??_EArchive@Ogre@@UAEPAXI@Z
_TEXT	SEGMENT
_this$ = -4						; size = 4
___flags$ = 8						; size = 4
??_EArchive@Ogre@@UAEPAXI@Z PROC			; Ogre::Archive::`vector deleting destructor', COMDAT
; _this$ = ecx
	push	ebp
	mov	ebp, esp
	push	ecx
	mov	DWORD PTR _this$[ebp], ecx
	mov	eax, DWORD PTR ___flags$[ebp]
	and	eax, 2
	je	SHORT $LN3@vector@9
	push	OFFSET ??1Archive@Ogre@@UAE@XZ		; Ogre::Archive::~Archive
	mov	ecx, DWORD PTR _this$[ebp]
	mov	edx, DWORD PTR [ecx-4]
	push	edx
	push	12					; 0000000cH
	mov	eax, DWORD PTR _this$[ebp]
	push	eax
	call	??_M@YGXPAXIHP6EX0@Z@Z
	mov	ecx, DWORD PTR ___flags$[ebp]
	and	ecx, 1
	je	SHORT $LN2@vector@9
	mov	edx, DWORD PTR _this$[ebp]
	sub	edx, 4
	push	edx
	call	??_V@YAXPAX@Z				; operator delete[]
	add	esp, 4
$LN2@vector@9:
	mov	eax, DWORD PTR _this$[ebp]
	sub	eax, 4
	jmp	SHORT $LN4@vector@9
$LN3@vector@9:
	mov	ecx, DWORD PTR _this$[ebp]
	call	??1Archive@Ogre@@UAE@XZ			; Ogre::Archive::~Archive
	mov	eax, DWORD PTR ___flags$[ebp]
	and	eax, 1
	je	SHORT $LN1@vector@9
	mov	ecx, DWORD PTR _this$[ebp]
	push	ecx
	call	??3@YAXPAX@Z				; operator delete
	add	esp, 4
$LN1@vector@9:
	mov	eax, DWORD PTR _this$[ebp]
$LN4@vector@9:
	mov	esp, ebp
	pop	ebp
	ret	4
??_EArchive@Ogre@@UAEPAXI@Z ENDP			; Ogre::Archive::`vector deleting destructor'
_TEXT	ENDS
PUBLIC	??0Vector3@Ogre@@QAE@XZ				; Ogre::Vector3::Vector3
; Function compile flags: /Odtp
; File i:\svnroot\client\ogremain\ogrevector3.h
;	COMDAT ??0Vector3@Ogre@@QAE@XZ
_TEXT	SEGMENT
_this$ = -4						; size = 4
??0Vector3@Ogre@@QAE@XZ PROC				; Ogre::Vector3::Vector3, COMDAT
; _this$ = ecx

; 49   : 		Vector3(){}

	push	ebp
	mov	ebp, esp
	push	ecx
	mov	DWORD PTR _this$[ebp], ecx
	mov	eax, DWORD PTR _this$[ebp]
	mov	esp, ebp
	pop	ebp
	ret	0
??0Vector3@Ogre@@QAE@XZ ENDP				; Ogre::Vector3::Vector3
_TEXT	ENDS
PUBLIC	??0Vector3@Ogre@@QAE@ABV01@@Z			; Ogre::Vector3::Vector3
EXTRN	__fltused:DWORD
; Function compile flags: /Odtp
;	COMDAT ??0Vector3@Ogre@@QAE@ABV01@@Z
_TEXT	SEGMENT
_this$ = -4						; size = 4
_rhs$ = 8						; size = 4
??0Vector3@Ogre@@QAE@ABV01@@Z PROC			; Ogre::Vector3::Vector3, COMDAT
; _this$ = ecx

; 50   : 		Vector3(const Vector3 &rhs)

	push	ebp
	mov	ebp, esp
	push	ecx
	mov	DWORD PTR _this$[ebp], ecx

; 51   : 		{
; 52   : 			x = rhs.x;

	mov	eax, DWORD PTR _this$[ebp]
	mov	ecx, DWORD PTR _rhs$[ebp]
	fld	DWORD PTR [ecx]
	fstp	DWORD PTR [eax]

; 53   : 			y = rhs.y;

	mov	edx, DWORD PTR _this$[ebp]
	mov	eax, DWORD PTR _rhs$[ebp]
	fld	DWORD PTR [eax+4]
	fstp	DWORD PTR [edx+4]

; 54   : 			z = rhs.z;

	mov	ecx, DWORD PTR _this$[ebp]
	mov	edx, DWORD PTR _rhs$[ebp]
	fld	DWORD PTR [edx+8]
	fstp	DWORD PTR [ecx+8]

; 55   : 		}

	mov	eax, DWORD PTR _this$[ebp]
	mov	esp, ebp
	pop	ebp
	ret	4
??0Vector3@Ogre@@QAE@ABV01@@Z ENDP			; Ogre::Vector3::Vector3
_TEXT	ENDS
PUBLIC	??0Vector3@Ogre@@QAE@MMM@Z			; Ogre::Vector3::Vector3
; Function compile flags: /Odtp
;	COMDAT ??0Vector3@Ogre@@QAE@MMM@Z
_TEXT	SEGMENT
_this$ = -4						; size = 4
_x1$ = 8						; size = 4
_y1$ = 12						; size = 4
_z1$ = 16						; size = 4
??0Vector3@Ogre@@QAE@MMM@Z PROC				; Ogre::Vector3::Vector3, COMDAT
; _this$ = ecx

; 56   : 		Vector3( float x1, float y1, float z1 ) : x(x1), y(y1), z(z1){}

	push	ebp
	mov	ebp, esp
	push	ecx
	mov	DWORD PTR _this$[ebp], ecx
	mov	eax, DWORD PTR _this$[ebp]
	fld	DWORD PTR _x1$[ebp]
	fstp	DWORD PTR [eax]
	mov	ecx, DWORD PTR _this$[ebp]
	fld	DWORD PTR _y1$[ebp]
	fstp	DWORD PTR [ecx+4]
	mov	edx, DWORD PTR _this$[ebp]
	fld	DWORD PTR _z1$[ebp]
	fstp	DWORD PTR [edx+8]
	mov	eax, DWORD PTR _this$[ebp]
	mov	esp, ebp
	pop	ebp
	ret	12					; 0000000cH
??0Vector3@Ogre@@QAE@MMM@Z ENDP				; Ogre::Vector3::Vector3
_TEXT	ENDS
PUBLIC	??0Vector3@Ogre@@QAE@M@Z			; Ogre::Vector3::Vector3
; Function compile flags: /Odtp
;	COMDAT ??0Vector3@Ogre@@QAE@M@Z
_TEXT	SEGMENT
_this$ = -4						; size = 4
_v$ = 8							; size = 4
??0Vector3@Ogre@@QAE@M@Z PROC				; Ogre::Vector3::Vector3, COMDAT
; _this$ = ecx

; 57   : 		Vector3(float v) : x(v), y(v), z(v){}

	push	ebp
	mov	ebp, esp
	push	ecx
	mov	DWORD PTR _this$[ebp], ecx
	mov	eax, DWORD PTR _this$[ebp]
	fld	DWORD PTR _v$[ebp]
	fstp	DWORD PTR [eax]
	mov	ecx, DWORD PTR _this$[ebp]
	fld	DWORD PTR _v$[ebp]
	fstp	DWORD PTR [ecx+4]
	mov	edx, DWORD PTR _this$[ebp]
	fld	DWORD PTR _v$[ebp]
	fstp	DWORD PTR [edx+8]
	mov	eax, DWORD PTR _this$[ebp]
	mov	esp, ebp
	pop	ebp
	ret	4
??0Vector3@Ogre@@QAE@M@Z ENDP				; Ogre::Vector3::Vector3
_TEXT	ENDS
PUBLIC	??0Vector3@Ogre@@QAE@PAM@Z			; Ogre::Vector3::Vector3
; Function compile flags: /Odtp
;	COMDAT ??0Vector3@Ogre@@QAE@PAM@Z
_TEXT	SEGMENT
_this$ = -4						; size = 4
_v$ = 8							; size = 4
??0Vector3@Ogre@@QAE@PAM@Z PROC				; Ogre::Vector3::Vector3, COMDAT
; _this$ = ecx

; 58   : 		Vector3(float* v) : x(v[0]), y(v[1]), z(v[2]){}

	push	ebp
	mov	ebp, esp
	push	ecx
	mov	DWORD PTR _this$[ebp], ecx
	mov	eax, DWORD PTR _this$[ebp]
	mov	ecx, DWORD PTR _v$[ebp]
	fld	DWORD PTR [ecx]
	fstp	DWORD PTR [eax]
	mov	edx, DWORD PTR _this$[ebp]
	mov	eax, DWORD PTR _v$[ebp]
	fld	DWORD PTR [eax+4]
	fstp	DWORD PTR [edx+4]
	mov	ecx, DWORD PTR _this$[ebp]
	mov	edx, DWORD PTR _v$[ebp]
	fld	DWORD PTR [edx+8]
	fstp	DWORD PTR [ecx+8]
	mov	eax, DWORD PTR _this$[ebp]
	mov	esp, ebp
	pop	ebp
	ret	4
??0Vector3@Ogre@@QAE@PAM@Z ENDP				; Ogre::Vector3::Vector3
_TEXT	ENDS
PUBLIC	??4Vector3@Ogre@@QAEABV01@ABV01@@Z		; Ogre::Vector3::operator=
; Function compile flags: /Odtp
;	COMDAT ??4Vector3@Ogre@@QAEABV01@ABV01@@Z
_TEXT	SEGMENT
_this$ = -4						; size = 4
_vec$ = 8						; size = 4
??4Vector3@Ogre@@QAEABV01@ABV01@@Z PROC			; Ogre::Vector3::operator=, COMDAT
; _this$ = ecx

; 61   : 		{

	push	ebp
	mov	ebp, esp
	push	ecx
	mov	DWORD PTR _this$[ebp], ecx

; 62   : 			x = vec.x;

	mov	eax, DWORD PTR _this$[ebp]
	mov	ecx, DWORD PTR _vec$[ebp]
	fld	DWORD PTR [ecx]
	fstp	DWORD PTR [eax]

; 63   : 			y = vec.y;

	mov	edx, DWORD PTR _this$[ebp]
	mov	eax, DWORD PTR _vec$[ebp]
	fld	DWORD PTR [eax+4]
	fstp	DWORD PTR [edx+4]

; 64   : 			z = vec.z;

	mov	ecx, DWORD PTR _this$[ebp]
	mov	edx, DWORD PTR _vec$[ebp]
	fld	DWORD PTR [edx+8]
	fstp	DWORD PTR [ecx+8]

; 65   : 			return *this;

	mov	eax, DWORD PTR _this$[ebp]

; 66   : 		}

	mov	esp, ebp
	pop	ebp
	ret	4
??4Vector3@Ogre@@QAEABV01@ABV01@@Z ENDP			; Ogre::Vector3::operator=
_TEXT	ENDS
PUBLIC	??YVector3@Ogre@@QAEXABV01@@Z			; Ogre::Vector3::operator+=
; Function compile flags: /Odtp
;	COMDAT ??YVector3@Ogre@@QAEXABV01@@Z
_TEXT	SEGMENT
_this$ = -4						; size = 4
_vec$ = 8						; size = 4
??YVector3@Ogre@@QAEXABV01@@Z PROC			; Ogre::Vector3::operator+=, COMDAT
; _this$ = ecx

; 68   : 		{

	push	ebp
	mov	ebp, esp
	push	ecx
	mov	DWORD PTR _this$[ebp], ecx

; 69   : 			x += vec.x;

	mov	eax, DWORD PTR _this$[ebp]
	fld	DWORD PTR [eax]
	mov	ecx, DWORD PTR _vec$[ebp]
	fadd	DWORD PTR [ecx]
	mov	edx, DWORD PTR _this$[ebp]
	fstp	DWORD PTR [edx]

; 70   : 			y += vec.y;

	mov	eax, DWORD PTR _this$[ebp]
	fld	DWORD PTR [eax+4]
	mov	ecx, DWORD PTR _vec$[ebp]
	fadd	DWORD PTR [ecx+4]
	mov	edx, DWORD PTR _this$[ebp]
	fstp	DWORD PTR [edx+4]

; 71   : 			z += vec.z;

	mov	eax, DWORD PTR _this$[ebp]
	fld	DWORD PTR [eax+8]
	mov	ecx, DWORD PTR _vec$[ebp]
	fadd	DWORD PTR [ecx+8]
	mov	edx, DWORD PTR _this$[ebp]
	fstp	DWORD PTR [edx+8]

; 72   : 		}

	mov	esp, ebp
	pop	ebp
	ret	4
??YVector3@Ogre@@QAEXABV01@@Z ENDP			; Ogre::Vector3::operator+=
_TEXT	ENDS
PUBLIC	??ZVector3@Ogre@@QAEXABV01@@Z			; Ogre::Vector3::operator-=
; Function compile flags: /Odtp
;	COMDAT ??ZVector3@Ogre@@QAEXABV01@@Z
_TEXT	SEGMENT
_this$ = -4						; size = 4
_vec$ = 8						; size = 4
??ZVector3@Ogre@@QAEXABV01@@Z PROC			; Ogre::Vector3::operator-=, COMDAT
; _this$ = ecx

; 74   : 		{

	push	ebp
	mov	ebp, esp
	push	ecx
	mov	DWORD PTR _this$[ebp], ecx

; 75   : 			x -= vec.x;

	mov	eax, DWORD PTR _this$[ebp]
	fld	DWORD PTR [eax]
	mov	ecx, DWORD PTR _vec$[ebp]
	fsub	DWORD PTR [ecx]
	mov	edx, DWORD PTR _this$[ebp]
	fstp	DWORD PTR [edx]

; 76   : 			y -= vec.y;

	mov	eax, DWORD PTR _this$[ebp]
	fld	DWORD PTR [eax+4]
	mov	ecx, DWORD PTR _vec$[ebp]
	fsub	DWORD PTR [ecx+4]
	mov	edx, DWORD PTR _this$[ebp]
	fstp	DWORD PTR [edx+4]

; 77   : 			z -= vec.z;

	mov	eax, DWORD PTR _this$[ebp]
	fld	DWORD PTR [eax+8]
	mov	ecx, DWORD PTR _vec$[ebp]
	fsub	DWORD PTR [ecx+8]
	mov	edx, DWORD PTR _this$[ebp]
	fstp	DWORD PTR [edx+8]

; 78   : 		}

	mov	esp, ebp
	pop	ebp
	ret	4
??ZVector3@Ogre@@QAEXABV01@@Z ENDP			; Ogre::Vector3::operator-=
_TEXT	ENDS
PUBLIC	??XVector3@Ogre@@QAEXM@Z			; Ogre::Vector3::operator*=
; Function compile flags: /Odtp
;	COMDAT ??XVector3@Ogre@@QAEXM@Z
_TEXT	SEGMENT
_this$ = -4						; size = 4
_s$ = 8							; size = 4
??XVector3@Ogre@@QAEXM@Z PROC				; Ogre::Vector3::operator*=, COMDAT
; _this$ = ecx

; 81   : 		{

	push	ebp
	mov	ebp, esp
	push	ecx
	mov	DWORD PTR _this$[ebp], ecx

; 82   : 			x *= s;

	mov	eax, DWORD PTR _this$[ebp]
	fld	DWORD PTR [eax]
	fmul	DWORD PTR _s$[ebp]
	mov	ecx, DWORD PTR _this$[ebp]
	fstp	DWORD PTR [ecx]

; 83   : 			y *= s;

	mov	edx, DWORD PTR _this$[ebp]
	fld	DWORD PTR [edx+4]
	fmul	DWORD PTR _s$[ebp]
	mov	eax, DWORD PTR _this$[ebp]
	fstp	DWORD PTR [eax+4]

; 84   : 			z *= s;

	mov	ecx, DWORD PTR _this$[ebp]
	fld	DWORD PTR [ecx+8]
	fmul	DWORD PTR _s$[ebp]
	mov	edx, DWORD PTR _this$[ebp]
	fstp	DWORD PTR [edx+8]

; 85   : 		}

	mov	esp, ebp
	pop	ebp
	ret	4
??XVector3@Ogre@@QAEXM@Z ENDP				; Ogre::Vector3::operator*=
_TEXT	ENDS
PUBLIC	??XVector3@Ogre@@QAEXABV01@@Z			; Ogre::Vector3::operator*=
; Function compile flags: /Odtp
;	COMDAT ??XVector3@Ogre@@QAEXABV01@@Z
_TEXT	SEGMENT
_this$ = -4						; size = 4
_vec$ = 8						; size = 4
??XVector3@Ogre@@QAEXABV01@@Z PROC			; Ogre::Vector3::operator*=, COMDAT
; _this$ = ecx

; 88   : 		{

	push	ebp
	mov	ebp, esp
	push	ecx
	mov	DWORD PTR _this$[ebp], ecx

; 89   : 			x *= vec.x;

	mov	eax, DWORD PTR _this$[ebp]
	fld	DWORD PTR [eax]
	mov	ecx, DWORD PTR _vec$[ebp]
	fmul	DWORD PTR [ecx]
	mov	edx, DWORD PTR _this$[ebp]
	fstp	DWORD PTR [edx]

; 90   : 			y *= vec.y;

	mov	eax, DWORD PTR _this$[ebp]
	fld	DWORD PTR [eax+4]
	mov	ecx, DWORD PTR _vec$[ebp]
	fmul	DWORD PTR [ecx+4]
	mov	edx, DWORD PTR _this$[ebp]
	fstp	DWORD PTR [edx+4]

; 91   : 			z *= vec.z;

	mov	eax, DWORD PTR _this$[ebp]
	fld	DWORD PTR [eax+8]
	mov	ecx, DWORD PTR _vec$[ebp]
	fmul	DWORD PTR [ecx+8]
	mov	edx, DWORD PTR _this$[ebp]
	fstp	DWORD PTR [edx+8]

; 92   : 		}

	mov	esp, ebp
	pop	ebp
	ret	4
??XVector3@Ogre@@QAEXABV01@@Z ENDP			; Ogre::Vector3::operator*=
_TEXT	ENDS
PUBLIC	??_0Vector3@Ogre@@QAEXM@Z			; Ogre::Vector3::operator/=
; Function compile flags: /Odtp
;	COMDAT ??_0Vector3@Ogre@@QAEXM@Z
_TEXT	SEGMENT
_this$ = -4						; size = 4
_s$ = 8							; size = 4
??_0Vector3@Ogre@@QAEXM@Z PROC				; Ogre::Vector3::operator/=, COMDAT
; _this$ = ecx

; 95   : 		{

	push	ebp
	mov	ebp, esp
	push	ecx
	mov	DWORD PTR _this$[ebp], ecx

; 96   : 			x /= s;

	mov	eax, DWORD PTR _this$[ebp]
	fld	DWORD PTR [eax]
	fdiv	DWORD PTR _s$[ebp]
	mov	ecx, DWORD PTR _this$[ebp]
	fstp	DWORD PTR [ecx]

; 97   : 			y /= s;

	mov	edx, DWORD PTR _this$[ebp]
	fld	DWORD PTR [edx+4]
	fdiv	DWORD PTR _s$[ebp]
	mov	eax, DWORD PTR _this$[ebp]
	fstp	DWORD PTR [eax+4]

; 98   : 			z /= s;

	mov	ecx, DWORD PTR _this$[ebp]
	fld	DWORD PTR [ecx+8]
	fdiv	DWORD PTR _s$[ebp]
	mov	edx, DWORD PTR _this$[ebp]
	fstp	DWORD PTR [edx+8]

; 99   : 		}

	mov	esp, ebp
	pop	ebp
	ret	4
??_0Vector3@Ogre@@QAEXM@Z ENDP				; Ogre::Vector3::operator/=
_TEXT	ENDS
PUBLIC	??BVector3@Ogre@@QAEPAMXZ			; Ogre::Vector3::operator float *
; Function compile flags: /Odtp
;	COMDAT ??BVector3@Ogre@@QAEPAMXZ
_TEXT	SEGMENT
_this$ = -4						; size = 4
??BVector3@Ogre@@QAEPAMXZ PROC				; Ogre::Vector3::operator float *, COMDAT
; _this$ = ecx

; 101  : 		{

	push	ebp
	mov	ebp, esp
	push	ecx
	mov	DWORD PTR _this$[ebp], ecx

; 102  : 			return &x;

	mov	eax, DWORD PTR _this$[ebp]

; 103  : 		}

	mov	esp, ebp
	pop	ebp
	ret	0
??BVector3@Ogre@@QAEPAMXZ ENDP				; Ogre::Vector3::operator float *
_TEXT	ENDS
PUBLIC	??BVector3@Ogre@@QBEPBMXZ			; Ogre::Vector3::operator float const *
; Function compile flags: /Odtp
;	COMDAT ??BVector3@Ogre@@QBEPBMXZ
_TEXT	SEGMENT
_this$ = -4						; size = 4
??BVector3@Ogre@@QBEPBMXZ PROC				; Ogre::Vector3::operator float const *, COMDAT
; _this$ = ecx

; 105  : 		{

	push	ebp
	mov	ebp, esp
	push	ecx
	mov	DWORD PTR _this$[ebp], ecx

; 106  : 			return &x;

	mov	eax, DWORD PTR _this$[ebp]

; 107  : 		}

	mov	esp, ebp
	pop	ebp
	ret	0
??BVector3@Ogre@@QBEPBMXZ ENDP				; Ogre::Vector3::operator float const *
_TEXT	ENDS
PUBLIC	??HVector3@Ogre@@QBE?AV01@XZ			; Ogre::Vector3::operator+
; Function compile flags: /Odtp
;	COMDAT ??HVector3@Ogre@@QBE?AV01@XZ
_TEXT	SEGMENT
_this$ = -4						; size = 4
___$ReturnUdt$ = 8					; size = 4
??HVector3@Ogre@@QBE?AV01@XZ PROC			; Ogre::Vector3::operator+, COMDAT
; _this$ = ecx

; 109  : 		{

	push	ebp
	mov	ebp, esp
	push	ecx
	mov	DWORD PTR _this$[ebp], ecx

; 110  : 			return *this;

	mov	eax, DWORD PTR _this$[ebp]
	push	eax
	mov	ecx, DWORD PTR ___$ReturnUdt$[ebp]
	call	??0Vector3@Ogre@@QAE@ABV01@@Z		; Ogre::Vector3::Vector3
	mov	eax, DWORD PTR ___$ReturnUdt$[ebp]

; 111  : 		}

	mov	esp, ebp
	pop	ebp
	ret	4
??HVector3@Ogre@@QBE?AV01@XZ ENDP			; Ogre::Vector3::operator+
_TEXT	ENDS
PUBLIC	??GVector3@Ogre@@QBE?AV01@XZ			; Ogre::Vector3::operator-
; Function compile flags: /Odtp
;	COMDAT ??GVector3@Ogre@@QBE?AV01@XZ
_TEXT	SEGMENT
_this$ = -4						; size = 4
___$ReturnUdt$ = 8					; size = 4
??GVector3@Ogre@@QBE?AV01@XZ PROC			; Ogre::Vector3::operator-, COMDAT
; _this$ = ecx

; 113  : 		{

	push	ebp
	mov	ebp, esp
	push	ecx
	mov	DWORD PTR _this$[ebp], ecx

; 114  : 			return Vector3(-x, -y, -z);

	mov	eax, DWORD PTR _this$[ebp]
	fld	DWORD PTR [eax+8]
	fchs
	push	ecx
	fstp	DWORD PTR [esp]
	mov	ecx, DWORD PTR _this$[ebp]
	fld	DWORD PTR [ecx+4]
	fchs
	push	ecx
	fstp	DWORD PTR [esp]
	mov	edx, DWORD PTR _this$[ebp]
	fld	DWORD PTR [edx]
	fchs
	push	ecx
	fstp	DWORD PTR [esp]
	mov	ecx, DWORD PTR ___$ReturnUdt$[ebp]
	call	??0Vector3@Ogre@@QAE@MMM@Z		; Ogre::Vector3::Vector3
	mov	eax, DWORD PTR ___$ReturnUdt$[ebp]

; 115  : 		}

	mov	esp, ebp
	pop	ebp
	ret	4
??GVector3@Ogre@@QBE?AV01@XZ ENDP			; Ogre::Vector3::operator-
_TEXT	ENDS
PUBLIC	??8Vector3@Ogre@@QBE_NABV01@@Z			; Ogre::Vector3::operator==
; Function compile flags: /Odtp
;	COMDAT ??8Vector3@Ogre@@QBE_NABV01@@Z
_TEXT	SEGMENT
tv77 = -8						; size = 4
_this$ = -4						; size = 4
_vec$ = 8						; size = 4
??8Vector3@Ogre@@QBE_NABV01@@Z PROC			; Ogre::Vector3::operator==, COMDAT
; _this$ = ecx

; 117  : 		{

	push	ebp
	mov	ebp, esp
	sub	esp, 8
	mov	DWORD PTR _this$[ebp], ecx

; 118  : 			return (x==vec.x && y==vec.y && z==vec.z);

	mov	eax, DWORD PTR _this$[ebp]
	fld	DWORD PTR [eax]
	mov	ecx, DWORD PTR _vec$[ebp]
	fld	DWORD PTR [ecx]
	fucompp
	fnstsw	ax
	test	ah, 68					; 00000044H
	jp	SHORT $LN3@operator
	mov	edx, DWORD PTR _this$[ebp]
	fld	DWORD PTR [edx+4]
	mov	eax, DWORD PTR _vec$[ebp]
	fld	DWORD PTR [eax+4]
	fucompp
	fnstsw	ax
	test	ah, 68					; 00000044H
	jp	SHORT $LN3@operator
	mov	ecx, DWORD PTR _this$[ebp]
	fld	DWORD PTR [ecx+8]
	mov	edx, DWORD PTR _vec$[ebp]
	fld	DWORD PTR [edx+8]
	fucompp
	fnstsw	ax
	test	ah, 68					; 00000044H
	jp	SHORT $LN3@operator
	mov	DWORD PTR tv77[ebp], 1
	jmp	SHORT $LN4@operator
$LN3@operator:
	mov	DWORD PTR tv77[ebp], 0
$LN4@operator:
	mov	al, BYTE PTR tv77[ebp]

; 119  : 		}

	mov	esp, ebp
	pop	ebp
	ret	4
??8Vector3@Ogre@@QBE_NABV01@@Z ENDP			; Ogre::Vector3::operator==
_TEXT	ENDS
PUBLIC	?setElement@Vector3@Ogre@@QAEXMMM@Z		; Ogre::Vector3::setElement
; Function compile flags: /Odtp
;	COMDAT ?setElement@Vector3@Ogre@@QAEXMMM@Z
_TEXT	SEGMENT
_this$ = -4						; size = 4
_x1$ = 8						; size = 4
_y1$ = 12						; size = 4
_z1$ = 16						; size = 4
?setElement@Vector3@Ogre@@QAEXMMM@Z PROC		; Ogre::Vector3::setElement, COMDAT
; _this$ = ecx

; 121  : 		{

	push	ebp
	mov	ebp, esp
	push	ecx
	mov	DWORD PTR _this$[ebp], ecx

; 122  : 			x = x1;

	mov	eax, DWORD PTR _this$[ebp]
	fld	DWORD PTR _x1$[ebp]
	fstp	DWORD PTR [eax]

; 123  : 			y = y1;

	mov	ecx, DWORD PTR _this$[ebp]
	fld	DWORD PTR _y1$[ebp]
	fstp	DWORD PTR [ecx+4]

; 124  : 			z = z1;

	mov	edx, DWORD PTR _this$[ebp]
	fld	DWORD PTR _z1$[ebp]
	fstp	DWORD PTR [edx+8]

; 125  : 		}

	mov	esp, ebp
	pop	ebp
	ret	12					; 0000000cH
?setElement@Vector3@Ogre@@QAEXMMM@Z ENDP		; Ogre::Vector3::setElement
_TEXT	ENDS
PUBLIC	?setElement@Vector3@Ogre@@QAEXPAM@Z		; Ogre::Vector3::setElement
; Function compile flags: /Odtp
;	COMDAT ?setElement@Vector3@Ogre@@QAEXPAM@Z
_TEXT	SEGMENT
_this$ = -4						; size = 4
_p$ = 8							; size = 4
?setElement@Vector3@Ogre@@QAEXPAM@Z PROC		; Ogre::Vector3::setElement, COMDAT
; _this$ = ecx

; 127  : 		{

	push	ebp
	mov	ebp, esp
	push	ecx
	mov	DWORD PTR _this$[ebp], ecx

; 128  : 			x = p[0];

	mov	eax, DWORD PTR _this$[ebp]
	mov	ecx, DWORD PTR _p$[ebp]
	fld	DWORD PTR [ecx]
	fstp	DWORD PTR [eax]

; 129  : 			y = p[1];

	mov	edx, DWORD PTR _this$[ebp]
	mov	eax, DWORD PTR _p$[ebp]
	fld	DWORD PTR [eax+4]
	fstp	DWORD PTR [edx+4]

; 130  : 			z = p[2];

	mov	ecx, DWORD PTR _this$[ebp]
	mov	edx, DWORD PTR _p$[ebp]
	fld	DWORD PTR [edx+8]
	fstp	DWORD PTR [ecx+8]

; 131  : 		}

	mov	esp, ebp
	pop	ebp
	ret	4
?setElement@Vector3@Ogre@@QAEXPAM@Z ENDP		; Ogre::Vector3::setElement
_TEXT	ENDS
PUBLIC	?Sqrt@Ogre@@YAMM@Z				; Ogre::Sqrt
PUBLIC	?length@Vector3@Ogre@@QBEMXZ			; Ogre::Vector3::length
; Function compile flags: /Odtp
;	COMDAT ?length@Vector3@Ogre@@QBEMXZ
_TEXT	SEGMENT
tv88 = -8						; size = 4
_this$ = -4						; size = 4
?length@Vector3@Ogre@@QBEMXZ PROC			; Ogre::Vector3::length, COMDAT
; _this$ = ecx

; 133  : 		{

	push	ebp
	mov	ebp, esp
	sub	esp, 8
	mov	DWORD PTR _this$[ebp], ecx

; 134  : 			return (float)Sqrt(x*x+y*y+z*z);

	mov	eax, DWORD PTR _this$[ebp]
	fld	DWORD PTR [eax]
	mov	ecx, DWORD PTR _this$[ebp]
	fmul	DWORD PTR [ecx]
	mov	edx, DWORD PTR _this$[ebp]
	fld	DWORD PTR [edx+4]
	mov	eax, DWORD PTR _this$[ebp]
	fmul	DWORD PTR [eax+4]
	faddp	ST(1), ST(0)
	mov	ecx, DWORD PTR _this$[ebp]
	fld	DWORD PTR [ecx+8]
	mov	edx, DWORD PTR _this$[ebp]
	fmul	DWORD PTR [edx+8]
	faddp	ST(1), ST(0)
	fstp	DWORD PTR tv88[ebp]
	fld	DWORD PTR tv88[ebp]
	push	ecx
	fstp	DWORD PTR [esp]
	call	?Sqrt@Ogre@@YAMM@Z			; Ogre::Sqrt
	add	esp, 4

; 135  : 		}

	mov	esp, ebp
	pop	ebp
	ret	0
?length@Vector3@Ogre@@QBEMXZ ENDP			; Ogre::Vector3::length
_TEXT	ENDS
PUBLIC	?sqrt@@YAMM@Z					; sqrt
; Function compile flags: /Odtp
; File i:\svnroot\client\ogremain\ogremath.h
;	COMDAT ?Sqrt@Ogre@@YAMM@Z
_TEXT	SEGMENT
_x$ = 8							; size = 4
?Sqrt@Ogre@@YAMM@Z PROC					; Ogre::Sqrt, COMDAT

; 59   : 	{

	push	ebp
	mov	ebp, esp

; 60   : 		return (float)sqrt(x);

	push	ecx
	fld	DWORD PTR _x$[ebp]
	fstp	DWORD PTR [esp]
	call	?sqrt@@YAMM@Z				; sqrt
	add	esp, 4

; 61   : 	}

	pop	ebp
	ret	0
?Sqrt@Ogre@@YAMM@Z ENDP					; Ogre::Sqrt
_TEXT	ENDS
PUBLIC	_sqrtf
; Function compile flags: /Odtp
; File d:\program files (x86)\microsoft visual studio 9.0\vc\include\math.h
;	COMDAT ?sqrt@@YAMM@Z
_TEXT	SEGMENT
__X$ = 8						; size = 4
?sqrt@@YAMM@Z PROC					; sqrt, COMDAT

; 534  :         {return (sqrtf(_X)); }

	push	ebp
	mov	ebp, esp
	push	ecx
	fld	DWORD PTR __X$[ebp]
	fstp	DWORD PTR [esp]
	call	_sqrtf
	add	esp, 4
	pop	ebp
	ret	0
?sqrt@@YAMM@Z ENDP					; sqrt
_TEXT	ENDS
EXTRN	_sqrt:PROC
; Function compile flags: /Odtp
;	COMDAT _sqrtf
_TEXT	SEGMENT
tv73 = -4						; size = 4
__X$ = 8						; size = 4
_sqrtf	PROC						; COMDAT

; 423  :         {return ((float)sqrt((double)_X)); }

	push	ebp
	mov	ebp, esp
	push	ecx
	fld	DWORD PTR __X$[ebp]
	sub	esp, 8
	fstp	QWORD PTR [esp]
	call	_sqrt
	add	esp, 8
	fstp	DWORD PTR tv73[ebp]
	fld	DWORD PTR tv73[ebp]
	mov	esp, ebp
	pop	ebp
	ret	0
_sqrtf	ENDP
_TEXT	ENDS
PUBLIC	?lengthSqr@Vector3@Ogre@@QBEMXZ			; Ogre::Vector3::lengthSqr
; Function compile flags: /Odtp
; File i:\svnroot\client\ogremain\ogrevector3.h
;	COMDAT ?lengthSqr@Vector3@Ogre@@QBEMXZ
_TEXT	SEGMENT
tv88 = -8						; size = 4
_this$ = -4						; size = 4
?lengthSqr@Vector3@Ogre@@QBEMXZ PROC			; Ogre::Vector3::lengthSqr, COMDAT
; _this$ = ecx

; 137  : 		{

	push	ebp
	mov	ebp, esp
	sub	esp, 8
	mov	DWORD PTR _this$[ebp], ecx

; 138  : 			return (x*x+y*y+z*z);

	mov	eax, DWORD PTR _this$[ebp]
	fld	DWORD PTR [eax]
	mov	ecx, DWORD PTR _this$[ebp]
	fmul	DWORD PTR [ecx]
	mov	edx, DWORD PTR _this$[ebp]
	fld	DWORD PTR [edx+4]
	mov	eax, DWORD PTR _this$[ebp]
	fmul	DWORD PTR [eax+4]
	faddp	ST(1), ST(0)
	mov	ecx, DWORD PTR _this$[ebp]
	fld	DWORD PTR [ecx+8]
	mov	edx, DWORD PTR _this$[ebp]
	fmul	DWORD PTR [edx+8]
	faddp	ST(1), ST(0)
	fstp	DWORD PTR tv88[ebp]
	fld	DWORD PTR tv88[ebp]

; 139  : 		}

	mov	esp, ebp
	pop	ebp
	ret	0
?lengthSqr@Vector3@Ogre@@QBEMXZ ENDP			; Ogre::Vector3::lengthSqr
_TEXT	ENDS
PUBLIC	?getRow3@Matrix3@Ogre@@QBE?AVVector3@2@I@Z	; Ogre::Matrix3::getRow3
; Function compile flags: /Odtp
; File i:\svnroot\client\ogremain\ogrematrix3.h
;	COMDAT ?getRow3@Matrix3@Ogre@@QBE?AVVector3@2@I@Z
_TEXT	SEGMENT
_this$ = -4						; size = 4
___$ReturnUdt$ = 8					; size = 4
_i$ = 12						; size = 4
?getRow3@Matrix3@Ogre@@QBE?AVVector3@2@I@Z PROC		; Ogre::Matrix3::getRow3, COMDAT
; _this$ = ecx

; 67   : 		{

	push	ebp
	mov	ebp, esp
	push	ecx
	mov	DWORD PTR _this$[ebp], ecx

; 68   : 			return Vector3(m[i][0], m[i][1], m[i][2]);

	mov	eax, DWORD PTR _i$[ebp]
	imul	eax, 12					; 0000000cH
	mov	ecx, DWORD PTR _this$[ebp]
	push	ecx
	fld	DWORD PTR [ecx+eax+8]
	fstp	DWORD PTR [esp]
	mov	edx, DWORD PTR _i$[ebp]
	imul	edx, 12					; 0000000cH
	mov	eax, DWORD PTR _this$[ebp]
	push	ecx
	fld	DWORD PTR [eax+edx+4]
	fstp	DWORD PTR [esp]
	mov	ecx, DWORD PTR _i$[ebp]
	imul	ecx, 12					; 0000000cH
	mov	edx, DWORD PTR _this$[ebp]
	push	ecx
	fld	DWORD PTR [edx+ecx]
	fstp	DWORD PTR [esp]
	mov	ecx, DWORD PTR ___$ReturnUdt$[ebp]
	call	??0Vector3@Ogre@@QAE@MMM@Z		; Ogre::Vector3::Vector3
	mov	eax, DWORD PTR ___$ReturnUdt$[ebp]

; 69   : 		}

	mov	esp, ebp
	pop	ebp
	ret	8
?getRow3@Matrix3@Ogre@@QBE?AVVector3@2@I@Z ENDP		; Ogre::Matrix3::getRow3
_TEXT	ENDS
PUBLIC	__real@00000000
PUBLIC	__real@3f800000
PUBLIC	?identity@Matrix3@Ogre@@QAEXXZ			; Ogre::Matrix3::identity
;	COMDAT __real@00000000
CONST	SEGMENT
__real@00000000 DD 000000000r			; 0
CONST	ENDS
;	COMDAT __real@3f800000
CONST	SEGMENT
__real@3f800000 DD 03f800000r			; 1
; Function compile flags: /Odtp
CONST	ENDS
;	COMDAT ?identity@Matrix3@Ogre@@QAEXXZ
_TEXT	SEGMENT
_this$ = -4						; size = 4
?identity@Matrix3@Ogre@@QAEXXZ PROC			; Ogre::Matrix3::identity, COMDAT
; _this$ = ecx

; 71   : 		{

	push	ebp
	mov	ebp, esp
	push	ecx
	mov	DWORD PTR _this$[ebp], ecx

; 72   : 			_11=1.0f, _12=0.0f, _13=0.0f;

	mov	eax, DWORD PTR _this$[ebp]
	fld1
	fstp	DWORD PTR [eax]
	mov	ecx, DWORD PTR _this$[ebp]
	fldz
	fstp	DWORD PTR [ecx+4]
	mov	edx, DWORD PTR _this$[ebp]
	fldz
	fstp	DWORD PTR [edx+8]

; 73   : 			_21=0.0f, _22=1.0f, _23=0.0f;

	mov	eax, DWORD PTR _this$[ebp]
	fldz
	fstp	DWORD PTR [eax+12]
	mov	ecx, DWORD PTR _this$[ebp]
	fld1
	fstp	DWORD PTR [ecx+16]
	mov	edx, DWORD PTR _this$[ebp]
	fldz
	fstp	DWORD PTR [edx+20]

; 74   : 			_31=0.0f, _32=0.0f, _33=1.0f;

	mov	eax, DWORD PTR _this$[ebp]
	fldz
	fstp	DWORD PTR [eax+24]
	mov	ecx, DWORD PTR _this$[ebp]
	fldz
	fstp	DWORD PTR [ecx+28]
	mov	edx, DWORD PTR _this$[ebp]
	fld1
	fstp	DWORD PTR [edx+32]

; 75   : 		}

	mov	esp, ebp
	pop	ebp
	ret	0
?identity@Matrix3@Ogre@@QAEXXZ ENDP			; Ogre::Matrix3::identity
_TEXT	ENDS
PUBLIC	?setRow@Matrix3@Ogre@@QAEXIMMM@Z		; Ogre::Matrix3::setRow
; Function compile flags: /Odtp
;	COMDAT ?setRow@Matrix3@Ogre@@QAEXIMMM@Z
_TEXT	SEGMENT
_this$ = -4						; size = 4
_i$ = 8							; size = 4
_x$ = 12						; size = 4
_y$ = 16						; size = 4
_z$ = 20						; size = 4
?setRow@Matrix3@Ogre@@QAEXIMMM@Z PROC			; Ogre::Matrix3::setRow, COMDAT
; _this$ = ecx

; 77   : 		{

	push	ebp
	mov	ebp, esp
	push	ecx
	mov	DWORD PTR _this$[ebp], ecx

; 78   : 			m[i][0] = x;

	mov	eax, DWORD PTR _i$[ebp]
	imul	eax, 12					; 0000000cH
	mov	ecx, DWORD PTR _this$[ebp]
	fld	DWORD PTR _x$[ebp]
	fstp	DWORD PTR [ecx+eax]

; 79   : 			m[i][1] = y;

	mov	edx, DWORD PTR _i$[ebp]
	imul	edx, 12					; 0000000cH
	mov	eax, DWORD PTR _this$[ebp]
	fld	DWORD PTR _y$[ebp]
	fstp	DWORD PTR [eax+edx+4]

; 80   : 			m[i][2] = z;

	mov	ecx, DWORD PTR _i$[ebp]
	imul	ecx, 12					; 0000000cH
	mov	edx, DWORD PTR _this$[ebp]
	fld	DWORD PTR _z$[ebp]
	fstp	DWORD PTR [edx+ecx+8]

; 81   : 		}

	mov	esp, ebp
	pop	ebp
	ret	16					; 00000010H
?setRow@Matrix3@Ogre@@QAEXIMMM@Z ENDP			; Ogre::Matrix3::setRow
_TEXT	ENDS
PUBLIC	?getColumn@Matrix3@Ogre@@QBE?AVVector3@2@I@Z	; Ogre::Matrix3::getColumn
; Function compile flags: /Odtp
;	COMDAT ?getColumn@Matrix3@Ogre@@QBE?AVVector3@2@I@Z
_TEXT	SEGMENT
_this$ = -4						; size = 4
___$ReturnUdt$ = 8					; size = 4
_i$ = 12						; size = 4
?getColumn@Matrix3@Ogre@@QBE?AVVector3@2@I@Z PROC	; Ogre::Matrix3::getColumn, COMDAT
; _this$ = ecx

; 84   : 		{

	push	ebp
	mov	ebp, esp
	push	ecx
	mov	DWORD PTR _this$[ebp], ecx

; 85   : 			return Vector3(m[0][i], m[1][i], m[2][i]);

	mov	eax, DWORD PTR _i$[ebp]
	mov	ecx, DWORD PTR _this$[ebp]
	push	ecx
	fld	DWORD PTR [ecx+eax*4+24]
	fstp	DWORD PTR [esp]
	mov	edx, DWORD PTR _i$[ebp]
	mov	eax, DWORD PTR _this$[ebp]
	push	ecx
	fld	DWORD PTR [eax+edx*4+12]
	fstp	DWORD PTR [esp]
	mov	ecx, DWORD PTR _i$[ebp]
	mov	edx, DWORD PTR _this$[ebp]
	push	ecx
	fld	DWORD PTR [edx+ecx*4]
	fstp	DWORD PTR [esp]
	mov	ecx, DWORD PTR ___$ReturnUdt$[ebp]
	call	??0Vector3@Ogre@@QAE@MMM@Z		; Ogre::Vector3::Vector3
	mov	eax, DWORD PTR ___$ReturnUdt$[ebp]

; 86   : 		}

	mov	esp, ebp
	pop	ebp
	ret	8
?getColumn@Matrix3@Ogre@@QBE?AVVector3@2@I@Z ENDP	; Ogre::Matrix3::getColumn
_TEXT	ENDS
PUBLIC	?makeScaleMatrix@Matrix3@Ogre@@QAEXM@Z		; Ogre::Matrix3::makeScaleMatrix
EXTRN	?makeScaleMatrix@Matrix3@Ogre@@QAEXABVVector3@2@@Z:PROC ; Ogre::Matrix3::makeScaleMatrix
; Function compile flags: /Odtp
;	COMDAT ?makeScaleMatrix@Matrix3@Ogre@@QAEXM@Z
_TEXT	SEGMENT
_this$ = -16						; size = 4
$T66365 = -12						; size = 12
_s$ = 8							; size = 4
?makeScaleMatrix@Matrix3@Ogre@@QAEXM@Z PROC		; Ogre::Matrix3::makeScaleMatrix, COMDAT
; _this$ = ecx

; 93   : 		{

	push	ebp
	mov	ebp, esp
	sub	esp, 16					; 00000010H
	mov	DWORD PTR _this$[ebp], ecx

; 94   : 			makeScaleMatrix(Vector3(s, s, s));

	push	ecx
	fld	DWORD PTR _s$[ebp]
	fstp	DWORD PTR [esp]
	push	ecx
	fld	DWORD PTR _s$[ebp]
	fstp	DWORD PTR [esp]
	push	ecx
	fld	DWORD PTR _s$[ebp]
	fstp	DWORD PTR [esp]
	lea	ecx, DWORD PTR $T66365[ebp]
	call	??0Vector3@Ogre@@QAE@MMM@Z		; Ogre::Vector3::Vector3
	push	eax
	mov	ecx, DWORD PTR _this$[ebp]
	call	?makeScaleMatrix@Matrix3@Ogre@@QAEXABVVector3@2@@Z ; Ogre::Matrix3::makeScaleMatrix

; 95   : 		}

	mov	esp, ebp
	pop	ebp
	ret	4
?makeScaleMatrix@Matrix3@Ogre@@QAEXM@Z ENDP		; Ogre::Matrix3::makeScaleMatrix
_TEXT	ENDS
PUBLIC	??4Matrix3@Ogre@@QAEAAV01@ABV01@@Z		; Ogre::Matrix3::operator=
; Function compile flags: /Odtp
;	COMDAT ??4Matrix3@Ogre@@QAEAAV01@ABV01@@Z
_TEXT	SEGMENT
_this$ = -4						; size = 4
___that$ = 8						; size = 4
??4Matrix3@Ogre@@QAEAAV01@ABV01@@Z PROC			; Ogre::Matrix3::operator=, COMDAT
; _this$ = ecx
	push	ebp
	mov	ebp, esp
	push	ecx
	push	esi
	push	edi
	mov	DWORD PTR _this$[ebp], ecx
	mov	esi, DWORD PTR ___that$[ebp]
	mov	ecx, 9
	mov	edi, DWORD PTR _this$[ebp]
	rep movsd
	mov	eax, DWORD PTR _this$[ebp]
	pop	edi
	pop	esi
	mov	esp, ebp
	pop	ebp
	ret	4
??4Matrix3@Ogre@@QAEAAV01@ABV01@@Z ENDP			; Ogre::Matrix3::operator=
_TEXT	ENDS
PUBLIC	??AMatrix4@Ogre@@QBEPBMI@Z			; Ogre::Matrix4::operator[]
; Function compile flags: /Odtp
; File i:\svnroot\client\ogremain\ogrematrix4.h
;	COMDAT ??AMatrix4@Ogre@@QBEPBMI@Z
_TEXT	SEGMENT
_this$ = -4						; size = 4
_irow$ = 8						; size = 4
??AMatrix4@Ogre@@QBEPBMI@Z PROC				; Ogre::Matrix4::operator[], COMDAT
; _this$ = ecx

; 88   : 		{

	push	ebp
	mov	ebp, esp
	push	ecx
	mov	DWORD PTR _this$[ebp], ecx

; 89   : 			return &m[irow][0];

	mov	eax, DWORD PTR _irow$[ebp]
	shl	eax, 4
	add	eax, DWORD PTR _this$[ebp]

; 90   : 		}

	mov	esp, ebp
	pop	ebp
	ret	4
??AMatrix4@Ogre@@QBEPBMI@Z ENDP				; Ogre::Matrix4::operator[]
_TEXT	ENDS
PUBLIC	??AMatrix4@Ogre@@QAEPAMI@Z			; Ogre::Matrix4::operator[]
; Function compile flags: /Odtp
;	COMDAT ??AMatrix4@Ogre@@QAEPAMI@Z
_TEXT	SEGMENT
_this$ = -4						; size = 4
_irow$ = 8						; size = 4
??AMatrix4@Ogre@@QAEPAMI@Z PROC				; Ogre::Matrix4::operator[], COMDAT
; _this$ = ecx

; 92   : 		{

	push	ebp
	mov	ebp, esp
	push	ecx
	mov	DWORD PTR _this$[ebp], ecx

; 93   : 			return &m[irow][0];

	mov	eax, DWORD PTR _irow$[ebp]
	shl	eax, 4
	add	eax, DWORD PTR _this$[ebp]

; 94   : 		}

	mov	esp, ebp
	pop	ebp
	ret	4
??AMatrix4@Ogre@@QAEPAMI@Z ENDP				; Ogre::Matrix4::operator[]
_TEXT	ENDS
PUBLIC	?makeScaleMatrix@Matrix4@Ogre@@QAEXM@Z		; Ogre::Matrix4::makeScaleMatrix
EXTRN	?makeScaleMatrix@Matrix4@Ogre@@QAEXABVVector3@2@@Z:PROC ; Ogre::Matrix4::makeScaleMatrix
; Function compile flags: /Odtp
;	COMDAT ?makeScaleMatrix@Matrix4@Ogre@@QAEXM@Z
_TEXT	SEGMENT
_this$ = -16						; size = 4
$T66374 = -12						; size = 12
_s$ = 8							; size = 4
?makeScaleMatrix@Matrix4@Ogre@@QAEXM@Z PROC		; Ogre::Matrix4::makeScaleMatrix, COMDAT
; _this$ = ecx

; 101  : 		{

	push	ebp
	mov	ebp, esp
	sub	esp, 16					; 00000010H
	mov	DWORD PTR _this$[ebp], ecx

; 102  : 			makeScaleMatrix(Vector3(s, s, s));

	push	ecx
	fld	DWORD PTR _s$[ebp]
	fstp	DWORD PTR [esp]
	push	ecx
	fld	DWORD PTR _s$[ebp]
	fstp	DWORD PTR [esp]
	push	ecx
	fld	DWORD PTR _s$[ebp]
	fstp	DWORD PTR [esp]
	lea	ecx, DWORD PTR $T66374[ebp]
	call	??0Vector3@Ogre@@QAE@MMM@Z		; Ogre::Vector3::Vector3
	push	eax
	mov	ecx, DWORD PTR _this$[ebp]
	call	?makeScaleMatrix@Matrix4@Ogre@@QAEXABVVector3@2@@Z ; Ogre::Matrix4::makeScaleMatrix

; 103  : 		}

	mov	esp, ebp
	pop	ebp
	ret	4
?makeScaleMatrix@Matrix4@Ogre@@QAEXM@Z ENDP		; Ogre::Matrix4::makeScaleMatrix
_TEXT	ENDS
PUBLIC	?setRow@Matrix4@Ogre@@QAEXIMMMM@Z		; Ogre::Matrix4::setRow
; Function compile flags: /Odtp
;	COMDAT ?setRow@Matrix4@Ogre@@QAEXIMMMM@Z
_TEXT	SEGMENT
_this$ = -4						; size = 4
_i$ = 8							; size = 4
_x$ = 12						; size = 4
_y$ = 16						; size = 4
_z$ = 20						; size = 4
_w$ = 24						; size = 4
?setRow@Matrix4@Ogre@@QAEXIMMMM@Z PROC			; Ogre::Matrix4::setRow, COMDAT
; _this$ = ecx

; 133  : 		{

	push	ebp
	mov	ebp, esp
	push	ecx
	mov	DWORD PTR _this$[ebp], ecx

; 134  : 			m[i][0] = x;

	mov	eax, DWORD PTR _i$[ebp]
	shl	eax, 4
	mov	ecx, DWORD PTR _this$[ebp]
	fld	DWORD PTR _x$[ebp]
	fstp	DWORD PTR [ecx+eax]

; 135  : 			m[i][1] = y;

	mov	edx, DWORD PTR _i$[ebp]
	shl	edx, 4
	mov	eax, DWORD PTR _this$[ebp]
	fld	DWORD PTR _y$[ebp]
	fstp	DWORD PTR [eax+edx+4]

; 136  : 			m[i][2] = z;

	mov	ecx, DWORD PTR _i$[ebp]
	shl	ecx, 4
	mov	edx, DWORD PTR _this$[ebp]
	fld	DWORD PTR _z$[ebp]
	fstp	DWORD PTR [edx+ecx+8]

; 137  : 			m[i][3] = w;

	mov	eax, DWORD PTR _i$[ebp]
	shl	eax, 4
	mov	ecx, DWORD PTR _this$[ebp]
	fld	DWORD PTR _w$[ebp]
	fstp	DWORD PTR [ecx+eax+12]

; 138  : 		}

	mov	esp, ebp
	pop	ebp
	ret	20					; 00000014H
?setRow@Matrix4@Ogre@@QAEXIMMMM@Z ENDP			; Ogre::Matrix4::setRow
_TEXT	ENDS
PUBLIC	?setColumn@Matrix4@Ogre@@QAEXIMMMM@Z		; Ogre::Matrix4::setColumn
; Function compile flags: /Odtp
;	COMDAT ?setColumn@Matrix4@Ogre@@QAEXIMMMM@Z
_TEXT	SEGMENT
_this$ = -4						; size = 4
_i$ = 8							; size = 4
_x$ = 12						; size = 4
_y$ = 16						; size = 4
_z$ = 20						; size = 4
_w$ = 24						; size = 4
?setColumn@Matrix4@Ogre@@QAEXIMMMM@Z PROC		; Ogre::Matrix4::setColumn, COMDAT
; _this$ = ecx

; 140  : 		{

	push	ebp
	mov	ebp, esp
	push	ecx
	mov	DWORD PTR _this$[ebp], ecx

; 141  : 			m[0][i] = x;

	mov	eax, DWORD PTR _i$[ebp]
	mov	ecx, DWORD PTR _this$[ebp]
	fld	DWORD PTR _x$[ebp]
	fstp	DWORD PTR [ecx+eax*4]

; 142  : 			m[1][i] = y;

	mov	edx, DWORD PTR _i$[ebp]
	mov	eax, DWORD PTR _this$[ebp]
	fld	DWORD PTR _y$[ebp]
	fstp	DWORD PTR [eax+edx*4+16]

; 143  : 			m[2][i] = z;

	mov	ecx, DWORD PTR _i$[ebp]
	mov	edx, DWORD PTR _this$[ebp]
	fld	DWORD PTR _z$[ebp]
	fstp	DWORD PTR [edx+ecx*4+32]

; 144  : 			m[3][i] = w;

	mov	eax, DWORD PTR _i$[ebp]
	mov	ecx, DWORD PTR _this$[ebp]
	fld	DWORD PTR _w$[ebp]
	fstp	DWORD PTR [ecx+eax*4+48]

; 145  : 		}

	mov	esp, ebp
	pop	ebp
	ret	20					; 00000014H
?setColumn@Matrix4@Ogre@@QAEXIMMMM@Z ENDP		; Ogre::Matrix4::setColumn
_TEXT	ENDS
PUBLIC	?getRow3@Matrix4@Ogre@@QBE?AVVector3@2@I@Z	; Ogre::Matrix4::getRow3
; Function compile flags: /Odtp
;	COMDAT ?getRow3@Matrix4@Ogre@@QBE?AVVector3@2@I@Z
_TEXT	SEGMENT
_this$ = -4						; size = 4
___$ReturnUdt$ = 8					; size = 4
_i$ = 12						; size = 4
?getRow3@Matrix4@Ogre@@QBE?AVVector3@2@I@Z PROC		; Ogre::Matrix4::getRow3, COMDAT
; _this$ = ecx

; 147  : 		{

	push	ebp
	mov	ebp, esp
	push	ecx
	mov	DWORD PTR _this$[ebp], ecx

; 148  : 			return Vector3(m[i][0], m[i][1], m[i][2]);

	mov	eax, DWORD PTR _i$[ebp]
	shl	eax, 4
	mov	ecx, DWORD PTR _this$[ebp]
	push	ecx
	fld	DWORD PTR [ecx+eax+8]
	fstp	DWORD PTR [esp]
	mov	edx, DWORD PTR _i$[ebp]
	shl	edx, 4
	mov	eax, DWORD PTR _this$[ebp]
	push	ecx
	fld	DWORD PTR [eax+edx+4]
	fstp	DWORD PTR [esp]
	mov	ecx, DWORD PTR _i$[ebp]
	shl	ecx, 4
	mov	edx, DWORD PTR _this$[ebp]
	push	ecx
	fld	DWORD PTR [edx+ecx]
	fstp	DWORD PTR [esp]
	mov	ecx, DWORD PTR ___$ReturnUdt$[ebp]
	call	??0Vector3@Ogre@@QAE@MMM@Z		; Ogre::Vector3::Vector3
	mov	eax, DWORD PTR ___$ReturnUdt$[ebp]

; 149  : 		}

	mov	esp, ebp
	pop	ebp
	ret	8
?getRow3@Matrix4@Ogre@@QBE?AVVector3@2@I@Z ENDP		; Ogre::Matrix4::getRow3
_TEXT	ENDS
PUBLIC	?getColumn3@Matrix4@Ogre@@QBE?AVVector3@2@I@Z	; Ogre::Matrix4::getColumn3
; Function compile flags: /Odtp
;	COMDAT ?getColumn3@Matrix4@Ogre@@QBE?AVVector3@2@I@Z
_TEXT	SEGMENT
_this$ = -4						; size = 4
___$ReturnUdt$ = 8					; size = 4
_i$ = 12						; size = 4
?getColumn3@Matrix4@Ogre@@QBE?AVVector3@2@I@Z PROC	; Ogre::Matrix4::getColumn3, COMDAT
; _this$ = ecx

; 151  : 		{

	push	ebp
	mov	ebp, esp
	push	ecx
	mov	DWORD PTR _this$[ebp], ecx

; 152  : 			return Vector3(m[0][i], m[1][i], m[2][i]);

	mov	eax, DWORD PTR _i$[ebp]
	mov	ecx, DWORD PTR _this$[ebp]
	push	ecx
	fld	DWORD PTR [ecx+eax*4+32]
	fstp	DWORD PTR [esp]
	mov	edx, DWORD PTR _i$[ebp]
	mov	eax, DWORD PTR _this$[ebp]
	push	ecx
	fld	DWORD PTR [eax+edx*4+16]
	fstp	DWORD PTR [esp]
	mov	ecx, DWORD PTR _i$[ebp]
	mov	edx, DWORD PTR _this$[ebp]
	push	ecx
	fld	DWORD PTR [edx+ecx*4]
	fstp	DWORD PTR [esp]
	mov	ecx, DWORD PTR ___$ReturnUdt$[ebp]
	call	??0Vector3@Ogre@@QAE@MMM@Z		; Ogre::Vector3::Vector3
	mov	eax, DWORD PTR ___$ReturnUdt$[ebp]

; 153  : 		}

	mov	esp, ebp
	pop	ebp
	ret	8
?getColumn3@Matrix4@Ogre@@QBE?AVVector3@2@I@Z ENDP	; Ogre::Matrix4::getColumn3
_TEXT	ENDS
PUBLIC	??0Vector4@Ogre@@QAE@MMMM@Z			; Ogre::Vector4::Vector4
PUBLIC	?getRow4@Matrix4@Ogre@@QBE?AVVector4@2@I@Z	; Ogre::Matrix4::getRow4
; Function compile flags: /Odtp
;	COMDAT ?getRow4@Matrix4@Ogre@@QBE?AVVector4@2@I@Z
_TEXT	SEGMENT
_this$ = -4						; size = 4
___$ReturnUdt$ = 8					; size = 4
_i$ = 12						; size = 4
?getRow4@Matrix4@Ogre@@QBE?AVVector4@2@I@Z PROC		; Ogre::Matrix4::getRow4, COMDAT
; _this$ = ecx

; 155  : 		{

	push	ebp
	mov	ebp, esp
	push	ecx
	mov	DWORD PTR _this$[ebp], ecx

; 156  : 			return Vector4(m[i][0], m[i][1], m[i][2], m[i][3]);

	mov	eax, DWORD PTR _i$[ebp]
	shl	eax, 4
	mov	ecx, DWORD PTR _this$[ebp]
	push	ecx
	fld	DWORD PTR [ecx+eax+12]
	fstp	DWORD PTR [esp]
	mov	edx, DWORD PTR _i$[ebp]
	shl	edx, 4
	mov	eax, DWORD PTR _this$[ebp]
	push	ecx
	fld	DWORD PTR [eax+edx+8]
	fstp	DWORD PTR [esp]
	mov	ecx, DWORD PTR _i$[ebp]
	shl	ecx, 4
	mov	edx, DWORD PTR _this$[ebp]
	push	ecx
	fld	DWORD PTR [edx+ecx+4]
	fstp	DWORD PTR [esp]
	mov	eax, DWORD PTR _i$[ebp]
	shl	eax, 4
	mov	ecx, DWORD PTR _this$[ebp]
	push	ecx
	fld	DWORD PTR [ecx+eax]
	fstp	DWORD PTR [esp]
	mov	ecx, DWORD PTR ___$ReturnUdt$[ebp]
	call	??0Vector4@Ogre@@QAE@MMMM@Z		; Ogre::Vector4::Vector4
	mov	eax, DWORD PTR ___$ReturnUdt$[ebp]

; 157  : 		}

	mov	esp, ebp
	pop	ebp
	ret	8
?getRow4@Matrix4@Ogre@@QBE?AVVector4@2@I@Z ENDP		; Ogre::Matrix4::getRow4
; Function compile flags: /Odtp
; File i:\svnroot\client\ogremain\ogrevector4.h
_TEXT	ENDS
;	COMDAT ??0Vector4@Ogre@@QAE@MMMM@Z
_TEXT	SEGMENT
_this$ = -4						; size = 4
_x1$ = 8						; size = 4
_y1$ = 12						; size = 4
_z1$ = 16						; size = 4
_w1$ = 20						; size = 4
??0Vector4@Ogre@@QAE@MMMM@Z PROC			; Ogre::Vector4::Vector4, COMDAT
; _this$ = ecx

; 44   : 		Vector4( float x1, float y1, float z1, float w1 ) : x(x1), y(y1), z(z1), w(w1){}

	push	ebp
	mov	ebp, esp
	push	ecx
	mov	DWORD PTR _this$[ebp], ecx
	mov	eax, DWORD PTR _this$[ebp]
	fld	DWORD PTR _x1$[ebp]
	fstp	DWORD PTR [eax]
	mov	ecx, DWORD PTR _this$[ebp]
	fld	DWORD PTR _y1$[ebp]
	fstp	DWORD PTR [ecx+4]
	mov	edx, DWORD PTR _this$[ebp]
	fld	DWORD PTR _z1$[ebp]
	fstp	DWORD PTR [edx+8]
	mov	eax, DWORD PTR _this$[ebp]
	fld	DWORD PTR _w1$[ebp]
	fstp	DWORD PTR [eax+12]
	mov	eax, DWORD PTR _this$[ebp]
	mov	esp, ebp
	pop	ebp
	ret	16					; 00000010H
??0Vector4@Ogre@@QAE@MMMM@Z ENDP			; Ogre::Vector4::Vector4
_TEXT	ENDS
PUBLIC	?getColumn4@Matrix4@Ogre@@QBE?AVVector4@2@I@Z	; Ogre::Matrix4::getColumn4
; Function compile flags: /Odtp
; File i:\svnroot\client\ogremain\ogrematrix4.h
;	COMDAT ?getColumn4@Matrix4@Ogre@@QBE?AVVector4@2@I@Z
_TEXT	SEGMENT
_this$ = -4						; size = 4
___$ReturnUdt$ = 8					; size = 4
_i$ = 12						; size = 4
?getColumn4@Matrix4@Ogre@@QBE?AVVector4@2@I@Z PROC	; Ogre::Matrix4::getColumn4, COMDAT
; _this$ = ecx

; 159  : 		{

	push	ebp
	mov	ebp, esp
	push	ecx
	mov	DWORD PTR _this$[ebp], ecx

; 160  : 			return Vector4(m[0][i], m[1][i], m[2][i], m[3][i]);

	mov	eax, DWORD PTR _i$[ebp]
	mov	ecx, DWORD PTR _this$[ebp]
	push	ecx
	fld	DWORD PTR [ecx+eax*4+48]
	fstp	DWORD PTR [esp]
	mov	edx, DWORD PTR _i$[ebp]
	mov	eax, DWORD PTR _this$[ebp]
	push	ecx
	fld	DWORD PTR [eax+edx*4+32]
	fstp	DWORD PTR [esp]
	mov	ecx, DWORD PTR _i$[ebp]
	mov	edx, DWORD PTR _this$[ebp]
	push	ecx
	fld	DWORD PTR [edx+ecx*4+16]
	fstp	DWORD PTR [esp]
	mov	eax, DWORD PTR _i$[ebp]
	mov	ecx, DWORD PTR _this$[ebp]
	push	ecx
	fld	DWORD PTR [ecx+eax*4]
	fstp	DWORD PTR [esp]
	mov	ecx, DWORD PTR ___$ReturnUdt$[ebp]
	call	??0Vector4@Ogre@@QAE@MMMM@Z		; Ogre::Vector4::Vector4
	mov	eax, DWORD PTR ___$ReturnUdt$[ebp]

; 161  : 		}

	mov	esp, ebp
	pop	ebp
	ret	8
?getColumn4@Matrix4@Ogre@@QBE?AVVector4@2@I@Z ENDP	; Ogre::Matrix4::getColumn4
_TEXT	ENDS
PUBLIC	?setTranslate@Matrix4@Ogre@@QAEXMMM@Z		; Ogre::Matrix4::setTranslate
; Function compile flags: /Odtp
;	COMDAT ?setTranslate@Matrix4@Ogre@@QAEXMMM@Z
_TEXT	SEGMENT
_this$ = -4						; size = 4
_x$ = 8							; size = 4
_y$ = 12						; size = 4
_z$ = 16						; size = 4
?setTranslate@Matrix4@Ogre@@QAEXMMM@Z PROC		; Ogre::Matrix4::setTranslate, COMDAT
; _this$ = ecx

; 163  : 		{

	push	ebp
	mov	ebp, esp
	push	ecx
	mov	DWORD PTR _this$[ebp], ecx

; 164  : 			setRow( 3, x, y, z, 1.0f );

	push	ecx
	fld1
	fstp	DWORD PTR [esp]
	push	ecx
	fld	DWORD PTR _z$[ebp]
	fstp	DWORD PTR [esp]
	push	ecx
	fld	DWORD PTR _y$[ebp]
	fstp	DWORD PTR [esp]
	push	ecx
	fld	DWORD PTR _x$[ebp]
	fstp	DWORD PTR [esp]
	push	3
	mov	ecx, DWORD PTR _this$[ebp]
	call	?setRow@Matrix4@Ogre@@QAEXIMMMM@Z	; Ogre::Matrix4::setRow

; 165  : 		}

	mov	esp, ebp
	pop	ebp
	ret	12					; 0000000cH
?setTranslate@Matrix4@Ogre@@QAEXMMM@Z ENDP		; Ogre::Matrix4::setTranslate
_TEXT	ENDS
PUBLIC	?setTranslate@Matrix4@Ogre@@QAEXABVVector3@2@@Z	; Ogre::Matrix4::setTranslate
; Function compile flags: /Odtp
;	COMDAT ?setTranslate@Matrix4@Ogre@@QAEXABVVector3@2@@Z
_TEXT	SEGMENT
_this$ = -4						; size = 4
_pos$ = 8						; size = 4
?setTranslate@Matrix4@Ogre@@QAEXABVVector3@2@@Z PROC	; Ogre::Matrix4::setTranslate, COMDAT
; _this$ = ecx

; 167  : 		{

	push	ebp
	mov	ebp, esp
	push	ecx
	mov	DWORD PTR _this$[ebp], ecx

; 168  : 			setTranslate( pos.x, pos.y, pos.z );

	mov	eax, DWORD PTR _pos$[ebp]
	push	ecx
	fld	DWORD PTR [eax+8]
	fstp	DWORD PTR [esp]
	mov	ecx, DWORD PTR _pos$[ebp]
	push	ecx
	fld	DWORD PTR [ecx+4]
	fstp	DWORD PTR [esp]
	mov	edx, DWORD PTR _pos$[ebp]
	push	ecx
	fld	DWORD PTR [edx]
	fstp	DWORD PTR [esp]
	mov	ecx, DWORD PTR _this$[ebp]
	call	?setTranslate@Matrix4@Ogre@@QAEXMMM@Z	; Ogre::Matrix4::setTranslate

; 169  : 		}

	mov	esp, ebp
	pop	ebp
	ret	4
?setTranslate@Matrix4@Ogre@@QAEXABVVector3@2@@Z ENDP	; Ogre::Matrix4::setTranslate
_TEXT	ENDS
PUBLIC	?getTranslate@Matrix4@Ogre@@QBE?AVVector3@2@XZ	; Ogre::Matrix4::getTranslate
; Function compile flags: /Odtp
;	COMDAT ?getTranslate@Matrix4@Ogre@@QBE?AVVector3@2@XZ
_TEXT	SEGMENT
_this$ = -4						; size = 4
___$ReturnUdt$ = 8					; size = 4
?getTranslate@Matrix4@Ogre@@QBE?AVVector3@2@XZ PROC	; Ogre::Matrix4::getTranslate, COMDAT
; _this$ = ecx

; 171  : 		{

	push	ebp
	mov	ebp, esp
	push	ecx
	mov	DWORD PTR _this$[ebp], ecx

; 172  : 			return getRow3(3);

	push	3
	mov	eax, DWORD PTR ___$ReturnUdt$[ebp]
	push	eax
	mov	ecx, DWORD PTR _this$[ebp]
	call	?getRow3@Matrix4@Ogre@@QBE?AVVector3@2@I@Z ; Ogre::Matrix4::getRow3
	mov	eax, DWORD PTR ___$ReturnUdt$[ebp]

; 173  : 		};

	mov	esp, ebp
	pop	ebp
	ret	4
?getTranslate@Matrix4@Ogre@@QBE?AVVector3@2@XZ ENDP	; Ogre::Matrix4::getTranslate
_TEXT	ENDS
PUBLIC	?transformCoord@Matrix4@Ogre@@QBE?AVVector3@2@ABV32@@Z ; Ogre::Matrix4::transformCoord
; Function compile flags: /Odtp
;	COMDAT ?transformCoord@Matrix4@Ogre@@QBE?AVVector3@2@ABV32@@Z
_TEXT	SEGMENT
tv182 = -16						; size = 4
tv174 = -12						; size = 4
tv166 = -8						; size = 4
_this$ = -4						; size = 4
___$ReturnUdt$ = 8					; size = 4
_vec$ = 12						; size = 4
?transformCoord@Matrix4@Ogre@@QBE?AVVector3@2@ABV32@@Z PROC ; Ogre::Matrix4::transformCoord, COMDAT
; _this$ = ecx

; 233  : 	{

	push	ebp
	mov	ebp, esp
	sub	esp, 16					; 00000010H
	mov	DWORD PTR _this$[ebp], ecx

; 234  : 		return Vector3( vec.x*_11 + vec.y*_21 + vec.z*_31 + _41,
; 235  : 			vec.x*_12 + vec.y*_22 + vec.z*_32 + _42,
; 236  : 			vec.x*_13 + vec.y*_23 + vec.z*_33 + _43 );

	mov	eax, DWORD PTR _vec$[ebp]
	fld	DWORD PTR [eax]
	mov	ecx, DWORD PTR _this$[ebp]
	fmul	DWORD PTR [ecx+8]
	mov	edx, DWORD PTR _vec$[ebp]
	fld	DWORD PTR [edx+4]
	mov	eax, DWORD PTR _this$[ebp]
	fmul	DWORD PTR [eax+24]
	faddp	ST(1), ST(0)
	mov	ecx, DWORD PTR _vec$[ebp]
	fld	DWORD PTR [ecx+8]
	mov	edx, DWORD PTR _this$[ebp]
	fmul	DWORD PTR [edx+40]
	faddp	ST(1), ST(0)
	mov	eax, DWORD PTR _this$[ebp]
	fadd	DWORD PTR [eax+56]
	fstp	DWORD PTR tv166[ebp]
	fld	DWORD PTR tv166[ebp]
	push	ecx
	fstp	DWORD PTR [esp]
	mov	ecx, DWORD PTR _vec$[ebp]
	fld	DWORD PTR [ecx]
	mov	edx, DWORD PTR _this$[ebp]
	fmul	DWORD PTR [edx+4]
	mov	eax, DWORD PTR _vec$[ebp]
	fld	DWORD PTR [eax+4]
	mov	ecx, DWORD PTR _this$[ebp]
	fmul	DWORD PTR [ecx+20]
	faddp	ST(1), ST(0)
	mov	edx, DWORD PTR _vec$[ebp]
	fld	DWORD PTR [edx+8]
	mov	eax, DWORD PTR _this$[ebp]
	fmul	DWORD PTR [eax+36]
	faddp	ST(1), ST(0)
	mov	ecx, DWORD PTR _this$[ebp]
	fadd	DWORD PTR [ecx+52]
	fstp	DWORD PTR tv174[ebp]
	fld	DWORD PTR tv174[ebp]
	push	ecx
	fstp	DWORD PTR [esp]
	mov	edx, DWORD PTR _vec$[ebp]
	fld	DWORD PTR [edx]
	mov	eax, DWORD PTR _this$[ebp]
	fmul	DWORD PTR [eax]
	mov	ecx, DWORD PTR _vec$[ebp]
	fld	DWORD PTR [ecx+4]
	mov	edx, DWORD PTR _this$[ebp]
	fmul	DWORD PTR [edx+16]
	faddp	ST(1), ST(0)
	mov	eax, DWORD PTR _vec$[ebp]
	fld	DWORD PTR [eax+8]
	mov	ecx, DWORD PTR _this$[ebp]
	fmul	DWORD PTR [ecx+32]
	faddp	ST(1), ST(0)
	mov	edx, DWORD PTR _this$[ebp]
	fadd	DWORD PTR [edx+48]
	fstp	DWORD PTR tv182[ebp]
	fld	DWORD PTR tv182[ebp]
	push	ecx
	fstp	DWORD PTR [esp]
	mov	ecx, DWORD PTR ___$ReturnUdt$[ebp]
	call	??0Vector3@Ogre@@QAE@MMM@Z		; Ogre::Vector3::Vector3
	mov	eax, DWORD PTR ___$ReturnUdt$[ebp]

; 237  : 	}

	mov	esp, ebp
	pop	ebp
	ret	8
?transformCoord@Matrix4@Ogre@@QBE?AVVector3@2@ABV32@@Z ENDP ; Ogre::Matrix4::transformCoord
_TEXT	ENDS
PUBLIC	?getRTTI@BoneData@Ogre@@UBEPBVRuntimeClass@2@XZ	; Ogre::BoneData::getRTTI
; Function compile flags: /Odtp
; File i:\svnroot\client\ogremain\ogreskeletondata.h
;	COMDAT ?getRTTI@BoneData@Ogre@@UBEPBVRuntimeClass@2@XZ
_TEXT	SEGMENT
_this$ = -4						; size = 4
?getRTTI@BoneData@Ogre@@UBEPBVRuntimeClass@2@XZ PROC	; Ogre::BoneData::getRTTI, COMDAT
; _this$ = ecx

; 13   : 		DECLARE_RTTI(BoneData)

	push	ebp
	mov	ebp, esp
	push	ecx
	mov	DWORD PTR _this$[ebp], ecx
	mov	eax, OFFSET ?m_RTTI@BoneData@Ogre@@2VRuntimeClass@2@B ; Ogre::BoneData::m_RTTI
	mov	esp, ebp
	pop	ebp
	ret	0
?getRTTI@BoneData@Ogre@@UBEPBVRuntimeClass@2@XZ ENDP	; Ogre::BoneData::getRTTI
_TEXT	ENDS
PUBLIC	??0BoneData@Ogre@@QAE@XZ			; Ogre::BoneData::BoneData
PUBLIC	?newObject@BoneData@Ogre@@SAPAVBaseObject@2@XZ	; Ogre::BoneData::newObject
EXTRN	??2MemoryDelegation@Ogre@@SAPAXI@Z:PROC		; Ogre::MemoryDelegation::operator new
;	COMDAT xdata$x
xdata$x	SEGMENT
__unwindtable$?newObject@BoneData@Ogre@@SAPAVBaseObject@2@XZ DD 0ffffffffH
	DD	FLAT:__unwindfunclet$?newObject@BoneData@Ogre@@SAPAVBaseObject@2@XZ$0
__ehfuncinfo$?newObject@BoneData@Ogre@@SAPAVBaseObject@2@XZ DD 019930522H
	DD	01H
	DD	FLAT:__unwindtable$?newObject@BoneData@Ogre@@SAPAVBaseObject@2@XZ
	DD	2 DUP(00H)
	DD	2 DUP(00H)
	DD	00H
	DD	00H
; Function compile flags: /Odtp
xdata$x	ENDS
;	COMDAT ?newObject@BoneData@Ogre@@SAPAVBaseObject@2@XZ
_TEXT	SEGMENT
tv75 = -24						; size = 4
$T66402 = -20						; size = 4
$T66401 = -16						; size = 4
__$EHRec$ = -12						; size = 12
?newObject@BoneData@Ogre@@SAPAVBaseObject@2@XZ PROC	; Ogre::BoneData::newObject, COMDAT

; 13   : 		DECLARE_RTTI(BoneData)

	push	ebp
	mov	ebp, esp
	push	-1
	push	__ehhandler$?newObject@BoneData@Ogre@@SAPAVBaseObject@2@XZ
	mov	eax, DWORD PTR fs:0
	push	eax
	sub	esp, 12					; 0000000cH
	mov	eax, DWORD PTR ___security_cookie
	xor	eax, ebp
	push	eax
	lea	eax, DWORD PTR __$EHRec$[ebp]
	mov	DWORD PTR fs:0, eax
	push	96					; 00000060H
	call	??2MemoryDelegation@Ogre@@SAPAXI@Z	; Ogre::MemoryDelegation::operator new
	add	esp, 4
	mov	DWORD PTR $T66402[ebp], eax
	mov	DWORD PTR __$EHRec$[ebp+8], 0
	cmp	DWORD PTR $T66402[ebp], 0
	je	SHORT $LN3@newObject
	mov	ecx, DWORD PTR $T66402[ebp]
	call	??0BoneData@Ogre@@QAE@XZ		; Ogre::BoneData::BoneData
	mov	DWORD PTR tv75[ebp], eax
	jmp	SHORT $LN4@newObject
$LN3@newObject:
	mov	DWORD PTR tv75[ebp], 0
$LN4@newObject:
	mov	eax, DWORD PTR tv75[ebp]
	mov	DWORD PTR $T66401[ebp], eax
	mov	DWORD PTR __$EHRec$[ebp+8], -1
	mov	eax, DWORD PTR $T66401[ebp]
	mov	ecx, DWORD PTR __$EHRec$[ebp]
	mov	DWORD PTR fs:0, ecx
	pop	ecx
	mov	esp, ebp
	pop	ebp
	ret	0
_TEXT	ENDS
;	COMDAT text$x
text$x	SEGMENT
__unwindfunclet$?newObject@BoneData@Ogre@@SAPAVBaseObject@2@XZ$0:
	push	96					; 00000060H
	mov	eax, DWORD PTR $T66402[ebp]
	push	eax
	call	??3MemoryDelegation@Ogre@@SAXPAXI@Z	; Ogre::MemoryDelegation::operator delete
	add	esp, 8
	ret	0
__ehhandler$?newObject@BoneData@Ogre@@SAPAVBaseObject@2@XZ:
	mov	edx, DWORD PTR [esp+8]
	lea	eax, DWORD PTR [edx+12]
	mov	ecx, DWORD PTR [edx-16]
	xor	ecx, eax
	call	@__security_check_cookie@4
	mov	eax, OFFSET __ehfuncinfo$?newObject@BoneData@Ogre@@SAPAVBaseObject@2@XZ
	jmp	___CxxFrameHandler3
text$x	ENDS
?newObject@BoneData@Ogre@@SAPAVBaseObject@2@XZ ENDP	; Ogre::BoneData::newObject
PUBLIC	??_7BoneData@Ogre@@6B@				; Ogre::BoneData::`vftable'
PUBLIC	??_R4BoneData@Ogre@@6B@				; Ogre::BoneData::`RTTI Complete Object Locator'
PUBLIC	??_R0?AVBoneData@Ogre@@@8			; Ogre::BoneData `RTTI Type Descriptor'
PUBLIC	??_R3BoneData@Ogre@@8				; Ogre::BoneData::`RTTI Class Hierarchy Descriptor'
PUBLIC	??_R2BoneData@Ogre@@8				; Ogre::BoneData::`RTTI Base Class Array'
PUBLIC	??_R1A@?0A@EA@BoneData@Ogre@@8			; Ogre::BoneData::`RTTI Base Class Descriptor at (0,-1,0,64)'
PUBLIC	?_serialize@BoneData@Ogre@@EAEXAAVArchive@2@H@Z	; Ogre::BoneData::_serialize
PUBLIC	??_EBoneData@Ogre@@UAEPAXI@Z			; Ogre::BoneData::`vector deleting destructor'
EXTRN	??0Matrix4@Ogre@@QAE@XZ:PROC			; Ogre::Matrix4::Matrix4
;	COMDAT ??_R1A@?0A@EA@BoneData@Ogre@@8
rdata$r	SEGMENT
??_R1A@?0A@EA@BoneData@Ogre@@8 DD FLAT:??_R0?AVBoneData@Ogre@@@8 ; Ogre::BoneData::`RTTI Base Class Descriptor at (0,-1,0,64)'
	DD	03H
	DD	00H
	DD	0ffffffffH
	DD	00H
	DD	040H
	DD	FLAT:??_R3BoneData@Ogre@@8
rdata$r	ENDS
;	COMDAT ??_R2BoneData@Ogre@@8
rdata$r	SEGMENT
??_R2BoneData@Ogre@@8 DD FLAT:??_R1A@?0A@EA@BoneData@Ogre@@8 ; Ogre::BoneData::`RTTI Base Class Array'
	DD	FLAT:??_R1A@?0A@EA@Resource@Ogre@@8
	DD	FLAT:??_R1A@?0A@EA@BaseObject@Ogre@@8
	DD	FLAT:??_R13?0A@EA@MemoryDelegation@Ogre@@8
rdata$r	ENDS
;	COMDAT ??_R3BoneData@Ogre@@8
rdata$r	SEGMENT
??_R3BoneData@Ogre@@8 DD 00H				; Ogre::BoneData::`RTTI Class Hierarchy Descriptor'
	DD	00H
	DD	04H
	DD	FLAT:??_R2BoneData@Ogre@@8
rdata$r	ENDS
;	COMDAT ??_R0?AVBoneData@Ogre@@@8
_DATA	SEGMENT
??_R0?AVBoneData@Ogre@@@8 DD FLAT:??_7type_info@@6B@	; Ogre::BoneData `RTTI Type Descriptor'
	DD	00H
	DB	'.?AVBoneData@Ogre@@', 00H
_DATA	ENDS
;	COMDAT ??_R4BoneData@Ogre@@6B@
rdata$r	SEGMENT
??_R4BoneData@Ogre@@6B@ DD 00H				; Ogre::BoneData::`RTTI Complete Object Locator'
	DD	00H
	DD	00H
	DD	FLAT:??_R0?AVBoneData@Ogre@@@8
	DD	FLAT:??_R3BoneData@Ogre@@8
rdata$r	ENDS
;	COMDAT ??_7BoneData@Ogre@@6B@
CONST	SEGMENT
??_7BoneData@Ogre@@6B@ DD FLAT:??_R4BoneData@Ogre@@6B@	; Ogre::BoneData::`vftable'
	DD	FLAT:?getRTTI@BoneData@Ogre@@UBEPBVRuntimeClass@2@XZ
	DD	FLAT:?release@Resource@Ogre@@UAEXXZ
	DD	FLAT:?addRef@Resource@Ogre@@UAEXXZ
	DD	FLAT:?getRefCount@Resource@Ogre@@UAEHXZ
	DD	FLAT:?_serialize@BoneData@Ogre@@EAEXAAVArchive@2@H@Z
	DD	FLAT:??_EBoneData@Ogre@@UAEPAXI@Z
	DD	FLAT:?deleteThis@BaseObject@Ogre@@MAEXXZ
CONST	ENDS
;	COMDAT xdata$x
xdata$x	SEGMENT
__unwindtable$??0BoneData@Ogre@@QAE@XZ DD 0ffffffffH
	DD	FLAT:__unwindfunclet$??0BoneData@Ogre@@QAE@XZ$0
	DD	00H
	DD	FLAT:__unwindfunclet$??0BoneData@Ogre@@QAE@XZ$1
	DD	01H
	DD	FLAT:__unwindfunclet$??0BoneData@Ogre@@QAE@XZ$2
__ehfuncinfo$??0BoneData@Ogre@@QAE@XZ DD 019930522H
	DD	03H
	DD	FLAT:__unwindtable$??0BoneData@Ogre@@QAE@XZ
	DD	2 DUP(00H)
	DD	2 DUP(00H)
	DD	00H
	DD	00H
; Function compile flags: /Odtp
xdata$x	ENDS
;	COMDAT ??0BoneData@Ogre@@QAE@XZ
_TEXT	SEGMENT
_this$ = -16						; size = 4
__$EHRec$ = -12						; size = 12
??0BoneData@Ogre@@QAE@XZ PROC				; Ogre::BoneData::BoneData, COMDAT
; _this$ = ecx

; 16   : 		BoneData()

	push	ebp
	mov	ebp, esp
	push	-1
	push	__ehhandler$??0BoneData@Ogre@@QAE@XZ
	mov	eax, DWORD PTR fs:0
	push	eax
	push	ecx
	mov	eax, DWORD PTR ___security_cookie
	xor	eax, ebp
	push	eax
	lea	eax, DWORD PTR __$EHRec$[ebp]
	mov	DWORD PTR fs:0, eax
	mov	DWORD PTR _this$[ebp], ecx
	mov	ecx, DWORD PTR _this$[ebp]
	call	??0Resource@Ogre@@IAE@XZ		; Ogre::Resource::Resource
	mov	DWORD PTR __$EHRec$[ebp+8], 0
	mov	eax, DWORD PTR _this$[ebp]
	mov	DWORD PTR [eax], OFFSET ??_7BoneData@Ogre@@6B@
	mov	ecx, DWORD PTR _this$[ebp]
	add	ecx, 16					; 00000010H
	call	??0FixedString@Ogre@@QAE@XZ		; Ogre::FixedString::FixedString
	mov	BYTE PTR __$EHRec$[ebp+8], 1
	mov	ecx, DWORD PTR _this$[ebp]
	add	ecx, 20					; 00000014H
	call	??0FixedString@Ogre@@QAE@XZ		; Ogre::FixedString::FixedString
	mov	BYTE PTR __$EHRec$[ebp+8], 2
	mov	ecx, DWORD PTR _this$[ebp]
	add	ecx, 32					; 00000020H
	call	??0Matrix4@Ogre@@QAE@XZ			; Ogre::Matrix4::Matrix4

; 17   : 		{
; 18   : 		}

	mov	DWORD PTR __$EHRec$[ebp+8], -1
	mov	eax, DWORD PTR _this$[ebp]
	mov	ecx, DWORD PTR __$EHRec$[ebp]
	mov	DWORD PTR fs:0, ecx
	pop	ecx
	mov	esp, ebp
	pop	ebp
	ret	0
_TEXT	ENDS
;	COMDAT text$x
text$x	SEGMENT
__unwindfunclet$??0BoneData@Ogre@@QAE@XZ$0:
	mov	ecx, DWORD PTR _this$[ebp]
	jmp	??1Resource@Ogre@@MAE@XZ		; Ogre::Resource::~Resource
__unwindfunclet$??0BoneData@Ogre@@QAE@XZ$1:
	mov	ecx, DWORD PTR _this$[ebp]
	add	ecx, 16					; 00000010H
	jmp	??1FixedString@Ogre@@QAE@XZ		; Ogre::FixedString::~FixedString
__unwindfunclet$??0BoneData@Ogre@@QAE@XZ$2:
	mov	ecx, DWORD PTR _this$[ebp]
	add	ecx, 20					; 00000014H
	jmp	??1FixedString@Ogre@@QAE@XZ		; Ogre::FixedString::~FixedString
__ehhandler$??0BoneData@Ogre@@QAE@XZ:
	mov	edx, DWORD PTR [esp+8]
	lea	eax, DWORD PTR [edx+12]
	mov	ecx, DWORD PTR [edx-8]
	xor	ecx, eax
	call	@__security_check_cookie@4
	mov	eax, OFFSET __ehfuncinfo$??0BoneData@Ogre@@QAE@XZ
	jmp	___CxxFrameHandler3
text$x	ENDS
??0BoneData@Ogre@@QAE@XZ ENDP				; Ogre::BoneData::BoneData
PUBLIC	??1BoneData@Ogre@@UAE@XZ			; Ogre::BoneData::~BoneData
;	COMDAT xdata$x
xdata$x	SEGMENT
__unwindtable$??1BoneData@Ogre@@UAE@XZ DD 0ffffffffH
	DD	FLAT:__unwindfunclet$??1BoneData@Ogre@@UAE@XZ$0
	DD	00H
	DD	FLAT:__unwindfunclet$??1BoneData@Ogre@@UAE@XZ$1
	DD	01H
	DD	FLAT:__unwindfunclet$??1BoneData@Ogre@@UAE@XZ$2
__ehfuncinfo$??1BoneData@Ogre@@UAE@XZ DD 019930522H
	DD	03H
	DD	FLAT:__unwindtable$??1BoneData@Ogre@@UAE@XZ
	DD	2 DUP(00H)
	DD	2 DUP(00H)
	DD	00H
	DD	00H
; Function compile flags: /Odtp
xdata$x	ENDS
;	COMDAT ??1BoneData@Ogre@@UAE@XZ
_TEXT	SEGMENT
_this$ = -16						; size = 4
__$EHRec$ = -12						; size = 12
??1BoneData@Ogre@@UAE@XZ PROC				; Ogre::BoneData::~BoneData, COMDAT
; _this$ = ecx
	push	ebp
	mov	ebp, esp
	push	-1
	push	__ehhandler$??1BoneData@Ogre@@UAE@XZ
	mov	eax, DWORD PTR fs:0
	push	eax
	push	ecx
	mov	eax, DWORD PTR ___security_cookie
	xor	eax, ebp
	push	eax
	lea	eax, DWORD PTR __$EHRec$[ebp]
	mov	DWORD PTR fs:0, eax
	mov	DWORD PTR _this$[ebp], ecx
	mov	DWORD PTR __$EHRec$[ebp+8], 2
	mov	BYTE PTR __$EHRec$[ebp+8], 1
	mov	ecx, DWORD PTR _this$[ebp]
	add	ecx, 20					; 00000014H
	call	??1FixedString@Ogre@@QAE@XZ		; Ogre::FixedString::~FixedString
	mov	BYTE PTR __$EHRec$[ebp+8], 0
	mov	ecx, DWORD PTR _this$[ebp]
	add	ecx, 16					; 00000010H
	call	??1FixedString@Ogre@@QAE@XZ		; Ogre::FixedString::~FixedString
	mov	DWORD PTR __$EHRec$[ebp+8], -1
	mov	ecx, DWORD PTR _this$[ebp]
	call	??1Resource@Ogre@@MAE@XZ		; Ogre::Resource::~Resource
	mov	ecx, DWORD PTR __$EHRec$[ebp]
	mov	DWORD PTR fs:0, ecx
	pop	ecx
	mov	esp, ebp
	pop	ebp
	ret	0
_TEXT	ENDS
;	COMDAT text$x
text$x	SEGMENT
__unwindfunclet$??1BoneData@Ogre@@UAE@XZ$0:
	mov	ecx, DWORD PTR _this$[ebp]
	jmp	??1Resource@Ogre@@MAE@XZ		; Ogre::Resource::~Resource
__unwindfunclet$??1BoneData@Ogre@@UAE@XZ$1:
	mov	ecx, DWORD PTR _this$[ebp]
	add	ecx, 16					; 00000010H
	jmp	??1FixedString@Ogre@@QAE@XZ		; Ogre::FixedString::~FixedString
__unwindfunclet$??1BoneData@Ogre@@UAE@XZ$2:
	mov	ecx, DWORD PTR _this$[ebp]
	add	ecx, 20					; 00000014H
	jmp	??1FixedString@Ogre@@QAE@XZ		; Ogre::FixedString::~FixedString
__ehhandler$??1BoneData@Ogre@@UAE@XZ:
	mov	edx, DWORD PTR [esp+8]
	lea	eax, DWORD PTR [edx+12]
	mov	ecx, DWORD PTR [edx-8]
	xor	ecx, eax
	call	@__security_check_cookie@4
	mov	eax, OFFSET __ehfuncinfo$??1BoneData@Ogre@@UAE@XZ
	jmp	___CxxFrameHandler3
text$x	ENDS
??1BoneData@Ogre@@UAE@XZ ENDP				; Ogre::BoneData::~BoneData
PUBLIC	??0BoneData@Ogre@@QAE@ABV01@@Z			; Ogre::BoneData::BoneData
EXTRN	??0Matrix4@Ogre@@QAE@ABV01@@Z:PROC		; Ogre::Matrix4::Matrix4
;	COMDAT xdata$x
xdata$x	SEGMENT
__unwindtable$??0BoneData@Ogre@@QAE@ABV01@@Z DD 0ffffffffH
	DD	FLAT:__unwindfunclet$??0BoneData@Ogre@@QAE@ABV01@@Z$0
	DD	00H
	DD	FLAT:__unwindfunclet$??0BoneData@Ogre@@QAE@ABV01@@Z$1
	DD	01H
	DD	FLAT:__unwindfunclet$??0BoneData@Ogre@@QAE@ABV01@@Z$2
__ehfuncinfo$??0BoneData@Ogre@@QAE@ABV01@@Z DD 019930522H
	DD	03H
	DD	FLAT:__unwindtable$??0BoneData@Ogre@@QAE@ABV01@@Z
	DD	2 DUP(00H)
	DD	2 DUP(00H)
	DD	00H
	DD	00H
; Function compile flags: /Odtp
xdata$x	ENDS
;	COMDAT ??0BoneData@Ogre@@QAE@ABV01@@Z
_TEXT	SEGMENT
_this$ = -16						; size = 4
__$EHRec$ = -12						; size = 12
___that$ = 8						; size = 4
??0BoneData@Ogre@@QAE@ABV01@@Z PROC			; Ogre::BoneData::BoneData, COMDAT
; _this$ = ecx
	push	ebp
	mov	ebp, esp
	push	-1
	push	__ehhandler$??0BoneData@Ogre@@QAE@ABV01@@Z
	mov	eax, DWORD PTR fs:0
	push	eax
	push	ecx
	mov	eax, DWORD PTR ___security_cookie
	xor	eax, ebp
	push	eax
	lea	eax, DWORD PTR __$EHRec$[ebp]
	mov	DWORD PTR fs:0, eax
	mov	DWORD PTR _this$[ebp], ecx
	mov	eax, DWORD PTR ___that$[ebp]
	push	eax
	mov	ecx, DWORD PTR _this$[ebp]
	call	??0Resource@Ogre@@QAE@ABV01@@Z
	mov	DWORD PTR __$EHRec$[ebp+8], 0
	mov	ecx, DWORD PTR _this$[ebp]
	mov	DWORD PTR [ecx], OFFSET ??_7BoneData@Ogre@@6B@
	mov	edx, DWORD PTR ___that$[ebp]
	add	edx, 16					; 00000010H
	push	edx
	mov	ecx, DWORD PTR _this$[ebp]
	add	ecx, 16					; 00000010H
	call	??0FixedString@Ogre@@QAE@ABV01@@Z	; Ogre::FixedString::FixedString
	mov	BYTE PTR __$EHRec$[ebp+8], 1
	mov	eax, DWORD PTR ___that$[ebp]
	add	eax, 20					; 00000014H
	push	eax
	mov	ecx, DWORD PTR _this$[ebp]
	add	ecx, 20					; 00000014H
	call	??0FixedString@Ogre@@QAE@ABV01@@Z	; Ogre::FixedString::FixedString
	mov	BYTE PTR __$EHRec$[ebp+8], 2
	mov	ecx, DWORD PTR _this$[ebp]
	mov	edx, DWORD PTR ___that$[ebp]
	mov	eax, DWORD PTR [edx+24]
	mov	DWORD PTR [ecx+24], eax
	mov	ecx, DWORD PTR _this$[ebp]
	mov	edx, DWORD PTR ___that$[ebp]
	mov	eax, DWORD PTR [edx+28]
	mov	DWORD PTR [ecx+28], eax
	mov	ecx, DWORD PTR ___that$[ebp]
	add	ecx, 32					; 00000020H
	push	ecx
	mov	ecx, DWORD PTR _this$[ebp]
	add	ecx, 32					; 00000020H
	call	??0Matrix4@Ogre@@QAE@ABV01@@Z		; Ogre::Matrix4::Matrix4
	mov	DWORD PTR __$EHRec$[ebp+8], -1
	mov	eax, DWORD PTR _this$[ebp]
	mov	ecx, DWORD PTR __$EHRec$[ebp]
	mov	DWORD PTR fs:0, ecx
	pop	ecx
	mov	esp, ebp
	pop	ebp
	ret	4
_TEXT	ENDS
;	COMDAT text$x
text$x	SEGMENT
__unwindfunclet$??0BoneData@Ogre@@QAE@ABV01@@Z$0:
	mov	ecx, DWORD PTR _this$[ebp]
	jmp	??1Resource@Ogre@@MAE@XZ		; Ogre::Resource::~Resource
__unwindfunclet$??0BoneData@Ogre@@QAE@ABV01@@Z$1:
	mov	ecx, DWORD PTR _this$[ebp]
	add	ecx, 16					; 00000010H
	jmp	??1FixedString@Ogre@@QAE@XZ		; Ogre::FixedString::~FixedString
__unwindfunclet$??0BoneData@Ogre@@QAE@ABV01@@Z$2:
	mov	ecx, DWORD PTR _this$[ebp]
	add	ecx, 20					; 00000014H
	jmp	??1FixedString@Ogre@@QAE@XZ		; Ogre::FixedString::~FixedString
__ehhandler$??0BoneData@Ogre@@QAE@ABV01@@Z:
	mov	edx, DWORD PTR [esp+8]
	lea	eax, DWORD PTR [edx+12]
	mov	ecx, DWORD PTR [edx-8]
	xor	ecx, eax
	call	@__security_check_cookie@4
	mov	eax, OFFSET __ehfuncinfo$??0BoneData@Ogre@@QAE@ABV01@@Z
	jmp	___CxxFrameHandler3
text$x	ENDS
??0BoneData@Ogre@@QAE@ABV01@@Z ENDP			; Ogre::BoneData::BoneData
PUBLIC	??4BoneData@Ogre@@QAEAAV01@ABV01@@Z		; Ogre::BoneData::operator=
EXTRN	??4Matrix4@Ogre@@QAEABV01@ABV01@@Z:PROC		; Ogre::Matrix4::operator=
; Function compile flags: /Odtp
;	COMDAT ??4BoneData@Ogre@@QAEAAV01@ABV01@@Z
_TEXT	SEGMENT
_this$ = -4						; size = 4
___that$ = 8						; size = 4
??4BoneData@Ogre@@QAEAAV01@ABV01@@Z PROC		; Ogre::BoneData::operator=, COMDAT
; _this$ = ecx
	push	ebp
	mov	ebp, esp
	push	ecx
	mov	DWORD PTR _this$[ebp], ecx
	mov	eax, DWORD PTR ___that$[ebp]
	push	eax
	mov	ecx, DWORD PTR _this$[ebp]
	call	??4Resource@Ogre@@QAEAAV01@ABV01@@Z
	mov	ecx, DWORD PTR ___that$[ebp]
	add	ecx, 16					; 00000010H
	push	ecx
	mov	ecx, DWORD PTR _this$[ebp]
	add	ecx, 16					; 00000010H
	call	??4FixedString@Ogre@@QAEAAV01@ABV01@@Z	; Ogre::FixedString::operator=
	mov	edx, DWORD PTR ___that$[ebp]
	add	edx, 20					; 00000014H
	push	edx
	mov	ecx, DWORD PTR _this$[ebp]
	add	ecx, 20					; 00000014H
	call	??4FixedString@Ogre@@QAEAAV01@ABV01@@Z	; Ogre::FixedString::operator=
	mov	eax, DWORD PTR _this$[ebp]
	mov	ecx, DWORD PTR ___that$[ebp]
	mov	edx, DWORD PTR [ecx+24]
	mov	DWORD PTR [eax+24], edx
	mov	eax, DWORD PTR _this$[ebp]
	mov	ecx, DWORD PTR ___that$[ebp]
	mov	edx, DWORD PTR [ecx+28]
	mov	DWORD PTR [eax+28], edx
	mov	eax, DWORD PTR ___that$[ebp]
	add	eax, 32					; 00000020H
	push	eax
	mov	ecx, DWORD PTR _this$[ebp]
	add	ecx, 32					; 00000020H
	call	??4Matrix4@Ogre@@QAEABV01@ABV01@@Z	; Ogre::Matrix4::operator=
	mov	eax, DWORD PTR _this$[ebp]
	mov	esp, ebp
	pop	ebp
	ret	4
??4BoneData@Ogre@@QAEAAV01@ABV01@@Z ENDP		; Ogre::BoneData::operator=
_TEXT	ENDS
PUBLIC	??_GBoneData@Ogre@@UAEPAXI@Z			; Ogre::BoneData::`scalar deleting destructor'
; Function compile flags: /Odtp
;	COMDAT ??_GBoneData@Ogre@@UAEPAXI@Z
_TEXT	SEGMENT
_this$ = -4						; size = 4
___flags$ = 8						; size = 4
??_GBoneData@Ogre@@UAEPAXI@Z PROC			; Ogre::BoneData::`scalar deleting destructor', COMDAT
; _this$ = ecx
	push	ebp
	mov	ebp, esp
	push	ecx
	mov	DWORD PTR _this$[ebp], ecx
	mov	ecx, DWORD PTR _this$[ebp]
	call	??1BoneData@Ogre@@UAE@XZ
	mov	eax, DWORD PTR ___flags$[ebp]
	and	eax, 1
	je	SHORT $LN1@scalar@10
	push	96					; 00000060H
	mov	ecx, DWORD PTR _this$[ebp]
	push	ecx
	call	??3MemoryDelegation@Ogre@@SAXPAXI@Z	; Ogre::MemoryDelegation::operator delete
	add	esp, 8
$LN1@scalar@10:
	mov	eax, DWORD PTR _this$[ebp]
	mov	esp, ebp
	pop	ebp
	ret	4
??_GBoneData@Ogre@@UAEPAXI@Z ENDP			; Ogre::BoneData::`scalar deleting destructor'
; Function compile flags: /Odtp
_TEXT	ENDS
;	COMDAT ??_EBoneData@Ogre@@UAEPAXI@Z
_TEXT	SEGMENT
_this$ = -4						; size = 4
___flags$ = 8						; size = 4
??_EBoneData@Ogre@@UAEPAXI@Z PROC			; Ogre::BoneData::`vector deleting destructor', COMDAT
; _this$ = ecx
	push	ebp
	mov	ebp, esp
	push	ecx
	mov	DWORD PTR _this$[ebp], ecx
	mov	eax, DWORD PTR ___flags$[ebp]
	and	eax, 2
	je	SHORT $LN3@vector@10
	push	OFFSET ??1BoneData@Ogre@@UAE@XZ
	mov	ecx, DWORD PTR _this$[ebp]
	mov	edx, DWORD PTR [ecx-4]
	push	edx
	push	96					; 00000060H
	mov	eax, DWORD PTR _this$[ebp]
	push	eax
	call	??_M@YGXPAXIHP6EX0@Z@Z
	mov	ecx, DWORD PTR ___flags$[ebp]
	and	ecx, 1
	je	SHORT $LN2@vector@10
	push	96					; 00000060H
	mov	edx, DWORD PTR _this$[ebp]
	sub	edx, 4
	push	edx
	call	??_VMemoryDelegation@Ogre@@SAXPAXI@Z	; Ogre::MemoryDelegation::operator delete[]
	add	esp, 8
$LN2@vector@10:
	mov	eax, DWORD PTR _this$[ebp]
	sub	eax, 4
	jmp	SHORT $LN4@vector@10
$LN3@vector@10:
	mov	ecx, DWORD PTR _this$[ebp]
	call	??1BoneData@Ogre@@UAE@XZ
	mov	eax, DWORD PTR ___flags$[ebp]
	and	eax, 1
	je	SHORT $LN1@vector@10
	push	96					; 00000060H
	mov	ecx, DWORD PTR _this$[ebp]
	push	ecx
	call	??3MemoryDelegation@Ogre@@SAXPAXI@Z	; Ogre::MemoryDelegation::operator delete
	add	esp, 8
$LN1@vector@10:
	mov	eax, DWORD PTR _this$[ebp]
$LN4@vector@10:
	mov	esp, ebp
	pop	ebp
	ret	4
??_EBoneData@Ogre@@UAEPAXI@Z ENDP			; Ogre::BoneData::`vector deleting destructor'
_TEXT	ENDS
PUBLIC	?getRTTI@SkeletonData@Ogre@@UBEPBVRuntimeClass@2@XZ ; Ogre::SkeletonData::getRTTI
; Function compile flags: /Odtp
;	COMDAT ?getRTTI@SkeletonData@Ogre@@UBEPBVRuntimeClass@2@XZ
_TEXT	SEGMENT
_this$ = -4						; size = 4
?getRTTI@SkeletonData@Ogre@@UBEPBVRuntimeClass@2@XZ PROC ; Ogre::SkeletonData::getRTTI, COMDAT
; _this$ = ecx

; 34   : 		DECLARE_RTTI(SkeletonData)

	push	ebp
	mov	ebp, esp
	push	ecx
	mov	DWORD PTR _this$[ebp], ecx
	mov	eax, OFFSET ?m_RTTI@SkeletonData@Ogre@@2VRuntimeClass@2@B ; Ogre::SkeletonData::m_RTTI
	mov	esp, ebp
	pop	ebp
	ret	0
?getRTTI@SkeletonData@Ogre@@UBEPBVRuntimeClass@2@XZ ENDP ; Ogre::SkeletonData::getRTTI
_TEXT	ENDS
PUBLIC	??0SkeletonData@Ogre@@QAE@XZ			; Ogre::SkeletonData::SkeletonData
PUBLIC	?newObject@SkeletonData@Ogre@@SAPAVBaseObject@2@XZ ; Ogre::SkeletonData::newObject
;	COMDAT xdata$x
xdata$x	SEGMENT
__unwindtable$?newObject@SkeletonData@Ogre@@SAPAVBaseObject@2@XZ DD 0ffffffffH
	DD	FLAT:__unwindfunclet$?newObject@SkeletonData@Ogre@@SAPAVBaseObject@2@XZ$0
__ehfuncinfo$?newObject@SkeletonData@Ogre@@SAPAVBaseObject@2@XZ DD 019930522H
	DD	01H
	DD	FLAT:__unwindtable$?newObject@SkeletonData@Ogre@@SAPAVBaseObject@2@XZ
	DD	2 DUP(00H)
	DD	2 DUP(00H)
	DD	00H
	DD	00H
; Function compile flags: /Odtp
xdata$x	ENDS
;	COMDAT ?newObject@SkeletonData@Ogre@@SAPAVBaseObject@2@XZ
_TEXT	SEGMENT
tv75 = -24						; size = 4
$T66456 = -20						; size = 4
$T66455 = -16						; size = 4
__$EHRec$ = -12						; size = 12
?newObject@SkeletonData@Ogre@@SAPAVBaseObject@2@XZ PROC	; Ogre::SkeletonData::newObject, COMDAT

; 34   : 		DECLARE_RTTI(SkeletonData)

	push	ebp
	mov	ebp, esp
	push	-1
	push	__ehhandler$?newObject@SkeletonData@Ogre@@SAPAVBaseObject@2@XZ
	mov	eax, DWORD PTR fs:0
	push	eax
	sub	esp, 12					; 0000000cH
	mov	eax, DWORD PTR ___security_cookie
	xor	eax, ebp
	push	eax
	lea	eax, DWORD PTR __$EHRec$[ebp]
	mov	DWORD PTR fs:0, eax
	push	72					; 00000048H
	call	??2MemoryDelegation@Ogre@@SAPAXI@Z	; Ogre::MemoryDelegation::operator new
	add	esp, 4
	mov	DWORD PTR $T66456[ebp], eax
	mov	DWORD PTR __$EHRec$[ebp+8], 0
	cmp	DWORD PTR $T66456[ebp], 0
	je	SHORT $LN3@newObject@2
	mov	ecx, DWORD PTR $T66456[ebp]
	call	??0SkeletonData@Ogre@@QAE@XZ		; Ogre::SkeletonData::SkeletonData
	mov	DWORD PTR tv75[ebp], eax
	jmp	SHORT $LN4@newObject@2
$LN3@newObject@2:
	mov	DWORD PTR tv75[ebp], 0
$LN4@newObject@2:
	mov	eax, DWORD PTR tv75[ebp]
	mov	DWORD PTR $T66455[ebp], eax
	mov	DWORD PTR __$EHRec$[ebp+8], -1
	mov	eax, DWORD PTR $T66455[ebp]
	mov	ecx, DWORD PTR __$EHRec$[ebp]
	mov	DWORD PTR fs:0, ecx
	pop	ecx
	mov	esp, ebp
	pop	ebp
	ret	0
_TEXT	ENDS
;	COMDAT text$x
text$x	SEGMENT
__unwindfunclet$?newObject@SkeletonData@Ogre@@SAPAVBaseObject@2@XZ$0:
	push	72					; 00000048H
	mov	eax, DWORD PTR $T66456[ebp]
	push	eax
	call	??3MemoryDelegation@Ogre@@SAXPAXI@Z	; Ogre::MemoryDelegation::operator delete
	add	esp, 8
	ret	0
__ehhandler$?newObject@SkeletonData@Ogre@@SAPAVBaseObject@2@XZ:
	mov	edx, DWORD PTR [esp+8]
	lea	eax, DWORD PTR [edx+12]
	mov	ecx, DWORD PTR [edx-16]
	xor	ecx, eax
	call	@__security_check_cookie@4
	mov	eax, OFFSET __ehfuncinfo$?newObject@SkeletonData@Ogre@@SAPAVBaseObject@2@XZ
	jmp	___CxxFrameHandler3
text$x	ENDS
?newObject@SkeletonData@Ogre@@SAPAVBaseObject@2@XZ ENDP	; Ogre::SkeletonData::newObject
PUBLIC	?size@?$vector@PAVBoneData@Ogre@@V?$allocator@PAVBoneData@Ogre@@@std@@@std@@QBEIXZ ; std::vector<Ogre::BoneData *,std::allocator<Ogre::BoneData *> >::size
PUBLIC	?getNumBone@SkeletonData@Ogre@@QAEIXZ		; Ogre::SkeletonData::getNumBone
; Function compile flags: /Odtp
;	COMDAT ?getNumBone@SkeletonData@Ogre@@QAEIXZ
_TEXT	SEGMENT
_this$ = -4						; size = 4
?getNumBone@SkeletonData@Ogre@@QAEIXZ PROC		; Ogre::SkeletonData::getNumBone, COMDAT
; _this$ = ecx

; 41   : 		size_t getNumBone(){ return m_BoneTable.size(); }

	push	ebp
	mov	ebp, esp
	push	ecx
	mov	DWORD PTR _this$[ebp], ecx
	mov	ecx, DWORD PTR _this$[ebp]
	add	ecx, 16					; 00000010H
	call	?size@?$vector@PAVBoneData@Ogre@@V?$allocator@PAVBoneData@Ogre@@@std@@@std@@QBEIXZ ; std::vector<Ogre::BoneData *,std::allocator<Ogre::BoneData *> >::size
	mov	esp, ebp
	pop	ebp
	ret	0
?getNumBone@SkeletonData@Ogre@@QAEIXZ ENDP		; Ogre::SkeletonData::getNumBone
_TEXT	ENDS
PUBLIC	??A?$vector@PAVBoneData@Ogre@@V?$allocator@PAVBoneData@Ogre@@@std@@@std@@QAEAAPAVBoneData@Ogre@@I@Z ; std::vector<Ogre::BoneData *,std::allocator<Ogre::BoneData *> >::operator[]
PUBLIC	?getIthBone@SkeletonData@Ogre@@QAEPAVBoneData@2@I@Z ; Ogre::SkeletonData::getIthBone
; Function compile flags: /Odtp
;	COMDAT ?getIthBone@SkeletonData@Ogre@@QAEPAVBoneData@2@I@Z
_TEXT	SEGMENT
_this$ = -4						; size = 4
_i$ = 8							; size = 4
?getIthBone@SkeletonData@Ogre@@QAEPAVBoneData@2@I@Z PROC ; Ogre::SkeletonData::getIthBone, COMDAT
; _this$ = ecx

; 42   : 		BoneData *getIthBone(size_t i){ return m_BoneTable[i]; }

	push	ebp
	mov	ebp, esp
	push	ecx
	mov	DWORD PTR _this$[ebp], ecx
	mov	eax, DWORD PTR _i$[ebp]
	push	eax
	mov	ecx, DWORD PTR _this$[ebp]
	add	ecx, 16					; 00000010H
	call	??A?$vector@PAVBoneData@Ogre@@V?$allocator@PAVBoneData@Ogre@@@std@@@std@@QAEAAPAVBoneData@Ogre@@I@Z ; std::vector<Ogre::BoneData *,std::allocator<Ogre::BoneData *> >::operator[]
	mov	eax, DWORD PTR [eax]
	mov	esp, ebp
	pop	ebp
	ret	4
?getIthBone@SkeletonData@Ogre@@QAEPAVBoneData@2@I@Z ENDP ; Ogre::SkeletonData::getIthBone
_TEXT	ENDS
PUBLIC	??1?$map@VFixedString@Ogre@@HU?$less@VFixedString@Ogre@@@std@@V?$allocator@U?$pair@$$CBVFixedString@Ogre@@H@std@@@4@@std@@QAE@XZ ; std::map<Ogre::FixedString,int,std::less<Ogre::FixedString>,std::allocator<std::pair<Ogre::FixedString const ,int> > >::~map<Ogre::FixedString,int,std::less<Ogre::FixedString>,std::allocator<std::pair<Ogre::FixedString const ,int> > >
PUBLIC	??1?$vector@PAVBoneData@Ogre@@V?$allocator@PAVBoneData@Ogre@@@std@@@std@@QAE@XZ ; std::vector<Ogre::BoneData *,std::allocator<Ogre::BoneData *> >::~vector<Ogre::BoneData *,std::allocator<Ogre::BoneData *> >
PUBLIC	??0?$map@VFixedString@Ogre@@HU?$less@VFixedString@Ogre@@@std@@V?$allocator@U?$pair@$$CBVFixedString@Ogre@@H@std@@@4@@std@@QAE@ABV01@@Z ; std::map<Ogre::FixedString,int,std::less<Ogre::FixedString>,std::allocator<std::pair<Ogre::FixedString const ,int> > >::map<Ogre::FixedString,int,std::less<Ogre::FixedString>,std::allocator<std::pair<Ogre::FixedString const ,int> > >
PUBLIC	??0?$vector@PAVBoneData@Ogre@@V?$allocator@PAVBoneData@Ogre@@@std@@@std@@QAE@ABV01@@Z ; std::vector<Ogre::BoneData *,std::allocator<Ogre::BoneData *> >::vector<Ogre::BoneData *,std::allocator<Ogre::BoneData *> >
PUBLIC	??_7SkeletonData@Ogre@@6B@			; Ogre::SkeletonData::`vftable'
PUBLIC	??0SkeletonData@Ogre@@QAE@ABV01@@Z		; Ogre::SkeletonData::SkeletonData
PUBLIC	??_R4SkeletonData@Ogre@@6B@			; Ogre::SkeletonData::`RTTI Complete Object Locator'
PUBLIC	??_R0?AVSkeletonData@Ogre@@@8			; Ogre::SkeletonData `RTTI Type Descriptor'
PUBLIC	??_R3SkeletonData@Ogre@@8			; Ogre::SkeletonData::`RTTI Class Hierarchy Descriptor'
PUBLIC	??_R2SkeletonData@Ogre@@8			; Ogre::SkeletonData::`RTTI Base Class Array'
PUBLIC	??_R1A@?0A@EA@SkeletonData@Ogre@@8		; Ogre::SkeletonData::`RTTI Base Class Descriptor at (0,-1,0,64)'
PUBLIC	?_serialize@SkeletonData@Ogre@@EAEXAAVArchive@2@H@Z ; Ogre::SkeletonData::_serialize
PUBLIC	??_ESkeletonData@Ogre@@MAEPAXI@Z		; Ogre::SkeletonData::`vector deleting destructor'
;	COMDAT ??_R1A@?0A@EA@SkeletonData@Ogre@@8
rdata$r	SEGMENT
??_R1A@?0A@EA@SkeletonData@Ogre@@8 DD FLAT:??_R0?AVSkeletonData@Ogre@@@8 ; Ogre::SkeletonData::`RTTI Base Class Descriptor at (0,-1,0,64)'
	DD	03H
	DD	00H
	DD	0ffffffffH
	DD	00H
	DD	040H
	DD	FLAT:??_R3SkeletonData@Ogre@@8
rdata$r	ENDS
;	COMDAT ??_R2SkeletonData@Ogre@@8
rdata$r	SEGMENT
??_R2SkeletonData@Ogre@@8 DD FLAT:??_R1A@?0A@EA@SkeletonData@Ogre@@8 ; Ogre::SkeletonData::`RTTI Base Class Array'
	DD	FLAT:??_R1A@?0A@EA@Resource@Ogre@@8
	DD	FLAT:??_R1A@?0A@EA@BaseObject@Ogre@@8
	DD	FLAT:??_R13?0A@EA@MemoryDelegation@Ogre@@8
rdata$r	ENDS
;	COMDAT ??_R3SkeletonData@Ogre@@8
rdata$r	SEGMENT
??_R3SkeletonData@Ogre@@8 DD 00H			; Ogre::SkeletonData::`RTTI Class Hierarchy Descriptor'
	DD	00H
	DD	04H
	DD	FLAT:??_R2SkeletonData@Ogre@@8
rdata$r	ENDS
;	COMDAT ??_R0?AVSkeletonData@Ogre@@@8
_DATA	SEGMENT
??_R0?AVSkeletonData@Ogre@@@8 DD FLAT:??_7type_info@@6B@ ; Ogre::SkeletonData `RTTI Type Descriptor'
	DD	00H
	DB	'.?AVSkeletonData@Ogre@@', 00H
_DATA	ENDS
;	COMDAT ??_R4SkeletonData@Ogre@@6B@
rdata$r	SEGMENT
??_R4SkeletonData@Ogre@@6B@ DD 00H			; Ogre::SkeletonData::`RTTI Complete Object Locator'
	DD	00H
	DD	00H
	DD	FLAT:??_R0?AVSkeletonData@Ogre@@@8
	DD	FLAT:??_R3SkeletonData@Ogre@@8
rdata$r	ENDS
;	COMDAT ??_7SkeletonData@Ogre@@6B@
CONST	SEGMENT
??_7SkeletonData@Ogre@@6B@ DD FLAT:??_R4SkeletonData@Ogre@@6B@ ; Ogre::SkeletonData::`vftable'
	DD	FLAT:?getRTTI@SkeletonData@Ogre@@UBEPBVRuntimeClass@2@XZ
	DD	FLAT:?release@Resource@Ogre@@UAEXXZ
	DD	FLAT:?addRef@Resource@Ogre@@UAEXXZ
	DD	FLAT:?getRefCount@Resource@Ogre@@UAEHXZ
	DD	FLAT:?_serialize@SkeletonData@Ogre@@EAEXAAVArchive@2@H@Z
	DD	FLAT:??_ESkeletonData@Ogre@@MAEPAXI@Z
	DD	FLAT:?deleteThis@BaseObject@Ogre@@MAEXXZ
CONST	ENDS
;	COMDAT xdata$x
xdata$x	SEGMENT
__unwindtable$??0SkeletonData@Ogre@@QAE@ABV01@@Z DD 0ffffffffH
	DD	FLAT:__unwindfunclet$??0SkeletonData@Ogre@@QAE@ABV01@@Z$0
	DD	00H
	DD	FLAT:__unwindfunclet$??0SkeletonData@Ogre@@QAE@ABV01@@Z$1
	DD	01H
	DD	FLAT:__unwindfunclet$??0SkeletonData@Ogre@@QAE@ABV01@@Z$2
__ehfuncinfo$??0SkeletonData@Ogre@@QAE@ABV01@@Z DD 019930522H
	DD	03H
	DD	FLAT:__unwindtable$??0SkeletonData@Ogre@@QAE@ABV01@@Z
	DD	2 DUP(00H)
	DD	2 DUP(00H)
	DD	00H
	DD	00H
; Function compile flags: /Odtp
xdata$x	ENDS
;	COMDAT ??0SkeletonData@Ogre@@QAE@ABV01@@Z
_TEXT	SEGMENT
_this$ = -16						; size = 4
__$EHRec$ = -12						; size = 12
___that$ = 8						; size = 4
??0SkeletonData@Ogre@@QAE@ABV01@@Z PROC			; Ogre::SkeletonData::SkeletonData, COMDAT
; _this$ = ecx
	push	ebp
	mov	ebp, esp
	push	-1
	push	__ehhandler$??0SkeletonData@Ogre@@QAE@ABV01@@Z
	mov	eax, DWORD PTR fs:0
	push	eax
	push	ecx
	mov	eax, DWORD PTR ___security_cookie
	xor	eax, ebp
	push	eax
	lea	eax, DWORD PTR __$EHRec$[ebp]
	mov	DWORD PTR fs:0, eax
	mov	DWORD PTR _this$[ebp], ecx
	mov	eax, DWORD PTR ___that$[ebp]
	push	eax
	mov	ecx, DWORD PTR _this$[ebp]
	call	??0Resource@Ogre@@QAE@ABV01@@Z
	mov	DWORD PTR __$EHRec$[ebp+8], 0
	mov	ecx, DWORD PTR _this$[ebp]
	mov	DWORD PTR [ecx], OFFSET ??_7SkeletonData@Ogre@@6B@
	mov	edx, DWORD PTR ___that$[ebp]
	add	edx, 16					; 00000010H
	push	edx
	mov	ecx, DWORD PTR _this$[ebp]
	add	ecx, 16					; 00000010H
	call	??0?$vector@PAVBoneData@Ogre@@V?$allocator@PAVBoneData@Ogre@@@std@@@std@@QAE@ABV01@@Z ; std::vector<Ogre::BoneData *,std::allocator<Ogre::BoneData *> >::vector<Ogre::BoneData *,std::allocator<Ogre::BoneData *> >
	mov	BYTE PTR __$EHRec$[ebp+8], 1
	mov	eax, DWORD PTR ___that$[ebp]
	add	eax, 40					; 00000028H
	push	eax
	mov	ecx, DWORD PTR _this$[ebp]
	add	ecx, 40					; 00000028H
	call	??0?$map@VFixedString@Ogre@@HU?$less@VFixedString@Ogre@@@std@@V?$allocator@U?$pair@$$CBVFixedString@Ogre@@H@std@@@4@@std@@QAE@ABV01@@Z
	mov	BYTE PTR __$EHRec$[ebp+8], 2
	mov	DWORD PTR __$EHRec$[ebp+8], -1
	mov	eax, DWORD PTR _this$[ebp]
	mov	ecx, DWORD PTR __$EHRec$[ebp]
	mov	DWORD PTR fs:0, ecx
	pop	ecx
	mov	esp, ebp
	pop	ebp
	ret	4
_TEXT	ENDS
;	COMDAT text$x
text$x	SEGMENT
__unwindfunclet$??0SkeletonData@Ogre@@QAE@ABV01@@Z$0:
	mov	ecx, DWORD PTR _this$[ebp]
	jmp	??1Resource@Ogre@@MAE@XZ		; Ogre::Resource::~Resource
__unwindfunclet$??0SkeletonData@Ogre@@QAE@ABV01@@Z$1:
	mov	ecx, DWORD PTR _this$[ebp]
	add	ecx, 16					; 00000010H
	jmp	??1?$vector@PAVBoneData@Ogre@@V?$allocator@PAVBoneData@Ogre@@@std@@@std@@QAE@XZ ; std::vector<Ogre::BoneData *,std::allocator<Ogre::BoneData *> >::~vector<Ogre::BoneData *,std::allocator<Ogre::BoneData *> >
__unwindfunclet$??0SkeletonData@Ogre@@QAE@ABV01@@Z$2:
	mov	ecx, DWORD PTR _this$[ebp]
	add	ecx, 40					; 00000028H
	jmp	??1?$map@VFixedString@Ogre@@HU?$less@VFixedString@Ogre@@@std@@V?$allocator@U?$pair@$$CBVFixedString@Ogre@@H@std@@@4@@std@@QAE@XZ
__ehhandler$??0SkeletonData@Ogre@@QAE@ABV01@@Z:
	mov	edx, DWORD PTR [esp+8]
	lea	eax, DWORD PTR [edx+12]
	mov	ecx, DWORD PTR [edx-8]
	xor	ecx, eax
	call	@__security_check_cookie@4
	mov	eax, OFFSET __ehfuncinfo$??0SkeletonData@Ogre@@QAE@ABV01@@Z
	jmp	___CxxFrameHandler3
text$x	ENDS
??0SkeletonData@Ogre@@QAE@ABV01@@Z ENDP			; Ogre::SkeletonData::SkeletonData
PUBLIC	??4?$map@VFixedString@Ogre@@HU?$less@VFixedString@Ogre@@@std@@V?$allocator@U?$pair@$$CBVFixedString@Ogre@@H@std@@@4@@std@@QAEAAV01@ABV01@@Z ; std::map<Ogre::FixedString,int,std::less<Ogre::FixedString>,std::allocator<std::pair<Ogre::FixedString const ,int> > >::operator=
PUBLIC	??4?$vector@PAVBoneData@Ogre@@V?$allocator@PAVBoneData@Ogre@@@std@@@std@@QAEAAV01@ABV01@@Z ; std::vector<Ogre::BoneData *,std::allocator<Ogre::BoneData *> >::operator=
PUBLIC	??4SkeletonData@Ogre@@QAEAAV01@ABV01@@Z		; Ogre::SkeletonData::operator=
; Function compile flags: /Odtp
;	COMDAT ??4SkeletonData@Ogre@@QAEAAV01@ABV01@@Z
_TEXT	SEGMENT
_this$ = -4						; size = 4
___that$ = 8						; size = 4
??4SkeletonData@Ogre@@QAEAAV01@ABV01@@Z PROC		; Ogre::SkeletonData::operator=, COMDAT
; _this$ = ecx
	push	ebp
	mov	ebp, esp
	push	ecx
	mov	DWORD PTR _this$[ebp], ecx
	mov	eax, DWORD PTR ___that$[ebp]
	push	eax
	mov	ecx, DWORD PTR _this$[ebp]
	call	??4Resource@Ogre@@QAEAAV01@ABV01@@Z
	mov	ecx, DWORD PTR ___that$[ebp]
	add	ecx, 16					; 00000010H
	push	ecx
	mov	ecx, DWORD PTR _this$[ebp]
	add	ecx, 16					; 00000010H
	call	??4?$vector@PAVBoneData@Ogre@@V?$allocator@PAVBoneData@Ogre@@@std@@@std@@QAEAAV01@ABV01@@Z ; std::vector<Ogre::BoneData *,std::allocator<Ogre::BoneData *> >::operator=
	mov	edx, DWORD PTR ___that$[ebp]
	add	edx, 40					; 00000028H
	push	edx
	mov	ecx, DWORD PTR _this$[ebp]
	add	ecx, 40					; 00000028H
	call	??4?$map@VFixedString@Ogre@@HU?$less@VFixedString@Ogre@@@std@@V?$allocator@U?$pair@$$CBVFixedString@Ogre@@H@std@@@4@@std@@QAEAAV01@ABV01@@Z
	mov	eax, DWORD PTR _this$[ebp]
	mov	esp, ebp
	pop	ebp
	ret	4
??4SkeletonData@Ogre@@QAEAAV01@ABV01@@Z ENDP		; Ogre::SkeletonData::operator=
_TEXT	ENDS
PUBLIC	??1SkeletonData@Ogre@@MAE@XZ			; Ogre::SkeletonData::~SkeletonData
PUBLIC	??_GSkeletonData@Ogre@@MAEPAXI@Z		; Ogre::SkeletonData::`scalar deleting destructor'
; Function compile flags: /Odtp
;	COMDAT ??_GSkeletonData@Ogre@@MAEPAXI@Z
_TEXT	SEGMENT
_this$ = -4						; size = 4
___flags$ = 8						; size = 4
??_GSkeletonData@Ogre@@MAEPAXI@Z PROC			; Ogre::SkeletonData::`scalar deleting destructor', COMDAT
; _this$ = ecx
	push	ebp
	mov	ebp, esp
	push	ecx
	mov	DWORD PTR _this$[ebp], ecx
	mov	ecx, DWORD PTR _this$[ebp]
	call	??1SkeletonData@Ogre@@MAE@XZ		; Ogre::SkeletonData::~SkeletonData
	mov	eax, DWORD PTR ___flags$[ebp]
	and	eax, 1
	je	SHORT $LN1@scalar@11
	push	72					; 00000048H
	mov	ecx, DWORD PTR _this$[ebp]
	push	ecx
	call	??3MemoryDelegation@Ogre@@SAXPAXI@Z	; Ogre::MemoryDelegation::operator delete
	add	esp, 8
$LN1@scalar@11:
	mov	eax, DWORD PTR _this$[ebp]
	mov	esp, ebp
	pop	ebp
	ret	4
??_GSkeletonData@Ogre@@MAEPAXI@Z ENDP			; Ogre::SkeletonData::`scalar deleting destructor'
; Function compile flags: /Odtp
_TEXT	ENDS
;	COMDAT ??_ESkeletonData@Ogre@@MAEPAXI@Z
_TEXT	SEGMENT
_this$ = -4						; size = 4
___flags$ = 8						; size = 4
??_ESkeletonData@Ogre@@MAEPAXI@Z PROC			; Ogre::SkeletonData::`vector deleting destructor', COMDAT
; _this$ = ecx
	push	ebp
	mov	ebp, esp
	push	ecx
	mov	DWORD PTR _this$[ebp], ecx
	mov	eax, DWORD PTR ___flags$[ebp]
	and	eax, 2
	je	SHORT $LN3@vector@11
	push	OFFSET ??1SkeletonData@Ogre@@MAE@XZ	; Ogre::SkeletonData::~SkeletonData
	mov	ecx, DWORD PTR _this$[ebp]
	mov	edx, DWORD PTR [ecx-4]
	push	edx
	push	72					; 00000048H
	mov	eax, DWORD PTR _this$[ebp]
	push	eax
	call	??_M@YGXPAXIHP6EX0@Z@Z
	mov	ecx, DWORD PTR ___flags$[ebp]
	and	ecx, 1
	je	SHORT $LN2@vector@11
	push	72					; 00000048H
	mov	edx, DWORD PTR _this$[ebp]
	sub	edx, 4
	push	edx
	call	??_VMemoryDelegation@Ogre@@SAXPAXI@Z	; Ogre::MemoryDelegation::operator delete[]
	add	esp, 8
$LN2@vector@11:
	mov	eax, DWORD PTR _this$[ebp]
	sub	eax, 4
	jmp	SHORT $LN4@vector@11
$LN3@vector@11:
	mov	ecx, DWORD PTR _this$[ebp]
	call	??1SkeletonData@Ogre@@MAE@XZ		; Ogre::SkeletonData::~SkeletonData
	mov	eax, DWORD PTR ___flags$[ebp]
	and	eax, 1
	je	SHORT $LN1@vector@11
	push	72					; 00000048H
	mov	ecx, DWORD PTR _this$[ebp]
	push	ecx
	call	??3MemoryDelegation@Ogre@@SAXPAXI@Z	; Ogre::MemoryDelegation::operator delete
	add	esp, 8
$LN1@vector@11:
	mov	eax, DWORD PTR _this$[ebp]
$LN4@vector@11:
	mov	esp, ebp
	pop	ebp
	ret	4
??_ESkeletonData@Ogre@@MAEPAXI@Z ENDP			; Ogre::SkeletonData::`vector deleting destructor'
_TEXT	ENDS
PUBLIC	??1?$_Tree@V?$_Tmap_traits@VFixedString@Ogre@@HU?$less@VFixedString@Ogre@@@std@@V?$allocator@U?$pair@$$CBVFixedString@Ogre@@H@std@@@4@$0A@@std@@@std@@QAE@XZ ; std::_Tree<std::_Tmap_traits<Ogre::FixedString,int,std::less<Ogre::FixedString>,std::allocator<std::pair<Ogre::FixedString const ,int> >,0> >::~_Tree<std::_Tmap_traits<Ogre::FixedString,int,std::less<Ogre::FixedString>,std::allocator<std::pair<Ogre::FixedString const ,int> >,0> >
PUBLIC	??0?$_Tree@V?$_Tmap_traits@VFixedString@Ogre@@HU?$less@VFixedString@Ogre@@@std@@V?$allocator@U?$pair@$$CBVFixedString@Ogre@@H@std@@@4@$0A@@std@@@std@@QAE@ABV01@@Z ; std::_Tree<std::_Tmap_traits<Ogre::FixedString,int,std::less<Ogre::FixedString>,std::allocator<std::pair<Ogre::FixedString const ,int> >,0> >::_Tree<std::_Tmap_traits<Ogre::FixedString,int,std::less<Ogre::FixedString>,std::allocator<std::pair<Ogre::FixedString const ,int> >,0> >
;	COMDAT xdata$x
xdata$x	SEGMENT
__unwindtable$??0?$map@VFixedString@Ogre@@HU?$less@VFixedString@Ogre@@@std@@V?$allocator@U?$pair@$$CBVFixedString@Ogre@@H@std@@@4@@std@@QAE@ABV01@@Z DD 0ffffffffH
	DD	FLAT:__unwindfunclet$??0?$map@VFixedString@Ogre@@HU?$less@VFixedString@Ogre@@@std@@V?$allocator@U?$pair@$$CBVFixedString@Ogre@@H@std@@@4@@std@@QAE@ABV01@@Z$0
__ehfuncinfo$??0?$map@VFixedString@Ogre@@HU?$less@VFixedString@Ogre@@@std@@V?$allocator@U?$pair@$$CBVFixedString@Ogre@@H@std@@@4@@std@@QAE@ABV01@@Z DD 019930522H
	DD	01H
	DD	FLAT:__unwindtable$??0?$map@VFixedString@Ogre@@HU?$less@VFixedString@Ogre@@@std@@V?$allocator@U?$pair@$$CBVFixedString@Ogre@@H@std@@@4@@std@@QAE@ABV01@@Z
	DD	2 DUP(00H)
	DD	2 DUP(00H)
	DD	00H
	DD	00H
; Function compile flags: /Odtp
xdata$x	ENDS
;	COMDAT ??0?$map@VFixedString@Ogre@@HU?$less@VFixedString@Ogre@@@std@@V?$allocator@U?$pair@$$CBVFixedString@Ogre@@H@std@@@4@@std@@QAE@ABV01@@Z
_TEXT	SEGMENT
_this$ = -16						; size = 4
__$EHRec$ = -12						; size = 12
___that$ = 8						; size = 4
??0?$map@VFixedString@Ogre@@HU?$less@VFixedString@Ogre@@@std@@V?$allocator@U?$pair@$$CBVFixedString@Ogre@@H@std@@@4@@std@@QAE@ABV01@@Z PROC ; std::map<Ogre::FixedString,int,std::less<Ogre::FixedString>,std::allocator<std::pair<Ogre::FixedString const ,int> > >::map<Ogre::FixedString,int,std::less<Ogre::FixedString>,std::allocator<std::pair<Ogre::FixedString const ,int> > >, COMDAT
; _this$ = ecx
	push	ebp
	mov	ebp, esp
	push	-1
	push	__ehhandler$??0?$map@VFixedString@Ogre@@HU?$less@VFixedString@Ogre@@@std@@V?$allocator@U?$pair@$$CBVFixedString@Ogre@@H@std@@@4@@std@@QAE@ABV01@@Z
	mov	eax, DWORD PTR fs:0
	push	eax
	push	ecx
	mov	eax, DWORD PTR ___security_cookie
	xor	eax, ebp
	push	eax
	lea	eax, DWORD PTR __$EHRec$[ebp]
	mov	DWORD PTR fs:0, eax
	mov	DWORD PTR _this$[ebp], ecx
	mov	eax, DWORD PTR ___that$[ebp]
	push	eax
	mov	ecx, DWORD PTR _this$[ebp]
	call	??0?$_Tree@V?$_Tmap_traits@VFixedString@Ogre@@HU?$less@VFixedString@Ogre@@@std@@V?$allocator@U?$pair@$$CBVFixedString@Ogre@@H@std@@@4@$0A@@std@@@std@@QAE@ABV01@@Z ; std::_Tree<std::_Tmap_traits<Ogre::FixedString,int,std::less<Ogre::FixedString>,std::allocator<std::pair<Ogre::FixedString const ,int> >,0> >::_Tree<std::_Tmap_traits<Ogre::FixedString,int,std::less<Ogre::FixedString>,std::allocator<std::pair<Ogre::FixedString const ,int> >,0> >
	mov	DWORD PTR __$EHRec$[ebp+8], 0
	mov	DWORD PTR __$EHRec$[ebp+8], -1
	mov	eax, DWORD PTR _this$[ebp]
	mov	ecx, DWORD PTR __$EHRec$[ebp]
	mov	DWORD PTR fs:0, ecx
	pop	ecx
	mov	esp, ebp
	pop	ebp
	ret	4
_TEXT	ENDS
;	COMDAT text$x
text$x	SEGMENT
__unwindfunclet$??0?$map@VFixedString@Ogre@@HU?$less@VFixedString@Ogre@@@std@@V?$allocator@U?$pair@$$CBVFixedString@Ogre@@H@std@@@4@@std@@QAE@ABV01@@Z$0:
	mov	ecx, DWORD PTR _this$[ebp]
	jmp	??1?$_Tree@V?$_Tmap_traits@VFixedString@Ogre@@HU?$less@VFixedString@Ogre@@@std@@V?$allocator@U?$pair@$$CBVFixedString@Ogre@@H@std@@@4@$0A@@std@@@std@@QAE@XZ ; std::_Tree<std::_Tmap_traits<Ogre::FixedString,int,std::less<Ogre::FixedString>,std::allocator<std::pair<Ogre::FixedString const ,int> >,0> >::~_Tree<std::_Tmap_traits<Ogre::FixedString,int,std::less<Ogre::FixedString>,std::allocator<std::pair<Ogre::FixedString const ,int> >,0> >
__ehhandler$??0?$map@VFixedString@Ogre@@HU?$less@VFixedString@Ogre@@@std@@V?$allocator@U?$pair@$$CBVFixedString@Ogre@@H@std@@@4@@std@@QAE@ABV01@@Z:
	mov	edx, DWORD PTR [esp+8]
	lea	eax, DWORD PTR [edx+12]
	mov	ecx, DWORD PTR [edx-8]
	xor	ecx, eax
	call	@__security_check_cookie@4
	mov	eax, OFFSET __ehfuncinfo$??0?$map@VFixedString@Ogre@@HU?$less@VFixedString@Ogre@@@std@@V?$allocator@U?$pair@$$CBVFixedString@Ogre@@H@std@@@4@@std@@QAE@ABV01@@Z
	jmp	___CxxFrameHandler3
text$x	ENDS
??0?$map@VFixedString@Ogre@@HU?$less@VFixedString@Ogre@@@std@@V?$allocator@U?$pair@$$CBVFixedString@Ogre@@H@std@@@4@@std@@QAE@ABV01@@Z ENDP ; std::map<Ogre::FixedString,int,std::less<Ogre::FixedString>,std::allocator<std::pair<Ogre::FixedString const ,int> > >::map<Ogre::FixedString,int,std::less<Ogre::FixedString>,std::allocator<std::pair<Ogre::FixedString const ,int> > >
;	COMDAT xdata$x
xdata$x	SEGMENT
__unwindtable$??1?$map@VFixedString@Ogre@@HU?$less@VFixedString@Ogre@@@std@@V?$allocator@U?$pair@$$CBVFixedString@Ogre@@H@std@@@4@@std@@QAE@XZ DD 0ffffffffH
	DD	FLAT:__unwindfunclet$??1?$map@VFixedString@Ogre@@HU?$less@VFixedString@Ogre@@@std@@V?$allocator@U?$pair@$$CBVFixedString@Ogre@@H@std@@@4@@std@@QAE@XZ$0
__ehfuncinfo$??1?$map@VFixedString@Ogre@@HU?$less@VFixedString@Ogre@@@std@@V?$allocator@U?$pair@$$CBVFixedString@Ogre@@H@std@@@4@@std@@QAE@XZ DD 019930522H
	DD	01H
	DD	FLAT:__unwindtable$??1?$map@VFixedString@Ogre@@HU?$less@VFixedString@Ogre@@@std@@V?$allocator@U?$pair@$$CBVFixedString@Ogre@@H@std@@@4@@std@@QAE@XZ
	DD	2 DUP(00H)
	DD	2 DUP(00H)
	DD	00H
	DD	00H
; Function compile flags: /Odtp
xdata$x	ENDS
;	COMDAT ??1?$map@VFixedString@Ogre@@HU?$less@VFixedString@Ogre@@@std@@V?$allocator@U?$pair@$$CBVFixedString@Ogre@@H@std@@@4@@std@@QAE@XZ
_TEXT	SEGMENT
_this$ = -16						; size = 4
__$EHRec$ = -12						; size = 12
??1?$map@VFixedString@Ogre@@HU?$less@VFixedString@Ogre@@@std@@V?$allocator@U?$pair@$$CBVFixedString@Ogre@@H@std@@@4@@std@@QAE@XZ PROC ; std::map<Ogre::FixedString,int,std::less<Ogre::FixedString>,std::allocator<std::pair<Ogre::FixedString const ,int> > >::~map<Ogre::FixedString,int,std::less<Ogre::FixedString>,std::allocator<std::pair<Ogre::FixedString const ,int> > >, COMDAT
; _this$ = ecx
	push	ebp
	mov	ebp, esp
	push	-1
	push	__ehhandler$??1?$map@VFixedString@Ogre@@HU?$less@VFixedString@Ogre@@@std@@V?$allocator@U?$pair@$$CBVFixedString@Ogre@@H@std@@@4@@std@@QAE@XZ
	mov	eax, DWORD PTR fs:0
	push	eax
	push	ecx
	mov	eax, DWORD PTR ___security_cookie
	xor	eax, ebp
	push	eax
	lea	eax, DWORD PTR __$EHRec$[ebp]
	mov	DWORD PTR fs:0, eax
	mov	DWORD PTR _this$[ebp], ecx
	mov	DWORD PTR __$EHRec$[ebp+8], 0
	mov	DWORD PTR __$EHRec$[ebp+8], -1
	mov	ecx, DWORD PTR _this$[ebp]
	call	??1?$_Tree@V?$_Tmap_traits@VFixedString@Ogre@@HU?$less@VFixedString@Ogre@@@std@@V?$allocator@U?$pair@$$CBVFixedString@Ogre@@H@std@@@4@$0A@@std@@@std@@QAE@XZ ; std::_Tree<std::_Tmap_traits<Ogre::FixedString,int,std::less<Ogre::FixedString>,std::allocator<std::pair<Ogre::FixedString const ,int> >,0> >::~_Tree<std::_Tmap_traits<Ogre::FixedString,int,std::less<Ogre::FixedString>,std::allocator<std::pair<Ogre::FixedString const ,int> >,0> >
	mov	ecx, DWORD PTR __$EHRec$[ebp]
	mov	DWORD PTR fs:0, ecx
	pop	ecx
	mov	esp, ebp
	pop	ebp
	ret	0
_TEXT	ENDS
;	COMDAT text$x
text$x	SEGMENT
__unwindfunclet$??1?$map@VFixedString@Ogre@@HU?$less@VFixedString@Ogre@@@std@@V?$allocator@U?$pair@$$CBVFixedString@Ogre@@H@std@@@4@@std@@QAE@XZ$0:
	mov	ecx, DWORD PTR _this$[ebp]
	jmp	??1?$_Tree@V?$_Tmap_traits@VFixedString@Ogre@@HU?$less@VFixedString@Ogre@@@std@@V?$allocator@U?$pair@$$CBVFixedString@Ogre@@H@std@@@4@$0A@@std@@@std@@QAE@XZ ; std::_Tree<std::_Tmap_traits<Ogre::FixedString,int,std::less<Ogre::FixedString>,std::allocator<std::pair<Ogre::FixedString const ,int> >,0> >::~_Tree<std::_Tmap_traits<Ogre::FixedString,int,std::less<Ogre::FixedString>,std::allocator<std::pair<Ogre::FixedString const ,int> >,0> >
__ehhandler$??1?$map@VFixedString@Ogre@@HU?$less@VFixedString@Ogre@@@std@@V?$allocator@U?$pair@$$CBVFixedString@Ogre@@H@std@@@4@@std@@QAE@XZ:
	mov	edx, DWORD PTR [esp+8]
	lea	eax, DWORD PTR [edx+12]
	mov	ecx, DWORD PTR [edx-8]
	xor	ecx, eax
	call	@__security_check_cookie@4
	mov	eax, OFFSET __ehfuncinfo$??1?$map@VFixedString@Ogre@@HU?$less@VFixedString@Ogre@@@std@@V?$allocator@U?$pair@$$CBVFixedString@Ogre@@H@std@@@4@@std@@QAE@XZ
	jmp	___CxxFrameHandler3
text$x	ENDS
??1?$map@VFixedString@Ogre@@HU?$less@VFixedString@Ogre@@@std@@V?$allocator@U?$pair@$$CBVFixedString@Ogre@@H@std@@@4@@std@@QAE@XZ ENDP ; std::map<Ogre::FixedString,int,std::less<Ogre::FixedString>,std::allocator<std::pair<Ogre::FixedString const ,int> > >::~map<Ogre::FixedString,int,std::less<Ogre::FixedString>,std::allocator<std::pair<Ogre::FixedString const ,int> > >
PUBLIC	??4?$_Tree@V?$_Tmap_traits@VFixedString@Ogre@@HU?$less@VFixedString@Ogre@@@std@@V?$allocator@U?$pair@$$CBVFixedString@Ogre@@H@std@@@4@$0A@@std@@@std@@QAEAAV01@ABV01@@Z ; std::_Tree<std::_Tmap_traits<Ogre::FixedString,int,std::less<Ogre::FixedString>,std::allocator<std::pair<Ogre::FixedString const ,int> >,0> >::operator=
; Function compile flags: /Odtp
;	COMDAT ??4?$map@VFixedString@Ogre@@HU?$less@VFixedString@Ogre@@@std@@V?$allocator@U?$pair@$$CBVFixedString@Ogre@@H@std@@@4@@std@@QAEAAV01@ABV01@@Z
_TEXT	SEGMENT
_this$ = -4						; size = 4
___that$ = 8						; size = 4
??4?$map@VFixedString@Ogre@@HU?$less@VFixedString@Ogre@@@std@@V?$allocator@U?$pair@$$CBVFixedString@Ogre@@H@std@@@4@@std@@QAEAAV01@ABV01@@Z PROC ; std::map<Ogre::FixedString,int,std::less<Ogre::FixedString>,std::allocator<std::pair<Ogre::FixedString const ,int> > >::operator=, COMDAT
; _this$ = ecx
	push	ebp
	mov	ebp, esp
	push	ecx
	mov	DWORD PTR _this$[ebp], ecx
	mov	eax, DWORD PTR ___that$[ebp]
	push	eax
	mov	ecx, DWORD PTR _this$[ebp]
	call	??4?$_Tree@V?$_Tmap_traits@VFixedString@Ogre@@HU?$less@VFixedString@Ogre@@@std@@V?$allocator@U?$pair@$$CBVFixedString@Ogre@@H@std@@@4@$0A@@std@@@std@@QAEAAV01@ABV01@@Z ; std::_Tree<std::_Tmap_traits<Ogre::FixedString,int,std::less<Ogre::FixedString>,std::allocator<std::pair<Ogre::FixedString const ,int> >,0> >::operator=
	mov	eax, DWORD PTR _this$[ebp]
	mov	esp, ebp
	pop	ebp
	ret	4
??4?$map@VFixedString@Ogre@@HU?$less@VFixedString@Ogre@@@std@@V?$allocator@U?$pair@$$CBVFixedString@Ogre@@H@std@@@4@@std@@QAEAAV01@ABV01@@Z ENDP ; std::map<Ogre::FixedString,int,std::less<Ogre::FixedString>,std::allocator<std::pair<Ogre::FixedString const ,int> > >::operator=
_TEXT	ENDS
PUBLIC	??$serializeRawType@VMatrix4@Ogre@@@Archive@Ogre@@QAEXAAVMatrix4@1@@Z ; Ogre::Archive::serializeRawType<Ogre::Matrix4>
EXTRN	??6Archive@Ogre@@QAEAAV01@AAVFixedString@1@@Z:PROC ; Ogre::Archive::operator<<
; Function compile flags: /Odtp
; File i:\svnroot\client\ogremain\ogreskeletondata.cpp
_TEXT	SEGMENT
_this$ = -4						; size = 4
_ar$ = 8						; size = 4
_version$ = 12						; size = 4
?_serialize@BoneData@Ogre@@EAEXAAVArchive@2@H@Z PROC	; Ogre::BoneData::_serialize
; _this$ = ecx

; 11   : 	{

	push	ebp
	mov	ebp, esp
	push	ecx
	mov	DWORD PTR _this$[ebp], ecx

; 12   : 		ar << m_Name;

	mov	eax, DWORD PTR _this$[ebp]
	add	eax, 16					; 00000010H
	push	eax
	mov	ecx, DWORD PTR _ar$[ebp]
	call	??6Archive@Ogre@@QAEAAV01@AAVFixedString@1@@Z ; Ogre::Archive::operator<<

; 13   : 		ar << m_UserData;

	mov	ecx, DWORD PTR _this$[ebp]
	add	ecx, 20					; 00000014H
	push	ecx
	mov	ecx, DWORD PTR _ar$[ebp]
	call	??6Archive@Ogre@@QAEAAV01@AAVFixedString@1@@Z ; Ogre::Archive::operator<<

; 14   : 		ar << m_FatherID;

	mov	edx, DWORD PTR _this$[ebp]
	add	edx, 28					; 0000001cH
	push	edx
	mov	ecx, DWORD PTR _ar$[ebp]
	call	??6Archive@Ogre@@QAEAAV01@AAH@Z		; Ogre::Archive::operator<<

; 15   : 		ar.serializeRawType(m_OriginTM);

	mov	eax, DWORD PTR _this$[ebp]
	add	eax, 32					; 00000020H
	push	eax
	mov	ecx, DWORD PTR _ar$[ebp]
	call	??$serializeRawType@VMatrix4@Ogre@@@Archive@Ogre@@QAEXAAVMatrix4@1@@Z ; Ogre::Archive::serializeRawType<Ogre::Matrix4>

; 16   : 	}

	mov	esp, ebp
	pop	ebp
	ret	8
?_serialize@BoneData@Ogre@@EAEXAAVArchive@2@H@Z ENDP	; Ogre::BoneData::_serialize
_TEXT	ENDS
PUBLIC	??0?$map@VFixedString@Ogre@@HU?$less@VFixedString@Ogre@@@std@@V?$allocator@U?$pair@$$CBVFixedString@Ogre@@H@std@@@4@@std@@QAE@XZ ; std::map<Ogre::FixedString,int,std::less<Ogre::FixedString>,std::allocator<std::pair<Ogre::FixedString const ,int> > >::map<Ogre::FixedString,int,std::less<Ogre::FixedString>,std::allocator<std::pair<Ogre::FixedString const ,int> > >
PUBLIC	??0?$vector@PAVBoneData@Ogre@@V?$allocator@PAVBoneData@Ogre@@@std@@@std@@QAE@XZ ; std::vector<Ogre::BoneData *,std::allocator<Ogre::BoneData *> >::vector<Ogre::BoneData *,std::allocator<Ogre::BoneData *> >
xdata$x	SEGMENT
__unwindtable$??0SkeletonData@Ogre@@QAE@XZ DD 0ffffffffH
	DD	FLAT:__unwindfunclet$??0SkeletonData@Ogre@@QAE@XZ$0
	DD	00H
	DD	FLAT:__unwindfunclet$??0SkeletonData@Ogre@@QAE@XZ$1
	DD	01H
	DD	FLAT:__unwindfunclet$??0SkeletonData@Ogre@@QAE@XZ$2
__ehfuncinfo$??0SkeletonData@Ogre@@QAE@XZ DD 019930522H
	DD	03H
	DD	FLAT:__unwindtable$??0SkeletonData@Ogre@@QAE@XZ
	DD	2 DUP(00H)
	DD	2 DUP(00H)
	DD	00H
	DD	00H
; Function compile flags: /Odtp
xdata$x	ENDS
_TEXT	SEGMENT
_this$ = -16						; size = 4
__$EHRec$ = -12						; size = 12
??0SkeletonData@Ogre@@QAE@XZ PROC			; Ogre::SkeletonData::SkeletonData
; _this$ = ecx

; 19   : 	{

	push	ebp
	mov	ebp, esp
	push	-1
	push	__ehhandler$??0SkeletonData@Ogre@@QAE@XZ
	mov	eax, DWORD PTR fs:0
	push	eax
	push	ecx
	mov	eax, DWORD PTR ___security_cookie
	xor	eax, ebp
	push	eax
	lea	eax, DWORD PTR __$EHRec$[ebp]
	mov	DWORD PTR fs:0, eax
	mov	DWORD PTR _this$[ebp], ecx
	mov	ecx, DWORD PTR _this$[ebp]
	call	??0Resource@Ogre@@IAE@XZ		; Ogre::Resource::Resource
	mov	DWORD PTR __$EHRec$[ebp+8], 0
	mov	eax, DWORD PTR _this$[ebp]
	mov	DWORD PTR [eax], OFFSET ??_7SkeletonData@Ogre@@6B@
	mov	ecx, DWORD PTR _this$[ebp]
	add	ecx, 16					; 00000010H
	call	??0?$vector@PAVBoneData@Ogre@@V?$allocator@PAVBoneData@Ogre@@@std@@@std@@QAE@XZ ; std::vector<Ogre::BoneData *,std::allocator<Ogre::BoneData *> >::vector<Ogre::BoneData *,std::allocator<Ogre::BoneData *> >
	mov	BYTE PTR __$EHRec$[ebp+8], 1
	mov	ecx, DWORD PTR _this$[ebp]
	add	ecx, 40					; 00000028H
	call	??0?$map@VFixedString@Ogre@@HU?$less@VFixedString@Ogre@@@std@@V?$allocator@U?$pair@$$CBVFixedString@Ogre@@H@std@@@4@@std@@QAE@XZ ; std::map<Ogre::FixedString,int,std::less<Ogre::FixedString>,std::allocator<std::pair<Ogre::FixedString const ,int> > >::map<Ogre::FixedString,int,std::less<Ogre::FixedString>,std::allocator<std::pair<Ogre::FixedString const ,int> > >
	mov	BYTE PTR __$EHRec$[ebp+8], 2

; 20   : 	}

	mov	DWORD PTR __$EHRec$[ebp+8], -1
	mov	eax, DWORD PTR _this$[ebp]
	mov	ecx, DWORD PTR __$EHRec$[ebp]
	mov	DWORD PTR fs:0, ecx
	pop	ecx
	mov	esp, ebp
	pop	ebp
	ret	0
_TEXT	ENDS
text$x	SEGMENT
__unwindfunclet$??0SkeletonData@Ogre@@QAE@XZ$0:
	mov	ecx, DWORD PTR _this$[ebp]
	jmp	??1Resource@Ogre@@MAE@XZ		; Ogre::Resource::~Resource
__unwindfunclet$??0SkeletonData@Ogre@@QAE@XZ$1:
	mov	ecx, DWORD PTR _this$[ebp]
	add	ecx, 16					; 00000010H
	jmp	??1?$vector@PAVBoneData@Ogre@@V?$allocator@PAVBoneData@Ogre@@@std@@@std@@QAE@XZ ; std::vector<Ogre::BoneData *,std::allocator<Ogre::BoneData *> >::~vector<Ogre::BoneData *,std::allocator<Ogre::BoneData *> >
__unwindfunclet$??0SkeletonData@Ogre@@QAE@XZ$2:
	mov	ecx, DWORD PTR _this$[ebp]
	add	ecx, 40					; 00000028H
	jmp	??1?$map@VFixedString@Ogre@@HU?$less@VFixedString@Ogre@@@std@@V?$allocator@U?$pair@$$CBVFixedString@Ogre@@H@std@@@4@@std@@QAE@XZ
__ehhandler$??0SkeletonData@Ogre@@QAE@XZ:
	mov	edx, DWORD PTR [esp+8]
	lea	eax, DWORD PTR [edx+12]
	mov	ecx, DWORD PTR [edx-8]
	xor	ecx, eax
	call	@__security_check_cookie@4
	mov	eax, OFFSET __ehfuncinfo$??0SkeletonData@Ogre@@QAE@XZ
	jmp	___CxxFrameHandler3
text$x	ENDS
??0SkeletonData@Ogre@@QAE@XZ ENDP			; Ogre::SkeletonData::SkeletonData
PUBLIC	??$DeletePointerArray@VBoneData@Ogre@@@Ogre@@YAXAAV?$vector@PAVBoneData@Ogre@@V?$allocator@PAVBoneData@Ogre@@@std@@@std@@@Z ; Ogre::DeletePointerArray<Ogre::BoneData>
xdata$x	SEGMENT
__unwindtable$??1SkeletonData@Ogre@@MAE@XZ DD 0ffffffffH
	DD	FLAT:__unwindfunclet$??1SkeletonData@Ogre@@MAE@XZ$0
	DD	00H
	DD	FLAT:__unwindfunclet$??1SkeletonData@Ogre@@MAE@XZ$1
	DD	01H
	DD	FLAT:__unwindfunclet$??1SkeletonData@Ogre@@MAE@XZ$2
__ehfuncinfo$??1SkeletonData@Ogre@@MAE@XZ DD 019930522H
	DD	03H
	DD	FLAT:__unwindtable$??1SkeletonData@Ogre@@MAE@XZ
	DD	2 DUP(00H)
	DD	2 DUP(00H)
	DD	00H
	DD	00H
; Function compile flags: /Odtp
xdata$x	ENDS
_TEXT	SEGMENT
_this$ = -16						; size = 4
__$EHRec$ = -12						; size = 12
??1SkeletonData@Ogre@@MAE@XZ PROC			; Ogre::SkeletonData::~SkeletonData
; _this$ = ecx

; 23   : 	{

	push	ebp
	mov	ebp, esp
	push	-1
	push	__ehhandler$??1SkeletonData@Ogre@@MAE@XZ
	mov	eax, DWORD PTR fs:0
	push	eax
	push	ecx
	mov	eax, DWORD PTR ___security_cookie
	xor	eax, ebp
	push	eax
	lea	eax, DWORD PTR __$EHRec$[ebp]
	mov	DWORD PTR fs:0, eax
	mov	DWORD PTR _this$[ebp], ecx
	mov	eax, DWORD PTR _this$[ebp]
	mov	DWORD PTR [eax], OFFSET ??_7SkeletonData@Ogre@@6B@
	mov	DWORD PTR __$EHRec$[ebp+8], 2

; 24   : 		DeletePointerArray(m_BoneTable);

	mov	ecx, DWORD PTR _this$[ebp]
	add	ecx, 16					; 00000010H
	push	ecx
	call	??$DeletePointerArray@VBoneData@Ogre@@@Ogre@@YAXAAV?$vector@PAVBoneData@Ogre@@V?$allocator@PAVBoneData@Ogre@@@std@@@std@@@Z ; Ogre::DeletePointerArray<Ogre::BoneData>
	add	esp, 4

; 25   : 	}

	mov	BYTE PTR __$EHRec$[ebp+8], 1
	mov	ecx, DWORD PTR _this$[ebp]
	add	ecx, 40					; 00000028H
	call	??1?$map@VFixedString@Ogre@@HU?$less@VFixedString@Ogre@@@std@@V?$allocator@U?$pair@$$CBVFixedString@Ogre@@H@std@@@4@@std@@QAE@XZ
	mov	BYTE PTR __$EHRec$[ebp+8], 0
	mov	ecx, DWORD PTR _this$[ebp]
	add	ecx, 16					; 00000010H
	call	??1?$vector@PAVBoneData@Ogre@@V?$allocator@PAVBoneData@Ogre@@@std@@@std@@QAE@XZ ; std::vector<Ogre::BoneData *,std::allocator<Ogre::BoneData *> >::~vector<Ogre::BoneData *,std::allocator<Ogre::BoneData *> >
	mov	DWORD PTR __$EHRec$[ebp+8], -1
	mov	ecx, DWORD PTR _this$[ebp]
	call	??1Resource@Ogre@@MAE@XZ		; Ogre::Resource::~Resource
	mov	ecx, DWORD PTR __$EHRec$[ebp]
	mov	DWORD PTR fs:0, ecx
	pop	ecx
	mov	esp, ebp
	pop	ebp
	ret	0
_TEXT	ENDS
text$x	SEGMENT
__unwindfunclet$??1SkeletonData@Ogre@@MAE@XZ$0:
	mov	ecx, DWORD PTR _this$[ebp]
	jmp	??1Resource@Ogre@@MAE@XZ		; Ogre::Resource::~Resource
__unwindfunclet$??1SkeletonData@Ogre@@MAE@XZ$1:
	mov	ecx, DWORD PTR _this$[ebp]
	add	ecx, 16					; 00000010H
	jmp	??1?$vector@PAVBoneData@Ogre@@V?$allocator@PAVBoneData@Ogre@@@std@@@std@@QAE@XZ ; std::vector<Ogre::BoneData *,std::allocator<Ogre::BoneData *> >::~vector<Ogre::BoneData *,std::allocator<Ogre::BoneData *> >
__unwindfunclet$??1SkeletonData@Ogre@@MAE@XZ$2:
	mov	ecx, DWORD PTR _this$[ebp]
	add	ecx, 40					; 00000028H
	jmp	??1?$map@VFixedString@Ogre@@HU?$less@VFixedString@Ogre@@@std@@V?$allocator@U?$pair@$$CBVFixedString@Ogre@@H@std@@@4@@std@@QAE@XZ
__ehhandler$??1SkeletonData@Ogre@@MAE@XZ:
	mov	edx, DWORD PTR [esp+8]
	lea	eax, DWORD PTR [edx+12]
	mov	ecx, DWORD PTR [edx-8]
	xor	ecx, eax
	call	@__security_check_cookie@4
	mov	eax, OFFSET __ehfuncinfo$??1SkeletonData@Ogre@@MAE@XZ
	jmp	___CxxFrameHandler3
text$x	ENDS
??1SkeletonData@Ogre@@MAE@XZ ENDP			; Ogre::SkeletonData::~SkeletonData
PUBLIC	??A?$map@VFixedString@Ogre@@HU?$less@VFixedString@Ogre@@@std@@V?$allocator@U?$pair@$$CBVFixedString@Ogre@@H@std@@@4@@std@@QAEAAHABVFixedString@Ogre@@@Z ; std::map<Ogre::FixedString,int,std::less<Ogre::FixedString>,std::allocator<std::pair<Ogre::FixedString const ,int> > >::operator[]
PUBLIC	??8const_iterator@?$_Tree@V?$_Tmap_traits@VFixedString@Ogre@@HU?$less@VFixedString@Ogre@@@std@@V?$allocator@U?$pair@$$CBVFixedString@Ogre@@H@std@@@4@$0A@@std@@@std@@QBE_NABV012@@Z ; std::_Tree<std::_Tmap_traits<Ogre::FixedString,int,std::less<Ogre::FixedString>,std::allocator<std::pair<Ogre::FixedString const ,int> >,0> >::const_iterator::operator==
PUBLIC	?find@?$_Tree@V?$_Tmap_traits@VFixedString@Ogre@@HU?$less@VFixedString@Ogre@@@std@@V?$allocator@U?$pair@$$CBVFixedString@Ogre@@H@std@@@4@$0A@@std@@@std@@QAE?AViterator@12@ABVFixedString@Ogre@@@Z ; std::_Tree<std::_Tmap_traits<Ogre::FixedString,int,std::less<Ogre::FixedString>,std::allocator<std::pair<Ogre::FixedString const ,int> >,0> >::find
PUBLIC	?end@?$_Tree@V?$_Tmap_traits@VFixedString@Ogre@@HU?$less@VFixedString@Ogre@@@std@@V?$allocator@U?$pair@$$CBVFixedString@Ogre@@H@std@@@4@$0A@@std@@@std@@QAE?AViterator@12@XZ ; std::_Tree<std::_Tmap_traits<Ogre::FixedString,int,std::less<Ogre::FixedString>,std::allocator<std::pair<Ogre::FixedString const ,int> >,0> >::end
PUBLIC	?findBoneID@SkeletonData@Ogre@@QAEHABVFixedString@2@@Z ; Ogre::SkeletonData::findBoneID
; Function compile flags: /Odtp
_TEXT	SEGMENT
_this$ = -20						; size = 4
$T66527 = -16						; size = 8
$T66526 = -8						; size = 8
_name$ = 8						; size = 4
?findBoneID@SkeletonData@Ogre@@QAEHABVFixedString@2@@Z PROC ; Ogre::SkeletonData::findBoneID
; _this$ = ecx

; 28   : 	{

	push	ebp
	mov	ebp, esp
	sub	esp, 20					; 00000014H
	mov	DWORD PTR _this$[ebp], ecx

; 29   : 		if(m_BoneNameID.find(name) == m_BoneNameID.end()) return -1;

	lea	eax, DWORD PTR $T66527[ebp]
	push	eax
	mov	ecx, DWORD PTR _this$[ebp]
	add	ecx, 40					; 00000028H
	call	?end@?$_Tree@V?$_Tmap_traits@VFixedString@Ogre@@HU?$less@VFixedString@Ogre@@@std@@V?$allocator@U?$pair@$$CBVFixedString@Ogre@@H@std@@@4@$0A@@std@@@std@@QAE?AViterator@12@XZ ; std::_Tree<std::_Tmap_traits<Ogre::FixedString,int,std::less<Ogre::FixedString>,std::allocator<std::pair<Ogre::FixedString const ,int> >,0> >::end
	push	eax
	mov	ecx, DWORD PTR _name$[ebp]
	push	ecx
	lea	edx, DWORD PTR $T66526[ebp]
	push	edx
	mov	ecx, DWORD PTR _this$[ebp]
	add	ecx, 40					; 00000028H
	call	?find@?$_Tree@V?$_Tmap_traits@VFixedString@Ogre@@HU?$less@VFixedString@Ogre@@@std@@V?$allocator@U?$pair@$$CBVFixedString@Ogre@@H@std@@@4@$0A@@std@@@std@@QAE?AViterator@12@ABVFixedString@Ogre@@@Z ; std::_Tree<std::_Tmap_traits<Ogre::FixedString,int,std::less<Ogre::FixedString>,std::allocator<std::pair<Ogre::FixedString const ,int> >,0> >::find
	mov	ecx, eax
	call	??8const_iterator@?$_Tree@V?$_Tmap_traits@VFixedString@Ogre@@HU?$less@VFixedString@Ogre@@@std@@V?$allocator@U?$pair@$$CBVFixedString@Ogre@@H@std@@@4@$0A@@std@@@std@@QBE_NABV012@@Z ; std::_Tree<std::_Tmap_traits<Ogre::FixedString,int,std::less<Ogre::FixedString>,std::allocator<std::pair<Ogre::FixedString const ,int> >,0> >::const_iterator::operator==
	movzx	eax, al
	test	eax, eax
	je	SHORT $LN2@findBoneID
	or	eax, -1
	jmp	SHORT $LN3@findBoneID
	jmp	SHORT $LN3@findBoneID
$LN2@findBoneID:

; 30   : 		else return m_BoneNameID[name];

	mov	ecx, DWORD PTR _name$[ebp]
	push	ecx
	mov	ecx, DWORD PTR _this$[ebp]
	add	ecx, 40					; 00000028H
	call	??A?$map@VFixedString@Ogre@@HU?$less@VFixedString@Ogre@@@std@@V?$allocator@U?$pair@$$CBVFixedString@Ogre@@H@std@@@4@@std@@QAEAAHABVFixedString@Ogre@@@Z ; std::map<Ogre::FixedString,int,std::less<Ogre::FixedString>,std::allocator<std::pair<Ogre::FixedString const ,int> > >::operator[]
	mov	eax, DWORD PTR [eax]
$LN3@findBoneID:

; 31   : 	}

	mov	esp, ebp
	pop	ebp
	ret	4
?findBoneID@SkeletonData@Ogre@@QAEHABVFixedString@2@@Z ENDP ; Ogre::SkeletonData::findBoneID
_TEXT	ENDS
PUBLIC	??$?6VBoneData@Ogre@@@Archive@Ogre@@QAEAAV01@AAV?$vector@PAVBoneData@Ogre@@V?$allocator@PAVBoneData@Ogre@@@std@@@std@@@Z ; Ogre::Archive::operator<<<Ogre::BoneData>
; Function compile flags: /Odtp
_TEXT	SEGMENT
_this$ = -12						; size = 4
_pbone$59401 = -8					; size = 4
_i$59397 = -4						; size = 4
_ar$ = 8						; size = 4
_version$ = 12						; size = 4
?_serialize@SkeletonData@Ogre@@EAEXAAVArchive@2@H@Z PROC ; Ogre::SkeletonData::_serialize
; _this$ = ecx

; 34   : 	{

	push	ebp
	mov	ebp, esp
	sub	esp, 12					; 0000000cH
	mov	DWORD PTR _this$[ebp], ecx

; 35   : 		ar << m_BoneTable;

	mov	eax, DWORD PTR _this$[ebp]
	add	eax, 16					; 00000010H
	push	eax
	mov	ecx, DWORD PTR _ar$[ebp]
	call	??$?6VBoneData@Ogre@@@Archive@Ogre@@QAEAAV01@AAV?$vector@PAVBoneData@Ogre@@V?$allocator@PAVBoneData@Ogre@@@std@@@std@@@Z ; Ogre::Archive::operator<<<Ogre::BoneData>

; 36   : 
; 37   : 		if(ar.isLoading())

	mov	ecx, DWORD PTR _ar$[ebp]
	call	?isLoading@Archive@Ogre@@QAE_NXZ	; Ogre::Archive::isLoading
	movzx	ecx, al
	test	ecx, ecx
	je	SHORT $LN5@serialize@2

; 38   : 		{
; 39   : 			for(size_t i=0; i<m_BoneTable.size(); i++)

	mov	DWORD PTR _i$59397[ebp], 0
	jmp	SHORT $LN3@serialize@2
$LN2@serialize@2:
	mov	edx, DWORD PTR _i$59397[ebp]
	add	edx, 1
	mov	DWORD PTR _i$59397[ebp], edx
$LN3@serialize@2:
	mov	ecx, DWORD PTR _this$[ebp]
	add	ecx, 16					; 00000010H
	call	?size@?$vector@PAVBoneData@Ogre@@V?$allocator@PAVBoneData@Ogre@@@std@@@std@@QBEIXZ ; std::vector<Ogre::BoneData *,std::allocator<Ogre::BoneData *> >::size
	cmp	DWORD PTR _i$59397[ebp], eax
	jae	SHORT $LN5@serialize@2

; 40   : 			{
; 41   : 				BoneData *pbone = m_BoneTable[i];

	mov	eax, DWORD PTR _i$59397[ebp]
	push	eax
	mov	ecx, DWORD PTR _this$[ebp]
	add	ecx, 16					; 00000010H
	call	??A?$vector@PAVBoneData@Ogre@@V?$allocator@PAVBoneData@Ogre@@@std@@@std@@QAEAAPAVBoneData@Ogre@@I@Z ; std::vector<Ogre::BoneData *,std::allocator<Ogre::BoneData *> >::operator[]
	mov	ecx, DWORD PTR [eax]
	mov	DWORD PTR _pbone$59401[ebp], ecx

; 42   : 				m_BoneNameID[pbone->m_Name] = pbone->m_ID = (int)i;

	mov	edx, DWORD PTR _pbone$59401[ebp]
	mov	eax, DWORD PTR _i$59397[ebp]
	mov	DWORD PTR [edx+24], eax
	mov	ecx, DWORD PTR _pbone$59401[ebp]
	add	ecx, 16					; 00000010H
	push	ecx
	mov	ecx, DWORD PTR _this$[ebp]
	add	ecx, 40					; 00000028H
	call	??A?$map@VFixedString@Ogre@@HU?$less@VFixedString@Ogre@@@std@@V?$allocator@U?$pair@$$CBVFixedString@Ogre@@H@std@@@4@@std@@QAEAAHABVFixedString@Ogre@@@Z ; std::map<Ogre::FixedString,int,std::less<Ogre::FixedString>,std::allocator<std::pair<Ogre::FixedString const ,int> > >::operator[]
	mov	edx, DWORD PTR _i$59397[ebp]
	mov	DWORD PTR [eax], edx

; 43   : 			}

	jmp	SHORT $LN2@serialize@2
$LN5@serialize@2:

; 44   : 		}
; 45   : 	}

	mov	esp, ebp
	pop	ebp
	ret	8
?_serialize@SkeletonData@Ogre@@EAEXAAVArchive@2@H@Z ENDP ; Ogre::SkeletonData::_serialize
_TEXT	ENDS
PUBLIC	?push_back@?$vector@PAVBoneData@Ogre@@V?$allocator@PAVBoneData@Ogre@@@std@@@std@@QAEXABQAVBoneData@Ogre@@@Z ; std::vector<Ogre::BoneData *,std::allocator<Ogre::BoneData *> >::push_back
PUBLIC	?addBone@SkeletonData@Ogre@@QAEXPAVBoneData@2@@Z ; Ogre::SkeletonData::addBone
; Function compile flags: /Odtp
_TEXT	SEGMENT
_this$ = -8						; size = 4
_id$ = -4						; size = 4
_pbone$ = 8						; size = 4
?addBone@SkeletonData@Ogre@@QAEXPAVBoneData@2@@Z PROC	; Ogre::SkeletonData::addBone
; _this$ = ecx

; 48   : 	{

	push	ebp
	mov	ebp, esp
	sub	esp, 8
	mov	DWORD PTR _this$[ebp], ecx

; 49   : 		size_t id = m_BoneTable.size();

	mov	ecx, DWORD PTR _this$[ebp]
	add	ecx, 16					; 00000010H
	call	?size@?$vector@PAVBoneData@Ogre@@V?$allocator@PAVBoneData@Ogre@@@std@@@std@@QBEIXZ ; std::vector<Ogre::BoneData *,std::allocator<Ogre::BoneData *> >::size
	mov	DWORD PTR _id$[ebp], eax

; 50   : 		assert(pbone->m_ID == (int)id);
; 51   : 
; 52   : 		m_BoneTable.push_back(pbone);

	lea	eax, DWORD PTR _pbone$[ebp]
	push	eax
	mov	ecx, DWORD PTR _this$[ebp]
	add	ecx, 16					; 00000010H
	call	?push_back@?$vector@PAVBoneData@Ogre@@V?$allocator@PAVBoneData@Ogre@@@std@@@std@@QAEXABQAVBoneData@Ogre@@@Z ; std::vector<Ogre::BoneData *,std::allocator<Ogre::BoneData *> >::push_back

; 53   : 		m_BoneNameID[pbone->m_Name] = pbone->m_ID;

	mov	ecx, DWORD PTR _pbone$[ebp]
	add	ecx, 16					; 00000010H
	push	ecx
	mov	ecx, DWORD PTR _this$[ebp]
	add	ecx, 40					; 00000028H
	call	??A?$map@VFixedString@Ogre@@HU?$less@VFixedString@Ogre@@@std@@V?$allocator@U?$pair@$$CBVFixedString@Ogre@@H@std@@@4@@std@@QAEAAHABVFixedString@Ogre@@@Z ; std::map<Ogre::FixedString,int,std::less<Ogre::FixedString>,std::allocator<std::pair<Ogre::FixedString const ,int> > >::operator[]
	mov	edx, DWORD PTR _pbone$[ebp]
	mov	ecx, DWORD PTR [edx+24]
	mov	DWORD PTR [eax], ecx

; 54   : 	}

	mov	esp, ebp
	pop	ebp
	ret	4
?addBone@SkeletonData@Ogre@@QAEXPAVBoneData@2@@Z ENDP	; Ogre::SkeletonData::addBone
_TEXT	ENDS
PUBLIC	??1?$_Vector_val@PAVBoneData@Ogre@@V?$allocator@PAVBoneData@Ogre@@@std@@@std@@QAE@XZ ; std::_Vector_val<Ogre::BoneData *,std::allocator<Ogre::BoneData *> >::~_Vector_val<Ogre::BoneData *,std::allocator<Ogre::BoneData *> >
PUBLIC	?_Buy@?$vector@PAVBoneData@Ogre@@V?$allocator@PAVBoneData@Ogre@@@std@@@std@@IAE_NI@Z ; std::vector<Ogre::BoneData *,std::allocator<Ogre::BoneData *> >::_Buy
PUBLIC	??0?$_Vector_val@PAVBoneData@Ogre@@V?$allocator@PAVBoneData@Ogre@@@std@@@std@@IAE@V?$allocator@PAVBoneData@Ogre@@@1@@Z ; std::_Vector_val<Ogre::BoneData *,std::allocator<Ogre::BoneData *> >::_Vector_val<Ogre::BoneData *,std::allocator<Ogre::BoneData *> >
PUBLIC	??0?$allocator@PAVBoneData@Ogre@@@std@@QAE@XZ	; std::allocator<Ogre::BoneData *>::allocator<Ogre::BoneData *>
;	COMDAT xdata$x
; File d:\program files (x86)\microsoft visual studio 9.0\vc\include\vector
xdata$x	SEGMENT
__unwindtable$??0?$vector@PAVBoneData@Ogre@@V?$allocator@PAVBoneData@Ogre@@@std@@@std@@QAE@XZ DD 0ffffffffH
	DD	FLAT:__unwindfunclet$??0?$vector@PAVBoneData@Ogre@@V?$allocator@PAVBoneData@Ogre@@@std@@@std@@QAE@XZ$0
__ehfuncinfo$??0?$vector@PAVBoneData@Ogre@@V?$allocator@PAVBoneData@Ogre@@@std@@@std@@QAE@XZ DD 019930522H
	DD	01H
	DD	FLAT:__unwindtable$??0?$vector@PAVBoneData@Ogre@@V?$allocator@PAVBoneData@Ogre@@@std@@@std@@QAE@XZ
	DD	2 DUP(00H)
	DD	2 DUP(00H)
	DD	00H
	DD	00H
; Function compile flags: /Odtp
xdata$x	ENDS
;	COMDAT ??0?$vector@PAVBoneData@Ogre@@V?$allocator@PAVBoneData@Ogre@@@std@@@std@@QAE@XZ
_TEXT	SEGMENT
_this$ = -20						; size = 4
$T66531 = -16						; size = 4
__$EHRec$ = -12						; size = 12
??0?$vector@PAVBoneData@Ogre@@V?$allocator@PAVBoneData@Ogre@@@std@@@std@@QAE@XZ PROC ; std::vector<Ogre::BoneData *,std::allocator<Ogre::BoneData *> >::vector<Ogre::BoneData *,std::allocator<Ogre::BoneData *> >, COMDAT
; _this$ = ecx

; 470  : 		{	// construct empty vector

	push	ebp
	mov	ebp, esp
	push	-1
	push	__ehhandler$??0?$vector@PAVBoneData@Ogre@@V?$allocator@PAVBoneData@Ogre@@@std@@@std@@QAE@XZ
	mov	eax, DWORD PTR fs:0
	push	eax
	sub	esp, 8
	mov	eax, DWORD PTR ___security_cookie
	xor	eax, ebp
	push	eax
	lea	eax, DWORD PTR __$EHRec$[ebp]
	mov	DWORD PTR fs:0, eax
	mov	DWORD PTR _this$[ebp], ecx
	push	ecx
	mov	ecx, esp
	mov	DWORD PTR $T66531[ebp], esp
	call	??0?$allocator@PAVBoneData@Ogre@@@std@@QAE@XZ ; std::allocator<Ogre::BoneData *>::allocator<Ogre::BoneData *>
	mov	ecx, DWORD PTR _this$[ebp]
	call	??0?$_Vector_val@PAVBoneData@Ogre@@V?$allocator@PAVBoneData@Ogre@@@std@@@std@@IAE@V?$allocator@PAVBoneData@Ogre@@@1@@Z ; std::_Vector_val<Ogre::BoneData *,std::allocator<Ogre::BoneData *> >::_Vector_val<Ogre::BoneData *,std::allocator<Ogre::BoneData *> >
	mov	DWORD PTR __$EHRec$[ebp+8], 0

; 471  : 		_Buy(0);

	push	0
	mov	ecx, DWORD PTR _this$[ebp]
	call	?_Buy@?$vector@PAVBoneData@Ogre@@V?$allocator@PAVBoneData@Ogre@@@std@@@std@@IAE_NI@Z ; std::vector<Ogre::BoneData *,std::allocator<Ogre::BoneData *> >::_Buy

; 472  : 		}

	mov	DWORD PTR __$EHRec$[ebp+8], -1
	mov	eax, DWORD PTR _this$[ebp]
	mov	ecx, DWORD PTR __$EHRec$[ebp]
	mov	DWORD PTR fs:0, ecx
	pop	ecx
	mov	esp, ebp
	pop	ebp
	ret	0
_TEXT	ENDS
;	COMDAT text$x
text$x	SEGMENT
__unwindfunclet$??0?$vector@PAVBoneData@Ogre@@V?$allocator@PAVBoneData@Ogre@@@std@@@std@@QAE@XZ$0:
	mov	ecx, DWORD PTR _this$[ebp]
	jmp	??1?$_Vector_val@PAVBoneData@Ogre@@V?$allocator@PAVBoneData@Ogre@@@std@@@std@@QAE@XZ
__ehhandler$??0?$vector@PAVBoneData@Ogre@@V?$allocator@PAVBoneData@Ogre@@@std@@@std@@QAE@XZ:
	mov	edx, DWORD PTR [esp+8]
	lea	eax, DWORD PTR [edx+12]
	mov	ecx, DWORD PTR [edx-12]
	xor	ecx, eax
	call	@__security_check_cookie@4
	mov	eax, OFFSET __ehfuncinfo$??0?$vector@PAVBoneData@Ogre@@V?$allocator@PAVBoneData@Ogre@@@std@@@std@@QAE@XZ
	jmp	___CxxFrameHandler3
text$x	ENDS
??0?$vector@PAVBoneData@Ogre@@V?$allocator@PAVBoneData@Ogre@@@std@@@std@@QAE@XZ ENDP ; std::vector<Ogre::BoneData *,std::allocator<Ogre::BoneData *> >::vector<Ogre::BoneData *,std::allocator<Ogre::BoneData *> >
PUBLIC	?_Tidy@?$vector@PAVBoneData@Ogre@@V?$allocator@PAVBoneData@Ogre@@@std@@@std@@IAEXXZ ; std::vector<Ogre::BoneData *,std::allocator<Ogre::BoneData *> >::_Tidy
PUBLIC	??$_Ucopy@V?$_Vector_const_iterator@PAVBoneData@Ogre@@V?$allocator@PAVBoneData@Ogre@@@std@@@std@@@?$vector@PAVBoneData@Ogre@@V?$allocator@PAVBoneData@Ogre@@@std@@@std@@IAEPAPAVBoneData@Ogre@@V?$_Vector_const_iterator@PAVBoneData@Ogre@@V?$allocator@PAVBoneData@Ogre@@@std@@@1@0PAPAV23@@Z ; std::vector<Ogre::BoneData *,std::allocator<Ogre::BoneData *> >::_Ucopy<std::_Vector_const_iterator<Ogre::BoneData *,std::allocator<Ogre::BoneData *> > >
PUBLIC	?begin@?$vector@PAVBoneData@Ogre@@V?$allocator@PAVBoneData@Ogre@@@std@@@std@@QBE?AV?$_Vector_const_iterator@PAVBoneData@Ogre@@V?$allocator@PAVBoneData@Ogre@@@std@@@2@XZ ; std::vector<Ogre::BoneData *,std::allocator<Ogre::BoneData *> >::begin
PUBLIC	?end@?$vector@PAVBoneData@Ogre@@V?$allocator@PAVBoneData@Ogre@@@std@@@std@@QBE?AV?$_Vector_const_iterator@PAVBoneData@Ogre@@V?$allocator@PAVBoneData@Ogre@@@std@@@2@XZ ; std::vector<Ogre::BoneData *,std::allocator<Ogre::BoneData *> >::end
PUBLIC	??0?$allocator@PAVBoneData@Ogre@@@std@@QAE@ABV01@@Z ; std::allocator<Ogre::BoneData *>::allocator<Ogre::BoneData *>
EXTRN	__CxxThrowException@8:PROC
;	COMDAT xdata$x
xdata$x	SEGMENT
__catchsym$??0?$vector@PAVBoneData@Ogre@@V?$allocator@PAVBoneData@Ogre@@@std@@@std@@QAE@ABV01@@Z$3 DD 00H
	DD	00H
	DD	00H
	DD	FLAT:__catch$??0?$vector@PAVBoneData@Ogre@@V?$allocator@PAVBoneData@Ogre@@@std@@@std@@QAE@ABV01@@Z$0
__tryblocktable$??0?$vector@PAVBoneData@Ogre@@V?$allocator@PAVBoneData@Ogre@@@std@@@std@@QAE@ABV01@@Z DD 01H
	DD	01H
	DD	02H
	DD	01H
	DD	FLAT:__catchsym$??0?$vector@PAVBoneData@Ogre@@V?$allocator@PAVBoneData@Ogre@@@std@@@std@@QAE@ABV01@@Z$3
__unwindtable$??0?$vector@PAVBoneData@Ogre@@V?$allocator@PAVBoneData@Ogre@@@std@@@std@@QAE@ABV01@@Z DD 0ffffffffH
	DD	FLAT:__unwindfunclet$??0?$vector@PAVBoneData@Ogre@@V?$allocator@PAVBoneData@Ogre@@@std@@@std@@QAE@ABV01@@Z$2
	DD	00H
	DD	00H
	DD	00H
	DD	00H
__ehfuncinfo$??0?$vector@PAVBoneData@Ogre@@V?$allocator@PAVBoneData@Ogre@@@std@@@std@@QAE@ABV01@@Z DD 019930522H
	DD	03H
	DD	FLAT:__unwindtable$??0?$vector@PAVBoneData@Ogre@@V?$allocator@PAVBoneData@Ogre@@@std@@@std@@QAE@ABV01@@Z
	DD	01H
	DD	FLAT:__tryblocktable$??0?$vector@PAVBoneData@Ogre@@V?$allocator@PAVBoneData@Ogre@@@std@@@std@@QAE@ABV01@@Z
	DD	2 DUP(00H)
	DD	00H
	DD	00H
; Function compile flags: /Odtp
xdata$x	ENDS
;	COMDAT ??0?$vector@PAVBoneData@Ogre@@V?$allocator@PAVBoneData@Ogre@@@std@@@std@@QAE@ABV01@@Z
_TEXT	SEGMENT
_this$ = -40						; size = 4
$T66543 = -36						; size = 8
$T66542 = -28						; size = 8
$T66541 = -20						; size = 4
__$EHRec$ = -16						; size = 16
__Right$ = 8						; size = 4
??0?$vector@PAVBoneData@Ogre@@V?$allocator@PAVBoneData@Ogre@@@std@@@std@@QAE@ABV01@@Z PROC ; std::vector<Ogre::BoneData *,std::allocator<Ogre::BoneData *> >::vector<Ogre::BoneData *,std::allocator<Ogre::BoneData *> >, COMDAT
; _this$ = ecx

; 500  : 		{	// construct by copying _Right

	push	ebp
	mov	ebp, esp
	push	-1
	push	__ehhandler$??0?$vector@PAVBoneData@Ogre@@V?$allocator@PAVBoneData@Ogre@@@std@@@std@@QAE@ABV01@@Z
	mov	eax, DWORD PTR fs:0
	push	eax
	push	ecx
	sub	esp, 24					; 00000018H
	push	ebx
	push	esi
	push	edi
	mov	eax, DWORD PTR ___security_cookie
	xor	eax, ebp
	push	eax
	lea	eax, DWORD PTR __$EHRec$[ebp+4]
	mov	DWORD PTR fs:0, eax
	mov	DWORD PTR __$EHRec$[ebp], esp
	mov	DWORD PTR _this$[ebp], ecx
	mov	eax, DWORD PTR __Right$[ebp]
	add	eax, 8
	push	ecx
	mov	ecx, esp
	mov	DWORD PTR $T66541[ebp], esp
	push	eax
	call	??0?$allocator@PAVBoneData@Ogre@@@std@@QAE@ABV01@@Z ; std::allocator<Ogre::BoneData *>::allocator<Ogre::BoneData *>
	mov	ecx, DWORD PTR _this$[ebp]
	call	??0?$_Vector_val@PAVBoneData@Ogre@@V?$allocator@PAVBoneData@Ogre@@@std@@@std@@IAE@V?$allocator@PAVBoneData@Ogre@@@1@@Z ; std::_Vector_val<Ogre::BoneData *,std::allocator<Ogre::BoneData *> >::_Vector_val<Ogre::BoneData *,std::allocator<Ogre::BoneData *> >
	mov	DWORD PTR __$EHRec$[ebp+12], 0

; 501  : 		if (_Buy(_Right.size()))

	mov	ecx, DWORD PTR __Right$[ebp]
	call	?size@?$vector@PAVBoneData@Ogre@@V?$allocator@PAVBoneData@Ogre@@@std@@@std@@QBEIXZ ; std::vector<Ogre::BoneData *,std::allocator<Ogre::BoneData *> >::size
	push	eax
	mov	ecx, DWORD PTR _this$[ebp]
	call	?_Buy@?$vector@PAVBoneData@Ogre@@V?$allocator@PAVBoneData@Ogre@@@std@@@std@@IAE_NI@Z ; std::vector<Ogre::BoneData *,std::allocator<Ogre::BoneData *> >::_Buy
	movzx	ecx, al
	test	ecx, ecx
	je	SHORT $LN3@vector@12

; 502  : 			_TRY_BEGIN

	mov	BYTE PTR __$EHRec$[ebp+12], 1

; 503  : 			_Mylast = _Ucopy(_Right.begin(), _Right.end(), _Myfirst);

	mov	edx, DWORD PTR _this$[ebp]
	mov	eax, DWORD PTR [edx+12]
	push	eax
	lea	ecx, DWORD PTR $T66542[ebp]
	push	ecx
	mov	ecx, DWORD PTR __Right$[ebp]
	call	?end@?$vector@PAVBoneData@Ogre@@V?$allocator@PAVBoneData@Ogre@@@std@@@std@@QBE?AV?$_Vector_const_iterator@PAVBoneData@Ogre@@V?$allocator@PAVBoneData@Ogre@@@std@@@2@XZ ; std::vector<Ogre::BoneData *,std::allocator<Ogre::BoneData *> >::end
	mov	edx, DWORD PTR [eax+4]
	push	edx
	mov	eax, DWORD PTR [eax]
	push	eax
	lea	ecx, DWORD PTR $T66543[ebp]
	push	ecx
	mov	ecx, DWORD PTR __Right$[ebp]
	call	?begin@?$vector@PAVBoneData@Ogre@@V?$allocator@PAVBoneData@Ogre@@@std@@@std@@QBE?AV?$_Vector_const_iterator@PAVBoneData@Ogre@@V?$allocator@PAVBoneData@Ogre@@@std@@@2@XZ ; std::vector<Ogre::BoneData *,std::allocator<Ogre::BoneData *> >::begin
	mov	edx, DWORD PTR [eax+4]
	push	edx
	mov	eax, DWORD PTR [eax]
	push	eax
	mov	ecx, DWORD PTR _this$[ebp]
	call	??$_Ucopy@V?$_Vector_const_iterator@PAVBoneData@Ogre@@V?$allocator@PAVBoneData@Ogre@@@std@@@std@@@?$vector@PAVBoneData@Ogre@@V?$allocator@PAVBoneData@Ogre@@@std@@@std@@IAEPAPAVBoneData@Ogre@@V?$_Vector_const_iterator@PAVBoneData@Ogre@@V?$allocator@PAVBoneData@Ogre@@@std@@@1@0PAPAV23@@Z ; std::vector<Ogre::BoneData *,std::allocator<Ogre::BoneData *> >::_Ucopy<std::_Vector_const_iterator<Ogre::BoneData *,std::allocator<Ogre::BoneData *> > >
	mov	ecx, DWORD PTR _this$[ebp]
	mov	DWORD PTR [ecx+16], eax
	jmp	SHORT $LN5@vector@12
__catch$??0?$vector@PAVBoneData@Ogre@@V?$allocator@PAVBoneData@Ogre@@@std@@@std@@QAE@ABV01@@Z$0:

; 504  : 			_CATCH_ALL
; 505  : 			_Tidy();

