; Listing generated by Microsoft (R) Optimizing Compiler Version 15.00.30729.01 

	TITLE	i:\svnroot\client\OgreMain\OgreHardwareBuffer.cpp
	.686P
	.XMM
	include listing.inc
	.model	flat

INCLUDELIB MSVCRT
INCLUDELIB OLDNAMES

PUBLIC	?_Value@?$_Is_swap_move@U_Swap_move_tag@std@@@std@@2_NB ; std::_Is_swap_move<std::_Swap_move_tag>::_Value
PUBLIC	?collate@?$_Locbase@H@std@@2HB			; std::_Locbase<int>::collate
PUBLIC	?ctype@?$_Locbase@H@std@@2HB			; std::_Locbase<int>::ctype
PUBLIC	?monetary@?$_Locbase@H@std@@2HB			; std::_Locbase<int>::monetary
PUBLIC	?numeric@?$_Locbase@H@std@@2HB			; std::_Locbase<int>::numeric
PUBLIC	?time@?$_Locbase@H@std@@2HB			; std::_Locbase<int>::time
PUBLIC	?messages@?$_Locbase@H@std@@2HB			; std::_Locbase<int>::messages
PUBLIC	?all@?$_Locbase@H@std@@2HB			; std::_Locbase<int>::all
PUBLIC	?none@?$_Locbase@H@std@@2HB			; std::_Locbase<int>::none
PUBLIC	?skipws@?$_Iosb@H@std@@2W4_Fmtflags@12@B	; std::_Iosb<int>::skipws
PUBLIC	?unitbuf@?$_Iosb@H@std@@2W4_Fmtflags@12@B	; std::_Iosb<int>::unitbuf
PUBLIC	?uppercase@?$_Iosb@H@std@@2W4_Fmtflags@12@B	; std::_Iosb<int>::uppercase
PUBLIC	?showbase@?$_Iosb@H@std@@2W4_Fmtflags@12@B	; std::_Iosb<int>::showbase
PUBLIC	?showpoint@?$_Iosb@H@std@@2W4_Fmtflags@12@B	; std::_Iosb<int>::showpoint
PUBLIC	?showpos@?$_Iosb@H@std@@2W4_Fmtflags@12@B	; std::_Iosb<int>::showpos
PUBLIC	?left@?$_Iosb@H@std@@2W4_Fmtflags@12@B		; std::_Iosb<int>::left
PUBLIC	?right@?$_Iosb@H@std@@2W4_Fmtflags@12@B		; std::_Iosb<int>::right
PUBLIC	?internal@?$_Iosb@H@std@@2W4_Fmtflags@12@B	; std::_Iosb<int>::internal
PUBLIC	?dec@?$_Iosb@H@std@@2W4_Fmtflags@12@B		; std::_Iosb<int>::dec
PUBLIC	?oct@?$_Iosb@H@std@@2W4_Fmtflags@12@B		; std::_Iosb<int>::oct
PUBLIC	?hex@?$_Iosb@H@std@@2W4_Fmtflags@12@B		; std::_Iosb<int>::hex
PUBLIC	?scientific@?$_Iosb@H@std@@2W4_Fmtflags@12@B	; std::_Iosb<int>::scientific
PUBLIC	?fixed@?$_Iosb@H@std@@2W4_Fmtflags@12@B		; std::_Iosb<int>::fixed
PUBLIC	?hexfloat@?$_Iosb@H@std@@2W4_Fmtflags@12@B	; std::_Iosb<int>::hexfloat
PUBLIC	?boolalpha@?$_Iosb@H@std@@2W4_Fmtflags@12@B	; std::_Iosb<int>::boolalpha
PUBLIC	?_Stdio@?$_Iosb@H@std@@2W4_Fmtflags@12@B	; std::_Iosb<int>::_Stdio
PUBLIC	?adjustfield@?$_Iosb@H@std@@2W4_Fmtflags@12@B	; std::_Iosb<int>::adjustfield
PUBLIC	?basefield@?$_Iosb@H@std@@2W4_Fmtflags@12@B	; std::_Iosb<int>::basefield
PUBLIC	?floatfield@?$_Iosb@H@std@@2W4_Fmtflags@12@B	; std::_Iosb<int>::floatfield
PUBLIC	?goodbit@?$_Iosb@H@std@@2W4_Iostate@12@B	; std::_Iosb<int>::goodbit
PUBLIC	?eofbit@?$_Iosb@H@std@@2W4_Iostate@12@B		; std::_Iosb<int>::eofbit
PUBLIC	?failbit@?$_Iosb@H@std@@2W4_Iostate@12@B	; std::_Iosb<int>::failbit
PUBLIC	?badbit@?$_Iosb@H@std@@2W4_Iostate@12@B		; std::_Iosb<int>::badbit
PUBLIC	?_Hardfail@?$_Iosb@H@std@@2W4_Iostate@12@B	; std::_Iosb<int>::_Hardfail
PUBLIC	?in@?$_Iosb@H@std@@2W4_Openmode@12@B		; std::_Iosb<int>::in
PUBLIC	?out@?$_Iosb@H@std@@2W4_Openmode@12@B		; std::_Iosb<int>::out
PUBLIC	?ate@?$_Iosb@H@std@@2W4_Openmode@12@B		; std::_Iosb<int>::ate
PUBLIC	?app@?$_Iosb@H@std@@2W4_Openmode@12@B		; std::_Iosb<int>::app
PUBLIC	?trunc@?$_Iosb@H@std@@2W4_Openmode@12@B		; std::_Iosb<int>::trunc
PUBLIC	?_Nocreate@?$_Iosb@H@std@@2W4_Openmode@12@B	; std::_Iosb<int>::_Nocreate
PUBLIC	?_Noreplace@?$_Iosb@H@std@@2W4_Openmode@12@B	; std::_Iosb<int>::_Noreplace
PUBLIC	?binary@?$_Iosb@H@std@@2W4_Openmode@12@B	; std::_Iosb<int>::binary
PUBLIC	?beg@?$_Iosb@H@std@@2W4_Seekdir@12@B		; std::_Iosb<int>::beg
PUBLIC	?cur@?$_Iosb@H@std@@2W4_Seekdir@12@B		; std::_Iosb<int>::cur
PUBLIC	?end@?$_Iosb@H@std@@2W4_Seekdir@12@B		; std::_Iosb<int>::end
PUBLIC	?value@?$integral_constant@_N$0A@@tr1@std@@2_NB	; std::tr1::integral_constant<bool,0>::value
PUBLIC	?value@?$integral_constant@_N$00@tr1@std@@2_NB	; std::tr1::integral_constant<bool,1>::value
PUBLIC	?ms_Singleton@?$Singleton@VHardwareBufferManager@Ogre@@@Ogre@@1PAVHardwareBufferManager@2@A ; Ogre::Singleton<Ogre::HardwareBufferManager>::ms_Singleton
;	COMDAT ?ms_Singleton@?$Singleton@VHardwareBufferManager@Ogre@@@Ogre@@1PAVHardwareBufferManager@2@A
_BSS	SEGMENT
?ms_Singleton@?$Singleton@VHardwareBufferManager@Ogre@@@Ogre@@1PAVHardwareBufferManager@2@A DD 01H DUP (?) ; Ogre::Singleton<Ogre::HardwareBufferManager>::ms_Singleton
_BSS	ENDS
;	COMDAT ?value@?$integral_constant@_N$00@tr1@std@@2_NB
CONST	SEGMENT
?value@?$integral_constant@_N$00@tr1@std@@2_NB DB 01H	; std::tr1::integral_constant<bool,1>::value
CONST	ENDS
;	COMDAT ?value@?$integral_constant@_N$0A@@tr1@std@@2_NB
CONST	SEGMENT
?value@?$integral_constant@_N$0A@@tr1@std@@2_NB DB 00H	; std::tr1::integral_constant<bool,0>::value
CONST	ENDS
;	COMDAT ?end@?$_Iosb@H@std@@2W4_Seekdir@12@B
CONST	SEGMENT
?end@?$_Iosb@H@std@@2W4_Seekdir@12@B DD 02H		; std::_Iosb<int>::end
CONST	ENDS
;	COMDAT ?cur@?$_Iosb@H@std@@2W4_Seekdir@12@B
CONST	SEGMENT
?cur@?$_Iosb@H@std@@2W4_Seekdir@12@B DD 01H		; std::_Iosb<int>::cur
CONST	ENDS
;	COMDAT ?beg@?$_Iosb@H@std@@2W4_Seekdir@12@B
CONST	SEGMENT
?beg@?$_Iosb@H@std@@2W4_Seekdir@12@B DD 00H		; std::_Iosb<int>::beg
CONST	ENDS
;	COMDAT ?binary@?$_Iosb@H@std@@2W4_Openmode@12@B
CONST	SEGMENT
?binary@?$_Iosb@H@std@@2W4_Openmode@12@B DD 020H	; std::_Iosb<int>::binary
CONST	ENDS
;	COMDAT ?_Noreplace@?$_Iosb@H@std@@2W4_Openmode@12@B
CONST	SEGMENT
?_Noreplace@?$_Iosb@H@std@@2W4_Openmode@12@B DD 080H	; std::_Iosb<int>::_Noreplace
CONST	ENDS
;	COMDAT ?_Nocreate@?$_Iosb@H@std@@2W4_Openmode@12@B
CONST	SEGMENT
?_Nocreate@?$_Iosb@H@std@@2W4_Openmode@12@B DD 040H	; std::_Iosb<int>::_Nocreate
CONST	ENDS
;	COMDAT ?trunc@?$_Iosb@H@std@@2W4_Openmode@12@B
CONST	SEGMENT
?trunc@?$_Iosb@H@std@@2W4_Openmode@12@B DD 010H		; std::_Iosb<int>::trunc
CONST	ENDS
;	COMDAT ?app@?$_Iosb@H@std@@2W4_Openmode@12@B
CONST	SEGMENT
?app@?$_Iosb@H@std@@2W4_Openmode@12@B DD 08H		; std::_Iosb<int>::app
CONST	ENDS
;	COMDAT ?ate@?$_Iosb@H@std@@2W4_Openmode@12@B
CONST	SEGMENT
?ate@?$_Iosb@H@std@@2W4_Openmode@12@B DD 04H		; std::_Iosb<int>::ate
CONST	ENDS
;	COMDAT ?out@?$_Iosb@H@std@@2W4_Openmode@12@B
CONST	SEGMENT
?out@?$_Iosb@H@std@@2W4_Openmode@12@B DD 02H		; std::_Iosb<int>::out
CONST	ENDS
;	COMDAT ?in@?$_Iosb@H@std@@2W4_Openmode@12@B
CONST	SEGMENT
?in@?$_Iosb@H@std@@2W4_Openmode@12@B DD 01H		; std::_Iosb<int>::in
CONST	ENDS
;	COMDAT ?_Hardfail@?$_Iosb@H@std@@2W4_Iostate@12@B
CONST	SEGMENT
?_Hardfail@?$_Iosb@H@std@@2W4_Iostate@12@B DD 010H	; std::_Iosb<int>::_Hardfail
CONST	ENDS
;	COMDAT ?badbit@?$_Iosb@H@std@@2W4_Iostate@12@B
CONST	SEGMENT
?badbit@?$_Iosb@H@std@@2W4_Iostate@12@B DD 04H		; std::_Iosb<int>::badbit
CONST	ENDS
;	COMDAT ?failbit@?$_Iosb@H@std@@2W4_Iostate@12@B
CONST	SEGMENT
?failbit@?$_Iosb@H@std@@2W4_Iostate@12@B DD 02H		; std::_Iosb<int>::failbit
CONST	ENDS
;	COMDAT ?eofbit@?$_Iosb@H@std@@2W4_Iostate@12@B
CONST	SEGMENT
?eofbit@?$_Iosb@H@std@@2W4_Iostate@12@B DD 01H		; std::_Iosb<int>::eofbit
CONST	ENDS
;	COMDAT ?goodbit@?$_Iosb@H@std@@2W4_Iostate@12@B
CONST	SEGMENT
?goodbit@?$_Iosb@H@std@@2W4_Iostate@12@B DD 00H		; std::_Iosb<int>::goodbit
CONST	ENDS
;	COMDAT ?floatfield@?$_Iosb@H@std@@2W4_Fmtflags@12@B
CONST	SEGMENT
?floatfield@?$_Iosb@H@std@@2W4_Fmtflags@12@B DD 03000H	; std::_Iosb<int>::floatfield
CONST	ENDS
;	COMDAT ?basefield@?$_Iosb@H@std@@2W4_Fmtflags@12@B
CONST	SEGMENT
?basefield@?$_Iosb@H@std@@2W4_Fmtflags@12@B DD 0e00H	; std::_Iosb<int>::basefield
CONST	ENDS
;	COMDAT ?adjustfield@?$_Iosb@H@std@@2W4_Fmtflags@12@B
CONST	SEGMENT
?adjustfield@?$_Iosb@H@std@@2W4_Fmtflags@12@B DD 01c0H	; std::_Iosb<int>::adjustfield
CONST	ENDS
;	COMDAT ?_Stdio@?$_Iosb@H@std@@2W4_Fmtflags@12@B
CONST	SEGMENT
?_Stdio@?$_Iosb@H@std@@2W4_Fmtflags@12@B DD 08000H	; std::_Iosb<int>::_Stdio
CONST	ENDS
;	COMDAT ?boolalpha@?$_Iosb@H@std@@2W4_Fmtflags@12@B
CONST	SEGMENT
?boolalpha@?$_Iosb@H@std@@2W4_Fmtflags@12@B DD 04000H	; std::_Iosb<int>::boolalpha
CONST	ENDS
;	COMDAT ?hexfloat@?$_Iosb@H@std@@2W4_Fmtflags@12@B
CONST	SEGMENT
?hexfloat@?$_Iosb@H@std@@2W4_Fmtflags@12@B DD 03000H	; std::_Iosb<int>::hexfloat
CONST	ENDS
;	COMDAT ?fixed@?$_Iosb@H@std@@2W4_Fmtflags@12@B
CONST	SEGMENT
?fixed@?$_Iosb@H@std@@2W4_Fmtflags@12@B DD 02000H	; std::_Iosb<int>::fixed
CONST	ENDS
;	COMDAT ?scientific@?$_Iosb@H@std@@2W4_Fmtflags@12@B
CONST	SEGMENT
?scientific@?$_Iosb@H@std@@2W4_Fmtflags@12@B DD 01000H	; std::_Iosb<int>::scientific
CONST	ENDS
;	COMDAT ?hex@?$_Iosb@H@std@@2W4_Fmtflags@12@B
CONST	SEGMENT
?hex@?$_Iosb@H@std@@2W4_Fmtflags@12@B DD 0800H		; std::_Iosb<int>::hex
CONST	ENDS
;	COMDAT ?oct@?$_Iosb@H@std@@2W4_Fmtflags@12@B
CONST	SEGMENT
?oct@?$_Iosb@H@std@@2W4_Fmtflags@12@B DD 0400H		; std::_Iosb<int>::oct
CONST	ENDS
;	COMDAT ?dec@?$_Iosb@H@std@@2W4_Fmtflags@12@B
CONST	SEGMENT
?dec@?$_Iosb@H@std@@2W4_Fmtflags@12@B DD 0200H		; std::_Iosb<int>::dec
CONST	ENDS
;	COMDAT ?internal@?$_Iosb@H@std@@2W4_Fmtflags@12@B
CONST	SEGMENT
?internal@?$_Iosb@H@std@@2W4_Fmtflags@12@B DD 0100H	; std::_Iosb<int>::internal
CONST	ENDS
;	COMDAT ?right@?$_Iosb@H@std@@2W4_Fmtflags@12@B
CONST	SEGMENT
?right@?$_Iosb@H@std@@2W4_Fmtflags@12@B DD 080H		; std::_Iosb<int>::right
CONST	ENDS
;	COMDAT ?left@?$_Iosb@H@std@@2W4_Fmtflags@12@B
CONST	SEGMENT
?left@?$_Iosb@H@std@@2W4_Fmtflags@12@B DD 040H		; std::_Iosb<int>::left
CONST	ENDS
;	COMDAT ?showpos@?$_Iosb@H@std@@2W4_Fmtflags@12@B
CONST	SEGMENT
?showpos@?$_Iosb@H@std@@2W4_Fmtflags@12@B DD 020H	; std::_Iosb<int>::showpos
CONST	ENDS
;	COMDAT ?showpoint@?$_Iosb@H@std@@2W4_Fmtflags@12@B
CONST	SEGMENT
?showpoint@?$_Iosb@H@std@@2W4_Fmtflags@12@B DD 010H	; std::_Iosb<int>::showpoint
CONST	ENDS
;	COMDAT ?showbase@?$_Iosb@H@std@@2W4_Fmtflags@12@B
CONST	SEGMENT
?showbase@?$_Iosb@H@std@@2W4_Fmtflags@12@B DD 08H	; std::_Iosb<int>::showbase
CONST	ENDS
;	COMDAT ?uppercase@?$_Iosb@H@std@@2W4_Fmtflags@12@B
CONST	SEGMENT
?uppercase@?$_Iosb@H@std@@2W4_Fmtflags@12@B DD 04H	; std::_Iosb<int>::uppercase
CONST	ENDS
;	COMDAT ?unitbuf@?$_Iosb@H@std@@2W4_Fmtflags@12@B
CONST	SEGMENT
?unitbuf@?$_Iosb@H@std@@2W4_Fmtflags@12@B DD 02H	; std::_Iosb<int>::unitbuf
CONST	ENDS
;	COMDAT ?skipws@?$_Iosb@H@std@@2W4_Fmtflags@12@B
CONST	SEGMENT
?skipws@?$_Iosb@H@std@@2W4_Fmtflags@12@B DD 01H		; std::_Iosb<int>::skipws
CONST	ENDS
;	COMDAT ?none@?$_Locbase@H@std@@2HB
CONST	SEGMENT
?none@?$_Locbase@H@std@@2HB DD 00H			; std::_Locbase<int>::none
CONST	ENDS
;	COMDAT ?all@?$_Locbase@H@std@@2HB
CONST	SEGMENT
?all@?$_Locbase@H@std@@2HB DD 03fH			; std::_Locbase<int>::all
CONST	ENDS
;	COMDAT ?messages@?$_Locbase@H@std@@2HB
CONST	SEGMENT
?messages@?$_Locbase@H@std@@2HB DD 020H			; std::_Locbase<int>::messages
CONST	ENDS
;	COMDAT ?time@?$_Locbase@H@std@@2HB
CONST	SEGMENT
?time@?$_Locbase@H@std@@2HB DD 010H			; std::_Locbase<int>::time
CONST	ENDS
;	COMDAT ?numeric@?$_Locbase@H@std@@2HB
CONST	SEGMENT
?numeric@?$_Locbase@H@std@@2HB DD 08H			; std::_Locbase<int>::numeric
CONST	ENDS
;	COMDAT ?monetary@?$_Locbase@H@std@@2HB
CONST	SEGMENT
?monetary@?$_Locbase@H@std@@2HB DD 04H			; std::_Locbase<int>::monetary
CONST	ENDS
;	COMDAT ?ctype@?$_Locbase@H@std@@2HB
CONST	SEGMENT
?ctype@?$_Locbase@H@std@@2HB DD 02H			; std::_Locbase<int>::ctype
CONST	ENDS
;	COMDAT ?collate@?$_Locbase@H@std@@2HB
CONST	SEGMENT
?collate@?$_Locbase@H@std@@2HB DD 01H			; std::_Locbase<int>::collate
CONST	ENDS
;	COMDAT ?_Value@?$_Is_swap_move@U_Swap_move_tag@std@@@std@@2_NB
CONST	SEGMENT
?_Value@?$_Is_swap_move@U_Swap_move_tag@std@@@std@@2_NB DB 01H ; std::_Is_swap_move<std::_Swap_move_tag>::_Value
CONST	ENDS
_DATA	SEGMENT
__bad_alloc_Message DD FLAT:$SG5714
_DATA	ENDS
CONST	SEGMENT
$SG5714	DB	'bad allocation', 00H
	ORG $+1
_MAX_FLOAT DD	07f7fffffr			; 3.40282e+038
_ONE_PI	DD	040490fd0r			; 3.14159
_EPSILON DD	03727c5acr			; 1e-005
_RADS_PER_DEG DD 03c8efa35r			; 0.0174533
_DEGS_PER_RAD DD 042652ee1r			; 57.2958
CONST	ENDS
PUBLIC	??4MemoryDelegation@Ogre@@QAEAAV01@ABV01@@Z	; Ogre::MemoryDelegation::operator=
; Function compile flags: /Odtp
;	COMDAT ??4MemoryDelegation@Ogre@@QAEAAV01@ABV01@@Z
_TEXT	SEGMENT
_this$ = -4						; size = 4
___that$ = 8						; size = 4
??4MemoryDelegation@Ogre@@QAEAAV01@ABV01@@Z PROC	; Ogre::MemoryDelegation::operator=, COMDAT
; _this$ = ecx
	push	ebp
	mov	ebp, esp
	push	ecx
	mov	DWORD PTR _this$[ebp], ecx
	mov	eax, DWORD PTR _this$[ebp]
	mov	esp, ebp
	pop	ebp
	ret	4
??4MemoryDelegation@Ogre@@QAEAAV01@ABV01@@Z ENDP	; Ogre::MemoryDelegation::operator=
_TEXT	ENDS
PUBLIC	?getBaseClass@RuntimeClass@Ogre@@QBEPBV12@XZ	; Ogre::RuntimeClass::getBaseClass
; Function compile flags: /Odtp
; File i:\svnroot\client\ogremain\ogrebaseobject.h
;	COMDAT ?getBaseClass@RuntimeClass@Ogre@@QBEPBV12@XZ
_TEXT	SEGMENT
_this$ = -4						; size = 4
?getBaseClass@RuntimeClass@Ogre@@QBEPBV12@XZ PROC	; Ogre::RuntimeClass::getBaseClass, COMDAT
; _this$ = ecx

; 20   : 		{

	push	ebp
	mov	ebp, esp
	push	ecx
	mov	DWORD PTR _this$[ebp], ecx

; 21   : 			return m_pBaseClass;

	mov	eax, DWORD PTR _this$[ebp]
	mov	eax, DWORD PTR [eax+4]

; 22   : 		}

	mov	esp, ebp
	pop	ebp
	ret	0
?getBaseClass@RuntimeClass@Ogre@@QBEPBV12@XZ ENDP	; Ogre::RuntimeClass::getBaseClass
_TEXT	ENDS
PUBLIC	?getClassName@RuntimeClass@Ogre@@QBEPBDXZ	; Ogre::RuntimeClass::getClassName
; Function compile flags: /Odtp
;	COMDAT ?getClassName@RuntimeClass@Ogre@@QBEPBDXZ
_TEXT	SEGMENT
_this$ = -4						; size = 4
?getClassName@RuntimeClass@Ogre@@QBEPBDXZ PROC		; Ogre::RuntimeClass::getClassName, COMDAT
; _this$ = ecx

; 25   : 		{

	push	ebp
	mov	ebp, esp
	push	ecx
	mov	DWORD PTR _this$[ebp], ecx

; 26   : 			return m_pClassName; 

	mov	eax, DWORD PTR _this$[ebp]
	mov	eax, DWORD PTR [eax]

; 27   : 		}

	mov	esp, ebp
	pop	ebp
	ret	0
?getClassName@RuntimeClass@Ogre@@QBEPBDXZ ENDP		; Ogre::RuntimeClass::getClassName
_TEXT	ENDS
PUBLIC	?getVersion@RuntimeClass@Ogre@@QBEHXZ		; Ogre::RuntimeClass::getVersion
; Function compile flags: /Odtp
;	COMDAT ?getVersion@RuntimeClass@Ogre@@QBEHXZ
_TEXT	SEGMENT
_this$ = -4						; size = 4
?getVersion@RuntimeClass@Ogre@@QBEHXZ PROC		; Ogre::RuntimeClass::getVersion, COMDAT
; _this$ = ecx

; 30   : 		{

	push	ebp
	mov	ebp, esp
	push	ecx
	mov	DWORD PTR _this$[ebp], ecx

; 31   : 			return m_Version;

	mov	eax, DWORD PTR _this$[ebp]
	mov	eax, DWORD PTR [eax+8]

; 32   : 		}

	mov	esp, ebp
	pop	ebp
	ret	0
?getVersion@RuntimeClass@Ogre@@QBEHXZ ENDP		; Ogre::RuntimeClass::getVersion
_TEXT	ENDS
PUBLIC	?newObject@RuntimeClass@Ogre@@QAEPAVBaseObject@2@XZ ; Ogre::RuntimeClass::newObject
; Function compile flags: /Odtp
;	COMDAT ?newObject@RuntimeClass@Ogre@@QAEPAVBaseObject@2@XZ
_TEXT	SEGMENT
_this$ = -4						; size = 4
?newObject@RuntimeClass@Ogre@@QAEPAVBaseObject@2@XZ PROC ; Ogre::RuntimeClass::newObject, COMDAT
; _this$ = ecx

; 35   : 		{

	push	ebp
	mov	ebp, esp
	push	ecx
	mov	DWORD PTR _this$[ebp], ecx

; 36   : 			return (*m_pNewFunc)();

	mov	eax, DWORD PTR _this$[ebp]
	mov	ecx, DWORD PTR [eax+12]
	call	ecx

; 37   : 		}

	mov	esp, ebp
	pop	ebp
	ret	0
?newObject@RuntimeClass@Ogre@@QAEPAVBaseObject@2@XZ ENDP ; Ogre::RuntimeClass::newObject
_TEXT	ENDS
PUBLIC	??4RuntimeClass@Ogre@@QAEAAV01@ABV01@@Z		; Ogre::RuntimeClass::operator=
; Function compile flags: /Odtp
;	COMDAT ??4RuntimeClass@Ogre@@QAEAAV01@ABV01@@Z
_TEXT	SEGMENT
_this$ = -4						; size = 4
___that$ = 8						; size = 4
??4RuntimeClass@Ogre@@QAEAAV01@ABV01@@Z PROC		; Ogre::RuntimeClass::operator=, COMDAT
; _this$ = ecx
	push	ebp
	mov	ebp, esp
	push	ecx
	mov	DWORD PTR _this$[ebp], ecx
	mov	eax, DWORD PTR ___that$[ebp]
	mov	ecx, DWORD PTR _this$[ebp]
	mov	edx, DWORD PTR [eax]
	mov	DWORD PTR [ecx], edx
	mov	edx, DWORD PTR [eax+4]
	mov	DWORD PTR [ecx+4], edx
	mov	edx, DWORD PTR [eax+8]
	mov	DWORD PTR [ecx+8], edx
	mov	edx, DWORD PTR [eax+12]
	mov	DWORD PTR [ecx+12], edx
	mov	eax, DWORD PTR [eax+16]
	mov	DWORD PTR [ecx+16], eax
	mov	eax, DWORD PTR _this$[ebp]
	mov	esp, ebp
	pop	ebp
	ret	4
??4RuntimeClass@Ogre@@QAEAAV01@ABV01@@Z ENDP		; Ogre::RuntimeClass::operator=
_TEXT	ENDS
PUBLIC	?getRTTI@BaseObject@Ogre@@UBEPBVRuntimeClass@2@XZ ; Ogre::BaseObject::getRTTI
EXTRN	?m_RTTI@BaseObject@Ogre@@2VRuntimeClass@2@B:BYTE ; Ogre::BaseObject::m_RTTI
; Function compile flags: /Odtp
;	COMDAT ?getRTTI@BaseObject@Ogre@@UBEPBVRuntimeClass@2@XZ
_TEXT	SEGMENT
_this$ = -4						; size = 4
?getRTTI@BaseObject@Ogre@@UBEPBVRuntimeClass@2@XZ PROC	; Ogre::BaseObject::getRTTI, COMDAT
; _this$ = ecx

; 56   : 		{

	push	ebp
	mov	ebp, esp
	push	ecx
	mov	DWORD PTR _this$[ebp], ecx

; 57   : 			return &m_RTTI;

	mov	eax, OFFSET ?m_RTTI@BaseObject@Ogre@@2VRuntimeClass@2@B ; Ogre::BaseObject::m_RTTI

; 58   : 		}

	mov	esp, ebp
	pop	ebp
	ret	0
?getRTTI@BaseObject@Ogre@@UBEPBVRuntimeClass@2@XZ ENDP	; Ogre::BaseObject::getRTTI
_TEXT	ENDS
PUBLIC	?isExactKindOf@BaseObject@Ogre@@QBE_NPBVRuntimeClass@2@@Z ; Ogre::BaseObject::isExactKindOf
; Function compile flags: /Odtp
;	COMDAT ?isExactKindOf@BaseObject@Ogre@@QBE_NPBVRuntimeClass@2@@Z
_TEXT	SEGMENT
_this$ = -4						; size = 4
_prtti$ = 8						; size = 4
?isExactKindOf@BaseObject@Ogre@@QBE_NPBVRuntimeClass@2@@Z PROC ; Ogre::BaseObject::isExactKindOf, COMDAT
; _this$ = ecx

; 61   : 		{

	push	ebp
	mov	ebp, esp
	push	ecx
	mov	DWORD PTR _this$[ebp], ecx

; 62   : 			return (getRTTI() == prtti);

	mov	eax, DWORD PTR _this$[ebp]
	mov	edx, DWORD PTR [eax]
	mov	ecx, DWORD PTR _this$[ebp]
	mov	eax, DWORD PTR [edx]
	call	eax
	xor	ecx, ecx
	cmp	eax, DWORD PTR _prtti$[ebp]
	sete	cl
	mov	al, cl

; 63   : 		}

	mov	esp, ebp
	pop	ebp
	ret	4
?isExactKindOf@BaseObject@Ogre@@QBE_NPBVRuntimeClass@2@@Z ENDP ; Ogre::BaseObject::isExactKindOf
_TEXT	ENDS
PUBLIC	?release@BaseObject@Ogre@@UAEXXZ		; Ogre::BaseObject::release
; Function compile flags: /Odtp
;	COMDAT ?release@BaseObject@Ogre@@UAEXXZ
_TEXT	SEGMENT
_this$ = -4						; size = 4
?release@BaseObject@Ogre@@UAEXXZ PROC			; Ogre::BaseObject::release, COMDAT
; _this$ = ecx

; 68   : 		{

	push	ebp
	mov	ebp, esp
	push	ecx
	mov	DWORD PTR _this$[ebp], ecx

; 69   : 			m_RefCount--;

	mov	eax, DWORD PTR _this$[ebp]
	mov	ecx, DWORD PTR [eax+4]
	sub	ecx, 1
	mov	edx, DWORD PTR _this$[ebp]
	mov	DWORD PTR [edx+4], ecx

; 70   : 			if(m_RefCount <= 0 )

	mov	eax, DWORD PTR _this$[ebp]
	cmp	DWORD PTR [eax+4], 0
	jg	SHORT $LN2@release

; 71   : 			{
; 72   : 				deleteThis();

	mov	ecx, DWORD PTR _this$[ebp]
	mov	edx, DWORD PTR [ecx]
	mov	ecx, DWORD PTR _this$[ebp]
	mov	eax, DWORD PTR [edx+24]
	call	eax
$LN2@release:

; 73   : 			}
; 74   : 		}

	mov	esp, ebp
	pop	ebp
	ret	0
?release@BaseObject@Ogre@@UAEXXZ ENDP			; Ogre::BaseObject::release
_TEXT	ENDS
PUBLIC	?addRef@BaseObject@Ogre@@UAEXXZ			; Ogre::BaseObject::addRef
; Function compile flags: /Odtp
;	COMDAT ?addRef@BaseObject@Ogre@@UAEXXZ
_TEXT	SEGMENT
_this$ = -4						; size = 4
?addRef@BaseObject@Ogre@@UAEXXZ PROC			; Ogre::BaseObject::addRef, COMDAT
; _this$ = ecx

; 77   : 		{

	push	ebp
	mov	ebp, esp
	push	ecx
	mov	DWORD PTR _this$[ebp], ecx

; 78   : 			m_RefCount++;

	mov	eax, DWORD PTR _this$[ebp]
	mov	ecx, DWORD PTR [eax+4]
	add	ecx, 1
	mov	edx, DWORD PTR _this$[ebp]
	mov	DWORD PTR [edx+4], ecx

; 79   : 		}

	mov	esp, ebp
	pop	ebp
	ret	0
?addRef@BaseObject@Ogre@@UAEXXZ ENDP			; Ogre::BaseObject::addRef
_TEXT	ENDS
PUBLIC	?getRefCount@BaseObject@Ogre@@UAEHXZ		; Ogre::BaseObject::getRefCount
; Function compile flags: /Odtp
;	COMDAT ?getRefCount@BaseObject@Ogre@@UAEHXZ
_TEXT	SEGMENT
_this$ = -4						; size = 4
?getRefCount@BaseObject@Ogre@@UAEHXZ PROC		; Ogre::BaseObject::getRefCount, COMDAT
; _this$ = ecx

; 82   : 		{

	push	ebp
	mov	ebp, esp
	push	ecx
	mov	DWORD PTR _this$[ebp], ecx

; 83   : 			return m_RefCount;

	mov	eax, DWORD PTR _this$[ebp]
	mov	eax, DWORD PTR [eax+4]

; 84   : 		}

	mov	esp, ebp
	pop	ebp
	ret	0
?getRefCount@BaseObject@Ogre@@UAEHXZ ENDP		; Ogre::BaseObject::getRefCount
_TEXT	ENDS
PUBLIC	?_serialize@BaseObject@Ogre@@UAEXAAVArchive@2@H@Z ; Ogre::BaseObject::_serialize
; Function compile flags: /Odtp
;	COMDAT ?_serialize@BaseObject@Ogre@@UAEXAAVArchive@2@H@Z
_TEXT	SEGMENT
_this$ = -4						; size = 4
_ar$ = 8						; size = 4
_version$ = 12						; size = 4
?_serialize@BaseObject@Ogre@@UAEXAAVArchive@2@H@Z PROC	; Ogre::BaseObject::_serialize, COMDAT
; _this$ = ecx

; 87   : 		{

	push	ebp
	mov	ebp, esp
	push	ecx
	mov	DWORD PTR _this$[ebp], ecx

; 88   : 		}

	mov	esp, ebp
	pop	ebp
	ret	8
?_serialize@BaseObject@Ogre@@UAEXAAVArchive@2@H@Z ENDP	; Ogre::BaseObject::_serialize
_TEXT	ENDS
PUBLIC	??_7BaseObject@Ogre@@6B@			; Ogre::BaseObject::`vftable'
PUBLIC	??0BaseObject@Ogre@@IAE@XZ			; Ogre::BaseObject::BaseObject
PUBLIC	??_R4BaseObject@Ogre@@6B@			; Ogre::BaseObject::`RTTI Complete Object Locator'
PUBLIC	??_R0?AVBaseObject@Ogre@@@8			; Ogre::BaseObject `RTTI Type Descriptor'
PUBLIC	??_R3BaseObject@Ogre@@8				; Ogre::BaseObject::`RTTI Class Hierarchy Descriptor'
PUBLIC	??_R2BaseObject@Ogre@@8				; Ogre::BaseObject::`RTTI Base Class Array'
PUBLIC	??_R1A@?0A@EA@BaseObject@Ogre@@8		; Ogre::BaseObject::`RTTI Base Class Descriptor at (0,-1,0,64)'
PUBLIC	??_R13?0A@EA@MemoryDelegation@Ogre@@8		; Ogre::MemoryDelegation::`RTTI Base Class Descriptor at (4,-1,0,64)'
PUBLIC	??_R0?AVMemoryDelegation@Ogre@@@8		; Ogre::MemoryDelegation `RTTI Type Descriptor'
PUBLIC	??_R3MemoryDelegation@Ogre@@8			; Ogre::MemoryDelegation::`RTTI Class Hierarchy Descriptor'
PUBLIC	??_R2MemoryDelegation@Ogre@@8			; Ogre::MemoryDelegation::`RTTI Base Class Array'
PUBLIC	??_R1A@?0A@EA@MemoryDelegation@Ogre@@8		; Ogre::MemoryDelegation::`RTTI Base Class Descriptor at (0,-1,0,64)'
PUBLIC	??_EBaseObject@Ogre@@MAEPAXI@Z			; Ogre::BaseObject::`vector deleting destructor'
PUBLIC	?deleteThis@BaseObject@Ogre@@MAEXXZ		; Ogre::BaseObject::deleteThis
EXTRN	??_7type_info@@6B@:QWORD			; type_info::`vftable'
;	COMDAT ??_R1A@?0A@EA@MemoryDelegation@Ogre@@8
rdata$r	SEGMENT
??_R1A@?0A@EA@MemoryDelegation@Ogre@@8 DD FLAT:??_R0?AVMemoryDelegation@Ogre@@@8 ; Ogre::MemoryDelegation::`RTTI Base Class Descriptor at (0,-1,0,64)'
	DD	00H
	DD	00H
	DD	0ffffffffH
	DD	00H
	DD	040H
	DD	FLAT:??_R3MemoryDelegation@Ogre@@8
rdata$r	ENDS
;	COMDAT ??_R2MemoryDelegation@Ogre@@8
rdata$r	SEGMENT
??_R2MemoryDelegation@Ogre@@8 DD FLAT:??_R1A@?0A@EA@MemoryDelegation@Ogre@@8 ; Ogre::MemoryDelegation::`RTTI Base Class Array'
rdata$r	ENDS
;	COMDAT ??_R3MemoryDelegation@Ogre@@8
rdata$r	SEGMENT
??_R3MemoryDelegation@Ogre@@8 DD 00H			; Ogre::MemoryDelegation::`RTTI Class Hierarchy Descriptor'
	DD	00H
	DD	01H
	DD	FLAT:??_R2MemoryDelegation@Ogre@@8
rdata$r	ENDS
;	COMDAT ??_R0?AVMemoryDelegation@Ogre@@@8
_DATA	SEGMENT
??_R0?AVMemoryDelegation@Ogre@@@8 DD FLAT:??_7type_info@@6B@ ; Ogre::MemoryDelegation `RTTI Type Descriptor'
	DD	00H
	DB	'.?AVMemoryDelegation@Ogre@@', 00H
_DATA	ENDS
;	COMDAT ??_R13?0A@EA@MemoryDelegation@Ogre@@8
rdata$r	SEGMENT
??_R13?0A@EA@MemoryDelegation@Ogre@@8 DD FLAT:??_R0?AVMemoryDelegation@Ogre@@@8 ; Ogre::MemoryDelegation::`RTTI Base Class Descriptor at (4,-1,0,64)'
	DD	00H
	DD	04H
	DD	0ffffffffH
	DD	00H
	DD	040H
	DD	FLAT:??_R3MemoryDelegation@Ogre@@8
rdata$r	ENDS
;	COMDAT ??_R1A@?0A@EA@BaseObject@Ogre@@8
rdata$r	SEGMENT
??_R1A@?0A@EA@BaseObject@Ogre@@8 DD FLAT:??_R0?AVBaseObject@Ogre@@@8 ; Ogre::BaseObject::`RTTI Base Class Descriptor at (0,-1,0,64)'
	DD	01H
	DD	00H
	DD	0ffffffffH
	DD	00H
	DD	040H
	DD	FLAT:??_R3BaseObject@Ogre@@8
rdata$r	ENDS
;	COMDAT ??_R2BaseObject@Ogre@@8
rdata$r	SEGMENT
??_R2BaseObject@Ogre@@8 DD FLAT:??_R1A@?0A@EA@BaseObject@Ogre@@8 ; Ogre::BaseObject::`RTTI Base Class Array'
	DD	FLAT:??_R13?0A@EA@MemoryDelegation@Ogre@@8
rdata$r	ENDS
;	COMDAT ??_R3BaseObject@Ogre@@8
rdata$r	SEGMENT
??_R3BaseObject@Ogre@@8 DD 00H				; Ogre::BaseObject::`RTTI Class Hierarchy Descriptor'
	DD	00H
	DD	02H
	DD	FLAT:??_R2BaseObject@Ogre@@8
rdata$r	ENDS
;	COMDAT ??_R0?AVBaseObject@Ogre@@@8
_DATA	SEGMENT
??_R0?AVBaseObject@Ogre@@@8 DD FLAT:??_7type_info@@6B@	; Ogre::BaseObject `RTTI Type Descriptor'
	DD	00H
	DB	'.?AVBaseObject@Ogre@@', 00H
_DATA	ENDS
;	COMDAT ??_R4BaseObject@Ogre@@6B@
rdata$r	SEGMENT
??_R4BaseObject@Ogre@@6B@ DD 00H			; Ogre::BaseObject::`RTTI Complete Object Locator'
	DD	00H
	DD	00H
	DD	FLAT:??_R0?AVBaseObject@Ogre@@@8
	DD	FLAT:??_R3BaseObject@Ogre@@8
rdata$r	ENDS
;	COMDAT ??_7BaseObject@Ogre@@6B@
CONST	SEGMENT
??_7BaseObject@Ogre@@6B@ DD FLAT:??_R4BaseObject@Ogre@@6B@ ; Ogre::BaseObject::`vftable'
	DD	FLAT:?getRTTI@BaseObject@Ogre@@UBEPBVRuntimeClass@2@XZ
	DD	FLAT:?release@BaseObject@Ogre@@UAEXXZ
	DD	FLAT:?addRef@BaseObject@Ogre@@UAEXXZ
	DD	FLAT:?getRefCount@BaseObject@Ogre@@UAEHXZ
	DD	FLAT:?_serialize@BaseObject@Ogre@@UAEXAAVArchive@2@H@Z
	DD	FLAT:??_EBaseObject@Ogre@@MAEPAXI@Z
	DD	FLAT:?deleteThis@BaseObject@Ogre@@MAEXXZ
; Function compile flags: /Odtp
CONST	ENDS
;	COMDAT ??0BaseObject@Ogre@@IAE@XZ
_TEXT	SEGMENT
_this$ = -4						; size = 4
??0BaseObject@Ogre@@IAE@XZ PROC				; Ogre::BaseObject::BaseObject, COMDAT
; _this$ = ecx

; 92   : 		{

	push	ebp
	mov	ebp, esp
	push	ecx
	mov	DWORD PTR _this$[ebp], ecx
	mov	eax, DWORD PTR _this$[ebp]
	mov	DWORD PTR [eax], OFFSET ??_7BaseObject@Ogre@@6B@
	mov	ecx, DWORD PTR _this$[ebp]
	mov	DWORD PTR [ecx+4], 1

; 93   : 		}

	mov	eax, DWORD PTR _this$[ebp]
	mov	esp, ebp
	pop	ebp
	ret	0
??0BaseObject@Ogre@@IAE@XZ ENDP				; Ogre::BaseObject::BaseObject
_TEXT	ENDS
PUBLIC	??1BaseObject@Ogre@@MAE@XZ			; Ogre::BaseObject::~BaseObject
; Function compile flags: /Odtp
;	COMDAT ??1BaseObject@Ogre@@MAE@XZ
_TEXT	SEGMENT
_this$ = -4						; size = 4
??1BaseObject@Ogre@@MAE@XZ PROC				; Ogre::BaseObject::~BaseObject, COMDAT
; _this$ = ecx

; 96   : 		{

	push	ebp
	mov	ebp, esp
	push	ecx
	mov	DWORD PTR _this$[ebp], ecx
	mov	eax, DWORD PTR _this$[ebp]
	mov	DWORD PTR [eax], OFFSET ??_7BaseObject@Ogre@@6B@

; 97   : 		}

	mov	esp, ebp
	pop	ebp
	ret	0
??1BaseObject@Ogre@@MAE@XZ ENDP				; Ogre::BaseObject::~BaseObject
; Function compile flags: /Odtp
_TEXT	ENDS
;	COMDAT ?deleteThis@BaseObject@Ogre@@MAEXXZ
_TEXT	SEGMENT
tv70 = -16						; size = 4
_this$ = -12						; size = 4
$T63544 = -8						; size = 4
$T63543 = -4						; size = 4
?deleteThis@BaseObject@Ogre@@MAEXXZ PROC		; Ogre::BaseObject::deleteThis, COMDAT
; _this$ = ecx

; 100  : 		{

	push	ebp
	mov	ebp, esp
	sub	esp, 16					; 00000010H
	mov	DWORD PTR _this$[ebp], ecx

; 101  : 			delete this;

	mov	eax, DWORD PTR _this$[ebp]
	mov	DWORD PTR $T63544[ebp], eax
	mov	ecx, DWORD PTR $T63544[ebp]
	mov	DWORD PTR $T63543[ebp], ecx
	cmp	DWORD PTR $T63543[ebp], 0
	je	SHORT $LN3@deleteThis
	push	1
	mov	edx, DWORD PTR $T63543[ebp]
	mov	eax, DWORD PTR [edx]
	mov	ecx, DWORD PTR $T63543[ebp]
	mov	edx, DWORD PTR [eax+20]
	call	edx
	mov	DWORD PTR tv70[ebp], eax
	jmp	SHORT $LN1@deleteThis
$LN3@deleteThis:
	mov	DWORD PTR tv70[ebp], 0
$LN1@deleteThis:

; 102  : 		}

	mov	esp, ebp
	pop	ebp
	ret	0
?deleteThis@BaseObject@Ogre@@MAEXXZ ENDP		; Ogre::BaseObject::deleteThis
_TEXT	ENDS
PUBLIC	??0BaseObject@Ogre@@QAE@ABV01@@Z		; Ogre::BaseObject::BaseObject
; Function compile flags: /Odtp
;	COMDAT ??0BaseObject@Ogre@@QAE@ABV01@@Z
_TEXT	SEGMENT
tv68 = -8						; size = 4
_this$ = -4						; size = 4
___that$ = 8						; size = 4
??0BaseObject@Ogre@@QAE@ABV01@@Z PROC			; Ogre::BaseObject::BaseObject, COMDAT
; _this$ = ecx
	push	ebp
	mov	ebp, esp
	sub	esp, 8
	mov	DWORD PTR _this$[ebp], ecx
	cmp	DWORD PTR ___that$[ebp], 0
	je	SHORT $LN3@BaseObject
	mov	eax, DWORD PTR ___that$[ebp]
	add	eax, 4
	mov	DWORD PTR tv68[ebp], eax
	jmp	SHORT $LN4@BaseObject
$LN3@BaseObject:
	mov	DWORD PTR tv68[ebp], 0
$LN4@BaseObject:
	mov	ecx, DWORD PTR _this$[ebp]
	mov	DWORD PTR [ecx], OFFSET ??_7BaseObject@Ogre@@6B@
	mov	edx, DWORD PTR _this$[ebp]
	mov	eax, DWORD PTR ___that$[ebp]
	mov	ecx, DWORD PTR [eax+4]
	mov	DWORD PTR [edx+4], ecx
	mov	eax, DWORD PTR _this$[ebp]
	mov	esp, ebp
	pop	ebp
	ret	4
??0BaseObject@Ogre@@QAE@ABV01@@Z ENDP			; Ogre::BaseObject::BaseObject
_TEXT	ENDS
PUBLIC	??4BaseObject@Ogre@@QAEAAV01@ABV01@@Z		; Ogre::BaseObject::operator=
; Function compile flags: /Odtp
;	COMDAT ??4BaseObject@Ogre@@QAEAAV01@ABV01@@Z
_TEXT	SEGMENT
_this$ = -4						; size = 4
___that$ = 8						; size = 4
??4BaseObject@Ogre@@QAEAAV01@ABV01@@Z PROC		; Ogre::BaseObject::operator=, COMDAT
; _this$ = ecx
	push	ebp
	mov	ebp, esp
	push	ecx
	mov	DWORD PTR _this$[ebp], ecx
	mov	eax, DWORD PTR _this$[ebp]
	mov	ecx, DWORD PTR ___that$[ebp]
	mov	edx, DWORD PTR [ecx+4]
	mov	DWORD PTR [eax+4], edx
	mov	eax, DWORD PTR _this$[ebp]
	mov	esp, ebp
	pop	ebp
	ret	4
??4BaseObject@Ogre@@QAEAAV01@ABV01@@Z ENDP		; Ogre::BaseObject::operator=
_TEXT	ENDS
PUBLIC	??_GBaseObject@Ogre@@MAEPAXI@Z			; Ogre::BaseObject::`scalar deleting destructor'
EXTRN	??3MemoryDelegation@Ogre@@SAXPAXI@Z:PROC	; Ogre::MemoryDelegation::operator delete
; Function compile flags: /Odtp
;	COMDAT ??_GBaseObject@Ogre@@MAEPAXI@Z
_TEXT	SEGMENT
_this$ = -4						; size = 4
___flags$ = 8						; size = 4
??_GBaseObject@Ogre@@MAEPAXI@Z PROC			; Ogre::BaseObject::`scalar deleting destructor', COMDAT
; _this$ = ecx
	push	ebp
	mov	ebp, esp
	push	ecx
	mov	DWORD PTR _this$[ebp], ecx
	mov	ecx, DWORD PTR _this$[ebp]
	call	??1BaseObject@Ogre@@MAE@XZ		; Ogre::BaseObject::~BaseObject
	mov	eax, DWORD PTR ___flags$[ebp]
	and	eax, 1
	je	SHORT $LN1@scalar
	push	8
	mov	ecx, DWORD PTR _this$[ebp]
	push	ecx
	call	??3MemoryDelegation@Ogre@@SAXPAXI@Z	; Ogre::MemoryDelegation::operator delete
	add	esp, 8
$LN1@scalar:
	mov	eax, DWORD PTR _this$[ebp]
	mov	esp, ebp
	pop	ebp
	ret	4
??_GBaseObject@Ogre@@MAEPAXI@Z ENDP			; Ogre::BaseObject::`scalar deleting destructor'
_TEXT	ENDS
EXTRN	??_VMemoryDelegation@Ogre@@SAXPAXI@Z:PROC	; Ogre::MemoryDelegation::operator delete[]
EXTRN	??_M@YGXPAXIHP6EX0@Z@Z:PROC			; `eh vector destructor iterator'
; Function compile flags: /Odtp
;	COMDAT ??_EBaseObject@Ogre@@MAEPAXI@Z
_TEXT	SEGMENT
_this$ = -4						; size = 4
___flags$ = 8						; size = 4
??_EBaseObject@Ogre@@MAEPAXI@Z PROC			; Ogre::BaseObject::`vector deleting destructor', COMDAT
; _this$ = ecx
	push	ebp
	mov	ebp, esp
	push	ecx
	mov	DWORD PTR _this$[ebp], ecx
	mov	eax, DWORD PTR ___flags$[ebp]
	and	eax, 2
	je	SHORT $LN3@vector
	push	OFFSET ??1BaseObject@Ogre@@MAE@XZ	; Ogre::BaseObject::~BaseObject
	mov	ecx, DWORD PTR _this$[ebp]
	mov	edx, DWORD PTR [ecx-4]
	push	edx
	push	8
	mov	eax, DWORD PTR _this$[ebp]
	push	eax
	call	??_M@YGXPAXIHP6EX0@Z@Z
	mov	ecx, DWORD PTR ___flags$[ebp]
	and	ecx, 1
	je	SHORT $LN2@vector
	push	8
	mov	edx, DWORD PTR _this$[ebp]
	sub	edx, 4
	push	edx
	call	??_VMemoryDelegation@Ogre@@SAXPAXI@Z	; Ogre::MemoryDelegation::operator delete[]
	add	esp, 8
$LN2@vector:
	mov	eax, DWORD PTR _this$[ebp]
	sub	eax, 4
	jmp	SHORT $LN4@vector
$LN3@vector:
	mov	ecx, DWORD PTR _this$[ebp]
	call	??1BaseObject@Ogre@@MAE@XZ		; Ogre::BaseObject::~BaseObject
	mov	eax, DWORD PTR ___flags$[ebp]
	and	eax, 1
	je	SHORT $LN1@vector
	push	8
	mov	ecx, DWORD PTR _this$[ebp]
	push	ecx
	call	??3MemoryDelegation@Ogre@@SAXPAXI@Z	; Ogre::MemoryDelegation::operator delete
	add	esp, 8
$LN1@vector:
	mov	eax, DWORD PTR _this$[ebp]
$LN4@vector:
	mov	esp, ebp
	pop	ebp
	ret	4
??_EBaseObject@Ogre@@MAEPAXI@Z ENDP			; Ogre::BaseObject::`vector deleting destructor'
_TEXT	ENDS
PUBLIC	?handle2Ptr@FixedString@Ogre@@SAPBDPAX@Z	; Ogre::FixedString::handle2Ptr
; Function compile flags: /Odtp
; File i:\svnroot\client\ogremain\ogrefixedstring.h
;	COMDAT ?handle2Ptr@FixedString@Ogre@@SAPBDPAX@Z
_TEXT	SEGMENT
_h$ = 8							; size = 4
?handle2Ptr@FixedString@Ogre@@SAPBDPAX@Z PROC		; Ogre::FixedString::handle2Ptr, COMDAT

; 22   : 		{

	push	ebp
	mov	ebp, esp

; 23   : 			return (const char *)h;

	mov	eax, DWORD PTR _h$[ebp]

; 24   : 		}

	pop	ebp
	ret	0
?handle2Ptr@FixedString@Ogre@@SAPBDPAX@Z ENDP		; Ogre::FixedString::handle2Ptr
_TEXT	ENDS
PUBLIC	??0FixedString@Ogre@@QAE@XZ			; Ogre::FixedString::FixedString
; Function compile flags: /Odtp
;	COMDAT ??0FixedString@Ogre@@QAE@XZ
_TEXT	SEGMENT
_this$ = -4						; size = 4
??0FixedString@Ogre@@QAE@XZ PROC			; Ogre::FixedString::FixedString, COMDAT
; _this$ = ecx

; 27   : 		FixedString() : m_StrHandle(NULL){}

	push	ebp
	mov	ebp, esp
	push	ecx
	mov	DWORD PTR _this$[ebp], ecx
	mov	eax, DWORD PTR _this$[ebp]
	mov	DWORD PTR [eax], 0
	mov	eax, DWORD PTR _this$[ebp]
	mov	esp, ebp
	pop	ebp
	ret	0
??0FixedString@Ogre@@QAE@XZ ENDP			; Ogre::FixedString::FixedString
_TEXT	ENDS
PUBLIC	??0FixedString@Ogre@@QAE@PAX@Z			; Ogre::FixedString::FixedString
EXTRN	?addRef@FixedString@Ogre@@SAXPAX@Z:PROC		; Ogre::FixedString::addRef
; Function compile flags: /Odtp
;	COMDAT ??0FixedString@Ogre@@QAE@PAX@Z
_TEXT	SEGMENT
_this$ = -4						; size = 4
_h$ = 8							; size = 4
??0FixedString@Ogre@@QAE@PAX@Z PROC			; Ogre::FixedString::FixedString, COMDAT
; _this$ = ecx

; 29   : 		{

	push	ebp
	mov	ebp, esp
	push	ecx
	mov	DWORD PTR _this$[ebp], ecx
	mov	eax, DWORD PTR _this$[ebp]
	mov	ecx, DWORD PTR _h$[ebp]
	mov	DWORD PTR [eax], ecx

; 30   : 			addRef(h);

	mov	edx, DWORD PTR _h$[ebp]
	push	edx
	call	?addRef@FixedString@Ogre@@SAXPAX@Z	; Ogre::FixedString::addRef
	add	esp, 4

; 31   : 		}

	mov	eax, DWORD PTR _this$[ebp]
	mov	esp, ebp
	pop	ebp
	ret	4
??0FixedString@Ogre@@QAE@PAX@Z ENDP			; Ogre::FixedString::FixedString
_TEXT	ENDS
PUBLIC	??0FixedString@Ogre@@QAE@ABV01@@Z		; Ogre::FixedString::FixedString
; Function compile flags: /Odtp
;	COMDAT ??0FixedString@Ogre@@QAE@ABV01@@Z
_TEXT	SEGMENT
_this$ = -4						; size = 4
_rhs$ = 8						; size = 4
??0FixedString@Ogre@@QAE@ABV01@@Z PROC			; Ogre::FixedString::FixedString, COMDAT
; _this$ = ecx

; 34   : 		{

	push	ebp
	mov	ebp, esp
	push	ecx
	mov	DWORD PTR _this$[ebp], ecx
	mov	eax, DWORD PTR _this$[ebp]
	mov	ecx, DWORD PTR _rhs$[ebp]
	mov	edx, DWORD PTR [ecx]
	mov	DWORD PTR [eax], edx

; 35   : 			addRef(m_StrHandle);

	mov	eax, DWORD PTR _this$[ebp]
	mov	ecx, DWORD PTR [eax]
	push	ecx
	call	?addRef@FixedString@Ogre@@SAXPAX@Z	; Ogre::FixedString::addRef
	add	esp, 4

; 36   : 		}

	mov	eax, DWORD PTR _this$[ebp]
	mov	esp, ebp
	pop	ebp
	ret	4
??0FixedString@Ogre@@QAE@ABV01@@Z ENDP			; Ogre::FixedString::FixedString
_TEXT	ENDS
PUBLIC	??0FixedString@Ogre@@QAE@PBD@Z			; Ogre::FixedString::FixedString
EXTRN	?insert@FixedString@Ogre@@SAPAXPBDH@Z:PROC	; Ogre::FixedString::insert
; Function compile flags: /Odtp
;	COMDAT ??0FixedString@Ogre@@QAE@PBD@Z
_TEXT	SEGMENT
_this$ = -4						; size = 4
_pstr$ = 8						; size = 4
??0FixedString@Ogre@@QAE@PBD@Z PROC			; Ogre::FixedString::FixedString, COMDAT
; _this$ = ecx

; 38   : 		FixedString(const char *pstr)

	push	ebp
	mov	ebp, esp
	push	ecx
	mov	DWORD PTR _this$[ebp], ecx

; 39   : 		{
; 40   : 			m_StrHandle = insert(pstr); 

	push	-1
	mov	eax, DWORD PTR _pstr$[ebp]
	push	eax
	call	?insert@FixedString@Ogre@@SAPAXPBDH@Z	; Ogre::FixedString::insert
	add	esp, 8
	mov	ecx, DWORD PTR _this$[ebp]
	mov	DWORD PTR [ecx], eax

; 41   : 		}

	mov	eax, DWORD PTR _this$[ebp]
	mov	esp, ebp
	pop	ebp
	ret	4
??0FixedString@Ogre@@QAE@PBD@Z ENDP			; Ogre::FixedString::FixedString
_TEXT	ENDS
PUBLIC	??0FixedString@Ogre@@QAE@PBDI@Z			; Ogre::FixedString::FixedString
; Function compile flags: /Odtp
;	COMDAT ??0FixedString@Ogre@@QAE@PBDI@Z
_TEXT	SEGMENT
_this$ = -4						; size = 4
_pstr$ = 8						; size = 4
_len$ = 12						; size = 4
??0FixedString@Ogre@@QAE@PBDI@Z PROC			; Ogre::FixedString::FixedString, COMDAT
; _this$ = ecx

; 43   : 		FixedString(const char *pstr, size_t len)

	push	ebp
	mov	ebp, esp
	push	ecx
	mov	DWORD PTR _this$[ebp], ecx

; 44   : 		{
; 45   : 			m_StrHandle = insert(pstr, (int)len); 

	mov	eax, DWORD PTR _len$[ebp]
	push	eax
	mov	ecx, DWORD PTR _pstr$[ebp]
	push	ecx
	call	?insert@FixedString@Ogre@@SAPAXPBDH@Z	; Ogre::FixedString::insert
	add	esp, 8
	mov	edx, DWORD PTR _this$[ebp]
	mov	DWORD PTR [edx], eax

; 46   : 		}

	mov	eax, DWORD PTR _this$[ebp]
	mov	esp, ebp
	pop	ebp
	ret	8
??0FixedString@Ogre@@QAE@PBDI@Z ENDP			; Ogre::FixedString::FixedString
_TEXT	ENDS
PUBLIC	??1FixedString@Ogre@@QAE@XZ			; Ogre::FixedString::~FixedString
EXTRN	?release@FixedString@Ogre@@SAXPAX@Z:PROC	; Ogre::FixedString::release
; Function compile flags: /Odtp
;	COMDAT ??1FixedString@Ogre@@QAE@XZ
_TEXT	SEGMENT
_this$ = -4						; size = 4
??1FixedString@Ogre@@QAE@XZ PROC			; Ogre::FixedString::~FixedString, COMDAT
; _this$ = ecx

; 49   : 		{

	push	ebp
	mov	ebp, esp
	push	ecx
	mov	DWORD PTR _this$[ebp], ecx

; 50   : 			release(m_StrHandle); 

	mov	eax, DWORD PTR _this$[ebp]
	mov	ecx, DWORD PTR [eax]
	push	ecx
	call	?release@FixedString@Ogre@@SAXPAX@Z	; Ogre::FixedString::release
	add	esp, 4

; 51   : 		}

	mov	esp, ebp
	pop	ebp
	ret	0
??1FixedString@Ogre@@QAE@XZ ENDP			; Ogre::FixedString::~FixedString
_TEXT	ENDS
PUBLIC	??BFixedString@Ogre@@QBEPBDXZ			; Ogre::FixedString::operator char const *
; Function compile flags: /Odtp
;	COMDAT ??BFixedString@Ogre@@QBEPBDXZ
_TEXT	SEGMENT
_this$ = -4						; size = 4
??BFixedString@Ogre@@QBEPBDXZ PROC			; Ogre::FixedString::operator char const *, COMDAT
; _this$ = ecx

; 54   : 		{

	push	ebp
	mov	ebp, esp
	push	ecx
	mov	DWORD PTR _this$[ebp], ecx

; 55   : 			return handle2Ptr(m_StrHandle);

	mov	eax, DWORD PTR _this$[ebp]
	mov	ecx, DWORD PTR [eax]
	push	ecx
	call	?handle2Ptr@FixedString@Ogre@@SAPBDPAX@Z ; Ogre::FixedString::handle2Ptr
	add	esp, 4

; 56   : 		}

	mov	esp, ebp
	pop	ebp
	ret	0
??BFixedString@Ogre@@QBEPBDXZ ENDP			; Ogre::FixedString::operator char const *
_TEXT	ENDS
PUBLIC	?getHandle@FixedString@Ogre@@QBEPAXXZ		; Ogre::FixedString::getHandle
; Function compile flags: /Odtp
;	COMDAT ?getHandle@FixedString@Ogre@@QBEPAXXZ
_TEXT	SEGMENT
_this$ = -4						; size = 4
?getHandle@FixedString@Ogre@@QBEPAXXZ PROC		; Ogre::FixedString::getHandle, COMDAT
; _this$ = ecx

; 59   : 		{

	push	ebp
	mov	ebp, esp
	push	ecx
	mov	DWORD PTR _this$[ebp], ecx

; 60   : 			return m_StrHandle;

	mov	eax, DWORD PTR _this$[ebp]
	mov	eax, DWORD PTR [eax]

; 61   : 		}

	mov	esp, ebp
	pop	ebp
	ret	0
?getHandle@FixedString@Ogre@@QBEPAXXZ ENDP		; Ogre::FixedString::getHandle
_TEXT	ENDS
PUBLIC	?getRTTI@Resource@Ogre@@UBEPBVRuntimeClass@2@XZ	; Ogre::Resource::getRTTI
EXTRN	?m_RTTI@Resource@Ogre@@2VRuntimeClass@2@B:BYTE	; Ogre::Resource::m_RTTI
; Function compile flags: /Odtp
; File i:\svnroot\client\ogremain\ogreresource.h
;	COMDAT ?getRTTI@Resource@Ogre@@UBEPBVRuntimeClass@2@XZ
_TEXT	SEGMENT
_this$ = -4						; size = 4
?getRTTI@Resource@Ogre@@UBEPBVRuntimeClass@2@XZ PROC	; Ogre::Resource::getRTTI, COMDAT
; _this$ = ecx

; 39   : 		DECLARE_RTTI_VIRTUAL(Resource)

	push	ebp
	mov	ebp, esp
	push	ecx
	mov	DWORD PTR _this$[ebp], ecx
	mov	eax, OFFSET ?m_RTTI@Resource@Ogre@@2VRuntimeClass@2@B ; Ogre::Resource::m_RTTI
	mov	esp, ebp
	pop	ebp
	ret	0
?getRTTI@Resource@Ogre@@UBEPBVRuntimeClass@2@XZ ENDP	; Ogre::Resource::getRTTI
_TEXT	ENDS
PUBLIC	?getResPath@Resource@Ogre@@QAEABVFixedString@2@XZ ; Ogre::Resource::getResPath
; Function compile flags: /Odtp
;	COMDAT ?getResPath@Resource@Ogre@@QAEABVFixedString@2@XZ
_TEXT	SEGMENT
_this$ = -4						; size = 4
?getResPath@Resource@Ogre@@QAEABVFixedString@2@XZ PROC	; Ogre::Resource::getResPath, COMDAT
; _this$ = ecx

; 44   : 		{

	push	ebp
	mov	ebp, esp
	push	ecx
	mov	DWORD PTR _this$[ebp], ecx

; 45   : 			return m_ResPath;

	mov	eax, DWORD PTR _this$[ebp]
	add	eax, 8

; 46   : 		}

	mov	esp, ebp
	pop	ebp
	ret	0
?getResPath@Resource@Ogre@@QAEABVFixedString@2@XZ ENDP	; Ogre::Resource::getResPath
_TEXT	ENDS
PUBLIC	?setResPath@Resource@Ogre@@QAEXABVFixedString@2@@Z ; Ogre::Resource::setResPath
EXTRN	??4FixedString@Ogre@@QAEAAV01@ABV01@@Z:PROC	; Ogre::FixedString::operator=
; Function compile flags: /Odtp
;	COMDAT ?setResPath@Resource@Ogre@@QAEXABVFixedString@2@@Z
_TEXT	SEGMENT
_this$ = -4						; size = 4
_path$ = 8						; size = 4
?setResPath@Resource@Ogre@@QAEXABVFixedString@2@@Z PROC	; Ogre::Resource::setResPath, COMDAT
; _this$ = ecx

; 48   : 		{

	push	ebp
	mov	ebp, esp
	push	ecx
	mov	DWORD PTR _this$[ebp], ecx

; 49   : 			m_ResPath = path;

	mov	eax, DWORD PTR _path$[ebp]
	push	eax
	mov	ecx, DWORD PTR _this$[ebp]
	add	ecx, 8
	call	??4FixedString@Ogre@@QAEAAV01@ABV01@@Z	; Ogre::FixedString::operator=

; 50   : 		}

	mov	esp, ebp
	pop	ebp
	ret	4
?setResPath@Resource@Ogre@@QAEXABVFixedString@2@@Z ENDP	; Ogre::Resource::setResPath
_TEXT	ENDS
PUBLIC	??_7Resource@Ogre@@6B@				; Ogre::Resource::`vftable'
PUBLIC	??0Resource@Ogre@@IAE@XZ			; Ogre::Resource::Resource
PUBLIC	??_R4Resource@Ogre@@6B@				; Ogre::Resource::`RTTI Complete Object Locator'
PUBLIC	??_R0?AVResource@Ogre@@@8			; Ogre::Resource `RTTI Type Descriptor'
PUBLIC	??_R3Resource@Ogre@@8				; Ogre::Resource::`RTTI Class Hierarchy Descriptor'
PUBLIC	??_R2Resource@Ogre@@8				; Ogre::Resource::`RTTI Base Class Array'
PUBLIC	??_R1A@?0A@EA@Resource@Ogre@@8			; Ogre::Resource::`RTTI Base Class Descriptor at (0,-1,0,64)'
PUBLIC	??_EResource@Ogre@@MAEPAXI@Z			; Ogre::Resource::`vector deleting destructor'
EXTRN	___security_cookie:DWORD
EXTRN	___CxxFrameHandler3:PROC
EXTRN	@__security_check_cookie@4:PROC
EXTRN	?release@Resource@Ogre@@UAEXXZ:PROC		; Ogre::Resource::release
EXTRN	?addRef@Resource@Ogre@@UAEXXZ:PROC		; Ogre::Resource::addRef
EXTRN	?getRefCount@Resource@Ogre@@UAEHXZ:PROC		; Ogre::Resource::getRefCount
;	COMDAT ??_R1A@?0A@EA@Resource@Ogre@@8
rdata$r	SEGMENT
??_R1A@?0A@EA@Resource@Ogre@@8 DD FLAT:??_R0?AVResource@Ogre@@@8 ; Ogre::Resource::`RTTI Base Class Descriptor at (0,-1,0,64)'
	DD	02H
	DD	00H
	DD	0ffffffffH
	DD	00H
	DD	040H
	DD	FLAT:??_R3Resource@Ogre@@8
rdata$r	ENDS
;	COMDAT ??_R2Resource@Ogre@@8
rdata$r	SEGMENT
??_R2Resource@Ogre@@8 DD FLAT:??_R1A@?0A@EA@Resource@Ogre@@8 ; Ogre::Resource::`RTTI Base Class Array'
	DD	FLAT:??_R1A@?0A@EA@BaseObject@Ogre@@8
	DD	FLAT:??_R13?0A@EA@MemoryDelegation@Ogre@@8
rdata$r	ENDS
;	COMDAT ??_R3Resource@Ogre@@8
rdata$r	SEGMENT
??_R3Resource@Ogre@@8 DD 00H				; Ogre::Resource::`RTTI Class Hierarchy Descriptor'
	DD	00H
	DD	03H
	DD	FLAT:??_R2Resource@Ogre@@8
rdata$r	ENDS
;	COMDAT ??_R0?AVResource@Ogre@@@8
_DATA	SEGMENT
??_R0?AVResource@Ogre@@@8 DD FLAT:??_7type_info@@6B@	; Ogre::Resource `RTTI Type Descriptor'
	DD	00H
	DB	'.?AVResource@Ogre@@', 00H
_DATA	ENDS
;	COMDAT ??_R4Resource@Ogre@@6B@
rdata$r	SEGMENT
??_R4Resource@Ogre@@6B@ DD 00H				; Ogre::Resource::`RTTI Complete Object Locator'
	DD	00H
	DD	00H
	DD	FLAT:??_R0?AVResource@Ogre@@@8
	DD	FLAT:??_R3Resource@Ogre@@8
rdata$r	ENDS
;	COMDAT ??_7Resource@Ogre@@6B@
CONST	SEGMENT
??_7Resource@Ogre@@6B@ DD FLAT:??_R4Resource@Ogre@@6B@	; Ogre::Resource::`vftable'
	DD	FLAT:?getRTTI@Resource@Ogre@@UBEPBVRuntimeClass@2@XZ
	DD	FLAT:?release@Resource@Ogre@@UAEXXZ
	DD	FLAT:?addRef@Resource@Ogre@@UAEXXZ
	DD	FLAT:?getRefCount@Resource@Ogre@@UAEHXZ
	DD	FLAT:?_serialize@BaseObject@Ogre@@UAEXAAVArchive@2@H@Z
	DD	FLAT:??_EResource@Ogre@@MAEPAXI@Z
	DD	FLAT:?deleteThis@BaseObject@Ogre@@MAEXXZ
CONST	ENDS
;	COMDAT xdata$x
xdata$x	SEGMENT
__unwindtable$??0Resource@Ogre@@IAE@XZ DD 0ffffffffH
	DD	FLAT:__unwindfunclet$??0Resource@Ogre@@IAE@XZ$0
	DD	00H
	DD	FLAT:__unwindfunclet$??0Resource@Ogre@@IAE@XZ$1
__ehfuncinfo$??0Resource@Ogre@@IAE@XZ DD 019930522H
	DD	02H
	DD	FLAT:__unwindtable$??0Resource@Ogre@@IAE@XZ
	DD	2 DUP(00H)
	DD	2 DUP(00H)
	DD	00H
	DD	00H
; Function compile flags: /Odtp
xdata$x	ENDS
;	COMDAT ??0Resource@Ogre@@IAE@XZ
_TEXT	SEGMENT
_this$ = -16						; size = 4
__$EHRec$ = -12						; size = 12
??0Resource@Ogre@@IAE@XZ PROC				; Ogre::Resource::Resource, COMDAT
; _this$ = ecx

; 72   : 		{

	push	ebp
	mov	ebp, esp
	push	-1
	push	__ehhandler$??0Resource@Ogre@@IAE@XZ
	mov	eax, DWORD PTR fs:0
	push	eax
	push	ecx
	mov	eax, DWORD PTR ___security_cookie
	xor	eax, ebp
	push	eax
	lea	eax, DWORD PTR __$EHRec$[ebp]
	mov	DWORD PTR fs:0, eax
	mov	DWORD PTR _this$[ebp], ecx
	mov	ecx, DWORD PTR _this$[ebp]
	call	??0BaseObject@Ogre@@IAE@XZ		; Ogre::BaseObject::BaseObject
	mov	DWORD PTR __$EHRec$[ebp+8], 0
	mov	eax, DWORD PTR _this$[ebp]
	mov	DWORD PTR [eax], OFFSET ??_7Resource@Ogre@@6B@
	mov	ecx, DWORD PTR _this$[ebp]
	add	ecx, 8
	call	??0FixedString@Ogre@@QAE@XZ		; Ogre::FixedString::FixedString
	mov	BYTE PTR __$EHRec$[ebp+8], 1
	mov	ecx, DWORD PTR _this$[ebp]
	mov	DWORD PTR [ecx+12], 1

; 73   : 		}

	mov	DWORD PTR __$EHRec$[ebp+8], -1
	mov	eax, DWORD PTR _this$[ebp]
	mov	ecx, DWORD PTR __$EHRec$[ebp]
	mov	DWORD PTR fs:0, ecx
	pop	ecx
	mov	esp, ebp
	pop	ebp
	ret	0
_TEXT	ENDS
;	COMDAT text$x
text$x	SEGMENT
__unwindfunclet$??0Resource@Ogre@@IAE@XZ$0:
	mov	ecx, DWORD PTR _this$[ebp]
	jmp	??1BaseObject@Ogre@@MAE@XZ		; Ogre::BaseObject::~BaseObject
__unwindfunclet$??0Resource@Ogre@@IAE@XZ$1:
	mov	ecx, DWORD PTR _this$[ebp]
	add	ecx, 8
	jmp	??1FixedString@Ogre@@QAE@XZ		; Ogre::FixedString::~FixedString
__ehhandler$??0Resource@Ogre@@IAE@XZ:
	mov	edx, DWORD PTR [esp+8]
	lea	eax, DWORD PTR [edx+12]
	mov	ecx, DWORD PTR [edx-8]
	xor	ecx, eax
	call	@__security_check_cookie@4
	mov	eax, OFFSET __ehfuncinfo$??0Resource@Ogre@@IAE@XZ
	jmp	___CxxFrameHandler3
text$x	ENDS
??0Resource@Ogre@@IAE@XZ ENDP				; Ogre::Resource::Resource
PUBLIC	??1Resource@Ogre@@MAE@XZ			; Ogre::Resource::~Resource
;	COMDAT xdata$x
xdata$x	SEGMENT
__unwindtable$??1Resource@Ogre@@MAE@XZ DD 0ffffffffH
	DD	FLAT:__unwindfunclet$??1Resource@Ogre@@MAE@XZ$0
	DD	00H
	DD	FLAT:__unwindfunclet$??1Resource@Ogre@@MAE@XZ$1
__ehfuncinfo$??1Resource@Ogre@@MAE@XZ DD 019930522H
	DD	02H
	DD	FLAT:__unwindtable$??1Resource@Ogre@@MAE@XZ
	DD	2 DUP(00H)
	DD	2 DUP(00H)
	DD	00H
	DD	00H
; Function compile flags: /Odtp
xdata$x	ENDS
;	COMDAT ??1Resource@Ogre@@MAE@XZ
_TEXT	SEGMENT
_this$ = -16						; size = 4
__$EHRec$ = -12						; size = 12
??1Resource@Ogre@@MAE@XZ PROC				; Ogre::Resource::~Resource, COMDAT
; _this$ = ecx

; 76   : 		{

	push	ebp
	mov	ebp, esp
	push	-1
	push	__ehhandler$??1Resource@Ogre@@MAE@XZ
	mov	eax, DWORD PTR fs:0
	push	eax
	push	ecx
	mov	eax, DWORD PTR ___security_cookie
	xor	eax, ebp
	push	eax
	lea	eax, DWORD PTR __$EHRec$[ebp]
	mov	DWORD PTR fs:0, eax
	mov	DWORD PTR _this$[ebp], ecx
	mov	eax, DWORD PTR _this$[ebp]
	mov	DWORD PTR [eax], OFFSET ??_7Resource@Ogre@@6B@
	mov	DWORD PTR __$EHRec$[ebp+8], 1

; 77   : 		}

	mov	BYTE PTR __$EHRec$[ebp+8], 0
	mov	ecx, DWORD PTR _this$[ebp]
	add	ecx, 8
	call	??1FixedString@Ogre@@QAE@XZ		; Ogre::FixedString::~FixedString
	mov	DWORD PTR __$EHRec$[ebp+8], -1
	mov	ecx, DWORD PTR _this$[ebp]
	call	??1BaseObject@Ogre@@MAE@XZ		; Ogre::BaseObject::~BaseObject
	mov	ecx, DWORD PTR __$EHRec$[ebp]
	mov	DWORD PTR fs:0, ecx
	pop	ecx
	mov	esp, ebp
	pop	ebp
	ret	0
_TEXT	ENDS
;	COMDAT text$x
text$x	SEGMENT
__unwindfunclet$??1Resource@Ogre@@MAE@XZ$0:
	mov	ecx, DWORD PTR _this$[ebp]
	jmp	??1BaseObject@Ogre@@MAE@XZ		; Ogre::BaseObject::~BaseObject
__unwindfunclet$??1Resource@Ogre@@MAE@XZ$1:
	mov	ecx, DWORD PTR _this$[ebp]
	add	ecx, 8
	jmp	??1FixedString@Ogre@@QAE@XZ		; Ogre::FixedString::~FixedString
__ehhandler$??1Resource@Ogre@@MAE@XZ:
	mov	edx, DWORD PTR [esp+8]
	lea	eax, DWORD PTR [edx+12]
	mov	ecx, DWORD PTR [edx-8]
	xor	ecx, eax
	call	@__security_check_cookie@4
	mov	eax, OFFSET __ehfuncinfo$??1Resource@Ogre@@MAE@XZ
	jmp	___CxxFrameHandler3
text$x	ENDS
??1Resource@Ogre@@MAE@XZ ENDP				; Ogre::Resource::~Resource
PUBLIC	??0Resource@Ogre@@QAE@ABV01@@Z			; Ogre::Resource::Resource
;	COMDAT xdata$x
xdata$x	SEGMENT
__unwindtable$??0Resource@Ogre@@QAE@ABV01@@Z DD 0ffffffffH
	DD	FLAT:__unwindfunclet$??0Resource@Ogre@@QAE@ABV01@@Z$0
	DD	00H
	DD	FLAT:__unwindfunclet$??0Resource@Ogre@@QAE@ABV01@@Z$1
__ehfuncinfo$??0Resource@Ogre@@QAE@ABV01@@Z DD 019930522H
	DD	02H
	DD	FLAT:__unwindtable$??0Resource@Ogre@@QAE@ABV01@@Z
	DD	2 DUP(00H)
	DD	2 DUP(00H)
	DD	00H
	DD	00H
; Function compile flags: /Odtp
xdata$x	ENDS
;	COMDAT ??0Resource@Ogre@@QAE@ABV01@@Z
_TEXT	SEGMENT
_this$ = -16						; size = 4
__$EHRec$ = -12						; size = 12
___that$ = 8						; size = 4
??0Resource@Ogre@@QAE@ABV01@@Z PROC			; Ogre::Resource::Resource, COMDAT
; _this$ = ecx
	push	ebp
	mov	ebp, esp
	push	-1
	push	__ehhandler$??0Resource@Ogre@@QAE@ABV01@@Z
	mov	eax, DWORD PTR fs:0
	push	eax
	push	ecx
	mov	eax, DWORD PTR ___security_cookie
	xor	eax, ebp
	push	eax
	lea	eax, DWORD PTR __$EHRec$[ebp]
	mov	DWORD PTR fs:0, eax
	mov	DWORD PTR _this$[ebp], ecx
	mov	eax, DWORD PTR ___that$[ebp]
	push	eax
	mov	ecx, DWORD PTR _this$[ebp]
	call	??0BaseObject@Ogre@@QAE@ABV01@@Z
	mov	DWORD PTR __$EHRec$[ebp+8], 0
	mov	ecx, DWORD PTR _this$[ebp]
	mov	DWORD PTR [ecx], OFFSET ??_7Resource@Ogre@@6B@
	mov	edx, DWORD PTR ___that$[ebp]
	add	edx, 8
	push	edx
	mov	ecx, DWORD PTR _this$[ebp]
	add	ecx, 8
	call	??0FixedString@Ogre@@QAE@ABV01@@Z	; Ogre::FixedString::FixedString
	mov	BYTE PTR __$EHRec$[ebp+8], 1
	mov	eax, DWORD PTR ___that$[ebp]
	mov	ecx, DWORD PTR [eax+12]
	mov	edx, DWORD PTR _this$[ebp]
	mov	DWORD PTR [edx+12], ecx
	mov	DWORD PTR __$EHRec$[ebp+8], -1
	mov	eax, DWORD PTR _this$[ebp]
	mov	ecx, DWORD PTR __$EHRec$[ebp]
	mov	DWORD PTR fs:0, ecx
	pop	ecx
	mov	esp, ebp
	pop	ebp
	ret	4
_TEXT	ENDS
;	COMDAT text$x
text$x	SEGMENT
__unwindfunclet$??0Resource@Ogre@@QAE@ABV01@@Z$0:
	mov	ecx, DWORD PTR _this$[ebp]
	jmp	??1BaseObject@Ogre@@MAE@XZ		; Ogre::BaseObject::~BaseObject
__unwindfunclet$??0Resource@Ogre@@QAE@ABV01@@Z$1:
	mov	ecx, DWORD PTR _this$[ebp]
	add	ecx, 8
	jmp	??1FixedString@Ogre@@QAE@XZ		; Ogre::FixedString::~FixedString
__ehhandler$??0Resource@Ogre@@QAE@ABV01@@Z:
	mov	edx, DWORD PTR [esp+8]
	lea	eax, DWORD PTR [edx+12]
	mov	ecx, DWORD PTR [edx-8]
	xor	ecx, eax
	call	@__security_check_cookie@4
	mov	eax, OFFSET __ehfuncinfo$??0Resource@Ogre@@QAE@ABV01@@Z
	jmp	___CxxFrameHandler3
text$x	ENDS
??0Resource@Ogre@@QAE@ABV01@@Z ENDP			; Ogre::Resource::Resource
PUBLIC	??4Resource@Ogre@@QAEAAV01@ABV01@@Z		; Ogre::Resource::operator=
; Function compile flags: /Odtp
;	COMDAT ??4Resource@Ogre@@QAEAAV01@ABV01@@Z
_TEXT	SEGMENT
_this$ = -4						; size = 4
___that$ = 8						; size = 4
??4Resource@Ogre@@QAEAAV01@ABV01@@Z PROC		; Ogre::Resource::operator=, COMDAT
; _this$ = ecx
	push	ebp
	mov	ebp, esp
	push	ecx
	mov	DWORD PTR _this$[ebp], ecx
	mov	eax, DWORD PTR ___that$[ebp]
	push	eax
	mov	ecx, DWORD PTR _this$[ebp]
	call	??4BaseObject@Ogre@@QAEAAV01@ABV01@@Z
	mov	ecx, DWORD PTR ___that$[ebp]
	add	ecx, 8
	push	ecx
	mov	ecx, DWORD PTR _this$[ebp]
	add	ecx, 8
	call	??4FixedString@Ogre@@QAEAAV01@ABV01@@Z	; Ogre::FixedString::operator=
	mov	edx, DWORD PTR ___that$[ebp]
	mov	eax, DWORD PTR [edx+12]
	mov	ecx, DWORD PTR _this$[ebp]
	mov	DWORD PTR [ecx+12], eax
	mov	eax, DWORD PTR _this$[ebp]
	mov	esp, ebp
	pop	ebp
	ret	4
??4Resource@Ogre@@QAEAAV01@ABV01@@Z ENDP		; Ogre::Resource::operator=
_TEXT	ENDS
PUBLIC	??_GResource@Ogre@@MAEPAXI@Z			; Ogre::Resource::`scalar deleting destructor'
; Function compile flags: /Odtp
;	COMDAT ??_GResource@Ogre@@MAEPAXI@Z
_TEXT	SEGMENT
_this$ = -4						; size = 4
___flags$ = 8						; size = 4
??_GResource@Ogre@@MAEPAXI@Z PROC			; Ogre::Resource::`scalar deleting destructor', COMDAT
; _this$ = ecx
	push	ebp
	mov	ebp, esp
	push	ecx
	mov	DWORD PTR _this$[ebp], ecx
	mov	ecx, DWORD PTR _this$[ebp]
	call	??1Resource@Ogre@@MAE@XZ		; Ogre::Resource::~Resource
	mov	eax, DWORD PTR ___flags$[ebp]
	and	eax, 1
	je	SHORT $LN1@scalar@2
	push	16					; 00000010H
	mov	ecx, DWORD PTR _this$[ebp]
	push	ecx
	call	??3MemoryDelegation@Ogre@@SAXPAXI@Z	; Ogre::MemoryDelegation::operator delete
	add	esp, 8
$LN1@scalar@2:
	mov	eax, DWORD PTR _this$[ebp]
	mov	esp, ebp
	pop	ebp
	ret	4
??_GResource@Ogre@@MAEPAXI@Z ENDP			; Ogre::Resource::`scalar deleting destructor'
; Function compile flags: /Odtp
_TEXT	ENDS
;	COMDAT ??_EResource@Ogre@@MAEPAXI@Z
_TEXT	SEGMENT
_this$ = -4						; size = 4
___flags$ = 8						; size = 4
??_EResource@Ogre@@MAEPAXI@Z PROC			; Ogre::Resource::`vector deleting destructor', COMDAT
; _this$ = ecx
	push	ebp
	mov	ebp, esp
	push	ecx
	mov	DWORD PTR _this$[ebp], ecx
	mov	eax, DWORD PTR ___flags$[ebp]
	and	eax, 2
	je	SHORT $LN3@vector@2
	push	OFFSET ??1Resource@Ogre@@MAE@XZ		; Ogre::Resource::~Resource
	mov	ecx, DWORD PTR _this$[ebp]
	mov	edx, DWORD PTR [ecx-4]
	push	edx
	push	16					; 00000010H
	mov	eax, DWORD PTR _this$[ebp]
	push	eax
	call	??_M@YGXPAXIHP6EX0@Z@Z
	mov	ecx, DWORD PTR ___flags$[ebp]
	and	ecx, 1
	je	SHORT $LN2@vector@2
	push	16					; 00000010H
	mov	edx, DWORD PTR _this$[ebp]
	sub	edx, 4
	push	edx
	call	??_VMemoryDelegation@Ogre@@SAXPAXI@Z	; Ogre::MemoryDelegation::operator delete[]
	add	esp, 8
$LN2@vector@2:
	mov	eax, DWORD PTR _this$[ebp]
	sub	eax, 4
	jmp	SHORT $LN4@vector@2
$LN3@vector@2:
	mov	ecx, DWORD PTR _this$[ebp]
	call	??1Resource@Ogre@@MAE@XZ		; Ogre::Resource::~Resource
	mov	eax, DWORD PTR ___flags$[ebp]
	and	eax, 1
	je	SHORT $LN1@vector@2
	push	16					; 00000010H
	mov	ecx, DWORD PTR _this$[ebp]
	push	ecx
	call	??3MemoryDelegation@Ogre@@SAXPAXI@Z	; Ogre::MemoryDelegation::operator delete
	add	esp, 8
$LN1@vector@2:
	mov	eax, DWORD PTR _this$[ebp]
$LN4@vector@2:
	mov	esp, ebp
	pop	ebp
	ret	4
??_EResource@Ogre@@MAEPAXI@Z ENDP			; Ogre::Resource::`vector deleting destructor'
_TEXT	ENDS
PUBLIC	?getRTTI@VertexBuffer@Ogre@@UBEPBVRuntimeClass@2@XZ ; Ogre::VertexBuffer::getRTTI
EXTRN	?m_RTTI@VertexBuffer@Ogre@@2VRuntimeClass@2@B:BYTE ; Ogre::VertexBuffer::m_RTTI
; Function compile flags: /Odtp
; File i:\svnroot\client\ogremain\ogrerendertypes.h
;	COMDAT ?getRTTI@VertexBuffer@Ogre@@UBEPBVRuntimeClass@2@XZ
_TEXT	SEGMENT
_this$ = -4						; size = 4
?getRTTI@VertexBuffer@Ogre@@UBEPBVRuntimeClass@2@XZ PROC ; Ogre::VertexBuffer::getRTTI, COMDAT
; _this$ = ecx

; 223  : 		DECLARE_RTTI_VIRTUAL(VertexBuffer)

	push	ebp
	mov	ebp, esp
	push	ecx
	mov	DWORD PTR _this$[ebp], ecx
	mov	eax, OFFSET ?m_RTTI@VertexBuffer@Ogre@@2VRuntimeClass@2@B ; Ogre::VertexBuffer::m_RTTI
	mov	esp, ebp
	pop	ebp
	ret	0
?getRTTI@VertexBuffer@Ogre@@UBEPBVRuntimeClass@2@XZ ENDP ; Ogre::VertexBuffer::getRTTI
_TEXT	ENDS
PUBLIC	??_7VertexBuffer@Ogre@@6B@			; Ogre::VertexBuffer::`vftable'
PUBLIC	??0VertexBuffer@Ogre@@QAE@XZ			; Ogre::VertexBuffer::VertexBuffer
PUBLIC	??_R4VertexBuffer@Ogre@@6B@			; Ogre::VertexBuffer::`RTTI Complete Object Locator'
PUBLIC	??_R0?AVVertexBuffer@Ogre@@@8			; Ogre::VertexBuffer `RTTI Type Descriptor'
PUBLIC	??_R3VertexBuffer@Ogre@@8			; Ogre::VertexBuffer::`RTTI Class Hierarchy Descriptor'
PUBLIC	??_R2VertexBuffer@Ogre@@8			; Ogre::VertexBuffer::`RTTI Base Class Array'
PUBLIC	??_R1A@?0A@EA@VertexBuffer@Ogre@@8		; Ogre::VertexBuffer::`RTTI Base Class Descriptor at (0,-1,0,64)'
PUBLIC	??_EVertexBuffer@Ogre@@UAEPAXI@Z		; Ogre::VertexBuffer::`vector deleting destructor'
EXTRN	__purecall:PROC
;	COMDAT ??_R1A@?0A@EA@VertexBuffer@Ogre@@8
rdata$r	SEGMENT
??_R1A@?0A@EA@VertexBuffer@Ogre@@8 DD FLAT:??_R0?AVVertexBuffer@Ogre@@@8 ; Ogre::VertexBuffer::`RTTI Base Class Descriptor at (0,-1,0,64)'
	DD	03H
	DD	00H
	DD	0ffffffffH
	DD	00H
	DD	040H
	DD	FLAT:??_R3VertexBuffer@Ogre@@8
rdata$r	ENDS
;	COMDAT ??_R2VertexBuffer@Ogre@@8
rdata$r	SEGMENT
??_R2VertexBuffer@Ogre@@8 DD FLAT:??_R1A@?0A@EA@VertexBuffer@Ogre@@8 ; Ogre::VertexBuffer::`RTTI Base Class Array'
	DD	FLAT:??_R1A@?0A@EA@Resource@Ogre@@8
	DD	FLAT:??_R1A@?0A@EA@BaseObject@Ogre@@8
	DD	FLAT:??_R13?0A@EA@MemoryDelegation@Ogre@@8
rdata$r	ENDS
;	COMDAT ??_R3VertexBuffer@Ogre@@8
rdata$r	SEGMENT
??_R3VertexBuffer@Ogre@@8 DD 00H			; Ogre::VertexBuffer::`RTTI Class Hierarchy Descriptor'
	DD	00H
	DD	04H
	DD	FLAT:??_R2VertexBuffer@Ogre@@8
rdata$r	ENDS
;	COMDAT ??_R0?AVVertexBuffer@Ogre@@@8
_DATA	SEGMENT
??_R0?AVVertexBuffer@Ogre@@@8 DD FLAT:??_7type_info@@6B@ ; Ogre::VertexBuffer `RTTI Type Descriptor'
	DD	00H
	DB	'.?AVVertexBuffer@Ogre@@', 00H
_DATA	ENDS
;	COMDAT ??_R4VertexBuffer@Ogre@@6B@
rdata$r	SEGMENT
??_R4VertexBuffer@Ogre@@6B@ DD 00H			; Ogre::VertexBuffer::`RTTI Complete Object Locator'
	DD	00H
	DD	00H
	DD	FLAT:??_R0?AVVertexBuffer@Ogre@@@8
	DD	FLAT:??_R3VertexBuffer@Ogre@@8
rdata$r	ENDS
;	COMDAT ??_7VertexBuffer@Ogre@@6B@
CONST	SEGMENT
??_7VertexBuffer@Ogre@@6B@ DD FLAT:??_R4VertexBuffer@Ogre@@6B@ ; Ogre::VertexBuffer::`vftable'
	DD	FLAT:?getRTTI@VertexBuffer@Ogre@@UBEPBVRuntimeClass@2@XZ
	DD	FLAT:?release@Resource@Ogre@@UAEXXZ
	DD	FLAT:?addRef@Resource@Ogre@@UAEXXZ
	DD	FLAT:?getRefCount@Resource@Ogre@@UAEHXZ
	DD	FLAT:?_serialize@BaseObject@Ogre@@UAEXAAVArchive@2@H@Z
	DD	FLAT:??_EVertexBuffer@Ogre@@UAEPAXI@Z
	DD	FLAT:?deleteThis@BaseObject@Ogre@@MAEXXZ
	DD	FLAT:__purecall
CONST	ENDS
;	COMDAT xdata$x
xdata$x	SEGMENT
__unwindtable$??0VertexBuffer@Ogre@@QAE@XZ DD 0ffffffffH
	DD	FLAT:__unwindfunclet$??0VertexBuffer@Ogre@@QAE@XZ$0
__ehfuncinfo$??0VertexBuffer@Ogre@@QAE@XZ DD 019930522H
	DD	01H
	DD	FLAT:__unwindtable$??0VertexBuffer@Ogre@@QAE@XZ
	DD	2 DUP(00H)
	DD	2 DUP(00H)
	DD	00H
	DD	00H
; Function compile flags: /Odtp
xdata$x	ENDS
;	COMDAT ??0VertexBuffer@Ogre@@QAE@XZ
_TEXT	SEGMENT
_this$ = -16						; size = 4
__$EHRec$ = -12						; size = 12
??0VertexBuffer@Ogre@@QAE@XZ PROC			; Ogre::VertexBuffer::VertexBuffer, COMDAT
; _this$ = ecx
	push	ebp
	mov	ebp, esp
	push	-1
	push	__ehhandler$??0VertexBuffer@Ogre@@QAE@XZ
	mov	eax, DWORD PTR fs:0
	push	eax
	push	ecx
	mov	eax, DWORD PTR ___security_cookie
	xor	eax, ebp
	push	eax
	lea	eax, DWORD PTR __$EHRec$[ebp]
	mov	DWORD PTR fs:0, eax
	mov	DWORD PTR _this$[ebp], ecx
	mov	ecx, DWORD PTR _this$[ebp]
	call	??0Resource@Ogre@@IAE@XZ		; Ogre::Resource::Resource
	mov	DWORD PTR __$EHRec$[ebp+8], 0
	mov	eax, DWORD PTR _this$[ebp]
	mov	DWORD PTR [eax], OFFSET ??_7VertexBuffer@Ogre@@6B@
	mov	DWORD PTR __$EHRec$[ebp+8], -1
	mov	eax, DWORD PTR _this$[ebp]
	mov	ecx, DWORD PTR __$EHRec$[ebp]
	mov	DWORD PTR fs:0, ecx
	pop	ecx
	mov	esp, ebp
	pop	ebp
	ret	0
_TEXT	ENDS
;	COMDAT text$x
text$x	SEGMENT
__unwindfunclet$??0VertexBuffer@Ogre@@QAE@XZ$0:
	mov	ecx, DWORD PTR _this$[ebp]
	jmp	??1Resource@Ogre@@MAE@XZ		; Ogre::Resource::~Resource
__ehhandler$??0VertexBuffer@Ogre@@QAE@XZ:
	mov	edx, DWORD PTR [esp+8]
	lea	eax, DWORD PTR [edx+12]
	mov	ecx, DWORD PTR [edx-8]
	xor	ecx, eax
	call	@__security_check_cookie@4
	mov	eax, OFFSET __ehfuncinfo$??0VertexBuffer@Ogre@@QAE@XZ
	jmp	___CxxFrameHandler3
text$x	ENDS
??0VertexBuffer@Ogre@@QAE@XZ ENDP			; Ogre::VertexBuffer::VertexBuffer
PUBLIC	??1VertexBuffer@Ogre@@UAE@XZ			; Ogre::VertexBuffer::~VertexBuffer
;	COMDAT xdata$x
xdata$x	SEGMENT
__unwindtable$??1VertexBuffer@Ogre@@UAE@XZ DD 0ffffffffH
	DD	FLAT:__unwindfunclet$??1VertexBuffer@Ogre@@UAE@XZ$0
__ehfuncinfo$??1VertexBuffer@Ogre@@UAE@XZ DD 019930522H
	DD	01H
	DD	FLAT:__unwindtable$??1VertexBuffer@Ogre@@UAE@XZ
	DD	2 DUP(00H)
	DD	2 DUP(00H)
	DD	00H
	DD	00H
; Function compile flags: /Odtp
xdata$x	ENDS
;	COMDAT ??1VertexBuffer@Ogre@@UAE@XZ
_TEXT	SEGMENT
_this$ = -16						; size = 4
__$EHRec$ = -12						; size = 12
??1VertexBuffer@Ogre@@UAE@XZ PROC			; Ogre::VertexBuffer::~VertexBuffer, COMDAT
; _this$ = ecx
	push	ebp
	mov	ebp, esp
	push	-1
	push	__ehhandler$??1VertexBuffer@Ogre@@UAE@XZ
	mov	eax, DWORD PTR fs:0
	push	eax
	push	ecx
	mov	eax, DWORD PTR ___security_cookie
	xor	eax, ebp
	push	eax
	lea	eax, DWORD PTR __$EHRec$[ebp]
	mov	DWORD PTR fs:0, eax
	mov	DWORD PTR _this$[ebp], ecx
	mov	DWORD PTR __$EHRec$[ebp+8], 0
	mov	DWORD PTR __$EHRec$[ebp+8], -1
	mov	ecx, DWORD PTR _this$[ebp]
	call	??1Resource@Ogre@@MAE@XZ		; Ogre::Resource::~Resource
	mov	ecx, DWORD PTR __$EHRec$[ebp]
	mov	DWORD PTR fs:0, ecx
	pop	ecx
	mov	esp, ebp
	pop	ebp
	ret	0
_TEXT	ENDS
;	COMDAT text$x
text$x	SEGMENT
__unwindfunclet$??1VertexBuffer@Ogre@@UAE@XZ$0:
	mov	ecx, DWORD PTR _this$[ebp]
	jmp	??1Resource@Ogre@@MAE@XZ		; Ogre::Resource::~Resource
__ehhandler$??1VertexBuffer@Ogre@@UAE@XZ:
	mov	edx, DWORD PTR [esp+8]
	lea	eax, DWORD PTR [edx+12]
	mov	ecx, DWORD PTR [edx-8]
	xor	ecx, eax
	call	@__security_check_cookie@4
	mov	eax, OFFSET __ehfuncinfo$??1VertexBuffer@Ogre@@UAE@XZ
	jmp	___CxxFrameHandler3
text$x	ENDS
??1VertexBuffer@Ogre@@UAE@XZ ENDP			; Ogre::VertexBuffer::~VertexBuffer
PUBLIC	??0VertexBuffer@Ogre@@QAE@ABV01@@Z		; Ogre::VertexBuffer::VertexBuffer
;	COMDAT xdata$x
xdata$x	SEGMENT
__unwindtable$??0VertexBuffer@Ogre@@QAE@ABV01@@Z DD 0ffffffffH
	DD	FLAT:__unwindfunclet$??0VertexBuffer@Ogre@@QAE@ABV01@@Z$0
__ehfuncinfo$??0VertexBuffer@Ogre@@QAE@ABV01@@Z DD 019930522H
	DD	01H
	DD	FLAT:__unwindtable$??0VertexBuffer@Ogre@@QAE@ABV01@@Z
	DD	2 DUP(00H)
	DD	2 DUP(00H)
	DD	00H
	DD	00H
; Function compile flags: /Odtp
xdata$x	ENDS
;	COMDAT ??0VertexBuffer@Ogre@@QAE@ABV01@@Z
_TEXT	SEGMENT
_this$ = -16						; size = 4
__$EHRec$ = -12						; size = 12
___that$ = 8						; size = 4
??0VertexBuffer@Ogre@@QAE@ABV01@@Z PROC			; Ogre::VertexBuffer::VertexBuffer, COMDAT
; _this$ = ecx
	push	ebp
	mov	ebp, esp
	push	-1
	push	__ehhandler$??0VertexBuffer@Ogre@@QAE@ABV01@@Z
	mov	eax, DWORD PTR fs:0
	push	eax
	push	ecx
	mov	eax, DWORD PTR ___security_cookie
	xor	eax, ebp
	push	eax
	lea	eax, DWORD PTR __$EHRec$[ebp]
	mov	DWORD PTR fs:0, eax
	mov	DWORD PTR _this$[ebp], ecx
	mov	eax, DWORD PTR ___that$[ebp]
	push	eax
	mov	ecx, DWORD PTR _this$[ebp]
	call	??0Resource@Ogre@@QAE@ABV01@@Z
	mov	DWORD PTR __$EHRec$[ebp+8], 0
	mov	ecx, DWORD PTR _this$[ebp]
	mov	DWORD PTR [ecx], OFFSET ??_7VertexBuffer@Ogre@@6B@
	mov	DWORD PTR __$EHRec$[ebp+8], -1
	mov	eax, DWORD PTR _this$[ebp]
	mov	ecx, DWORD PTR __$EHRec$[ebp]
	mov	DWORD PTR fs:0, ecx
	pop	ecx
	mov	esp, ebp
	pop	ebp
	ret	4
_TEXT	ENDS
;	COMDAT text$x
text$x	SEGMENT
__unwindfunclet$??0VertexBuffer@Ogre@@QAE@ABV01@@Z$0:
	mov	ecx, DWORD PTR _this$[ebp]
	jmp	??1Resource@Ogre@@MAE@XZ		; Ogre::Resource::~Resource
__ehhandler$??0VertexBuffer@Ogre@@QAE@ABV01@@Z:
	mov	edx, DWORD PTR [esp+8]
	lea	eax, DWORD PTR [edx+12]
	mov	ecx, DWORD PTR [edx-8]
	xor	ecx, eax
	call	@__security_check_cookie@4
	mov	eax, OFFSET __ehfuncinfo$??0VertexBuffer@Ogre@@QAE@ABV01@@Z
	jmp	___CxxFrameHandler3
text$x	ENDS
??0VertexBuffer@Ogre@@QAE@ABV01@@Z ENDP			; Ogre::VertexBuffer::VertexBuffer
PUBLIC	??4VertexBuffer@Ogre@@QAEAAV01@ABV01@@Z		; Ogre::VertexBuffer::operator=
; Function compile flags: /Odtp
;	COMDAT ??4VertexBuffer@Ogre@@QAEAAV01@ABV01@@Z
_TEXT	SEGMENT
_this$ = -4						; size = 4
___that$ = 8						; size = 4
??4VertexBuffer@Ogre@@QAEAAV01@ABV01@@Z PROC		; Ogre::VertexBuffer::operator=, COMDAT
; _this$ = ecx
	push	ebp
	mov	ebp, esp
	push	ecx
	mov	DWORD PTR _this$[ebp], ecx
	mov	eax, DWORD PTR ___that$[ebp]
	push	eax
	mov	ecx, DWORD PTR _this$[ebp]
	call	??4Resource@Ogre@@QAEAAV01@ABV01@@Z
	mov	eax, DWORD PTR _this$[ebp]
	mov	esp, ebp
	pop	ebp
	ret	4
??4VertexBuffer@Ogre@@QAEAAV01@ABV01@@Z ENDP		; Ogre::VertexBuffer::operator=
_TEXT	ENDS
PUBLIC	??_GVertexBuffer@Ogre@@UAEPAXI@Z		; Ogre::VertexBuffer::`scalar deleting destructor'
; Function compile flags: /Odtp
;	COMDAT ??_GVertexBuffer@Ogre@@UAEPAXI@Z
_TEXT	SEGMENT
_this$ = -4						; size = 4
___flags$ = 8						; size = 4
??_GVertexBuffer@Ogre@@UAEPAXI@Z PROC			; Ogre::VertexBuffer::`scalar deleting destructor', COMDAT
; _this$ = ecx
	push	ebp
	mov	ebp, esp
	push	ecx
	mov	DWORD PTR _this$[ebp], ecx
	mov	ecx, DWORD PTR _this$[ebp]
	call	??1VertexBuffer@Ogre@@UAE@XZ
	mov	eax, DWORD PTR ___flags$[ebp]
	and	eax, 1
	je	SHORT $LN1@scalar@3
	push	16					; 00000010H
	mov	ecx, DWORD PTR _this$[ebp]
	push	ecx
	call	??3MemoryDelegation@Ogre@@SAXPAXI@Z	; Ogre::MemoryDelegation::operator delete
	add	esp, 8
$LN1@scalar@3:
	mov	eax, DWORD PTR _this$[ebp]
	mov	esp, ebp
	pop	ebp
	ret	4
??_GVertexBuffer@Ogre@@UAEPAXI@Z ENDP			; Ogre::VertexBuffer::`scalar deleting destructor'
; Function compile flags: /Odtp
_TEXT	ENDS
;	COMDAT ??_EVertexBuffer@Ogre@@UAEPAXI@Z
_TEXT	SEGMENT
_this$ = -4						; size = 4
___flags$ = 8						; size = 4
??_EVertexBuffer@Ogre@@UAEPAXI@Z PROC			; Ogre::VertexBuffer::`vector deleting destructor', COMDAT
; _this$ = ecx
	push	ebp
	mov	ebp, esp
	push	ecx
	mov	DWORD PTR _this$[ebp], ecx
	mov	eax, DWORD PTR ___flags$[ebp]
	and	eax, 2
	je	SHORT $LN3@vector@3
	push	OFFSET ??1VertexBuffer@Ogre@@UAE@XZ
	mov	ecx, DWORD PTR _this$[ebp]
	mov	edx, DWORD PTR [ecx-4]
	push	edx
	push	16					; 00000010H
	mov	eax, DWORD PTR _this$[ebp]
	push	eax
	call	??_M@YGXPAXIHP6EX0@Z@Z
	mov	ecx, DWORD PTR ___flags$[ebp]
	and	ecx, 1
	je	SHORT $LN2@vector@3
	push	16					; 00000010H
	mov	edx, DWORD PTR _this$[ebp]
	sub	edx, 4
	push	edx
	call	??_VMemoryDelegation@Ogre@@SAXPAXI@Z	; Ogre::MemoryDelegation::operator delete[]
	add	esp, 8
$LN2@vector@3:
	mov	eax, DWORD PTR _this$[ebp]
	sub	eax, 4
	jmp	SHORT $LN4@vector@3
$LN3@vector@3:
	mov	ecx, DWORD PTR _this$[ebp]
	call	??1VertexBuffer@Ogre@@UAE@XZ
	mov	eax, DWORD PTR ___flags$[ebp]
	and	eax, 1
	je	SHORT $LN1@vector@3
	push	16					; 00000010H
	mov	ecx, DWORD PTR _this$[ebp]
	push	ecx
	call	??3MemoryDelegation@Ogre@@SAXPAXI@Z	; Ogre::MemoryDelegation::operator delete
	add	esp, 8
$LN1@vector@3:
	mov	eax, DWORD PTR _this$[ebp]
$LN4@vector@3:
	mov	esp, ebp
	pop	ebp
	ret	4
??_EVertexBuffer@Ogre@@UAEPAXI@Z ENDP			; Ogre::VertexBuffer::`vector deleting destructor'
_TEXT	ENDS
PUBLIC	?getRTTI@IndexBuffer@Ogre@@UBEPBVRuntimeClass@2@XZ ; Ogre::IndexBuffer::getRTTI
EXTRN	?m_RTTI@IndexBuffer@Ogre@@2VRuntimeClass@2@B:BYTE ; Ogre::IndexBuffer::m_RTTI
; Function compile flags: /Odtp
;	COMDAT ?getRTTI@IndexBuffer@Ogre@@UBEPBVRuntimeClass@2@XZ
_TEXT	SEGMENT
_this$ = -4						; size = 4
?getRTTI@IndexBuffer@Ogre@@UBEPBVRuntimeClass@2@XZ PROC	; Ogre::IndexBuffer::getRTTI, COMDAT
; _this$ = ecx

; 230  : 		DECLARE_RTTI_VIRTUAL(IndexBuffer)

	push	ebp
	mov	ebp, esp
	push	ecx
	mov	DWORD PTR _this$[ebp], ecx
	mov	eax, OFFSET ?m_RTTI@IndexBuffer@Ogre@@2VRuntimeClass@2@B ; Ogre::IndexBuffer::m_RTTI
	mov	esp, ebp
	pop	ebp
	ret	0
?getRTTI@IndexBuffer@Ogre@@UBEPBVRuntimeClass@2@XZ ENDP	; Ogre::IndexBuffer::getRTTI
_TEXT	ENDS
PUBLIC	?setVertexRange@IndexBuffer@Ogre@@QAEXII@Z	; Ogre::IndexBuffer::setVertexRange
; Function compile flags: /Odtp
;	COMDAT ?setVertexRange@IndexBuffer@Ogre@@QAEXII@Z
_TEXT	SEGMENT
_this$ = -4						; size = 4
_start$ = 8						; size = 4
_num$ = 12						; size = 4
?setVertexRange@IndexBuffer@Ogre@@QAEXII@Z PROC		; Ogre::IndexBuffer::setVertexRange, COMDAT
; _this$ = ecx

; 235  : 		{

	push	ebp
	mov	ebp, esp
	push	ecx
	mov	DWORD PTR _this$[ebp], ecx

; 236  : 			m_RefVertStart = start;

	mov	eax, DWORD PTR _this$[ebp]
	mov	ecx, DWORD PTR _start$[ebp]
	mov	DWORD PTR [eax+16], ecx

; 237  : 			m_RefVertNum = num;

	mov	edx, DWORD PTR _this$[ebp]
	mov	eax, DWORD PTR _num$[ebp]
	mov	DWORD PTR [edx+20], eax

; 238  : 		}

	mov	esp, ebp
	pop	ebp
	ret	8
?setVertexRange@IndexBuffer@Ogre@@QAEXII@Z ENDP		; Ogre::IndexBuffer::setVertexRange
_TEXT	ENDS
PUBLIC	??_7IndexBuffer@Ogre@@6B@			; Ogre::IndexBuffer::`vftable'
PUBLIC	??0IndexBuffer@Ogre@@QAE@XZ			; Ogre::IndexBuffer::IndexBuffer
PUBLIC	??_R4IndexBuffer@Ogre@@6B@			; Ogre::IndexBuffer::`RTTI Complete Object Locator'
PUBLIC	??_R0?AVIndexBuffer@Ogre@@@8			; Ogre::IndexBuffer `RTTI Type Descriptor'
PUBLIC	??_R3IndexBuffer@Ogre@@8			; Ogre::IndexBuffer::`RTTI Class Hierarchy Descriptor'
PUBLIC	??_R2IndexBuffer@Ogre@@8			; Ogre::IndexBuffer::`RTTI Base Class Array'
PUBLIC	??_R1A@?0A@EA@IndexBuffer@Ogre@@8		; Ogre::IndexBuffer::`RTTI Base Class Descriptor at (0,-1,0,64)'
PUBLIC	??_EIndexBuffer@Ogre@@UAEPAXI@Z			; Ogre::IndexBuffer::`vector deleting destructor'
;	COMDAT ??_R1A@?0A@EA@IndexBuffer@Ogre@@8
rdata$r	SEGMENT
??_R1A@?0A@EA@IndexBuffer@Ogre@@8 DD FLAT:??_R0?AVIndexBuffer@Ogre@@@8 ; Ogre::IndexBuffer::`RTTI Base Class Descriptor at (0,-1,0,64)'
	DD	03H
	DD	00H
	DD	0ffffffffH
	DD	00H
	DD	040H
	DD	FLAT:??_R3IndexBuffer@Ogre@@8
rdata$r	ENDS
;	COMDAT ??_R2IndexBuffer@Ogre@@8
rdata$r	SEGMENT
??_R2IndexBuffer@Ogre@@8 DD FLAT:??_R1A@?0A@EA@IndexBuffer@Ogre@@8 ; Ogre::IndexBuffer::`RTTI Base Class Array'
	DD	FLAT:??_R1A@?0A@EA@Resource@Ogre@@8
	DD	FLAT:??_R1A@?0A@EA@BaseObject@Ogre@@8
	DD	FLAT:??_R13?0A@EA@MemoryDelegation@Ogre@@8
rdata$r	ENDS
;	COMDAT ??_R3IndexBuffer@Ogre@@8
rdata$r	SEGMENT
??_R3IndexBuffer@Ogre@@8 DD 00H				; Ogre::IndexBuffer::`RTTI Class Hierarchy Descriptor'
	DD	00H
	DD	04H
	DD	FLAT:??_R2IndexBuffer@Ogre@@8
rdata$r	ENDS
;	COMDAT ??_R0?AVIndexBuffer@Ogre@@@8
_DATA	SEGMENT
??_R0?AVIndexBuffer@Ogre@@@8 DD FLAT:??_7type_info@@6B@	; Ogre::IndexBuffer `RTTI Type Descriptor'
	DD	00H
	DB	'.?AVIndexBuffer@Ogre@@', 00H
_DATA	ENDS
;	COMDAT ??_R4IndexBuffer@Ogre@@6B@
rdata$r	SEGMENT
??_R4IndexBuffer@Ogre@@6B@ DD 00H			; Ogre::IndexBuffer::`RTTI Complete Object Locator'
	DD	00H
	DD	00H
	DD	FLAT:??_R0?AVIndexBuffer@Ogre@@@8
	DD	FLAT:??_R3IndexBuffer@Ogre@@8
rdata$r	ENDS
;	COMDAT ??_7IndexBuffer@Ogre@@6B@
CONST	SEGMENT
??_7IndexBuffer@Ogre@@6B@ DD FLAT:??_R4IndexBuffer@Ogre@@6B@ ; Ogre::IndexBuffer::`vftable'
	DD	FLAT:?getRTTI@IndexBuffer@Ogre@@UBEPBVRuntimeClass@2@XZ
	DD	FLAT:?release@Resource@Ogre@@UAEXXZ
	DD	FLAT:?addRef@Resource@Ogre@@UAEXXZ
	DD	FLAT:?getRefCount@Resource@Ogre@@UAEHXZ
	DD	FLAT:?_serialize@BaseObject@Ogre@@UAEXAAVArchive@2@H@Z
	DD	FLAT:??_EIndexBuffer@Ogre@@UAEPAXI@Z
	DD	FLAT:?deleteThis@BaseObject@Ogre@@MAEXXZ
	DD	FLAT:__purecall
CONST	ENDS
;	COMDAT xdata$x
xdata$x	SEGMENT
__unwindtable$??0IndexBuffer@Ogre@@QAE@XZ DD 0ffffffffH
	DD	FLAT:__unwindfunclet$??0IndexBuffer@Ogre@@QAE@XZ$0
__ehfuncinfo$??0IndexBuffer@Ogre@@QAE@XZ DD 019930522H
	DD	01H
	DD	FLAT:__unwindtable$??0IndexBuffer@Ogre@@QAE@XZ
	DD	2 DUP(00H)
	DD	2 DUP(00H)
	DD	00H
	DD	00H
; Function compile flags: /Odtp
xdata$x	ENDS
;	COMDAT ??0IndexBuffer@Ogre@@QAE@XZ
_TEXT	SEGMENT
_this$ = -16						; size = 4
__$EHRec$ = -12						; size = 12
??0IndexBuffer@Ogre@@QAE@XZ PROC			; Ogre::IndexBuffer::IndexBuffer, COMDAT
; _this$ = ecx
	push	ebp
	mov	ebp, esp
	push	-1
	push	__ehhandler$??0IndexBuffer@Ogre@@QAE@XZ
	mov	eax, DWORD PTR fs:0
	push	eax
	push	ecx
	mov	eax, DWORD PTR ___security_cookie
	xor	eax, ebp
	push	eax
	lea	eax, DWORD PTR __$EHRec$[ebp]
	mov	DWORD PTR fs:0, eax
	mov	DWORD PTR _this$[ebp], ecx
	mov	ecx, DWORD PTR _this$[ebp]
	call	??0Resource@Ogre@@IAE@XZ		; Ogre::Resource::Resource
	mov	DWORD PTR __$EHRec$[ebp+8], 0
	mov	eax, DWORD PTR _this$[ebp]
	mov	DWORD PTR [eax], OFFSET ??_7IndexBuffer@Ogre@@6B@
	mov	DWORD PTR __$EHRec$[ebp+8], -1
	mov	eax, DWORD PTR _this$[ebp]
	mov	ecx, DWORD PTR __$EHRec$[ebp]
	mov	DWORD PTR fs:0, ecx
	pop	ecx
	mov	esp, ebp
	pop	ebp
	ret	0
_TEXT	ENDS
;	COMDAT text$x
text$x	SEGMENT
__unwindfunclet$??0IndexBuffer@Ogre@@QAE@XZ$0:
	mov	ecx, DWORD PTR _this$[ebp]
	jmp	??1Resource@Ogre@@MAE@XZ		; Ogre::Resource::~Resource
__ehhandler$??0IndexBuffer@Ogre@@QAE@XZ:
	mov	edx, DWORD PTR [esp+8]
	lea	eax, DWORD PTR [edx+12]
	mov	ecx, DWORD PTR [edx-8]
	xor	ecx, eax
	call	@__security_check_cookie@4
	mov	eax, OFFSET __ehfuncinfo$??0IndexBuffer@Ogre@@QAE@XZ
	jmp	___CxxFrameHandler3
text$x	ENDS
??0IndexBuffer@Ogre@@QAE@XZ ENDP			; Ogre::IndexBuffer::IndexBuffer
PUBLIC	??1IndexBuffer@Ogre@@UAE@XZ			; Ogre::IndexBuffer::~IndexBuffer
;	COMDAT xdata$x
xdata$x	SEGMENT
__unwindtable$??1IndexBuffer@Ogre@@UAE@XZ DD 0ffffffffH
	DD	FLAT:__unwindfunclet$??1IndexBuffer@Ogre@@UAE@XZ$0
__ehfuncinfo$??1IndexBuffer@Ogre@@UAE@XZ DD 019930522H
	DD	01H
	DD	FLAT:__unwindtable$??1IndexBuffer@Ogre@@UAE@XZ
	DD	2 DUP(00H)
	DD	2 DUP(00H)
	DD	00H
	DD	00H
; Function compile flags: /Odtp
xdata$x	ENDS
;	COMDAT ??1IndexBuffer@Ogre@@UAE@XZ
_TEXT	SEGMENT
_this$ = -16						; size = 4
__$EHRec$ = -12						; size = 12
??1IndexBuffer@Ogre@@UAE@XZ PROC			; Ogre::IndexBuffer::~IndexBuffer, COMDAT
; _this$ = ecx
	push	ebp
	mov	ebp, esp
	push	-1
	push	__ehhandler$??1IndexBuffer@Ogre@@UAE@XZ
	mov	eax, DWORD PTR fs:0
	push	eax
	push	ecx
	mov	eax, DWORD PTR ___security_cookie
	xor	eax, ebp
	push	eax
	lea	eax, DWORD PTR __$EHRec$[ebp]
	mov	DWORD PTR fs:0, eax
	mov	DWORD PTR _this$[ebp], ecx
	mov	DWORD PTR __$EHRec$[ebp+8], 0
	mov	DWORD PTR __$EHRec$[ebp+8], -1
	mov	ecx, DWORD PTR _this$[ebp]
	call	??1Resource@Ogre@@MAE@XZ		; Ogre::Resource::~Resource
	mov	ecx, DWORD PTR __$EHRec$[ebp]
	mov	DWORD PTR fs:0, ecx
	pop	ecx
	mov	esp, ebp
	pop	ebp
	ret	0
_TEXT	ENDS
;	COMDAT text$x
text$x	SEGMENT
__unwindfunclet$??1IndexBuffer@Ogre@@UAE@XZ$0:
	mov	ecx, DWORD PTR _this$[ebp]
	jmp	??1Resource@Ogre@@MAE@XZ		; Ogre::Resource::~Resource
__ehhandler$??1IndexBuffer@Ogre@@UAE@XZ:
	mov	edx, DWORD PTR [esp+8]
	lea	eax, DWORD PTR [edx+12]
	mov	ecx, DWORD PTR [edx-8]
	xor	ecx, eax
	call	@__security_check_cookie@4
	mov	eax, OFFSET __ehfuncinfo$??1IndexBuffer@Ogre@@UAE@XZ
	jmp	___CxxFrameHandler3
text$x	ENDS
??1IndexBuffer@Ogre@@UAE@XZ ENDP			; Ogre::IndexBuffer::~IndexBuffer
PUBLIC	??0IndexBuffer@Ogre@@QAE@ABV01@@Z		; Ogre::IndexBuffer::IndexBuffer
;	COMDAT xdata$x
xdata$x	SEGMENT
__unwindtable$??0IndexBuffer@Ogre@@QAE@ABV01@@Z DD 0ffffffffH
	DD	FLAT:__unwindfunclet$??0IndexBuffer@Ogre@@QAE@ABV01@@Z$0
__ehfuncinfo$??0IndexBuffer@Ogre@@QAE@ABV01@@Z DD 019930522H
	DD	01H
	DD	FLAT:__unwindtable$??0IndexBuffer@Ogre@@QAE@ABV01@@Z
	DD	2 DUP(00H)
	DD	2 DUP(00H)
	DD	00H
	DD	00H
; Function compile flags: /Odtp
xdata$x	ENDS
;	COMDAT ??0IndexBuffer@Ogre@@QAE@ABV01@@Z
_TEXT	SEGMENT
_this$ = -16						; size = 4
__$EHRec$ = -12						; size = 12
___that$ = 8						; size = 4
??0IndexBuffer@Ogre@@QAE@ABV01@@Z PROC			; Ogre::IndexBuffer::IndexBuffer, COMDAT
; _this$ = ecx
	push	ebp
	mov	ebp, esp
	push	-1
	push	__ehhandler$??0IndexBuffer@Ogre@@QAE@ABV01@@Z
	mov	eax, DWORD PTR fs:0
	push	eax
	push	ecx
	mov	eax, DWORD PTR ___security_cookie
	xor	eax, ebp
	push	eax
	lea	eax, DWORD PTR __$EHRec$[ebp]
	mov	DWORD PTR fs:0, eax
	mov	DWORD PTR _this$[ebp], ecx
	mov	eax, DWORD PTR ___that$[ebp]
	push	eax
	mov	ecx, DWORD PTR _this$[ebp]
	call	??0Resource@Ogre@@QAE@ABV01@@Z
	mov	DWORD PTR __$EHRec$[ebp+8], 0
	mov	ecx, DWORD PTR _this$[ebp]
	mov	DWORD PTR [ecx], OFFSET ??_7IndexBuffer@Ogre@@6B@
	mov	edx, DWORD PTR _this$[ebp]
	mov	eax, DWORD PTR ___that$[ebp]
	mov	ecx, DWORD PTR [eax+16]
	mov	DWORD PTR [edx+16], ecx
	mov	edx, DWORD PTR _this$[ebp]
	mov	eax, DWORD PTR ___that$[ebp]
	mov	ecx, DWORD PTR [eax+20]
	mov	DWORD PTR [edx+20], ecx
	mov	DWORD PTR __$EHRec$[ebp+8], -1
	mov	eax, DWORD PTR _this$[ebp]
	mov	ecx, DWORD PTR __$EHRec$[ebp]
	mov	DWORD PTR fs:0, ecx
	pop	ecx
	mov	esp, ebp
	pop	ebp
	ret	4
_TEXT	ENDS
;	COMDAT text$x
text$x	SEGMENT
__unwindfunclet$??0IndexBuffer@Ogre@@QAE@ABV01@@Z$0:
	mov	ecx, DWORD PTR _this$[ebp]
	jmp	??1Resource@Ogre@@MAE@XZ		; Ogre::Resource::~Resource
__ehhandler$??0IndexBuffer@Ogre@@QAE@ABV01@@Z:
	mov	edx, DWORD PTR [esp+8]
	lea	eax, DWORD PTR [edx+12]
	mov	ecx, DWORD PTR [edx-8]
	xor	ecx, eax
	call	@__security_check_cookie@4
	mov	eax, OFFSET __ehfuncinfo$??0IndexBuffer@Ogre@@QAE@ABV01@@Z
	jmp	___CxxFrameHandler3
text$x	ENDS
??0IndexBuffer@Ogre@@QAE@ABV01@@Z ENDP			; Ogre::IndexBuffer::IndexBuffer
PUBLIC	??4IndexBuffer@Ogre@@QAEAAV01@ABV01@@Z		; Ogre::IndexBuffer::operator=
; Function compile flags: /Odtp
;	COMDAT ??4IndexBuffer@Ogre@@QAEAAV01@ABV01@@Z
_TEXT	SEGMENT
_this$ = -4						; size = 4
___that$ = 8						; size = 4
??4IndexBuffer@Ogre@@QAEAAV01@ABV01@@Z PROC		; Ogre::IndexBuffer::operator=, COMDAT
; _this$ = ecx
	push	ebp
	mov	ebp, esp
	push	ecx
	mov	DWORD PTR _this$[ebp], ecx
	mov	eax, DWORD PTR ___that$[ebp]
	push	eax
	mov	ecx, DWORD PTR _this$[ebp]
	call	??4Resource@Ogre@@QAEAAV01@ABV01@@Z
	mov	ecx, DWORD PTR _this$[ebp]
	mov	edx, DWORD PTR ___that$[ebp]
	mov	eax, DWORD PTR [edx+16]
	mov	DWORD PTR [ecx+16], eax
	mov	ecx, DWORD PTR _this$[ebp]
	mov	edx, DWORD PTR ___that$[ebp]
	mov	eax, DWORD PTR [edx+20]
	mov	DWORD PTR [ecx+20], eax
	mov	eax, DWORD PTR _this$[ebp]
	mov	esp, ebp
	pop	ebp
	ret	4
??4IndexBuffer@Ogre@@QAEAAV01@ABV01@@Z ENDP		; Ogre::IndexBuffer::operator=
_TEXT	ENDS
PUBLIC	??_GIndexBuffer@Ogre@@UAEPAXI@Z			; Ogre::IndexBuffer::`scalar deleting destructor'
; Function compile flags: /Odtp
;	COMDAT ??_GIndexBuffer@Ogre@@UAEPAXI@Z
_TEXT	SEGMENT
_this$ = -4						; size = 4
___flags$ = 8						; size = 4
??_GIndexBuffer@Ogre@@UAEPAXI@Z PROC			; Ogre::IndexBuffer::`scalar deleting destructor', COMDAT
; _this$ = ecx
	push	ebp
	mov	ebp, esp
	push	ecx
	mov	DWORD PTR _this$[ebp], ecx
	mov	ecx, DWORD PTR _this$[ebp]
	call	??1IndexBuffer@Ogre@@UAE@XZ
	mov	eax, DWORD PTR ___flags$[ebp]
	and	eax, 1
	je	SHORT $LN1@scalar@4
	push	24					; 00000018H
	mov	ecx, DWORD PTR _this$[ebp]
	push	ecx
	call	??3MemoryDelegation@Ogre@@SAXPAXI@Z	; Ogre::MemoryDelegation::operator delete
	add	esp, 8
$LN1@scalar@4:
	mov	eax, DWORD PTR _this$[ebp]
	mov	esp, ebp
	pop	ebp
	ret	4
??_GIndexBuffer@Ogre@@UAEPAXI@Z ENDP			; Ogre::IndexBuffer::`scalar deleting destructor'
; Function compile flags: /Odtp
_TEXT	ENDS
;	COMDAT ??_EIndexBuffer@Ogre@@UAEPAXI@Z
_TEXT	SEGMENT
_this$ = -4						; size = 4
___flags$ = 8						; size = 4
??_EIndexBuffer@Ogre@@UAEPAXI@Z PROC			; Ogre::IndexBuffer::`vector deleting destructor', COMDAT
; _this$ = ecx
	push	ebp
	mov	ebp, esp
	push	ecx
	mov	DWORD PTR _this$[ebp], ecx
	mov	eax, DWORD PTR ___flags$[ebp]
	and	eax, 2
	je	SHORT $LN3@vector@4
	push	OFFSET ??1IndexBuffer@Ogre@@UAE@XZ
	mov	ecx, DWORD PTR _this$[ebp]
	mov	edx, DWORD PTR [ecx-4]
	push	edx
	push	24					; 00000018H
	mov	eax, DWORD PTR _this$[ebp]
	push	eax
	call	??_M@YGXPAXIHP6EX0@Z@Z
	mov	ecx, DWORD PTR ___flags$[ebp]
	and	ecx, 1
	je	SHORT $LN2@vector@4
	push	24					; 00000018H
	mov	edx, DWORD PTR _this$[ebp]
	sub	edx, 4
	push	edx
	call	??_VMemoryDelegation@Ogre@@SAXPAXI@Z	; Ogre::MemoryDelegation::operator delete[]
	add	esp, 8
$LN2@vector@4:
	mov	eax, DWORD PTR _this$[ebp]
	sub	eax, 4
	jmp	SHORT $LN4@vector@4
$LN3@vector@4:
	mov	ecx, DWORD PTR _this$[ebp]
	call	??1IndexBuffer@Ogre@@UAE@XZ
	mov	eax, DWORD PTR ___flags$[ebp]
	and	eax, 1
	je	SHORT $LN1@vector@4
	push	24					; 00000018H
	mov	ecx, DWORD PTR _this$[ebp]
	push	ecx
	call	??3MemoryDelegation@Ogre@@SAXPAXI@Z	; Ogre::MemoryDelegation::operator delete
	add	esp, 8
$LN1@vector@4:
	mov	eax, DWORD PTR _this$[ebp]
$LN4@vector@4:
	mov	esp, ebp
	pop	ebp
	ret	4
??_EIndexBuffer@Ogre@@UAEPAXI@Z ENDP			; Ogre::IndexBuffer::`vector deleting destructor'
_TEXT	ENDS
PUBLIC	?getRTTI@Texture@Ogre@@UBEPBVRuntimeClass@2@XZ	; Ogre::Texture::getRTTI
EXTRN	?m_RTTI@Texture@Ogre@@2VRuntimeClass@2@B:BYTE	; Ogre::Texture::m_RTTI
; Function compile flags: /Odtp
;	COMDAT ?getRTTI@Texture@Ogre@@UBEPBVRuntimeClass@2@XZ
_TEXT	SEGMENT
_this$ = -4						; size = 4
?getRTTI@Texture@Ogre@@UBEPBVRuntimeClass@2@XZ PROC	; Ogre::Texture::getRTTI, COMDAT
; _this$ = ecx

; 248  : 		DECLARE_RTTI_VIRTUAL(Texture)

	push	ebp
	mov	ebp, esp
	push	ecx
	mov	DWORD PTR _this$[ebp], ecx
	mov	eax, OFFSET ?m_RTTI@Texture@Ogre@@2VRuntimeClass@2@B ; Ogre::Texture::m_RTTI
	mov	esp, ebp
	pop	ebp
	ret	0
?getRTTI@Texture@Ogre@@UBEPBVRuntimeClass@2@XZ ENDP	; Ogre::Texture::getRTTI
_TEXT	ENDS
PUBLIC	??_7Texture@Ogre@@6B@				; Ogre::Texture::`vftable'
PUBLIC	??1Texture@Ogre@@MAE@XZ				; Ogre::Texture::~Texture
PUBLIC	??_R4Texture@Ogre@@6B@				; Ogre::Texture::`RTTI Complete Object Locator'
PUBLIC	??_R0?AVTexture@Ogre@@@8			; Ogre::Texture `RTTI Type Descriptor'
PUBLIC	??_R3Texture@Ogre@@8				; Ogre::Texture::`RTTI Class Hierarchy Descriptor'
PUBLIC	??_R2Texture@Ogre@@8				; Ogre::Texture::`RTTI Base Class Array'
PUBLIC	??_R1A@?0A@EA@Texture@Ogre@@8			; Ogre::Texture::`RTTI Base Class Descriptor at (0,-1,0,64)'
PUBLIC	??_ETexture@Ogre@@MAEPAXI@Z			; Ogre::Texture::`vector deleting destructor'
;	COMDAT ??_R1A@?0A@EA@Texture@Ogre@@8
rdata$r	SEGMENT
??_R1A@?0A@EA@Texture@Ogre@@8 DD FLAT:??_R0?AVTexture@Ogre@@@8 ; Ogre::Texture::`RTTI Base Class Descriptor at (0,-1,0,64)'
	DD	03H
	DD	00H
	DD	0ffffffffH
	DD	00H
	DD	040H
	DD	FLAT:??_R3Texture@Ogre@@8
rdata$r	ENDS
;	COMDAT ??_R2Texture@Ogre@@8
rdata$r	SEGMENT
??_R2Texture@Ogre@@8 DD FLAT:??_R1A@?0A@EA@Texture@Ogre@@8 ; Ogre::Texture::`RTTI Base Class Array'
	DD	FLAT:??_R1A@?0A@EA@Resource@Ogre@@8
	DD	FLAT:??_R1A@?0A@EA@BaseObject@Ogre@@8
	DD	FLAT:??_R13?0A@EA@MemoryDelegation@Ogre@@8
rdata$r	ENDS
;	COMDAT ??_R3Texture@Ogre@@8
rdata$r	SEGMENT
??_R3Texture@Ogre@@8 DD 00H				; Ogre::Texture::`RTTI Class Hierarchy Descriptor'
	DD	00H
	DD	04H
	DD	FLAT:??_R2Texture@Ogre@@8
rdata$r	ENDS
;	COMDAT ??_R0?AVTexture@Ogre@@@8
_DATA	SEGMENT
??_R0?AVTexture@Ogre@@@8 DD FLAT:??_7type_info@@6B@	; Ogre::Texture `RTTI Type Descriptor'
	DD	00H
	DB	'.?AVTexture@Ogre@@', 00H
_DATA	ENDS
;	COMDAT ??_R4Texture@Ogre@@6B@
rdata$r	SEGMENT
??_R4Texture@Ogre@@6B@ DD 00H				; Ogre::Texture::`RTTI Complete Object Locator'
	DD	00H
	DD	00H
	DD	FLAT:??_R0?AVTexture@Ogre@@@8
	DD	FLAT:??_R3Texture@Ogre@@8
rdata$r	ENDS
;	COMDAT ??_7Texture@Ogre@@6B@
CONST	SEGMENT
??_7Texture@Ogre@@6B@ DD FLAT:??_R4Texture@Ogre@@6B@	; Ogre::Texture::`vftable'
	DD	FLAT:?getRTTI@Texture@Ogre@@UBEPBVRuntimeClass@2@XZ
	DD	FLAT:?release@Resource@Ogre@@UAEXXZ
	DD	FLAT:?addRef@Resource@Ogre@@UAEXXZ
	DD	FLAT:?getRefCount@Resource@Ogre@@UAEHXZ
	DD	FLAT:?_serialize@BaseObject@Ogre@@UAEXAAVArchive@2@H@Z
	DD	FLAT:??_ETexture@Ogre@@MAEPAXI@Z
	DD	FLAT:?deleteThis@BaseObject@Ogre@@MAEXXZ
	DD	FLAT:__purecall
	DD	FLAT:__purecall
	DD	FLAT:__purecall
	DD	FLAT:__purecall
CONST	ENDS
;	COMDAT xdata$x
xdata$x	SEGMENT
__unwindtable$??1Texture@Ogre@@MAE@XZ DD 0ffffffffH
	DD	FLAT:__unwindfunclet$??1Texture@Ogre@@MAE@XZ$0
__ehfuncinfo$??1Texture@Ogre@@MAE@XZ DD 019930522H
	DD	01H
	DD	FLAT:__unwindtable$??1Texture@Ogre@@MAE@XZ
	DD	2 DUP(00H)
	DD	2 DUP(00H)
	DD	00H
	DD	00H
; Function compile flags: /Odtp
xdata$x	ENDS
;	COMDAT ??1Texture@Ogre@@MAE@XZ
_TEXT	SEGMENT
_this$ = -16						; size = 4
__$EHRec$ = -12						; size = 12
??1Texture@Ogre@@MAE@XZ PROC				; Ogre::Texture::~Texture, COMDAT
; _this$ = ecx

; 257  : 		{

	push	ebp
	mov	ebp, esp
	push	-1
	push	__ehhandler$??1Texture@Ogre@@MAE@XZ
	mov	eax, DWORD PTR fs:0
	push	eax
	push	ecx
	mov	eax, DWORD PTR ___security_cookie
	xor	eax, ebp
	push	eax
	lea	eax, DWORD PTR __$EHRec$[ebp]
	mov	DWORD PTR fs:0, eax
	mov	DWORD PTR _this$[ebp], ecx
	mov	eax, DWORD PTR _this$[ebp]
	mov	DWORD PTR [eax], OFFSET ??_7Texture@Ogre@@6B@
	mov	DWORD PTR __$EHRec$[ebp+8], 0

; 258  : 		}

	mov	DWORD PTR __$EHRec$[ebp+8], -1
	mov	ecx, DWORD PTR _this$[ebp]
	call	??1Resource@Ogre@@MAE@XZ		; Ogre::Resource::~Resource
	mov	ecx, DWORD PTR __$EHRec$[ebp]
	mov	DWORD PTR fs:0, ecx
	pop	ecx
	mov	esp, ebp
	pop	ebp
	ret	0
_TEXT	ENDS
;	COMDAT text$x
text$x	SEGMENT
__unwindfunclet$??1Texture@Ogre@@MAE@XZ$0:
	mov	ecx, DWORD PTR _this$[ebp]
	jmp	??1Resource@Ogre@@MAE@XZ		; Ogre::Resource::~Resource
__ehhandler$??1Texture@Ogre@@MAE@XZ:
	mov	edx, DWORD PTR [esp+8]
	lea	eax, DWORD PTR [edx+12]
	mov	ecx, DWORD PTR [edx-8]
	xor	ecx, eax
	call	@__security_check_cookie@4
	mov	eax, OFFSET __ehfuncinfo$??1Texture@Ogre@@MAE@XZ
	jmp	___CxxFrameHandler3
text$x	ENDS
??1Texture@Ogre@@MAE@XZ ENDP				; Ogre::Texture::~Texture
PUBLIC	??0Texture@Ogre@@QAE@XZ				; Ogre::Texture::Texture
;	COMDAT xdata$x
xdata$x	SEGMENT
__unwindtable$??0Texture@Ogre@@QAE@XZ DD 0ffffffffH
	DD	FLAT:__unwindfunclet$??0Texture@Ogre@@QAE@XZ$0
__ehfuncinfo$??0Texture@Ogre@@QAE@XZ DD 019930522H
	DD	01H
	DD	FLAT:__unwindtable$??0Texture@Ogre@@QAE@XZ
	DD	2 DUP(00H)
	DD	2 DUP(00H)
	DD	00H
	DD	00H
; Function compile flags: /Odtp
xdata$x	ENDS
;	COMDAT ??0Texture@Ogre@@QAE@XZ
_TEXT	SEGMENT
_this$ = -16						; size = 4
__$EHRec$ = -12						; size = 12
??0Texture@Ogre@@QAE@XZ PROC				; Ogre::Texture::Texture, COMDAT
; _this$ = ecx
	push	ebp
	mov	ebp, esp
	push	-1
	push	__ehhandler$??0Texture@Ogre@@QAE@XZ
	mov	eax, DWORD PTR fs:0
	push	eax
	push	ecx
	mov	eax, DWORD PTR ___security_cookie
	xor	eax, ebp
	push	eax
	lea	eax, DWORD PTR __$EHRec$[ebp]
	mov	DWORD PTR fs:0, eax
	mov	DWORD PTR _this$[ebp], ecx
	mov	ecx, DWORD PTR _this$[ebp]
	call	??0Resource@Ogre@@IAE@XZ		; Ogre::Resource::Resource
	mov	DWORD PTR __$EHRec$[ebp+8], 0
	mov	eax, DWORD PTR _this$[ebp]
	mov	DWORD PTR [eax], OFFSET ??_7Texture@Ogre@@6B@
	mov	DWORD PTR __$EHRec$[ebp+8], -1
	mov	eax, DWORD PTR _this$[ebp]
	mov	ecx, DWORD PTR __$EHRec$[ebp]
	mov	DWORD PTR fs:0, ecx
	pop	ecx
	mov	esp, ebp
	pop	ebp
	ret	0
_TEXT	ENDS
;	COMDAT text$x
text$x	SEGMENT
__unwindfunclet$??0Texture@Ogre@@QAE@XZ$0:
	mov	ecx, DWORD PTR _this$[ebp]
	jmp	??1Resource@Ogre@@MAE@XZ		; Ogre::Resource::~Resource
__ehhandler$??0Texture@Ogre@@QAE@XZ:
	mov	edx, DWORD PTR [esp+8]
	lea	eax, DWORD PTR [edx+12]
	mov	ecx, DWORD PTR [edx-8]
	xor	ecx, eax
	call	@__security_check_cookie@4
	mov	eax, OFFSET __ehfuncinfo$??0Texture@Ogre@@QAE@XZ
	jmp	___CxxFrameHandler3
text$x	ENDS
??0Texture@Ogre@@QAE@XZ ENDP				; Ogre::Texture::Texture
PUBLIC	??0Texture@Ogre@@QAE@ABV01@@Z			; Ogre::Texture::Texture
;	COMDAT xdata$x
xdata$x	SEGMENT
__unwindtable$??0Texture@Ogre@@QAE@ABV01@@Z DD 0ffffffffH
	DD	FLAT:__unwindfunclet$??0Texture@Ogre@@QAE@ABV01@@Z$0
__ehfuncinfo$??0Texture@Ogre@@QAE@ABV01@@Z DD 019930522H
	DD	01H
	DD	FLAT:__unwindtable$??0Texture@Ogre@@QAE@ABV01@@Z
	DD	2 DUP(00H)
	DD	2 DUP(00H)
	DD	00H
	DD	00H
; Function compile flags: /Odtp
xdata$x	ENDS
;	COMDAT ??0Texture@Ogre@@QAE@ABV01@@Z
_TEXT	SEGMENT
_this$ = -16						; size = 4
__$EHRec$ = -12						; size = 12
___that$ = 8						; size = 4
??0Texture@Ogre@@QAE@ABV01@@Z PROC			; Ogre::Texture::Texture, COMDAT
; _this$ = ecx
	push	ebp
	mov	ebp, esp
	push	-1
	push	__ehhandler$??0Texture@Ogre@@QAE@ABV01@@Z
	mov	eax, DWORD PTR fs:0
	push	eax
	push	ecx
	mov	eax, DWORD PTR ___security_cookie
	xor	eax, ebp
	push	eax
	lea	eax, DWORD PTR __$EHRec$[ebp]
	mov	DWORD PTR fs:0, eax
	mov	DWORD PTR _this$[ebp], ecx
	mov	eax, DWORD PTR ___that$[ebp]
	push	eax
	mov	ecx, DWORD PTR _this$[ebp]
	call	??0Resource@Ogre@@QAE@ABV01@@Z
	mov	DWORD PTR __$EHRec$[ebp+8], 0
	mov	ecx, DWORD PTR _this$[ebp]
	mov	DWORD PTR [ecx], OFFSET ??_7Texture@Ogre@@6B@
	mov	DWORD PTR __$EHRec$[ebp+8], -1
	mov	eax, DWORD PTR _this$[ebp]
	mov	ecx, DWORD PTR __$EHRec$[ebp]
	mov	DWORD PTR fs:0, ecx
	pop	ecx
	mov	esp, ebp
	pop	ebp
	ret	4
_TEXT	ENDS
;	COMDAT text$x
text$x	SEGMENT
__unwindfunclet$??0Texture@Ogre@@QAE@ABV01@@Z$0:
	mov	ecx, DWORD PTR _this$[ebp]
	jmp	??1Resource@Ogre@@MAE@XZ		; Ogre::Resource::~Resource
__ehhandler$??0Texture@Ogre@@QAE@ABV01@@Z:
	mov	edx, DWORD PTR [esp+8]
	lea	eax, DWORD PTR [edx+12]
	mov	ecx, DWORD PTR [edx-8]
	xor	ecx, eax
	call	@__security_check_cookie@4
	mov	eax, OFFSET __ehfuncinfo$??0Texture@Ogre@@QAE@ABV01@@Z
	jmp	___CxxFrameHandler3
text$x	ENDS
??0Texture@Ogre@@QAE@ABV01@@Z ENDP			; Ogre::Texture::Texture
PUBLIC	??4Texture@Ogre@@QAEAAV01@ABV01@@Z		; Ogre::Texture::operator=
; Function compile flags: /Odtp
;	COMDAT ??4Texture@Ogre@@QAEAAV01@ABV01@@Z
_TEXT	SEGMENT
_this$ = -4						; size = 4
___that$ = 8						; size = 4
??4Texture@Ogre@@QAEAAV01@ABV01@@Z PROC			; Ogre::Texture::operator=, COMDAT
; _this$ = ecx
	push	ebp
	mov	ebp, esp
	push	ecx
	mov	DWORD PTR _this$[ebp], ecx
	mov	eax, DWORD PTR ___that$[ebp]
	push	eax
	mov	ecx, DWORD PTR _this$[ebp]
	call	??4Resource@Ogre@@QAEAAV01@ABV01@@Z
	mov	eax, DWORD PTR _this$[ebp]
	mov	esp, ebp
	pop	ebp
	ret	4
??4Texture@Ogre@@QAEAAV01@ABV01@@Z ENDP			; Ogre::Texture::operator=
_TEXT	ENDS
PUBLIC	??_GTexture@Ogre@@MAEPAXI@Z			; Ogre::Texture::`scalar deleting destructor'
; Function compile flags: /Odtp
;	COMDAT ??_GTexture@Ogre@@MAEPAXI@Z
_TEXT	SEGMENT
_this$ = -4						; size = 4
___flags$ = 8						; size = 4
??_GTexture@Ogre@@MAEPAXI@Z PROC			; Ogre::Texture::`scalar deleting destructor', COMDAT
; _this$ = ecx
	push	ebp
	mov	ebp, esp
	push	ecx
	mov	DWORD PTR _this$[ebp], ecx
	mov	ecx, DWORD PTR _this$[ebp]
	call	??1Texture@Ogre@@MAE@XZ			; Ogre::Texture::~Texture
	mov	eax, DWORD PTR ___flags$[ebp]
	and	eax, 1
	je	SHORT $LN1@scalar@5
	push	16					; 00000010H
	mov	ecx, DWORD PTR _this$[ebp]
	push	ecx
	call	??3MemoryDelegation@Ogre@@SAXPAXI@Z	; Ogre::MemoryDelegation::operator delete
	add	esp, 8
$LN1@scalar@5:
	mov	eax, DWORD PTR _this$[ebp]
	mov	esp, ebp
	pop	ebp
	ret	4
??_GTexture@Ogre@@MAEPAXI@Z ENDP			; Ogre::Texture::`scalar deleting destructor'
; Function compile flags: /Odtp
_TEXT	ENDS
;	COMDAT ??_ETexture@Ogre@@MAEPAXI@Z
_TEXT	SEGMENT
_this$ = -4						; size = 4
___flags$ = 8						; size = 4
??_ETexture@Ogre@@MAEPAXI@Z PROC			; Ogre::Texture::`vector deleting destructor', COMDAT
; _this$ = ecx
	push	ebp
	mov	ebp, esp
	push	ecx
	mov	DWORD PTR _this$[ebp], ecx
	mov	eax, DWORD PTR ___flags$[ebp]
	and	eax, 2
	je	SHORT $LN3@vector@5
	push	OFFSET ??1Texture@Ogre@@MAE@XZ		; Ogre::Texture::~Texture
	mov	ecx, DWORD PTR _this$[ebp]
	mov	edx, DWORD PTR [ecx-4]
	push	edx
	push	16					; 00000010H
	mov	eax, DWORD PTR _this$[ebp]
	push	eax
	call	??_M@YGXPAXIHP6EX0@Z@Z
	mov	ecx, DWORD PTR ___flags$[ebp]
	and	ecx, 1
	je	SHORT $LN2@vector@5
	push	16					; 00000010H
	mov	edx, DWORD PTR _this$[ebp]
	sub	edx, 4
	push	edx
	call	??_VMemoryDelegation@Ogre@@SAXPAXI@Z	; Ogre::MemoryDelegation::operator delete[]
	add	esp, 8
$LN2@vector@5:
	mov	eax, DWORD PTR _this$[ebp]
	sub	eax, 4
	jmp	SHORT $LN4@vector@5
$LN3@vector@5:
	mov	ecx, DWORD PTR _this$[ebp]
	call	??1Texture@Ogre@@MAE@XZ			; Ogre::Texture::~Texture
	mov	eax, DWORD PTR ___flags$[ebp]
	and	eax, 1
	je	SHORT $LN1@vector@5
	push	16					; 00000010H
	mov	ecx, DWORD PTR _this$[ebp]
	push	ecx
	call	??3MemoryDelegation@Ogre@@SAXPAXI@Z	; Ogre::MemoryDelegation::operator delete
	add	esp, 8
$LN1@vector@5:
	mov	eax, DWORD PTR _this$[ebp]
$LN4@vector@5:
	mov	esp, ebp
	pop	ebp
	ret	4
??_ETexture@Ogre@@MAEPAXI@Z ENDP			; Ogre::Texture::`vector deleting destructor'
_TEXT	ENDS
PUBLIC	??4LockSection@Ogre@@QAEAAV01@ABV01@@Z		; Ogre::LockSection::operator=
; Function compile flags: /Odtp
;	COMDAT ??4LockSection@Ogre@@QAEAAV01@ABV01@@Z
_TEXT	SEGMENT
_this$ = -4						; size = 4
___that$ = 8						; size = 4
??4LockSection@Ogre@@QAEAAV01@ABV01@@Z PROC		; Ogre::LockSection::operator=, COMDAT
; _this$ = ecx
	push	ebp
	mov	ebp, esp
	push	ecx
	mov	DWORD PTR _this$[ebp], ecx
	mov	eax, DWORD PTR ___that$[ebp]
	mov	ecx, DWORD PTR [eax]
	mov	edx, DWORD PTR _this$[ebp]
	mov	DWORD PTR [edx], ecx
	mov	eax, DWORD PTR _this$[ebp]
	mov	esp, ebp
	pop	ebp
	ret	4
??4LockSection@Ogre@@QAEAAV01@ABV01@@Z ENDP		; Ogre::LockSection::operator=
_TEXT	ENDS
PUBLIC	??0LockFunctor@Ogre@@QAE@PAVLockSection@1@@Z	; Ogre::LockFunctor::LockFunctor
EXTRN	?Lock@LockSection@Ogre@@QAEXXZ:PROC		; Ogre::LockSection::Lock
; Function compile flags: /Odtp
; File i:\svnroot\client\ogremain\ogrelocker.h
;	COMDAT ??0LockFunctor@Ogre@@QAE@PAVLockSection@1@@Z
_TEXT	SEGMENT
_this$ = -4						; size = 4
_pSection$ = 8						; size = 4
??0LockFunctor@Ogre@@QAE@PAVLockSection@1@@Z PROC	; Ogre::LockFunctor::LockFunctor, COMDAT
; _this$ = ecx

; 26   : 		{

	push	ebp
	mov	ebp, esp
	push	ecx
	mov	DWORD PTR _this$[ebp], ecx
	mov	eax, DWORD PTR _this$[ebp]
	mov	ecx, DWORD PTR _pSection$[ebp]
	mov	DWORD PTR [eax], ecx

; 27   : 			if(m_pSection == NULL) return;

	mov	edx, DWORD PTR _this$[ebp]
	cmp	DWORD PTR [edx], 0
	jne	SHORT $LN1@LockFuncto
	jmp	SHORT $LN2@LockFuncto
$LN1@LockFuncto:

; 28   : 			assert( m_pSection );
; 29   : 			m_pSection->Lock();

	mov	eax, DWORD PTR _this$[ebp]
	mov	ecx, DWORD PTR [eax]
	call	?Lock@LockSection@Ogre@@QAEXXZ		; Ogre::LockSection::Lock
$LN2@LockFuncto:

; 30   : 		}

	mov	eax, DWORD PTR _this$[ebp]
	mov	esp, ebp
	pop	ebp
	ret	4
??0LockFunctor@Ogre@@QAE@PAVLockSection@1@@Z ENDP	; Ogre::LockFunctor::LockFunctor
_TEXT	ENDS
PUBLIC	??1LockFunctor@Ogre@@QAE@XZ			; Ogre::LockFunctor::~LockFunctor
EXTRN	?Unlock@LockSection@Ogre@@QAEXXZ:PROC		; Ogre::LockSection::Unlock
; Function compile flags: /Odtp
;	COMDAT ??1LockFunctor@Ogre@@QAE@XZ
_TEXT	SEGMENT
_this$ = -4						; size = 4
??1LockFunctor@Ogre@@QAE@XZ PROC			; Ogre::LockFunctor::~LockFunctor, COMDAT
; _this$ = ecx

; 33   : 		{

	push	ebp
	mov	ebp, esp
	push	ecx
	mov	DWORD PTR _this$[ebp], ecx

; 34   : 			if( m_pSection )

	mov	eax, DWORD PTR _this$[ebp]
	cmp	DWORD PTR [eax], 0
	je	SHORT $LN2@LockFuncto@2

; 35   : 			{
; 36   : 				m_pSection->Unlock();

	mov	ecx, DWORD PTR _this$[ebp]
	mov	ecx, DWORD PTR [ecx]
	call	?Unlock@LockSection@Ogre@@QAEXXZ	; Ogre::LockSection::Unlock
$LN2@LockFuncto@2:

; 37   : 			}			
; 38   : 		}

	mov	esp, ebp
	pop	ebp
	ret	0
??1LockFunctor@Ogre@@QAE@XZ ENDP			; Ogre::LockFunctor::~LockFunctor
_TEXT	ENDS
PUBLIC	??4LockFunctor@Ogre@@QAEAAV01@ABV01@@Z		; Ogre::LockFunctor::operator=
; Function compile flags: /Odtp
;	COMDAT ??4LockFunctor@Ogre@@QAEAAV01@ABV01@@Z
_TEXT	SEGMENT
_this$ = -4						; size = 4
___that$ = 8						; size = 4
??4LockFunctor@Ogre@@QAEAAV01@ABV01@@Z PROC		; Ogre::LockFunctor::operator=, COMDAT
; _this$ = ecx
	push	ebp
	mov	ebp, esp
	push	ecx
	mov	DWORD PTR _this$[ebp], ecx
	mov	eax, DWORD PTR ___that$[ebp]
	mov	ecx, DWORD PTR [eax]
	mov	edx, DWORD PTR _this$[ebp]
	mov	DWORD PTR [edx], ecx
	mov	eax, DWORD PTR _this$[ebp]
	mov	esp, ebp
	pop	ebp
	ret	4
??4LockFunctor@Ogre@@QAEAAV01@ABV01@@Z ENDP		; Ogre::LockFunctor::operator=
_TEXT	ENDS
PUBLIC	?getPool@HardwareBuffer@Ogre@@QAEPAVHardwareBufferPool@2@XZ ; Ogre::HardwareBuffer::getPool
; Function compile flags: /Odtp
; File i:\svnroot\client\ogremain\ogrehardwarebuffer.h
;	COMDAT ?getPool@HardwareBuffer@Ogre@@QAEPAVHardwareBufferPool@2@XZ
_TEXT	SEGMENT
_this$ = -4						; size = 4
?getPool@HardwareBuffer@Ogre@@QAEPAVHardwareBufferPool@2@XZ PROC ; Ogre::HardwareBuffer::getPool, COMDAT
; _this$ = ecx

; 22   : 		{

	push	ebp
	mov	ebp, esp
	push	ecx
	mov	DWORD PTR _this$[ebp], ecx

; 23   : 			return m_pPool;

	mov	eax, DWORD PTR _this$[ebp]
	mov	eax, DWORD PTR [eax+28]

; 24   : 		}

	mov	esp, ebp
	pop	ebp
	ret	0
?getPool@HardwareBuffer@Ogre@@QAEPAVHardwareBufferPool@2@XZ ENDP ; Ogre::HardwareBuffer::getPool
_TEXT	ENDS
PUBLIC	?getStart@HardwareBuffer@Ogre@@QAEIXZ		; Ogre::HardwareBuffer::getStart
; Function compile flags: /Odtp
;	COMDAT ?getStart@HardwareBuffer@Ogre@@QAEIXZ
_TEXT	SEGMENT
_this$ = -4						; size = 4
?getStart@HardwareBuffer@Ogre@@QAEIXZ PROC		; Ogre::HardwareBuffer::getStart, COMDAT
; _this$ = ecx

; 26   : 		{

	push	ebp
	mov	ebp, esp
	push	ecx
	mov	DWORD PTR _this$[ebp], ecx

; 27   : 			return m_Start;

	mov	eax, DWORD PTR _this$[ebp]
	mov	eax, DWORD PTR [eax+16]

; 28   : 		}

	mov	esp, ebp
	pop	ebp
	ret	0
?getStart@HardwareBuffer@Ogre@@QAEIXZ ENDP		; Ogre::HardwareBuffer::getStart
_TEXT	ENDS
PUBLIC	?getNum@HardwareBuffer@Ogre@@QAEIXZ		; Ogre::HardwareBuffer::getNum
; Function compile flags: /Odtp
;	COMDAT ?getNum@HardwareBuffer@Ogre@@QAEIXZ
_TEXT	SEGMENT
_this$ = -4						; size = 4
?getNum@HardwareBuffer@Ogre@@QAEIXZ PROC		; Ogre::HardwareBuffer::getNum, COMDAT
; _this$ = ecx

; 30   : 		{

	push	ebp
	mov	ebp, esp
	push	ecx
	mov	DWORD PTR _this$[ebp], ecx

; 31   : 			return m_Num;

	mov	eax, DWORD PTR _this$[ebp]
	mov	eax, DWORD PTR [eax+20]

; 32   : 		}

	mov	esp, ebp
	pop	ebp
	ret	0
?getNum@HardwareBuffer@Ogre@@QAEIXZ ENDP		; Ogre::HardwareBuffer::getNum
_TEXT	ENDS
PUBLIC	?getBubSize@HardwareBuffer@Ogre@@QAEIXZ		; Ogre::HardwareBuffer::getBubSize
; Function compile flags: /Odtp
;	COMDAT ?getBubSize@HardwareBuffer@Ogre@@QAEIXZ
_TEXT	SEGMENT
_this$ = -4						; size = 4
?getBubSize@HardwareBuffer@Ogre@@QAEIXZ PROC		; Ogre::HardwareBuffer::getBubSize, COMDAT
; _this$ = ecx

; 34   : 		{

	push	ebp
	mov	ebp, esp
	push	ecx
	mov	DWORD PTR _this$[ebp], ecx

; 35   : 			return m_BubSize;

	mov	eax, DWORD PTR _this$[ebp]
	mov	eax, DWORD PTR [eax+24]

; 36   : 		}

	mov	esp, ebp
	pop	ebp
	ret	0
?getBubSize@HardwareBuffer@Ogre@@QAEIXZ ENDP		; Ogre::HardwareBuffer::getBubSize
_TEXT	ENDS
PUBLIC	??_7HardwareBuffer@Ogre@@6B@			; Ogre::HardwareBuffer::`vftable'
PUBLIC	??0HardwareBuffer@Ogre@@IAE@PAVHardwareBufferPool@1@@Z ; Ogre::HardwareBuffer::HardwareBuffer
PUBLIC	??_R4HardwareBuffer@Ogre@@6B@			; Ogre::HardwareBuffer::`RTTI Complete Object Locator'
PUBLIC	??_R0?AVHardwareBuffer@Ogre@@@8			; Ogre::HardwareBuffer `RTTI Type Descriptor'
PUBLIC	??_R3HardwareBuffer@Ogre@@8			; Ogre::HardwareBuffer::`RTTI Class Hierarchy Descriptor'
PUBLIC	??_R2HardwareBuffer@Ogre@@8			; Ogre::HardwareBuffer::`RTTI Base Class Array'
PUBLIC	??_R1A@?0A@EA@HardwareBuffer@Ogre@@8		; Ogre::HardwareBuffer::`RTTI Base Class Descriptor at (0,-1,0,64)'
PUBLIC	??_R13?0A@EN@ChainListNode@Ogre@@8		; Ogre::ChainListNode::`RTTI Base Class Descriptor at (4,-1,0,77)'
PUBLIC	??_R0?AVChainListNode@Ogre@@@8			; Ogre::ChainListNode `RTTI Type Descriptor'
PUBLIC	??_R3ChainListNode@Ogre@@8			; Ogre::ChainListNode::`RTTI Class Hierarchy Descriptor'
PUBLIC	??_R2ChainListNode@Ogre@@8			; Ogre::ChainListNode::`RTTI Base Class Array'
PUBLIC	??_R1A@?0A@EA@ChainListNode@Ogre@@8		; Ogre::ChainListNode::`RTTI Base Class Descriptor at (0,-1,0,64)'
PUBLIC	??_EHardwareBuffer@Ogre@@MAEPAXI@Z		; Ogre::HardwareBuffer::`vector deleting destructor'
;	COMDAT ??_R1A@?0A@EA@ChainListNode@Ogre@@8
rdata$r	SEGMENT
??_R1A@?0A@EA@ChainListNode@Ogre@@8 DD FLAT:??_R0?AVChainListNode@Ogre@@@8 ; Ogre::ChainListNode::`RTTI Base Class Descriptor at (0,-1,0,64)'
	DD	00H
	DD	00H
	DD	0ffffffffH
	DD	00H
	DD	040H
	DD	FLAT:??_R3ChainListNode@Ogre@@8
rdata$r	ENDS
;	COMDAT ??_R2ChainListNode@Ogre@@8
rdata$r	SEGMENT
??_R2ChainListNode@Ogre@@8 DD FLAT:??_R1A@?0A@EA@ChainListNode@Ogre@@8 ; Ogre::ChainListNode::`RTTI Base Class Array'
rdata$r	ENDS
;	COMDAT ??_R3ChainListNode@Ogre@@8
rdata$r	SEGMENT
??_R3ChainListNode@Ogre@@8 DD 00H			; Ogre::ChainListNode::`RTTI Class Hierarchy Descriptor'
	DD	00H
	DD	01H
	DD	FLAT:??_R2ChainListNode@Ogre@@8
rdata$r	ENDS
;	COMDAT ??_R0?AVChainListNode@Ogre@@@8
_DATA	SEGMENT
??_R0?AVChainListNode@Ogre@@@8 DD FLAT:??_7type_info@@6B@ ; Ogre::ChainListNode `RTTI Type Descriptor'
	DD	00H
	DB	'.?AVChainListNode@Ogre@@', 00H
_DATA	ENDS
;	COMDAT ??_R13?0A@EN@ChainListNode@Ogre@@8
rdata$r	SEGMENT
??_R13?0A@EN@ChainListNode@Ogre@@8 DD FLAT:??_R0?AVChainListNode@Ogre@@@8 ; Ogre::ChainListNode::`RTTI Base Class Descriptor at (4,-1,0,77)'
	DD	00H
	DD	04H
	DD	0ffffffffH
	DD	00H
	DD	04dH
	DD	FLAT:??_R3ChainListNode@Ogre@@8
rdata$r	ENDS
;	COMDAT ??_R1A@?0A@EA@HardwareBuffer@Ogre@@8
rdata$r	SEGMENT
??_R1A@?0A@EA@HardwareBuffer@Ogre@@8 DD FLAT:??_R0?AVHardwareBuffer@Ogre@@@8 ; Ogre::HardwareBuffer::`RTTI Base Class Descriptor at (0,-1,0,64)'
	DD	01H
	DD	00H
	DD	0ffffffffH
	DD	00H
	DD	040H
	DD	FLAT:??_R3HardwareBuffer@Ogre@@8
rdata$r	ENDS
;	COMDAT ??_R2HardwareBuffer@Ogre@@8
rdata$r	SEGMENT
??_R2HardwareBuffer@Ogre@@8 DD FLAT:??_R1A@?0A@EA@HardwareBuffer@Ogre@@8 ; Ogre::HardwareBuffer::`RTTI Base Class Array'
	DD	FLAT:??_R13?0A@EN@ChainListNode@Ogre@@8
rdata$r	ENDS
;	COMDAT ??_R3HardwareBuffer@Ogre@@8
rdata$r	SEGMENT
??_R3HardwareBuffer@Ogre@@8 DD 00H			; Ogre::HardwareBuffer::`RTTI Class Hierarchy Descriptor'
	DD	00H
	DD	02H
	DD	FLAT:??_R2HardwareBuffer@Ogre@@8
rdata$r	ENDS
;	COMDAT ??_R0?AVHardwareBuffer@Ogre@@@8
_DATA	SEGMENT
??_R0?AVHardwareBuffer@Ogre@@@8 DD FLAT:??_7type_info@@6B@ ; Ogre::HardwareBuffer `RTTI Type Descriptor'
	DD	00H
	DB	'.?AVHardwareBuffer@Ogre@@', 00H
_DATA	ENDS
;	COMDAT ??_R4HardwareBuffer@Ogre@@6B@
rdata$r	SEGMENT
??_R4HardwareBuffer@Ogre@@6B@ DD 00H			; Ogre::HardwareBuffer::`RTTI Complete Object Locator'
	DD	00H
	DD	00H
	DD	FLAT:??_R0?AVHardwareBuffer@Ogre@@@8
	DD	FLAT:??_R3HardwareBuffer@Ogre@@8
rdata$r	ENDS
;	COMDAT ??_7HardwareBuffer@Ogre@@6B@
CONST	SEGMENT
??_7HardwareBuffer@Ogre@@6B@ DD FLAT:??_R4HardwareBuffer@Ogre@@6B@ ; Ogre::HardwareBuffer::`vftable'
	DD	FLAT:??_EHardwareBuffer@Ogre@@MAEPAXI@Z
; Function compile flags: /Odtp
CONST	ENDS
;	COMDAT ??0HardwareBuffer@Ogre@@IAE@PAVHardwareBufferPool@1@@Z
_TEXT	SEGMENT
_this$ = -4						; size = 4
_pool$ = 8						; size = 4
??0HardwareBuffer@Ogre@@IAE@PAVHardwareBufferPool@1@@Z PROC ; Ogre::HardwareBuffer::HardwareBuffer, COMDAT
; _this$ = ecx

; 40   : 		{

	push	ebp
	mov	ebp, esp
	push	ecx
	mov	DWORD PTR _this$[ebp], ecx
	mov	eax, DWORD PTR _this$[ebp]
	mov	DWORD PTR [eax], OFFSET ??_7HardwareBuffer@Ogre@@6B@
	mov	ecx, DWORD PTR _this$[ebp]
	mov	BYTE PTR [ecx+12], 1
	mov	edx, DWORD PTR _this$[ebp]
	mov	eax, DWORD PTR _pool$[ebp]
	mov	DWORD PTR [edx+28], eax

; 41   : 		}

	mov	eax, DWORD PTR _this$[ebp]
	mov	esp, ebp
	pop	ebp
	ret	4
??0HardwareBuffer@Ogre@@IAE@PAVHardwareBufferPool@1@@Z ENDP ; Ogre::HardwareBuffer::HardwareBuffer
_TEXT	ENDS
PUBLIC	??1HardwareBuffer@Ogre@@MAE@XZ			; Ogre::HardwareBuffer::~HardwareBuffer
; Function compile flags: /Odtp
;	COMDAT ??1HardwareBuffer@Ogre@@MAE@XZ
_TEXT	SEGMENT
_this$ = -4						; size = 4
??1HardwareBuffer@Ogre@@MAE@XZ PROC			; Ogre::HardwareBuffer::~HardwareBuffer, COMDAT
; _this$ = ecx

; 44   : 		{

	push	ebp
	mov	ebp, esp
	push	ecx
	mov	DWORD PTR _this$[ebp], ecx
	mov	eax, DWORD PTR _this$[ebp]
	mov	DWORD PTR [eax], OFFSET ??_7HardwareBuffer@Ogre@@6B@

; 45   : 		}

	mov	esp, ebp
	pop	ebp
	ret	0
??1HardwareBuffer@Ogre@@MAE@XZ ENDP			; Ogre::HardwareBuffer::~HardwareBuffer
_TEXT	ENDS
PUBLIC	?Set@HardwareBuffer@Ogre@@IAEXIII@Z		; Ogre::HardwareBuffer::Set
; Function compile flags: /Odtp
;	COMDAT ?Set@HardwareBuffer@Ogre@@IAEXIII@Z
_TEXT	SEGMENT
_this$ = -4						; size = 4
_start$ = 8						; size = 4
_nbytes$ = 12						; size = 4
_bubsize$ = 16						; size = 4
?Set@HardwareBuffer@Ogre@@IAEXIII@Z PROC		; Ogre::HardwareBuffer::Set, COMDAT
; _this$ = ecx

; 48   : 		{

	push	ebp
	mov	ebp, esp
	push	ecx
	mov	DWORD PTR _this$[ebp], ecx

; 49   : 			m_Start = start;

	mov	eax, DWORD PTR _this$[ebp]
	mov	ecx, DWORD PTR _start$[ebp]
	mov	DWORD PTR [eax+16], ecx

; 50   : 			m_Num = nbytes;

	mov	edx, DWORD PTR _this$[ebp]
	mov	eax, DWORD PTR _nbytes$[ebp]
	mov	DWORD PTR [edx+20], eax

; 51   : 			m_BubSize = bubsize;

	mov	ecx, DWORD PTR _this$[ebp]
	mov	edx, DWORD PTR _bubsize$[ebp]
	mov	DWORD PTR [ecx+24], edx

; 52   : 		}

	mov	esp, ebp
	pop	ebp
	ret	12					; 0000000cH
?Set@HardwareBuffer@Ogre@@IAEXIII@Z ENDP		; Ogre::HardwareBuffer::Set
_TEXT	ENDS
PUBLIC	??0HardwareBuffer@Ogre@@QAE@ABV01@@Z		; Ogre::HardwareBuffer::HardwareBuffer
; Function compile flags: /Odtp
;	COMDAT ??0HardwareBuffer@Ogre@@QAE@ABV01@@Z
_TEXT	SEGMENT
tv72 = -8						; size = 4
_this$ = -4						; size = 4
___that$ = 8						; size = 4
??0HardwareBuffer@Ogre@@QAE@ABV01@@Z PROC		; Ogre::HardwareBuffer::HardwareBuffer, COMDAT
; _this$ = ecx
	push	ebp
	mov	ebp, esp
	sub	esp, 8
	mov	DWORD PTR _this$[ebp], ecx
	cmp	DWORD PTR ___that$[ebp], 0
	je	SHORT $LN3@HardwareBu
	mov	eax, DWORD PTR ___that$[ebp]
	add	eax, 4
	mov	DWORD PTR tv72[ebp], eax
	jmp	SHORT $LN4@HardwareBu
$LN3@HardwareBu:
	mov	DWORD PTR tv72[ebp], 0
$LN4@HardwareBu:
	mov	ecx, DWORD PTR tv72[ebp]
	mov	edx, DWORD PTR [ecx]
	mov	eax, DWORD PTR [ecx+4]
	mov	ecx, DWORD PTR _this$[ebp]
	mov	DWORD PTR [ecx+4], edx
	mov	DWORD PTR [ecx+8], eax
	mov	edx, DWORD PTR _this$[ebp]
	mov	DWORD PTR [edx], OFFSET ??_7HardwareBuffer@Ogre@@6B@
	mov	eax, DWORD PTR _this$[ebp]
	mov	ecx, DWORD PTR ___that$[ebp]
	mov	dl, BYTE PTR [ecx+12]
	mov	BYTE PTR [eax+12], dl
	mov	eax, DWORD PTR _this$[ebp]
	mov	ecx, DWORD PTR ___that$[ebp]
	mov	edx, DWORD PTR [ecx+16]
	mov	DWORD PTR [eax+16], edx
	mov	eax, DWORD PTR _this$[ebp]
	mov	ecx, DWORD PTR ___that$[ebp]
	mov	edx, DWORD PTR [ecx+20]
	mov	DWORD PTR [eax+20], edx
	mov	eax, DWORD PTR _this$[ebp]
	mov	ecx, DWORD PTR ___that$[ebp]
	mov	edx, DWORD PTR [ecx+24]
	mov	DWORD PTR [eax+24], edx
	mov	eax, DWORD PTR _this$[ebp]
	mov	ecx, DWORD PTR ___that$[ebp]
	mov	edx, DWORD PTR [ecx+28]
	mov	DWORD PTR [eax+28], edx
	mov	eax, DWORD PTR _this$[ebp]
	mov	esp, ebp
	pop	ebp
	ret	4
??0HardwareBuffer@Ogre@@QAE@ABV01@@Z ENDP		; Ogre::HardwareBuffer::HardwareBuffer
_TEXT	ENDS
PUBLIC	??4HardwareBuffer@Ogre@@QAEAAV01@ABV01@@Z	; Ogre::HardwareBuffer::operator=
; Function compile flags: /Odtp
;	COMDAT ??4HardwareBuffer@Ogre@@QAEAAV01@ABV01@@Z
_TEXT	SEGMENT
tv72 = -8						; size = 4
_this$ = -4						; size = 4
___that$ = 8						; size = 4
??4HardwareBuffer@Ogre@@QAEAAV01@ABV01@@Z PROC		; Ogre::HardwareBuffer::operator=, COMDAT
; _this$ = ecx
	push	ebp
	mov	ebp, esp
	sub	esp, 8
	mov	DWORD PTR _this$[ebp], ecx
	cmp	DWORD PTR ___that$[ebp], 0
	je	SHORT $LN3@operator
	mov	eax, DWORD PTR ___that$[ebp]
	add	eax, 4
	mov	DWORD PTR tv72[ebp], eax
	jmp	SHORT $LN4@operator
$LN3@operator:
	mov	DWORD PTR tv72[ebp], 0
$LN4@operator:
	mov	ecx, DWORD PTR tv72[ebp]
	mov	edx, DWORD PTR [ecx]
	mov	eax, DWORD PTR [ecx+4]
	mov	ecx, DWORD PTR _this$[ebp]
	mov	DWORD PTR [ecx+4], edx
	mov	DWORD PTR [ecx+8], eax
	mov	edx, DWORD PTR _this$[ebp]
	mov	eax, DWORD PTR ___that$[ebp]
	mov	cl, BYTE PTR [eax+12]
	mov	BYTE PTR [edx+12], cl
	mov	edx, DWORD PTR _this$[ebp]
	mov	eax, DWORD PTR ___that$[ebp]
	mov	ecx, DWORD PTR [eax+16]
	mov	DWORD PTR [edx+16], ecx
	mov	edx, DWORD PTR _this$[ebp]
	mov	eax, DWORD PTR ___that$[ebp]
	mov	ecx, DWORD PTR [eax+20]
	mov	DWORD PTR [edx+20], ecx
	mov	edx, DWORD PTR _this$[ebp]
	mov	eax, DWORD PTR ___that$[ebp]
	mov	ecx, DWORD PTR [eax+24]
	mov	DWORD PTR [edx+24], ecx
	mov	edx, DWORD PTR _this$[ebp]
	mov	eax, DWORD PTR ___that$[ebp]
	mov	ecx, DWORD PTR [eax+28]
	mov	DWORD PTR [edx+28], ecx
	mov	eax, DWORD PTR _this$[ebp]
	mov	esp, ebp
	pop	ebp
	ret	4
??4HardwareBuffer@Ogre@@QAEAAV01@ABV01@@Z ENDP		; Ogre::HardwareBuffer::operator=
_TEXT	ENDS
PUBLIC	??_GHardwareBuffer@Ogre@@MAEPAXI@Z		; Ogre::HardwareBuffer::`scalar deleting destructor'
EXTRN	??3@YAXPAX@Z:PROC				; operator delete
; Function compile flags: /Odtp
;	COMDAT ??_GHardwareBuffer@Ogre@@MAEPAXI@Z
_TEXT	SEGMENT
_this$ = -4						; size = 4
___flags$ = 8						; size = 4
??_GHardwareBuffer@Ogre@@MAEPAXI@Z PROC			; Ogre::HardwareBuffer::`scalar deleting destructor', COMDAT
; _this$ = ecx
	push	ebp
	mov	ebp, esp
	push	ecx
	mov	DWORD PTR _this$[ebp], ecx
	mov	ecx, DWORD PTR _this$[ebp]
	call	??1HardwareBuffer@Ogre@@MAE@XZ		; Ogre::HardwareBuffer::~HardwareBuffer
	mov	eax, DWORD PTR ___flags$[ebp]
	and	eax, 1
	je	SHORT $LN1@scalar@6
	mov	ecx, DWORD PTR _this$[ebp]
	push	ecx
	call	??3@YAXPAX@Z				; operator delete
	add	esp, 4
$LN1@scalar@6:
	mov	eax, DWORD PTR _this$[ebp]
	mov	esp, ebp
	pop	ebp
	ret	4
??_GHardwareBuffer@Ogre@@MAEPAXI@Z ENDP			; Ogre::HardwareBuffer::`scalar deleting destructor'
_TEXT	ENDS
EXTRN	??_V@YAXPAX@Z:PROC				; operator delete[]
; Function compile flags: /Odtp
;	COMDAT ??_EHardwareBuffer@Ogre@@MAEPAXI@Z
_TEXT	SEGMENT
_this$ = -4						; size = 4
___flags$ = 8						; size = 4
??_EHardwareBuffer@Ogre@@MAEPAXI@Z PROC			; Ogre::HardwareBuffer::`vector deleting destructor', COMDAT
; _this$ = ecx
	push	ebp
	mov	ebp, esp
	push	ecx
	mov	DWORD PTR _this$[ebp], ecx
	mov	eax, DWORD PTR ___flags$[ebp]
	and	eax, 2
	je	SHORT $LN3@vector@6
	push	OFFSET ??1HardwareBuffer@Ogre@@MAE@XZ	; Ogre::HardwareBuffer::~HardwareBuffer
	mov	ecx, DWORD PTR _this$[ebp]
	mov	edx, DWORD PTR [ecx-4]
	push	edx
	push	32					; 00000020H
	mov	eax, DWORD PTR _this$[ebp]
	push	eax
	call	??_M@YGXPAXIHP6EX0@Z@Z
	mov	ecx, DWORD PTR ___flags$[ebp]
	and	ecx, 1
	je	SHORT $LN2@vector@6
	mov	edx, DWORD PTR _this$[ebp]
	sub	edx, 4
	push	edx
	call	??_V@YAXPAX@Z				; operator delete[]
	add	esp, 4
$LN2@vector@6:
	mov	eax, DWORD PTR _this$[ebp]
	sub	eax, 4
	jmp	SHORT $LN4@vector@6
$LN3@vector@6:
	mov	ecx, DWORD PTR _this$[ebp]
	call	??1HardwareBuffer@Ogre@@MAE@XZ		; Ogre::HardwareBuffer::~HardwareBuffer
	mov	eax, DWORD PTR ___flags$[ebp]
	and	eax, 1
	je	SHORT $LN1@vector@6
	mov	ecx, DWORD PTR _this$[ebp]
	push	ecx
	call	??3@YAXPAX@Z				; operator delete
	add	esp, 4
$LN1@vector@6:
	mov	eax, DWORD PTR _this$[ebp]
$LN4@vector@6:
	mov	esp, ebp
	pop	ebp
	ret	4
??_EHardwareBuffer@Ogre@@MAEPAXI@Z ENDP			; Ogre::HardwareBuffer::`vector deleting destructor'
_TEXT	ENDS
PUBLIC	??_7HardwareIndexBuffer@Ogre@@6B@		; Ogre::HardwareIndexBuffer::`vftable'
PUBLIC	??0HardwareIndexBuffer@Ogre@@QAE@PAVHardwareBufferPool@1@@Z ; Ogre::HardwareIndexBuffer::HardwareIndexBuffer
PUBLIC	??_R4HardwareIndexBuffer@Ogre@@6B@		; Ogre::HardwareIndexBuffer::`RTTI Complete Object Locator'
PUBLIC	??_R0?AVHardwareIndexBuffer@Ogre@@@8		; Ogre::HardwareIndexBuffer `RTTI Type Descriptor'
PUBLIC	??_R3HardwareIndexBuffer@Ogre@@8		; Ogre::HardwareIndexBuffer::`RTTI Class Hierarchy Descriptor'
PUBLIC	??_R2HardwareIndexBuffer@Ogre@@8		; Ogre::HardwareIndexBuffer::`RTTI Base Class Array'
PUBLIC	??_R1A@?0A@EA@HardwareIndexBuffer@Ogre@@8	; Ogre::HardwareIndexBuffer::`RTTI Base Class Descriptor at (0,-1,0,64)'
PUBLIC	??_EHardwareIndexBuffer@Ogre@@UAEPAXI@Z		; Ogre::HardwareIndexBuffer::`vector deleting destructor'
;	COMDAT ??_R1A@?0A@EA@HardwareIndexBuffer@Ogre@@8
rdata$r	SEGMENT
??_R1A@?0A@EA@HardwareIndexBuffer@Ogre@@8 DD FLAT:??_R0?AVHardwareIndexBuffer@Ogre@@@8 ; Ogre::HardwareIndexBuffer::`RTTI Base Class Descriptor at (0,-1,0,64)'
	DD	02H
	DD	00H
	DD	0ffffffffH
	DD	00H
	DD	040H
	DD	FLAT:??_R3HardwareIndexBuffer@Ogre@@8
rdata$r	ENDS
;	COMDAT ??_R2HardwareIndexBuffer@Ogre@@8
rdata$r	SEGMENT
??_R2HardwareIndexBuffer@Ogre@@8 DD FLAT:??_R1A@?0A@EA@HardwareIndexBuffer@Ogre@@8 ; Ogre::HardwareIndexBuffer::`RTTI Base Class Array'
	DD	FLAT:??_R1A@?0A@EA@HardwareBuffer@Ogre@@8
	DD	FLAT:??_R13?0A@EN@ChainListNode@Ogre@@8
rdata$r	ENDS
;	COMDAT ??_R3HardwareIndexBuffer@Ogre@@8
rdata$r	SEGMENT
??_R3HardwareIndexBuffer@Ogre@@8 DD 00H			; Ogre::HardwareIndexBuffer::`RTTI Class Hierarchy Descriptor'
	DD	00H
	DD	03H
	DD	FLAT:??_R2HardwareIndexBuffer@Ogre@@8
rdata$r	ENDS
;	COMDAT ??_R0?AVHardwareIndexBuffer@Ogre@@@8
_DATA	SEGMENT
??_R0?AVHardwareIndexBuffer@Ogre@@@8 DD FLAT:??_7type_info@@6B@ ; Ogre::HardwareIndexBuffer `RTTI Type Descriptor'
	DD	00H
	DB	'.?AVHardwareIndexBuffer@Ogre@@', 00H
_DATA	ENDS
;	COMDAT ??_R4HardwareIndexBuffer@Ogre@@6B@
rdata$r	SEGMENT
??_R4HardwareIndexBuffer@Ogre@@6B@ DD 00H		; Ogre::HardwareIndexBuffer::`RTTI Complete Object Locator'
	DD	00H
	DD	00H
	DD	FLAT:??_R0?AVHardwareIndexBuffer@Ogre@@@8
	DD	FLAT:??_R3HardwareIndexBuffer@Ogre@@8
rdata$r	ENDS
;	COMDAT ??_7HardwareIndexBuffer@Ogre@@6B@
CONST	SEGMENT
??_7HardwareIndexBuffer@Ogre@@6B@ DD FLAT:??_R4HardwareIndexBuffer@Ogre@@6B@ ; Ogre::HardwareIndexBuffer::`vftable'
	DD	FLAT:??_EHardwareIndexBuffer@Ogre@@UAEPAXI@Z
CONST	ENDS
;	COMDAT xdata$x
xdata$x	SEGMENT
__unwindtable$??0HardwareIndexBuffer@Ogre@@QAE@PAVHardwareBufferPool@1@@Z DD 0ffffffffH
	DD	FLAT:__unwindfunclet$??0HardwareIndexBuffer@Ogre@@QAE@PAVHardwareBufferPool@1@@Z$0
__ehfuncinfo$??0HardwareIndexBuffer@Ogre@@QAE@PAVHardwareBufferPool@1@@Z DD 019930522H
	DD	01H
	DD	FLAT:__unwindtable$??0HardwareIndexBuffer@Ogre@@QAE@PAVHardwareBufferPool@1@@Z
	DD	2 DUP(00H)
	DD	2 DUP(00H)
	DD	00H
	DD	00H
; Function compile flags: /Odtp
xdata$x	ENDS
;	COMDAT ??0HardwareIndexBuffer@Ogre@@QAE@PAVHardwareBufferPool@1@@Z
_TEXT	SEGMENT
_this$ = -16						; size = 4
__$EHRec$ = -12						; size = 12
_pool$ = 8						; size = 4
??0HardwareIndexBuffer@Ogre@@QAE@PAVHardwareBufferPool@1@@Z PROC ; Ogre::HardwareIndexBuffer::HardwareIndexBuffer, COMDAT
; _this$ = ecx

; 68   : 		{

	push	ebp
	mov	ebp, esp
	push	-1
	push	__ehhandler$??0HardwareIndexBuffer@Ogre@@QAE@PAVHardwareBufferPool@1@@Z
	mov	eax, DWORD PTR fs:0
	push	eax
	push	ecx
	mov	eax, DWORD PTR ___security_cookie
	xor	eax, ebp
	push	eax
	lea	eax, DWORD PTR __$EHRec$[ebp]
	mov	DWORD PTR fs:0, eax
	mov	DWORD PTR _this$[ebp], ecx
	mov	eax, DWORD PTR _pool$[ebp]
	push	eax
	mov	ecx, DWORD PTR _this$[ebp]
	call	??0HardwareBuffer@Ogre@@IAE@PAVHardwareBufferPool@1@@Z ; Ogre::HardwareBuffer::HardwareBuffer
	mov	DWORD PTR __$EHRec$[ebp+8], 0
	mov	ecx, DWORD PTR _this$[ebp]
	mov	DWORD PTR [ecx], OFFSET ??_7HardwareIndexBuffer@Ogre@@6B@

; 69   : 		}

	mov	DWORD PTR __$EHRec$[ebp+8], -1
	mov	eax, DWORD PTR _this$[ebp]
	mov	ecx, DWORD PTR __$EHRec$[ebp]
	mov	DWORD PTR fs:0, ecx
	pop	ecx
	mov	esp, ebp
	pop	ebp
	ret	4
_TEXT	ENDS
;	COMDAT text$x
text$x	SEGMENT
__unwindfunclet$??0HardwareIndexBuffer@Ogre@@QAE@PAVHardwareBufferPool@1@@Z$0:
	mov	ecx, DWORD PTR _this$[ebp]
	jmp	??1HardwareBuffer@Ogre@@MAE@XZ		; Ogre::HardwareBuffer::~HardwareBuffer
__ehhandler$??0HardwareIndexBuffer@Ogre@@QAE@PAVHardwareBufferPool@1@@Z:
	mov	edx, DWORD PTR [esp+8]
	lea	eax, DWORD PTR [edx+12]
	mov	ecx, DWORD PTR [edx-8]
	xor	ecx, eax
	call	@__security_check_cookie@4
	mov	eax, OFFSET __ehfuncinfo$??0HardwareIndexBuffer@Ogre@@QAE@PAVHardwareBufferPool@1@@Z
	jmp	___CxxFrameHandler3
text$x	ENDS
??0HardwareIndexBuffer@Ogre@@QAE@PAVHardwareBufferPool@1@@Z ENDP ; Ogre::HardwareIndexBuffer::HardwareIndexBuffer
PUBLIC	?getStartIndex@HardwareIndexBuffer@Ogre@@QAEIXZ	; Ogre::HardwareIndexBuffer::getStartIndex
; Function compile flags: /Odtp
;	COMDAT ?getStartIndex@HardwareIndexBuffer@Ogre@@QAEIXZ
_TEXT	SEGMENT
_this$ = -4						; size = 4
?getStartIndex@HardwareIndexBuffer@Ogre@@QAEIXZ PROC	; Ogre::HardwareIndexBuffer::getStartIndex, COMDAT
; _this$ = ecx

; 72   : 		{

	push	ebp
	mov	ebp, esp
	push	ecx
	mov	DWORD PTR _this$[ebp], ecx

; 73   : 			return getStart()/2;

	mov	ecx, DWORD PTR _this$[ebp]
	call	?getStart@HardwareBuffer@Ogre@@QAEIXZ	; Ogre::HardwareBuffer::getStart
	shr	eax, 1

; 74   : 		}

	mov	esp, ebp
	pop	ebp
	ret	0
?getStartIndex@HardwareIndexBuffer@Ogre@@QAEIXZ ENDP	; Ogre::HardwareIndexBuffer::getStartIndex
_TEXT	ENDS
PUBLIC	??1HardwareIndexBuffer@Ogre@@UAE@XZ		; Ogre::HardwareIndexBuffer::~HardwareIndexBuffer
;	COMDAT xdata$x
xdata$x	SEGMENT
__unwindtable$??1HardwareIndexBuffer@Ogre@@UAE@XZ DD 0ffffffffH
	DD	FLAT:__unwindfunclet$??1HardwareIndexBuffer@Ogre@@UAE@XZ$0
__ehfuncinfo$??1HardwareIndexBuffer@Ogre@@UAE@XZ DD 019930522H
	DD	01H
	DD	FLAT:__unwindtable$??1HardwareIndexBuffer@Ogre@@UAE@XZ
	DD	2 DUP(00H)
	DD	2 DUP(00H)
	DD	00H
	DD	00H
; Function compile flags: /Odtp
xdata$x	ENDS
;	COMDAT ??1HardwareIndexBuffer@Ogre@@UAE@XZ
_TEXT	SEGMENT
_this$ = -16						; size = 4
__$EHRec$ = -12						; size = 12
??1HardwareIndexBuffer@Ogre@@UAE@XZ PROC		; Ogre::HardwareIndexBuffer::~HardwareIndexBuffer, COMDAT
; _this$ = ecx
	push	ebp
	mov	ebp, esp
	push	-1
	push	__ehhandler$??1HardwareIndexBuffer@Ogre@@UAE@XZ
	mov	eax, DWORD PTR fs:0
	push	eax
	push	ecx
	mov	eax, DWORD PTR ___security_cookie
	xor	eax, ebp
	push	eax
	lea	eax, DWORD PTR __$EHRec$[ebp]
	mov	DWORD PTR fs:0, eax
	mov	DWORD PTR _this$[ebp], ecx
	mov	DWORD PTR __$EHRec$[ebp+8], 0
	mov	DWORD PTR __$EHRec$[ebp+8], -1
	mov	ecx, DWORD PTR _this$[ebp]
	call	??1HardwareBuffer@Ogre@@MAE@XZ		; Ogre::HardwareBuffer::~HardwareBuffer
	mov	ecx, DWORD PTR __$EHRec$[ebp]
	mov	DWORD PTR fs:0, ecx
	pop	ecx
	mov	esp, ebp
	pop	ebp
	ret	0
_TEXT	ENDS
;	COMDAT text$x
text$x	SEGMENT
__unwindfunclet$??1HardwareIndexBuffer@Ogre@@UAE@XZ$0:
	mov	ecx, DWORD PTR _this$[ebp]
	jmp	??1HardwareBuffer@Ogre@@MAE@XZ		; Ogre::HardwareBuffer::~HardwareBuffer
__ehhandler$??1HardwareIndexBuffer@Ogre@@UAE@XZ:
	mov	edx, DWORD PTR [esp+8]
	lea	eax, DWORD PTR [edx+12]
	mov	ecx, DWORD PTR [edx-8]
	xor	ecx, eax
	call	@__security_check_cookie@4
	mov	eax, OFFSET __ehfuncinfo$??1HardwareIndexBuffer@Ogre@@UAE@XZ
	jmp	___CxxFrameHandler3
text$x	ENDS
??1HardwareIndexBuffer@Ogre@@UAE@XZ ENDP		; Ogre::HardwareIndexBuffer::~HardwareIndexBuffer
PUBLIC	??0HardwareIndexBuffer@Ogre@@QAE@ABV01@@Z	; Ogre::HardwareIndexBuffer::HardwareIndexBuffer
;	COMDAT xdata$x
xdata$x	SEGMENT
__unwindtable$??0HardwareIndexBuffer@Ogre@@QAE@ABV01@@Z DD 0ffffffffH
	DD	FLAT:__unwindfunclet$??0HardwareIndexBuffer@Ogre@@QAE@ABV01@@Z$0
__ehfuncinfo$??0HardwareIndexBuffer@Ogre@@QAE@ABV01@@Z DD 019930522H
	DD	01H
	DD	FLAT:__unwindtable$??0HardwareIndexBuffer@Ogre@@QAE@ABV01@@Z
	DD	2 DUP(00H)
	DD	2 DUP(00H)
	DD	00H
	DD	00H
; Function compile flags: /Odtp
xdata$x	ENDS
;	COMDAT ??0HardwareIndexBuffer@Ogre@@QAE@ABV01@@Z
_TEXT	SEGMENT
_this$ = -16						; size = 4
__$EHRec$ = -12						; size = 12
___that$ = 8						; size = 4
??0HardwareIndexBuffer@Ogre@@QAE@ABV01@@Z PROC		; Ogre::HardwareIndexBuffer::HardwareIndexBuffer, COMDAT
; _this$ = ecx
	push	ebp
	mov	ebp, esp
	push	-1
	push	__ehhandler$??0HardwareIndexBuffer@Ogre@@QAE@ABV01@@Z
	mov	eax, DWORD PTR fs:0
	push	eax
	push	ecx
	mov	eax, DWORD PTR ___security_cookie
	xor	eax, ebp
	push	eax
	lea	eax, DWORD PTR __$EHRec$[ebp]
	mov	DWORD PTR fs:0, eax
	mov	DWORD PTR _this$[ebp], ecx
	mov	eax, DWORD PTR ___that$[ebp]
	push	eax
	mov	ecx, DWORD PTR _this$[ebp]
	call	??0HardwareBuffer@Ogre@@QAE@ABV01@@Z
	mov	DWORD PTR __$EHRec$[ebp+8], 0
	mov	ecx, DWORD PTR _this$[ebp]
	mov	DWORD PTR [ecx], OFFSET ??_7HardwareIndexBuffer@Ogre@@6B@
	mov	DWORD PTR __$EHRec$[ebp+8], -1
	mov	eax, DWORD PTR _this$[ebp]
	mov	ecx, DWORD PTR __$EHRec$[ebp]
	mov	DWORD PTR fs:0, ecx
	pop	ecx
	mov	esp, ebp
	pop	ebp
	ret	4
_TEXT	ENDS
;	COMDAT text$x
text$x	SEGMENT
__unwindfunclet$??0HardwareIndexBuffer@Ogre@@QAE@ABV01@@Z$0:
	mov	ecx, DWORD PTR _this$[ebp]
	jmp	??1HardwareBuffer@Ogre@@MAE@XZ		; Ogre::HardwareBuffer::~HardwareBuffer
__ehhandler$??0HardwareIndexBuffer@Ogre@@QAE@ABV01@@Z:
	mov	edx, DWORD PTR [esp+8]
	lea	eax, DWORD PTR [edx+12]
	mov	ecx, DWORD PTR [edx-8]
	xor	ecx, eax
	call	@__security_check_cookie@4
	mov	eax, OFFSET __ehfuncinfo$??0HardwareIndexBuffer@Ogre@@QAE@ABV01@@Z
	jmp	___CxxFrameHandler3
text$x	ENDS
??0HardwareIndexBuffer@Ogre@@QAE@ABV01@@Z ENDP		; Ogre::HardwareIndexBuffer::HardwareIndexBuffer
PUBLIC	??4HardwareIndexBuffer@Ogre@@QAEAAV01@ABV01@@Z	; Ogre::HardwareIndexBuffer::operator=
; Function compile flags: /Odtp
;	COMDAT ??4HardwareIndexBuffer@Ogre@@QAEAAV01@ABV01@@Z
_TEXT	SEGMENT
_this$ = -4						; size = 4
___that$ = 8						; size = 4
??4HardwareIndexBuffer@Ogre@@QAEAAV01@ABV01@@Z PROC	; Ogre::HardwareIndexBuffer::operator=, COMDAT
; _this$ = ecx
	push	ebp
	mov	ebp, esp
	push	ecx
	mov	DWORD PTR _this$[ebp], ecx
	mov	eax, DWORD PTR ___that$[ebp]
	push	eax
	mov	ecx, DWORD PTR _this$[ebp]
	call	??4HardwareBuffer@Ogre@@QAEAAV01@ABV01@@Z
	mov	eax, DWORD PTR _this$[ebp]
	mov	esp, ebp
	pop	ebp
	ret	4
??4HardwareIndexBuffer@Ogre@@QAEAAV01@ABV01@@Z ENDP	; Ogre::HardwareIndexBuffer::operator=
_TEXT	ENDS
PUBLIC	??_GHardwareIndexBuffer@Ogre@@UAEPAXI@Z		; Ogre::HardwareIndexBuffer::`scalar deleting destructor'
; Function compile flags: /Odtp
;	COMDAT ??_GHardwareIndexBuffer@Ogre@@UAEPAXI@Z
_TEXT	SEGMENT
_this$ = -4						; size = 4
___flags$ = 8						; size = 4
??_GHardwareIndexBuffer@Ogre@@UAEPAXI@Z PROC		; Ogre::HardwareIndexBuffer::`scalar deleting destructor', COMDAT
; _this$ = ecx
	push	ebp
	mov	ebp, esp
	push	ecx
	mov	DWORD PTR _this$[ebp], ecx
	mov	ecx, DWORD PTR _this$[ebp]
	call	??1HardwareIndexBuffer@Ogre@@UAE@XZ
	mov	eax, DWORD PTR ___flags$[ebp]
	and	eax, 1
	je	SHORT $LN1@scalar@7
	mov	ecx, DWORD PTR _this$[ebp]
	push	ecx
	call	??3@YAXPAX@Z				; operator delete
	add	esp, 4
$LN1@scalar@7:
	mov	eax, DWORD PTR _this$[ebp]
	mov	esp, ebp
	pop	ebp
	ret	4
??_GHardwareIndexBuffer@Ogre@@UAEPAXI@Z ENDP		; Ogre::HardwareIndexBuffer::`scalar deleting destructor'
; Function compile flags: /Odtp
_TEXT	ENDS
;	COMDAT ??_EHardwareIndexBuffer@Ogre@@UAEPAXI@Z
_TEXT	SEGMENT
_this$ = -4						; size = 4
___flags$ = 8						; size = 4
??_EHardwareIndexBuffer@Ogre@@UAEPAXI@Z PROC		; Ogre::HardwareIndexBuffer::`vector deleting destructor', COMDAT
; _this$ = ecx
	push	ebp
	mov	ebp, esp
	push	ecx
	mov	DWORD PTR _this$[ebp], ecx
	mov	eax, DWORD PTR ___flags$[ebp]
	and	eax, 2
	je	SHORT $LN3@vector@7
	push	OFFSET ??1HardwareIndexBuffer@Ogre@@UAE@XZ
	mov	ecx, DWORD PTR _this$[ebp]
	mov	edx, DWORD PTR [ecx-4]
	push	edx
	push	32					; 00000020H
	mov	eax, DWORD PTR _this$[ebp]
	push	eax
	call	??_M@YGXPAXIHP6EX0@Z@Z
	mov	ecx, DWORD PTR ___flags$[ebp]
	and	ecx, 1
	je	SHORT $LN2@vector@7
	mov	edx, DWORD PTR _this$[ebp]
	sub	edx, 4
	push	edx
	call	??_V@YAXPAX@Z				; operator delete[]
	add	esp, 4
$LN2@vector@7:
	mov	eax, DWORD PTR _this$[ebp]
	sub	eax, 4
	jmp	SHORT $LN4@vector@7
$LN3@vector@7:
	mov	ecx, DWORD PTR _this$[ebp]
	call	??1HardwareIndexBuffer@Ogre@@UAE@XZ
	mov	eax, DWORD PTR ___flags$[ebp]
	and	eax, 1
	je	SHORT $LN1@vector@7
	mov	ecx, DWORD PTR _this$[ebp]
	push	ecx
	call	??3@YAXPAX@Z				; operator delete
	add	esp, 4
$LN1@vector@7:
	mov	eax, DWORD PTR _this$[ebp]
$LN4@vector@7:
	mov	esp, ebp
	pop	ebp
	ret	4
??_EHardwareIndexBuffer@Ogre@@UAEPAXI@Z ENDP		; Ogre::HardwareIndexBuffer::`vector deleting destructor'
_TEXT	ENDS
PUBLIC	??_7HardwareVertexBuffer@Ogre@@6B@		; Ogre::HardwareVertexBuffer::`vftable'
PUBLIC	??0HardwareVertexBuffer@Ogre@@QAE@PAVHardwareBufferPool@1@@Z ; Ogre::HardwareVertexBuffer::HardwareVertexBuffer
PUBLIC	??_R4HardwareVertexBuffer@Ogre@@6B@		; Ogre::HardwareVertexBuffer::`RTTI Complete Object Locator'
PUBLIC	??_R0?AVHardwareVertexBuffer@Ogre@@@8		; Ogre::HardwareVertexBuffer `RTTI Type Descriptor'
PUBLIC	??_R3HardwareVertexBuffer@Ogre@@8		; Ogre::HardwareVertexBuffer::`RTTI Class Hierarchy Descriptor'
PUBLIC	??_R2HardwareVertexBuffer@Ogre@@8		; Ogre::HardwareVertexBuffer::`RTTI Base Class Array'
PUBLIC	??_R1A@?0A@EA@HardwareVertexBuffer@Ogre@@8	; Ogre::HardwareVertexBuffer::`RTTI Base Class Descriptor at (0,-1,0,64)'
PUBLIC	??_EHardwareVertexBuffer@Ogre@@UAEPAXI@Z	; Ogre::HardwareVertexBuffer::`vector deleting destructor'
;	COMDAT ??_R1A@?0A@EA@HardwareVertexBuffer@Ogre@@8
rdata$r	SEGMENT
??_R1A@?0A@EA@HardwareVertexBuffer@Ogre@@8 DD FLAT:??_R0?AVHardwareVertexBuffer@Ogre@@@8 ; Ogre::HardwareVertexBuffer::`RTTI Base Class Descriptor at (0,-1,0,64)'
	DD	02H
	DD	00H
	DD	0ffffffffH
	DD	00H
	DD	040H
	DD	FLAT:??_R3HardwareVertexBuffer@Ogre@@8
rdata$r	ENDS
;	COMDAT ??_R2HardwareVertexBuffer@Ogre@@8
rdata$r	SEGMENT
??_R2HardwareVertexBuffer@Ogre@@8 DD FLAT:??_R1A@?0A@EA@HardwareVertexBuffer@Ogre@@8 ; Ogre::HardwareVertexBuffer::`RTTI Base Class Array'
	DD	FLAT:??_R1A@?0A@EA@HardwareBuffer@Ogre@@8
	DD	FLAT:??_R13?0A@EN@ChainListNode@Ogre@@8
rdata$r	ENDS
;	COMDAT ??_R3HardwareVertexBuffer@Ogre@@8
rdata$r	SEGMENT
??_R3HardwareVertexBuffer@Ogre@@8 DD 00H		; Ogre::HardwareVertexBuffer::`RTTI Class Hierarchy Descriptor'
	DD	00H
	DD	03H
	DD	FLAT:??_R2HardwareVertexBuffer@Ogre@@8
rdata$r	ENDS
;	COMDAT ??_R0?AVHardwareVertexBuffer@Ogre@@@8
_DATA	SEGMENT
??_R0?AVHardwareVertexBuffer@Ogre@@@8 DD FLAT:??_7type_info@@6B@ ; Ogre::HardwareVertexBuffer `RTTI Type Descriptor'
	DD	00H
	DB	'.?AVHardwareVertexBuffer@Ogre@@', 00H
_DATA	ENDS
;	COMDAT ??_R4HardwareVertexBuffer@Ogre@@6B@
rdata$r	SEGMENT
??_R4HardwareVertexBuffer@Ogre@@6B@ DD 00H		; Ogre::HardwareVertexBuffer::`RTTI Complete Object Locator'
	DD	00H
	DD	00H
	DD	FLAT:??_R0?AVHardwareVertexBuffer@Ogre@@@8
	DD	FLAT:??_R3HardwareVertexBuffer@Ogre@@8
rdata$r	ENDS
;	COMDAT ??_7HardwareVertexBuffer@Ogre@@6B@
CONST	SEGMENT
??_7HardwareVertexBuffer@Ogre@@6B@ DD FLAT:??_R4HardwareVertexBuffer@Ogre@@6B@ ; Ogre::HardwareVertexBuffer::`vftable'
	DD	FLAT:??_EHardwareVertexBuffer@Ogre@@UAEPAXI@Z
CONST	ENDS
;	COMDAT xdata$x
xdata$x	SEGMENT
__unwindtable$??0HardwareVertexBuffer@Ogre@@QAE@PAVHardwareBufferPool@1@@Z DD 0ffffffffH
	DD	FLAT:__unwindfunclet$??0HardwareVertexBuffer@Ogre@@QAE@PAVHardwareBufferPool@1@@Z$0
__ehfuncinfo$??0HardwareVertexBuffer@Ogre@@QAE@PAVHardwareBufferPool@1@@Z DD 019930522H
	DD	01H
	DD	FLAT:__unwindtable$??0HardwareVertexBuffer@Ogre@@QAE@PAVHardwareBufferPool@1@@Z
	DD	2 DUP(00H)
	DD	2 DUP(00H)
	DD	00H
	DD	00H
; Function compile flags: /Odtp
xdata$x	ENDS
;	COMDAT ??0HardwareVertexBuffer@Ogre@@QAE@PAVHardwareBufferPool@1@@Z
_TEXT	SEGMENT
_this$ = -16						; size = 4
__$EHRec$ = -12						; size = 12
_pool$ = 8						; size = 4
??0HardwareVertexBuffer@Ogre@@QAE@PAVHardwareBufferPool@1@@Z PROC ; Ogre::HardwareVertexBuffer::HardwareVertexBuffer, COMDAT
; _this$ = ecx

; 84   : 		{

	push	ebp
	mov	ebp, esp
	push	-1
	push	__ehhandler$??0HardwareVertexBuffer@Ogre@@QAE@PAVHardwareBufferPool@1@@Z
	mov	eax, DWORD PTR fs:0
	push	eax
	push	ecx
	mov	eax, DWORD PTR ___security_cookie
	xor	eax, ebp
	push	eax
	lea	eax, DWORD PTR __$EHRec$[ebp]
	mov	DWORD PTR fs:0, eax
	mov	DWORD PTR _this$[ebp], ecx
	mov	eax, DWORD PTR _pool$[ebp]
	push	eax
	mov	ecx, DWORD PTR _this$[ebp]
	call	??0HardwareBuffer@Ogre@@IAE@PAVHardwareBufferPool@1@@Z ; Ogre::HardwareBuffer::HardwareBuffer
	mov	DWORD PTR __$EHRec$[ebp+8], 0
	mov	ecx, DWORD PTR _this$[ebp]
	mov	DWORD PTR [ecx], OFFSET ??_7HardwareVertexBuffer@Ogre@@6B@
	mov	edx, DWORD PTR _this$[ebp]
	mov	DWORD PTR [edx+32], 0

; 85   : 		}

	mov	DWORD PTR __$EHRec$[ebp+8], -1
	mov	eax, DWORD PTR _this$[ebp]
	mov	ecx, DWORD PTR __$EHRec$[ebp]
	mov	DWORD PTR fs:0, ecx
	pop	ecx
	mov	esp, ebp
	pop	ebp
	ret	4
_TEXT	ENDS
;	COMDAT text$x
text$x	SEGMENT
__unwindfunclet$??0HardwareVertexBuffer@Ogre@@QAE@PAVHardwareBufferPool@1@@Z$0:
	mov	ecx, DWORD PTR _this$[ebp]
	jmp	??1HardwareBuffer@Ogre@@MAE@XZ		; Ogre::HardwareBuffer::~HardwareBuffer
__ehhandler$??0HardwareVertexBuffer@Ogre@@QAE@PAVHardwareBufferPool@1@@Z:
	mov	edx, DWORD PTR [esp+8]
	lea	eax, DWORD PTR [edx+12]
	mov	ecx, DWORD PTR [edx-8]
	xor	ecx, eax
	call	@__security_check_cookie@4
	mov	eax, OFFSET __ehfuncinfo$??0HardwareVertexBuffer@Ogre@@QAE@PAVHardwareBufferPool@1@@Z
	jmp	___CxxFrameHandler3
text$x	ENDS
??0HardwareVertexBuffer@Ogre@@QAE@PAVHardwareBufferPool@1@@Z ENDP ; Ogre::HardwareVertexBuffer::HardwareVertexBuffer
PUBLIC	?setStride@HardwareVertexBuffer@Ogre@@QAEXI@Z	; Ogre::HardwareVertexBuffer::setStride
; Function compile flags: /Odtp
;	COMDAT ?setStride@HardwareVertexBuffer@Ogre@@QAEXI@Z
_TEXT	SEGMENT
_this$ = -4						; size = 4
_stride$ = 8						; size = 4
?setStride@HardwareVertexBuffer@Ogre@@QAEXI@Z PROC	; Ogre::HardwareVertexBuffer::setStride, COMDAT
; _this$ = ecx

; 88   : 		{

	push	ebp
	mov	ebp, esp
	push	ecx
	mov	DWORD PTR _this$[ebp], ecx

; 89   : 			m_Stride = stride;

	mov	eax, DWORD PTR _this$[ebp]
	mov	ecx, DWORD PTR _stride$[ebp]
	mov	DWORD PTR [eax+32], ecx

; 90   : 		}

	mov	esp, ebp
	pop	ebp
	ret	4
?setStride@HardwareVertexBuffer@Ogre@@QAEXI@Z ENDP	; Ogre::HardwareVertexBuffer::setStride
_TEXT	ENDS
PUBLIC	??1HardwareVertexBuffer@Ogre@@UAE@XZ		; Ogre::HardwareVertexBuffer::~HardwareVertexBuffer
;	COMDAT xdata$x
xdata$x	SEGMENT
__unwindtable$??1HardwareVertexBuffer@Ogre@@UAE@XZ DD 0ffffffffH
	DD	FLAT:__unwindfunclet$??1HardwareVertexBuffer@Ogre@@UAE@XZ$0
__ehfuncinfo$??1HardwareVertexBuffer@Ogre@@UAE@XZ DD 019930522H
	DD	01H
	DD	FLAT:__unwindtable$??1HardwareVertexBuffer@Ogre@@UAE@XZ
	DD	2 DUP(00H)
	DD	2 DUP(00H)
	DD	00H
	DD	00H
; Function compile flags: /Odtp
xdata$x	ENDS
;	COMDAT ??1HardwareVertexBuffer@Ogre@@UAE@XZ
_TEXT	SEGMENT
_this$ = -16						; size = 4
__$EHRec$ = -12						; size = 12
??1HardwareVertexBuffer@Ogre@@UAE@XZ PROC		; Ogre::HardwareVertexBuffer::~HardwareVertexBuffer, COMDAT
; _this$ = ecx
	push	ebp
	mov	ebp, esp
	push	-1
	push	__ehhandler$??1HardwareVertexBuffer@Ogre@@UAE@XZ
	mov	eax, DWORD PTR fs:0
	push	eax
	push	ecx
	mov	eax, DWORD PTR ___security_cookie
	xor	eax, ebp
	push	eax
	lea	eax, DWORD PTR __$EHRec$[ebp]
	mov	DWORD PTR fs:0, eax
	mov	DWORD PTR _this$[ebp], ecx
	mov	DWORD PTR __$EHRec$[ebp+8], 0
	mov	DWORD PTR __$EHRec$[ebp+8], -1
	mov	ecx, DWORD PTR _this$[ebp]
	call	??1HardwareBuffer@Ogre@@MAE@XZ		; Ogre::HardwareBuffer::~HardwareBuffer
	mov	ecx, DWORD PTR __$EHRec$[ebp]
	mov	DWORD PTR fs:0, ecx
	pop	ecx
	mov	esp, ebp
	pop	ebp
	ret	0
_TEXT	ENDS
;	COMDAT text$x
text$x	SEGMENT
__unwindfunclet$??1HardwareVertexBuffer@Ogre@@UAE@XZ$0:
	mov	ecx, DWORD PTR _this$[ebp]
	jmp	??1HardwareBuffer@Ogre@@MAE@XZ		; Ogre::HardwareBuffer::~HardwareBuffer
__ehhandler$??1HardwareVertexBuffer@Ogre@@UAE@XZ:
	mov	edx, DWORD PTR [esp+8]
	lea	eax, DWORD PTR [edx+12]
	mov	ecx, DWORD PTR [edx-8]
	xor	ecx, eax
	call	@__security_check_cookie@4
	mov	eax, OFFSET __ehfuncinfo$??1HardwareVertexBuffer@Ogre@@UAE@XZ
	jmp	___CxxFrameHandler3
text$x	ENDS
??1HardwareVertexBuffer@Ogre@@UAE@XZ ENDP		; Ogre::HardwareVertexBuffer::~HardwareVertexBuffer
PUBLIC	??0HardwareVertexBuffer@Ogre@@QAE@ABV01@@Z	; Ogre::HardwareVertexBuffer::HardwareVertexBuffer
;	COMDAT xdata$x
xdata$x	SEGMENT
__unwindtable$??0HardwareVertexBuffer@Ogre@@QAE@ABV01@@Z DD 0ffffffffH
	DD	FLAT:__unwindfunclet$??0HardwareVertexBuffer@Ogre@@QAE@ABV01@@Z$0
__ehfuncinfo$??0HardwareVertexBuffer@Ogre@@QAE@ABV01@@Z DD 019930522H
	DD	01H
	DD	FLAT:__unwindtable$??0HardwareVertexBuffer@Ogre@@QAE@ABV01@@Z
	DD	2 DUP(00H)
	DD	2 DUP(00H)
	DD	00H
	DD	00H
; Function compile flags: /Odtp
xdata$x	ENDS
;	COMDAT ??0HardwareVertexBuffer@Ogre@@QAE@ABV01@@Z
_TEXT	SEGMENT
_this$ = -16						; size = 4
__$EHRec$ = -12						; size = 12
___that$ = 8						; size = 4
??0HardwareVertexBuffer@Ogre@@QAE@ABV01@@Z PROC		; Ogre::HardwareVertexBuffer::HardwareVertexBuffer, COMDAT
; _this$ = ecx
	push	ebp
	mov	ebp, esp
	push	-1
	push	__ehhandler$??0HardwareVertexBuffer@Ogre@@QAE@ABV01@@Z
	mov	eax, DWORD PTR fs:0
	push	eax
	push	ecx
	mov	eax, DWORD PTR ___security_cookie
	xor	eax, ebp
	push	eax
	lea	eax, DWORD PTR __$EHRec$[ebp]
	mov	DWORD PTR fs:0, eax
	mov	DWORD PTR _this$[ebp], ecx
	mov	eax, DWORD PTR ___that$[ebp]
	push	eax
	mov	ecx, DWORD PTR _this$[ebp]
	call	??0HardwareBuffer@Ogre@@QAE@ABV01@@Z
	mov	DWORD PTR __$EHRec$[ebp+8], 0
	mov	ecx, DWORD PTR _this$[ebp]
	mov	DWORD PTR [ecx], OFFSET ??_7HardwareVertexBuffer@Ogre@@6B@
	mov	edx, DWORD PTR _this$[ebp]
	mov	eax, DWORD PTR ___that$[ebp]
	mov	ecx, DWORD PTR [eax+32]
	mov	DWORD PTR [edx+32], ecx
	mov	DWORD PTR __$EHRec$[ebp+8], -1
	mov	eax, DWORD PTR _this$[ebp]
	mov	ecx, DWORD PTR __$EHRec$[ebp]
	mov	DWORD PTR fs:0, ecx
	pop	ecx
	mov	esp, ebp
	pop	ebp
	ret	4
_TEXT	ENDS
;	COMDAT text$x
text$x	SEGMENT
__unwindfunclet$??0HardwareVertexBuffer@Ogre@@QAE@ABV01@@Z$0:
	mov	ecx, DWORD PTR _this$[ebp]
	jmp	??1HardwareBuffer@Ogre@@MAE@XZ		; Ogre::HardwareBuffer::~HardwareBuffer
__ehhandler$??0HardwareVertexBuffer@Ogre@@QAE@ABV01@@Z:
	mov	edx, DWORD PTR [esp+8]
	lea	eax, DWORD PTR [edx+12]
	mov	ecx, DWORD PTR [edx-8]
	xor	ecx, eax
	call	@__security_check_cookie@4
	mov	eax, OFFSET __ehfuncinfo$??0HardwareVertexBuffer@Ogre@@QAE@ABV01@@Z
	jmp	___CxxFrameHandler3
text$x	ENDS
??0HardwareVertexBuffer@Ogre@@QAE@ABV01@@Z ENDP		; Ogre::HardwareVertexBuffer::HardwareVertexBuffer
PUBLIC	??4HardwareVertexBuffer@Ogre@@QAEAAV01@ABV01@@Z	; Ogre::HardwareVertexBuffer::operator=
; Function compile flags: /Odtp
;	COMDAT ??4HardwareVertexBuffer@Ogre@@QAEAAV01@ABV01@@Z
_TEXT	SEGMENT
_this$ = -4						; size = 4
___that$ = 8						; size = 4
??4HardwareVertexBuffer@Ogre@@QAEAAV01@ABV01@@Z PROC	; Ogre::HardwareVertexBuffer::operator=, COMDAT
; _this$ = ecx
	push	ebp
	mov	ebp, esp
	push	ecx
	mov	DWORD PTR _this$[ebp], ecx
	mov	eax, DWORD PTR ___that$[ebp]
	push	eax
	mov	ecx, DWORD PTR _this$[ebp]
	call	??4HardwareBuffer@Ogre@@QAEAAV01@ABV01@@Z
	mov	ecx, DWORD PTR _this$[ebp]
	mov	edx, DWORD PTR ___that$[ebp]
	mov	eax, DWORD PTR [edx+32]
	mov	DWORD PTR [ecx+32], eax
	mov	eax, DWORD PTR _this$[ebp]
	mov	esp, ebp
	pop	ebp
	ret	4
??4HardwareVertexBuffer@Ogre@@QAEAAV01@ABV01@@Z ENDP	; Ogre::HardwareVertexBuffer::operator=
_TEXT	ENDS
PUBLIC	??_GHardwareVertexBuffer@Ogre@@UAEPAXI@Z	; Ogre::HardwareVertexBuffer::`scalar deleting destructor'
; Function compile flags: /Odtp
;	COMDAT ??_GHardwareVertexBuffer@Ogre@@UAEPAXI@Z
_TEXT	SEGMENT
_this$ = -4						; size = 4
___flags$ = 8						; size = 4
??_GHardwareVertexBuffer@Ogre@@UAEPAXI@Z PROC		; Ogre::HardwareVertexBuffer::`scalar deleting destructor', COMDAT
; _this$ = ecx
	push	ebp
	mov	ebp, esp
	push	ecx
	mov	DWORD PTR _this$[ebp], ecx
	mov	ecx, DWORD PTR _this$[ebp]
	call	??1HardwareVertexBuffer@Ogre@@UAE@XZ
	mov	eax, DWORD PTR ___flags$[ebp]
	and	eax, 1
	je	SHORT $LN1@scalar@8
	mov	ecx, DWORD PTR _this$[ebp]
	push	ecx
	call	??3@YAXPAX@Z				; operator delete
	add	esp, 4
$LN1@scalar@8:
	mov	eax, DWORD PTR _this$[ebp]
	mov	esp, ebp
	pop	ebp
	ret	4
??_GHardwareVertexBuffer@Ogre@@UAEPAXI@Z ENDP		; Ogre::HardwareVertexBuffer::`scalar deleting destructor'
; Function compile flags: /Odtp
_TEXT	ENDS
;	COMDAT ??_EHardwareVertexBuffer@Ogre@@UAEPAXI@Z
_TEXT	SEGMENT
_this$ = -4						; size = 4
___flags$ = 8						; size = 4
??_EHardwareVertexBuffer@Ogre@@UAEPAXI@Z PROC		; Ogre::HardwareVertexBuffer::`vector deleting destructor', COMDAT
; _this$ = ecx
	push	ebp
	mov	ebp, esp
	push	ecx
	mov	DWORD PTR _this$[ebp], ecx
	mov	eax, DWORD PTR ___flags$[ebp]
	and	eax, 2
	je	SHORT $LN3@vector@8
	push	OFFSET ??1HardwareVertexBuffer@Ogre@@UAE@XZ
	mov	ecx, DWORD PTR _this$[ebp]
	mov	edx, DWORD PTR [ecx-4]
	push	edx
	push	36					; 00000024H
	mov	eax, DWORD PTR _this$[ebp]
	push	eax
	call	??_M@YGXPAXIHP6EX0@Z@Z
	mov	ecx, DWORD PTR ___flags$[ebp]
	and	ecx, 1
	je	SHORT $LN2@vector@8
	mov	edx, DWORD PTR _this$[ebp]
	sub	edx, 4
	push	edx
	call	??_V@YAXPAX@Z				; operator delete[]
	add	esp, 4
$LN2@vector@8:
	mov	eax, DWORD PTR _this$[ebp]
	sub	eax, 4
	jmp	SHORT $LN4@vector@8
$LN3@vector@8:
	mov	ecx, DWORD PTR _this$[ebp]
	call	??1HardwareVertexBuffer@Ogre@@UAE@XZ
	mov	eax, DWORD PTR ___flags$[ebp]
	and	eax, 1
	je	SHORT $LN1@vector@8
	mov	ecx, DWORD PTR _this$[ebp]
	push	ecx
	call	??3@YAXPAX@Z				; operator delete
	add	esp, 4
$LN1@vector@8:
	mov	eax, DWORD PTR _this$[ebp]
$LN4@vector@8:
	mov	esp, ebp
	pop	ebp
	ret	4
??_EHardwareVertexBuffer@Ogre@@UAEPAXI@Z ENDP		; Ogre::HardwareVertexBuffer::`vector deleting destructor'
_TEXT	ENDS
PUBLIC	??_7HardwareBufferPool@Ogre@@6B@		; Ogre::HardwareBufferPool::`vftable'
PUBLIC	??0HardwareBufferPool@Ogre@@QAE@ABV01@@Z	; Ogre::HardwareBufferPool::HardwareBufferPool
PUBLIC	??_R4HardwareBufferPool@Ogre@@6B@		; Ogre::HardwareBufferPool::`RTTI Complete Object Locator'
PUBLIC	??_R0?AVHardwareBufferPool@Ogre@@@8		; Ogre::HardwareBufferPool `RTTI Type Descriptor'
PUBLIC	??_R3HardwareBufferPool@Ogre@@8			; Ogre::HardwareBufferPool::`RTTI Class Hierarchy Descriptor'
PUBLIC	??_R2HardwareBufferPool@Ogre@@8			; Ogre::HardwareBufferPool::`RTTI Base Class Array'
PUBLIC	??_R1A@?0A@EA@HardwareBufferPool@Ogre@@8	; Ogre::HardwareBufferPool::`RTTI Base Class Descriptor at (0,-1,0,64)'
PUBLIC	??_EHardwareBufferPool@Ogre@@UAEPAXI@Z		; Ogre::HardwareBufferPool::`vector deleting destructor'
EXTRN	??1LockSection@Ogre@@QAE@XZ:PROC		; Ogre::LockSection::~LockSection
;	COMDAT ??_R1A@?0A@EA@HardwareBufferPool@Ogre@@8
rdata$r	SEGMENT
??_R1A@?0A@EA@HardwareBufferPool@Ogre@@8 DD FLAT:??_R0?AVHardwareBufferPool@Ogre@@@8 ; Ogre::HardwareBufferPool::`RTTI Base Class Descriptor at (0,-1,0,64)'
	DD	00H
	DD	00H
	DD	0ffffffffH
	DD	00H
	DD	040H
	DD	FLAT:??_R3HardwareBufferPool@Ogre@@8
rdata$r	ENDS
;	COMDAT ??_R2HardwareBufferPool@Ogre@@8
rdata$r	SEGMENT
??_R2HardwareBufferPool@Ogre@@8 DD FLAT:??_R1A@?0A@EA@HardwareBufferPool@Ogre@@8 ; Ogre::HardwareBufferPool::`RTTI Base Class Array'
rdata$r	ENDS
;	COMDAT ??_R3HardwareBufferPool@Ogre@@8
rdata$r	SEGMENT
??_R3HardwareBufferPool@Ogre@@8 DD 00H			; Ogre::HardwareBufferPool::`RTTI Class Hierarchy Descriptor'
	DD	00H
	DD	01H
	DD	FLAT:??_R2HardwareBufferPool@Ogre@@8
rdata$r	ENDS
;	COMDAT ??_R0?AVHardwareBufferPool@Ogre@@@8
_DATA	SEGMENT
??_R0?AVHardwareBufferPool@Ogre@@@8 DD FLAT:??_7type_info@@6B@ ; Ogre::HardwareBufferPool `RTTI Type Descriptor'
	DD	00H
	DB	'.?AVHardwareBufferPool@Ogre@@', 00H
_DATA	ENDS
;	COMDAT ??_R4HardwareBufferPool@Ogre@@6B@
rdata$r	SEGMENT
??_R4HardwareBufferPool@Ogre@@6B@ DD 00H		; Ogre::HardwareBufferPool::`RTTI Complete Object Locator'
	DD	00H
	DD	00H
	DD	FLAT:??_R0?AVHardwareBufferPool@Ogre@@@8
	DD	FLAT:??_R3HardwareBufferPool@Ogre@@8
rdata$r	ENDS
;	COMDAT ??_7HardwareBufferPool@Ogre@@6B@
CONST	SEGMENT
??_7HardwareBufferPool@Ogre@@6B@ DD FLAT:??_R4HardwareBufferPool@Ogre@@6B@ ; Ogre::HardwareBufferPool::`vftable'
	DD	FLAT:??_EHardwareBufferPool@Ogre@@UAEPAXI@Z
	DD	FLAT:__purecall
	DD	FLAT:__purecall
CONST	ENDS
;	COMDAT xdata$x
xdata$x	SEGMENT
__unwindtable$??0HardwareBufferPool@Ogre@@QAE@ABV01@@Z DD 0ffffffffH
	DD	FLAT:__unwindfunclet$??0HardwareBufferPool@Ogre@@QAE@ABV01@@Z$0
__ehfuncinfo$??0HardwareBufferPool@Ogre@@QAE@ABV01@@Z DD 019930522H
	DD	01H
	DD	FLAT:__unwindtable$??0HardwareBufferPool@Ogre@@QAE@ABV01@@Z
	DD	2 DUP(00H)
	DD	2 DUP(00H)
	DD	00H
	DD	00H
; Function compile flags: /Odtp
xdata$x	ENDS
;	COMDAT ??0HardwareBufferPool@Ogre@@QAE@ABV01@@Z
_TEXT	SEGMENT
_this$ = -16						; size = 4
__$EHRec$ = -12						; size = 12
___that$ = 8						; size = 4
??0HardwareBufferPool@Ogre@@QAE@ABV01@@Z PROC		; Ogre::HardwareBufferPool::HardwareBufferPool, COMDAT
; _this$ = ecx
	push	ebp
	mov	ebp, esp
	push	-1
	push	__ehhandler$??0HardwareBufferPool@Ogre@@QAE@ABV01@@Z
	mov	eax, DWORD PTR fs:0
	push	eax
	push	ecx
	mov	eax, DWORD PTR ___security_cookie
	xor	eax, ebp
	push	eax
	lea	eax, DWORD PTR __$EHRec$[ebp]
	mov	DWORD PTR fs:0, eax
	mov	DWORD PTR _this$[ebp], ecx
	mov	eax, DWORD PTR _this$[ebp]
	mov	DWORD PTR [eax], OFFSET ??_7HardwareBufferPool@Ogre@@6B@
	mov	ecx, DWORD PTR _this$[ebp]
	mov	edx, DWORD PTR ___that$[ebp]
	mov	al, BYTE PTR [edx+4]
	mov	BYTE PTR [ecx+4], al
	mov	ecx, DWORD PTR _this$[ebp]
	mov	edx, DWORD PTR ___that$[ebp]
	mov	al, BYTE PTR [edx+5]
	mov	BYTE PTR [ecx+5], al
	mov	ecx, DWORD PTR _this$[ebp]
	mov	edx, DWORD PTR ___that$[ebp]
	mov	eax, DWORD PTR [edx+8]
	mov	DWORD PTR [ecx+8], eax
	mov	ecx, DWORD PTR _this$[ebp]
	mov	edx, DWORD PTR ___that$[ebp]
	mov	eax, DWORD PTR [edx+12]
	mov	DWORD PTR [ecx+12], eax
	mov	ecx, DWORD PTR ___that$[ebp]
	add	ecx, 16					; 00000010H
	mov	edx, DWORD PTR _this$[ebp]
	add	edx, 16					; 00000010H
	mov	eax, DWORD PTR [ecx]
	mov	DWORD PTR [edx], eax
	mov	eax, DWORD PTR [ecx+4]
	mov	DWORD PTR [edx+4], eax
	mov	ecx, DWORD PTR [ecx+8]
	mov	DWORD PTR [edx+8], ecx
	mov	edx, DWORD PTR ___that$[ebp]
	add	edx, 28					; 0000001cH
	mov	eax, DWORD PTR _this$[ebp]
	add	eax, 28					; 0000001cH
	mov	ecx, DWORD PTR [edx]
	mov	DWORD PTR [eax], ecx
	mov	ecx, DWORD PTR [edx+4]
	mov	DWORD PTR [eax+4], ecx
	mov	edx, DWORD PTR [edx+8]
	mov	DWORD PTR [eax+8], edx
	mov	eax, DWORD PTR _this$[ebp]
	mov	ecx, DWORD PTR ___that$[ebp]
	mov	edx, DWORD PTR [ecx+40]
	mov	DWORD PTR [eax+40], edx
	mov	eax, DWORD PTR ___that$[ebp]
	mov	ecx, DWORD PTR [eax+44]
	mov	edx, DWORD PTR _this$[ebp]
	mov	DWORD PTR [edx+44], ecx
	mov	DWORD PTR __$EHRec$[ebp+8], 0
	mov	DWORD PTR __$EHRec$[ebp+8], -1
	mov	eax, DWORD PTR _this$[ebp]
	mov	ecx, DWORD PTR __$EHRec$[ebp]
	mov	DWORD PTR fs:0, ecx
	pop	ecx
	mov	esp, ebp
	pop	ebp
	ret	4
_TEXT	ENDS
;	COMDAT text$x
text$x	SEGMENT
__unwindfunclet$??0HardwareBufferPool@Ogre@@QAE@ABV01@@Z$0:
	mov	ecx, DWORD PTR _this$[ebp]
	add	ecx, 44					; 0000002cH
	jmp	??1LockSection@Ogre@@QAE@XZ		; Ogre::LockSection::~LockSection
__ehhandler$??0HardwareBufferPool@Ogre@@QAE@ABV01@@Z:
	mov	edx, DWORD PTR [esp+8]
	lea	eax, DWORD PTR [edx+12]
	mov	ecx, DWORD PTR [edx-8]
	xor	ecx, eax
	call	@__security_check_cookie@4
	mov	eax, OFFSET __ehfuncinfo$??0HardwareBufferPool@Ogre@@QAE@ABV01@@Z
	jmp	___CxxFrameHandler3
text$x	ENDS
??0HardwareBufferPool@Ogre@@QAE@ABV01@@Z ENDP		; Ogre::HardwareBufferPool::HardwareBufferPool
PUBLIC	??4HardwareBufferPool@Ogre@@QAEAAV01@ABV01@@Z	; Ogre::HardwareBufferPool::operator=
; Function compile flags: /Odtp
;	COMDAT ??4HardwareBufferPool@Ogre@@QAEAAV01@ABV01@@Z
_TEXT	SEGMENT
_this$ = -4						; size = 4
___that$ = 8						; size = 4
??4HardwareBufferPool@Ogre@@QAEAAV01@ABV01@@Z PROC	; Ogre::HardwareBufferPool::operator=, COMDAT
; _this$ = ecx
	push	ebp
	mov	ebp, esp
	push	ecx
	mov	DWORD PTR _this$[ebp], ecx
	mov	eax, DWORD PTR _this$[ebp]
	mov	ecx, DWORD PTR ___that$[ebp]
	mov	dl, BYTE PTR [ecx+4]
	mov	BYTE PTR [eax+4], dl
	mov	eax, DWORD PTR _this$[ebp]
	mov	ecx, DWORD PTR ___that$[ebp]
	mov	dl, BYTE PTR [ecx+5]
	mov	BYTE PTR [eax+5], dl
	mov	eax, DWORD PTR _this$[ebp]
	mov	ecx, DWORD PTR ___that$[ebp]
	mov	edx, DWORD PTR [ecx+8]
	mov	DWORD PTR [eax+8], edx
	mov	eax, DWORD PTR _this$[ebp]
	mov	ecx, DWORD PTR ___that$[ebp]
	mov	edx, DWORD PTR [ecx+12]
	mov	DWORD PTR [eax+12], edx
	mov	eax, DWORD PTR ___that$[ebp]
	add	eax, 16					; 00000010H
	mov	ecx, DWORD PTR _this$[ebp]
	add	ecx, 16					; 00000010H
	mov	edx, DWORD PTR [eax]
	mov	DWORD PTR [ecx], edx
	mov	edx, DWORD PTR [eax+4]
	mov	DWORD PTR [ecx+4], edx
	mov	eax, DWORD PTR [eax+8]
	mov	DWORD PTR [ecx+8], eax
	mov	ecx, DWORD PTR ___that$[ebp]
	add	ecx, 28					; 0000001cH
	mov	edx, DWORD PTR _this$[ebp]
	add	edx, 28					; 0000001cH
	mov	eax, DWORD PTR [ecx]
	mov	DWORD PTR [edx], eax
	mov	eax, DWORD PTR [ecx+4]
	mov	DWORD PTR [edx+4], eax
	mov	ecx, DWORD PTR [ecx+8]
	mov	DWORD PTR [edx+8], ecx
	mov	edx, DWORD PTR _this$[ebp]
	mov	eax, DWORD PTR ___that$[ebp]
	mov	ecx, DWORD PTR [eax+40]
	mov	DWORD PTR [edx+40], ecx
	mov	edx, DWORD PTR ___that$[ebp]
	mov	eax, DWORD PTR [edx+44]
	mov	ecx, DWORD PTR _this$[ebp]
	mov	DWORD PTR [ecx+44], eax
	mov	eax, DWORD PTR _this$[ebp]
	mov	esp, ebp
	pop	ebp
	ret	4
??4HardwareBufferPool@Ogre@@QAEAAV01@ABV01@@Z ENDP	; Ogre::HardwareBufferPool::operator=
_TEXT	ENDS
PUBLIC	??1HardwareBufferPool@Ogre@@UAE@XZ		; Ogre::HardwareBufferPool::~HardwareBufferPool
PUBLIC	??_GHardwareBufferPool@Ogre@@UAEPAXI@Z		; Ogre::HardwareBufferPool::`scalar deleting destructor'
; Function compile flags: /Odtp
;	COMDAT ??_GHardwareBufferPool@Ogre@@UAEPAXI@Z
_TEXT	SEGMENT
_this$ = -4						; size = 4
___flags$ = 8						; size = 4
??_GHardwareBufferPool@Ogre@@UAEPAXI@Z PROC		; Ogre::HardwareBufferPool::`scalar deleting destructor', COMDAT
; _this$ = ecx
	push	ebp
	mov	ebp, esp
	push	ecx
	mov	DWORD PTR _this$[ebp], ecx
	mov	ecx, DWORD PTR _this$[ebp]
	call	??1HardwareBufferPool@Ogre@@UAE@XZ	; Ogre::HardwareBufferPool::~HardwareBufferPool
	mov	eax, DWORD PTR ___flags$[ebp]
	and	eax, 1
	je	SHORT $LN1@scalar@9
	mov	ecx, DWORD PTR _this$[ebp]
	push	ecx
	call	??3@YAXPAX@Z				; operator delete
	add	esp, 4
$LN1@scalar@9:
	mov	eax, DWORD PTR _this$[ebp]
	mov	esp, ebp
	pop	ebp
	ret	4
??_GHardwareBufferPool@Ogre@@UAEPAXI@Z ENDP		; Ogre::HardwareBufferPool::`scalar deleting destructor'
; Function compile flags: /Odtp
_TEXT	ENDS
;	COMDAT ??_EHardwareBufferPool@Ogre@@UAEPAXI@Z
_TEXT	SEGMENT
_this$ = -4						; size = 4
___flags$ = 8						; size = 4
??_EHardwareBufferPool@Ogre@@UAEPAXI@Z PROC		; Ogre::HardwareBufferPool::`vector deleting destructor', COMDAT
; _this$ = ecx
	push	ebp
	mov	ebp, esp
	push	ecx
	mov	DWORD PTR _this$[ebp], ecx
	mov	eax, DWORD PTR ___flags$[ebp]
	and	eax, 2
	je	SHORT $LN3@vector@9
	push	OFFSET ??1HardwareBufferPool@Ogre@@UAE@XZ ; Ogre::HardwareBufferPool::~HardwareBufferPool
	mov	ecx, DWORD PTR _this$[ebp]
	mov	edx, DWORD PTR [ecx-4]
	push	edx
	push	48					; 00000030H
	mov	eax, DWORD PTR _this$[ebp]
	push	eax
	call	??_M@YGXPAXIHP6EX0@Z@Z
	mov	ecx, DWORD PTR ___flags$[ebp]
	and	ecx, 1
	je	SHORT $LN2@vector@9
	mov	edx, DWORD PTR _this$[ebp]
	sub	edx, 4
	push	edx
	call	??_V@YAXPAX@Z				; operator delete[]
	add	esp, 4
$LN2@vector@9:
	mov	eax, DWORD PTR _this$[ebp]
	sub	eax, 4
	jmp	SHORT $LN4@vector@9
$LN3@vector@9:
	mov	ecx, DWORD PTR _this$[ebp]
	call	??1HardwareBufferPool@Ogre@@UAE@XZ	; Ogre::HardwareBufferPool::~HardwareBufferPool
	mov	eax, DWORD PTR ___flags$[ebp]
	and	eax, 1
	je	SHORT $LN1@vector@9
	mov	ecx, DWORD PTR _this$[ebp]
	push	ecx
	call	??3@YAXPAX@Z				; operator delete
	add	esp, 4
$LN1@vector@9:
	mov	eax, DWORD PTR _this$[ebp]
$LN4@vector@9:
	mov	esp, ebp
	pop	ebp
	ret	4
??_EHardwareBufferPool@Ogre@@UAEPAXI@Z ENDP		; Ogre::HardwareBufferPool::`vector deleting destructor'
_TEXT	ENDS
PUBLIC	??4?$Singleton@VHardwareBufferManager@Ogre@@@Ogre@@QAEAAV01@ABV01@@Z ; Ogre::Singleton<Ogre::HardwareBufferManager>::operator=
; Function compile flags: /Odtp
;	COMDAT ??4?$Singleton@VHardwareBufferManager@Ogre@@@Ogre@@QAEAAV01@ABV01@@Z
_TEXT	SEGMENT
_this$ = -4						; size = 4
___that$ = 8						; size = 4
??4?$Singleton@VHardwareBufferManager@Ogre@@@Ogre@@QAEAAV01@ABV01@@Z PROC ; Ogre::Singleton<Ogre::HardwareBufferManager>::operator=, COMDAT
; _this$ = ecx
	push	ebp
	mov	ebp, esp
	push	ecx
	mov	DWORD PTR _this$[ebp], ecx
	mov	eax, DWORD PTR _this$[ebp]
	mov	esp, ebp
	pop	ebp
	ret	4
??4?$Singleton@VHardwareBufferManager@Ogre@@@Ogre@@QAEAAV01@ABV01@@Z ENDP ; Ogre::Singleton<Ogre::HardwareBufferManager>::operator=
_TEXT	ENDS
PUBLIC	??1?$map@IPAVHardwareBufferPool@Ogre@@U?$less@I@std@@V?$allocator@U?$pair@$$CBIPAVHardwareBufferPool@Ogre@@@std@@@4@@std@@QAE@XZ ; std::map<unsigned int,Ogre::HardwareBufferPool *,std::less<unsigned int>,std::allocator<std::pair<unsigned int const ,Ogre::HardwareBufferPool *> > >::~map<unsigned int,Ogre::HardwareBufferPool *,std::less<unsigned int>,std::allocator<std::pair<unsigned int const ,Ogre::HardwareBufferPool *> > >
PUBLIC	??1?$Singleton@VHardwareBufferManager@Ogre@@@Ogre@@QAE@XZ ; Ogre::Singleton<Ogre::HardwareBufferManager>::~Singleton<Ogre::HardwareBufferManager>
PUBLIC	??0?$map@IPAVHardwareBufferPool@Ogre@@U?$less@I@std@@V?$allocator@U?$pair@$$CBIPAVHardwareBufferPool@Ogre@@@std@@@4@@std@@QAE@ABV01@@Z ; std::map<unsigned int,Ogre::HardwareBufferPool *,std::less<unsigned int>,std::allocator<std::pair<unsigned int const ,Ogre::HardwareBufferPool *> > >::map<unsigned int,Ogre::HardwareBufferPool *,std::less<unsigned int>,std::allocator<std::pair<unsigned int const ,Ogre::HardwareBufferPool *> > >
PUBLIC	??_7HardwareBufferManager@Ogre@@6B@		; Ogre::HardwareBufferManager::`vftable'
PUBLIC	??0HardwareBufferManager@Ogre@@QAE@ABV01@@Z	; Ogre::HardwareBufferManager::HardwareBufferManager
PUBLIC	??_R4HardwareBufferManager@Ogre@@6B@		; Ogre::HardwareBufferManager::`RTTI Complete Object Locator'
PUBLIC	??_R0?AVHardwareBufferManager@Ogre@@@8		; Ogre::HardwareBufferManager `RTTI Type Descriptor'
PUBLIC	??_R3HardwareBufferManager@Ogre@@8		; Ogre::HardwareBufferManager::`RTTI Class Hierarchy Descriptor'
PUBLIC	??_R2HardwareBufferManager@Ogre@@8		; Ogre::HardwareBufferManager::`RTTI Base Class Array'
PUBLIC	??_R1A@?0A@EA@HardwareBufferManager@Ogre@@8	; Ogre::HardwareBufferManager::`RTTI Base Class Descriptor at (0,-1,0,64)'
PUBLIC	??_R13?0A@EA@?$Singleton@VHardwareBufferManager@Ogre@@@Ogre@@8 ; Ogre::Singleton<Ogre::HardwareBufferManager>::`RTTI Base Class Descriptor at (4,-1,0,64)'
PUBLIC	??_R0?AV?$Singleton@VHardwareBufferManager@Ogre@@@Ogre@@@8 ; Ogre::Singleton<Ogre::HardwareBufferManager> `RTTI Type Descriptor'
PUBLIC	??_R3?$Singleton@VHardwareBufferManager@Ogre@@@Ogre@@8 ; Ogre::Singleton<Ogre::HardwareBufferManager>::`RTTI Class Hierarchy Descriptor'
PUBLIC	??_R2?$Singleton@VHardwareBufferManager@Ogre@@@Ogre@@8 ; Ogre::Singleton<Ogre::HardwareBufferManager>::`RTTI Base Class Array'
PUBLIC	??_R1A@?0A@EA@?$Singleton@VHardwareBufferManager@Ogre@@@Ogre@@8 ; Ogre::Singleton<Ogre::HardwareBufferManager>::`RTTI Base Class Descriptor at (0,-1,0,64)'
PUBLIC	??_EHardwareBufferManager@Ogre@@UAEPAXI@Z	; Ogre::HardwareBufferManager::`vector deleting destructor'
;	COMDAT ??_R1A@?0A@EA@?$Singleton@VHardwareBufferManager@Ogre@@@Ogre@@8
rdata$r	SEGMENT
??_R1A@?0A@EA@?$Singleton@VHardwareBufferManager@Ogre@@@Ogre@@8 DD FLAT:??_R0?AV?$Singleton@VHardwareBufferManager@Ogre@@@Ogre@@@8 ; Ogre::Singleton<Ogre::HardwareBufferManager>::`RTTI Base Class Descriptor at (0,-1,0,64)'
	DD	00H
	DD	00H
	DD	0ffffffffH
	DD	00H
	DD	040H
	DD	FLAT:??_R3?$Singleton@VHardwareBufferManager@Ogre@@@Ogre@@8
rdata$r	ENDS
;	COMDAT ??_R2?$Singleton@VHardwareBufferManager@Ogre@@@Ogre@@8
rdata$r	SEGMENT
??_R2?$Singleton@VHardwareBufferManager@Ogre@@@Ogre@@8 DD FLAT:??_R1A@?0A@EA@?$Singleton@VHardwareBufferManager@Ogre@@@Ogre@@8 ; Ogre::Singleton<Ogre::HardwareBufferManager>::`RTTI Base Class Array'
rdata$r	ENDS
;	COMDAT ??_R3?$Singleton@VHardwareBufferManager@Ogre@@@Ogre@@8
rdata$r	SEGMENT
??_R3?$Singleton@VHardwareBufferManager@Ogre@@@Ogre@@8 DD 00H ; Ogre::Singleton<Ogre::HardwareBufferManager>::`RTTI Class Hierarchy Descriptor'
	DD	00H
	DD	01H
	DD	FLAT:??_R2?$Singleton@VHardwareBufferManager@Ogre@@@Ogre@@8
rdata$r	ENDS
;	COMDAT ??_R0?AV?$Singleton@VHardwareBufferManager@Ogre@@@Ogre@@@8
_DATA	SEGMENT
??_R0?AV?$Singleton@VHardwareBufferManager@Ogre@@@Ogre@@@8 DD FLAT:??_7type_info@@6B@ ; Ogre::Singleton<Ogre::HardwareBufferManager> `RTTI Type Descriptor'
	DD	00H
	DB	'.?AV?$Singleton@VHardwareBufferManager@Ogre@@@Ogre@@', 00H
_DATA	ENDS
;	COMDAT ??_R13?0A@EA@?$Singleton@VHardwareBufferManager@Ogre@@@Ogre@@8
rdata$r	SEGMENT
??_R13?0A@EA@?$Singleton@VHardwareBufferManager@Ogre@@@Ogre@@8 DD FLAT:??_R0?AV?$Singleton@VHardwareBufferManager@Ogre@@@Ogre@@@8 ; Ogre::Singleton<Ogre::HardwareBufferManager>::`RTTI Base Class Descriptor at (4,-1,0,64)'
	DD	00H
	DD	04H
	DD	0ffffffffH
	DD	00H
	DD	040H
	DD	FLAT:??_R3?$Singleton@VHardwareBufferManager@Ogre@@@Ogre@@8
rdata$r	ENDS
;	COMDAT ??_R1A@?0A@EA@HardwareBufferManager@Ogre@@8
rdata$r	SEGMENT
??_R1A@?0A@EA@HardwareBufferManager@Ogre@@8 DD FLAT:??_R0?AVHardwareBufferManager@Ogre@@@8 ; Ogre::HardwareBufferManager::`RTTI Base Class Descriptor at (0,-1,0,64)'
	DD	01H
	DD	00H
	DD	0ffffffffH
	DD	00H
	DD	040H
	DD	FLAT:??_R3HardwareBufferManager@Ogre@@8
rdata$r	ENDS
;	COMDAT ??_R2HardwareBufferManager@Ogre@@8
rdata$r	SEGMENT
??_R2HardwareBufferManager@Ogre@@8 DD FLAT:??_R1A@?0A@EA@HardwareBufferManager@Ogre@@8 ; Ogre::HardwareBufferManager::`RTTI Base Class Array'
	DD	FLAT:??_R13?0A@EA@?$Singleton@VHardwareBufferManager@Ogre@@@Ogre@@8
rdata$r	ENDS
;	COMDAT ??_R3HardwareBufferManager@Ogre@@8
rdata$r	SEGMENT
??_R3HardwareBufferManager@Ogre@@8 DD 00H		; Ogre::HardwareBufferManager::`RTTI Class Hierarchy Descriptor'
	DD	00H
	DD	02H
	DD	FLAT:??_R2HardwareBufferManager@Ogre@@8
rdata$r	ENDS
;	COMDAT ??_R0?AVHardwareBufferManager@Ogre@@@8
_DATA	SEGMENT
??_R0?AVHardwareBufferManager@Ogre@@@8 DD FLAT:??_7type_info@@6B@ ; Ogre::HardwareBufferManager `RTTI Type Descriptor'
	DD	00H
	DB	'.?AVHardwareBufferManager@Ogre@@', 00H
_DATA	ENDS
;	COMDAT ??_R4HardwareBufferManager@Ogre@@6B@
rdata$r	SEGMENT
??_R4HardwareBufferManager@Ogre@@6B@ DD 00H		; Ogre::HardwareBufferManager::`RTTI Complete Object Locator'
	DD	00H
	DD	00H
	DD	FLAT:??_R0?AVHardwareBufferManager@Ogre@@@8
	DD	FLAT:??_R3HardwareBufferManager@Ogre@@8
rdata$r	ENDS
;	COMDAT ??_7HardwareBufferManager@Ogre@@6B@
CONST	SEGMENT
??_7HardwareBufferManager@Ogre@@6B@ DD FLAT:??_R4HardwareBufferManager@Ogre@@6B@ ; Ogre::HardwareBufferManager::`vftable'
	DD	FLAT:??_EHardwareBufferManager@Ogre@@UAEPAXI@Z
	DD	FLAT:__purecall
CONST	ENDS
;	COMDAT xdata$x
xdata$x	SEGMENT
__unwindtable$??0HardwareBufferManager@Ogre@@QAE@ABV01@@Z DD 0ffffffffH
	DD	FLAT:__unwindfunclet$??0HardwareBufferManager@Ogre@@QAE@ABV01@@Z$0
	DD	00H
	DD	FLAT:__unwindfunclet$??0HardwareBufferManager@Ogre@@QAE@ABV01@@Z$1
__ehfuncinfo$??0HardwareBufferManager@Ogre@@QAE@ABV01@@Z DD 019930522H
	DD	02H
	DD	FLAT:__unwindtable$??0HardwareBufferManager@Ogre@@QAE@ABV01@@Z
	DD	2 DUP(00H)
	DD	2 DUP(00H)
	DD	00H
	DD	00H
; Function compile flags: /Odtp
xdata$x	ENDS
;	COMDAT ??0HardwareBufferManager@Ogre@@QAE@ABV01@@Z
_TEXT	SEGMENT
tv68 = -20						; size = 4
_this$ = -16						; size = 4
__$EHRec$ = -12						; size = 12
___that$ = 8						; size = 4
??0HardwareBufferManager@Ogre@@QAE@ABV01@@Z PROC	; Ogre::HardwareBufferManager::HardwareBufferManager, COMDAT
; _this$ = ecx
	push	ebp
	mov	ebp, esp
	push	-1
	push	__ehhandler$??0HardwareBufferManager@Ogre@@QAE@ABV01@@Z
	mov	eax, DWORD PTR fs:0
	push	eax
	sub	esp, 8
	mov	eax, DWORD PTR ___security_cookie
	xor	eax, ebp
	push	eax
	lea	eax, DWORD PTR __$EHRec$[ebp]
	mov	DWORD PTR fs:0, eax
	mov	DWORD PTR _this$[ebp], ecx
	cmp	DWORD PTR ___that$[ebp], 0
	je	SHORT $LN3@HardwareBu@2
	mov	eax, DWORD PTR ___that$[ebp]
	add	eax, 4
	mov	DWORD PTR tv68[ebp], eax
	jmp	SHORT $LN4@HardwareBu@2
$LN3@HardwareBu@2:
	mov	DWORD PTR tv68[ebp], 0
$LN4@HardwareBu@2:
	mov	DWORD PTR __$EHRec$[ebp+8], 0
	mov	ecx, DWORD PTR _this$[ebp]
	mov	DWORD PTR [ecx], OFFSET ??_7HardwareBufferManager@Ogre@@6B@
	mov	edx, DWORD PTR ___that$[ebp]
	add	edx, 4
	push	edx
	mov	ecx, DWORD PTR _this$[ebp]
	add	ecx, 4
	call	??0?$map@IPAVHardwareBufferPool@Ogre@@U?$less@I@std@@V?$allocator@U?$pair@$$CBIPAVHardwareBufferPool@Ogre@@@std@@@4@@std@@QAE@ABV01@@Z
	mov	BYTE PTR __$EHRec$[ebp+8], 1
	mov	DWORD PTR __$EHRec$[ebp+8], -1
	mov	eax, DWORD PTR _this$[ebp]
	mov	ecx, DWORD PTR __$EHRec$[ebp]
	mov	DWORD PTR fs:0, ecx
	pop	ecx
	mov	esp, ebp
	pop	ebp
	ret	4
_TEXT	ENDS
;	COMDAT text$x
text$x	SEGMENT
__unwindfunclet$??0HardwareBufferManager@Ogre@@QAE@ABV01@@Z$0:
	mov	ecx, DWORD PTR _this$[ebp]
	add	ecx, 4
	jmp	??1?$Singleton@VHardwareBufferManager@Ogre@@@Ogre@@QAE@XZ ; Ogre::Singleton<Ogre::HardwareBufferManager>::~Singleton<Ogre::HardwareBufferManager>
__unwindfunclet$??0HardwareBufferManager@Ogre@@QAE@ABV01@@Z$1:
	mov	ecx, DWORD PTR _this$[ebp]
	add	ecx, 4
	jmp	??1?$map@IPAVHardwareBufferPool@Ogre@@U?$less@I@std@@V?$allocator@U?$pair@$$CBIPAVHardwareBufferPool@Ogre@@@std@@@4@@std@@QAE@XZ
__ehhandler$??0HardwareBufferManager@Ogre@@QAE@ABV01@@Z:
	mov	edx, DWORD PTR [esp+8]
	lea	eax, DWORD PTR [edx+12]
	mov	ecx, DWORD PTR [edx-12]
	xor	ecx, eax
	call	@__security_check_cookie@4
	mov	eax, OFFSET __ehfuncinfo$??0HardwareBufferManager@Ogre@@QAE@ABV01@@Z
	jmp	___CxxFrameHandler3
text$x	ENDS
??0HardwareBufferManager@Ogre@@QAE@ABV01@@Z ENDP	; Ogre::HardwareBufferManager::HardwareBufferManager
PUBLIC	??4?$map@IPAVHardwareBufferPool@Ogre@@U?$less@I@std@@V?$allocator@U?$pair@$$CBIPAVHardwareBufferPool@Ogre@@@std@@@4@@std@@QAEAAV01@ABV01@@Z ; std::map<unsigned int,Ogre::HardwareBufferPool *,std::less<unsigned int>,std::allocator<std::pair<unsigned int const ,Ogre::HardwareBufferPool *> > >::operator=
PUBLIC	??4HardwareBufferManager@Ogre@@QAEAAV01@ABV01@@Z ; Ogre::HardwareBufferManager::operator=
; Function compile flags: /Odtp
;	COMDAT ??4HardwareBufferManager@Ogre@@QAEAAV01@ABV01@@Z
_TEXT	SEGMENT
_this$ = -4						; size = 4
___that$ = 8						; size = 4
??4HardwareBufferManager@Ogre@@QAEAAV01@ABV01@@Z PROC	; Ogre::HardwareBufferManager::operator=, COMDAT
; _this$ = ecx
	push	ebp
	mov	ebp, esp
	push	ecx
	mov	DWORD PTR _this$[ebp], ecx
	mov	eax, DWORD PTR ___that$[ebp]
	add	eax, 4
	push	eax
	mov	ecx, DWORD PTR _this$[ebp]
	add	ecx, 4
	call	??4?$map@IPAVHardwareBufferPool@Ogre@@U?$less@I@std@@V?$allocator@U?$pair@$$CBIPAVHardwareBufferPool@Ogre@@@std@@@4@@std@@QAEAAV01@ABV01@@Z
	mov	eax, DWORD PTR _this$[ebp]
	mov	esp, ebp
	pop	ebp
	ret	4
??4HardwareBufferManager@Ogre@@QAEAAV01@ABV01@@Z ENDP	; Ogre::HardwareBufferManager::operator=
_TEXT	ENDS
PUBLIC	??1HardwareBufferManager@Ogre@@UAE@XZ		; Ogre::HardwareBufferManager::~HardwareBufferManager
PUBLIC	??_GHardwareBufferManager@Ogre@@UAEPAXI@Z	; Ogre::HardwareBufferManager::`scalar deleting destructor'
; Function compile flags: /Odtp
;	COMDAT ??_GHardwareBufferManager@Ogre@@UAEPAXI@Z
_TEXT	SEGMENT
_this$ = -4						; size = 4
___flags$ = 8						; size = 4
??_GHardwareBufferManager@Ogre@@UAEPAXI@Z PROC		; Ogre::HardwareBufferManager::`scalar deleting destructor', COMDAT
; _this$ = ecx
	push	ebp
	mov	ebp, esp
	push	ecx
	mov	DWORD PTR _this$[ebp], ecx
	mov	ecx, DWORD PTR _this$[ebp]
	call	??1HardwareBufferManager@Ogre@@UAE@XZ	; Ogre::HardwareBufferManager::~HardwareBufferManager
	mov	eax, DWORD PTR ___flags$[ebp]
	and	eax, 1
	je	SHORT $LN1@scalar@10
	mov	ecx, DWORD PTR _this$[ebp]
	push	ecx
	call	??3@YAXPAX@Z				; operator delete
	add	esp, 4
$LN1@scalar@10:
	mov	eax, DWORD PTR _this$[ebp]
	mov	esp, ebp
	pop	ebp
	ret	4
??_GHardwareBufferManager@Ogre@@UAEPAXI@Z ENDP		; Ogre::HardwareBufferManager::`scalar deleting destructor'
; Function compile flags: /Odtp
_TEXT	ENDS
;	COMDAT ??_EHardwareBufferManager@Ogre@@UAEPAXI@Z
_TEXT	SEGMENT
_this$ = -4						; size = 4
___flags$ = 8						; size = 4
??_EHardwareBufferManager@Ogre@@UAEPAXI@Z PROC		; Ogre::HardwareBufferManager::`vector deleting destructor', COMDAT
; _this$ = ecx
	push	ebp
	mov	ebp, esp
	push	ecx
	mov	DWORD PTR _this$[ebp], ecx
	mov	eax, DWORD PTR ___flags$[ebp]
	and	eax, 2
	je	SHORT $LN3@vector@10
	push	OFFSET ??1HardwareBufferManager@Ogre@@UAE@XZ ; Ogre::HardwareBufferManager::~HardwareBufferManager
	mov	ecx, DWORD PTR _this$[ebp]
	mov	edx, DWORD PTR [ecx-4]
	push	edx
	push	36					; 00000024H
	mov	eax, DWORD PTR _this$[ebp]
	push	eax
	call	??_M@YGXPAXIHP6EX0@Z@Z
	mov	ecx, DWORD PTR ___flags$[ebp]
	and	ecx, 1
	je	SHORT $LN2@vector@10
	mov	edx, DWORD PTR _this$[ebp]
	sub	edx, 4
	push	edx
	call	??_V@YAXPAX@Z				; operator delete[]
	add	esp, 4
$LN2@vector@10:
	mov	eax, DWORD PTR _this$[ebp]
	sub	eax, 4
	jmp	SHORT $LN4@vector@10
$LN3@vector@10:
	mov	ecx, DWORD PTR _this$[ebp]
	call	??1HardwareBufferManager@Ogre@@UAE@XZ	; Ogre::HardwareBufferManager::~HardwareBufferManager
	mov	eax, DWORD PTR ___flags$[ebp]
	and	eax, 1
	je	SHORT $LN1@vector@10
	mov	ecx, DWORD PTR _this$[ebp]
	push	ecx
	call	??3@YAXPAX@Z				; operator delete
	add	esp, 4
$LN1@vector@10:
	mov	eax, DWORD PTR _this$[ebp]
$LN4@vector@10:
	mov	esp, ebp
	pop	ebp
	ret	4
??_EHardwareBufferManager@Ogre@@UAEPAXI@Z ENDP		; Ogre::HardwareBufferManager::`vector deleting destructor'
_TEXT	ENDS
PUBLIC	??1?$_Tree@V?$_Tmap_traits@IPAVHardwareBufferPool@Ogre@@U?$less@I@std@@V?$allocator@U?$pair@$$CBIPAVHardwareBufferPool@Ogre@@@std@@@4@$0A@@std@@@std@@QAE@XZ ; std::_Tree<std::_Tmap_traits<unsigned int,Ogre::HardwareBufferPool *,std::less<unsigned int>,std::allocator<std::pair<unsigned int const ,Ogre::HardwareBufferPool *> >,0> >::~_Tree<std::_Tmap_traits<unsigned int,Ogre::HardwareBufferPool *,std::less<unsigned int>,std::allocator<std::pair<unsigned int const ,Ogre::HardwareBufferPool *> >,0> >
PUBLIC	??0?$_Tree@V?$_Tmap_traits@IPAVHardwareBufferPool@Ogre@@U?$less@I@std@@V?$allocator@U?$pair@$$CBIPAVHardwareBufferPool@Ogre@@@std@@@4@$0A@@std@@@std@@QAE@ABV01@@Z ; std::_Tree<std::_Tmap_traits<unsigned int,Ogre::HardwareBufferPool *,std::less<unsigned int>,std::allocator<std::pair<unsigned int const ,Ogre::HardwareBufferPool *> >,0> >::_Tree<std::_Tmap_traits<unsigned int,Ogre::HardwareBufferPool *,std::less<unsigned int>,std::allocator<std::pair<unsigned int const ,Ogre::HardwareBufferPool *> >,0> >
;	COMDAT xdata$x
xdata$x	SEGMENT
__unwindtable$??0?$map@IPAVHardwareBufferPool@Ogre@@U?$less@I@std@@V?$allocator@U?$pair@$$CBIPAVHardwareBufferPool@Ogre@@@std@@@4@@std@@QAE@ABV01@@Z DD 0ffffffffH
	DD	FLAT:__unwindfunclet$??0?$map@IPAVHardwareBufferPool@Ogre@@U?$less@I@std@@V?$allocator@U?$pair@$$CBIPAVHardwareBufferPool@Ogre@@@std@@@4@@std@@QAE@ABV01@@Z$0
__ehfuncinfo$??0?$map@IPAVHardwareBufferPool@Ogre@@U?$less@I@std@@V?$allocator@U?$pair@$$CBIPAVHardwareBufferPool@Ogre@@@std@@@4@@std@@QAE@ABV01@@Z DD 019930522H
	DD	01H
	DD	FLAT:__unwindtable$??0?$map@IPAVHardwareBufferPool@Ogre@@U?$less@I@std@@V?$allocator@U?$pair@$$CBIPAVHardwareBufferPool@Ogre@@@std@@@4@@std@@QAE@ABV01@@Z
	DD	2 DUP(00H)
	DD	2 DUP(00H)
	DD	00H
	DD	00H
; Function compile flags: /Odtp
xdata$x	ENDS
;	COMDAT ??0?$map@IPAVHardwareBufferPool@Ogre@@U?$less@I@std@@V?$allocator@U?$pair@$$CBIPAVHardwareBufferPool@Ogre@@@std@@@4@@std@@QAE@ABV01@@Z
_TEXT	SEGMENT
_this$ = -16						; size = 4
__$EHRec$ = -12						; size = 12
___that$ = 8						; size = 4
??0?$map@IPAVHardwareBufferPool@Ogre@@U?$less@I@std@@V?$allocator@U?$pair@$$CBIPAVHardwareBufferPool@Ogre@@@std@@@4@@std@@QAE@ABV01@@Z PROC ; std::map<unsigned int,Ogre::HardwareBufferPool *,std::less<unsigned int>,std::allocator<std::pair<unsigned int const ,Ogre::HardwareBufferPool *> > >::map<unsigned int,Ogre::HardwareBufferPool *,std::less<unsigned int>,std::allocator<std::pair<unsigned int const ,Ogre::HardwareBufferPool *> > >, COMDAT
; _this$ = ecx
	push	ebp
	mov	ebp, esp
	push	-1
	push	__ehhandler$??0?$map@IPAVHardwareBufferPool@Ogre@@U?$less@I@std@@V?$allocator@U?$pair@$$CBIPAVHardwareBufferPool@Ogre@@@std@@@4@@std@@QAE@ABV01@@Z
	mov	eax, DWORD PTR fs:0
	push	eax
	push	ecx
	mov	eax, DWORD PTR ___security_cookie
	xor	eax, ebp
	push	eax
	lea	eax, DWORD PTR __$EHRec$[ebp]
	mov	DWORD PTR fs:0, eax
	mov	DWORD PTR _this$[ebp], ecx
	mov	eax, DWORD PTR ___that$[ebp]
	push	eax
	mov	ecx, DWORD PTR _this$[ebp]
	call	??0?$_Tree@V?$_Tmap_traits@IPAVHardwareBufferPool@Ogre@@U?$less@I@std@@V?$allocator@U?$pair@$$CBIPAVHardwareBufferPool@Ogre@@@std@@@4@$0A@@std@@@std@@QAE@ABV01@@Z ; std::_Tree<std::_Tmap_traits<unsigned int,Ogre::HardwareBufferPool *,std::less<unsigned int>,std::allocator<std::pair<unsigned int const ,Ogre::HardwareBufferPool *> >,0> >::_Tree<std::_Tmap_traits<unsigned int,Ogre::HardwareBufferPool *,std::less<unsigned int>,std::allocator<std::pair<unsigned int const ,Ogre::HardwareBufferPool *> >,0> >
	mov	DWORD PTR __$EHRec$[ebp+8], 0
	mov	DWORD PTR __$EHRec$[ebp+8], -1
	mov	eax, DWORD PTR _this$[ebp]
	mov	ecx, DWORD PTR __$EHRec$[ebp]
	mov	DWORD PTR fs:0, ecx
	pop	ecx
	mov	esp, ebp
	pop	ebp
	ret	4
_TEXT	ENDS
;	COMDAT text$x
text$x	SEGMENT
__unwindfunclet$??0?$map@IPAVHardwareBufferPool@Ogre@@U?$less@I@std@@V?$allocator@U?$pair@$$CBIPAVHardwareBufferPool@Ogre@@@std@@@4@@std@@QAE@ABV01@@Z$0:
	mov	ecx, DWORD PTR _this$[ebp]
	jmp	??1?$_Tree@V?$_Tmap_traits@IPAVHardwareBufferPool@Ogre@@U?$less@I@std@@V?$allocator@U?$pair@$$CBIPAVHardwareBufferPool@Ogre@@@std@@@4@$0A@@std@@@std@@QAE@XZ ; std::_Tree<std::_Tmap_traits<unsigned int,Ogre::HardwareBufferPool *,std::less<unsigned int>,std::allocator<std::pair<unsigned int const ,Ogre::HardwareBufferPool *> >,0> >::~_Tree<std::_Tmap_traits<unsigned int,Ogre::HardwareBufferPool *,std::less<unsigned int>,std::allocator<std::pair<unsigned int const ,Ogre::HardwareBufferPool *> >,0> >
__ehhandler$??0?$map@IPAVHardwareBufferPool@Ogre@@U?$less@I@std@@V?$allocator@U?$pair@$$CBIPAVHardwareBufferPool@Ogre@@@std@@@4@@std@@QAE@ABV01@@Z:
	mov	edx, DWORD PTR [esp+8]
	lea	eax, DWORD PTR [edx+12]
	mov	ecx, DWORD PTR [edx-8]
	xor	ecx, eax
	call	@__security_check_cookie@4
	mov	eax, OFFSET __ehfuncinfo$??0?$map@IPAVHardwareBufferPool@Ogre@@U?$less@I@std@@V?$allocator@U?$pair@$$CBIPAVHardwareBufferPool@Ogre@@@std@@@4@@std@@QAE@ABV01@@Z
	jmp	___CxxFrameHandler3
text$x	ENDS
??0?$map@IPAVHardwareBufferPool@Ogre@@U?$less@I@std@@V?$allocator@U?$pair@$$CBIPAVHardwareBufferPool@Ogre@@@std@@@4@@std@@QAE@ABV01@@Z ENDP ; std::map<unsigned int,Ogre::HardwareBufferPool *,std::less<unsigned int>,std::allocator<std::pair<unsigned int const ,Ogre::HardwareBufferPool *> > >::map<unsigned int,Ogre::HardwareBufferPool *,std::less<unsigned int>,std::allocator<std::pair<unsigned int const ,Ogre::HardwareBufferPool *> > >
;	COMDAT xdata$x
xdata$x	SEGMENT
__unwindtable$??1?$map@IPAVHardwareBufferPool@Ogre@@U?$less@I@std@@V?$allocator@U?$pair@$$CBIPAVHardwareBufferPool@Ogre@@@std@@@4@@std@@QAE@XZ DD 0ffffffffH
	DD	FLAT:__unwindfunclet$??1?$map@IPAVHardwareBufferPool@Ogre@@U?$less@I@std@@V?$allocator@U?$pair@$$CBIPAVHardwareBufferPool@Ogre@@@std@@@4@@std@@QAE@XZ$0
__ehfuncinfo$??1?$map@IPAVHardwareBufferPool@Ogre@@U?$less@I@std@@V?$allocator@U?$pair@$$CBIPAVHardwareBufferPool@Ogre@@@std@@@4@@std@@QAE@XZ DD 019930522H
	DD	01H
	DD	FLAT:__unwindtable$??1?$map@IPAVHardwareBufferPool@Ogre@@U?$less@I@std@@V?$allocator@U?$pair@$$CBIPAVHardwareBufferPool@Ogre@@@std@@@4@@std@@QAE@XZ
	DD	2 DUP(00H)
	DD	2 DUP(00H)
	DD	00H
	DD	00H
; Function compile flags: /Odtp
xdata$x	ENDS
;	COMDAT ??1?$map@IPAVHardwareBufferPool@Ogre@@U?$less@I@std@@V?$allocator@U?$pair@$$CBIPAVHardwareBufferPool@Ogre@@@std@@@4@@std@@QAE@XZ
_TEXT	SEGMENT
_this$ = -16						; size = 4
__$EHRec$ = -12						; size = 12
??1?$map@IPAVHardwareBufferPool@Ogre@@U?$less@I@std@@V?$allocator@U?$pair@$$CBIPAVHardwareBufferPool@Ogre@@@std@@@4@@std@@QAE@XZ PROC ; std::map<unsigned int,Ogre::HardwareBufferPool *,std::less<unsigned int>,std::allocator<std::pair<unsigned int const ,Ogre::HardwareBufferPool *> > >::~map<unsigned int,Ogre::HardwareBufferPool *,std::less<unsigned int>,std::allocator<std::pair<unsigned int const ,Ogre::HardwareBufferPool *> > >, COMDAT
; _this$ = ecx
	push	ebp
	mov	ebp, esp
	push	-1
	push	__ehhandler$??1?$map@IPAVHardwareBufferPool@Ogre@@U?$less@I@std@@V?$allocator@U?$pair@$$CBIPAVHardwareBufferPool@Ogre@@@std@@@4@@std@@QAE@XZ
	mov	eax, DWORD PTR fs:0
	push	eax
	push	ecx
	mov	eax, DWORD PTR ___security_cookie
	xor	eax, ebp
	push	eax
	lea	eax, DWORD PTR __$EHRec$[ebp]
	mov	DWORD PTR fs:0, eax
	mov	DWORD PTR _this$[ebp], ecx
	mov	DWORD PTR __$EHRec$[ebp+8], 0
	mov	DWORD PTR __$EHRec$[ebp+8], -1
	mov	ecx, DWORD PTR _this$[ebp]
	call	??1?$_Tree@V?$_Tmap_traits@IPAVHardwareBufferPool@Ogre@@U?$less@I@std@@V?$allocator@U?$pair@$$CBIPAVHardwareBufferPool@Ogre@@@std@@@4@$0A@@std@@@std@@QAE@XZ ; std::_Tree<std::_Tmap_traits<unsigned int,Ogre::HardwareBufferPool *,std::less<unsigned int>,std::allocator<std::pair<unsigned int const ,Ogre::HardwareBufferPool *> >,0> >::~_Tree<std::_Tmap_traits<unsigned int,Ogre::HardwareBufferPool *,std::less<unsigned int>,std::allocator<std::pair<unsigned int const ,Ogre::HardwareBufferPool *> >,0> >
	mov	ecx, DWORD PTR __$EHRec$[ebp]
	mov	DWORD PTR fs:0, ecx
	pop	ecx
	mov	esp, ebp
	pop	ebp
	ret	0
_TEXT	ENDS
;	COMDAT text$x
text$x	SEGMENT
__unwindfunclet$??1?$map@IPAVHardwareBufferPool@Ogre@@U?$less@I@std@@V?$allocator@U?$pair@$$CBIPAVHardwareBufferPool@Ogre@@@std@@@4@@std@@QAE@XZ$0:
	mov	ecx, DWORD PTR _this$[ebp]
	jmp	??1?$_Tree@V?$_Tmap_traits@IPAVHardwareBufferPool@Ogre@@U?$less@I@std@@V?$allocator@U?$pair@$$CBIPAVHardwareBufferPool@Ogre@@@std@@@4@$0A@@std@@@std@@QAE@XZ ; std::_Tree<std::_Tmap_traits<unsigned int,Ogre::HardwareBufferPool *,std::less<unsigned int>,std::allocator<std::pair<unsigned int const ,Ogre::HardwareBufferPool *> >,0> >::~_Tree<std::_Tmap_traits<unsigned int,Ogre::HardwareBufferPool *,std::less<unsigned int>,std::allocator<std::pair<unsigned int const ,Ogre::HardwareBufferPool *> >,0> >
__ehhandler$??1?$map@IPAVHardwareBufferPool@Ogre@@U?$less@I@std@@V?$allocator@U?$pair@$$CBIPAVHardwareBufferPool@Ogre@@@std@@@4@@std@@QAE@XZ:
	mov	edx, DWORD PTR [esp+8]
	lea	eax, DWORD PTR [edx+12]
	mov	ecx, DWORD PTR [edx-8]
	xor	ecx, eax
	call	@__security_check_cookie@4
	mov	eax, OFFSET __ehfuncinfo$??1?$map@IPAVHardwareBufferPool@Ogre@@U?$less@I@std@@V?$allocator@U?$pair@$$CBIPAVHardwareBufferPool@Ogre@@@std@@@4@@std@@QAE@XZ
	jmp	___CxxFrameHandler3
text$x	ENDS
??1?$map@IPAVHardwareBufferPool@Ogre@@U?$less@I@std@@V?$allocator@U?$pair@$$CBIPAVHardwareBufferPool@Ogre@@@std@@@4@@std@@QAE@XZ ENDP ; std::map<unsigned int,Ogre::HardwareBufferPool *,std::less<unsigned int>,std::allocator<std::pair<unsigned int const ,Ogre::HardwareBufferPool *> > >::~map<unsigned int,Ogre::HardwareBufferPool *,std::less<unsigned int>,std::allocator<std::pair<unsigned int const ,Ogre::HardwareBufferPool *> > >
PUBLIC	??4?$_Tree@V?$_Tmap_traits@IPAVHardwareBufferPool@Ogre@@U?$less@I@std@@V?$allocator@U?$pair@$$CBIPAVHardwareBufferPool@Ogre@@@std@@@4@$0A@@std@@@std@@QAEAAV01@ABV01@@Z ; std::_Tree<std::_Tmap_traits<unsigned int,Ogre::HardwareBufferPool *,std::less<unsigned int>,std::allocator<std::pair<unsigned int const ,Ogre::HardwareBufferPool *> >,0> >::operator=
; Function compile flags: /Odtp
;	COMDAT ??4?$map@IPAVHardwareBufferPool@Ogre@@U?$less@I@std@@V?$allocator@U?$pair@$$CBIPAVHardwareBufferPool@Ogre@@@std@@@4@@std@@QAEAAV01@ABV01@@Z
_TEXT	SEGMENT
_this$ = -4						; size = 4
___that$ = 8						; size = 4
??4?$map@IPAVHardwareBufferPool@Ogre@@U?$less@I@std@@V?$allocator@U?$pair@$$CBIPAVHardwareBufferPool@Ogre@@@std@@@4@@std@@QAEAAV01@ABV01@@Z PROC ; std::map<unsigned int,Ogre::HardwareBufferPool *,std::less<unsigned int>,std::allocator<std::pair<unsigned int const ,Ogre::HardwareBufferPool *> > >::operator=, COMDAT
; _this$ = ecx
	push	ebp
	mov	ebp, esp
	push	ecx
	mov	DWORD PTR _this$[ebp], ecx
	mov	eax, DWORD PTR ___that$[ebp]
	push	eax
	mov	ecx, DWORD PTR _this$[ebp]
	call	??4?$_Tree@V?$_Tmap_traits@IPAVHardwareBufferPool@Ogre@@U?$less@I@std@@V?$allocator@U?$pair@$$CBIPAVHardwareBufferPool@Ogre@@@std@@@4@$0A@@std@@@std@@QAEAAV01@ABV01@@Z ; std::_Tree<std::_Tmap_traits<unsigned int,Ogre::HardwareBufferPool *,std::less<unsigned int>,std::allocator<std::pair<unsigned int const ,Ogre::HardwareBufferPool *> >,0> >::operator=
	mov	eax, DWORD PTR _this$[ebp]
	mov	esp, ebp
	pop	ebp
	ret	4
??4?$map@IPAVHardwareBufferPool@Ogre@@U?$less@I@std@@V?$allocator@U?$pair@$$CBIPAVHardwareBufferPool@Ogre@@@std@@@4@@std@@QAEAAV01@ABV01@@Z ENDP ; std::map<unsigned int,Ogre::HardwareBufferPool *,std::less<unsigned int>,std::allocator<std::pair<unsigned int const ,Ogre::HardwareBufferPool *> > >::operator=
_TEXT	ENDS
PUBLIC	?freeBuffer@HardwareBufferPool@Ogre@@QAEXPAVHardwareBuffer@2@@Z ; Ogre::HardwareBufferPool::freeBuffer
PUBLIC	?release@HardwareBuffer@Ogre@@QAEXXZ		; Ogre::HardwareBuffer::release
; Function compile flags: /Odtp
;	COMDAT ?release@HardwareBuffer@Ogre@@QAEXXZ
_TEXT	SEGMENT
_this$ = -4						; size = 4
?release@HardwareBuffer@Ogre@@QAEXXZ PROC		; Ogre::HardwareBuffer::release, COMDAT
; _this$ = ecx

; 152  : 	{

	push	ebp
	mov	ebp, esp
	push	ecx
	mov	DWORD PTR _this$[ebp], ecx

; 153  : 		m_pPool->freeBuffer(this);

	mov	eax, DWORD PTR _this$[ebp]
	push	eax
	mov	ecx, DWORD PTR _this$[ebp]
	mov	ecx, DWORD PTR [ecx+28]
	call	?freeBuffer@HardwareBufferPool@Ogre@@QAEXPAVHardwareBuffer@2@@Z ; Ogre::HardwareBufferPool::freeBuffer

; 154  : 	}

	mov	esp, ebp
	pop	ebp
	ret	0
?release@HardwareBuffer@Ogre@@QAEXXZ ENDP		; Ogre::HardwareBuffer::release
_TEXT	ENDS
PUBLIC	?lock@HardwareBuffer@Ogre@@QAEPAXW4HardwareBufferLockOpt@2@@Z ; Ogre::HardwareBuffer::lock
; Function compile flags: /Odtp
;	COMDAT ?lock@HardwareBuffer@Ogre@@QAEPAXW4HardwareBufferLockOpt@2@@Z
_TEXT	SEGMENT
_this$ = -4						; size = 4
_lockopt$ = 8						; size = 4
?lock@HardwareBuffer@Ogre@@QAEPAXW4HardwareBufferLockOpt@2@@Z PROC ; Ogre::HardwareBuffer::lock, COMDAT
; _this$ = ecx

; 157  : 	{

	push	ebp
	mov	ebp, esp
	push	ecx
	mov	DWORD PTR _this$[ebp], ecx

; 158  : 		return m_pPool->lock(m_Start, m_Num, lockopt);

	mov	eax, DWORD PTR _lockopt$[ebp]
	push	eax
	mov	ecx, DWORD PTR _this$[ebp]
	mov	edx, DWORD PTR [ecx+20]
	push	edx
	mov	eax, DWORD PTR _this$[ebp]
	mov	ecx, DWORD PTR [eax+16]
	push	ecx
	mov	edx, DWORD PTR _this$[ebp]
	mov	eax, DWORD PTR [edx+28]
	mov	ecx, DWORD PTR _this$[ebp]
	mov	ecx, DWORD PTR [ecx+28]
	mov	edx, DWORD PTR [eax]
	mov	eax, DWORD PTR [edx+4]
	call	eax

; 159  : 	}

	mov	esp, ebp
	pop	ebp
	ret	4
?lock@HardwareBuffer@Ogre@@QAEPAXW4HardwareBufferLockOpt@2@@Z ENDP ; Ogre::HardwareBuffer::lock
_TEXT	ENDS
PUBLIC	?unlock@HardwareBuffer@Ogre@@QAEXXZ		; Ogre::HardwareBuffer::unlock
; Function compile flags: /Odtp
;	COMDAT ?unlock@HardwareBuffer@Ogre@@QAEXXZ
_TEXT	SEGMENT
_this$ = -4						; size = 4
?unlock@HardwareBuffer@Ogre@@QAEXXZ PROC		; Ogre::HardwareBuffer::unlock, COMDAT
; _this$ = ecx

; 162  : 	{

	push	ebp
	mov	ebp, esp
	push	ecx
	mov	DWORD PTR _this$[ebp], ecx

; 163  : 		m_pPool->unlock();

	mov	eax, DWORD PTR _this$[ebp]
	mov	ecx, DWORD PTR [eax+28]
	mov	edx, DWORD PTR _this$[ebp]
	mov	eax, DWORD PTR [edx+28]
	mov	edx, DWORD PTR [ecx]
	mov	ecx, eax
	mov	eax, DWORD PTR [edx+8]
	call	eax

; 164  : 		m_DataInvalid = false;

	mov	ecx, DWORD PTR _this$[ebp]
	mov	BYTE PTR [ecx+12], 0

; 165  : 	}

	mov	esp, ebp
	pop	ebp
	ret	0
?unlock@HardwareBuffer@Ogre@@QAEXXZ ENDP		; Ogre::HardwareBuffer::unlock
_TEXT	ENDS
PUBLIC	?reset@HardwareBufferPool@Ogre@@AAEXXZ		; Ogre::HardwareBufferPool::reset
PUBLIC	??0?$ChainList@VHardwareBuffer@Ogre@@@Ogre@@QAE@XZ ; Ogre::ChainList<Ogre::HardwareBuffer>::ChainList<Ogre::HardwareBuffer>
PUBLIC	??0HardwareBufferPool@Ogre@@QAE@_NI0@Z		; Ogre::HardwareBufferPool::HardwareBufferPool
EXTRN	??0LockSection@Ogre@@QAE@XZ:PROC		; Ogre::LockSection::LockSection
xdata$x	SEGMENT
__unwindtable$??0HardwareBufferPool@Ogre@@QAE@_NI0@Z DD 0ffffffffH
	DD	FLAT:__unwindfunclet$??0HardwareBufferPool@Ogre@@QAE@_NI0@Z$0
__ehfuncinfo$??0HardwareBufferPool@Ogre@@QAE@_NI0@Z DD 019930522H
	DD	01H
	DD	FLAT:__unwindtable$??0HardwareBufferPool@Ogre@@QAE@_NI0@Z
	DD	2 DUP(00H)
	DD	2 DUP(00H)
	DD	00H
	DD	00H
; Function compile flags: /Odtp
; File i:\svnroot\client\ogremain\ogrehardwarebuffer.cpp
xdata$x	ENDS
_TEXT	SEGMENT
_this$ = -16						; size = 4
__$EHRec$ = -12						; size = 12
_is_vbuffer$ = 8					; size = 1
_poolsize$ = 12						; size = 4
_bdynamic$ = 16						; size = 1
??0HardwareBufferPool@Ogre@@QAE@_NI0@Z PROC		; Ogre::HardwareBufferPool::HardwareBufferPool
; _this$ = ecx

; 9    : 	{

	push	ebp
	mov	ebp, esp
	push	-1
	push	__ehhandler$??0HardwareBufferPool@Ogre@@QAE@_NI0@Z
	mov	eax, DWORD PTR fs:0
	push	eax
	push	ecx
	mov	eax, DWORD PTR ___security_cookie
	xor	eax, ebp
	push	eax
	lea	eax, DWORD PTR __$EHRec$[ebp]
	mov	DWORD PTR fs:0, eax
	mov	DWORD PTR _this$[ebp], ecx
	mov	eax, DWORD PTR _this$[ebp]
	mov	DWORD PTR [eax], OFFSET ??_7HardwareBufferPool@Ogre@@6B@
	mov	ecx, DWORD PTR _this$[ebp]
	mov	dl, BYTE PTR _bdynamic$[ebp]
	mov	BYTE PTR [ecx+4], dl
	mov	eax, DWORD PTR _this$[ebp]
	mov	cl, BYTE PTR _is_vbuffer$[ebp]
	mov	BYTE PTR [eax+5], cl
	mov	edx, DWORD PTR _this$[ebp]
	mov	DWORD PTR [edx+8], 0
	mov	eax, DWORD PTR _this$[ebp]
	mov	ecx, DWORD PTR _poolsize$[ebp]
	mov	DWORD PTR [eax+12], ecx
	mov	ecx, DWORD PTR _this$[ebp]
	add	ecx, 16					; 00000010H
	call	??0?$ChainList@VHardwareBuffer@Ogre@@@Ogre@@QAE@XZ ; Ogre::ChainList<Ogre::HardwareBuffer>::ChainList<Ogre::HardwareBuffer>
	mov	ecx, DWORD PTR _this$[ebp]
	add	ecx, 28					; 0000001cH
	call	??0?$ChainList@VHardwareBuffer@Ogre@@@Ogre@@QAE@XZ ; Ogre::ChainList<Ogre::HardwareBuffer>::ChainList<Ogre::HardwareBuffer>
	mov	edx, DWORD PTR _this$[ebp]
	mov	DWORD PTR [edx+40], 0
	mov	ecx, DWORD PTR _this$[ebp]
	add	ecx, 44					; 0000002cH
	call	??0LockSection@Ogre@@QAE@XZ		; Ogre::LockSection::LockSection
	mov	DWORD PTR __$EHRec$[ebp+8], 0

; 10   : 		reset();

	mov	ecx, DWORD PTR _this$[ebp]
	call	?reset@HardwareBufferPool@Ogre@@AAEXXZ	; Ogre::HardwareBufferPool::reset

; 11   : 	}

	mov	DWORD PTR __$EHRec$[ebp+8], -1
	mov	eax, DWORD PTR _this$[ebp]
	mov	ecx, DWORD PTR __$EHRec$[ebp]
	mov	DWORD PTR fs:0, ecx
	pop	ecx
	mov	esp, ebp
	pop	ebp
	ret	12					; 0000000cH
_TEXT	ENDS
text$x	SEGMENT
__unwindfunclet$??0HardwareBufferPool@Ogre@@QAE@_NI0@Z$0:
	mov	ecx, DWORD PTR _this$[ebp]
	add	ecx, 44					; 0000002cH
	jmp	??1LockSection@Ogre@@QAE@XZ		; Ogre::LockSection::~LockSection
__ehhandler$??0HardwareBufferPool@Ogre@@QAE@_NI0@Z:
	mov	edx, DWORD PTR [esp+8]
	lea	eax, DWORD PTR [edx+12]
	mov	ecx, DWORD PTR [edx-8]
	xor	ecx, eax
	call	@__security_check_cookie@4
	mov	eax, OFFSET __ehfuncinfo$??0HardwareBufferPool@Ogre@@QAE@_NI0@Z
	jmp	___CxxFrameHandler3
text$x	ENDS
??0HardwareBufferPool@Ogre@@QAE@_NI0@Z ENDP		; Ogre::HardwareBufferPool::HardwareBufferPool
PUBLIC	?Remove@?$ChainList@VHardwareBuffer@Ogre@@@Ogre@@QAEPAVHardwareBuffer@2@PAVChainListNode@2@@Z ; Ogre::ChainList<Ogre::HardwareBuffer>::Remove
PUBLIC	?BeginIterate@?$ChainList@VHardwareBuffer@Ogre@@@Ogre@@QAEPAVHardwareBuffer@2@XZ ; Ogre::ChainList<Ogre::HardwareBuffer>::BeginIterate
xdata$x	SEGMENT
__unwindtable$??1HardwareBufferPool@Ogre@@UAE@XZ DD 0ffffffffH
	DD	FLAT:__unwindfunclet$??1HardwareBufferPool@Ogre@@UAE@XZ$0
__ehfuncinfo$??1HardwareBufferPool@Ogre@@UAE@XZ DD 019930522H
	DD	01H
	DD	FLAT:__unwindtable$??1HardwareBufferPool@Ogre@@UAE@XZ
	DD	2 DUP(00H)
	DD	2 DUP(00H)
	DD	00H
	DD	00H
; Function compile flags: /Odtp
xdata$x	ENDS
_TEXT	SEGMENT
tv94 = -52						; size = 4
tv85 = -48						; size = 4
tv73 = -44						; size = 4
_this$ = -40						; size = 4
$T63909 = -36						; size = 4
$T63908 = -32						; size = 4
$T63903 = -28						; size = 4
$T63902 = -24						; size = 4
_pnext$57882 = -20					; size = 4
_pbuffer$ = -16						; size = 4
__$EHRec$ = -12						; size = 12
??1HardwareBufferPool@Ogre@@UAE@XZ PROC			; Ogre::HardwareBufferPool::~HardwareBufferPool
; _this$ = ecx

; 14   : 	{

	push	ebp
	mov	ebp, esp
	push	-1
	push	__ehhandler$??1HardwareBufferPool@Ogre@@UAE@XZ
	mov	eax, DWORD PTR fs:0
	push	eax
	sub	esp, 40					; 00000028H
	mov	eax, DWORD PTR ___security_cookie
	xor	eax, ebp
	push	eax
	lea	eax, DWORD PTR __$EHRec$[ebp]
	mov	DWORD PTR fs:0, eax
	mov	DWORD PTR _this$[ebp], ecx
	mov	eax, DWORD PTR _this$[ebp]
	mov	DWORD PTR [eax], OFFSET ??_7HardwareBufferPool@Ogre@@6B@
	mov	DWORD PTR __$EHRec$[ebp+8], 0

; 15   : 		//assert(m_bDynamic&&m_FreeBuffers.GetNumNodes()==0 || !m_bDynamic&&m_FreeBuffers.GetNumNodes()<=1);
; 16   : 
; 17   : 		delete m_pDynBuffer;

	mov	ecx, DWORD PTR _this$[ebp]
	mov	edx, DWORD PTR [ecx+8]
	mov	DWORD PTR $T63903[ebp], edx
	mov	eax, DWORD PTR $T63903[ebp]
	mov	DWORD PTR $T63902[ebp], eax
	cmp	DWORD PTR $T63902[ebp], 0
	je	SHORT $LN5@HardwareBu@3
	push	1
	mov	ecx, DWORD PTR $T63902[ebp]
	mov	edx, DWORD PTR [ecx]
	mov	ecx, DWORD PTR $T63902[ebp]
	mov	eax, DWORD PTR [edx]
	call	eax
	mov	DWORD PTR tv73[ebp], eax
	jmp	SHORT $LN6@HardwareBu@3
$LN5@HardwareBu@3:
	mov	DWORD PTR tv73[ebp], 0
$LN6@HardwareBu@3:

; 18   : 
; 19   : 		HardwareBuffer *pbuffer = m_FreeBuffers.BeginIterate();

	mov	ecx, DWORD PTR _this$[ebp]
	add	ecx, 16					; 00000010H
	call	?BeginIterate@?$ChainList@VHardwareBuffer@Ogre@@@Ogre@@QAEPAVHardwareBuffer@2@XZ ; Ogre::ChainList<Ogre::HardwareBuffer>::BeginIterate
	mov	DWORD PTR _pbuffer$[ebp], eax
$LN2@HardwareBu@3:

; 20   : 		while(pbuffer)

	cmp	DWORD PTR _pbuffer$[ebp], 0
	je	SHORT $LN3@HardwareBu@3

; 21   : 		{
; 22   : 			HardwareBuffer *pnext = m_FreeBuffers.Remove(pbuffer);

	cmp	DWORD PTR _pbuffer$[ebp], 0
	je	SHORT $LN7@HardwareBu@3
	mov	ecx, DWORD PTR _pbuffer$[ebp]
	add	ecx, 4
	mov	DWORD PTR tv85[ebp], ecx
	jmp	SHORT $LN8@HardwareBu@3
$LN7@HardwareBu@3:
	mov	DWORD PTR tv85[ebp], 0
$LN8@HardwareBu@3:
	mov	edx, DWORD PTR tv85[ebp]
	push	edx
	mov	ecx, DWORD PTR _this$[ebp]
	add	ecx, 16					; 00000010H
	call	?Remove@?$ChainList@VHardwareBuffer@Ogre@@@Ogre@@QAEPAVHardwareBuffer@2@PAVChainListNode@2@@Z ; Ogre::ChainList<Ogre::HardwareBuffer>::Remove
	mov	DWORD PTR _pnext$57882[ebp], eax

; 23   : 			delete pbuffer;

	mov	eax, DWORD PTR _pbuffer$[ebp]
	mov	DWORD PTR $T63909[ebp], eax
	mov	ecx, DWORD PTR $T63909[ebp]
	mov	DWORD PTR $T63908[ebp], ecx
	cmp	DWORD PTR $T63908[ebp], 0
	je	SHORT $LN9@HardwareBu@3
	push	1
	mov	edx, DWORD PTR $T63908[ebp]
	mov	eax, DWORD PTR [edx]
	mov	ecx, DWORD PTR $T63908[ebp]
	mov	edx, DWORD PTR [eax]
	call	edx
	mov	DWORD PTR tv94[ebp], eax
	jmp	SHORT $LN10@HardwareBu@3
$LN9@HardwareBu@3:
	mov	DWORD PTR tv94[ebp], 0
$LN10@HardwareBu@3:

; 24   : 			pbuffer = pnext;

	mov	eax, DWORD PTR _pnext$57882[ebp]
	mov	DWORD PTR _pbuffer$[ebp], eax

; 25   : 		}

	jmp	SHORT $LN2@HardwareBu@3
$LN3@HardwareBu@3:

; 26   : 	}

	mov	DWORD PTR __$EHRec$[ebp+8], -1
	mov	ecx, DWORD PTR _this$[ebp]
	add	ecx, 44					; 0000002cH
	call	??1LockSection@Ogre@@QAE@XZ		; Ogre::LockSection::~LockSection
	mov	ecx, DWORD PTR __$EHRec$[ebp]
	mov	DWORD PTR fs:0, ecx
	pop	ecx
	mov	esp, ebp
	pop	ebp
	ret	0
_TEXT	ENDS
text$x	SEGMENT
__unwindfunclet$??1HardwareBufferPool@Ogre@@UAE@XZ$0:
	mov	ecx, DWORD PTR _this$[ebp]
	add	ecx, 44					; 0000002cH
	jmp	??1LockSection@Ogre@@QAE@XZ		; Ogre::LockSection::~LockSection
__ehhandler$??1HardwareBufferPool@Ogre@@UAE@XZ:
	mov	edx, DWORD PTR [esp+8]
	lea	eax, DWORD PTR [edx+12]
	mov	ecx, DWORD PTR [edx-44]
	xor	ecx, eax
	call	@__security_check_cookie@4
	mov	eax, OFFSET __ehfuncinfo$??1HardwareBufferPool@Ogre@@UAE@XZ
	jmp	___CxxFrameHandler3
text$x	ENDS
??1HardwareBufferPool@Ogre@@UAE@XZ ENDP			; Ogre::HardwareBufferPool::~HardwareBufferPool
PUBLIC	?Iterate@?$ChainList@VHardwareBuffer@Ogre@@@Ogre@@QAEPAVHardwareBuffer@2@PAVChainListNode@2@@Z ; Ogre::ChainList<Ogre::HardwareBuffer>::Iterate
PUBLIC	?onDataInvalidate@HardwareBufferPool@Ogre@@QAEXXZ ; Ogre::HardwareBufferPool::onDataInvalidate
; Function compile flags: /Odtp
_TEXT	SEGMENT
tv91 = -16						; size = 4
tv76 = -12						; size = 4
_this$ = -8						; size = 4
_pbuffer$ = -4						; size = 4
?onDataInvalidate@HardwareBufferPool@Ogre@@QAEXXZ PROC	; Ogre::HardwareBufferPool::onDataInvalidate
; _this$ = ecx

; 29   : 	{

	push	ebp
	mov	ebp, esp
	sub	esp, 16					; 00000010H
	mov	DWORD PTR _this$[ebp], ecx

; 30   : 		HardwareBuffer *pbuffer = m_FreeBuffers.BeginIterate();

	mov	ecx, DWORD PTR _this$[ebp]
	add	ecx, 16					; 00000010H
	call	?BeginIterate@?$ChainList@VHardwareBuffer@Ogre@@@Ogre@@QAEPAVHardwareBuffer@2@XZ ; Ogre::ChainList<Ogre::HardwareBuffer>::BeginIterate
	mov	DWORD PTR _pbuffer$[ebp], eax
$LN4@onDataInva:

; 31   : 		while(pbuffer)

	cmp	DWORD PTR _pbuffer$[ebp], 0
	je	SHORT $LN3@onDataInva

; 32   : 		{
; 33   : 			pbuffer->m_DataInvalid = true;

	mov	eax, DWORD PTR _pbuffer$[ebp]
	mov	BYTE PTR [eax+12], 1

; 34   : 			pbuffer = m_FreeBuffers.Iterate(pbuffer);

	cmp	DWORD PTR _pbuffer$[ebp], 0
	je	SHORT $LN7@onDataInva
	mov	ecx, DWORD PTR _pbuffer$[ebp]
	add	ecx, 4
	mov	DWORD PTR tv76[ebp], ecx
	jmp	SHORT $LN8@onDataInva
$LN7@onDataInva:
	mov	DWORD PTR tv76[ebp], 0
$LN8@onDataInva:
	mov	edx, DWORD PTR tv76[ebp]
	push	edx
	mov	ecx, DWORD PTR _this$[ebp]
	add	ecx, 16					; 00000010H
	call	?Iterate@?$ChainList@VHardwareBuffer@Ogre@@@Ogre@@QAEPAVHardwareBuffer@2@PAVChainListNode@2@@Z ; Ogre::ChainList<Ogre::HardwareBuffer>::Iterate
	mov	DWORD PTR _pbuffer$[ebp], eax

; 35   : 		}

	jmp	SHORT $LN4@onDataInva
$LN3@onDataInva:

; 36   : 
; 37   : 		pbuffer = m_UsedBuffers.BeginIterate();

	mov	ecx, DWORD PTR _this$[ebp]
	add	ecx, 28					; 0000001cH
	call	?BeginIterate@?$ChainList@VHardwareBuffer@Ogre@@@Ogre@@QAEPAVHardwareBuffer@2@XZ ; Ogre::ChainList<Ogre::HardwareBuffer>::BeginIterate
	mov	DWORD PTR _pbuffer$[ebp], eax
$LN2@onDataInva:

; 38   : 		while(pbuffer)

	cmp	DWORD PTR _pbuffer$[ebp], 0
	je	SHORT $LN5@onDataInva

; 39   : 		{
; 40   : 			pbuffer->m_DataInvalid = true;

	mov	eax, DWORD PTR _pbuffer$[ebp]
	mov	BYTE PTR [eax+12], 1

; 41   : 			pbuffer = m_UsedBuffers.Iterate(pbuffer);

	cmp	DWORD PTR _pbuffer$[ebp], 0
	je	SHORT $LN9@onDataInva
	mov	ecx, DWORD PTR _pbuffer$[ebp]
	add	ecx, 4
	mov	DWORD PTR tv91[ebp], ecx
	jmp	SHORT $LN10@onDataInva
$LN9@onDataInva:
	mov	DWORD PTR tv91[ebp], 0
$LN10@onDataInva:
	mov	edx, DWORD PTR tv91[ebp]
	push	edx
	mov	ecx, DWORD PTR _this$[ebp]
	add	ecx, 28					; 0000001cH
	call	?Iterate@?$ChainList@VHardwareBuffer@Ogre@@@Ogre@@QAEPAVHardwareBuffer@2@PAVChainListNode@2@@Z ; Ogre::ChainList<Ogre::HardwareBuffer>::Iterate
	mov	DWORD PTR _pbuffer$[ebp], eax

; 42   : 		}

	jmp	SHORT $LN2@onDataInva
$LN5@onDataInva:

; 43   : 	}

	mov	esp, ebp
	pop	ebp
	ret	0
?onDataInvalidate@HardwareBufferPool@Ogre@@QAEXXZ ENDP	; Ogre::HardwareBufferPool::onDataInvalidate
_TEXT	ENDS
PUBLIC	?PushBack@?$ChainList@VHardwareBuffer@Ogre@@@Ogre@@QAEXPAVChainListNode@2@@Z ; Ogre::ChainList<Ogre::HardwareBuffer>::PushBack
PUBLIC	?newBuffer@HardwareBufferPool@Ogre@@AAEPAVHardwareBuffer@2@XZ ; Ogre::HardwareBufferPool::newBuffer
; Function compile flags: /Odtp
_TEXT	SEGMENT
tv92 = -12						; size = 4
_this$ = -8						; size = 4
_pbuffer$57902 = -4					; size = 4
?reset@HardwareBufferPool@Ogre@@AAEXXZ PROC		; Ogre::HardwareBufferPool::reset
; _this$ = ecx

; 46   : 	{

	push	ebp
	mov	ebp, esp
	sub	esp, 12					; 0000000cH
	mov	DWORD PTR _this$[ebp], ecx

; 47   : 		assert(m_FreeBuffers.GetNumNodes() == 0);
; 48   : 
; 49   : 		if(m_bDynamic)

	mov	eax, DWORD PTR _this$[ebp]
	movzx	ecx, BYTE PTR [eax+4]
	test	ecx, ecx
	je	SHORT $LN3@reset

; 50   : 		{
; 51   : 			if(m_pDynBuffer == NULL) m_pDynBuffer = newBuffer();

	mov	edx, DWORD PTR _this$[ebp]
	cmp	DWORD PTR [edx+8], 0
	jne	SHORT $LN2@reset
	mov	ecx, DWORD PTR _this$[ebp]
	call	?newBuffer@HardwareBufferPool@Ogre@@AAEPAVHardwareBuffer@2@XZ ; Ogre::HardwareBufferPool::newBuffer
	mov	ecx, DWORD PTR _this$[ebp]
	mov	DWORD PTR [ecx+8], eax
$LN2@reset:

; 52   : 			m_pDynBuffer->Set(0, 0, m_PoolSize);

	mov	edx, DWORD PTR _this$[ebp]
	mov	eax, DWORD PTR [edx+12]
	push	eax
	push	0
	push	0
	mov	ecx, DWORD PTR _this$[ebp]
	mov	ecx, DWORD PTR [ecx+8]
	call	?Set@HardwareBuffer@Ogre@@IAEXIII@Z	; Ogre::HardwareBuffer::Set

; 53   : 		}
; 54   : 		else

	jmp	SHORT $LN4@reset
$LN3@reset:

; 55   : 		{
; 56   : 			HardwareBuffer *pbuffer = newBuffer();

	mov	ecx, DWORD PTR _this$[ebp]
	call	?newBuffer@HardwareBufferPool@Ogre@@AAEPAVHardwareBuffer@2@XZ ; Ogre::HardwareBufferPool::newBuffer
	mov	DWORD PTR _pbuffer$57902[ebp], eax

; 57   : 			pbuffer->Set(0, m_PoolSize, m_PoolSize);

	mov	edx, DWORD PTR _this$[ebp]
	mov	eax, DWORD PTR [edx+12]
	push	eax
	mov	ecx, DWORD PTR _this$[ebp]
	mov	edx, DWORD PTR [ecx+12]
	push	edx
	push	0
	mov	ecx, DWORD PTR _pbuffer$57902[ebp]
	call	?Set@HardwareBuffer@Ogre@@IAEXIII@Z	; Ogre::HardwareBuffer::Set

; 58   : 			m_FreeBuffers.PushBack(pbuffer);

	cmp	DWORD PTR _pbuffer$57902[ebp], 0
	je	SHORT $LN6@reset
	mov	eax, DWORD PTR _pbuffer$57902[ebp]
	add	eax, 4
	mov	DWORD PTR tv92[ebp], eax
	jmp	SHORT $LN7@reset
$LN6@reset:
	mov	DWORD PTR tv92[ebp], 0
$LN7@reset:
	mov	ecx, DWORD PTR tv92[ebp]
	push	ecx
	mov	ecx, DWORD PTR _this$[ebp]
	add	ecx, 16					; 00000010H
	call	?PushBack@?$ChainList@VHardwareBuffer@Ogre@@@Ogre@@QAEXPAVChainListNode@2@@Z ; Ogre::ChainList<Ogre::HardwareBuffer>::PushBack
$LN4@reset:

; 59   : 		}
; 60   : 	}

	mov	esp, ebp
	pop	ebp
	ret	0
?reset@HardwareBufferPool@Ogre@@AAEXXZ ENDP		; Ogre::HardwareBufferPool::reset
_TEXT	ENDS
PUBLIC	?allocRandomBuffer@HardwareBufferPool@Ogre@@AAEPAVHardwareBuffer@2@I@Z ; Ogre::HardwareBufferPool::allocRandomBuffer
PUBLIC	?allocAccumBuffer@HardwareBufferPool@Ogre@@AAEPAVHardwareBuffer@2@I@Z ; Ogre::HardwareBufferPool::allocAccumBuffer
PUBLIC	?allocBuffer@HardwareBufferPool@Ogre@@QAEPAVHardwareBuffer@2@I@Z ; Ogre::HardwareBufferPool::allocBuffer
xdata$x	SEGMENT
__unwindtable$?allocBuffer@HardwareBufferPool@Ogre@@QAEPAVHardwareBuffer@2@I@Z DD 0ffffffffH
	DD	FLAT:__unwindfunclet$?allocBuffer@HardwareBufferPool@Ogre@@QAEPAVHardwareBuffer@2@I@Z$0
__ehfuncinfo$?allocBuffer@HardwareBufferPool@Ogre@@QAEPAVHardwareBuffer@2@I@Z DD 019930522H
	DD	01H
	DD	FLAT:__unwindtable$?allocBuffer@HardwareBufferPool@Ogre@@QAEPAVHardwareBuffer@2@I@Z
	DD	2 DUP(00H)
	DD	2 DUP(00H)
	DD	00H
	DD	00H
; Function compile flags: /Odtp
xdata$x	ENDS
_TEXT	SEGMENT
tv78 = -32						; size = 4
_this$ = -28						; size = 4
$T63928 = -24						; size = 4
_mymutex$ = -20						; size = 4
_pbuf$ = -16						; size = 4
__$EHRec$ = -12						; size = 12
_num$ = 8						; size = 4
?allocBuffer@HardwareBufferPool@Ogre@@QAEPAVHardwareBuffer@2@I@Z PROC ; Ogre::HardwareBufferPool::allocBuffer
; _this$ = ecx

; 63   : 	{

	push	ebp
	mov	ebp, esp
	push	-1
	push	__ehhandler$?allocBuffer@HardwareBufferPool@Ogre@@QAEPAVHardwareBuffer@2@I@Z
	mov	eax, DWORD PTR fs:0
	push	eax
	sub	esp, 20					; 00000014H
	mov	eax, DWORD PTR ___security_cookie
	xor	eax, ebp
	push	eax
	lea	eax, DWORD PTR __$EHRec$[ebp]
	mov	DWORD PTR fs:0, eax
	mov	DWORD PTR _this$[ebp], ecx

; 64   : 		LockFunctor mymutex(&m_allocMutex);

	mov	eax, DWORD PTR _this$[ebp]
	add	eax, 44					; 0000002cH
	push	eax
	lea	ecx, DWORD PTR _mymutex$[ebp]
	call	??0LockFunctor@Ogre@@QAE@PAVLockSection@1@@Z ; Ogre::LockFunctor::LockFunctor
	mov	DWORD PTR __$EHRec$[ebp+8], 0

; 65   : 
; 66   : 		HardwareBuffer *pbuf = m_bDynamic?allocAccumBuffer(num):allocRandomBuffer(num);

	mov	ecx, DWORD PTR _this$[ebp]
	movzx	edx, BYTE PTR [ecx+4]
	test	edx, edx
	je	SHORT $LN3@allocBuffe
	mov	eax, DWORD PTR _num$[ebp]
	push	eax
	mov	ecx, DWORD PTR _this$[ebp]
	call	?allocAccumBuffer@HardwareBufferPool@Ogre@@AAEPAVHardwareBuffer@2@I@Z ; Ogre::HardwareBufferPool::allocAccumBuffer
	mov	DWORD PTR tv78[ebp], eax
	jmp	SHORT $LN4@allocBuffe
$LN3@allocBuffe:
	mov	ecx, DWORD PTR _num$[ebp]
	push	ecx
	mov	ecx, DWORD PTR _this$[ebp]
	call	?allocRandomBuffer@HardwareBufferPool@Ogre@@AAEPAVHardwareBuffer@2@I@Z ; Ogre::HardwareBufferPool::allocRandomBuffer
	mov	DWORD PTR tv78[ebp], eax
$LN4@allocBuffe:
	mov	edx, DWORD PTR tv78[ebp]
	mov	DWORD PTR _pbuf$[ebp], edx

; 67   : 		return pbuf;

	mov	eax, DWORD PTR _pbuf$[ebp]
	mov	DWORD PTR $T63928[ebp], eax
	mov	DWORD PTR __$EHRec$[ebp+8], -1
	lea	ecx, DWORD PTR _mymutex$[ebp]
	call	??1LockFunctor@Ogre@@QAE@XZ		; Ogre::LockFunctor::~LockFunctor
	mov	eax, DWORD PTR $T63928[ebp]

; 68   : 	}

	mov	ecx, DWORD PTR __$EHRec$[ebp]
	mov	DWORD PTR fs:0, ecx
	pop	ecx
	mov	esp, ebp
	pop	ebp
	ret	4
_TEXT	ENDS
text$x	SEGMENT
__unwindfunclet$?allocBuffer@HardwareBufferPool@Ogre@@QAEPAVHardwareBuffer@2@I@Z$0:
	lea	ecx, DWORD PTR _mymutex$[ebp]
	jmp	??1LockFunctor@Ogre@@QAE@XZ		; Ogre::LockFunctor::~LockFunctor
__ehhandler$?allocBuffer@HardwareBufferPool@Ogre@@QAEPAVHardwareBuffer@2@I@Z:
	mov	edx, DWORD PTR [esp+8]
	lea	eax, DWORD PTR [edx+12]
	mov	ecx, DWORD PTR [edx-24]
	xor	ecx, eax
	call	@__security_check_cookie@4
	mov	eax, OFFSET __ehfuncinfo$?allocBuffer@HardwareBufferPool@Ogre@@QAEPAVHardwareBuffer@2@I@Z
	jmp	___CxxFrameHandler3
text$x	ENDS
?allocBuffer@HardwareBufferPool@Ogre@@QAEPAVHardwareBuffer@2@I@Z ENDP ; Ogre::HardwareBufferPool::allocBuffer
PUBLIC	?PushFront@?$ChainList@VHardwareBuffer@Ogre@@@Ogre@@QAEXPAVChainListNode@2@@Z ; Ogre::ChainList<Ogre::HardwareBuffer>::PushFront
PUBLIC	?InsertAfter@?$ChainList@VHardwareBuffer@Ogre@@@Ogre@@QAEXPAVChainListNode@2@0@Z ; Ogre::ChainList<Ogre::HardwareBuffer>::InsertAfter
xdata$x	SEGMENT
__unwindtable$?freeBuffer@HardwareBufferPool@Ogre@@QAEXPAVHardwareBuffer@2@@Z DD 0ffffffffH
	DD	FLAT:__unwindfunclet$?freeBuffer@HardwareBufferPool@Ogre@@QAEXPAVHardwareBuffer@2@@Z$0
__ehfuncinfo$?freeBuffer@HardwareBufferPool@Ogre@@QAEXPAVHardwareBuffer@2@@Z DD 019930522H
	DD	01H
	DD	FLAT:__unwindtable$?freeBuffer@HardwareBufferPool@Ogre@@QAEXPAVHardwareBuffer@2@@Z
	DD	2 DUP(00H)
	DD	2 DUP(00H)
	DD	00H
	DD	00H
; Function compile flags: /Odtp
xdata$x	ENDS
_TEXT	SEGMENT
tv215 = -80						; size = 4
tv207 = -76						; size = 4
tv185 = -72						; size = 4
tv177 = -68						; size = 4
tv153 = -64						; size = 4
tv144 = -60						; size = 4
tv137 = -56						; size = 4
tv95 = -52						; size = 4
tv79 = -48						; size = 4
_this$ = -44						; size = 4
$T63954 = -40						; size = 4
$T63953 = -36						; size = 4
$T63948 = -32						; size = 4
$T63947 = -28						; size = 4
_mymutex$ = -24						; size = 4
_pcurbuf$ = -20						; size = 4
_pprev$ = -16						; size = 4
__$EHRec$ = -12						; size = 12
_pbuffer$ = 8						; size = 4
?freeBuffer@HardwareBufferPool@Ogre@@QAEXPAVHardwareBuffer@2@@Z PROC ; Ogre::HardwareBufferPool::freeBuffer
; _this$ = ecx

; 71   : 	{

	push	ebp
	mov	ebp, esp
	push	-1
	push	__ehhandler$?freeBuffer@HardwareBufferPool@Ogre@@QAEXPAVHardwareBuffer@2@@Z
	mov	eax, DWORD PTR fs:0
	push	eax
	sub	esp, 68					; 00000044H
	mov	eax, DWORD PTR ___security_cookie
	xor	eax, ebp
	push	eax
	lea	eax, DWORD PTR __$EHRec$[ebp]
	mov	DWORD PTR fs:0, eax
	mov	DWORD PTR _this$[ebp], ecx

; 72   : 		if(m_bDynamic)

	mov	eax, DWORD PTR _this$[ebp]
	movzx	ecx, BYTE PTR [eax+4]
	test	ecx, ecx
	je	SHORT $LN10@freeBuffer

; 73   : 		{
; 74   : 			return;

	jmp	$LN11@freeBuffer
$LN10@freeBuffer:

; 75   : 		}
; 76   : 
; 77   : 		LockFunctor mymutex(&m_allocMutex);

	mov	edx, DWORD PTR _this$[ebp]
	add	edx, 44					; 0000002cH
	push	edx
	lea	ecx, DWORD PTR _mymutex$[ebp]
	call	??0LockFunctor@Ogre@@QAE@PAVLockSection@1@@Z ; Ogre::LockFunctor::LockFunctor
	mov	DWORD PTR __$EHRec$[ebp+8], 0

; 78   : 
; 79   : 		assert(m_UsedBuffers.IsNodeInList(pbuffer));
; 80   : 		m_UsedBuffers.Remove(pbuffer);

	cmp	DWORD PTR _pbuffer$[ebp], 0
	je	SHORT $LN13@freeBuffer
	mov	eax, DWORD PTR _pbuffer$[ebp]
	add	eax, 4
	mov	DWORD PTR tv79[ebp], eax
	jmp	SHORT $LN14@freeBuffer
$LN13@freeBuffer:
	mov	DWORD PTR tv79[ebp], 0
$LN14@freeBuffer:
	mov	ecx, DWORD PTR tv79[ebp]
	push	ecx
	mov	ecx, DWORD PTR _this$[ebp]
	add	ecx, 28					; 0000001cH
	call	?Remove@?$ChainList@VHardwareBuffer@Ogre@@@Ogre@@QAEPAVHardwareBuffer@2@PAVChainListNode@2@@Z ; Ogre::ChainList<Ogre::HardwareBuffer>::Remove

; 81   : 
; 82   : 		//merge or insert pbub into the sorted free list
; 83   : 		HardwareBuffer *pcurbuf = m_FreeBuffers.BeginIterate();

	mov	ecx, DWORD PTR _this$[ebp]
	add	ecx, 16					; 00000010H
	call	?BeginIterate@?$ChainList@VHardwareBuffer@Ogre@@@Ogre@@QAEPAVHardwareBuffer@2@XZ ; Ogre::ChainList<Ogre::HardwareBuffer>::BeginIterate
	mov	DWORD PTR _pcurbuf$[ebp], eax

; 84   : 		HardwareBuffer *pprev = NULL;

	mov	DWORD PTR _pprev$[ebp], 0
$LN9@freeBuffer:

; 85   : 		while( pcurbuf )

	cmp	DWORD PTR _pcurbuf$[ebp], 0
	je	SHORT $LN8@freeBuffer

; 86   : 		{
; 87   : 			if( pcurbuf->m_Start > pbuffer->m_Start ) break;

	mov	edx, DWORD PTR _pcurbuf$[ebp]
	mov	eax, DWORD PTR _pbuffer$[ebp]
	mov	ecx, DWORD PTR [edx+16]
	cmp	ecx, DWORD PTR [eax+16]
	jbe	SHORT $LN7@freeBuffer
	jmp	SHORT $LN8@freeBuffer
$LN7@freeBuffer:

; 88   : 			pprev = pcurbuf;

	mov	edx, DWORD PTR _pcurbuf$[ebp]
	mov	DWORD PTR _pprev$[ebp], edx

; 89   : 			pcurbuf = m_FreeBuffers.Iterate(pcurbuf);

	cmp	DWORD PTR _pcurbuf$[ebp], 0
	je	SHORT $LN15@freeBuffer
	mov	eax, DWORD PTR _pcurbuf$[ebp]
	add	eax, 4
	mov	DWORD PTR tv95[ebp], eax
	jmp	SHORT $LN16@freeBuffer
$LN15@freeBuffer:
	mov	DWORD PTR tv95[ebp], 0
$LN16@freeBuffer:
	mov	ecx, DWORD PTR tv95[ebp]
	push	ecx
	mov	ecx, DWORD PTR _this$[ebp]
	add	ecx, 16					; 00000010H
	call	?Iterate@?$ChainList@VHardwareBuffer@Ogre@@@Ogre@@QAEPAVHardwareBuffer@2@PAVChainListNode@2@@Z ; Ogre::ChainList<Ogre::HardwareBuffer>::Iterate
	mov	DWORD PTR _pcurbuf$[ebp], eax

; 90   : 		}

	jmp	SHORT $LN9@freeBuffer
$LN8@freeBuffer:

; 91   : 
; 92   : 		if( pprev ) m_FreeBuffers.InsertAfter( pbuffer, pprev );

	cmp	DWORD PTR _pprev$[ebp], 0
	je	SHORT $LN6@freeBuffer
	cmp	DWORD PTR _pprev$[ebp], 0
	je	SHORT $LN17@freeBuffer
	mov	edx, DWORD PTR _pprev$[ebp]
	add	edx, 4
	mov	DWORD PTR tv137[ebp], edx
	jmp	SHORT $LN18@freeBuffer
$LN17@freeBuffer:
	mov	DWORD PTR tv137[ebp], 0
$LN18@freeBuffer:
	cmp	DWORD PTR _pbuffer$[ebp], 0
	je	SHORT $LN19@freeBuffer
	mov	eax, DWORD PTR _pbuffer$[ebp]
	add	eax, 4
	mov	DWORD PTR tv144[ebp], eax
	jmp	SHORT $LN20@freeBuffer
$LN19@freeBuffer:
	mov	DWORD PTR tv144[ebp], 0
$LN20@freeBuffer:
	mov	ecx, DWORD PTR tv137[ebp]
	push	ecx
	mov	edx, DWORD PTR tv144[ebp]
	push	edx
	mov	ecx, DWORD PTR _this$[ebp]
	add	ecx, 16					; 00000010H
	call	?InsertAfter@?$ChainList@VHardwareBuffer@Ogre@@@Ogre@@QAEXPAVChainListNode@2@0@Z ; Ogre::ChainList<Ogre::HardwareBuffer>::InsertAfter
	jmp	SHORT $LN5@freeBuffer
$LN6@freeBuffer:

; 93   : 		else m_FreeBuffers.PushFront( pbuffer );

	cmp	DWORD PTR _pbuffer$[ebp], 0
	je	SHORT $LN21@freeBuffer
	mov	eax, DWORD PTR _pbuffer$[ebp]
	add	eax, 4
	mov	DWORD PTR tv153[ebp], eax
	jmp	SHORT $LN22@freeBuffer
$LN21@freeBuffer:
	mov	DWORD PTR tv153[ebp], 0
$LN22@freeBuffer:
	mov	ecx, DWORD PTR tv153[ebp]
	push	ecx
	mov	ecx, DWORD PTR _this$[ebp]
	add	ecx, 16					; 00000010H
	call	?PushFront@?$ChainList@VHardwareBuffer@Ogre@@@Ogre@@QAEXPAVChainListNode@2@@Z ; Ogre::ChainList<Ogre::HardwareBuffer>::PushFront
$LN5@freeBuffer:

; 94   : 
; 95   : 		//find if can merge
; 96   : 		if( pprev )

	cmp	DWORD PTR _pprev$[ebp], 0
	je	$LN4@freeBuffer

; 97   : 		{
; 98   : 			assert( pprev->m_Start+pprev->m_BubSize <= pbuffer->m_Start );
; 99   : 			if( pprev->m_Start+pprev->m_BubSize == pbuffer->m_Start )

	mov	edx, DWORD PTR _pprev$[ebp]
	mov	eax, DWORD PTR [edx+16]
	mov	ecx, DWORD PTR _pprev$[ebp]
	add	eax, DWORD PTR [ecx+24]
	mov	edx, DWORD PTR _pbuffer$[ebp]
	cmp	eax, DWORD PTR [edx+16]
	jne	SHORT $LN4@freeBuffer

; 100  : 			{
; 101  : 				pprev->Set( pprev->m_Start, 0, pprev->m_BubSize+pbuffer->m_BubSize );

	mov	eax, DWORD PTR _pprev$[ebp]
	mov	ecx, DWORD PTR [eax+24]
	mov	edx, DWORD PTR _pbuffer$[ebp]
	add	ecx, DWORD PTR [edx+24]
	push	ecx
	push	0
	mov	eax, DWORD PTR _pprev$[ebp]
	mov	ecx, DWORD PTR [eax+16]
	push	ecx
	mov	ecx, DWORD PTR _pprev$[ebp]
	call	?Set@HardwareBuffer@Ogre@@IAEXIII@Z	; Ogre::HardwareBuffer::Set

; 102  : 				m_FreeBuffers.Remove( pbuffer );

	cmp	DWORD PTR _pbuffer$[ebp], 0
	je	SHORT $LN23@freeBuffer
	mov	edx, DWORD PTR _pbuffer$[ebp]
	add	edx, 4
	mov	DWORD PTR tv177[ebp], edx
	jmp	SHORT $LN24@freeBuffer
$LN23@freeBuffer:
	mov	DWORD PTR tv177[ebp], 0
$LN24@freeBuffer:
	mov	eax, DWORD PTR tv177[ebp]
	push	eax
	mov	ecx, DWORD PTR _this$[ebp]
	add	ecx, 16					; 00000010H
	call	?Remove@?$ChainList@VHardwareBuffer@Ogre@@@Ogre@@QAEPAVHardwareBuffer@2@PAVChainListNode@2@@Z ; Ogre::ChainList<Ogre::HardwareBuffer>::Remove

; 103  : 				delete pbuffer;

	mov	ecx, DWORD PTR _pbuffer$[ebp]
	mov	DWORD PTR $T63948[ebp], ecx
	mov	edx, DWORD PTR $T63948[ebp]
	mov	DWORD PTR $T63947[ebp], edx
	cmp	DWORD PTR $T63947[ebp], 0
	je	SHORT $LN25@freeBuffer
	push	1
	mov	eax, DWORD PTR $T63947[ebp]
	mov	edx, DWORD PTR [eax]
	mov	ecx, DWORD PTR $T63947[ebp]
	mov	eax, DWORD PTR [edx]
	call	eax
	mov	DWORD PTR tv185[ebp], eax
	jmp	SHORT $LN26@freeBuffer
$LN25@freeBuffer:
	mov	DWORD PTR tv185[ebp], 0
$LN26@freeBuffer:

; 104  : 				pbuffer = pprev;

	mov	ecx, DWORD PTR _pprev$[ebp]
	mov	DWORD PTR _pbuffer$[ebp], ecx
$LN4@freeBuffer:

; 105  : 			}
; 106  : 		}
; 107  : 		if( pcurbuf )//pbub can be changed to pprev

	cmp	DWORD PTR _pcurbuf$[ebp], 0
	je	$LN2@freeBuffer

; 108  : 		{
; 109  : 			assert( pbuffer->m_Start+pbuffer->m_BubSize <= pcurbuf->m_Start );
; 110  : 			if( pbuffer->m_Start+pbuffer->m_BubSize == pcurbuf->m_Start )

	mov	edx, DWORD PTR _pbuffer$[ebp]
	mov	eax, DWORD PTR [edx+16]
	mov	ecx, DWORD PTR _pbuffer$[ebp]
	add	eax, DWORD PTR [ecx+24]
	mov	edx, DWORD PTR _pcurbuf$[ebp]
	cmp	eax, DWORD PTR [edx+16]
	jne	SHORT $LN2@freeBuffer

; 111  : 			{
; 112  : 				pcurbuf->Set( pbuffer->m_Start, 0, pbuffer->m_BubSize+pcurbuf->m_BubSize );

	mov	eax, DWORD PTR _pbuffer$[ebp]
	mov	ecx, DWORD PTR [eax+24]
	mov	edx, DWORD PTR _pcurbuf$[ebp]
	add	ecx, DWORD PTR [edx+24]
	push	ecx
	push	0
	mov	eax, DWORD PTR _pbuffer$[ebp]
	mov	ecx, DWORD PTR [eax+16]
	push	ecx
	mov	ecx, DWORD PTR _pcurbuf$[ebp]
	call	?Set@HardwareBuffer@Ogre@@IAEXIII@Z	; Ogre::HardwareBuffer::Set

; 113  : 				m_FreeBuffers.Remove( pbuffer );

	cmp	DWORD PTR _pbuffer$[ebp], 0
	je	SHORT $LN27@freeBuffer
	mov	edx, DWORD PTR _pbuffer$[ebp]
	add	edx, 4
	mov	DWORD PTR tv207[ebp], edx
	jmp	SHORT $LN28@freeBuffer
$LN27@freeBuffer:
	mov	DWORD PTR tv207[ebp], 0
$LN28@freeBuffer:
	mov	eax, DWORD PTR tv207[ebp]
	push	eax
	mov	ecx, DWORD PTR _this$[ebp]
	add	ecx, 16					; 00000010H
	call	?Remove@?$ChainList@VHardwareBuffer@Ogre@@@Ogre@@QAEPAVHardwareBuffer@2@PAVChainListNode@2@@Z ; Ogre::ChainList<Ogre::HardwareBuffer>::Remove

; 114  : 				delete pbuffer;

	mov	ecx, DWORD PTR _pbuffer$[ebp]
	mov	DWORD PTR $T63954[ebp], ecx
	mov	edx, DWORD PTR $T63954[ebp]
	mov	DWORD PTR $T63953[ebp], edx
	cmp	DWORD PTR $T63953[ebp], 0
	je	SHORT $LN29@freeBuffer
	push	1
	mov	eax, DWORD PTR $T63953[ebp]
	mov	edx, DWORD PTR [eax]
	mov	ecx, DWORD PTR $T63953[ebp]
	mov	eax, DWORD PTR [edx]
	call	eax
	mov	DWORD PTR tv215[ebp], eax
	jmp	SHORT $LN2@freeBuffer
$LN29@freeBuffer:
	mov	DWORD PTR tv215[ebp], 0
$LN2@freeBuffer:

; 115  : 			}
; 116  : 		}
; 117  : 	}

	mov	DWORD PTR __$EHRec$[ebp+8], -1
	lea	ecx, DWORD PTR _mymutex$[ebp]
	call	??1LockFunctor@Ogre@@QAE@XZ		; Ogre::LockFunctor::~LockFunctor
$LN11@freeBuffer:
	mov	ecx, DWORD PTR __$EHRec$[ebp]
	mov	DWORD PTR fs:0, ecx
	pop	ecx
	mov	esp, ebp
	pop	ebp
	ret	4
_TEXT	ENDS
text$x	SEGMENT
__unwindfunclet$?freeBuffer@HardwareBufferPool@Ogre@@QAEXPAVHardwareBuffer@2@@Z$0:
	lea	ecx, DWORD PTR _mymutex$[ebp]
	jmp	??1LockFunctor@Ogre@@QAE@XZ		; Ogre::LockFunctor::~LockFunctor
__ehhandler$?freeBuffer@HardwareBufferPool@Ogre@@QAEXPAVHardwareBuffer@2@@Z:
	mov	edx, DWORD PTR [esp+8]
	lea	eax, DWORD PTR [edx+12]
	mov	ecx, DWORD PTR [edx-72]
	xor	ecx, eax
	call	@__security_check_cookie@4
	mov	eax, OFFSET __ehfuncinfo$?freeBuffer@HardwareBufferPool@Ogre@@QAEXPAVHardwareBuffer@2@@Z
	jmp	___CxxFrameHandler3
text$x	ENDS
?freeBuffer@HardwareBufferPool@Ogre@@QAEXPAVHardwareBuffer@2@@Z ENDP ; Ogre::HardwareBufferPool::freeBuffer
; Function compile flags: /Odtp
_TEXT	SEGMENT
tv155 = -40						; size = 4
tv147 = -36						; size = 4
tv129 = -32						; size = 4
tv79 = -28						; size = 4
_this$ = -24						; size = 4
_pnewbub$57950 = -20					; size = 4
_diff$57945 = -16					; size = 4
_bestbub$ = -12						; size = 4
_pbub$ = -8						; size = 4
_mindiff$ = -4						; size = 4
_nbytes$ = 8						; size = 4
?allocRandomBuffer@HardwareBufferPool@Ogre@@AAEPAVHardwareBuffer@2@I@Z PROC ; Ogre::HardwareBufferPool::allocRandomBuffer
; _this$ = ecx

; 120  : 	{

	push	ebp
	mov	ebp, esp
	sub	esp, 40					; 00000028H
	mov	DWORD PTR _this$[ebp], ecx

; 121  : 		int mindiff = MAX_INT;

	mov	DWORD PTR _mindiff$[ebp], 2147483647	; 7fffffffH

; 122  : 		HardwareBuffer *bestbub = NULL;

	mov	DWORD PTR _bestbub$[ebp], 0

; 123  : 
; 124  : 		HardwareBuffer *pbub = m_FreeBuffers.BeginIterate();

	mov	ecx, DWORD PTR _this$[ebp]
	add	ecx, 16					; 00000010H
	call	?BeginIterate@?$ChainList@VHardwareBuffer@Ogre@@@Ogre@@QAEPAVHardwareBuffer@2@XZ ; Ogre::ChainList<Ogre::HardwareBuffer>::BeginIterate
	mov	DWORD PTR _pbub$[ebp], eax
$LN7@allocRando:

; 125  : 		while( pbub )

	cmp	DWORD PTR _pbub$[ebp], 0
	je	SHORT $LN6@allocRando

; 126  : 		{
; 127  : 			int diff = int(pbub->m_BubSize - nbytes);

	mov	eax, DWORD PTR _pbub$[ebp]
	mov	ecx, DWORD PTR [eax+24]
	sub	ecx, DWORD PTR _nbytes$[ebp]
	mov	DWORD PTR _diff$57945[ebp], ecx

; 128  : 			if( diff >= 0 ) 

	js	SHORT $LN5@allocRando

; 129  : 			{
; 130  : 				if( mindiff > diff )

	mov	edx, DWORD PTR _mindiff$[ebp]
	cmp	edx, DWORD PTR _diff$57945[ebp]
	jle	SHORT $LN5@allocRando

; 131  : 				{
; 132  : 					bestbub = pbub;

	mov	eax, DWORD PTR _pbub$[ebp]
	mov	DWORD PTR _bestbub$[ebp], eax

; 133  : 					mindiff = diff;

	mov	ecx, DWORD PTR _diff$57945[ebp]
	mov	DWORD PTR _mindiff$[ebp], ecx
$LN5@allocRando:

; 134  : 				}
; 135  : 			}
; 136  : 			pbub = m_FreeBuffers.Iterate(pbub);

	cmp	DWORD PTR _pbub$[ebp], 0
	je	SHORT $LN10@allocRando
	mov	edx, DWORD PTR _pbub$[ebp]
	add	edx, 4
	mov	DWORD PTR tv79[ebp], edx
	jmp	SHORT $LN11@allocRando
$LN10@allocRando:
	mov	DWORD PTR tv79[ebp], 0
$LN11@allocRando:
	mov	eax, DWORD PTR tv79[ebp]
	push	eax
	mov	ecx, DWORD PTR _this$[ebp]
	add	ecx, 16					; 00000010H
	call	?Iterate@?$ChainList@VHardwareBuffer@Ogre@@@Ogre@@QAEPAVHardwareBuffer@2@PAVChainListNode@2@@Z ; Ogre::ChainList<Ogre::HardwareBuffer>::Iterate
	mov	DWORD PTR _pbub$[ebp], eax

; 137  : 		}

	jmp	SHORT $LN7@allocRando
$LN6@allocRando:

; 138  : 
; 139  : 		if( !bestbub ) return NULL;

	cmp	DWORD PTR _bestbub$[ebp], 0
	jne	SHORT $LN3@allocRando
	xor	eax, eax
	jmp	$LN8@allocRando
$LN3@allocRando:

; 140  : 
; 141  : 		if( mindiff >= 16 ) //split the free bub

	cmp	DWORD PTR _mindiff$[ebp], 16		; 00000010H
	jl	SHORT $LN2@allocRando

; 142  : 		{
; 143  : 			HardwareBuffer *pnewbub = newBuffer();

	mov	ecx, DWORD PTR _this$[ebp]
	call	?newBuffer@HardwareBufferPool@Ogre@@AAEPAVHardwareBuffer@2@XZ ; Ogre::HardwareBufferPool::newBuffer
	mov	DWORD PTR _pnewbub$57950[ebp], eax

; 144  : 			pnewbub->Set(bestbub->m_Start, nbytes, nbytes);

	mov	ecx, DWORD PTR _nbytes$[ebp]
	push	ecx
	mov	edx, DWORD PTR _nbytes$[ebp]
	push	edx
	mov	eax, DWORD PTR _bestbub$[ebp]
	mov	ecx, DWORD PTR [eax+16]
	push	ecx
	mov	ecx, DWORD PTR _pnewbub$57950[ebp]
	call	?Set@HardwareBuffer@Ogre@@IAEXIII@Z	; Ogre::HardwareBuffer::Set

; 145  : 			m_UsedBuffers.PushBack( pnewbub );

	cmp	DWORD PTR _pnewbub$57950[ebp], 0
	je	SHORT $LN12@allocRando
	mov	edx, DWORD PTR _pnewbub$57950[ebp]
	add	edx, 4
	mov	DWORD PTR tv129[ebp], edx
	jmp	SHORT $LN13@allocRando
$LN12@allocRando:
	mov	DWORD PTR tv129[ebp], 0
$LN13@allocRando:
	mov	eax, DWORD PTR tv129[ebp]
	push	eax
	mov	ecx, DWORD PTR _this$[ebp]
	add	ecx, 28					; 0000001cH
	call	?PushBack@?$ChainList@VHardwareBuffer@Ogre@@@Ogre@@QAEXPAVChainListNode@2@@Z ; Ogre::ChainList<Ogre::HardwareBuffer>::PushBack

; 146  : 
; 147  : 			bestbub->m_Start += nbytes;

	mov	ecx, DWORD PTR _bestbub$[ebp]
	mov	edx, DWORD PTR [ecx+16]
	add	edx, DWORD PTR _nbytes$[ebp]
	mov	eax, DWORD PTR _bestbub$[ebp]
	mov	DWORD PTR [eax+16], edx

; 148  : 			bestbub->m_BubSize -= nbytes;

	mov	ecx, DWORD PTR _bestbub$[ebp]
	mov	edx, DWORD PTR [ecx+24]
	sub	edx, DWORD PTR _nbytes$[ebp]
	mov	eax, DWORD PTR _bestbub$[ebp]
	mov	DWORD PTR [eax+24], edx

; 149  : 
; 150  : 			pnewbub->m_DataInvalid = true;

	mov	ecx, DWORD PTR _pnewbub$57950[ebp]
	mov	BYTE PTR [ecx+12], 1

; 151  : 			return pnewbub;

	mov	eax, DWORD PTR _pnewbub$57950[ebp]
	jmp	SHORT $LN8@allocRando

; 152  : 		}
; 153  : 		else

	jmp	SHORT $LN8@allocRando
$LN2@allocRando:

; 154  : 		{
; 155  : 			bestbub->m_Num = nbytes;

	mov	edx, DWORD PTR _bestbub$[ebp]
	mov	eax, DWORD PTR _nbytes$[ebp]
	mov	DWORD PTR [edx+20], eax

; 156  : 			m_FreeBuffers.Remove( bestbub );

	cmp	DWORD PTR _bestbub$[ebp], 0
	je	SHORT $LN14@allocRando
	mov	ecx, DWORD PTR _bestbub$[ebp]
	add	ecx, 4
	mov	DWORD PTR tv147[ebp], ecx
	jmp	SHORT $LN15@allocRando
$LN14@allocRando:
	mov	DWORD PTR tv147[ebp], 0
$LN15@allocRando:
	mov	edx, DWORD PTR tv147[ebp]
	push	edx
	mov	ecx, DWORD PTR _this$[ebp]
	add	ecx, 16					; 00000010H
	call	?Remove@?$ChainList@VHardwareBuffer@Ogre@@@Ogre@@QAEPAVHardwareBuffer@2@PAVChainListNode@2@@Z ; Ogre::ChainList<Ogre::HardwareBuffer>::Remove

; 157  : 			m_UsedBuffers.PushBack( bestbub );

	cmp	DWORD PTR _bestbub$[ebp], 0
	je	SHORT $LN16@allocRando
	mov	eax, DWORD PTR _bestbub$[ebp]
	add	eax, 4
	mov	DWORD PTR tv155[ebp], eax
	jmp	SHORT $LN17@allocRando
$LN16@allocRando:
	mov	DWORD PTR tv155[ebp], 0
$LN17@allocRando:
	mov	ecx, DWORD PTR tv155[ebp]
	push	ecx
	mov	ecx, DWORD PTR _this$[ebp]
	add	ecx, 28					; 0000001cH
	call	?PushBack@?$ChainList@VHardwareBuffer@Ogre@@@Ogre@@QAEXPAVChainListNode@2@@Z ; Ogre::ChainList<Ogre::HardwareBuffer>::PushBack

; 158  : 
; 159  : 			bestbub->m_DataInvalid = true;

	mov	edx, DWORD PTR _bestbub$[ebp]
	mov	BYTE PTR [edx+12], 1

; 160  : 			return bestbub;

	mov	eax, DWORD PTR _bestbub$[ebp]
$LN8@allocRando:

; 161  : 		}
; 162  : 	}

	mov	esp, ebp
	pop	ebp
	ret	4
?allocRandomBuffer@HardwareBufferPool@Ogre@@AAEPAVHardwareBuffer@2@I@Z ENDP ; Ogre::HardwareBufferPool::allocRandomBuffer
; Function compile flags: /Odtp
_this$ = -8						; size = 4
_curpos$ = -4						; size = 4
_nbytes$ = 8						; size = 4
?allocAccumBuffer@HardwareBufferPool@Ogre@@AAEPAVHardwareBuffer@2@I@Z PROC ; Ogre::HardwareBufferPool::allocAccumBuffer
; _this$ = ecx

; 165  : 	{

	push	ebp
	mov	ebp, esp
	sub	esp, 8
	mov	DWORD PTR _this$[ebp], ecx

; 166  : 		if(nbytes > m_PoolSize)

	mov	eax, DWORD PTR _this$[ebp]
	mov	ecx, DWORD PTR _nbytes$[ebp]
	cmp	ecx, DWORD PTR [eax+12]
	jbe	SHORT $LN3@allocAccum

; 167  : 		{
; 168  : 			return NULL;

	xor	eax, eax
	jmp	SHORT $LN4@allocAccum
$LN3@allocAccum:

; 169  : 		}
; 170  : 
; 171  : 		size_t curpos = m_pDynBuffer->m_Start+m_pDynBuffer->m_Num;

	mov	edx, DWORD PTR _this$[ebp]
	mov	eax, DWORD PTR [edx+8]
	mov	ecx, DWORD PTR _this$[ebp]
	mov	edx, DWORD PTR [ecx+8]
	mov	eax, DWORD PTR [eax+16]
	add	eax, DWORD PTR [edx+20]
	mov	DWORD PTR _curpos$[ebp], eax

; 172  : 		if( curpos+nbytes <= m_PoolSize)

	mov	ecx, DWORD PTR _curpos$[ebp]
	add	ecx, DWORD PTR _nbytes$[ebp]
	mov	edx, DWORD PTR _this$[ebp]
	cmp	ecx, DWORD PTR [edx+12]
	ja	SHORT $LN2@allocAccum

; 173  : 		{
; 174  : 			m_pDynBuffer->Set( curpos, nbytes, nbytes );

	mov	eax, DWORD PTR _nbytes$[ebp]
	push	eax
	mov	ecx, DWORD PTR _nbytes$[ebp]
	push	ecx
	mov	edx, DWORD PTR _curpos$[ebp]
	push	edx
	mov	eax, DWORD PTR _this$[ebp]
	mov	ecx, DWORD PTR [eax+8]
	call	?Set@HardwareBuffer@Ogre@@IAEXIII@Z	; Ogre::HardwareBuffer::Set

; 175  : 		}
; 176  : 		else

	jmp	SHORT $LN1@allocAccum
$LN2@allocAccum:

; 177  : 		{
; 178  : 			m_pDynBuffer->Set( 0, nbytes, nbytes );

	mov	ecx, DWORD PTR _nbytes$[ebp]
	push	ecx
	mov	edx, DWORD PTR _nbytes$[ebp]
	push	edx
	push	0
	mov	eax, DWORD PTR _this$[ebp]
	mov	ecx, DWORD PTR [eax+8]
	call	?Set@HardwareBuffer@Ogre@@IAEXIII@Z	; Ogre::HardwareBuffer::Set
$LN1@allocAccum:

; 179  : 		}
; 180  : 		return m_pDynBuffer;

	mov	ecx, DWORD PTR _this$[ebp]
	mov	eax, DWORD PTR [ecx+8]
$LN4@allocAccum:

; 181  : 	}

	mov	esp, ebp
	pop	ebp
	ret	4
?allocAccumBuffer@HardwareBufferPool@Ogre@@AAEPAVHardwareBuffer@2@I@Z ENDP ; Ogre::HardwareBufferPool::allocAccumBuffer
_TEXT	ENDS
EXTRN	??2@YAPAXI@Z:PROC				; operator new
xdata$x	SEGMENT
__unwindtable$?newBuffer@HardwareBufferPool@Ogre@@AAEPAVHardwareBuffer@2@XZ DD 0ffffffffH
	DD	FLAT:__unwindfunclet$?newBuffer@HardwareBufferPool@Ogre@@AAEPAVHardwareBuffer@2@XZ$0
	DD	0ffffffffH
	DD	FLAT:__unwindfunclet$?newBuffer@HardwareBufferPool@Ogre@@AAEPAVHardwareBuffer@2@XZ$1
__ehfuncinfo$?newBuffer@HardwareBufferPool@Ogre@@AAEPAVHardwareBuffer@2@XZ DD 019930522H
	DD	02H
	DD	FLAT:__unwindtable$?newBuffer@HardwareBufferPool@Ogre@@AAEPAVHardwareBuffer@2@XZ
	DD	2 DUP(00H)
	DD	2 DUP(00H)
	DD	00H
	DD	00H
; Function compile flags: /Odtp
xdata$x	ENDS
_TEXT	SEGMENT
tv90 = -40						; size = 4
tv78 = -36						; size = 4
_this$ = -32						; size = 4
$T63978 = -28						; size = 4
$T63977 = -24						; size = 4
$T63974 = -20						; size = 4
$T63973 = -16						; size = 4
__$EHRec$ = -12						; size = 12
?newBuffer@HardwareBufferPool@Ogre@@AAEPAVHardwareBuffer@2@XZ PROC ; Ogre::HardwareBufferPool::newBuffer
; _this$ = ecx

; 184  : 	{

	push	ebp
	mov	ebp, esp
	push	-1
	push	__ehhandler$?newBuffer@HardwareBufferPool@Ogre@@AAEPAVHardwareBuffer@2@XZ
	mov	eax, DWORD PTR fs:0
	push	eax
	sub	esp, 28					; 0000001cH
	mov	eax, DWORD PTR ___security_cookie
	xor	eax, ebp
	push	eax
	lea	eax, DWORD PTR __$EHRec$[ebp]
	mov	DWORD PTR fs:0, eax
	mov	DWORD PTR _this$[ebp], ecx

; 185  : 		if(m_bVertexBuffer) return new HardwareVertexBuffer(this);

	mov	eax, DWORD PTR _this$[ebp]
	movzx	ecx, BYTE PTR [eax+5]
	test	ecx, ecx
	je	SHORT $LN2@newBuffer
	push	36					; 00000024H
	call	??2@YAPAXI@Z				; operator new
	add	esp, 4
	mov	DWORD PTR $T63974[ebp], eax
	mov	DWORD PTR __$EHRec$[ebp+8], 0
	cmp	DWORD PTR $T63974[ebp], 0
	je	SHORT $LN5@newBuffer
	mov	edx, DWORD PTR _this$[ebp]
	push	edx
	mov	ecx, DWORD PTR $T63974[ebp]
	call	??0HardwareVertexBuffer@Ogre@@QAE@PAVHardwareBufferPool@1@@Z ; Ogre::HardwareVertexBuffer::HardwareVertexBuffer
	mov	DWORD PTR tv78[ebp], eax
	jmp	SHORT $LN6@newBuffer
$LN5@newBuffer:
	mov	DWORD PTR tv78[ebp], 0
$LN6@newBuffer:
	mov	eax, DWORD PTR tv78[ebp]
	mov	DWORD PTR $T63973[ebp], eax
	mov	DWORD PTR __$EHRec$[ebp+8], -1
	mov	eax, DWORD PTR $T63973[ebp]
	jmp	SHORT $LN3@newBuffer
	jmp	SHORT $LN3@newBuffer
$LN2@newBuffer:

; 186  : 		else return new HardwareIndexBuffer(this);

	push	32					; 00000020H
	call	??2@YAPAXI@Z				; operator new
	add	esp, 4
	mov	DWORD PTR $T63978[ebp], eax
	mov	DWORD PTR __$EHRec$[ebp+8], 1
	cmp	DWORD PTR $T63978[ebp], 0
	je	SHORT $LN7@newBuffer
	mov	ecx, DWORD PTR _this$[ebp]
	push	ecx
	mov	ecx, DWORD PTR $T63978[ebp]
	call	??0HardwareIndexBuffer@Ogre@@QAE@PAVHardwareBufferPool@1@@Z ; Ogre::HardwareIndexBuffer::HardwareIndexBuffer
	mov	DWORD PTR tv90[ebp], eax
	jmp	SHORT $LN8@newBuffer
$LN7@newBuffer:
	mov	DWORD PTR tv90[ebp], 0
$LN8@newBuffer:
	mov	edx, DWORD PTR tv90[ebp]
	mov	DWORD PTR $T63977[ebp], edx
	mov	DWORD PTR __$EHRec$[ebp+8], -1
	mov	eax, DWORD PTR $T63977[ebp]
$LN3@newBuffer:

; 187  : 	}

	mov	ecx, DWORD PTR __$EHRec$[ebp]
	mov	DWORD PTR fs:0, ecx
	pop	ecx
	mov	esp, ebp
	pop	ebp
	ret	0
_TEXT	ENDS
text$x	SEGMENT
__unwindfunclet$?newBuffer@HardwareBufferPool@Ogre@@AAEPAVHardwareBuffer@2@XZ$0:
	mov	eax, DWORD PTR $T63974[ebp]
	push	eax
	call	??3@YAXPAX@Z				; operator delete
	pop	ecx
	ret	0
__unwindfunclet$?newBuffer@HardwareBufferPool@Ogre@@AAEPAVHardwareBuffer@2@XZ$1:
	mov	eax, DWORD PTR $T63978[ebp]
	push	eax
	call	??3@YAXPAX@Z				; operator delete
	pop	ecx
	ret	0
__ehhandler$?newBuffer@HardwareBufferPool@Ogre@@AAEPAVHardwareBuffer@2@XZ:
	mov	edx, DWORD PTR [esp+8]
	lea	eax, DWORD PTR [edx+12]
	mov	ecx, DWORD PTR [edx-32]
	xor	ecx, eax
	call	@__security_check_cookie@4
	mov	eax, OFFSET __ehfuncinfo$?newBuffer@HardwareBufferPool@Ogre@@AAEPAVHardwareBuffer@2@XZ
	jmp	___CxxFrameHandler3
text$x	ENDS
?newBuffer@HardwareBufferPool@Ogre@@AAEPAVHardwareBuffer@2@XZ ENDP ; Ogre::HardwareBufferPool::newBuffer
PUBLIC	??0?$map@IPAVHardwareBufferPool@Ogre@@U?$less@I@std@@V?$allocator@U?$pair@$$CBIPAVHardwareBufferPool@Ogre@@@std@@@4@@std@@QAE@XZ ; std::map<unsigned int,Ogre::HardwareBufferPool *,std::less<unsigned int>,std::allocator<std::pair<unsigned int const ,Ogre::HardwareBufferPool *> > >::map<unsigned int,Ogre::HardwareBufferPool *,std::less<unsigned int>,std::allocator<std::pair<unsigned int const ,Ogre::HardwareBufferPool *> > >
PUBLIC	??0?$Singleton@VHardwareBufferManager@Ogre@@@Ogre@@QAE@XZ ; Ogre::Singleton<Ogre::HardwareBufferManager>::Singleton<Ogre::HardwareBufferManager>
PUBLIC	??0HardwareBufferManager@Ogre@@QAE@XZ		; Ogre::HardwareBufferManager::HardwareBufferManager
xdata$x	SEGMENT
__unwindtable$??0HardwareBufferManager@Ogre@@QAE@XZ DD 0ffffffffH
	DD	FLAT:__unwindfunclet$??0HardwareBufferManager@Ogre@@QAE@XZ$0
	DD	00H
	DD	FLAT:__unwindfunclet$??0HardwareBufferManager@Ogre@@QAE@XZ$1
__ehfuncinfo$??0HardwareBufferManager@Ogre@@QAE@XZ DD 019930522H
	DD	02H
	DD	FLAT:__unwindtable$??0HardwareBufferManager@Ogre@@QAE@XZ
	DD	2 DUP(00H)
	DD	2 DUP(00H)
	DD	00H
	DD	00H
; Function compile flags: /Odtp
xdata$x	ENDS
_TEXT	SEGMENT
_this$ = -16						; size = 4
__$EHRec$ = -12						; size = 12
??0HardwareBufferManager@Ogre@@QAE@XZ PROC		; Ogre::HardwareBufferManager::HardwareBufferManager
; _this$ = ecx

; 191  : 	{

	push	ebp
	mov	ebp, esp
	push	-1
	push	__ehhandler$??0HardwareBufferManager@Ogre@@QAE@XZ
	mov	eax, DWORD PTR fs:0
	push	eax
	push	ecx
	mov	eax, DWORD PTR ___security_cookie
	xor	eax, ebp
	push	eax
	lea	eax, DWORD PTR __$EHRec$[ebp]
	mov	DWORD PTR fs:0, eax
	mov	DWORD PTR _this$[ebp], ecx
	mov	ecx, DWORD PTR _this$[ebp]
	add	ecx, 4
	call	??0?$Singleton@VHardwareBufferManager@Ogre@@@Ogre@@QAE@XZ ; Ogre::Singleton<Ogre::HardwareBufferManager>::Singleton<Ogre::HardwareBufferManager>
	mov	DWORD PTR __$EHRec$[ebp+8], 0
	mov	eax, DWORD PTR _this$[ebp]
	mov	DWORD PTR [eax], OFFSET ??_7HardwareBufferManager@Ogre@@6B@
	mov	ecx, DWORD PTR _this$[ebp]
	add	ecx, 4
	call	??0?$map@IPAVHardwareBufferPool@Ogre@@U?$less@I@std@@V?$allocator@U?$pair@$$CBIPAVHardwareBufferPool@Ogre@@@std@@@4@@std@@QAE@XZ ; std::map<unsigned int,Ogre::HardwareBufferPool *,std::less<unsigned int>,std::allocator<std::pair<unsigned int const ,Ogre::HardwareBufferPool *> > >::map<unsigned int,Ogre::HardwareBufferPool *,std::less<unsigned int>,std::allocator<std::pair<unsigned int const ,Ogre::HardwareBufferPool *> > >
	mov	BYTE PTR __$EHRec$[ebp+8], 1

; 192  : 	}

	mov	DWORD PTR __$EHRec$[ebp+8], -1
	mov	eax, DWORD PTR _this$[ebp]
	mov	ecx, DWORD PTR __$EHRec$[ebp]
	mov	DWORD PTR fs:0, ecx
	pop	ecx
	mov	esp, ebp
	pop	ebp
	ret	0
_TEXT	ENDS
text$x	SEGMENT
__unwindfunclet$??0HardwareBufferManager@Ogre@@QAE@XZ$0:
	mov	ecx, DWORD PTR _this$[ebp]
	add	ecx, 4
	jmp	??1?$Singleton@VHardwareBufferManager@Ogre@@@Ogre@@QAE@XZ ; Ogre::Singleton<Ogre::HardwareBufferManager>::~Singleton<Ogre::HardwareBufferManager>
__unwindfunclet$??0HardwareBufferManager@Ogre@@QAE@XZ$1:
	mov	ecx, DWORD PTR _this$[ebp]
	add	ecx, 4
	jmp	??1?$map@IPAVHardwareBufferPool@Ogre@@U?$less@I@std@@V?$allocator@U?$pair@$$CBIPAVHardwareBufferPool@Ogre@@@std@@@4@@std@@QAE@XZ
__ehhandler$??0HardwareBufferManager@Ogre@@QAE@XZ:
	mov	edx, DWORD PTR [esp+8]
	lea	eax, DWORD PTR [edx+12]
	mov	ecx, DWORD PTR [edx-8]
	xor	ecx, eax
	call	@__security_check_cookie@4
	mov	eax, OFFSET __ehfuncinfo$??0HardwareBufferManager@Ogre@@QAE@XZ
	jmp	___CxxFrameHandler3
text$x	ENDS
??0HardwareBufferManager@Ogre@@QAE@XZ ENDP		; Ogre::HardwareBufferManager::HardwareBufferManager
PUBLIC	??Citerator@?$_Tree@V?$_Tmap_traits@IPAVHardwareBufferPool@Ogre@@U?$less@I@std@@V?$allocator@U?$pair@$$CBIPAVHardwareBufferPool@Ogre@@@std@@@4@$0A@@std@@@std@@QBEPAU?$pair@$$CBIPAVHardwareBufferPool@Ogre@@@2@XZ ; std::_Tree<std::_Tmap_traits<unsigned int,Ogre::HardwareBufferPool *,std::less<unsigned int>,std::allocator<std::pair<unsigned int const ,Ogre::HardwareBufferPool *> >,0> >::iterator::operator->
PUBLIC	??9const_iterator@?$_Tree@V?$_Tmap_traits@IPAVHardwareBufferPool@Ogre@@U?$less@I@std@@V?$allocator@U?$pair@$$CBIPAVHardwareBufferPool@Ogre@@@std@@@4@$0A@@std@@@std@@QBE_NABV012@@Z ; std::_Tree<std::_Tmap_traits<unsigned int,Ogre::HardwareBufferPool *,std::less<unsigned int>,std::allocator<std::pair<unsigned int const ,Ogre::HardwareBufferPool *> >,0> >::const_iterator::operator!=
PUBLIC	?end@?$_Tree@V?$_Tmap_traits@IPAVHardwareBufferPool@Ogre@@U?$less@I@std@@V?$allocator@U?$pair@$$CBIPAVHardwareBufferPool@Ogre@@@std@@@4@$0A@@std@@@std@@QAE?AViterator@12@XZ ; std::_Tree<std::_Tmap_traits<unsigned int,Ogre::HardwareBufferPool *,std::less<unsigned int>,std::allocator<std::pair<unsigned int const ,Ogre::HardwareBufferPool *> >,0> >::end
PUBLIC	??Eiterator@?$_Tree@V?$_Tmap_traits@IPAVHardwareBufferPool@Ogre@@U?$less@I@std@@V?$allocator@U?$pair@$$CBIPAVHardwareBufferPool@Ogre@@@std@@@4@$0A@@std@@@std@@QAE?AV012@H@Z ; std::_Tree<std::_Tmap_traits<unsigned int,Ogre::HardwareBufferPool *,std::less<unsigned int>,std::allocator<std::pair<unsigned int const ,Ogre::HardwareBufferPool *> >,0> >::iterator::operator++
PUBLIC	?begin@?$_Tree@V?$_Tmap_traits@IPAVHardwareBufferPool@Ogre@@U?$less@I@std@@V?$allocator@U?$pair@$$CBIPAVHardwareBufferPool@Ogre@@@std@@@4@$0A@@std@@@std@@QAE?AViterator@12@XZ ; std::_Tree<std::_Tmap_traits<unsigned int,Ogre::HardwareBufferPool *,std::less<unsigned int>,std::allocator<std::pair<unsigned int const ,Ogre::HardwareBufferPool *> >,0> >::begin
xdata$x	SEGMENT
__unwindtable$??1HardwareBufferManager@Ogre@@UAE@XZ DD 0ffffffffH
	DD	FLAT:__unwindfunclet$??1HardwareBufferManager@Ogre@@UAE@XZ$0
	DD	00H
	DD	FLAT:__unwindfunclet$??1HardwareBufferManager@Ogre@@UAE@XZ$1
__ehfuncinfo$??1HardwareBufferManager@Ogre@@UAE@XZ DD 019930522H
	DD	02H
	DD	FLAT:__unwindtable$??1HardwareBufferManager@Ogre@@UAE@XZ
	DD	2 DUP(00H)
	DD	2 DUP(00H)
	DD	00H
	DD	00H
; Function compile flags: /Odtp
xdata$x	ENDS
_TEXT	SEGMENT
tv145 = -60						; size = 4
_this$ = -56						; size = 4
$T63998 = -52						; size = 4
$T63997 = -48						; size = 4
$T63996 = -44						; size = 8
$T63995 = -36						; size = 8
_pnext$58111 = -28					; size = 4
_pool$58083 = -24					; size = 4
_iter$ = -20						; size = 8
__$EHRec$ = -12						; size = 12
??1HardwareBufferManager@Ogre@@UAE@XZ PROC		; Ogre::HardwareBufferManager::~HardwareBufferManager
; _this$ = ecx

; 195  : 	{

	push	ebp
	mov	ebp, esp
	push	-1
	push	__ehhandler$??1HardwareBufferManager@Ogre@@UAE@XZ
	mov	eax, DWORD PTR fs:0
	push	eax
	sub	esp, 48					; 00000030H
	mov	eax, DWORD PTR ___security_cookie
	xor	eax, ebp
	push	eax
	lea	eax, DWORD PTR __$EHRec$[ebp]
	mov	DWORD PTR fs:0, eax
	mov	DWORD PTR _this$[ebp], ecx
	mov	eax, DWORD PTR _this$[ebp]
	mov	DWORD PTR [eax], OFFSET ??_7HardwareBufferManager@Ogre@@6B@
	mov	DWORD PTR __$EHRec$[ebp+8], 1

; 196  : 		PoolTableIter iter = m_Pools.begin();

	lea	ecx, DWORD PTR _iter$[ebp]
	push	ecx
	mov	ecx, DWORD PTR _this$[ebp]
	add	ecx, 4
	call	?begin@?$_Tree@V?$_Tmap_traits@IPAVHardwareBufferPool@Ogre@@U?$less@I@std@@V?$allocator@U?$pair@$$CBIPAVHardwareBufferPool@Ogre@@@std@@@4@$0A@@std@@@std@@QAE?AViterator@12@XZ ; std::_Tree<std::_Tmap_traits<unsigned int,Ogre::HardwareBufferPool *,std::less<unsigned int>,std::allocator<std::pair<unsigned int const ,Ogre::HardwareBufferPool *> >,0> >::begin
	jmp	SHORT $LN5@HardwareBu@4
$LN4@HardwareBu@4:

; 197  : 		for(; iter!=m_Pools.end(); iter++)

	push	0
	lea	edx, DWORD PTR $T63995[ebp]
	push	edx
	lea	ecx, DWORD PTR _iter$[ebp]
	call	??Eiterator@?$_Tree@V?$_Tmap_traits@IPAVHardwareBufferPool@Ogre@@U?$less@I@std@@V?$allocator@U?$pair@$$CBIPAVHardwareBufferPool@Ogre@@@std@@@4@$0A@@std@@@std@@QAE?AV012@H@Z ; std::_Tree<std::_Tmap_traits<unsigned int,Ogre::HardwareBufferPool *,std::less<unsigned int>,std::allocator<std::pair<unsigned int const ,Ogre::HardwareBufferPool *> >,0> >::iterator::operator++
$LN5@HardwareBu@4:
	lea	eax, DWORD PTR $T63996[ebp]
	push	eax
	mov	ecx, DWORD PTR _this$[ebp]
	add	ecx, 4
	call	?end@?$_Tree@V?$_Tmap_traits@IPAVHardwareBufferPool@Ogre@@U?$less@I@std@@V?$allocator@U?$pair@$$CBIPAVHardwareBufferPool@Ogre@@@std@@@4@$0A@@std@@@std@@QAE?AViterator@12@XZ ; std::_Tree<std::_Tmap_traits<unsigned int,Ogre::HardwareBufferPool *,std::less<unsigned int>,std::allocator<std::pair<unsigned int const ,Ogre::HardwareBufferPool *> >,0> >::end
	push	eax
	lea	ecx, DWORD PTR _iter$[ebp]
	call	??9const_iterator@?$_Tree@V?$_Tmap_traits@IPAVHardwareBufferPool@Ogre@@U?$less@I@std@@V?$allocator@U?$pair@$$CBIPAVHardwareBufferPool@Ogre@@@std@@@4@$0A@@std@@@std@@QBE_NABV012@@Z ; std::_Tree<std::_Tmap_traits<unsigned int,Ogre::HardwareBufferPool *,std::less<unsigned int>,std::allocator<std::pair<unsigned int const ,Ogre::HardwareBufferPool *> >,0> >::const_iterator::operator!=
	movzx	ecx, al
	test	ecx, ecx
	je	SHORT $LN6@HardwareBu@4

; 198  : 		{
; 199  : 			HardwareBufferPool *pool = iter->second;

	lea	ecx, DWORD PTR _iter$[ebp]
	call	??Citerator@?$_Tree@V?$_Tmap_traits@IPAVHardwareBufferPool@Ogre@@U?$less@I@std@@V?$allocator@U?$pair@$$CBIPAVHardwareBufferPool@Ogre@@@std@@@4@$0A@@std@@@std@@QBEPAU?$pair@$$CBIPAVHardwareBufferPool@Ogre@@@2@XZ ; std::_Tree<std::_Tmap_traits<unsigned int,Ogre::HardwareBufferPool *,std::less<unsigned int>,std::allocator<std::pair<unsigned int const ,Ogre::HardwareBufferPool *> >,0> >::iterator::operator->
	mov	edx, DWORD PTR [eax+4]
	mov	DWORD PTR _pool$58083[ebp], edx
$LN2@HardwareBu@4:

; 200  : 			while(pool != NULL)

	cmp	DWORD PTR _pool$58083[ebp], 0
	je	SHORT $LN1@HardwareBu@4

; 201  : 			{
; 202  : 				HardwareBufferPool *pnext = pool->m_pNextPool;

	mov	eax, DWORD PTR _pool$58083[ebp]
	mov	ecx, DWORD PTR [eax+40]
	mov	DWORD PTR _pnext$58111[ebp], ecx

; 203  : 				delete pool;

	mov	edx, DWORD PTR _pool$58083[ebp]
	mov	DWORD PTR $T63998[ebp], edx
	mov	eax, DWORD PTR $T63998[ebp]
	mov	DWORD PTR $T63997[ebp], eax
	cmp	DWORD PTR $T63997[ebp], 0
	je	SHORT $LN8@HardwareBu@4
	push	1
	mov	ecx, DWORD PTR $T63997[ebp]
	mov	edx, DWORD PTR [ecx]
	mov	ecx, DWORD PTR $T63997[ebp]
	mov	eax, DWORD PTR [edx]
	call	eax
	mov	DWORD PTR tv145[ebp], eax
	jmp	SHORT $LN9@HardwareBu@4
$LN8@HardwareBu@4:
	mov	DWORD PTR tv145[ebp], 0
$LN9@HardwareBu@4:

; 204  : 				pool = pnext;

	mov	ecx, DWORD PTR _pnext$58111[ebp]
	mov	DWORD PTR _pool$58083[ebp], ecx

; 205  : 			}

	jmp	SHORT $LN2@HardwareBu@4
$LN1@HardwareBu@4:

; 206  : 		}

	jmp	SHORT $LN4@HardwareBu@4
$LN6@HardwareBu@4:

; 207  : 	}

	mov	BYTE PTR __$EHRec$[ebp+8], 0
	mov	ecx, DWORD PTR _this$[ebp]
	add	ecx, 4
	call	??1?$map@IPAVHardwareBufferPool@Ogre@@U?$less@I@std@@V?$allocator@U?$pair@$$CBIPAVHardwareBufferPool@Ogre@@@std@@@4@@std@@QAE@XZ
	mov	DWORD PTR __$EHRec$[ebp+8], -1
	mov	ecx, DWORD PTR _this$[ebp]
	add	ecx, 4
	call	??1?$Singleton@VHardwareBufferManager@Ogre@@@Ogre@@QAE@XZ ; Ogre::Singleton<Ogre::HardwareBufferManager>::~Singleton<Ogre::HardwareBufferManager>
	mov	ecx, DWORD PTR __$EHRec$[ebp]
	mov	DWORD PTR fs:0, ecx
	pop	ecx
	mov	esp, ebp
	pop	ebp
	ret	0
_TEXT	ENDS
text$x	SEGMENT
__unwindfunclet$??1HardwareBufferManager@Ogre@@UAE@XZ$0:
	mov	ecx, DWORD PTR _this$[ebp]
	add	ecx, 4
	jmp	??1?$Singleton@VHardwareBufferManager@Ogre@@@Ogre@@QAE@XZ ; Ogre::Singleton<Ogre::HardwareBufferManager>::~Singleton<Ogre::HardwareBufferManager>
__unwindfunclet$??1HardwareBufferManager@Ogre@@UAE@XZ$1:
	mov	ecx, DWORD PTR _this$[ebp]
	add	ecx, 4
	jmp	??1?$map@IPAVHardwareBufferPool@Ogre@@U?$less@I@std@@V?$allocator@U?$pair@$$CBIPAVHardwareBufferPool@Ogre@@@std@@@4@@std@@QAE@XZ
__ehhandler$??1HardwareBufferManager@Ogre@@UAE@XZ:
	mov	edx, DWORD PTR [esp+8]
	lea	eax, DWORD PTR [edx+12]
	mov	ecx, DWORD PTR [edx-52]
	xor	ecx, eax
	call	@__security_check_cookie@4
	mov	eax, OFFSET __ehfuncinfo$??1HardwareBufferManager@Ogre@@UAE@XZ
	jmp	___CxxFrameHandler3
text$x	ENDS
??1HardwareBufferManager@Ogre@@UAE@XZ ENDP		; Ogre::HardwareBufferManager::~HardwareBufferManager
PUBLIC	?createVertexOrIndexBuffer@HardwareBufferManager@Ogre@@AAEPAVHardwareBuffer@2@_NW4HardwareBufferUsage@2@II@Z ; Ogre::HardwareBufferManager::createVertexOrIndexBuffer
PUBLIC	?createVertexBuffer@HardwareBufferManager@Ogre@@QAEPAVHardwareVertexBuffer@2@W4HardwareBufferUsage@2@II@Z ; Ogre::HardwareBufferManager::createVertexBuffer
; Function compile flags: /Odtp
_TEXT	SEGMENT
_this$ = -8						; size = 4
_pbuf$ = -4						; size = 4
_usage$ = 8						; size = 4
_nbytes$ = 12						; size = 4
_stride$ = 16						; size = 4
?createVertexBuffer@HardwareBufferManager@Ogre@@QAEPAVHardwareVertexBuffer@2@W4HardwareBufferUsage@2@II@Z PROC ; Ogre::HardwareBufferManager::createVertexBuffer
; _this$ = ecx

; 210  : 	{

	push	ebp
	mov	ebp, esp
	sub	esp, 8
	mov	DWORD PTR _this$[ebp], ecx

; 211  : 		HardwareBuffer *pbuf = createVertexOrIndexBuffer(true, usage, nbytes, 0);

	push	0
	mov	eax, DWORD PTR _nbytes$[ebp]
	push	eax
	mov	ecx, DWORD PTR _usage$[ebp]
	push	ecx
	push	1
	mov	ecx, DWORD PTR _this$[ebp]
	call	?createVertexOrIndexBuffer@HardwareBufferManager@Ogre@@AAEPAVHardwareBuffer@2@_NW4HardwareBufferUsage@2@II@Z ; Ogre::HardwareBufferManager::createVertexOrIndexBuffer
	mov	DWORD PTR _pbuf$[ebp], eax

; 212  : 		if(pbuf != NULL) static_cast<HardwareVertexBuffer *>(pbuf)->setStride(stride);

	cmp	DWORD PTR _pbuf$[ebp], 0
	je	SHORT $LN1@createVert
	mov	edx, DWORD PTR _stride$[ebp]
	push	edx
	mov	ecx, DWORD PTR _pbuf$[ebp]
	call	?setStride@HardwareVertexBuffer@Ogre@@QAEXI@Z ; Ogre::HardwareVertexBuffer::setStride
$LN1@createVert:

; 213  : 
; 214  : 		return static_cast<HardwareVertexBuffer *>(pbuf);

	mov	eax, DWORD PTR _pbuf$[ebp]

; 215  : 	}

	mov	esp, ebp
	pop	ebp
	ret	12					; 0000000cH
?createVertexBuffer@HardwareBufferManager@Ogre@@QAEPAVHardwareVertexBuffer@2@W4HardwareBufferUsage@2@II@Z ENDP ; Ogre::HardwareBufferManager::createVertexBuffer
_TEXT	ENDS
PUBLIC	?createIndexBuffer@HardwareBufferManager@Ogre@@QAEPAVHardwareIndexBuffer@2@W4HardwareBufferUsage@2@I_N@Z ; Ogre::HardwareBufferManager::createIndexBuffer
; Function compile flags: /Odtp
_TEXT	SEGMENT
_this$ = -8						; size = 4
_stride$ = -4						; size = 4
_usage$ = 8						; size = 4
_nindex$ = 12						; size = 4
_b32bit$ = 16						; size = 1
?createIndexBuffer@HardwareBufferManager@Ogre@@QAEPAVHardwareIndexBuffer@2@W4HardwareBufferUsage@2@I_N@Z PROC ; Ogre::HardwareBufferManager::createIndexBuffer
; _this$ = ecx

; 218  : 	{

	push	ebp
	mov	ebp, esp
	sub	esp, 8
	mov	DWORD PTR _this$[ebp], ecx

; 219  : 		size_t stride = b32bit?4:2;

	movzx	eax, BYTE PTR _b32bit$[ebp]
	neg	eax
	sbb	eax, eax
	and	eax, 2
	add	eax, 2
	mov	DWORD PTR _stride$[ebp], eax

; 220  : 		return static_cast<HardwareIndexBuffer *>(createVertexOrIndexBuffer(false, usage, nindex*stride, stride));

	mov	ecx, DWORD PTR _stride$[ebp]
	push	ecx
	mov	edx, DWORD PTR _nindex$[ebp]
	imul	edx, DWORD PTR _stride$[ebp]
	push	edx
	mov	eax, DWORD PTR _usage$[ebp]
	push	eax
	push	0
	mov	ecx, DWORD PTR _this$[ebp]
	call	?createVertexOrIndexBuffer@HardwareBufferManager@Ogre@@AAEPAVHardwareBuffer@2@_NW4HardwareBufferUsage@2@II@Z ; Ogre::HardwareBufferManager::createVertexOrIndexBuffer

; 221  : 	}

	mov	esp, ebp
	pop	ebp
	ret	12					; 0000000cH
?createIndexBuffer@HardwareBufferManager@Ogre@@QAEPAVHardwareIndexBuffer@2@W4HardwareBufferUsage@2@I_N@Z ENDP ; Ogre::HardwareBufferManager::createIndexBuffer
_TEXT	ENDS
PUBLIC	??A?$map@IPAVHardwareBufferPool@Ogre@@U?$less@I@std@@V?$allocator@U?$pair@$$CBIPAVHardwareBufferPool@Ogre@@@std@@@4@@std@@QAEAAPAVHardwareBufferPool@Ogre@@ABI@Z ; std::map<unsigned int,Ogre::HardwareBufferPool *,std::less<unsigned int>,std::allocator<std::pair<unsigned int const ,Ogre::HardwareBufferPool *> > >::operator[]
PUBLIC	??8const_iterator@?$_Tree@V?$_Tmap_traits@IPAVHardwareBufferPool@Ogre@@U?$less@I@std@@V?$allocator@U?$pair@$$CBIPAVHardwareBufferPool@Ogre@@@std@@@4@$0A@@std@@@std@@QBE_NABV012@@Z ; std::_Tree<std::_Tmap_traits<unsigned int,Ogre::HardwareBufferPool *,std::less<unsigned int>,std::allocator<std::pair<unsigned int const ,Ogre::HardwareBufferPool *> >,0> >::const_iterator::operator==
PUBLIC	??$Max@I@Ogre@@YAIABI0@Z			; Ogre::Max<unsigned int>
PUBLIC	?find@?$_Tree@V?$_Tmap_traits@IPAVHardwareBufferPool@Ogre@@U?$less@I@std@@V?$allocator@U?$pair@$$CBIPAVHardwareBufferPool@Ogre@@@std@@@4@$0A@@std@@@std@@QAE?AViterator@12@ABI@Z ; std::_Tree<std::_Tmap_traits<unsigned int,Ogre::HardwareBufferPool *,std::less<unsigned int>,std::allocator<std::pair<unsigned int const ,Ogre::HardwareBufferPool *> >,0> >::find
; Function compile flags: /Odtp
_TEXT	SEGMENT
_this$ = -56						; size = 4
$T64013 = -52						; size = 8
$T64012 = -44						; size = 4
$T64011 = -40						; size = 4
$T64010 = -36						; size = 8
_pbuffer$58150 = -28					; size = 4
_pool$58146 = -24					; size = 4
_pool$ = -20						; size = 4
_poolbytes$ = -16					; size = 4
_key$ = -12						; size = 4
_iter$ = -8						; size = 8
_is_vbuffer$ = 8					; size = 1
_usage$ = 12						; size = 4
_nbytes$ = 16						; size = 4
_stride$ = 20						; size = 4
?createVertexOrIndexBuffer@HardwareBufferManager@Ogre@@AAEPAVHardwareBuffer@2@_NW4HardwareBufferUsage@2@II@Z PROC ; Ogre::HardwareBufferManager::createVertexOrIndexBuffer
; _this$ = ecx

; 224  : 	{

	push	ebp
	mov	ebp, esp
	sub	esp, 56					; 00000038H
	mov	DWORD PTR _this$[ebp], ecx

; 225  : 		//uint key = (uint)((usage<<16)|stride);
; 226  : 		//if(is_vbuffer) key |= (1<<31); //!!!
; 227  : 		uint key = usage<<16;

	mov	eax, DWORD PTR _usage$[ebp]
	shl	eax, 16					; 00000010H
	mov	DWORD PTR _key$[ebp], eax

; 228  : 		if(is_vbuffer) key|= (1<<31);

	movzx	ecx, BYTE PTR _is_vbuffer$[ebp]
	test	ecx, ecx
	je	SHORT $LN13@createVert@2
	mov	edx, DWORD PTR _key$[ebp]
	or	edx, -2147483648			; 80000000H
	mov	DWORD PTR _key$[ebp], edx
	jmp	SHORT $LN12@createVert@2
$LN13@createVert@2:

; 229  : 		else key |= stride;

	mov	eax, DWORD PTR _key$[ebp]
	or	eax, DWORD PTR _stride$[ebp]
	mov	DWORD PTR _key$[ebp], eax
$LN12@createVert@2:

; 230  : 
; 231  : 		PoolTableIter iter = m_Pools.find(key);

	lea	ecx, DWORD PTR _key$[ebp]
	push	ecx
	lea	edx, DWORD PTR _iter$[ebp]
	push	edx
	mov	ecx, DWORD PTR _this$[ebp]
	add	ecx, 4
	call	?find@?$_Tree@V?$_Tmap_traits@IPAVHardwareBufferPool@Ogre@@U?$less@I@std@@V?$allocator@U?$pair@$$CBIPAVHardwareBufferPool@Ogre@@@std@@@4@$0A@@std@@@std@@QAE?AViterator@12@ABI@Z ; std::_Tree<std::_Tmap_traits<unsigned int,Ogre::HardwareBufferPool *,std::less<unsigned int>,std::allocator<std::pair<unsigned int const ,Ogre::HardwareBufferPool *> >,0> >::find

; 232  : 		if(iter != m_Pools.end())

	lea	eax, DWORD PTR $T64010[ebp]
	push	eax
	mov	ecx, DWORD PTR _this$[ebp]
	add	ecx, 4
	call	?end@?$_Tree@V?$_Tmap_traits@IPAVHardwareBufferPool@Ogre@@U?$less@I@std@@V?$allocator@U?$pair@$$CBIPAVHardwareBufferPool@Ogre@@@std@@@4@$0A@@std@@@std@@QAE?AViterator@12@XZ ; std::_Tree<std::_Tmap_traits<unsigned int,Ogre::HardwareBufferPool *,std::less<unsigned int>,std::allocator<std::pair<unsigned int const ,Ogre::HardwareBufferPool *> >,0> >::end
	push	eax
	lea	ecx, DWORD PTR _iter$[ebp]
	call	??9const_iterator@?$_Tree@V?$_Tmap_traits@IPAVHardwareBufferPool@Ogre@@U?$less@I@std@@V?$allocator@U?$pair@$$CBIPAVHardwareBufferPool@Ogre@@@std@@@4@$0A@@std@@@std@@QBE_NABV012@@Z ; std::_Tree<std::_Tmap_traits<unsigned int,Ogre::HardwareBufferPool *,std::less<unsigned int>,std::allocator<std::pair<unsigned int const ,Ogre::HardwareBufferPool *> >,0> >::const_iterator::operator!=
	movzx	ecx, al
	test	ecx, ecx
	je	SHORT $LN11@createVert@2

; 233  : 		{
; 234  : 			HardwareBufferPool *pool = iter->second;

	lea	ecx, DWORD PTR _iter$[ebp]
	call	??Citerator@?$_Tree@V?$_Tmap_traits@IPAVHardwareBufferPool@Ogre@@U?$less@I@std@@V?$allocator@U?$pair@$$CBIPAVHardwareBufferPool@Ogre@@@std@@@4@$0A@@std@@@std@@QBEPAU?$pair@$$CBIPAVHardwareBufferPool@Ogre@@@2@XZ ; std::_Tree<std::_Tmap_traits<unsigned int,Ogre::HardwareBufferPool *,std::less<unsigned int>,std::allocator<std::pair<unsigned int const ,Ogre::HardwareBufferPool *> >,0> >::iterator::operator->
	mov	edx, DWORD PTR [eax+4]
	mov	DWORD PTR _pool$58146[ebp], edx
$LN10@createVert@2:

; 235  : 			while(pool != NULL)

	cmp	DWORD PTR _pool$58146[ebp], 0
	je	SHORT $LN11@createVert@2

; 236  : 			{
; 237  : 				HardwareBuffer *pbuffer = pool->allocBuffer(nbytes);

	mov	eax, DWORD PTR _nbytes$[ebp]
	push	eax
	mov	ecx, DWORD PTR _pool$58146[ebp]
	call	?allocBuffer@HardwareBufferPool@Ogre@@QAEPAVHardwareBuffer@2@I@Z ; Ogre::HardwareBufferPool::allocBuffer
	mov	DWORD PTR _pbuffer$58150[ebp], eax

; 238  : 				if(pbuffer) return pbuffer;

	cmp	DWORD PTR _pbuffer$58150[ebp], 0
	je	SHORT $LN8@createVert@2
	mov	eax, DWORD PTR _pbuffer$58150[ebp]
	jmp	$LN14@createVert@2
$LN8@createVert@2:

; 239  : 
; 240  : 				pool = pool->m_pNextPool;

	mov	ecx, DWORD PTR _pool$58146[ebp]
	mov	edx, DWORD PTR [ecx+40]
	mov	DWORD PTR _pool$58146[ebp], edx

; 241  : 			}

	jmp	SHORT $LN10@createVert@2
$LN11@createVert@2:

; 242  : 		}
; 243  : 
; 244  : 		size_t poolbytes;
; 245  : 		if( usage == HBU_STATIC )

	cmp	DWORD PTR _usage$[ebp], 0
	jne	SHORT $LN7@createVert@2

; 246  : 		{
; 247  : 			poolbytes = nbytes;

	mov	eax, DWORD PTR _nbytes$[ebp]
	mov	DWORD PTR _poolbytes$[ebp], eax

; 248  : 		}else{

	jmp	SHORT $LN6@createVert@2
$LN7@createVert@2:

; 249  : 			if(is_vbuffer) 

	movzx	ecx, BYTE PTR _is_vbuffer$[ebp]
	test	ecx, ecx
	je	SHORT $LN5@createVert@2

; 250  : 			{
; 251  : 				poolbytes = Max(size_t(16*1024*32), nbytes);

	mov	DWORD PTR $T64011[ebp], 524288		; 00080000H
	lea	edx, DWORD PTR _nbytes$[ebp]
	push	edx
	lea	eax, DWORD PTR $T64011[ebp]
	push	eax
	call	??$Max@I@Ogre@@YAIABI0@Z		; Ogre::Max<unsigned int>
	add	esp, 8
	mov	DWORD PTR _poolbytes$[ebp], eax

; 252  : 			}else {

	jmp	SHORT $LN6@createVert@2
$LN5@createVert@2:

; 253  : 				poolbytes = Max(size_t(16*1024)*stride, nbytes);

	mov	ecx, DWORD PTR _stride$[ebp]
	shl	ecx, 14					; 0000000eH
	mov	DWORD PTR $T64012[ebp], ecx
	lea	edx, DWORD PTR _nbytes$[ebp]
	push	edx
	lea	eax, DWORD PTR $T64012[ebp]
	push	eax
	call	??$Max@I@Ogre@@YAIABI0@Z		; Ogre::Max<unsigned int>
	add	esp, 8
	mov	DWORD PTR _poolbytes$[ebp], eax
$LN6@createVert@2:

; 254  : 			}
; 255  : 		}
; 256  : 		
; 257  : 
; 258  : 		HardwareBufferPool *pool = newPool(is_vbuffer, usage, poolbytes, stride);

	mov	ecx, DWORD PTR _stride$[ebp]
	push	ecx
	mov	edx, DWORD PTR _poolbytes$[ebp]
	push	edx
	mov	eax, DWORD PTR _usage$[ebp]
	push	eax
	movzx	ecx, BYTE PTR _is_vbuffer$[ebp]
	push	ecx
	mov	edx, DWORD PTR _this$[ebp]
	mov	eax, DWORD PTR [edx]
	mov	ecx, DWORD PTR _this$[ebp]
	mov	edx, DWORD PTR [eax+4]
	call	edx
	mov	DWORD PTR _pool$[ebp], eax

; 259  : 		if(pool == NULL) return NULL;

	cmp	DWORD PTR _pool$[ebp], 0
	jne	SHORT $LN3@createVert@2
	xor	eax, eax
	jmp	SHORT $LN14@createVert@2
$LN3@createVert@2:

; 260  : 
; 261  : 		if(iter == m_Pools.end())

	lea	eax, DWORD PTR $T64013[ebp]
	push	eax
	mov	ecx, DWORD PTR _this$[ebp]
	add	ecx, 4
	call	?end@?$_Tree@V?$_Tmap_traits@IPAVHardwareBufferPool@Ogre@@U?$less@I@std@@V?$allocator@U?$pair@$$CBIPAVHardwareBufferPool@Ogre@@@std@@@4@$0A@@std@@@std@@QAE?AViterator@12@XZ ; std::_Tree<std::_Tmap_traits<unsigned int,Ogre::HardwareBufferPool *,std::less<unsigned int>,std::allocator<std::pair<unsigned int const ,Ogre::HardwareBufferPool *> >,0> >::end
	push	eax
	lea	ecx, DWORD PTR _iter$[ebp]
	call	??8const_iterator@?$_Tree@V?$_Tmap_traits@IPAVHardwareBufferPool@Ogre@@U?$less@I@std@@V?$allocator@U?$pair@$$CBIPAVHardwareBufferPool@Ogre@@@std@@@4@$0A@@std@@@std@@QBE_NABV012@@Z ; std::_Tree<std::_Tmap_traits<unsigned int,Ogre::HardwareBufferPool *,std::less<unsigned int>,std::allocator<std::pair<unsigned int const ,Ogre::HardwareBufferPool *> >,0> >::const_iterator::operator==
	movzx	ecx, al
	test	ecx, ecx
	je	SHORT $LN2@createVert@2

; 262  : 		{
; 263  : 			m_Pools[key] = pool;

	lea	edx, DWORD PTR _key$[ebp]
	push	edx
	mov	ecx, DWORD PTR _this$[ebp]
	add	ecx, 4
	call	??A?$map@IPAVHardwareBufferPool@Ogre@@U?$less@I@std@@V?$allocator@U?$pair@$$CBIPAVHardwareBufferPool@Ogre@@@std@@@4@@std@@QAEAAPAVHardwareBufferPool@Ogre@@ABI@Z ; std::map<unsigned int,Ogre::HardwareBufferPool *,std::less<unsigned int>,std::allocator<std::pair<unsigned int const ,Ogre::HardwareBufferPool *> > >::operator[]
	mov	ecx, DWORD PTR _pool$[ebp]
	mov	DWORD PTR [eax], ecx

; 264  : 		}
; 265  : 		else

	jmp	SHORT $LN1@createVert@2
$LN2@createVert@2:

; 266  : 		{
; 267  : 			pool->m_pNextPool = iter->second;

	lea	ecx, DWORD PTR _iter$[ebp]
	call	??Citerator@?$_Tree@V?$_Tmap_traits@IPAVHardwareBufferPool@Ogre@@U?$less@I@std@@V?$allocator@U?$pair@$$CBIPAVHardwareBufferPool@Ogre@@@std@@@4@$0A@@std@@@std@@QBEPAU?$pair@$$CBIPAVHardwareBufferPool@Ogre@@@2@XZ ; std::_Tree<std::_Tmap_traits<unsigned int,Ogre::HardwareBufferPool *,std::less<unsigned int>,std::allocator<std::pair<unsigned int const ,Ogre::HardwareBufferPool *> >,0> >::iterator::operator->
	mov	edx, DWORD PTR _pool$[ebp]
	mov	eax, DWORD PTR [eax+4]
	mov	DWORD PTR [edx+40], eax

; 268  : 			iter->second = pool;

	lea	ecx, DWORD PTR _iter$[ebp]
	call	??Citerator@?$_Tree@V?$_Tmap_traits@IPAVHardwareBufferPool@Ogre@@U?$less@I@std@@V?$allocator@U?$pair@$$CBIPAVHardwareBufferPool@Ogre@@@std@@@4@$0A@@std@@@std@@QBEPAU?$pair@$$CBIPAVHardwareBufferPool@Ogre@@@2@XZ ; std::_Tree<std::_Tmap_traits<unsigned int,Ogre::HardwareBufferPool *,std::less<unsigned int>,std::allocator<std::pair<unsigned int const ,Ogre::HardwareBufferPool *> >,0> >::iterator::operator->
	mov	ecx, DWORD PTR _pool$[ebp]
	mov	DWORD PTR [eax+4], ecx
$LN1@createVert@2:

; 269  : 		}
; 270  : 
; 271  : 		return pool->allocBuffer(nbytes);

	mov	edx, DWORD PTR _nbytes$[ebp]
	push	edx
	mov	ecx, DWORD PTR _pool$[ebp]
	call	?allocBuffer@HardwareBufferPool@Ogre@@QAEPAVHardwareBuffer@2@I@Z ; Ogre::HardwareBufferPool::allocBuffer
$LN14@createVert@2:

; 272  : 	}

	mov	esp, ebp
	pop	ebp
	ret	16					; 00000010H
?createVertexOrIndexBuffer@HardwareBufferManager@Ogre@@AAEPAVHardwareBuffer@2@_NW4HardwareBufferUsage@2@II@Z ENDP ; Ogre::HardwareBufferManager::createVertexOrIndexBuffer
_TEXT	ENDS
PUBLIC	?Clear@?$ChainList@VHardwareBuffer@Ogre@@@Ogre@@QAEXXZ ; Ogre::ChainList<Ogre::HardwareBuffer>::Clear
; Function compile flags: /Odtp
; File i:\svnroot\client\ogremain\ogrelist.h
;	COMDAT ??0?$ChainList@VHardwareBuffer@Ogre@@@Ogre@@QAE@XZ
_TEXT	SEGMENT
_this$ = -4						; size = 4
??0?$ChainList@VHardwareBuffer@Ogre@@@Ogre@@QAE@XZ PROC	; Ogre::ChainList<Ogre::HardwareBuffer>::ChainList<Ogre::HardwareBuffer>, COMDAT
; _this$ = ecx

; 24   : 		ChainList(){ Clear(); }

	push	ebp
	mov	ebp, esp
	push	ecx
	mov	DWORD PTR _this$[ebp], ecx
	mov	ecx, DWORD PTR _this$[ebp]
	call	?Clear@?$ChainList@VHardwareBuffer@Ogre@@@Ogre@@QAEXXZ ; Ogre::ChainList<Ogre::HardwareBuffer>::Clear
	mov	eax, DWORD PTR _this$[ebp]
	mov	esp, ebp
	pop	ebp
	ret	0
??0?$ChainList@VHardwareBuffer@Ogre@@@Ogre@@QAE@XZ ENDP	; Ogre::ChainList<Ogre::HardwareBuffer>::ChainList<Ogre::HardwareBuffer>
; Function compile flags: /Odtp
_TEXT	ENDS
;	COMDAT ?PushFront@?$ChainList@VHardwareBuffer@Ogre@@@Ogre@@QAEXPAVChainListNode@2@@Z
_TEXT	SEGMENT
_this$ = -4						; size = 4
_pnode$ = 8						; size = 4
?PushFront@?$ChainList@VHardwareBuffer@Ogre@@@Ogre@@QAEXPAVChainListNode@2@@Z PROC ; Ogre::ChainList<Ogre::HardwareBuffer>::PushFront, COMDAT
; _this$ = ecx

; 35   : 		void PushFront( ChainListNode *pnode ){ InsertAfter(pnode, &m_EndNode); }

	push	ebp
	mov	ebp, esp
	push	ecx
	mov	DWORD PTR _this$[ebp], ecx
	mov	eax, DWORD PTR _this$[ebp]
	push	eax
	mov	ecx, DWORD PTR _pnode$[ebp]
	push	ecx
	mov	ecx, DWORD PTR _this$[ebp]
	call	?InsertAfter@?$ChainList@VHardwareBuffer@Ogre@@@Ogre@@QAEXPAVChainListNode@2@0@Z ; Ogre::ChainList<Ogre::HardwareBuffer>::InsertAfter
	mov	esp, ebp
	pop	ebp
	ret	4
?PushFront@?$ChainList@VHardwareBuffer@Ogre@@@Ogre@@QAEXPAVChainListNode@2@@Z ENDP ; Ogre::ChainList<Ogre::HardwareBuffer>::PushFront
_TEXT	ENDS
PUBLIC	?InsertBefore@?$ChainList@VHardwareBuffer@Ogre@@@Ogre@@QAEXPAVChainListNode@2@0@Z ; Ogre::ChainList<Ogre::HardwareBuffer>::InsertBefore
; Function compile flags: /Odtp
;	COMDAT ?PushBack@?$ChainList@VHardwareBuffer@Ogre@@@Ogre@@QAEXPAVChainListNode@2@@Z
_TEXT	SEGMENT
_this$ = -4						; size = 4
_pnode$ = 8						; size = 4
?PushBack@?$ChainList@VHardwareBuffer@Ogre@@@Ogre@@QAEXPAVChainListNode@2@@Z PROC ; Ogre::ChainList<Ogre::HardwareBuffer>::PushBack, COMDAT
; _this$ = ecx

; 36   : 		void PushBack( ChainListNode *pnode ){ InsertBefore(pnode, &m_EndNode); }

	push	ebp
	mov	ebp, esp
	push	ecx
	mov	DWORD PTR _this$[ebp], ecx
	mov	eax, DWORD PTR _this$[ebp]
	push	eax
	mov	ecx, DWORD PTR _pnode$[ebp]
	push	ecx
	mov	ecx, DWORD PTR _this$[ebp]
	call	?InsertBefore@?$ChainList@VHardwareBuffer@Ogre@@@Ogre@@QAEXPAVChainListNode@2@0@Z ; Ogre::ChainList<Ogre::HardwareBuffer>::InsertBefore
	mov	esp, ebp
	pop	ebp
	ret	4
?PushBack@?$ChainList@VHardwareBuffer@Ogre@@@Ogre@@QAEXPAVChainListNode@2@@Z ENDP ; Ogre::ChainList<Ogre::HardwareBuffer>::PushBack
; Function compile flags: /Odtp
_TEXT	ENDS
;	COMDAT ?InsertAfter@?$ChainList@VHardwareBuffer@Ogre@@@Ogre@@QAEXPAVChainListNode@2@0@Z
_TEXT	SEGMENT
_this$ = -4						; size = 4
_pnode$ = 8						; size = 4
_pref$ = 12						; size = 4
?InsertAfter@?$ChainList@VHardwareBuffer@Ogre@@@Ogre@@QAEXPAVChainListNode@2@0@Z PROC ; Ogre::ChainList<Ogre::HardwareBuffer>::InsertAfter, COMDAT
; _this$ = ecx

; 63   : 		{

	push	ebp
	mov	ebp, esp
	push	ecx
	mov	DWORD PTR _this$[ebp], ecx

; 64   : 			assert( pnode && pref );
; 65   : 
; 66   : 			pnode->m_pPrevNode = pref;

	mov	eax, DWORD PTR _pnode$[ebp]
	mov	ecx, DWORD PTR _pref$[ebp]
	mov	DWORD PTR [eax+4], ecx

; 67   : 			pnode->m_pNextNode = pref->m_pNextNode;

	mov	edx, DWORD PTR _pnode$[ebp]
	mov	eax, DWORD PTR _pref$[ebp]
	mov	ecx, DWORD PTR [eax]
	mov	DWORD PTR [edx], ecx

; 68   : 
; 69   : 			pref->m_pNextNode->m_pPrevNode = pnode;

	mov	edx, DWORD PTR _pref$[ebp]
	mov	eax, DWORD PTR [edx]
	mov	ecx, DWORD PTR _pnode$[ebp]
	mov	DWORD PTR [eax+4], ecx

; 70   : 			pref->m_pNextNode = pnode;

	mov	edx, DWORD PTR _pref$[ebp]
	mov	eax, DWORD PTR _pnode$[ebp]
	mov	DWORD PTR [edx], eax

; 71   : 
; 72   : 			m_nNodes++;

	mov	ecx, DWORD PTR _this$[ebp]
	mov	edx, DWORD PTR [ecx+8]
	add	edx, 1
	mov	eax, DWORD PTR _this$[ebp]
	mov	DWORD PTR [eax+8], edx

; 73   : 		}

	mov	esp, ebp
	pop	ebp
	ret	8
?InsertAfter@?$ChainList@VHardwareBuffer@Ogre@@@Ogre@@QAEXPAVChainListNode@2@0@Z ENDP ; Ogre::ChainList<Ogre::HardwareBuffer>::InsertAfter
; Function compile flags: /Odtp
_TEXT	ENDS
;	COMDAT ?Remove@?$ChainList@VHardwareBuffer@Ogre@@@Ogre@@QAEPAVHardwareBuffer@2@PAVChainListNode@2@@Z
_TEXT	SEGMENT
tv78 = -16						; size = 4
tv80 = -12						; size = 4
_this$ = -8						; size = 4
_pnext$ = -4						; size = 4
_pnode$ = 8						; size = 4
?Remove@?$ChainList@VHardwareBuffer@Ogre@@@Ogre@@QAEPAVHardwareBuffer@2@PAVChainListNode@2@@Z PROC ; Ogre::ChainList<Ogre::HardwareBuffer>::Remove, COMDAT
; _this$ = ecx

; 76   : 		{

	push	ebp
	mov	ebp, esp
	sub	esp, 16					; 00000010H
	mov	DWORD PTR _this$[ebp], ecx

; 77   : 			assert( pnode && pnode!=&m_EndNode );
; 78   : 
; 79   : 			ChainListNode *pnext = pnode->m_pNextNode;

	mov	eax, DWORD PTR _pnode$[ebp]
	mov	ecx, DWORD PTR [eax]
	mov	DWORD PTR _pnext$[ebp], ecx

; 80   : 			pnode->m_pNextNode->m_pPrevNode = pnode->m_pPrevNode;

	mov	edx, DWORD PTR _pnode$[ebp]
	mov	eax, DWORD PTR [edx]
	mov	ecx, DWORD PTR _pnode$[ebp]
	mov	edx, DWORD PTR [ecx+4]
	mov	DWORD PTR [eax+4], edx

; 81   : 			pnode->m_pPrevNode->m_pNextNode = pnode->m_pNextNode;

	mov	eax, DWORD PTR _pnode$[ebp]
	mov	ecx, DWORD PTR [eax+4]
	mov	edx, DWORD PTR _pnode$[ebp]
	mov	eax, DWORD PTR [edx]
	mov	DWORD PTR [ecx], eax

; 82   : 
; 83   : 			pnode->m_pNextNode = pnode->m_pPrevNode = NULL;

	mov	ecx, DWORD PTR _pnode$[ebp]
	mov	DWORD PTR [ecx+4], 0
	mov	edx, DWORD PTR _pnode$[ebp]
	mov	DWORD PTR [edx], 0

; 84   : 
; 85   : 			m_nNodes--;

	mov	eax, DWORD PTR _this$[ebp]
	mov	ecx, DWORD PTR [eax+8]
	sub	ecx, 1
	mov	edx, DWORD PTR _this$[ebp]
	mov	DWORD PTR [edx+8], ecx

; 86   : 			return pnext==&m_EndNode ? NULL : static_cast<T *>(pnext);

	mov	eax, DWORD PTR _pnext$[ebp]
	cmp	eax, DWORD PTR _this$[ebp]
	jne	SHORT $LN5@Remove
	mov	DWORD PTR tv80[ebp], 0
	jmp	SHORT $LN6@Remove
$LN5@Remove:
	cmp	DWORD PTR _pnext$[ebp], 0
	je	SHORT $LN3@Remove
	mov	ecx, DWORD PTR _pnext$[ebp]
	sub	ecx, 4
	mov	DWORD PTR tv78[ebp], ecx
	jmp	SHORT $LN4@Remove
$LN3@Remove:
	mov	DWORD PTR tv78[ebp], 0
$LN4@Remove:
	mov	edx, DWORD PTR tv78[ebp]
	mov	DWORD PTR tv80[ebp], edx
$LN6@Remove:
	mov	eax, DWORD PTR tv80[ebp]

; 87   : 		}

	mov	esp, ebp
	pop	ebp
	ret	4
?Remove@?$ChainList@VHardwareBuffer@Ogre@@@Ogre@@QAEPAVHardwareBuffer@2@PAVChainListNode@2@@Z ENDP ; Ogre::ChainList<Ogre::HardwareBuffer>::Remove
; Function compile flags: /Odtp
_TEXT	ENDS
;	COMDAT ?BeginIterate@?$ChainList@VHardwareBuffer@Ogre@@@Ogre@@QAEPAVHardwareBuffer@2@XZ
_TEXT	SEGMENT
tv69 = -12						; size = 4
tv71 = -8						; size = 4
_this$ = -4						; size = 4
?BeginIterate@?$ChainList@VHardwareBuffer@Ogre@@@Ogre@@QAEPAVHardwareBuffer@2@XZ PROC ; Ogre::ChainList<Ogre::HardwareBuffer>::BeginIterate, COMDAT
; _this$ = ecx

; 125  : 		{ 

	push	ebp
	mov	ebp, esp
	sub	esp, 12					; 0000000cH
	mov	DWORD PTR _this$[ebp], ecx

; 126  : 			return m_EndNode.m_pNextNode==&m_EndNode ? NULL : static_cast<T *>(m_EndNode.m_pNextNode);

	mov	eax, DWORD PTR _this$[ebp]
	mov	ecx, DWORD PTR [eax]
	cmp	ecx, DWORD PTR _this$[ebp]
	jne	SHORT $LN5@BeginItera
	mov	DWORD PTR tv71[ebp], 0
	jmp	SHORT $LN6@BeginItera
$LN5@BeginItera:
	mov	edx, DWORD PTR _this$[ebp]
	cmp	DWORD PTR [edx], 0
	je	SHORT $LN3@BeginItera
	mov	eax, DWORD PTR _this$[ebp]
	mov	ecx, DWORD PTR [eax]
	sub	ecx, 4
	mov	DWORD PTR tv69[ebp], ecx
	jmp	SHORT $LN4@BeginItera
$LN3@BeginItera:
	mov	DWORD PTR tv69[ebp], 0
$LN4@BeginItera:
	mov	edx, DWORD PTR tv69[ebp]
	mov	DWORD PTR tv71[ebp], edx
$LN6@BeginItera:
	mov	eax, DWORD PTR tv71[ebp]

; 127  : 		}

	mov	esp, ebp
	pop	ebp
	ret	0
?BeginIterate@?$ChainList@VHardwareBuffer@Ogre@@@Ogre@@QAEPAVHardwareBuffer@2@XZ ENDP ; Ogre::ChainList<Ogre::HardwareBuffer>::BeginIterate
; Function compile flags: /Odtp
_TEXT	ENDS
;	COMDAT ?Iterate@?$ChainList@VHardwareBuffer@Ogre@@@Ogre@@QAEPAVHardwareBuffer@2@PAVChainListNode@2@@Z
_TEXT	SEGMENT
tv69 = -12						; size = 4
tv71 = -8						; size = 4
_this$ = -4						; size = 4
_pnode$ = 8						; size = 4
?Iterate@?$ChainList@VHardwareBuffer@Ogre@@@Ogre@@QAEPAVHardwareBuffer@2@PAVChainListNode@2@@Z PROC ; Ogre::ChainList<Ogre::HardwareBuffer>::Iterate, COMDAT
; _this$ = ecx

; 129  : 		{ 

	push	ebp
	mov	ebp, esp
	sub	esp, 12					; 0000000cH
	mov	DWORD PTR _this$[ebp], ecx

; 130  : 			return pnode->m_pNextNode==&m_EndNode ? NULL : static_cast<T *>(pnode->m_pNextNode);

	mov	eax, DWORD PTR _pnode$[ebp]
	mov	ecx, DWORD PTR [eax]
	cmp	ecx, DWORD PTR _this$[ebp]
	jne	SHORT $LN5@Iterate
	mov	DWORD PTR tv71[ebp], 0
	jmp	SHORT $LN6@Iterate
$LN5@Iterate:
	mov	edx, DWORD PTR _pnode$[ebp]
	cmp	DWORD PTR [edx], 0
	je	SHORT $LN3@Iterate
	mov	eax, DWORD PTR _pnode$[ebp]
	mov	ecx, DWORD PTR [eax]
	sub	ecx, 4
	mov	DWORD PTR tv69[ebp], ecx
	jmp	SHORT $LN4@Iterate
$LN3@Iterate:
	mov	DWORD PTR tv69[ebp], 0
$LN4@Iterate:
	mov	edx, DWORD PTR tv69[ebp]
	mov	DWORD PTR tv71[ebp], edx
$LN6@Iterate:
	mov	eax, DWORD PTR tv71[ebp]

; 131  : 		}

	mov	esp, ebp
	pop	ebp
	ret	4
?Iterate@?$ChainList@VHardwareBuffer@Ogre@@@Ogre@@QAEPAVHardwareBuffer@2@PAVChainListNode@2@@Z ENDP ; Ogre::ChainList<Ogre::HardwareBuffer>::Iterate
; Function compile flags: /Odtp
; File i:\svnroot\client\ogremain\ogresingleton.h
_TEXT	ENDS
;	COMDAT ??0?$Singleton@VHardwareBufferManager@Ogre@@@Ogre@@QAE@XZ
_TEXT	SEGMENT
tv68 = -8						; size = 4
_this$ = -4						; size = 4
??0?$Singleton@VHardwareBufferManager@Ogre@@@Ogre@@QAE@XZ PROC ; Ogre::Singleton<Ogre::HardwareBufferManager>::Singleton<Ogre::HardwareBufferManager>, COMDAT
; _this$ = ecx

; 64   : 		Singleton( void )

	push	ebp
	mov	ebp, esp
	sub	esp, 8
	mov	DWORD PTR _this$[ebp], ecx

; 65   : 		{
; 66   : 			assert( !ms_Singleton );
; 67   : #if defined( _MSC_VER ) && _MSC_VER < 1200	 
; 68   : 			int offset = (int)(T*)1 - (int)(Singleton <T>*)(T*)1;
; 69   : 			ms_Singleton = (T*)((int)this + offset);
; 70   : #else
; 71   : 			ms_Singleton = static_cast< T* >( this );

	cmp	DWORD PTR _this$[ebp], 0
	je	SHORT $LN3@Singleton
	mov	eax, DWORD PTR _this$[ebp]
	sub	eax, 4
	mov	DWORD PTR tv68[ebp], eax
	jmp	SHORT $LN4@Singleton
$LN3@Singleton:
	mov	DWORD PTR tv68[ebp], 0
$LN4@Singleton:
	mov	ecx, DWORD PTR tv68[ebp]
	mov	DWORD PTR ?ms_Singleton@?$Singleton@VHardwareBufferManager@Ogre@@@Ogre@@1PAVHardwareBufferManager@2@A, ecx ; Ogre::Singleton<Ogre::HardwareBufferManager>::ms_Singleton

; 72   : #endif
; 73   : 		}

	mov	eax, DWORD PTR _this$[ebp]
	mov	esp, ebp
	pop	ebp
	ret	0
??0?$Singleton@VHardwareBufferManager@Ogre@@@Ogre@@QAE@XZ ENDP ; Ogre::Singleton<Ogre::HardwareBufferManager>::Singleton<Ogre::HardwareBufferManager>
; Function compile flags: /Odtp
_TEXT	ENDS
;	COMDAT ??1?$Singleton@VHardwareBufferManager@Ogre@@@Ogre@@QAE@XZ
_TEXT	SEGMENT
_this$ = -4						; size = 4
??1?$Singleton@VHardwareBufferManager@Ogre@@@Ogre@@QAE@XZ PROC ; Ogre::Singleton<Ogre::HardwareBufferManager>::~Singleton<Ogre::HardwareBufferManager>, COMDAT
; _this$ = ecx

; 75   : 		{  assert( ms_Singleton );  ms_Singleton = 0;  }

	push	ebp
	mov	ebp, esp
	push	ecx
	mov	DWORD PTR _this$[ebp], ecx
	mov	DWORD PTR ?ms_Singleton@?$Singleton@VHardwareBufferManager@Ogre@@@Ogre@@1PAVHardwareBufferManager@2@A, 0 ; Ogre::Singleton<Ogre::HardwareBufferManager>::ms_Singleton
	mov	esp, ebp
	pop	ebp
	ret	0
??1?$Singleton@VHardwareBufferManager@Ogre@@@Ogre@@QAE@XZ ENDP ; Ogre::Singleton<Ogre::HardwareBufferManager>::~Singleton<Ogre::HardwareBufferManager>
_TEXT	ENDS
PUBLIC	?getSingleton@?$Singleton@VHardwareBufferManager@Ogre@@@Ogre@@SAAAVHardwareBufferManager@2@XZ ; Ogre::Singleton<Ogre::HardwareBufferManager>::getSingleton
; Function compile flags: /Odtp
;	COMDAT ?getSingleton@?$Singleton@VHardwareBufferManager@Ogre@@@Ogre@@SAAAVHardwareBufferManager@2@XZ
_TEXT	SEGMENT
?getSingleton@?$Singleton@VHardwareBufferManager@Ogre@@@Ogre@@SAAAVHardwareBufferManager@2@XZ PROC ; Ogre::Singleton<Ogre::HardwareBufferManager>::getSingleton, COMDAT

; 77   : 		{	assert( ms_Singleton );  return ( *ms_Singleton ); }

	push	ebp
	mov	ebp, esp
	mov	eax, DWORD PTR ?ms_Singleton@?$Singleton@VHardwareBufferManager@Ogre@@@Ogre@@1PAVHardwareBufferManager@2@A ; Ogre::Singleton<Ogre::HardwareBufferManager>::ms_Singleton
	pop	ebp
	ret	0
?getSingleton@?$Singleton@VHardwareBufferManager@Ogre@@@Ogre@@SAAAVHardwareBufferManager@2@XZ ENDP ; Ogre::Singleton<Ogre::HardwareBufferManager>::getSingleton
_TEXT	ENDS
PUBLIC	?getSingletonPtr@?$Singleton@VHardwareBufferManager@Ogre@@@Ogre@@SAPAVHardwareBufferManager@2@XZ ; Ogre::Singleton<Ogre::HardwareBufferManager>::getSingletonPtr
; Function compile flags: /Odtp
;	COMDAT ?getSingletonPtr@?$Singleton@VHardwareBufferManager@Ogre@@@Ogre@@SAPAVHardwareBufferManager@2@XZ
_TEXT	SEGMENT
?getSingletonPtr@?$Singleton@VHardwareBufferManager@Ogre@@@Ogre@@SAPAVHardwareBufferManager@2@XZ PROC ; Ogre::Singleton<Ogre::HardwareBufferManager>::getSingletonPtr, COMDAT

; 79   : 		{ return ms_Singleton; }

	push	ebp
	mov	ebp, esp
	mov	eax, DWORD PTR ?ms_Singleton@?$Singleton@VHardwareBufferManager@Ogre@@@Ogre@@1PAVHardwareBufferManager@2@A ; Ogre::Singleton<Ogre::HardwareBufferManager>::ms_Singleton
	pop	ebp
	ret	0
?getSingletonPtr@?$Singleton@VHardwareBufferManager@Ogre@@@Ogre@@SAPAVHardwareBufferManager@2@XZ ENDP ; Ogre::Singleton<Ogre::HardwareBufferManager>::getSingletonPtr
_TEXT	ENDS
PUBLIC	??0?$_Tree@V?$_Tmap_traits@IPAVHardwareBufferPool@Ogre@@U?$less@I@std@@V?$allocator@U?$pair@$$CBIPAVHardwareBufferPool@Ogre@@@std@@@4@$0A@@std@@@std@@QAE@ABU?$less@I@1@ABV?$allocator@U?$pair@$$CBIPAVHardwareBufferPool@Ogre@@@std@@@1@@Z ; std::_Tree<std::_Tmap_traits<unsigned int,Ogre::HardwareBufferPool *,std::less<unsigned int>,std::allocator<std::pair<unsigned int const ,Ogre::HardwareBufferPool *> >,0> >::_Tree<std::_Tmap_traits<unsigned int,Ogre::HardwareBufferPool *,std::less<unsigned int>,std::allocator<std::pair<unsigned int const ,Ogre::HardwareBufferPool *> >,0> >
PUBLIC	??0?$allocator@U?$pair@$$CBIPAVHardwareBufferPool@Ogre@@@std@@@std@@QAE@XZ ; std::allocator<std::pair<unsigned int const ,Ogre::HardwareBufferPool *> >::allocator<std::pair<unsigned int const ,Ogre::HardwareBufferPool *> >
;	COMDAT xdata$x
; File d:\program files (x86)\microsoft visual studio 9.0\vc\include\map
xdata$x	SEGMENT
__unwindtable$??0?$map@IPAVHardwareBufferPool@Ogre@@U?$less@I@std@@V?$allocator@U?$pair@$$CBIPAVHardwareBufferPool@Ogre@@@std@@@4@@std@@QAE@XZ DD 0ffffffffH
	DD	FLAT:__unwindfunclet$??0?$map@IPAVHardwareBufferPool@Ogre@@U?$less@I@std@@V?$allocator@U?$pair@$$CBIPAVHardwareBufferPool@Ogre@@@std@@@4@@std@@QAE@XZ$0
__ehfuncinfo$??0?$map@IPAVHardwareBufferPool@Ogre@@U?$less@I@std@@V?$allocator@U?$pair@$$CBIPAVHardwareBufferPool@Ogre@@@std@@@4@@std@@QAE@XZ DD 019930522H
	DD	01H
	DD	FLAT:__unwindtable$??0?$map@IPAVHardwareBufferPool@Ogre@@U?$less@I@std@@V?$allocator@U?$pair@$$CBIPAVHardwareBufferPool@Ogre@@@std@@@4@@std@@QAE@XZ
	DD	2 DUP(00H)
	DD	2 DUP(00H)
	DD	00H
	DD	00H
; Function compile flags: /Odtp
xdata$x	ENDS
;	COMDAT ??0?$map@IPAVHardwareBufferPool@Ogre@@U?$less@I@std@@V?$allocator@U?$pair@$$CBIPAVHardwareBufferPool@Ogre@@@std@@@4@@std@@QAE@XZ
_TEXT	SEGMENT
_this$ = -20						; size = 4
$T64052 = -14						; size = 1
$T64051 = -13						; size = 1
__$EHRec$ = -12						; size = 12
??0?$map@IPAVHardwareBufferPool@Ogre@@U?$less@I@std@@V?$allocator@U?$pair@$$CBIPAVHardwareBufferPool@Ogre@@@std@@@4@@std@@QAE@XZ PROC ; std::map<unsigned int,Ogre::HardwareBufferPool *,std::less<unsigned int>,std::allocator<std::pair<unsigned int const ,Ogre::HardwareBufferPool *> > >::map<unsigned int,Ogre::HardwareBufferPool *,std::less<unsigned int>,std::allocator<std::pair<unsigned int const ,Ogre::HardwareBufferPool *> > >, COMDAT
; _this$ = ecx

; 103  : 		{	// construct empty map from defaults

	push	ebp
	mov	ebp, esp
	push	-1
	push	__ehhandler$??0?$map@IPAVHardwareBufferPool@Ogre@@U?$less@I@std@@V?$allocator@U?$pair@$$CBIPAVHardwareBufferPool@Ogre@@@std@@@4@@std@@QAE@XZ
	mov	eax, DWORD PTR fs:0
	push	eax
	sub	esp, 8
	mov	eax, DWORD PTR ___security_cookie
	xor	eax, ebp
	push	eax
	lea	eax, DWORD PTR __$EHRec$[ebp]
	mov	DWORD PTR fs:0, eax
	mov	DWORD PTR _this$[ebp], ecx
	lea	ecx, DWORD PTR $T64051[ebp]
	call	??0?$allocator@U?$pair@$$CBIPAVHardwareBufferPool@Ogre@@@std@@@std@@QAE@XZ ; std::allocator<std::pair<unsigned int const ,Ogre::HardwareBufferPool *> >::allocator<std::pair<unsigned int const ,Ogre::HardwareBufferPool *> >
	push	eax
	lea	eax, DWORD PTR $T64052[ebp]
	push	eax
	mov	ecx, DWORD PTR _this$[ebp]
	call	??0?$_Tree@V?$_Tmap_traits@IPAVHardwareBufferPool@Ogre@@U?$less@I@std@@V?$allocator@U?$pair@$$CBIPAVHardwareBufferPool@Ogre@@@std@@@4@$0A@@std@@@std@@QAE@ABU?$less@I@1@ABV?$allocator@U?$pair@$$CBIPAVHardwareBufferPool@Ogre@@@std@@@1@@Z ; std::_Tree<std::_Tmap_traits<unsigned int,Ogre::HardwareBufferPool *,std::less<unsigned int>,std::allocator<std::pair<unsigned int const ,Ogre::HardwareBufferPool *> >,0> >::_Tree<std::_Tmap_traits<unsigned int,Ogre::HardwareBufferPool *,std::less<unsigned int>,std::allocator<std::pair<unsigned int const ,Ogre::HardwareBufferPool *> >,0> >
	mov	DWORD PTR __$EHRec$[ebp+8], 0

; 104  : 		}

	mov	DWORD PTR __$EHRec$[ebp+8], -1
	mov	eax, DWORD PTR _this$[ebp]
	mov	ecx, DWORD PTR __$EHRec$[ebp]
	mov	DWORD PTR fs:0, ecx
	pop	ecx
	mov	esp, ebp
	pop	ebp
	ret	0
_TEXT	ENDS
;	COMDAT text$x
text$x	SEGMENT
__unwindfunclet$??0?$map@IPAVHardwareBufferPool@Ogre@@U?$less@I@std@@V?$allocator@U?$pair@$$CBIPAVHardwareBufferPool@Ogre@@@std@@@4@@std@@QAE@XZ$0:
	mov	ecx, DWORD PTR _this$[ebp]
	jmp	??1?$_Tree@V?$_Tmap_traits@IPAVHardwareBufferPool@Ogre@@U?$less@I@std@@V?$allocator@U?$pair@$$CBIPAVHardwareBufferPool@Ogre@@@std@@@4@$0A@@std@@@std@@QAE@XZ ; std::_Tree<std::_Tmap_traits<unsigned int,Ogre::HardwareBufferPool *,std::less<unsigned int>,std::allocator<std::pair<unsigned int const ,Ogre::HardwareBufferPool *> >,0> >::~_Tree<std::_Tmap_traits<unsigned int,Ogre::HardwareBufferPool *,std::less<unsigned int>,std::allocator<std::pair<unsigned int const ,Ogre::HardwareBufferPool *> >,0> >
__ehhandler$??0?$map@IPAVHardwareBufferPool@Ogre@@U?$less@I@std@@V?$allocator@U?$pair@$$CBIPAVHardwareBufferPool@Ogre@@@std@@@4@@std@@QAE@XZ:
	mov	edx, DWORD PTR [esp+8]
	lea	eax, DWORD PTR [edx+12]
	mov	ecx, DWORD PTR [edx-12]
	xor	ecx, eax
	call	@__security_check_cookie@4
	mov	eax, OFFSET __ehfuncinfo$??0?$map@IPAVHardwareBufferPool@Ogre@@U?$less@I@std@@V?$allocator@U?$pair@$$CBIPAVHardwareBufferPool@Ogre@@@std@@@4@@std@@QAE@XZ
	jmp	___CxxFrameHandler3
text$x	ENDS
??0?$map@IPAVHardwareBufferPool@Ogre@@U?$less@I@std@@V?$allocator@U?$pair@$$CBIPAVHardwareBufferPool@Ogre@@@std@@@4@@std@@QAE@XZ ENDP ; std::map<unsigned int,Ogre::HardwareBufferPool *,std::less<unsigned int>,std::allocator<std::pair<unsigned int const ,Ogre::HardwareBufferPool *> > >::map<unsigned int,Ogre::HardwareBufferPool *,std::less<unsigned int>,std::allocator<std::pair<unsigned int const ,Ogre::HardwareBufferPool *> > >
PUBLIC	??Diterator@?$_Tree@V?$_Tmap_traits@IPAVHardwareBufferPool@Ogre@@U?$less@I@std@@V?$allocator@U?$pair@$$CBIPAVHardwareBufferPool@Ogre@@@std@@@4@$0A@@std@@@std@@QBEAAU?$pair@$$CBIPAVHardwareBufferPool@Ogre@@@2@XZ ; std::_Tree<std::_Tmap_traits<unsigned int,Ogre::HardwareBufferPool *,std::less<unsigned int>,std::allocator<std::pair<unsigned int const ,Ogre::HardwareBufferPool *> >,0> >::iterator::operator*
PUBLIC	?insert@?$_Tree@V?$_Tmap_traits@IPAVHardwareBufferPool@Ogre@@U?$less@I@std@@V?$allocator@U?$pair@$$CBIPAVHardwareBufferPool@Ogre@@@std@@@4@$0A@@std@@@std@@QAE?AViterator@12@Vconst_iterator@12@ABU?$pair@$$CBIPAVHardwareBufferPool@Ogre@@@2@@Z ; std::_Tree<std::_Tmap_traits<unsigned int,Ogre::HardwareBufferPool *,std::less<unsigned int>,std::allocator<std::pair<unsigned int const ,Ogre::HardwareBufferPool *> >,0> >::insert
PUBLIC	??0?$pair@$$CBIPAVHardwareBufferPool@Ogre@@@std@@QAE@ABIABQAVHardwareBufferPool@Ogre@@@Z ; std::pair<unsigned int const ,Ogre::HardwareBufferPool *>::pair<unsigned int const ,Ogre::HardwareBufferPool *>
PUBLIC	??R?$less@I@std@@QBE_NABI0@Z			; std::less<unsigned int>::operator()
PUBLIC	?_Key@?$_Tree@V?$_Tmap_traits@IPAVHardwareBufferPool@Ogre@@U?$less@I@std@@V?$allocator@U?$pair@$$CBIPAVHardwareBufferPool@Ogre@@@std@@@4@$0A@@std@@@std@@KAABIPAU_Node@?$_Tree_nod@V?$_Tmap_traits@IPAVHardwareBufferPool@Ogre@@U?$less@I@std@@V?$allocator@U?$pair@$$CBIPAVHardwareBufferPool@Ogre@@@std@@@4@$0A@@std@@@2@@Z ; std::_Tree<std::_Tmap_traits<unsigned int,Ogre::HardwareBufferPool *,std::less<unsigned int>,std::allocator<std::pair<unsigned int const ,Ogre::HardwareBufferPool *> >,0> >::_Key
PUBLIC	?_Mynode@const_iterator@?$_Tree@V?$_Tmap_traits@IPAVHardwareBufferPool@Ogre@@U?$less@I@std@@V?$allocator@U?$pair@$$CBIPAVHardwareBufferPool@Ogre@@@std@@@4@$0A@@std@@@std@@QBEPAU_Node@?$_Tree_nod@V?$_Tmap_traits@IPAVHardwareBufferPool@Ogre@@U?$less@I@std@@V?$allocator@U?$pair@$$CBIPAVHardwareBufferPool@Ogre@@@std@@@4@$0A@@std@@@3@XZ ; std::_Tree<std::_Tmap_traits<unsigned int,Ogre::HardwareBufferPool *,std::less<unsigned int>,std::allocator<std::pair<unsigned int const ,Ogre::HardwareBufferPool *> >,0> >::const_iterator::_Mynode
PUBLIC	?lower_bound@?$_Tree@V?$_Tmap_traits@IPAVHardwareBufferPool@Ogre@@U?$less@I@std@@V?$allocator@U?$pair@$$CBIPAVHardwareBufferPool@Ogre@@@std@@@4@$0A@@std@@@std@@QAE?AViterator@12@ABI@Z ; std::_Tree<std::_Tmap_traits<unsigned int,Ogre::HardwareBufferPool *,std::less<unsigned int>,std::allocator<std::pair<unsigned int const ,Ogre::HardwareBufferPool *> >,0> >::lower_bound
; Function compile flags: /Odtp
;	COMDAT ??A?$map@IPAVHardwareBufferPool@Ogre@@U?$less@I@std@@V?$allocator@U?$pair@$$CBIPAVHardwareBufferPool@Ogre@@@std@@@4@@std@@QAEAAPAVHardwareBufferPool@Ogre@@ABI@Z
_TEXT	SEGMENT
_this$ = -48						; size = 4
$T64066 = -44						; size = 8
$T64065 = -36						; size = 8
$T64064 = -28						; size = 4
$T64063 = -24						; size = 8
$T64062 = -16						; size = 8
__Where$ = -8						; size = 8
__Keyval$ = 8						; size = 4
??A?$map@IPAVHardwareBufferPool@Ogre@@U?$less@I@std@@V?$allocator@U?$pair@$$CBIPAVHardwareBufferPool@Ogre@@@std@@@4@@std@@QAEAAPAVHardwareBufferPool@Ogre@@ABI@Z PROC ; std::map<unsigned int,Ogre::HardwareBufferPool *,std::less<unsigned int>,std::allocator<std::pair<unsigned int const ,Ogre::HardwareBufferPool *> > >::operator[], COMDAT
; _this$ = ecx

; 168  : 		{	// find element matching _Keyval or insert with default mapped

	push	ebp
	mov	ebp, esp
	sub	esp, 48					; 00000030H
	mov	DWORD PTR _this$[ebp], ecx

; 169  : 		iterator _Where = this->lower_bound(_Keyval);

	mov	eax, DWORD PTR __Keyval$[ebp]
	push	eax
	lea	ecx, DWORD PTR __Where$[ebp]
	push	ecx
	mov	ecx, DWORD PTR _this$[ebp]
	call	?lower_bound@?$_Tree@V?$_Tmap_traits@IPAVHardwareBufferPool@Ogre@@U?$less@I@std@@V?$allocator@U?$pair@$$CBIPAVHardwareBufferPool@Ogre@@@std@@@4@$0A@@std@@@std@@QAE?AViterator@12@ABI@Z ; std::_Tree<std::_Tmap_traits<unsigned int,Ogre::HardwareBufferPool *,std::less<unsigned int>,std::allocator<std::pair<unsigned int const ,Ogre::HardwareBufferPool *> >,0> >::lower_bound

; 170  : 		if (_Where == this->end()
; 171  : 			|| this->comp(_Keyval, this->_Key(_Where._Mynode())))

	lea	edx, DWORD PTR $T64062[ebp]
	push	edx
	mov	ecx, DWORD PTR _this$[ebp]
	call	?end@?$_Tree@V?$_Tmap_traits@IPAVHardwareBufferPool@Ogre@@U?$less@I@std@@V?$allocator@U?$pair@$$CBIPAVHardwareBufferPool@Ogre@@@std@@@4@$0A@@std@@@std@@QAE?AViterator@12@XZ ; std::_Tree<std::_Tmap_traits<unsigned int,Ogre::HardwareBufferPool *,std::less<unsigned int>,std::allocator<std::pair<unsigned int const ,Ogre::HardwareBufferPool *> >,0> >::end
	push	eax
	lea	ecx, DWORD PTR __Where$[ebp]
	call	??8const_iterator@?$_Tree@V?$_Tmap_traits@IPAVHardwareBufferPool@Ogre@@U?$less@I@std@@V?$allocator@U?$pair@$$CBIPAVHardwareBufferPool@Ogre@@@std@@@4@$0A@@std@@@std@@QBE_NABV012@@Z ; std::_Tree<std::_Tmap_traits<unsigned int,Ogre::HardwareBufferPool *,std::less<unsigned int>,std::allocator<std::pair<unsigned int const ,Ogre::HardwareBufferPool *> >,0> >::const_iterator::operator==
	movzx	eax, al
	test	eax, eax
	jne	SHORT $LN1@operator@2
	lea	ecx, DWORD PTR __Where$[ebp]
	call	?_Mynode@const_iterator@?$_Tree@V?$_Tmap_traits@IPAVHardwareBufferPool@Ogre@@U?$less@I@std@@V?$allocator@U?$pair@$$CBIPAVHardwareBufferPool@Ogre@@@std@@@4@$0A@@std@@@std@@QBEPAU_Node@?$_Tree_nod@V?$_Tmap_traits@IPAVHardwareBufferPool@Ogre@@U?$less@I@std@@V?$allocator@U?$pair@$$CBIPAVHardwareBufferPool@Ogre@@@std@@@4@$0A@@std@@@3@XZ ; std::_Tree<std::_Tmap_traits<unsigned int,Ogre::HardwareBufferPool *,std::less<unsigned int>,std::allocator<std::pair<unsigned int const ,Ogre::HardwareBufferPool *> >,0> >::const_iterator::_Mynode
	push	eax
	call	?_Key@?$_Tree@V?$_Tmap_traits@IPAVHardwareBufferPool@Ogre@@U?$less@I@std@@V?$allocator@U?$pair@$$CBIPAVHardwareBufferPool@Ogre@@@std@@@4@$0A@@std@@@std@@KAABIPAU_Node@?$_Tree_nod@V?$_Tmap_traits@IPAVHardwareBufferPool@Ogre@@U?$less@I@std@@V?$allocator@U?$pair@$$CBIPAVHardwareBufferPool@Ogre@@@std@@@4@$0A@@std@@@2@@Z ; std::_Tree<std::_Tmap_traits<unsigned int,Ogre::HardwareBufferPool *,std::less<unsigned int>,std::allocator<std::pair<unsigned int const ,Ogre::HardwareBufferPool *> >,0> >::_Key
	add	esp, 4
	push	eax
	mov	ecx, DWORD PTR __Keyval$[ebp]
	push	ecx
	mov	ecx, DWORD PTR _this$[ebp]
	add	ecx, 8
	call	??R?$less@I@std@@QBE_NABI0@Z		; std::less<unsigned int>::operator()
	movzx	edx, al
	test	edx, edx
	je	SHORT $LN2@operator@2
$LN1@operator@2:

; 172  : 			_Where = this->insert(_Where,
; 173  : 				value_type(_Keyval, mapped_type()));

	mov	DWORD PTR $T64064[ebp], 0
	mov	eax, DWORD PTR __Where$[ebp]
	mov	DWORD PTR $T64065[ebp], eax
	mov	ecx, DWORD PTR __Where$[ebp+4]
	mov	DWORD PTR $T64065[ebp+4], ecx
	lea	edx, DWORD PTR $T64064[ebp]
	push	edx
	mov	eax, DWORD PTR __Keyval$[ebp]
	push	eax
	lea	ecx, DWORD PTR $T64063[ebp]
	call	??0?$pair@$$CBIPAVHardwareBufferPool@Ogre@@@std@@QAE@ABIABQAVHardwareBufferPool@Ogre@@@Z ; std::pair<unsigned int const ,Ogre::HardwareBufferPool *>::pair<unsigned int const ,Ogre::HardwareBufferPool *>
	push	eax
	mov	ecx, DWORD PTR $T64065[ebp+4]
	push	ecx
	mov	edx, DWORD PTR $T64065[ebp]
	push	edx
	lea	eax, DWORD PTR $T64066[ebp]
	push	eax
	mov	ecx, DWORD PTR _this$[ebp]
	call	?insert@?$_Tree@V?$_Tmap_traits@IPAVHardwareBufferPool@Ogre@@U?$less@I@std@@V?$allocator@U?$pair@$$CBIPAVHardwareBufferPool@Ogre@@@std@@@4@$0A@@std@@@std@@QAE?AViterator@12@Vconst_iterator@12@ABU?$pair@$$CBIPAVHardwareBufferPool@Ogre@@@2@@Z ; std::_Tree<std::_Tmap_traits<unsigned int,Ogre::HardwareBufferPool *,std::less<unsigned int>,std::allocator<std::pair<unsigned int const ,Ogre::HardwareBufferPool *> >,0> >::insert
	mov	ecx, DWORD PTR [eax]
	mov	edx, DWORD PTR [eax+4]
	mov	DWORD PTR __Where$[ebp], ecx
	mov	DWORD PTR __Where$[ebp+4], edx
$LN2@operator@2:

; 174  : 		return ((*_Where).second);

	lea	ecx, DWORD PTR __Where$[ebp]
	call	??Diterator@?$_Tree@V?$_Tmap_traits@IPAVHardwareBufferPool@Ogre@@U?$less@I@std@@V?$allocator@U?$pair@$$CBIPAVHardwareBufferPool@Ogre@@@std@@@4@$0A@@std@@@std@@QBEAAU?$pair@$$CBIPAVHardwareBufferPool@Ogre@@@2@XZ ; std::_Tree<std::_Tmap_traits<unsigned int,Ogre::HardwareBufferPool *,std::less<unsigned int>,std::allocator<std::pair<unsigned int const ,Ogre::HardwareBufferPool *> >,0> >::iterator::operator*
	add	eax, 4

; 175  : 		}

	mov	esp, ebp
	pop	ebp
	ret	4
??A?$map@IPAVHardwareBufferPool@Ogre@@U?$less@I@std@@V?$allocator@U?$pair@$$CBIPAVHardwareBufferPool@Ogre@@@std@@@4@@std@@QAEAAPAVHardwareBufferPool@Ogre@@ABI@Z ENDP ; std::map<unsigned int,Ogre::HardwareBufferPool *,std::less<unsigned int>,std::allocator<std::pair<unsigned int const ,Ogre::HardwareBufferPool *> > >::operator[]
_TEXT	ENDS
PUBLIC	??1?$_Tree_val@V?$_Tmap_traits@IPAVHardwareBufferPool@Ogre@@U?$less@I@std@@V?$allocator@U?$pair@$$CBIPAVHardwareBufferPool@Ogre@@@std@@@4@$0A@@std@@@std@@QAE@XZ ; std::_Tree_val<std::_Tmap_traits<unsigned int,Ogre::HardwareBufferPool *,std::less<unsigned int>,std::allocator<std::pair<unsigned int const ,Ogre::HardwareBufferPool *> >,0> >::~_Tree_val<std::_Tmap_traits<unsigned int,Ogre::HardwareBufferPool *,std::less<unsigned int>,std::allocator<std::pair<unsigned int const ,Ogre::HardwareBufferPool *> >,0> >
PUBLIC	?_Tidy@?$_Tree@V?$_Tmap_traits@IPAVHardwareBufferPool@Ogre@@U?$less@I@std@@V?$allocator@U?$pair@$$CBIPAVHardwareBufferPool@Ogre@@@std@@@4@$0A@@std@@@std@@IAEXXZ ; std::_Tree<std::_Tmap_traits<unsigned int,Ogre::HardwareBufferPool *,std::less<unsigned int>,std::allocator<std::pair<unsigned int const ,Ogre::HardwareBufferPool *> >,0> >::_Tidy
PUBLIC	?_Copy@?$_Tree@V?$_Tmap_traits@IPAVHardwareBufferPool@Ogre@@U?$less@I@std@@V?$allocator@U?$pair@$$CBIPAVHardwareBufferPool@Ogre@@@std@@@4@$0A@@std@@@std@@IAEXABV12@@Z ; std::_Tree<std::_Tmap_traits<unsigned int,Ogre::HardwareBufferPool *,std::less<unsigned int>,std::allocator<std::pair<unsigned int const ,Ogre::HardwareBufferPool *> >,0> >::_Copy
PUBLIC	?_Init@?$_Tree@V?$_Tmap_traits@IPAVHardwareBufferPool@Ogre@@U?$less@I@std@@V?$allocator@U?$pair@$$CBIPAVHardwareBufferPool@Ogre@@@std@@@4@$0A@@std@@@std@@IAEXXZ ; std::_Tree<std::_Tmap_traits<unsigned int,Ogre::HardwareBufferPool *,std::less<unsigned int>,std::allocator<std::pair<unsigned int const ,Ogre::HardwareBufferPool *> >,0> >::_Init
PUBLIC	??0?$_Tree_val@V?$_Tmap_traits@IPAVHardwareBufferPool@Ogre@@U?$less@I@std@@V?$allocator@U?$pair@$$CBIPAVHardwareBufferPool@Ogre@@@std@@@4@$0A@@std@@@std@@IAE@ABU?$less@I@1@V?$allocator@U?$pair@$$CBIPAVHardwareBufferPool@Ogre@@@std@@@1@@Z ; std::_Tree_val<std::_Tmap_traits<unsigned int,Ogre::HardwareBufferPool *,std::less<unsigned int>,std::allocator<std::pair<unsigned int const ,Ogre::HardwareBufferPool *> >,0> >::_Tree_val<std::_Tmap_traits<unsigned int,Ogre::HardwareBufferPool *,std::less<unsigned int>,std::allocator<std::pair<unsigned int const ,Ogre::HardwareBufferPool *> >,0> >
PUBLIC	?key_comp@?$_Tree@V?$_Tmap_traits@IPAVHardwareBufferPool@Ogre@@U?$less@I@std@@V?$allocator@U?$pair@$$CBIPAVHardwareBufferPool@Ogre@@@std@@@4@$0A@@std@@@std@@QBE?AU?$less@I@2@XZ ; std::_Tree<std::_Tmap_traits<unsigned int,Ogre::HardwareBufferPool *,std::less<unsigned int>,std::allocator<std::pair<unsigned int const ,Ogre::HardwareBufferPool *> >,0> >::key_comp
PUBLIC	?get_allocator@?$_Tree@V?$_Tmap_traits@IPAVHardwareBufferPool@Ogre@@U?$less@I@std@@V?$allocator@U?$pair@$$CBIPAVHardwareBufferPool@Ogre@@@std@@@4@$0A@@std@@@std@@QBE?AV?$allocator@U?$pair@$$CBIPAVHardwareBufferPool@Ogre@@@std@@@2@XZ ; std::_Tree<std::_Tmap_traits<unsigned int,Ogre::HardwareBufferPool *,std::less<unsigned int>,std::allocator<std::pair<unsigned int const ,Ogre::HardwareBufferPool *> >,0> >::get_allocator
EXTRN	__CxxThrowException@8:PROC
;	COMDAT xdata$x
; File d:\program files (x86)\microsoft visual studio 9.0\vc\include\xtree
xdata$x	SEGMENT
__catchsym$??0?$_Tree@V?$_Tmap_traits@IPAVHardwareBufferPool@Ogre@@U?$less@I@std@@V?$allocator@U?$pair@$$CBIPAVHardwareBufferPool@Ogre@@@std@@@4@$0A@@std@@@std@@QAE@ABV01@@Z$3 DD 00H
	DD	00H
	DD	00H
	DD	FLAT:__catch$??0?$_Tree@V?$_Tmap_traits@IPAVHardwareBufferPool@Ogre@@U?$less@I@std@@V?$allocator@U?$pair@$$CBIPAVHardwareBufferPool@Ogre@@@std@@@4@$0A@@std@@@std@@QAE@ABV01@@Z$0
__tryblocktable$??0?$_Tree@V?$_Tmap_traits@IPAVHardwareBufferPool@Ogre@@U?$less@I@std@@V?$allocator@U?$pair@$$CBIPAVHardwareBufferPool@Ogre@@@std@@@4@$0A@@std@@@std@@QAE@ABV01@@Z DD 01H
	DD	01H
	DD	02H
	DD	01H
	DD	FLAT:__catchsym$??0?$_Tree@V?$_Tmap_traits@IPAVHardwareBufferPool@Ogre@@U?$less@I@std@@V?$allocator@U?$pair@$$CBIPAVHardwareBufferPool@Ogre@@@std@@@4@$0A@@std@@@std@@QAE@ABV01@@Z$3
__unwindtable$??0?$_Tree@V?$_Tmap_traits@IPAVHardwareBufferPool@Ogre@@U?$less@I@std@@V?$allocator@U?$pair@$$CBIPAVHardwareBufferPool@Ogre@@@std@@@4@$0A@@std@@@std@@QAE@ABV01@@Z DD 0ffffffffH
	DD	FLAT:__unwindfunclet$??0?$_Tree@V?$_Tmap_traits@IPAVHardwareBufferPool@Ogre@@U?$less@I@std@@V?$allocator@U?$pair@$$CBIPAVHardwareBufferPool@Ogre@@@std@@@4@$0A@@std@@@std@@QAE@ABV01@@Z$2
	DD	00H
	DD	00H
	DD	00H
	DD	00H
__ehfuncinfo$??0?$_Tree@V?$_Tmap_traits@IPAVHardwareBufferPool@Ogre@@U?$less@I@std@@V?$allocator@U?$pair@$$CBIPAVHardwareBufferPool@Ogre@@@std@@@4@$0A@@std@@@std@@QAE@ABV01@@Z DD 019930522H
	DD	03H
	DD	FLAT:__unwindtable$??0?$_Tree@V?$_Tmap_traits@IPAVHardwareBufferPool@Ogre@@U?$less@I@std@@V?$allocator@U?$pair@$$CBIPAVHardwareBufferPool@Ogre@@@std@@@4@$0A@@std@@@std@@QAE@ABV01@@Z
	DD	01H
	DD	FLAT:__tryblocktable$??0?$_Tree@V?$_Tmap_traits@IPAVHardwareBufferPool@Ogre@@U?$less@I@std@@V?$allocator@U?$pair@$$CBIPAVHardwareBufferPool@Ogre@@@std@@@4@$0A@@std@@@std@@QAE@ABV01@@Z
	DD	2 DUP(00H)
	DD	00H
	DD	00H
; Function compile flags: /Odtp
xdata$x	ENDS
;	COMDAT ??0?$_Tree@V?$_Tmap_traits@IPAVHardwareBufferPool@Ogre@@U?$less@I@std@@V?$allocator@U?$pair@$$CBIPAVHardwareBufferPool@Ogre@@@std@@@4@$0A@@std@@@std@@QAE@ABV01@@Z
_TEXT	SEGMENT
_this$ = -28						; size = 4
$T64070 = -21						; size = 1
$T64069 = -20						; size = 4
__$EHRec$ = -16						; size = 16
__Right$ = 8						; size = 4
??0?$_Tree@V?$_Tmap_traits@IPAVHardwareBufferPool@Ogre@@U?$less@I@std@@V?$allocator@U?$pair@$$CBIPAVHardwareBufferPool@Ogre@@@std@@@4@$0A@@std@@@std@@QAE@ABV01@@Z PROC ; std::_Tree<std::_Tmap_traits<unsigned int,Ogre::HardwareBufferPool *,std::less<unsigned int>,std::allocator<std::pair<unsigned int const ,Ogre::HardwareBufferPool *> >,0> >::_Tree<std::_Tmap_traits<unsigned int,Ogre::HardwareBufferPool *,std::less<unsigned int>,std::allocator<std::pair<unsigned int const ,Ogre::HardwareBufferPool *> >,0> >, COMDAT
; _this$ = ecx

; 528  : 		{	// construct tree by copying _Right

	push	ebp
	mov	ebp, esp
	push	-1
	push	__ehhandler$??0?$_Tree@V?$_Tmap_traits@IPAVHardwareBufferPool@Ogre@@U?$less@I@std@@V?$allocator@U?$pair@$$CBIPAVHardwareBufferPool@Ogre@@@std@@@4@$0A@@std@@@std@@QAE@ABV01@@Z
	mov	eax, DWORD PTR fs:0
	push	eax
	push	ecx
	sub	esp, 12					; 0000000cH
	push	ebx
	push	esi
	push	edi
	mov	eax, DWORD PTR ___security_cookie
	xor	eax, ebp
	push	eax
	lea	eax, DWORD PTR __$EHRec$[ebp+4]
	mov	DWORD PTR fs:0, eax
	mov	DWORD PTR __$EHRec$[ebp], esp
	mov	DWORD PTR _this$[ebp], ecx
	push	ecx
	mov	eax, esp
	mov	DWORD PTR $T64069[ebp], esp
	push	eax
	mov	ecx, DWORD PTR __Right$[ebp]
	call	?get_allocator@?$_Tree@V?$_Tmap_traits@IPAVHardwareBufferPool@Ogre@@U?$less@I@std@@V?$allocator@U?$pair@$$CBIPAVHardwareBufferPool@Ogre@@@std@@@4@$0A@@std@@@std@@QBE?AV?$allocator@U?$pair@$$CBIPAVHardwareBufferPool@Ogre@@@std@@@2@XZ ; std::_Tree<std::_Tmap_traits<unsigned int,Ogre::HardwareBufferPool *,std::less<unsigned int>,std::allocator<std::pair<unsigned int const ,Ogre::HardwareBufferPool *> >,0> >::get_allocator
	lea	ecx, DWORD PTR $T64070[ebp]
	push	ecx
	mov	ecx, DWORD PTR __Right$[ebp]
	call	?key_comp@?$_Tree@V?$_Tmap_traits@IPAVHardwareBufferPool@Ogre@@U?$less@I@std@@V?$allocator@U?$pair@$$CBIPAVHardwareBufferPool@Ogre@@@std@@@4@$0A@@std@@@std@@QBE?AU?$less@I@2@XZ ; std::_Tree<std::_Tmap_traits<unsigned int,Ogre::HardwareBufferPool *,std::less<unsigned int>,std::allocator<std::pair<unsigned int const ,Ogre::HardwareBufferPool *> >,0> >::key_comp
	push	eax
	mov	ecx, DWORD PTR _this$[ebp]
	call	??0?$_Tree_val@V?$_Tmap_traits@IPAVHardwareBufferPool@Ogre@@U?$less@I@std@@V?$allocator@U?$pair@$$CBIPAVHardwareBufferPool@Ogre@@@std@@@4@$0A@@std@@@std@@IAE@ABU?$less@I@1@V?$allocator@U?$pair@$$CBIPAVHardwareBufferPool@Ogre@@@std@@@1@@Z ; std::_Tree_val<std::_Tmap_traits<unsigned int,Ogre::HardwareBufferPool *,std::less<unsigned int>,std::allocator<std::pair<unsigned int const ,Ogre::HardwareBufferPool *> >,0> >::_Tree_val<std::_Tmap_traits<unsigned int,Ogre::HardwareBufferPool *,std::less<unsigned int>,std::allocator<std::pair<unsigned int const ,Ogre::HardwareBufferPool *> >,0> >
	mov	DWORD PTR __$EHRec$[ebp+12], 0

; 529  : 		_Init();

	mov	ecx, DWORD PTR _this$[ebp]
	call	?_Init@?$_Tree@V?$_Tmap_traits@IPAVHardwareBufferPool@Ogre@@U?$less@I@std@@V?$allocator@U?$pair@$$CBIPAVHardwareBufferPool@Ogre@@@std@@@4@$0A@@std@@@std@@IAEXXZ ; std::_Tree<std::_Tmap_traits<unsigned int,Ogre::HardwareBufferPool *,std::less<unsigned int>,std::allocator<std::pair<unsigned int const ,Ogre::HardwareBufferPool *> >,0> >::_Init

; 530  : 		_TRY_BEGIN

	mov	BYTE PTR __$EHRec$[ebp+12], 1

; 531  : 		_Copy(_Right);

	mov	edx, DWORD PTR __Right$[ebp]
	push	edx
	mov	ecx, DWORD PTR _this$[ebp]
	call	?_Copy@?$_Tree@V?$_Tmap_traits@IPAVHardwareBufferPool@Ogre@@U?$less@I@std@@V?$allocator@U?$pair@$$CBIPAVHardwareBufferPool@Ogre@@@std@@@4@$0A@@std@@@std@@IAEXABV12@@Z ; std::_Tree<std::_Tmap_traits<unsigned int,Ogre::HardwareBufferPool *,std::less<unsigned int>,std::allocator<std::pair<unsigned int const ,Ogre::HardwareBufferPool *> >,0> >::_Copy
	jmp	SHORT $LN4@Tree
__catch$??0?$_Tree@V?$_Tmap_traits@IPAVHardwareBufferPool@Ogre@@U?$less@I@std@@V?$allocator@U?$pair@$$CBIPAVHardwareBufferPool@Ogre@@@std@@@4@$0A@@std@@@std@@QAE@ABV01@@Z$0:

; 532  : 		_CATCH_ALL
; 533  : 		_Tidy();

	mov	ecx, DWORD PTR _this$[ebp]
	call	?_Tidy@?$_Tree@V?$_Tmap_traits@IPAVHardwareBufferPool@Ogre@@U?$less@I@std@@V?$allocator@U?$pair@$$CBIPAVHardwareBufferPool@Ogre@@@std@@@4@$0A@@std@@@std@@IAEXXZ ; std::_Tree<std::_Tmap_traits<unsigned int,Ogre::HardwareBufferPool *,std::less<unsigned int>,std::allocator<std::pair<unsigned int const ,Ogre::HardwareBufferPool *> >,0> >::_Tidy

; 534  : 		_RERAISE;

	push	0
	push	0
	call	__CxxThrowException@8

; 535  : 		_CATCH_END

	mov	DWORD PTR __$EHRec$[ebp+12], 0
	mov	eax, $LN2@Tree
	ret	0
$LN4@Tree:
	mov	DWORD PTR __$EHRec$[ebp+12], 0
$LN2@Tree:

; 536  : 		}

	mov	DWORD PTR __$EHRec$[ebp+12], -1
	mov	eax, DWORD PTR _this$[ebp]
$LN3@Tree:
	mov	ecx, DWORD PTR __$EHRec$[ebp+4]
	mov	DWORD PTR fs:0, ecx
	pop	ecx
	pop	edi
	pop	esi
	pop	ebx
	mov	esp, ebp
	pop	ebp
	ret	4
_TEXT	ENDS
;	COMDAT text$x
text$x	SEGMENT
__unwindfunclet$??0?$_Tree@V?$_Tmap_traits@IPAVHardwareBufferPool@Ogre@@U?$less@I@std@@V?$allocator@U?$pair@$$CBIPAVHardwareBufferPool@Ogre@@@std@@@4@$0A@@std@@@std@@QAE@ABV01@@Z$2:
	mov	ecx, DWORD PTR _this$[ebp]
	jmp	??1?$_Tree_val@V?$_Tmap_traits@IPAVHardwareBufferPool@Ogre@@U?$less@I@std@@V?$allocator@U?$pair@$$CBIPAVHardwareBufferPool@Ogre@@@std@@@4@$0A@@std@@@std@@QAE@XZ
__ehhandler$??0?$_Tree@V?$_Tmap_traits@IPAVHardwareBufferPool@Ogre@@U?$less@I@std@@V?$allocator@U?$pair@$$CBIPAVHardwareBufferPool@Ogre@@@std@@@4@$0A@@std@@@std@@QAE@ABV01@@Z:
	mov	edx, DWORD PTR [esp+8]
	lea	eax, DWORD PTR [edx+12]
	mov	ecx, DWORD PTR [edx-32]
	xor	ecx, eax
	call	@__security_check_cookie@4
	mov	eax, OFFSET __ehfuncinfo$??0?$_Tree@V?$_Tmap_traits@IPAVHardwareBufferPool@Ogre@@U?$less@I@std@@V?$allocator@U?$pair@$$CBIPAVHardwareBufferPool@Ogre@@@std@@@4@$0A@@std@@@std@@QAE@ABV01@@Z
	jmp	___CxxFrameHandler3
text$x	ENDS
??0?$_Tree@V?$_Tmap_traits@IPAVHardwareBufferPool@Ogre@@U?$less@I@std@@V?$allocator@U?$pair@$$CBIPAVHardwareBufferPool@Ogre@@@std@@@4@$0A@@std@@@std@@QAE@ABV01@@Z ENDP ; std::_Tree<std::_Tmap_traits<unsigned int,Ogre::HardwareBufferPool *,std::less<unsigned int>,std::allocator<std::pair<unsigned int const ,Ogre::HardwareBufferPool *> >,0> >::_Tree<std::_Tmap_traits<unsigned int,Ogre::HardwareBufferPool *,std::less<unsigned int>,std::allocator<std::pair<unsigned int const ,Ogre::HardwareBufferPool *> >,0> >
;	COMDAT xdata$x
xdata$x	SEGMENT
__unwindtable$??1?$_Tree@V?$_Tmap_traits@IPAVHardwareBufferPool@Ogre@@U?$less@I@std@@V?$allocator@U?$pair@$$CBIPAVHardwareBufferPool@Ogre@@@std@@@4@$0A@@std@@@std@@QAE@XZ DD 0ffffffffH
	DD	FLAT:__unwindfunclet$??1?$_Tree@V?$_Tmap_traits@IPAVHardwareBufferPool@Ogre@@U?$less@I@std@@V?$allocator@U?$pair@$$CBIPAVHardwareBufferPool@Ogre@@@std@@@4@$0A@@std@@@std@@QAE@XZ$0
__ehfuncinfo$??1?$_Tree@V?$_Tmap_traits@IPAVHardwareBufferPool@Ogre@@U?$less@I@std@@V?$allocator@U?$pair@$$CBIPAVHardwareBufferPool@Ogre@@@std@@@4@$0A@@std@@@std@@QAE@XZ DD 019930522H
	DD	01H
	DD	FLAT:__unwindtable$??1?$_Tree@V?$_Tmap_traits@IPAVHardwareBufferPool@Ogre@@U?$less@I@std@@V?$allocator@U?$pair@$$CBIPAVHardwareBufferPool@Ogre@@@std@@@4@$0A@@std@@@std@@QAE@XZ
	DD	2 DUP(00H)
	DD	2 DUP(00H)
	DD	00H
	DD	00H
; Function compile flags: /Odtp
xdata$x	ENDS
;	COMDAT ??1?$_Tree@V?$_Tmap_traits@IPAVHardwareBufferPool@Ogre@@U?$less@I@std@@V?$allocator@U?$pair@$$CBIPAVHardwareBufferPool@Ogre@@@std@@@4@$0A@@std@@@std@@QAE@XZ
_TEXT	SEGMENT
_this$ = -16						; size = 4
__$EHRec$ = -12						; size = 12
??1?$_Tree@V?$_Tmap_traits@IPAVHardwareBufferPool@Ogre@@U?$less@I@std@@V?$allocator@U?$pair@$$CBIPAVHardwareBufferPool@Ogre@@@std@@@4@$0A@@std@@@std@@QAE@XZ PROC ; std::_Tree<std::_Tmap_traits<unsigned int,Ogre::HardwareBufferPool *,std::less<unsigned int>,std::allocator<std::pair<unsigned int const ,Ogre::HardwareBufferPool *> >,0> >::~_Tree<std::_Tmap_traits<unsigned int,Ogre::HardwareBufferPool *,std::less<unsigned int>,std::allocator<std::pair<unsigned int const ,Ogre::HardwareBufferPool *> >,0> >, COMDAT
; _this$ = ecx

; 539  : 		{	// destroy tree

	push	ebp
	mov	ebp, esp
	push	-1
	push	__ehhandler$??1?$_Tree@V?$_Tmap_traits@IPAVHardwareBufferPool@Ogre@@U?$less@I@std@@V?$allocator@U?$pair@$$CBIPAVHardwareBufferPool@Ogre@@@std@@@4@$0A@@std@@@std@@QAE@XZ
	mov	eax, DWORD PTR fs:0
	push	eax
	push	ecx
	mov	eax, DWORD PTR ___security_cookie
	xor	eax, ebp
	push	eax
	lea	eax, DWORD PTR __$EHRec$[ebp]
	mov	DWORD PTR fs:0, eax
	mov	DWORD PTR _this$[ebp], ecx
	mov	DWORD PTR __$EHRec$[ebp+8], 0

; 540  : 		_Tidy();

	mov	ecx, DWORD PTR _this$[ebp]
	call	?_Tidy@?$_Tree@V?$_Tmap_traits@IPAVHardwareBufferPool@Ogre@@U?$less@I@std@@V?$allocator@U?$pair@$$CBIPAVHardwareBufferPool@Ogre@@@std@@@4@$0A@@std@@@std@@IAEXXZ ; std::_Tree<std::_Tmap_traits<unsigned int,Ogre::HardwareBufferPool *,std::less<unsigned int>,std::allocator<std::pair<unsigned int const ,Ogre::HardwareBufferPool *> >,0> >::_Tidy

; 541  : 		}

	mov	DWORD PTR __$EHRec$[ebp+8], -1
	mov	ecx, DWORD PTR _this$[ebp]
	call	??1?$_Tree_val@V?$_Tmap_traits@IPAVHardwareBufferPool@Ogre@@U?$less@I@std@@V?$allocator@U?$pair@$$CBIPAVHardwareBufferPool@Ogre@@@std@@@4@$0A@@std@@@std@@QAE@XZ
	mov	ecx, DWORD PTR __$EHRec$[ebp]
	mov	DWORD PTR fs:0, ecx
	pop	ecx
	mov	esp, ebp
	pop	ebp
	ret	0
_TEXT	ENDS
;	COMDAT text$x
text$x	SEGMENT
__unwindfunclet$??1?$_Tree@V?$_Tmap_traits@IPAVHardwareBufferPool@Ogre@@U?$less@I@std@@V?$allocator@U?$pair@$$CBIPAVHardwareBufferPool@Ogre@@@std@@@4@$0A@@std@@@std@@QAE@XZ$0:
	mov	ecx, DWORD PTR _this$[ebp]
	jmp	??1?$_Tree_val@V?$_Tmap_traits@IPAVHardwareBufferPool@Ogre@@U?$less@I@std@@V?$allocator@U?$pair@$$CBIPAVHardwareBufferPool@Ogre@@@std@@@4@$0A@@std@@@std@@QAE@XZ
__ehhandler$??1?$_Tree@V?$_Tmap_traits@IPAVHardwareBufferPool@Ogre@@U?$less@I@std@@V?$allocator@U?$pair@$$CBIPAVHardwareBufferPool@Ogre@@@std@@@4@$0A@@std@@@std@@QAE@XZ:
	mov	edx, DWORD PTR [esp+8]
	lea	eax, DWORD PTR [edx+12]
	mov	ecx, DWORD PTR [edx-8]
	xor	ecx, eax
	call	@__security_check_cookie@4
	mov	eax, OFFSET __ehfuncinfo$??1?$_Tree@V?$_Tmap_traits@IPAVHardwareBufferPool@Ogre@@U?$less@I@std@@V?$allocator@U?$pair@$$CBIPAVHardwareBufferPool@Ogre@@@std@@@4@$0A@@std@@@std@@QAE@XZ
	jmp	___CxxFrameHandler3
text$x	ENDS
??1?$_Tree@V?$_Tmap_traits@IPAVHardwareBufferPool@Ogre@@U?$less@I@std@@V?$allocator@U?$pair@$$CBIPAVHardwareBufferPool@Ogre@@@std@@@4@$0A@@std@@@std@@QAE@XZ ENDP ; std::_Tree<std::_Tmap_traits<unsigned int,Ogre::HardwareBufferPool *,std::less<unsigned int>,std::allocator<std::pair<unsigned int const ,Ogre::HardwareBufferPool *> >,0> >::~_Tree<std::_Tmap_traits<unsigned int,Ogre::HardwareBufferPool *,std::less<unsigned int>,std::allocator<std::pair<unsigned int const ,Ogre::HardwareBufferPool *> >,0> >
PUBLIC	?erase@?$_Tree@V?$_Tmap_traits@IPAVHardwareBufferPool@Ogre@@U?$less@I@std@@V?$allocator@U?$pair@$$CBIPAVHardwareBufferPool@Ogre@@@std@@@4@$0A@@std@@@std@@QAE?AViterator@12@Vconst_iterator@12@0@Z ; std::_Tree<std::_Tmap_traits<unsigned int,Ogre::HardwareBufferPool *,std::less<unsigned int>,std::allocator<std::pair<unsigned int const ,Ogre::HardwareBufferPool *> >,0> >::erase
; Function compile flags: /Odtp
;	COMDAT ??4?$_Tree@V?$_Tmap_traits@IPAVHardwareBufferPool@Ogre@@U?$less@I@std@@V?$allocator@U?$pair@$$CBIPAVHardwareBufferPool@Ogre@@@std@@@4@$0A@@std@@@std@@QAEAAV01@ABV01@@Z
_TEXT	SEGMENT
_this$ = -44						; size = 4
$T64101 = -40						; size = 8
$T64100 = -32						; size = 8
$T64099 = -24						; size = 8
$T64098 = -16						; size = 8
$T64097 = -8						; size = 8
__Right$ = 8						; size = 4
??4?$_Tree@V?$_Tmap_traits@IPAVHardwareBufferPool@Ogre@@U?$less@I@std@@V?$allocator@U?$pair@$$CBIPAVHardwareBufferPool@Ogre@@@std@@@4@$0A@@std@@@std@@QAEAAV01@ABV01@@Z PROC ; std::_Tree<std::_Tmap_traits<unsigned int,Ogre::HardwareBufferPool *,std::less<unsigned int>,std::allocator<std::pair<unsigned int const ,Ogre::HardwareBufferPool *> >,0> >::operator=, COMDAT
; _this$ = ecx

; 544  : 		{	// replace contents from _Right

	push	ebp
	mov	ebp, esp
	sub	esp, 44					; 0000002cH
	mov	DWORD PTR _this$[ebp], ecx

; 545  : 		if (this != &_Right)

	mov	eax, DWORD PTR _this$[ebp]
	cmp	eax, DWORD PTR __Right$[ebp]
	je	SHORT $LN1@operator@3

; 546  : 			{	// worth doing
; 547  : 			erase(begin(), end());

	lea	ecx, DWORD PTR $T64098[ebp]
	push	ecx
	mov	ecx, DWORD PTR _this$[ebp]
	call	?end@?$_Tree@V?$_Tmap_traits@IPAVHardwareBufferPool@Ogre@@U?$less@I@std@@V?$allocator@U?$pair@$$CBIPAVHardwareBufferPool@Ogre@@@std@@@4@$0A@@std@@@std@@QAE?AViterator@12@XZ ; std::_Tree<std::_Tmap_traits<unsigned int,Ogre::HardwareBufferPool *,std::less<unsigned int>,std::allocator<std::pair<unsigned int const ,Ogre::HardwareBufferPool *> >,0> >::end
	mov	edx, DWORD PTR [eax]
	mov	eax, DWORD PTR [eax+4]
	mov	DWORD PTR $T64097[ebp], edx
	mov	DWORD PTR $T64097[ebp+4], eax
	lea	ecx, DWORD PTR $T64100[ebp]
	push	ecx
	mov	ecx, DWORD PTR _this$[ebp]
	call	?begin@?$_Tree@V?$_Tmap_traits@IPAVHardwareBufferPool@Ogre@@U?$less@I@std@@V?$allocator@U?$pair@$$CBIPAVHardwareBufferPool@Ogre@@@std@@@4@$0A@@std@@@std@@QAE?AViterator@12@XZ ; std::_Tree<std::_Tmap_traits<unsigned int,Ogre::HardwareBufferPool *,std::less<unsigned int>,std::allocator<std::pair<unsigned int const ,Ogre::HardwareBufferPool *> >,0> >::begin
	mov	edx, DWORD PTR [eax]
	mov	eax, DWORD PTR [eax+4]
	mov	DWORD PTR $T64099[ebp], edx
	mov	DWORD PTR $T64099[ebp+4], eax
	mov	ecx, DWORD PTR $T64097[ebp+4]
	push	ecx
	mov	edx, DWORD PTR $T64097[ebp]
	push	edx
	mov	eax, DWORD PTR $T64099[ebp+4]
	push	eax
	mov	ecx, DWORD PTR $T64099[ebp]
	push	ecx
	lea	edx, DWORD PTR $T64101[ebp]
	push	edx
	mov	ecx, DWORD PTR _this$[ebp]
	call	?erase@?$_Tree@V?$_Tmap_traits@IPAVHardwareBufferPool@Ogre@@U?$less@I@std@@V?$allocator@U?$pair@$$CBIPAVHardwareBufferPool@Ogre@@@std@@@4@$0A@@std@@@std@@QAE?AViterator@12@Vconst_iterator@12@0@Z ; std::_Tree<std::_Tmap_traits<unsigned int,Ogre::HardwareBufferPool *,std::less<unsigned int>,std::allocator<std::pair<unsigned int const ,Ogre::HardwareBufferPool *> >,0> >::erase

; 548  : 			this->comp = _Right.comp;
; 549  : 			_Copy(_Right);

	mov	eax, DWORD PTR __Right$[ebp]
	push	eax
	mov	ecx, DWORD PTR _this$[ebp]
	call	?_Copy@?$_Tree@V?$_Tmap_traits@IPAVHardwareBufferPool@Ogre@@U?$less@I@std@@V?$allocator@U?$pair@$$CBIPAVHardwareBufferPool@Ogre@@@std@@@4@$0A@@std@@@std@@IAEXABV12@@Z ; std::_Tree<std::_Tmap_traits<unsigned int,Ogre::HardwareBufferPool *,std::less<unsigned int>,std::allocator<std::pair<unsigned int const ,Ogre::HardwareBufferPool *> >,0> >::_Copy
$LN1@operator@3:

; 550  : 			}
; 551  : 		return (*this);

	mov	eax, DWORD PTR _this$[ebp]

; 552  : 		}

	mov	esp, ebp
	pop	ebp
	ret	4
??4?$_Tree@V?$_Tmap_traits@IPAVHardwareBufferPool@Ogre@@U?$less@I@std@@V?$allocator@U?$pair@$$CBIPAVHardwareBufferPool@Ogre@@@std@@@4@$0A@@std@@@std@@QAEAAV01@ABV01@@Z ENDP ; std::_Tree<std::_Tmap_traits<unsigned int,Ogre::HardwareBufferPool *,std::less<unsigned int>,std::allocator<std::pair<unsigned int const ,Ogre::HardwareBufferPool *> >,0> >::operator=
_TEXT	ENDS
PUBLIC	??0iterator@?$_Tree@V?$_Tmap_traits@IPAVHardwareBufferPool@Ogre@@U?$less@I@std@@V?$allocator@U?$pair@$$CBIPAVHardwareBufferPool@Ogre@@@std@@@4@$0A@@std@@@std@@QAE@PAU_Node@?$_Tree_nod@V?$_Tmap_traits@IPAVHardwareBufferPool@Ogre@@U?$less@I@std@@V?$allocator@U?$pair@$$CBIPAVHardwareBufferPool@Ogre@@@std@@@4@$0A@@std@@@2@PBV12@@Z ; std::_Tree<std::_Tmap_traits<unsigned int,Ogre::HardwareBufferPool *,std::less<unsigned int>,std::allocator<std::pair<unsigned int const ,Ogre::HardwareBufferPool *> >,0> >::iterator::iterator
PUBLIC	?_Lmost@?$_Tree@V?$_Tmap_traits@IPAVHardwareBufferPool@Ogre@@U?$less@I@std@@V?$allocator@U?$pair@$$CBIPAVHardwareBufferPool@Ogre@@@std@@@4@$0A@@std@@@std@@IBEAAPAU_Node@?$_Tree_nod@V?$_Tmap_traits@IPAVHardwareBufferPool@Ogre@@U?$less@I@std@@V?$allocator@U?$pair@$$CBIPAVHardwareBufferPool@Ogre@@@std@@@4@$0A@@std@@@2@XZ ; std::_Tree<std::_Tmap_traits<unsigned int,Ogre::HardwareBufferPool *,std::less<unsigned int>,std::allocator<std::pair<unsigned int const ,Ogre::HardwareBufferPool *> >,0> >::_Lmost
; Function compile flags: /Odtp
;	COMDAT ?begin@?$_Tree@V?$_Tmap_traits@IPAVHardwareBufferPool@Ogre@@U?$less@I@std@@V?$allocator@U?$pair@$$CBIPAVHardwareBufferPool@Ogre@@@std@@@4@$0A@@std@@@std@@QAE?AViterator@12@XZ
_TEXT	SEGMENT
_this$ = -4						; size = 4
___$ReturnUdt$ = 8					; size = 4
?begin@?$_Tree@V?$_Tmap_traits@IPAVHardwareBufferPool@Ogre@@U?$less@I@std@@V?$allocator@U?$pair@$$CBIPAVHardwareBufferPool@Ogre@@@std@@@4@$0A@@std@@@std@@QAE?AViterator@12@XZ PROC ; std::_Tree<std::_Tmap_traits<unsigned int,Ogre::HardwareBufferPool *,std::less<unsigned int>,std::allocator<std::pair<unsigned int const ,Ogre::HardwareBufferPool *> >,0> >::begin, COMDAT
; _this$ = ecx

; 555  : 		{	// return iterator for beginning of mutable sequence

	push	ebp
	mov	ebp, esp
	push	ecx
	mov	DWORD PTR _this$[ebp], ecx

; 556  : 		return (_TREE_ITERATOR(_Lmost()));

	mov	eax, DWORD PTR _this$[ebp]
	push	eax
	mov	ecx, DWORD PTR _this$[ebp]
	call	?_Lmost@?$_Tree@V?$_Tmap_traits@IPAVHardwareBufferPool@Ogre@@U?$less@I@std@@V?$allocator@U?$pair@$$CBIPAVHardwareBufferPool@Ogre@@@std@@@4@$0A@@std@@@std@@IBEAAPAU_Node@?$_Tree_nod@V?$_Tmap_traits@IPAVHardwareBufferPool@Ogre@@U?$less@I@std@@V?$allocator@U?$pair@$$CBIPAVHardwareBufferPool@Ogre@@@std@@@4@$0A@@std@@@2@XZ ; std::_Tree<std::_Tmap_traits<unsigned int,Ogre::HardwareBufferPool *,std::less<unsigned int>,std::allocator<std::pair<unsigned int const ,Ogre::HardwareBufferPool *> >,0> >::_Lmost
	mov	ecx, DWORD PTR [eax]
	push	ecx
	mov	ecx, DWORD PTR ___$ReturnUdt$[ebp]
	call	??0iterator@?$_Tree@V?$_Tmap_traits@IPAVHardwareBufferPool@Ogre@@U?$less@I@std@@V?$allocator@U?$pair@$$CBIPAVHardwareBufferPool@Ogre@@@std@@@4@$0A@@std@@@std@@QAE@PAU_Node@?$_Tree_nod@V?$_Tmap_traits@IPAVHardwareBufferPool@Ogre@@U?$less@I@std@@V?$allocator@U?$pair@$$CBIPAVHardwareBufferPool@Ogre@@@std@@@4@$0A@@std@@@2@PBV12@@Z ; std::_Tree<std::_Tmap_traits<unsigned int,Ogre::HardwareBufferPool *,std::less<unsigned int>,std::allocator<std::pair<unsigned int const ,Ogre::HardwareBufferPool *> >,0> >::iterator::iterator
	mov	eax, DWORD PTR ___$ReturnUdt$[ebp]

; 557  : 		}

	mov	esp, ebp
	pop	ebp
	ret	4
?begin@?$_Tree@V?$_Tmap_traits@IPAVHardwareBufferPool@Ogre@@U?$less@I@std@@V?$allocator@U?$pair@$$CBIPAVHardwareBufferPool@Ogre@@@std@@@4@$0A@@std@@@std@@QAE?AViterator@12@XZ ENDP ; std::_Tree<std::_Tmap_traits<unsigned int,Ogre::HardwareBufferPool *,std::less<unsigned int>,std::allocator<std::pair<unsigned int const ,Ogre::HardwareBufferPool *> >,0> >::begin
; Function compile flags: /Odtp
_TEXT	ENDS
;	COMDAT ?end@?$_Tree@V?$_Tmap_traits@IPAVHardwareBufferPool@Ogre@@U?$less@I@std@@V?$allocator@U?$pair@$$CBIPAVHardwareBufferPool@Ogre@@@std@@@4@$0A@@std@@@std@@QAE?AViterator@12@XZ
_TEXT	SEGMENT
_this$ = -4						; size = 4
___$ReturnUdt$ = 8					; size = 4
?end@?$_Tree@V?$_Tmap_traits@IPAVHardwareBufferPool@Ogre@@U?$less@I@std@@V?$allocator@U?$pair@$$CBIPAVHardwareBufferPool@Ogre@@@std@@@4@$0A@@std@@@std@@QAE?AViterator@12@XZ PROC ; std::_Tree<std::_Tmap_traits<unsigned int,Ogre::HardwareBufferPool *,std::less<unsigned int>,std::allocator<std::pair<unsigned int const ,Ogre::HardwareBufferPool *> >,0> >::end, COMDAT
; _this$ = ecx

; 565  : 		{	// return iterator for end of mutable sequence

	push	ebp
	mov	ebp, esp
	push	ecx
	mov	DWORD PTR _this$[ebp], ecx

; 566  : 		return (_TREE_ITERATOR(_Myhead));

	mov	eax, DWORD PTR _this$[ebp]
	push	eax
	mov	ecx, DWORD PTR _this$[ebp]
	mov	edx, DWORD PTR [ecx+24]
	push	edx
	mov	ecx, DWORD PTR ___$ReturnUdt$[ebp]
	call	??0iterator@?$_Tree@V?$_Tmap_traits@IPAVHardwareBufferPool@Ogre@@U?$less@I@std@@V?$allocator@U?$pair@$$CBIPAVHardwareBufferPool@Ogre@@@std@@@4@$0A@@std@@@std@@QAE@PAU_Node@?$_Tree_nod@V?$_Tmap_traits@IPAVHardwareBufferPool@Ogre@@U?$less@I@std@@V?$allocator@U?$pair@$$CBIPAVHardwareBufferPool@Ogre@@@std@@@4@$0A@@std@@@2@PBV12@@Z ; std::_Tree<std::_Tmap_traits<unsigned int,Ogre::HardwareBufferPool *,std::less<unsigned int>,std::allocator<std::pair<unsigned int const ,Ogre::HardwareBufferPool *> >,0> >::iterator::iterator
	mov	eax, DWORD PTR ___$ReturnUdt$[ebp]

; 567  : 		}

	mov	esp, ebp
	pop	ebp
	ret	4
?end@?$_Tree@V?$_Tmap_traits@IPAVHardwareBufferPool@Ogre@@U?$less@I@std@@V?$allocator@U?$pair@$$CBIPAVHardwareBufferPool@Ogre@@@std@@@4@$0A@@std@@@std@@QAE?AViterator@12@XZ ENDP ; std::_Tree<std::_Tmap_traits<unsigned int,Ogre::HardwareBufferPool *,std::less<unsigned int>,std::allocator<std::pair<unsigned int const ,Ogre::HardwareBufferPool *> >,0> >::end
; Function compile flags: /Odtp
_TEXT	ENDS
;	COMDAT ?find@?$_Tree@V?$_Tmap_traits@IPAVHardwareBufferPool@Ogre@@U?$less@I@std@@V?$allocator@U?$pair@$$CBIPAVHardwareBufferPool@Ogre@@@std@@@4@$0A@@std@@@std@@QAE?AViterator@12@ABI@Z
_TEXT	SEGMENT
tv137 = -36						; size = 4
_this$ = -32						; size = 4
$T64111 = -28						; size = 8
$T64109 = -20						; size = 8
$T64108 = -12						; size = 4
__Where$ = -8						; size = 8
___$ReturnUdt$ = 8					; size = 4
__Keyval$ = 12						; size = 4
?find@?$_Tree@V?$_Tmap_traits@IPAVHardwareBufferPool@Ogre@@U?$less@I@std@@V?$allocator@U?$pair@$$CBIPAVHardwareBufferPool@Ogre@@@std@@@4@$0A@@std@@@std@@QAE?AViterator@12@ABI@Z PROC ; std::_Tree<std::_Tmap_traits<unsigned int,Ogre::HardwareBufferPool *,std::less<unsigned int>,std::allocator<std::pair<unsigned int const ,Ogre::HardwareBufferPool *> >,0> >::find, COMDAT
; _this$ = ecx

; 977  : 		{	// find an element in mutable sequence that matches _Keyval

	push	ebp
	mov	ebp, esp
	sub	esp, 36					; 00000024H
	mov	DWORD PTR _this$[ebp], ecx

; 978  : 		iterator _Where = lower_bound(_Keyval);

	mov	eax, DWORD PTR __Keyval$[ebp]
	push	eax
	lea	ecx, DWORD PTR __Where$[ebp]
	push	ecx
	mov	ecx, DWORD PTR _this$[ebp]
	call	?lower_bound@?$_Tree@V?$_Tmap_traits@IPAVHardwareBufferPool@Ogre@@U?$less@I@std@@V?$allocator@U?$pair@$$CBIPAVHardwareBufferPool@Ogre@@@std@@@4@$0A@@std@@@std@@QAE?AViterator@12@ABI@Z ; std::_Tree<std::_Tmap_traits<unsigned int,Ogre::HardwareBufferPool *,std::less<unsigned int>,std::allocator<std::pair<unsigned int const ,Ogre::HardwareBufferPool *> >,0> >::lower_bound

; 979  : 		return (_Where == end()
; 980  : 			|| _DEBUG_LT_PRED(this->comp,
; 981  : 				_Keyval, _Key(_Where._Mynode()))
; 982  : 					? end() : _Where);

	lea	edx, DWORD PTR $T64109[ebp]
	push	edx
	mov	ecx, DWORD PTR _this$[ebp]
	call	?end@?$_Tree@V?$_Tmap_traits@IPAVHardwareBufferPool@Ogre@@U?$less@I@std@@V?$allocator@U?$pair@$$CBIPAVHardwareBufferPool@Ogre@@@std@@@4@$0A@@std@@@std@@QAE?AViterator@12@XZ ; std::_Tree<std::_Tmap_traits<unsigned int,Ogre::HardwareBufferPool *,std::less<unsigned int>,std::allocator<std::pair<unsigned int const ,Ogre::HardwareBufferPool *> >,0> >::end
	push	eax
	lea	ecx, DWORD PTR __Where$[ebp]
	call	??8const_iterator@?$_Tree@V?$_Tmap_traits@IPAVHardwareBufferPool@Ogre@@U?$less@I@std@@V?$allocator@U?$pair@$$CBIPAVHardwareBufferPool@Ogre@@@std@@@4@$0A@@std@@@std@@QBE_NABV012@@Z ; std::_Tree<std::_Tmap_traits<unsigned int,Ogre::HardwareBufferPool *,std::less<unsigned int>,std::allocator<std::pair<unsigned int const ,Ogre::HardwareBufferPool *> >,0> >::const_iterator::operator==
	movzx	eax, al
	test	eax, eax
	jne	SHORT $LN3@find
	lea	ecx, DWORD PTR __Where$[ebp]
	call	?_Mynode@const_iterator@?$_Tree@V?$_Tmap_traits@IPAVHardwareBufferPool@Ogre@@U?$less@I@std@@V?$allocator@U?$pair@$$CBIPAVHardwareBufferPool@Ogre@@@std@@@4@$0A@@std@@@std@@QBEPAU_Node@?$_Tree_nod@V?$_Tmap_traits@IPAVHardwareBufferPool@Ogre@@U?$less@I@std@@V?$allocator@U?$pair@$$CBIPAVHardwareBufferPool@Ogre@@@std@@@4@$0A@@std@@@3@XZ ; std::_Tree<std::_Tmap_traits<unsigned int,Ogre::HardwareBufferPool *,std::less<unsigned int>,std::allocator<std::pair<unsigned int const ,Ogre::HardwareBufferPool *> >,0> >::const_iterator::_Mynode
	push	eax
	call	?_Key@?$_Tree@V?$_Tmap_traits@IPAVHardwareBufferPool@Ogre@@U?$less@I@std@@V?$allocator@U?$pair@$$CBIPAVHardwareBufferPool@Ogre@@@std@@@4@$0A@@std@@@std@@KAABIPAU_Node@?$_Tree_nod@V?$_Tmap_traits@IPAVHardwareBufferPool@Ogre@@U?$less@I@std@@V?$allocator@U?$pair@$$CBIPAVHardwareBufferPool@Ogre@@@std@@@4@$0A@@std@@@2@@Z ; std::_Tree<std::_Tmap_traits<unsigned int,Ogre::HardwareBufferPool *,std::less<unsigned int>,std::allocator<std::pair<unsigned int const ,Ogre::HardwareBufferPool *> >,0> >::_Key
	add	esp, 4
	push	eax
	mov	ecx, DWORD PTR __Keyval$[ebp]
	push	ecx
	mov	ecx, DWORD PTR _this$[ebp]
	add	ecx, 8
	call	??R?$less@I@std@@QBE_NABI0@Z		; std::less<unsigned int>::operator()
	movzx	edx, al
	test	edx, edx
	jne	SHORT $LN3@find
	lea	eax, DWORD PTR __Where$[ebp]
	mov	DWORD PTR tv137[ebp], eax
	jmp	SHORT $LN4@find
$LN3@find:
	lea	ecx, DWORD PTR $T64111[ebp]
	push	ecx
	mov	ecx, DWORD PTR _this$[ebp]
	call	?end@?$_Tree@V?$_Tmap_traits@IPAVHardwareBufferPool@Ogre@@U?$less@I@std@@V?$allocator@U?$pair@$$CBIPAVHardwareBufferPool@Ogre@@@std@@@4@$0A@@std@@@std@@QAE?AViterator@12@XZ ; std::_Tree<std::_Tmap_traits<unsigned int,Ogre::HardwareBufferPool *,std::less<unsigned int>,std::allocator<std::pair<unsigned int const ,Ogre::HardwareBufferPool *> >,0> >::end
	mov	DWORD PTR tv137[ebp], eax
$LN4@find:
	mov	edx, DWORD PTR tv137[ebp]
	mov	DWORD PTR $T64108[ebp], edx
	mov	eax, DWORD PTR $T64108[ebp]
	mov	ecx, DWORD PTR [eax]
	mov	edx, DWORD PTR [eax+4]
	mov	eax, DWORD PTR ___$ReturnUdt$[ebp]
	mov	DWORD PTR [eax], ecx
	mov	DWORD PTR [eax+4], edx
	mov	eax, DWORD PTR ___$ReturnUdt$[ebp]

; 983  : 		}

	mov	esp, ebp
	pop	ebp
	ret	8
?find@?$_Tree@V?$_Tmap_traits@IPAVHardwareBufferPool@Ogre@@U?$less@I@std@@V?$allocator@U?$pair@$$CBIPAVHardwareBufferPool@Ogre@@@std@@@4@$0A@@std@@@std@@QAE?AViterator@12@ABI@Z ENDP ; std::_Tree<std::_Tmap_traits<unsigned int,Ogre::HardwareBufferPool *,std::less<unsigned int>,std::allocator<std::pair<unsigned int const ,Ogre::HardwareBufferPool *> >,0> >::find
; Function compile flags: /Odtp
_TEXT	ENDS
;	COMDAT ??Citerator@?$_Tree@V?$_Tmap_traits@IPAVHardwareBufferPool@Ogre@@U?$less@I@std@@V?$allocator@U?$pair@$$CBIPAVHardwareBufferPool@Ogre@@@std@@@4@$0A@@std@@@std@@QBEPAU?$pair@$$CBIPAVHardwareBufferPool@Ogre@@@2@XZ
_TEXT	SEGMENT
_this$ = -4						; size = 4
??Citerator@?$_Tree@V?$_Tmap_traits@IPAVHardwareBufferPool@Ogre@@U?$less@I@std@@V?$allocator@U?$pair@$$CBIPAVHardwareBufferPool@Ogre@@@std@@@4@$0A@@std@@@std@@QBEPAU?$pair@$$CBIPAVHardwareBufferPool@Ogre@@@2@XZ PROC ; std::_Tree<std::_Tmap_traits<unsigned int,Ogre::HardwareBufferPool *,std::less<unsigned int>,std::allocator<std::pair<unsigned int const ,Ogre::HardwareBufferPool *> >,0> >::iterator::operator->, COMDAT
; _this$ = ecx

; 469  : 			{	// return pointer to class object

	push	ebp
	mov	ebp, esp
	push	ecx
	mov	DWORD PTR _this$[ebp], ecx

; 470  : 			return (&**this);

	mov	ecx, DWORD PTR _this$[ebp]
	call	??Diterator@?$_Tree@V?$_Tmap_traits@IPAVHardwareBufferPool@Ogre@@U?$less@I@std@@V?$allocator@U?$pair@$$CBIPAVHardwareBufferPool@Ogre@@@std@@@4@$0A@@std@@@std@@QBEAAU?$pair@$$CBIPAVHardwareBufferPool@Ogre@@@2@XZ ; std::_Tree<std::_Tmap_traits<unsigned int,Ogre::HardwareBufferPool *,std::less<unsigned int>,std::allocator<std::pair<unsigned int const ,Ogre::HardwareBufferPool *> >,0> >::iterator::operator*

; 471  : 			}

	mov	esp, ebp
	pop	ebp
	ret	0
??Citerator@?$_Tree@V?$_Tmap_traits@IPAVHardwareBufferPool@Ogre@@U?$less@I@std@@V?$allocator@U?$pair@$$CBIPAVHardwareBufferPool@Ogre@@@std@@@4@$0A@@std@@@std@@QBEPAU?$pair@$$CBIPAVHardwareBufferPool@Ogre@@@2@XZ ENDP ; std::_Tree<std::_Tmap_traits<unsigned int,Ogre::HardwareBufferPool *,std::less<unsigned int>,std::allocator<std::pair<unsigned int const ,Ogre::HardwareBufferPool *> >,0> >::iterator::operator->
_TEXT	ENDS
PUBLIC	??Eiterator@?$_Tree@V?$_Tmap_traits@IPAVHardwareBufferPool@Ogre@@U?$less@I@std@@V?$allocator@U?$pair@$$CBIPAVHardwareBufferPool@Ogre@@@std@@@4@$0A@@std@@@std@@QAEAAV012@XZ ; std::_Tree<std::_Tmap_traits<unsigned int,Ogre::HardwareBufferPool *,std::less<unsigned int>,std::allocator<std::pair<unsigned int const ,Ogre::HardwareBufferPool *> >,0> >::iterator::operator++
; Function compile flags: /Odtp
;	COMDAT ??Eiterator@?$_Tree@V?$_Tmap_traits@IPAVHardwareBufferPool@Ogre@@U?$less@I@std@@V?$allocator@U?$pair@$$CBIPAVHardwareBufferPool@Ogre@@@std@@@4@$0A@@std@@@std@@QAE?AV012@H@Z
_TEXT	SEGMENT
_this$ = -12						; size = 4
__Tmp$ = -8						; size = 8
___$ReturnUdt$ = 8					; size = 4
___formal$ = 12						; size = 4
??Eiterator@?$_Tree@V?$_Tmap_traits@IPAVHardwareBufferPool@Ogre@@U?$less@I@std@@V?$allocator@U?$pair@$$CBIPAVHardwareBufferPool@Ogre@@@std@@@4@$0A@@std@@@std@@QAE?AV012@H@Z PROC ; std::_Tree<std::_Tmap_traits<unsigned int,Ogre::HardwareBufferPool *,std::less<unsigned int>,std::allocator<std::pair<unsigned int const ,Ogre::HardwareBufferPool *> >,0> >::iterator::operator++, COMDAT
; _this$ = ecx

; 480  : 			{	// postincrement

	push	ebp
	mov	ebp, esp
	sub	esp, 12					; 0000000cH
	mov	DWORD PTR _this$[ebp], ecx

; 481  : 			iterator _Tmp = *this;

	mov	eax, DWORD PTR _this$[ebp]
	mov	ecx, DWORD PTR [eax]
	mov	edx, DWORD PTR [eax+4]
	mov	DWORD PTR __Tmp$[ebp], ecx
	mov	DWORD PTR __Tmp$[ebp+4], edx

; 482  : 			++*this;

	mov	ecx, DWORD PTR _this$[ebp]
	call	??Eiterator@?$_Tree@V?$_Tmap_traits@IPAVHardwareBufferPool@Ogre@@U?$less@I@std@@V?$allocator@U?$pair@$$CBIPAVHardwareBufferPool@Ogre@@@std@@@4@$0A@@std@@@std@@QAEAAV012@XZ ; std::_Tree<std::_Tmap_traits<unsigned int,Ogre::HardwareBufferPool *,std::less<unsigned int>,std::allocator<std::pair<unsigned int const ,Ogre::HardwareBufferPool *> >,0> >::iterator::operator++

; 483  : 			return (_Tmp);

	mov	eax, DWORD PTR ___$ReturnUdt$[ebp]
	mov	ecx, DWORD PTR __Tmp$[ebp]
	mov	DWORD PTR [eax], ecx
	mov	edx, DWORD PTR __Tmp$[ebp+4]
	mov	DWORD PTR [eax+4], edx
	mov	eax, DWORD PTR ___$ReturnUdt$[ebp]

; 484  : 			}

	mov	esp, ebp
	pop	ebp
	ret	8
??Eiterator@?$_Tree@V?$_Tmap_traits@IPAVHardwareBufferPool@Ogre@@U?$less@I@std@@V?$allocator@U?$pair@$$CBIPAVHardwareBufferPool@Ogre@@@std@@@4@$0A@@std@@@std@@QAE?AV012@H@Z ENDP ; std::_Tree<std::_Tmap_traits<unsigned int,Ogre::HardwareBufferPool *,std::less<unsigned int>,std::allocator<std::pair<unsigned int const ,Ogre::HardwareBufferPool *> >,0> >::iterator::operator++
_TEXT	ENDS
PUBLIC	?_Same_container@_Iterator_base_aux@std@@QBE_NABV12@@Z ; std::_Iterator_base_aux::_Same_container
PUBLIC	?_Has_container@_Iterator_base_aux@std@@QBE_NXZ	; std::_Iterator_base_aux::_Has_container
EXTRN	__imp___invalid_parameter_noinfo:PROC
; Function compile flags: /Odtp
;	COMDAT ??8const_iterator@?$_Tree@V?$_Tmap_traits@IPAVHardwareBufferPool@Ogre@@U?$less@I@std@@V?$allocator@U?$pair@$$CBIPAVHardwareBufferPool@Ogre@@@std@@@4@$0A@@std@@@std@@QBE_NABV012@@Z
_TEXT	SEGMENT
_this$ = -4						; size = 4
__Right$ = 8						; size = 4
??8const_iterator@?$_Tree@V?$_Tmap_traits@IPAVHardwareBufferPool@Ogre@@U?$less@I@std@@V?$allocator@U?$pair@$$CBIPAVHardwareBufferPool@Ogre@@@std@@@4@$0A@@std@@@std@@QBE_NABV012@@Z PROC ; std::_Tree<std::_Tmap_traits<unsigned int,Ogre::HardwareBufferPool *,std::less<unsigned int>,std::allocator<std::pair<unsigned int const ,Ogre::HardwareBufferPool *> >,0> >::const_iterator::operator==, COMDAT
; _this$ = ecx

; 299  : 			{	// test for iterator equality

	push	ebp
	mov	ebp, esp
	push	ecx
	mov	DWORD PTR _this$[ebp], ecx

; 300  : 
; 301  :  #if _HAS_ITERATOR_DEBUGGING
; 302  : 			if (this->_Mycont == 0 || this->_Mycont != _Right._Mycont)
; 303  : 				{
; 304  : 				_DEBUG_ERROR("map/set iterators incompatible");
; 305  : 				_SCL_SECURE_INVALID_ARGUMENT;
; 306  : 				}
; 307  :  #else
; 308  : 			_SCL_SECURE_VALIDATE(this->_Has_container() && this->_Same_container(_Right));

	mov	ecx, DWORD PTR _this$[ebp]
	call	?_Has_container@_Iterator_base_aux@std@@QBE_NXZ ; std::_Iterator_base_aux::_Has_container
	movzx	eax, al
	test	eax, eax
	je	SHORT $LN1@operator@4
	mov	ecx, DWORD PTR __Right$[ebp]
	push	ecx
	mov	ecx, DWORD PTR _this$[ebp]
	call	?_Same_container@_Iterator_base_aux@std@@QBE_NABV12@@Z ; std::_Iterator_base_aux::_Same_container
	movzx	edx, al
	test	edx, edx
	jne	SHORT $LN2@operator@4
$LN1@operator@4:
	call	DWORD PTR __imp___invalid_parameter_noinfo
$LN2@operator@4:

; 309  :  #endif /* _HAS_ITERATOR_DEBUGGING */
; 310  : 
; 311  : 			return (_Ptr == _Right._Ptr);

	mov	eax, DWORD PTR _this$[ebp]
	mov	ecx, DWORD PTR __Right$[ebp]
	mov	edx, DWORD PTR [eax+4]
	xor	eax, eax
	cmp	edx, DWORD PTR [ecx+4]
	sete	al

; 312  : 			}

	mov	esp, ebp
	pop	ebp
	ret	4
??8const_iterator@?$_Tree@V?$_Tmap_traits@IPAVHardwareBufferPool@Ogre@@U?$less@I@std@@V?$allocator@U?$pair@$$CBIPAVHardwareBufferPool@Ogre@@@std@@@4@$0A@@std@@@std@@QBE_NABV012@@Z ENDP ; std::_Tree<std::_Tmap_traits<unsigned int,Ogre::HardwareBufferPool *,std::less<unsigned int>,std::allocator<std::pair<unsigned int const ,Ogre::HardwareBufferPool *> >,0> >::const_iterator::operator==
; Function compile flags: /Odtp
; File d:\program files (x86)\microsoft visual studio 9.0\vc\include\xutility
_TEXT	ENDS
;	COMDAT ?_Same_container@_Iterator_base_aux@std@@QBE_NABV12@@Z
_TEXT	SEGMENT
_this$ = -4						; size = 4
__Other$ = 8						; size = 4
?_Same_container@_Iterator_base_aux@std@@QBE_NABV12@@Z PROC ; std::_Iterator_base_aux::_Same_container, COMDAT
; _this$ = ecx

; 462  : 		{	// Accelerate the comparison by not going through the aux object

	push	ebp
	mov	ebp, esp
	push	ecx
	mov	DWORD PTR _this$[ebp], ecx

; 463  : 		return _Myaux == _Other._Myaux;

	mov	eax, DWORD PTR _this$[ebp]
	mov	ecx, DWORD PTR __Other$[ebp]
	mov	edx, DWORD PTR [eax]
	xor	eax, eax
	cmp	edx, DWORD PTR [ecx]
	sete	al

; 464  : 		}

	mov	esp, ebp
	pop	ebp
	ret	4
?_Same_container@_Iterator_base_aux@std@@QBE_NABV12@@Z ENDP ; std::_Iterator_base_aux::_Same_container
; Function compile flags: /Odtp
_TEXT	ENDS
;	COMDAT ?_Has_container@_Iterator_base_aux@std@@QBE_NXZ
_TEXT	SEGMENT
_this$ = -4						; size = 4
?_Has_container@_Iterator_base_aux@std@@QBE_NXZ PROC	; std::_Iterator_base_aux::_Has_container, COMDAT
; _this$ = ecx

; 467  : 		{	// Accelerate the comparison by not going through the aux object

	push	ebp
	mov	ebp, esp
	push	ecx
	mov	DWORD PTR _this$[ebp], ecx

; 468  : 		return _Myaux != 0;

	mov	eax, DWORD PTR _this$[ebp]
	xor	ecx, ecx
	cmp	DWORD PTR [eax], 0
	setne	cl
	mov	al, cl

; 469  : 		}

	mov	esp, ebp
	pop	ebp
	ret	0
?_Has_container@_Iterator_base_aux@std@@QBE_NXZ ENDP	; std::_Iterator_base_aux::_Has_container
; Function compile flags: /Odtp
; File d:\program files (x86)\microsoft visual studio 9.0\vc\include\xtree
_TEXT	ENDS
;	COMDAT ??9const_iterator@?$_Tree@V?$_Tmap_traits@IPAVHardwareBufferPool@Ogre@@U?$less@I@std@@V?$allocator@U?$pair@$$CBIPAVHardwareBufferPool@Ogre@@@std@@@4@$0A@@std@@@std@@QBE_NABV012@@Z
_TEXT	SEGMENT
_this$ = -4						; size = 4
__Right$ = 8						; size = 4
??9const_iterator@?$_Tree@V?$_Tmap_traits@IPAVHardwareBufferPool@Ogre@@U?$less@I@std@@V?$allocator@U?$pair@$$CBIPAVHardwareBufferPool@Ogre@@@std@@@4@$0A@@std@@@std@@QBE_NABV012@@Z PROC ; std::_Tree<std::_Tmap_traits<unsigned int,Ogre::HardwareBufferPool *,std::less<unsigned int>,std::allocator<std::pair<unsigned int const ,Ogre::HardwareBufferPool *> >,0> >::const_iterator::operator!=, COMDAT
; _this$ = ecx

; 315  : 			{	// test for iterator inequality

	push	ebp
	mov	ebp, esp
	push	ecx
	mov	DWORD PTR _this$[ebp], ecx

; 316  : 			return (!(*this == _Right));

	mov	eax, DWORD PTR __Right$[ebp]
	push	eax
	mov	ecx, DWORD PTR _this$[ebp]
	call	??8const_iterator@?$_Tree@V?$_Tmap_traits@IPAVHardwareBufferPool@Ogre@@U?$less@I@std@@V?$allocator@U?$pair@$$CBIPAVHardwareBufferPool@Ogre@@@std@@@4@$0A@@std@@@std@@QBE_NABV012@@Z ; std::_Tree<std::_Tmap_traits<unsigned int,Ogre::HardwareBufferPool *,std::less<unsigned int>,std::allocator<std::pair<unsigned int const ,Ogre::HardwareBufferPool *> >,0> >::const_iterator::operator==
	movzx	eax, al
	neg	eax
	sbb	eax, eax
	add	eax, 1

; 317  : 			}

	mov	esp, ebp
	pop	ebp
	ret	4
??9const_iterator@?$_Tree@V?$_Tmap_traits@IPAVHardwareBufferPool@Ogre@@U?$less@I@std@@V?$allocator@U?$pair@$$CBIPAVHardwareBufferPool@Ogre@@@std@@@4@$0A@@std@@@std@@QBE_NABV012@@Z ENDP ; std::_Tree<std::_Tmap_traits<unsigned int,Ogre::HardwareBufferPool *,std::less<unsigned int>,std::allocator<std::pair<unsigned int const ,Ogre::HardwareBufferPool *> >,0> >::const_iterator::operator!=
_TEXT	ENDS
PUBLIC	??1?$_Tree_ptr@V?$_Tmap_traits@IPAVHardwareBufferPool@Ogre@@U?$less@I@std@@V?$allocator@U?$pair@$$CBIPAVHardwareBufferPool@Ogre@@@std@@@4@$0A@@std@@@std@@QAE@XZ ; std::_Tree_ptr<std::_Tmap_traits<unsigned int,Ogre::HardwareBufferPool *,std::less<unsigned int>,std::allocator<std::pair<unsigned int const ,Ogre::HardwareBufferPool *> >,0> >::~_Tree_ptr<std::_Tmap_traits<unsigned int,Ogre::HardwareBufferPool *,std::less<unsigned int>,std::allocator<std::pair<unsigned int const ,Ogre::HardwareBufferPool *> >,0> >
;	COMDAT xdata$x
xdata$x	SEGMENT
__unwindtable$??1?$_Tree_val@V?$_Tmap_traits@IPAVHardwareBufferPool@Ogre@@U?$less@I@std@@V?$allocator@U?$pair@$$CBIPAVHardwareBufferPool@Ogre@@@std@@@4@$0A@@std@@@std@@QAE@XZ DD 0ffffffffH
	DD	FLAT:__unwindfunclet$??1?$_Tree_val@V?$_Tmap_traits@IPAVHardwareBufferPool@Ogre@@U?$less@I@std@@V?$allocator@U?$pair@$$CBIPAVHardwareBufferPool@Ogre@@@std@@@4@$0A@@std@@@std@@QAE@XZ$0
__ehfuncinfo$??1?$_Tree_val@V?$_Tmap_traits@IPAVHardwareBufferPool@Ogre@@U?$less@I@std@@V?$allocator@U?$pair@$$CBIPAVHardwareBufferPool@Ogre@@@std@@@4@$0A@@std@@@std@@QAE@XZ DD 019930522H
	DD	01H
	DD	FLAT:__unwindtable$??1?$_Tree_val@V?$_Tmap_traits@IPAVHardwareBufferPool@Ogre@@U?$less@I@std@@V?$allocator@U?$pair@$$CBIPAVHardwareBufferPool@Ogre@@@std@@@4@$0A@@std@@@std@@QAE@XZ
	DD	2 DUP(00H)
	DD	2 DUP(00H)
	DD	00H
	DD	00H
; Function compile flags: /Odtp
xdata$x	ENDS
;	COMDAT ??1?$_Tree_val@V?$_Tmap_traits@IPAVHardwareBufferPool@Ogre@@U?$less@I@std@@V?$allocator@U?$pair@$$CBIPAVHardwareBufferPool@Ogre@@@std@@@4@$0A@@std@@@std@@QAE@XZ
_TEXT	SEGMENT
_this$ = -16						; size = 4
__$EHRec$ = -12						; size = 12
??1?$_Tree_val@V?$_Tmap_traits@IPAVHardwareBufferPool@Ogre@@U?$less@I@std@@V?$allocator@U?$pair@$$CBIPAVHardwareBufferPool@Ogre@@@std@@@4@$0A@@std@@@std@@QAE@XZ PROC ; std::_Tree_val<std::_Tmap_traits<unsigned int,Ogre::HardwareBufferPool *,std::less<unsigned int>,std::allocator<std::pair<unsigned int const ,Ogre::HardwareBufferPool *> >,0> >::~_Tree_val<std::_Tmap_traits<unsigned int,Ogre::HardwareBufferPool *,std::less<unsigned int>,std::allocator<std::pair<unsigned int const ,Ogre::HardwareBufferPool *> >,0> >, COMDAT
; _this$ = ecx
	push	ebp
	mov	ebp, esp
	push	-1
	push	__ehhandler$??1?$_Tree_val@V?$_Tmap_traits@IPAVHardwareBufferPool@Ogre@@U?$less@I@std@@V?$allocator@U?$pair@$$CBIPAVHardwareBufferPool@Ogre@@@std@@@4@$0A@@std@@@std@@QAE@XZ
	mov	eax, DWORD PTR fs:0
	push	eax
	push	ecx
	mov	eax, DWORD PTR ___security_cookie
	xor	eax, ebp
	push	eax
	lea	eax, DWORD PTR __$EHRec$[ebp]
	mov	DWORD PTR fs:0, eax
	mov	DWORD PTR _this$[ebp], ecx
	mov	DWORD PTR __$EHRec$[ebp+8], 0
	mov	DWORD PTR __$EHRec$[ebp+8], -1
	mov	ecx, DWORD PTR _this$[ebp]
	call	??1?$_Tree_ptr@V?$_Tmap_traits@IPAVHardwareBufferPool@Ogre@@U?$less@I@std@@V?$allocator@U?$pair@$$CBIPAVHardwareBufferPool@Ogre@@@std@@@4@$0A@@std@@@std@@QAE@XZ
	mov	ecx, DWORD PTR __$EHRec$[ebp]
	mov	DWORD PTR fs:0, ecx
	pop	ecx
	mov	esp, ebp
	pop	ebp
	ret	0
_TEXT	ENDS
;	COMDAT text$x
text$x	SEGMENT
__unwindfunclet$??1?$_Tree_val@V?$_Tmap_traits@IPAVHardwareBufferPool@Ogre@@U?$less@I@std@@V?$allocator@U?$pair@$$CBIPAVHardwareBufferPool@Ogre@@@std@@@4@$0A@@std@@@std@@QAE@XZ$0:
	mov	ecx, DWORD PTR _this$[ebp]
	jmp	??1?$_Tree_ptr@V?$_Tmap_traits@IPAVHardwareBufferPool@Ogre@@U?$less@I@std@@V?$allocator@U?$pair@$$CBIPAVHardwareBufferPool@Ogre@@@std@@@4@$0A@@std@@@std@@QAE@XZ
__ehhandler$??1?$_Tree_val@V?$_Tmap_traits@IPAVHardwareBufferPool@Ogre@@U?$less@I@std@@V?$allocator@U?$pair@$$CBIPAVHardwareBufferPool@Ogre@@@std@@@4@$0A@@std@@@std@@QAE@XZ:
	mov	edx, DWORD PTR [esp+8]
	lea	eax, DWORD PTR [edx+12]
	mov	ecx, DWORD PTR [edx-8]
	xor	ecx, eax
	call	@__security_check_cookie@4
	mov	eax, OFFSET __ehfuncinfo$??1?$_Tree_val@V?$_Tmap_traits@IPAVHardwareBufferPool@Ogre@@U?$less@I@std@@V?$allocator@U?$pair@$$CBIPAVHardwareBufferPool@Ogre@@@std@@@4@$0A@@std@@@std@@QAE@XZ
	jmp	___CxxFrameHandler3
text$x	ENDS
??1?$_Tree_val@V?$_Tmap_traits@IPAVHardwareBufferPool@Ogre@@U?$less@I@std@@V?$allocator@U?$pair@$$CBIPAVHardwareBufferPool@Ogre@@@std@@@4@$0A@@std@@@std@@QAE@XZ ENDP ; std::_Tree_val<std::_Tmap_traits<unsigned int,Ogre::HardwareBufferPool *,std::less<unsigned int>,std::allocator<std::pair<unsigned int const ,Ogre::HardwareBufferPool *> >,0> >::~_Tree_val<std::_Tmap_traits<unsigned int,Ogre::HardwareBufferPool *,std::less<unsigned int>,std::allocator<std::pair<unsigned int const ,Ogre::HardwareBufferPool *> >,0> >
PUBLIC	??1?$_Tree_nod@V?$_Tmap_traits@IPAVHardwareBufferPool@Ogre@@U?$less@I@std@@V?$allocator@U?$pair@$$CBIPAVHardwareBufferPool@Ogre@@@std@@@4@$0A@@std@@@std@@QAE@XZ ; std::_Tree_nod<std::_Tmap_traits<unsigned int,Ogre::HardwareBufferPool *,std::less<unsigned int>,std::allocator<std::pair<unsigned int const ,Ogre::HardwareBufferPool *> >,0> >::~_Tree_nod<std::_Tmap_traits<unsigned int,Ogre::HardwareBufferPool *,std::less<unsigned int>,std::allocator<std::pair<unsigned int const ,Ogre::HardwareBufferPool *> >,0> >
;	COMDAT xdata$x
xdata$x	SEGMENT
__unwindtable$??1?$_Tree_ptr@V?$_Tmap_traits@IPAVHardwareBufferPool@Ogre@@U?$less@I@std@@V?$allocator@U?$pair@$$CBIPAVHardwareBufferPool@Ogre@@@std@@@4@$0A@@std@@@std@@QAE@XZ DD 0ffffffffH
	DD	FLAT:__unwindfunclet$??1?$_Tree_ptr@V?$_Tmap_traits@IPAVHardwareBufferPool@Ogre@@U?$less@I@std@@V?$allocator@U?$pair@$$CBIPAVHardwareBufferPool@Ogre@@@std@@@4@$0A@@std@@@std@@QAE@XZ$0
__ehfuncinfo$??1?$_Tree_ptr@V?$_Tmap_traits@IPAVHardwareBufferPool@Ogre@@U?$less@I@std@@V?$allocator@U?$pair@$$CBIPAVHardwareBufferPool@Ogre@@@std@@@4@$0A@@std@@@std@@QAE@XZ DD 019930522H
	DD	01H
	DD	FLAT:__unwindtable$??1?$_Tree_ptr@V?$_Tmap_traits@IPAVHardwareBufferPool@Ogre@@U?$less@I@std@@V?$allocator@U?$pair@$$CBIPAVHardwareBufferPool@Ogre@@@std@@@4@$0A@@std@@@std@@QAE@XZ
	DD	2 DUP(00H)
	DD	2 DUP(00H)
	DD	00H
	DD	00H
; Function compile flags: /Odtp
xdata$x	ENDS
;	COMDAT ??1?$_Tree_ptr@V?$_Tmap_traits@IPAVHardwareBufferPool@Ogre@@U?$less@I@std@@V?$allocator@U?$pair@$$CBIPAVHardwareBufferPool@Ogre@@@std@@@4@$0A@@std@@@std@@QAE@XZ
_TEXT	SEGMENT
_this$ = -16						; size = 4
__$EHRec$ = -12						; size = 12
??1?$_Tree_ptr@V?$_Tmap_traits@IPAVHardwareBufferPool@Ogre@@U?$less@I@std@@V?$allocator@U?$pair@$$CBIPAVHardwareBufferPool@Ogre@@@std@@@4@$0A@@std@@@std@@QAE@XZ PROC ; std::_Tree_ptr<std::_Tmap_traits<unsigned int,Ogre::HardwareBufferPool *,std::less<unsigned int>,std::allocator<std::pair<unsigned int const ,Ogre::HardwareBufferPool *> >,0> >::~_Tree_ptr<std::_Tmap_traits<unsigned int,Ogre::HardwareBufferPool *,std::less<unsigned int>,std::allocator<std::pair<unsigned int const ,Ogre::HardwareBufferPool *> >,0> >, COMDAT
; _this$ = ecx
	push	ebp
	mov	ebp, esp
	push	-1
	push	__ehhandler$??1?$_Tree_ptr@V?$_Tmap_traits@IPAVHardwareBufferPool@Ogre@@U?$less@I@std@@V?$allocator@U?$pair@$$CBIPAVHardwareBufferPool@Ogre@@@std@@@4@$0A@@std@@@std@@QAE@XZ
	mov	eax, DWORD PTR fs:0
	push	eax
	push	ecx
	mov	eax, DWORD PTR ___security_cookie
	xor	eax, ebp
	push	eax
	lea	eax, DWORD PTR __$EHRec$[ebp]
	mov	DWORD PTR fs:0, eax
	mov	DWORD PTR _this$[ebp], ecx
	mov	DWORD PTR __$EHRec$[ebp+8], 0
	mov	DWORD PTR __$EHRec$[ebp+8], -1
	mov	ecx, DWORD PTR _this$[ebp]
	call	??1?$_Tree_nod@V?$_Tmap_traits@IPAVHardwareBufferPool@Ogre@@U?$less@I@std@@V?$allocator@U?$pair@$$CBIPAVHardwareBufferPool@Ogre@@@std@@@4@$0A@@std@@@std@@QAE@XZ
	mov	ecx, DWORD PTR __$EHRec$[ebp]
	mov	DWORD PTR fs:0, ecx
	pop	ecx
	mov	esp, ebp
	pop	ebp
	ret	0
_TEXT	ENDS
;	COMDAT text$x
text$x	SEGMENT
__unwindfunclet$??1?$_Tree_ptr@V?$_Tmap_traits@IPAVHardwareBufferPool@Ogre@@U?$less@I@std@@V?$allocator@U?$pair@$$CBIPAVHardwareBufferPool@Ogre@@@std@@@4@$0A@@std@@@std@@QAE@XZ$0:
	mov	ecx, DWORD PTR _this$[ebp]
	jmp	??1?$_Tree_nod@V?$_Tmap_traits@IPAVHardwareBufferPool@Ogre@@U?$less@I@std@@V?$allocator@U?$pair@$$CBIPAVHardwareBufferPool@Ogre@@@std@@@4@$0A@@std@@@std@@QAE@XZ
__ehhandler$??1?$_Tree_ptr@V?$_Tmap_traits@IPAVHardwareBufferPool@Ogre@@U?$less@I@std@@V?$allocator@U?$pair@$$CBIPAVHardwareBufferPool@Ogre@@@std@@@4@$0A@@std@@@std@@QAE@XZ:
	mov	edx, DWORD PTR [esp+8]
	lea	eax, DWORD PTR [edx+12]
	mov	ecx, DWORD PTR [edx-8]
	xor	ecx, eax
	call	@__security_check_cookie@4
	mov	eax, OFFSET __ehfuncinfo$??1?$_Tree_ptr@V?$_Tmap_traits@IPAVHardwareBufferPool@Ogre@@U?$less@I@std@@V?$allocator@U?$pair@$$CBIPAVHardwareBufferPool@Ogre@@@std@@@4@$0A@@std@@@std@@QAE@XZ
	jmp	___CxxFrameHandler3
text$x	ENDS
??1?$_Tree_ptr@V?$_Tmap_traits@IPAVHardwareBufferPool@Ogre@@U?$less@I@std@@V?$allocator@U?$pair@$$CBIPAVHardwareBufferPool@Ogre@@@std@@@4@$0A@@std@@@std@@QAE@XZ ENDP ; std::_Tree_ptr<std::_Tmap_traits<unsigned int,Ogre::HardwareBufferPool *,std::less<unsigned int>,std::allocator<std::pair<unsigned int const ,Ogre::HardwareBufferPool *> >,0> >::~_Tree_ptr<std::_Tmap_traits<unsigned int,Ogre::HardwareBufferPool *,std::less<unsigned int>,std::allocator<std::pair<unsigned int const ,Ogre::HardwareBufferPool *> >,0> >
PUBLIC	??1?$_Tmap_traits@IPAVHardwareBufferPool@Ogre@@U?$less@I@std@@V?$allocator@U?$pair@$$CBIPAVHardwareBufferPool@Ogre@@@std@@@4@$0A@@std@@QAE@XZ ; std::_Tmap_traits<unsigned int,Ogre::HardwareBufferPool *,std::less<unsigned int>,std::allocator<std::pair<unsigned int const ,Ogre::HardwareBufferPool *> >,0>::~_Tmap_traits<unsigned int,Ogre::HardwareBufferPool *,std::less<unsigned int>,std::allocator<std::pair<unsigned int const ,Ogre::HardwareBufferPool *> >,0>
;	COMDAT xdata$x
xdata$x	SEGMENT
__unwindtable$??1?$_Tree_nod@V?$_Tmap_traits@IPAVHardwareBufferPool@Ogre@@U?$less@I@std@@V?$allocator@U?$pair@$$CBIPAVHardwareBufferPool@Ogre@@@std@@@4@$0A@@std@@@std@@QAE@XZ DD 0ffffffffH
	DD	FLAT:__unwindfunclet$??1?$_Tree_nod@V?$_Tmap_traits@IPAVHardwareBufferPool@Ogre@@U?$less@I@std@@V?$allocator@U?$pair@$$CBIPAVHardwareBufferPool@Ogre@@@std@@@4@$0A@@std@@@std@@QAE@XZ$0
__ehfuncinfo$??1?$_Tree_nod@V?$_Tmap_traits@IPAVHardwareBufferPool@Ogre@@U?$less@I@std@@V?$allocator@U?$pair@$$CBIPAVHardwareBufferPool@Ogre@@@std@@@4@$0A@@std@@@std@@QAE@XZ DD 019930522H
	DD	01H
	DD	FLAT:__unwindtable$??1?$_Tree_nod@V?$_Tmap_traits@IPAVHardwareBufferPool@Ogre@@U?$less@I@std@@V?$allocator@U?$pair@$$CBIPAVHardwareBufferPool@Ogre@@@std@@@4@$0A@@std@@@std@@QAE@XZ
	DD	2 DUP(00H)
	DD	2 DUP(00H)
	DD	00H
	DD	00H
; Function compile flags: /Odtp
xdata$x	ENDS
;	COMDAT ??1?$_Tree_nod@V?$_Tmap_traits@IPAVHardwareBufferPool@Ogre@@U?$less@I@std@@V?$allocator@U?$pair@$$CBIPAVHardwareBufferPool@Ogre@@@std@@@4@$0A@@std@@@std@@QAE@XZ
_TEXT	SEGMENT
_this$ = -16						; size = 4
__$EHRec$ = -12						; size = 12
??1?$_Tree_nod@V?$_Tmap_traits@IPAVHardwareBufferPool@Ogre@@U?$less@I@std@@V?$allocator@U?$pair@$$CBIPAVHardwareBufferPool@Ogre@@@std@@@4@$0A@@std@@@std@@QAE@XZ PROC ; std::_Tree_nod<std::_Tmap_traits<unsigned int,Ogre::HardwareBufferPool *,std::less<unsigned int>,std::allocator<std::pair<unsigned int const ,Ogre::HardwareBufferPool *> >,0> >::~_Tree_nod<std::_Tmap_traits<unsigned int,Ogre::HardwareBufferPool *,std::less<unsigned int>,std::allocator<std::pair<unsigned int const ,Ogre::HardwareBufferPool *> >,0> >, COMDAT
; _this$ = ecx
	push	ebp
	mov	ebp, esp
	push	-1
	push	__ehhandler$??1?$_Tree_nod@V?$_Tmap_traits@IPAVHardwareBufferPool@Ogre@@U?$less@I@std@@V?$allocator@U?$pair@$$CBIPAVHardwareBufferPool@Ogre@@@std@@@4@$0A@@std@@@std@@QAE@XZ
	mov	eax, DWORD PTR fs:0
	push	eax
	push	ecx
	mov	eax, DWORD PTR ___security_cookie
	xor	eax, ebp
	push	eax
	lea	eax, DWORD PTR __$EHRec$[ebp]
	mov	DWORD PTR fs:0, eax
	mov	DWORD PTR _this$[ebp], ecx
	mov	DWORD PTR __$EHRec$[ebp+8], 0
	mov	DWORD PTR __$EHRec$[ebp+8], -1
	mov	ecx, DWORD PTR _this$[ebp]
	call	??1?$_Tmap_traits@IPAVHardwareBufferPool@Ogre@@U?$less@I@std@@V?$allocator@U?$pair@$$CBIPAVHardwareBufferPool@Ogre@@@std@@@4@$0A@@std@@QAE@XZ
	mov	ecx, DWORD PTR __$EHRec$[ebp]
	mov	DWORD PTR fs:0, ecx
	pop	ecx
	mov	esp, ebp
	pop	ebp
	ret	0
_TEXT	ENDS
;	COMDAT text$x
text$x	SEGMENT
__unwindfunclet$??1?$_Tree_nod@V?$_Tmap_traits@IPAVHardwareBufferPool@Ogre@@U?$less@I@std@@V?$allocator@U?$pair@$$CBIPAVHardwareBufferPool@Ogre@@@std@@@4@$0A@@std@@@std@@QAE@XZ$0:
	mov	ecx, DWORD PTR _this$[ebp]
	jmp	??1?$_Tmap_traits@IPAVHardwareBufferPool@Ogre@@U?$less@I@std@@V?$allocator@U?$pair@$$CBIPAVHardwareBufferPool@Ogre@@@std@@@4@$0A@@std@@QAE@XZ
__ehhandler$??1?$_Tree_nod@V?$_Tmap_traits@IPAVHardwareBufferPool@Ogre@@U?$less@I@std@@V?$allocator@U?$pair@$$CBIPAVHardwareBufferPool@Ogre@@@std@@@4@$0A@@std@@@std@@QAE@XZ:
	mov	edx, DWORD PTR [esp+8]
	lea	eax, DWORD PTR [edx+12]
	mov	ecx, DWORD PTR [edx-8]
	xor	ecx, eax
	call	@__security_check_cookie@4
	mov	eax, OFFSET __ehfuncinfo$??1?$_Tree_nod@V?$_Tmap_traits@IPAVHardwareBufferPool@Ogre@@U?$less@I@std@@V?$allocator@U?$pair@$$CBIPAVHardwareBufferPool@Ogre@@@std@@@4@$0A@@std@@@std@@QAE@XZ
	jmp	___CxxFrameHandler3
text$x	ENDS
??1?$_Tree_nod@V?$_Tmap_traits@IPAVHardwareBufferPool@Ogre@@U?$less@I@std@@V?$allocator@U?$pair@$$CBIPAVHardwareBufferPool@Ogre@@@std@@@4@$0A@@std@@@std@@QAE@XZ ENDP ; std::_Tree_nod<std::_Tmap_traits<unsigned int,Ogre::HardwareBufferPool *,std::less<unsigned int>,std::allocator<std::pair<unsigned int const ,Ogre::HardwareBufferPool *> >,0> >::~_Tree_nod<std::_Tmap_traits<unsigned int,Ogre::HardwareBufferPool *,std::less<unsigned int>,std::allocator<std::pair<unsigned int const ,Ogre::HardwareBufferPool *> >,0> >
PUBLIC	??1?$_Container_base_aux_alloc_real@V?$allocator@U?$pair@$$CBIPAVHardwareBufferPool@Ogre@@@std@@@std@@@std@@IAE@XZ ; std::_Container_base_aux_alloc_real<std::allocator<std::pair<unsigned int const ,Ogre::HardwareBufferPool *> > >::~_Container_base_aux_alloc_real<std::allocator<std::pair<unsigned int const ,Ogre::HardwareBufferPool *> > >
;	COMDAT xdata$x
xdata$x	SEGMENT
__unwindtable$??1?$_Tmap_traits@IPAVHardwareBufferPool@Ogre@@U?$less@I@std@@V?$allocator@U?$pair@$$CBIPAVHardwareBufferPool@Ogre@@@std@@@4@$0A@@std@@QAE@XZ DD 0ffffffffH
	DD	FLAT:__unwindfunclet$??1?$_Tmap_traits@IPAVHardwareBufferPool@Ogre@@U?$less@I@std@@V?$allocator@U?$pair@$$CBIPAVHardwareBufferPool@Ogre@@@std@@@4@$0A@@std@@QAE@XZ$0
__ehfuncinfo$??1?$_Tmap_traits@IPAVHardwareBufferPool@Ogre@@U?$less@I@std@@V?$allocator@U?$pair@$$CBIPAVHardwareBufferPool@Ogre@@@std@@@4@$0A@@std@@QAE@XZ DD 019930522H
	DD	01H
	DD	FLAT:__unwindtable$??1?$_Tmap_traits@IPAVHardwareBufferPool@Ogre@@U?$less@I@std@@V?$allocator@U?$pair@$$CBIPAVHardwareBufferPool@Ogre@@@std@@@4@$0A@@std@@QAE@XZ
	DD	2 DUP(00H)
	DD	2 DUP(00H)
	DD	00H
	DD	00H
; Function compile flags: /Odtp
xdata$x	ENDS
;	COMDAT ??1?$_Tmap_traits@IPAVHardwareBufferPool@Ogre@@U?$less@I@std@@V?$allocator@U?$pair@$$CBIPAVHardwareBufferPool@Ogre@@@std@@@4@$0A@@std@@QAE@XZ
_TEXT	SEGMENT
_this$ = -16						; size = 4
__$EHRec$ = -12						; size = 12
??1?$_Tmap_traits@IPAVHardwareBufferPool@Ogre@@U?$less@I@std@@V?$allocator@U?$pair@$$CBIPAVHardwareBufferPool@Ogre@@@std@@@4@$0A@@std@@QAE@XZ PROC ; std::_Tmap_traits<unsigned int,Ogre::HardwareBufferPool *,std::less<unsigned int>,std::allocator<std::pair<unsigned int const ,Ogre::HardwareBufferPool *> >,0>::~_Tmap_traits<unsigned int,Ogre::HardwareBufferPool *,std::less<unsigned int>,std::allocator<std::pair<unsigned int const ,Ogre::HardwareBufferPool *> >,0>, COMDAT
; _this$ = ecx
	push	ebp
	mov	ebp, esp
	push	-1
	push	__ehhandler$??1?$_Tmap_traits@IPAVHardwareBufferPool@Ogre@@U?$less@I@std@@V?$allocator@U?$pair@$$CBIPAVHardwareBufferPool@Ogre@@@std@@@4@$0A@@std@@QAE@XZ
	mov	eax, DWORD PTR fs:0
	push	eax
	push	ecx
	mov	eax, DWORD PTR ___security_cookie
	xor	eax, ebp
	push	eax
	lea	eax, DWORD PTR __$EHRec$[ebp]
	mov	DWORD PTR fs:0, eax
	mov	DWORD PTR _this$[ebp], ecx
	mov	DWORD PTR __$EHRec$[ebp+8], 0
	mov	DWORD PTR __$EHRec$[ebp+8], -1
	mov	ecx, DWORD PTR _this$[ebp]
	call	??1?$_Container_base_aux_alloc_real@V?$allocator@U?$pair@$$CBIPAVHardwareBufferPool@Ogre@@@std@@@std@@@std@@IAE@XZ ; std::_Container_base_aux_alloc_real<std::allocator<std::pair<unsigned int const ,Ogre::HardwareBufferPool *> > >::~_Container_base_aux_alloc_real<std::allocator<std::pair<unsigned int const ,Ogre::HardwareBufferPool *> > >
	mov	ecx, DWORD PTR __$EHRec$[ebp]
	mov	DWORD PTR fs:0, ecx
	pop	ecx
	mov	esp, ebp
	pop	ebp
	ret	0
_TEXT	ENDS
;	COMDAT text$x
text$x	SEGMENT
__unwindfunclet$??1?$_Tmap_traits@IPAVHardwareBufferPool@Ogre@@U?$less@I@std@@V?$allocator@U?$pair@$$CBIPAVHardwareBufferPool@Ogre@@@std@@@4@$0A@@std@@QAE@XZ$0:
	mov	ecx, DWORD PTR _this$[ebp]
	jmp	??1?$_Container_base_aux_alloc_real@V?$allocator@U?$pair@$$CBIPAVHardwareBufferPool@Ogre@@@std@@@std@@@std@@IAE@XZ ; std::_Container_base_aux_alloc_real<std::allocator<std::pair<unsigned int const ,Ogre::HardwareBufferPool *> > >::~_Container_base_aux_alloc_real<std::allocator<std::pair<unsigned int const ,Ogre::HardwareBufferPool *> > >
__ehhandler$??1?$_Tmap_traits@IPAVHardwareBufferPool@Ogre@@U?$less@I@std@@V?$allocator@U?$pair@$$CBIPAVHardwareBufferPool@Ogre@@@std@@@4@$0A@@std@@QAE@XZ:
	mov	edx, DWORD PTR [esp+8]
	lea	eax, DWORD PTR [edx+12]
	mov	ecx, DWORD PTR [edx-8]
	xor	ecx, eax
	call	@__security_check_cookie@4
	mov	eax, OFFSET __ehfuncinfo$??1?$_Tmap_traits@IPAVHardwareBufferPool@Ogre@@U?$less@I@std@@V?$allocator@U?$pair@$$CBIPAVHardwareBufferPool@Ogre@@@std@@@4@$0A@@std@@QAE@XZ
	jmp	___CxxFrameHandler3
text$x	ENDS
??1?$_Tmap_traits@IPAVHardwareBufferPool@Ogre@@U?$less@I@std@@V?$allocator@U?$pair@$$CBIPAVHardwareBufferPool@Ogre@@@std@@@4@$0A@@std@@QAE@XZ ENDP ; std::_Tmap_traits<unsigned int,Ogre::HardwareBufferPool *,std::less<unsigned int>,std::allocator<std::pair<unsigned int const ,Ogre::HardwareBufferPool *> >,0>::~_Tmap_traits<unsigned int,Ogre::HardwareBufferPool *,std::less<unsigned int>,std::allocator<std::pair<unsigned int const ,Ogre::HardwareBufferPool *> >,0>
; Function compile flags: /Odtp
; File i:\svnroot\client\ogremain\ogrelist.h
;	COMDAT ?Clear@?$ChainList@VHardwareBuffer@Ogre@@@Ogre@@QAEXXZ
_TEXT	SEGMENT
_this$ = -4						; size = 4
?Clear@?$ChainList@VHardwareBuffer@Ogre@@@Ogre@@QAEXXZ PROC ; Ogre::ChainList<Ogre::HardwareBuffer>::Clear, COMDAT
; _this$ = ecx

; 30   : 		{ 

	push	ebp
	mov	ebp, esp
	push	ecx
	mov	DWORD PTR _this$[ebp], ecx

; 31   : 			m_EndNode.m_pNextNode = m_EndNode.m_pPrevNode = &m_EndNode;

	mov	eax, DWORD PTR _this$[ebp]
	mov	ecx, DWORD PTR _this$[ebp]
	mov	DWORD PTR [eax+4], ecx
	mov	edx, DWORD PTR _this$[ebp]
	mov	eax, DWORD PTR _this$[ebp]
	mov	DWORD PTR [edx], eax

; 32   : 			m_nNodes = 0;

	mov	ecx, DWORD PTR _this$[ebp]
	mov	DWORD PTR [ecx+8], 0

; 33   : 		}

	mov	esp, ebp
	pop	ebp
	ret	0
?Clear@?$ChainList@VHardwareBuffer@Ogre@@@Ogre@@QAEXXZ ENDP ; Ogre::ChainList<Ogre::HardwareBuffer>::Clear
; Function compile flags: /Odtp
_TEXT	ENDS
;	COMDAT ?InsertBefore@?$ChainList@VHardwareBuffer@Ogre@@@Ogre@@QAEXPAVChainListNode@2@0@Z
_TEXT	SEGMENT
_this$ = -4						; size = 4
_pnode$ = 8						; size = 4
_pref$ = 12						; size = 4
?InsertBefore@?$ChainList@VHardwareBuffer@Ogre@@@Ogre@@QAEXPAVChainListNode@2@0@Z PROC ; Ogre::ChainList<Ogre::HardwareBuffer>::InsertBefore, COMDAT
; _this$ = ecx

; 49   : 		{

	push	ebp
	mov	ebp, esp
	push	ecx
	mov	DWORD PTR _this$[ebp], ecx

; 50   : 			assert( pnode && pref );
; 51   : 
; 52   : 			//
; 53   : 			pnode->m_pNextNode = pref;

	mov	eax, DWORD PTR _pnode$[ebp]
	mov	ecx, DWORD PTR _pref$[ebp]
	mov	DWORD PTR [eax], ecx

; 54   : 			pnode->m_pPrevNode = pref->m_pPrevNode;

	mov	edx, DWORD PTR _pnode$[ebp]
	mov	eax, DWORD PTR _pref$[ebp]
	mov	ecx, DWORD PTR [eax+4]
	mov	DWORD PTR [edx+4], ecx

; 55   : 
; 56   : 			pref->m_pPrevNode->m_pNextNode = pnode;

	mov	edx, DWORD PTR _pref$[ebp]
	mov	eax, DWORD PTR [edx+4]
	mov	ecx, DWORD PTR _pnode$[ebp]
	mov	DWORD PTR [eax], ecx

; 57   : 			pref->m_pPrevNode = pnode;

	mov	edx, DWORD PTR _pref$[ebp]
	mov	eax, DWORD PTR _pnode$[ebp]
	mov	DWORD PTR [edx+4], eax

; 58   : 
; 59   : 			m_nNodes++;

	mov	ecx, DWORD PTR _this$[ebp]
	mov	edx, DWORD PTR [ecx+8]
	add	edx, 1
	mov	eax, DWORD PTR _this$[ebp]
	mov	DWORD PTR [eax+8], edx

; 60   : 		}

	mov	esp, ebp
	pop	ebp
	ret	8
?InsertBefore@?$ChainList@VHardwareBuffer@Ogre@@@Ogre@@QAEXPAVChainListNode@2@0@Z ENDP ; Ogre::ChainList<Ogre::HardwareBuffer>::InsertBefore
_TEXT	ENDS
PUBLIC	?_Kfn@?$_Tmap_traits@IPAVHardwareBufferPool@Ogre@@U?$less@I@std@@V?$allocator@U?$pair@$$CBIPAVHardwareBufferPool@Ogre@@@std@@@4@$0A@@std@@SAABIABU?$pair@$$CBIPAVHardwareBufferPool@Ogre@@@2@@Z ; std::_Tmap_traits<unsigned int,Ogre::HardwareBufferPool *,std::less<unsigned int>,std::allocator<std::pair<unsigned int const ,Ogre::HardwareBufferPool *> >,0>::_Kfn
PUBLIC	?_Myval@?$_Tree@V?$_Tmap_traits@IPAVHardwareBufferPool@Ogre@@U?$less@I@std@@V?$allocator@U?$pair@$$CBIPAVHardwareBufferPool@Ogre@@@std@@@4@$0A@@std@@@std@@KAAAU?$pair@$$CBIPAVHardwareBufferPool@Ogre@@@2@PAU_Node@?$_Tree_nod@V?$_Tmap_traits@IPAVHardwareBufferPool@Ogre@@U?$less@I@std@@V?$allocator@U?$pair@$$CBIPAVHardwareBufferPool@Ogre@@@std@@@4@$0A@@std@@@2@@Z ; std::_Tree<std::_Tmap_traits<unsigned int,Ogre::HardwareBufferPool *,std::less<unsigned int>,std::allocator<std::pair<unsigned int const ,Ogre::HardwareBufferPool *> >,0> >::_Myval
; Function compile flags: /Odtp
; File d:\program files (x86)\microsoft visual studio 9.0\vc\include\xtree
;	COMDAT ?_Key@?$_Tree@V?$_Tmap_traits@IPAVHardwareBufferPool@Ogre@@U?$less@I@std@@V?$allocator@U?$pair@$$CBIPAVHardwareBufferPool@Ogre@@@std@@@4@$0A@@std@@@std@@KAABIPAU_Node@?$_Tree_nod@V?$_Tmap_traits@IPAVHardwareBufferPool@Ogre@@U?$less@I@std@@V?$allocator@U?$pair@$$CBIPAVHardwareBufferPool@Ogre@@@std@@@4@$0A@@std@@@2@@Z
_TEXT	SEGMENT
__Pnode$ = 8						; size = 4
?_Key@?$_Tree@V?$_Tmap_traits@IPAVHardwareBufferPool@Ogre@@U?$less@I@std@@V?$allocator@U?$pair@$$CBIPAVHardwareBufferPool@Ogre@@@std@@@4@$0A@@std@@@std@@KAABIPAU_Node@?$_Tree_nod@V?$_Tmap_traits@IPAVHardwareBufferPool@Ogre@@U?$less@I@std@@V?$allocator@U?$pair@$$CBIPAVHardwareBufferPool@Ogre@@@std@@@4@$0A@@std@@@2@@Z PROC ; std::_Tree<std::_Tmap_traits<unsigned int,Ogre::HardwareBufferPool *,std::less<unsigned int>,std::allocator<std::pair<unsigned int const ,Ogre::HardwareBufferPool *> >,0> >::_Key, COMDAT

; 161  : 		{	// return reference to key in node

	push	ebp
	mov	ebp, esp

; 162  : 		return (_Mybase::_Kfn(_Myval(_Pnode)));

	mov	eax, DWORD PTR __Pnode$[ebp]
	push	eax
	call	?_Myval@?$_Tree@V?$_Tmap_traits@IPAVHardwareBufferPool@Ogre@@U?$less@I@std@@V?$allocator@U?$pair@$$CBIPAVHardwareBufferPool@Ogre@@@std@@@4@$0A@@std@@@std@@KAAAU?$pair@$$CBIPAVHardwareBufferPool@Ogre@@@2@PAU_Node@?$_Tree_nod@V?$_Tmap_traits@IPAVHardwareBufferPool@Ogre@@U?$less@I@std@@V?$allocator@U?$pair@$$CBIPAVHardwareBufferPool@Ogre@@@std@@@4@$0A@@std@@@2@@Z ; std::_Tree<std::_Tmap_traits<unsigned int,Ogre::HardwareBufferPool *,std::less<unsigned int>,std::allocator<std::pair<unsigned int const ,Ogre::HardwareBufferPool *> >,0> >::_Myval
	add	esp, 4
	push	eax
	call	?_Kfn@?$_Tmap_traits@IPAVHardwareBufferPool@Ogre@@U?$less@I@std@@V?$allocator@U?$pair@$$CBIPAVHardwareBufferPool@Ogre@@@std@@@4@$0A@@std@@SAABIABU?$pair@$$CBIPAVHardwareBufferPool@Ogre@@@2@@Z ; std::_Tmap_traits<unsigned int,Ogre::HardwareBufferPool *,std::less<unsigned int>,std::allocator<std::pair<unsigned int const ,Ogre::HardwareBufferPool *> >,0>::_Kfn
	add	esp, 4

; 163  : 		}

	pop	ebp
	ret	0
?_Key@?$_Tree@V?$_Tmap_traits@IPAVHardwareBufferPool@Ogre@@U?$less@I@std@@V?$allocator@U?$pair@$$CBIPAVHardwareBufferPool@Ogre@@@std@@@4@$0A@@std@@@std@@KAABIPAU_Node@?$_Tree_nod@V?$_Tmap_traits@IPAVHardwareBufferPool@Ogre@@U?$less@I@std@@V?$allocator@U?$pair@$$CBIPAVHardwareBufferPool@Ogre@@@std@@@4@$0A@@std@@@2@@Z ENDP ; std::_Tree<std::_Tmap_traits<unsigned int,Ogre::HardwareBufferPool *,std::less<unsigned int>,std::allocator<std::pair<unsigned int const ,Ogre::HardwareBufferPool *> >,0> >::_Key
_TEXT	ENDS
PUBLIC	??0?$allocator@U?$pair@$$CBIPAVHardwareBufferPool@Ogre@@@std@@@std@@QAE@ABV01@@Z ; std::allocator<std::pair<unsigned int const ,Ogre::HardwareBufferPool *> >::allocator<std::pair<unsigned int const ,Ogre::HardwareBufferPool *> >
;	COMDAT xdata$x
xdata$x	SEGMENT
__unwindtable$??0?$_Tree@V?$_Tmap_traits@IPAVHardwareBufferPool@Ogre@@U?$less@I@std@@V?$allocator@U?$pair@$$CBIPAVHardwareBufferPool@Ogre@@@std@@@4@$0A@@std@@@std@@QAE@ABU?$less@I@1@ABV?$allocator@U?$pair@$$CBIPAVHardwareBufferPool@Ogre@@@std@@@1@@Z DD 0ffffffffH
	DD	FLAT:__unwindfunclet$??0?$_Tree@V?$_Tmap_traits@IPAVHardwareBufferPool@Ogre@@U?$less@I@std@@V?$allocator@U?$pair@$$CBIPAVHardwareBufferPool@Ogre@@@std@@@4@$0A@@std@@@std@@QAE@ABU?$less@I@1@ABV?$allocator@U?$pair@$$CBIPAVHardwareBufferPool@Ogre@@@std@@@1@@Z$0
__ehfuncinfo$??0?$_Tree@V?$_Tmap_traits@IPAVHardwareBufferPool@Ogre@@U?$less@I@std@@V?$allocator@U?$pair@$$CBIPAVHardwareBufferPool@Ogre@@@std@@@4@$0A@@std@@@std@@QAE@ABU?$less@I@1@ABV?$allocator@U?$pair@$$CBIPAVHardwareBufferPool@Ogre@@@std@@@1@@Z DD 019930522H
	DD	01H
	DD	FLAT:__unwindtable$??0?$_Tree@V?$_Tmap_traits@IPAVHardwareBufferPool@Ogre@@U?$less@I@std@@V?$allocator@U?$pair@$$CBIPAVHardwareBufferPool@Ogre@@@std@@@4@$0A@@std@@@std@@QAE@ABU?$less@I@1@ABV?$allocator@U?$pair@$$CBIPAVHardwareBufferPool@Ogre@@@std@@@1@@Z
	DD	2 DUP(00H)
	DD	2 DUP(00H)
	DD	00H
	DD	00H
; Function compile flags: /Odtp
xdata$x	ENDS
;	COMDAT ??0?$_Tree@V?$_Tmap_traits@IPAVHardwareBufferPool@Ogre@@U?$less@I@std@@V?$allocator@U?$pair@$$CBIPAVHardwareBufferPool@Ogre@@@std@@@4@$0A@@std@@@std@@QAE@ABU?$less@I@1@ABV?$allocator@U?$pair@$$CBIPAVHardwareBufferPool@Ogre@@@std@@@1@@Z
_TEXT	SEGMENT
_this$ = -20						; size = 4
$T64169 = -16						; size = 4
__$EHRec$ = -12						; size = 12
__Parg$ = 8						; size = 4
__Al$ = 12						; size = 4
??0?$_Tree@V?$_Tmap_traits@IPAVHardwareBufferPool@Ogre@@U?$less@I@std@@V?$allocator@U?$pair@$$CBIPAVHardwareBufferPool@Ogre@@@std@@@4@$0A@@std@@@std@@QAE@ABU?$less@I@1@ABV?$allocator@U?$pair@$$CBIPAVHardwareBufferPool@Ogre@@@std@@@1@@Z PROC ; std::_Tree<std::_Tmap_traits<unsigned int,Ogre::HardwareBufferPool *,std::less<unsigned int>,std::allocator<std::pair<unsigned int const ,Ogre::HardwareBufferPool *> >,0> >::_Tree<std::_Tmap_traits<unsigned int,Ogre::HardwareBufferPool *,std::less<unsigned int>,std::allocator<std::pair<unsigned int const ,Ogre::HardwareBufferPool *> >,0> >, COMDAT
; _this$ = ecx

; 509  : 		{	// construct empty tree

	push	ebp
	mov	ebp, esp
	push	-1
	push	__ehhandler$??0?$_Tree@V?$_Tmap_traits@IPAVHardwareBufferPool@Ogre@@U?$less@I@std@@V?$allocator@U?$pair@$$CBIPAVHardwareBufferPool@Ogre@@@std@@@4@$0A@@std@@@std@@QAE@ABU?$less@I@1@ABV?$allocator@U?$pair@$$CBIPAVHardwareBufferPool@Ogre@@@std@@@1@@Z
	mov	eax, DWORD PTR fs:0
	push	eax
	sub	esp, 8
	mov	eax, DWORD PTR ___security_cookie
	xor	eax, ebp
	push	eax
	lea	eax, DWORD PTR __$EHRec$[ebp]
	mov	DWORD PTR fs:0, eax
	mov	DWORD PTR _this$[ebp], ecx
	push	ecx
	mov	ecx, esp
	mov	DWORD PTR $T64169[ebp], esp
	mov	eax, DWORD PTR __Al$[ebp]
	push	eax
	call	??0?$allocator@U?$pair@$$CBIPAVHardwareBufferPool@Ogre@@@std@@@std@@QAE@ABV01@@Z ; std::allocator<std::pair<unsigned int const ,Ogre::HardwareBufferPool *> >::allocator<std::pair<unsigned int const ,Ogre::HardwareBufferPool *> >
	mov	ecx, DWORD PTR __Parg$[ebp]
	push	ecx
	mov	ecx, DWORD PTR _this$[ebp]
	call	??0?$_Tree_val@V?$_Tmap_traits@IPAVHardwareBufferPool@Ogre@@U?$less@I@std@@V?$allocator@U?$pair@$$CBIPAVHardwareBufferPool@Ogre@@@std@@@4@$0A@@std@@@std@@IAE@ABU?$less@I@1@V?$allocator@U?$pair@$$CBIPAVHardwareBufferPool@Ogre@@@std@@@1@@Z ; std::_Tree_val<std::_Tmap_traits<unsigned int,Ogre::HardwareBufferPool *,std::less<unsigned int>,std::allocator<std::pair<unsigned int const ,Ogre::HardwareBufferPool *> >,0> >::_Tree_val<std::_Tmap_traits<unsigned int,Ogre::HardwareBufferPool *,std::less<unsigned int>,std::allocator<std::pair<unsigned int const ,Ogre::HardwareBufferPool *> >,0> >
	mov	DWORD PTR __$EHRec$[ebp+8], 0

; 510  : 		_Init();

	mov	ecx, DWORD PTR _this$[ebp]
	call	?_Init@?$_Tree@V?$_Tmap_traits@IPAVHardwareBufferPool@Ogre@@U?$less@I@std@@V?$allocator@U?$pair@$$CBIPAVHardwareBufferPool@Ogre@@@std@@@4@$0A@@std@@@std@@IAEXXZ ; std::_Tree<std::_Tmap_traits<unsigned int,Ogre::HardwareBufferPool *,std::less<unsigned int>,std::allocator<std::pair<unsigned int const ,Ogre::HardwareBufferPool *> >,0> >::_Init

; 511  : 		}

	mov	DWORD PTR __$EHRec$[ebp+8], -1
	mov	eax, DWORD PTR _this$[ebp]
	mov	ecx, DWORD PTR __$EHRec$[ebp]
	mov	DWORD PTR fs:0, ecx
	pop	ecx
	mov	esp, ebp
	pop	ebp
	ret	8
_TEXT	ENDS
;	COMDAT text$x
text$x	SEGMENT
__unwindfunclet$??0?$_Tree@V?$_Tmap_traits@IPAVHardwareBufferPool@Ogre@@U?$less@I@std@@V?$allocator@U?$pair@$$CBIPAVHardwareBufferPool@Ogre@@@std@@@4@$0A@@std@@@std@@QAE@ABU?$less@I@1@ABV?$allocator@U?$pair@$$CBIPAVHardwareBufferPool@Ogre@@@std@@@1@@Z$0:
	mov	ecx, DWORD PTR _this$[ebp]
	jmp	??1?$_Tree_val@V?$_Tmap_traits@IPAVHardwareBufferPool@Ogre@@U?$less@I@std@@V?$allocator@U?$pair@$$CBIPAVHardwareBufferPool@Ogre@@@std@@@4@$0A@@std@@@std@@QAE@XZ
__ehhandler$??0?$_Tree@V?$_Tmap_traits@IPAVHardwareBufferPool@Ogre@@U?$less@I@std@@V?$allocator@U?$pair@$$CBIPAVHardwareBufferPool@Ogre@@@std@@@4@$0A@@std@@@std@@QAE@ABU?$less@I@1@ABV?$allocator@U?$pair@$$CBIPAVHardwareBufferPool@Ogre@@@std@@@1@@Z:
	mov	edx, DWORD PTR [esp+8]
	lea	eax, DWORD PTR [edx+12]
	mov	ecx, DWORD PTR [edx-12]
	xor	ecx, eax
	call	@__security_check_cookie@4
	mov	eax, OFFSET __ehfuncinfo$??0?$_Tree@V?$_Tmap_traits@IPAVHardwareBufferPool@Ogre@@U?$less@I@std@@V?$allocator@U?$pair@$$CBIPAVHardwareBufferPool@Ogre@@@std@@@4@$0A@@std@@@std@@QAE@ABU?$less@I@1@ABV?$allocator@U?$pair@$$CBIPAVHardwareBufferPool@Ogre@@@std@@@1@@Z
	jmp	___CxxFrameHandler3
text$x	ENDS
??0?$_Tree@V?$_Tmap_traits@IPAVHardwareBufferPool@Ogre@@U?$less@I@std@@V?$allocator@U?$pair@$$CBIPAVHardwareBufferPool@Ogre@@@std@@@4@$0A@@std@@@std@@QAE@ABU?$less@I@1@ABV?$allocator@U?$pair@$$CBIPAVHardwareBufferPool@Ogre@@@std@@@1@@Z ENDP ; std::_Tree<std::_Tmap_traits<unsigned int,Ogre::HardwareBufferPool *,std::less<unsigned int>,std::allocator<std::pair<unsigned int const ,Ogre::HardwareBufferPool *> >,0> >::_Tree<std::_Tmap_traits<unsigned int,Ogre::HardwareBufferPool *,std::less<unsigned int>,std::allocator<std::pair<unsigned int const ,Ogre::HardwareBufferPool *> >,0> >
; Function compile flags: /Odtp
;	COMDAT ?get_allocator@?$_Tree@V?$_Tmap_traits@IPAVHardwareBufferPool@Ogre@@U?$less@I@std@@V?$allocator@U?$pair@$$CBIPAVHardwareBufferPool@Ogre@@@std@@@4@$0A@@std@@@std@@QBE?AV?$allocator@U?$pair@$$CBIPAVHardwareBufferPool@Ogre@@@std@@@2@XZ
_TEXT	SEGMENT
_this$ = -4						; size = 4
___$ReturnUdt$ = 8					; size = 4
?get_allocator@?$_Tree@V?$_Tmap_traits@IPAVHardwareBufferPool@Ogre@@U?$less@I@std@@V?$allocator@U?$pair@$$CBIPAVHardwareBufferPool@Ogre@@@std@@@4@$0A@@std@@@std@@QBE?AV?$allocator@U?$pair@$$CBIPAVHardwareBufferPool@Ogre@@@std@@@2@XZ PROC ; std::_Tree<std::_Tmap_traits<unsigned int,Ogre::HardwareBufferPool *,std::less<unsigned int>,std::allocator<std::pair<unsigned int const ,Ogre::HardwareBufferPool *> >,0> >::get_allocator, COMDAT
; _this$ = ecx

; 615  : 		{	// return allocator object for values

	push	ebp
	mov	ebp, esp
	push	ecx
	mov	DWORD PTR _this$[ebp], ecx

; 616  : 		return (this->_Alval);

	mov	eax, DWORD PTR _this$[ebp]
	add	eax, 20					; 00000014H
	push	eax
	mov	ecx, DWORD PTR ___$ReturnUdt$[ebp]
	call	??0?$allocator@U?$pair@$$CBIPAVHardwareBufferPool@Ogre@@@std@@@std@@QAE@ABV01@@Z ; std::allocator<std::pair<unsigned int const ,Ogre::HardwareBufferPool *> >::allocator<std::pair<unsigned int const ,Ogre::HardwareBufferPool *> >
	mov	eax, DWORD PTR ___$ReturnUdt$[ebp]

; 617  : 		}

	mov	esp, ebp
	pop	ebp
	ret	4
?get_allocator@?$_Tree@V?$_Tmap_traits@IPAVHardwareBufferPool@Ogre@@U?$less@I@std@@V?$allocator@U?$pair@$$CBIPAVHardwareBufferPool@Ogre@@@std@@@4@$0A@@std@@@std@@QBE?AV?$allocator@U?$pair@$$CBIPAVHardwareBufferPool@Ogre@@@std@@@2@XZ ENDP ; std::_Tree<std::_Tmap_traits<unsigned int,Ogre::HardwareBufferPool *,std::less<unsigned int>,std::allocator<std::pair<unsigned int const ,Ogre::HardwareBufferPool *> >,0> >::get_allocator
; Function compile flags: /Odtp
_TEXT	ENDS
;	COMDAT ?key_comp@?$_Tree@V?$_Tmap_traits@IPAVHardwareBufferPool@Ogre@@U?$less@I@std@@V?$allocator@U?$pair@$$CBIPAVHardwareBufferPool@Ogre@@@std@@@4@$0A@@std@@@std@@QBE?AU?$less@I@2@XZ
_TEXT	SEGMENT
_this$ = -4						; size = 4
___$ReturnUdt$ = 8					; size = 4
?key_comp@?$_Tree@V?$_Tmap_traits@IPAVHardwareBufferPool@Ogre@@U?$less@I@std@@V?$allocator@U?$pair@$$CBIPAVHardwareBufferPool@Ogre@@@std@@@4@$0A@@std@@@std@@QBE?AU?$less@I@2@XZ PROC ; std::_Tree<std::_Tmap_traits<unsigned int,Ogre::HardwareBufferPool *,std::less<unsigned int>,std::allocator<std::pair<unsigned int const ,Ogre::HardwareBufferPool *> >,0> >::key_comp, COMDAT
; _this$ = ecx

; 620  : 		{	// return object for comparing keys

	push	ebp
	mov	ebp, esp
	push	ecx
	mov	DWORD PTR _this$[ebp], ecx

; 621  : 		return (this->comp);

	mov	eax, DWORD PTR ___$ReturnUdt$[ebp]

; 622  : 		}

	mov	esp, ebp
	pop	ebp
	ret	4
?key_comp@?$_Tree@V?$_Tmap_traits@IPAVHardwareBufferPool@Ogre@@U?$less@I@std@@V?$allocator@U?$pair@$$CBIPAVHardwareBufferPool@Ogre@@@std@@@4@$0A@@std@@@std@@QBE?AU?$less@I@2@XZ ENDP ; std::_Tree<std::_Tmap_traits<unsigned int,Ogre::HardwareBufferPool *,std::less<unsigned int>,std::allocator<std::pair<unsigned int const ,Ogre::HardwareBufferPool *> >,0> >::key_comp
_TEXT	ENDS
PUBLIC	?insert@?$_Tree@V?$_Tmap_traits@IPAVHardwareBufferPool@Ogre@@U?$less@I@std@@V?$allocator@U?$pair@$$CBIPAVHardwareBufferPool@Ogre@@@std@@@4@$0A@@std@@@std@@QAE?AU?$pair@Viterator@?$_Tree@V?$_Tmap_traits@IPAVHardwareBufferPool@Ogre@@U?$less@I@std@@V?$allocator@U?$pair@$$CBIPAVHardwareBufferPool@Ogre@@@std@@@4@$0A@@std@@@std@@_N@2@ABU?$pair@$$CBIPAVHardwareBufferPool@Ogre@@@2@@Z ; std::_Tree<std::_Tmap_traits<unsigned int,Ogre::HardwareBufferPool *,std::less<unsigned int>,std::allocator<std::pair<unsigned int const ,Ogre::HardwareBufferPool *> >,0> >::insert
PUBLIC	??Econst_iterator@?$_Tree@V?$_Tmap_traits@IPAVHardwareBufferPool@Ogre@@U?$less@I@std@@V?$allocator@U?$pair@$$CBIPAVHardwareBufferPool@Ogre@@@std@@@4@$0A@@std@@@std@@QAEAAV012@XZ ; std::_Tree<std::_Tmap_traits<unsigned int,Ogre::HardwareBufferPool *,std::less<unsigned int>,std::allocator<std::pair<unsigned int const ,Ogre::HardwareBufferPool *> >,0> >::const_iterator::operator++
PUBLIC	?_Isnil@?$_Tree@V?$_Tmap_traits@IPAVHardwareBufferPool@Ogre@@U?$less@I@std@@V?$allocator@U?$pair@$$CBIPAVHardwareBufferPool@Ogre@@@std@@@4@$0A@@std@@@std@@KAAADPAU_Node@?$_Tree_nod@V?$_Tmap_traits@IPAVHardwareBufferPool@Ogre@@U?$less@I@std@@V?$allocator@U?$pair@$$CBIPAVHardwareBufferPool@Ogre@@@std@@@4@$0A@@std@@@2@@Z ; std::_Tree<std::_Tmap_traits<unsigned int,Ogre::HardwareBufferPool *,std::less<unsigned int>,std::allocator<std::pair<unsigned int const ,Ogre::HardwareBufferPool *> >,0> >::_Isnil
PUBLIC	?_Right@?$_Tree@V?$_Tmap_traits@IPAVHardwareBufferPool@Ogre@@U?$less@I@std@@V?$allocator@U?$pair@$$CBIPAVHardwareBufferPool@Ogre@@@std@@@4@$0A@@std@@@std@@KAAAPAU_Node@?$_Tree_nod@V?$_Tmap_traits@IPAVHardwareBufferPool@Ogre@@U?$less@I@std@@V?$allocator@U?$pair@$$CBIPAVHardwareBufferPool@Ogre@@@std@@@4@$0A@@std@@@2@PAU342@@Z ; std::_Tree<std::_Tmap_traits<unsigned int,Ogre::HardwareBufferPool *,std::less<unsigned int>,std::allocator<std::pair<unsigned int const ,Ogre::HardwareBufferPool *> >,0> >::_Right
PUBLIC	??Fconst_iterator@?$_Tree@V?$_Tmap_traits@IPAVHardwareBufferPool@Ogre@@U?$less@I@std@@V?$allocator@U?$pair@$$CBIPAVHardwareBufferPool@Ogre@@@std@@@4@$0A@@std@@@std@@QAEAAV012@XZ ; std::_Tree<std::_Tmap_traits<unsigned int,Ogre::HardwareBufferPool *,std::less<unsigned int>,std::allocator<std::pair<unsigned int const ,Ogre::HardwareBufferPool *> >,0> >::const_iterator::operator--
PUBLIC	?_Rmost@?$_Tree@V?$_Tmap_traits@IPAVHardwareBufferPool@Ogre@@U?$less@I@std@@V?$allocator@U?$pair@$$CBIPAVHardwareBufferPool@Ogre@@@std@@@4@$0A@@std@@@std@@IBEAAPAU_Node@?$_Tree_nod@V?$_Tmap_traits@IPAVHardwareBufferPool@Ogre@@U?$less@I@std@@V?$allocator@U?$pair@$$CBIPAVHardwareBufferPool@Ogre@@@std@@@4@$0A@@std@@@2@XZ ; std::_Tree<std::_Tmap_traits<unsigned int,Ogre::HardwareBufferPool *,std::less<unsigned int>,std::allocator<std::pair<unsigned int const ,Ogre::HardwareBufferPool *> >,0> >::_Rmost
PUBLIC	?_Insert@?$_Tree@V?$_Tmap_traits@IPAVHardwareBufferPool@Ogre@@U?$less@I@std@@V?$allocator@U?$pair@$$CBIPAVHardwareBufferPool@Ogre@@@std@@@4@$0A@@std@@@std@@IAE?AViterator@12@_NPAU_Node@?$_Tree_nod@V?$_Tmap_traits@IPAVHardwareBufferPool@Ogre@@U?$less@I@std@@V?$allocator@U?$pair@$$CBIPAVHardwareBufferPool@Ogre@@@std@@@4@$0A@@std@@@2@ABU?$pair@$$CBIPAVHardwareBufferPool@Ogre@@@2@@Z ; std::_Tree<std::_Tmap_traits<unsigned int,Ogre::HardwareBufferPool *,std::less<unsigned int>,std::allocator<std::pair<unsigned int const ,Ogre::HardwareBufferPool *> >,0> >::_Insert
PUBLIC	?size@?$_Tree@V?$_Tmap_traits@IPAVHardwareBufferPool@Ogre@@U?$less@I@std@@V?$allocator@U?$pair@$$CBIPAVHardwareBufferPool@Ogre@@@std@@@4@$0A@@std@@@std@@QBEIXZ ; std::_Tree<std::_Tmap_traits<unsigned int,Ogre::HardwareBufferPool *,std::less<unsigned int>,std::allocator<std::pair<unsigned int const ,Ogre::HardwareBufferPool *> >,0> >::size
PUBLIC	??0const_iterator@?$_Tree@V?$_Tmap_traits@IPAVHardwareBufferPool@Ogre@@U?$less@I@std@@V?$allocator@U?$pair@$$CBIPAVHardwareBufferPool@Ogre@@@std@@@4@$0A@@std@@@std@@QAE@XZ ; std::_Tree<std::_Tmap_traits<unsigned int,Ogre::HardwareBufferPool *,std::less<unsigned int>,std::allocator<std::pair<unsigned int const ,Ogre::HardwareBufferPool *> >,0> >::const_iterator::const_iterator
; Function compile flags: /Odtp
;	COMDAT ?insert@?$_Tree@V?$_Tmap_traits@IPAVHardwareBufferPool@Ogre@@U?$less@I@std@@V?$allocator@U?$pair@$$CBIPAVHardwareBufferPool@Ogre@@@std@@@4@$0A@@std@@@std@@QAE?AViterator@12@Vconst_iterator@12@ABU?$pair@$$CBIPAVHardwareBufferPool@Ogre@@@2@@Z
_TEXT	SEGMENT
_this$ = -72						; size = 4
$T64189 = -68						; size = 12
$T64188 = -56						; size = 8
$T64187 = -48						; size = 8
$T64186 = -40						; size = 8
$T64185 = -32						; size = 8
$T64184 = -24						; size = 8
$T64183 = -16						; size = 8
__Next$ = -8						; size = 8
___$ReturnUdt$ = 8					; size = 4
__Where$ = 12						; size = 8
__Val$ = 20						; size = 4
?insert@?$_Tree@V?$_Tmap_traits@IPAVHardwareBufferPool@Ogre@@U?$less@I@std@@V?$allocator@U?$pair@$$CBIPAVHardwareBufferPool@Ogre@@@std@@@4@$0A@@std@@@std@@QAE?AViterator@12@Vconst_iterator@12@ABU?$pair@$$CBIPAVHardwareBufferPool@Ogre@@@2@@Z PROC ; std::_Tree<std::_Tmap_traits<unsigned int,Ogre::HardwareBufferPool *,std::less<unsigned int>,std::allocator<std::pair<unsigned int const ,Ogre::HardwareBufferPool *> >,0> >::insert, COMDAT
; _this$ = ecx

; 664  : 		{	// try to insert node with value _Val using _Where as a hint

	push	ebp
	mov	ebp, esp
	sub	esp, 72					; 00000048H
	mov	DWORD PTR _this$[ebp], ecx

; 665  : 
; 666  :  #if _HAS_ITERATOR_DEBUGGING
; 667  : 		if (_Where._Mycont != this)
; 668  : 			_DEBUG_ERROR("map/set insert iterator outside range");
; 669  :  #endif /* _HAS_ITERATOR_DEBUGGING */
; 670  : 
; 671  : 		const_iterator _Next;

	lea	ecx, DWORD PTR __Next$[ebp]
	call	??0const_iterator@?$_Tree@V?$_Tmap_traits@IPAVHardwareBufferPool@Ogre@@U?$less@I@std@@V?$allocator@U?$pair@$$CBIPAVHardwareBufferPool@Ogre@@@std@@@4@$0A@@std@@@std@@QAE@XZ ; std::_Tree<std::_Tmap_traits<unsigned int,Ogre::HardwareBufferPool *,std::less<unsigned int>,std::allocator<std::pair<unsigned int const ,Ogre::HardwareBufferPool *> >,0> >::const_iterator::const_iterator

; 672  : 
; 673  : 		if (size() == 0)

	mov	ecx, DWORD PTR _this$[ebp]
	call	?size@?$_Tree@V?$_Tmap_traits@IPAVHardwareBufferPool@Ogre@@U?$less@I@std@@V?$allocator@U?$pair@$$CBIPAVHardwareBufferPool@Ogre@@@std@@@4@$0A@@std@@@std@@QBEIXZ ; std::_Tree<std::_Tmap_traits<unsigned int,Ogre::HardwareBufferPool *,std::less<unsigned int>,std::allocator<std::pair<unsigned int const ,Ogre::HardwareBufferPool *> >,0> >::size
	test	eax, eax
	jne	SHORT $LN32@insert

; 674  : 			return (_Insert(true, _Myhead, _Val));	// insert into empty tree

	mov	eax, DWORD PTR __Val$[ebp]
	push	eax
	mov	ecx, DWORD PTR _this$[ebp]
	mov	edx, DWORD PTR [ecx+24]
	push	edx
	push	1
	mov	eax, DWORD PTR ___$ReturnUdt$[ebp]
	push	eax
	mov	ecx, DWORD PTR _this$[ebp]
	call	?_Insert@?$_Tree@V?$_Tmap_traits@IPAVHardwareBufferPool@Ogre@@U?$less@I@std@@V?$allocator@U?$pair@$$CBIPAVHardwareBufferPool@Ogre@@@std@@@4@$0A@@std@@@std@@IAE?AViterator@12@_NPAU_Node@?$_Tree_nod@V?$_Tmap_traits@IPAVHardwareBufferPool@Ogre@@U?$less@I@std@@V?$allocator@U?$pair@$$CBIPAVHardwareBufferPool@Ogre@@@std@@@4@$0A@@std@@@2@ABU?$pair@$$CBIPAVHardwareBufferPool@Ogre@@@2@@Z ; std::_Tree<std::_Tmap_traits<unsigned int,Ogre::HardwareBufferPool *,std::less<unsigned int>,std::allocator<std::pair<unsigned int const ,Ogre::HardwareBufferPool *> >,0> >::_Insert
	mov	eax, DWORD PTR ___$ReturnUdt$[ebp]
	jmp	$LN33@insert
	jmp	$LN31@insert
$LN32@insert:

; 675  : 		else if (this->_Multi)

	xor	ecx, ecx
	je	$LN30@insert

; 676  : 			{	// insert even if duplicate
; 677  : 			if (_Where == begin())

	lea	edx, DWORD PTR $T64183[ebp]
	push	edx
	mov	ecx, DWORD PTR _this$[ebp]
	call	?begin@?$_Tree@V?$_Tmap_traits@IPAVHardwareBufferPool@Ogre@@U?$less@I@std@@V?$allocator@U?$pair@$$CBIPAVHardwareBufferPool@Ogre@@@std@@@4@$0A@@std@@@std@@QAE?AViterator@12@XZ ; std::_Tree<std::_Tmap_traits<unsigned int,Ogre::HardwareBufferPool *,std::less<unsigned int>,std::allocator<std::pair<unsigned int const ,Ogre::HardwareBufferPool *> >,0> >::begin
	push	eax
	lea	ecx, DWORD PTR __Where$[ebp]
	call	??8const_iterator@?$_Tree@V?$_Tmap_traits@IPAVHardwareBufferPool@Ogre@@U?$less@I@std@@V?$allocator@U?$pair@$$CBIPAVHardwareBufferPool@Ogre@@@std@@@4@$0A@@std@@@std@@QBE_NABV012@@Z ; std::_Tree<std::_Tmap_traits<unsigned int,Ogre::HardwareBufferPool *,std::less<unsigned int>,std::allocator<std::pair<unsigned int const ,Ogre::HardwareBufferPool *> >,0> >::const_iterator::operator==
	movzx	eax, al
	test	eax, eax
	je	SHORT $LN29@insert

; 678  : 				{	// insert at beginning if before first element
; 679  : 				if (!_DEBUG_LT_PRED(this->comp,

	mov	ecx, DWORD PTR __Val$[ebp]
	push	ecx
	call	?_Kfn@?$_Tmap_traits@IPAVHardwareBufferPool@Ogre@@U?$less@I@std@@V?$allocator@U?$pair@$$CBIPAVHardwareBufferPool@Ogre@@@std@@@4@$0A@@std@@SAABIABU?$pair@$$CBIPAVHardwareBufferPool@Ogre@@@2@@Z ; std::_Tmap_traits<unsigned int,Ogre::HardwareBufferPool *,std::less<unsigned int>,std::allocator<std::pair<unsigned int const ,Ogre::HardwareBufferPool *> >,0>::_Kfn
	add	esp, 4
	push	eax
	lea	ecx, DWORD PTR __Where$[ebp]
	call	?_Mynode@const_iterator@?$_Tree@V?$_Tmap_traits@IPAVHardwareBufferPool@Ogre@@U?$less@I@std@@V?$allocator@U?$pair@$$CBIPAVHardwareBufferPool@Ogre@@@std@@@4@$0A@@std@@@std@@QBEPAU_Node@?$_Tree_nod@V?$_Tmap_traits@IPAVHardwareBufferPool@Ogre@@U?$less@I@std@@V?$allocator@U?$pair@$$CBIPAVHardwareBufferPool@Ogre@@@std@@@4@$0A@@std@@@3@XZ ; std::_Tree<std::_Tmap_traits<unsigned int,Ogre::HardwareBufferPool *,std::less<unsigned int>,std::allocator<std::pair<unsigned int const ,Ogre::HardwareBufferPool *> >,0> >::const_iterator::_Mynode
	push	eax
	call	?_Key@?$_Tree@V?$_Tmap_traits@IPAVHardwareBufferPool@Ogre@@U?$less@I@std@@V?$allocator@U?$pair@$$CBIPAVHardwareBufferPool@Ogre@@@std@@@4@$0A@@std@@@std@@KAABIPAU_Node@?$_Tree_nod@V?$_Tmap_traits@IPAVHardwareBufferPool@Ogre@@U?$less@I@std@@V?$allocator@U?$pair@$$CBIPAVHardwareBufferPool@Ogre@@@std@@@4@$0A@@std@@@2@@Z ; std::_Tree<std::_Tmap_traits<unsigned int,Ogre::HardwareBufferPool *,std::less<unsigned int>,std::allocator<std::pair<unsigned int const ,Ogre::HardwareBufferPool *> >,0> >::_Key
	add	esp, 4
	push	eax
	mov	ecx, DWORD PTR _this$[ebp]
	add	ecx, 8
	call	??R?$less@I@std@@QBE_NABI0@Z		; std::less<unsigned int>::operator()
	movzx	edx, al
	test	edx, edx
	jne	SHORT $LN28@insert

; 680  : 					_Key(_Where._Mynode()), this->_Kfn(_Val)))
; 681  : 					return (_Insert(true, _Where._Mynode(), _Val));

	mov	eax, DWORD PTR __Val$[ebp]
	push	eax
	lea	ecx, DWORD PTR __Where$[ebp]
	call	?_Mynode@const_iterator@?$_Tree@V?$_Tmap_traits@IPAVHardwareBufferPool@Ogre@@U?$less@I@std@@V?$allocator@U?$pair@$$CBIPAVHardwareBufferPool@Ogre@@@std@@@4@$0A@@std@@@std@@QBEPAU_Node@?$_Tree_nod@V?$_Tmap_traits@IPAVHardwareBufferPool@Ogre@@U?$less@I@std@@V?$allocator@U?$pair@$$CBIPAVHardwareBufferPool@Ogre@@@std@@@4@$0A@@std@@@3@XZ ; std::_Tree<std::_Tmap_traits<unsigned int,Ogre::HardwareBufferPool *,std::less<unsigned int>,std::allocator<std::pair<unsigned int const ,Ogre::HardwareBufferPool *> >,0> >::const_iterator::_Mynode
	push	eax
	push	1
	mov	ecx, DWORD PTR ___$ReturnUdt$[ebp]
	push	ecx
	mov	ecx, DWORD PTR _this$[ebp]
	call	?_Insert@?$_Tree@V?$_Tmap_traits@IPAVHardwareBufferPool@Ogre@@U?$less@I@std@@V?$allocator@U?$pair@$$CBIPAVHardwareBufferPool@Ogre@@@std@@@4@$0A@@std@@@std@@IAE?AViterator@12@_NPAU_Node@?$_Tree_nod@V?$_Tmap_traits@IPAVHardwareBufferPool@Ogre@@U?$less@I@std@@V?$allocator@U?$pair@$$CBIPAVHardwareBufferPool@Ogre@@@std@@@4@$0A@@std@@@2@ABU?$pair@$$CBIPAVHardwareBufferPool@Ogre@@@2@@Z ; std::_Tree<std::_Tmap_traits<unsigned int,Ogre::HardwareBufferPool *,std::less<unsigned int>,std::allocator<std::pair<unsigned int const ,Ogre::HardwareBufferPool *> >,0> >::_Insert
	mov	eax, DWORD PTR ___$ReturnUdt$[ebp]
	jmp	$LN33@insert
$LN28@insert:

; 682  : 				}

	jmp	$LN27@insert
$LN29@insert:

; 683  : 			else if (_Where == end())

	lea	edx, DWORD PTR $T64184[ebp]
	push	edx
	mov	ecx, DWORD PTR _this$[ebp]
	call	?end@?$_Tree@V?$_Tmap_traits@IPAVHardwareBufferPool@Ogre@@U?$less@I@std@@V?$allocator@U?$pair@$$CBIPAVHardwareBufferPool@Ogre@@@std@@@4@$0A@@std@@@std@@QAE?AViterator@12@XZ ; std::_Tree<std::_Tmap_traits<unsigned int,Ogre::HardwareBufferPool *,std::less<unsigned int>,std::allocator<std::pair<unsigned int const ,Ogre::HardwareBufferPool *> >,0> >::end
	push	eax
	lea	ecx, DWORD PTR __Where$[ebp]
	call	??8const_iterator@?$_Tree@V?$_Tmap_traits@IPAVHardwareBufferPool@Ogre@@U?$less@I@std@@V?$allocator@U?$pair@$$CBIPAVHardwareBufferPool@Ogre@@@std@@@4@$0A@@std@@@std@@QBE_NABV012@@Z ; std::_Tree<std::_Tmap_traits<unsigned int,Ogre::HardwareBufferPool *,std::less<unsigned int>,std::allocator<std::pair<unsigned int const ,Ogre::HardwareBufferPool *> >,0> >::const_iterator::operator==
	movzx	eax, al
	test	eax, eax
	je	SHORT $LN26@insert

; 684  : 				{	// insert at end if after last element
; 685  : 				if (!_DEBUG_LT_PRED(this->comp,

	mov	ecx, DWORD PTR _this$[ebp]
	call	?_Rmost@?$_Tree@V?$_Tmap_traits@IPAVHardwareBufferPool@Ogre@@U?$less@I@std@@V?$allocator@U?$pair@$$CBIPAVHardwareBufferPool@Ogre@@@std@@@4@$0A@@std@@@std@@IBEAAPAU_Node@?$_Tree_nod@V?$_Tmap_traits@IPAVHardwareBufferPool@Ogre@@U?$less@I@std@@V?$allocator@U?$pair@$$CBIPAVHardwareBufferPool@Ogre@@@std@@@4@$0A@@std@@@2@XZ ; std::_Tree<std::_Tmap_traits<unsigned int,Ogre::HardwareBufferPool *,std::less<unsigned int>,std::allocator<std::pair<unsigned int const ,Ogre::HardwareBufferPool *> >,0> >::_Rmost
	mov	ecx, DWORD PTR [eax]
	push	ecx
	call	?_Key@?$_Tree@V?$_Tmap_traits@IPAVHardwareBufferPool@Ogre@@U?$less@I@std@@V?$allocator@U?$pair@$$CBIPAVHardwareBufferPool@Ogre@@@std@@@4@$0A@@std@@@std@@KAABIPAU_Node@?$_Tree_nod@V?$_Tmap_traits@IPAVHardwareBufferPool@Ogre@@U?$less@I@std@@V?$allocator@U?$pair@$$CBIPAVHardwareBufferPool@Ogre@@@std@@@4@$0A@@std@@@2@@Z ; std::_Tree<std::_Tmap_traits<unsigned int,Ogre::HardwareBufferPool *,std::less<unsigned int>,std::allocator<std::pair<unsigned int const ,Ogre::HardwareBufferPool *> >,0> >::_Key
	add	esp, 4
	push	eax
	mov	edx, DWORD PTR __Val$[ebp]
	push	edx
	call	?_Kfn@?$_Tmap_traits@IPAVHardwareBufferPool@Ogre@@U?$less@I@std@@V?$allocator@U?$pair@$$CBIPAVHardwareBufferPool@Ogre@@@std@@@4@$0A@@std@@SAABIABU?$pair@$$CBIPAVHardwareBufferPool@Ogre@@@2@@Z ; std::_Tmap_traits<unsigned int,Ogre::HardwareBufferPool *,std::less<unsigned int>,std::allocator<std::pair<unsigned int const ,Ogre::HardwareBufferPool *> >,0>::_Kfn
	add	esp, 4
	push	eax
	mov	ecx, DWORD PTR _this$[ebp]
	add	ecx, 8
	call	??R?$less@I@std@@QBE_NABI0@Z		; std::less<unsigned int>::operator()
	movzx	eax, al
	test	eax, eax
	jne	SHORT $LN25@insert

; 686  : 					this->_Kfn(_Val), _Key(_Rmost())))
; 687  : 					return (_Insert(false, _Rmost(), _Val));

	mov	ecx, DWORD PTR __Val$[ebp]
	push	ecx
	mov	ecx, DWORD PTR _this$[ebp]
	call	?_Rmost@?$_Tree@V?$_Tmap_traits@IPAVHardwareBufferPool@Ogre@@U?$less@I@std@@V?$allocator@U?$pair@$$CBIPAVHardwareBufferPool@Ogre@@@std@@@4@$0A@@std@@@std@@IBEAAPAU_Node@?$_Tree_nod@V?$_Tmap_traits@IPAVHardwareBufferPool@Ogre@@U?$less@I@std@@V?$allocator@U?$pair@$$CBIPAVHardwareBufferPool@Ogre@@@std@@@4@$0A@@std@@@2@XZ ; std::_Tree<std::_Tmap_traits<unsigned int,Ogre::HardwareBufferPool *,std::less<unsigned int>,std::allocator<std::pair<unsigned int const ,Ogre::HardwareBufferPool *> >,0> >::_Rmost
	mov	edx, DWORD PTR [eax]
	push	edx
	push	0
	mov	eax, DWORD PTR ___$ReturnUdt$[ebp]
	push	eax
	mov	ecx, DWORD PTR _this$[ebp]
	call	?_Insert@?$_Tree@V?$_Tmap_traits@IPAVHardwareBufferPool@Ogre@@U?$less@I@std@@V?$allocator@U?$pair@$$CBIPAVHardwareBufferPool@Ogre@@@std@@@4@$0A@@std@@@std@@IAE?AViterator@12@_NPAU_Node@?$_Tree_nod@V?$_Tmap_traits@IPAVHardwareBufferPool@Ogre@@U?$less@I@std@@V?$allocator@U?$pair@$$CBIPAVHardwareBufferPool@Ogre@@@std@@@4@$0A@@std@@@2@ABU?$pair@$$CBIPAVHardwareBufferPool@Ogre@@@2@@Z ; std::_Tree<std::_Tmap_traits<unsigned int,Ogre::HardwareBufferPool *,std::less<unsigned int>,std::allocator<std::pair<unsigned int const ,Ogre::HardwareBufferPool *> >,0> >::_Insert
	mov	eax, DWORD PTR ___$ReturnUdt$[ebp]
	jmp	$LN33@insert
$LN25@insert:

; 688  : 				}
; 689  : 			else if (!_DEBUG_LT_PRED(this->comp,

	jmp	$LN27@insert
$LN26@insert:

; 690  : 				_Key(_Where._Mynode()), this->_Kfn(_Val))
; 691  : 				&& !_DEBUG_LT_PRED(this->comp,

	mov	ecx, DWORD PTR __Val$[ebp]
	push	ecx
	call	?_Kfn@?$_Tmap_traits@IPAVHardwareBufferPool@Ogre@@U?$less@I@std@@V?$allocator@U?$pair@$$CBIPAVHardwareBufferPool@Ogre@@@std@@@4@$0A@@std@@SAABIABU?$pair@$$CBIPAVHardwareBufferPool@Ogre@@@2@@Z ; std::_Tmap_traits<unsigned int,Ogre::HardwareBufferPool *,std::less<unsigned int>,std::allocator<std::pair<unsigned int const ,Ogre::HardwareBufferPool *> >,0>::_Kfn
	add	esp, 4
	push	eax
	lea	ecx, DWORD PTR __Where$[ebp]
	call	?_Mynode@const_iterator@?$_Tree@V?$_Tmap_traits@IPAVHardwareBufferPool@Ogre@@U?$less@I@std@@V?$allocator@U?$pair@$$CBIPAVHardwareBufferPool@Ogre@@@std@@@4@$0A@@std@@@std@@QBEPAU_Node@?$_Tree_nod@V?$_Tmap_traits@IPAVHardwareBufferPool@Ogre@@U?$less@I@std@@V?$allocator@U?$pair@$$CBIPAVHardwareBufferPool@Ogre@@@std@@@4@$0A@@std@@@3@XZ ; std::_Tree<std::_Tmap_traits<unsigned int,Ogre::HardwareBufferPool *,std::less<unsigned int>,std::allocator<std::pair<unsigned int const ,Ogre::HardwareBufferPool *> >,0> >::const_iterator::_Mynode
	push	eax
	call	?_Key@?$_Tree@V?$_Tmap_traits@IPAVHardwareBufferPool@Ogre@@U?$less@I@std@@V?$allocator@U?$pair@$$CBIPAVHardwareBufferPool@Ogre@@@std@@@4@$0A@@std@@@std@@KAABIPAU_Node@?$_Tree_nod@V?$_Tmap_traits@IPAVHardwareBufferPool@Ogre@@U?$less@I@std@@V?$allocator@U?$pair@$$CBIPAVHardwareBufferPool@Ogre@@@std@@@4@$0A@@std@@@2@@Z ; std::_Tree<std::_Tmap_traits<unsigned int,Ogre::HardwareBufferPool *,std::less<unsigned int>,std::allocator<std::pair<unsigned int const ,Ogre::HardwareBufferPool *> >,0> >::_Key
	add	esp, 4
	push	eax
	mov	ecx, DWORD PTR _this$[ebp]
	add	ecx, 8
	call	??R?$less@I@std@@QBE_NABI0@Z		; std::less<unsigned int>::operator()
	movzx	edx, al
	test	edx, edx
	jne	$LN23@insert
	mov	eax, DWORD PTR __Where$[ebp]
	mov	DWORD PTR __Next$[ebp], eax
	mov	ecx, DWORD PTR __Where$[ebp+4]
	mov	DWORD PTR __Next$[ebp+4], ecx
	lea	ecx, DWORD PTR __Next$[ebp]
	call	??Fconst_iterator@?$_Tree@V?$_Tmap_traits@IPAVHardwareBufferPool@Ogre@@U?$less@I@std@@V?$allocator@U?$pair@$$CBIPAVHardwareBufferPool@Ogre@@@std@@@4@$0A@@std@@@std@@QAEAAV012@XZ ; std::_Tree<std::_Tmap_traits<unsigned int,Ogre::HardwareBufferPool *,std::less<unsigned int>,std::allocator<std::pair<unsigned int const ,Ogre::HardwareBufferPool *> >,0> >::const_iterator::operator--
	mov	ecx, eax
	call	?_Mynode@const_iterator@?$_Tree@V?$_Tmap_traits@IPAVHardwareBufferPool@Ogre@@U?$less@I@std@@V?$allocator@U?$pair@$$CBIPAVHardwareBufferPool@Ogre@@@std@@@4@$0A@@std@@@std@@QBEPAU_Node@?$_Tree_nod@V?$_Tmap_traits@IPAVHardwareBufferPool@Ogre@@U?$less@I@std@@V?$allocator@U?$pair@$$CBIPAVHardwareBufferPool@Ogre@@@std@@@4@$0A@@std@@@3@XZ ; std::_Tree<std::_Tmap_traits<unsigned int,Ogre::HardwareBufferPool *,std::less<unsigned int>,std::allocator<std::pair<unsigned int const ,Ogre::HardwareBufferPool *> >,0> >::const_iterator::_Mynode
	push	eax
	call	?_Key@?$_Tree@V?$_Tmap_traits@IPAVHardwareBufferPool@Ogre@@U?$less@I@std@@V?$allocator@U?$pair@$$CBIPAVHardwareBufferPool@Ogre@@@std@@@4@$0A@@std@@@std@@KAABIPAU_Node@?$_Tree_nod@V?$_Tmap_traits@IPAVHardwareBufferPool@Ogre@@U?$less@I@std@@V?$allocator@U?$pair@$$CBIPAVHardwareBufferPool@Ogre@@@std@@@4@$0A@@std@@@2@@Z ; std::_Tree<std::_Tmap_traits<unsigned int,Ogre::HardwareBufferPool *,std::less<unsigned int>,std::allocator<std::pair<unsigned int const ,Ogre::HardwareBufferPool *> >,0> >::_Key
	add	esp, 4
	push	eax
	mov	edx, DWORD PTR __Val$[ebp]
	push	edx
	call	?_Kfn@?$_Tmap_traits@IPAVHardwareBufferPool@Ogre@@U?$less@I@std@@V?$allocator@U?$pair@$$CBIPAVHardwareBufferPool@Ogre@@@std@@@4@$0A@@std@@SAABIABU?$pair@$$CBIPAVHardwareBufferPool@Ogre@@@2@@Z ; std::_Tmap_traits<unsigned int,Ogre::HardwareBufferPool *,std::less<unsigned int>,std::allocator<std::pair<unsigned int const ,Ogre::HardwareBufferPool *> >,0>::_Kfn
	add	esp, 4
	push	eax
	mov	ecx, DWORD PTR _this$[ebp]
	add	ecx, 8
	call	??R?$less@I@std@@QBE_NABI0@Z		; std::less<unsigned int>::operator()
	movzx	eax, al
	test	eax, eax
	jne	SHORT $LN23@insert

; 692  : 					this->_Kfn(_Val), _Key((--(_Next = _Where))._Mynode())))
; 693  : 				{	// insert before _Where
; 694  : 				if (_Isnil(_Right(_Next._Mynode())))

	lea	ecx, DWORD PTR __Next$[ebp]
	call	?_Mynode@const_iterator@?$_Tree@V?$_Tmap_traits@IPAVHardwareBufferPool@Ogre@@U?$less@I@std@@V?$allocator@U?$pair@$$CBIPAVHardwareBufferPool@Ogre@@@std@@@4@$0A@@std@@@std@@QBEPAU_Node@?$_Tree_nod@V?$_Tmap_traits@IPAVHardwareBufferPool@Ogre@@U?$less@I@std@@V?$allocator@U?$pair@$$CBIPAVHardwareBufferPool@Ogre@@@std@@@4@$0A@@std@@@3@XZ ; std::_Tree<std::_Tmap_traits<unsigned int,Ogre::HardwareBufferPool *,std::less<unsigned int>,std::allocator<std::pair<unsigned int const ,Ogre::HardwareBufferPool *> >,0> >::const_iterator::_Mynode
	push	eax
	call	?_Right@?$_Tree@V?$_Tmap_traits@IPAVHardwareBufferPool@Ogre@@U?$less@I@std@@V?$allocator@U?$pair@$$CBIPAVHardwareBufferPool@Ogre@@@std@@@4@$0A@@std@@@std@@KAAAPAU_Node@?$_Tree_nod@V?$_Tmap_traits@IPAVHardwareBufferPool@Ogre@@U?$less@I@std@@V?$allocator@U?$pair@$$CBIPAVHardwareBufferPool@Ogre@@@std@@@4@$0A@@std@@@2@PAU342@@Z ; std::_Tree<std::_Tmap_traits<unsigned int,Ogre::HardwareBufferPool *,std::less<unsigned int>,std::allocator<std::pair<unsigned int const ,Ogre::HardwareBufferPool *> >,0> >::_Right
	add	esp, 4
	mov	ecx, DWORD PTR [eax]
	push	ecx
	call	?_Isnil@?$_Tree@V?$_Tmap_traits@IPAVHardwareBufferPool@Ogre@@U?$less@I@std@@V?$allocator@U?$pair@$$CBIPAVHardwareBufferPool@Ogre@@@std@@@4@$0A@@std@@@std@@KAAADPAU_Node@?$_Tree_nod@V?$_Tmap_traits@IPAVHardwareBufferPool@Ogre@@U?$less@I@std@@V?$allocator@U?$pair@$$CBIPAVHardwareBufferPool@Ogre@@@std@@@4@$0A@@std@@@2@@Z ; std::_Tree<std::_Tmap_traits<unsigned int,Ogre::HardwareBufferPool *,std::less<unsigned int>,std::allocator<std::pair<unsigned int const ,Ogre::HardwareBufferPool *> >,0> >::_Isnil
	add	esp, 4
	movsx	edx, BYTE PTR [eax]
	test	edx, edx
	je	SHORT $LN22@insert

; 695  : 					return (_Insert(false, _Next._Mynode(), _Val));

	mov	eax, DWORD PTR __Val$[ebp]
	push	eax
	lea	ecx, DWORD PTR __Next$[ebp]
	call	?_Mynode@const_iterator@?$_Tree@V?$_Tmap_traits@IPAVHardwareBufferPool@Ogre@@U?$less@I@std@@V?$allocator@U?$pair@$$CBIPAVHardwareBufferPool@Ogre@@@std@@@4@$0A@@std@@@std@@QBEPAU_Node@?$_Tree_nod@V?$_Tmap_traits@IPAVHardwareBufferPool@Ogre@@U?$less@I@std@@V?$allocator@U?$pair@$$CBIPAVHardwareBufferPool@Ogre@@@std@@@4@$0A@@std@@@3@XZ ; std::_Tree<std::_Tmap_traits<unsigned int,Ogre::HardwareBufferPool *,std::less<unsigned int>,std::allocator<std::pair<unsigned int const ,Ogre::HardwareBufferPool *> >,0> >::const_iterator::_Mynode
	push	eax
	push	0
	mov	ecx, DWORD PTR ___$ReturnUdt$[ebp]
	push	ecx
	mov	ecx, DWORD PTR _this$[ebp]
	call	?_Insert@?$_Tree@V?$_Tmap_traits@IPAVHardwareBufferPool@Ogre@@U?$less@I@std@@V?$allocator@U?$pair@$$CBIPAVHardwareBufferPool@Ogre@@@std@@@4@$0A@@std@@@std@@IAE?AViterator@12@_NPAU_Node@?$_Tree_nod@V?$_Tmap_traits@IPAVHardwareBufferPool@Ogre@@U?$less@I@std@@V?$allocator@U?$pair@$$CBIPAVHardwareBufferPool@Ogre@@@std@@@4@$0A@@std@@@2@ABU?$pair@$$CBIPAVHardwareBufferPool@Ogre@@@2@@Z ; std::_Tree<std::_Tmap_traits<unsigned int,Ogre::HardwareBufferPool *,std::less<unsigned int>,std::allocator<std::pair<unsigned int const ,Ogre::HardwareBufferPool *> >,0> >::_Insert
	mov	eax, DWORD PTR ___$ReturnUdt$[ebp]
	jmp	$LN33@insert

; 696  : 				else

	jmp	SHORT $LN21@insert
$LN22@insert:

; 697  : 					return (_Insert(true, _Where._Mynode(), _Val));

	mov	edx, DWORD PTR __Val$[ebp]
	push	edx
	lea	ecx, DWORD PTR __Where$[ebp]
	call	?_Mynode@const_iterator@?$_Tree@V?$_Tmap_traits@IPAVHardwareBufferPool@Ogre@@U?$less@I@std@@V?$allocator@U?$pair@$$CBIPAVHardwareBufferPool@Ogre@@@std@@@4@$0A@@std@@@std@@QBEPAU_Node@?$_Tree_nod@V?$_Tmap_traits@IPAVHardwareBufferPool@Ogre@@U?$less@I@std@@V?$allocator@U?$pair@$$CBIPAVHardwareBufferPool@Ogre@@@std@@@4@$0A@@std@@@3@XZ ; std::_Tree<std::_Tmap_traits<unsigned int,Ogre::HardwareBufferPool *,std::less<unsigned int>,std::allocator<std::pair<unsigned int const ,Ogre::HardwareBufferPool *> >,0> >::const_iterator::_Mynode
	push	eax
	push	1
	mov	eax, DWORD PTR ___$ReturnUdt$[ebp]
	push	eax
	mov	ecx, DWORD PTR _this$[ebp]
	call	?_Insert@?$_Tree@V?$_Tmap_traits@IPAVHardwareBufferPool@Ogre@@U?$less@I@std@@V?$allocator@U?$pair@$$CBIPAVHardwareBufferPool@Ogre@@@std@@@4@$0A@@std@@@std@@IAE?AViterator@12@_NPAU_Node@?$_Tree_nod@V?$_Tmap_traits@IPAVHardwareBufferPool@Ogre@@U?$less@I@std@@V?$allocator@U?$pair@$$CBIPAVHardwareBufferPool@Ogre@@@std@@@4@$0A@@std@@@2@ABU?$pair@$$CBIPAVHardwareBufferPool@Ogre@@@2@@Z ; std::_Tree<std::_Tmap_traits<unsigned int,Ogre::HardwareBufferPool *,std::less<unsigned int>,std::allocator<std::pair<unsigned int const ,Ogre::HardwareBufferPool *> >,0> >::_Insert
	mov	eax, DWORD PTR ___$ReturnUdt$[ebp]
	jmp	$LN33@insert
$LN21@insert:

; 698  : 				}
; 699  : 			else if (!_DEBUG_LT_PRED(this->comp,

	jmp	$LN27@insert
$LN23@insert:

; 700  : 				this->_Kfn(_Val), _Key(_Where._Mynode()))
; 701  : 				&& (++(_Next = _Where) == end()
; 702  : 					|| !_DEBUG_LT_PRED(this->comp,

	lea	ecx, DWORD PTR __Where$[ebp]
	call	?_Mynode@const_iterator@?$_Tree@V?$_Tmap_traits@IPAVHardwareBufferPool@Ogre@@U?$less@I@std@@V?$allocator@U?$pair@$$CBIPAVHardwareBufferPool@Ogre@@@std@@@4@$0A@@std@@@std@@QBEPAU_Node@?$_Tree_nod@V?$_Tmap_traits@IPAVHardwareBufferPool@Ogre@@U?$less@I@std@@V?$allocator@U?$pair@$$CBIPAVHardwareBufferPool@Ogre@@@std@@@4@$0A@@std@@@3@XZ ; std::_Tree<std::_Tmap_traits<unsigned int,Ogre::HardwareBufferPool *,std::less<unsigned int>,std::allocator<std::pair<unsigned int const ,Ogre::HardwareBufferPool *> >,0> >::const_iterator::_Mynode
	push	eax
	call	?_Key@?$_Tree@V?$_Tmap_traits@IPAVHardwareBufferPool@Ogre@@U?$less@I@std@@V?$allocator@U?$pair@$$CBIPAVHardwareBufferPool@Ogre@@@std@@@4@$0A@@std@@@std@@KAABIPAU_Node@?$_Tree_nod@V?$_Tmap_traits@IPAVHardwareBufferPool@Ogre@@U?$less@I@std@@V?$allocator@U?$pair@$$CBIPAVHardwareBufferPool@Ogre@@@std@@@4@$0A@@std@@@2@@Z ; std::_Tree<std::_Tmap_traits<unsigned int,Ogre::HardwareBufferPool *,std::less<unsigned int>,std::allocator<std::pair<unsigned int const ,Ogre::HardwareBufferPool *> >,0> >::_Key
	add	esp, 4
	push	eax
	mov	ecx, DWORD PTR __Val$[ebp]
	push	ecx
	call	?_Kfn@?$_Tmap_traits@IPAVHardwareBufferPool@Ogre@@U?$less@I@std@@V?$allocator@U?$pair@$$CBIPAVHardwareBufferPool@Ogre@@@std@@@4@$0A@@std@@SAABIABU?$pair@$$CBIPAVHardwareBufferPool@Ogre@@@2@@Z ; std::_Tmap_traits<unsigned int,Ogre::HardwareBufferPool *,std::less<unsigned int>,std::allocator<std::pair<unsigned int const ,Ogre::HardwareBufferPool *> >,0>::_Kfn
	add	esp, 4
	push	eax
	mov	ecx, DWORD PTR _this$[ebp]
	add	ecx, 8
	call	??R?$less@I@std@@QBE_NABI0@Z		; std::less<unsigned int>::operator()
	movzx	edx, al
	test	edx, edx
	jne	$LN27@insert
	mov	eax, DWORD PTR __Where$[ebp]
	mov	DWORD PTR __Next$[ebp], eax
	mov	ecx, DWORD PTR __Where$[ebp+4]
	mov	DWORD PTR __Next$[ebp+4], ecx
	lea	edx, DWORD PTR $T64185[ebp]
	push	edx
	mov	ecx, DWORD PTR _this$[ebp]
	call	?end@?$_Tree@V?$_Tmap_traits@IPAVHardwareBufferPool@Ogre@@U?$less@I@std@@V?$allocator@U?$pair@$$CBIPAVHardwareBufferPool@Ogre@@@std@@@4@$0A@@std@@@std@@QAE?AViterator@12@XZ ; std::_Tree<std::_Tmap_traits<unsigned int,Ogre::HardwareBufferPool *,std::less<unsigned int>,std::allocator<std::pair<unsigned int const ,Ogre::HardwareBufferPool *> >,0> >::end
	push	eax
	lea	ecx, DWORD PTR __Next$[ebp]
	call	??Econst_iterator@?$_Tree@V?$_Tmap_traits@IPAVHardwareBufferPool@Ogre@@U?$less@I@std@@V?$allocator@U?$pair@$$CBIPAVHardwareBufferPool@Ogre@@@std@@@4@$0A@@std@@@std@@QAEAAV012@XZ ; std::_Tree<std::_Tmap_traits<unsigned int,Ogre::HardwareBufferPool *,std::less<unsigned int>,std::allocator<std::pair<unsigned int const ,Ogre::HardwareBufferPool *> >,0> >::const_iterator::operator++
	mov	ecx, eax
	call	??8const_iterator@?$_Tree@V?$_Tmap_traits@IPAVHardwareBufferPool@Ogre@@U?$less@I@std@@V?$allocator@U?$pair@$$CBIPAVHardwareBufferPool@Ogre@@@std@@@4@$0A@@std@@@std@@QBE_NABV012@@Z ; std::_Tree<std::_Tmap_traits<unsigned int,Ogre::HardwareBufferPool *,std::less<unsigned int>,std::allocator<std::pair<unsigned int const ,Ogre::HardwareBufferPool *> >,0> >::const_iterator::operator==
	movzx	eax, al
	test	eax, eax
	jne	SHORT $LN18@insert
	mov	ecx, DWORD PTR __Val$[ebp]
	push	ecx
	call	?_Kfn@?$_Tmap_traits@IPAVHardwareBufferPool@Ogre@@U?$less@I@std@@V?$allocator@U?$pair@$$CBIPAVHardwareBufferPool@Ogre@@@std@@@4@$0A@@std@@SAABIABU?$pair@$$CBIPAVHardwareBufferPool@Ogre@@@2@@Z ; std::_Tmap_traits<unsigned int,Ogre::HardwareBufferPool *,std::less<unsigned int>,std::allocator<std::pair<unsigned int const ,Ogre::HardwareBufferPool *> >,0>::_Kfn
	add	esp, 4
	push	eax
	lea	ecx, DWORD PTR __Next$[ebp]
	call	?_Mynode@const_iterator@?$_Tree@V?$_Tmap_traits@IPAVHardwareBufferPool@Ogre@@U?$less@I@std@@V?$allocator@U?$pair@$$CBIPAVHardwareBufferPool@Ogre@@@std@@@4@$0A@@std@@@std@@QBEPAU_Node@?$_Tree_nod@V?$_Tmap_traits@IPAVHardwareBufferPool@Ogre@@U?$less@I@std@@V?$allocator@U?$pair@$$CBIPAVHardwareBufferPool@Ogre@@@std@@@4@$0A@@std@@@3@XZ ; std::_Tree<std::_Tmap_traits<unsigned int,Ogre::HardwareBufferPool *,std::less<unsigned int>,std::allocator<std::pair<unsigned int const ,Ogre::HardwareBufferPool *> >,0> >::const_iterator::_Mynode
	push	eax
	call	?_Key@?$_Tree@V?$_Tmap_traits@IPAVHardwareBufferPool@Ogre@@U?$less@I@std@@V?$allocator@U?$pair@$$CBIPAVHardwareBufferPool@Ogre@@@std@@@4@$0A@@std@@@std@@KAABIPAU_Node@?$_Tree_nod@V?$_Tmap_traits@IPAVHardwareBufferPool@Ogre@@U?$less@I@std@@V?$allocator@U?$pair@$$CBIPAVHardwareBufferPool@Ogre@@@std@@@4@$0A@@std@@@2@@Z ; std::_Tree<std::_Tmap_traits<unsigned int,Ogre::HardwareBufferPool *,std::less<unsigned int>,std::allocator<std::pair<unsigned int const ,Ogre::HardwareBufferPool *> >,0> >::_Key
	add	esp, 4
	push	eax
	mov	ecx, DWORD PTR _this$[ebp]
	add	ecx, 8
	call	??R?$less@I@std@@QBE_NABI0@Z		; std::less<unsigned int>::operator()
	movzx	edx, al
	test	edx, edx
	jne	SHORT $LN27@insert
$LN18@insert:

; 703  : 						_Key(_Next._Mynode()), this->_Kfn(_Val))))
; 704  : 				{	// insert after _Where
; 705  : 				if (_Isnil(_Right(_Where._Mynode())))

	lea	ecx, DWORD PTR __Where$[ebp]
	call	?_Mynode@const_iterator@?$_Tree@V?$_Tmap_traits@IPAVHardwareBufferPool@Ogre@@U?$less@I@std@@V?$allocator@U?$pair@$$CBIPAVHardwareBufferPool@Ogre@@@std@@@4@$0A@@std@@@std@@QBEPAU_Node@?$_Tree_nod@V?$_Tmap_traits@IPAVHardwareBufferPool@Ogre@@U?$less@I@std@@V?$allocator@U?$pair@$$CBIPAVHardwareBufferPool@Ogre@@@std@@@4@$0A@@std@@@3@XZ ; std::_Tree<std::_Tmap_traits<unsigned int,Ogre::HardwareBufferPool *,std::less<unsigned int>,std::allocator<std::pair<unsigned int const ,Ogre::HardwareBufferPool *> >,0> >::const_iterator::_Mynode
	push	eax
	call	?_Right@?$_Tree@V?$_Tmap_traits@IPAVHardwareBufferPool@Ogre@@U?$less@I@std@@V?$allocator@U?$pair@$$CBIPAVHardwareBufferPool@Ogre@@@std@@@4@$0A@@std@@@std@@KAAAPAU_Node@?$_Tree_nod@V?$_Tmap_traits@IPAVHardwareBufferPool@Ogre@@U?$less@I@std@@V?$allocator@U?$pair@$$CBIPAVHardwareBufferPool@Ogre@@@std@@@4@$0A@@std@@@2@PAU342@@Z ; std::_Tree<std::_Tmap_traits<unsigned int,Ogre::HardwareBufferPool *,std::less<unsigned int>,std::allocator<std::pair<unsigned int const ,Ogre::HardwareBufferPool *> >,0> >::_Right
	add	esp, 4
	mov	eax, DWORD PTR [eax]
	push	eax
	call	?_Isnil@?$_Tree@V?$_Tmap_traits@IPAVHardwareBufferPool@Ogre@@U?$less@I@std@@V?$allocator@U?$pair@$$CBIPAVHardwareBufferPool@Ogre@@@std@@@4@$0A@@std@@@std@@KAAADPAU_Node@?$_Tree_nod@V?$_Tmap_traits@IPAVHardwareBufferPool@Ogre@@U?$less@I@std@@V?$allocator@U?$pair@$$CBIPAVHardwareBufferPool@Ogre@@@std@@@4@$0A@@std@@@2@@Z ; std::_Tree<std::_Tmap_traits<unsigned int,Ogre::HardwareBufferPool *,std::less<unsigned int>,std::allocator<std::pair<unsigned int const ,Ogre::HardwareBufferPool *> >,0> >::_Isnil
	add	esp, 4
	movsx	ecx, BYTE PTR [eax]
	test	ecx, ecx
	je	SHORT $LN17@insert

; 706  : 					return (_Insert(false, _Where._Mynode(), _Val));

	mov	edx, DWORD PTR __Val$[ebp]
	push	edx
	lea	ecx, DWORD PTR __Where$[ebp]
	call	?_Mynode@const_iterator@?$_Tree@V?$_Tmap_traits@IPAVHardwareBufferPool@Ogre@@U?$less@I@std@@V?$allocator@U?$pair@$$CBIPAVHardwareBufferPool@Ogre@@@std@@@4@$0A@@std@@@std@@QBEPAU_Node@?$_Tree_nod@V?$_Tmap_traits@IPAVHardwareBufferPool@Ogre@@U?$less@I@std@@V?$allocator@U?$pair@$$CBIPAVHardwareBufferPool@Ogre@@@std@@@4@$0A@@std@@@3@XZ ; std::_Tree<std::_Tmap_traits<unsigned int,Ogre::HardwareBufferPool *,std::less<unsigned int>,std::allocator<std::pair<unsigned int const ,Ogre::HardwareBufferPool *> >,0> >::const_iterator::_Mynode
	push	eax
	push	0
	mov	eax, DWORD PTR ___$ReturnUdt$[ebp]
	push	eax
	mov	ecx, DWORD PTR _this$[ebp]
	call	?_Insert@?$_Tree@V?$_Tmap_traits@IPAVHardwareBufferPool@Ogre@@U?$less@I@std@@V?$allocator@U?$pair@$$CBIPAVHardwareBufferPool@Ogre@@@std@@@4@$0A@@std@@@std@@IAE?AViterator@12@_NPAU_Node@?$_Tree_nod@V?$_Tmap_traits@IPAVHardwareBufferPool@Ogre@@U?$less@I@std@@V?$allocator@U?$pair@$$CBIPAVHardwareBufferPool@Ogre@@@std@@@4@$0A@@std@@@2@ABU?$pair@$$CBIPAVHardwareBufferPool@Ogre@@@2@@Z ; std::_Tree<std::_Tmap_traits<unsigned int,Ogre::HardwareBufferPool *,std::less<unsigned int>,std::allocator<std::pair<unsigned int const ,Ogre::HardwareBufferPool *> >,0> >::_Insert
	mov	eax, DWORD PTR ___$ReturnUdt$[ebp]
	jmp	$LN33@insert

; 707  : 				else

	jmp	SHORT $LN27@insert
$LN17@insert:

; 708  : 					return (_Insert(true, _Next._Mynode(), _Val));

	mov	ecx, DWORD PTR __Val$[ebp]
	push	ecx
	lea	ecx, DWORD PTR __Next$[ebp]
	call	?_Mynode@const_iterator@?$_Tree@V?$_Tmap_traits@IPAVHardwareBufferPool@Ogre@@U?$less@I@std@@V?$allocator@U?$pair@$$CBIPAVHardwareBufferPool@Ogre@@@std@@@4@$0A@@std@@@std@@QBEPAU_Node@?$_Tree_nod@V?$_Tmap_traits@IPAVHardwareBufferPool@Ogre@@U?$less@I@std@@V?$allocator@U?$pair@$$CBIPAVHardwareBufferPool@Ogre@@@std@@@4@$0A@@std@@@3@XZ ; std::_Tree<std::_Tmap_traits<unsigned int,Ogre::HardwareBufferPool *,std::less<unsigned int>,std::allocator<std::pair<unsigned int const ,Ogre::HardwareBufferPool *> >,0> >::const_iterator::_Mynode
	push	eax
	push	1
	mov	edx, DWORD PTR ___$ReturnUdt$[ebp]
	push	edx
	mov	ecx, DWORD PTR _this$[ebp]
	call	?_Insert@?$_Tree@V?$_Tmap_traits@IPAVHardwareBufferPool@Ogre@@U?$less@I@std@@V?$allocator@U?$pair@$$CBIPAVHardwareBufferPool@Ogre@@@std@@@4@$0A@@std@@@std@@IAE?AViterator@12@_NPAU_Node@?$_Tree_nod@V?$_Tmap_traits@IPAVHardwareBufferPool@Ogre@@U?$less@I@std@@V?$allocator@U?$pair@$$CBIPAVHardwareBufferPool@Ogre@@@std@@@4@$0A@@std@@@2@ABU?$pair@$$CBIPAVHardwareBufferPool@Ogre@@@2@@Z ; std::_Tree<std::_Tmap_traits<unsigned int,Ogre::HardwareBufferPool *,std::less<unsigned int>,std::allocator<std::pair<unsigned int const ,Ogre::HardwareBufferPool *> >,0> >::_Insert
	mov	eax, DWORD PTR ___$ReturnUdt$[ebp]
	jmp	$LN33@insert
$LN27@insert:

; 709  : 				}
; 710  : 			}
; 711  : 		else

	jmp	$LN31@insert
$LN30@insert:

; 712  : 			{	// insert only if unique
; 713  : 			if (_Where == begin())

	lea	eax, DWORD PTR $T64186[ebp]
	push	eax
	mov	ecx, DWORD PTR _this$[ebp]
	call	?begin@?$_Tree@V?$_Tmap_traits@IPAVHardwareBufferPool@Ogre@@U?$less@I@std@@V?$allocator@U?$pair@$$CBIPAVHardwareBufferPool@Ogre@@@std@@@4@$0A@@std@@@std@@QAE?AViterator@12@XZ ; std::_Tree<std::_Tmap_traits<unsigned int,Ogre::HardwareBufferPool *,std::less<unsigned int>,std::allocator<std::pair<unsigned int const ,Ogre::HardwareBufferPool *> >,0> >::begin
	push	eax
	lea	ecx, DWORD PTR __Where$[ebp]
	call	??8const_iterator@?$_Tree@V?$_Tmap_traits@IPAVHardwareBufferPool@Ogre@@U?$less@I@std@@V?$allocator@U?$pair@$$CBIPAVHardwareBufferPool@Ogre@@@std@@@4@$0A@@std@@@std@@QBE_NABV012@@Z ; std::_Tree<std::_Tmap_traits<unsigned int,Ogre::HardwareBufferPool *,std::less<unsigned int>,std::allocator<std::pair<unsigned int const ,Ogre::HardwareBufferPool *> >,0> >::const_iterator::operator==
	movzx	ecx, al
	test	ecx, ecx
	je	SHORT $LN14@insert

; 714  : 				{	// insert at beginning if before first element
; 715  : 				if (_DEBUG_LT_PRED(this->comp,

	lea	ecx, DWORD PTR __Where$[ebp]
	call	?_Mynode@const_iterator@?$_Tree@V?$_Tmap_traits@IPAVHardwareBufferPool@Ogre@@U?$less@I@std@@V?$allocator@U?$pair@$$CBIPAVHardwareBufferPool@Ogre@@@std@@@4@$0A@@std@@@std@@QBEPAU_Node@?$_Tree_nod@V?$_Tmap_traits@IPAVHardwareBufferPool@Ogre@@U?$less@I@std@@V?$allocator@U?$pair@$$CBIPAVHardwareBufferPool@Ogre@@@std@@@4@$0A@@std@@@3@XZ ; std::_Tree<std::_Tmap_traits<unsigned int,Ogre::HardwareBufferPool *,std::less<unsigned int>,std::allocator<std::pair<unsigned int const ,Ogre::HardwareBufferPool *> >,0> >::const_iterator::_Mynode
	push	eax
	call	?_Key@?$_Tree@V?$_Tmap_traits@IPAVHardwareBufferPool@Ogre@@U?$less@I@std@@V?$allocator@U?$pair@$$CBIPAVHardwareBufferPool@Ogre@@@std@@@4@$0A@@std@@@std@@KAABIPAU_Node@?$_Tree_nod@V?$_Tmap_traits@IPAVHardwareBufferPool@Ogre@@U?$less@I@std@@V?$allocator@U?$pair@$$CBIPAVHardwareBufferPool@Ogre@@@std@@@4@$0A@@std@@@2@@Z ; std::_Tree<std::_Tmap_traits<unsigned int,Ogre::HardwareBufferPool *,std::less<unsigned int>,std::allocator<std::pair<unsigned int const ,Ogre::HardwareBufferPool *> >,0> >::_Key
	add	esp, 4
	push	eax
	mov	edx, DWORD PTR __Val$[ebp]
	push	edx
	call	?_Kfn@?$_Tmap_traits@IPAVHardwareBufferPool@Ogre@@U?$less@I@std@@V?$allocator@U?$pair@$$CBIPAVHardwareBufferPool@Ogre@@@std@@@4@$0A@@std@@SAABIABU?$pair@$$CBIPAVHardwareBufferPool@Ogre@@@2@@Z ; std::_Tmap_traits<unsigned int,Ogre::HardwareBufferPool *,std::less<unsigned int>,std::allocator<std::pair<unsigned int const ,Ogre::HardwareBufferPool *> >,0>::_Kfn
	add	esp, 4
	push	eax
	mov	ecx, DWORD PTR _this$[ebp]
	add	ecx, 8
	call	??R?$less@I@std@@QBE_NABI0@Z		; std::less<unsigned int>::operator()
	movzx	eax, al
	test	eax, eax
	je	SHORT $LN13@insert

; 716  : 					this->_Kfn(_Val), _Key(_Where._Mynode())))
; 717  : 					return (_Insert(true, _Where._Mynode(), _Val));

	mov	ecx, DWORD PTR __Val$[ebp]
	push	ecx
	lea	ecx, DWORD PTR __Where$[ebp]
	call	?_Mynode@const_iterator@?$_Tree@V?$_Tmap_traits@IPAVHardwareBufferPool@Ogre@@U?$less@I@std@@V?$allocator@U?$pair@$$CBIPAVHardwareBufferPool@Ogre@@@std@@@4@$0A@@std@@@std@@QBEPAU_Node@?$_Tree_nod@V?$_Tmap_traits@IPAVHardwareBufferPool@Ogre@@U?$less@I@std@@V?$allocator@U?$pair@$$CBIPAVHardwareBufferPool@Ogre@@@std@@@4@$0A@@std@@@3@XZ ; std::_Tree<std::_Tmap_traits<unsigned int,Ogre::HardwareBufferPool *,std::less<unsigned int>,std::allocator<std::pair<unsigned int const ,Ogre::HardwareBufferPool *> >,0> >::const_iterator::_Mynode
	push	eax
	push	1
	mov	edx, DWORD PTR ___$ReturnUdt$[ebp]
	push	edx
	mov	ecx, DWORD PTR _this$[ebp]
	call	?_Insert@?$_Tree@V?$_Tmap_traits@IPAVHardwareBufferPool@Ogre@@U?$less@I@std@@V?$allocator@U?$pair@$$CBIPAVHardwareBufferPool@Ogre@@@std@@@4@$0A@@std@@@std@@IAE?AViterator@12@_NPAU_Node@?$_Tree_nod@V?$_Tmap_traits@IPAVHardwareBufferPool@Ogre@@U?$less@I@std@@V?$allocator@U?$pair@$$CBIPAVHardwareBufferPool@Ogre@@@std@@@4@$0A@@std@@@2@ABU?$pair@$$CBIPAVHardwareBufferPool@Ogre@@@2@@Z ; std::_Tree<std::_Tmap_traits<unsigned int,Ogre::HardwareBufferPool *,std::less<unsigned int>,std::allocator<std::pair<unsigned int const ,Ogre::HardwareBufferPool *> >,0> >::_Insert
	mov	eax, DWORD PTR ___$ReturnUdt$[ebp]
	jmp	$LN33@insert
$LN13@insert:

; 718  : 				}

	jmp	$LN31@insert
$LN14@insert:

; 719  : 			else if (_Where == end())

	lea	eax, DWORD PTR $T64187[ebp]
	push	eax
	mov	ecx, DWORD PTR _this$[ebp]
	call	?end@?$_Tree@V?$_Tmap_traits@IPAVHardwareBufferPool@Ogre@@U?$less@I@std@@V?$allocator@U?$pair@$$CBIPAVHardwareBufferPool@Ogre@@@std@@@4@$0A@@std@@@std@@QAE?AViterator@12@XZ ; std::_Tree<std::_Tmap_traits<unsigned int,Ogre::HardwareBufferPool *,std::less<unsigned int>,std::allocator<std::pair<unsigned int const ,Ogre::HardwareBufferPool *> >,0> >::end
	push	eax
	lea	ecx, DWORD PTR __Where$[ebp]
	call	??8const_iterator@?$_Tree@V?$_Tmap_traits@IPAVHardwareBufferPool@Ogre@@U?$less@I@std@@V?$allocator@U?$pair@$$CBIPAVHardwareBufferPool@Ogre@@@std@@@4@$0A@@std@@@std@@QBE_NABV012@@Z ; std::_Tree<std::_Tmap_traits<unsigned int,Ogre::HardwareBufferPool *,std::less<unsigned int>,std::allocator<std::pair<unsigned int const ,Ogre::HardwareBufferPool *> >,0> >::const_iterator::operator==
	movzx	ecx, al
	test	ecx, ecx
	je	SHORT $LN11@insert

; 720  : 				{	// insert at end if after last element
; 721  : 				if (_DEBUG_LT_PRED(this->comp,

	mov	edx, DWORD PTR __Val$[ebp]
	push	edx
	call	?_Kfn@?$_Tmap_traits@IPAVHardwareBufferPool@Ogre@@U?$less@I@std@@V?$allocator@U?$pair@$$CBIPAVHardwareBufferPool@Ogre@@@std@@@4@$0A@@std@@SAABIABU?$pair@$$CBIPAVHardwareBufferPool@Ogre@@@2@@Z ; std::_Tmap_traits<unsigned int,Ogre::HardwareBufferPool *,std::less<unsigned int>,std::allocator<std::pair<unsigned int const ,Ogre::HardwareBufferPool *> >,0>::_Kfn
	add	esp, 4
	push	eax
	mov	ecx, DWORD PTR _this$[ebp]
	call	?_Rmost@?$_Tree@V?$_Tmap_traits@IPAVHardwareBufferPool@Ogre@@U?$less@I@std@@V?$allocator@U?$pair@$$CBIPAVHardwareBufferPool@Ogre@@@std@@@4@$0A@@std@@@std@@IBEAAPAU_Node@?$_Tree_nod@V?$_Tmap_traits@IPAVHardwareBufferPool@Ogre@@U?$less@I@std@@V?$allocator@U?$pair@$$CBIPAVHardwareBufferPool@Ogre@@@std@@@4@$0A@@std@@@2@XZ ; std::_Tree<std::_Tmap_traits<unsigned int,Ogre::HardwareBufferPool *,std::less<unsigned int>,std::allocator<std::pair<unsigned int const ,Ogre::HardwareBufferPool *> >,0> >::_Rmost
	mov	eax, DWORD PTR [eax]
	push	eax
	call	?_Key@?$_Tree@V?$_Tmap_traits@IPAVHardwareBufferPool@Ogre@@U?$less@I@std@@V?$allocator@U?$pair@$$CBIPAVHardwareBufferPool@Ogre@@@std@@@4@$0A@@std@@@std@@KAABIPAU_Node@?$_Tree_nod@V?$_Tmap_traits@IPAVHardwareBufferPool@Ogre@@U?$less@I@std@@V?$allocator@U?$pair@$$CBIPAVHardwareBufferPool@Ogre@@@std@@@4@$0A@@std@@@2@@Z ; std::_Tree<std::_Tmap_traits<unsigned int,Ogre::HardwareBufferPool *,std::less<unsigned int>,std::allocator<std::pair<unsigned int const ,Ogre::HardwareBufferPool *> >,0> >::_Key
	add	esp, 4
	push	eax
	mov	ecx, DWORD PTR _this$[ebp]
	add	ecx, 8
	call	??R?$less@I@std@@QBE_NABI0@Z		; std::less<unsigned int>::operator()
	movzx	ecx, al
	test	ecx, ecx
	je	SHORT $LN10@insert

; 722  : 					_Key(_Rmost()), this->_Kfn(_Val)))
; 723  : 					return (_Insert(false, _Rmost(), _Val));

	mov	edx, DWORD PTR __Val$[ebp]
	push	edx
	mov	ecx, DWORD PTR _this$[ebp]
	call	?_Rmost@?$_Tree@V?$_Tmap_traits@IPAVHardwareBufferPool@Ogre@@U?$less@I@std@@V?$allocator@U?$pair@$$CBIPAVHardwareBufferPool@Ogre@@@std@@@4@$0A@@std@@@std@@IBEAAPAU_Node@?$_Tree_nod@V?$_Tmap_traits@IPAVHardwareBufferPool@Ogre@@U?$less@I@std@@V?$allocator@U?$pair@$$CBIPAVHardwareBufferPool@Ogre@@@std@@@4@$0A@@std@@@2@XZ ; std::_Tree<std::_Tmap_traits<unsigned int,Ogre::HardwareBufferPool *,std::less<unsigned int>,std::allocator<std::pair<unsigned int const ,Ogre::HardwareBufferPool *> >,0> >::_Rmost
	mov	eax, DWORD PTR [eax]
	push	eax
	push	0
	mov	ecx, DWORD PTR ___$ReturnUdt$[ebp]
	push	ecx
	mov	ecx, DWORD PTR _this$[ebp]
	call	?_Insert@?$_Tree@V?$_Tmap_traits@IPAVHardwareBufferPool@Ogre@@U?$less@I@std@@V?$allocator@U?$pair@$$CBIPAVHardwareBufferPool@Ogre@@@std@@@4@$0A@@std@@@std@@IAE?AViterator@12@_NPAU_Node@?$_Tree_nod@V?$_Tmap_traits@IPAVHardwareBufferPool@Ogre@@U?$less@I@std@@V?$allocator@U?$pair@$$CBIPAVHardwareBufferPool@Ogre@@@std@@@4@$0A@@std@@@2@ABU?$pair@$$CBIPAVHardwareBufferPool@Ogre@@@2@@Z ; std::_Tree<std::_Tmap_traits<unsigned int,Ogre::HardwareBufferPool *,std::less<unsigned int>,std::allocator<std::pair<unsigned int const ,Ogre::HardwareBufferPool *> >,0> >::_Insert
	mov	eax, DWORD PTR ___$ReturnUdt$[ebp]
	jmp	$LN33@insert
$LN10@insert:

; 724  : 				}
; 725  : 			else if (_DEBUG_LT_PRED(this->comp,

	jmp	$LN31@insert
$LN11@insert:

; 726  : 				this->_Kfn(_Val), _Key(_Where._Mynode()))
; 727  : 				&& _DEBUG_LT_PRED(this->comp,

	lea	ecx, DWORD PTR __Where$[ebp]
	call	?_Mynode@const_iterator@?$_Tree@V?$_Tmap_traits@IPAVHardwareBufferPool@Ogre@@U?$less@I@std@@V?$allocator@U?$pair@$$CBIPAVHardwareBufferPool@Ogre@@@std@@@4@$0A@@std@@@std@@QBEPAU_Node@?$_Tree_nod@V?$_Tmap_traits@IPAVHardwareBufferPool@Ogre@@U?$less@I@std@@V?$allocator@U?$pair@$$CBIPAVHardwareBufferPool@Ogre@@@std@@@4@$0A@@std@@@3@XZ ; std::_Tree<std::_Tmap_traits<unsigned int,Ogre::HardwareBufferPool *,std::less<unsigned int>,std::allocator<std::pair<unsigned int const ,Ogre::HardwareBufferPool *> >,0> >::const_iterator::_Mynode
	push	eax
	call	?_Key@?$_Tree@V?$_Tmap_traits@IPAVHardwareBufferPool@Ogre@@U?$less@I@std@@V?$allocator@U?$pair@$$CBIPAVHardwareBufferPool@Ogre@@@std@@@4@$0A@@std@@@std@@KAABIPAU_Node@?$_Tree_nod@V?$_Tmap_traits@IPAVHardwareBufferPool@Ogre@@U?$less@I@std@@V?$allocator@U?$pair@$$CBIPAVHardwareBufferPool@Ogre@@@std@@@4@$0A@@std@@@2@@Z ; std::_Tree<std::_Tmap_traits<unsigned int,Ogre::HardwareBufferPool *,std::less<unsigned int>,std::allocator<std::pair<unsigned int const ,Ogre::HardwareBufferPool *> >,0> >::_Key
	add	esp, 4
	push	eax
	mov	edx, DWORD PTR __Val$[ebp]
	push	edx
	call	?_Kfn@?$_Tmap_traits@IPAVHardwareBufferPool@Ogre@@U?$less@I@std@@V?$allocator@U?$pair@$$CBIPAVHardwareBufferPool@Ogre@@@std@@@4@$0A@@std@@SAABIABU?$pair@$$CBIPAVHardwareBufferPool@Ogre@@@2@@Z ; std::_Tmap_traits<unsigned int,Ogre::HardwareBufferPool *,std::less<unsigned int>,std::allocator<std::pair<unsigned int const ,Ogre::HardwareBufferPool *> >,0>::_Kfn
	add	esp, 4
	push	eax
	mov	ecx, DWORD PTR _this$[ebp]
	add	ecx, 8
	call	??R?$less@I@std@@QBE_NABI0@Z		; std::less<unsigned int>::operator()
	movzx	eax, al
	test	eax, eax
	je	$LN8@insert
	mov	ecx, DWORD PTR __Where$[ebp]
	mov	DWORD PTR __Next$[ebp], ecx
	mov	edx, DWORD PTR __Where$[ebp+4]
	mov	DWORD PTR __Next$[ebp+4], edx
	mov	eax, DWORD PTR __Val$[ebp]
	push	eax
	call	?_Kfn@?$_Tmap_traits@IPAVHardwareBufferPool@Ogre@@U?$less@I@std@@V?$allocator@U?$pair@$$CBIPAVHardwareBufferPool@Ogre@@@std@@@4@$0A@@std@@SAABIABU?$pair@$$CBIPAVHardwareBufferPool@Ogre@@@2@@Z ; std::_Tmap_traits<unsigned int,Ogre::HardwareBufferPool *,std::less<unsigned int>,std::allocator<std::pair<unsigned int const ,Ogre::HardwareBufferPool *> >,0>::_Kfn
	add	esp, 4
	push	eax
	lea	ecx, DWORD PTR __Next$[ebp]
	call	??Fconst_iterator@?$_Tree@V?$_Tmap_traits@IPAVHardwareBufferPool@Ogre@@U?$less@I@std@@V?$allocator@U?$pair@$$CBIPAVHardwareBufferPool@Ogre@@@std@@@4@$0A@@std@@@std@@QAEAAV012@XZ ; std::_Tree<std::_Tmap_traits<unsigned int,Ogre::HardwareBufferPool *,std::less<unsigned int>,std::allocator<std::pair<unsigned int const ,Ogre::HardwareBufferPool *> >,0> >::const_iterator::operator--
	mov	ecx, eax
	call	?_Mynode@const_iterator@?$_Tree@V?$_Tmap_traits@IPAVHardwareBufferPool@Ogre@@U?$less@I@std@@V?$allocator@U?$pair@$$CBIPAVHardwareBufferPool@Ogre@@@std@@@4@$0A@@std@@@std@@QBEPAU_Node@?$_Tree_nod@V?$_Tmap_traits@IPAVHardwareBufferPool@Ogre@@U?$less@I@std@@V?$allocator@U?$pair@$$CBIPAVHardwareBufferPool@Ogre@@@std@@@4@$0A@@std@@@3@XZ ; std::_Tree<std::_Tmap_traits<unsigned int,Ogre::HardwareBufferPool *,std::less<unsigned int>,std::allocator<std::pair<unsigned int const ,Ogre::HardwareBufferPool *> >,0> >::const_iterator::_Mynode
	push	eax
	call	?_Key@?$_Tree@V?$_Tmap_traits@IPAVHardwareBufferPool@Ogre@@U?$less@I@std@@V?$allocator@U?$pair@$$CBIPAVHardwareBufferPool@Ogre@@@std@@@4@$0A@@std@@@std@@KAABIPAU_Node@?$_Tree_nod@V?$_Tmap_traits@IPAVHardwareBufferPool@Ogre@@U?$less@I@std@@V?$allocator@U?$pair@$$CBIPAVHardwareBufferPool@Ogre@@@std@@@4@$0A@@std@@@2@@Z ; std::_Tree<std::_Tmap_traits<unsigned int,Ogre::HardwareBufferPool *,std::less<unsigned int>,std::allocator<std::pair<unsigned int const ,Ogre::HardwareBufferPool *> >,0> >::_Key
	add	esp, 4
	push	eax
	mov	ecx, DWORD PTR _this$[ebp]
	add	ecx, 8
	call	??R?$less@I@std@@QBE_NABI0@Z		; std::less<unsigned int>::operator()
	movzx	ecx, al
	test	ecx, ecx
	je	SHORT $LN8@insert

; 728  : 					_Key((--(_Next = _Where))._Mynode()), this->_Kfn(_Val)))
; 729  : 				{	// insert before _Where
; 730  : 				if (_Isnil(_Right(_Next._Mynode())))

	lea	ecx, DWORD PTR __Next$[ebp]
	call	?_Mynode@const_iterator@?$_Tree@V?$_Tmap_traits@IPAVHardwareBufferPool@Ogre@@U?$less@I@std@@V?$allocator@U?$pair@$$CBIPAVHardwareBufferPool@Ogre@@@std@@@4@$0A@@std@@@std@@QBEPAU_Node@?$_Tree_nod@V?$_Tmap_traits@IPAVHardwareBufferPool@Ogre@@U?$less@I@std@@V?$allocator@U?$pair@$$CBIPAVHardwareBufferPool@Ogre@@@std@@@4@$0A@@std@@@3@XZ ; std::_Tree<std::_Tmap_traits<unsigned int,Ogre::HardwareBufferPool *,std::less<unsigned int>,std::allocator<std::pair<unsigned int const ,Ogre::HardwareBufferPool *> >,0> >::const_iterator::_Mynode
	push	eax
	call	?_Right@?$_Tree@V?$_Tmap_traits@IPAVHardwareBufferPool@Ogre@@U?$less@I@std@@V?$allocator@U?$pair@$$CBIPAVHardwareBufferPool@Ogre@@@std@@@4@$0A@@std@@@std@@KAAAPAU_Node@?$_Tree_nod@V?$_Tmap_traits@IPAVHardwareBufferPool@Ogre@@U?$less@I@std@@V?$allocator@U?$pair@$$CBIPAVHardwareBufferPool@Ogre@@@std@@@4@$0A@@std@@@2@PAU342@@Z ; std::_Tree<std::_Tmap_traits<unsigned int,Ogre::HardwareBufferPool *,std::less<unsigned int>,std::allocator<std::pair<unsigned int const ,Ogre::HardwareBufferPool *> >,0> >::_Right
	add	esp, 4
	mov	edx, DWORD PTR [eax]
	push	edx
	call	?_Isnil@?$_Tree@V?$_Tmap_traits@IPAVHardwareBufferPool@Ogre@@U?$less@I@std@@V?$allocator@U?$pair@$$CBIPAVHardwareBufferPool@Ogre@@@std@@@4@$0A@@std@@@std@@KAAADPAU_Node@?$_Tree_nod@V?$_Tmap_traits@IPAVHardwareBufferPool@Ogre@@U?$less@I@std@@V?$allocator@U?$pair@$$CBIPAVHardwareBufferPool@Ogre@@@std@@@4@$0A@@std@@@2@@Z ; std::_Tree<std::_Tmap_traits<unsigned int,Ogre::HardwareBufferPool *,std::less<unsigned int>,std::allocator<std::pair<unsigned int const ,Ogre::HardwareBufferPool *> >,0> >::_Isnil
	add	esp, 4
	movsx	eax, BYTE PTR [eax]
	test	eax, eax
	je	SHORT $LN7@insert

; 731  : 					return (_Insert(false, _Next._Mynode(), _Val));

	mov	ecx, DWORD PTR __Val$[ebp]
	push	ecx
	lea	ecx, DWORD PTR __Next$[ebp]
	call	?_Mynode@const_iterator@?$_Tree@V?$_Tmap_traits@IPAVHardwareBufferPool@Ogre@@U?$less@I@std@@V?$allocator@U?$pair@$$CBIPAVHardwareBufferPool@Ogre@@@std@@@4@$0A@@std@@@std@@QBEPAU_Node@?$_Tree_nod@V?$_Tmap_traits@IPAVHardwareBufferPool@Ogre@@U?$less@I@std@@V?$allocator@U?$pair@$$CBIPAVHardwareBufferPool@Ogre@@@std@@@4@$0A@@std@@@3@XZ ; std::_Tree<std::_Tmap_traits<unsigned int,Ogre::HardwareBufferPool *,std::less<unsigned int>,std::allocator<std::pair<unsigned int const ,Ogre::HardwareBufferPool *> >,0> >::const_iterator::_Mynode
	push	eax
	push	0
	mov	edx, DWORD PTR ___$ReturnUdt$[ebp]
	push	edx
	mov	ecx, DWORD PTR _this$[ebp]
	call	?_Insert@?$_Tree@V?$_Tmap_traits@IPAVHardwareBufferPool@Ogre@@U?$less@I@std@@V?$allocator@U?$pair@$$CBIPAVHardwareBufferPool@Ogre@@@std@@@4@$0A@@std@@@std@@IAE?AViterator@12@_NPAU_Node@?$_Tree_nod@V?$_Tmap_traits@IPAVHardwareBufferPool@Ogre@@U?$less@I@std@@V?$allocator@U?$pair@$$CBIPAVHardwareBufferPool@Ogre@@@std@@@4@$0A@@std@@@2@ABU?$pair@$$CBIPAVHardwareBufferPool@Ogre@@@2@@Z ; std::_Tree<std::_Tmap_traits<unsigned int,Ogre::HardwareBufferPool *,std::less<unsigned int>,std::allocator<std::pair<unsigned int const ,Ogre::HardwareBufferPool *> >,0> >::_Insert
	mov	eax, DWORD PTR ___$ReturnUdt$[ebp]
	jmp	$LN33@insert

; 732  : 				else

	jmp	SHORT $LN6@insert
$LN7@insert:

; 733  : 					return (_Insert(true, _Where._Mynode(), _Val));

	mov	eax, DWORD PTR __Val$[ebp]
	push	eax
	lea	ecx, DWORD PTR __Where$[ebp]
	call	?_Mynode@const_iterator@?$_Tree@V?$_Tmap_traits@IPAVHardwareBufferPool@Ogre@@U?$less@I@std@@V?$allocator@U?$pair@$$CBIPAVHardwareBufferPool@Ogre@@@std@@@4@$0A@@std@@@std@@QBEPAU_Node@?$_Tree_nod@V?$_Tmap_traits@IPAVHardwareBufferPool@Ogre@@U?$less@I@std@@V?$allocator@U?$pair@$$CBIPAVHardwareBufferPool@Ogre@@@std@@@4@$0A@@std@@@3@XZ ; std::_Tree<std::_Tmap_traits<unsigned int,Ogre::HardwareBufferPool *,std::less<unsigned int>,std::allocator<std::pair<unsigned int const ,Ogre::HardwareBufferPool *> >,0> >::const_iterator::_Mynode
	push	eax
	push	1
	mov	ecx, DWORD PTR ___$ReturnUdt$[ebp]
	push	ecx
	mov	ecx, DWORD PTR _this$[ebp]
	call	?_Insert@?$_Tree@V?$_Tmap_traits@IPAVHardwareBufferPool@Ogre@@U?$less@I@std@@V?$allocator@U?$pair@$$CBIPAVHardwareBufferPool@Ogre@@@std@@@4@$0A@@std@@@std@@IAE?AViterator@12@_NPAU_Node@?$_Tree_nod@V?$_Tmap_traits@IPAVHardwareBufferPool@Ogre@@U?$less@I@std@@V?$allocator@U?$pair@$$CBIPAVHardwareBufferPool@Ogre@@@std@@@4@$0A@@std@@@2@ABU?$pair@$$CBIPAVHardwareBufferPool@Ogre@@@2@@Z ; std::_Tree<std::_Tmap_traits<unsigned int,Ogre::HardwareBufferPool *,std::less<unsigned int>,std::allocator<std::pair<unsigned int const ,Ogre::HardwareBufferPool *> >,0> >::_Insert
	mov	eax, DWORD PTR ___$ReturnUdt$[ebp]
	jmp	$LN33@insert
$LN6@insert:

; 734  : 				}
; 735  : 			else if (_DEBUG_LT_PRED(this->comp,

	jmp	$LN31@insert
$LN8@insert:

; 736  : 				_Key(_Where._Mynode()), this->_Kfn(_Val))
; 737  : 				&& (++(_Next = _Where) == end()
; 738  : 					|| _DEBUG_LT_PRED(this->comp,

	mov	edx, DWORD PTR __Val$[ebp]
	push	edx
	call	?_Kfn@?$_Tmap_traits@IPAVHardwareBufferPool@Ogre@@U?$less@I@std@@V?$allocator@U?$pair@$$CBIPAVHardwareBufferPool@Ogre@@@std@@@4@$0A@@std@@SAABIABU?$pair@$$CBIPAVHardwareBufferPool@Ogre@@@2@@Z ; std::_Tmap_traits<unsigned int,Ogre::HardwareBufferPool *,std::less<unsigned int>,std::allocator<std::pair<unsigned int const ,Ogre::HardwareBufferPool *> >,0>::_Kfn
	add	esp, 4
	push	eax
	lea	ecx, DWORD PTR __Where$[ebp]
	call	?_Mynode@const_iterator@?$_Tree@V?$_Tmap_traits@IPAVHardwareBufferPool@Ogre@@U?$less@I@std@@V?$allocator@U?$pair@$$CBIPAVHardwareBufferPool@Ogre@@@std@@@4@$0A@@std@@@std@@QBEPAU_Node@?$_Tree_nod@V?$_Tmap_traits@IPAVHardwareBufferPool@Ogre@@U?$less@I@std@@V?$allocator@U?$pair@$$CBIPAVHardwareBufferPool@Ogre@@@std@@@4@$0A@@std@@@3@XZ ; std::_Tree<std::_Tmap_traits<unsigned int,Ogre::HardwareBufferPool *,std::less<unsigned int>,std::allocator<std::pair<unsigned int const ,Ogre::HardwareBufferPool *> >,0> >::const_iterator::_Mynode
	push	eax
	call	?_Key@?$_Tree@V?$_Tmap_traits@IPAVHardwareBufferPool@Ogre@@U?$less@I@std@@V?$allocator@U?$pair@$$CBIPAVHardwareBufferPool@Ogre@@@std@@@4@$0A@@std@@@std@@KAABIPAU_Node@?$_Tree_nod@V?$_Tmap_traits@IPAVHardwareBufferPool@Ogre@@U?$less@I@std@@V?$allocator@U?$pair@$$CBIPAVHardwareBufferPool@Ogre@@@std@@@4@$0A@@std@@@2@@Z ; std::_Tree<std::_Tmap_traits<unsigned int,Ogre::HardwareBufferPool *,std::less<unsigned int>,std::allocator<std::pair<unsigned int const ,Ogre::HardwareBufferPool *> >,0> >::_Key
	add	esp, 4
	push	eax
	mov	ecx, DWORD PTR _this$[ebp]
	add	ecx, 8
	call	??R?$less@I@std@@QBE_NABI0@Z		; std::less<unsigned int>::operator()
	movzx	eax, al
	test	eax, eax
	je	$LN31@insert
	mov	ecx, DWORD PTR __Where$[ebp]
	mov	DWORD PTR __Next$[ebp], ecx
	mov	edx, DWORD PTR __Where$[ebp+4]
	mov	DWORD PTR __Next$[ebp+4], edx
	lea	eax, DWORD PTR $T64188[ebp]
	push	eax
	mov	ecx, DWORD PTR _this$[ebp]
	call	?end@?$_Tree@V?$_Tmap_traits@IPAVHardwareBufferPool@Ogre@@U?$less@I@std@@V?$allocator@U?$pair@$$CBIPAVHardwareBufferPool@Ogre@@@std@@@4@$0A@@std@@@std@@QAE?AViterator@12@XZ ; std::_Tree<std::_Tmap_traits<unsigned int,Ogre::HardwareBufferPool *,std::less<unsigned int>,std::allocator<std::pair<unsigned int const ,Ogre::HardwareBufferPool *> >,0> >::end
	push	eax
	lea	ecx, DWORD PTR __Next$[ebp]
	call	??Econst_iterator@?$_Tree@V?$_Tmap_traits@IPAVHardwareBufferPool@Ogre@@U?$less@I@std@@V?$allocator@U?$pair@$$CBIPAVHardwareBufferPool@Ogre@@@std@@@4@$0A@@std@@@std@@QAEAAV012@XZ ; std::_Tree<std::_Tmap_traits<unsigned int,Ogre::HardwareBufferPool *,std::less<unsigned int>,std::allocator<std::pair<unsigned int const ,Ogre::HardwareBufferPool *> >,0> >::const_iterator::operator++
	mov	ecx, eax
	call	??8const_iterator@?$_Tree@V?$_Tmap_traits@IPAVHardwareBufferPool@Ogre@@U?$less@I@std@@V?$allocator@U?$pair@$$CBIPAVHardwareBufferPool@Ogre@@@std@@@4@$0A@@std@@@std@@QBE_NABV012@@Z ; std::_Tree<std::_Tmap_traits<unsigned int,Ogre::HardwareBufferPool *,std::less<unsigned int>,std::allocator<std::pair<unsigned int const ,Ogre::HardwareBufferPool *> >,0> >::const_iterator::operator==
	movzx	ecx, al
	test	ecx, ecx
	jne	SHORT $LN3@insert
	lea	ecx, DWORD PTR __Next$[ebp]
	call	?_Mynode@const_iterator@?$_Tree@V?$_Tmap_traits@IPAVHardwareBufferPool@Ogre@@U?$less@I@std@@V?$allocator@U?$pair@$$CBIPAVHardwareBufferPool@Ogre@@@std@@@4@$0A@@std@@@std@@QBEPAU_Node@?$_Tree_nod@V?$_Tmap_traits@IPAVHardwareBufferPool@Ogre@@U?$less@I@std@@V?$allocator@U?$pair@$$CBIPAVHardwareBufferPool@Ogre@@@std@@@4@$0A@@std@@@3@XZ ; std::_Tree<std::_Tmap_traits<unsigned int,Ogre::HardwareBufferPool *,std::less<unsigned int>,std::allocator<std::pair<unsigned int const ,Ogre::HardwareBufferPool *> >,0> >::const_iterator::_Mynode
	push	eax
	call	?_Key@?$_Tree@V?$_Tmap_traits@IPAVHardwareBufferPool@Ogre@@U?$less@I@std@@V?$allocator@U?$pair@$$CBIPAVHardwareBufferPool@Ogre@@@std@@@4@$0A@@std@@@std@@KAABIPAU_Node@?$_Tree_nod@V?$_Tmap_traits@IPAVHardwareBufferPool@Ogre@@U?$less@I@std@@V?$allocator@U?$pair@$$CBIPAVHardwareBufferPool@Ogre@@@std@@@4@$0A@@std@@@2@@Z ; std::_Tree<std::_Tmap_traits<unsigned int,Ogre::HardwareBufferPool *,std::less<unsigned int>,std::allocator<std::pair<unsigned int const ,Ogre::HardwareBufferPool *> >,0> >::_Key
	add	esp, 4
	push	eax
	mov	edx, DWORD PTR __Val$[ebp]
	push	edx
	call	?_Kfn@?$_Tmap_traits@IPAVHardwareBufferPool@Ogre@@U?$less@I@std@@V?$allocator@U?$pair@$$CBIPAVHardwareBufferPool@Ogre@@@std@@@4@$0A@@std@@SAABIABU?$pair@$$CBIPAVHardwareBufferPool@Ogre@@@2@@Z ; std::_Tmap_traits<unsigned int,Ogre::HardwareBufferPool *,std::less<unsigned int>,std::allocator<std::pair<unsigned int const ,Ogre::HardwareBufferPool *> >,0>::_Kfn
	add	esp, 4
	push	eax
	mov	ecx, DWORD PTR _this$[ebp]
	add	ecx, 8
	call	??R?$less@I@std@@QBE_NABI0@Z		; std::less<unsigned int>::operator()
	movzx	eax, al
	test	eax, eax
	je	SHORT $LN31@insert
$LN3@insert:

; 739  : 						this->_Kfn(_Val), _Key(_Next._Mynode()))))
; 740  : 				{	// insert after _Where
; 741  : 				if (_Isnil(_Right(_Where._Mynode())))

	lea	ecx, DWORD PTR __Where$[ebp]
	call	?_Mynode@const_iterator@?$_Tree@V?$_Tmap_traits@IPAVHardwareBufferPool@Ogre@@U?$less@I@std@@V?$allocator@U?$pair@$$CBIPAVHardwareBufferPool@Ogre@@@std@@@4@$0A@@std@@@std@@QBEPAU_Node@?$_Tree_nod@V?$_Tmap_traits@IPAVHardwareBufferPool@Ogre@@U?$less@I@std@@V?$allocator@U?$pair@$$CBIPAVHardwareBufferPool@Ogre@@@std@@@4@$0A@@std@@@3@XZ ; std::_Tree<std::_Tmap_traits<unsigned int,Ogre::HardwareBufferPool *,std::less<unsigned int>,std::allocator<std::pair<unsigned int const ,Ogre::HardwareBufferPool *> >,0> >::const_iterator::_Mynode
	push	eax
	call	?_Right@?$_Tree@V?$_Tmap_traits@IPAVHardwareBufferPool@Ogre@@U?$less@I@std@@V?$allocator@U?$pair@$$CBIPAVHardwareBufferPool@Ogre@@@std@@@4@$0A@@std@@@std@@KAAAPAU_Node@?$_Tree_nod@V?$_Tmap_traits@IPAVHardwareBufferPool@Ogre@@U?$less@I@std@@V?$allocator@U?$pair@$$CBIPAVHardwareBufferPool@Ogre@@@std@@@4@$0A@@std@@@2@PAU342@@Z ; std::_Tree<std::_Tmap_traits<unsigned int,Ogre::HardwareBufferPool *,std::less<unsigned int>,std::allocator<std::pair<unsigned int const ,Ogre::HardwareBufferPool *> >,0> >::_Right
	add	esp, 4
	mov	ecx, DWORD PTR [eax]
	push	ecx
	call	?_Isnil@?$_Tree@V?$_Tmap_traits@IPAVHardwareBufferPool@Ogre@@U?$less@I@std@@V?$allocator@U?$pair@$$CBIPAVHardwareBufferPool@Ogre@@@std@@@4@$0A@@std@@@std@@KAAADPAU_Node@?$_Tree_nod@V?$_Tmap_traits@IPAVHardwareBufferPool@Ogre@@U?$less@I@std@@V?$allocator@U?$pair@$$CBIPAVHardwareBufferPool@Ogre@@@std@@@4@$0A@@std@@@2@@Z ; std::_Tree<std::_Tmap_traits<unsigned int,Ogre::HardwareBufferPool *,std::less<unsigned int>,std::allocator<std::pair<unsigned int const ,Ogre::HardwareBufferPool *> >,0> >::_Isnil
	add	esp, 4
	movsx	edx, BYTE PTR [eax]
	test	edx, edx
	je	SHORT $LN2@insert

; 742  : 					return (_Insert(false, _Where._Mynode(), _Val));

	mov	eax, DWORD PTR __Val$[ebp]
	push	eax
	lea	ecx, DWORD PTR __Where$[ebp]
	call	?_Mynode@const_iterator@?$_Tree@V?$_Tmap_traits@IPAVHardwareBufferPool@Ogre@@U?$less@I@std@@V?$allocator@U?$pair@$$CBIPAVHardwareBufferPool@Ogre@@@std@@@4@$0A@@std@@@std@@QBEPAU_Node@?$_Tree_nod@V?$_Tmap_traits@IPAVHardwareBufferPool@Ogre@@U?$less@I@std@@V?$allocator@U?$pair@$$CBIPAVHardwareBufferPool@Ogre@@@std@@@4@$0A@@std@@@3@XZ ; std::_Tree<std::_Tmap_traits<unsigned int,Ogre::HardwareBufferPool *,std::less<unsigned int>,std::allocator<std::pair<unsigned int const ,Ogre::HardwareBufferPool *> >,0> >::const_iterator::_Mynode
	push	eax
	push	0
	mov	ecx, DWORD PTR ___$ReturnUdt$[ebp]
	push	ecx
	mov	ecx, DWORD PTR _this$[ebp]
	call	?_Insert@?$_Tree@V?$_Tmap_traits@IPAVHardwareBufferPool@Ogre@@U?$less@I@std@@V?$allocator@U?$pair@$$CBIPAVHardwareBufferPool@Ogre@@@std@@@4@$0A@@std@@@std@@IAE?AViterator@12@_NPAU_Node@?$_Tree_nod@V?$_Tmap_traits@IPAVHardwareBufferPool@Ogre@@U?$less@I@std@@V?$allocator@U?$pair@$$CBIPAVHardwareBufferPool@Ogre@@@std@@@4@$0A@@std@@@2@ABU?$pair@$$CBIPAVHardwareBufferPool@Ogre@@@2@@Z ; std::_Tree<std::_Tmap_traits<unsigned int,Ogre::HardwareBufferPool *,std::less<unsigned int>,std::allocator<std::pair<unsigned int const ,Ogre::HardwareBufferPool *> >,0> >::_Insert
	mov	eax, DWORD PTR ___$ReturnUdt$[ebp]
	jmp	SHORT $LN33@insert

; 743  : 				else

	jmp	SHORT $LN31@insert
$LN2@insert:

; 744  : 					return (_Insert(true, _Next._Mynode(), _Val));

	mov	edx, DWORD PTR __Val$[ebp]
	push	edx
	lea	ecx, DWORD PTR __Next$[ebp]
	call	?_Mynode@const_iterator@?$_Tree@V?$_Tmap_traits@IPAVHardwareBufferPool@Ogre@@U?$less@I@std@@V?$allocator@U?$pair@$$CBIPAVHardwareBufferPool@Ogre@@@std@@@4@$0A@@std@@@std@@QBEPAU_Node@?$_Tree_nod@V?$_Tmap_traits@IPAVHardwareBufferPool@Ogre@@U?$less@I@std@@V?$allocator@U?$pair@$$CBIPAVHardwareBufferPool@Ogre@@@std@@@4@$0A@@std@@@3@XZ ; std::_Tree<std::_Tmap_traits<unsigned int,Ogre::HardwareBufferPool *,std::less<unsigned int>,std::allocator<std::pair<unsigned int const ,Ogre::HardwareBufferPool *> >,0> >::const_iterator::_Mynode
	push	eax
	push	1
	mov	eax, DWORD PTR ___$ReturnUdt$[ebp]
	push	eax
	mov	ecx, DWORD PTR _this$[ebp]
	call	?_Insert@?$_Tree@V?$_Tmap_traits@IPAVHardwareBufferPool@Ogre@@U?$less@I@std@@V?$allocator@U?$pair@$$CBIPAVHardwareBufferPool@Ogre@@@std@@@4@$0A@@std@@@std@@IAE?AViterator@12@_NPAU_Node@?$_Tree_nod@V?$_Tmap_traits@IPAVHardwareBufferPool@Ogre@@U?$less@I@std@@V?$allocator@U?$pair@$$CBIPAVHardwareBufferPool@Ogre@@@std@@@4@$0A@@std@@@2@ABU?$pair@$$CBIPAVHardwareBufferPool@Ogre@@@2@@Z ; std::_Tree<std::_Tmap_traits<unsigned int,Ogre::HardwareBufferPool *,std::less<unsigned int>,std::allocator<std::pair<unsigned int const ,Ogre::HardwareBufferPool *> >,0> >::_Insert
	mov	eax, DWORD PTR ___$ReturnUdt$[ebp]
	jmp	SHORT $LN33@insert
$LN31@insert:

; 745  : 				}
; 746  : 			}
; 747  : 
; 748  : 		return (insert(_Val).first);	// try usual insert if all else fails

	mov	ecx, DWORD PTR __Val$[ebp]
	push	ecx
	lea	edx, DWORD PTR $T64189[ebp]
	push	edx
	mov	ecx, DWORD PTR _this$[ebp]
	call	?insert@?$_Tree@V?$_Tmap_traits@IPAVHardwareBufferPool@Ogre@@U?$less@I@std@@V?$allocator@U?$pair@$$CBIPAVHardwareBufferPool@Ogre@@@std@@@4@$0A@@std@@@std@@QAE?AU?$pair@Viterator@?$_Tree@V?$_Tmap_traits@IPAVHardwareBufferPool@Ogre@@U?$less@I@std@@V?$allocator@U?$pair@$$CBIPAVHardwareBufferPool@Ogre@@@std@@@4@$0A@@std@@@std@@_N@2@ABU?$pair@$$CBIPAVHardwareBufferPool@Ogre@@@2@@Z ; std::_Tree<std::_Tmap_traits<unsigned int,Ogre::HardwareBufferPool *,std::less<unsigned int>,std::allocator<std::pair<unsigned int const ,Ogre::HardwareBufferPool *> >,0> >::insert
	mov	ecx, DWORD PTR [eax]
	mov	edx, DWORD PTR [eax+4]
	mov	eax, DWORD PTR ___$ReturnUdt$[ebp]
	mov	DWORD PTR [eax], ecx
	mov	DWORD PTR [eax+4], edx
	mov	eax, DWORD PTR ___$ReturnUdt$[ebp]
$LN33@insert:

; 749  : 		}

	mov	esp, ebp
	pop	ebp
	ret	16					; 00000010H
?insert@?$_Tree@V?$_Tmap_traits@IPAVHardwareBufferPool@Ogre@@U?$less@I@std@@V?$allocator@U?$pair@$$CBIPAVHardwareBufferPool@Ogre@@@std@@@4@$0A@@std@@@std@@QAE?AViterator@12@Vconst_iterator@12@ABU?$pair@$$CBIPAVHardwareBufferPool@Ogre@@@2@@Z ENDP ; std::_Tree<std::_Tmap_traits<unsigned int,Ogre::HardwareBufferPool *,std::less<unsigned int>,std::allocator<std::pair<unsigned int const ,Ogre::HardwareBufferPool *> >,0> >::insert
_TEXT	ENDS
PUBLIC	?_Make_iter@?$_Tree@V?$_Tmap_traits@IPAVHardwareBufferPool@Ogre@@U?$less@I@std@@V?$allocator@U?$pair@$$CBIPAVHardwareBufferPool@Ogre@@@std@@@4@$0A@@std@@@std@@QBE?AViterator@12@Vconst_iterator@12@@Z ; std::_Tree<std::_Tmap_traits<unsigned int,Ogre::HardwareBufferPool *,std::less<unsigned int>,std::allocator<std::pair<unsigned int const ,Ogre::HardwareBufferPool *> >,0> >::_Make_iter
PUBLIC	?erase@?$_Tree@V?$_Tmap_traits@IPAVHardwareBufferPool@Ogre@@U?$less@I@std@@V?$allocator@U?$pair@$$CBIPAVHardwareBufferPool@Ogre@@@std@@@4@$0A@@std@@@std@@QAE?AViterator@12@Vconst_iterator@12@@Z ; std::_Tree<std::_Tmap_traits<unsigned int,Ogre::HardwareBufferPool *,std::less<unsigned int>,std::allocator<std::pair<unsigned int const ,Ogre::HardwareBufferPool *> >,0> >::erase
PUBLIC	??Econst_iterator@?$_Tree@V?$_Tmap_traits@IPAVHardwareBufferPool@Ogre@@U?$less@I@std@@V?$allocator@U?$pair@$$CBIPAVHardwareBufferPool@Ogre@@@std@@@4@$0A@@std@@@std@@QAE?AV012@H@Z ; std::_Tree<std::_Tmap_traits<unsigned int,Ogre::HardwareBufferPool *,std::less<unsigned int>,std::allocator<std::pair<unsigned int const ,Ogre::HardwareBufferPool *> >,0> >::const_iterator::operator++
PUBLIC	?clear@?$_Tree@V?$_Tmap_traits@IPAVHardwareBufferPool@Ogre@@U?$less@I@std@@V?$allocator@U?$pair@$$CBIPAVHardwareBufferPool@Ogre@@@std@@@4@$0A@@std@@@std@@QAEXXZ ; std::_Tree<std::_Tmap_traits<unsigned int,Ogre::HardwareBufferPool *,std::less<unsigned int>,std::allocator<std::pair<unsigned int const ,Ogre::HardwareBufferPool *> >,0> >::clear
; Function compile flags: /Odtp
;	COMDAT ?erase@?$_Tree@V?$_Tmap_traits@IPAVHardwareBufferPool@Ogre@@U?$less@I@std@@V?$allocator@U?$pair@$$CBIPAVHardwareBufferPool@Ogre@@@std@@@4@$0A@@std@@@std@@QAE?AViterator@12@Vconst_iterator@12@0@Z
_TEXT	SEGMENT
_this$ = -36						; size = 4
$T64195 = -32						; size = 8
$T64194 = -24						; size = 8
$T64193 = -16						; size = 8
$T64192 = -8						; size = 8
___$ReturnUdt$ = 8					; size = 4
__First$ = 12						; size = 8
__Last$ = 20						; size = 8
?erase@?$_Tree@V?$_Tmap_traits@IPAVHardwareBufferPool@Ogre@@U?$less@I@std@@V?$allocator@U?$pair@$$CBIPAVHardwareBufferPool@Ogre@@@std@@@4@$0A@@std@@@std@@QAE?AViterator@12@Vconst_iterator@12@0@Z PROC ; std::_Tree<std::_Tmap_traits<unsigned int,Ogre::HardwareBufferPool *,std::less<unsigned int>,std::allocator<std::pair<unsigned int const ,Ogre::HardwareBufferPool *> >,0> >::erase, COMDAT
; _this$ = ecx

; 934  : 		{	// erase [_First, _Last)

	push	ebp
	mov	ebp, esp
	sub	esp, 36					; 00000024H
	mov	DWORD PTR _this$[ebp], ecx

; 935  : 		if (_First == begin() && _Last == end())

	lea	eax, DWORD PTR $T64192[ebp]
	push	eax
	mov	ecx, DWORD PTR _this$[ebp]
	call	?begin@?$_Tree@V?$_Tmap_traits@IPAVHardwareBufferPool@Ogre@@U?$less@I@std@@V?$allocator@U?$pair@$$CBIPAVHardwareBufferPool@Ogre@@@std@@@4@$0A@@std@@@std@@QAE?AViterator@12@XZ ; std::_Tree<std::_Tmap_traits<unsigned int,Ogre::HardwareBufferPool *,std::less<unsigned int>,std::allocator<std::pair<unsigned int const ,Ogre::HardwareBufferPool *> >,0> >::begin
	push	eax
	lea	ecx, DWORD PTR __First$[ebp]
	call	??8const_iterator@?$_Tree@V?$_Tmap_traits@IPAVHardwareBufferPool@Ogre@@U?$less@I@std@@V?$allocator@U?$pair@$$CBIPAVHardwareBufferPool@Ogre@@@std@@@4@$0A@@std@@@std@@QBE_NABV012@@Z ; std::_Tree<std::_Tmap_traits<unsigned int,Ogre::HardwareBufferPool *,std::less<unsigned int>,std::allocator<std::pair<unsigned int const ,Ogre::HardwareBufferPool *> >,0> >::const_iterator::operator==
	movzx	ecx, al
	test	ecx, ecx
	je	SHORT $LN2@erase
	lea	edx, DWORD PTR $T64193[ebp]
	push	edx
	mov	ecx, DWORD PTR _this$[ebp]
	call	?end@?$_Tree@V?$_Tmap_traits@IPAVHardwareBufferPool@Ogre@@U?$less@I@std@@V?$allocator@U?$pair@$$CBIPAVHardwareBufferPool@Ogre@@@std@@@4@$0A@@std@@@std@@QAE?AViterator@12@XZ ; std::_Tree<std::_Tmap_traits<unsigned int,Ogre::HardwareBufferPool *,std::less<unsigned int>,std::allocator<std::pair<unsigned int const ,Ogre::HardwareBufferPool *> >,0> >::end
	push	eax
	lea	ecx, DWORD PTR __Last$[ebp]
	call	??8const_iterator@?$_Tree@V?$_Tmap_traits@IPAVHardwareBufferPool@Ogre@@U?$less@I@std@@V?$allocator@U?$pair@$$CBIPAVHardwareBufferPool@Ogre@@@std@@@4@$0A@@std@@@std@@QBE_NABV012@@Z ; std::_Tree<std::_Tmap_traits<unsigned int,Ogre::HardwareBufferPool *,std::less<unsigned int>,std::allocator<std::pair<unsigned int const ,Ogre::HardwareBufferPool *> >,0> >::const_iterator::operator==
	movzx	eax, al
	test	eax, eax
	je	SHORT $LN2@erase

; 936  : 			{	// erase all
; 937  : 			clear();

	mov	ecx, DWORD PTR _this$[ebp]
	call	?clear@?$_Tree@V?$_Tmap_traits@IPAVHardwareBufferPool@Ogre@@U?$less@I@std@@V?$allocator@U?$pair@$$CBIPAVHardwareBufferPool@Ogre@@@std@@@4@$0A@@std@@@std@@QAEXXZ ; std::_Tree<std::_Tmap_traits<unsigned int,Ogre::HardwareBufferPool *,std::less<unsigned int>,std::allocator<std::pair<unsigned int const ,Ogre::HardwareBufferPool *> >,0> >::clear

; 938  : 			return (begin());

	mov	ecx, DWORD PTR ___$ReturnUdt$[ebp]
	push	ecx
	mov	ecx, DWORD PTR _this$[ebp]
	call	?begin@?$_Tree@V?$_Tmap_traits@IPAVHardwareBufferPool@Ogre@@U?$less@I@std@@V?$allocator@U?$pair@$$CBIPAVHardwareBufferPool@Ogre@@@std@@@4@$0A@@std@@@std@@QAE?AViterator@12@XZ ; std::_Tree<std::_Tmap_traits<unsigned int,Ogre::HardwareBufferPool *,std::less<unsigned int>,std::allocator<std::pair<unsigned int const ,Ogre::HardwareBufferPool *> >,0> >::begin
	mov	eax, DWORD PTR ___$ReturnUdt$[ebp]
	jmp	SHORT $LN5@erase

; 939  : 			}
; 940  : 		else

	jmp	SHORT $LN5@erase
$LN2@erase:

; 941  : 			{	// partial erase, one at a time
; 942  : 			while (_First != _Last)

	lea	edx, DWORD PTR __Last$[ebp]
	push	edx
	lea	ecx, DWORD PTR __First$[ebp]
	call	??9const_iterator@?$_Tree@V?$_Tmap_traits@IPAVHardwareBufferPool@Ogre@@U?$less@I@std@@V?$allocator@U?$pair@$$CBIPAVHardwareBufferPool@Ogre@@@std@@@4@$0A@@std@@@std@@QBE_NABV012@@Z ; std::_Tree<std::_Tmap_traits<unsigned int,Ogre::HardwareBufferPool *,std::less<unsigned int>,std::allocator<std::pair<unsigned int const ,Ogre::HardwareBufferPool *> >,0> >::const_iterator::operator!=
	movzx	eax, al
	test	eax, eax
	je	SHORT $LN1@erase

; 943  : 				erase(_First++);

	push	0
	lea	ecx, DWORD PTR $T64194[ebp]
	push	ecx
	lea	ecx, DWORD PTR __First$[ebp]
	call	??Econst_iterator@?$_Tree@V?$_Tmap_traits@IPAVHardwareBufferPool@Ogre@@U?$less@I@std@@V?$allocator@U?$pair@$$CBIPAVHardwareBufferPool@Ogre@@@std@@@4@$0A@@std@@@std@@QAE?AV012@H@Z ; std::_Tree<std::_Tmap_traits<unsigned int,Ogre::HardwareBufferPool *,std::less<unsigned int>,std::allocator<std::pair<unsigned int const ,Ogre::HardwareBufferPool *> >,0> >::const_iterator::operator++
	mov	edx, DWORD PTR [eax+4]
	push	edx
	mov	eax, DWORD PTR [eax]
	push	eax
	lea	ecx, DWORD PTR $T64195[ebp]
	push	ecx
	mov	ecx, DWORD PTR _this$[ebp]
	call	?erase@?$_Tree@V?$_Tmap_traits@IPAVHardwareBufferPool@Ogre@@U?$less@I@std@@V?$allocator@U?$pair@$$CBIPAVHardwareBufferPool@Ogre@@@std@@@4@$0A@@std@@@std@@QAE?AViterator@12@Vconst_iterator@12@@Z ; std::_Tree<std::_Tmap_traits<unsigned int,Ogre::HardwareBufferPool *,std::less<unsigned int>,std::allocator<std::pair<unsigned int const ,Ogre::HardwareBufferPool *> >,0> >::erase
	jmp	SHORT $LN2@erase
$LN1@erase:

; 944  : 			return (_Make_iter(_First));

	mov	edx, DWORD PTR __First$[ebp+4]
	push	edx
	mov	eax, DWORD PTR __First$[ebp]
	push	eax
	mov	ecx, DWORD PTR ___$ReturnUdt$[ebp]
	push	ecx
	mov	ecx, DWORD PTR _this$[ebp]
	call	?_Make_iter@?$_Tree@V?$_Tmap_traits@IPAVHardwareBufferPool@Ogre@@U?$less@I@std@@V?$allocator@U?$pair@$$CBIPAVHardwareBufferPool@Ogre@@@std@@@4@$0A@@std@@@std@@QBE?AViterator@12@Vconst_iterator@12@@Z ; std::_Tree<std::_Tmap_traits<unsigned int,Ogre::HardwareBufferPool *,std::less<unsigned int>,std::allocator<std::pair<unsigned int const ,Ogre::HardwareBufferPool *> >,0> >::_Make_iter
	mov	eax, DWORD PTR ___$ReturnUdt$[ebp]
$LN5@erase:

; 945  : 			}
; 946  : 		}

	mov	esp, ebp
	pop	ebp
	ret	20					; 00000014H
?erase@?$_Tree@V?$_Tmap_traits@IPAVHardwareBufferPool@Ogre@@U?$less@I@std@@V?$allocator@U?$pair@$$CBIPAVHardwareBufferPool@Ogre@@@std@@@4@$0A@@std@@@std@@QAE?AViterator@12@Vconst_iterator@12@0@Z ENDP ; std::_Tree<std::_Tmap_traits<unsigned int,Ogre::HardwareBufferPool *,std::less<unsigned int>,std::allocator<std::pair<unsigned int const ,Ogre::HardwareBufferPool *> >,0> >::erase
_TEXT	ENDS
PUBLIC	?_Lbound@?$_Tree@V?$_Tmap_traits@IPAVHardwareBufferPool@Ogre@@U?$less@I@std@@V?$allocator@U?$pair@$$CBIPAVHardwareBufferPool@Ogre@@@std@@@4@$0A@@std@@@std@@IBEPAU_Node@?$_Tree_nod@V?$_Tmap_traits@IPAVHardwareBufferPool@Ogre@@U?$less@I@std@@V?$allocator@U?$pair@$$CBIPAVHardwareBufferPool@Ogre@@@std@@@4@$0A@@std@@@2@ABI@Z ; std::_Tree<std::_Tmap_traits<unsigned int,Ogre::HardwareBufferPool *,std::less<unsigned int>,std::allocator<std::pair<unsigned int const ,Ogre::HardwareBufferPool *> >,0> >::_Lbound
; Function compile flags: /Odtp
;	COMDAT ?lower_bound@?$_Tree@V?$_Tmap_traits@IPAVHardwareBufferPool@Ogre@@U?$less@I@std@@V?$allocator@U?$pair@$$CBIPAVHardwareBufferPool@Ogre@@@std@@@4@$0A@@std@@@std@@QAE?AViterator@12@ABI@Z
_TEXT	SEGMENT
_this$ = -4						; size = 4
___$ReturnUdt$ = 8					; size = 4
__Keyval$ = 12						; size = 4
?lower_bound@?$_Tree@V?$_Tmap_traits@IPAVHardwareBufferPool@Ogre@@U?$less@I@std@@V?$allocator@U?$pair@$$CBIPAVHardwareBufferPool@Ogre@@@std@@@4@$0A@@std@@@std@@QAE?AViterator@12@ABI@Z PROC ; std::_Tree<std::_Tmap_traits<unsigned int,Ogre::HardwareBufferPool *,std::less<unsigned int>,std::allocator<std::pair<unsigned int const ,Ogre::HardwareBufferPool *> >,0> >::lower_bound, COMDAT
; _this$ = ecx

; 1003 : 		{	// find leftmost node not less than _Keyval in mutable tree

	push	ebp
	mov	ebp, esp
	push	ecx
	mov	DWORD PTR _this$[ebp], ecx

; 1004 : 		return (_TREE_ITERATOR(_Lbound(_Keyval)));

	mov	eax, DWORD PTR _this$[ebp]
	push	eax
	mov	ecx, DWORD PTR __Keyval$[ebp]
	push	ecx
	mov	ecx, DWORD PTR _this$[ebp]
	call	?_Lbound@?$_Tree@V?$_Tmap_traits@IPAVHardwareBufferPool@Ogre@@U?$less@I@std@@V?$allocator@U?$pair@$$CBIPAVHardwareBufferPool@Ogre@@@std@@@4@$0A@@std@@@std@@IBEPAU_Node@?$_Tree_nod@V?$_Tmap_traits@IPAVHardwareBufferPool@Ogre@@U?$less@I@std@@V?$allocator@U?$pair@$$CBIPAVHardwareBufferPool@Ogre@@@std@@@4@$0A@@std@@@2@ABI@Z ; std::_Tree<std::_Tmap_traits<unsigned int,Ogre::HardwareBufferPool *,std::less<unsigned int>,std::allocator<std::pair<unsigned int const ,Ogre::HardwareBufferPool *> >,0> >::_Lbound
	push	eax
	mov	ecx, DWORD PTR ___$ReturnUdt$[ebp]
	call	??0iterator@?$_Tree@V?$_Tmap_traits@IPAVHardwareBufferPool@Ogre@@U?$less@I@std@@V?$allocator@U?$pair@$$CBIPAVHardwareBufferPool@Ogre@@@std@@@4@$0A@@std@@@std@@QAE@PAU_Node@?$_Tree_nod@V?$_Tmap_traits@IPAVHardwareBufferPool@Ogre@@U?$less@I@std@@V?$allocator@U?$pair@$$CBIPAVHardwareBufferPool@Ogre@@@std@@@4@$0A@@std@@@2@PBV12@@Z ; std::_Tree<std::_Tmap_traits<unsigned int,Ogre::HardwareBufferPool *,std::less<unsigned int>,std::allocator<std::pair<unsigned int const ,Ogre::HardwareBufferPool *> >,0> >::iterator::iterator
	mov	eax, DWORD PTR ___$ReturnUdt$[ebp]

; 1005 : 		}

	mov	esp, ebp
	pop	ebp
	ret	8
?lower_bound@?$_Tree@V?$_Tmap_traits@IPAVHardwareBufferPool@Ogre@@U?$less@I@std@@V?$allocator@U?$pair@$$CBIPAVHardwareBufferPool@Ogre@@@std@@@4@$0A@@std@@@std@@QAE?AViterator@12@ABI@Z ENDP ; std::_Tree<std::_Tmap_traits<unsigned int,Ogre::HardwareBufferPool *,std::less<unsigned int>,std::allocator<std::pair<unsigned int const ,Ogre::HardwareBufferPool *> >,0> >::lower_bound
_TEXT	ENDS
PUBLIC	?_Max@?$_Tree@V?$_Tmap_traits@IPAVHardwareBufferPool@Ogre@@U?$less@I@std@@V?$allocator@U?$pair@$$CBIPAVHardwareBufferPool@Ogre@@@std@@@4@$0A@@std@@@std@@KAPAU_Node@?$_Tree_nod@V?$_Tmap_traits@IPAVHardwareBufferPool@Ogre@@U?$less@I@std@@V?$allocator@U?$pair@$$CBIPAVHardwareBufferPool@Ogre@@@std@@@4@$0A@@std@@@2@PAU342@@Z ; std::_Tree<std::_Tmap_traits<unsigned int,Ogre::HardwareBufferPool *,std::less<unsigned int>,std::allocator<std::pair<unsigned int const ,Ogre::HardwareBufferPool *> >,0> >::_Max
PUBLIC	?_Min@?$_Tree@V?$_Tmap_traits@IPAVHardwareBufferPool@Ogre@@U?$less@I@std@@V?$allocator@U?$pair@$$CBIPAVHardwareBufferPool@Ogre@@@std@@@4@$0A@@std@@@std@@KAPAU_Node@?$_Tree_nod@V?$_Tmap_traits@IPAVHardwareBufferPool@Ogre@@U?$less@I@std@@V?$allocator@U?$pair@$$CBIPAVHardwareBufferPool@Ogre@@@std@@@4@$0A@@std@@@2@PAU342@@Z ; std::_Tree<std::_Tmap_traits<unsigned int,Ogre::HardwareBufferPool *,std::less<unsigned int>,std::allocator<std::pair<unsigned int const ,Ogre::HardwareBufferPool *> >,0> >::_Min
PUBLIC	?_Copy@?$_Tree@V?$_Tmap_traits@IPAVHardwareBufferPool@Ogre@@U?$less@I@std@@V?$allocator@U?$pair@$$CBIPAVHardwareBufferPool@Ogre@@@std@@@4@$0A@@std@@@std@@IAEPAU_Node@?$_Tree_nod@V?$_Tmap_traits@IPAVHardwareBufferPool@Ogre@@U?$less@I@std@@V?$allocator@U?$pair@$$CBIPAVHardwareBufferPool@Ogre@@@std@@@4@$0A@@std@@@2@PAU342@0@Z ; std::_Tree<std::_Tmap_traits<unsigned int,Ogre::HardwareBufferPool *,std::less<unsigned int>,std::allocator<std::pair<unsigned int const ,Ogre::HardwareBufferPool *> >,0> >::_Copy
PUBLIC	?_Root@?$_Tree@V?$_Tmap_traits@IPAVHardwareBufferPool@Ogre@@U?$less@I@std@@V?$allocator@U?$pair@$$CBIPAVHardwareBufferPool@Ogre@@@std@@@4@$0A@@std@@@std@@IBEAAPAU_Node@?$_Tree_nod@V?$_Tmap_traits@IPAVHardwareBufferPool@Ogre@@U?$less@I@std@@V?$allocator@U?$pair@$$CBIPAVHardwareBufferPool@Ogre@@@std@@@4@$0A@@std@@@2@XZ ; std::_Tree<std::_Tmap_traits<unsigned int,Ogre::HardwareBufferPool *,std::less<unsigned int>,std::allocator<std::pair<unsigned int const ,Ogre::HardwareBufferPool *> >,0> >::_Root
; Function compile flags: /Odtp
;	COMDAT ?_Copy@?$_Tree@V?$_Tmap_traits@IPAVHardwareBufferPool@Ogre@@U?$less@I@std@@V?$allocator@U?$pair@$$CBIPAVHardwareBufferPool@Ogre@@@std@@@4@$0A@@std@@@std@@IAEXABV12@@Z
_TEXT	SEGMENT
_this$ = -4						; size = 4
__Right$ = 8						; size = 4
?_Copy@?$_Tree@V?$_Tmap_traits@IPAVHardwareBufferPool@Ogre@@U?$less@I@std@@V?$allocator@U?$pair@$$CBIPAVHardwareBufferPool@Ogre@@@std@@@4@$0A@@std@@@std@@IAEXABV12@@Z PROC ; std::_Tree<std::_Tmap_traits<unsigned int,Ogre::HardwareBufferPool *,std::less<unsigned int>,std::allocator<std::pair<unsigned int const ,Ogre::HardwareBufferPool *> >,0> >::_Copy, COMDAT
; _this$ = ecx

; 1062 : 		{	// copy entire tree from _Right

	push	ebp
	mov	ebp, esp
	push	ecx
	push	esi
	mov	DWORD PTR _this$[ebp], ecx

; 1063 : 		_Root() = _Copy(_Right._Root(), _Myhead);

	mov	eax, DWORD PTR _this$[ebp]
	mov	ecx, DWORD PTR [eax+24]
	push	ecx
	mov	ecx, DWORD PTR __Right$[ebp]
	call	?_Root@?$_Tree@V?$_Tmap_traits@IPAVHardwareBufferPool@Ogre@@U?$less@I@std@@V?$allocator@U?$pair@$$CBIPAVHardwareBufferPool@Ogre@@@std@@@4@$0A@@std@@@std@@IBEAAPAU_Node@?$_Tree_nod@V?$_Tmap_traits@IPAVHardwareBufferPool@Ogre@@U?$less@I@std@@V?$allocator@U?$pair@$$CBIPAVHardwareBufferPool@Ogre@@@std@@@4@$0A@@std@@@2@XZ ; std::_Tree<std::_Tmap_traits<unsigned int,Ogre::HardwareBufferPool *,std::less<unsigned int>,std::allocator<std::pair<unsigned int const ,Ogre::HardwareBufferPool *> >,0> >::_Root
	mov	edx, DWORD PTR [eax]
	push	edx
	mov	ecx, DWORD PTR _this$[ebp]
	call	?_Copy@?$_Tree@V?$_Tmap_traits@IPAVHardwareBufferPool@Ogre@@U?$less@I@std@@V?$allocator@U?$pair@$$CBIPAVHardwareBufferPool@Ogre@@@std@@@4@$0A@@std@@@std@@IAEPAU_Node@?$_Tree_nod@V?$_Tmap_traits@IPAVHardwareBufferPool@Ogre@@U?$less@I@std@@V?$allocator@U?$pair@$$CBIPAVHardwareBufferPool@Ogre@@@std@@@4@$0A@@std@@@2@PAU342@0@Z ; std::_Tree<std::_Tmap_traits<unsigned int,Ogre::HardwareBufferPool *,std::less<unsigned int>,std::allocator<std::pair<unsigned int const ,Ogre::HardwareBufferPool *> >,0> >::_Copy
	mov	esi, eax
	mov	ecx, DWORD PTR _this$[ebp]
	call	?_Root@?$_Tree@V?$_Tmap_traits@IPAVHardwareBufferPool@Ogre@@U?$less@I@std@@V?$allocator@U?$pair@$$CBIPAVHardwareBufferPool@Ogre@@@std@@@4@$0A@@std@@@std@@IBEAAPAU_Node@?$_Tree_nod@V?$_Tmap_traits@IPAVHardwareBufferPool@Ogre@@U?$less@I@std@@V?$allocator@U?$pair@$$CBIPAVHardwareBufferPool@Ogre@@@std@@@4@$0A@@std@@@2@XZ ; std::_Tree<std::_Tmap_traits<unsigned int,Ogre::HardwareBufferPool *,std::less<unsigned int>,std::allocator<std::pair<unsigned int const ,Ogre::HardwareBufferPool *> >,0> >::_Root
	mov	DWORD PTR [eax], esi

; 1064 : 		_Mysize = _Right.size();

	mov	ecx, DWORD PTR __Right$[ebp]
	call	?size@?$_Tree@V?$_Tmap_traits@IPAVHardwareBufferPool@Ogre@@U?$less@I@std@@V?$allocator@U?$pair@$$CBIPAVHardwareBufferPool@Ogre@@@std@@@4@$0A@@std@@@std@@QBEIXZ ; std::_Tree<std::_Tmap_traits<unsigned int,Ogre::HardwareBufferPool *,std::less<unsigned int>,std::allocator<std::pair<unsigned int const ,Ogre::HardwareBufferPool *> >,0> >::size
	mov	ecx, DWORD PTR _this$[ebp]
	mov	DWORD PTR [ecx+28], eax

; 1065 : 		if (!_Isnil(_Root()))

	mov	ecx, DWORD PTR _this$[ebp]
	call	?_Root@?$_Tree@V?$_Tmap_traits@IPAVHardwareBufferPool@Ogre@@U?$less@I@std@@V?$allocator@U?$pair@$$CBIPAVHardwareBufferPool@Ogre@@@std@@@4@$0A@@std@@@std@@IBEAAPAU_Node@?$_Tree_nod@V?$_Tmap_traits@IPAVHardwareBufferPool@Ogre@@U?$less@I@std@@V?$allocator@U?$pair@$$CBIPAVHardwareBufferPool@Ogre@@@std@@@4@$0A@@std@@@2@XZ ; std::_Tree<std::_Tmap_traits<unsigned int,Ogre::HardwareBufferPool *,std::less<unsigned int>,std::allocator<std::pair<unsigned int const ,Ogre::HardwareBufferPool *> >,0> >::_Root
	mov	edx, DWORD PTR [eax]
	push	edx
	call	?_Isnil@?$_Tree@V?$_Tmap_traits@IPAVHardwareBufferPool@Ogre@@U?$less@I@std@@V?$allocator@U?$pair@$$CBIPAVHardwareBufferPool@Ogre@@@std@@@4@$0A@@std@@@std@@KAAADPAU_Node@?$_Tree_nod@V?$_Tmap_traits@IPAVHardwareBufferPool@Ogre@@U?$less@I@std@@V?$allocator@U?$pair@$$CBIPAVHardwareBufferPool@Ogre@@@std@@@4@$0A@@std@@@2@@Z ; std::_Tree<std::_Tmap_traits<unsigned int,Ogre::HardwareBufferPool *,std::less<unsigned int>,std::allocator<std::pair<unsigned int const ,Ogre::HardwareBufferPool *> >,0> >::_Isnil
	add	esp, 4
	movsx	eax, BYTE PTR [eax]
	test	eax, eax
	jne	SHORT $LN2@Copy

; 1066 : 			{	// nonempty tree, look for new smallest and largest
; 1067 : 			_Lmost() = _Min(_Root());

	mov	ecx, DWORD PTR _this$[ebp]
	call	?_Root@?$_Tree@V?$_Tmap_traits@IPAVHardwareBufferPool@Ogre@@U?$less@I@std@@V?$allocator@U?$pair@$$CBIPAVHardwareBufferPool@Ogre@@@std@@@4@$0A@@std@@@std@@IBEAAPAU_Node@?$_Tree_nod@V?$_Tmap_traits@IPAVHardwareBufferPool@Ogre@@U?$less@I@std@@V?$allocator@U?$pair@$$CBIPAVHardwareBufferPool@Ogre@@@std@@@4@$0A@@std@@@2@XZ ; std::_Tree<std::_Tmap_traits<unsigned int,Ogre::HardwareBufferPool *,std::less<unsigned int>,std::allocator<std::pair<unsigned int const ,Ogre::HardwareBufferPool *> >,0> >::_Root
	mov	ecx, DWORD PTR [eax]
	push	ecx
	call	?_Min@?$_Tree@V?$_Tmap_traits@IPAVHardwareBufferPool@Ogre@@U?$less@I@std@@V?$allocator@U?$pair@$$CBIPAVHardwareBufferPool@Ogre@@@std@@@4@$0A@@std@@@std@@KAPAU_Node@?$_Tree_nod@V?$_Tmap_traits@IPAVHardwareBufferPool@Ogre@@U?$less@I@std@@V?$allocator@U?$pair@$$CBIPAVHardwareBufferPool@Ogre@@@std@@@4@$0A@@std@@@2@PAU342@@Z ; std::_Tree<std::_Tmap_traits<unsigned int,Ogre::HardwareBufferPool *,std::less<unsigned int>,std::allocator<std::pair<unsigned int const ,Ogre::HardwareBufferPool *> >,0> >::_Min
	add	esp, 4
	mov	esi, eax
	mov	ecx, DWORD PTR _this$[ebp]
	call	?_Lmost@?$_Tree@V?$_Tmap_traits@IPAVHardwareBufferPool@Ogre@@U?$less@I@std@@V?$allocator@U?$pair@$$CBIPAVHardwareBufferPool@Ogre@@@std@@@4@$0A@@std@@@std@@IBEAAPAU_Node@?$_Tree_nod@V?$_Tmap_traits@IPAVHardwareBufferPool@Ogre@@U?$less@I@std@@V?$allocator@U?$pair@$$CBIPAVHardwareBufferPool@Ogre@@@std@@@4@$0A@@std@@@2@XZ ; std::_Tree<std::_Tmap_traits<unsigned int,Ogre::HardwareBufferPool *,std::less<unsigned int>,std::allocator<std::pair<unsigned int const ,Ogre::HardwareBufferPool *> >,0> >::_Lmost
	mov	DWORD PTR [eax], esi

; 1068 : 			_Rmost() = _Max(_Root());

	mov	ecx, DWORD PTR _this$[ebp]
	call	?_Root@?$_Tree@V?$_Tmap_traits@IPAVHardwareBufferPool@Ogre@@U?$less@I@std@@V?$allocator@U?$pair@$$CBIPAVHardwareBufferPool@Ogre@@@std@@@4@$0A@@std@@@std@@IBEAAPAU_Node@?$_Tree_nod@V?$_Tmap_traits@IPAVHardwareBufferPool@Ogre@@U?$less@I@std@@V?$allocator@U?$pair@$$CBIPAVHardwareBufferPool@Ogre@@@std@@@4@$0A@@std@@@2@XZ ; std::_Tree<std::_Tmap_traits<unsigned int,Ogre::HardwareBufferPool *,std::less<unsigned int>,std::allocator<std::pair<unsigned int const ,Ogre::HardwareBufferPool *> >,0> >::_Root
	mov	edx, DWORD PTR [eax]
	push	edx
	call	?_Max@?$_Tree@V?$_Tmap_traits@IPAVHardwareBufferPool@Ogre@@U?$less@I@std@@V?$allocator@U?$pair@$$CBIPAVHardwareBufferPool@Ogre@@@std@@@4@$0A@@std@@@std@@KAPAU_Node@?$_Tree_nod@V?$_Tmap_traits@IPAVHardwareBufferPool@Ogre@@U?$less@I@std@@V?$allocator@U?$pair@$$CBIPAVHardwareBufferPool@Ogre@@@std@@@4@$0A@@std@@@2@PAU342@@Z ; std::_Tree<std::_Tmap_traits<unsigned int,Ogre::HardwareBufferPool *,std::less<unsigned int>,std::allocator<std::pair<unsigned int const ,Ogre::HardwareBufferPool *> >,0> >::_Max
	add	esp, 4
	mov	esi, eax
	mov	ecx, DWORD PTR _this$[ebp]
	call	?_Rmost@?$_Tree@V?$_Tmap_traits@IPAVHardwareBufferPool@Ogre@@U?$less@I@std@@V?$allocator@U?$pair@$$CBIPAVHardwareBufferPool@Ogre@@@std@@@4@$0A@@std@@@std@@IBEAAPAU_Node@?$_Tree_nod@V?$_Tmap_traits@IPAVHardwareBufferPool@Ogre@@U?$less@I@std@@V?$allocator@U?$pair@$$CBIPAVHardwareBufferPool@Ogre@@@std@@@4@$0A@@std@@@2@XZ ; std::_Tree<std::_Tmap_traits<unsigned int,Ogre::HardwareBufferPool *,std::less<unsigned int>,std::allocator<std::pair<unsigned int const ,Ogre::HardwareBufferPool *> >,0> >::_Rmost
	mov	DWORD PTR [eax], esi

; 1069 : 			}
; 1070 : 		else

	jmp	SHORT $LN3@Copy
$LN2@Copy:

; 1071 : 			_Lmost() = _Myhead, _Rmost() = _Myhead;	// empty tree

	mov	ecx, DWORD PTR _this$[ebp]
	call	?_Lmost@?$_Tree@V?$_Tmap_traits@IPAVHardwareBufferPool@Ogre@@U?$less@I@std@@V?$allocator@U?$pair@$$CBIPAVHardwareBufferPool@Ogre@@@std@@@4@$0A@@std@@@std@@IBEAAPAU_Node@?$_Tree_nod@V?$_Tmap_traits@IPAVHardwareBufferPool@Ogre@@U?$less@I@std@@V?$allocator@U?$pair@$$CBIPAVHardwareBufferPool@Ogre@@@std@@@4@$0A@@std@@@2@XZ ; std::_Tree<std::_Tmap_traits<unsigned int,Ogre::HardwareBufferPool *,std::less<unsigned int>,std::allocator<std::pair<unsigned int const ,Ogre::HardwareBufferPool *> >,0> >::_Lmost
	mov	ecx, DWORD PTR _this$[ebp]
	mov	edx, DWORD PTR [ecx+24]
	mov	DWORD PTR [eax], edx
	mov	ecx, DWORD PTR _this$[ebp]
	call	?_Rmost@?$_Tree@V?$_Tmap_traits@IPAVHardwareBufferPool@Ogre@@U?$less@I@std@@V?$allocator@U?$pair@$$CBIPAVHardwareBufferPool@Ogre@@@std@@@4@$0A@@std@@@std@@IBEAAPAU_Node@?$_Tree_nod@V?$_Tmap_traits@IPAVHardwareBufferPool@Ogre@@U?$less@I@std@@V?$allocator@U?$pair@$$CBIPAVHardwareBufferPool@Ogre@@@std@@@4@$0A@@std@@@2@XZ ; std::_Tree<std::_Tmap_traits<unsigned int,Ogre::HardwareBufferPool *,std::less<unsigned int>,std::allocator<std::pair<unsigned int const ,Ogre::HardwareBufferPool *> >,0> >::_Rmost
	mov	ecx, DWORD PTR _this$[ebp]
	mov	edx, DWORD PTR [ecx+24]
	mov	DWORD PTR [eax], edx
$LN3@Copy:

; 1072 : 		}

	pop	esi
	mov	esp, ebp
	pop	ebp
	ret	4
?_Copy@?$_Tree@V?$_Tmap_traits@IPAVHardwareBufferPool@Ogre@@U?$less@I@std@@V?$allocator@U?$pair@$$CBIPAVHardwareBufferPool@Ogre@@@std@@@4@$0A@@std@@@std@@IAEXABV12@@Z ENDP ; std::_Tree<std::_Tmap_traits<unsigned int,Ogre::HardwareBufferPool *,std::less<unsigned int>,std::allocator<std::pair<unsigned int const ,Ogre::HardwareBufferPool *> >,0> >::_Copy
_TEXT	ENDS
PUBLIC	?_Buynode@?$_Tree@V?$_Tmap_traits@IPAVHardwareBufferPool@Ogre@@U?$less@I@std@@V?$allocator@U?$pair@$$CBIPAVHardwareBufferPool@Ogre@@@std@@@4@$0A@@std@@@std@@IAEPAU_Node@?$_Tree_nod@V?$_Tmap_traits@IPAVHardwareBufferPool@Ogre@@U?$less@I@std@@V?$allocator@U?$pair@$$CBIPAVHardwareBufferPool@Ogre@@@std@@@4@$0A@@std@@@2@XZ ; std::_Tree<std::_Tmap_traits<unsigned int,Ogre::HardwareBufferPool *,std::less<unsigned int>,std::allocator<std::pair<unsigned int const ,Ogre::HardwareBufferPool *> >,0> >::_Buynode
; Function compile flags: /Odtp
;	COMDAT ?_Init@?$_Tree@V?$_Tmap_traits@IPAVHardwareBufferPool@Ogre@@U?$less@I@std@@V?$allocator@U?$pair@$$CBIPAVHardwareBufferPool@Ogre@@@std@@@4@$0A@@std@@@std@@IAEXXZ
_TEXT	SEGMENT
_this$ = -4						; size = 4
?_Init@?$_Tree@V?$_Tmap_traits@IPAVHardwareBufferPool@Ogre@@U?$less@I@std@@V?$allocator@U?$pair@$$CBIPAVHardwareBufferPool@Ogre@@@std@@@4@$0A@@std@@@std@@IAEXXZ PROC ; std::_Tree<std::_Tmap_traits<unsigned int,Ogre::HardwareBufferPool *,std::less<unsigned int>,std::allocator<std::pair<unsigned int const ,Ogre::HardwareBufferPool *> >,0> >::_Init, COMDAT
; _this$ = ecx

; 1177 : 		{	// create head/nil node and make tree empty

	push	ebp
	mov	ebp, esp
	push	ecx
	mov	DWORD PTR _this$[ebp], ecx

; 1178 : 		_Myhead = _Buynode();

	mov	ecx, DWORD PTR _this$[ebp]
	call	?_Buynode@?$_Tree@V?$_Tmap_traits@IPAVHardwareBufferPool@Ogre@@U?$less@I@std@@V?$allocator@U?$pair@$$CBIPAVHardwareBufferPool@Ogre@@@std@@@4@$0A@@std@@@std@@IAEPAU_Node@?$_Tree_nod@V?$_Tmap_traits@IPAVHardwareBufferPool@Ogre@@U?$less@I@std@@V?$allocator@U?$pair@$$CBIPAVHardwareBufferPool@Ogre@@@std@@@4@$0A@@std@@@2@XZ ; std::_Tree<std::_Tmap_traits<unsigned int,Ogre::HardwareBufferPool *,std::less<unsigned int>,std::allocator<std::pair<unsigned int const ,Ogre::HardwareBufferPool *> >,0> >::_Buynode
	mov	ecx, DWORD PTR _this$[ebp]
	mov	DWORD PTR [ecx+24], eax

; 1179 : 		_Isnil(_Myhead) = true;

	mov	edx, DWORD PTR _this$[ebp]
	mov	eax, DWORD PTR [edx+24]
	push	eax
	call	?_Isnil@?$_Tree@V?$_Tmap_traits@IPAVHardwareBufferPool@Ogre@@U?$less@I@std@@V?$allocator@U?$pair@$$CBIPAVHardwareBufferPool@Ogre@@@std@@@4@$0A@@std@@@std@@KAAADPAU_Node@?$_Tree_nod@V?$_Tmap_traits@IPAVHardwareBufferPool@Ogre@@U?$less@I@std@@V?$allocator@U?$pair@$$CBIPAVHardwareBufferPool@Ogre@@@std@@@4@$0A@@std@@@2@@Z ; std::_Tree<std::_Tmap_traits<unsigned int,Ogre::HardwareBufferPool *,std::less<unsigned int>,std::allocator<std::pair<unsigned int const ,Ogre::HardwareBufferPool *> >,0> >::_Isnil
	add	esp, 4
	mov	BYTE PTR [eax], 1

; 1180 : 		_Root() = _Myhead;

	mov	ecx, DWORD PTR _this$[ebp]
	call	?_Root@?$_Tree@V?$_Tmap_traits@IPAVHardwareBufferPool@Ogre@@U?$less@I@std@@V?$allocator@U?$pair@$$CBIPAVHardwareBufferPool@Ogre@@@std@@@4@$0A@@std@@@std@@IBEAAPAU_Node@?$_Tree_nod@V?$_Tmap_traits@IPAVHardwareBufferPool@Ogre@@U?$less@I@std@@V?$allocator@U?$pair@$$CBIPAVHardwareBufferPool@Ogre@@@std@@@4@$0A@@std@@@2@XZ ; std::_Tree<std::_Tmap_traits<unsigned int,Ogre::HardwareBufferPool *,std::less<unsigned int>,std::allocator<std::pair<unsigned int const ,Ogre::HardwareBufferPool *> >,0> >::_Root
	mov	ecx, DWORD PTR _this$[ebp]
	mov	edx, DWORD PTR [ecx+24]
	mov	DWORD PTR [eax], edx

; 1181 : 		_Lmost() = _Myhead, _Rmost() = _Myhead;

	mov	ecx, DWORD PTR _this$[ebp]
	call	?_Lmost@?$_Tree@V?$_Tmap_traits@IPAVHardwareBufferPool@Ogre@@U?$less@I@std@@V?$allocator@U?$pair@$$CBIPAVHardwareBufferPool@Ogre@@@std@@@4@$0A@@std@@@std@@IBEAAPAU_Node@?$_Tree_nod@V?$_Tmap_traits@IPAVHardwareBufferPool@Ogre@@U?$less@I@std@@V?$allocator@U?$pair@$$CBIPAVHardwareBufferPool@Ogre@@@std@@@4@$0A@@std@@@2@XZ ; std::_Tree<std::_Tmap_traits<unsigned int,Ogre::HardwareBufferPool *,std::less<unsigned int>,std::allocator<std::pair<unsigned int const ,Ogre::HardwareBufferPool *> >,0> >::_Lmost
	mov	ecx, DWORD PTR _this$[ebp]
	mov	edx, DWORD PTR [ecx+24]
	mov	DWORD PTR [eax], edx
	mov	ecx, DWORD PTR _this$[ebp]
	call	?_Rmost@?$_Tree@V?$_Tmap_traits@IPAVHardwareBufferPool@Ogre@@U?$less@I@std@@V?$allocator@U?$pair@$$CBIPAVHardwareBufferPool@Ogre@@@std@@@4@$0A@@std@@@std@@IBEAAPAU_Node@?$_Tree_nod@V?$_Tmap_traits@IPAVHardwareBufferPool@Ogre@@U?$less@I@std@@V?$allocator@U?$pair@$$CBIPAVHardwareBufferPool@Ogre@@@std@@@4@$0A@@std@@@2@XZ ; std::_Tree<std::_Tmap_traits<unsigned int,Ogre::HardwareBufferPool *,std::less<unsigned int>,std::allocator<std::pair<unsigned int const ,Ogre::HardwareBufferPool *> >,0> >::_Rmost
	mov	ecx, DWORD PTR _this$[ebp]
	mov	edx, DWORD PTR [ecx+24]
	mov	DWORD PTR [eax], edx

; 1182 : 		_Mysize = 0;

	mov	eax, DWORD PTR _this$[ebp]
	mov	DWORD PTR [eax+28], 0

; 1183 : 		}

	mov	esp, ebp
	pop	ebp
	ret	0
?_Init@?$_Tree@V?$_Tmap_traits@IPAVHardwareBufferPool@Ogre@@U?$less@I@std@@V?$allocator@U?$pair@$$CBIPAVHardwareBufferPool@Ogre@@@std@@@4@$0A@@std@@@std@@IAEXXZ ENDP ; std::_Tree<std::_Tmap_traits<unsigned int,Ogre::HardwareBufferPool *,std::less<unsigned int>,std::allocator<std::pair<unsigned int const ,Ogre::HardwareBufferPool *> >,0> >::_Init
_TEXT	ENDS
PUBLIC	?_Left@?$_Tree@V?$_Tmap_traits@IPAVHardwareBufferPool@Ogre@@U?$less@I@std@@V?$allocator@U?$pair@$$CBIPAVHardwareBufferPool@Ogre@@@std@@@4@$0A@@std@@@std@@KAAAPAU_Node@?$_Tree_nod@V?$_Tmap_traits@IPAVHardwareBufferPool@Ogre@@U?$less@I@std@@V?$allocator@U?$pair@$$CBIPAVHardwareBufferPool@Ogre@@@std@@@4@$0A@@std@@@2@PAU342@@Z ; std::_Tree<std::_Tmap_traits<unsigned int,Ogre::HardwareBufferPool *,std::less<unsigned int>,std::allocator<std::pair<unsigned int const ,Ogre::HardwareBufferPool *> >,0> >::_Left
; Function compile flags: /Odtp
;	COMDAT ?_Lmost@?$_Tree@V?$_Tmap_traits@IPAVHardwareBufferPool@Ogre@@U?$less@I@std@@V?$allocator@U?$pair@$$CBIPAVHardwareBufferPool@Ogre@@@std@@@4@$0A@@std@@@std@@IBEAAPAU_Node@?$_Tree_nod@V?$_Tmap_traits@IPAVHardwareBufferPool@Ogre@@U?$less@I@std@@V?$allocator@U?$pair@$$CBIPAVHardwareBufferPool@Ogre@@@std@@@4@$0A@@std@@@2@XZ
_TEXT	SEGMENT
_this$ = -4						; size = 4
?_Lmost@?$_Tree@V?$_Tmap_traits@IPAVHardwareBufferPool@Ogre@@U?$less@I@std@@V?$allocator@U?$pair@$$CBIPAVHardwareBufferPool@Ogre@@@std@@@4@$0A@@std@@@std@@IBEAAPAU_Node@?$_Tree_nod@V?$_Tmap_traits@IPAVHardwareBufferPool@Ogre@@U?$less@I@std@@V?$allocator@U?$pair@$$CBIPAVHardwareBufferPool@Ogre@@@std@@@4@$0A@@std@@@2@XZ PROC ; std::_Tree<std::_Tmap_traits<unsigned int,Ogre::HardwareBufferPool *,std::less<unsigned int>,std::allocator<std::pair<unsigned int const ,Ogre::HardwareBufferPool *> >,0> >::_Lmost, COMDAT
; _this$ = ecx

; 1280 : 		{	// return leftmost node in nonmutable tree

	push	ebp
	mov	ebp, esp
	push	ecx
	mov	DWORD PTR _this$[ebp], ecx

; 1281 : 		return (_Left(_Myhead));

	mov	eax, DWORD PTR _this$[ebp]
	mov	ecx, DWORD PTR [eax+24]
	push	ecx
	call	?_Left@?$_Tree@V?$_Tmap_traits@IPAVHardwareBufferPool@Ogre@@U?$less@I@std@@V?$allocator@U?$pair@$$CBIPAVHardwareBufferPool@Ogre@@@std@@@4@$0A@@std@@@std@@KAAAPAU_Node@?$_Tree_nod@V?$_Tmap_traits@IPAVHardwareBufferPool@Ogre@@U?$less@I@std@@V?$allocator@U?$pair@$$CBIPAVHardwareBufferPool@Ogre@@@std@@@4@$0A@@std@@@2@PAU342@@Z ; std::_Tree<std::_Tmap_traits<unsigned int,Ogre::HardwareBufferPool *,std::less<unsigned int>,std::allocator<std::pair<unsigned int const ,Ogre::HardwareBufferPool *> >,0> >::_Left
	add	esp, 4

; 1282 : 		}

	mov	esp, ebp
	pop	ebp
	ret	0
?_Lmost@?$_Tree@V?$_Tmap_traits@IPAVHardwareBufferPool@Ogre@@U?$less@I@std@@V?$allocator@U?$pair@$$CBIPAVHardwareBufferPool@Ogre@@@std@@@4@$0A@@std@@@std@@IBEAAPAU_Node@?$_Tree_nod@V?$_Tmap_traits@IPAVHardwareBufferPool@Ogre@@U?$less@I@std@@V?$allocator@U?$pair@$$CBIPAVHardwareBufferPool@Ogre@@@std@@@4@$0A@@std@@@2@XZ ENDP ; std::_Tree<std::_Tmap_traits<unsigned int,Ogre::HardwareBufferPool *,std::less<unsigned int>,std::allocator<std::pair<unsigned int const ,Ogre::HardwareBufferPool *> >,0> >::_Lmost
_TEXT	ENDS
PUBLIC	?deallocate@?$allocator@U_Node@?$_Tree_nod@V?$_Tmap_traits@IPAVHardwareBufferPool@Ogre@@U?$less@I@std@@V?$allocator@U?$pair@$$CBIPAVHardwareBufferPool@Ogre@@@std@@@4@$0A@@std@@@std@@@std@@QAEXPAU_Node@?$_Tree_nod@V?$_Tmap_traits@IPAVHardwareBufferPool@Ogre@@U?$less@I@std@@V?$allocator@U?$pair@$$CBIPAVHardwareBufferPool@Ogre@@@std@@@4@$0A@@std@@@2@I@Z ; std::allocator<std::_Tree_nod<std::_Tmap_traits<unsigned int,Ogre::HardwareBufferPool *,std::less<unsigned int>,std::allocator<std::pair<unsigned int const ,Ogre::HardwareBufferPool *> >,0> >::_Node>::deallocate
PUBLIC	?_Parent@?$_Tree@V?$_Tmap_traits@IPAVHardwareBufferPool@Ogre@@U?$less@I@std@@V?$allocator@U?$pair@$$CBIPAVHardwareBufferPool@Ogre@@@std@@@4@$0A@@std@@@std@@KAAAPAU_Node@?$_Tree_nod@V?$_Tmap_traits@IPAVHardwareBufferPool@Ogre@@U?$less@I@std@@V?$allocator@U?$pair@$$CBIPAVHardwareBufferPool@Ogre@@@std@@@4@$0A@@std@@@2@PAU342@@Z ; std::_Tree<std::_Tmap_traits<unsigned int,Ogre::HardwareBufferPool *,std::less<unsigned int>,std::allocator<std::pair<unsigned int const ,Ogre::HardwareBufferPool *> >,0> >::_Parent
PUBLIC	?destroy@?$allocator@PAU_Node@?$_Tree_nod@V?$_Tmap_traits@IPAVHardwareBufferPool@Ogre@@U?$less@I@std@@V?$allocator@U?$pair@$$CBIPAVHardwareBufferPool@Ogre@@@std@@@4@$0A@@std@@@std@@@std@@QAEXPAPAU_Node@?$_Tree_nod@V?$_Tmap_traits@IPAVHardwareBufferPool@Ogre@@U?$less@I@std@@V?$allocator@U?$pair@$$CBIPAVHardwareBufferPool@Ogre@@@std@@@4@$0A@@std@@@2@@Z ; std::allocator<std::_Tree_nod<std::_Tmap_traits<unsigned int,Ogre::HardwareBufferPool *,std::less<unsigned int>,std::allocator<std::pair<unsigned int const ,Ogre::HardwareBufferPool *> >,0> >::_Node *>::destroy
; Function compile flags: /Odtp
;	COMDAT ?_Tidy@?$_Tree@V?$_Tmap_traits@IPAVHardwareBufferPool@Ogre@@U?$less@I@std@@V?$allocator@U?$pair@$$CBIPAVHardwareBufferPool@Ogre@@@std@@@4@$0A@@std@@@std@@IAEXXZ
_TEXT	SEGMENT
_this$ = -44						; size = 4
$T64210 = -40						; size = 8
$T64209 = -32						; size = 8
$T64208 = -24						; size = 8
$T64207 = -16						; size = 8
$T64206 = -8						; size = 8
?_Tidy@?$_Tree@V?$_Tmap_traits@IPAVHardwareBufferPool@Ogre@@U?$less@I@std@@V?$allocator@U?$pair@$$CBIPAVHardwareBufferPool@Ogre@@@std@@@4@$0A@@std@@@std@@IAEXXZ PROC ; std::_Tree<std::_Tmap_traits<unsigned int,Ogre::HardwareBufferPool *,std::less<unsigned int>,std::allocator<std::pair<unsigned int const ,Ogre::HardwareBufferPool *> >,0> >::_Tidy, COMDAT
; _this$ = ecx

; 1420 : 		{	// free all storage

	push	ebp
	mov	ebp, esp
	sub	esp, 44					; 0000002cH
	mov	DWORD PTR _this$[ebp], ecx

; 1421 : 		erase(begin(), end());

	lea	eax, DWORD PTR $T64207[ebp]
	push	eax
	mov	ecx, DWORD PTR _this$[ebp]
	call	?end@?$_Tree@V?$_Tmap_traits@IPAVHardwareBufferPool@Ogre@@U?$less@I@std@@V?$allocator@U?$pair@$$CBIPAVHardwareBufferPool@Ogre@@@std@@@4@$0A@@std@@@std@@QAE?AViterator@12@XZ ; std::_Tree<std::_Tmap_traits<unsigned int,Ogre::HardwareBufferPool *,std::less<unsigned int>,std::allocator<std::pair<unsigned int const ,Ogre::HardwareBufferPool *> >,0> >::end
	mov	ecx, DWORD PTR [eax]
	mov	edx, DWORD PTR [eax+4]
	mov	DWORD PTR $T64206[ebp], ecx
	mov	DWORD PTR $T64206[ebp+4], edx
	lea	eax, DWORD PTR $T64209[ebp]
	push	eax
	mov	ecx, DWORD PTR _this$[ebp]
	call	?begin@?$_Tree@V?$_Tmap_traits@IPAVHardwareBufferPool@Ogre@@U?$less@I@std@@V?$allocator@U?$pair@$$CBIPAVHardwareBufferPool@Ogre@@@std@@@4@$0A@@std@@@std@@QAE?AViterator@12@XZ ; std::_Tree<std::_Tmap_traits<unsigned int,Ogre::HardwareBufferPool *,std::less<unsigned int>,std::allocator<std::pair<unsigned int const ,Ogre::HardwareBufferPool *> >,0> >::begin
	mov	ecx, DWORD PTR [eax]
	mov	edx, DWORD PTR [eax+4]
	mov	DWORD PTR $T64208[ebp], ecx
	mov	DWORD PTR $T64208[ebp+4], edx
	mov	eax, DWORD PTR $T64206[ebp+4]
	push	eax
	mov	ecx, DWORD PTR $T64206[ebp]
	push	ecx
	mov	edx, DWORD PTR $T64208[ebp+4]
	push	edx
	mov	eax, DWORD PTR $T64208[ebp]
	push	eax
	lea	ecx, DWORD PTR $T64210[ebp]
	push	ecx
	mov	ecx, DWORD PTR _this$[ebp]
	call	?erase@?$_Tree@V?$_Tmap_traits@IPAVHardwareBufferPool@Ogre@@U?$less@I@std@@V?$allocator@U?$pair@$$CBIPAVHardwareBufferPool@Ogre@@@std@@@4@$0A@@std@@@std@@QAE?AViterator@12@Vconst_iterator@12@0@Z ; std::_Tree<std::_Tmap_traits<unsigned int,Ogre::HardwareBufferPool *,std::less<unsigned int>,std::allocator<std::pair<unsigned int const ,Ogre::HardwareBufferPool *> >,0> >::erase

; 1422 : 		this->_Alptr.destroy(&_Left(_Myhead));

	mov	edx, DWORD PTR _this$[ebp]
	mov	eax, DWORD PTR [edx+24]
	push	eax
	call	?_Left@?$_Tree@V?$_Tmap_traits@IPAVHardwareBufferPool@Ogre@@U?$less@I@std@@V?$allocator@U?$pair@$$CBIPAVHardwareBufferPool@Ogre@@@std@@@4@$0A@@std@@@std@@KAAAPAU_Node@?$_Tree_nod@V?$_Tmap_traits@IPAVHardwareBufferPool@Ogre@@U?$less@I@std@@V?$allocator@U?$pair@$$CBIPAVHardwareBufferPool@Ogre@@@std@@@4@$0A@@std@@@2@PAU342@@Z ; std::_Tree<std::_Tmap_traits<unsigned int,Ogre::HardwareBufferPool *,std::less<unsigned int>,std::allocator<std::pair<unsigned int const ,Ogre::HardwareBufferPool *> >,0> >::_Left
	add	esp, 4
	push	eax
	mov	ecx, DWORD PTR _this$[ebp]
	add	ecx, 16					; 00000010H
	call	?destroy@?$allocator@PAU_Node@?$_Tree_nod@V?$_Tmap_traits@IPAVHardwareBufferPool@Ogre@@U?$less@I@std@@V?$allocator@U?$pair@$$CBIPAVHardwareBufferPool@Ogre@@@std@@@4@$0A@@std@@@std@@@std@@QAEXPAPAU_Node@?$_Tree_nod@V?$_Tmap_traits@IPAVHardwareBufferPool@Ogre@@U?$less@I@std@@V?$allocator@U?$pair@$$CBIPAVHardwareBufferPool@Ogre@@@std@@@4@$0A@@std@@@2@@Z ; std::allocator<std::_Tree_nod<std::_Tmap_traits<unsigned int,Ogre::HardwareBufferPool *,std::less<unsigned int>,std::allocator<std::pair<unsigned int const ,Ogre::HardwareBufferPool *> >,0> >::_Node *>::destroy

; 1423 : 		this->_Alptr.destroy(&_Parent(_Myhead));

	mov	ecx, DWORD PTR _this$[ebp]
	mov	edx, DWORD PTR [ecx+24]
	push	edx
	call	?_Parent@?$_Tree@V?$_Tmap_traits@IPAVHardwareBufferPool@Ogre@@U?$less@I@std@@V?$allocator@U?$pair@$$CBIPAVHardwareBufferPool@Ogre@@@std@@@4@$0A@@std@@@std@@KAAAPAU_Node@?$_Tree_nod@V?$_Tmap_traits@IPAVHardwareBufferPool@Ogre@@U?$less@I@std@@V?$allocator@U?$pair@$$CBIPAVHardwareBufferPool@Ogre@@@std@@@4@$0A@@std@@@2@PAU342@@Z ; std::_Tree<std::_Tmap_traits<unsigned int,Ogre::HardwareBufferPool *,std::less<unsigned int>,std::allocator<std::pair<unsigned int const ,Ogre::HardwareBufferPool *> >,0> >::_Parent
	add	esp, 4
	push	eax
	mov	ecx, DWORD PTR _this$[ebp]
	add	ecx, 16					; 00000010H
	call	?destroy@?$allocator@PAU_Node@?$_Tree_nod@V?$_Tmap_traits@IPAVHardwareBufferPool@Ogre@@U?$less@I@std@@V?$allocator@U?$pair@$$CBIPAVHardwareBufferPool@Ogre@@@std@@@4@$0A@@std@@@std@@@std@@QAEXPAPAU_Node@?$_Tree_nod@V?$_Tmap_traits@IPAVHardwareBufferPool@Ogre@@U?$less@I@std@@V?$allocator@U?$pair@$$CBIPAVHardwareBufferPool@Ogre@@@std@@@4@$0A@@std@@@2@@Z ; std::allocator<std::_Tree_nod<std::_Tmap_traits<unsigned int,Ogre::HardwareBufferPool *,std::less<unsigned int>,std::allocator<std::pair<unsigned int const ,Ogre::HardwareBufferPool *> >,0> >::_Node *>::destroy

; 1424 : 		this->_Alptr.destroy(&_Right(_Myhead));

	mov	eax, DWORD PTR _this$[ebp]
	mov	ecx, DWORD PTR [eax+24]
	push	ecx
	call	?_Right@?$_Tree@V?$_Tmap_traits@IPAVHardwareBufferPool@Ogre@@U?$less@I@std@@V?$allocator@U?$pair@$$CBIPAVHardwareBufferPool@Ogre@@@std@@@4@$0A@@std@@@std@@KAAAPAU_Node@?$_Tree_nod@V?$_Tmap_traits@IPAVHardwareBufferPool@Ogre@@U?$less@I@std@@V?$allocator@U?$pair@$$CBIPAVHardwareBufferPool@Ogre@@@std@@@4@$0A@@std@@@2@PAU342@@Z ; std::_Tree<std::_Tmap_traits<unsigned int,Ogre::HardwareBufferPool *,std::less<unsigned int>,std::allocator<std::pair<unsigned int const ,Ogre::HardwareBufferPool *> >,0> >::_Right
	add	esp, 4
	push	eax
	mov	ecx, DWORD PTR _this$[ebp]
	add	ecx, 16					; 00000010H
	call	?destroy@?$allocator@PAU_Node@?$_Tree_nod@V?$_Tmap_traits@IPAVHardwareBufferPool@Ogre@@U?$less@I@std@@V?$allocator@U?$pair@$$CBIPAVHardwareBufferPool@Ogre@@@std@@@4@$0A@@std@@@std@@@std@@QAEXPAPAU_Node@?$_Tree_nod@V?$_Tmap_traits@IPAVHardwareBufferPool@Ogre@@U?$less@I@std@@V?$allocator@U?$pair@$$CBIPAVHardwareBufferPool@Ogre@@@std@@@4@$0A@@std@@@2@@Z ; std::allocator<std::_Tree_nod<std::_Tmap_traits<unsigned int,Ogre::HardwareBufferPool *,std::less<unsigned int>,std::allocator<std::pair<unsigned int const ,Ogre::HardwareBufferPool *> >,0> >::_Node *>::destroy

; 1425 : 		this->_Alnod.deallocate(_Myhead, 1);

	push	1
	mov	edx, DWORD PTR _this$[ebp]
	mov	eax, DWORD PTR [edx+24]
	push	eax
	mov	ecx, DWORD PTR _this$[ebp]
	add	ecx, 12					; 0000000cH
	call	?deallocate@?$allocator@U_Node@?$_Tree_nod@V?$_Tmap_traits@IPAVHardwareBufferPool@Ogre@@U?$less@I@std@@V?$allocator@U?$pair@$$CBIPAVHardwareBufferPool@Ogre@@@std@@@4@$0A@@std@@@std@@@std@@QAEXPAU_Node@?$_Tree_nod@V?$_Tmap_traits@IPAVHardwareBufferPool@Ogre@@U?$less@I@std@@V?$allocator@U?$pair@$$CBIPAVHardwareBufferPool@Ogre@@@std@@@4@$0A@@std@@@2@I@Z ; std::allocator<std::_Tree_nod<std::_Tmap_traits<unsigned int,Ogre::HardwareBufferPool *,std::less<unsigned int>,std::allocator<std::pair<unsigned int const ,Ogre::HardwareBufferPool *> >,0> >::_Node>::deallocate

; 1426 : 		_Myhead = 0, _Mysize = 0;

	mov	ecx, DWORD PTR _this$[ebp]
	mov	DWORD PTR [ecx+24], 0
	mov	edx, DWORD PTR _this$[ebp]
	mov	DWORD PTR [edx+28], 0

; 1427 : 		}

	mov	esp, ebp
	pop	ebp
	ret	0
?_Tidy@?$_Tree@V?$_Tmap_traits@IPAVHardwareBufferPool@Ogre@@U?$less@I@std@@V?$allocator@U?$pair@$$CBIPAVHardwareBufferPool@Ogre@@@std@@@4@$0A@@std@@@std@@IAEXXZ ENDP ; std::_Tree<std::_Tmap_traits<unsigned int,Ogre::HardwareBufferPool *,std::less<unsigned int>,std::allocator<std::pair<unsigned int const ,Ogre::HardwareBufferPool *> >,0> >::_Tidy
_TEXT	ENDS
PUBLIC	??0?$_Tree_ptr@V?$_Tmap_traits@IPAVHardwareBufferPool@Ogre@@U?$less@I@std@@V?$allocator@U?$pair@$$CBIPAVHardwareBufferPool@Ogre@@@std@@@4@$0A@@std@@@std@@IAE@ABU?$less@I@1@V?$allocator@U?$pair@$$CBIPAVHardwareBufferPool@Ogre@@@std@@@1@@Z ; std::_Tree_ptr<std::_Tmap_traits<unsigned int,Ogre::HardwareBufferPool *,std::less<unsigned int>,std::allocator<std::pair<unsigned int const ,Ogre::HardwareBufferPool *> >,0> >::_Tree_ptr<std::_Tmap_traits<unsigned int,Ogre::HardwareBufferPool *,std::less<unsigned int>,std::allocator<std::pair<unsigned int const ,Ogre::HardwareBufferPool *> >,0> >
;	COMDAT xdata$x
xdata$x	SEGMENT
__unwindtable$??0?$_Tree_val@V?$_Tmap_traits@IPAVHardwareBufferPool@Ogre@@U?$less@I@std@@V?$allocator@U?$pair@$$CBIPAVHardwareBufferPool@Ogre@@@std@@@4@$0A@@std@@@std@@IAE@ABU?$less@I@1@V?$allocator@U?$pair@$$CBIPAVHardwareBufferPool@Ogre@@@std@@@1@@Z DD 0ffffffffH
	DD	FLAT:__unwindfunclet$??0?$_Tree_val@V?$_Tmap_traits@IPAVHardwareBufferPool@Ogre@@U?$less@I@std@@V?$allocator@U?$pair@$$CBIPAVHardwareBufferPool@Ogre@@@std@@@4@$0A@@std@@@std@@IAE@ABU?$less@I@1@V?$allocator@U?$pair@$$CBIPAVHardwareBufferPool@Ogre@@@std@@@1@@Z$0
__ehfuncinfo$??0?$_Tree_val@V?$_Tmap_traits@IPAVHardwareBufferPool@Ogre@@U?$less@I@std@@V?$allocator@U?$pair@$$CBIPAVHardwareBufferPool@Ogre@@@std@@@4@$0A@@std@@@std@@IAE@ABU?$less@I@1@V?$allocator@U?$pair@$$CBIPAVHardwareBufferPool@Ogre@@@std@@@1@@Z DD 019930522H
	DD	01H
	DD	FLAT:__unwindtable$??0?$_Tree_val@V?$_Tmap_traits@IPAVHardwareBufferPool@Ogre@@U?$less@I@std@@V?$allocator@U?$pair@$$CBIPAVHardwareBufferPool@Ogre@@@std@@@4@$0A@@std@@@std@@IAE@ABU?$less@I@1@V?$allocator@U?$pair@$$CBIPAVHardwareBufferPool@Ogre@@@std@@@1@@Z
	DD	2 DUP(00H)
	DD	2 DUP(00H)
	DD	00H
	DD	00H
; Function compile flags: /Odtp
xdata$x	ENDS
;	COMDAT ??0?$_Tree_val@V?$_Tmap_traits@IPAVHardwareBufferPool@Ogre@@U?$less@I@std@@V?$allocator@U?$pair@$$CBIPAVHardwareBufferPool@Ogre@@@std@@@4@$0A@@std@@@std@@IAE@ABU?$less@I@1@V?$allocator@U?$pair@$$CBIPAVHardwareBufferPool@Ogre@@@std@@@1@@Z
_TEXT	SEGMENT
_this$ = -20						; size = 4
$T64213 = -16						; size = 4
__$EHRec$ = -12						; size = 12
__Parg$ = 8						; size = 4
__Al$ = 12						; size = 1
??0?$_Tree_val@V?$_Tmap_traits@IPAVHardwareBufferPool@Ogre@@U?$less@I@std@@V?$allocator@U?$pair@$$CBIPAVHardwareBufferPool@Ogre@@@std@@@4@$0A@@std@@@std@@IAE@ABU?$less@I@1@V?$allocator@U?$pair@$$CBIPAVHardwareBufferPool@Ogre@@@std@@@1@@Z PROC ; std::_Tree_val<std::_Tmap_traits<unsigned int,Ogre::HardwareBufferPool *,std::less<unsigned int>,std::allocator<std::pair<unsigned int const ,Ogre::HardwareBufferPool *> >,0> >::_Tree_val<std::_Tmap_traits<unsigned int,Ogre::HardwareBufferPool *,std::less<unsigned int>,std::allocator<std::pair<unsigned int const ,Ogre::HardwareBufferPool *> >,0> >, COMDAT
; _this$ = ecx

; 97   : 		{	// construct base, and allocator from _Al

	push	ebp
	mov	ebp, esp
	push	-1
	push	__ehhandler$??0?$_Tree_val@V?$_Tmap_traits@IPAVHardwareBufferPool@Ogre@@U?$less@I@std@@V?$allocator@U?$pair@$$CBIPAVHardwareBufferPool@Ogre@@@std@@@4@$0A@@std@@@std@@IAE@ABU?$less@I@1@V?$allocator@U?$pair@$$CBIPAVHardwareBufferPool@Ogre@@@std@@@1@@Z
	mov	eax, DWORD PTR fs:0
	push	eax
	sub	esp, 8
	mov	eax, DWORD PTR ___security_cookie
	xor	eax, ebp
	push	eax
	lea	eax, DWORD PTR __$EHRec$[ebp]
	mov	DWORD PTR fs:0, eax
	mov	DWORD PTR _this$[ebp], ecx
	push	ecx
	mov	ecx, esp
	mov	DWORD PTR $T64213[ebp], esp
	lea	eax, DWORD PTR __Al$[ebp]
	push	eax
	call	??0?$allocator@U?$pair@$$CBIPAVHardwareBufferPool@Ogre@@@std@@@std@@QAE@ABV01@@Z ; std::allocator<std::pair<unsigned int const ,Ogre::HardwareBufferPool *> >::allocator<std::pair<unsigned int const ,Ogre::HardwareBufferPool *> >
	mov	ecx, DWORD PTR __Parg$[ebp]
	push	ecx
	mov	ecx, DWORD PTR _this$[ebp]
	call	??0?$_Tree_ptr@V?$_Tmap_traits@IPAVHardwareBufferPool@Ogre@@U?$less@I@std@@V?$allocator@U?$pair@$$CBIPAVHardwareBufferPool@Ogre@@@std@@@4@$0A@@std@@@std@@IAE@ABU?$less@I@1@V?$allocator@U?$pair@$$CBIPAVHardwareBufferPool@Ogre@@@std@@@1@@Z ; std::_Tree_ptr<std::_Tmap_traits<unsigned int,Ogre::HardwareBufferPool *,std::less<unsigned int>,std::allocator<std::pair<unsigned int const ,Ogre::HardwareBufferPool *> >,0> >::_Tree_ptr<std::_Tmap_traits<unsigned int,Ogre::HardwareBufferPool *,std::less<unsigned int>,std::allocator<std::pair<unsigned int const ,Ogre::HardwareBufferPool *> >,0> >
	mov	DWORD PTR __$EHRec$[ebp+8], 0
	lea	edx, DWORD PTR __Al$[ebp]
	push	edx
	mov	ecx, DWORD PTR _this$[ebp]
	add	ecx, 20					; 00000014H
	call	??0?$allocator@U?$pair@$$CBIPAVHardwareBufferPool@Ogre@@@std@@@std@@QAE@ABV01@@Z ; std::allocator<std::pair<unsigned int const ,Ogre::HardwareBufferPool *> >::allocator<std::pair<unsigned int const ,Ogre::HardwareBufferPool *> >

; 98   : 		}

	mov	DWORD PTR __$EHRec$[ebp+8], -1
	mov	eax, DWORD PTR _this$[ebp]
	mov	ecx, DWORD PTR __$EHRec$[ebp]
	mov	DWORD PTR fs:0, ecx
	pop	ecx
	mov	esp, ebp
	pop	ebp
	ret	8
_TEXT	ENDS
;	COMDAT text$x
text$x	SEGMENT
__unwindfunclet$??0?$_Tree_val@V?$_Tmap_traits@IPAVHardwareBufferPool@Ogre@@U?$less@I@std@@V?$allocator@U?$pair@$$CBIPAVHardwareBufferPool@Ogre@@@std@@@4@$0A@@std@@@std@@IAE@ABU?$less@I@1@V?$allocator@U?$pair@$$CBIPAVHardwareBufferPool@Ogre@@@std@@@1@@Z$0:
	mov	ecx, DWORD PTR _this$[ebp]
	jmp	??1?$_Tree_ptr@V?$_Tmap_traits@IPAVHardwareBufferPool@Ogre@@U?$less@I@std@@V?$allocator@U?$pair@$$CBIPAVHardwareBufferPool@Ogre@@@std@@@4@$0A@@std@@@std@@QAE@XZ
__ehhandler$??0?$_Tree_val@V?$_Tmap_traits@IPAVHardwareBufferPool@Ogre@@U?$less@I@std@@V?$allocator@U?$pair@$$CBIPAVHardwareBufferPool@Ogre@@@std@@@4@$0A@@std@@@std@@IAE@ABU?$less@I@1@V?$allocator@U?$pair@$$CBIPAVHardwareBufferPool@Ogre@@@std@@@1@@Z:
	mov	edx, DWORD PTR [esp+8]
	lea	eax, DWORD PTR [edx+12]
	mov	ecx, DWORD PTR [edx-12]
	xor	ecx, eax
	call	@__security_check_cookie@4
	mov	eax, OFFSET __ehfuncinfo$??0?$_Tree_val@V?$_Tmap_traits@IPAVHardwareBufferPool@Ogre@@U?$less@I@std@@V?$allocator@U?$pair@$$CBIPAVHardwareBufferPool@Ogre@@@std@@@4@$0A@@std@@@std@@IAE@ABU?$less@I@1@V?$allocator@U?$pair@$$CBIPAVHardwareBufferPool@Ogre@@@std@@@1@@Z
	jmp	___CxxFrameHandler3
text$x	ENDS
??0?$_Tree_val@V?$_Tmap_traits@IPAVHardwareBufferPool@Ogre@@U?$less@I@std@@V?$allocator@U?$pair@$$CBIPAVHardwareBufferPool@Ogre@@@std@@@4@$0A@@std@@@std@@IAE@ABU?$less@I@1@V?$allocator@U?$pair@$$CBIPAVHardwareBufferPool@Ogre@@@std@@@1@@Z ENDP ; std::_Tree_val<std::_Tmap_traits<unsigned int,Ogre::HardwareBufferPool *,std::less<unsigned int>,std::allocator<std::pair<unsigned int const ,Ogre::HardwareBufferPool *> >,0> >::_Tree_val<std::_Tmap_traits<unsigned int,Ogre::HardwareBufferPool *,std::less<unsigned int>,std::allocator<std::pair<unsigned int const ,Ogre::HardwareBufferPool *> >,0> >
PUBLIC	??1_Container_base_aux@std@@QAE@XZ		; std::_Container_base_aux::~_Container_base_aux
PUBLIC	?deallocate@?$allocator@V_Aux_cont@std@@@std@@QAEXPAV_Aux_cont@2@I@Z ; std::allocator<std::_Aux_cont>::deallocate
;	COMDAT xdata$x
; File d:\program files (x86)\microsoft visual studio 9.0\vc\include\xutility
xdata$x	SEGMENT
__unwindtable$??1?$_Container_base_aux_alloc_real@V?$allocator@U?$pair@$$CBIPAVHardwareBufferPool@Ogre@@@std@@@std@@@std@@IAE@XZ DD 0ffffffffH
	DD	FLAT:__unwindfunclet$??1?$_Container_base_aux_alloc_real@V?$allocator@U?$pair@$$CBIPAVHardwareBufferPool@Ogre@@@std@@@std@@@std@@IAE@XZ$0
__ehfuncinfo$??1?$_Container_base_aux_alloc_real@V?$allocator@U?$pair@$$CBIPAVHardwareBufferPool@Ogre@@@std@@@std@@@std@@IAE@XZ DD 019930522H
	DD	01H
	DD	FLAT:__unwindtable$??1?$_Container_base_aux_alloc_real@V?$allocator@U?$pair@$$CBIPAVHardwareBufferPool@Ogre@@@std@@@std@@@std@@IAE@XZ
	DD	2 DUP(00H)
	DD	2 DUP(00H)
	DD	00H
	DD	00H
; Function compile flags: /Odtp
xdata$x	ENDS
;	COMDAT ??1?$_Container_base_aux_alloc_real@V?$allocator@U?$pair@$$CBIPAVHardwareBufferPool@Ogre@@@std@@@std@@@std@@IAE@XZ
_TEXT	SEGMENT
_this$ = -16						; size = 4
__$EHRec$ = -12						; size = 12
??1?$_Container_base_aux_alloc_real@V?$allocator@U?$pair@$$CBIPAVHardwareBufferPool@Ogre@@@std@@@std@@@std@@IAE@XZ PROC ; std::_Container_base_aux_alloc_real<std::allocator<std::pair<unsigned int const ,Ogre::HardwareBufferPool *> > >::~_Container_base_aux_alloc_real<std::allocator<std::pair<unsigned int const ,Ogre::HardwareBufferPool *> > >, COMDAT
; _this$ = ecx

; 436  : 		{

	push	ebp
	mov	ebp, esp
	push	-1
	push	__ehhandler$??1?$_Container_base_aux_alloc_real@V?$allocator@U?$pair@$$CBIPAVHardwareBufferPool@Ogre@@@std@@@std@@@std@@IAE@XZ
	mov	eax, DWORD PTR fs:0
	push	eax
	push	ecx
	mov	eax, DWORD PTR ___security_cookie
	xor	eax, ebp
	push	eax
	lea	eax, DWORD PTR __$EHRec$[ebp]
	mov	DWORD PTR fs:0, eax
	mov	DWORD PTR _this$[ebp], ecx
	mov	DWORD PTR __$EHRec$[ebp+8], 0

; 437  : 		_Myownedaux->~_Aux_cont();
; 438  : 
; 439  : 		_Alaux.deallocate(_Myownedaux, 1);

	push	1
	mov	eax, DWORD PTR _this$[ebp]
	mov	ecx, DWORD PTR [eax]
	push	ecx
	mov	ecx, DWORD PTR _this$[ebp]
	add	ecx, 4
	call	?deallocate@?$allocator@V_Aux_cont@std@@@std@@QAEXPAV_Aux_cont@2@I@Z ; std::allocator<std::_Aux_cont>::deallocate

; 440  : 		}

	mov	DWORD PTR __$EHRec$[ebp+8], -1
	mov	ecx, DWORD PTR _this$[ebp]
	call	??1_Container_base_aux@std@@QAE@XZ	; std::_Container_base_aux::~_Container_base_aux
	mov	ecx, DWORD PTR __$EHRec$[ebp]
	mov	DWORD PTR fs:0, ecx
	pop	ecx
	mov	esp, ebp
	pop	ebp
	ret	0
_TEXT	ENDS
;	COMDAT text$x
text$x	SEGMENT
__unwindfunclet$??1?$_Container_base_aux_alloc_real@V?$allocator@U?$pair@$$CBIPAVHardwareBufferPool@Ogre@@@std@@@std@@@std@@IAE@XZ$0:
	mov	ecx, DWORD PTR _this$[ebp]
	jmp	??1_Container_base_aux@std@@QAE@XZ	; std::_Container_base_aux::~_Container_base_aux
__ehhandler$??1?$_Container_base_aux_alloc_real@V?$allocator@U?$pair@$$CBIPAVHardwareBufferPool@Ogre@@@std@@@std@@@std@@IAE@XZ:
	mov	edx, DWORD PTR [esp+8]
	lea	eax, DWORD PTR [edx+12]
	mov	ecx, DWORD PTR [edx-8]
	xor	ecx, eax
	call	@__security_check_cookie@4
	mov	eax, OFFSET __ehfuncinfo$??1?$_Container_base_aux_alloc_real@V?$allocator@U?$pair@$$CBIPAVHardwareBufferPool@Ogre@@@std@@@std@@@std@@IAE@XZ
	jmp	___CxxFrameHandler3
text$x	ENDS
??1?$_Container_base_aux_alloc_real@V?$allocator@U?$pair@$$CBIPAVHardwareBufferPool@Ogre@@@std@@@std@@@std@@IAE@XZ ENDP ; std::_Container_base_aux_alloc_real<std::allocator<std::pair<unsigned int const ,Ogre::HardwareBufferPool *> > >::~_Container_base_aux_alloc_real<std::allocator<std::pair<unsigned int const ,Ogre::HardwareBufferPool *> > >
; Function compile flags: /Odtp
;	COMDAT ??1_Container_base_aux@std@@QAE@XZ
_TEXT	SEGMENT
_this$ = -4						; size = 4
??1_Container_base_aux@std@@QAE@XZ PROC			; std::_Container_base_aux::~_Container_base_aux, COMDAT
; _this$ = ecx

; 402  : 		{

	push	ebp
	mov	ebp, esp
	push	ecx
	mov	DWORD PTR _this$[ebp], ecx

; 403  : 		// Do nothing: ~_Container_base_aux_alloc_real() previously destroyed the aux object.
; 404  : 		}

	mov	esp, ebp
	pop	ebp
	ret	0
??1_Container_base_aux@std@@QAE@XZ ENDP			; std::_Container_base_aux::~_Container_base_aux
; Function compile flags: /Odtp
; File d:\program files (x86)\microsoft visual studio 9.0\vc\include\xmemory
_TEXT	ENDS
;	COMDAT ??0?$allocator@U?$pair@$$CBIPAVHardwareBufferPool@Ogre@@@std@@@std@@QAE@XZ
_TEXT	SEGMENT
_this$ = -4						; size = 4
??0?$allocator@U?$pair@$$CBIPAVHardwareBufferPool@Ogre@@@std@@@std@@QAE@XZ PROC ; std::allocator<std::pair<unsigned int const ,Ogre::HardwareBufferPool *> >::allocator<std::pair<unsigned int const ,Ogre::HardwareBufferPool *> >, COMDAT
; _this$ = ecx

; 119  : 	allocator() _THROW0()

	push	ebp
	mov	ebp, esp
	push	ecx
	mov	DWORD PTR _this$[ebp], ecx

; 120  : 		{	// construct default allocator (do nothing)
; 121  : 		}

	mov	eax, DWORD PTR _this$[ebp]
	mov	esp, ebp
	pop	ebp
	ret	0
??0?$allocator@U?$pair@$$CBIPAVHardwareBufferPool@Ogre@@@std@@@std@@QAE@XZ ENDP ; std::allocator<std::pair<unsigned int const ,Ogre::HardwareBufferPool *> >::allocator<std::pair<unsigned int const ,Ogre::HardwareBufferPool *> >
; Function compile flags: /Odtp
; File d:\program files (x86)\microsoft visual studio 9.0\vc\include\functional
_TEXT	ENDS
;	COMDAT ??R?$less@I@std@@QBE_NABI0@Z
_TEXT	SEGMENT
_this$ = -4						; size = 4
__Left$ = 8						; size = 4
__Right$ = 12						; size = 4
??R?$less@I@std@@QBE_NABI0@Z PROC			; std::less<unsigned int>::operator(), COMDAT
; _this$ = ecx

; 142  : 		{	// apply operator< to operands

	push	ebp
	mov	ebp, esp
	push	ecx
	mov	DWORD PTR _this$[ebp], ecx

; 143  : 		return (_Left < _Right);

	mov	eax, DWORD PTR __Left$[ebp]
	mov	ecx, DWORD PTR __Right$[ebp]
	mov	edx, DWORD PTR [eax]
	cmp	edx, DWORD PTR [ecx]
	sbb	eax, eax
	neg	eax

; 144  : 		}

	mov	esp, ebp
	pop	ebp
	ret	8
??R?$less@I@std@@QBE_NABI0@Z ENDP			; std::less<unsigned int>::operator()
_TEXT	ENDS
PUBLIC	??0const_iterator@?$_Tree@V?$_Tmap_traits@IPAVHardwareBufferPool@Ogre@@U?$less@I@std@@V?$allocator@U?$pair@$$CBIPAVHardwareBufferPool@Ogre@@@std@@@4@$0A@@std@@@std@@QAE@PAU_Node@?$_Tree_nod@V?$_Tmap_traits@IPAVHardwareBufferPool@Ogre@@U?$less@I@std@@V?$allocator@U?$pair@$$CBIPAVHardwareBufferPool@Ogre@@@std@@@4@$0A@@std@@@2@PBV12@@Z ; std::_Tree<std::_Tmap_traits<unsigned int,Ogre::HardwareBufferPool *,std::less<unsigned int>,std::allocator<std::pair<unsigned int const ,Ogre::HardwareBufferPool *> >,0> >::const_iterator::const_iterator
; Function compile flags: /Odtp
; File d:\program files (x86)\microsoft visual studio 9.0\vc\include\xtree
;	COMDAT ??0iterator@?$_Tree@V?$_Tmap_traits@IPAVHardwareBufferPool@Ogre@@U?$less@I@std@@V?$allocator@U?$pair@$$CBIPAVHardwareBufferPool@Ogre@@@std@@@4@$0A@@std@@@std@@QAE@PAU_Node@?$_Tree_nod@V?$_Tmap_traits@IPAVHardwareBufferPool@Ogre@@U?$less@I@std@@V?$allocator@U?$pair@$$CBIPAVHardwareBufferPool@Ogre@@@std@@@4@$0A@@std@@@2@PBV12@@Z
_TEXT	SEGMENT
_this$ = -4						; size = 4
__Pnode$ = 8						; size = 4
__Plist$ = 12						; size = 4
??0iterator@?$_Tree@V?$_Tmap_traits@IPAVHardwareBufferPool@Ogre@@U?$less@I@std@@V?$allocator@U?$pair@$$CBIPAVHardwareBufferPool@Ogre@@@std@@@4@$0A@@std@@@std@@QAE@PAU_Node@?$_Tree_nod@V?$_Tmap_traits@IPAVHardwareBufferPool@Ogre@@U?$less@I@std@@V?$allocator@U?$pair@$$CBIPAVHardwareBufferPool@Ogre@@@std@@@4@$0A@@std@@@2@PBV12@@Z PROC ; std::_Tree<std::_Tmap_traits<unsigned int,Ogre::HardwareBufferPool *,std::less<unsigned int>,std::allocator<std::pair<unsigned int const ,Ogre::HardwareBufferPool *> >,0> >::iterator::iterator, COMDAT
; _this$ = ecx

; 451  : 			{	// construct with node pointer _Pnode

	push	ebp
	mov	ebp, esp
	push	ecx
	mov	DWORD PTR _this$[ebp], ecx
	mov	eax, DWORD PTR __Plist$[ebp]
	push	eax
	mov	ecx, DWORD PTR __Pnode$[ebp]
	push	ecx
	mov	ecx, DWORD PTR _this$[ebp]
	call	??0const_iterator@?$_Tree@V?$_Tmap_traits@IPAVHardwareBufferPool@Ogre@@U?$less@I@std@@V?$allocator@U?$pair@$$CBIPAVHardwareBufferPool@Ogre@@@std@@@4@$0A@@std@@@std@@QAE@PAU_Node@?$_Tree_nod@V?$_Tmap_traits@IPAVHardwareBufferPool@Ogre@@U?$less@I@std@@V?$allocator@U?$pair@$$CBIPAVHardwareBufferPool@Ogre@@@std@@@4@$0A@@std@@@2@PBV12@@Z ; std::_Tree<std::_Tmap_traits<unsigned int,Ogre::HardwareBufferPool *,std::less<unsigned int>,std::allocator<std::pair<unsigned int const ,Ogre::HardwareBufferPool *> >,0> >::const_iterator::const_iterator

; 452  : 			}

	mov	eax, DWORD PTR _this$[ebp]
	mov	esp, ebp
	pop	ebp
	ret	8
??0iterator@?$_Tree@V?$_Tmap_traits@IPAVHardwareBufferPool@Ogre@@U?$less@I@std@@V?$allocator@U?$pair@$$CBIPAVHardwareBufferPool@Ogre@@@std@@@4@$0A@@std@@@std@@QAE@PAU_Node@?$_Tree_nod@V?$_Tmap_traits@IPAVHardwareBufferPool@Ogre@@U?$less@I@std@@V?$allocator@U?$pair@$$CBIPAVHardwareBufferPool@Ogre@@@std@@@4@$0A@@std@@@2@PBV12@@Z ENDP ; std::_Tree<std::_Tmap_traits<unsigned int,Ogre::HardwareBufferPool *,std::less<unsigned int>,std::allocator<std::pair<unsigned int const ,Ogre::HardwareBufferPool *> >,0> >::iterator::iterator
_TEXT	ENDS
PUBLIC	??Dconst_iterator@?$_Tree@V?$_Tmap_traits@IPAVHardwareBufferPool@Ogre@@U?$less@I@std@@V?$allocator@U?$pair@$$CBIPAVHardwareBufferPool@Ogre@@@std@@@4@$0A@@std@@@std@@QBEABU?$pair@$$CBIPAVHardwareBufferPool@Ogre@@@2@XZ ; std::_Tree<std::_Tmap_traits<unsigned int,Ogre::HardwareBufferPool *,std::less<unsigned int>,std::allocator<std::pair<unsigned int const ,Ogre::HardwareBufferPool *> >,0> >::const_iterator::operator*
; Function compile flags: /Odtp
;	COMDAT ??Diterator@?$_Tree@V?$_Tmap_traits@IPAVHardwareBufferPool@Ogre@@U?$less@I@std@@V?$allocator@U?$pair@$$CBIPAVHardwareBufferPool@Ogre@@@std@@@4@$0A@@std@@@std@@QBEAAU?$pair@$$CBIPAVHardwareBufferPool@Ogre@@@2@XZ
_TEXT	SEGMENT
_this$ = -4						; size = 4
??Diterator@?$_Tree@V?$_Tmap_traits@IPAVHardwareBufferPool@Ogre@@U?$less@I@std@@V?$allocator@U?$pair@$$CBIPAVHardwareBufferPool@Ogre@@@std@@@4@$0A@@std@@@std@@QBEAAU?$pair@$$CBIPAVHardwareBufferPool@Ogre@@@2@XZ PROC ; std::_Tree<std::_Tmap_traits<unsigned int,Ogre::HardwareBufferPool *,std::less<unsigned int>,std::allocator<std::pair<unsigned int const ,Ogre::HardwareBufferPool *> >,0> >::iterator::operator*, COMDAT
; _this$ = ecx

; 464  : 			{	// return designated value

	push	ebp
	mov	ebp, esp
	push	ecx
	mov	DWORD PTR _this$[ebp], ecx

; 465  : 			return ((reference)**(const_iterator *)this);

	mov	ecx, DWORD PTR _this$[ebp]
	call	??Dconst_iterator@?$_Tree@V?$_Tmap_traits@IPAVHardwareBufferPool@Ogre@@U?$less@I@std@@V?$allocator@U?$pair@$$CBIPAVHardwareBufferPool@Ogre@@@std@@@4@$0A@@std@@@std@@QBEABU?$pair@$$CBIPAVHardwareBufferPool@Ogre@@@2@XZ ; std::_Tree<std::_Tmap_traits<unsigned int,Ogre::HardwareBufferPool *,std::less<unsigned int>,std::allocator<std::pair<unsigned int const ,Ogre::HardwareBufferPool *> >,0> >::const_iterator::operator*

; 466  : 			}

	mov	esp, ebp
	pop	ebp
	ret	0
??Diterator@?$_Tree@V?$_Tmap_traits@IPAVHardwareBufferPool@Ogre@@U?$less@I@std@@V?$allocator@U?$pair@$$CBIPAVHardwareBufferPool@Ogre@@@std@@@4@$0A@@std@@@std@@QBEAAU?$pair@$$CBIPAVHardwareBufferPool@Ogre@@@2@XZ ENDP ; std::_Tree<std::_Tmap_traits<unsigned int,Ogre::HardwareBufferPool *,std::less<unsigned int>,std::allocator<std::pair<unsigned int const ,Ogre::HardwareBufferPool *> >,0> >::iterator::operator*
; Function compile flags: /Odtp
_TEXT	ENDS
;	COMDAT ??Eiterator@?$_Tree@V?$_Tmap_traits@IPAVHardwareBufferPool@Ogre@@U?$less@I@std@@V?$allocator@U?$pair@$$CBIPAVHardwareBufferPool@Ogre@@@std@@@4@$0A@@std@@@std@@QAEAAV012@XZ
_TEXT	SEGMENT
_this$ = -4						; size = 4
??Eiterator@?$_Tree@V?$_Tmap_traits@IPAVHardwareBufferPool@Ogre@@U?$less@I@std@@V?$allocator@U?$pair@$$CBIPAVHardwareBufferPool@Ogre@@@std@@@4@$0A@@std@@@std@@QAEAAV012@XZ PROC ; std::_Tree<std::_Tmap_traits<unsigned int,Ogre::HardwareBufferPool *,std::less<unsigned int>,std::allocator<std::pair<unsigned int const ,Ogre::HardwareBufferPool *> >,0> >::iterator::operator++, COMDAT
; _this$ = ecx

; 474  : 			{	// preincrement

	push	ebp
	mov	ebp, esp
	push	ecx
	mov	DWORD PTR _this$[ebp], ecx

; 475  : 			++(*(const_iterator *)this);

	mov	ecx, DWORD PTR _this$[ebp]
	call	??Econst_iterator@?$_Tree@V?$_Tmap_traits@IPAVHardwareBufferPool@Ogre@@U?$less@I@std@@V?$allocator@U?$pair@$$CBIPAVHardwareBufferPool@Ogre@@@std@@@4@$0A@@std@@@std@@QAEAAV012@XZ ; std::_Tree<std::_Tmap_traits<unsigned int,Ogre::HardwareBufferPool *,std::less<unsigned int>,std::allocator<std::pair<unsigned int const ,Ogre::HardwareBufferPool *> >,0> >::const_iterator::operator++

; 476  : 			return (*this);

	mov	eax, DWORD PTR _this$[ebp]

; 477  : 			}

	mov	esp, ebp
	pop	ebp
	ret	0
??Eiterator@?$_Tree@V?$_Tmap_traits@IPAVHardwareBufferPool@Ogre@@U?$less@I@std@@V?$allocator@U?$pair@$$CBIPAVHardwareBufferPool@Ogre@@@std@@@4@$0A@@std@@@std@@QAEAAV012@XZ ENDP ; std::_Tree<std::_Tmap_traits<unsigned int,Ogre::HardwareBufferPool *,std::less<unsigned int>,std::allocator<std::pair<unsigned int const ,Ogre::HardwareBufferPool *> >,0> >::iterator::operator++
; Function compile flags: /Odtp
_TEXT	ENDS
;	COMDAT ?_Mynode@const_iterator@?$_Tree@V?$_Tmap_traits@IPAVHardwareBufferPool@Ogre@@U?$less@I@std@@V?$allocator@U?$pair@$$CBIPAVHardwareBufferPool@Ogre@@@std@@@4@$0A@@std@@@std@@QBEPAU_Node@?$_Tree_nod@V?$_Tmap_traits@IPAVHardwareBufferPool@Ogre@@U?$less@I@std@@V?$allocator@U?$pair@$$CBIPAVHardwareBufferPool@Ogre@@@std@@@4@$0A@@std@@@3@XZ
_TEXT	SEGMENT
_this$ = -4						; size = 4
?_Mynode@const_iterator@?$_Tree@V?$_Tmap_traits@IPAVHardwareBufferPool@Ogre@@U?$less@I@std@@V?$allocator@U?$pair@$$CBIPAVHardwareBufferPool@Ogre@@@std@@@4@$0A@@std@@@std@@QBEPAU_Node@?$_Tree_nod@V?$_Tmap_traits@IPAVHardwareBufferPool@Ogre@@U?$less@I@std@@V?$allocator@U?$pair@$$CBIPAVHardwareBufferPool@Ogre@@@std@@@4@$0A@@std@@@3@XZ PROC ; std::_Tree<std::_Tmap_traits<unsigned int,Ogre::HardwareBufferPool *,std::less<unsigned int>,std::allocator<std::pair<unsigned int const ,Ogre::HardwareBufferPool *> >,0> >::const_iterator::_Mynode, COMDAT
; _this$ = ecx

; 409  : 			{	// return node pointer

	push	ebp
	mov	ebp, esp
	push	ecx
	mov	DWORD PTR _this$[ebp], ecx

; 410  : 			return (_Ptr);

	mov	eax, DWORD PTR _this$[ebp]
	mov	eax, DWORD PTR [eax+4]

; 411  : 			}

	mov	esp, ebp
	pop	ebp
	ret	0
?_Mynode@const_iterator@?$_Tree@V?$_Tmap_traits@IPAVHardwareBufferPool@Ogre@@U?$less@I@std@@V?$allocator@U?$pair@$$CBIPAVHardwareBufferPool@Ogre@@@std@@@4@$0A@@std@@@std@@QBEPAU_Node@?$_Tree_nod@V?$_Tmap_traits@IPAVHardwareBufferPool@Ogre@@U?$less@I@std@@V?$allocator@U?$pair@$$CBIPAVHardwareBufferPool@Ogre@@@std@@@4@$0A@@std@@@3@XZ ENDP ; std::_Tree<std::_Tmap_traits<unsigned int,Ogre::HardwareBufferPool *,std::less<unsigned int>,std::allocator<std::pair<unsigned int const ,Ogre::HardwareBufferPool *> >,0> >::const_iterator::_Mynode
; Function compile flags: /Odtp
; File d:\program files (x86)\microsoft visual studio 9.0\vc\include\utility
_TEXT	ENDS
;	COMDAT ??0?$pair@$$CBIPAVHardwareBufferPool@Ogre@@@std@@QAE@ABIABQAVHardwareBufferPool@Ogre@@@Z
_TEXT	SEGMENT
_this$ = -4						; size = 4
__Val1$ = 8						; size = 4
__Val2$ = 12						; size = 4
??0?$pair@$$CBIPAVHardwareBufferPool@Ogre@@@std@@QAE@ABIABQAVHardwareBufferPool@Ogre@@@Z PROC ; std::pair<unsigned int const ,Ogre::HardwareBufferPool *>::pair<unsigned int const ,Ogre::HardwareBufferPool *>, COMDAT
; _this$ = ecx

; 50   : 		{	// construct from specified values

	push	ebp
	mov	ebp, esp
	push	ecx
	mov	DWORD PTR _this$[ebp], ecx
	mov	eax, DWORD PTR _this$[ebp]
	mov	ecx, DWORD PTR __Val1$[ebp]
	mov	edx, DWORD PTR [ecx]
	mov	DWORD PTR [eax], edx
	mov	eax, DWORD PTR _this$[ebp]
	mov	ecx, DWORD PTR __Val2$[ebp]
	mov	edx, DWORD PTR [ecx]
	mov	DWORD PTR [eax+4], edx

; 51   : 		}

	mov	eax, DWORD PTR _this$[ebp]
	mov	esp, ebp
	pop	ebp
	ret	8
??0?$pair@$$CBIPAVHardwareBufferPool@Ogre@@@std@@QAE@ABIABQAVHardwareBufferPool@Ogre@@@Z ENDP ; std::pair<unsigned int const ,Ogre::HardwareBufferPool *>::pair<unsigned int const ,Ogre::HardwareBufferPool *>
; Function compile flags: /Odtp
; File d:\program files (x86)\microsoft visual studio 9.0\vc\include\xtree
_TEXT	ENDS
;	COMDAT ?_Isnil@?$_Tree@V?$_Tmap_traits@IPAVHardwareBufferPool@Ogre@@U?$less@I@std@@V?$allocator@U?$pair@$$CBIPAVHardwareBufferPool@Ogre@@@std@@@4@$0A@@std@@@std@@KAAADPAU_Node@?$_Tree_nod@V?$_Tmap_traits@IPAVHardwareBufferPool@Ogre@@U?$less@I@std@@V?$allocator@U?$pair@$$CBIPAVHardwareBufferPool@Ogre@@@std@@@4@$0A@@std@@@2@@Z
_TEXT	SEGMENT
__Pnode$ = 8						; size = 4
?_Isnil@?$_Tree@V?$_Tmap_traits@IPAVHardwareBufferPool@Ogre@@U?$less@I@std@@V?$allocator@U?$pair@$$CBIPAVHardwareBufferPool@Ogre@@@std@@@4@$0A@@std@@@std@@KAAADPAU_Node@?$_Tree_nod@V?$_Tmap_traits@IPAVHardwareBufferPool@Ogre@@U?$less@I@std@@V?$allocator@U?$pair@$$CBIPAVHardwareBufferPool@Ogre@@@std@@@4@$0A@@std@@@2@@Z PROC ; std::_Tree<std::_Tmap_traits<unsigned int,Ogre::HardwareBufferPool *,std::less<unsigned int>,std::allocator<std::pair<unsigned int const ,Ogre::HardwareBufferPool *> >,0> >::_Isnil, COMDAT

; 156  : 		{	// return reference to nil flag in node

	push	ebp
	mov	ebp, esp

; 157  : 		return ((_Charref)(*_Pnode)._Isnil);

	mov	eax, DWORD PTR __Pnode$[ebp]
	add	eax, 21					; 00000015H

; 158  : 		}

	pop	ebp
	ret	0
?_Isnil@?$_Tree@V?$_Tmap_traits@IPAVHardwareBufferPool@Ogre@@U?$less@I@std@@V?$allocator@U?$pair@$$CBIPAVHardwareBufferPool@Ogre@@@std@@@4@$0A@@std@@@std@@KAAADPAU_Node@?$_Tree_nod@V?$_Tmap_traits@IPAVHardwareBufferPool@Ogre@@U?$less@I@std@@V?$allocator@U?$pair@$$CBIPAVHardwareBufferPool@Ogre@@@std@@@4@$0A@@std@@@2@@Z ENDP ; std::_Tree<std::_Tmap_traits<unsigned int,Ogre::HardwareBufferPool *,std::less<unsigned int>,std::allocator<std::pair<unsigned int const ,Ogre::HardwareBufferPool *> >,0> >::_Isnil
; Function compile flags: /Odtp
_TEXT	ENDS
;	COMDAT ?_Left@?$_Tree@V?$_Tmap_traits@IPAVHardwareBufferPool@Ogre@@U?$less@I@std@@V?$allocator@U?$pair@$$CBIPAVHardwareBufferPool@Ogre@@@std@@@4@$0A@@std@@@std@@KAAAPAU_Node@?$_Tree_nod@V?$_Tmap_traits@IPAVHardwareBufferPool@Ogre@@U?$less@I@std@@V?$allocator@U?$pair@$$CBIPAVHardwareBufferPool@Ogre@@@std@@@4@$0A@@std@@@2@PAU342@@Z
_TEXT	SEGMENT
__Pnode$ = 8						; size = 4
?_Left@?$_Tree@V?$_Tmap_traits@IPAVHardwareBufferPool@Ogre@@U?$less@I@std@@V?$allocator@U?$pair@$$CBIPAVHardwareBufferPool@Ogre@@@std@@@4@$0A@@std@@@std@@KAAAPAU_Node@?$_Tree_nod@V?$_Tmap_traits@IPAVHardwareBufferPool@Ogre@@U?$less@I@std@@V?$allocator@U?$pair@$$CBIPAVHardwareBufferPool@Ogre@@@std@@@4@$0A@@std@@@2@PAU342@@Z PROC ; std::_Tree<std::_Tmap_traits<unsigned int,Ogre::HardwareBufferPool *,std::less<unsigned int>,std::allocator<std::pair<unsigned int const ,Ogre::HardwareBufferPool *> >,0> >::_Left, COMDAT

; 166  : 		{	// return reference to left pointer in node

	push	ebp
	mov	ebp, esp

; 167  : 		return ((_Nodepref)(*_Pnode)._Left);

	mov	eax, DWORD PTR __Pnode$[ebp]

; 168  : 		}

	pop	ebp
	ret	0
?_Left@?$_Tree@V?$_Tmap_traits@IPAVHardwareBufferPool@Ogre@@U?$less@I@std@@V?$allocator@U?$pair@$$CBIPAVHardwareBufferPool@Ogre@@@std@@@4@$0A@@std@@@std@@KAAAPAU_Node@?$_Tree_nod@V?$_Tmap_traits@IPAVHardwareBufferPool@Ogre@@U?$less@I@std@@V?$allocator@U?$pair@$$CBIPAVHardwareBufferPool@Ogre@@@std@@@4@$0A@@std@@@2@PAU342@@Z ENDP ; std::_Tree<std::_Tmap_traits<unsigned int,Ogre::HardwareBufferPool *,std::less<unsigned int>,std::allocator<std::pair<unsigned int const ,Ogre::HardwareBufferPool *> >,0> >::_Left
; Function compile flags: /Odtp
_TEXT	ENDS
;	COMDAT ?_Parent@?$_Tree@V?$_Tmap_traits@IPAVHardwareBufferPool@Ogre@@U?$less@I@std@@V?$allocator@U?$pair@$$CBIPAVHardwareBufferPool@Ogre@@@std@@@4@$0A@@std@@@std@@KAAAPAU_Node@?$_Tree_nod@V?$_Tmap_traits@IPAVHardwareBufferPool@Ogre@@U?$less@I@std@@V?$allocator@U?$pair@$$CBIPAVHardwareBufferPool@Ogre@@@std@@@4@$0A@@std@@@2@PAU342@@Z
_TEXT	SEGMENT
__Pnode$ = 8						; size = 4
?_Parent@?$_Tree@V?$_Tmap_traits@IPAVHardwareBufferPool@Ogre@@U?$less@I@std@@V?$allocator@U?$pair@$$CBIPAVHardwareBufferPool@Ogre@@@std@@@4@$0A@@std@@@std@@KAAAPAU_Node@?$_Tree_nod@V?$_Tmap_traits@IPAVHardwareBufferPool@Ogre@@U?$less@I@std@@V?$allocator@U?$pair@$$CBIPAVHardwareBufferPool@Ogre@@@std@@@4@$0A@@std@@@2@PAU342@@Z PROC ; std::_Tree<std::_Tmap_traits<unsigned int,Ogre::HardwareBufferPool *,std::less<unsigned int>,std::allocator<std::pair<unsigned int const ,Ogre::HardwareBufferPool *> >,0> >::_Parent, COMDAT

; 171  : 		{	// return reference to parent pointer in node

	push	ebp
	mov	ebp, esp

; 172  : 		return ((_Nodepref)(*_Pnode)._Parent);

	mov	eax, DWORD PTR __Pnode$[ebp]
	add	eax, 4

; 173  : 		}

	pop	ebp
	ret	0
?_Parent@?$_Tree@V?$_Tmap_traits@IPAVHardwareBufferPool@Ogre@@U?$less@I@std@@V?$allocator@U?$pair@$$CBIPAVHardwareBufferPool@Ogre@@@std@@@4@$0A@@std@@@std@@KAAAPAU_Node@?$_Tree_nod@V?$_Tmap_traits@IPAVHardwareBufferPool@Ogre@@U?$less@I@std@@V?$allocator@U?$pair@$$CBIPAVHardwareBufferPool@Ogre@@@std@@@4@$0A@@std@@@2@PAU342@@Z ENDP ; std::_Tree<std::_Tmap_traits<unsigned int,Ogre::HardwareBufferPool *,std::less<unsigned int>,std::allocator<std::pair<unsigned int const ,Ogre::HardwareBufferPool *> >,0> >::_Parent
; Function compile flags: /Odtp
_TEXT	ENDS
;	COMDAT ?_Right@?$_Tree@V?$_Tmap_traits@IPAVHardwareBufferPool@Ogre@@U?$less@I@std@@V?$allocator@U?$pair@$$CBIPAVHardwareBufferPool@Ogre@@@std@@@4@$0A@@std@@@std@@KAAAPAU_Node@?$_Tree_nod@V?$_Tmap_traits@IPAVHardwareBufferPool@Ogre@@U?$less@I@std@@V?$allocator@U?$pair@$$CBIPAVHardwareBufferPool@Ogre@@@std@@@4@$0A@@std@@@2@PAU342@@Z
_TEXT	SEGMENT
__Pnode$ = 8						; size = 4
?_Right@?$_Tree@V?$_Tmap_traits@IPAVHardwareBufferPool@Ogre@@U?$less@I@std@@V?$allocator@U?$pair@$$CBIPAVHardwareBufferPool@Ogre@@@std@@@4@$0A@@std@@@std@@KAAAPAU_Node@?$_Tree_nod@V?$_Tmap_traits@IPAVHardwareBufferPool@Ogre@@U?$less@I@std@@V?$allocator@U?$pair@$$CBIPAVHardwareBufferPool@Ogre@@@std@@@4@$0A@@std@@@2@PAU342@@Z PROC ; std::_Tree<std::_Tmap_traits<unsigned int,Ogre::HardwareBufferPool *,std::less<unsigned int>,std::allocator<std::pair<unsigned int const ,Ogre::HardwareBufferPool *> >,0> >::_Right, COMDAT

; 176  : 		{	// return reference to right pointer in node

	push	ebp
	mov	ebp, esp

; 177  : 		return ((_Nodepref)(*_Pnode)._Right);

	mov	eax, DWORD PTR __Pnode$[ebp]
	add	eax, 8

; 178  : 		}

	pop	ebp
	ret	0
?_Right@?$_Tree@V?$_Tmap_traits@IPAVHardwareBufferPool@Ogre@@U?$less@I@std@@V?$allocator@U?$pair@$$CBIPAVHardwareBufferPool@Ogre@@@std@@@4@$0A@@std@@@std@@KAAAPAU_Node@?$_Tree_nod@V?$_Tmap_traits@IPAVHardwareBufferPool@Ogre@@U?$less@I@std@@V?$allocator@U?$pair@$$CBIPAVHardwareBufferPool@Ogre@@@std@@@4@$0A@@std@@@2@PAU342@@Z ENDP ; std::_Tree<std::_Tmap_traits<unsigned int,Ogre::HardwareBufferPool *,std::less<unsigned int>,std::allocator<std::pair<unsigned int const ,Ogre::HardwareBufferPool *> >,0> >::_Right
; Function compile flags: /Odtp
_TEXT	ENDS
;	COMDAT ?_Myval@?$_Tree@V?$_Tmap_traits@IPAVHardwareBufferPool@Ogre@@U?$less@I@std@@V?$allocator@U?$pair@$$CBIPAVHardwareBufferPool@Ogre@@@std@@@4@$0A@@std@@@std@@KAAAU?$pair@$$CBIPAVHardwareBufferPool@Ogre@@@2@PAU_Node@?$_Tree_nod@V?$_Tmap_traits@IPAVHardwareBufferPool@Ogre@@U?$less@I@std@@V?$allocator@U?$pair@$$CBIPAVHardwareBufferPool@Ogre@@@std@@@4@$0A@@std@@@2@@Z
_TEXT	SEGMENT
__Pnode$ = 8						; size = 4
?_Myval@?$_Tree@V?$_Tmap_traits@IPAVHardwareBufferPool@Ogre@@U?$less@I@std@@V?$allocator@U?$pair@$$CBIPAVHardwareBufferPool@Ogre@@@std@@@4@$0A@@std@@@std@@KAAAU?$pair@$$CBIPAVHardwareBufferPool@Ogre@@@2@PAU_Node@?$_Tree_nod@V?$_Tmap_traits@IPAVHardwareBufferPool@Ogre@@U?$less@I@std@@V?$allocator@U?$pair@$$CBIPAVHardwareBufferPool@Ogre@@@std@@@4@$0A@@std@@@2@@Z PROC ; std::_Tree<std::_Tmap_traits<unsigned int,Ogre::HardwareBufferPool *,std::less<unsigned int>,std::allocator<std::pair<unsigned int const ,Ogre::HardwareBufferPool *> >,0> >::_Myval, COMDAT

; 181  : 		{	// return reference to value in node

	push	ebp
	mov	ebp, esp

; 182  : 		return ((_Vref)(*_Pnode)._Myval);

	mov	eax, DWORD PTR __Pnode$[ebp]
	add	eax, 12					; 0000000cH

; 183  : 		}

	pop	ebp
	ret	0
?_Myval@?$_Tree@V?$_Tmap_traits@IPAVHardwareBufferPool@Ogre@@U?$less@I@std@@V?$allocator@U?$pair@$$CBIPAVHardwareBufferPool@Ogre@@@std@@@4@$0A@@std@@@std@@KAAAU?$pair@$$CBIPAVHardwareBufferPool@Ogre@@@2@PAU_Node@?$_Tree_nod@V?$_Tmap_traits@IPAVHardwareBufferPool@Ogre@@U?$less@I@std@@V?$allocator@U?$pair@$$CBIPAVHardwareBufferPool@Ogre@@@std@@@4@$0A@@std@@@2@@Z ENDP ; std::_Tree<std::_Tmap_traits<unsigned int,Ogre::HardwareBufferPool *,std::less<unsigned int>,std::allocator<std::pair<unsigned int const ,Ogre::HardwareBufferPool *> >,0> >::_Myval
; Function compile flags: /Odtp
_TEXT	ENDS
;	COMDAT ?_Make_iter@?$_Tree@V?$_Tmap_traits@IPAVHardwareBufferPool@Ogre@@U?$less@I@std@@V?$allocator@U?$pair@$$CBIPAVHardwareBufferPool@Ogre@@@std@@@4@$0A@@std@@@std@@QBE?AViterator@12@Vconst_iterator@12@@Z
_TEXT	SEGMENT
_this$ = -12						; size = 4
$T64258 = -8						; size = 8
___$ReturnUdt$ = 8					; size = 4
__Where$ = 12						; size = 8
?_Make_iter@?$_Tree@V?$_Tmap_traits@IPAVHardwareBufferPool@Ogre@@U?$less@I@std@@V?$allocator@U?$pair@$$CBIPAVHardwareBufferPool@Ogre@@@std@@@4@$0A@@std@@@std@@QBE?AViterator@12@Vconst_iterator@12@@Z PROC ; std::_Tree<std::_Tmap_traits<unsigned int,Ogre::HardwareBufferPool *,std::less<unsigned int>,std::allocator<std::pair<unsigned int const ,Ogre::HardwareBufferPool *> >,0> >::_Make_iter, COMDAT
; _this$ = ecx

; 575  : 		{	// make iterator from const_iterator

	push	ebp
	mov	ebp, esp
	sub	esp, 12					; 0000000cH
	mov	DWORD PTR _this$[ebp], ecx

; 576  : 		return (iterator(_TREE_ITERATOR(_Where._Ptr)));

	mov	eax, DWORD PTR _this$[ebp]
	push	eax
	mov	ecx, DWORD PTR __Where$[ebp+4]
	push	ecx
	lea	ecx, DWORD PTR $T64258[ebp]
	call	??0iterator@?$_Tree@V?$_Tmap_traits@IPAVHardwareBufferPool@Ogre@@U?$less@I@std@@V?$allocator@U?$pair@$$CBIPAVHardwareBufferPool@Ogre@@@std@@@4@$0A@@std@@@std@@QAE@PAU_Node@?$_Tree_nod@V?$_Tmap_traits@IPAVHardwareBufferPool@Ogre@@U?$less@I@std@@V?$allocator@U?$pair@$$CBIPAVHardwareBufferPool@Ogre@@@std@@@4@$0A@@std@@@2@PBV12@@Z ; std::_Tree<std::_Tmap_traits<unsigned int,Ogre::HardwareBufferPool *,std::less<unsigned int>,std::allocator<std::pair<unsigned int const ,Ogre::HardwareBufferPool *> >,0> >::iterator::iterator
	mov	edx, DWORD PTR [eax]
	mov	eax, DWORD PTR [eax+4]
	mov	ecx, DWORD PTR ___$ReturnUdt$[ebp]
	mov	DWORD PTR [ecx], edx
	mov	DWORD PTR [ecx+4], eax
	mov	eax, DWORD PTR ___$ReturnUdt$[ebp]

; 577  : 		}

	mov	esp, ebp
	pop	ebp
	ret	12					; 0000000cH
?_Make_iter@?$_Tree@V?$_Tmap_traits@IPAVHardwareBufferPool@Ogre@@U?$less@I@std@@V?$allocator@U?$pair@$$CBIPAVHardwareBufferPool@Ogre@@@std@@@4@$0A@@std@@@std@@QBE?AViterator@12@Vconst_iterator@12@@Z ENDP ; std::_Tree<std::_Tmap_traits<unsigned int,Ogre::HardwareBufferPool *,std::less<unsigned int>,std::allocator<std::pair<unsigned int const ,Ogre::HardwareBufferPool *> >,0> >::_Make_iter
; Function compile flags: /Odtp
_TEXT	ENDS
;	COMDAT ?size@?$_Tree@V?$_Tmap_traits@IPAVHardwareBufferPool@Ogre@@U?$less@I@std@@V?$allocator@U?$pair@$$CBIPAVHardwareBufferPool@Ogre@@@std@@@4@$0A@@std@@@std@@QBEIXZ
_TEXT	SEGMENT
_this$ = -4						; size = 4
?size@?$_Tree@V?$_Tmap_traits@IPAVHardwareBufferPool@Ogre@@U?$less@I@std@@V?$allocator@U?$pair@$$CBIPAVHardwareBufferPool@Ogre@@@std@@@4@$0A@@std@@@std@@QBEIXZ PROC ; std::_Tree<std::_Tmap_traits<unsigned int,Ogre::HardwareBufferPool *,std::less<unsigned int>,std::allocator<std::pair<unsigned int const ,Ogre::HardwareBufferPool *> >,0> >::size, COMDAT
; _this$ = ecx

; 600  : 		{	// return length of sequence

	push	ebp
	mov	ebp, esp
	push	ecx
	mov	DWORD PTR _this$[ebp], ecx

; 601  : 		return (_Mysize);

	mov	eax, DWORD PTR _this$[ebp]
	mov	eax, DWORD PTR [eax+28]

; 602  : 		}

	mov	esp, ebp
	pop	ebp
	ret	0
?size@?$_Tree@V?$_Tmap_traits@IPAVHardwareBufferPool@Ogre@@U?$less@I@std@@V?$allocator@U?$pair@$$CBIPAVHardwareBufferPool@Ogre@@@std@@@4@$0A@@std@@@std@@QBEIXZ ENDP ; std::_Tree<std::_Tmap_traits<unsigned int,Ogre::HardwareBufferPool *,std::less<unsigned int>,std::allocator<std::pair<unsigned int const ,Ogre::HardwareBufferPool *> >,0> >::size
_TEXT	ENDS
PUBLIC	??Fiterator@?$_Tree@V?$_Tmap_traits@IPAVHardwareBufferPool@Ogre@@U?$less@I@std@@V?$allocator@U?$pair@$$CBIPAVHardwareBufferPool@Ogre@@@std@@@4@$0A@@std@@@std@@QAEAAV012@XZ ; std::_Tree<std::_Tmap_traits<unsigned int,Ogre::HardwareBufferPool *,std::less<unsigned int>,std::allocator<std::pair<unsigned int const ,Ogre::HardwareBufferPool *> >,0> >::iterator::operator--
PUBLIC	??0?$pair@Viterator@?$_Tree@V?$_Tmap_traits@IPAVHardwareBufferPool@Ogre@@U?$less@I@std@@V?$allocator@U?$pair@$$CBIPAVHardwareBufferPool@Ogre@@@std@@@4@$0A@@std@@@std@@_N@std@@QAE@ABViterator@?$_Tree@V?$_Tmap_traits@IPAVHardwareBufferPool@Ogre@@U?$less@I@std@@V?$allocator@U?$pair@$$CBIPAVHardwareBufferPool@Ogre@@@std@@@4@$0A@@std@@@1@AB_N@Z ; std::pair<std::_Tree<std::_Tmap_traits<unsigned int,Ogre::HardwareBufferPool *,std::less<unsigned int>,std::allocator<std::pair<unsigned int const ,Ogre::HardwareBufferPool *> >,0> >::iterator,bool>::pair<std::_Tree<std::_Tmap_traits<unsigned int,Ogre::HardwareBufferPool *,std::less<unsigned int>,std::allocator<std::pair<unsigned int const ,Ogre::HardwareBufferPool *> >,0> >::iterator,bool>
; Function compile flags: /Odtp
;	COMDAT ?insert@?$_Tree@V?$_Tmap_traits@IPAVHardwareBufferPool@Ogre@@U?$less@I@std@@V?$allocator@U?$pair@$$CBIPAVHardwareBufferPool@Ogre@@@std@@@4@$0A@@std@@@std@@QAE?AU?$pair@Viterator@?$_Tree@V?$_Tmap_traits@IPAVHardwareBufferPool@Ogre@@U?$less@I@std@@V?$allocator@U?$pair@$$CBIPAVHardwareBufferPool@Ogre@@@std@@@4@$0A@@std@@@std@@_N@2@ABU?$pair@$$CBIPAVHardwareBufferPool@Ogre@@@2@@Z
_TEXT	SEGMENT
tv90 = -76						; size = 4
_this$ = -72						; size = 4
$T64272 = -65						; size = 1
$T64271 = -64						; size = 8
$T64270 = -53						; size = 1
$T64269 = -52						; size = 8
$T64268 = -41						; size = 1
$T64267 = -40						; size = 8
$T64266 = -32						; size = 8
$T64265 = -21						; size = 1
__Where$60929 = -20					; size = 8
__Trynode$ = -12					; size = 4
__Wherenode$ = -8					; size = 4
__Addleft$ = -1						; size = 1
___$ReturnUdt$ = 8					; size = 4
__Val$ = 12						; size = 4
?insert@?$_Tree@V?$_Tmap_traits@IPAVHardwareBufferPool@Ogre@@U?$less@I@std@@V?$allocator@U?$pair@$$CBIPAVHardwareBufferPool@Ogre@@@std@@@4@$0A@@std@@@std@@QAE?AU?$pair@Viterator@?$_Tree@V?$_Tmap_traits@IPAVHardwareBufferPool@Ogre@@U?$less@I@std@@V?$allocator@U?$pair@$$CBIPAVHardwareBufferPool@Ogre@@@std@@@4@$0A@@std@@@std@@_N@2@ABU?$pair@$$CBIPAVHardwareBufferPool@Ogre@@@2@@Z PROC ; std::_Tree<std::_Tmap_traits<unsigned int,Ogre::HardwareBufferPool *,std::less<unsigned int>,std::allocator<std::pair<unsigned int const ,Ogre::HardwareBufferPool *> >,0> >::insert, COMDAT
; _this$ = ecx

; 630  : 		{	// try to insert node with value _Val

	push	ebp
	mov	ebp, esp
	sub	esp, 76					; 0000004cH
	mov	DWORD PTR _this$[ebp], ecx

; 631  : 		_Nodeptr _Trynode = _Root();

	mov	ecx, DWORD PTR _this$[ebp]
	call	?_Root@?$_Tree@V?$_Tmap_traits@IPAVHardwareBufferPool@Ogre@@U?$less@I@std@@V?$allocator@U?$pair@$$CBIPAVHardwareBufferPool@Ogre@@@std@@@4@$0A@@std@@@std@@IBEAAPAU_Node@?$_Tree_nod@V?$_Tmap_traits@IPAVHardwareBufferPool@Ogre@@U?$less@I@std@@V?$allocator@U?$pair@$$CBIPAVHardwareBufferPool@Ogre@@@std@@@4@$0A@@std@@@2@XZ ; std::_Tree<std::_Tmap_traits<unsigned int,Ogre::HardwareBufferPool *,std::less<unsigned int>,std::allocator<std::pair<unsigned int const ,Ogre::HardwareBufferPool *> >,0> >::_Root
	mov	eax, DWORD PTR [eax]
	mov	DWORD PTR __Trynode$[ebp], eax

; 632  : 		_Nodeptr _Wherenode = _Myhead;

	mov	ecx, DWORD PTR _this$[ebp]
	mov	edx, DWORD PTR [ecx+24]
	mov	DWORD PTR __Wherenode$[ebp], edx

; 633  : 		bool _Addleft = true;	// add to left of head if tree empty

	mov	BYTE PTR __Addleft$[ebp], 1
$LN10@insert@2:

; 634  : 		while (!_Isnil(_Trynode))

	mov	eax, DWORD PTR __Trynode$[ebp]
	push	eax
	call	?_Isnil@?$_Tree@V?$_Tmap_traits@IPAVHardwareBufferPool@Ogre@@U?$less@I@std@@V?$allocator@U?$pair@$$CBIPAVHardwareBufferPool@Ogre@@@std@@@4@$0A@@std@@@std@@KAAADPAU_Node@?$_Tree_nod@V?$_Tmap_traits@IPAVHardwareBufferPool@Ogre@@U?$less@I@std@@V?$allocator@U?$pair@$$CBIPAVHardwareBufferPool@Ogre@@@std@@@4@$0A@@std@@@2@@Z ; std::_Tree<std::_Tmap_traits<unsigned int,Ogre::HardwareBufferPool *,std::less<unsigned int>,std::allocator<std::pair<unsigned int const ,Ogre::HardwareBufferPool *> >,0> >::_Isnil
	add	esp, 4
	movsx	ecx, BYTE PTR [eax]
	test	ecx, ecx
	jne	SHORT $LN9@insert@2

; 635  : 			{	// look for leaf to insert before (_Addleft) or after
; 636  : 			_Wherenode = _Trynode;

	mov	edx, DWORD PTR __Trynode$[ebp]
	mov	DWORD PTR __Wherenode$[ebp], edx

; 637  : 			_Addleft = _DEBUG_LT_PRED(this->comp,

	mov	eax, DWORD PTR __Trynode$[ebp]
	push	eax
	call	?_Key@?$_Tree@V?$_Tmap_traits@IPAVHardwareBufferPool@Ogre@@U?$less@I@std@@V?$allocator@U?$pair@$$CBIPAVHardwareBufferPool@Ogre@@@std@@@4@$0A@@std@@@std@@KAABIPAU_Node@?$_Tree_nod@V?$_Tmap_traits@IPAVHardwareBufferPool@Ogre@@U?$less@I@std@@V?$allocator@U?$pair@$$CBIPAVHardwareBufferPool@Ogre@@@std@@@4@$0A@@std@@@2@@Z ; std::_Tree<std::_Tmap_traits<unsigned int,Ogre::HardwareBufferPool *,std::less<unsigned int>,std::allocator<std::pair<unsigned int const ,Ogre::HardwareBufferPool *> >,0> >::_Key
	add	esp, 4
	push	eax
	mov	ecx, DWORD PTR __Val$[ebp]
	push	ecx
	call	?_Kfn@?$_Tmap_traits@IPAVHardwareBufferPool@Ogre@@U?$less@I@std@@V?$allocator@U?$pair@$$CBIPAVHardwareBufferPool@Ogre@@@std@@@4@$0A@@std@@SAABIABU?$pair@$$CBIPAVHardwareBufferPool@Ogre@@@2@@Z ; std::_Tmap_traits<unsigned int,Ogre::HardwareBufferPool *,std::less<unsigned int>,std::allocator<std::pair<unsigned int const ,Ogre::HardwareBufferPool *> >,0>::_Kfn
	add	esp, 4
	push	eax
	mov	ecx, DWORD PTR _this$[ebp]
	add	ecx, 8
	call	??R?$less@I@std@@QBE_NABI0@Z		; std::less<unsigned int>::operator()
	mov	BYTE PTR __Addleft$[ebp], al

; 638  : 				this->_Kfn(_Val), _Key(_Trynode));
; 639  : 			_Trynode = _Addleft ? _Left(_Trynode) : _Right(_Trynode);

	movzx	edx, BYTE PTR __Addleft$[ebp]
	test	edx, edx
	je	SHORT $LN13@insert@2
	mov	eax, DWORD PTR __Trynode$[ebp]
	push	eax
	call	?_Left@?$_Tree@V?$_Tmap_traits@IPAVHardwareBufferPool@Ogre@@U?$less@I@std@@V?$allocator@U?$pair@$$CBIPAVHardwareBufferPool@Ogre@@@std@@@4@$0A@@std@@@std@@KAAAPAU_Node@?$_Tree_nod@V?$_Tmap_traits@IPAVHardwareBufferPool@Ogre@@U?$less@I@std@@V?$allocator@U?$pair@$$CBIPAVHardwareBufferPool@Ogre@@@std@@@4@$0A@@std@@@2@PAU342@@Z ; std::_Tree<std::_Tmap_traits<unsigned int,Ogre::HardwareBufferPool *,std::less<unsigned int>,std::allocator<std::pair<unsigned int const ,Ogre::HardwareBufferPool *> >,0> >::_Left
	add	esp, 4
	mov	ecx, DWORD PTR [eax]
	mov	DWORD PTR tv90[ebp], ecx
	jmp	SHORT $LN14@insert@2
$LN13@insert@2:
	mov	edx, DWORD PTR __Trynode$[ebp]
	push	edx
	call	?_Right@?$_Tree@V?$_Tmap_traits@IPAVHardwareBufferPool@Ogre@@U?$less@I@std@@V?$allocator@U?$pair@$$CBIPAVHardwareBufferPool@Ogre@@@std@@@4@$0A@@std@@@std@@KAAAPAU_Node@?$_Tree_nod@V?$_Tmap_traits@IPAVHardwareBufferPool@Ogre@@U?$less@I@std@@V?$allocator@U?$pair@$$CBIPAVHardwareBufferPool@Ogre@@@std@@@4@$0A@@std@@@2@PAU342@@Z ; std::_Tree<std::_Tmap_traits<unsigned int,Ogre::HardwareBufferPool *,std::less<unsigned int>,std::allocator<std::pair<unsigned int const ,Ogre::HardwareBufferPool *> >,0> >::_Right
	add	esp, 4
	mov	eax, DWORD PTR [eax]
	mov	DWORD PTR tv90[ebp], eax
$LN14@insert@2:
	mov	ecx, DWORD PTR tv90[ebp]
	mov	DWORD PTR __Trynode$[ebp], ecx

; 640  : 			}

	jmp	SHORT $LN10@insert@2
$LN9@insert@2:

; 641  : 
; 642  : 		if (this->_Multi)

	xor	edx, edx
	je	SHORT $LN8@insert@2

; 643  : 			return (_Pairib(_Insert(_Addleft, _Wherenode, _Val), true));

	mov	BYTE PTR $T64265[ebp], 1
	lea	eax, DWORD PTR $T64265[ebp]
	push	eax
	mov	ecx, DWORD PTR __Val$[ebp]
	push	ecx
	mov	edx, DWORD PTR __Wherenode$[ebp]
	push	edx
	movzx	eax, BYTE PTR __Addleft$[ebp]
	push	eax
	lea	ecx, DWORD PTR $T64266[ebp]
	push	ecx
	mov	ecx, DWORD PTR _this$[ebp]
	call	?_Insert@?$_Tree@V?$_Tmap_traits@IPAVHardwareBufferPool@Ogre@@U?$less@I@std@@V?$allocator@U?$pair@$$CBIPAVHardwareBufferPool@Ogre@@@std@@@4@$0A@@std@@@std@@IAE?AViterator@12@_NPAU_Node@?$_Tree_nod@V?$_Tmap_traits@IPAVHardwareBufferPool@Ogre@@U?$less@I@std@@V?$allocator@U?$pair@$$CBIPAVHardwareBufferPool@Ogre@@@std@@@4@$0A@@std@@@2@ABU?$pair@$$CBIPAVHardwareBufferPool@Ogre@@@2@@Z ; std::_Tree<std::_Tmap_traits<unsigned int,Ogre::HardwareBufferPool *,std::less<unsigned int>,std::allocator<std::pair<unsigned int const ,Ogre::HardwareBufferPool *> >,0> >::_Insert
	push	eax
	mov	ecx, DWORD PTR ___$ReturnUdt$[ebp]
	call	??0?$pair@Viterator@?$_Tree@V?$_Tmap_traits@IPAVHardwareBufferPool@Ogre@@U?$less@I@std@@V?$allocator@U?$pair@$$CBIPAVHardwareBufferPool@Ogre@@@std@@@4@$0A@@std@@@std@@_N@std@@QAE@ABViterator@?$_Tree@V?$_Tmap_traits@IPAVHardwareBufferPool@Ogre@@U?$less@I@std@@V?$allocator@U?$pair@$$CBIPAVHardwareBufferPool@Ogre@@@std@@@4@$0A@@std@@@1@AB_N@Z ; std::pair<std::_Tree<std::_Tmap_traits<unsigned int,Ogre::HardwareBufferPool *,std::less<unsigned int>,std::allocator<std::pair<unsigned int const ,Ogre::HardwareBufferPool *> >,0> >::iterator,bool>::pair<std::_Tree<std::_Tmap_traits<unsigned int,Ogre::HardwareBufferPool *,std::less<unsigned int>,std::allocator<std::pair<unsigned int const ,Ogre::HardwareBufferPool *> >,0> >::iterator,bool>
	mov	eax, DWORD PTR ___$ReturnUdt$[ebp]
	jmp	$LN11@insert@2

; 644  : 		else

	jmp	$LN11@insert@2
$LN8@insert@2:

; 645  : 			{	// insert only if unique
; 646  : 			iterator _Where = _TREE_ITERATOR(_Wherenode);

	mov	edx, DWORD PTR _this$[ebp]
	push	edx
	mov	eax, DWORD PTR __Wherenode$[ebp]
	push	eax
	lea	ecx, DWORD PTR __Where$60929[ebp]
	call	??0iterator@?$_Tree@V?$_Tmap_traits@IPAVHardwareBufferPool@Ogre@@U?$less@I@std@@V?$allocator@U?$pair@$$CBIPAVHardwareBufferPool@Ogre@@@std@@@4@$0A@@std@@@std@@QAE@PAU_Node@?$_Tree_nod@V?$_Tmap_traits@IPAVHardwareBufferPool@Ogre@@U?$less@I@std@@V?$allocator@U?$pair@$$CBIPAVHardwareBufferPool@Ogre@@@std@@@4@$0A@@std@@@2@PBV12@@Z ; std::_Tree<std::_Tmap_traits<unsigned int,Ogre::HardwareBufferPool *,std::less<unsigned int>,std::allocator<std::pair<unsigned int const ,Ogre::HardwareBufferPool *> >,0> >::iterator::iterator

; 647  : 			if (!_Addleft)

	movzx	ecx, BYTE PTR __Addleft$[ebp]
	test	ecx, ecx
	jne	SHORT $LN6@insert@2
	jmp	SHORT $LN5@insert@2
$LN6@insert@2:

; 648  : 				;	// need to test if insert after is okay
; 649  : 			else if (_Where == begin())

	lea	edx, DWORD PTR $T64267[ebp]
	push	edx
	mov	ecx, DWORD PTR _this$[ebp]
	call	?begin@?$_Tree@V?$_Tmap_traits@IPAVHardwareBufferPool@Ogre@@U?$less@I@std@@V?$allocator@U?$pair@$$CBIPAVHardwareBufferPool@Ogre@@@std@@@4@$0A@@std@@@std@@QAE?AViterator@12@XZ ; std::_Tree<std::_Tmap_traits<unsigned int,Ogre::HardwareBufferPool *,std::less<unsigned int>,std::allocator<std::pair<unsigned int const ,Ogre::HardwareBufferPool *> >,0> >::begin
	push	eax
	lea	ecx, DWORD PTR __Where$60929[ebp]
	call	??8const_iterator@?$_Tree@V?$_Tmap_traits@IPAVHardwareBufferPool@Ogre@@U?$less@I@std@@V?$allocator@U?$pair@$$CBIPAVHardwareBufferPool@Ogre@@@std@@@4@$0A@@std@@@std@@QBE_NABV012@@Z ; std::_Tree<std::_Tmap_traits<unsigned int,Ogre::HardwareBufferPool *,std::less<unsigned int>,std::allocator<std::pair<unsigned int const ,Ogre::HardwareBufferPool *> >,0> >::const_iterator::operator==
	movzx	eax, al
	test	eax, eax
	je	SHORT $LN4@insert@2

; 650  : 				return (_Pairib(_Insert(true, _Wherenode, _Val), true));

	mov	BYTE PTR $T64268[ebp], 1
	lea	ecx, DWORD PTR $T64268[ebp]
	push	ecx
	mov	edx, DWORD PTR __Val$[ebp]
	push	edx
	mov	eax, DWORD PTR __Wherenode$[ebp]
	push	eax
	push	1
	lea	ecx, DWORD PTR $T64269[ebp]
	push	ecx
	mov	ecx, DWORD PTR _this$[ebp]
	call	?_Insert@?$_Tree@V?$_Tmap_traits@IPAVHardwareBufferPool@Ogre@@U?$less@I@std@@V?$allocator@U?$pair@$$CBIPAVHardwareBufferPool@Ogre@@@std@@@4@$0A@@std@@@std@@IAE?AViterator@12@_NPAU_Node@?$_Tree_nod@V?$_Tmap_traits@IPAVHardwareBufferPool@Ogre@@U?$less@I@std@@V?$allocator@U?$pair@$$CBIPAVHardwareBufferPool@Ogre@@@std@@@4@$0A@@std@@@2@ABU?$pair@$$CBIPAVHardwareBufferPool@Ogre@@@2@@Z ; std::_Tree<std::_Tmap_traits<unsigned int,Ogre::HardwareBufferPool *,std::less<unsigned int>,std::allocator<std::pair<unsigned int const ,Ogre::HardwareBufferPool *> >,0> >::_Insert
	push	eax
	mov	ecx, DWORD PTR ___$ReturnUdt$[ebp]
	call	??0?$pair@Viterator@?$_Tree@V?$_Tmap_traits@IPAVHardwareBufferPool@Ogre@@U?$less@I@std@@V?$allocator@U?$pair@$$CBIPAVHardwareBufferPool@Ogre@@@std@@@4@$0A@@std@@@std@@_N@std@@QAE@ABViterator@?$_Tree@V?$_Tmap_traits@IPAVHardwareBufferPool@Ogre@@U?$less@I@std@@V?$allocator@U?$pair@$$CBIPAVHardwareBufferPool@Ogre@@@std@@@4@$0A@@std@@@1@AB_N@Z ; std::pair<std::_Tree<std::_Tmap_traits<unsigned int,Ogre::HardwareBufferPool *,std::less<unsigned int>,std::allocator<std::pair<unsigned int const ,Ogre::HardwareBufferPool *> >,0> >::iterator,bool>::pair<std::_Tree<std::_Tmap_traits<unsigned int,Ogre::HardwareBufferPool *,std::less<unsigned int>,std::allocator<std::pair<unsigned int const ,Ogre::HardwareBufferPool *> >,0> >::iterator,bool>
	mov	eax, DWORD PTR ___$ReturnUdt$[ebp]
	jmp	$LN11@insert@2

; 651  : 			else

	jmp	SHORT $LN5@insert@2
$LN4@insert@2:

; 652  : 				--_Where;	// need to test if insert before is okay

	lea	ecx, DWORD PTR __Where$60929[ebp]
	call	??Fiterator@?$_Tree@V?$_Tmap_traits@IPAVHardwareBufferPool@Ogre@@U?$less@I@std@@V?$allocator@U?$pair@$$CBIPAVHardwareBufferPool@Ogre@@@std@@@4@$0A@@std@@@std@@QAEAAV012@XZ ; std::_Tree<std::_Tmap_traits<unsigned int,Ogre::HardwareBufferPool *,std::less<unsigned int>,std::allocator<std::pair<unsigned int const ,Ogre::HardwareBufferPool *> >,0> >::iterator::operator--
$LN5@insert@2:

; 653  : 
; 654  : 			if (_DEBUG_LT_PRED(this->comp,

	mov	edx, DWORD PTR __Val$[ebp]
	push	edx
	call	?_Kfn@?$_Tmap_traits@IPAVHardwareBufferPool@Ogre@@U?$less@I@std@@V?$allocator@U?$pair@$$CBIPAVHardwareBufferPool@Ogre@@@std@@@4@$0A@@std@@SAABIABU?$pair@$$CBIPAVHardwareBufferPool@Ogre@@@2@@Z ; std::_Tmap_traits<unsigned int,Ogre::HardwareBufferPool *,std::less<unsigned int>,std::allocator<std::pair<unsigned int const ,Ogre::HardwareBufferPool *> >,0>::_Kfn
	add	esp, 4
	push	eax
	lea	ecx, DWORD PTR __Where$60929[ebp]
	call	?_Mynode@const_iterator@?$_Tree@V?$_Tmap_traits@IPAVHardwareBufferPool@Ogre@@U?$less@I@std@@V?$allocator@U?$pair@$$CBIPAVHardwareBufferPool@Ogre@@@std@@@4@$0A@@std@@@std@@QBEPAU_Node@?$_Tree_nod@V?$_Tmap_traits@IPAVHardwareBufferPool@Ogre@@U?$less@I@std@@V?$allocator@U?$pair@$$CBIPAVHardwareBufferPool@Ogre@@@std@@@4@$0A@@std@@@3@XZ ; std::_Tree<std::_Tmap_traits<unsigned int,Ogre::HardwareBufferPool *,std::less<unsigned int>,std::allocator<std::pair<unsigned int const ,Ogre::HardwareBufferPool *> >,0> >::const_iterator::_Mynode
	push	eax
	call	?_Key@?$_Tree@V?$_Tmap_traits@IPAVHardwareBufferPool@Ogre@@U?$less@I@std@@V?$allocator@U?$pair@$$CBIPAVHardwareBufferPool@Ogre@@@std@@@4@$0A@@std@@@std@@KAABIPAU_Node@?$_Tree_nod@V?$_Tmap_traits@IPAVHardwareBufferPool@Ogre@@U?$less@I@std@@V?$allocator@U?$pair@$$CBIPAVHardwareBufferPool@Ogre@@@std@@@4@$0A@@std@@@2@@Z ; std::_Tree<std::_Tmap_traits<unsigned int,Ogre::HardwareBufferPool *,std::less<unsigned int>,std::allocator<std::pair<unsigned int const ,Ogre::HardwareBufferPool *> >,0> >::_Key
	add	esp, 4
	push	eax
	mov	ecx, DWORD PTR _this$[ebp]
	add	ecx, 8
	call	??R?$less@I@std@@QBE_NABI0@Z		; std::less<unsigned int>::operator()
	movzx	eax, al
	test	eax, eax
	je	SHORT $LN2@insert@2

; 655  : 				_Key(_Where._Mynode()), this->_Kfn(_Val)))
; 656  : 				return (_Pairib(_Insert(_Addleft, _Wherenode, _Val), true));

	mov	BYTE PTR $T64270[ebp], 1
	lea	ecx, DWORD PTR $T64270[ebp]
	push	ecx
	mov	edx, DWORD PTR __Val$[ebp]
	push	edx
	mov	eax, DWORD PTR __Wherenode$[ebp]
	push	eax
	movzx	ecx, BYTE PTR __Addleft$[ebp]
	push	ecx
	lea	edx, DWORD PTR $T64271[ebp]
	push	edx
	mov	ecx, DWORD PTR _this$[ebp]
	call	?_Insert@?$_Tree@V?$_Tmap_traits@IPAVHardwareBufferPool@Ogre@@U?$less@I@std@@V?$allocator@U?$pair@$$CBIPAVHardwareBufferPool@Ogre@@@std@@@4@$0A@@std@@@std@@IAE?AViterator@12@_NPAU_Node@?$_Tree_nod@V?$_Tmap_traits@IPAVHardwareBufferPool@Ogre@@U?$less@I@std@@V?$allocator@U?$pair@$$CBIPAVHardwareBufferPool@Ogre@@@std@@@4@$0A@@std@@@2@ABU?$pair@$$CBIPAVHardwareBufferPool@Ogre@@@2@@Z ; std::_Tree<std::_Tmap_traits<unsigned int,Ogre::HardwareBufferPool *,std::less<unsigned int>,std::allocator<std::pair<unsigned int const ,Ogre::HardwareBufferPool *> >,0> >::_Insert
	push	eax
	mov	ecx, DWORD PTR ___$ReturnUdt$[ebp]
	call	??0?$pair@Viterator@?$_Tree@V?$_Tmap_traits@IPAVHardwareBufferPool@Ogre@@U?$less@I@std@@V?$allocator@U?$pair@$$CBIPAVHardwareBufferPool@Ogre@@@std@@@4@$0A@@std@@@std@@_N@std@@QAE@ABViterator@?$_Tree@V?$_Tmap_traits@IPAVHardwareBufferPool@Ogre@@U?$less@I@std@@V?$allocator@U?$pair@$$CBIPAVHardwareBufferPool@Ogre@@@std@@@4@$0A@@std@@@1@AB_N@Z ; std::pair<std::_Tree<std::_Tmap_traits<unsigned int,Ogre::HardwareBufferPool *,std::less<unsigned int>,std::allocator<std::pair<unsigned int const ,Ogre::HardwareBufferPool *> >,0> >::iterator,bool>::pair<std::_Tree<std::_Tmap_traits<unsigned int,Ogre::HardwareBufferPool *,std::less<unsigned int>,std::allocator<std::pair<unsigned int const ,Ogre::HardwareBufferPool *> >,0> >::iterator,bool>
	mov	eax, DWORD PTR ___$ReturnUdt$[ebp]
	jmp	SHORT $LN11@insert@2

; 657  : 			else

	jmp	SHORT $LN11@insert@2
$LN2@insert@2:

; 658  : 				return (_Pairib(_Where, false));

	mov	BYTE PTR $T64272[ebp], 0
	lea	eax, DWORD PTR $T64272[ebp]
	push	eax
	lea	ecx, DWORD PTR __Where$60929[ebp]
	push	ecx
	mov	ecx, DWORD PTR ___$ReturnUdt$[ebp]
	call	??0?$pair@Viterator@?$_Tree@V?$_Tmap_traits@IPAVHardwareBufferPool@Ogre@@U?$less@I@std@@V?$allocator@U?$pair@$$CBIPAVHardwareBufferPool@Ogre@@@std@@@4@$0A@@std@@@std@@_N@std@@QAE@ABViterator@?$_Tree@V?$_Tmap_traits@IPAVHardwareBufferPool@Ogre@@U?$less@I@std@@V?$allocator@U?$pair@$$CBIPAVHardwareBufferPool@Ogre@@@std@@@4@$0A@@std@@@1@AB_N@Z ; std::pair<std::_Tree<std::_Tmap_traits<unsigned int,Ogre::HardwareBufferPool *,std::less<unsigned int>,std::allocator<std::pair<unsigned int const ,Ogre::HardwareBufferPool *> >,0> >::iterator,bool>::pair<std::_Tree<std::_Tmap_traits<unsigned int,Ogre::HardwareBufferPool *,std::less<unsigned int>,std::allocator<std::pair<unsigned int const ,Ogre::HardwareBufferPool *> >,0> >::iterator,bool>
	mov	eax, DWORD PTR ___$ReturnUdt$[ebp]
$LN11@insert@2:

; 659  : 			}
; 660  : 		}

	mov	esp, ebp
	pop	ebp
	ret	8
?insert@?$_Tree@V?$_Tmap_traits@IPAVHardwareBufferPool@Ogre@@U?$less@I@std@@V?$allocator@U?$pair@$$CBIPAVHardwareBufferPool@Ogre@@@std@@@4@$0A@@std@@@std@@QAE?AU?$pair@Viterator@?$_Tree@V?$_Tmap_traits@IPAVHardwareBufferPool@Ogre@@U?$less@I@std@@V?$allocator@U?$pair@$$CBIPAVHardwareBufferPool@Ogre@@@std@@@4@$0A@@std@@@std@@_N@2@ABU?$pair@$$CBIPAVHardwareBufferPool@Ogre@@@2@@Z ENDP ; std::_Tree<std::_Tmap_traits<unsigned int,Ogre::HardwareBufferPool *,std::less<unsigned int>,std::allocator<std::pair<unsigned int const ,Ogre::HardwareBufferPool *> >,0> >::insert
_TEXT	ENDS
PUBLIC	?destroy@?$allocator@U_Node@?$_Tree_nod@V?$_Tmap_traits@IPAVHardwareBufferPool@Ogre@@U?$less@I@std@@V?$allocator@U?$pair@$$CBIPAVHardwareBufferPool@Ogre@@@std@@@4@$0A@@std@@@std@@@std@@QAEXPAU_Node@?$_Tree_nod@V?$_Tmap_traits@IPAVHardwareBufferPool@Ogre@@U?$less@I@std@@V?$allocator@U?$pair@$$CBIPAVHardwareBufferPool@Ogre@@@std@@@4@$0A@@std@@@2@@Z ; std::allocator<std::_Tree_nod<std::_Tmap_traits<unsigned int,Ogre::HardwareBufferPool *,std::less<unsigned int>,std::allocator<std::pair<unsigned int const ,Ogre::HardwareBufferPool *> >,0> >::_Node>::destroy
PUBLIC	?_Rrotate@?$_Tree@V?$_Tmap_traits@IPAVHardwareBufferPool@Ogre@@U?$less@I@std@@V?$allocator@U?$pair@$$CBIPAVHardwareBufferPool@Ogre@@@std@@@4@$0A@@std@@@std@@IAEXPAU_Node@?$_Tree_nod@V?$_Tmap_traits@IPAVHardwareBufferPool@Ogre@@U?$less@I@std@@V?$allocator@U?$pair@$$CBIPAVHardwareBufferPool@Ogre@@@std@@@4@$0A@@std@@@2@@Z ; std::_Tree<std::_Tmap_traits<unsigned int,Ogre::HardwareBufferPool *,std::less<unsigned int>,std::allocator<std::pair<unsigned int const ,Ogre::HardwareBufferPool *> >,0> >::_Rrotate
PUBLIC	?_Lrotate@?$_Tree@V?$_Tmap_traits@IPAVHardwareBufferPool@Ogre@@U?$less@I@std@@V?$allocator@U?$pair@$$CBIPAVHardwareBufferPool@Ogre@@@std@@@4@$0A@@std@@@std@@IAEXPAU_Node@?$_Tree_nod@V?$_Tmap_traits@IPAVHardwareBufferPool@Ogre@@U?$less@I@std@@V?$allocator@U?$pair@$$CBIPAVHardwareBufferPool@Ogre@@@std@@@4@$0A@@std@@@2@@Z ; std::_Tree<std::_Tmap_traits<unsigned int,Ogre::HardwareBufferPool *,std::less<unsigned int>,std::allocator<std::pair<unsigned int const ,Ogre::HardwareBufferPool *> >,0> >::_Lrotate
PUBLIC	??$swap@D@std@@YAXAAD0@Z			; std::swap<char>
PUBLIC	?_Color@?$_Tree@V?$_Tmap_traits@IPAVHardwareBufferPool@Ogre@@U?$less@I@std@@V?$allocator@U?$pair@$$CBIPAVHardwareBufferPool@Ogre@@@std@@@4@$0A@@std@@@std@@KAAADPAU_Node@?$_Tree_nod@V?$_Tmap_traits@IPAVHardwareBufferPool@Ogre@@U?$less@I@std@@V?$allocator@U?$pair@$$CBIPAVHardwareBufferPool@Ogre@@@std@@@4@$0A@@std@@@2@@Z ; std::_Tree<std::_Tmap_traits<unsigned int,Ogre::HardwareBufferPool *,std::less<unsigned int>,std::allocator<std::pair<unsigned int const ,Ogre::HardwareBufferPool *> >,0> >::_Color
PUBLIC	__TI3?AVout_of_range@std@@
PUBLIC	??0out_of_range@std@@QAE@ABV?$basic_string@DU?$char_traits@D@std@@V?$allocator@D@2@@1@@Z ; std::out_of_range::out_of_range
PUBLIC	??_C@_0BM@PAPJHAGI@invalid?5map?1set?$DMT?$DO?5iterator?$AA@ ; `string'
PUBLIC	??1out_of_range@std@@UAE@XZ			; std::out_of_range::~out_of_range
PUBLIC	__CTA3?AVout_of_range@std@@
PUBLIC	__CT??_R0?AVout_of_range@std@@@8??0out_of_range@std@@QAE@ABV01@@Z40
PUBLIC	??_R0?AVout_of_range@std@@@8			; std::out_of_range `RTTI Type Descriptor'
PUBLIC	??0out_of_range@std@@QAE@ABV01@@Z		; std::out_of_range::out_of_range
PUBLIC	__CT??_R0?AVlogic_error@std@@@8??0logic_error@std@@QAE@ABV01@@Z40
PUBLIC	??_R0?AVlogic_error@std@@@8			; std::logic_error `RTTI Type Descriptor'
PUBLIC	??0logic_error@std@@QAE@ABV01@@Z		; std::logic_error::logic_error
PUBLIC	__CT??_R0?AVexception@std@@@8??0exception@std@@QAE@ABV01@@Z12
PUBLIC	??_R0?AVexception@std@@@8			; std::exception `RTTI Type Descriptor'
EXTRN	__imp_??1?$basic_string@DU?$char_traits@D@std@@V?$allocator@D@2@@std@@QAE@XZ:PROC
EXTRN	__imp_??0?$basic_string@DU?$char_traits@D@std@@V?$allocator@D@2@@std@@QAE@PBD@Z:PROC
EXTRN	??0exception@std@@QAE@ABV01@@Z:PROC		; std::exception::exception
;	COMDAT ??_R0?AVexception@std@@@8
_DATA	SEGMENT
??_R0?AVexception@std@@@8 DD FLAT:??_7type_info@@6B@	; std::exception `RTTI Type Descriptor'
	DD	00H
	DB	'.?AVexception@std@@', 00H
_DATA	ENDS
;	COMDAT __CT??_R0?AVexception@std@@@8??0exception@std@@QAE@ABV01@@Z12
xdata$x	SEGMENT
__CT??_R0?AVexception@std@@@8??0exception@std@@QAE@ABV01@@Z12 DD 00H
	DD	FLAT:??_R0?AVexception@std@@@8
	DD	00H
	DD	0ffffffffH
	ORG $+4
	DD	0cH
	DD	FLAT:??0exception@std@@QAE@ABV01@@Z
xdata$x	ENDS
;	COMDAT ??_R0?AVlogic_error@std@@@8
_DATA	SEGMENT
??_R0?AVlogic_error@std@@@8 DD FLAT:??_7type_info@@6B@	; std::logic_error `RTTI Type Descriptor'
	DD	00H
	DB	'.?AVlogic_error@std@@', 00H
_DATA	ENDS
;	COMDAT __CT??_R0?AVlogic_error@std@@@8??0logic_error@std@@QAE@ABV01@@Z40
xdata$x	SEGMENT
__CT??_R0?AVlogic_error@std@@@8??0logic_error@std@@QAE@ABV01@@Z40 DD 00H
	DD	FLAT:??_R0?AVlogic_error@std@@@8
	DD	00H
	DD	0ffffffffH
	ORG $+4
	DD	028H
	DD	FLAT:??0logic_error@std@@QAE@ABV01@@Z
xdata$x	ENDS
;	COMDAT ??_R0?AVout_of_range@std@@@8
_DATA	SEGMENT
??_R0?AVout_of_range@std@@@8 DD FLAT:??_7type_info@@6B@	; std::out_of_range `RTTI Type Descriptor'
	DD	00H
	DB	'.?AVout_of_range@std@@', 00H
_DATA	ENDS
;	COMDAT __CT??_R0?AVout_of_range@std@@@8??0out_of_range@std@@QAE@ABV01@@Z40
xdata$x	SEGMENT
__CT??_R0?AVout_of_range@std@@@8??0out_of_range@std@@QAE@ABV01@@Z40 DD 00H
	DD	FLAT:??_R0?AVout_of_range@std@@@8
	DD	00H
	DD	0ffffffffH
	ORG $+4
	DD	028H
	DD	FLAT:??0out_of_range@std@@QAE@ABV01@@Z
xdata$x	ENDS
;	COMDAT __CTA3?AVout_of_range@std@@
xdata$x	SEGMENT
__CTA3?AVout_of_range@std@@ DD 03H
	DD	FLAT:__CT??_R0?AVout_of_range@std@@@8??0out_of_range@std@@QAE@ABV01@@Z40
	DD	FLAT:__CT??_R0?AVlogic_error@std@@@8??0logic_error@std@@QAE@ABV01@@Z40
	DD	FLAT:__CT??_R0?AVexception@std@@@8??0exception@std@@QAE@ABV01@@Z12
xdata$x	ENDS
;	COMDAT __TI3?AVout_of_range@std@@
xdata$x	SEGMENT
__TI3?AVout_of_range@std@@ DD 00H
	DD	FLAT:??1out_of_range@std@@UAE@XZ
	DD	00H
	DD	FLAT:__CTA3?AVout_of_range@std@@
xdata$x	ENDS
;	COMDAT ??_C@_0BM@PAPJHAGI@invalid?5map?1set?$DMT?$DO?5iterator?$AA@
CONST	SEGMENT
??_C@_0BM@PAPJHAGI@invalid?5map?1set?$DMT?$DO?5iterator?$AA@ DB 'invalid '
	DB	'map/set<T> iterator', 00H			; `string'
CONST	ENDS
;	COMDAT xdata$x
xdata$x	SEGMENT
__unwindtable$?erase@?$_Tree@V?$_Tmap_traits@IPAVHardwareBufferPool@Ogre@@U?$less@I@std@@V?$allocator@U?$pair@$$CBIPAVHardwareBufferPool@Ogre@@@std@@@4@$0A@@std@@@std@@QAE?AViterator@12@Vconst_iterator@12@@Z DD 0ffffffffH
	DD	FLAT:__unwindfunclet$?erase@?$_Tree@V?$_Tmap_traits@IPAVHardwareBufferPool@Ogre@@U?$less@I@std@@V?$allocator@U?$pair@$$CBIPAVHardwareBufferPool@Ogre@@@std@@@4@$0A@@std@@@std@@QAE?AViterator@12@Vconst_iterator@12@@Z$0
__ehfuncinfo$?erase@?$_Tree@V?$_Tmap_traits@IPAVHardwareBufferPool@Ogre@@U?$less@I@std@@V?$allocator@U?$pair@$$CBIPAVHardwareBufferPool@Ogre@@@std@@@4@$0A@@std@@@std@@QAE?AViterator@12@Vconst_iterator@12@@Z DD 019930522H
	DD	01H
	DD	FLAT:__unwindtable$?erase@?$_Tree@V?$_Tmap_traits@IPAVHardwareBufferPool@Ogre@@U?$less@I@std@@V?$allocator@U?$pair@$$CBIPAVHardwareBufferPool@Ogre@@@std@@@4@$0A@@std@@@std@@QAE?AViterator@12@Vconst_iterator@12@@Z
	DD	2 DUP(00H)
	DD	2 DUP(00H)
	DD	00H
	DD	00H
; Function compile flags: /Odtp
xdata$x	ENDS
;	COMDAT ?erase@?$_Tree@V?$_Tmap_traits@IPAVHardwareBufferPool@Ogre@@U?$less@I@std@@V?$allocator@U?$pair@$$CBIPAVHardwareBufferPool@Ogre@@@std@@@4@$0A@@std@@@std@@QAE?AViterator@12@Vconst_iterator@12@@Z
_TEXT	SEGMENT
tv177 = -108						; size = 4
tv165 = -104						; size = 4
_this$ = -100						; size = 4
$T64276 = -96						; size = 28
$T64275 = -68						; size = 40
__Fixnodeparent$ = -28					; size = 4
__Pnode$ = -24						; size = 4
__Fixnode$ = -20					; size = 4
__Erasednode$ = -16					; size = 4
__$EHRec$ = -12						; size = 12
___$ReturnUdt$ = 8					; size = 4
__Where$ = 12						; size = 8
?erase@?$_Tree@V?$_Tmap_traits@IPAVHardwareBufferPool@Ogre@@U?$less@I@std@@V?$allocator@U?$pair@$$CBIPAVHardwareBufferPool@Ogre@@@std@@@4@$0A@@std@@@std@@QAE?AViterator@12@Vconst_iterator@12@@Z PROC ; std::_Tree<std::_Tmap_traits<unsigned int,Ogre::HardwareBufferPool *,std::less<unsigned int>,std::allocator<std::pair<unsigned int const ,Ogre::HardwareBufferPool *> >,0> >::erase, COMDAT
; _this$ = ecx

; 764  : 		{	// erase element at _Where

	push	ebp
	mov	ebp, esp
	push	-1
	push	__ehhandler$?erase@?$_Tree@V?$_Tmap_traits@IPAVHardwareBufferPool@Ogre@@U?$less@I@std@@V?$allocator@U?$pair@$$CBIPAVHardwareBufferPool@Ogre@@@std@@@4@$0A@@std@@@std@@QAE?AViterator@12@Vconst_iterator@12@@Z
	mov	eax, DWORD PTR fs:0
	push	eax
	sub	esp, 96					; 00000060H
	push	esi
	mov	eax, DWORD PTR ___security_cookie
	xor	eax, ebp
	push	eax
	lea	eax, DWORD PTR __$EHRec$[ebp]
	mov	DWORD PTR fs:0, eax
	mov	DWORD PTR _this$[ebp], ecx

; 765  : 
; 766  :  #if _HAS_ITERATOR_DEBUGGING
; 767  : 		if (_Where._Mycont != this || _Isnil(_Where._Mynode()))
; 768  : 			_DEBUG_ERROR("map/set erase iterator outside range");
; 769  : 		_Nodeptr _Erasednode = _Where._Mynode();	// node to erase
; 770  : 		++_Where;	// save successor iterator for return
; 771  : 		_Orphan_ptr(*this, _Erasednode);
; 772  : 
; 773  :  #else /* _HAS_ITERATOR_DEBUGGING */
; 774  : 		if (_Isnil(_Where._Mynode()))

	lea	ecx, DWORD PTR __Where$[ebp]
	call	?_Mynode@const_iterator@?$_Tree@V?$_Tmap_traits@IPAVHardwareBufferPool@Ogre@@U?$less@I@std@@V?$allocator@U?$pair@$$CBIPAVHardwareBufferPool@Ogre@@@std@@@4@$0A@@std@@@std@@QBEPAU_Node@?$_Tree_nod@V?$_Tmap_traits@IPAVHardwareBufferPool@Ogre@@U?$less@I@std@@V?$allocator@U?$pair@$$CBIPAVHardwareBufferPool@Ogre@@@std@@@4@$0A@@std@@@3@XZ ; std::_Tree<std::_Tmap_traits<unsigned int,Ogre::HardwareBufferPool *,std::less<unsigned int>,std::allocator<std::pair<unsigned int const ,Ogre::HardwareBufferPool *> >,0> >::const_iterator::_Mynode
	push	eax
	call	?_Isnil@?$_Tree@V?$_Tmap_traits@IPAVHardwareBufferPool@Ogre@@U?$less@I@std@@V?$allocator@U?$pair@$$CBIPAVHardwareBufferPool@Ogre@@@std@@@4@$0A@@std@@@std@@KAAADPAU_Node@?$_Tree_nod@V?$_Tmap_traits@IPAVHardwareBufferPool@Ogre@@U?$less@I@std@@V?$allocator@U?$pair@$$CBIPAVHardwareBufferPool@Ogre@@@std@@@4@$0A@@std@@@2@@Z ; std::_Tree<std::_Tmap_traits<unsigned int,Ogre::HardwareBufferPool *,std::less<unsigned int>,std::allocator<std::pair<unsigned int const ,Ogre::HardwareBufferPool *> >,0> >::_Isnil
	add	esp, 4
	movsx	eax, BYTE PTR [eax]
	test	eax, eax
	je	SHORT $LN40@erase@2

; 775  : 			_THROW(out_of_range, "invalid map/set<T> iterator");

	push	OFFSET ??_C@_0BM@PAPJHAGI@invalid?5map?1set?$DMT?$DO?5iterator?$AA@
	lea	ecx, DWORD PTR $T64276[ebp]
	call	DWORD PTR __imp_??0?$basic_string@DU?$char_traits@D@std@@V?$allocator@D@2@@std@@QAE@PBD@Z
	mov	DWORD PTR __$EHRec$[ebp+8], 0
	lea	ecx, DWORD PTR $T64276[ebp]
	push	ecx
	lea	ecx, DWORD PTR $T64275[ebp]
	call	??0out_of_range@std@@QAE@ABV?$basic_string@DU?$char_traits@D@std@@V?$allocator@D@2@@1@@Z ; std::out_of_range::out_of_range
	push	OFFSET __TI3?AVout_of_range@std@@
	lea	edx, DWORD PTR $T64275[ebp]
	push	edx
	call	__CxxThrowException@8
	mov	DWORD PTR __$EHRec$[ebp+8], -1
	lea	ecx, DWORD PTR $T64276[ebp]
	call	DWORD PTR __imp_??1?$basic_string@DU?$char_traits@D@std@@V?$allocator@D@2@@std@@QAE@XZ
$LN40@erase@2:

; 776  : 		_Nodeptr _Erasednode = _Where._Mynode();	// node to erase

	lea	ecx, DWORD PTR __Where$[ebp]
	call	?_Mynode@const_iterator@?$_Tree@V?$_Tmap_traits@IPAVHardwareBufferPool@Ogre@@U?$less@I@std@@V?$allocator@U?$pair@$$CBIPAVHardwareBufferPool@Ogre@@@std@@@4@$0A@@std@@@std@@QBEPAU_Node@?$_Tree_nod@V?$_Tmap_traits@IPAVHardwareBufferPool@Ogre@@U?$less@I@std@@V?$allocator@U?$pair@$$CBIPAVHardwareBufferPool@Ogre@@@std@@@4@$0A@@std@@@3@XZ ; std::_Tree<std::_Tmap_traits<unsigned int,Ogre::HardwareBufferPool *,std::less<unsigned int>,std::allocator<std::pair<unsigned int const ,Ogre::HardwareBufferPool *> >,0> >::const_iterator::_Mynode
	mov	DWORD PTR __Erasednode$[ebp], eax

; 777  : 		++_Where;	// save successor iterator for return

	lea	ecx, DWORD PTR __Where$[ebp]
	call	??Econst_iterator@?$_Tree@V?$_Tmap_traits@IPAVHardwareBufferPool@Ogre@@U?$less@I@std@@V?$allocator@U?$pair@$$CBIPAVHardwareBufferPool@Ogre@@@std@@@4@$0A@@std@@@std@@QAEAAV012@XZ ; std::_Tree<std::_Tmap_traits<unsigned int,Ogre::HardwareBufferPool *,std::less<unsigned int>,std::allocator<std::pair<unsigned int const ,Ogre::HardwareBufferPool *> >,0> >::const_iterator::operator++

; 778  :  #endif /* _HAS_ITERATOR_DEBUGGING */
; 779  : 
; 780  : 		_Nodeptr _Fixnode;	// the node to recolor as needed
; 781  : 		_Nodeptr _Fixnodeparent;	// parent of _Fixnode (which may be nil)
; 782  : 		_Nodeptr _Pnode = _Erasednode;

	mov	eax, DWORD PTR __Erasednode$[ebp]
	mov	DWORD PTR __Pnode$[ebp], eax

; 783  : 
; 784  : 		if (_Isnil(_Left(_Pnode)))

	mov	ecx, DWORD PTR __Pnode$[ebp]
	push	ecx
	call	?_Left@?$_Tree@V?$_Tmap_traits@IPAVHardwareBufferPool@Ogre@@U?$less@I@std@@V?$allocator@U?$pair@$$CBIPAVHardwareBufferPool@Ogre@@@std@@@4@$0A@@std@@@std@@KAAAPAU_Node@?$_Tree_nod@V?$_Tmap_traits@IPAVHardwareBufferPool@Ogre@@U?$less@I@std@@V?$allocator@U?$pair@$$CBIPAVHardwareBufferPool@Ogre@@@std@@@4@$0A@@std@@@2@PAU342@@Z ; std::_Tree<std::_Tmap_traits<unsigned int,Ogre::HardwareBufferPool *,std::less<unsigned int>,std::allocator<std::pair<unsigned int const ,Ogre::HardwareBufferPool *> >,0> >::_Left
	add	esp, 4
	mov	edx, DWORD PTR [eax]
	push	edx
	call	?_Isnil@?$_Tree@V?$_Tmap_traits@IPAVHardwareBufferPool@Ogre@@U?$less@I@std@@V?$allocator@U?$pair@$$CBIPAVHardwareBufferPool@Ogre@@@std@@@4@$0A@@std@@@std@@KAAADPAU_Node@?$_Tree_nod@V?$_Tmap_traits@IPAVHardwareBufferPool@Ogre@@U?$less@I@std@@V?$allocator@U?$pair@$$CBIPAVHardwareBufferPool@Ogre@@@std@@@4@$0A@@std@@@2@@Z ; std::_Tree<std::_Tmap_traits<unsigned int,Ogre::HardwareBufferPool *,std::less<unsigned int>,std::allocator<std::pair<unsigned int const ,Ogre::HardwareBufferPool *> >,0> >::_Isnil
	add	esp, 4
	movsx	eax, BYTE PTR [eax]
	test	eax, eax
	je	SHORT $LN39@erase@2

; 785  : 			_Fixnode = _Right(_Pnode);	// must stitch up right subtree

	mov	ecx, DWORD PTR __Pnode$[ebp]
	push	ecx
	call	?_Right@?$_Tree@V?$_Tmap_traits@IPAVHardwareBufferPool@Ogre@@U?$less@I@std@@V?$allocator@U?$pair@$$CBIPAVHardwareBufferPool@Ogre@@@std@@@4@$0A@@std@@@std@@KAAAPAU_Node@?$_Tree_nod@V?$_Tmap_traits@IPAVHardwareBufferPool@Ogre@@U?$less@I@std@@V?$allocator@U?$pair@$$CBIPAVHardwareBufferPool@Ogre@@@std@@@4@$0A@@std@@@2@PAU342@@Z ; std::_Tree<std::_Tmap_traits<unsigned int,Ogre::HardwareBufferPool *,std::less<unsigned int>,std::allocator<std::pair<unsigned int const ,Ogre::HardwareBufferPool *> >,0> >::_Right
	add	esp, 4
	mov	edx, DWORD PTR [eax]
	mov	DWORD PTR __Fixnode$[ebp], edx
	jmp	SHORT $LN38@erase@2
$LN39@erase@2:

; 786  : 		else if (_Isnil(_Right(_Pnode)))

	mov	eax, DWORD PTR __Pnode$[ebp]
	push	eax
	call	?_Right@?$_Tree@V?$_Tmap_traits@IPAVHardwareBufferPool@Ogre@@U?$less@I@std@@V?$allocator@U?$pair@$$CBIPAVHardwareBufferPool@Ogre@@@std@@@4@$0A@@std@@@std@@KAAAPAU_Node@?$_Tree_nod@V?$_Tmap_traits@IPAVHardwareBufferPool@Ogre@@U?$less@I@std@@V?$allocator@U?$pair@$$CBIPAVHardwareBufferPool@Ogre@@@std@@@4@$0A@@std@@@2@PAU342@@Z ; std::_Tree<std::_Tmap_traits<unsigned int,Ogre::HardwareBufferPool *,std::less<unsigned int>,std::allocator<std::pair<unsigned int const ,Ogre::HardwareBufferPool *> >,0> >::_Right
	add	esp, 4
	mov	ecx, DWORD PTR [eax]
	push	ecx
	call	?_Isnil@?$_Tree@V?$_Tmap_traits@IPAVHardwareBufferPool@Ogre@@U?$less@I@std@@V?$allocator@U?$pair@$$CBIPAVHardwareBufferPool@Ogre@@@std@@@4@$0A@@std@@@std@@KAAADPAU_Node@?$_Tree_nod@V?$_Tmap_traits@IPAVHardwareBufferPool@Ogre@@U?$less@I@std@@V?$allocator@U?$pair@$$CBIPAVHardwareBufferPool@Ogre@@@std@@@4@$0A@@std@@@2@@Z ; std::_Tree<std::_Tmap_traits<unsigned int,Ogre::HardwareBufferPool *,std::less<unsigned int>,std::allocator<std::pair<unsigned int const ,Ogre::HardwareBufferPool *> >,0> >::_Isnil
	add	esp, 4
	movsx	edx, BYTE PTR [eax]
	test	edx, edx
	je	SHORT $LN37@erase@2

; 787  : 			_Fixnode = _Left(_Pnode);	// must stitch up left subtree

	mov	eax, DWORD PTR __Pnode$[ebp]
	push	eax
	call	?_Left@?$_Tree@V?$_Tmap_traits@IPAVHardwareBufferPool@Ogre@@U?$less@I@std@@V?$allocator@U?$pair@$$CBIPAVHardwareBufferPool@Ogre@@@std@@@4@$0A@@std@@@std@@KAAAPAU_Node@?$_Tree_nod@V?$_Tmap_traits@IPAVHardwareBufferPool@Ogre@@U?$less@I@std@@V?$allocator@U?$pair@$$CBIPAVHardwareBufferPool@Ogre@@@std@@@4@$0A@@std@@@2@PAU342@@Z ; std::_Tree<std::_Tmap_traits<unsigned int,Ogre::HardwareBufferPool *,std::less<unsigned int>,std::allocator<std::pair<unsigned int const ,Ogre::HardwareBufferPool *> >,0> >::_Left
	add	esp, 4
	mov	ecx, DWORD PTR [eax]
	mov	DWORD PTR __Fixnode$[ebp], ecx

; 788  : 		else

	jmp	SHORT $LN38@erase@2
$LN37@erase@2:

; 789  : 			{	// two subtrees, must lift successor node to replace erased
; 790  : 			_Pnode = _Where._Mynode();	// _Pnode is successor node

	lea	ecx, DWORD PTR __Where$[ebp]
	call	?_Mynode@const_iterator@?$_Tree@V?$_Tmap_traits@IPAVHardwareBufferPool@Ogre@@U?$less@I@std@@V?$allocator@U?$pair@$$CBIPAVHardwareBufferPool@Ogre@@@std@@@4@$0A@@std@@@std@@QBEPAU_Node@?$_Tree_nod@V?$_Tmap_traits@IPAVHardwareBufferPool@Ogre@@U?$less@I@std@@V?$allocator@U?$pair@$$CBIPAVHardwareBufferPool@Ogre@@@std@@@4@$0A@@std@@@3@XZ ; std::_Tree<std::_Tmap_traits<unsigned int,Ogre::HardwareBufferPool *,std::less<unsigned int>,std::allocator<std::pair<unsigned int const ,Ogre::HardwareBufferPool *> >,0> >::const_iterator::_Mynode
	mov	DWORD PTR __Pnode$[ebp], eax

; 791  : 			_Fixnode = _Right(_Pnode);	// _Fixnode is its only subtree

	mov	edx, DWORD PTR __Pnode$[ebp]
	push	edx
	call	?_Right@?$_Tree@V?$_Tmap_traits@IPAVHardwareBufferPool@Ogre@@U?$less@I@std@@V?$allocator@U?$pair@$$CBIPAVHardwareBufferPool@Ogre@@@std@@@4@$0A@@std@@@std@@KAAAPAU_Node@?$_Tree_nod@V?$_Tmap_traits@IPAVHardwareBufferPool@Ogre@@U?$less@I@std@@V?$allocator@U?$pair@$$CBIPAVHardwareBufferPool@Ogre@@@std@@@4@$0A@@std@@@2@PAU342@@Z ; std::_Tree<std::_Tmap_traits<unsigned int,Ogre::HardwareBufferPool *,std::less<unsigned int>,std::allocator<std::pair<unsigned int const ,Ogre::HardwareBufferPool *> >,0> >::_Right
	add	esp, 4
	mov	eax, DWORD PTR [eax]
	mov	DWORD PTR __Fixnode$[ebp], eax
$LN38@erase@2:

; 792  : 			}
; 793  : 
; 794  : 		if (_Pnode == _Erasednode)

	mov	ecx, DWORD PTR __Pnode$[ebp]
	cmp	ecx, DWORD PTR __Erasednode$[ebp]
	jne	$LN35@erase@2

; 795  : 			{	// at most one subtree, relink it
; 796  : 			_Fixnodeparent = _Parent(_Erasednode);

	mov	edx, DWORD PTR __Erasednode$[ebp]
	push	edx
	call	?_Parent@?$_Tree@V?$_Tmap_traits@IPAVHardwareBufferPool@Ogre@@U?$less@I@std@@V?$allocator@U?$pair@$$CBIPAVHardwareBufferPool@Ogre@@@std@@@4@$0A@@std@@@std@@KAAAPAU_Node@?$_Tree_nod@V?$_Tmap_traits@IPAVHardwareBufferPool@Ogre@@U?$less@I@std@@V?$allocator@U?$pair@$$CBIPAVHardwareBufferPool@Ogre@@@std@@@4@$0A@@std@@@2@PAU342@@Z ; std::_Tree<std::_Tmap_traits<unsigned int,Ogre::HardwareBufferPool *,std::less<unsigned int>,std::allocator<std::pair<unsigned int const ,Ogre::HardwareBufferPool *> >,0> >::_Parent
	add	esp, 4
	mov	eax, DWORD PTR [eax]
	mov	DWORD PTR __Fixnodeparent$[ebp], eax

; 797  : 			if (!_Isnil(_Fixnode))

	mov	ecx, DWORD PTR __Fixnode$[ebp]
	push	ecx
	call	?_Isnil@?$_Tree@V?$_Tmap_traits@IPAVHardwareBufferPool@Ogre@@U?$less@I@std@@V?$allocator@U?$pair@$$CBIPAVHardwareBufferPool@Ogre@@@std@@@4@$0A@@std@@@std@@KAAADPAU_Node@?$_Tree_nod@V?$_Tmap_traits@IPAVHardwareBufferPool@Ogre@@U?$less@I@std@@V?$allocator@U?$pair@$$CBIPAVHardwareBufferPool@Ogre@@@std@@@4@$0A@@std@@@2@@Z ; std::_Tree<std::_Tmap_traits<unsigned int,Ogre::HardwareBufferPool *,std::less<unsigned int>,std::allocator<std::pair<unsigned int const ,Ogre::HardwareBufferPool *> >,0> >::_Isnil
	add	esp, 4
	movsx	edx, BYTE PTR [eax]
	test	edx, edx
	jne	SHORT $LN34@erase@2

; 798  : 				_Parent(_Fixnode) = _Fixnodeparent;	// link up

	mov	eax, DWORD PTR __Fixnode$[ebp]
	push	eax
	call	?_Parent@?$_Tree@V?$_Tmap_traits@IPAVHardwareBufferPool@Ogre@@U?$less@I@std@@V?$allocator@U?$pair@$$CBIPAVHardwareBufferPool@Ogre@@@std@@@4@$0A@@std@@@std@@KAAAPAU_Node@?$_Tree_nod@V?$_Tmap_traits@IPAVHardwareBufferPool@Ogre@@U?$less@I@std@@V?$allocator@U?$pair@$$CBIPAVHardwareBufferPool@Ogre@@@std@@@4@$0A@@std@@@2@PAU342@@Z ; std::_Tree<std::_Tmap_traits<unsigned int,Ogre::HardwareBufferPool *,std::less<unsigned int>,std::allocator<std::pair<unsigned int const ,Ogre::HardwareBufferPool *> >,0> >::_Parent
	add	esp, 4
	mov	ecx, DWORD PTR __Fixnodeparent$[ebp]
	mov	DWORD PTR [eax], ecx
$LN34@erase@2:

; 799  : 
; 800  : 			if (_Root() == _Erasednode)

	mov	ecx, DWORD PTR _this$[ebp]
	call	?_Root@?$_Tree@V?$_Tmap_traits@IPAVHardwareBufferPool@Ogre@@U?$less@I@std@@V?$allocator@U?$pair@$$CBIPAVHardwareBufferPool@Ogre@@@std@@@4@$0A@@std@@@std@@IBEAAPAU_Node@?$_Tree_nod@V?$_Tmap_traits@IPAVHardwareBufferPool@Ogre@@U?$less@I@std@@V?$allocator@U?$pair@$$CBIPAVHardwareBufferPool@Ogre@@@std@@@4@$0A@@std@@@2@XZ ; std::_Tree<std::_Tmap_traits<unsigned int,Ogre::HardwareBufferPool *,std::less<unsigned int>,std::allocator<std::pair<unsigned int const ,Ogre::HardwareBufferPool *> >,0> >::_Root
	mov	edx, DWORD PTR [eax]
	cmp	edx, DWORD PTR __Erasednode$[ebp]
	jne	SHORT $LN33@erase@2

; 801  : 				_Root() = _Fixnode;	// link down from root

	mov	ecx, DWORD PTR _this$[ebp]
	call	?_Root@?$_Tree@V?$_Tmap_traits@IPAVHardwareBufferPool@Ogre@@U?$less@I@std@@V?$allocator@U?$pair@$$CBIPAVHardwareBufferPool@Ogre@@@std@@@4@$0A@@std@@@std@@IBEAAPAU_Node@?$_Tree_nod@V?$_Tmap_traits@IPAVHardwareBufferPool@Ogre@@U?$less@I@std@@V?$allocator@U?$pair@$$CBIPAVHardwareBufferPool@Ogre@@@std@@@4@$0A@@std@@@2@XZ ; std::_Tree<std::_Tmap_traits<unsigned int,Ogre::HardwareBufferPool *,std::less<unsigned int>,std::allocator<std::pair<unsigned int const ,Ogre::HardwareBufferPool *> >,0> >::_Root
	mov	ecx, DWORD PTR __Fixnode$[ebp]
	mov	DWORD PTR [eax], ecx
	jmp	SHORT $LN32@erase@2
$LN33@erase@2:

; 802  : 			else if (_Left(_Fixnodeparent) == _Erasednode)

	mov	edx, DWORD PTR __Fixnodeparent$[ebp]
	push	edx
	call	?_Left@?$_Tree@V?$_Tmap_traits@IPAVHardwareBufferPool@Ogre@@U?$less@I@std@@V?$allocator@U?$pair@$$CBIPAVHardwareBufferPool@Ogre@@@std@@@4@$0A@@std@@@std@@KAAAPAU_Node@?$_Tree_nod@V?$_Tmap_traits@IPAVHardwareBufferPool@Ogre@@U?$less@I@std@@V?$allocator@U?$pair@$$CBIPAVHardwareBufferPool@Ogre@@@std@@@4@$0A@@std@@@2@PAU342@@Z ; std::_Tree<std::_Tmap_traits<unsigned int,Ogre::HardwareBufferPool *,std::less<unsigned int>,std::allocator<std::pair<unsigned int const ,Ogre::HardwareBufferPool *> >,0> >::_Left
	add	esp, 4
	mov	eax, DWORD PTR [eax]
	cmp	eax, DWORD PTR __Erasednode$[ebp]
	jne	SHORT $LN31@erase@2

; 803  : 				_Left(_Fixnodeparent) = _Fixnode;	// link down to left

	mov	ecx, DWORD PTR __Fixnodeparent$[ebp]
	push	ecx
	call	?_Left@?$_Tree@V?$_Tmap_traits@IPAVHardwareBufferPool@Ogre@@U?$less@I@std@@V?$allocator@U?$pair@$$CBIPAVHardwareBufferPool@Ogre@@@std@@@4@$0A@@std@@@std@@KAAAPAU_Node@?$_Tree_nod@V?$_Tmap_traits@IPAVHardwareBufferPool@Ogre@@U?$less@I@std@@V?$allocator@U?$pair@$$CBIPAVHardwareBufferPool@Ogre@@@std@@@4@$0A@@std@@@2@PAU342@@Z ; std::_Tree<std::_Tmap_traits<unsigned int,Ogre::HardwareBufferPool *,std::less<unsigned int>,std::allocator<std::pair<unsigned int const ,Ogre::HardwareBufferPool *> >,0> >::_Left
	add	esp, 4
	mov	edx, DWORD PTR __Fixnode$[ebp]
	mov	DWORD PTR [eax], edx

; 804  : 			else

	jmp	SHORT $LN32@erase@2
$LN31@erase@2:

; 805  : 				_Right(_Fixnodeparent) = _Fixnode;	// link down to right

	mov	eax, DWORD PTR __Fixnodeparent$[ebp]
	push	eax
	call	?_Right@?$_Tree@V?$_Tmap_traits@IPAVHardwareBufferPool@Ogre@@U?$less@I@std@@V?$allocator@U?$pair@$$CBIPAVHardwareBufferPool@Ogre@@@std@@@4@$0A@@std@@@std@@KAAAPAU_Node@?$_Tree_nod@V?$_Tmap_traits@IPAVHardwareBufferPool@Ogre@@U?$less@I@std@@V?$allocator@U?$pair@$$CBIPAVHardwareBufferPool@Ogre@@@std@@@4@$0A@@std@@@2@PAU342@@Z ; std::_Tree<std::_Tmap_traits<unsigned int,Ogre::HardwareBufferPool *,std::less<unsigned int>,std::allocator<std::pair<unsigned int const ,Ogre::HardwareBufferPool *> >,0> >::_Right
	add	esp, 4
	mov	ecx, DWORD PTR __Fixnode$[ebp]
	mov	DWORD PTR [eax], ecx
$LN32@erase@2:

; 806  : 
; 807  : 			if (_Lmost() == _Erasednode)

	mov	ecx, DWORD PTR _this$[ebp]
	call	?_Lmost@?$_Tree@V?$_Tmap_traits@IPAVHardwareBufferPool@Ogre@@U?$less@I@std@@V?$allocator@U?$pair@$$CBIPAVHardwareBufferPool@Ogre@@@std@@@4@$0A@@std@@@std@@IBEAAPAU_Node@?$_Tree_nod@V?$_Tmap_traits@IPAVHardwareBufferPool@Ogre@@U?$less@I@std@@V?$allocator@U?$pair@$$CBIPAVHardwareBufferPool@Ogre@@@std@@@4@$0A@@std@@@2@XZ ; std::_Tree<std::_Tmap_traits<unsigned int,Ogre::HardwareBufferPool *,std::less<unsigned int>,std::allocator<std::pair<unsigned int const ,Ogre::HardwareBufferPool *> >,0> >::_Lmost
	mov	edx, DWORD PTR [eax]
	cmp	edx, DWORD PTR __Erasednode$[ebp]
	jne	SHORT $LN29@erase@2

; 808  : 				_Lmost() = _Isnil(_Fixnode)
; 809  : 					? _Fixnodeparent	// smallest is parent of erased node
; 810  : 					: _Min(_Fixnode);	// smallest in relinked subtree

	mov	eax, DWORD PTR __Fixnode$[ebp]
	push	eax
	call	?_Isnil@?$_Tree@V?$_Tmap_traits@IPAVHardwareBufferPool@Ogre@@U?$less@I@std@@V?$allocator@U?$pair@$$CBIPAVHardwareBufferPool@Ogre@@@std@@@4@$0A@@std@@@std@@KAAADPAU_Node@?$_Tree_nod@V?$_Tmap_traits@IPAVHardwareBufferPool@Ogre@@U?$less@I@std@@V?$allocator@U?$pair@$$CBIPAVHardwareBufferPool@Ogre@@@std@@@4@$0A@@std@@@2@@Z ; std::_Tree<std::_Tmap_traits<unsigned int,Ogre::HardwareBufferPool *,std::less<unsigned int>,std::allocator<std::pair<unsigned int const ,Ogre::HardwareBufferPool *> >,0> >::_Isnil
	add	esp, 4
	movsx	ecx, BYTE PTR [eax]
	test	ecx, ecx
	je	SHORT $LN43@erase@2
	mov	edx, DWORD PTR __Fixnodeparent$[ebp]
	mov	DWORD PTR tv165[ebp], edx
	jmp	SHORT $LN44@erase@2
$LN43@erase@2:
	mov	eax, DWORD PTR __Fixnode$[ebp]
	push	eax
	call	?_Min@?$_Tree@V?$_Tmap_traits@IPAVHardwareBufferPool@Ogre@@U?$less@I@std@@V?$allocator@U?$pair@$$CBIPAVHardwareBufferPool@Ogre@@@std@@@4@$0A@@std@@@std@@KAPAU_Node@?$_Tree_nod@V?$_Tmap_traits@IPAVHardwareBufferPool@Ogre@@U?$less@I@std@@V?$allocator@U?$pair@$$CBIPAVHardwareBufferPool@Ogre@@@std@@@4@$0A@@std@@@2@PAU342@@Z ; std::_Tree<std::_Tmap_traits<unsigned int,Ogre::HardwareBufferPool *,std::less<unsigned int>,std::allocator<std::pair<unsigned int const ,Ogre::HardwareBufferPool *> >,0> >::_Min
	add	esp, 4
	mov	DWORD PTR tv165[ebp], eax
$LN44@erase@2:
	mov	ecx, DWORD PTR _this$[ebp]
	call	?_Lmost@?$_Tree@V?$_Tmap_traits@IPAVHardwareBufferPool@Ogre@@U?$less@I@std@@V?$allocator@U?$pair@$$CBIPAVHardwareBufferPool@Ogre@@@std@@@4@$0A@@std@@@std@@IBEAAPAU_Node@?$_Tree_nod@V?$_Tmap_traits@IPAVHardwareBufferPool@Ogre@@U?$less@I@std@@V?$allocator@U?$pair@$$CBIPAVHardwareBufferPool@Ogre@@@std@@@4@$0A@@std@@@2@XZ ; std::_Tree<std::_Tmap_traits<unsigned int,Ogre::HardwareBufferPool *,std::less<unsigned int>,std::allocator<std::pair<unsigned int const ,Ogre::HardwareBufferPool *> >,0> >::_Lmost
	mov	ecx, DWORD PTR tv165[ebp]
	mov	DWORD PTR [eax], ecx
$LN29@erase@2:

; 811  : 
; 812  : 			if (_Rmost() == _Erasednode)

	mov	ecx, DWORD PTR _this$[ebp]
	call	?_Rmost@?$_Tree@V?$_Tmap_traits@IPAVHardwareBufferPool@Ogre@@U?$less@I@std@@V?$allocator@U?$pair@$$CBIPAVHardwareBufferPool@Ogre@@@std@@@4@$0A@@std@@@std@@IBEAAPAU_Node@?$_Tree_nod@V?$_Tmap_traits@IPAVHardwareBufferPool@Ogre@@U?$less@I@std@@V?$allocator@U?$pair@$$CBIPAVHardwareBufferPool@Ogre@@@std@@@4@$0A@@std@@@2@XZ ; std::_Tree<std::_Tmap_traits<unsigned int,Ogre::HardwareBufferPool *,std::less<unsigned int>,std::allocator<std::pair<unsigned int const ,Ogre::HardwareBufferPool *> >,0> >::_Rmost
	mov	edx, DWORD PTR [eax]
	cmp	edx, DWORD PTR __Erasednode$[ebp]
	jne	SHORT $LN28@erase@2

; 813  : 				_Rmost() = _Isnil(_Fixnode)
; 814  : 					? _Fixnodeparent	// largest is parent of erased node
; 815  : 					: _Max(_Fixnode);	// largest in relinked subtree

	mov	eax, DWORD PTR __Fixnode$[ebp]
	push	eax
	call	?_Isnil@?$_Tree@V?$_Tmap_traits@IPAVHardwareBufferPool@Ogre@@U?$less@I@std@@V?$allocator@U?$pair@$$CBIPAVHardwareBufferPool@Ogre@@@std@@@4@$0A@@std@@@std@@KAAADPAU_Node@?$_Tree_nod@V?$_Tmap_traits@IPAVHardwareBufferPool@Ogre@@U?$less@I@std@@V?$allocator@U?$pair@$$CBIPAVHardwareBufferPool@Ogre@@@std@@@4@$0A@@std@@@2@@Z ; std::_Tree<std::_Tmap_traits<unsigned int,Ogre::HardwareBufferPool *,std::less<unsigned int>,std::allocator<std::pair<unsigned int const ,Ogre::HardwareBufferPool *> >,0> >::_Isnil
	add	esp, 4
	movsx	ecx, BYTE PTR [eax]
	test	ecx, ecx
	je	SHORT $LN45@erase@2
	mov	edx, DWORD PTR __Fixnodeparent$[ebp]
	mov	DWORD PTR tv177[ebp], edx
	jmp	SHORT $LN46@erase@2
$LN45@erase@2:
	mov	eax, DWORD PTR __Fixnode$[ebp]
	push	eax
	call	?_Max@?$_Tree@V?$_Tmap_traits@IPAVHardwareBufferPool@Ogre@@U?$less@I@std@@V?$allocator@U?$pair@$$CBIPAVHardwareBufferPool@Ogre@@@std@@@4@$0A@@std@@@std@@KAPAU_Node@?$_Tree_nod@V?$_Tmap_traits@IPAVHardwareBufferPool@Ogre@@U?$less@I@std@@V?$allocator@U?$pair@$$CBIPAVHardwareBufferPool@Ogre@@@std@@@4@$0A@@std@@@2@PAU342@@Z ; std::_Tree<std::_Tmap_traits<unsigned int,Ogre::HardwareBufferPool *,std::less<unsigned int>,std::allocator<std::pair<unsigned int const ,Ogre::HardwareBufferPool *> >,0> >::_Max
	add	esp, 4
	mov	DWORD PTR tv177[ebp], eax
$LN46@erase@2:
	mov	ecx, DWORD PTR _this$[ebp]
	call	?_Rmost@?$_Tree@V?$_Tmap_traits@IPAVHardwareBufferPool@Ogre@@U?$less@I@std@@V?$allocator@U?$pair@$$CBIPAVHardwareBufferPool@Ogre@@@std@@@4@$0A@@std@@@std@@IBEAAPAU_Node@?$_Tree_nod@V?$_Tmap_traits@IPAVHardwareBufferPool@Ogre@@U?$less@I@std@@V?$allocator@U?$pair@$$CBIPAVHardwareBufferPool@Ogre@@@std@@@4@$0A@@std@@@2@XZ ; std::_Tree<std::_Tmap_traits<unsigned int,Ogre::HardwareBufferPool *,std::less<unsigned int>,std::allocator<std::pair<unsigned int const ,Ogre::HardwareBufferPool *> >,0> >::_Rmost
	mov	ecx, DWORD PTR tv177[ebp]
	mov	DWORD PTR [eax], ecx
$LN28@erase@2:

; 816  : 			}
; 817  : 		else

	jmp	$LN27@erase@2
$LN35@erase@2:

; 818  : 			{	// erased has two subtrees, _Pnode is successor to erased
; 819  : 			_Parent(_Left(_Erasednode)) = _Pnode;	// link left up

	mov	edx, DWORD PTR __Erasednode$[ebp]
	push	edx
	call	?_Left@?$_Tree@V?$_Tmap_traits@IPAVHardwareBufferPool@Ogre@@U?$less@I@std@@V?$allocator@U?$pair@$$CBIPAVHardwareBufferPool@Ogre@@@std@@@4@$0A@@std@@@std@@KAAAPAU_Node@?$_Tree_nod@V?$_Tmap_traits@IPAVHardwareBufferPool@Ogre@@U?$less@I@std@@V?$allocator@U?$pair@$$CBIPAVHardwareBufferPool@Ogre@@@std@@@4@$0A@@std@@@2@PAU342@@Z ; std::_Tree<std::_Tmap_traits<unsigned int,Ogre::HardwareBufferPool *,std::less<unsigned int>,std::allocator<std::pair<unsigned int const ,Ogre::HardwareBufferPool *> >,0> >::_Left
	add	esp, 4
	mov	eax, DWORD PTR [eax]
	push	eax
	call	?_Parent@?$_Tree@V?$_Tmap_traits@IPAVHardwareBufferPool@Ogre@@U?$less@I@std@@V?$allocator@U?$pair@$$CBIPAVHardwareBufferPool@Ogre@@@std@@@4@$0A@@std@@@std@@KAAAPAU_Node@?$_Tree_nod@V?$_Tmap_traits@IPAVHardwareBufferPool@Ogre@@U?$less@I@std@@V?$allocator@U?$pair@$$CBIPAVHardwareBufferPool@Ogre@@@std@@@4@$0A@@std@@@2@PAU342@@Z ; std::_Tree<std::_Tmap_traits<unsigned int,Ogre::HardwareBufferPool *,std::less<unsigned int>,std::allocator<std::pair<unsigned int const ,Ogre::HardwareBufferPool *> >,0> >::_Parent
	add	esp, 4
	mov	ecx, DWORD PTR __Pnode$[ebp]
	mov	DWORD PTR [eax], ecx

; 820  : 			_Left(_Pnode) = _Left(_Erasednode);	// link successor down

	mov	edx, DWORD PTR __Erasednode$[ebp]
	push	edx
	call	?_Left@?$_Tree@V?$_Tmap_traits@IPAVHardwareBufferPool@Ogre@@U?$less@I@std@@V?$allocator@U?$pair@$$CBIPAVHardwareBufferPool@Ogre@@@std@@@4@$0A@@std@@@std@@KAAAPAU_Node@?$_Tree_nod@V?$_Tmap_traits@IPAVHardwareBufferPool@Ogre@@U?$less@I@std@@V?$allocator@U?$pair@$$CBIPAVHardwareBufferPool@Ogre@@@std@@@4@$0A@@std@@@2@PAU342@@Z ; std::_Tree<std::_Tmap_traits<unsigned int,Ogre::HardwareBufferPool *,std::less<unsigned int>,std::allocator<std::pair<unsigned int const ,Ogre::HardwareBufferPool *> >,0> >::_Left
	add	esp, 4
	mov	esi, eax
	mov	eax, DWORD PTR __Pnode$[ebp]
	push	eax
	call	?_Left@?$_Tree@V?$_Tmap_traits@IPAVHardwareBufferPool@Ogre@@U?$less@I@std@@V?$allocator@U?$pair@$$CBIPAVHardwareBufferPool@Ogre@@@std@@@4@$0A@@std@@@std@@KAAAPAU_Node@?$_Tree_nod@V?$_Tmap_traits@IPAVHardwareBufferPool@Ogre@@U?$less@I@std@@V?$allocator@U?$pair@$$CBIPAVHardwareBufferPool@Ogre@@@std@@@4@$0A@@std@@@2@PAU342@@Z ; std::_Tree<std::_Tmap_traits<unsigned int,Ogre::HardwareBufferPool *,std::less<unsigned int>,std::allocator<std::pair<unsigned int const ,Ogre::HardwareBufferPool *> >,0> >::_Left
	add	esp, 4
	mov	ecx, DWORD PTR [esi]
	mov	DWORD PTR [eax], ecx

; 821  : 
; 822  : 			if (_Pnode == _Right(_Erasednode))

	mov	edx, DWORD PTR __Erasednode$[ebp]
	push	edx
	call	?_Right@?$_Tree@V?$_Tmap_traits@IPAVHardwareBufferPool@Ogre@@U?$less@I@std@@V?$allocator@U?$pair@$$CBIPAVHardwareBufferPool@Ogre@@@std@@@4@$0A@@std@@@std@@KAAAPAU_Node@?$_Tree_nod@V?$_Tmap_traits@IPAVHardwareBufferPool@Ogre@@U?$less@I@std@@V?$allocator@U?$pair@$$CBIPAVHardwareBufferPool@Ogre@@@std@@@4@$0A@@std@@@2@PAU342@@Z ; std::_Tree<std::_Tmap_traits<unsigned int,Ogre::HardwareBufferPool *,std::less<unsigned int>,std::allocator<std::pair<unsigned int const ,Ogre::HardwareBufferPool *> >,0> >::_Right
	add	esp, 4
	mov	ecx, DWORD PTR __Pnode$[ebp]
	cmp	ecx, DWORD PTR [eax]
	jne	SHORT $LN26@erase@2

; 823  : 				_Fixnodeparent = _Pnode;	// successor is next to erased

	mov	edx, DWORD PTR __Pnode$[ebp]
	mov	DWORD PTR __Fixnodeparent$[ebp], edx

; 824  : 			else

	jmp	$LN25@erase@2
$LN26@erase@2:

; 825  : 				{	// successor further down, link in place of erased
; 826  : 				_Fixnodeparent = _Parent(_Pnode);	// parent is successor's

	mov	eax, DWORD PTR __Pnode$[ebp]
	push	eax
	call	?_Parent@?$_Tree@V?$_Tmap_traits@IPAVHardwareBufferPool@Ogre@@U?$less@I@std@@V?$allocator@U?$pair@$$CBIPAVHardwareBufferPool@Ogre@@@std@@@4@$0A@@std@@@std@@KAAAPAU_Node@?$_Tree_nod@V?$_Tmap_traits@IPAVHardwareBufferPool@Ogre@@U?$less@I@std@@V?$allocator@U?$pair@$$CBIPAVHardwareBufferPool@Ogre@@@std@@@4@$0A@@std@@@2@PAU342@@Z ; std::_Tree<std::_Tmap_traits<unsigned int,Ogre::HardwareBufferPool *,std::less<unsigned int>,std::allocator<std::pair<unsigned int const ,Ogre::HardwareBufferPool *> >,0> >::_Parent
	add	esp, 4
	mov	ecx, DWORD PTR [eax]
	mov	DWORD PTR __Fixnodeparent$[ebp], ecx

; 827  : 				if (!_Isnil(_Fixnode))

	mov	edx, DWORD PTR __Fixnode$[ebp]
	push	edx
	call	?_Isnil@?$_Tree@V?$_Tmap_traits@IPAVHardwareBufferPool@Ogre@@U?$less@I@std@@V?$allocator@U?$pair@$$CBIPAVHardwareBufferPool@Ogre@@@std@@@4@$0A@@std@@@std@@KAAADPAU_Node@?$_Tree_nod@V?$_Tmap_traits@IPAVHardwareBufferPool@Ogre@@U?$less@I@std@@V?$allocator@U?$pair@$$CBIPAVHardwareBufferPool@Ogre@@@std@@@4@$0A@@std@@@2@@Z ; std::_Tree<std::_Tmap_traits<unsigned int,Ogre::HardwareBufferPool *,std::less<unsigned int>,std::allocator<std::pair<unsigned int const ,Ogre::HardwareBufferPool *> >,0> >::_Isnil
	add	esp, 4
	movsx	eax, BYTE PTR [eax]
	test	eax, eax
	jne	SHORT $LN24@erase@2

; 828  : 					_Parent(_Fixnode) = _Fixnodeparent;	// link fix up

	mov	ecx, DWORD PTR __Fixnode$[ebp]
	push	ecx
	call	?_Parent@?$_Tree@V?$_Tmap_traits@IPAVHardwareBufferPool@Ogre@@U?$less@I@std@@V?$allocator@U?$pair@$$CBIPAVHardwareBufferPool@Ogre@@@std@@@4@$0A@@std@@@std@@KAAAPAU_Node@?$_Tree_nod@V?$_Tmap_traits@IPAVHardwareBufferPool@Ogre@@U?$less@I@std@@V?$allocator@U?$pair@$$CBIPAVHardwareBufferPool@Ogre@@@std@@@4@$0A@@std@@@2@PAU342@@Z ; std::_Tree<std::_Tmap_traits<unsigned int,Ogre::HardwareBufferPool *,std::less<unsigned int>,std::allocator<std::pair<unsigned int const ,Ogre::HardwareBufferPool *> >,0> >::_Parent
	add	esp, 4
	mov	edx, DWORD PTR __Fixnodeparent$[ebp]
	mov	DWORD PTR [eax], edx
$LN24@erase@2:

; 829  : 				_Left(_Fixnodeparent) = _Fixnode;	// link fix down

	mov	eax, DWORD PTR __Fixnodeparent$[ebp]
	push	eax
	call	?_Left@?$_Tree@V?$_Tmap_traits@IPAVHardwareBufferPool@Ogre@@U?$less@I@std@@V?$allocator@U?$pair@$$CBIPAVHardwareBufferPool@Ogre@@@std@@@4@$0A@@std@@@std@@KAAAPAU_Node@?$_Tree_nod@V?$_Tmap_traits@IPAVHardwareBufferPool@Ogre@@U?$less@I@std@@V?$allocator@U?$pair@$$CBIPAVHardwareBufferPool@Ogre@@@std@@@4@$0A@@std@@@2@PAU342@@Z ; std::_Tree<std::_Tmap_traits<unsigned int,Ogre::HardwareBufferPool *,std::less<unsigned int>,std::allocator<std::pair<unsigned int const ,Ogre::HardwareBufferPool *> >,0> >::_Left
	add	esp, 4
	mov	ecx, DWORD PTR __Fixnode$[ebp]
	mov	DWORD PTR [eax], ecx

; 830  : 				_Right(_Pnode) = _Right(_Erasednode);	// link successor down

	mov	edx, DWORD PTR __Erasednode$[ebp]
	push	edx
	call	?_Right@?$_Tree@V?$_Tmap_traits@IPAVHardwareBufferPool@Ogre@@U?$less@I@std@@V?$allocator@U?$pair@$$CBIPAVHardwareBufferPool@Ogre@@@std@@@4@$0A@@std@@@std@@KAAAPAU_Node@?$_Tree_nod@V?$_Tmap_traits@IPAVHardwareBufferPool@Ogre@@U?$less@I@std@@V?$allocator@U?$pair@$$CBIPAVHardwareBufferPool@Ogre@@@std@@@4@$0A@@std@@@2@PAU342@@Z ; std::_Tree<std::_Tmap_traits<unsigned int,Ogre::HardwareBufferPool *,std::less<unsigned int>,std::allocator<std::pair<unsigned int const ,Ogre::HardwareBufferPool *> >,0> >::_Right
	add	esp, 4
	mov	esi, eax
	mov	eax, DWORD PTR __Pnode$[ebp]
	push	eax
	call	?_Right@?$_Tree@V?$_Tmap_traits@IPAVHardwareBufferPool@Ogre@@U?$less@I@std@@V?$allocator@U?$pair@$$CBIPAVHardwareBufferPool@Ogre@@@std@@@4@$0A@@std@@@std@@KAAAPAU_Node@?$_Tree_nod@V?$_Tmap_traits@IPAVHardwareBufferPool@Ogre@@U?$less@I@std@@V?$allocator@U?$pair@$$CBIPAVHardwareBufferPool@Ogre@@@std@@@4@$0A@@std@@@2@PAU342@@Z ; std::_Tree<std::_Tmap_traits<unsigned int,Ogre::HardwareBufferPool *,std::less<unsigned int>,std::allocator<std::pair<unsigned int const ,Ogre::HardwareBufferPool *> >,0> >::_Right
	add	esp, 4
	mov	ecx, DWORD PTR [esi]
	mov	DWORD PTR [eax], ecx

; 831  : 				_Parent(_Right(_Erasednode)) = _Pnode;	// link right up

	mov	edx, DWORD PTR __Erasednode$[ebp]
	push	edx
	call	?_Right@?$_Tree@V?$_Tmap_traits@IPAVHardwareBufferPool@Ogre@@U?$less@I@std@@V?$allocator@U?$pair@$$CBIPAVHardwareBufferPool@Ogre@@@std@@@4@$0A@@std@@@std@@KAAAPAU_Node@?$_Tree_nod@V?$_Tmap_traits@IPAVHardwareBufferPool@Ogre@@U?$less@I@std@@V?$allocator@U?$pair@$$CBIPAVHardwareBufferPool@Ogre@@@std@@@4@$0A@@std@@@2@PAU342@@Z ; std::_Tree<std::_Tmap_traits<unsigned int,Ogre::HardwareBufferPool *,std::less<unsigned int>,std::allocator<std::pair<unsigned int const ,Ogre::HardwareBufferPool *> >,0> >::_Right
	add	esp, 4
	mov	eax, DWORD PTR [eax]
	push	eax
	call	?_Parent@?$_Tree@V?$_Tmap_traits@IPAVHardwareBufferPool@Ogre@@U?$less@I@std@@V?$allocator@U?$pair@$$CBIPAVHardwareBufferPool@Ogre@@@std@@@4@$0A@@std@@@std@@KAAAPAU_Node@?$_Tree_nod@V?$_Tmap_traits@IPAVHardwareBufferPool@Ogre@@U?$less@I@std@@V?$allocator@U?$pair@$$CBIPAVHardwareBufferPool@Ogre@@@std@@@4@$0A@@std@@@2@PAU342@@Z ; std::_Tree<std::_Tmap_traits<unsigned int,Ogre::HardwareBufferPool *,std::less<unsigned int>,std::allocator<std::pair<unsigned int const ,Ogre::HardwareBufferPool *> >,0> >::_Parent
	add	esp, 4
	mov	ecx, DWORD PTR __Pnode$[ebp]
	mov	DWORD PTR [eax], ecx
$LN25@erase@2:

; 832  : 				}
; 833  : 
; 834  : 			if (_Root() == _Erasednode)

	mov	ecx, DWORD PTR _this$[ebp]
	call	?_Root@?$_Tree@V?$_Tmap_traits@IPAVHardwareBufferPool@Ogre@@U?$less@I@std@@V?$allocator@U?$pair@$$CBIPAVHardwareBufferPool@Ogre@@@std@@@4@$0A@@std@@@std@@IBEAAPAU_Node@?$_Tree_nod@V?$_Tmap_traits@IPAVHardwareBufferPool@Ogre@@U?$less@I@std@@V?$allocator@U?$pair@$$CBIPAVHardwareBufferPool@Ogre@@@std@@@4@$0A@@std@@@2@XZ ; std::_Tree<std::_Tmap_traits<unsigned int,Ogre::HardwareBufferPool *,std::less<unsigned int>,std::allocator<std::pair<unsigned int const ,Ogre::HardwareBufferPool *> >,0> >::_Root
	mov	edx, DWORD PTR [eax]
	cmp	edx, DWORD PTR __Erasednode$[ebp]
	jne	SHORT $LN23@erase@2

; 835  : 				_Root() = _Pnode;	// link down from root

	mov	ecx, DWORD PTR _this$[ebp]
	call	?_Root@?$_Tree@V?$_Tmap_traits@IPAVHardwareBufferPool@Ogre@@U?$less@I@std@@V?$allocator@U?$pair@$$CBIPAVHardwareBufferPool@Ogre@@@std@@@4@$0A@@std@@@std@@IBEAAPAU_Node@?$_Tree_nod@V?$_Tmap_traits@IPAVHardwareBufferPool@Ogre@@U?$less@I@std@@V?$allocator@U?$pair@$$CBIPAVHardwareBufferPool@Ogre@@@std@@@4@$0A@@std@@@2@XZ ; std::_Tree<std::_Tmap_traits<unsigned int,Ogre::HardwareBufferPool *,std::less<unsigned int>,std::allocator<std::pair<unsigned int const ,Ogre::HardwareBufferPool *> >,0> >::_Root
	mov	ecx, DWORD PTR __Pnode$[ebp]
	mov	DWORD PTR [eax], ecx
	jmp	SHORT $LN22@erase@2
$LN23@erase@2:

; 836  : 			else if (_Left(_Parent(_Erasednode)) == _Erasednode)

	mov	edx, DWORD PTR __Erasednode$[ebp]
	push	edx
	call	?_Parent@?$_Tree@V?$_Tmap_traits@IPAVHardwareBufferPool@Ogre@@U?$less@I@std@@V?$allocator@U?$pair@$$CBIPAVHardwareBufferPool@Ogre@@@std@@@4@$0A@@std@@@std@@KAAAPAU_Node@?$_Tree_nod@V?$_Tmap_traits@IPAVHardwareBufferPool@Ogre@@U?$less@I@std@@V?$allocator@U?$pair@$$CBIPAVHardwareBufferPool@Ogre@@@std@@@4@$0A@@std@@@2@PAU342@@Z ; std::_Tree<std::_Tmap_traits<unsigned int,Ogre::HardwareBufferPool *,std::less<unsigned int>,std::allocator<std::pair<unsigned int const ,Ogre::HardwareBufferPool *> >,0> >::_Parent
	add	esp, 4
	mov	eax, DWORD PTR [eax]
	push	eax
	call	?_Left@?$_Tree@V?$_Tmap_traits@IPAVHardwareBufferPool@Ogre@@U?$less@I@std@@V?$allocator@U?$pair@$$CBIPAVHardwareBufferPool@Ogre@@@std@@@4@$0A@@std@@@std@@KAAAPAU_Node@?$_Tree_nod@V?$_Tmap_traits@IPAVHardwareBufferPool@Ogre@@U?$less@I@std@@V?$allocator@U?$pair@$$CBIPAVHardwareBufferPool@Ogre@@@std@@@4@$0A@@std@@@2@PAU342@@Z ; std::_Tree<std::_Tmap_traits<unsigned int,Ogre::HardwareBufferPool *,std::less<unsigned int>,std::allocator<std::pair<unsigned int const ,Ogre::HardwareBufferPool *> >,0> >::_Left
	add	esp, 4
	mov	ecx, DWORD PTR [eax]
	cmp	ecx, DWORD PTR __Erasednode$[ebp]
	jne	SHORT $LN21@erase@2

; 837  : 				_Left(_Parent(_Erasednode)) = _Pnode;	// link down to left

	mov	edx, DWORD PTR __Erasednode$[ebp]
	push	edx
	call	?_Parent@?$_Tree@V?$_Tmap_traits@IPAVHardwareBufferPool@Ogre@@U?$less@I@std@@V?$allocator@U?$pair@$$CBIPAVHardwareBufferPool@Ogre@@@std@@@4@$0A@@std@@@std@@KAAAPAU_Node@?$_Tree_nod@V?$_Tmap_traits@IPAVHardwareBufferPool@Ogre@@U?$less@I@std@@V?$allocator@U?$pair@$$CBIPAVHardwareBufferPool@Ogre@@@std@@@4@$0A@@std@@@2@PAU342@@Z ; std::_Tree<std::_Tmap_traits<unsigned int,Ogre::HardwareBufferPool *,std::less<unsigned int>,std::allocator<std::pair<unsigned int const ,Ogre::HardwareBufferPool *> >,0> >::_Parent
	add	esp, 4
	mov	eax, DWORD PTR [eax]
	push	eax
	call	?_Left@?$_Tree@V?$_Tmap_traits@IPAVHardwareBufferPool@Ogre@@U?$less@I@std@@V?$allocator@U?$pair@$$CBIPAVHardwareBufferPool@Ogre@@@std@@@4@$0A@@std@@@std@@KAAAPAU_Node@?$_Tree_nod@V?$_Tmap_traits@IPAVHardwareBufferPool@Ogre@@U?$less@I@std@@V?$allocator@U?$pair@$$CBIPAVHardwareBufferPool@Ogre@@@std@@@4@$0A@@std@@@2@PAU342@@Z ; std::_Tree<std::_Tmap_traits<unsigned int,Ogre::HardwareBufferPool *,std::less<unsigned int>,std::allocator<std::pair<unsigned int const ,Ogre::HardwareBufferPool *> >,0> >::_Left
	add	esp, 4
	mov	ecx, DWORD PTR __Pnode$[ebp]
	mov	DWORD PTR [eax], ecx

; 838  : 			else

	jmp	SHORT $LN22@erase@2
$LN21@erase@2:

; 839  : 				_Right(_Parent(_Erasednode)) = _Pnode;	// link down to right

	mov	edx, DWORD PTR __Erasednode$[ebp]
	push	edx
	call	?_Parent@?$_Tree@V?$_Tmap_traits@IPAVHardwareBufferPool@Ogre@@U?$less@I@std@@V?$allocator@U?$pair@$$CBIPAVHardwareBufferPool@Ogre@@@std@@@4@$0A@@std@@@std@@KAAAPAU_Node@?$_Tree_nod@V?$_Tmap_traits@IPAVHardwareBufferPool@Ogre@@U?$less@I@std@@V?$allocator@U?$pair@$$CBIPAVHardwareBufferPool@Ogre@@@std@@@4@$0A@@std@@@2@PAU342@@Z ; std::_Tree<std::_Tmap_traits<unsigned int,Ogre::HardwareBufferPool *,std::less<unsigned int>,std::allocator<std::pair<unsigned int const ,Ogre::HardwareBufferPool *> >,0> >::_Parent
	add	esp, 4
	mov	eax, DWORD PTR [eax]
	push	eax
	call	?_Right@?$_Tree@V?$_Tmap_traits@IPAVHardwareBufferPool@Ogre@@U?$less@I@std@@V?$allocator@U?$pair@$$CBIPAVHardwareBufferPool@Ogre@@@std@@@4@$0A@@std@@@std@@KAAAPAU_Node@?$_Tree_nod@V?$_Tmap_traits@IPAVHardwareBufferPool@Ogre@@U?$less@I@std@@V?$allocator@U?$pair@$$CBIPAVHardwareBufferPool@Ogre@@@std@@@4@$0A@@std@@@2@PAU342@@Z ; std::_Tree<std::_Tmap_traits<unsigned int,Ogre::HardwareBufferPool *,std::less<unsigned int>,std::allocator<std::pair<unsigned int const ,Ogre::HardwareBufferPool *> >,0> >::_Right
	add	esp, 4
	mov	ecx, DWORD PTR __Pnode$[ebp]
	mov	DWORD PTR [eax], ecx
$LN22@erase@2:

; 840  : 
; 841  : 			_Parent(_Pnode) = _Parent(_Erasednode);	// link successor up

	mov	edx, DWORD PTR __Erasednode$[ebp]
	push	edx
	call	?_Parent@?$_Tree@V?$_Tmap_traits@IPAVHardwareBufferPool@Ogre@@U?$less@I@std@@V?$allocator@U?$pair@$$CBIPAVHardwareBufferPool@Ogre@@@std@@@4@$0A@@std@@@std@@KAAAPAU_Node@?$_Tree_nod@V?$_Tmap_traits@IPAVHardwareBufferPool@Ogre@@U?$less@I@std@@V?$allocator@U?$pair@$$CBIPAVHardwareBufferPool@Ogre@@@std@@@4@$0A@@std@@@2@PAU342@@Z ; std::_Tree<std::_Tmap_traits<unsigned int,Ogre::HardwareBufferPool *,std::less<unsigned int>,std::allocator<std::pair<unsigned int const ,Ogre::HardwareBufferPool *> >,0> >::_Parent
	add	esp, 4
	mov	esi, eax
	mov	eax, DWORD PTR __Pnode$[ebp]
	push	eax
	call	?_Parent@?$_Tree@V?$_Tmap_traits@IPAVHardwareBufferPool@Ogre@@U?$less@I@std@@V?$allocator@U?$pair@$$CBIPAVHardwareBufferPool@Ogre@@@std@@@4@$0A@@std@@@std@@KAAAPAU_Node@?$_Tree_nod@V?$_Tmap_traits@IPAVHardwareBufferPool@Ogre@@U?$less@I@std@@V?$allocator@U?$pair@$$CBIPAVHardwareBufferPool@Ogre@@@std@@@4@$0A@@std@@@2@PAU342@@Z ; std::_Tree<std::_Tmap_traits<unsigned int,Ogre::HardwareBufferPool *,std::less<unsigned int>,std::allocator<std::pair<unsigned int const ,Ogre::HardwareBufferPool *> >,0> >::_Parent
	add	esp, 4
	mov	ecx, DWORD PTR [esi]
	mov	DWORD PTR [eax], ecx

; 842  : 			_STD swap(_Color(_Pnode), _Color(_Erasednode));	// recolor it

	mov	edx, DWORD PTR __Erasednode$[ebp]
	push	edx
	call	?_Color@?$_Tree@V?$_Tmap_traits@IPAVHardwareBufferPool@Ogre@@U?$less@I@std@@V?$allocator@U?$pair@$$CBIPAVHardwareBufferPool@Ogre@@@std@@@4@$0A@@std@@@std@@KAAADPAU_Node@?$_Tree_nod@V?$_Tmap_traits@IPAVHardwareBufferPool@Ogre@@U?$less@I@std@@V?$allocator@U?$pair@$$CBIPAVHardwareBufferPool@Ogre@@@std@@@4@$0A@@std@@@2@@Z ; std::_Tree<std::_Tmap_traits<unsigned int,Ogre::HardwareBufferPool *,std::less<unsigned int>,std::allocator<std::pair<unsigned int const ,Ogre::HardwareBufferPool *> >,0> >::_Color
	add	esp, 4
	push	eax
	mov	eax, DWORD PTR __Pnode$[ebp]
	push	eax
	call	?_Color@?$_Tree@V?$_Tmap_traits@IPAVHardwareBufferPool@Ogre@@U?$less@I@std@@V?$allocator@U?$pair@$$CBIPAVHardwareBufferPool@Ogre@@@std@@@4@$0A@@std@@@std@@KAAADPAU_Node@?$_Tree_nod@V?$_Tmap_traits@IPAVHardwareBufferPool@Ogre@@U?$less@I@std@@V?$allocator@U?$pair@$$CBIPAVHardwareBufferPool@Ogre@@@std@@@4@$0A@@std@@@2@@Z ; std::_Tree<std::_Tmap_traits<unsigned int,Ogre::HardwareBufferPool *,std::less<unsigned int>,std::allocator<std::pair<unsigned int const ,Ogre::HardwareBufferPool *> >,0> >::_Color
	add	esp, 4
	push	eax
	call	??$swap@D@std@@YAXAAD0@Z		; std::swap<char>
	add	esp, 8
$LN27@erase@2:

; 843  : 			}
; 844  : 
; 845  : 		if (_Color(_Erasednode) == _Black)

	mov	ecx, DWORD PTR __Erasednode$[ebp]
	push	ecx
	call	?_Color@?$_Tree@V?$_Tmap_traits@IPAVHardwareBufferPool@Ogre@@U?$less@I@std@@V?$allocator@U?$pair@$$CBIPAVHardwareBufferPool@Ogre@@@std@@@4@$0A@@std@@@std@@KAAADPAU_Node@?$_Tree_nod@V?$_Tmap_traits@IPAVHardwareBufferPool@Ogre@@U?$less@I@std@@V?$allocator@U?$pair@$$CBIPAVHardwareBufferPool@Ogre@@@std@@@4@$0A@@std@@@2@@Z ; std::_Tree<std::_Tmap_traits<unsigned int,Ogre::HardwareBufferPool *,std::less<unsigned int>,std::allocator<std::pair<unsigned int const ,Ogre::HardwareBufferPool *> >,0> >::_Color
	add	esp, 4
	movsx	edx, BYTE PTR [eax]
	cmp	edx, 1
	jne	$LN19@erase@2

; 846  : 			{	// erasing black link, must recolor/rebalance tree
; 847  : 			for (; _Fixnode != _Root() && _Color(_Fixnode) == _Black;
; 848  : 				_Fixnodeparent = _Parent(_Fixnode))

	jmp	SHORT $LN18@erase@2
$LN17@erase@2:
	mov	eax, DWORD PTR __Fixnode$[ebp]
	push	eax
	call	?_Parent@?$_Tree@V?$_Tmap_traits@IPAVHardwareBufferPool@Ogre@@U?$less@I@std@@V?$allocator@U?$pair@$$CBIPAVHardwareBufferPool@Ogre@@@std@@@4@$0A@@std@@@std@@KAAAPAU_Node@?$_Tree_nod@V?$_Tmap_traits@IPAVHardwareBufferPool@Ogre@@U?$less@I@std@@V?$allocator@U?$pair@$$CBIPAVHardwareBufferPool@Ogre@@@std@@@4@$0A@@std@@@2@PAU342@@Z ; std::_Tree<std::_Tmap_traits<unsigned int,Ogre::HardwareBufferPool *,std::less<unsigned int>,std::allocator<std::pair<unsigned int const ,Ogre::HardwareBufferPool *> >,0> >::_Parent
	add	esp, 4
	mov	ecx, DWORD PTR [eax]
	mov	DWORD PTR __Fixnodeparent$[ebp], ecx
$LN18@erase@2:
	mov	ecx, DWORD PTR _this$[ebp]
	call	?_Root@?$_Tree@V?$_Tmap_traits@IPAVHardwareBufferPool@Ogre@@U?$less@I@std@@V?$allocator@U?$pair@$$CBIPAVHardwareBufferPool@Ogre@@@std@@@4@$0A@@std@@@std@@IBEAAPAU_Node@?$_Tree_nod@V?$_Tmap_traits@IPAVHardwareBufferPool@Ogre@@U?$less@I@std@@V?$allocator@U?$pair@$$CBIPAVHardwareBufferPool@Ogre@@@std@@@4@$0A@@std@@@2@XZ ; std::_Tree<std::_Tmap_traits<unsigned int,Ogre::HardwareBufferPool *,std::less<unsigned int>,std::allocator<std::pair<unsigned int const ,Ogre::HardwareBufferPool *> >,0> >::_Root
	mov	edx, DWORD PTR __Fixnode$[ebp]
	cmp	edx, DWORD PTR [eax]
	je	$LN16@erase@2
	mov	eax, DWORD PTR __Fixnode$[ebp]
	push	eax
	call	?_Color@?$_Tree@V?$_Tmap_traits@IPAVHardwareBufferPool@Ogre@@U?$less@I@std@@V?$allocator@U?$pair@$$CBIPAVHardwareBufferPool@Ogre@@@std@@@4@$0A@@std@@@std@@KAAADPAU_Node@?$_Tree_nod@V?$_Tmap_traits@IPAVHardwareBufferPool@Ogre@@U?$less@I@std@@V?$allocator@U?$pair@$$CBIPAVHardwareBufferPool@Ogre@@@std@@@4@$0A@@std@@@2@@Z ; std::_Tree<std::_Tmap_traits<unsigned int,Ogre::HardwareBufferPool *,std::less<unsigned int>,std::allocator<std::pair<unsigned int const ,Ogre::HardwareBufferPool *> >,0> >::_Color
	add	esp, 4
	movsx	ecx, BYTE PTR [eax]
	cmp	ecx, 1
	jne	$LN16@erase@2

; 849  : 				if (_Fixnode == _Left(_Fixnodeparent))

	mov	edx, DWORD PTR __Fixnodeparent$[ebp]
	push	edx
	call	?_Left@?$_Tree@V?$_Tmap_traits@IPAVHardwareBufferPool@Ogre@@U?$less@I@std@@V?$allocator@U?$pair@$$CBIPAVHardwareBufferPool@Ogre@@@std@@@4@$0A@@std@@@std@@KAAAPAU_Node@?$_Tree_nod@V?$_Tmap_traits@IPAVHardwareBufferPool@Ogre@@U?$less@I@std@@V?$allocator@U?$pair@$$CBIPAVHardwareBufferPool@Ogre@@@std@@@4@$0A@@std@@@2@PAU342@@Z ; std::_Tree<std::_Tmap_traits<unsigned int,Ogre::HardwareBufferPool *,std::less<unsigned int>,std::allocator<std::pair<unsigned int const ,Ogre::HardwareBufferPool *> >,0> >::_Left
	add	esp, 4
	mov	ecx, DWORD PTR __Fixnode$[ebp]
	cmp	ecx, DWORD PTR [eax]
	jne	$LN15@erase@2

; 850  : 					{	// fixup left subtree
; 851  : 					_Pnode = _Right(_Fixnodeparent);

	mov	edx, DWORD PTR __Fixnodeparent$[ebp]
	push	edx
	call	?_Right@?$_Tree@V?$_Tmap_traits@IPAVHardwareBufferPool@Ogre@@U?$less@I@std@@V?$allocator@U?$pair@$$CBIPAVHardwareBufferPool@Ogre@@@std@@@4@$0A@@std@@@std@@KAAAPAU_Node@?$_Tree_nod@V?$_Tmap_traits@IPAVHardwareBufferPool@Ogre@@U?$less@I@std@@V?$allocator@U?$pair@$$CBIPAVHardwareBufferPool@Ogre@@@std@@@4@$0A@@std@@@2@PAU342@@Z ; std::_Tree<std::_Tmap_traits<unsigned int,Ogre::HardwareBufferPool *,std::less<unsigned int>,std::allocator<std::pair<unsigned int const ,Ogre::HardwareBufferPool *> >,0> >::_Right
	add	esp, 4
	mov	eax, DWORD PTR [eax]
	mov	DWORD PTR __Pnode$[ebp], eax

; 852  : 					if (_Color(_Pnode) == _Red)

	mov	ecx, DWORD PTR __Pnode$[ebp]
	push	ecx
	call	?_Color@?$_Tree@V?$_Tmap_traits@IPAVHardwareBufferPool@Ogre@@U?$less@I@std@@V?$allocator@U?$pair@$$CBIPAVHardwareBufferPool@Ogre@@@std@@@4@$0A@@std@@@std@@KAAADPAU_Node@?$_Tree_nod@V?$_Tmap_traits@IPAVHardwareBufferPool@Ogre@@U?$less@I@std@@V?$allocator@U?$pair@$$CBIPAVHardwareBufferPool@Ogre@@@std@@@4@$0A@@std@@@2@@Z ; std::_Tree<std::_Tmap_traits<unsigned int,Ogre::HardwareBufferPool *,std::less<unsigned int>,std::allocator<std::pair<unsigned int const ,Ogre::HardwareBufferPool *> >,0> >::_Color
	add	esp, 4
	movsx	edx, BYTE PTR [eax]
	test	edx, edx
	jne	SHORT $LN14@erase@2

; 853  : 						{	// rotate red up from right subtree
; 854  : 						_Color(_Pnode) = _Black;

	mov	eax, DWORD PTR __Pnode$[ebp]
	push	eax
	call	?_Color@?$_Tree@V?$_Tmap_traits@IPAVHardwareBufferPool@Ogre@@U?$less@I@std@@V?$allocator@U?$pair@$$CBIPAVHardwareBufferPool@Ogre@@@std@@@4@$0A@@std@@@std@@KAAADPAU_Node@?$_Tree_nod@V?$_Tmap_traits@IPAVHardwareBufferPool@Ogre@@U?$less@I@std@@V?$allocator@U?$pair@$$CBIPAVHardwareBufferPool@Ogre@@@std@@@4@$0A@@std@@@2@@Z ; std::_Tree<std::_Tmap_traits<unsigned int,Ogre::HardwareBufferPool *,std::less<unsigned int>,std::allocator<std::pair<unsigned int const ,Ogre::HardwareBufferPool *> >,0> >::_Color
	add	esp, 4
	mov	BYTE PTR [eax], 1

; 855  : 						_Color(_Fixnodeparent) = _Red;

	mov	ecx, DWORD PTR __Fixnodeparent$[ebp]
	push	ecx
	call	?_Color@?$_Tree@V?$_Tmap_traits@IPAVHardwareBufferPool@Ogre@@U?$less@I@std@@V?$allocator@U?$pair@$$CBIPAVHardwareBufferPool@Ogre@@@std@@@4@$0A@@std@@@std@@KAAADPAU_Node@?$_Tree_nod@V?$_Tmap_traits@IPAVHardwareBufferPool@Ogre@@U?$less@I@std@@V?$allocator@U?$pair@$$CBIPAVHardwareBufferPool@Ogre@@@std@@@4@$0A@@std@@@2@@Z ; std::_Tree<std::_Tmap_traits<unsigned int,Ogre::HardwareBufferPool *,std::less<unsigned int>,std::allocator<std::pair<unsigned int const ,Ogre::HardwareBufferPool *> >,0> >::_Color
	add	esp, 4
	mov	BYTE PTR [eax], 0

; 856  : 						_Lrotate(_Fixnodeparent);

	mov	edx, DWORD PTR __Fixnodeparent$[ebp]
	push	edx
	mov	ecx, DWORD PTR _this$[ebp]
	call	?_Lrotate@?$_Tree@V?$_Tmap_traits@IPAVHardwareBufferPool@Ogre@@U?$less@I@std@@V?$allocator@U?$pair@$$CBIPAVHardwareBufferPool@Ogre@@@std@@@4@$0A@@std@@@std@@IAEXPAU_Node@?$_Tree_nod@V?$_Tmap_traits@IPAVHardwareBufferPool@Ogre@@U?$less@I@std@@V?$allocator@U?$pair@$$CBIPAVHardwareBufferPool@Ogre@@@std@@@4@$0A@@std@@@2@@Z ; std::_Tree<std::_Tmap_traits<unsigned int,Ogre::HardwareBufferPool *,std::less<unsigned int>,std::allocator<std::pair<unsigned int const ,Ogre::HardwareBufferPool *> >,0> >::_Lrotate

; 857  : 						_Pnode = _Right(_Fixnodeparent);

	mov	eax, DWORD PTR __Fixnodeparent$[ebp]
	push	eax
	call	?_Right@?$_Tree@V?$_Tmap_traits@IPAVHardwareBufferPool@Ogre@@U?$less@I@std@@V?$allocator@U?$pair@$$CBIPAVHardwareBufferPool@Ogre@@@std@@@4@$0A@@std@@@std@@KAAAPAU_Node@?$_Tree_nod@V?$_Tmap_traits@IPAVHardwareBufferPool@Ogre@@U?$less@I@std@@V?$allocator@U?$pair@$$CBIPAVHardwareBufferPool@Ogre@@@std@@@4@$0A@@std@@@2@PAU342@@Z ; std::_Tree<std::_Tmap_traits<unsigned int,Ogre::HardwareBufferPool *,std::less<unsigned int>,std::allocator<std::pair<unsigned int const ,Ogre::HardwareBufferPool *> >,0> >::_Right
	add	esp, 4
	mov	ecx, DWORD PTR [eax]
	mov	DWORD PTR __Pnode$[ebp], ecx
$LN14@erase@2:

; 858  : 						}
; 859  : 
; 860  : 					if (_Isnil(_Pnode))

	mov	edx, DWORD PTR __Pnode$[ebp]
	push	edx
	call	?_Isnil@?$_Tree@V?$_Tmap_traits@IPAVHardwareBufferPool@Ogre@@U?$less@I@std@@V?$allocator@U?$pair@$$CBIPAVHardwareBufferPool@Ogre@@@std@@@4@$0A@@std@@@std@@KAAADPAU_Node@?$_Tree_nod@V?$_Tmap_traits@IPAVHardwareBufferPool@Ogre@@U?$less@I@std@@V?$allocator@U?$pair@$$CBIPAVHardwareBufferPool@Ogre@@@std@@@4@$0A@@std@@@2@@Z ; std::_Tree<std::_Tmap_traits<unsigned int,Ogre::HardwareBufferPool *,std::less<unsigned int>,std::allocator<std::pair<unsigned int const ,Ogre::HardwareBufferPool *> >,0> >::_Isnil
	add	esp, 4
	movsx	eax, BYTE PTR [eax]
	test	eax, eax
	je	SHORT $LN13@erase@2

; 861  : 						_Fixnode = _Fixnodeparent;	// shouldn't happen

	mov	ecx, DWORD PTR __Fixnodeparent$[ebp]
	mov	DWORD PTR __Fixnode$[ebp], ecx

; 862  : 					else if (_Color(_Left(_Pnode)) == _Black

	jmp	$LN12@erase@2
$LN13@erase@2:

; 863  : 						&& _Color(_Right(_Pnode)) == _Black)

	mov	edx, DWORD PTR __Pnode$[ebp]
	push	edx
	call	?_Left@?$_Tree@V?$_Tmap_traits@IPAVHardwareBufferPool@Ogre@@U?$less@I@std@@V?$allocator@U?$pair@$$CBIPAVHardwareBufferPool@Ogre@@@std@@@4@$0A@@std@@@std@@KAAAPAU_Node@?$_Tree_nod@V?$_Tmap_traits@IPAVHardwareBufferPool@Ogre@@U?$less@I@std@@V?$allocator@U?$pair@$$CBIPAVHardwareBufferPool@Ogre@@@std@@@4@$0A@@std@@@2@PAU342@@Z ; std::_Tree<std::_Tmap_traits<unsigned int,Ogre::HardwareBufferPool *,std::less<unsigned int>,std::allocator<std::pair<unsigned int const ,Ogre::HardwareBufferPool *> >,0> >::_Left
	add	esp, 4
	mov	eax, DWORD PTR [eax]
	push	eax
	call	?_Color@?$_Tree@V?$_Tmap_traits@IPAVHardwareBufferPool@Ogre@@U?$less@I@std@@V?$allocator@U?$pair@$$CBIPAVHardwareBufferPool@Ogre@@@std@@@4@$0A@@std@@@std@@KAAADPAU_Node@?$_Tree_nod@V?$_Tmap_traits@IPAVHardwareBufferPool@Ogre@@U?$less@I@std@@V?$allocator@U?$pair@$$CBIPAVHardwareBufferPool@Ogre@@@std@@@4@$0A@@std@@@2@@Z ; std::_Tree<std::_Tmap_traits<unsigned int,Ogre::HardwareBufferPool *,std::less<unsigned int>,std::allocator<std::pair<unsigned int const ,Ogre::HardwareBufferPool *> >,0> >::_Color
	add	esp, 4
	movsx	ecx, BYTE PTR [eax]
	cmp	ecx, 1
	jne	SHORT $LN11@erase@2
	mov	edx, DWORD PTR __Pnode$[ebp]
	push	edx
	call	?_Right@?$_Tree@V?$_Tmap_traits@IPAVHardwareBufferPool@Ogre@@U?$less@I@std@@V?$allocator@U?$pair@$$CBIPAVHardwareBufferPool@Ogre@@@std@@@4@$0A@@std@@@std@@KAAAPAU_Node@?$_Tree_nod@V?$_Tmap_traits@IPAVHardwareBufferPool@Ogre@@U?$less@I@std@@V?$allocator@U?$pair@$$CBIPAVHardwareBufferPool@Ogre@@@std@@@4@$0A@@std@@@2@PAU342@@Z ; std::_Tree<std::_Tmap_traits<unsigned int,Ogre::HardwareBufferPool *,std::less<unsigned int>,std::allocator<std::pair<unsigned int const ,Ogre::HardwareBufferPool *> >,0> >::_Right
	add	esp, 4
	mov	eax, DWORD PTR [eax]
	push	eax
	call	?_Color@?$_Tree@V?$_Tmap_traits@IPAVHardwareBufferPool@Ogre@@U?$less@I@std@@V?$allocator@U?$pair@$$CBIPAVHardwareBufferPool@Ogre@@@std@@@4@$0A@@std@@@std@@KAAADPAU_Node@?$_Tree_nod@V?$_Tmap_traits@IPAVHardwareBufferPool@Ogre@@U?$less@I@std@@V?$allocator@U?$pair@$$CBIPAVHardwareBufferPool@Ogre@@@std@@@4@$0A@@std@@@2@@Z ; std::_Tree<std::_Tmap_traits<unsigned int,Ogre::HardwareBufferPool *,std::less<unsigned int>,std::allocator<std::pair<unsigned int const ,Ogre::HardwareBufferPool *> >,0> >::_Color
	add	esp, 4
	movsx	ecx, BYTE PTR [eax]
	cmp	ecx, 1
	jne	SHORT $LN11@erase@2

; 864  : 						{	// redden right subtree with black children
; 865  : 						_Color(_Pnode) = _Red;

	mov	edx, DWORD PTR __Pnode$[ebp]
	push	edx
	call	?_Color@?$_Tree@V?$_Tmap_traits@IPAVHardwareBufferPool@Ogre@@U?$less@I@std@@V?$allocator@U?$pair@$$CBIPAVHardwareBufferPool@Ogre@@@std@@@4@$0A@@std@@@std@@KAAADPAU_Node@?$_Tree_nod@V?$_Tmap_traits@IPAVHardwareBufferPool@Ogre@@U?$less@I@std@@V?$allocator@U?$pair@$$CBIPAVHardwareBufferPool@Ogre@@@std@@@4@$0A@@std@@@2@@Z ; std::_Tree<std::_Tmap_traits<unsigned int,Ogre::HardwareBufferPool *,std::less<unsigned int>,std::allocator<std::pair<unsigned int const ,Ogre::HardwareBufferPool *> >,0> >::_Color
	add	esp, 4
	mov	BYTE PTR [eax], 0

; 866  : 						_Fixnode = _Fixnodeparent;

	mov	eax, DWORD PTR __Fixnodeparent$[ebp]
	mov	DWORD PTR __Fixnode$[ebp], eax

; 867  : 						}
; 868  : 					else

	jmp	$LN12@erase@2
$LN11@erase@2:

; 869  : 						{	// must rearrange right subtree
; 870  : 						if (_Color(_Right(_Pnode)) == _Black)

	mov	ecx, DWORD PTR __Pnode$[ebp]
	push	ecx
	call	?_Right@?$_Tree@V?$_Tmap_traits@IPAVHardwareBufferPool@Ogre@@U?$less@I@std@@V?$allocator@U?$pair@$$CBIPAVHardwareBufferPool@Ogre@@@std@@@4@$0A@@std@@@std@@KAAAPAU_Node@?$_Tree_nod@V?$_Tmap_traits@IPAVHardwareBufferPool@Ogre@@U?$less@I@std@@V?$allocator@U?$pair@$$CBIPAVHardwareBufferPool@Ogre@@@std@@@4@$0A@@std@@@2@PAU342@@Z ; std::_Tree<std::_Tmap_traits<unsigned int,Ogre::HardwareBufferPool *,std::less<unsigned int>,std::allocator<std::pair<unsigned int const ,Ogre::HardwareBufferPool *> >,0> >::_Right
	add	esp, 4
	mov	edx, DWORD PTR [eax]
	push	edx
	call	?_Color@?$_Tree@V?$_Tmap_traits@IPAVHardwareBufferPool@Ogre@@U?$less@I@std@@V?$allocator@U?$pair@$$CBIPAVHardwareBufferPool@Ogre@@@std@@@4@$0A@@std@@@std@@KAAADPAU_Node@?$_Tree_nod@V?$_Tmap_traits@IPAVHardwareBufferPool@Ogre@@U?$less@I@std@@V?$allocator@U?$pair@$$CBIPAVHardwareBufferPool@Ogre@@@std@@@4@$0A@@std@@@2@@Z ; std::_Tree<std::_Tmap_traits<unsigned int,Ogre::HardwareBufferPool *,std::less<unsigned int>,std::allocator<std::pair<unsigned int const ,Ogre::HardwareBufferPool *> >,0> >::_Color
	add	esp, 4
	movsx	eax, BYTE PTR [eax]
	cmp	eax, 1
	jne	SHORT $LN9@erase@2

; 871  : 							{	// rotate red up from left sub-subtree
; 872  : 							_Color(_Left(_Pnode)) = _Black;

	mov	ecx, DWORD PTR __Pnode$[ebp]
	push	ecx
	call	?_Left@?$_Tree@V?$_Tmap_traits@IPAVHardwareBufferPool@Ogre@@U?$less@I@std@@V?$allocator@U?$pair@$$CBIPAVHardwareBufferPool@Ogre@@@std@@@4@$0A@@std@@@std@@KAAAPAU_Node@?$_Tree_nod@V?$_Tmap_traits@IPAVHardwareBufferPool@Ogre@@U?$less@I@std@@V?$allocator@U?$pair@$$CBIPAVHardwareBufferPool@Ogre@@@std@@@4@$0A@@std@@@2@PAU342@@Z ; std::_Tree<std::_Tmap_traits<unsigned int,Ogre::HardwareBufferPool *,std::less<unsigned int>,std::allocator<std::pair<unsigned int const ,Ogre::HardwareBufferPool *> >,0> >::_Left
	add	esp, 4
	mov	edx, DWORD PTR [eax]
	push	edx
	call	?_Color@?$_Tree@V?$_Tmap_traits@IPAVHardwareBufferPool@Ogre@@U?$less@I@std@@V?$allocator@U?$pair@$$CBIPAVHardwareBufferPool@Ogre@@@std@@@4@$0A@@std@@@std@@KAAADPAU_Node@?$_Tree_nod@V?$_Tmap_traits@IPAVHardwareBufferPool@Ogre@@U?$less@I@std@@V?$allocator@U?$pair@$$CBIPAVHardwareBufferPool@Ogre@@@std@@@4@$0A@@std@@@2@@Z ; std::_Tree<std::_Tmap_traits<unsigned int,Ogre::HardwareBufferPool *,std::less<unsigned int>,std::allocator<std::pair<unsigned int const ,Ogre::HardwareBufferPool *> >,0> >::_Color
	add	esp, 4
	mov	BYTE PTR [eax], 1

; 873  : 							_Color(_Pnode) = _Red;

	mov	eax, DWORD PTR __Pnode$[ebp]
	push	eax
	call	?_Color@?$_Tree@V?$_Tmap_traits@IPAVHardwareBufferPool@Ogre@@U?$less@I@std@@V?$allocator@U?$pair@$$CBIPAVHardwareBufferPool@Ogre@@@std@@@4@$0A@@std@@@std@@KAAADPAU_Node@?$_Tree_nod@V?$_Tmap_traits@IPAVHardwareBufferPool@Ogre@@U?$less@I@std@@V?$allocator@U?$pair@$$CBIPAVHardwareBufferPool@Ogre@@@std@@@4@$0A@@std@@@2@@Z ; std::_Tree<std::_Tmap_traits<unsigned int,Ogre::HardwareBufferPool *,std::less<unsigned int>,std::allocator<std::pair<unsigned int const ,Ogre::HardwareBufferPool *> >,0> >::_Color
	add	esp, 4
	mov	BYTE PTR [eax], 0

; 874  : 							_Rrotate(_Pnode);

	mov	ecx, DWORD PTR __Pnode$[ebp]
	push	ecx
	mov	ecx, DWORD PTR _this$[ebp]
	call	?_Rrotate@?$_Tree@V?$_Tmap_traits@IPAVHardwareBufferPool@Ogre@@U?$less@I@std@@V?$allocator@U?$pair@$$CBIPAVHardwareBufferPool@Ogre@@@std@@@4@$0A@@std@@@std@@IAEXPAU_Node@?$_Tree_nod@V?$_Tmap_traits@IPAVHardwareBufferPool@Ogre@@U?$less@I@std@@V?$allocator@U?$pair@$$CBIPAVHardwareBufferPool@Ogre@@@std@@@4@$0A@@std@@@2@@Z ; std::_Tree<std::_Tmap_traits<unsigned int,Ogre::HardwareBufferPool *,std::less<unsigned int>,std::allocator<std::pair<unsigned int const ,Ogre::HardwareBufferPool *> >,0> >::_Rrotate

; 875  : 							_Pnode = _Right(_Fixnodeparent);

	mov	edx, DWORD PTR __Fixnodeparent$[ebp]
	push	edx
	call	?_Right@?$_Tree@V?$_Tmap_traits@IPAVHardwareBufferPool@Ogre@@U?$less@I@std@@V?$allocator@U?$pair@$$CBIPAVHardwareBufferPool@Ogre@@@std@@@4@$0A@@std@@@std@@KAAAPAU_Node@?$_Tree_nod@V?$_Tmap_traits@IPAVHardwareBufferPool@Ogre@@U?$less@I@std@@V?$allocator@U?$pair@$$CBIPAVHardwareBufferPool@Ogre@@@std@@@4@$0A@@std@@@2@PAU342@@Z ; std::_Tree<std::_Tmap_traits<unsigned int,Ogre::HardwareBufferPool *,std::less<unsigned int>,std::allocator<std::pair<unsigned int const ,Ogre::HardwareBufferPool *> >,0> >::_Right
	add	esp, 4
	mov	eax, DWORD PTR [eax]
	mov	DWORD PTR __Pnode$[ebp], eax
$LN9@erase@2:

; 876  : 							}
; 877  : 
; 878  : 						_Color(_Pnode) = _Color(_Fixnodeparent);

	mov	ecx, DWORD PTR __Fixnodeparent$[ebp]
	push	ecx
	call	?_Color@?$_Tree@V?$_Tmap_traits@IPAVHardwareBufferPool@Ogre@@U?$less@I@std@@V?$allocator@U?$pair@$$CBIPAVHardwareBufferPool@Ogre@@@std@@@4@$0A@@std@@@std@@KAAADPAU_Node@?$_Tree_nod@V?$_Tmap_traits@IPAVHardwareBufferPool@Ogre@@U?$less@I@std@@V?$allocator@U?$pair@$$CBIPAVHardwareBufferPool@Ogre@@@std@@@4@$0A@@std@@@2@@Z ; std::_Tree<std::_Tmap_traits<unsigned int,Ogre::HardwareBufferPool *,std::less<unsigned int>,std::allocator<std::pair<unsigned int const ,Ogre::HardwareBufferPool *> >,0> >::_Color
	add	esp, 4
	mov	esi, eax
	mov	edx, DWORD PTR __Pnode$[ebp]
	push	edx
	call	?_Color@?$_Tree@V?$_Tmap_traits@IPAVHardwareBufferPool@Ogre@@U?$less@I@std@@V?$allocator@U?$pair@$$CBIPAVHardwareBufferPool@Ogre@@@std@@@4@$0A@@std@@@std@@KAAADPAU_Node@?$_Tree_nod@V?$_Tmap_traits@IPAVHardwareBufferPool@Ogre@@U?$less@I@std@@V?$allocator@U?$pair@$$CBIPAVHardwareBufferPool@Ogre@@@std@@@4@$0A@@std@@@2@@Z ; std::_Tree<std::_Tmap_traits<unsigned int,Ogre::HardwareBufferPool *,std::less<unsigned int>,std::allocator<std::pair<unsigned int const ,Ogre::HardwareBufferPool *> >,0> >::_Color
	add	esp, 4
	mov	cl, BYTE PTR [esi]
	mov	BYTE PTR [eax], cl

; 879  : 						_Color(_Fixnodeparent) = _Black;

	mov	edx, DWORD PTR __Fixnodeparent$[ebp]
	push	edx
	call	?_Color@?$_Tree@V?$_Tmap_traits@IPAVHardwareBufferPool@Ogre@@U?$less@I@std@@V?$allocator@U?$pair@$$CBIPAVHardwareBufferPool@Ogre@@@std@@@4@$0A@@std@@@std@@KAAADPAU_Node@?$_Tree_nod@V?$_Tmap_traits@IPAVHardwareBufferPool@Ogre@@U?$less@I@std@@V?$allocator@U?$pair@$$CBIPAVHardwareBufferPool@Ogre@@@std@@@4@$0A@@std@@@2@@Z ; std::_Tree<std::_Tmap_traits<unsigned int,Ogre::HardwareBufferPool *,std::less<unsigned int>,std::allocator<std::pair<unsigned int const ,Ogre::HardwareBufferPool *> >,0> >::_Color
	add	esp, 4
	mov	BYTE PTR [eax], 1

; 880  : 						_Color(_Right(_Pnode)) = _Black;

	mov	eax, DWORD PTR __Pnode$[ebp]
	push	eax
	call	?_Right@?$_Tree@V?$_Tmap_traits@IPAVHardwareBufferPool@Ogre@@U?$less@I@std@@V?$allocator@U?$pair@$$CBIPAVHardwareBufferPool@Ogre@@@std@@@4@$0A@@std@@@std@@KAAAPAU_Node@?$_Tree_nod@V?$_Tmap_traits@IPAVHardwareBufferPool@Ogre@@U?$less@I@std@@V?$allocator@U?$pair@$$CBIPAVHardwareBufferPool@Ogre@@@std@@@4@$0A@@std@@@2@PAU342@@Z ; std::_Tree<std::_Tmap_traits<unsigned int,Ogre::HardwareBufferPool *,std::less<unsigned int>,std::allocator<std::pair<unsigned int const ,Ogre::HardwareBufferPool *> >,0> >::_Right
	add	esp, 4
	mov	ecx, DWORD PTR [eax]
	push	ecx
	call	?_Color@?$_Tree@V?$_Tmap_traits@IPAVHardwareBufferPool@Ogre@@U?$less@I@std@@V?$allocator@U?$pair@$$CBIPAVHardwareBufferPool@Ogre@@@std@@@4@$0A@@std@@@std@@KAAADPAU_Node@?$_Tree_nod@V?$_Tmap_traits@IPAVHardwareBufferPool@Ogre@@U?$less@I@std@@V?$allocator@U?$pair@$$CBIPAVHardwareBufferPool@Ogre@@@std@@@4@$0A@@std@@@2@@Z ; std::_Tree<std::_Tmap_traits<unsigned int,Ogre::HardwareBufferPool *,std::less<unsigned int>,std::allocator<std::pair<unsigned int const ,Ogre::HardwareBufferPool *> >,0> >::_Color
	add	esp, 4
	mov	BYTE PTR [eax], 1

; 881  : 						_Lrotate(_Fixnodeparent);

	mov	edx, DWORD PTR __Fixnodeparent$[ebp]
	push	edx
	mov	ecx, DWORD PTR _this$[ebp]
	call	?_Lrotate@?$_Tree@V?$_Tmap_traits@IPAVHardwareBufferPool@Ogre@@U?$less@I@std@@V?$allocator@U?$pair@$$CBIPAVHardwareBufferPool@Ogre@@@std@@@4@$0A@@std@@@std@@IAEXPAU_Node@?$_Tree_nod@V?$_Tmap_traits@IPAVHardwareBufferPool@Ogre@@U?$less@I@std@@V?$allocator@U?$pair@$$CBIPAVHardwareBufferPool@Ogre@@@std@@@4@$0A@@std@@@2@@Z ; std::_Tree<std::_Tmap_traits<unsigned int,Ogre::HardwareBufferPool *,std::less<unsigned int>,std::allocator<std::pair<unsigned int const ,Ogre::HardwareBufferPool *> >,0> >::_Lrotate

; 882  : 						break;	// tree now recolored/rebalanced

	jmp	$LN16@erase@2
$LN12@erase@2:

; 883  : 						}
; 884  : 					}
; 885  : 				else

	jmp	$LN8@erase@2
$LN15@erase@2:

; 886  : 					{	// fixup right subtree
; 887  : 					_Pnode = _Left(_Fixnodeparent);

	mov	eax, DWORD PTR __Fixnodeparent$[ebp]
	push	eax
	call	?_Left@?$_Tree@V?$_Tmap_traits@IPAVHardwareBufferPool@Ogre@@U?$less@I@std@@V?$allocator@U?$pair@$$CBIPAVHardwareBufferPool@Ogre@@@std@@@4@$0A@@std@@@std@@KAAAPAU_Node@?$_Tree_nod@V?$_Tmap_traits@IPAVHardwareBufferPool@Ogre@@U?$less@I@std@@V?$allocator@U?$pair@$$CBIPAVHardwareBufferPool@Ogre@@@std@@@4@$0A@@std@@@2@PAU342@@Z ; std::_Tree<std::_Tmap_traits<unsigned int,Ogre::HardwareBufferPool *,std::less<unsigned int>,std::allocator<std::pair<unsigned int const ,Ogre::HardwareBufferPool *> >,0> >::_Left
	add	esp, 4
	mov	ecx, DWORD PTR [eax]
	mov	DWORD PTR __Pnode$[ebp], ecx

; 888  : 					if (_Color(_Pnode) == _Red)

	mov	edx, DWORD PTR __Pnode$[ebp]
	push	edx
	call	?_Color@?$_Tree@V?$_Tmap_traits@IPAVHardwareBufferPool@Ogre@@U?$less@I@std@@V?$allocator@U?$pair@$$CBIPAVHardwareBufferPool@Ogre@@@std@@@4@$0A@@std@@@std@@KAAADPAU_Node@?$_Tree_nod@V?$_Tmap_traits@IPAVHardwareBufferPool@Ogre@@U?$less@I@std@@V?$allocator@U?$pair@$$CBIPAVHardwareBufferPool@Ogre@@@std@@@4@$0A@@std@@@2@@Z ; std::_Tree<std::_Tmap_traits<unsigned int,Ogre::HardwareBufferPool *,std::less<unsigned int>,std::allocator<std::pair<unsigned int const ,Ogre::HardwareBufferPool *> >,0> >::_Color
	add	esp, 4
	movsx	eax, BYTE PTR [eax]
	test	eax, eax
	jne	SHORT $LN7@erase@2

; 889  : 						{	// rotate red up from left subtree
; 890  : 						_Color(_Pnode) = _Black;

	mov	ecx, DWORD PTR __Pnode$[ebp]
	push	ecx
	call	?_Color@?$_Tree@V?$_Tmap_traits@IPAVHardwareBufferPool@Ogre@@U?$less@I@std@@V?$allocator@U?$pair@$$CBIPAVHardwareBufferPool@Ogre@@@std@@@4@$0A@@std@@@std@@KAAADPAU_Node@?$_Tree_nod@V?$_Tmap_traits@IPAVHardwareBufferPool@Ogre@@U?$less@I@std@@V?$allocator@U?$pair@$$CBIPAVHardwareBufferPool@Ogre@@@std@@@4@$0A@@std@@@2@@Z ; std::_Tree<std::_Tmap_traits<unsigned int,Ogre::HardwareBufferPool *,std::less<unsigned int>,std::allocator<std::pair<unsigned int const ,Ogre::HardwareBufferPool *> >,0> >::_Color
	add	esp, 4
	mov	BYTE PTR [eax], 1

; 891  : 						_Color(_Fixnodeparent) = _Red;

	mov	edx, DWORD PTR __Fixnodeparent$[ebp]
	push	edx
	call	?_Color@?$_Tree@V?$_Tmap_traits@IPAVHardwareBufferPool@Ogre@@U?$less@I@std@@V?$allocator@U?$pair@$$CBIPAVHardwareBufferPool@Ogre@@@std@@@4@$0A@@std@@@std@@KAAADPAU_Node@?$_Tree_nod@V?$_Tmap_traits@IPAVHardwareBufferPool@Ogre@@U?$less@I@std@@V?$allocator@U?$pair@$$CBIPAVHardwareBufferPool@Ogre@@@std@@@4@$0A@@std@@@2@@Z ; std::_Tree<std::_Tmap_traits<unsigned int,Ogre::HardwareBufferPool *,std::less<unsigned int>,std::allocator<std::pair<unsigned int const ,Ogre::HardwareBufferPool *> >,0> >::_Color
	add	esp, 4
	mov	BYTE PTR [eax], 0

; 892  : 						_Rrotate(_Fixnodeparent);

	mov	eax, DWORD PTR __Fixnodeparent$[ebp]
	push	eax
	mov	ecx, DWORD PTR _this$[ebp]
	call	?_Rrotate@?$_Tree@V?$_Tmap_traits@IPAVHardwareBufferPool@Ogre@@U?$less@I@std@@V?$allocator@U?$pair@$$CBIPAVHardwareBufferPool@Ogre@@@std@@@4@$0A@@std@@@std@@IAEXPAU_Node@?$_Tree_nod@V?$_Tmap_traits@IPAVHardwareBufferPool@Ogre@@U?$less@I@std@@V?$allocator@U?$pair@$$CBIPAVHardwareBufferPool@Ogre@@@std@@@4@$0A@@std@@@2@@Z ; std::_Tree<std::_Tmap_traits<unsigned int,Ogre::HardwareBufferPool *,std::less<unsigned int>,std::allocator<std::pair<unsigned int const ,Ogre::HardwareBufferPool *> >,0> >::_Rrotate

; 893  : 						_Pnode = _Left(_Fixnodeparent);

	mov	ecx, DWORD PTR __Fixnodeparent$[ebp]
	push	ecx
	call	?_Left@?$_Tree@V?$_Tmap_traits@IPAVHardwareBufferPool@Ogre@@U?$less@I@std@@V?$allocator@U?$pair@$$CBIPAVHardwareBufferPool@Ogre@@@std@@@4@$0A@@std@@@std@@KAAAPAU_Node@?$_Tree_nod@V?$_Tmap_traits@IPAVHardwareBufferPool@Ogre@@U?$less@I@std@@V?$allocator@U?$pair@$$CBIPAVHardwareBufferPool@Ogre@@@std@@@4@$0A@@std@@@2@PAU342@@Z ; std::_Tree<std::_Tmap_traits<unsigned int,Ogre::HardwareBufferPool *,std::less<unsigned int>,std::allocator<std::pair<unsigned int const ,Ogre::HardwareBufferPool *> >,0> >::_Left
	add	esp, 4
	mov	edx, DWORD PTR [eax]
	mov	DWORD PTR __Pnode$[ebp], edx
$LN7@erase@2:

; 894  : 						}
; 895  : 					if (_Isnil(_Pnode))

	mov	eax, DWORD PTR __Pnode$[ebp]
	push	eax
	call	?_Isnil@?$_Tree@V?$_Tmap_traits@IPAVHardwareBufferPool@Ogre@@U?$less@I@std@@V?$allocator@U?$pair@$$CBIPAVHardwareBufferPool@Ogre@@@std@@@4@$0A@@std@@@std@@KAAADPAU_Node@?$_Tree_nod@V?$_Tmap_traits@IPAVHardwareBufferPool@Ogre@@U?$less@I@std@@V?$allocator@U?$pair@$$CBIPAVHardwareBufferPool@Ogre@@@std@@@4@$0A@@std@@@2@@Z ; std::_Tree<std::_Tmap_traits<unsigned int,Ogre::HardwareBufferPool *,std::less<unsigned int>,std::allocator<std::pair<unsigned int const ,Ogre::HardwareBufferPool *> >,0> >::_Isnil
	add	esp, 4
	movsx	ecx, BYTE PTR [eax]
	test	ecx, ecx
	je	SHORT $LN6@erase@2

; 896  : 						_Fixnode = _Fixnodeparent;	// shouldn't happen

	mov	edx, DWORD PTR __Fixnodeparent$[ebp]
	mov	DWORD PTR __Fixnode$[ebp], edx

; 897  : 					else if (_Color(_Right(_Pnode)) == _Black

	jmp	$LN8@erase@2
$LN6@erase@2:

; 898  : 						&& _Color(_Left(_Pnode)) == _Black)

	mov	eax, DWORD PTR __Pnode$[ebp]
	push	eax
	call	?_Right@?$_Tree@V?$_Tmap_traits@IPAVHardwareBufferPool@Ogre@@U?$less@I@std@@V?$allocator@U?$pair@$$CBIPAVHardwareBufferPool@Ogre@@@std@@@4@$0A@@std@@@std@@KAAAPAU_Node@?$_Tree_nod@V?$_Tmap_traits@IPAVHardwareBufferPool@Ogre@@U?$less@I@std@@V?$allocator@U?$pair@$$CBIPAVHardwareBufferPool@Ogre@@@std@@@4@$0A@@std@@@2@PAU342@@Z ; std::_Tree<std::_Tmap_traits<unsigned int,Ogre::HardwareBufferPool *,std::less<unsigned int>,std::allocator<std::pair<unsigned int const ,Ogre::HardwareBufferPool *> >,0> >::_Right
	add	esp, 4
	mov	ecx, DWORD PTR [eax]
	push	ecx
	call	?_Color@?$_Tree@V?$_Tmap_traits@IPAVHardwareBufferPool@Ogre@@U?$less@I@std@@V?$allocator@U?$pair@$$CBIPAVHardwareBufferPool@Ogre@@@std@@@4@$0A@@std@@@std@@KAAADPAU_Node@?$_Tree_nod@V?$_Tmap_traits@IPAVHardwareBufferPool@Ogre@@U?$less@I@std@@V?$allocator@U?$pair@$$CBIPAVHardwareBufferPool@Ogre@@@std@@@4@$0A@@std@@@2@@Z ; std::_Tree<std::_Tmap_traits<unsigned int,Ogre::HardwareBufferPool *,std::less<unsigned int>,std::allocator<std::pair<unsigned int const ,Ogre::HardwareBufferPool *> >,0> >::_Color
	add	esp, 4
	movsx	edx, BYTE PTR [eax]
	cmp	edx, 1
	jne	SHORT $LN4@erase@2
	mov	eax, DWORD PTR __Pnode$[ebp]
	push	eax
	call	?_Left@?$_Tree@V?$_Tmap_traits@IPAVHardwareBufferPool@Ogre@@U?$less@I@std@@V?$allocator@U?$pair@$$CBIPAVHardwareBufferPool@Ogre@@@std@@@4@$0A@@std@@@std@@KAAAPAU_Node@?$_Tree_nod@V?$_Tmap_traits@IPAVHardwareBufferPool@Ogre@@U?$less@I@std@@V?$allocator@U?$pair@$$CBIPAVHardwareBufferPool@Ogre@@@std@@@4@$0A@@std@@@2@PAU342@@Z ; std::_Tree<std::_Tmap_traits<unsigned int,Ogre::HardwareBufferPool *,std::less<unsigned int>,std::allocator<std::pair<unsigned int const ,Ogre::HardwareBufferPool *> >,0> >::_Left
	add	esp, 4
	mov	ecx, DWORD PTR [eax]
	push	ecx
	call	?_Color@?$_Tree@V?$_Tmap_traits@IPAVHardwareBufferPool@Ogre@@U?$less@I@std@@V?$allocator@U?$pair@$$CBIPAVHardwareBufferPool@Ogre@@@std@@@4@$0A@@std@@@std@@KAAADPAU_Node@?$_Tree_nod@V?$_Tmap_traits@IPAVHardwareBufferPool@Ogre@@U?$less@I@std@@V?$allocator@U?$pair@$$CBIPAVHardwareBufferPool@Ogre@@@std@@@4@$0A@@std@@@2@@Z ; std::_Tree<std::_Tmap_traits<unsigned int,Ogre::HardwareBufferPool *,std::less<unsigned int>,std::allocator<std::pair<unsigned int const ,Ogre::HardwareBufferPool *> >,0> >::_Color
	add	esp, 4
	movsx	edx, BYTE PTR [eax]
	cmp	edx, 1
	jne	SHORT $LN4@erase@2

; 899  : 						{	// redden left subtree with black children
; 900  : 						_Color(_Pnode) = _Red;

	mov	eax, DWORD PTR __Pnode$[ebp]
	push	eax
	call	?_Color@?$_Tree@V?$_Tmap_traits@IPAVHardwareBufferPool@Ogre@@U?$less@I@std@@V?$allocator@U?$pair@$$CBIPAVHardwareBufferPool@Ogre@@@std@@@4@$0A@@std@@@std@@KAAADPAU_Node@?$_Tree_nod@V?$_Tmap_traits@IPAVHardwareBufferPool@Ogre@@U?$less@I@std@@V?$allocator@U?$pair@$$CBIPAVHardwareBufferPool@Ogre@@@std@@@4@$0A@@std@@@2@@Z ; std::_Tree<std::_Tmap_traits<unsigned int,Ogre::HardwareBufferPool *,std::less<unsigned int>,std::allocator<std::pair<unsigned int const ,Ogre::HardwareBufferPool *> >,0> >::_Color
	add	esp, 4
	mov	BYTE PTR [eax], 0

; 901  : 						_Fixnode = _Fixnodeparent;

	mov	ecx, DWORD PTR __Fixnodeparent$[ebp]
	mov	DWORD PTR __Fixnode$[ebp], ecx

; 902  : 						}
; 903  : 					else

	jmp	$LN8@erase@2
$LN4@erase@2:

; 904  : 						{	// must rearrange left subtree
; 905  : 						if (_Color(_Left(_Pnode)) == _Black)

	mov	edx, DWORD PTR __Pnode$[ebp]
	push	edx
	call	?_Left@?$_Tree@V?$_Tmap_traits@IPAVHardwareBufferPool@Ogre@@U?$less@I@std@@V?$allocator@U?$pair@$$CBIPAVHardwareBufferPool@Ogre@@@std@@@4@$0A@@std@@@std@@KAAAPAU_Node@?$_Tree_nod@V?$_Tmap_traits@IPAVHardwareBufferPool@Ogre@@U?$less@I@std@@V?$allocator@U?$pair@$$CBIPAVHardwareBufferPool@Ogre@@@std@@@4@$0A@@std@@@2@PAU342@@Z ; std::_Tree<std::_Tmap_traits<unsigned int,Ogre::HardwareBufferPool *,std::less<unsigned int>,std::allocator<std::pair<unsigned int const ,Ogre::HardwareBufferPool *> >,0> >::_Left
	add	esp, 4
	mov	eax, DWORD PTR [eax]
	push	eax
	call	?_Color@?$_Tree@V?$_Tmap_traits@IPAVHardwareBufferPool@Ogre@@U?$less@I@std@@V?$allocator@U?$pair@$$CBIPAVHardwareBufferPool@Ogre@@@std@@@4@$0A@@std@@@std@@KAAADPAU_Node@?$_Tree_nod@V?$_Tmap_traits@IPAVHardwareBufferPool@Ogre@@U?$less@I@std@@V?$allocator@U?$pair@$$CBIPAVHardwareBufferPool@Ogre@@@std@@@4@$0A@@std@@@2@@Z ; std::_Tree<std::_Tmap_traits<unsigned int,Ogre::HardwareBufferPool *,std::less<unsigned int>,std::allocator<std::pair<unsigned int const ,Ogre::HardwareBufferPool *> >,0> >::_Color
	add	esp, 4
	movsx	ecx, BYTE PTR [eax]
	cmp	ecx, 1
	jne	SHORT $LN2@erase@2

; 906  : 							{	// rotate red up from right sub-subtree
; 907  : 							_Color(_Right(_Pnode)) = _Black;

	mov	edx, DWORD PTR __Pnode$[ebp]
	push	edx
	call	?_Right@?$_Tree@V?$_Tmap_traits@IPAVHardwareBufferPool@Ogre@@U?$less@I@std@@V?$allocator@U?$pair@$$CBIPAVHardwareBufferPool@Ogre@@@std@@@4@$0A@@std@@@std@@KAAAPAU_Node@?$_Tree_nod@V?$_Tmap_traits@IPAVHardwareBufferPool@Ogre@@U?$less@I@std@@V?$allocator@U?$pair@$$CBIPAVHardwareBufferPool@Ogre@@@std@@@4@$0A@@std@@@2@PAU342@@Z ; std::_Tree<std::_Tmap_traits<unsigned int,Ogre::HardwareBufferPool *,std::less<unsigned int>,std::allocator<std::pair<unsigned int const ,Ogre::HardwareBufferPool *> >,0> >::_Right
	add	esp, 4
	mov	eax, DWORD PTR [eax]
	push	eax
	call	?_Color@?$_Tree@V?$_Tmap_traits@IPAVHardwareBufferPool@Ogre@@U?$less@I@std@@V?$allocator@U?$pair@$$CBIPAVHardwareBufferPool@Ogre@@@std@@@4@$0A@@std@@@std@@KAAADPAU_Node@?$_Tree_nod@V?$_Tmap_traits@IPAVHardwareBufferPool@Ogre@@U?$less@I@std@@V?$allocator@U?$pair@$$CBIPAVHardwareBufferPool@Ogre@@@std@@@4@$0A@@std@@@2@@Z ; std::_Tree<std::_Tmap_traits<unsigned int,Ogre::HardwareBufferPool *,std::less<unsigned int>,std::allocator<std::pair<unsigned int const ,Ogre::HardwareBufferPool *> >,0> >::_Color
	add	esp, 4
	mov	BYTE PTR [eax], 1

; 908  : 							_Color(_Pnode) = _Red;

	mov	ecx, DWORD PTR __Pnode$[ebp]
	push	ecx
	call	?_Color@?$_Tree@V?$_Tmap_traits@IPAVHardwareBufferPool@Ogre@@U?$less@I@std@@V?$allocator@U?$pair@$$CBIPAVHardwareBufferPool@Ogre@@@std@@@4@$0A@@std@@@std@@KAAADPAU_Node@?$_Tree_nod@V?$_Tmap_traits@IPAVHardwareBufferPool@Ogre@@U?$less@I@std@@V?$allocator@U?$pair@$$CBIPAVHardwareBufferPool@Ogre@@@std@@@4@$0A@@std@@@2@@Z ; std::_Tree<std::_Tmap_traits<unsigned int,Ogre::HardwareBufferPool *,std::less<unsigned int>,std::allocator<std::pair<unsigned int const ,Ogre::HardwareBufferPool *> >,0> >::_Color
	add	esp, 4
	mov	BYTE PTR [eax], 0

; 909  : 							_Lrotate(_Pnode);

	mov	edx, DWORD PTR __Pnode$[ebp]
	push	edx
	mov	ecx, DWORD PTR _this$[ebp]
	call	?_Lrotate@?$_Tree@V?$_Tmap_traits@IPAVHardwareBufferPool@Ogre@@U?$less@I@std@@V?$allocator@U?$pair@$$CBIPAVHardwareBufferPool@Ogre@@@std@@@4@$0A@@std@@@std@@IAEXPAU_Node@?$_Tree_nod@V?$_Tmap_traits@IPAVHardwareBufferPool@Ogre@@U?$less@I@std@@V?$allocator@U?$pair@$$CBIPAVHardwareBufferPool@Ogre@@@std@@@4@$0A@@std@@@2@@Z ; std::_Tree<std::_Tmap_traits<unsigned int,Ogre::HardwareBufferPool *,std::less<unsigned int>,std::allocator<std::pair<unsigned int const ,Ogre::HardwareBufferPool *> >,0> >::_Lrotate

; 910  : 							_Pnode = _Left(_Fixnodeparent);

	mov	eax, DWORD PTR __Fixnodeparent$[ebp]
	push	eax
	call	?_Left@?$_Tree@V?$_Tmap_traits@IPAVHardwareBufferPool@Ogre@@U?$less@I@std@@V?$allocator@U?$pair@$$CBIPAVHardwareBufferPool@Ogre@@@std@@@4@$0A@@std@@@std@@KAAAPAU_Node@?$_Tree_nod@V?$_Tmap_traits@IPAVHardwareBufferPool@Ogre@@U?$less@I@std@@V?$allocator@U?$pair@$$CBIPAVHardwareBufferPool@Ogre@@@std@@@4@$0A@@std@@@2@PAU342@@Z ; std::_Tree<std::_Tmap_traits<unsigned int,Ogre::HardwareBufferPool *,std::less<unsigned int>,std::allocator<std::pair<unsigned int const ,Ogre::HardwareBufferPool *> >,0> >::_Left
	add	esp, 4
	mov	ecx, DWORD PTR [eax]
	mov	DWORD PTR __Pnode$[ebp], ecx
$LN2@erase@2:

; 911  : 							}
; 912  : 
; 913  : 						_Color(_Pnode) = _Color(_Fixnodeparent);

	mov	edx, DWORD PTR __Fixnodeparent$[ebp]
	push	edx
	call	?_Color@?$_Tree@V?$_Tmap_traits@IPAVHardwareBufferPool@Ogre@@U?$less@I@std@@V?$allocator@U?$pair@$$CBIPAVHardwareBufferPool@Ogre@@@std@@@4@$0A@@std@@@std@@KAAADPAU_Node@?$_Tree_nod@V?$_Tmap_traits@IPAVHardwareBufferPool@Ogre@@U?$less@I@std@@V?$allocator@U?$pair@$$CBIPAVHardwareBufferPool@Ogre@@@std@@@4@$0A@@std@@@2@@Z ; std::_Tree<std::_Tmap_traits<unsigned int,Ogre::HardwareBufferPool *,std::less<unsigned int>,std::allocator<std::pair<unsigned int const ,Ogre::HardwareBufferPool *> >,0> >::_Color
	add	esp, 4
	mov	esi, eax
	mov	eax, DWORD PTR __Pnode$[ebp]
	push	eax
	call	?_Color@?$_Tree@V?$_Tmap_traits@IPAVHardwareBufferPool@Ogre@@U?$less@I@std@@V?$allocator@U?$pair@$$CBIPAVHardwareBufferPool@Ogre@@@std@@@4@$0A@@std@@@std@@KAAADPAU_Node@?$_Tree_nod@V?$_Tmap_traits@IPAVHardwareBufferPool@Ogre@@U?$less@I@std@@V?$allocator@U?$pair@$$CBIPAVHardwareBufferPool@Ogre@@@std@@@4@$0A@@std@@@2@@Z ; std::_Tree<std::_Tmap_traits<unsigned int,Ogre::HardwareBufferPool *,std::less<unsigned int>,std::allocator<std::pair<unsigned int const ,Ogre::HardwareBufferPool *> >,0> >::_Color
	add	esp, 4
	mov	cl, BYTE PTR [esi]
	mov	BYTE PTR [eax], cl

; 914  : 						_Color(_Fixnodeparent) = _Black;

	mov	edx, DWORD PTR __Fixnodeparent$[ebp]
	push	edx
	call	?_Color@?$_Tree@V?$_Tmap_traits@IPAVHardwareBufferPool@Ogre@@U?$less@I@std@@V?$allocator@U?$pair@$$CBIPAVHardwareBufferPool@Ogre@@@std@@@4@$0A@@std@@@std@@KAAADPAU_Node@?$_Tree_nod@V?$_Tmap_traits@IPAVHardwareBufferPool@Ogre@@U?$less@I@std@@V?$allocator@U?$pair@$$CBIPAVHardwareBufferPool@Ogre@@@std@@@4@$0A@@std@@@2@@Z ; std::_Tree<std::_Tmap_traits<unsigned int,Ogre::HardwareBufferPool *,std::less<unsigned int>,std::allocator<std::pair<unsigned int const ,Ogre::HardwareBufferPool *> >,0> >::_Color
	add	esp, 4
	mov	BYTE PTR [eax], 1

; 915  : 						_Color(_Left(_Pnode)) = _Black;

	mov	eax, DWORD PTR __Pnode$[ebp]
	push	eax
	call	?_Left@?$_Tree@V?$_Tmap_traits@IPAVHardwareBufferPool@Ogre@@U?$less@I@std@@V?$allocator@U?$pair@$$CBIPAVHardwareBufferPool@Ogre@@@std@@@4@$0A@@std@@@std@@KAAAPAU_Node@?$_Tree_nod@V?$_Tmap_traits@IPAVHardwareBufferPool@Ogre@@U?$less@I@std@@V?$allocator@U?$pair@$$CBIPAVHardwareBufferPool@Ogre@@@std@@@4@$0A@@std@@@2@PAU342@@Z ; std::_Tree<std::_Tmap_traits<unsigned int,Ogre::HardwareBufferPool *,std::less<unsigned int>,std::allocator<std::pair<unsigned int const ,Ogre::HardwareBufferPool *> >,0> >::_Left
	add	esp, 4
	mov	ecx, DWORD PTR [eax]
	push	ecx
	call	?_Color@?$_Tree@V?$_Tmap_traits@IPAVHardwareBufferPool@Ogre@@U?$less@I@std@@V?$allocator@U?$pair@$$CBIPAVHardwareBufferPool@Ogre@@@std@@@4@$0A@@std@@@std@@KAAADPAU_Node@?$_Tree_nod@V?$_Tmap_traits@IPAVHardwareBufferPool@Ogre@@U?$less@I@std@@V?$allocator@U?$pair@$$CBIPAVHardwareBufferPool@Ogre@@@std@@@4@$0A@@std@@@2@@Z ; std::_Tree<std::_Tmap_traits<unsigned int,Ogre::HardwareBufferPool *,std::less<unsigned int>,std::allocator<std::pair<unsigned int const ,Ogre::HardwareBufferPool *> >,0> >::_Color
	add	esp, 4
	mov	BYTE PTR [eax], 1

; 916  : 						_Rrotate(_Fixnodeparent);

	mov	edx, DWORD PTR __Fixnodeparent$[ebp]
	push	edx
	mov	ecx, DWORD PTR _this$[ebp]
	call	?_Rrotate@?$_Tree@V?$_Tmap_traits@IPAVHardwareBufferPool@Ogre@@U?$less@I@std@@V?$allocator@U?$pair@$$CBIPAVHardwareBufferPool@Ogre@@@std@@@4@$0A@@std@@@std@@IAEXPAU_Node@?$_Tree_nod@V?$_Tmap_traits@IPAVHardwareBufferPool@Ogre@@U?$less@I@std@@V?$allocator@U?$pair@$$CBIPAVHardwareBufferPool@Ogre@@@std@@@4@$0A@@std@@@2@@Z ; std::_Tree<std::_Tmap_traits<unsigned int,Ogre::HardwareBufferPool *,std::less<unsigned int>,std::allocator<std::pair<unsigned int const ,Ogre::HardwareBufferPool *> >,0> >::_Rrotate

; 917  : 						break;	// tree now recolored/rebalanced

	jmp	SHORT $LN16@erase@2
$LN8@erase@2:

; 918  : 						}
; 919  : 					}

	jmp	$LN17@erase@2
$LN16@erase@2:

; 920  : 
; 921  : 			_Color(_Fixnode) = _Black;	// ensure stopping node is black

	mov	eax, DWORD PTR __Fixnode$[ebp]
	push	eax
	call	?_Color@?$_Tree@V?$_Tmap_traits@IPAVHardwareBufferPool@Ogre@@U?$less@I@std@@V?$allocator@U?$pair@$$CBIPAVHardwareBufferPool@Ogre@@@std@@@4@$0A@@std@@@std@@KAAADPAU_Node@?$_Tree_nod@V?$_Tmap_traits@IPAVHardwareBufferPool@Ogre@@U?$less@I@std@@V?$allocator@U?$pair@$$CBIPAVHardwareBufferPool@Ogre@@@std@@@4@$0A@@std@@@2@@Z ; std::_Tree<std::_Tmap_traits<unsigned int,Ogre::HardwareBufferPool *,std::less<unsigned int>,std::allocator<std::pair<unsigned int const ,Ogre::HardwareBufferPool *> >,0> >::_Color
	add	esp, 4
	mov	BYTE PTR [eax], 1
$LN19@erase@2:

; 922  : 			}
; 923  : 
; 924  : 		this->_Alnod.destroy(_Erasednode);	// destroy, free erased node

	mov	ecx, DWORD PTR __Erasednode$[ebp]
	push	ecx
	mov	ecx, DWORD PTR _this$[ebp]
	add	ecx, 12					; 0000000cH
	call	?destroy@?$allocator@U_Node@?$_Tree_nod@V?$_Tmap_traits@IPAVHardwareBufferPool@Ogre@@U?$less@I@std@@V?$allocator@U?$pair@$$CBIPAVHardwareBufferPool@Ogre@@@std@@@4@$0A@@std@@@std@@@std@@QAEXPAU_Node@?$_Tree_nod@V?$_Tmap_traits@IPAVHardwareBufferPool@Ogre@@U?$less@I@std@@V?$allocator@U?$pair@$$CBIPAVHardwareBufferPool@Ogre@@@std@@@4@$0A@@std@@@2@@Z ; std::allocator<std::_Tree_nod<std::_Tmap_traits<unsigned int,Ogre::HardwareBufferPool *,std::less<unsigned int>,std::allocator<std::pair<unsigned int const ,Ogre::HardwareBufferPool *> >,0> >::_Node>::destroy

; 925  : 		this->_Alnod.deallocate(_Erasednode, 1);

	push	1
	mov	edx, DWORD PTR __Erasednode$[ebp]
	push	edx
	mov	ecx, DWORD PTR _this$[ebp]
	add	ecx, 12					; 0000000cH
	call	?deallocate@?$allocator@U_Node@?$_Tree_nod@V?$_Tmap_traits@IPAVHardwareBufferPool@Ogre@@U?$less@I@std@@V?$allocator@U?$pair@$$CBIPAVHardwareBufferPool@Ogre@@@std@@@4@$0A@@std@@@std@@@std@@QAEXPAU_Node@?$_Tree_nod@V?$_Tmap_traits@IPAVHardwareBufferPool@Ogre@@U?$less@I@std@@V?$allocator@U?$pair@$$CBIPAVHardwareBufferPool@Ogre@@@std@@@4@$0A@@std@@@2@I@Z ; std::allocator<std::_Tree_nod<std::_Tmap_traits<unsigned int,Ogre::HardwareBufferPool *,std::less<unsigned int>,std::allocator<std::pair<unsigned int const ,Ogre::HardwareBufferPool *> >,0> >::_Node>::deallocate

; 926  : 
; 927  : 		if (0 < _Mysize)

	mov	eax, DWORD PTR _this$[ebp]
	cmp	DWORD PTR [eax+28], 0
	jbe	SHORT $LN1@erase@2

; 928  : 			--_Mysize;

	mov	ecx, DWORD PTR _this$[ebp]
	mov	edx, DWORD PTR [ecx+28]
	sub	edx, 1
	mov	eax, DWORD PTR _this$[ebp]
	mov	DWORD PTR [eax+28], edx
$LN1@erase@2:

; 929  : 
; 930  : 		return (_Make_iter(_Where));	// return successor iterator

	mov	ecx, DWORD PTR __Where$[ebp+4]
	push	ecx
	mov	edx, DWORD PTR __Where$[ebp]
	push	edx
	mov	eax, DWORD PTR ___$ReturnUdt$[ebp]
	push	eax
	mov	ecx, DWORD PTR _this$[ebp]
	call	?_Make_iter@?$_Tree@V?$_Tmap_traits@IPAVHardwareBufferPool@Ogre@@U?$less@I@std@@V?$allocator@U?$pair@$$CBIPAVHardwareBufferPool@Ogre@@@std@@@4@$0A@@std@@@std@@QBE?AViterator@12@Vconst_iterator@12@@Z ; std::_Tree<std::_Tmap_traits<unsigned int,Ogre::HardwareBufferPool *,std::less<unsigned int>,std::allocator<std::pair<unsigned int const ,Ogre::HardwareBufferPool *> >,0> >::_Make_iter
	mov	eax, DWORD PTR ___$ReturnUdt$[ebp]
$LN42@erase@2:

; 931  : 		}

	mov	ecx, DWORD PTR __$EHRec$[ebp]
	mov	DWORD PTR fs:0, ecx
	pop	ecx
	pop	esi
	mov	esp, ebp
	pop	ebp
	ret	12					; 0000000cH
_TEXT	ENDS
;	COMDAT text$x
text$x	SEGMENT
__unwindfunclet$?erase@?$_Tree@V?$_Tmap_traits@IPAVHardwareBufferPool@Ogre@@U?$less@I@std@@V?$allocator@U?$pair@$$CBIPAVHardwareBufferPool@Ogre@@@std@@@4@$0A@@std@@@std@@QAE?AViterator@12@Vconst_iterator@12@@Z$0:
	lea	ecx, DWORD PTR $T64276[ebp]
	jmp	DWORD PTR __imp_??1?$basic_string@DU?$char_traits@D@std@@V?$allocator@D@2@@std@@QAE@XZ
__ehhandler$?erase@?$_Tree@V?$_Tmap_traits@IPAVHardwareBufferPool@Ogre@@U?$less@I@std@@V?$allocator@U?$pair@$$CBIPAVHardwareBufferPool@Ogre@@@std@@@4@$0A@@std@@@std@@QAE?AViterator@12@Vconst_iterator@12@@Z:
	mov	edx, DWORD PTR [esp+8]
	lea	eax, DWORD PTR [edx+12]
	mov	ecx, DWORD PTR [edx-104]
	xor	ecx, eax
	call	@__security_check_cookie@4
	mov	eax, OFFSET __ehfuncinfo$?erase@?$_Tree@V?$_Tmap_traits@IPAVHardwareBufferPool@Ogre@@U?$less@I@std@@V?$allocator@U?$pair@$$CBIPAVHardwareBufferPool@Ogre@@@std@@@4@$0A@@std@@@std@@QAE?AViterator@12@Vconst_iterator@12@@Z
	jmp	___CxxFrameHandler3
text$x	ENDS
?erase@?$_Tree@V?$_Tmap_traits@IPAVHardwareBufferPool@Ogre@@U?$less@I@std@@V?$allocator@U?$pair@$$CBIPAVHardwareBufferPool@Ogre@@@std@@@4@$0A@@std@@@std@@QAE?AViterator@12@Vconst_iterator@12@@Z ENDP ; std::_Tree<std::_Tmap_traits<unsigned int,Ogre::HardwareBufferPool *,std::less<unsigned int>,std::allocator<std::pair<unsigned int const ,Ogre::HardwareBufferPool *> >,0> >::erase
PUBLIC	??1logic_error@std@@UAE@XZ			; std::logic_error::~logic_error
PUBLIC	??_7out_of_range@std@@6B@			; std::out_of_range::`vftable'
PUBLIC	??0logic_error@std@@QAE@ABV?$basic_string@DU?$char_traits@D@std@@V?$allocator@D@2@@1@@Z ; std::logic_error::logic_error
PUBLIC	??_R4out_of_range@std@@6B@			; std::out_of_range::`RTTI Complete Object Locator'
PUBLIC	??_R3out_of_range@std@@8			; std::out_of_range::`RTTI Class Hierarchy Descriptor'
PUBLIC	??_R2out_of_range@std@@8			; std::out_of_range::`RTTI Base Class Array'
PUBLIC	??_R1A@?0A@EA@out_of_range@std@@8		; std::out_of_range::`RTTI Base Class Descriptor at (0,-1,0,64)'
PUBLIC	??_R1A@?0A@EA@logic_error@std@@8		; std::logic_error::`RTTI Base Class Descriptor at (0,-1,0,64)'
PUBLIC	??_R3logic_error@std@@8				; std::logic_error::`RTTI Class Hierarchy Descriptor'
PUBLIC	??_R2logic_error@std@@8				; std::logic_error::`RTTI Base Class Array'
PUBLIC	??_R1A@?0A@EA@exception@std@@8			; std::exception::`RTTI Base Class Descriptor at (0,-1,0,64)'
PUBLIC	??_R3exception@std@@8				; std::exception::`RTTI Class Hierarchy Descriptor'
PUBLIC	??_R2exception@std@@8				; std::exception::`RTTI Base Class Array'
PUBLIC	?what@logic_error@std@@UBEPBDXZ			; std::logic_error::what
EXTRN	??_Eout_of_range@std@@UAEPAXI@Z:PROC		; std::out_of_range::`vector deleting destructor'
;	COMDAT ??_R2exception@std@@8
; File d:\program files (x86)\microsoft visual studio 9.0\vc\include\stdexcept
rdata$r	SEGMENT
??_R2exception@std@@8 DD FLAT:??_R1A@?0A@EA@exception@std@@8 ; std::exception::`RTTI Base Class Array'
rdata$r	ENDS
;	COMDAT ??_R3exception@std@@8
rdata$r	SEGMENT
??_R3exception@std@@8 DD 00H				; std::exception::`RTTI Class Hierarchy Descriptor'
	DD	00H
	DD	01H
	DD	FLAT:??_R2exception@std@@8
rdata$r	ENDS
;	COMDAT ??_R1A@?0A@EA@exception@std@@8
rdata$r	SEGMENT
??_R1A@?0A@EA@exception@std@@8 DD FLAT:??_R0?AVexception@std@@@8 ; std::exception::`RTTI Base Class Descriptor at (0,-1,0,64)'
	DD	00H
	DD	00H
	DD	0ffffffffH
	DD	00H
	DD	040H
	DD	FLAT:??_R3exception@std@@8
rdata$r	ENDS
;	COMDAT ??_R2logic_error@std@@8
rdata$r	SEGMENT
??_R2logic_error@std@@8 DD FLAT:??_R1A@?0A@EA@logic_error@std@@8 ; std::logic_error::`RTTI Base Class Array'
	DD	FLAT:??_R1A@?0A@EA@exception@std@@8
rdata$r	ENDS
;	COMDAT ??_R3logic_error@std@@8
rdata$r	SEGMENT
??_R3logic_error@std@@8 DD 00H				; std::logic_error::`RTTI Class Hierarchy Descriptor'
	DD	00H
	DD	02H
	DD	FLAT:??_R2logic_error@std@@8
rdata$r	ENDS
;	COMDAT ??_R1A@?0A@EA@logic_error@std@@8
rdata$r	SEGMENT
??_R1A@?0A@EA@logic_error@std@@8 DD FLAT:??_R0?AVlogic_error@std@@@8 ; std::logic_error::`RTTI Base Class Descriptor at (0,-1,0,64)'
	DD	01H
	DD	00H
	DD	0ffffffffH
	DD	00H
	DD	040H
	DD	FLAT:??_R3logic_error@std@@8
rdata$r	ENDS
;	COMDAT ??_R1A@?0A@EA@out_of_range@std@@8
rdata$r	SEGMENT
??_R1A@?0A@EA@out_of_range@std@@8 DD FLAT:??_R0?AVout_of_range@std@@@8 ; std::out_of_range::`RTTI Base Class Descriptor at (0,-1,0,64)'
	DD	02H
	DD	00H
	DD	0ffffffffH
	DD	00H
	DD	040H
	DD	FLAT:??_R3out_of_range@std@@8
rdata$r	ENDS
;	COMDAT ??_R2out_of_range@std@@8
rdata$r	SEGMENT
??_R2out_of_range@std@@8 DD FLAT:??_R1A@?0A@EA@out_of_range@std@@8 ; std::out_of_range::`RTTI Base Class Array'
	DD	FLAT:??_R1A@?0A@EA@logic_error@std@@8
	DD	FLAT:??_R1A@?0A@EA@exception@std@@8
rdata$r	ENDS
;	COMDAT ??_R3out_of_range@std@@8
rdata$r	SEGMENT
??_R3out_of_range@std@@8 DD 00H				; std::out_of_range::`RTTI Class Hierarchy Descriptor'
	DD	00H
	DD	03H
	DD	FLAT:??_R2out_of_range@std@@8
rdata$r	ENDS
;	COMDAT ??_R4out_of_range@std@@6B@
rdata$r	SEGMENT
??_R4out_of_range@std@@6B@ DD 00H			; std::out_of_range::`RTTI Complete Object Locator'
	DD	00H
	DD	00H
	DD	FLAT:??_R0?AVout_of_range@std@@@8
	DD	FLAT:??_R3out_of_range@std@@8
rdata$r	ENDS
;	COMDAT ??_7out_of_range@std@@6B@
CONST	SEGMENT
??_7out_of_range@std@@6B@ DD FLAT:??_R4out_of_range@std@@6B@ ; std::out_of_range::`vftable'
	DD	FLAT:??_Eout_of_range@std@@UAEPAXI@Z
	DD	FLAT:?what@logic_error@std@@UBEPBDXZ
CONST	ENDS
;	COMDAT xdata$x
xdata$x	SEGMENT
__unwindtable$??0out_of_range@std@@QAE@ABV?$basic_string@DU?$char_traits@D@std@@V?$allocator@D@2@@1@@Z DD 0ffffffffH
	DD	FLAT:__unwindfunclet$??0out_of_range@std@@QAE@ABV?$basic_string@DU?$char_traits@D@std@@V?$allocator@D@2@@1@@Z$0
__ehfuncinfo$??0out_of_range@std@@QAE@ABV?$basic_string@DU?$char_traits@D@std@@V?$allocator@D@2@@1@@Z DD 019930522H
	DD	01H
	DD	FLAT:__unwindtable$??0out_of_range@std@@QAE@ABV?$basic_string@DU?$char_traits@D@std@@V?$allocator@D@2@@1@@Z
	DD	2 DUP(00H)
	DD	2 DUP(00H)
	DD	00H
	DD	00H
; Function compile flags: /Odtp
xdata$x	ENDS
;	COMDAT ??0out_of_range@std@@QAE@ABV?$basic_string@DU?$char_traits@D@std@@V?$allocator@D@2@@1@@Z
_TEXT	SEGMENT
_this$ = -16						; size = 4
__$EHRec$ = -12						; size = 12
__Message$ = 8						; size = 4
??0out_of_range@std@@QAE@ABV?$basic_string@DU?$char_traits@D@std@@V?$allocator@D@2@@1@@Z PROC ; std::out_of_range::out_of_range, COMDAT
; _this$ = ecx

; 129  : 		{	// construct from message string

	push	ebp
	mov	ebp, esp
	push	-1
	push	__ehhandler$??0out_of_range@std@@QAE@ABV?$basic_string@DU?$char_traits@D@std@@V?$allocator@D@2@@1@@Z
	mov	eax, DWORD PTR fs:0
	push	eax
	push	ecx
	mov	eax, DWORD PTR ___security_cookie
	xor	eax, ebp
	push	eax
	lea	eax, DWORD PTR __$EHRec$[ebp]
	mov	DWORD PTR fs:0, eax
	mov	DWORD PTR _this$[ebp], ecx
	mov	eax, DWORD PTR __Message$[ebp]
	push	eax
	mov	ecx, DWORD PTR _this$[ebp]
	call	??0logic_error@std@@QAE@ABV?$basic_string@DU?$char_traits@D@std@@V?$allocator@D@2@@1@@Z ; std::logic_error::logic_error
	mov	DWORD PTR __$EHRec$[ebp+8], 0
	mov	ecx, DWORD PTR _this$[ebp]
	mov	DWORD PTR [ecx], OFFSET ??_7out_of_range@std@@6B@

; 130  : 		}

	mov	DWORD PTR __$EHRec$[ebp+8], -1
	mov	eax, DWORD PTR _this$[ebp]
	mov	ecx, DWORD PTR __$EHRec$[ebp]
	mov	DWORD PTR fs:0, ecx
	pop	ecx
	mov	esp, ebp
	pop	ebp
	ret	4
_TEXT	ENDS
;	COMDAT text$x
text$x	SEGMENT
__unwindfunclet$??0out_of_range@std@@QAE@ABV?$basic_string@DU?$char_traits@D@std@@V?$allocator@D@2@@1@@Z$0:
	mov	ecx, DWORD PTR _this$[ebp]
	jmp	??1logic_error@std@@UAE@XZ		; std::logic_error::~logic_error
__ehhandler$??0out_of_range@std@@QAE@ABV?$basic_string@DU?$char_traits@D@std@@V?$allocator@D@2@@1@@Z:
	mov	edx, DWORD PTR [esp+8]
	lea	eax, DWORD PTR [edx+12]
	mov	ecx, DWORD PTR [edx-8]
	xor	ecx, eax
	call	@__security_check_cookie@4
	mov	eax, OFFSET __ehfuncinfo$??0out_of_range@std@@QAE@ABV?$basic_string@DU?$char_traits@D@std@@V?$allocator@D@2@@1@@Z
	jmp	___CxxFrameHandler3
text$x	ENDS
??0out_of_range@std@@QAE@ABV?$basic_string@DU?$char_traits@D@std@@V?$allocator@D@2@@1@@Z ENDP ; std::out_of_range::out_of_range
PUBLIC	??_7logic_error@std@@6B@			; std::logic_error::`vftable'
PUBLIC	??_R4logic_error@std@@6B@			; std::logic_error::`RTTI Complete Object Locator'
EXTRN	__imp_??1exception@std@@UAE@XZ:PROC
EXTRN	__imp_??0?$basic_string@DU?$char_traits@D@std@@V?$allocator@D@2@@std@@QAE@ABV01@@Z:PROC
EXTRN	__imp_??0exception@std@@QAE@XZ:PROC
EXTRN	??_Elogic_error@std@@UAEPAXI@Z:PROC		; std::logic_error::`vector deleting destructor'
;	COMDAT ??_R4logic_error@std@@6B@
rdata$r	SEGMENT
??_R4logic_error@std@@6B@ DD 00H			; std::logic_error::`RTTI Complete Object Locator'
	DD	00H
	DD	00H
	DD	FLAT:??_R0?AVlogic_error@std@@@8
	DD	FLAT:??_R3logic_error@std@@8
rdata$r	ENDS
;	COMDAT ??_7logic_error@std@@6B@
CONST	SEGMENT
??_7logic_error@std@@6B@ DD FLAT:??_R4logic_error@std@@6B@ ; std::logic_error::`vftable'
	DD	FLAT:??_Elogic_error@std@@UAEPAXI@Z
	DD	FLAT:?what@logic_error@std@@UBEPBDXZ
CONST	ENDS
;	COMDAT xdata$x
xdata$x	SEGMENT
__unwindtable$??0logic_error@std@@QAE@ABV?$basic_string@DU?$char_traits@D@std@@V?$allocator@D@2@@1@@Z DD 0ffffffffH
	DD	FLAT:__unwindfunclet$??0logic_error@std@@QAE@ABV?$basic_string@DU?$char_traits@D@std@@V?$allocator@D@2@@1@@Z$0
	DD	00H
	DD	FLAT:__unwindfunclet$??0logic_error@std@@QAE@ABV?$basic_string@DU?$char_traits@D@std@@V?$allocator@D@2@@1@@Z$1
__ehfuncinfo$??0logic_error@std@@QAE@ABV?$basic_string@DU?$char_traits@D@std@@V?$allocator@D@2@@1@@Z DD 019930522H
	DD	02H
	DD	FLAT:__unwindtable$??0logic_error@std@@QAE@ABV?$basic_string@DU?$char_traits@D@std@@V?$allocator@D@2@@1@@Z
	DD	2 DUP(00H)
	DD	2 DUP(00H)
	DD	00H
	DD	00H
; Function compile flags: /Odtp
xdata$x	ENDS
;	COMDAT ??0logic_error@std@@QAE@ABV?$basic_string@DU?$char_traits@D@std@@V?$allocator@D@2@@1@@Z
_TEXT	SEGMENT
_this$ = -16						; size = 4
__$EHRec$ = -12						; size = 12
__Message$ = 8						; size = 4
??0logic_error@std@@QAE@ABV?$basic_string@DU?$char_traits@D@std@@V?$allocator@D@2@@1@@Z PROC ; std::logic_error::logic_error, COMDAT
; _this$ = ecx

; 26   : 		{	// construct from message string

	push	ebp
	mov	ebp, esp
	push	-1
	push	__ehhandler$??0logic_error@std@@QAE@ABV?$basic_string@DU?$char_traits@D@std@@V?$allocator@D@2@@1@@Z
	mov	eax, DWORD PTR fs:0
	push	eax
	push	ecx
	mov	eax, DWORD PTR ___security_cookie
	xor	eax, ebp
	push	eax
	lea	eax, DWORD PTR __$EHRec$[ebp]
	mov	DWORD PTR fs:0, eax
	mov	DWORD PTR _this$[ebp], ecx
	mov	ecx, DWORD PTR _this$[ebp]
	call	DWORD PTR __imp_??0exception@std@@QAE@XZ
	mov	DWORD PTR __$EHRec$[ebp+8], 0
	mov	eax, DWORD PTR _this$[ebp]
	mov	DWORD PTR [eax], OFFSET ??_7logic_error@std@@6B@
	mov	ecx, DWORD PTR __Message$[ebp]
	push	ecx
	mov	ecx, DWORD PTR _this$[ebp]
	add	ecx, 12					; 0000000cH
	call	DWORD PTR __imp_??0?$basic_string@DU?$char_traits@D@std@@V?$allocator@D@2@@std@@QAE@ABV01@@Z
	mov	BYTE PTR __$EHRec$[ebp+8], 1

; 27   : 		}

	mov	DWORD PTR __$EHRec$[ebp+8], -1
	mov	eax, DWORD PTR _this$[ebp]
	mov	ecx, DWORD PTR __$EHRec$[ebp]
	mov	DWORD PTR fs:0, ecx
	pop	ecx
	mov	esp, ebp
	pop	ebp
	ret	4
_TEXT	ENDS
;	COMDAT text$x
text$x	SEGMENT
__unwindfunclet$??0logic_error@std@@QAE@ABV?$basic_string@DU?$char_traits@D@std@@V?$allocator@D@2@@1@@Z$0:
	mov	ecx, DWORD PTR _this$[ebp]
	jmp	DWORD PTR __imp_??1exception@std@@UAE@XZ
__unwindfunclet$??0logic_error@std@@QAE@ABV?$basic_string@DU?$char_traits@D@std@@V?$allocator@D@2@@1@@Z$1:
	mov	ecx, DWORD PTR _this$[ebp]
	add	ecx, 12					; 0000000cH
	jmp	DWORD PTR __imp_??1?$basic_string@DU?$char_traits@D@std@@V?$allocator@D@2@@std@@QAE@XZ
__ehhandler$??0logic_error@std@@QAE@ABV?$basic_string@DU?$char_traits@D@std@@V?$allocator@D@2@@1@@Z:
	mov	edx, DWORD PTR [esp+8]
	lea	eax, DWORD PTR [edx+12]
	mov	ecx, DWORD PTR [edx-8]
	xor	ecx, eax
	call	@__security_check_cookie@4
	mov	eax, OFFSET __ehfuncinfo$??0logic_error@std@@QAE@ABV?$basic_string@DU?$char_traits@D@std@@V?$allocator@D@2@@1@@Z
	jmp	___CxxFrameHandler3
text$x	ENDS
??0logic_error@std@@QAE@ABV?$basic_string@DU?$char_traits@D@std@@V?$allocator@D@2@@1@@Z ENDP ; std::logic_error::logic_error
;	COMDAT xdata$x
xdata$x	SEGMENT
__unwindtable$??1logic_error@std@@UAE@XZ DD 0ffffffffH
	DD	FLAT:__unwindfunclet$??1logic_error@std@@UAE@XZ$0
	DD	00H
	DD	FLAT:__unwindfunclet$??1logic_error@std@@UAE@XZ$1
__ehfuncinfo$??1logic_error@std@@UAE@XZ DD 019930522H
	DD	02H
	DD	FLAT:__unwindtable$??1logic_error@std@@UAE@XZ
	DD	2 DUP(00H)
	DD	2 DUP(00H)
	DD	00H
	DD	00H
; Function compile flags: /Odtp
xdata$x	ENDS
;	COMDAT ??1logic_error@std@@UAE@XZ
_TEXT	SEGMENT
_this$ = -16						; size = 4
__$EHRec$ = -12						; size = 12
??1logic_error@std@@UAE@XZ PROC				; std::logic_error::~logic_error, COMDAT
; _this$ = ecx

; 30   : 		{	// destroy the object

	push	ebp
	mov	ebp, esp
	push	-1
	push	__ehhandler$??1logic_error@std@@UAE@XZ
	mov	eax, DWORD PTR fs:0
	push	eax
	push	ecx
	mov	eax, DWORD PTR ___security_cookie
	xor	eax, ebp
	push	eax
	lea	eax, DWORD PTR __$EHRec$[ebp]
	mov	DWORD PTR fs:0, eax
	mov	DWORD PTR _this$[ebp], ecx
	mov	eax, DWORD PTR _this$[ebp]
	mov	DWORD PTR [eax], OFFSET ??_7logic_error@std@@6B@
	mov	DWORD PTR __$EHRec$[ebp+8], 1

; 31   : 		}

	mov	BYTE PTR __$EHRec$[ebp+8], 0
	mov	ecx, DWORD PTR _this$[ebp]
	add	ecx, 12					; 0000000cH
	call	DWORD PTR __imp_??1?$basic_string@DU?$char_traits@D@std@@V?$allocator@D@2@@std@@QAE@XZ
	mov	DWORD PTR __$EHRec$[ebp+8], -1
	mov	ecx, DWORD PTR _this$[ebp]
	call	DWORD PTR __imp_??1exception@std@@UAE@XZ
	mov	ecx, DWORD PTR __$EHRec$[ebp]
	mov	DWORD PTR fs:0, ecx
	pop	ecx
	mov	esp, ebp
	pop	ebp
	ret	0
_TEXT	ENDS
;	COMDAT text$x
text$x	SEGMENT
__unwindfunclet$??1logic_error@std@@UAE@XZ$0:
	mov	ecx, DWORD PTR _this$[ebp]
	jmp	DWORD PTR __imp_??1exception@std@@UAE@XZ
__unwindfunclet$??1logic_error@std@@UAE@XZ$1:
	mov	ecx, DWORD PTR _this$[ebp]
	add	ecx, 12					; 0000000cH
	jmp	DWORD PTR __imp_??1?$basic_string@DU?$char_traits@D@std@@V?$allocator@D@2@@std@@QAE@XZ
__ehhandler$??1logic_error@std@@UAE@XZ:
	mov	edx, DWORD PTR [esp+8]
	lea	eax, DWORD PTR [edx+12]
	mov	ecx, DWORD PTR [edx-8]
	xor	ecx, eax
	call	@__security_check_cookie@4
	mov	eax, OFFSET __ehfuncinfo$??1logic_error@std@@UAE@XZ
	jmp	___CxxFrameHandler3
text$x	ENDS
??1logic_error@std@@UAE@XZ ENDP				; std::logic_error::~logic_error
EXTRN	__imp_?c_str@?$basic_string@DU?$char_traits@D@std@@V?$allocator@D@2@@std@@QBEPBDXZ:PROC
; Function compile flags: /Odtp
;	COMDAT ?what@logic_error@std@@UBEPBDXZ
_TEXT	SEGMENT
_this$ = -4						; size = 4
?what@logic_error@std@@UBEPBDXZ PROC			; std::logic_error::what, COMDAT
; _this$ = ecx

; 34   : 		{	// return pointer to message string

	push	ebp
	mov	ebp, esp
	push	ecx
	mov	DWORD PTR _this$[ebp], ecx

; 35   : 		return (_Str.c_str());

	mov	ecx, DWORD PTR _this$[ebp]
	add	ecx, 12					; 0000000cH
	call	DWORD PTR __imp_?c_str@?$basic_string@DU?$char_traits@D@std@@V?$allocator@D@2@@std@@QBEPBDXZ

; 36   : 		}

	mov	esp, ebp
	pop	ebp
	ret	0
?what@logic_error@std@@UBEPBDXZ ENDP			; std::logic_error::what
; Function compile flags: /Odtp
_TEXT	ENDS
;	COMDAT ??_Glogic_error@std@@UAEPAXI@Z
_TEXT	SEGMENT
_this$ = -4						; size = 4
___flags$ = 8						; size = 4
??_Glogic_error@std@@UAEPAXI@Z PROC			; std::logic_error::`scalar deleting destructor', COMDAT
; _this$ = ecx
	push	ebp
	mov	ebp, esp
	push	ecx
	mov	DWORD PTR _this$[ebp], ecx
	mov	ecx, DWORD PTR _this$[ebp]
	call	??1logic_error@std@@UAE@XZ		; std::logic_error::~logic_error
	mov	eax, DWORD PTR ___flags$[ebp]
	and	eax, 1
	je	SHORT $LN1@scalar@11
	mov	ecx, DWORD PTR _this$[ebp]
	push	ecx
	call	??3@YAXPAX@Z				; operator delete
	add	esp, 4
$LN1@scalar@11:
	mov	eax, DWORD PTR _this$[ebp]
	mov	esp, ebp
	pop	ebp
	ret	4
??_Glogic_error@std@@UAEPAXI@Z ENDP			; std::logic_error::`scalar deleting destructor'
_TEXT	ENDS
;	COMDAT xdata$x
xdata$x	SEGMENT
__unwindtable$??1out_of_range@std@@UAE@XZ DD 0ffffffffH
	DD	FLAT:__unwindfunclet$??1out_of_range@std@@UAE@XZ$0
__ehfuncinfo$??1out_of_range@std@@UAE@XZ DD 019930522H
	DD	01H
	DD	FLAT:__unwindtable$??1out_of_range@std@@UAE@XZ
	DD	2 DUP(00H)
	DD	2 DUP(00H)
	DD	00H
	DD	00H
; Function compile flags: /Odtp
xdata$x	ENDS
;	COMDAT ??1out_of_range@std@@UAE@XZ
_TEXT	SEGMENT
_this$ = -16						; size = 4
__$EHRec$ = -12						; size = 12
??1out_of_range@std@@UAE@XZ PROC			; std::out_of_range::~out_of_range, COMDAT
; _this$ = ecx

; 133  : 		{	// destroy the object

	push	ebp
	mov	ebp, esp
	push	-1
	push	__ehhandler$??1out_of_range@std@@UAE@XZ
	mov	eax, DWORD PTR fs:0
	push	eax
	push	ecx
	mov	eax, DWORD PTR ___security_cookie
	xor	eax, ebp
	push	eax
	lea	eax, DWORD PTR __$EHRec$[ebp]
	mov	DWORD PTR fs:0, eax
	mov	DWORD PTR _this$[ebp], ecx
	mov	eax, DWORD PTR _this$[ebp]
	mov	DWORD PTR [eax], OFFSET ??_7out_of_range@std@@6B@
	mov	DWORD PTR __$EHRec$[ebp+8], 0

; 134  : 		}

	mov	DWORD PTR __$EHRec$[ebp+8], -1
	mov	ecx, DWORD PTR _this$[ebp]
	call	??1logic_error@std@@UAE@XZ		; std::logic_error::~logic_error
	mov	ecx, DWORD PTR __$EHRec$[ebp]
	mov	DWORD PTR fs:0, ecx
	pop	ecx
	mov	esp, ebp
	pop	ebp
	ret	0
_TEXT	ENDS
;	COMDAT text$x
text$x	SEGMENT
__unwindfunclet$??1out_of_range@std@@UAE@XZ$0:
	mov	ecx, DWORD PTR _this$[ebp]
	jmp	??1logic_error@std@@UAE@XZ		; std::logic_error::~logic_error
__ehhandler$??1out_of_range@std@@UAE@XZ:
	mov	edx, DWORD PTR [esp+8]
	lea	eax, DWORD PTR [edx+12]
	mov	ecx, DWORD PTR [edx-8]
	xor	ecx, eax
	call	@__security_check_cookie@4
	mov	eax, OFFSET __ehfuncinfo$??1out_of_range@std@@UAE@XZ
	jmp	___CxxFrameHandler3
text$x	ENDS
??1out_of_range@std@@UAE@XZ ENDP			; std::out_of_range::~out_of_range
; Function compile flags: /Odtp
;	COMDAT ??_Gout_of_range@std@@UAEPAXI@Z
_TEXT	SEGMENT
_this$ = -4						; size = 4
___flags$ = 8						; size = 4
??_Gout_of_range@std@@UAEPAXI@Z PROC			; std::out_of_range::`scalar deleting destructor', COMDAT
; _this$ = ecx
	push	ebp
	mov	ebp, esp
	push	ecx
	mov	DWORD PTR _this$[ebp], ecx
	mov	ecx, DWORD PTR _this$[ebp]
	call	??1out_of_range@std@@UAE@XZ		; std::out_of_range::~out_of_range
	mov	eax, DWORD PTR ___flags$[ebp]
	and	eax, 1
	je	SHORT $LN1@scalar@12
	mov	ecx, DWORD PTR _this$[ebp]
	push	ecx
	call	??3@YAXPAX@Z				; operator delete
	add	esp, 4
$LN1@scalar@12:
	mov	eax, DWORD PTR _this$[ebp]
	mov	esp, ebp
	pop	ebp
	ret	4
??_Gout_of_range@std@@UAEPAXI@Z ENDP			; std::out_of_range::`scalar deleting destructor'
_TEXT	ENDS
;	COMDAT xdata$x
xdata$x	SEGMENT
__unwindtable$??0out_of_range@std@@QAE@ABV01@@Z DD 0ffffffffH
	DD	FLAT:__unwindfunclet$??0out_of_range@std@@QAE@ABV01@@Z$0
__ehfuncinfo$??0out_of_range@std@@QAE@ABV01@@Z DD 019930522H
	DD	01H
	DD	FLAT:__unwindtable$??0out_of_range@std@@QAE@ABV01@@Z
	DD	2 DUP(00H)
	DD	2 DUP(00H)
	DD	00H
	DD	00H
; Function compile flags: /Odtp
xdata$x	ENDS
;	COMDAT ??0out_of_range@std@@QAE@ABV01@@Z
_TEXT	SEGMENT
_this$ = -16						; size = 4
__$EHRec$ = -12						; size = 12
___that$ = 8						; size = 4
??0out_of_range@std@@QAE@ABV01@@Z PROC			; std::out_of_range::out_of_range, COMDAT
; _this$ = ecx
	push	ebp
	mov	ebp, esp
	push	-1
	push	__ehhandler$??0out_of_range@std@@QAE@ABV01@@Z
	mov	eax, DWORD PTR fs:0
	push	eax
	push	ecx
	mov	eax, DWORD PTR ___security_cookie
	xor	eax, ebp
	push	eax
	lea	eax, DWORD PTR __$EHRec$[ebp]
	mov	DWORD PTR fs:0, eax
	mov	DWORD PTR _this$[ebp], ecx
	mov	eax, DWORD PTR ___that$[ebp]
	push	eax
	mov	ecx, DWORD PTR _this$[ebp]
	call	??0logic_error@std@@QAE@ABV01@@Z
	mov	DWORD PTR __$EHRec$[ebp+8], 0
	mov	ecx, DWORD PTR _this$[ebp]
	mov	DWORD PTR [ecx], OFFSET ??_7out_of_range@std@@6B@
	mov	DWORD PTR __$EHRec$[ebp+8], -1
	mov	eax, DWORD PTR _this$[ebp]
	mov	ecx, DWORD PTR __$EHRec$[ebp]
	mov	DWORD PTR fs:0, ecx
	pop	ecx
	mov	esp, ebp
	pop	ebp
	ret	4
_TEXT	ENDS
;	COMDAT text$x
text$x	SEGMENT
__unwindfunclet$??0out_of_range@std@@QAE@ABV01@@Z$0:
	mov	ecx, DWORD PTR _this$[ebp]
	jmp	??1logic_error@std@@UAE@XZ		; std::logic_error::~logic_error
__ehhandler$??0out_of_range@std@@QAE@ABV01@@Z:
	mov	edx, DWORD PTR [esp+8]
	lea	eax, DWORD PTR [edx+12]
	mov	ecx, DWORD PTR [edx-8]
	xor	ecx, eax
	call	@__security_check_cookie@4
	mov	eax, OFFSET __ehfuncinfo$??0out_of_range@std@@QAE@ABV01@@Z
	jmp	___CxxFrameHandler3
text$x	ENDS
??0out_of_range@std@@QAE@ABV01@@Z ENDP			; std::out_of_range::out_of_range
EXTRN	__imp_??0exception@std@@QAE@ABV01@@Z:PROC
;	COMDAT xdata$x
xdata$x	SEGMENT
__unwindtable$??0logic_error@std@@QAE@ABV01@@Z DD 0ffffffffH
	DD	FLAT:__unwindfunclet$??0logic_error@std@@QAE@ABV01@@Z$0
	DD	00H
	DD	FLAT:__unwindfunclet$??0logic_error@std@@QAE@ABV01@@Z$1
__ehfuncinfo$??0logic_error@std@@QAE@ABV01@@Z DD 019930522H
	DD	02H
	DD	FLAT:__unwindtable$??0logic_error@std@@QAE@ABV01@@Z
	DD	2 DUP(00H)
	DD	2 DUP(00H)
	DD	00H
	DD	00H
; Function compile flags: /Odtp
xdata$x	ENDS
;	COMDAT ??0logic_error@std@@QAE@ABV01@@Z
_TEXT	SEGMENT
_this$ = -16						; size = 4
__$EHRec$ = -12						; size = 12
___that$ = 8						; size = 4
??0logic_error@std@@QAE@ABV01@@Z PROC			; std::logic_error::logic_error, COMDAT
; _this$ = ecx
	push	ebp
	mov	ebp, esp
	push	-1
	push	__ehhandler$??0logic_error@std@@QAE@ABV01@@Z
	mov	eax, DWORD PTR fs:0
	push	eax
	push	ecx
	mov	eax, DWORD PTR ___security_cookie
	xor	eax, ebp
	push	eax
	lea	eax, DWORD PTR __$EHRec$[ebp]
	mov	DWORD PTR fs:0, eax
	mov	DWORD PTR _this$[ebp], ecx
	mov	eax, DWORD PTR ___that$[ebp]
	push	eax
	mov	ecx, DWORD PTR _this$[ebp]
	call	DWORD PTR __imp_??0exception@std@@QAE@ABV01@@Z
	mov	DWORD PTR __$EHRec$[ebp+8], 0
	mov	ecx, DWORD PTR _this$[ebp]
	mov	DWORD PTR [ecx], OFFSET ??_7logic_error@std@@6B@
	mov	edx, DWORD PTR ___that$[ebp]
	add	edx, 12					; 0000000cH
	push	edx
	mov	ecx, DWORD PTR _this$[ebp]
	add	ecx, 12					; 0000000cH
	call	DWORD PTR __imp_??0?$basic_string@DU?$char_traits@D@std@@V?$allocator@D@2@@std@@QAE@ABV01@@Z
	mov	BYTE PTR __$EHRec$[ebp+8], 1
	mov	DWORD PTR __$EHRec$[ebp+8], -1
	mov	eax, DWORD PTR _this$[ebp]
	mov	ecx, DWORD PTR __$EHRec$[ebp]
	mov	DWORD PTR fs:0, ecx
	pop	ecx
	mov	esp, ebp
	pop	ebp
	ret	4
_TEXT	ENDS
;	COMDAT text$x
text$x	SEGMENT
__unwindfunclet$??0logic_error@std@@QAE@ABV01@@Z$0:
	mov	ecx, DWORD PTR _this$[ebp]
	jmp	DWORD PTR __imp_??1exception@std@@UAE@XZ
__unwindfunclet$??0logic_error@std@@QAE@ABV01@@Z$1:
	mov	ecx, DWORD PTR _this$[ebp]
	add	ecx, 12					; 0000000cH
	jmp	DWORD PTR __imp_??1?$basic_string@DU?$char_traits@D@std@@V?$allocator@D@2@@std@@QAE@XZ
__ehhandler$??0logic_error@std@@QAE@ABV01@@Z:
	mov	edx, DWORD PTR [esp+8]
	lea	eax, DWORD PTR [edx+12]
	mov	ecx, DWORD PTR [edx-8]
	xor	ecx, eax
	call	@__security_check_cookie@4
	mov	eax, OFFSET __ehfuncinfo$??0logic_error@std@@QAE@ABV01@@Z
	jmp	___CxxFrameHandler3
text$x	ENDS
??0logic_error@std@@QAE@ABV01@@Z ENDP			; std::logic_error::logic_error
PUBLIC	?_Erase@?$_Tree@V?$_Tmap_traits@IPAVHardwareBufferPool@Ogre@@U?$less@I@std@@V?$allocator@U?$pair@$$CBIPAVHardwareBufferPool@Ogre@@@std@@@4@$0A@@std@@@std@@IAEXPAU_Node@?$_Tree_nod@V?$_Tmap_traits@IPAVHardwareBufferPool@Ogre@@U?$less@I@std@@V?$allocator@U?$pair@$$CBIPAVHardwareBufferPool@Ogre@@@std@@@4@$0A@@std@@@2@@Z ; std::_Tree<std::_Tmap_traits<unsigned int,Ogre::HardwareBufferPool *,std::less<unsigned int>,std::allocator<std::pair<unsigned int const ,Ogre::HardwareBufferPool *> >,0> >::_Erase
; Function compile flags: /Odtp
; File d:\program files (x86)\microsoft visual studio 9.0\vc\include\xtree
;	COMDAT ?clear@?$_Tree@V?$_Tmap_traits@IPAVHardwareBufferPool@Ogre@@U?$less@I@std@@V?$allocator@U?$pair@$$CBIPAVHardwareBufferPool@Ogre@@@std@@@4@$0A@@std@@@std@@QAEXXZ
_TEXT	SEGMENT
_this$ = -4						; size = 4
?clear@?$_Tree@V?$_Tmap_traits@IPAVHardwareBufferPool@Ogre@@U?$less@I@std@@V?$allocator@U?$pair@$$CBIPAVHardwareBufferPool@Ogre@@@std@@@4@$0A@@std@@@std@@QAEXXZ PROC ; std::_Tree<std::_Tmap_traits<unsigned int,Ogre::HardwareBufferPool *,std::less<unsigned int>,std::allocator<std::pair<unsigned int const ,Ogre::HardwareBufferPool *> >,0> >::clear, COMDAT
; _this$ = ecx

; 965  : 		{	// erase all

	push	ebp
	mov	ebp, esp
	push	ecx
	mov	DWORD PTR _this$[ebp], ecx

; 966  : 
; 967  :  #if _HAS_ITERATOR_DEBUGGING
; 968  : 		this->_Orphan_ptr(*this, 0);
; 969  :  #endif /* _HAS_ITERATOR_DEBUGGING */
; 970  : 
; 971  : 		_Erase(_Root());

	mov	ecx, DWORD PTR _this$[ebp]
	call	?_Root@?$_Tree@V?$_Tmap_traits@IPAVHardwareBufferPool@Ogre@@U?$less@I@std@@V?$allocator@U?$pair@$$CBIPAVHardwareBufferPool@Ogre@@@std@@@4@$0A@@std@@@std@@IBEAAPAU_Node@?$_Tree_nod@V?$_Tmap_traits@IPAVHardwareBufferPool@Ogre@@U?$less@I@std@@V?$allocator@U?$pair@$$CBIPAVHardwareBufferPool@Ogre@@@std@@@4@$0A@@std@@@2@XZ ; std::_Tree<std::_Tmap_traits<unsigned int,Ogre::HardwareBufferPool *,std::less<unsigned int>,std::allocator<std::pair<unsigned int const ,Ogre::HardwareBufferPool *> >,0> >::_Root
	mov	eax, DWORD PTR [eax]
	push	eax
	mov	ecx, DWORD PTR _this$[ebp]
	call	?_Erase@?$_Tree@V?$_Tmap_traits@IPAVHardwareBufferPool@Ogre@@U?$less@I@std@@V?$allocator@U?$pair@$$CBIPAVHardwareBufferPool@Ogre@@@std@@@4@$0A@@std@@@std@@IAEXPAU_Node@?$_Tree_nod@V?$_Tmap_traits@IPAVHardwareBufferPool@Ogre@@U?$less@I@std@@V?$allocator@U?$pair@$$CBIPAVHardwareBufferPool@Ogre@@@std@@@4@$0A@@std@@@2@@Z ; std::_Tree<std::_Tmap_traits<unsigned int,Ogre::HardwareBufferPool *,std::less<unsigned int>,std::allocator<std::pair<unsigned int const ,Ogre::HardwareBufferPool *> >,0> >::_Erase

; 972  : 		_Root() = _Myhead, _Mysize = 0;

	mov	ecx, DWORD PTR _this$[ebp]
	call	?_Root@?$_Tree@V?$_Tmap_traits@IPAVHardwareBufferPool@Ogre@@U?$less@I@std@@V?$allocator@U?$pair@$$CBIPAVHardwareBufferPool@Ogre@@@std@@@4@$0A@@std@@@std@@IBEAAPAU_Node@?$_Tree_nod@V?$_Tmap_traits@IPAVHardwareBufferPool@Ogre@@U?$less@I@std@@V?$allocator@U?$pair@$$CBIPAVHardwareBufferPool@Ogre@@@std@@@4@$0A@@std@@@2@XZ ; std::_Tree<std::_Tmap_traits<unsigned int,Ogre::HardwareBufferPool *,std::less<unsigned int>,std::allocator<std::pair<unsigned int const ,Ogre::HardwareBufferPool *> >,0> >::_Root
	mov	ecx, DWORD PTR _this$[ebp]
	mov	edx, DWORD PTR [ecx+24]
	mov	DWORD PTR [eax], edx
	mov	eax, DWORD PTR _this$[ebp]
	mov	DWORD PTR [eax+28], 0

; 973  : 		_Lmost() = _Myhead, _Rmost() = _Myhead;

	mov	ecx, DWORD PTR _this$[ebp]
	call	?_Lmost@?$_Tree@V?$_Tmap_traits@IPAVHardwareBufferPool@Ogre@@U?$less@I@std@@V?$allocator@U?$pair@$$CBIPAVHardwareBufferPool@Ogre@@@std@@@4@$0A@@std@@@std@@IBEAAPAU_Node@?$_Tree_nod@V?$_Tmap_traits@IPAVHardwareBufferPool@Ogre@@U?$less@I@std@@V?$allocator@U?$pair@$$CBIPAVHardwareBufferPool@Ogre@@@std@@@4@$0A@@std@@@2@XZ ; std::_Tree<std::_Tmap_traits<unsigned int,Ogre::HardwareBufferPool *,std::less<unsigned int>,std::allocator<std::pair<unsigned int const ,Ogre::HardwareBufferPool *> >,0> >::_Lmost
	mov	ecx, DWORD PTR _this$[ebp]
	mov	edx, DWORD PTR [ecx+24]
	mov	DWORD PTR [eax], edx
	mov	ecx, DWORD PTR _this$[ebp]
	call	?_Rmost@?$_Tree@V?$_Tmap_traits@IPAVHardwareBufferPool@Ogre@@U?$less@I@std@@V?$allocator@U?$pair@$$CBIPAVHardwareBufferPool@Ogre@@@std@@@4@$0A@@std@@@std@@IBEAAPAU_Node@?$_Tree_nod@V?$_Tmap_traits@IPAVHardwareBufferPool@Ogre@@U?$less@I@std@@V?$allocator@U?$pair@$$CBIPAVHardwareBufferPool@Ogre@@@std@@@4@$0A@@std@@@2@XZ ; std::_Tree<std::_Tmap_traits<unsigned int,Ogre::HardwareBufferPool *,std::less<unsigned int>,std::allocator<std::pair<unsigned int const ,Ogre::HardwareBufferPool *> >,0> >::_Rmost
	mov	ecx, DWORD PTR _this$[ebp]
	mov	edx, DWORD PTR [ecx+24]
	mov	DWORD PTR [eax], edx

; 974  : 		}

	mov	esp, ebp
	pop	ebp
	ret	0
?clear@?$_Tree@V?$_Tmap_traits@IPAVHardwareBufferPool@Ogre@@U?$less@I@std@@V?$allocator@U?$pair@$$CBIPAVHardwareBufferPool@Ogre@@@std@@@4@$0A@@std@@@std@@QAEXXZ ENDP ; std::_Tree<std::_Tmap_traits<unsigned int,Ogre::HardwareBufferPool *,std::less<unsigned int>,std::allocator<std::pair<unsigned int const ,Ogre::HardwareBufferPool *> >,0> >::clear
_TEXT	ENDS
PUBLIC	?_Buynode@?$_Tree@V?$_Tmap_traits@IPAVHardwareBufferPool@Ogre@@U?$less@I@std@@V?$allocator@U?$pair@$$CBIPAVHardwareBufferPool@Ogre@@@std@@@4@$0A@@std@@@std@@IAEPAU_Node@?$_Tree_nod@V?$_Tmap_traits@IPAVHardwareBufferPool@Ogre@@U?$less@I@std@@V?$allocator@U?$pair@$$CBIPAVHardwareBufferPool@Ogre@@@std@@@4@$0A@@std@@@2@PAU342@00ABU?$pair@$$CBIPAVHardwareBufferPool@Ogre@@@2@D@Z ; std::_Tree<std::_Tmap_traits<unsigned int,Ogre::HardwareBufferPool *,std::less<unsigned int>,std::allocator<std::pair<unsigned int const ,Ogre::HardwareBufferPool *> >,0> >::_Buynode
;	COMDAT xdata$x
xdata$x	SEGMENT
__catchsym$?_Copy@?$_Tree@V?$_Tmap_traits@IPAVHardwareBufferPool@Ogre@@U?$less@I@std@@V?$allocator@U?$pair@$$CBIPAVHardwareBufferPool@Ogre@@@std@@@4@$0A@@std@@@std@@IAEPAU_Node@?$_Tree_nod@V?$_Tmap_traits@IPAVHardwareBufferPool@Ogre@@U?$less@I@std@@V?$allocator@U?$pair@$$CBIPAVHardwareBufferPool@Ogre@@@std@@@4@$0A@@std@@@2@PAU342@0@Z$2 DD 00H
	DD	00H
	DD	00H
	DD	FLAT:__catch$?_Copy@?$_Tree@V?$_Tmap_traits@IPAVHardwareBufferPool@Ogre@@U?$less@I@std@@V?$allocator@U?$pair@$$CBIPAVHardwareBufferPool@Ogre@@@std@@@4@$0A@@std@@@std@@IAEPAU_Node@?$_Tree_nod@V?$_Tmap_traits@IPAVHardwareBufferPool@Ogre@@U?$less@I@std@@V?$allocator@U?$pair@$$CBIPAVHardwareBufferPool@Ogre@@@std@@@4@$0A@@std@@@2@PAU342@0@Z$0
__unwindtable$?_Copy@?$_Tree@V?$_Tmap_traits@IPAVHardwareBufferPool@Ogre@@U?$less@I@std@@V?$allocator@U?$pair@$$CBIPAVHardwareBufferPool@Ogre@@@std@@@4@$0A@@std@@@std@@IAEPAU_Node@?$_Tree_nod@V?$_Tmap_traits@IPAVHardwareBufferPool@Ogre@@U?$less@I@std@@V?$allocator@U?$pair@$$CBIPAVHardwareBufferPool@Ogre@@@std@@@4@$0A@@std@@@2@PAU342@0@Z DD 0ffffffffH
	DD	00H
	DD	0ffffffffH
	DD	00H
__tryblocktable$?_Copy@?$_Tree@V?$_Tmap_traits@IPAVHardwareBufferPool@Ogre@@U?$less@I@std@@V?$allocator@U?$pair@$$CBIPAVHardwareBufferPool@Ogre@@@std@@@4@$0A@@std@@@std@@IAEPAU_Node@?$_Tree_nod@V?$_Tmap_traits@IPAVHardwareBufferPool@Ogre@@U?$less@I@std@@V?$allocator@U?$pair@$$CBIPAVHardwareBufferPool@Ogre@@@std@@@4@$0A@@std@@@2@PAU342@0@Z DD 00H
	DD	00H
	DD	01H
	DD	01H
	DD	FLAT:__catchsym$?_Copy@?$_Tree@V?$_Tmap_traits@IPAVHardwareBufferPool@Ogre@@U?$less@I@std@@V?$allocator@U?$pair@$$CBIPAVHardwareBufferPool@Ogre@@@std@@@4@$0A@@std@@@std@@IAEPAU_Node@?$_Tree_nod@V?$_Tmap_traits@IPAVHardwareBufferPool@Ogre@@U?$less@I@std@@V?$allocator@U?$pair@$$CBIPAVHardwareBufferPool@Ogre@@@std@@@4@$0A@@std@@@2@PAU342@0@Z$2
__ehfuncinfo$?_Copy@?$_Tree@V?$_Tmap_traits@IPAVHardwareBufferPool@Ogre@@U?$less@I@std@@V?$allocator@U?$pair@$$CBIPAVHardwareBufferPool@Ogre@@@std@@@4@$0A@@std@@@std@@IAEPAU_Node@?$_Tree_nod@V?$_Tmap_traits@IPAVHardwareBufferPool@Ogre@@U?$less@I@std@@V?$allocator@U?$pair@$$CBIPAVHardwareBufferPool@Ogre@@@std@@@4@$0A@@std@@@2@PAU342@0@Z DD 019930522H
	DD	02H
	DD	FLAT:__unwindtable$?_Copy@?$_Tree@V?$_Tmap_traits@IPAVHardwareBufferPool@Ogre@@U?$less@I@std@@V?$allocator@U?$pair@$$CBIPAVHardwareBufferPool@Ogre@@@std@@@4@$0A@@std@@@std@@IAEPAU_Node@?$_Tree_nod@V?$_Tmap_traits@IPAVHardwareBufferPool@Ogre@@U?$less@I@std@@V?$allocator@U?$pair@$$CBIPAVHardwareBufferPool@Ogre@@@std@@@4@$0A@@std@@@2@PAU342@0@Z
	DD	01H
	DD	FLAT:__tryblocktable$?_Copy@?$_Tree@V?$_Tmap_traits@IPAVHardwareBufferPool@Ogre@@U?$less@I@std@@V?$allocator@U?$pair@$$CBIPAVHardwareBufferPool@Ogre@@@std@@@4@$0A@@std@@@std@@IAEPAU_Node@?$_Tree_nod@V?$_Tmap_traits@IPAVHardwareBufferPool@Ogre@@U?$less@I@std@@V?$allocator@U?$pair@$$CBIPAVHardwareBufferPool@Ogre@@@std@@@4@$0A@@std@@@2@PAU342@0@Z
	DD	2 DUP(00H)
	DD	00H
	DD	00H
; Function compile flags: /Odtp
xdata$x	ENDS
;	COMDAT ?_Copy@?$_Tree@V?$_Tmap_traits@IPAVHardwareBufferPool@Ogre@@U?$less@I@std@@V?$allocator@U?$pair@$$CBIPAVHardwareBufferPool@Ogre@@@std@@@4@$0A@@std@@@std@@IAEPAU_Node@?$_Tree_nod@V?$_Tmap_traits@IPAVHardwareBufferPool@Ogre@@U?$less@I@std@@V?$allocator@U?$pair@$$CBIPAVHardwareBufferPool@Ogre@@@std@@@4@$0A@@std@@@2@PAU342@0@Z
_TEXT	SEGMENT
_this$ = -28						; size = 4
__Pnode$61009 = -24					; size = 4
__Newroot$ = -20					; size = 4
__$EHRec$ = -16						; size = 16
__Rootnode$ = 8						; size = 4
__Wherenode$ = 12					; size = 4
?_Copy@?$_Tree@V?$_Tmap_traits@IPAVHardwareBufferPool@Ogre@@U?$less@I@std@@V?$allocator@U?$pair@$$CBIPAVHardwareBufferPool@Ogre@@@std@@@4@$0A@@std@@@std@@IAEPAU_Node@?$_Tree_nod@V?$_Tmap_traits@IPAVHardwareBufferPool@Ogre@@U?$less@I@std@@V?$allocator@U?$pair@$$CBIPAVHardwareBufferPool@Ogre@@@std@@@4@$0A@@std@@@2@PAU342@0@Z PROC ; std::_Tree<std::_Tmap_traits<unsigned int,Ogre::HardwareBufferPool *,std::less<unsigned int>,std::allocator<std::pair<unsigned int const ,Ogre::HardwareBufferPool *> >,0> >::_Copy, COMDAT
; _this$ = ecx

; 1075 : 		{	// copy entire subtree, recursively

	push	ebp
	mov	ebp, esp
	push	-1
	push	__ehhandler$?_Copy@?$_Tree@V?$_Tmap_traits@IPAVHardwareBufferPool@Ogre@@U?$less@I@std@@V?$allocator@U?$pair@$$CBIPAVHardwareBufferPool@Ogre@@@std@@@4@$0A@@std@@@std@@IAEPAU_Node@?$_Tree_nod@V?$_Tmap_traits@IPAVHardwareBufferPool@Ogre@@U?$less@I@std@@V?$allocator@U?$pair@$$CBIPAVHardwareBufferPool@Ogre@@@std@@@4@$0A@@std@@@2@PAU342@0@Z
	mov	eax, DWORD PTR fs:0
	push	eax
	push	ecx
	sub	esp, 12					; 0000000cH
	push	ebx
	push	esi
	push	edi
	mov	eax, DWORD PTR ___security_cookie
	xor	eax, ebp
	push	eax
	lea	eax, DWORD PTR __$EHRec$[ebp+4]
	mov	DWORD PTR fs:0, eax
	mov	DWORD PTR __$EHRec$[ebp], esp
	mov	DWORD PTR _this$[ebp], ecx

; 1076 : 		_Nodeptr _Newroot = _Myhead;	// point at nil node

	mov	eax, DWORD PTR _this$[ebp]
	mov	ecx, DWORD PTR [eax+24]
	mov	DWORD PTR __Newroot$[ebp], ecx

; 1077 : 
; 1078 : 		if (!_Isnil(_Rootnode))

	mov	edx, DWORD PTR __Rootnode$[ebp]
	push	edx
	call	?_Isnil@?$_Tree@V?$_Tmap_traits@IPAVHardwareBufferPool@Ogre@@U?$less@I@std@@V?$allocator@U?$pair@$$CBIPAVHardwareBufferPool@Ogre@@@std@@@4@$0A@@std@@@std@@KAAADPAU_Node@?$_Tree_nod@V?$_Tmap_traits@IPAVHardwareBufferPool@Ogre@@U?$less@I@std@@V?$allocator@U?$pair@$$CBIPAVHardwareBufferPool@Ogre@@@std@@@4@$0A@@std@@@2@@Z ; std::_Tree<std::_Tmap_traits<unsigned int,Ogre::HardwareBufferPool *,std::less<unsigned int>,std::allocator<std::pair<unsigned int const ,Ogre::HardwareBufferPool *> >,0> >::_Isnil
	add	esp, 4
	movsx	eax, BYTE PTR [eax]
	test	eax, eax
	jne	$LN3@Copy@2

; 1079 : 			{	// copy a node, then any subtrees
; 1080 : 			_Nodeptr _Pnode = _Buynode(_Myhead, _Wherenode, _Myhead,
; 1081 : 				_Myval(_Rootnode), _Color(_Rootnode));

	mov	ecx, DWORD PTR __Rootnode$[ebp]
	push	ecx
	call	?_Color@?$_Tree@V?$_Tmap_traits@IPAVHardwareBufferPool@Ogre@@U?$less@I@std@@V?$allocator@U?$pair@$$CBIPAVHardwareBufferPool@Ogre@@@std@@@4@$0A@@std@@@std@@KAAADPAU_Node@?$_Tree_nod@V?$_Tmap_traits@IPAVHardwareBufferPool@Ogre@@U?$less@I@std@@V?$allocator@U?$pair@$$CBIPAVHardwareBufferPool@Ogre@@@std@@@4@$0A@@std@@@2@@Z ; std::_Tree<std::_Tmap_traits<unsigned int,Ogre::HardwareBufferPool *,std::less<unsigned int>,std::allocator<std::pair<unsigned int const ,Ogre::HardwareBufferPool *> >,0> >::_Color
	add	esp, 4
	movzx	edx, BYTE PTR [eax]
	push	edx
	mov	eax, DWORD PTR __Rootnode$[ebp]
	push	eax
	call	?_Myval@?$_Tree@V?$_Tmap_traits@IPAVHardwareBufferPool@Ogre@@U?$less@I@std@@V?$allocator@U?$pair@$$CBIPAVHardwareBufferPool@Ogre@@@std@@@4@$0A@@std@@@std@@KAAAU?$pair@$$CBIPAVHardwareBufferPool@Ogre@@@2@PAU_Node@?$_Tree_nod@V?$_Tmap_traits@IPAVHardwareBufferPool@Ogre@@U?$less@I@std@@V?$allocator@U?$pair@$$CBIPAVHardwareBufferPool@Ogre@@@std@@@4@$0A@@std@@@2@@Z ; std::_Tree<std::_Tmap_traits<unsigned int,Ogre::HardwareBufferPool *,std::less<unsigned int>,std::allocator<std::pair<unsigned int const ,Ogre::HardwareBufferPool *> >,0> >::_Myval
	add	esp, 4
	push	eax
	mov	ecx, DWORD PTR _this$[ebp]
	mov	edx, DWORD PTR [ecx+24]
	push	edx
	mov	eax, DWORD PTR __Wherenode$[ebp]
	push	eax
	mov	ecx, DWORD PTR _this$[ebp]
	mov	edx, DWORD PTR [ecx+24]
	push	edx
	mov	ecx, DWORD PTR _this$[ebp]
	call	?_Buynode@?$_Tree@V?$_Tmap_traits@IPAVHardwareBufferPool@Ogre@@U?$less@I@std@@V?$allocator@U?$pair@$$CBIPAVHardwareBufferPool@Ogre@@@std@@@4@$0A@@std@@@std@@IAEPAU_Node@?$_Tree_nod@V?$_Tmap_traits@IPAVHardwareBufferPool@Ogre@@U?$less@I@std@@V?$allocator@U?$pair@$$CBIPAVHardwareBufferPool@Ogre@@@std@@@4@$0A@@std@@@2@PAU342@00ABU?$pair@$$CBIPAVHardwareBufferPool@Ogre@@@2@D@Z ; std::_Tree<std::_Tmap_traits<unsigned int,Ogre::HardwareBufferPool *,std::less<unsigned int>,std::allocator<std::pair<unsigned int const ,Ogre::HardwareBufferPool *> >,0> >::_Buynode
	mov	DWORD PTR __Pnode$61009[ebp], eax

; 1082 : 			if (_Isnil(_Newroot))

	mov	eax, DWORD PTR __Newroot$[ebp]
	push	eax
	call	?_Isnil@?$_Tree@V?$_Tmap_traits@IPAVHardwareBufferPool@Ogre@@U?$less@I@std@@V?$allocator@U?$pair@$$CBIPAVHardwareBufferPool@Ogre@@@std@@@4@$0A@@std@@@std@@KAAADPAU_Node@?$_Tree_nod@V?$_Tmap_traits@IPAVHardwareBufferPool@Ogre@@U?$less@I@std@@V?$allocator@U?$pair@$$CBIPAVHardwareBufferPool@Ogre@@@std@@@4@$0A@@std@@@2@@Z ; std::_Tree<std::_Tmap_traits<unsigned int,Ogre::HardwareBufferPool *,std::less<unsigned int>,std::allocator<std::pair<unsigned int const ,Ogre::HardwareBufferPool *> >,0> >::_Isnil
	add	esp, 4
	movsx	ecx, BYTE PTR [eax]
	test	ecx, ecx
	je	SHORT $LN2@Copy@2

; 1083 : 				_Newroot = _Pnode;	// memorize new root

	mov	edx, DWORD PTR __Pnode$61009[ebp]
	mov	DWORD PTR __Newroot$[ebp], edx
$LN2@Copy@2:

; 1084 : 
; 1085 : 			_TRY_BEGIN

	mov	DWORD PTR __$EHRec$[ebp+12], 0

; 1086 : 			_Left(_Pnode) = _Copy(_Left(_Rootnode), _Pnode);

	mov	eax, DWORD PTR __Pnode$61009[ebp]
	push	eax
	mov	ecx, DWORD PTR __Rootnode$[ebp]
	push	ecx
	call	?_Left@?$_Tree@V?$_Tmap_traits@IPAVHardwareBufferPool@Ogre@@U?$less@I@std@@V?$allocator@U?$pair@$$CBIPAVHardwareBufferPool@Ogre@@@std@@@4@$0A@@std@@@std@@KAAAPAU_Node@?$_Tree_nod@V?$_Tmap_traits@IPAVHardwareBufferPool@Ogre@@U?$less@I@std@@V?$allocator@U?$pair@$$CBIPAVHardwareBufferPool@Ogre@@@std@@@4@$0A@@std@@@2@PAU342@@Z ; std::_Tree<std::_Tmap_traits<unsigned int,Ogre::HardwareBufferPool *,std::less<unsigned int>,std::allocator<std::pair<unsigned int const ,Ogre::HardwareBufferPool *> >,0> >::_Left
	add	esp, 4
	mov	edx, DWORD PTR [eax]
	push	edx
	mov	ecx, DWORD PTR _this$[ebp]
	call	?_Copy@?$_Tree@V?$_Tmap_traits@IPAVHardwareBufferPool@Ogre@@U?$less@I@std@@V?$allocator@U?$pair@$$CBIPAVHardwareBufferPool@Ogre@@@std@@@4@$0A@@std@@@std@@IAEPAU_Node@?$_Tree_nod@V?$_Tmap_traits@IPAVHardwareBufferPool@Ogre@@U?$less@I@std@@V?$allocator@U?$pair@$$CBIPAVHardwareBufferPool@Ogre@@@std@@@4@$0A@@std@@@2@PAU342@0@Z ; std::_Tree<std::_Tmap_traits<unsigned int,Ogre::HardwareBufferPool *,std::less<unsigned int>,std::allocator<std::pair<unsigned int const ,Ogre::HardwareBufferPool *> >,0> >::_Copy
	mov	esi, eax
	mov	eax, DWORD PTR __Pnode$61009[ebp]
	push	eax
	call	?_Left@?$_Tree@V?$_Tmap_traits@IPAVHardwareBufferPool@Ogre@@U?$less@I@std@@V?$allocator@U?$pair@$$CBIPAVHardwareBufferPool@Ogre@@@std@@@4@$0A@@std@@@std@@KAAAPAU_Node@?$_Tree_nod@V?$_Tmap_traits@IPAVHardwareBufferPool@Ogre@@U?$less@I@std@@V?$allocator@U?$pair@$$CBIPAVHardwareBufferPool@Ogre@@@std@@@4@$0A@@std@@@2@PAU342@@Z ; std::_Tree<std::_Tmap_traits<unsigned int,Ogre::HardwareBufferPool *,std::less<unsigned int>,std::allocator<std::pair<unsigned int const ,Ogre::HardwareBufferPool *> >,0> >::_Left
	add	esp, 4
	mov	DWORD PTR [eax], esi

; 1087 : 			_Right(_Pnode) = _Copy(_Right(_Rootnode), _Pnode);

	mov	ecx, DWORD PTR __Pnode$61009[ebp]
	push	ecx
	mov	edx, DWORD PTR __Rootnode$[ebp]
	push	edx
	call	?_Right@?$_Tree@V?$_Tmap_traits@IPAVHardwareBufferPool@Ogre@@U?$less@I@std@@V?$allocator@U?$pair@$$CBIPAVHardwareBufferPool@Ogre@@@std@@@4@$0A@@std@@@std@@KAAAPAU_Node@?$_Tree_nod@V?$_Tmap_traits@IPAVHardwareBufferPool@Ogre@@U?$less@I@std@@V?$allocator@U?$pair@$$CBIPAVHardwareBufferPool@Ogre@@@std@@@4@$0A@@std@@@2@PAU342@@Z ; std::_Tree<std::_Tmap_traits<unsigned int,Ogre::HardwareBufferPool *,std::less<unsigned int>,std::allocator<std::pair<unsigned int const ,Ogre::HardwareBufferPool *> >,0> >::_Right
	add	esp, 4
	mov	eax, DWORD PTR [eax]
	push	eax
	mov	ecx, DWORD PTR _this$[ebp]
	call	?_Copy@?$_Tree@V?$_Tmap_traits@IPAVHardwareBufferPool@Ogre@@U?$less@I@std@@V?$allocator@U?$pair@$$CBIPAVHardwareBufferPool@Ogre@@@std@@@4@$0A@@std@@@std@@IAEPAU_Node@?$_Tree_nod@V?$_Tmap_traits@IPAVHardwareBufferPool@Ogre@@U?$less@I@std@@V?$allocator@U?$pair@$$CBIPAVHardwareBufferPool@Ogre@@@std@@@4@$0A@@std@@@2@PAU342@0@Z ; std::_Tree<std::_Tmap_traits<unsigned int,Ogre::HardwareBufferPool *,std::less<unsigned int>,std::allocator<std::pair<unsigned int const ,Ogre::HardwareBufferPool *> >,0> >::_Copy
	mov	esi, eax
	mov	ecx, DWORD PTR __Pnode$61009[ebp]
	push	ecx
	call	?_Right@?$_Tree@V?$_Tmap_traits@IPAVHardwareBufferPool@Ogre@@U?$less@I@std@@V?$allocator@U?$pair@$$CBIPAVHardwareBufferPool@Ogre@@@std@@@4@$0A@@std@@@std@@KAAAPAU_Node@?$_Tree_nod@V?$_Tmap_traits@IPAVHardwareBufferPool@Ogre@@U?$less@I@std@@V?$allocator@U?$pair@$$CBIPAVHardwareBufferPool@Ogre@@@std@@@4@$0A@@std@@@2@PAU342@@Z ; std::_Tree<std::_Tmap_traits<unsigned int,Ogre::HardwareBufferPool *,std::less<unsigned int>,std::allocator<std::pair<unsigned int const ,Ogre::HardwareBufferPool *> >,0> >::_Right
	add	esp, 4
	mov	DWORD PTR [eax], esi
	jmp	SHORT $LN6@Copy@2
__catch$?_Copy@?$_Tree@V?$_Tmap_traits@IPAVHardwareBufferPool@Ogre@@U?$less@I@std@@V?$allocator@U?$pair@$$CBIPAVHardwareBufferPool@Ogre@@@std@@@4@$0A@@std@@@std@@IAEPAU_Node@?$_Tree_nod@V?$_Tmap_traits@IPAVHardwareBufferPool@Ogre@@U?$less@I@std@@V?$allocator@U?$pair@$$CBIPAVHardwareBufferPool@Ogre@@@std@@@4@$0A@@std@@@2@PAU342@0@Z$0:

; 1088 : 			_CATCH_ALL
; 1089 : 			_Erase(_Newroot);	// subtree copy failed, bail out

	mov	edx, DWORD PTR __Newroot$[ebp]
	push	edx
	mov	ecx, DWORD PTR _this$[ebp]
	call	?_Erase@?$_Tree@V?$_Tmap_traits@IPAVHardwareBufferPool@Ogre@@U?$less@I@std@@V?$allocator@U?$pair@$$CBIPAVHardwareBufferPool@Ogre@@@std@@@4@$0A@@std@@@std@@IAEXPAU_Node@?$_Tree_nod@V?$_Tmap_traits@IPAVHardwareBufferPool@Ogre@@U?$less@I@std@@V?$allocator@U?$pair@$$CBIPAVHardwareBufferPool@Ogre@@@std@@@4@$0A@@std@@@2@@Z ; std::_Tree<std::_Tmap_traits<unsigned int,Ogre::HardwareBufferPool *,std::less<unsigned int>,std::allocator<std::pair<unsigned int const ,Ogre::HardwareBufferPool *> >,0> >::_Erase

; 1090 : 			_RERAISE;

	push	0
	push	0
	call	__CxxThrowException@8

; 1091 : 			_CATCH_END

	mov	DWORD PTR __$EHRec$[ebp+12], -1
	mov	eax, $LN3@Copy@2
	ret	0
$LN6@Copy@2:
	mov	DWORD PTR __$EHRec$[ebp+12], -1
$LN3@Copy@2:

; 1092 : 			}
; 1093 : 
; 1094 : 		return (_Newroot);	// return newly constructed tree

	mov	eax, DWORD PTR __Newroot$[ebp]
$LN5@Copy@2:

; 1095 : 		}

	mov	ecx, DWORD PTR __$EHRec$[ebp+4]
	mov	DWORD PTR fs:0, ecx
	pop	ecx
	pop	edi
	pop	esi
	pop	ebx
	mov	esp, ebp
	pop	ebp
	ret	8
_TEXT	ENDS
;	COMDAT text$x
text$x	SEGMENT
__ehhandler$?_Copy@?$_Tree@V?$_Tmap_traits@IPAVHardwareBufferPool@Ogre@@U?$less@I@std@@V?$allocator@U?$pair@$$CBIPAVHardwareBufferPool@Ogre@@@std@@@4@$0A@@std@@@std@@IAEPAU_Node@?$_Tree_nod@V?$_Tmap_traits@IPAVHardwareBufferPool@Ogre@@U?$less@I@std@@V?$allocator@U?$pair@$$CBIPAVHardwareBufferPool@Ogre@@@std@@@4@$0A@@std@@@2@PAU342@0@Z:
	mov	edx, DWORD PTR [esp+8]
	lea	eax, DWORD PTR [edx+12]
	mov	ecx, DWORD PTR [edx-32]
	xor	ecx, eax
	call	@__security_check_cookie@4
	mov	eax, OFFSET __ehfuncinfo$?_Copy@?$_Tree@V?$_Tmap_traits@IPAVHardwareBufferPool@Ogre@@U?$less@I@std@@V?$allocator@U?$pair@$$CBIPAVHardwareBufferPool@Ogre@@@std@@@4@$0A@@std@@@std@@IAEPAU_Node@?$_Tree_nod@V?$_Tmap_traits@IPAVHardwareBufferPool@Ogre@@U?$less@I@std@@V?$allocator@U?$pair@$$CBIPAVHardwareBufferPool@Ogre@@@std@@@4@$0A@@std@@@2@PAU342@0@Z
	jmp	___CxxFrameHandler3
text$x	ENDS
?_Copy@?$_Tree@V?$_Tmap_traits@IPAVHardwareBufferPool@Ogre@@U?$less@I@std@@V?$allocator@U?$pair@$$CBIPAVHardwareBufferPool@Ogre@@@std@@@4@$0A@@std@@@std@@IAEPAU_Node@?$_Tree_nod@V?$_Tmap_traits@IPAVHardwareBufferPool@Ogre@@U?$less@I@std@@V?$allocator@U?$pair@$$CBIPAVHardwareBufferPool@Ogre@@@std@@@4@$0A@@std@@@2@PAU342@0@Z ENDP ; std::_Tree<std::_Tmap_traits<unsigned int,Ogre::HardwareBufferPool *,std::less<unsigned int>,std::allocator<std::pair<unsigned int const ,Ogre::HardwareBufferPool *> >,0> >::_Copy
PUBLIC	__TI3?AVlength_error@std@@
PUBLIC	??0length_error@std@@QAE@ABV?$basic_string@DU?$char_traits@D@std@@V?$allocator@D@2@@1@@Z ; std::length_error::length_error
PUBLIC	??_C@_0BE@JONHPENG@map?1set?$DMT?$DO?5too?5long?$AA@ ; `string'
PUBLIC	?max_size@?$_Tree@V?$_Tmap_traits@IPAVHardwareBufferPool@Ogre@@U?$less@I@std@@V?$allocator@U?$pair@$$CBIPAVHardwareBufferPool@Ogre@@@std@@@4@$0A@@std@@@std@@QBEIXZ ; std::_Tree<std::_Tmap_traits<unsigned int,Ogre::HardwareBufferPool *,std::less<unsigned int>,std::allocator<std::pair<unsigned int const ,Ogre::HardwareBufferPool *> >,0> >::max_size
PUBLIC	??1length_error@std@@UAE@XZ			; std::length_error::~length_error
PUBLIC	__CTA3?AVlength_error@std@@
PUBLIC	__CT??_R0?AVlength_error@std@@@8??0length_error@std@@QAE@ABV01@@Z40
PUBLIC	??_R0?AVlength_error@std@@@8			; std::length_error `RTTI Type Descriptor'
PUBLIC	??0length_error@std@@QAE@ABV01@@Z		; std::length_error::length_error
;	COMDAT ??_R0?AVlength_error@std@@@8
_DATA	SEGMENT
??_R0?AVlength_error@std@@@8 DD FLAT:??_7type_info@@6B@	; std::length_error `RTTI Type Descriptor'
	DD	00H
	DB	'.?AVlength_error@std@@', 00H
_DATA	ENDS
;	COMDAT __CT??_R0?AVlength_error@std@@@8??0length_error@std@@QAE@ABV01@@Z40
xdata$x	SEGMENT
__CT??_R0?AVlength_error@std@@@8??0length_error@std@@QAE@ABV01@@Z40 DD 00H
	DD	FLAT:??_R0?AVlength_error@std@@@8
	DD	00H
	DD	0ffffffffH
	ORG $+4
	DD	028H
	DD	FLAT:??0length_error@std@@QAE@ABV01@@Z
xdata$x	ENDS
;	COMDAT __CTA3?AVlength_error@std@@
xdata$x	SEGMENT
__CTA3?AVlength_error@std@@ DD 03H
	DD	FLAT:__CT??_R0?AVlength_error@std@@@8??0length_error@std@@QAE@ABV01@@Z40
	DD	FLAT:__CT??_R0?AVlogic_error@std@@@8??0logic_error@std@@QAE@ABV01@@Z40
	DD	FLAT:__CT??_R0?AVexception@std@@@8??0exception@std@@QAE@ABV01@@Z12
xdata$x	ENDS
;	COMDAT __TI3?AVlength_error@std@@
xdata$x	SEGMENT
__TI3?AVlength_error@std@@ DD 00H
	DD	FLAT:??1length_error@std@@UAE@XZ
	DD	00H
	DD	FLAT:__CTA3?AVlength_error@std@@
xdata$x	ENDS
;	COMDAT ??_C@_0BE@JONHPENG@map?1set?$DMT?$DO?5too?5long?$AA@
CONST	SEGMENT
??_C@_0BE@JONHPENG@map?1set?$DMT?$DO?5too?5long?$AA@ DB 'map/set<T> too l'
	DB	'ong', 00H					; `string'
CONST	ENDS
;	COMDAT xdata$x
xdata$x	SEGMENT
__unwindtable$?_Insert@?$_Tree@V?$_Tmap_traits@IPAVHardwareBufferPool@Ogre@@U?$less@I@std@@V?$allocator@U?$pair@$$CBIPAVHardwareBufferPool@Ogre@@@std@@@4@$0A@@std@@@std@@IAE?AViterator@12@_NPAU_Node@?$_Tree_nod@V?$_Tmap_traits@IPAVHardwareBufferPool@Ogre@@U?$less@I@std@@V?$allocator@U?$pair@$$CBIPAVHardwareBufferPool@Ogre@@@std@@@4@$0A@@std@@@2@ABU?$pair@$$CBIPAVHardwareBufferPool@Ogre@@@2@@Z DD 0ffffffffH
	DD	FLAT:__unwindfunclet$?_Insert@?$_Tree@V?$_Tmap_traits@IPAVHardwareBufferPool@Ogre@@U?$less@I@std@@V?$allocator@U?$pair@$$CBIPAVHardwareBufferPool@Ogre@@@std@@@4@$0A@@std@@@std@@IAE?AViterator@12@_NPAU_Node@?$_Tree_nod@V?$_Tmap_traits@IPAVHardwareBufferPool@Ogre@@U?$less@I@std@@V?$allocator@U?$pair@$$CBIPAVHardwareBufferPool@Ogre@@@std@@@4@$0A@@std@@@2@ABU?$pair@$$CBIPAVHardwareBufferPool@Ogre@@@2@@Z$0
__ehfuncinfo$?_Insert@?$_Tree@V?$_Tmap_traits@IPAVHardwareBufferPool@Ogre@@U?$less@I@std@@V?$allocator@U?$pair@$$CBIPAVHardwareBufferPool@Ogre@@@std@@@4@$0A@@std@@@std@@IAE?AViterator@12@_NPAU_Node@?$_Tree_nod@V?$_Tmap_traits@IPAVHardwareBufferPool@Ogre@@U?$less@I@std@@V?$allocator@U?$pair@$$CBIPAVHardwareBufferPool@Ogre@@@std@@@4@$0A@@std@@@2@ABU?$pair@$$CBIPAVHardwareBufferPool@Ogre@@@2@@Z DD 019930522H
	DD	01H
	DD	FLAT:__unwindtable$?_Insert@?$_Tree@V?$_Tmap_traits@IPAVHardwareBufferPool@Ogre@@U?$less@I@std@@V?$allocator@U?$pair@$$CBIPAVHardwareBufferPool@Ogre@@@std@@@4@$0A@@std@@@std@@IAE?AViterator@12@_NPAU_Node@?$_Tree_nod@V?$_Tmap_traits@IPAVHardwareBufferPool@Ogre@@U?$less@I@std@@V?$allocator@U?$pair@$$CBIPAVHardwareBufferPool@Ogre@@@std@@@4@$0A@@std@@@2@ABU?$pair@$$CBIPAVHardwareBufferPool@Ogre@@@2@@Z
	DD	2 DUP(00H)
	DD	2 DUP(00H)
	DD	00H
	DD	00H
; Function compile flags: /Odtp
xdata$x	ENDS
;	COMDAT ?_Insert@?$_Tree@V?$_Tmap_traits@IPAVHardwareBufferPool@Ogre@@U?$less@I@std@@V?$allocator@U?$pair@$$CBIPAVHardwareBufferPool@Ogre@@@std@@@4@$0A@@std@@@std@@IAE?AViterator@12@_NPAU_Node@?$_Tree_nod@V?$_Tmap_traits@IPAVHardwareBufferPool@Ogre@@U?$less@I@std@@V?$allocator@U?$pair@$$CBIPAVHardwareBufferPool@Ogre@@@std@@@4@$0A@@std@@@2@ABU?$pair@$$CBIPAVHardwareBufferPool@Ogre@@@2@@Z
_TEXT	SEGMENT
_this$ = -92						; size = 4
$T64371 = -88						; size = 28
$T64370 = -60						; size = 40
__Pnode$61031 = -20					; size = 4
__Newnode$ = -16					; size = 4
__$EHRec$ = -12						; size = 12
___$ReturnUdt$ = 8					; size = 4
__Addleft$ = 12						; size = 1
__Wherenode$ = 16					; size = 4
__Val$ = 20						; size = 4
?_Insert@?$_Tree@V?$_Tmap_traits@IPAVHardwareBufferPool@Ogre@@U?$less@I@std@@V?$allocator@U?$pair@$$CBIPAVHardwareBufferPool@Ogre@@@std@@@4@$0A@@std@@@std@@IAE?AViterator@12@_NPAU_Node@?$_Tree_nod@V?$_Tmap_traits@IPAVHardwareBufferPool@Ogre@@U?$less@I@std@@V?$allocator@U?$pair@$$CBIPAVHardwareBufferPool@Ogre@@@std@@@4@$0A@@std@@@2@ABU?$pair@$$CBIPAVHardwareBufferPool@Ogre@@@2@@Z PROC ; std::_Tree<std::_Tmap_traits<unsigned int,Ogre::HardwareBufferPool *,std::less<unsigned int>,std::allocator<std::pair<unsigned int const ,Ogre::HardwareBufferPool *> >,0> >::_Insert, COMDAT
; _this$ = ecx

; 1187 : 		{	// add node with value next to _Wherenode, to left if _Addnode

	push	ebp
	mov	ebp, esp
	push	-1
	push	__ehhandler$?_Insert@?$_Tree@V?$_Tmap_traits@IPAVHardwareBufferPool@Ogre@@U?$less@I@std@@V?$allocator@U?$pair@$$CBIPAVHardwareBufferPool@Ogre@@@std@@@4@$0A@@std@@@std@@IAE?AViterator@12@_NPAU_Node@?$_Tree_nod@V?$_Tmap_traits@IPAVHardwareBufferPool@Ogre@@U?$less@I@std@@V?$allocator@U?$pair@$$CBIPAVHardwareBufferPool@Ogre@@@std@@@4@$0A@@std@@@2@ABU?$pair@$$CBIPAVHardwareBufferPool@Ogre@@@2@@Z
	mov	eax, DWORD PTR fs:0
	push	eax
	sub	esp, 80					; 00000050H
	push	esi
	mov	eax, DWORD PTR ___security_cookie
	xor	eax, ebp
	push	eax
	lea	eax, DWORD PTR __$EHRec$[ebp]
	mov	DWORD PTR fs:0, eax
	mov	DWORD PTR _this$[ebp], ecx

; 1188 : 		if (max_size() - 1 <= _Mysize)

	mov	ecx, DWORD PTR _this$[ebp]
	call	?max_size@?$_Tree@V?$_Tmap_traits@IPAVHardwareBufferPool@Ogre@@U?$less@I@std@@V?$allocator@U?$pair@$$CBIPAVHardwareBufferPool@Ogre@@@std@@@4@$0A@@std@@@std@@QBEIXZ ; std::_Tree<std::_Tmap_traits<unsigned int,Ogre::HardwareBufferPool *,std::less<unsigned int>,std::allocator<std::pair<unsigned int const ,Ogre::HardwareBufferPool *> >,0> >::max_size
	sub	eax, 1
	mov	ecx, DWORD PTR _this$[ebp]
	cmp	eax, DWORD PTR [ecx+28]
	ja	SHORT $LN17@Insert

; 1189 : 			_THROW(length_error, "map/set<T> too long");

	push	OFFSET ??_C@_0BE@JONHPENG@map?1set?$DMT?$DO?5too?5long?$AA@
	lea	ecx, DWORD PTR $T64371[ebp]
	call	DWORD PTR __imp_??0?$basic_string@DU?$char_traits@D@std@@V?$allocator@D@2@@std@@QAE@PBD@Z
	mov	DWORD PTR __$EHRec$[ebp+8], 0
	lea	edx, DWORD PTR $T64371[ebp]
	push	edx
	lea	ecx, DWORD PTR $T64370[ebp]
	call	??0length_error@std@@QAE@ABV?$basic_string@DU?$char_traits@D@std@@V?$allocator@D@2@@1@@Z ; std::length_error::length_error
	push	OFFSET __TI3?AVlength_error@std@@
	lea	eax, DWORD PTR $T64370[ebp]
	push	eax
	call	__CxxThrowException@8
	mov	DWORD PTR __$EHRec$[ebp+8], -1
	lea	ecx, DWORD PTR $T64371[ebp]
	call	DWORD PTR __imp_??1?$basic_string@DU?$char_traits@D@std@@V?$allocator@D@2@@std@@QAE@XZ
$LN17@Insert:

; 1190 : 		_Nodeptr _Newnode = _Buynode(_Myhead, _Wherenode, _Myhead,
; 1191 : 			_Val, _Red);

	push	0
	mov	ecx, DWORD PTR __Val$[ebp]
	push	ecx
	mov	edx, DWORD PTR _this$[ebp]
	mov	eax, DWORD PTR [edx+24]
	push	eax
	mov	ecx, DWORD PTR __Wherenode$[ebp]
	push	ecx
	mov	edx, DWORD PTR _this$[ebp]
	mov	eax, DWORD PTR [edx+24]
	push	eax
	mov	ecx, DWORD PTR _this$[ebp]
	call	?_Buynode@?$_Tree@V?$_Tmap_traits@IPAVHardwareBufferPool@Ogre@@U?$less@I@std@@V?$allocator@U?$pair@$$CBIPAVHardwareBufferPool@Ogre@@@std@@@4@$0A@@std@@@std@@IAEPAU_Node@?$_Tree_nod@V?$_Tmap_traits@IPAVHardwareBufferPool@Ogre@@U?$less@I@std@@V?$allocator@U?$pair@$$CBIPAVHardwareBufferPool@Ogre@@@std@@@4@$0A@@std@@@2@PAU342@00ABU?$pair@$$CBIPAVHardwareBufferPool@Ogre@@@2@D@Z ; std::_Tree<std::_Tmap_traits<unsigned int,Ogre::HardwareBufferPool *,std::less<unsigned int>,std::allocator<std::pair<unsigned int const ,Ogre::HardwareBufferPool *> >,0> >::_Buynode
	mov	DWORD PTR __Newnode$[ebp], eax

; 1192 : 
; 1193 : 		++_Mysize;

	mov	ecx, DWORD PTR _this$[ebp]
	mov	edx, DWORD PTR [ecx+28]
	add	edx, 1
	mov	eax, DWORD PTR _this$[ebp]
	mov	DWORD PTR [eax+28], edx

; 1194 : 		if (_Wherenode == _Myhead)

	mov	ecx, DWORD PTR _this$[ebp]
	mov	edx, DWORD PTR __Wherenode$[ebp]
	cmp	edx, DWORD PTR [ecx+24]
	jne	SHORT $LN16@Insert

; 1195 : 			{	// first node in tree, just set head values
; 1196 : 			_Root() = _Newnode;

	mov	ecx, DWORD PTR _this$[ebp]
	call	?_Root@?$_Tree@V?$_Tmap_traits@IPAVHardwareBufferPool@Ogre@@U?$less@I@std@@V?$allocator@U?$pair@$$CBIPAVHardwareBufferPool@Ogre@@@std@@@4@$0A@@std@@@std@@IBEAAPAU_Node@?$_Tree_nod@V?$_Tmap_traits@IPAVHardwareBufferPool@Ogre@@U?$less@I@std@@V?$allocator@U?$pair@$$CBIPAVHardwareBufferPool@Ogre@@@std@@@4@$0A@@std@@@2@XZ ; std::_Tree<std::_Tmap_traits<unsigned int,Ogre::HardwareBufferPool *,std::less<unsigned int>,std::allocator<std::pair<unsigned int const ,Ogre::HardwareBufferPool *> >,0> >::_Root
	mov	ecx, DWORD PTR __Newnode$[ebp]
	mov	DWORD PTR [eax], ecx

; 1197 : 			_Lmost() = _Newnode, _Rmost() = _Newnode;

	mov	ecx, DWORD PTR _this$[ebp]
	call	?_Lmost@?$_Tree@V?$_Tmap_traits@IPAVHardwareBufferPool@Ogre@@U?$less@I@std@@V?$allocator@U?$pair@$$CBIPAVHardwareBufferPool@Ogre@@@std@@@4@$0A@@std@@@std@@IBEAAPAU_Node@?$_Tree_nod@V?$_Tmap_traits@IPAVHardwareBufferPool@Ogre@@U?$less@I@std@@V?$allocator@U?$pair@$$CBIPAVHardwareBufferPool@Ogre@@@std@@@4@$0A@@std@@@2@XZ ; std::_Tree<std::_Tmap_traits<unsigned int,Ogre::HardwareBufferPool *,std::less<unsigned int>,std::allocator<std::pair<unsigned int const ,Ogre::HardwareBufferPool *> >,0> >::_Lmost
	mov	edx, DWORD PTR __Newnode$[ebp]
	mov	DWORD PTR [eax], edx
	mov	ecx, DWORD PTR _this$[ebp]
	call	?_Rmost@?$_Tree@V?$_Tmap_traits@IPAVHardwareBufferPool@Ogre@@U?$less@I@std@@V?$allocator@U?$pair@$$CBIPAVHardwareBufferPool@Ogre@@@std@@@4@$0A@@std@@@std@@IBEAAPAU_Node@?$_Tree_nod@V?$_Tmap_traits@IPAVHardwareBufferPool@Ogre@@U?$less@I@std@@V?$allocator@U?$pair@$$CBIPAVHardwareBufferPool@Ogre@@@std@@@4@$0A@@std@@@2@XZ ; std::_Tree<std::_Tmap_traits<unsigned int,Ogre::HardwareBufferPool *,std::less<unsigned int>,std::allocator<std::pair<unsigned int const ,Ogre::HardwareBufferPool *> >,0> >::_Rmost
	mov	ecx, DWORD PTR __Newnode$[ebp]
	mov	DWORD PTR [eax], ecx
	jmp	SHORT $LN15@Insert
$LN16@Insert:

; 1198 : 			}
; 1199 : 		else if (_Addleft)

	movzx	edx, BYTE PTR __Addleft$[ebp]
	test	edx, edx
	je	SHORT $LN14@Insert

; 1200 : 			{	// add to left of _Wherenode
; 1201 : 			_Left(_Wherenode) = _Newnode;

	mov	eax, DWORD PTR __Wherenode$[ebp]
	push	eax
	call	?_Left@?$_Tree@V?$_Tmap_traits@IPAVHardwareBufferPool@Ogre@@U?$less@I@std@@V?$allocator@U?$pair@$$CBIPAVHardwareBufferPool@Ogre@@@std@@@4@$0A@@std@@@std@@KAAAPAU_Node@?$_Tree_nod@V?$_Tmap_traits@IPAVHardwareBufferPool@Ogre@@U?$less@I@std@@V?$allocator@U?$pair@$$CBIPAVHardwareBufferPool@Ogre@@@std@@@4@$0A@@std@@@2@PAU342@@Z ; std::_Tree<std::_Tmap_traits<unsigned int,Ogre::HardwareBufferPool *,std::less<unsigned int>,std::allocator<std::pair<unsigned int const ,Ogre::HardwareBufferPool *> >,0> >::_Left
	add	esp, 4
	mov	ecx, DWORD PTR __Newnode$[ebp]
	mov	DWORD PTR [eax], ecx

; 1202 : 			if (_Wherenode == _Lmost())

	mov	ecx, DWORD PTR _this$[ebp]
	call	?_Lmost@?$_Tree@V?$_Tmap_traits@IPAVHardwareBufferPool@Ogre@@U?$less@I@std@@V?$allocator@U?$pair@$$CBIPAVHardwareBufferPool@Ogre@@@std@@@4@$0A@@std@@@std@@IBEAAPAU_Node@?$_Tree_nod@V?$_Tmap_traits@IPAVHardwareBufferPool@Ogre@@U?$less@I@std@@V?$allocator@U?$pair@$$CBIPAVHardwareBufferPool@Ogre@@@std@@@4@$0A@@std@@@2@XZ ; std::_Tree<std::_Tmap_traits<unsigned int,Ogre::HardwareBufferPool *,std::less<unsigned int>,std::allocator<std::pair<unsigned int const ,Ogre::HardwareBufferPool *> >,0> >::_Lmost
	mov	edx, DWORD PTR __Wherenode$[ebp]
	cmp	edx, DWORD PTR [eax]
	jne	SHORT $LN13@Insert

; 1203 : 				_Lmost() = _Newnode;

	mov	ecx, DWORD PTR _this$[ebp]
	call	?_Lmost@?$_Tree@V?$_Tmap_traits@IPAVHardwareBufferPool@Ogre@@U?$less@I@std@@V?$allocator@U?$pair@$$CBIPAVHardwareBufferPool@Ogre@@@std@@@4@$0A@@std@@@std@@IBEAAPAU_Node@?$_Tree_nod@V?$_Tmap_traits@IPAVHardwareBufferPool@Ogre@@U?$less@I@std@@V?$allocator@U?$pair@$$CBIPAVHardwareBufferPool@Ogre@@@std@@@4@$0A@@std@@@2@XZ ; std::_Tree<std::_Tmap_traits<unsigned int,Ogre::HardwareBufferPool *,std::less<unsigned int>,std::allocator<std::pair<unsigned int const ,Ogre::HardwareBufferPool *> >,0> >::_Lmost
	mov	ecx, DWORD PTR __Newnode$[ebp]
	mov	DWORD PTR [eax], ecx
$LN13@Insert:

; 1204 : 			}
; 1205 : 		else

	jmp	SHORT $LN15@Insert
$LN14@Insert:

; 1206 : 			{	// add to right of _Wherenode
; 1207 : 			_Right(_Wherenode) = _Newnode;

	mov	edx, DWORD PTR __Wherenode$[ebp]
	push	edx
	call	?_Right@?$_Tree@V?$_Tmap_traits@IPAVHardwareBufferPool@Ogre@@U?$less@I@std@@V?$allocator@U?$pair@$$CBIPAVHardwareBufferPool@Ogre@@@std@@@4@$0A@@std@@@std@@KAAAPAU_Node@?$_Tree_nod@V?$_Tmap_traits@IPAVHardwareBufferPool@Ogre@@U?$less@I@std@@V?$allocator@U?$pair@$$CBIPAVHardwareBufferPool@Ogre@@@std@@@4@$0A@@std@@@2@PAU342@@Z ; std::_Tree<std::_Tmap_traits<unsigned int,Ogre::HardwareBufferPool *,std::less<unsigned int>,std::allocator<std::pair<unsigned int const ,Ogre::HardwareBufferPool *> >,0> >::_Right
	add	esp, 4
	mov	ecx, DWORD PTR __Newnode$[ebp]
	mov	DWORD PTR [eax], ecx

; 1208 : 			if (_Wherenode == _Rmost())

	mov	ecx, DWORD PTR _this$[ebp]
	call	?_Rmost@?$_Tree@V?$_Tmap_traits@IPAVHardwareBufferPool@Ogre@@U?$less@I@std@@V?$allocator@U?$pair@$$CBIPAVHardwareBufferPool@Ogre@@@std@@@4@$0A@@std@@@std@@IBEAAPAU_Node@?$_Tree_nod@V?$_Tmap_traits@IPAVHardwareBufferPool@Ogre@@U?$less@I@std@@V?$allocator@U?$pair@$$CBIPAVHardwareBufferPool@Ogre@@@std@@@4@$0A@@std@@@2@XZ ; std::_Tree<std::_Tmap_traits<unsigned int,Ogre::HardwareBufferPool *,std::less<unsigned int>,std::allocator<std::pair<unsigned int const ,Ogre::HardwareBufferPool *> >,0> >::_Rmost
	mov	edx, DWORD PTR __Wherenode$[ebp]
	cmp	edx, DWORD PTR [eax]
	jne	SHORT $LN15@Insert

; 1209 : 				_Rmost() = _Newnode;

	mov	ecx, DWORD PTR _this$[ebp]
	call	?_Rmost@?$_Tree@V?$_Tmap_traits@IPAVHardwareBufferPool@Ogre@@U?$less@I@std@@V?$allocator@U?$pair@$$CBIPAVHardwareBufferPool@Ogre@@@std@@@4@$0A@@std@@@std@@IBEAAPAU_Node@?$_Tree_nod@V?$_Tmap_traits@IPAVHardwareBufferPool@Ogre@@U?$less@I@std@@V?$allocator@U?$pair@$$CBIPAVHardwareBufferPool@Ogre@@@std@@@4@$0A@@std@@@2@XZ ; std::_Tree<std::_Tmap_traits<unsigned int,Ogre::HardwareBufferPool *,std::less<unsigned int>,std::allocator<std::pair<unsigned int const ,Ogre::HardwareBufferPool *> >,0> >::_Rmost
	mov	ecx, DWORD PTR __Newnode$[ebp]
	mov	DWORD PTR [eax], ecx
$LN15@Insert:

; 1210 : 			}
; 1211 : 
; 1212 : 		for (_Nodeptr _Pnode = _Newnode; _Color(_Parent(_Pnode)) == _Red; )

	mov	edx, DWORD PTR __Newnode$[ebp]
	mov	DWORD PTR __Pnode$61031[ebp], edx
$LN10@Insert:
	mov	eax, DWORD PTR __Pnode$61031[ebp]
	push	eax
	call	?_Parent@?$_Tree@V?$_Tmap_traits@IPAVHardwareBufferPool@Ogre@@U?$less@I@std@@V?$allocator@U?$pair@$$CBIPAVHardwareBufferPool@Ogre@@@std@@@4@$0A@@std@@@std@@KAAAPAU_Node@?$_Tree_nod@V?$_Tmap_traits@IPAVHardwareBufferPool@Ogre@@U?$less@I@std@@V?$allocator@U?$pair@$$CBIPAVHardwareBufferPool@Ogre@@@std@@@4@$0A@@std@@@2@PAU342@@Z ; std::_Tree<std::_Tmap_traits<unsigned int,Ogre::HardwareBufferPool *,std::less<unsigned int>,std::allocator<std::pair<unsigned int const ,Ogre::HardwareBufferPool *> >,0> >::_Parent
	add	esp, 4
	mov	ecx, DWORD PTR [eax]
	push	ecx
	call	?_Color@?$_Tree@V?$_Tmap_traits@IPAVHardwareBufferPool@Ogre@@U?$less@I@std@@V?$allocator@U?$pair@$$CBIPAVHardwareBufferPool@Ogre@@@std@@@4@$0A@@std@@@std@@KAAADPAU_Node@?$_Tree_nod@V?$_Tmap_traits@IPAVHardwareBufferPool@Ogre@@U?$less@I@std@@V?$allocator@U?$pair@$$CBIPAVHardwareBufferPool@Ogre@@@std@@@4@$0A@@std@@@2@@Z ; std::_Tree<std::_Tmap_traits<unsigned int,Ogre::HardwareBufferPool *,std::less<unsigned int>,std::allocator<std::pair<unsigned int const ,Ogre::HardwareBufferPool *> >,0> >::_Color
	add	esp, 4
	movsx	edx, BYTE PTR [eax]
	test	edx, edx
	jne	$LN9@Insert

; 1213 : 			if (_Parent(_Pnode) == _Left(_Parent(_Parent(_Pnode))))

	mov	eax, DWORD PTR __Pnode$61031[ebp]
	push	eax
	call	?_Parent@?$_Tree@V?$_Tmap_traits@IPAVHardwareBufferPool@Ogre@@U?$less@I@std@@V?$allocator@U?$pair@$$CBIPAVHardwareBufferPool@Ogre@@@std@@@4@$0A@@std@@@std@@KAAAPAU_Node@?$_Tree_nod@V?$_Tmap_traits@IPAVHardwareBufferPool@Ogre@@U?$less@I@std@@V?$allocator@U?$pair@$$CBIPAVHardwareBufferPool@Ogre@@@std@@@4@$0A@@std@@@2@PAU342@@Z ; std::_Tree<std::_Tmap_traits<unsigned int,Ogre::HardwareBufferPool *,std::less<unsigned int>,std::allocator<std::pair<unsigned int const ,Ogre::HardwareBufferPool *> >,0> >::_Parent
	add	esp, 4
	mov	esi, eax
	mov	ecx, DWORD PTR __Pnode$61031[ebp]
	push	ecx
	call	?_Parent@?$_Tree@V?$_Tmap_traits@IPAVHardwareBufferPool@Ogre@@U?$less@I@std@@V?$allocator@U?$pair@$$CBIPAVHardwareBufferPool@Ogre@@@std@@@4@$0A@@std@@@std@@KAAAPAU_Node@?$_Tree_nod@V?$_Tmap_traits@IPAVHardwareBufferPool@Ogre@@U?$less@I@std@@V?$allocator@U?$pair@$$CBIPAVHardwareBufferPool@Ogre@@@std@@@4@$0A@@std@@@2@PAU342@@Z ; std::_Tree<std::_Tmap_traits<unsigned int,Ogre::HardwareBufferPool *,std::less<unsigned int>,std::allocator<std::pair<unsigned int const ,Ogre::HardwareBufferPool *> >,0> >::_Parent
	add	esp, 4
	mov	edx, DWORD PTR [eax]
	push	edx
	call	?_Parent@?$_Tree@V?$_Tmap_traits@IPAVHardwareBufferPool@Ogre@@U?$less@I@std@@V?$allocator@U?$pair@$$CBIPAVHardwareBufferPool@Ogre@@@std@@@4@$0A@@std@@@std@@KAAAPAU_Node@?$_Tree_nod@V?$_Tmap_traits@IPAVHardwareBufferPool@Ogre@@U?$less@I@std@@V?$allocator@U?$pair@$$CBIPAVHardwareBufferPool@Ogre@@@std@@@4@$0A@@std@@@2@PAU342@@Z ; std::_Tree<std::_Tmap_traits<unsigned int,Ogre::HardwareBufferPool *,std::less<unsigned int>,std::allocator<std::pair<unsigned int const ,Ogre::HardwareBufferPool *> >,0> >::_Parent
	add	esp, 4
	mov	eax, DWORD PTR [eax]
	push	eax
	call	?_Left@?$_Tree@V?$_Tmap_traits@IPAVHardwareBufferPool@Ogre@@U?$less@I@std@@V?$allocator@U?$pair@$$CBIPAVHardwareBufferPool@Ogre@@@std@@@4@$0A@@std@@@std@@KAAAPAU_Node@?$_Tree_nod@V?$_Tmap_traits@IPAVHardwareBufferPool@Ogre@@U?$less@I@std@@V?$allocator@U?$pair@$$CBIPAVHardwareBufferPool@Ogre@@@std@@@4@$0A@@std@@@2@PAU342@@Z ; std::_Tree<std::_Tmap_traits<unsigned int,Ogre::HardwareBufferPool *,std::less<unsigned int>,std::allocator<std::pair<unsigned int const ,Ogre::HardwareBufferPool *> >,0> >::_Left
	add	esp, 4
	mov	ecx, DWORD PTR [esi]
	cmp	ecx, DWORD PTR [eax]
	jne	$LN8@Insert

; 1214 : 				{	// fixup red-red in left subtree
; 1215 : 				_Wherenode = _Right(_Parent(_Parent(_Pnode)));

	mov	edx, DWORD PTR __Pnode$61031[ebp]
	push	edx
	call	?_Parent@?$_Tree@V?$_Tmap_traits@IPAVHardwareBufferPool@Ogre@@U?$less@I@std@@V?$allocator@U?$pair@$$CBIPAVHardwareBufferPool@Ogre@@@std@@@4@$0A@@std@@@std@@KAAAPAU_Node@?$_Tree_nod@V?$_Tmap_traits@IPAVHardwareBufferPool@Ogre@@U?$less@I@std@@V?$allocator@U?$pair@$$CBIPAVHardwareBufferPool@Ogre@@@std@@@4@$0A@@std@@@2@PAU342@@Z ; std::_Tree<std::_Tmap_traits<unsigned int,Ogre::HardwareBufferPool *,std::less<unsigned int>,std::allocator<std::pair<unsigned int const ,Ogre::HardwareBufferPool *> >,0> >::_Parent
	add	esp, 4
	mov	eax, DWORD PTR [eax]
	push	eax
	call	?_Parent@?$_Tree@V?$_Tmap_traits@IPAVHardwareBufferPool@Ogre@@U?$less@I@std@@V?$allocator@U?$pair@$$CBIPAVHardwareBufferPool@Ogre@@@std@@@4@$0A@@std@@@std@@KAAAPAU_Node@?$_Tree_nod@V?$_Tmap_traits@IPAVHardwareBufferPool@Ogre@@U?$less@I@std@@V?$allocator@U?$pair@$$CBIPAVHardwareBufferPool@Ogre@@@std@@@4@$0A@@std@@@2@PAU342@@Z ; std::_Tree<std::_Tmap_traits<unsigned int,Ogre::HardwareBufferPool *,std::less<unsigned int>,std::allocator<std::pair<unsigned int const ,Ogre::HardwareBufferPool *> >,0> >::_Parent
	add	esp, 4
	mov	ecx, DWORD PTR [eax]
	push	ecx
	call	?_Right@?$_Tree@V?$_Tmap_traits@IPAVHardwareBufferPool@Ogre@@U?$less@I@std@@V?$allocator@U?$pair@$$CBIPAVHardwareBufferPool@Ogre@@@std@@@4@$0A@@std@@@std@@KAAAPAU_Node@?$_Tree_nod@V?$_Tmap_traits@IPAVHardwareBufferPool@Ogre@@U?$less@I@std@@V?$allocator@U?$pair@$$CBIPAVHardwareBufferPool@Ogre@@@std@@@4@$0A@@std@@@2@PAU342@@Z ; std::_Tree<std::_Tmap_traits<unsigned int,Ogre::HardwareBufferPool *,std::less<unsigned int>,std::allocator<std::pair<unsigned int const ,Ogre::HardwareBufferPool *> >,0> >::_Right
	add	esp, 4
	mov	edx, DWORD PTR [eax]
	mov	DWORD PTR __Wherenode$[ebp], edx

; 1216 : 				if (_Color(_Wherenode) == _Red)

	mov	eax, DWORD PTR __Wherenode$[ebp]
	push	eax
	call	?_Color@?$_Tree@V?$_Tmap_traits@IPAVHardwareBufferPool@Ogre@@U?$less@I@std@@V?$allocator@U?$pair@$$CBIPAVHardwareBufferPool@Ogre@@@std@@@4@$0A@@std@@@std@@KAAADPAU_Node@?$_Tree_nod@V?$_Tmap_traits@IPAVHardwareBufferPool@Ogre@@U?$less@I@std@@V?$allocator@U?$pair@$$CBIPAVHardwareBufferPool@Ogre@@@std@@@4@$0A@@std@@@2@@Z ; std::_Tree<std::_Tmap_traits<unsigned int,Ogre::HardwareBufferPool *,std::less<unsigned int>,std::allocator<std::pair<unsigned int const ,Ogre::HardwareBufferPool *> >,0> >::_Color
	add	esp, 4
	movsx	ecx, BYTE PTR [eax]
	test	ecx, ecx
	jne	SHORT $LN7@Insert

; 1217 : 					{	// parent has two red children, blacken both
; 1218 : 					_Color(_Parent(_Pnode)) = _Black;

	mov	edx, DWORD PTR __Pnode$61031[ebp]
	push	edx
	call	?_Parent@?$_Tree@V?$_Tmap_traits@IPAVHardwareBufferPool@Ogre@@U?$less@I@std@@V?$allocator@U?$pair@$$CBIPAVHardwareBufferPool@Ogre@@@std@@@4@$0A@@std@@@std@@KAAAPAU_Node@?$_Tree_nod@V?$_Tmap_traits@IPAVHardwareBufferPool@Ogre@@U?$less@I@std@@V?$allocator@U?$pair@$$CBIPAVHardwareBufferPool@Ogre@@@std@@@4@$0A@@std@@@2@PAU342@@Z ; std::_Tree<std::_Tmap_traits<unsigned int,Ogre::HardwareBufferPool *,std::less<unsigned int>,std::allocator<std::pair<unsigned int const ,Ogre::HardwareBufferPool *> >,0> >::_Parent
	add	esp, 4
	mov	eax, DWORD PTR [eax]
	push	eax
	call	?_Color@?$_Tree@V?$_Tmap_traits@IPAVHardwareBufferPool@Ogre@@U?$less@I@std@@V?$allocator@U?$pair@$$CBIPAVHardwareBufferPool@Ogre@@@std@@@4@$0A@@std@@@std@@KAAADPAU_Node@?$_Tree_nod@V?$_Tmap_traits@IPAVHardwareBufferPool@Ogre@@U?$less@I@std@@V?$allocator@U?$pair@$$CBIPAVHardwareBufferPool@Ogre@@@std@@@4@$0A@@std@@@2@@Z ; std::_Tree<std::_Tmap_traits<unsigned int,Ogre::HardwareBufferPool *,std::less<unsigned int>,std::allocator<std::pair<unsigned int const ,Ogre::HardwareBufferPool *> >,0> >::_Color
	add	esp, 4
	mov	BYTE PTR [eax], 1

; 1219 : 					_Color(_Wherenode) = _Black;

	mov	ecx, DWORD PTR __Wherenode$[ebp]
	push	ecx
	call	?_Color@?$_Tree@V?$_Tmap_traits@IPAVHardwareBufferPool@Ogre@@U?$less@I@std@@V?$allocator@U?$pair@$$CBIPAVHardwareBufferPool@Ogre@@@std@@@4@$0A@@std@@@std@@KAAADPAU_Node@?$_Tree_nod@V?$_Tmap_traits@IPAVHardwareBufferPool@Ogre@@U?$less@I@std@@V?$allocator@U?$pair@$$CBIPAVHardwareBufferPool@Ogre@@@std@@@4@$0A@@std@@@2@@Z ; std::_Tree<std::_Tmap_traits<unsigned int,Ogre::HardwareBufferPool *,std::less<unsigned int>,std::allocator<std::pair<unsigned int const ,Ogre::HardwareBufferPool *> >,0> >::_Color
	add	esp, 4
	mov	BYTE PTR [eax], 1

; 1220 : 					_Color(_Parent(_Parent(_Pnode))) = _Red;

	mov	edx, DWORD PTR __Pnode$61031[ebp]
	push	edx
	call	?_Parent@?$_Tree@V?$_Tmap_traits@IPAVHardwareBufferPool@Ogre@@U?$less@I@std@@V?$allocator@U?$pair@$$CBIPAVHardwareBufferPool@Ogre@@@std@@@4@$0A@@std@@@std@@KAAAPAU_Node@?$_Tree_nod@V?$_Tmap_traits@IPAVHardwareBufferPool@Ogre@@U?$less@I@std@@V?$allocator@U?$pair@$$CBIPAVHardwareBufferPool@Ogre@@@std@@@4@$0A@@std@@@2@PAU342@@Z ; std::_Tree<std::_Tmap_traits<unsigned int,Ogre::HardwareBufferPool *,std::less<unsigned int>,std::allocator<std::pair<unsigned int const ,Ogre::HardwareBufferPool *> >,0> >::_Parent
	add	esp, 4
	mov	eax, DWORD PTR [eax]
	push	eax
	call	?_Parent@?$_Tree@V?$_Tmap_traits@IPAVHardwareBufferPool@Ogre@@U?$less@I@std@@V?$allocator@U?$pair@$$CBIPAVHardwareBufferPool@Ogre@@@std@@@4@$0A@@std@@@std@@KAAAPAU_Node@?$_Tree_nod@V?$_Tmap_traits@IPAVHardwareBufferPool@Ogre@@U?$less@I@std@@V?$allocator@U?$pair@$$CBIPAVHardwareBufferPool@Ogre@@@std@@@4@$0A@@std@@@2@PAU342@@Z ; std::_Tree<std::_Tmap_traits<unsigned int,Ogre::HardwareBufferPool *,std::less<unsigned int>,std::allocator<std::pair<unsigned int const ,Ogre::HardwareBufferPool *> >,0> >::_Parent
	add	esp, 4
	mov	ecx, DWORD PTR [eax]
	push	ecx
	call	?_Color@?$_Tree@V?$_Tmap_traits@IPAVHardwareBufferPool@Ogre@@U?$less@I@std@@V?$allocator@U?$pair@$$CBIPAVHardwareBufferPool@Ogre@@@std@@@4@$0A@@std@@@std@@KAAADPAU_Node@?$_Tree_nod@V?$_Tmap_traits@IPAVHardwareBufferPool@Ogre@@U?$less@I@std@@V?$allocator@U?$pair@$$CBIPAVHardwareBufferPool@Ogre@@@std@@@4@$0A@@std@@@2@@Z ; std::_Tree<std::_Tmap_traits<unsigned int,Ogre::HardwareBufferPool *,std::less<unsigned int>,std::allocator<std::pair<unsigned int const ,Ogre::HardwareBufferPool *> >,0> >::_Color
	add	esp, 4
	mov	BYTE PTR [eax], 0

; 1221 : 					_Pnode = _Parent(_Parent(_Pnode));

	mov	edx, DWORD PTR __Pnode$61031[ebp]
	push	edx
	call	?_Parent@?$_Tree@V?$_Tmap_traits@IPAVHardwareBufferPool@Ogre@@U?$less@I@std@@V?$allocator@U?$pair@$$CBIPAVHardwareBufferPool@Ogre@@@std@@@4@$0A@@std@@@std@@KAAAPAU_Node@?$_Tree_nod@V?$_Tmap_traits@IPAVHardwareBufferPool@Ogre@@U?$less@I@std@@V?$allocator@U?$pair@$$CBIPAVHardwareBufferPool@Ogre@@@std@@@4@$0A@@std@@@2@PAU342@@Z ; std::_Tree<std::_Tmap_traits<unsigned int,Ogre::HardwareBufferPool *,std::less<unsigned int>,std::allocator<std::pair<unsigned int const ,Ogre::HardwareBufferPool *> >,0> >::_Parent
	add	esp, 4
	mov	eax, DWORD PTR [eax]
	push	eax
	call	?_Parent@?$_Tree@V?$_Tmap_traits@IPAVHardwareBufferPool@Ogre@@U?$less@I@std@@V?$allocator@U?$pair@$$CBIPAVHardwareBufferPool@Ogre@@@std@@@4@$0A@@std@@@std@@KAAAPAU_Node@?$_Tree_nod@V?$_Tmap_traits@IPAVHardwareBufferPool@Ogre@@U?$less@I@std@@V?$allocator@U?$pair@$$CBIPAVHardwareBufferPool@Ogre@@@std@@@4@$0A@@std@@@2@PAU342@@Z ; std::_Tree<std::_Tmap_traits<unsigned int,Ogre::HardwareBufferPool *,std::less<unsigned int>,std::allocator<std::pair<unsigned int const ,Ogre::HardwareBufferPool *> >,0> >::_Parent
	add	esp, 4
	mov	ecx, DWORD PTR [eax]
	mov	DWORD PTR __Pnode$61031[ebp], ecx

; 1222 : 					}
; 1223 : 				else

	jmp	$LN6@Insert
$LN7@Insert:

; 1224 : 					{	// parent has red and black children
; 1225 : 					if (_Pnode == _Right(_Parent(_Pnode)))

	mov	edx, DWORD PTR __Pnode$61031[ebp]
	push	edx
	call	?_Parent@?$_Tree@V?$_Tmap_traits@IPAVHardwareBufferPool@Ogre@@U?$less@I@std@@V?$allocator@U?$pair@$$CBIPAVHardwareBufferPool@Ogre@@@std@@@4@$0A@@std@@@std@@KAAAPAU_Node@?$_Tree_nod@V?$_Tmap_traits@IPAVHardwareBufferPool@Ogre@@U?$less@I@std@@V?$allocator@U?$pair@$$CBIPAVHardwareBufferPool@Ogre@@@std@@@4@$0A@@std@@@2@PAU342@@Z ; std::_Tree<std::_Tmap_traits<unsigned int,Ogre::HardwareBufferPool *,std::less<unsigned int>,std::allocator<std::pair<unsigned int const ,Ogre::HardwareBufferPool *> >,0> >::_Parent
	add	esp, 4
	mov	eax, DWORD PTR [eax]
	push	eax
	call	?_Right@?$_Tree@V?$_Tmap_traits@IPAVHardwareBufferPool@Ogre@@U?$less@I@std@@V?$allocator@U?$pair@$$CBIPAVHardwareBufferPool@Ogre@@@std@@@4@$0A@@std@@@std@@KAAAPAU_Node@?$_Tree_nod@V?$_Tmap_traits@IPAVHardwareBufferPool@Ogre@@U?$less@I@std@@V?$allocator@U?$pair@$$CBIPAVHardwareBufferPool@Ogre@@@std@@@4@$0A@@std@@@2@PAU342@@Z ; std::_Tree<std::_Tmap_traits<unsigned int,Ogre::HardwareBufferPool *,std::less<unsigned int>,std::allocator<std::pair<unsigned int const ,Ogre::HardwareBufferPool *> >,0> >::_Right
	add	esp, 4
	mov	ecx, DWORD PTR __Pnode$61031[ebp]
	cmp	ecx, DWORD PTR [eax]
	jne	SHORT $LN5@Insert

; 1226 : 						{	// rotate right child to left
; 1227 : 						_Pnode = _Parent(_Pnode);

	mov	edx, DWORD PTR __Pnode$61031[ebp]
	push	edx
	call	?_Parent@?$_Tree@V?$_Tmap_traits@IPAVHardwareBufferPool@Ogre@@U?$less@I@std@@V?$allocator@U?$pair@$$CBIPAVHardwareBufferPool@Ogre@@@std@@@4@$0A@@std@@@std@@KAAAPAU_Node@?$_Tree_nod@V?$_Tmap_traits@IPAVHardwareBufferPool@Ogre@@U?$less@I@std@@V?$allocator@U?$pair@$$CBIPAVHardwareBufferPool@Ogre@@@std@@@4@$0A@@std@@@2@PAU342@@Z ; std::_Tree<std::_Tmap_traits<unsigned int,Ogre::HardwareBufferPool *,std::less<unsigned int>,std::allocator<std::pair<unsigned int const ,Ogre::HardwareBufferPool *> >,0> >::_Parent
	add	esp, 4
	mov	eax, DWORD PTR [eax]
	mov	DWORD PTR __Pnode$61031[ebp], eax

; 1228 : 						_Lrotate(_Pnode);

	mov	ecx, DWORD PTR __Pnode$61031[ebp]
	push	ecx
	mov	ecx, DWORD PTR _this$[ebp]
	call	?_Lrotate@?$_Tree@V?$_Tmap_traits@IPAVHardwareBufferPool@Ogre@@U?$less@I@std@@V?$allocator@U?$pair@$$CBIPAVHardwareBufferPool@Ogre@@@std@@@4@$0A@@std@@@std@@IAEXPAU_Node@?$_Tree_nod@V?$_Tmap_traits@IPAVHardwareBufferPool@Ogre@@U?$less@I@std@@V?$allocator@U?$pair@$$CBIPAVHardwareBufferPool@Ogre@@@std@@@4@$0A@@std@@@2@@Z ; std::_Tree<std::_Tmap_traits<unsigned int,Ogre::HardwareBufferPool *,std::less<unsigned int>,std::allocator<std::pair<unsigned int const ,Ogre::HardwareBufferPool *> >,0> >::_Lrotate
$LN5@Insert:

; 1229 : 						}
; 1230 : 					_Color(_Parent(_Pnode)) = _Black;	// propagate red up

	mov	edx, DWORD PTR __Pnode$61031[ebp]
	push	edx
	call	?_Parent@?$_Tree@V?$_Tmap_traits@IPAVHardwareBufferPool@Ogre@@U?$less@I@std@@V?$allocator@U?$pair@$$CBIPAVHardwareBufferPool@Ogre@@@std@@@4@$0A@@std@@@std@@KAAAPAU_Node@?$_Tree_nod@V?$_Tmap_traits@IPAVHardwareBufferPool@Ogre@@U?$less@I@std@@V?$allocator@U?$pair@$$CBIPAVHardwareBufferPool@Ogre@@@std@@@4@$0A@@std@@@2@PAU342@@Z ; std::_Tree<std::_Tmap_traits<unsigned int,Ogre::HardwareBufferPool *,std::less<unsigned int>,std::allocator<std::pair<unsigned int const ,Ogre::HardwareBufferPool *> >,0> >::_Parent
	add	esp, 4
	mov	eax, DWORD PTR [eax]
	push	eax
	call	?_Color@?$_Tree@V?$_Tmap_traits@IPAVHardwareBufferPool@Ogre@@U?$less@I@std@@V?$allocator@U?$pair@$$CBIPAVHardwareBufferPool@Ogre@@@std@@@4@$0A@@std@@@std@@KAAADPAU_Node@?$_Tree_nod@V?$_Tmap_traits@IPAVHardwareBufferPool@Ogre@@U?$less@I@std@@V?$allocator@U?$pair@$$CBIPAVHardwareBufferPool@Ogre@@@std@@@4@$0A@@std@@@2@@Z ; std::_Tree<std::_Tmap_traits<unsigned int,Ogre::HardwareBufferPool *,std::less<unsigned int>,std::allocator<std::pair<unsigned int const ,Ogre::HardwareBufferPool *> >,0> >::_Color
	add	esp, 4
	mov	BYTE PTR [eax], 1

; 1231 : 					_Color(_Parent(_Parent(_Pnode))) = _Red;

	mov	ecx, DWORD PTR __Pnode$61031[ebp]
	push	ecx
	call	?_Parent@?$_Tree@V?$_Tmap_traits@IPAVHardwareBufferPool@Ogre@@U?$less@I@std@@V?$allocator@U?$pair@$$CBIPAVHardwareBufferPool@Ogre@@@std@@@4@$0A@@std@@@std@@KAAAPAU_Node@?$_Tree_nod@V?$_Tmap_traits@IPAVHardwareBufferPool@Ogre@@U?$less@I@std@@V?$allocator@U?$pair@$$CBIPAVHardwareBufferPool@Ogre@@@std@@@4@$0A@@std@@@2@PAU342@@Z ; std::_Tree<std::_Tmap_traits<unsigned int,Ogre::HardwareBufferPool *,std::less<unsigned int>,std::allocator<std::pair<unsigned int const ,Ogre::HardwareBufferPool *> >,0> >::_Parent
	add	esp, 4
	mov	edx, DWORD PTR [eax]
	push	edx
	call	?_Parent@?$_Tree@V?$_Tmap_traits@IPAVHardwareBufferPool@Ogre@@U?$less@I@std@@V?$allocator@U?$pair@$$CBIPAVHardwareBufferPool@Ogre@@@std@@@4@$0A@@std@@@std@@KAAAPAU_Node@?$_Tree_nod@V?$_Tmap_traits@IPAVHardwareBufferPool@Ogre@@U?$less@I@std@@V?$allocator@U?$pair@$$CBIPAVHardwareBufferPool@Ogre@@@std@@@4@$0A@@std@@@2@PAU342@@Z ; std::_Tree<std::_Tmap_traits<unsigned int,Ogre::HardwareBufferPool *,std::less<unsigned int>,std::allocator<std::pair<unsigned int const ,Ogre::HardwareBufferPool *> >,0> >::_Parent
	add	esp, 4
	mov	eax, DWORD PTR [eax]
	push	eax
	call	?_Color@?$_Tree@V?$_Tmap_traits@IPAVHardwareBufferPool@Ogre@@U?$less@I@std@@V?$allocator@U?$pair@$$CBIPAVHardwareBufferPool@Ogre@@@std@@@4@$0A@@std@@@std@@KAAADPAU_Node@?$_Tree_nod@V?$_Tmap_traits@IPAVHardwareBufferPool@Ogre@@U?$less@I@std@@V?$allocator@U?$pair@$$CBIPAVHardwareBufferPool@Ogre@@@std@@@4@$0A@@std@@@2@@Z ; std::_Tree<std::_Tmap_traits<unsigned int,Ogre::HardwareBufferPool *,std::less<unsigned int>,std::allocator<std::pair<unsigned int const ,Ogre::HardwareBufferPool *> >,0> >::_Color
	add	esp, 4
	mov	BYTE PTR [eax], 0

; 1232 : 					_Rrotate(_Parent(_Parent(_Pnode)));

	mov	ecx, DWORD PTR __Pnode$61031[ebp]
	push	ecx
	call	?_Parent@?$_Tree@V?$_Tmap_traits@IPAVHardwareBufferPool@Ogre@@U?$less@I@std@@V?$allocator@U?$pair@$$CBIPAVHardwareBufferPool@Ogre@@@std@@@4@$0A@@std@@@std@@KAAAPAU_Node@?$_Tree_nod@V?$_Tmap_traits@IPAVHardwareBufferPool@Ogre@@U?$less@I@std@@V?$allocator@U?$pair@$$CBIPAVHardwareBufferPool@Ogre@@@std@@@4@$0A@@std@@@2@PAU342@@Z ; std::_Tree<std::_Tmap_traits<unsigned int,Ogre::HardwareBufferPool *,std::less<unsigned int>,std::allocator<std::pair<unsigned int const ,Ogre::HardwareBufferPool *> >,0> >::_Parent
	add	esp, 4
	mov	edx, DWORD PTR [eax]
	push	edx
	call	?_Parent@?$_Tree@V?$_Tmap_traits@IPAVHardwareBufferPool@Ogre@@U?$less@I@std@@V?$allocator@U?$pair@$$CBIPAVHardwareBufferPool@Ogre@@@std@@@4@$0A@@std@@@std@@KAAAPAU_Node@?$_Tree_nod@V?$_Tmap_traits@IPAVHardwareBufferPool@Ogre@@U?$less@I@std@@V?$allocator@U?$pair@$$CBIPAVHardwareBufferPool@Ogre@@@std@@@4@$0A@@std@@@2@PAU342@@Z ; std::_Tree<std::_Tmap_traits<unsigned int,Ogre::HardwareBufferPool *,std::less<unsigned int>,std::allocator<std::pair<unsigned int const ,Ogre::HardwareBufferPool *> >,0> >::_Parent
	add	esp, 4
	mov	eax, DWORD PTR [eax]
	push	eax
	mov	ecx, DWORD PTR _this$[ebp]
	call	?_Rrotate@?$_Tree@V?$_Tmap_traits@IPAVHardwareBufferPool@Ogre@@U?$less@I@std@@V?$allocator@U?$pair@$$CBIPAVHardwareBufferPool@Ogre@@@std@@@4@$0A@@std@@@std@@IAEXPAU_Node@?$_Tree_nod@V?$_Tmap_traits@IPAVHardwareBufferPool@Ogre@@U?$less@I@std@@V?$allocator@U?$pair@$$CBIPAVHardwareBufferPool@Ogre@@@std@@@4@$0A@@std@@@2@@Z ; std::_Tree<std::_Tmap_traits<unsigned int,Ogre::HardwareBufferPool *,std::less<unsigned int>,std::allocator<std::pair<unsigned int const ,Ogre::HardwareBufferPool *> >,0> >::_Rrotate
$LN6@Insert:

; 1233 : 					}
; 1234 : 				}
; 1235 : 			else

	jmp	$LN4@Insert
$LN8@Insert:

; 1236 : 				{	// fixup red-red in right subtree
; 1237 : 				_Wherenode = _Left(_Parent(_Parent(_Pnode)));

	mov	ecx, DWORD PTR __Pnode$61031[ebp]
	push	ecx
	call	?_Parent@?$_Tree@V?$_Tmap_traits@IPAVHardwareBufferPool@Ogre@@U?$less@I@std@@V?$allocator@U?$pair@$$CBIPAVHardwareBufferPool@Ogre@@@std@@@4@$0A@@std@@@std@@KAAAPAU_Node@?$_Tree_nod@V?$_Tmap_traits@IPAVHardwareBufferPool@Ogre@@U?$less@I@std@@V?$allocator@U?$pair@$$CBIPAVHardwareBufferPool@Ogre@@@std@@@4@$0A@@std@@@2@PAU342@@Z ; std::_Tree<std::_Tmap_traits<unsigned int,Ogre::HardwareBufferPool *,std::less<unsigned int>,std::allocator<std::pair<unsigned int const ,Ogre::HardwareBufferPool *> >,0> >::_Parent
	add	esp, 4
	mov	edx, DWORD PTR [eax]
	push	edx
	call	?_Parent@?$_Tree@V?$_Tmap_traits@IPAVHardwareBufferPool@Ogre@@U?$less@I@std@@V?$allocator@U?$pair@$$CBIPAVHardwareBufferPool@Ogre@@@std@@@4@$0A@@std@@@std@@KAAAPAU_Node@?$_Tree_nod@V?$_Tmap_traits@IPAVHardwareBufferPool@Ogre@@U?$less@I@std@@V?$allocator@U?$pair@$$CBIPAVHardwareBufferPool@Ogre@@@std@@@4@$0A@@std@@@2@PAU342@@Z ; std::_Tree<std::_Tmap_traits<unsigned int,Ogre::HardwareBufferPool *,std::less<unsigned int>,std::allocator<std::pair<unsigned int const ,Ogre::HardwareBufferPool *> >,0> >::_Parent
	add	esp, 4
	mov	eax, DWORD PTR [eax]
	push	eax
	call	?_Left@?$_Tree@V?$_Tmap_traits@IPAVHardwareBufferPool@Ogre@@U?$less@I@std@@V?$allocator@U?$pair@$$CBIPAVHardwareBufferPool@Ogre@@@std@@@4@$0A@@std@@@std@@KAAAPAU_Node@?$_Tree_nod@V?$_Tmap_traits@IPAVHardwareBufferPool@Ogre@@U?$less@I@std@@V?$allocator@U?$pair@$$CBIPAVHardwareBufferPool@Ogre@@@std@@@4@$0A@@std@@@2@PAU342@@Z ; std::_Tree<std::_Tmap_traits<unsigned int,Ogre::HardwareBufferPool *,std::less<unsigned int>,std::allocator<std::pair<unsigned int const ,Ogre::HardwareBufferPool *> >,0> >::_Left
	add	esp, 4
	mov	ecx, DWORD PTR [eax]
	mov	DWORD PTR __Wherenode$[ebp], ecx

; 1238 : 				if (_Color(_Wherenode) == _Red)

	mov	edx, DWORD PTR __Wherenode$[ebp]
	push	edx
	call	?_Color@?$_Tree@V?$_Tmap_traits@IPAVHardwareBufferPool@Ogre@@U?$less@I@std@@V?$allocator@U?$pair@$$CBIPAVHardwareBufferPool@Ogre@@@std@@@4@$0A@@std@@@std@@KAAADPAU_Node@?$_Tree_nod@V?$_Tmap_traits@IPAVHardwareBufferPool@Ogre@@U?$less@I@std@@V?$allocator@U?$pair@$$CBIPAVHardwareBufferPool@Ogre@@@std@@@4@$0A@@std@@@2@@Z ; std::_Tree<std::_Tmap_traits<unsigned int,Ogre::HardwareBufferPool *,std::less<unsigned int>,std::allocator<std::pair<unsigned int const ,Ogre::HardwareBufferPool *> >,0> >::_Color
	add	esp, 4
	movsx	eax, BYTE PTR [eax]
	test	eax, eax
	jne	SHORT $LN3@Insert

; 1239 : 					{	// parent has two red children, blacken both
; 1240 : 					_Color(_Parent(_Pnode)) = _Black;

	mov	ecx, DWORD PTR __Pnode$61031[ebp]
	push	ecx
	call	?_Parent@?$_Tree@V?$_Tmap_traits@IPAVHardwareBufferPool@Ogre@@U?$less@I@std@@V?$allocator@U?$pair@$$CBIPAVHardwareBufferPool@Ogre@@@std@@@4@$0A@@std@@@std@@KAAAPAU_Node@?$_Tree_nod@V?$_Tmap_traits@IPAVHardwareBufferPool@Ogre@@U?$less@I@std@@V?$allocator@U?$pair@$$CBIPAVHardwareBufferPool@Ogre@@@std@@@4@$0A@@std@@@2@PAU342@@Z ; std::_Tree<std::_Tmap_traits<unsigned int,Ogre::HardwareBufferPool *,std::less<unsigned int>,std::allocator<std::pair<unsigned int const ,Ogre::HardwareBufferPool *> >,0> >::_Parent
	add	esp, 4
	mov	edx, DWORD PTR [eax]
	push	edx
	call	?_Color@?$_Tree@V?$_Tmap_traits@IPAVHardwareBufferPool@Ogre@@U?$less@I@std@@V?$allocator@U?$pair@$$CBIPAVHardwareBufferPool@Ogre@@@std@@@4@$0A@@std@@@std@@KAAADPAU_Node@?$_Tree_nod@V?$_Tmap_traits@IPAVHardwareBufferPool@Ogre@@U?$less@I@std@@V?$allocator@U?$pair@$$CBIPAVHardwareBufferPool@Ogre@@@std@@@4@$0A@@std@@@2@@Z ; std::_Tree<std::_Tmap_traits<unsigned int,Ogre::HardwareBufferPool *,std::less<unsigned int>,std::allocator<std::pair<unsigned int const ,Ogre::HardwareBufferPool *> >,0> >::_Color
	add	esp, 4
	mov	BYTE PTR [eax], 1

; 1241 : 					_Color(_Wherenode) = _Black;

	mov	eax, DWORD PTR __Wherenode$[ebp]
	push	eax
	call	?_Color@?$_Tree@V?$_Tmap_traits@IPAVHardwareBufferPool@Ogre@@U?$less@I@std@@V?$allocator@U?$pair@$$CBIPAVHardwareBufferPool@Ogre@@@std@@@4@$0A@@std@@@std@@KAAADPAU_Node@?$_Tree_nod@V?$_Tmap_traits@IPAVHardwareBufferPool@Ogre@@U?$less@I@std@@V?$allocator@U?$pair@$$CBIPAVHardwareBufferPool@Ogre@@@std@@@4@$0A@@std@@@2@@Z ; std::_Tree<std::_Tmap_traits<unsigned int,Ogre::HardwareBufferPool *,std::less<unsigned int>,std::allocator<std::pair<unsigned int const ,Ogre::HardwareBufferPool *> >,0> >::_Color
	add	esp, 4
	mov	BYTE PTR [eax], 1

; 1242 : 					_Color(_Parent(_Parent(_Pnode))) = _Red;

	mov	ecx, DWORD PTR __Pnode$61031[ebp]
	push	ecx
	call	?_Parent@?$_Tree@V?$_Tmap_traits@IPAVHardwareBufferPool@Ogre@@U?$less@I@std@@V?$allocator@U?$pair@$$CBIPAVHardwareBufferPool@Ogre@@@std@@@4@$0A@@std@@@std@@KAAAPAU_Node@?$_Tree_nod@V?$_Tmap_traits@IPAVHardwareBufferPool@Ogre@@U?$less@I@std@@V?$allocator@U?$pair@$$CBIPAVHardwareBufferPool@Ogre@@@std@@@4@$0A@@std@@@2@PAU342@@Z ; std::_Tree<std::_Tmap_traits<unsigned int,Ogre::HardwareBufferPool *,std::less<unsigned int>,std::allocator<std::pair<unsigned int const ,Ogre::HardwareBufferPool *> >,0> >::_Parent
	add	esp, 4
	mov	edx, DWORD PTR [eax]
	push	edx
	call	?_Parent@?$_Tree@V?$_Tmap_traits@IPAVHardwareBufferPool@Ogre@@U?$less@I@std@@V?$allocator@U?$pair@$$CBIPAVHardwareBufferPool@Ogre@@@std@@@4@$0A@@std@@@std@@KAAAPAU_Node@?$_Tree_nod@V?$_Tmap_traits@IPAVHardwareBufferPool@Ogre@@U?$less@I@std@@V?$allocator@U?$pair@$$CBIPAVHardwareBufferPool@Ogre@@@std@@@4@$0A@@std@@@2@PAU342@@Z ; std::_Tree<std::_Tmap_traits<unsigned int,Ogre::HardwareBufferPool *,std::less<unsigned int>,std::allocator<std::pair<unsigned int const ,Ogre::HardwareBufferPool *> >,0> >::_Parent
	add	esp, 4
	mov	eax, DWORD PTR [eax]
	push	eax
	call	?_Color@?$_Tree@V?$_Tmap_traits@IPAVHardwareBufferPool@Ogre@@U?$less@I@std@@V?$allocator@U?$pair@$$CBIPAVHardwareBufferPool@Ogre@@@std@@@4@$0A@@std@@@std@@KAAADPAU_Node@?$_Tree_nod@V?$_Tmap_traits@IPAVHardwareBufferPool@Ogre@@U?$less@I@std@@V?$allocator@U?$pair@$$CBIPAVHardwareBufferPool@Ogre@@@std@@@4@$0A@@std@@@2@@Z ; std::_Tree<std::_Tmap_traits<unsigned int,Ogre::HardwareBufferPool *,std::less<unsigned int>,std::allocator<std::pair<unsigned int const ,Ogre::HardwareBufferPool *> >,0> >::_Color
	add	esp, 4
	mov	BYTE PTR [eax], 0

; 1243 : 					_Pnode = _Parent(_Parent(_Pnode));

	mov	ecx, DWORD PTR __Pnode$61031[ebp]
	push	ecx
	call	?_Parent@?$_Tree@V?$_Tmap_traits@IPAVHardwareBufferPool@Ogre@@U?$less@I@std@@V?$allocator@U?$pair@$$CBIPAVHardwareBufferPool@Ogre@@@std@@@4@$0A@@std@@@std@@KAAAPAU_Node@?$_Tree_nod@V?$_Tmap_traits@IPAVHardwareBufferPool@Ogre@@U?$less@I@std@@V?$allocator@U?$pair@$$CBIPAVHardwareBufferPool@Ogre@@@std@@@4@$0A@@std@@@2@PAU342@@Z ; std::_Tree<std::_Tmap_traits<unsigned int,Ogre::HardwareBufferPool *,std::less<unsigned int>,std::allocator<std::pair<unsigned int const ,Ogre::HardwareBufferPool *> >,0> >::_Parent
	add	esp, 4
	mov	edx, DWORD PTR [eax]
	push	edx
	call	?_Parent@?$_Tree@V?$_Tmap_traits@IPAVHardwareBufferPool@Ogre@@U?$less@I@std@@V?$allocator@U?$pair@$$CBIPAVHardwareBufferPool@Ogre@@@std@@@4@$0A@@std@@@std@@KAAAPAU_Node@?$_Tree_nod@V?$_Tmap_traits@IPAVHardwareBufferPool@Ogre@@U?$less@I@std@@V?$allocator@U?$pair@$$CBIPAVHardwareBufferPool@Ogre@@@std@@@4@$0A@@std@@@2@PAU342@@Z ; std::_Tree<std::_Tmap_traits<unsigned int,Ogre::HardwareBufferPool *,std::less<unsigned int>,std::allocator<std::pair<unsigned int const ,Ogre::HardwareBufferPool *> >,0> >::_Parent
	add	esp, 4
	mov	eax, DWORD PTR [eax]
	mov	DWORD PTR __Pnode$61031[ebp], eax

; 1244 : 					}
; 1245 : 				else

	jmp	$LN4@Insert
$LN3@Insert:

; 1246 : 					{	// parent has red and black children
; 1247 : 					if (_Pnode == _Left(_Parent(_Pnode)))

	mov	ecx, DWORD PTR __Pnode$61031[ebp]
	push	ecx
	call	?_Parent@?$_Tree@V?$_Tmap_traits@IPAVHardwareBufferPool@Ogre@@U?$less@I@std@@V?$allocator@U?$pair@$$CBIPAVHardwareBufferPool@Ogre@@@std@@@4@$0A@@std@@@std@@KAAAPAU_Node@?$_Tree_nod@V?$_Tmap_traits@IPAVHardwareBufferPool@Ogre@@U?$less@I@std@@V?$allocator@U?$pair@$$CBIPAVHardwareBufferPool@Ogre@@@std@@@4@$0A@@std@@@2@PAU342@@Z ; std::_Tree<std::_Tmap_traits<unsigned int,Ogre::HardwareBufferPool *,std::less<unsigned int>,std::allocator<std::pair<unsigned int const ,Ogre::HardwareBufferPool *> >,0> >::_Parent
	add	esp, 4
	mov	edx, DWORD PTR [eax]
	push	edx
	call	?_Left@?$_Tree@V?$_Tmap_traits@IPAVHardwareBufferPool@Ogre@@U?$less@I@std@@V?$allocator@U?$pair@$$CBIPAVHardwareBufferPool@Ogre@@@std@@@4@$0A@@std@@@std@@KAAAPAU_Node@?$_Tree_nod@V?$_Tmap_traits@IPAVHardwareBufferPool@Ogre@@U?$less@I@std@@V?$allocator@U?$pair@$$CBIPAVHardwareBufferPool@Ogre@@@std@@@4@$0A@@std@@@2@PAU342@@Z ; std::_Tree<std::_Tmap_traits<unsigned int,Ogre::HardwareBufferPool *,std::less<unsigned int>,std::allocator<std::pair<unsigned int const ,Ogre::HardwareBufferPool *> >,0> >::_Left
	add	esp, 4
	mov	ecx, DWORD PTR __Pnode$61031[ebp]
	cmp	ecx, DWORD PTR [eax]
	jne	SHORT $LN1@Insert

; 1248 : 						{	// rotate left child to right
; 1249 : 						_Pnode = _Parent(_Pnode);

	mov	edx, DWORD PTR __Pnode$61031[ebp]
	push	edx
	call	?_Parent@?$_Tree@V?$_Tmap_traits@IPAVHardwareBufferPool@Ogre@@U?$less@I@std@@V?$allocator@U?$pair@$$CBIPAVHardwareBufferPool@Ogre@@@std@@@4@$0A@@std@@@std@@KAAAPAU_Node@?$_Tree_nod@V?$_Tmap_traits@IPAVHardwareBufferPool@Ogre@@U?$less@I@std@@V?$allocator@U?$pair@$$CBIPAVHardwareBufferPool@Ogre@@@std@@@4@$0A@@std@@@2@PAU342@@Z ; std::_Tree<std::_Tmap_traits<unsigned int,Ogre::HardwareBufferPool *,std::less<unsigned int>,std::allocator<std::pair<unsigned int const ,Ogre::HardwareBufferPool *> >,0> >::_Parent
	add	esp, 4
	mov	eax, DWORD PTR [eax]
	mov	DWORD PTR __Pnode$61031[ebp], eax

; 1250 : 						_Rrotate(_Pnode);

	mov	ecx, DWORD PTR __Pnode$61031[ebp]
	push	ecx
	mov	ecx, DWORD PTR _this$[ebp]
	call	?_Rrotate@?$_Tree@V?$_Tmap_traits@IPAVHardwareBufferPool@Ogre@@U?$less@I@std@@V?$allocator@U?$pair@$$CBIPAVHardwareBufferPool@Ogre@@@std@@@4@$0A@@std@@@std@@IAEXPAU_Node@?$_Tree_nod@V?$_Tmap_traits@IPAVHardwareBufferPool@Ogre@@U?$less@I@std@@V?$allocator@U?$pair@$$CBIPAVHardwareBufferPool@Ogre@@@std@@@4@$0A@@std@@@2@@Z ; std::_Tree<std::_Tmap_traits<unsigned int,Ogre::HardwareBufferPool *,std::less<unsigned int>,std::allocator<std::pair<unsigned int const ,Ogre::HardwareBufferPool *> >,0> >::_Rrotate
$LN1@Insert:

; 1251 : 						}
; 1252 : 					_Color(_Parent(_Pnode)) = _Black;	// propagate red up

	mov	edx, DWORD PTR __Pnode$61031[ebp]
	push	edx
	call	?_Parent@?$_Tree@V?$_Tmap_traits@IPAVHardwareBufferPool@Ogre@@U?$less@I@std@@V?$allocator@U?$pair@$$CBIPAVHardwareBufferPool@Ogre@@@std@@@4@$0A@@std@@@std@@KAAAPAU_Node@?$_Tree_nod@V?$_Tmap_traits@IPAVHardwareBufferPool@Ogre@@U?$less@I@std@@V?$allocator@U?$pair@$$CBIPAVHardwareBufferPool@Ogre@@@std@@@4@$0A@@std@@@2@PAU342@@Z ; std::_Tree<std::_Tmap_traits<unsigned int,Ogre::HardwareBufferPool *,std::less<unsigned int>,std::allocator<std::pair<unsigned int const ,Ogre::HardwareBufferPool *> >,0> >::_Parent
	add	esp, 4
	mov	eax, DWORD PTR [eax]
	push	eax
	call	?_Color@?$_Tree@V?$_Tmap_traits@IPAVHardwareBufferPool@Ogre@@U?$less@I@std@@V?$allocator@U?$pair@$$CBIPAVHardwareBufferPool@Ogre@@@std@@@4@$0A@@std@@@std@@KAAADPAU_Node@?$_Tree_nod@V?$_Tmap_traits@IPAVHardwareBufferPool@Ogre@@U?$less@I@std@@V?$allocator@U?$pair@$$CBIPAVHardwareBufferPool@Ogre@@@std@@@4@$0A@@std@@@2@@Z ; std::_Tree<std::_Tmap_traits<unsigned int,Ogre::HardwareBufferPool *,std::less<unsigned int>,std::allocator<std::pair<unsigned int const ,Ogre::HardwareBufferPool *> >,0> >::_Color
	add	esp, 4
	mov	BYTE PTR [eax], 1

; 1253 : 					_Color(_Parent(_Parent(_Pnode))) = _Red;

	mov	ecx, DWORD PTR __Pnode$61031[ebp]
	push	ecx
	call	?_Parent@?$_Tree@V?$_Tmap_traits@IPAVHardwareBufferPool@Ogre@@U?$less@I@std@@V?$allocator@U?$pair@$$CBIPAVHardwareBufferPool@Ogre@@@std@@@4@$0A@@std@@@std@@KAAAPAU_Node@?$_Tree_nod@V?$_Tmap_traits@IPAVHardwareBufferPool@Ogre@@U?$less@I@std@@V?$allocator@U?$pair@$$CBIPAVHardwareBufferPool@Ogre@@@std@@@4@$0A@@std@@@2@PAU342@@Z ; std::_Tree<std::_Tmap_traits<unsigned int,Ogre::HardwareBufferPool *,std::less<unsigned int>,std::allocator<std::pair<unsigned int const ,Ogre::HardwareBufferPool *> >,0> >::_Parent
	add	esp, 4
	mov	edx, DWORD PTR [eax]
	push	edx
	call	?_Parent@?$_Tree@V?$_Tmap_traits@IPAVHardwareBufferPool@Ogre@@U?$less@I@std@@V?$allocator@U?$pair@$$CBIPAVHardwareBufferPool@Ogre@@@std@@@4@$0A@@std@@@std@@KAAAPAU_Node@?$_Tree_nod@V?$_Tmap_traits@IPAVHardwareBufferPool@Ogre@@U?$less@I@std@@V?$allocator@U?$pair@$$CBIPAVHardwareBufferPool@Ogre@@@std@@@4@$0A@@std@@@2@PAU342@@Z ; std::_Tree<std::_Tmap_traits<unsigned int,Ogre::HardwareBufferPool *,std::less<unsigned int>,std::allocator<std::pair<unsigned int const ,Ogre::HardwareBufferPool *> >,0> >::_Parent
	add	esp, 4
	mov	eax, DWORD PTR [eax]
	push	eax
	call	?_Color@?$_Tree@V?$_Tmap_traits@IPAVHardwareBufferPool@Ogre@@U?$less@I@std@@V?$allocator@U?$pair@$$CBIPAVHardwareBufferPool@Ogre@@@std@@@4@$0A@@std@@@std@@KAAADPAU_Node@?$_Tree_nod@V?$_Tmap_traits@IPAVHardwareBufferPool@Ogre@@U?$less@I@std@@V?$allocator@U?$pair@$$CBIPAVHardwareBufferPool@Ogre@@@std@@@4@$0A@@std@@@2@@Z ; std::_Tree<std::_Tmap_traits<unsigned int,Ogre::HardwareBufferPool *,std::less<unsigned int>,std::allocator<std::pair<unsigned int const ,Ogre::HardwareBufferPool *> >,0> >::_Color
	add	esp, 4
	mov	BYTE PTR [eax], 0

; 1254 : 					_Lrotate(_Parent(_Parent(_Pnode)));

	mov	ecx, DWORD PTR __Pnode$61031[ebp]
	push	ecx
	call	?_Parent@?$_Tree@V?$_Tmap_traits@IPAVHardwareBufferPool@Ogre@@U?$less@I@std@@V?$allocator@U?$pair@$$CBIPAVHardwareBufferPool@Ogre@@@std@@@4@$0A@@std@@@std@@KAAAPAU_Node@?$_Tree_nod@V?$_Tmap_traits@IPAVHardwareBufferPool@Ogre@@U?$less@I@std@@V?$allocator@U?$pair@$$CBIPAVHardwareBufferPool@Ogre@@@std@@@4@$0A@@std@@@2@PAU342@@Z ; std::_Tree<std::_Tmap_traits<unsigned int,Ogre::HardwareBufferPool *,std::less<unsigned int>,std::allocator<std::pair<unsigned int const ,Ogre::HardwareBufferPool *> >,0> >::_Parent
	add	esp, 4
	mov	edx, DWORD PTR [eax]
	push	edx
	call	?_Parent@?$_Tree@V?$_Tmap_traits@IPAVHardwareBufferPool@Ogre@@U?$less@I@std@@V?$allocator@U?$pair@$$CBIPAVHardwareBufferPool@Ogre@@@std@@@4@$0A@@std@@@std@@KAAAPAU_Node@?$_Tree_nod@V?$_Tmap_traits@IPAVHardwareBufferPool@Ogre@@U?$less@I@std@@V?$allocator@U?$pair@$$CBIPAVHardwareBufferPool@Ogre@@@std@@@4@$0A@@std@@@2@PAU342@@Z ; std::_Tree<std::_Tmap_traits<unsigned int,Ogre::HardwareBufferPool *,std::less<unsigned int>,std::allocator<std::pair<unsigned int const ,Ogre::HardwareBufferPool *> >,0> >::_Parent
	add	esp, 4
	mov	eax, DWORD PTR [eax]
	push	eax
	mov	ecx, DWORD PTR _this$[ebp]
	call	?_Lrotate@?$_Tree@V?$_Tmap_traits@IPAVHardwareBufferPool@Ogre@@U?$less@I@std@@V?$allocator@U?$pair@$$CBIPAVHardwareBufferPool@Ogre@@@std@@@4@$0A@@std@@@std@@IAEXPAU_Node@?$_Tree_nod@V?$_Tmap_traits@IPAVHardwareBufferPool@Ogre@@U?$less@I@std@@V?$allocator@U?$pair@$$CBIPAVHardwareBufferPool@Ogre@@@std@@@4@$0A@@std@@@2@@Z ; std::_Tree<std::_Tmap_traits<unsigned int,Ogre::HardwareBufferPool *,std::less<unsigned int>,std::allocator<std::pair<unsigned int const ,Ogre::HardwareBufferPool *> >,0> >::_Lrotate
$LN4@Insert:

; 1255 : 					}
; 1256 : 				}

	jmp	$LN10@Insert
$LN9@Insert:

; 1257 : 
; 1258 : 		_Color(_Root()) = _Black;	// root is always black

	mov	ecx, DWORD PTR _this$[ebp]
	call	?_Root@?$_Tree@V?$_Tmap_traits@IPAVHardwareBufferPool@Ogre@@U?$less@I@std@@V?$allocator@U?$pair@$$CBIPAVHardwareBufferPool@Ogre@@@std@@@4@$0A@@std@@@std@@IBEAAPAU_Node@?$_Tree_nod@V?$_Tmap_traits@IPAVHardwareBufferPool@Ogre@@U?$less@I@std@@V?$allocator@U?$pair@$$CBIPAVHardwareBufferPool@Ogre@@@std@@@4@$0A@@std@@@2@XZ ; std::_Tree<std::_Tmap_traits<unsigned int,Ogre::HardwareBufferPool *,std::less<unsigned int>,std::allocator<std::pair<unsigned int const ,Ogre::HardwareBufferPool *> >,0> >::_Root
	mov	ecx, DWORD PTR [eax]
	push	ecx
	call	?_Color@?$_Tree@V?$_Tmap_traits@IPAVHardwareBufferPool@Ogre@@U?$less@I@std@@V?$allocator@U?$pair@$$CBIPAVHardwareBufferPool@Ogre@@@std@@@4@$0A@@std@@@std@@KAAADPAU_Node@?$_Tree_nod@V?$_Tmap_traits@IPAVHardwareBufferPool@Ogre@@U?$less@I@std@@V?$allocator@U?$pair@$$CBIPAVHardwareBufferPool@Ogre@@@std@@@4@$0A@@std@@@2@@Z ; std::_Tree<std::_Tmap_traits<unsigned int,Ogre::HardwareBufferPool *,std::less<unsigned int>,std::allocator<std::pair<unsigned int const ,Ogre::HardwareBufferPool *> >,0> >::_Color
	add	esp, 4
	mov	BYTE PTR [eax], 1

; 1259 : 		return (_TREE_ITERATOR(_Newnode));

	mov	edx, DWORD PTR _this$[ebp]
	push	edx
	mov	eax, DWORD PTR __Newnode$[ebp]
	push	eax
	mov	ecx, DWORD PTR ___$ReturnUdt$[ebp]
	call	??0iterator@?$_Tree@V?$_Tmap_traits@IPAVHardwareBufferPool@Ogre@@U?$less@I@std@@V?$allocator@U?$pair@$$CBIPAVHardwareBufferPool@Ogre@@@std@@@4@$0A@@std@@@std@@QAE@PAU_Node@?$_Tree_nod@V?$_Tmap_traits@IPAVHardwareBufferPool@Ogre@@U?$less@I@std@@V?$allocator@U?$pair@$$CBIPAVHardwareBufferPool@Ogre@@@std@@@4@$0A@@std@@@2@PBV12@@Z ; std::_Tree<std::_Tmap_traits<unsigned int,Ogre::HardwareBufferPool *,std::less<unsigned int>,std::allocator<std::pair<unsigned int const ,Ogre::HardwareBufferPool *> >,0> >::iterator::iterator
	mov	eax, DWORD PTR ___$ReturnUdt$[ebp]
$LN19@Insert:

; 1260 : 		}

	mov	ecx, DWORD PTR __$EHRec$[ebp]
	mov	DWORD PTR fs:0, ecx
	pop	ecx
	pop	esi
	mov	esp, ebp
	pop	ebp
	ret	16					; 00000010H
_TEXT	ENDS
;	COMDAT text$x
text$x	SEGMENT
__unwindfunclet$?_Insert@?$_Tree@V?$_Tmap_traits@IPAVHardwareBufferPool@Ogre@@U?$less@I@std@@V?$allocator@U?$pair@$$CBIPAVHardwareBufferPool@Ogre@@@std@@@4@$0A@@std@@@std@@IAE?AViterator@12@_NPAU_Node@?$_Tree_nod@V?$_Tmap_traits@IPAVHardwareBufferPool@Ogre@@U?$less@I@std@@V?$allocator@U?$pair@$$CBIPAVHardwareBufferPool@Ogre@@@std@@@4@$0A@@std@@@2@ABU?$pair@$$CBIPAVHardwareBufferPool@Ogre@@@2@@Z$0:
	lea	ecx, DWORD PTR $T64371[ebp]
	jmp	DWORD PTR __imp_??1?$basic_string@DU?$char_traits@D@std@@V?$allocator@D@2@@std@@QAE@XZ
__ehhandler$?_Insert@?$_Tree@V?$_Tmap_traits@IPAVHardwareBufferPool@Ogre@@U?$less@I@std@@V?$allocator@U?$pair@$$CBIPAVHardwareBufferPool@Ogre@@@std@@@4@$0A@@std@@@std@@IAE?AViterator@12@_NPAU_Node@?$_Tree_nod@V?$_Tmap_traits@IPAVHardwareBufferPool@Ogre@@U?$less@I@std@@V?$allocator@U?$pair@$$CBIPAVHardwareBufferPool@Ogre@@@std@@@4@$0A@@std@@@2@ABU?$pair@$$CBIPAVHardwareBufferPool@Ogre@@@2@@Z:
	mov	edx, DWORD PTR [esp+8]
	lea	eax, DWORD PTR [edx+12]
	mov	ecx, DWORD PTR [edx-88]
	xor	ecx, eax
	call	@__security_check_cookie@4
	mov	eax, OFFSET __ehfuncinfo$?_Insert@?$_Tree@V?$_Tmap_traits@IPAVHardwareBufferPool@Ogre@@U?$less@I@std@@V?$allocator@U?$pair@$$CBIPAVHardwareBufferPool@Ogre@@@std@@@4@$0A@@std@@@std@@IAE?AViterator@12@_NPAU_Node@?$_Tree_nod@V?$_Tmap_traits@IPAVHardwareBufferPool@Ogre@@U?$less@I@std@@V?$allocator@U?$pair@$$CBIPAVHardwareBufferPool@Ogre@@@std@@@4@$0A@@std@@@2@ABU?$pair@$$CBIPAVHardwareBufferPool@Ogre@@@2@@Z
	jmp	___CxxFrameHandler3
text$x	ENDS
?_Insert@?$_Tree@V?$_Tmap_traits@IPAVHardwareBufferPool@Ogre@@U?$less@I@std@@V?$allocator@U?$pair@$$CBIPAVHardwareBufferPool@Ogre@@@std@@@4@$0A@@std@@@std@@IAE?AViterator@12@_NPAU_Node@?$_Tree_nod@V?$_Tmap_traits@IPAVHardwareBufferPool@Ogre@@U?$less@I@std@@V?$allocator@U?$pair@$$CBIPAVHardwareBufferPool@Ogre@@@std@@@4@$0A@@std@@@2@ABU?$pair@$$CBIPAVHardwareBufferPool@Ogre@@@2@@Z ENDP ; std::_Tree<std::_Tmap_traits<unsigned int,Ogre::HardwareBufferPool *,std::less<unsigned int>,std::allocator<std::pair<unsigned int const ,Ogre::HardwareBufferPool *> >,0> >::_Insert
PUBLIC	??_7length_error@std@@6B@			; std::length_error::`vftable'
PUBLIC	??_R4length_error@std@@6B@			; std::length_error::`RTTI Complete Object Locator'
PUBLIC	??_R3length_error@std@@8			; std::length_error::`RTTI Class Hierarchy Descriptor'
PUBLIC	??_R2length_error@std@@8			; std::length_error::`RTTI Base Class Array'
PUBLIC	??_R1A@?0A@EA@length_error@std@@8		; std::length_error::`RTTI Base Class Descriptor at (0,-1,0,64)'
EXTRN	??_Elength_error@std@@UAEPAXI@Z:PROC		; std::length_error::`vector deleting destructor'
;	COMDAT ??_R1A@?0A@EA@length_error@std@@8
; File d:\program files (x86)\microsoft visual studio 9.0\vc\include\stdexcept
rdata$r	SEGMENT
??_R1A@?0A@EA@length_error@std@@8 DD FLAT:??_R0?AVlength_error@std@@@8 ; std::length_error::`RTTI Base Class Descriptor at (0,-1,0,64)'
	DD	02H
	DD	00H
	DD	0ffffffffH
	DD	00H
	DD	040H
	DD	FLAT:??_R3length_error@std@@8
rdata$r	ENDS
;	COMDAT ??_R2length_error@std@@8
rdata$r	SEGMENT
??_R2length_error@std@@8 DD FLAT:??_R1A@?0A@EA@length_error@std@@8 ; std::length_error::`RTTI Base Class Array'
	DD	FLAT:??_R1A@?0A@EA@logic_error@std@@8
	DD	FLAT:??_R1A@?0A@EA@exception@std@@8
rdata$r	ENDS
;	COMDAT ??_R3length_error@std@@8
rdata$r	SEGMENT
??_R3length_error@std@@8 DD 00H				; std::length_error::`RTTI Class Hierarchy Descriptor'
	DD	00H
	DD	03H
	DD	FLAT:??_R2length_error@std@@8
rdata$r	ENDS
;	COMDAT ??_R4length_error@std@@6B@
rdata$r	SEGMENT
??_R4length_error@std@@6B@ DD 00H			; std::length_error::`RTTI Complete Object Locator'
	DD	00H
	DD	00H
	DD	FLAT:??_R0?AVlength_error@std@@@8
	DD	FLAT:??_R3length_error@std@@8
rdata$r	ENDS
;	COMDAT ??_7length_error@std@@6B@
CONST	SEGMENT
??_7length_error@std@@6B@ DD FLAT:??_R4length_error@std@@6B@ ; std::length_error::`vftable'
	DD	FLAT:??_Elength_error@std@@UAEPAXI@Z
	DD	FLAT:?what@logic_error@std@@UBEPBDXZ
CONST	ENDS
;	COMDAT xdata$x
xdata$x	SEGMENT
__unwindtable$??0length_error@std@@QAE@ABV?$basic_string@DU?$char_traits@D@std@@V?$allocator@D@2@@1@@Z DD 0ffffffffH
	DD	FLAT:__unwindfunclet$??0length_error@std@@QAE@ABV?$basic_string@DU?$char_traits@D@std@@V?$allocator@D@2@@1@@Z$0
__ehfuncinfo$??0length_error@std@@QAE@ABV?$basic_string@DU?$char_traits@D@std@@V?$allocator@D@2@@1@@Z DD 019930522H
	DD	01H
	DD	FLAT:__unwindtable$??0length_error@std@@QAE@ABV?$basic_string@DU?$char_traits@D@std@@V?$allocator@D@2@@1@@Z
	DD	2 DUP(00H)
	DD	2 DUP(00H)
	DD	00H
	DD	00H
; Function compile flags: /Odtp
xdata$x	ENDS
;	COMDAT ??0length_error@std@@QAE@ABV?$basic_string@DU?$char_traits@D@std@@V?$allocator@D@2@@1@@Z
_TEXT	SEGMENT
_this$ = -16						; size = 4
__$EHRec$ = -12						; size = 12
__Message$ = 8						; size = 4
??0length_error@std@@QAE@ABV?$basic_string@DU?$char_traits@D@std@@V?$allocator@D@2@@1@@Z PROC ; std::length_error::length_error, COMDAT
; _this$ = ecx

; 105  : 		{	// construct from message string

	push	ebp
	mov	ebp, esp
	push	-1
	push	__ehhandler$??0length_error@std@@QAE@ABV?$basic_string@DU?$char_traits@D@std@@V?$allocator@D@2@@1@@Z
	mov	eax, DWORD PTR fs:0
	push	eax
	push	ecx
	mov	eax, DWORD PTR ___security_cookie
	xor	eax, ebp
	push	eax
	lea	eax, DWORD PTR __$EHRec$[ebp]
	mov	DWORD PTR fs:0, eax
	mov	DWORD PTR _this$[ebp], ecx
	mov	eax, DWORD PTR __Message$[ebp]
	push	eax
	mov	ecx, DWORD PTR _this$[ebp]
	call	??0logic_error@std@@QAE@ABV?$basic_string@DU?$char_traits@D@std@@V?$allocator@D@2@@1@@Z ; std::logic_error::logic_error
	mov	DWORD PTR __$EHRec$[ebp+8], 0
	mov	ecx, DWORD PTR _this$[ebp]
	mov	DWORD PTR [ecx], OFFSET ??_7length_error@std@@6B@

; 106  : 		}

	mov	DWORD PTR __$EHRec$[ebp+8], -1
	mov	eax, DWORD PTR _this$[ebp]
	mov	ecx, DWORD PTR __$EHRec$[ebp]
	mov	DWORD PTR fs:0, ecx
	pop	ecx
	mov	esp, ebp
	pop	ebp
	ret	4
_TEXT	ENDS
;	COMDAT text$x
text$x	SEGMENT
__unwindfunclet$??0length_error@std@@QAE@ABV?$basic_string@DU?$char_traits@D@std@@V?$allocator@D@2@@1@@Z$0:
	mov	ecx, DWORD PTR _this$[ebp]
	jmp	??1logic_error@std@@UAE@XZ		; std::logic_error::~logic_error
__ehhandler$??0length_error@std@@QAE@ABV?$basic_string@DU?$char_traits@D@std@@V?$allocator@D@2@@1@@Z:
	mov	edx, DWORD PTR [esp+8]
	lea	eax, DWORD PTR [edx+12]
	mov	ecx, DWORD PTR [edx-8]
	xor	ecx, eax
	call	@__security_check_cookie@4
	mov	eax, OFFSET __ehfuncinfo$??0length_error@std@@QAE@ABV?$basic_string@DU?$char_traits@D@std@@V?$allocator@D@2@@1@@Z
	jmp	___CxxFrameHandler3
text$x	ENDS
??0length_error@std@@QAE@ABV?$basic_string@DU?$char_traits@D@std@@V?$allocator@D@2@@1@@Z ENDP ; std::length_error::length_error
;	COMDAT xdata$x
xdata$x	SEGMENT
__unwindtable$??1length_error@std@@UAE@XZ DD 0ffffffffH
	DD	FLAT:__unwindfunclet$??1length_error@std@@UAE@XZ$0
__ehfuncinfo$??1length_error@std@@UAE@XZ DD 019930522H
	DD	01H
	DD	FLAT:__unwindtable$??1length_error@std@@UAE@XZ
	DD	2 DUP(00H)
	DD	2 DUP(00H)
	DD	00H
	DD	00H
; Function compile flags: /Odtp
xdata$x	ENDS
;	COMDAT ??1length_error@std@@UAE@XZ
_TEXT	SEGMENT
_this$ = -16						; size = 4
__$EHRec$ = -12						; size = 12
??1length_error@std@@UAE@XZ PROC			; std::length_error::~length_error, COMDAT
; _this$ = ecx

; 109  : 		{	// destroy the object

	push	ebp
	mov	ebp, esp
	push	-1
	push	__ehhandler$??1length_error@std@@UAE@XZ
	mov	eax, DWORD PTR fs:0
	push	eax
	push	ecx
	mov	eax, DWORD PTR ___security_cookie
	xor	eax, ebp
	push	eax
	lea	eax, DWORD PTR __$EHRec$[ebp]
	mov	DWORD PTR fs:0, eax
	mov	DWORD PTR _this$[ebp], ecx
	mov	eax, DWORD PTR _this$[ebp]
	mov	DWORD PTR [eax], OFFSET ??_7length_error@std@@6B@
	mov	DWORD PTR __$EHRec$[ebp+8], 0

; 110  : 		}

	mov	DWORD PTR __$EHRec$[ebp+8], -1
	mov	ecx, DWORD PTR _this$[ebp]
	call	??1logic_error@std@@UAE@XZ		; std::logic_error::~logic_error
	mov	ecx, DWORD PTR __$EHRec$[ebp]
	mov	DWORD PTR fs:0, ecx
	pop	ecx
	mov	esp, ebp
	pop	ebp
	ret	0
_TEXT	ENDS
;	COMDAT text$x
text$x	SEGMENT
__unwindfunclet$??1length_error@std@@UAE@XZ$0:
	mov	ecx, DWORD PTR _this$[ebp]
	jmp	??1logic_error@std@@UAE@XZ		; std::logic_error::~logic_error
__ehhandler$??1length_error@std@@UAE@XZ:
	mov	edx, DWORD PTR [esp+8]
	lea	eax, DWORD PTR [edx+12]
	mov	ecx, DWORD PTR [edx-8]
	xor	ecx, eax
	call	@__security_check_cookie@4
	mov	eax, OFFSET __ehfuncinfo$??1length_error@std@@UAE@XZ
	jmp	___CxxFrameHandler3
text$x	ENDS
??1length_error@std@@UAE@XZ ENDP			; std::length_error::~length_error
; Function compile flags: /Odtp
;	COMDAT ??_Glength_error@std@@UAEPAXI@Z
_TEXT	SEGMENT
_this$ = -4						; size = 4
___flags$ = 8						; size = 4
??_Glength_error@std@@UAEPAXI@Z PROC			; std::length_error::`scalar deleting destructor', COMDAT
; _this$ = ecx
	push	ebp
	mov	ebp, esp
	push	ecx
	mov	DWORD PTR _this$[ebp], ecx
	mov	ecx, DWORD PTR _this$[ebp]
	call	??1length_error@std@@UAE@XZ		; std::length_error::~length_error
	mov	eax, DWORD PTR ___flags$[ebp]
	and	eax, 1
	je	SHORT $LN1@scalar@13
	mov	ecx, DWORD PTR _this$[ebp]
	push	ecx
	call	??3@YAXPAX@Z				; operator delete
	add	esp, 4
$LN1@scalar@13:
	mov	eax, DWORD PTR _this$[ebp]
	mov	esp, ebp
	pop	ebp
	ret	4
??_Glength_error@std@@UAEPAXI@Z ENDP			; std::length_error::`scalar deleting destructor'
; Function compile flags: /Odtp
; File d:\program files (x86)\microsoft visual studio 9.0\vc\include\xtree
_TEXT	ENDS
;	COMDAT ?_Lbound@?$_Tree@V?$_Tmap_traits@IPAVHardwareBufferPool@Ogre@@U?$less@I@std@@V?$allocator@U?$pair@$$CBIPAVHardwareBufferPool@Ogre@@@std@@@4@$0A@@std@@@std@@IBEPAU_Node@?$_Tree_nod@V?$_Tmap_traits@IPAVHardwareBufferPool@Ogre@@U?$less@I@std@@V?$allocator@U?$pair@$$CBIPAVHardwareBufferPool@Ogre@@@std@@@4@$0A@@std@@@2@ABI@Z
_TEXT	SEGMENT
_this$ = -12						; size = 4
__Pnode$ = -8						; size = 4
__Wherenode$ = -4					; size = 4
__Keyval$ = 8						; size = 4
?_Lbound@?$_Tree@V?$_Tmap_traits@IPAVHardwareBufferPool@Ogre@@U?$less@I@std@@V?$allocator@U?$pair@$$CBIPAVHardwareBufferPool@Ogre@@@std@@@4@$0A@@std@@@std@@IBEPAU_Node@?$_Tree_nod@V?$_Tmap_traits@IPAVHardwareBufferPool@Ogre@@U?$less@I@std@@V?$allocator@U?$pair@$$CBIPAVHardwareBufferPool@Ogre@@@std@@@4@$0A@@std@@@2@ABI@Z PROC ; std::_Tree<std::_Tmap_traits<unsigned int,Ogre::HardwareBufferPool *,std::less<unsigned int>,std::allocator<std::pair<unsigned int const ,Ogre::HardwareBufferPool *> >,0> >::_Lbound, COMDAT
; _this$ = ecx

; 1263 : 		{	// find leftmost node not less than _Keyval

	push	ebp
	mov	ebp, esp
	sub	esp, 12					; 0000000cH
	mov	DWORD PTR _this$[ebp], ecx

; 1264 : 		_Nodeptr _Pnode = _Root();

	mov	ecx, DWORD PTR _this$[ebp]
	call	?_Root@?$_Tree@V?$_Tmap_traits@IPAVHardwareBufferPool@Ogre@@U?$less@I@std@@V?$allocator@U?$pair@$$CBIPAVHardwareBufferPool@Ogre@@@std@@@4@$0A@@std@@@std@@IBEAAPAU_Node@?$_Tree_nod@V?$_Tmap_traits@IPAVHardwareBufferPool@Ogre@@U?$less@I@std@@V?$allocator@U?$pair@$$CBIPAVHardwareBufferPool@Ogre@@@std@@@4@$0A@@std@@@2@XZ ; std::_Tree<std::_Tmap_traits<unsigned int,Ogre::HardwareBufferPool *,std::less<unsigned int>,std::allocator<std::pair<unsigned int const ,Ogre::HardwareBufferPool *> >,0> >::_Root
	mov	eax, DWORD PTR [eax]
	mov	DWORD PTR __Pnode$[ebp], eax

; 1265 : 		_Nodeptr _Wherenode = _Myhead;	// end() if search fails

	mov	ecx, DWORD PTR _this$[ebp]
	mov	edx, DWORD PTR [ecx+24]
	mov	DWORD PTR __Wherenode$[ebp], edx
$LN4@Lbound:

; 1266 : 
; 1267 : 		while (!_Isnil(_Pnode))

	mov	eax, DWORD PTR __Pnode$[ebp]
	push	eax
	call	?_Isnil@?$_Tree@V?$_Tmap_traits@IPAVHardwareBufferPool@Ogre@@U?$less@I@std@@V?$allocator@U?$pair@$$CBIPAVHardwareBufferPool@Ogre@@@std@@@4@$0A@@std@@@std@@KAAADPAU_Node@?$_Tree_nod@V?$_Tmap_traits@IPAVHardwareBufferPool@Ogre@@U?$less@I@std@@V?$allocator@U?$pair@$$CBIPAVHardwareBufferPool@Ogre@@@std@@@4@$0A@@std@@@2@@Z ; std::_Tree<std::_Tmap_traits<unsigned int,Ogre::HardwareBufferPool *,std::less<unsigned int>,std::allocator<std::pair<unsigned int const ,Ogre::HardwareBufferPool *> >,0> >::_Isnil
	add	esp, 4
	movsx	ecx, BYTE PTR [eax]
	test	ecx, ecx
	jne	SHORT $LN3@Lbound

; 1268 : 			if (_DEBUG_LT_PRED(this->comp, _Key(_Pnode), _Keyval))

	mov	edx, DWORD PTR __Keyval$[ebp]
	push	edx
	mov	eax, DWORD PTR __Pnode$[ebp]
	push	eax
	call	?_Key@?$_Tree@V?$_Tmap_traits@IPAVHardwareBufferPool@Ogre@@U?$less@I@std@@V?$allocator@U?$pair@$$CBIPAVHardwareBufferPool@Ogre@@@std@@@4@$0A@@std@@@std@@KAABIPAU_Node@?$_Tree_nod@V?$_Tmap_traits@IPAVHardwareBufferPool@Ogre@@U?$less@I@std@@V?$allocator@U?$pair@$$CBIPAVHardwareBufferPool@Ogre@@@std@@@4@$0A@@std@@@2@@Z ; std::_Tree<std::_Tmap_traits<unsigned int,Ogre::HardwareBufferPool *,std::less<unsigned int>,std::allocator<std::pair<unsigned int const ,Ogre::HardwareBufferPool *> >,0> >::_Key
	add	esp, 4
	push	eax
	mov	ecx, DWORD PTR _this$[ebp]
	add	ecx, 8
	call	??R?$less@I@std@@QBE_NABI0@Z		; std::less<unsigned int>::operator()
	movzx	ecx, al
	test	ecx, ecx
	je	SHORT $LN2@Lbound

; 1269 : 				_Pnode = _Right(_Pnode);	// descend right subtree

	mov	edx, DWORD PTR __Pnode$[ebp]
	push	edx
	call	?_Right@?$_Tree@V?$_Tmap_traits@IPAVHardwareBufferPool@Ogre@@U?$less@I@std@@V?$allocator@U?$pair@$$CBIPAVHardwareBufferPool@Ogre@@@std@@@4@$0A@@std@@@std@@KAAAPAU_Node@?$_Tree_nod@V?$_Tmap_traits@IPAVHardwareBufferPool@Ogre@@U?$less@I@std@@V?$allocator@U?$pair@$$CBIPAVHardwareBufferPool@Ogre@@@std@@@4@$0A@@std@@@2@PAU342@@Z ; std::_Tree<std::_Tmap_traits<unsigned int,Ogre::HardwareBufferPool *,std::less<unsigned int>,std::allocator<std::pair<unsigned int const ,Ogre::HardwareBufferPool *> >,0> >::_Right
	add	esp, 4
	mov	eax, DWORD PTR [eax]
	mov	DWORD PTR __Pnode$[ebp], eax

; 1270 : 			else

	jmp	SHORT $LN1@Lbound
$LN2@Lbound:

; 1271 : 				{	// _Pnode not less than _Keyval, remember it
; 1272 : 				_Wherenode = _Pnode;

	mov	ecx, DWORD PTR __Pnode$[ebp]
	mov	DWORD PTR __Wherenode$[ebp], ecx

; 1273 : 				_Pnode = _Left(_Pnode);	// descend left subtree

	mov	edx, DWORD PTR __Pnode$[ebp]
	push	edx
	call	?_Left@?$_Tree@V?$_Tmap_traits@IPAVHardwareBufferPool@Ogre@@U?$less@I@std@@V?$allocator@U?$pair@$$CBIPAVHardwareBufferPool@Ogre@@@std@@@4@$0A@@std@@@std@@KAAAPAU_Node@?$_Tree_nod@V?$_Tmap_traits@IPAVHardwareBufferPool@Ogre@@U?$less@I@std@@V?$allocator@U?$pair@$$CBIPAVHardwareBufferPool@Ogre@@@std@@@4@$0A@@std@@@2@PAU342@@Z ; std::_Tree<std::_Tmap_traits<unsigned int,Ogre::HardwareBufferPool *,std::less<unsigned int>,std::allocator<std::pair<unsigned int const ,Ogre::HardwareBufferPool *> >,0> >::_Left
	add	esp, 4
	mov	eax, DWORD PTR [eax]
	mov	DWORD PTR __Pnode$[ebp], eax
$LN1@Lbound:

; 1274 : 				}

	jmp	SHORT $LN4@Lbound
$LN3@Lbound:

; 1275 : 
; 1276 : 		return (_Wherenode);	// return best remembered candidate

	mov	eax, DWORD PTR __Wherenode$[ebp]

; 1277 : 		}

	mov	esp, ebp
	pop	ebp
	ret	4
?_Lbound@?$_Tree@V?$_Tmap_traits@IPAVHardwareBufferPool@Ogre@@U?$less@I@std@@V?$allocator@U?$pair@$$CBIPAVHardwareBufferPool@Ogre@@@std@@@4@$0A@@std@@@std@@IBEPAU_Node@?$_Tree_nod@V?$_Tmap_traits@IPAVHardwareBufferPool@Ogre@@U?$less@I@std@@V?$allocator@U?$pair@$$CBIPAVHardwareBufferPool@Ogre@@@std@@@4@$0A@@std@@@2@ABI@Z ENDP ; std::_Tree<std::_Tmap_traits<unsigned int,Ogre::HardwareBufferPool *,std::less<unsigned int>,std::allocator<std::pair<unsigned int const ,Ogre::HardwareBufferPool *> >,0> >::_Lbound
; Function compile flags: /Odtp
_TEXT	ENDS
;	COMDAT ?_Max@?$_Tree@V?$_Tmap_traits@IPAVHardwareBufferPool@Ogre@@U?$less@I@std@@V?$allocator@U?$pair@$$CBIPAVHardwareBufferPool@Ogre@@@std@@@4@$0A@@std@@@std@@KAPAU_Node@?$_Tree_nod@V?$_Tmap_traits@IPAVHardwareBufferPool@Ogre@@U?$less@I@std@@V?$allocator@U?$pair@$$CBIPAVHardwareBufferPool@Ogre@@@std@@@4@$0A@@std@@@2@PAU342@@Z
_TEXT	SEGMENT
__Pnode$ = 8						; size = 4
?_Max@?$_Tree@V?$_Tmap_traits@IPAVHardwareBufferPool@Ogre@@U?$less@I@std@@V?$allocator@U?$pair@$$CBIPAVHardwareBufferPool@Ogre@@@std@@@4@$0A@@std@@@std@@KAPAU_Node@?$_Tree_nod@V?$_Tmap_traits@IPAVHardwareBufferPool@Ogre@@U?$less@I@std@@V?$allocator@U?$pair@$$CBIPAVHardwareBufferPool@Ogre@@@std@@@4@$0A@@std@@@2@PAU342@@Z PROC ; std::_Tree<std::_Tmap_traits<unsigned int,Ogre::HardwareBufferPool *,std::less<unsigned int>,std::allocator<std::pair<unsigned int const ,Ogre::HardwareBufferPool *> >,0> >::_Max, COMDAT

; 1305 : 		{	// return rightmost node in subtree at _Pnode

	push	ebp
	mov	ebp, esp
$LN2@Max:

; 1306 : 		while (!_Isnil(_Right(_Pnode)))

	mov	eax, DWORD PTR __Pnode$[ebp]
	push	eax
	call	?_Right@?$_Tree@V?$_Tmap_traits@IPAVHardwareBufferPool@Ogre@@U?$less@I@std@@V?$allocator@U?$pair@$$CBIPAVHardwareBufferPool@Ogre@@@std@@@4@$0A@@std@@@std@@KAAAPAU_Node@?$_Tree_nod@V?$_Tmap_traits@IPAVHardwareBufferPool@Ogre@@U?$less@I@std@@V?$allocator@U?$pair@$$CBIPAVHardwareBufferPool@Ogre@@@std@@@4@$0A@@std@@@2@PAU342@@Z ; std::_Tree<std::_Tmap_traits<unsigned int,Ogre::HardwareBufferPool *,std::less<unsigned int>,std::allocator<std::pair<unsigned int const ,Ogre::HardwareBufferPool *> >,0> >::_Right
	add	esp, 4
	mov	ecx, DWORD PTR [eax]
	push	ecx
	call	?_Isnil@?$_Tree@V?$_Tmap_traits@IPAVHardwareBufferPool@Ogre@@U?$less@I@std@@V?$allocator@U?$pair@$$CBIPAVHardwareBufferPool@Ogre@@@std@@@4@$0A@@std@@@std@@KAAADPAU_Node@?$_Tree_nod@V?$_Tmap_traits@IPAVHardwareBufferPool@Ogre@@U?$less@I@std@@V?$allocator@U?$pair@$$CBIPAVHardwareBufferPool@Ogre@@@std@@@4@$0A@@std@@@2@@Z ; std::_Tree<std::_Tmap_traits<unsigned int,Ogre::HardwareBufferPool *,std::less<unsigned int>,std::allocator<std::pair<unsigned int const ,Ogre::HardwareBufferPool *> >,0> >::_Isnil
	add	esp, 4
	movsx	edx, BYTE PTR [eax]
	test	edx, edx
	jne	SHORT $LN1@Max

; 1307 : 			_Pnode = _Right(_Pnode);

	mov	eax, DWORD PTR __Pnode$[ebp]
	push	eax
	call	?_Right@?$_Tree@V?$_Tmap_traits@IPAVHardwareBufferPool@Ogre@@U?$less@I@std@@V?$allocator@U?$pair@$$CBIPAVHardwareBufferPool@Ogre@@@std@@@4@$0A@@std@@@std@@KAAAPAU_Node@?$_Tree_nod@V?$_Tmap_traits@IPAVHardwareBufferPool@Ogre@@U?$less@I@std@@V?$allocator@U?$pair@$$CBIPAVHardwareBufferPool@Ogre@@@std@@@4@$0A@@std@@@2@PAU342@@Z ; std::_Tree<std::_Tmap_traits<unsigned int,Ogre::HardwareBufferPool *,std::less<unsigned int>,std::allocator<std::pair<unsigned int const ,Ogre::HardwareBufferPool *> >,0> >::_Right
	add	esp, 4
	mov	ecx, DWORD PTR [eax]
	mov	DWORD PTR __Pnode$[ebp], ecx
	jmp	SHORT $LN2@Max
$LN1@Max:

; 1308 : 		return (_Pnode);

	mov	eax, DWORD PTR __Pnode$[ebp]

; 1309 : 		}

	pop	ebp
	ret	0
?_Max@?$_Tree@V?$_Tmap_traits@IPAVHardwareBufferPool@Ogre@@U?$less@I@std@@V?$allocator@U?$pair@$$CBIPAVHardwareBufferPool@Ogre@@@std@@@4@$0A@@std@@@std@@KAPAU_Node@?$_Tree_nod@V?$_Tmap_traits@IPAVHardwareBufferPool@Ogre@@U?$less@I@std@@V?$allocator@U?$pair@$$CBIPAVHardwareBufferPool@Ogre@@@std@@@4@$0A@@std@@@2@PAU342@@Z ENDP ; std::_Tree<std::_Tmap_traits<unsigned int,Ogre::HardwareBufferPool *,std::less<unsigned int>,std::allocator<std::pair<unsigned int const ,Ogre::HardwareBufferPool *> >,0> >::_Max
; Function compile flags: /Odtp
_TEXT	ENDS
;	COMDAT ?_Min@?$_Tree@V?$_Tmap_traits@IPAVHardwareBufferPool@Ogre@@U?$less@I@std@@V?$allocator@U?$pair@$$CBIPAVHardwareBufferPool@Ogre@@@std@@@4@$0A@@std@@@std@@KAPAU_Node@?$_Tree_nod@V?$_Tmap_traits@IPAVHardwareBufferPool@Ogre@@U?$less@I@std@@V?$allocator@U?$pair@$$CBIPAVHardwareBufferPool@Ogre@@@std@@@4@$0A@@std@@@2@PAU342@@Z
_TEXT	SEGMENT
__Pnode$ = 8						; size = 4
?_Min@?$_Tree@V?$_Tmap_traits@IPAVHardwareBufferPool@Ogre@@U?$less@I@std@@V?$allocator@U?$pair@$$CBIPAVHardwareBufferPool@Ogre@@@std@@@4@$0A@@std@@@std@@KAPAU_Node@?$_Tree_nod@V?$_Tmap_traits@IPAVHardwareBufferPool@Ogre@@U?$less@I@std@@V?$allocator@U?$pair@$$CBIPAVHardwareBufferPool@Ogre@@@std@@@4@$0A@@std@@@2@PAU342@@Z PROC ; std::_Tree<std::_Tmap_traits<unsigned int,Ogre::HardwareBufferPool *,std::less<unsigned int>,std::allocator<std::pair<unsigned int const ,Ogre::HardwareBufferPool *> >,0> >::_Min, COMDAT

; 1312 : 		{	// return leftmost node in subtree at _Pnode

	push	ebp
	mov	ebp, esp
$LN2@Min:

; 1313 : 		while (!_Isnil(_Left(_Pnode)))

	mov	eax, DWORD PTR __Pnode$[ebp]
	push	eax
	call	?_Left@?$_Tree@V?$_Tmap_traits@IPAVHardwareBufferPool@Ogre@@U?$less@I@std@@V?$allocator@U?$pair@$$CBIPAVHardwareBufferPool@Ogre@@@std@@@4@$0A@@std@@@std@@KAAAPAU_Node@?$_Tree_nod@V?$_Tmap_traits@IPAVHardwareBufferPool@Ogre@@U?$less@I@std@@V?$allocator@U?$pair@$$CBIPAVHardwareBufferPool@Ogre@@@std@@@4@$0A@@std@@@2@PAU342@@Z ; std::_Tree<std::_Tmap_traits<unsigned int,Ogre::HardwareBufferPool *,std::less<unsigned int>,std::allocator<std::pair<unsigned int const ,Ogre::HardwareBufferPool *> >,0> >::_Left
	add	esp, 4
	mov	ecx, DWORD PTR [eax]
	push	ecx
	call	?_Isnil@?$_Tree@V?$_Tmap_traits@IPAVHardwareBufferPool@Ogre@@U?$less@I@std@@V?$allocator@U?$pair@$$CBIPAVHardwareBufferPool@Ogre@@@std@@@4@$0A@@std@@@std@@KAAADPAU_Node@?$_Tree_nod@V?$_Tmap_traits@IPAVHardwareBufferPool@Ogre@@U?$less@I@std@@V?$allocator@U?$pair@$$CBIPAVHardwareBufferPool@Ogre@@@std@@@4@$0A@@std@@@2@@Z ; std::_Tree<std::_Tmap_traits<unsigned int,Ogre::HardwareBufferPool *,std::less<unsigned int>,std::allocator<std::pair<unsigned int const ,Ogre::HardwareBufferPool *> >,0> >::_Isnil
	add	esp, 4
	movsx	edx, BYTE PTR [eax]
	test	edx, edx
	jne	SHORT $LN1@Min

; 1314 : 			_Pnode = _Left(_Pnode);

	mov	eax, DWORD PTR __Pnode$[ebp]
	push	eax
	call	?_Left@?$_Tree@V?$_Tmap_traits@IPAVHardwareBufferPool@Ogre@@U?$less@I@std@@V?$allocator@U?$pair@$$CBIPAVHardwareBufferPool@Ogre@@@std@@@4@$0A@@std@@@std@@KAAAPAU_Node@?$_Tree_nod@V?$_Tmap_traits@IPAVHardwareBufferPool@Ogre@@U?$less@I@std@@V?$allocator@U?$pair@$$CBIPAVHardwareBufferPool@Ogre@@@std@@@4@$0A@@std@@@2@PAU342@@Z ; std::_Tree<std::_Tmap_traits<unsigned int,Ogre::HardwareBufferPool *,std::less<unsigned int>,std::allocator<std::pair<unsigned int const ,Ogre::HardwareBufferPool *> >,0> >::_Left
	add	esp, 4
	mov	ecx, DWORD PTR [eax]
	mov	DWORD PTR __Pnode$[ebp], ecx
	jmp	SHORT $LN2@Min
$LN1@Min:

; 1315 : 		return (_Pnode);

	mov	eax, DWORD PTR __Pnode$[ebp]

; 1316 : 		}

	pop	ebp
	ret	0
?_Min@?$_Tree@V?$_Tmap_traits@IPAVHardwareBufferPool@Ogre@@U?$less@I@std@@V?$allocator@U?$pair@$$CBIPAVHardwareBufferPool@Ogre@@@std@@@4@$0A@@std@@@std@@KAPAU_Node@?$_Tree_nod@V?$_Tmap_traits@IPAVHardwareBufferPool@Ogre@@U?$less@I@std@@V?$allocator@U?$pair@$$CBIPAVHardwareBufferPool@Ogre@@@std@@@4@$0A@@std@@@2@PAU342@@Z ENDP ; std::_Tree<std::_Tmap_traits<unsigned int,Ogre::HardwareBufferPool *,std::less<unsigned int>,std::allocator<std::pair<unsigned int const ,Ogre::HardwareBufferPool *> >,0> >::_Min
; Function compile flags: /Odtp
_TEXT	ENDS
;	COMDAT ?_Rmost@?$_Tree@V?$_Tmap_traits@IPAVHardwareBufferPool@Ogre@@U?$less@I@std@@V?$allocator@U?$pair@$$CBIPAVHardwareBufferPool@Ogre@@@std@@@4@$0A@@std@@@std@@IBEAAPAU_Node@?$_Tree_nod@V?$_Tmap_traits@IPAVHardwareBufferPool@Ogre@@U?$less@I@std@@V?$allocator@U?$pair@$$CBIPAVHardwareBufferPool@Ogre@@@std@@@4@$0A@@std@@@2@XZ
_TEXT	SEGMENT
_this$ = -4						; size = 4
?_Rmost@?$_Tree@V?$_Tmap_traits@IPAVHardwareBufferPool@Ogre@@U?$less@I@std@@V?$allocator@U?$pair@$$CBIPAVHardwareBufferPool@Ogre@@@std@@@4@$0A@@std@@@std@@IBEAAPAU_Node@?$_Tree_nod@V?$_Tmap_traits@IPAVHardwareBufferPool@Ogre@@U?$less@I@std@@V?$allocator@U?$pair@$$CBIPAVHardwareBufferPool@Ogre@@@std@@@4@$0A@@std@@@2@XZ PROC ; std::_Tree<std::_Tmap_traits<unsigned int,Ogre::HardwareBufferPool *,std::less<unsigned int>,std::allocator<std::pair<unsigned int const ,Ogre::HardwareBufferPool *> >,0> >::_Rmost, COMDAT
; _this$ = ecx

; 1319 : 		{	// return rightmost node in nonmutable tree

	push	ebp
	mov	ebp, esp
	push	ecx
	mov	DWORD PTR _this$[ebp], ecx

; 1320 : 		return (_Right(_Myhead));

	mov	eax, DWORD PTR _this$[ebp]
	mov	ecx, DWORD PTR [eax+24]
	push	ecx
	call	?_Right@?$_Tree@V?$_Tmap_traits@IPAVHardwareBufferPool@Ogre@@U?$less@I@std@@V?$allocator@U?$pair@$$CBIPAVHardwareBufferPool@Ogre@@@std@@@4@$0A@@std@@@std@@KAAAPAU_Node@?$_Tree_nod@V?$_Tmap_traits@IPAVHardwareBufferPool@Ogre@@U?$less@I@std@@V?$allocator@U?$pair@$$CBIPAVHardwareBufferPool@Ogre@@@std@@@4@$0A@@std@@@2@PAU342@@Z ; std::_Tree<std::_Tmap_traits<unsigned int,Ogre::HardwareBufferPool *,std::less<unsigned int>,std::allocator<std::pair<unsigned int const ,Ogre::HardwareBufferPool *> >,0> >::_Right
	add	esp, 4

; 1321 : 		}

	mov	esp, ebp
	pop	ebp
	ret	0
?_Rmost@?$_Tree@V?$_Tmap_traits@IPAVHardwareBufferPool@Ogre@@U?$less@I@std@@V?$allocator@U?$pair@$$CBIPAVHardwareBufferPool@Ogre@@@std@@@4@$0A@@std@@@std@@IBEAAPAU_Node@?$_Tree_nod@V?$_Tmap_traits@IPAVHardwareBufferPool@Ogre@@U?$less@I@std@@V?$allocator@U?$pair@$$CBIPAVHardwareBufferPool@Ogre@@@std@@@4@$0A@@std@@@2@XZ ENDP ; std::_Tree<std::_Tmap_traits<unsigned int,Ogre::HardwareBufferPool *,std::less<unsigned int>,std::allocator<std::pair<unsigned int const ,Ogre::HardwareBufferPool *> >,0> >::_Rmost
; Function compile flags: /Odtp
_TEXT	ENDS
;	COMDAT ?_Root@?$_Tree@V?$_Tmap_traits@IPAVHardwareBufferPool@Ogre@@U?$less@I@std@@V?$allocator@U?$pair@$$CBIPAVHardwareBufferPool@Ogre@@@std@@@4@$0A@@std@@@std@@IBEAAPAU_Node@?$_Tree_nod@V?$_Tmap_traits@IPAVHardwareBufferPool@Ogre@@U?$less@I@std@@V?$allocator@U?$pair@$$CBIPAVHardwareBufferPool@Ogre@@@std@@@4@$0A@@std@@@2@XZ
_TEXT	SEGMENT
_this$ = -4						; size = 4
?_Root@?$_Tree@V?$_Tmap_traits@IPAVHardwareBufferPool@Ogre@@U?$less@I@std@@V?$allocator@U?$pair@$$CBIPAVHardwareBufferPool@Ogre@@@std@@@4@$0A@@std@@@std@@IBEAAPAU_Node@?$_Tree_nod@V?$_Tmap_traits@IPAVHardwareBufferPool@Ogre@@U?$less@I@std@@V?$allocator@U?$pair@$$CBIPAVHardwareBufferPool@Ogre@@@std@@@4@$0A@@std@@@2@XZ PROC ; std::_Tree<std::_Tmap_traits<unsigned int,Ogre::HardwareBufferPool *,std::less<unsigned int>,std::allocator<std::pair<unsigned int const ,Ogre::HardwareBufferPool *> >,0> >::_Root, COMDAT
; _this$ = ecx

; 1324 : 		{	// return root of nonmutable tree

	push	ebp
	mov	ebp, esp
	push	ecx
	mov	DWORD PTR _this$[ebp], ecx

; 1325 : 		return (_Parent(_Myhead));

	mov	eax, DWORD PTR _this$[ebp]
	mov	ecx, DWORD PTR [eax+24]
	push	ecx
	call	?_Parent@?$_Tree@V?$_Tmap_traits@IPAVHardwareBufferPool@Ogre@@U?$less@I@std@@V?$allocator@U?$pair@$$CBIPAVHardwareBufferPool@Ogre@@@std@@@4@$0A@@std@@@std@@KAAAPAU_Node@?$_Tree_nod@V?$_Tmap_traits@IPAVHardwareBufferPool@Ogre@@U?$less@I@std@@V?$allocator@U?$pair@$$CBIPAVHardwareBufferPool@Ogre@@@std@@@4@$0A@@std@@@2@PAU342@@Z ; std::_Tree<std::_Tmap_traits<unsigned int,Ogre::HardwareBufferPool *,std::less<unsigned int>,std::allocator<std::pair<unsigned int const ,Ogre::HardwareBufferPool *> >,0> >::_Parent
	add	esp, 4

; 1326 : 		}

	mov	esp, ebp
	pop	ebp
	ret	0
?_Root@?$_Tree@V?$_Tmap_traits@IPAVHardwareBufferPool@Ogre@@U?$less@I@std@@V?$allocator@U?$pair@$$CBIPAVHardwareBufferPool@Ogre@@@std@@@4@$0A@@std@@@std@@IBEAAPAU_Node@?$_Tree_nod@V?$_Tmap_traits@IPAVHardwareBufferPool@Ogre@@U?$less@I@std@@V?$allocator@U?$pair@$$CBIPAVHardwareBufferPool@Ogre@@@std@@@4@$0A@@std@@@2@XZ ENDP ; std::_Tree<std::_Tmap_traits<unsigned int,Ogre::HardwareBufferPool *,std::less<unsigned int>,std::allocator<std::pair<unsigned int const ,Ogre::HardwareBufferPool *> >,0> >::_Root
_TEXT	ENDS
PUBLIC	?construct@?$allocator@PAU_Node@?$_Tree_nod@V?$_Tmap_traits@IPAVHardwareBufferPool@Ogre@@U?$less@I@std@@V?$allocator@U?$pair@$$CBIPAVHardwareBufferPool@Ogre@@@std@@@4@$0A@@std@@@std@@@std@@QAEXPAPAU_Node@?$_Tree_nod@V?$_Tmap_traits@IPAVHardwareBufferPool@Ogre@@U?$less@I@std@@V?$allocator@U?$pair@$$CBIPAVHardwareBufferPool@Ogre@@@std@@@4@$0A@@std@@@2@ABQAU342@@Z ; std::allocator<std::_Tree_nod<std::_Tmap_traits<unsigned int,Ogre::HardwareBufferPool *,std::less<unsigned int>,std::allocator<std::pair<unsigned int const ,Ogre::HardwareBufferPool *> >,0> >::_Node *>::construct
PUBLIC	?allocate@?$allocator@U_Node@?$_Tree_nod@V?$_Tmap_traits@IPAVHardwareBufferPool@Ogre@@U?$less@I@std@@V?$allocator@U?$pair@$$CBIPAVHardwareBufferPool@Ogre@@@std@@@4@$0A@@std@@@std@@@std@@QAEPAU_Node@?$_Tree_nod@V?$_Tmap_traits@IPAVHardwareBufferPool@Ogre@@U?$less@I@std@@V?$allocator@U?$pair@$$CBIPAVHardwareBufferPool@Ogre@@@std@@@4@$0A@@std@@@2@I@Z ; std::allocator<std::_Tree_nod<std::_Tmap_traits<unsigned int,Ogre::HardwareBufferPool *,std::less<unsigned int>,std::allocator<std::pair<unsigned int const ,Ogre::HardwareBufferPool *> >,0> >::_Node>::allocate
;	COMDAT xdata$x
xdata$x	SEGMENT
__catchsym$?_Buynode@?$_Tree@V?$_Tmap_traits@IPAVHardwareBufferPool@Ogre@@U?$less@I@std@@V?$allocator@U?$pair@$$CBIPAVHardwareBufferPool@Ogre@@@std@@@4@$0A@@std@@@std@@IAEPAU_Node@?$_Tree_nod@V?$_Tmap_traits@IPAVHardwareBufferPool@Ogre@@U?$less@I@std@@V?$allocator@U?$pair@$$CBIPAVHardwareBufferPool@Ogre@@@std@@@4@$0A@@std@@@2@XZ$2 DD 00H
	DD	00H
	DD	00H
	DD	FLAT:__catch$?_Buynode@?$_Tree@V?$_Tmap_traits@IPAVHardwareBufferPool@Ogre@@U?$less@I@std@@V?$allocator@U?$pair@$$CBIPAVHardwareBufferPool@Ogre@@@std@@@4@$0A@@std@@@std@@IAEPAU_Node@?$_Tree_nod@V?$_Tmap_traits@IPAVHardwareBufferPool@Ogre@@U?$less@I@std@@V?$allocator@U?$pair@$$CBIPAVHardwareBufferPool@Ogre@@@std@@@4@$0A@@std@@@2@XZ$0
__unwindtable$?_Buynode@?$_Tree@V?$_Tmap_traits@IPAVHardwareBufferPool@Ogre@@U?$less@I@std@@V?$allocator@U?$pair@$$CBIPAVHardwareBufferPool@Ogre@@@std@@@4@$0A@@std@@@std@@IAEPAU_Node@?$_Tree_nod@V?$_Tmap_traits@IPAVHardwareBufferPool@Ogre@@U?$less@I@std@@V?$allocator@U?$pair@$$CBIPAVHardwareBufferPool@Ogre@@@std@@@4@$0A@@std@@@2@XZ DD 0ffffffffH
	DD	00H
	DD	0ffffffffH
	DD	00H
__tryblocktable$?_Buynode@?$_Tree@V?$_Tmap_traits@IPAVHardwareBufferPool@Ogre@@U?$less@I@std@@V?$allocator@U?$pair@$$CBIPAVHardwareBufferPool@Ogre@@@std@@@4@$0A@@std@@@std@@IAEPAU_Node@?$_Tree_nod@V?$_Tmap_traits@IPAVHardwareBufferPool@Ogre@@U?$less@I@std@@V?$allocator@U?$pair@$$CBIPAVHardwareBufferPool@Ogre@@@std@@@4@$0A@@std@@@2@XZ DD 00H
	DD	00H
	DD	01H
	DD	01H
	DD	FLAT:__catchsym$?_Buynode@?$_Tree@V?$_Tmap_traits@IPAVHardwareBufferPool@Ogre@@U?$less@I@std@@V?$allocator@U?$pair@$$CBIPAVHardwareBufferPool@Ogre@@@std@@@4@$0A@@std@@@std@@IAEPAU_Node@?$_Tree_nod@V?$_Tmap_traits@IPAVHardwareBufferPool@Ogre@@U?$less@I@std@@V?$allocator@U?$pair@$$CBIPAVHardwareBufferPool@Ogre@@@std@@@4@$0A@@std@@@2@XZ$2
__ehfuncinfo$?_Buynode@?$_Tree@V?$_Tmap_traits@IPAVHardwareBufferPool@Ogre@@U?$less@I@std@@V?$allocator@U?$pair@$$CBIPAVHardwareBufferPool@Ogre@@@std@@@4@$0A@@std@@@std@@IAEPAU_Node@?$_Tree_nod@V?$_Tmap_traits@IPAVHardwareBufferPool@Ogre@@U?$less@I@std@@V?$allocator@U?$pair@$$CBIPAVHardwareBufferPool@Ogre@@@std@@@4@$0A@@std@@@2@XZ DD 019930522H
	DD	02H
	DD	FLAT:__unwindtable$?_Buynode@?$_Tree@V?$_Tmap_traits@IPAVHardwareBufferPool@Ogre@@U?$less@I@std@@V?$allocator@U?$pair@$$CBIPAVHardwareBufferPool@Ogre@@@std@@@4@$0A@@std@@@std@@IAEPAU_Node@?$_Tree_nod@V?$_Tmap_traits@IPAVHardwareBufferPool@Ogre@@U?$less@I@std@@V?$allocator@U?$pair@$$CBIPAVHardwareBufferPool@Ogre@@@std@@@4@$0A@@std@@@2@XZ
	DD	01H
	DD	FLAT:__tryblocktable$?_Buynode@?$_Tree@V?$_Tmap_traits@IPAVHardwareBufferPool@Ogre@@U?$less@I@std@@V?$allocator@U?$pair@$$CBIPAVHardwareBufferPool@Ogre@@@std@@@4@$0A@@std@@@std@@IAEPAU_Node@?$_Tree_nod@V?$_Tmap_traits@IPAVHardwareBufferPool@Ogre@@U?$less@I@std@@V?$allocator@U?$pair@$$CBIPAVHardwareBufferPool@Ogre@@@std@@@4@$0A@@std@@@2@XZ
	DD	2 DUP(00H)
	DD	00H
	DD	00H
; Function compile flags: /Odtp
xdata$x	ENDS
;	COMDAT ?_Buynode@?$_Tree@V?$_Tmap_traits@IPAVHardwareBufferPool@Ogre@@U?$less@I@std@@V?$allocator@U?$pair@$$CBIPAVHardwareBufferPool@Ogre@@@std@@@4@$0A@@std@@@std@@IAEPAU_Node@?$_Tree_nod@V?$_Tmap_traits@IPAVHardwareBufferPool@Ogre@@U?$less@I@std@@V?$allocator@U?$pair@$$CBIPAVHardwareBufferPool@Ogre@@@std@@@4@$0A@@std@@@2@XZ
_TEXT	SEGMENT
_this$ = -40						; size = 4
$T64413 = -36						; size = 4
$T64412 = -32						; size = 4
$T64411 = -28						; size = 4
__Wherenode$ = -24					; size = 4
__Linkcnt$ = -20					; size = 4
__$EHRec$ = -16						; size = 16
?_Buynode@?$_Tree@V?$_Tmap_traits@IPAVHardwareBufferPool@Ogre@@U?$less@I@std@@V?$allocator@U?$pair@$$CBIPAVHardwareBufferPool@Ogre@@@std@@@4@$0A@@std@@@std@@IAEPAU_Node@?$_Tree_nod@V?$_Tmap_traits@IPAVHardwareBufferPool@Ogre@@U?$less@I@std@@V?$allocator@U?$pair@$$CBIPAVHardwareBufferPool@Ogre@@@std@@@4@$0A@@std@@@2@XZ PROC ; std::_Tree<std::_Tmap_traits<unsigned int,Ogre::HardwareBufferPool *,std::less<unsigned int>,std::allocator<std::pair<unsigned int const ,Ogre::HardwareBufferPool *> >,0> >::_Buynode, COMDAT
; _this$ = ecx

; 1383 : 		{	// allocate a head/nil node

	push	ebp
	mov	ebp, esp
	push	-1
	push	__ehhandler$?_Buynode@?$_Tree@V?$_Tmap_traits@IPAVHardwareBufferPool@Ogre@@U?$less@I@std@@V?$allocator@U?$pair@$$CBIPAVHardwareBufferPool@Ogre@@@std@@@4@$0A@@std@@@std@@IAEPAU_Node@?$_Tree_nod@V?$_Tmap_traits@IPAVHardwareBufferPool@Ogre@@U?$less@I@std@@V?$allocator@U?$pair@$$CBIPAVHardwareBufferPool@Ogre@@@std@@@4@$0A@@std@@@2@XZ
	mov	eax, DWORD PTR fs:0
	push	eax
	push	ecx
	sub	esp, 24					; 00000018H
	push	ebx
	push	esi
	push	edi
	mov	eax, DWORD PTR ___security_cookie
	xor	eax, ebp
	push	eax
	lea	eax, DWORD PTR __$EHRec$[ebp+4]
	mov	DWORD PTR fs:0, eax
	mov	DWORD PTR __$EHRec$[ebp], esp
	mov	DWORD PTR _this$[ebp], ecx

; 1384 : 		_Nodeptr _Wherenode = this->_Alnod.allocate(1);

	push	1
	mov	ecx, DWORD PTR _this$[ebp]
	add	ecx, 12					; 0000000cH
	call	?allocate@?$allocator@U_Node@?$_Tree_nod@V?$_Tmap_traits@IPAVHardwareBufferPool@Ogre@@U?$less@I@std@@V?$allocator@U?$pair@$$CBIPAVHardwareBufferPool@Ogre@@@std@@@4@$0A@@std@@@std@@@std@@QAEPAU_Node@?$_Tree_nod@V?$_Tmap_traits@IPAVHardwareBufferPool@Ogre@@U?$less@I@std@@V?$allocator@U?$pair@$$CBIPAVHardwareBufferPool@Ogre@@@std@@@4@$0A@@std@@@2@I@Z ; std::allocator<std::_Tree_nod<std::_Tmap_traits<unsigned int,Ogre::HardwareBufferPool *,std::less<unsigned int>,std::allocator<std::pair<unsigned int const ,Ogre::HardwareBufferPool *> >,0> >::_Node>::allocate
	mov	DWORD PTR __Wherenode$[ebp], eax

; 1385 : 		int _Linkcnt = 0;

	mov	DWORD PTR __Linkcnt$[ebp], 0

; 1386 : 
; 1387 : 		_TRY_BEGIN

	mov	DWORD PTR __$EHRec$[ebp+12], 0

; 1388 : 		this->_Alptr.construct(&_Left(_Wherenode), 0);

	mov	DWORD PTR $T64411[ebp], 0
	lea	eax, DWORD PTR $T64411[ebp]
	push	eax
	mov	ecx, DWORD PTR __Wherenode$[ebp]
	push	ecx
	call	?_Left@?$_Tree@V?$_Tmap_traits@IPAVHardwareBufferPool@Ogre@@U?$less@I@std@@V?$allocator@U?$pair@$$CBIPAVHardwareBufferPool@Ogre@@@std@@@4@$0A@@std@@@std@@KAAAPAU_Node@?$_Tree_nod@V?$_Tmap_traits@IPAVHardwareBufferPool@Ogre@@U?$less@I@std@@V?$allocator@U?$pair@$$CBIPAVHardwareBufferPool@Ogre@@@std@@@4@$0A@@std@@@2@PAU342@@Z ; std::_Tree<std::_Tmap_traits<unsigned int,Ogre::HardwareBufferPool *,std::less<unsigned int>,std::allocator<std::pair<unsigned int const ,Ogre::HardwareBufferPool *> >,0> >::_Left
	add	esp, 4
	push	eax
	mov	ecx, DWORD PTR _this$[ebp]
	add	ecx, 16					; 00000010H
	call	?construct@?$allocator@PAU_Node@?$_Tree_nod@V?$_Tmap_traits@IPAVHardwareBufferPool@Ogre@@U?$less@I@std@@V?$allocator@U?$pair@$$CBIPAVHardwareBufferPool@Ogre@@@std@@@4@$0A@@std@@@std@@@std@@QAEXPAPAU_Node@?$_Tree_nod@V?$_Tmap_traits@IPAVHardwareBufferPool@Ogre@@U?$less@I@std@@V?$allocator@U?$pair@$$CBIPAVHardwareBufferPool@Ogre@@@std@@@4@$0A@@std@@@2@ABQAU342@@Z ; std::allocator<std::_Tree_nod<std::_Tmap_traits<unsigned int,Ogre::HardwareBufferPool *,std::less<unsigned int>,std::allocator<std::pair<unsigned int const ,Ogre::HardwareBufferPool *> >,0> >::_Node *>::construct

; 1389 : 		++_Linkcnt;

	mov	edx, DWORD PTR __Linkcnt$[ebp]
	add	edx, 1
	mov	DWORD PTR __Linkcnt$[ebp], edx

; 1390 : 		this->_Alptr.construct(&_Parent(_Wherenode), 0);

	mov	DWORD PTR $T64412[ebp], 0
	lea	eax, DWORD PTR $T64412[ebp]
	push	eax
	mov	ecx, DWORD PTR __Wherenode$[ebp]
	push	ecx
	call	?_Parent@?$_Tree@V?$_Tmap_traits@IPAVHardwareBufferPool@Ogre@@U?$less@I@std@@V?$allocator@U?$pair@$$CBIPAVHardwareBufferPool@Ogre@@@std@@@4@$0A@@std@@@std@@KAAAPAU_Node@?$_Tree_nod@V?$_Tmap_traits@IPAVHardwareBufferPool@Ogre@@U?$less@I@std@@V?$allocator@U?$pair@$$CBIPAVHardwareBufferPool@Ogre@@@std@@@4@$0A@@std@@@2@PAU342@@Z ; std::_Tree<std::_Tmap_traits<unsigned int,Ogre::HardwareBufferPool *,std::less<unsigned int>,std::allocator<std::pair<unsigned int const ,Ogre::HardwareBufferPool *> >,0> >::_Parent
	add	esp, 4
	push	eax
	mov	ecx, DWORD PTR _this$[ebp]
	add	ecx, 16					; 00000010H
	call	?construct@?$allocator@PAU_Node@?$_Tree_nod@V?$_Tmap_traits@IPAVHardwareBufferPool@Ogre@@U?$less@I@std@@V?$allocator@U?$pair@$$CBIPAVHardwareBufferPool@Ogre@@@std@@@4@$0A@@std@@@std@@@std@@QAEXPAPAU_Node@?$_Tree_nod@V?$_Tmap_traits@IPAVHardwareBufferPool@Ogre@@U?$less@I@std@@V?$allocator@U?$pair@$$CBIPAVHardwareBufferPool@Ogre@@@std@@@4@$0A@@std@@@2@ABQAU342@@Z ; std::allocator<std::_Tree_nod<std::_Tmap_traits<unsigned int,Ogre::HardwareBufferPool *,std::less<unsigned int>,std::allocator<std::pair<unsigned int const ,Ogre::HardwareBufferPool *> >,0> >::_Node *>::construct

; 1391 : 		++_Linkcnt;

	mov	edx, DWORD PTR __Linkcnt$[ebp]
	add	edx, 1
	mov	DWORD PTR __Linkcnt$[ebp], edx

; 1392 : 		this->_Alptr.construct(&_Right(_Wherenode), 0);

	mov	DWORD PTR $T64413[ebp], 0
	lea	eax, DWORD PTR $T64413[ebp]
	push	eax
	mov	ecx, DWORD PTR __Wherenode$[ebp]
	push	ecx
	call	?_Right@?$_Tree@V?$_Tmap_traits@IPAVHardwareBufferPool@Ogre@@U?$less@I@std@@V?$allocator@U?$pair@$$CBIPAVHardwareBufferPool@Ogre@@@std@@@4@$0A@@std@@@std@@KAAAPAU_Node@?$_Tree_nod@V?$_Tmap_traits@IPAVHardwareBufferPool@Ogre@@U?$less@I@std@@V?$allocator@U?$pair@$$CBIPAVHardwareBufferPool@Ogre@@@std@@@4@$0A@@std@@@2@PAU342@@Z ; std::_Tree<std::_Tmap_traits<unsigned int,Ogre::HardwareBufferPool *,std::less<unsigned int>,std::allocator<std::pair<unsigned int const ,Ogre::HardwareBufferPool *> >,0> >::_Right
	add	esp, 4
	push	eax
	mov	ecx, DWORD PTR _this$[ebp]
	add	ecx, 16					; 00000010H
	call	?construct@?$allocator@PAU_Node@?$_Tree_nod@V?$_Tmap_traits@IPAVHardwareBufferPool@Ogre@@U?$less@I@std@@V?$allocator@U?$pair@$$CBIPAVHardwareBufferPool@Ogre@@@std@@@4@$0A@@std@@@std@@@std@@QAEXPAPAU_Node@?$_Tree_nod@V?$_Tmap_traits@IPAVHardwareBufferPool@Ogre@@U?$less@I@std@@V?$allocator@U?$pair@$$CBIPAVHardwareBufferPool@Ogre@@@std@@@4@$0A@@std@@@2@ABQAU342@@Z ; std::allocator<std::_Tree_nod<std::_Tmap_traits<unsigned int,Ogre::HardwareBufferPool *,std::less<unsigned int>,std::allocator<std::pair<unsigned int const ,Ogre::HardwareBufferPool *> >,0> >::_Node *>::construct
	jmp	SHORT $LN6@Buynode
__catch$?_Buynode@?$_Tree@V?$_Tmap_traits@IPAVHardwareBufferPool@Ogre@@U?$less@I@std@@V?$allocator@U?$pair@$$CBIPAVHardwareBufferPool@Ogre@@@std@@@4@$0A@@std@@@std@@IAEPAU_Node@?$_Tree_nod@V?$_Tmap_traits@IPAVHardwareBufferPool@Ogre@@U?$less@I@std@@V?$allocator@U?$pair@$$CBIPAVHardwareBufferPool@Ogre@@@std@@@4@$0A@@std@@@2@XZ$0:

; 1393 : 		_CATCH_ALL
; 1394 : 		if (1 < _Linkcnt)

	cmp	DWORD PTR __Linkcnt$[ebp], 1
	jle	SHORT $LN2@Buynode

; 1395 : 			this->_Alptr.destroy(&_Parent(_Wherenode));

	mov	edx, DWORD PTR __Wherenode$[ebp]
	push	edx
	call	?_Parent@?$_Tree@V?$_Tmap_traits@IPAVHardwareBufferPool@Ogre@@U?$less@I@std@@V?$allocator@U?$pair@$$CBIPAVHardwareBufferPool@Ogre@@@std@@@4@$0A@@std@@@std@@KAAAPAU_Node@?$_Tree_nod@V?$_Tmap_traits@IPAVHardwareBufferPool@Ogre@@U?$less@I@std@@V?$allocator@U?$pair@$$CBIPAVHardwareBufferPool@Ogre@@@std@@@4@$0A@@std@@@2@PAU342@@Z ; std::_Tree<std::_Tmap_traits<unsigned int,Ogre::HardwareBufferPool *,std::less<unsigned int>,std::allocator<std::pair<unsigned int const ,Ogre::HardwareBufferPool *> >,0> >::_Parent
	add	esp, 4
	push	eax
	mov	ecx, DWORD PTR _this$[ebp]
	add	ecx, 16					; 00000010H
	call	?destroy@?$allocator@PAU_Node@?$_Tree_nod@V?$_Tmap_traits@IPAVHardwareBufferPool@Ogre@@U?$less@I@std@@V?$allocator@U?$pair@$$CBIPAVHardwareBufferPool@Ogre@@@std@@@4@$0A@@std@@@std@@@std@@QAEXPAPAU_Node@?$_Tree_nod@V?$_Tmap_traits@IPAVHardwareBufferPool@Ogre@@U?$less@I@std@@V?$allocator@U?$pair@$$CBIPAVHardwareBufferPool@Ogre@@@std@@@4@$0A@@std@@@2@@Z ; std::allocator<std::_Tree_nod<std::_Tmap_traits<unsigned int,Ogre::HardwareBufferPool *,std::less<unsigned int>,std::allocator<std::pair<unsigned int const ,Ogre::HardwareBufferPool *> >,0> >::_Node *>::destroy
$LN2@Buynode:

; 1396 : 		if (0 < _Linkcnt)

	cmp	DWORD PTR __Linkcnt$[ebp], 0
	jle	SHORT $LN1@Buynode

; 1397 : 			this->_Alptr.destroy(&_Left(_Wherenode));

	mov	eax, DWORD PTR __Wherenode$[ebp]
	push	eax
	call	?_Left@?$_Tree@V?$_Tmap_traits@IPAVHardwareBufferPool@Ogre@@U?$less@I@std@@V?$allocator@U?$pair@$$CBIPAVHardwareBufferPool@Ogre@@@std@@@4@$0A@@std@@@std@@KAAAPAU_Node@?$_Tree_nod@V?$_Tmap_traits@IPAVHardwareBufferPool@Ogre@@U?$less@I@std@@V?$allocator@U?$pair@$$CBIPAVHardwareBufferPool@Ogre@@@std@@@4@$0A@@std@@@2@PAU342@@Z ; std::_Tree<std::_Tmap_traits<unsigned int,Ogre::HardwareBufferPool *,std::less<unsigned int>,std::allocator<std::pair<unsigned int const ,Ogre::HardwareBufferPool *> >,0> >::_Left
	add	esp, 4
	push	eax
	mov	ecx, DWORD PTR _this$[ebp]
	add	ecx, 16					; 00000010H
	call	?destroy@?$allocator@PAU_Node@?$_Tree_nod@V?$_Tmap_traits@IPAVHardwareBufferPool@Ogre@@U?$less@I@std@@V?$allocator@U?$pair@$$CBIPAVHardwareBufferPool@Ogre@@@std@@@4@$0A@@std@@@std@@@std@@QAEXPAPAU_Node@?$_Tree_nod@V?$_Tmap_traits@IPAVHardwareBufferPool@Ogre@@U?$less@I@std@@V?$allocator@U?$pair@$$CBIPAVHardwareBufferPool@Ogre@@@std@@@4@$0A@@std@@@2@@Z ; std::allocator<std::_Tree_nod<std::_Tmap_traits<unsigned int,Ogre::HardwareBufferPool *,std::less<unsigned int>,std::allocator<std::pair<unsigned int const ,Ogre::HardwareBufferPool *> >,0> >::_Node *>::destroy
$LN1@Buynode:

; 1398 : 		this->_Alnod.deallocate(_Wherenode, 1);

	push	1
	mov	ecx, DWORD PTR __Wherenode$[ebp]
	push	ecx
	mov	ecx, DWORD PTR _this$[ebp]
	add	ecx, 12					; 0000000cH
	call	?deallocate@?$allocator@U_Node@?$_Tree_nod@V?$_Tmap_traits@IPAVHardwareBufferPool@Ogre@@U?$less@I@std@@V?$allocator@U?$pair@$$CBIPAVHardwareBufferPool@Ogre@@@std@@@4@$0A@@std@@@std@@@std@@QAEXPAU_Node@?$_Tree_nod@V?$_Tmap_traits@IPAVHardwareBufferPool@Ogre@@U?$less@I@std@@V?$allocator@U?$pair@$$CBIPAVHardwareBufferPool@Ogre@@@std@@@4@$0A@@std@@@2@I@Z ; std::allocator<std::_Tree_nod<std::_Tmap_traits<unsigned int,Ogre::HardwareBufferPool *,std::less<unsigned int>,std::allocator<std::pair<unsigned int const ,Ogre::HardwareBufferPool *> >,0> >::_Node>::deallocate

; 1399 : 		_RERAISE;

	push	0
	push	0
	call	__CxxThrowException@8

; 1400 : 		_CATCH_END

	mov	DWORD PTR __$EHRec$[ebp+12], -1
	mov	eax, __tryend$?_Buynode@?$_Tree@V?$_Tmap_traits@IPAVHardwareBufferPool@Ogre@@U?$less@I@std@@V?$allocator@U?$pair@$$CBIPAVHardwareBufferPool@Ogre@@@std@@@4@$0A@@std@@@std@@IAEPAU_Node@?$_Tree_nod@V?$_Tmap_traits@IPAVHardwareBufferPool@Ogre@@U?$less@I@std@@V?$allocator@U?$pair@$$CBIPAVHardwareBufferPool@Ogre@@@std@@@4@$0A@@std@@@2@XZ$1
	ret	0
$LN6@Buynode:
	mov	DWORD PTR __$EHRec$[ebp+12], -1
__tryend$?_Buynode@?$_Tree@V?$_Tmap_traits@IPAVHardwareBufferPool@Ogre@@U?$less@I@std@@V?$allocator@U?$pair@$$CBIPAVHardwareBufferPool@Ogre@@@std@@@4@$0A@@std@@@std@@IAEPAU_Node@?$_Tree_nod@V?$_Tmap_traits@IPAVHardwareBufferPool@Ogre@@U?$less@I@std@@V?$allocator@U?$pair@$$CBIPAVHardwareBufferPool@Ogre@@@std@@@4@$0A@@std@@@2@XZ$1:

; 1401 : 		_Color(_Wherenode) = _Black;

	mov	edx, DWORD PTR __Wherenode$[ebp]
	push	edx
	call	?_Color@?$_Tree@V?$_Tmap_traits@IPAVHardwareBufferPool@Ogre@@U?$less@I@std@@V?$allocator@U?$pair@$$CBIPAVHardwareBufferPool@Ogre@@@std@@@4@$0A@@std@@@std@@KAAADPAU_Node@?$_Tree_nod@V?$_Tmap_traits@IPAVHardwareBufferPool@Ogre@@U?$less@I@std@@V?$allocator@U?$pair@$$CBIPAVHardwareBufferPool@Ogre@@@std@@@4@$0A@@std@@@2@@Z ; std::_Tree<std::_Tmap_traits<unsigned int,Ogre::HardwareBufferPool *,std::less<unsigned int>,std::allocator<std::pair<unsigned int const ,Ogre::HardwareBufferPool *> >,0> >::_Color
	add	esp, 4
	mov	BYTE PTR [eax], 1

; 1402 : 		_Isnil(_Wherenode) = false;

	mov	eax, DWORD PTR __Wherenode$[ebp]
	push	eax
	call	?_Isnil@?$_Tree@V?$_Tmap_traits@IPAVHardwareBufferPool@Ogre@@U?$less@I@std@@V?$allocator@U?$pair@$$CBIPAVHardwareBufferPool@Ogre@@@std@@@4@$0A@@std@@@std@@KAAADPAU_Node@?$_Tree_nod@V?$_Tmap_traits@IPAVHardwareBufferPool@Ogre@@U?$less@I@std@@V?$allocator@U?$pair@$$CBIPAVHardwareBufferPool@Ogre@@@std@@@4@$0A@@std@@@2@@Z ; std::_Tree<std::_Tmap_traits<unsigned int,Ogre::HardwareBufferPool *,std::less<unsigned int>,std::allocator<std::pair<unsigned int const ,Ogre::HardwareBufferPool *> >,0> >::_Isnil
	add	esp, 4
	mov	BYTE PTR [eax], 0

; 1403 : 		return (_Wherenode);

	mov	eax, DWORD PTR __Wherenode$[ebp]
$LN5@Buynode:

; 1404 : 		}

	mov	ecx, DWORD PTR __$EHRec$[ebp+4]
	mov	DWORD PTR fs:0, ecx
	pop	ecx
	pop	edi
	pop	esi
	pop	ebx
	mov	esp, ebp
	pop	ebp
	ret	0
_TEXT	ENDS
;	COMDAT text$x
text$x	SEGMENT
__ehhandler$?_Buynode@?$_Tree@V?$_Tmap_traits@IPAVHardwareBufferPool@Ogre@@U?$less@I@std@@V?$allocator@U?$pair@$$CBIPAVHardwareBufferPool@Ogre@@@std@@@4@$0A@@std@@@std@@IAEPAU_Node@?$_Tree_nod@V?$_Tmap_traits@IPAVHardwareBufferPool@Ogre@@U?$less@I@std@@V?$allocator@U?$pair@$$CBIPAVHardwareBufferPool@Ogre@@@std@@@4@$0A@@std@@@2@XZ:
	mov	edx, DWORD PTR [esp+8]
	lea	eax, DWORD PTR [edx+12]
	mov	ecx, DWORD PTR [edx-44]
	xor	ecx, eax
	call	@__security_check_cookie@4
	mov	eax, OFFSET __ehfuncinfo$?_Buynode@?$_Tree@V?$_Tmap_traits@IPAVHardwareBufferPool@Ogre@@U?$less@I@std@@V?$allocator@U?$pair@$$CBIPAVHardwareBufferPool@Ogre@@@std@@@4@$0A@@std@@@std@@IAEPAU_Node@?$_Tree_nod@V?$_Tmap_traits@IPAVHardwareBufferPool@Ogre@@U?$less@I@std@@V?$allocator@U?$pair@$$CBIPAVHardwareBufferPool@Ogre@@@std@@@4@$0A@@std@@@2@XZ
	jmp	___CxxFrameHandler3
text$x	ENDS
?_Buynode@?$_Tree@V?$_Tmap_traits@IPAVHardwareBufferPool@Ogre@@U?$less@I@std@@V?$allocator@U?$pair@$$CBIPAVHardwareBufferPool@Ogre@@@std@@@4@$0A@@std@@@std@@IAEPAU_Node@?$_Tree_nod@V?$_Tmap_traits@IPAVHardwareBufferPool@Ogre@@U?$less@I@std@@V?$allocator@U?$pair@$$CBIPAVHardwareBufferPool@Ogre@@@std@@@4@$0A@@std@@@2@XZ ENDP ; std::_Tree<std::_Tmap_traits<unsigned int,Ogre::HardwareBufferPool *,std::less<unsigned int>,std::allocator<std::pair<unsigned int const ,Ogre::HardwareBufferPool *> >,0> >::_Buynode
PUBLIC	??$?0U?$pair@$$CBIPAVHardwareBufferPool@Ogre@@@std@@@?$allocator@PAU_Node@?$_Tree_nod@V?$_Tmap_traits@IPAVHardwareBufferPool@Ogre@@U?$less@I@std@@V?$allocator@U?$pair@$$CBIPAVHardwareBufferPool@Ogre@@@std@@@4@$0A@@std@@@std@@@std@@QAE@ABV?$allocator@U?$pair@$$CBIPAVHardwareBufferPool@Ogre@@@std@@@1@@Z ; std::allocator<std::_Tree_nod<std::_Tmap_traits<unsigned int,Ogre::HardwareBufferPool *,std::less<unsigned int>,std::allocator<std::pair<unsigned int const ,Ogre::HardwareBufferPool *> >,0> >::_Node *>::allocator<std::_Tree_nod<std::_Tmap_traits<unsigned int,Ogre::HardwareBufferPool *,std::less<unsigned int>,std::allocator<std::pair<unsigned int const ,Ogre::HardwareBufferPool *> >,0> >::_Node *><std::pair<unsigned int const ,Ogre::HardwareBufferPool *> >
PUBLIC	??0?$_Tree_nod@V?$_Tmap_traits@IPAVHardwareBufferPool@Ogre@@U?$less@I@std@@V?$allocator@U?$pair@$$CBIPAVHardwareBufferPool@Ogre@@@std@@@4@$0A@@std@@@std@@IAE@ABU?$less@I@1@V?$allocator@U?$pair@$$CBIPAVHardwareBufferPool@Ogre@@@std@@@1@@Z ; std::_Tree_nod<std::_Tmap_traits<unsigned int,Ogre::HardwareBufferPool *,std::less<unsigned int>,std::allocator<std::pair<unsigned int const ,Ogre::HardwareBufferPool *> >,0> >::_Tree_nod<std::_Tmap_traits<unsigned int,Ogre::HardwareBufferPool *,std::less<unsigned int>,std::allocator<std::pair<unsigned int const ,Ogre::HardwareBufferPool *> >,0> >
;	COMDAT xdata$x
xdata$x	SEGMENT
__unwindtable$??0?$_Tree_ptr@V?$_Tmap_traits@IPAVHardwareBufferPool@Ogre@@U?$less@I@std@@V?$allocator@U?$pair@$$CBIPAVHardwareBufferPool@Ogre@@@std@@@4@$0A@@std@@@std@@IAE@ABU?$less@I@1@V?$allocator@U?$pair@$$CBIPAVHardwareBufferPool@Ogre@@@std@@@1@@Z DD 0ffffffffH
	DD	FLAT:__unwindfunclet$??0?$_Tree_ptr@V?$_Tmap_traits@IPAVHardwareBufferPool@Ogre@@U?$less@I@std@@V?$allocator@U?$pair@$$CBIPAVHardwareBufferPool@Ogre@@@std@@@4@$0A@@std@@@std@@IAE@ABU?$less@I@1@V?$allocator@U?$pair@$$CBIPAVHardwareBufferPool@Ogre@@@std@@@1@@Z$0
__ehfuncinfo$??0?$_Tree_ptr@V?$_Tmap_traits@IPAVHardwareBufferPool@Ogre@@U?$less@I@std@@V?$allocator@U?$pair@$$CBIPAVHardwareBufferPool@Ogre@@@std@@@4@$0A@@std@@@std@@IAE@ABU?$less@I@1@V?$allocator@U?$pair@$$CBIPAVHardwareBufferPool@Ogre@@@std@@@1@@Z DD 019930522H
	DD	01H
	DD	FLAT:__unwindtable$??0?$_Tree_ptr@V?$_Tmap_traits@IPAVHardwareBufferPool@Ogre@@U?$less@I@std@@V?$allocator@U?$pair@$$CBIPAVHardwareBufferPool@Ogre@@@std@@@4@$0A@@std@@@std@@IAE@ABU?$less@I@1@V?$allocator@U?$pair@$$CBIPAVHardwareBufferPool@Ogre@@@std@@@1@@Z
	DD	2 DUP(00H)
	DD	2 DUP(00H)
	DD	00H
	DD	00H
; Function compile flags: /Odtp
xdata$x	ENDS
;	COMDAT ??0?$_Tree_ptr@V?$_Tmap_traits@IPAVHardwareBufferPool@Ogre@@U?$less@I@std@@V?$allocator@U?$pair@$$CBIPAVHardwareBufferPool@Ogre@@@std@@@4@$0A@@std@@@std@@IAE@ABU?$less@I@1@V?$allocator@U?$pair@$$CBIPAVHardwareBufferPool@Ogre@@@std@@@1@@Z
_TEXT	SEGMENT
_this$ = -20						; size = 4
$T64429 = -16						; size = 4
__$EHRec$ = -12						; size = 12
__Parg$ = 8						; size = 4
__Al$ = 12						; size = 1
??0?$_Tree_ptr@V?$_Tmap_traits@IPAVHardwareBufferPool@Ogre@@U?$less@I@std@@V?$allocator@U?$pair@$$CBIPAVHardwareBufferPool@Ogre@@@std@@@4@$0A@@std@@@std@@IAE@ABU?$less@I@1@V?$allocator@U?$pair@$$CBIPAVHardwareBufferPool@Ogre@@@std@@@1@@Z PROC ; std::_Tree_ptr<std::_Tmap_traits<unsigned int,Ogre::HardwareBufferPool *,std::less<unsigned int>,std::allocator<std::pair<unsigned int const ,Ogre::HardwareBufferPool *> >,0> >::_Tree_ptr<std::_Tmap_traits<unsigned int,Ogre::HardwareBufferPool *,std::less<unsigned int>,std::allocator<std::pair<unsigned int const ,Ogre::HardwareBufferPool *> >,0> >, COMDAT
; _this$ = ecx

; 78   : 		{	// construct base, and allocator from _Al

	push	ebp
	mov	ebp, esp
	push	-1
	push	__ehhandler$??0?$_Tree_ptr@V?$_Tmap_traits@IPAVHardwareBufferPool@Ogre@@U?$less@I@std@@V?$allocator@U?$pair@$$CBIPAVHardwareBufferPool@Ogre@@@std@@@4@$0A@@std@@@std@@IAE@ABU?$less@I@1@V?$allocator@U?$pair@$$CBIPAVHardwareBufferPool@Ogre@@@std@@@1@@Z
	mov	eax, DWORD PTR fs:0
	push	eax
	sub	esp, 8
	mov	eax, DWORD PTR ___security_cookie
	xor	eax, ebp
	push	eax
	lea	eax, DWORD PTR __$EHRec$[ebp]
	mov	DWORD PTR fs:0, eax
	mov	DWORD PTR _this$[ebp], ecx
	push	ecx
	mov	ecx, esp
	mov	DWORD PTR $T64429[ebp], esp
	lea	eax, DWORD PTR __Al$[ebp]
	push	eax
	call	??0?$allocator@U?$pair@$$CBIPAVHardwareBufferPool@Ogre@@@std@@@std@@QAE@ABV01@@Z ; std::allocator<std::pair<unsigned int const ,Ogre::HardwareBufferPool *> >::allocator<std::pair<unsigned int const ,Ogre::HardwareBufferPool *> >
	mov	ecx, DWORD PTR __Parg$[ebp]
	push	ecx
	mov	ecx, DWORD PTR _this$[ebp]
	call	??0?$_Tree_nod@V?$_Tmap_traits@IPAVHardwareBufferPool@Ogre@@U?$less@I@std@@V?$allocator@U?$pair@$$CBIPAVHardwareBufferPool@Ogre@@@std@@@4@$0A@@std@@@std@@IAE@ABU?$less@I@1@V?$allocator@U?$pair@$$CBIPAVHardwareBufferPool@Ogre@@@std@@@1@@Z ; std::_Tree_nod<std::_Tmap_traits<unsigned int,Ogre::HardwareBufferPool *,std::less<unsigned int>,std::allocator<std::pair<unsigned int const ,Ogre::HardwareBufferPool *> >,0> >::_Tree_nod<std::_Tmap_traits<unsigned int,Ogre::HardwareBufferPool *,std::less<unsigned int>,std::allocator<std::pair<unsigned int const ,Ogre::HardwareBufferPool *> >,0> >
	mov	DWORD PTR __$EHRec$[ebp+8], 0
	lea	edx, DWORD PTR __Al$[ebp]
	push	edx
	mov	ecx, DWORD PTR _this$[ebp]
	add	ecx, 16					; 00000010H
	call	??$?0U?$pair@$$CBIPAVHardwareBufferPool@Ogre@@@std@@@?$allocator@PAU_Node@?$_Tree_nod@V?$_Tmap_traits@IPAVHardwareBufferPool@Ogre@@U?$less@I@std@@V?$allocator@U?$pair@$$CBIPAVHardwareBufferPool@Ogre@@@std@@@4@$0A@@std@@@std@@@std@@QAE@ABV?$allocator@U?$pair@$$CBIPAVHardwareBufferPool@Ogre@@@std@@@1@@Z ; std::allocator<std::_Tree_nod<std::_Tmap_traits<unsigned int,Ogre::HardwareBufferPool *,std::less<unsigned int>,std::allocator<std::pair<unsigned int const ,Ogre::HardwareBufferPool *> >,0> >::_Node *>::allocator<std::_Tree_nod<std::_Tmap_traits<unsigned int,Ogre::HardwareBufferPool *,std::less<unsigned int>,std::allocator<std::pair<unsigned int const ,Ogre::HardwareBufferPool *> >,0> >::_Node *><std::pair<unsigned int const ,Ogre::HardwareBufferPool *> >

; 79   : 		}

	mov	DWORD PTR __$EHRec$[ebp+8], -1
	mov	eax, DWORD PTR _this$[ebp]
	mov	ecx, DWORD PTR __$EHRec$[ebp]
	mov	DWORD PTR fs:0, ecx
	pop	ecx
	mov	esp, ebp
	pop	ebp
	ret	8
_TEXT	ENDS
;	COMDAT text$x
text$x	SEGMENT
__unwindfunclet$??0?$_Tree_ptr@V?$_Tmap_traits@IPAVHardwareBufferPool@Ogre@@U?$less@I@std@@V?$allocator@U?$pair@$$CBIPAVHardwareBufferPool@Ogre@@@std@@@4@$0A@@std@@@std@@IAE@ABU?$less@I@1@V?$allocator@U?$pair@$$CBIPAVHardwareBufferPool@Ogre@@@std@@@1@@Z$0:
	mov	ecx, DWORD PTR _this$[ebp]
	jmp	??1?$_Tree_nod@V?$_Tmap_traits@IPAVHardwareBufferPool@Ogre@@U?$less@I@std@@V?$allocator@U?$pair@$$CBIPAVHardwareBufferPool@Ogre@@@std@@@4@$0A@@std@@@std@@QAE@XZ
__ehhandler$??0?$_Tree_ptr@V?$_Tmap_traits@IPAVHardwareBufferPool@Ogre@@U?$less@I@std@@V?$allocator@U?$pair@$$CBIPAVHardwareBufferPool@Ogre@@@std@@@4@$0A@@std@@@std@@IAE@ABU?$less@I@1@V?$allocator@U?$pair@$$CBIPAVHardwareBufferPool@Ogre@@@std@@@1@@Z:
	mov	edx, DWORD PTR [esp+8]
	lea	eax, DWORD PTR [edx+12]
	mov	ecx, DWORD PTR [edx-12]
	xor	ecx, eax
	call	@__security_check_cookie@4
	mov	eax, OFFSET __ehfuncinfo$??0?$_Tree_ptr@V?$_Tmap_traits@IPAVHardwareBufferPool@Ogre@@U?$less@I@std@@V?$allocator@U?$pair@$$CBIPAVHardwareBufferPool@Ogre@@@std@@@4@$0A@@std@@@std@@IAE@ABU?$less@I@1@V?$allocator@U?$pair@$$CBIPAVHardwareBufferPool@Ogre@@@std@@@1@@Z
	jmp	___CxxFrameHandler3
text$x	ENDS
??0?$_Tree_ptr@V?$_Tmap_traits@IPAVHardwareBufferPool@Ogre@@U?$less@I@std@@V?$allocator@U?$pair@$$CBIPAVHardwareBufferPool@Ogre@@@std@@@4@$0A@@std@@@std@@IAE@ABU?$less@I@1@V?$allocator@U?$pair@$$CBIPAVHardwareBufferPool@Ogre@@@std@@@1@@Z ENDP ; std::_Tree_ptr<std::_Tmap_traits<unsigned int,Ogre::HardwareBufferPool *,std::less<unsigned int>,std::allocator<std::pair<unsigned int const ,Ogre::HardwareBufferPool *> >,0> >::_Tree_ptr<std::_Tmap_traits<unsigned int,Ogre::HardwareBufferPool *,std::less<unsigned int>,std::allocator<std::pair<unsigned int const ,Ogre::HardwareBufferPool *> >,0> >
; Function compile flags: /Odtp
; File d:\program files (x86)\microsoft visual studio 9.0\vc\include\map
;	COMDAT ?_Kfn@?$_Tmap_traits@IPAVHardwareBufferPool@Ogre@@U?$less@I@std@@V?$allocator@U?$pair@$$CBIPAVHardwareBufferPool@Ogre@@@std@@@4@$0A@@std@@SAABIABU?$pair@$$CBIPAVHardwareBufferPool@Ogre@@@2@@Z
_TEXT	SEGMENT
__Val$ = 8						; size = 4
?_Kfn@?$_Tmap_traits@IPAVHardwareBufferPool@Ogre@@U?$less@I@std@@V?$allocator@U?$pair@$$CBIPAVHardwareBufferPool@Ogre@@@std@@@4@$0A@@std@@SAABIABU?$pair@$$CBIPAVHardwareBufferPool@Ogre@@@2@@Z PROC ; std::_Tmap_traits<unsigned int,Ogre::HardwareBufferPool *,std::less<unsigned int>,std::allocator<std::pair<unsigned int const ,Ogre::HardwareBufferPool *> >,0>::_Kfn, COMDAT

; 64   : 		{	// extract key from element value

	push	ebp
	mov	ebp, esp

; 65   : 		return (_Val.first);

	mov	eax, DWORD PTR __Val$[ebp]

; 66   : 		}

	pop	ebp
	ret	0
?_Kfn@?$_Tmap_traits@IPAVHardwareBufferPool@Ogre@@U?$less@I@std@@V?$allocator@U?$pair@$$CBIPAVHardwareBufferPool@Ogre@@@std@@@4@$0A@@std@@SAABIABU?$pair@$$CBIPAVHardwareBufferPool@Ogre@@@2@@Z ENDP ; std::_Tmap_traits<unsigned int,Ogre::HardwareBufferPool *,std::less<unsigned int>,std::allocator<std::pair<unsigned int const ,Ogre::HardwareBufferPool *> >,0>::_Kfn
; Function compile flags: /Odtp
; File d:\program files (x86)\microsoft visual studio 9.0\vc\include\xmemory
_TEXT	ENDS
;	COMDAT ??0?$allocator@U?$pair@$$CBIPAVHardwareBufferPool@Ogre@@@std@@@std@@QAE@ABV01@@Z
_TEXT	SEGMENT
_this$ = -4						; size = 4
___formal$ = 8						; size = 4
??0?$allocator@U?$pair@$$CBIPAVHardwareBufferPool@Ogre@@@std@@@std@@QAE@ABV01@@Z PROC ; std::allocator<std::pair<unsigned int const ,Ogre::HardwareBufferPool *> >::allocator<std::pair<unsigned int const ,Ogre::HardwareBufferPool *> >, COMDAT
; _this$ = ecx

; 123  : 	allocator(const allocator<_Ty>&) _THROW0()

	push	ebp
	mov	ebp, esp
	push	ecx
	mov	DWORD PTR _this$[ebp], ecx

; 124  : 		{	// construct by copying (do nothing)
; 125  : 		}

	mov	eax, DWORD PTR _this$[ebp]
	mov	esp, ebp
	pop	ebp
	ret	4
??0?$allocator@U?$pair@$$CBIPAVHardwareBufferPool@Ogre@@@std@@@std@@QAE@ABV01@@Z ENDP ; std::allocator<std::pair<unsigned int const ,Ogre::HardwareBufferPool *> >::allocator<std::pair<unsigned int const ,Ogre::HardwareBufferPool *> >
; Function compile flags: /Odtp
_TEXT	ENDS
;	COMDAT ?deallocate@?$allocator@V_Aux_cont@std@@@std@@QAEXPAV_Aux_cont@2@I@Z
_TEXT	SEGMENT
_this$ = -4						; size = 4
__Ptr$ = 8						; size = 4
___formal$ = 12						; size = 4
?deallocate@?$allocator@V_Aux_cont@std@@@std@@QAEXPAV_Aux_cont@2@I@Z PROC ; std::allocator<std::_Aux_cont>::deallocate, COMDAT
; _this$ = ecx

; 139  : 		{	// deallocate object at _Ptr, ignore size

	push	ebp
	mov	ebp, esp
	push	ecx
	mov	DWORD PTR _this$[ebp], ecx

; 140  : 		::operator delete(_Ptr);

	mov	eax, DWORD PTR __Ptr$[ebp]
	push	eax
	call	??3@YAXPAX@Z				; operator delete
	add	esp, 4

; 141  : 		}

	mov	esp, ebp
	pop	ebp
	ret	8
?deallocate@?$allocator@V_Aux_cont@std@@@std@@QAEXPAV_Aux_cont@2@I@Z ENDP ; std::allocator<std::_Aux_cont>::deallocate
; Function compile flags: /Odtp
_TEXT	ENDS
;	COMDAT ?deallocate@?$allocator@U_Node@?$_Tree_nod@V?$_Tmap_traits@IPAVHardwareBufferPool@Ogre@@U?$less@I@std@@V?$allocator@U?$pair@$$CBIPAVHardwareBufferPool@Ogre@@@std@@@4@$0A@@std@@@std@@@std@@QAEXPAU_Node@?$_Tree_nod@V?$_Tmap_traits@IPAVHardwareBufferPool@Ogre@@U?$less@I@std@@V?$allocator@U?$pair@$$CBIPAVHardwareBufferPool@Ogre@@@std@@@4@$0A@@std@@@2@I@Z
_TEXT	SEGMENT
_this$ = -4						; size = 4
__Ptr$ = 8						; size = 4
___formal$ = 12						; size = 4
?deallocate@?$allocator@U_Node@?$_Tree_nod@V?$_Tmap_traits@IPAVHardwareBufferPool@Ogre@@U?$less@I@std@@V?$allocator@U?$pair@$$CBIPAVHardwareBufferPool@Ogre@@@std@@@4@$0A@@std@@@std@@@std@@QAEXPAU_Node@?$_Tree_nod@V?$_Tmap_traits@IPAVHardwareBufferPool@Ogre@@U?$less@I@std@@V?$allocator@U?$pair@$$CBIPAVHardwareBufferPool@Ogre@@@std@@@4@$0A@@std@@@2@I@Z PROC ; std::allocator<std::_Tree_nod<std::_Tmap_traits<unsigned int,Ogre::HardwareBufferPool *,std::less<unsigned int>,std::allocator<std::pair<unsigned int const ,Ogre::HardwareBufferPool *> >,0> >::_Node>::deallocate, COMDAT
; _this$ = ecx

; 139  : 		{	// deallocate object at _Ptr, ignore size

	push	ebp
	mov	ebp, esp
	push	ecx
	mov	DWORD PTR _this$[ebp], ecx

; 140  : 		::operator delete(_Ptr);

	mov	eax, DWORD PTR __Ptr$[ebp]
	push	eax
	call	??3@YAXPAX@Z				; operator delete
	add	esp, 4

; 141  : 		}

	mov	esp, ebp
	pop	ebp
	ret	8
?deallocate@?$allocator@U_Node@?$_Tree_nod@V?$_Tmap_traits@IPAVHardwareBufferPool@Ogre@@U?$less@I@std@@V?$allocator@U?$pair@$$CBIPAVHardwareBufferPool@Ogre@@@std@@@4@$0A@@std@@@std@@@std@@QAEXPAU_Node@?$_Tree_nod@V?$_Tmap_traits@IPAVHardwareBufferPool@Ogre@@U?$less@I@std@@V?$allocator@U?$pair@$$CBIPAVHardwareBufferPool@Ogre@@@std@@@4@$0A@@std@@@2@I@Z ENDP ; std::allocator<std::_Tree_nod<std::_Tmap_traits<unsigned int,Ogre::HardwareBufferPool *,std::less<unsigned int>,std::allocator<std::pair<unsigned int const ,Ogre::HardwareBufferPool *> >,0> >::_Node>::deallocate
_TEXT	ENDS
PUBLIC	??$_Destroy@PAU_Node@?$_Tree_nod@V?$_Tmap_traits@IPAVHardwareBufferPool@Ogre@@U?$less@I@std@@V?$allocator@U?$pair@$$CBIPAVHardwareBufferPool@Ogre@@@std@@@4@$0A@@std@@@std@@@std@@YAXPAPAU_Node@?$_Tree_nod@V?$_Tmap_traits@IPAVHardwareBufferPool@Ogre@@U?$less@I@std@@V?$allocator@U?$pair@$$CBIPAVHardwareBufferPool@Ogre@@@std@@@4@$0A@@std@@@0@@Z ; std::_Destroy<std::_Tree_nod<std::_Tmap_traits<unsigned int,Ogre::HardwareBufferPool *,std::less<unsigned int>,std::allocator<std::pair<unsigned int const ,Ogre::HardwareBufferPool *> >,0> >::_Node *>
; Function compile flags: /Odtp
;	COMDAT ?destroy@?$allocator@PAU_Node@?$_Tree_nod@V?$_Tmap_traits@IPAVHardwareBufferPool@Ogre@@U?$less@I@std@@V?$allocator@U?$pair@$$CBIPAVHardwareBufferPool@Ogre@@@std@@@4@$0A@@std@@@std@@@std@@QAEXPAPAU_Node@?$_Tree_nod@V?$_Tmap_traits@IPAVHardwareBufferPool@Ogre@@U?$less@I@std@@V?$allocator@U?$pair@$$CBIPAVHardwareBufferPool@Ogre@@@std@@@4@$0A@@std@@@2@@Z
_TEXT	SEGMENT
_this$ = -4						; size = 4
__Ptr$ = 8						; size = 4
?destroy@?$allocator@PAU_Node@?$_Tree_nod@V?$_Tmap_traits@IPAVHardwareBufferPool@Ogre@@U?$less@I@std@@V?$allocator@U?$pair@$$CBIPAVHardwareBufferPool@Ogre@@@std@@@4@$0A@@std@@@std@@@std@@QAEXPAPAU_Node@?$_Tree_nod@V?$_Tmap_traits@IPAVHardwareBufferPool@Ogre@@U?$less@I@std@@V?$allocator@U?$pair@$$CBIPAVHardwareBufferPool@Ogre@@@std@@@4@$0A@@std@@@2@@Z PROC ; std::allocator<std::_Tree_nod<std::_Tmap_traits<unsigned int,Ogre::HardwareBufferPool *,std::less<unsigned int>,std::allocator<std::pair<unsigned int const ,Ogre::HardwareBufferPool *> >,0> >::_Node *>::destroy, COMDAT
; _this$ = ecx

; 159  : 		{	// destroy object at _Ptr

	push	ebp
	mov	ebp, esp
	push	ecx
	mov	DWORD PTR _this$[ebp], ecx

; 160  : 		_Destroy(_Ptr);

	mov	eax, DWORD PTR __Ptr$[ebp]
	push	eax
	call	??$_Destroy@PAU_Node@?$_Tree_nod@V?$_Tmap_traits@IPAVHardwareBufferPool@Ogre@@U?$less@I@std@@V?$allocator@U?$pair@$$CBIPAVHardwareBufferPool@Ogre@@@std@@@4@$0A@@std@@@std@@@std@@YAXPAPAU_Node@?$_Tree_nod@V?$_Tmap_traits@IPAVHardwareBufferPool@Ogre@@U?$less@I@std@@V?$allocator@U?$pair@$$CBIPAVHardwareBufferPool@Ogre@@@std@@@4@$0A@@std@@@0@@Z ; std::_Destroy<std::_Tree_nod<std::_Tmap_traits<unsigned int,Ogre::HardwareBufferPool *,std::less<unsigned int>,std::allocator<std::pair<unsigned int const ,Ogre::HardwareBufferPool *> >,0> >::_Node *>
	add	esp, 4

; 161  : 		}

	mov	esp, ebp
	pop	ebp
	ret	4
?destroy@?$allocator@PAU_Node@?$_Tree_nod@V?$_Tmap_traits@IPAVHardwareBufferPool@Ogre@@U?$less@I@std@@V?$allocator@U?$pair@$$CBIPAVHardwareBufferPool@Ogre@@@std@@@4@$0A@@std@@@std@@@std@@QAEXPAPAU_Node@?$_Tree_nod@V?$_Tmap_traits@IPAVHardwareBufferPool@Ogre@@U?$less@I@std@@V?$allocator@U?$pair@$$CBIPAVHardwareBufferPool@Ogre@@@std@@@4@$0A@@std@@@2@@Z ENDP ; std::allocator<std::_Tree_nod<std::_Tmap_traits<unsigned int,Ogre::HardwareBufferPool *,std::less<unsigned int>,std::allocator<std::pair<unsigned int const ,Ogre::HardwareBufferPool *> >,0> >::_Node *>::destroy
_TEXT	ENDS
PUBLIC	??0?$_Bidit@U?$pair@$$CBIPAVHardwareBufferPool@Ogre@@@std@@HPBU12@ABU12@@std@@QAE@XZ ; std::_Bidit<std::pair<unsigned int const ,Ogre::HardwareBufferPool *>,int,std::pair<unsigned int const ,Ogre::HardwareBufferPool *> const *,std::pair<unsigned int const ,Ogre::HardwareBufferPool *> const &>::_Bidit<std::pair<unsigned int const ,Ogre::HardwareBufferPool *>,int,std::pair<unsigned int const ,Ogre::HardwareBufferPool *> const *,std::pair<unsigned int const ,Ogre::HardwareBufferPool *> const &>
; Function compile flags: /Odtp
; File d:\program files (x86)\microsoft visual studio 9.0\vc\include\xtree
;	COMDAT ??0const_iterator@?$_Tree@V?$_Tmap_traits@IPAVHardwareBufferPool@Ogre@@U?$less@I@std@@V?$allocator@U?$pair@$$CBIPAVHardwareBufferPool@Ogre@@@std@@@4@$0A@@std@@@std@@QAE@XZ
_TEXT	SEGMENT
_this$ = -4						; size = 4
??0const_iterator@?$_Tree@V?$_Tmap_traits@IPAVHardwareBufferPool@Ogre@@U?$less@I@std@@V?$allocator@U?$pair@$$CBIPAVHardwareBufferPool@Ogre@@@std@@@4@$0A@@std@@@std@@QAE@XZ PROC ; std::_Tree<std::_Tmap_traits<unsigned int,Ogre::HardwareBufferPool *,std::less<unsigned int>,std::allocator<std::pair<unsigned int const ,Ogre::HardwareBufferPool *> >,0> >::const_iterator::const_iterator, COMDAT
; _this$ = ecx

; 217  : 			{	// construct with null node pointer

	push	ebp
	mov	ebp, esp
	push	ecx
	mov	DWORD PTR _this$[ebp], ecx
	mov	ecx, DWORD PTR _this$[ebp]
	call	??0?$_Bidit@U?$pair@$$CBIPAVHardwareBufferPool@Ogre@@@std@@HPBU12@ABU12@@std@@QAE@XZ
	mov	eax, DWORD PTR _this$[ebp]
	mov	DWORD PTR [eax+4], 0

; 218  : 			}

	mov	eax, DWORD PTR _this$[ebp]
	mov	esp, ebp
	pop	ebp
	ret	0
??0const_iterator@?$_Tree@V?$_Tmap_traits@IPAVHardwareBufferPool@Ogre@@U?$less@I@std@@V?$allocator@U?$pair@$$CBIPAVHardwareBufferPool@Ogre@@@std@@@4@$0A@@std@@@std@@QAE@XZ ENDP ; std::_Tree<std::_Tmap_traits<unsigned int,Ogre::HardwareBufferPool *,std::less<unsigned int>,std::allocator<std::pair<unsigned int const ,Ogre::HardwareBufferPool *> >,0> >::const_iterator::const_iterator
_TEXT	ENDS
PUBLIC	?_Set_container@_Iterator_base_aux@std@@QAEXQBV_Container_base_aux@2@@Z ; std::_Iterator_base_aux::_Set_container
; Function compile flags: /Odtp
;	COMDAT ??0const_iterator@?$_Tree@V?$_Tmap_traits@IPAVHardwareBufferPool@Ogre@@U?$less@I@std@@V?$allocator@U?$pair@$$CBIPAVHardwareBufferPool@Ogre@@@std@@@4@$0A@@std@@@std@@QAE@PAU_Node@?$_Tree_nod@V?$_Tmap_traits@IPAVHardwareBufferPool@Ogre@@U?$less@I@std@@V?$allocator@U?$pair@$$CBIPAVHardwareBufferPool@Ogre@@@std@@@4@$0A@@std@@@2@PBV12@@Z
_TEXT	SEGMENT
_this$ = -4						; size = 4
__Pnode$ = 8						; size = 4
__Plist$ = 12						; size = 4
??0const_iterator@?$_Tree@V?$_Tmap_traits@IPAVHardwareBufferPool@Ogre@@U?$less@I@std@@V?$allocator@U?$pair@$$CBIPAVHardwareBufferPool@Ogre@@@std@@@4@$0A@@std@@@std@@QAE@PAU_Node@?$_Tree_nod@V?$_Tmap_traits@IPAVHardwareBufferPool@Ogre@@U?$less@I@std@@V?$allocator@U?$pair@$$CBIPAVHardwareBufferPool@Ogre@@@std@@@4@$0A@@std@@@2@PBV12@@Z PROC ; std::_Tree<std::_Tmap_traits<unsigned int,Ogre::HardwareBufferPool *,std::less<unsigned int>,std::allocator<std::pair<unsigned int const ,Ogre::HardwareBufferPool *> >,0> >::const_iterator::const_iterator, COMDAT
; _this$ = ecx

; 234  : 			{	// construct with node pointer _Pnode

	push	ebp
	mov	ebp, esp
	push	ecx
	mov	DWORD PTR _this$[ebp], ecx
	mov	ecx, DWORD PTR _this$[ebp]
	call	??0?$_Bidit@U?$pair@$$CBIPAVHardwareBufferPool@Ogre@@@std@@HPBU12@ABU12@@std@@QAE@XZ
	mov	eax, DWORD PTR _this$[ebp]
	mov	ecx, DWORD PTR __Pnode$[ebp]
	mov	DWORD PTR [eax+4], ecx

; 235  : 			_SCL_SECURE_VALIDATE(_Plist != NULL);

	cmp	DWORD PTR __Plist$[ebp], 0
	jne	SHORT $LN1@const_iter
	call	DWORD PTR __imp___invalid_parameter_noinfo
$LN1@const_iter:

; 236  : 			this->_Set_container(_Plist);

	mov	edx, DWORD PTR __Plist$[ebp]
	push	edx
	mov	ecx, DWORD PTR _this$[ebp]
	call	?_Set_container@_Iterator_base_aux@std@@QAEXQBV_Container_base_aux@2@@Z ; std::_Iterator_base_aux::_Set_container

; 237  : 			}

	mov	eax, DWORD PTR _this$[ebp]
	mov	esp, ebp
	pop	ebp
	ret	8
??0const_iterator@?$_Tree@V?$_Tmap_traits@IPAVHardwareBufferPool@Ogre@@U?$less@I@std@@V?$allocator@U?$pair@$$CBIPAVHardwareBufferPool@Ogre@@@std@@@4@$0A@@std@@@std@@QAE@PAU_Node@?$_Tree_nod@V?$_Tmap_traits@IPAVHardwareBufferPool@Ogre@@U?$less@I@std@@V?$allocator@U?$pair@$$CBIPAVHardwareBufferPool@Ogre@@@std@@@4@$0A@@std@@@2@PBV12@@Z ENDP ; std::_Tree<std::_Tmap_traits<unsigned int,Ogre::HardwareBufferPool *,std::less<unsigned int>,std::allocator<std::pair<unsigned int const ,Ogre::HardwareBufferPool *> >,0> >::const_iterator::const_iterator
; Function compile flags: /Odtp
; File d:\program files (x86)\microsoft visual studio 9.0\vc\include\xutility
_TEXT	ENDS
;	COMDAT ?_Set_container@_Iterator_base_aux@std@@QAEXQBV_Container_base_aux@2@@Z
_TEXT	SEGMENT
_this$ = -4						; size = 4
__Pcont$ = 8						; size = 4
?_Set_container@_Iterator_base_aux@std@@QAEXQBV_Container_base_aux@2@@Z PROC ; std::_Iterator_base_aux::_Set_container, COMDAT
; _this$ = ecx

; 452  : 		{

	push	ebp
	mov	ebp, esp
	push	ecx
	mov	DWORD PTR _this$[ebp], ecx

; 453  : 		_Myaux = _Pcont->_Myownedaux;

	mov	eax, DWORD PTR _this$[ebp]
	mov	ecx, DWORD PTR __Pcont$[ebp]
	mov	edx, DWORD PTR [ecx]
	mov	DWORD PTR [eax], edx

; 454  : 		}

	mov	esp, ebp
	pop	ebp
	ret	4
?_Set_container@_Iterator_base_aux@std@@QAEXQBV_Container_base_aux@2@@Z ENDP ; std::_Iterator_base_aux::_Set_container
_TEXT	ENDS
PUBLIC	?_Getmycont@_Iterator_base_aux@std@@QBEPBV_Container_base_aux@2@XZ ; std::_Iterator_base_aux::_Getmycont
; Function compile flags: /Odtp
; File d:\program files (x86)\microsoft visual studio 9.0\vc\include\xtree
;	COMDAT ??Dconst_iterator@?$_Tree@V?$_Tmap_traits@IPAVHardwareBufferPool@Ogre@@U?$less@I@std@@V?$allocator@U?$pair@$$CBIPAVHardwareBufferPool@Ogre@@@std@@@4@$0A@@std@@@std@@QBEABU?$pair@$$CBIPAVHardwareBufferPool@Ogre@@@2@XZ
_TEXT	SEGMENT
_this$ = -4						; size = 4
??Dconst_iterator@?$_Tree@V?$_Tmap_traits@IPAVHardwareBufferPool@Ogre@@U?$less@I@std@@V?$allocator@U?$pair@$$CBIPAVHardwareBufferPool@Ogre@@@std@@@4@$0A@@std@@@std@@QBEABU?$pair@$$CBIPAVHardwareBufferPool@Ogre@@@2@XZ PROC ; std::_Tree<std::_Tmap_traits<unsigned int,Ogre::HardwareBufferPool *,std::less<unsigned int>,std::allocator<std::pair<unsigned int const ,Ogre::HardwareBufferPool *> >,0> >::const_iterator::operator*, COMDAT
; _this$ = ecx

; 249  : 			{	// return designated value

	push	ebp
	mov	ebp, esp
	push	ecx
	mov	DWORD PTR _this$[ebp], ecx

; 250  : 
; 251  :  #if _HAS_ITERATOR_DEBUGGING
; 252  : 			if (this->_Mycont == 0
; 253  : 				|| _Ptr == 0
; 254  : 				|| _Ptr == ((_Myt *)this->_Mycont)->_Myhead)
; 255  : 				{
; 256  : 				_DEBUG_ERROR("map/set iterator not dereferencable");
; 257  : 				_SCL_SECURE_OUT_OF_RANGE;
; 258  : 				}
; 259  :  #else
; 260  : 			_SCL_SECURE_VALIDATE(this->_Has_container());

	mov	ecx, DWORD PTR _this$[ebp]
	call	?_Has_container@_Iterator_base_aux@std@@QBE_NXZ ; std::_Iterator_base_aux::_Has_container
	movzx	eax, al
	test	eax, eax
	jne	SHORT $LN2@operator@5
	call	DWORD PTR __imp___invalid_parameter_noinfo
$LN2@operator@5:

; 261  : 			_SCL_SECURE_VALIDATE_RANGE(_Ptr != ((_Myt *)(this->_Getmycont()))->_Myhead);

	mov	ecx, DWORD PTR _this$[ebp]
	call	?_Getmycont@_Iterator_base_aux@std@@QBEPBV_Container_base_aux@2@XZ ; std::_Iterator_base_aux::_Getmycont
	mov	ecx, DWORD PTR _this$[ebp]
	mov	edx, DWORD PTR [ecx+4]
	cmp	edx, DWORD PTR [eax+24]
	jne	SHORT $LN1@operator@5
	call	DWORD PTR __imp___invalid_parameter_noinfo
$LN1@operator@5:

; 262  :  #endif /* _HAS_ITERATOR_DEBUGGING */
; 263  : 
; 264  : 			return (_Myval(_Ptr));

	mov	eax, DWORD PTR _this$[ebp]
	mov	ecx, DWORD PTR [eax+4]
	push	ecx
	call	?_Myval@?$_Tree@V?$_Tmap_traits@IPAVHardwareBufferPool@Ogre@@U?$less@I@std@@V?$allocator@U?$pair@$$CBIPAVHardwareBufferPool@Ogre@@@std@@@4@$0A@@std@@@std@@KAAAU?$pair@$$CBIPAVHardwareBufferPool@Ogre@@@2@PAU_Node@?$_Tree_nod@V?$_Tmap_traits@IPAVHardwareBufferPool@Ogre@@U?$less@I@std@@V?$allocator@U?$pair@$$CBIPAVHardwareBufferPool@Ogre@@@std@@@4@$0A@@std@@@2@@Z ; std::_Tree<std::_Tmap_traits<unsigned int,Ogre::HardwareBufferPool *,std::less<unsigned int>,std::allocator<std::pair<unsigned int const ,Ogre::HardwareBufferPool *> >,0> >::_Myval
	add	esp, 4

; 265  : 			}

	mov	esp, ebp
	pop	ebp
	ret	0
??Dconst_iterator@?$_Tree@V?$_Tmap_traits@IPAVHardwareBufferPool@Ogre@@U?$less@I@std@@V?$allocator@U?$pair@$$CBIPAVHardwareBufferPool@Ogre@@@std@@@4@$0A@@std@@@std@@QBEABU?$pair@$$CBIPAVHardwareBufferPool@Ogre@@@2@XZ ENDP ; std::_Tree<std::_Tmap_traits<unsigned int,Ogre::HardwareBufferPool *,std::less<unsigned int>,std::allocator<std::pair<unsigned int const ,Ogre::HardwareBufferPool *> >,0> >::const_iterator::operator*
_TEXT	ENDS
PUBLIC	?_Getcont@_Aux_cont@std@@QBEPBV_Container_base_aux@2@XZ ; std::_Aux_cont::_Getcont
; Function compile flags: /Odtp
; File d:\program files (x86)\microsoft visual studio 9.0\vc\include\xutility
;	COMDAT ?_Getmycont@_Iterator_base_aux@std@@QBEPBV_Container_base_aux@2@XZ
_TEXT	SEGMENT
tv67 = -8						; size = 4
_this$ = -4						; size = 4
?_Getmycont@_Iterator_base_aux@std@@QBEPBV_Container_base_aux@2@XZ PROC ; std::_Iterator_base_aux::_Getmycont, COMDAT
; _this$ = ecx

; 457  : 		{	// Go through the aux object to get the container

	push	ebp
	mov	ebp, esp
	sub	esp, 8
	mov	DWORD PTR _this$[ebp], ecx

; 458  : 		return _Myaux ? _Myaux->_Getcont() : 0;

	mov	eax, DWORD PTR _this$[ebp]
	cmp	DWORD PTR [eax], 0
	je	SHORT $LN3@Getmycont
	mov	ecx, DWORD PTR _this$[ebp]
	mov	ecx, DWORD PTR [ecx]
	call	?_Getcont@_Aux_cont@std@@QBEPBV_Container_base_aux@2@XZ ; std::_Aux_cont::_Getcont
	mov	DWORD PTR tv67[ebp], eax
	jmp	SHORT $LN4@Getmycont
$LN3@Getmycont:
	mov	DWORD PTR tv67[ebp], 0
$LN4@Getmycont:
	mov	eax, DWORD PTR tv67[ebp]

; 459  : 		}

	mov	esp, ebp
	pop	ebp
	ret	0
?_Getmycont@_Iterator_base_aux@std@@QBEPBV_Container_base_aux@2@XZ ENDP ; std::_Iterator_base_aux::_Getmycont
; Function compile flags: /Odtp
_TEXT	ENDS
;	COMDAT ?_Getcont@_Aux_cont@std@@QBEPBV_Container_base_aux@2@XZ
_TEXT	SEGMENT
_this$ = -4						; size = 4
?_Getcont@_Aux_cont@std@@QBEPBV_Container_base_aux@2@XZ PROC ; std::_Aux_cont::_Getcont, COMDAT
; _this$ = ecx

; 368  : 		{

	push	ebp
	mov	ebp, esp
	push	ecx
	mov	DWORD PTR _this$[ebp], ecx

; 369  : 		return _Mycontainer;

	mov	eax, DWORD PTR _this$[ebp]
	mov	eax, DWORD PTR [eax]

; 370  : 		}

	mov	esp, ebp
	pop	ebp
	ret	0
?_Getcont@_Aux_cont@std@@QBEPBV_Container_base_aux@2@XZ ENDP ; std::_Aux_cont::_Getcont
_TEXT	ENDS
PUBLIC	?_Inc@const_iterator@?$_Tree@V?$_Tmap_traits@IPAVHardwareBufferPool@Ogre@@U?$less@I@std@@V?$allocator@U?$pair@$$CBIPAVHardwareBufferPool@Ogre@@@std@@@4@$0A@@std@@@std@@QAEXXZ ; std::_Tree<std::_Tmap_traits<unsigned int,Ogre::HardwareBufferPool *,std::less<unsigned int>,std::allocator<std::pair<unsigned int const ,Ogre::HardwareBufferPool *> >,0> >::const_iterator::_Inc
; Function compile flags: /Odtp
; File d:\program files (x86)\microsoft visual studio 9.0\vc\include\xtree
;	COMDAT ??Econst_iterator@?$_Tree@V?$_Tmap_traits@IPAVHardwareBufferPool@Ogre@@U?$less@I@std@@V?$allocator@U?$pair@$$CBIPAVHardwareBufferPool@Ogre@@@std@@@4@$0A@@std@@@std@@QAEAAV012@XZ
_TEXT	SEGMENT
_this$ = -4						; size = 4
??Econst_iterator@?$_Tree@V?$_Tmap_traits@IPAVHardwareBufferPool@Ogre@@U?$less@I@std@@V?$allocator@U?$pair@$$CBIPAVHardwareBufferPool@Ogre@@@std@@@4@$0A@@std@@@std@@QAEAAV012@XZ PROC ; std::_Tree<std::_Tmap_traits<unsigned int,Ogre::HardwareBufferPool *,std::less<unsigned int>,std::allocator<std::pair<unsigned int const ,Ogre::HardwareBufferPool *> >,0> >::const_iterator::operator++, COMDAT
; _this$ = ecx

; 273  : 			{	// preincrement

	push	ebp
	mov	ebp, esp
	push	ecx
	mov	DWORD PTR _this$[ebp], ecx

; 274  : 			_Inc();

	mov	ecx, DWORD PTR _this$[ebp]
	call	?_Inc@const_iterator@?$_Tree@V?$_Tmap_traits@IPAVHardwareBufferPool@Ogre@@U?$less@I@std@@V?$allocator@U?$pair@$$CBIPAVHardwareBufferPool@Ogre@@@std@@@4@$0A@@std@@@std@@QAEXXZ ; std::_Tree<std::_Tmap_traits<unsigned int,Ogre::HardwareBufferPool *,std::less<unsigned int>,std::allocator<std::pair<unsigned int const ,Ogre::HardwareBufferPool *> >,0> >::const_iterator::_Inc

; 275  : 			return (*this);

	mov	eax, DWORD PTR _this$[ebp]

; 276  : 			}

	mov	esp, ebp
	pop	ebp
	ret	0
??Econst_iterator@?$_Tree@V?$_Tmap_traits@IPAVHardwareBufferPool@Ogre@@U?$less@I@std@@V?$allocator@U?$pair@$$CBIPAVHardwareBufferPool@Ogre@@@std@@@4@$0A@@std@@@std@@QAEAAV012@XZ ENDP ; std::_Tree<std::_Tmap_traits<unsigned int,Ogre::HardwareBufferPool *,std::less<unsigned int>,std::allocator<std::pair<unsigned int const ,Ogre::HardwareBufferPool *> >,0> >::const_iterator::operator++
; Function compile flags: /Odtp
_TEXT	ENDS
;	COMDAT ??Econst_iterator@?$_Tree@V?$_Tmap_traits@IPAVHardwareBufferPool@Ogre@@U?$less@I@std@@V?$allocator@U?$pair@$$CBIPAVHardwareBufferPool@Ogre@@@std@@@4@$0A@@std@@@std@@QAE?AV012@H@Z
_TEXT	SEGMENT
_this$ = -12						; size = 4
__Tmp$ = -8						; size = 8
___$ReturnUdt$ = 8					; size = 4
___formal$ = 12						; size = 4
??Econst_iterator@?$_Tree@V?$_Tmap_traits@IPAVHardwareBufferPool@Ogre@@U?$less@I@std@@V?$allocator@U?$pair@$$CBIPAVHardwareBufferPool@Ogre@@@std@@@4@$0A@@std@@@std@@QAE?AV012@H@Z PROC ; std::_Tree<std::_Tmap_traits<unsigned int,Ogre::HardwareBufferPool *,std::less<unsigned int>,std::allocator<std::pair<unsigned int const ,Ogre::HardwareBufferPool *> >,0> >::const_iterator::operator++, COMDAT
; _this$ = ecx

; 279  : 			{	// postincrement

	push	ebp
	mov	ebp, esp
	sub	esp, 12					; 0000000cH
	mov	DWORD PTR _this$[ebp], ecx

; 280  : 			const_iterator _Tmp = *this;

	mov	eax, DWORD PTR _this$[ebp]
	mov	ecx, DWORD PTR [eax]
	mov	edx, DWORD PTR [eax+4]
	mov	DWORD PTR __Tmp$[ebp], ecx
	mov	DWORD PTR __Tmp$[ebp+4], edx

; 281  : 			++*this;

	mov	ecx, DWORD PTR _this$[ebp]
	call	??Econst_iterator@?$_Tree@V?$_Tmap_traits@IPAVHardwareBufferPool@Ogre@@U?$less@I@std@@V?$allocator@U?$pair@$$CBIPAVHardwareBufferPool@Ogre@@@std@@@4@$0A@@std@@@std@@QAEAAV012@XZ ; std::_Tree<std::_Tmap_traits<unsigned int,Ogre::HardwareBufferPool *,std::less<unsigned int>,std::allocator<std::pair<unsigned int const ,Ogre::HardwareBufferPool *> >,0> >::const_iterator::operator++

; 282  : 			return (_Tmp);

	mov	eax, DWORD PTR ___$ReturnUdt$[ebp]
	mov	ecx, DWORD PTR __Tmp$[ebp]
	mov	DWORD PTR [eax], ecx
	mov	edx, DWORD PTR __Tmp$[ebp+4]
	mov	DWORD PTR [eax+4], edx
	mov	eax, DWORD PTR ___$ReturnUdt$[ebp]

; 283  : 			}

	mov	esp, ebp
	pop	ebp
	ret	8
??Econst_iterator@?$_Tree@V?$_Tmap_traits@IPAVHardwareBufferPool@Ogre@@U?$less@I@std@@V?$allocator@U?$pair@$$CBIPAVHardwareBufferPool@Ogre@@@std@@@4@$0A@@std@@@std@@QAE?AV012@H@Z ENDP ; std::_Tree<std::_Tmap_traits<unsigned int,Ogre::HardwareBufferPool *,std::less<unsigned int>,std::allocator<std::pair<unsigned int const ,Ogre::HardwareBufferPool *> >,0> >::const_iterator::operator++
_TEXT	ENDS
PUBLIC	?_Dec@const_iterator@?$_Tree@V?$_Tmap_traits@IPAVHardwareBufferPool@Ogre@@U?$less@I@std@@V?$allocator@U?$pair@$$CBIPAVHardwareBufferPool@Ogre@@@std@@@4@$0A@@std@@@std@@QAEXXZ ; std::_Tree<std::_Tmap_traits<unsigned int,Ogre::HardwareBufferPool *,std::less<unsigned int>,std::allocator<std::pair<unsigned int const ,Ogre::HardwareBufferPool *> >,0> >::const_iterator::_Dec
; Function compile flags: /Odtp
;	COMDAT ??Fconst_iterator@?$_Tree@V?$_Tmap_traits@IPAVHardwareBufferPool@Ogre@@U?$less@I@std@@V?$allocator@U?$pair@$$CBIPAVHardwareBufferPool@Ogre@@@std@@@4@$0A@@std@@@std@@QAEAAV012@XZ
_TEXT	SEGMENT
_this$ = -4						; size = 4
??Fconst_iterator@?$_Tree@V?$_Tmap_traits@IPAVHardwareBufferPool@Ogre@@U?$less@I@std@@V?$allocator@U?$pair@$$CBIPAVHardwareBufferPool@Ogre@@@std@@@4@$0A@@std@@@std@@QAEAAV012@XZ PROC ; std::_Tree<std::_Tmap_traits<unsigned int,Ogre::HardwareBufferPool *,std::less<unsigned int>,std::allocator<std::pair<unsigned int const ,Ogre::HardwareBufferPool *> >,0> >::const_iterator::operator--, COMDAT
; _this$ = ecx

; 286  : 			{	// predecrement

	push	ebp
	mov	ebp, esp
	push	ecx
	mov	DWORD PTR _this$[ebp], ecx

; 287  : 			_Dec();

	mov	ecx, DWORD PTR _this$[ebp]
	call	?_Dec@const_iterator@?$_Tree@V?$_Tmap_traits@IPAVHardwareBufferPool@Ogre@@U?$less@I@std@@V?$allocator@U?$pair@$$CBIPAVHardwareBufferPool@Ogre@@@std@@@4@$0A@@std@@@std@@QAEXXZ ; std::_Tree<std::_Tmap_traits<unsigned int,Ogre::HardwareBufferPool *,std::less<unsigned int>,std::allocator<std::pair<unsigned int const ,Ogre::HardwareBufferPool *> >,0> >::const_iterator::_Dec

; 288  : 			return (*this);

	mov	eax, DWORD PTR _this$[ebp]

; 289  : 			}

	mov	esp, ebp
	pop	ebp
	ret	0
??Fconst_iterator@?$_Tree@V?$_Tmap_traits@IPAVHardwareBufferPool@Ogre@@U?$less@I@std@@V?$allocator@U?$pair@$$CBIPAVHardwareBufferPool@Ogre@@@std@@@4@$0A@@std@@@std@@QAEAAV012@XZ ENDP ; std::_Tree<std::_Tmap_traits<unsigned int,Ogre::HardwareBufferPool *,std::less<unsigned int>,std::allocator<std::pair<unsigned int const ,Ogre::HardwareBufferPool *> >,0> >::const_iterator::operator--
_TEXT	ENDS
;	COMDAT xdata$x
xdata$x	SEGMENT
__unwindtable$??0length_error@std@@QAE@ABV01@@Z DD 0ffffffffH
	DD	FLAT:__unwindfunclet$??0length_error@std@@QAE@ABV01@@Z$0
__ehfuncinfo$??0length_error@std@@QAE@ABV01@@Z DD 019930522H
	DD	01H
	DD	FLAT:__unwindtable$??0length_error@std@@QAE@ABV01@@Z
	DD	2 DUP(00H)
	DD	2 DUP(00H)
	DD	00H
	DD	00H
; Function compile flags: /Odtp
xdata$x	ENDS
;	COMDAT ??0length_error@std@@QAE@ABV01@@Z
_TEXT	SEGMENT
_this$ = -16						; size = 4
__$EHRec$ = -12						; size = 12
___that$ = 8						; size = 4
??0length_error@std@@QAE@ABV01@@Z PROC			; std::length_error::length_error, COMDAT
; _this$ = ecx
	push	ebp
	mov	ebp, esp
	push	-1
	push	__ehhandler$??0length_error@std@@QAE@ABV01@@Z
	mov	eax, DWORD PTR fs:0
	push	eax
	push	ecx
	mov	eax, DWORD PTR ___security_cookie
	xor	eax, ebp
	push	eax
	lea	eax, DWORD PTR __$EHRec$[ebp]
	mov	DWORD PTR fs:0, eax
	mov	DWORD PTR _this$[ebp], ecx
	mov	eax, DWORD PTR ___that$[ebp]
	push	eax
	mov	ecx, DWORD PTR _this$[ebp]
	call	??0logic_error@std@@QAE@ABV01@@Z
	mov	DWORD PTR __$EHRec$[ebp+8], 0
	mov	ecx, DWORD PTR _this$[ebp]
	mov	DWORD PTR [ecx], OFFSET ??_7length_error@std@@6B@
	mov	DWORD PTR __$EHRec$[ebp+8], -1
	mov	eax, DWORD PTR _this$[ebp]
	mov	ecx, DWORD PTR __$EHRec$[ebp]
	mov	DWORD PTR fs:0, ecx
	pop	ecx
	mov	esp, ebp
	pop	ebp
	ret	4
_TEXT	ENDS
;	COMDAT text$x
text$x	SEGMENT
__unwindfunclet$??0length_error@std@@QAE@ABV01@@Z$0:
	mov	ecx, DWORD PTR _this$[ebp]
	jmp	??1logic_error@std@@UAE@XZ		; std::logic_error::~logic_error
__ehhandler$??0length_error@std@@QAE@ABV01@@Z:
	mov	edx, DWORD PTR [esp+8]
	lea	eax, DWORD PTR [edx+12]
	mov	ecx, DWORD PTR [edx-8]
	xor	ecx, eax
	call	@__security_check_cookie@4
	mov	eax, OFFSET __ehfuncinfo$??0length_error@std@@QAE@ABV01@@Z
	jmp	___CxxFrameHandler3
text$x	ENDS
??0length_error@std@@QAE@ABV01@@Z ENDP			; std::length_error::length_error
PUBLIC	??0?$_Iterator_with_base@Ubidirectional_iterator_tag@std@@U?$pair@$$CBIPAVHardwareBufferPool@Ogre@@@2@HPBU32@ABU32@V_Iterator_base_aux@2@@std@@QAE@XZ ; std::_Iterator_with_base<std::bidirectional_iterator_tag,std::pair<unsigned int const ,Ogre::HardwareBufferPool *>,int,std::pair<unsigned int const ,Ogre::HardwareBufferPool *> const *,std::pair<unsigned int const ,Ogre::HardwareBufferPool *> const &,std::_Iterator_base_aux>::_Iterator_with_base<std::bidirectional_iterator_tag,std::pair<unsigned int const ,Ogre::HardwareBufferPool *>,int,std::pair<unsigned int const ,Ogre::HardwareBufferPool *> const *,std::pair<unsigned int const ,Ogre::HardwareBufferPool *> const &,std::_Iterator_base_aux>
; Function compile flags: /Odtp
;	COMDAT ??0?$_Bidit@U?$pair@$$CBIPAVHardwareBufferPool@Ogre@@@std@@HPBU12@ABU12@@std@@QAE@XZ
_TEXT	SEGMENT
_this$ = -4						; size = 4
??0?$_Bidit@U?$pair@$$CBIPAVHardwareBufferPool@Ogre@@@std@@HPBU12@ABU12@@std@@QAE@XZ PROC ; std::_Bidit<std::pair<unsigned int const ,Ogre::HardwareBufferPool *>,int,std::pair<unsigned int const ,Ogre::HardwareBufferPool *> const *,std::pair<unsigned int const ,Ogre::HardwareBufferPool *> const &>::_Bidit<std::pair<unsigned int const ,Ogre::HardwareBufferPool *>,int,std::pair<unsigned int const ,Ogre::HardwareBufferPool *> const *,std::pair<unsigned int const ,Ogre::HardwareBufferPool *> const &>, COMDAT
; _this$ = ecx
	push	ebp
	mov	ebp, esp
	push	ecx
	mov	DWORD PTR _this$[ebp], ecx
	mov	ecx, DWORD PTR _this$[ebp]
	call	??0?$_Iterator_with_base@Ubidirectional_iterator_tag@std@@U?$pair@$$CBIPAVHardwareBufferPool@Ogre@@@2@HPBU32@ABU32@V_Iterator_base_aux@2@@std@@QAE@XZ
	mov	eax, DWORD PTR _this$[ebp]
	mov	esp, ebp
	pop	ebp
	ret	0
??0?$_Bidit@U?$pair@$$CBIPAVHardwareBufferPool@Ogre@@@std@@HPBU12@ABU12@@std@@QAE@XZ ENDP ; std::_Bidit<std::pair<unsigned int const ,Ogre::HardwareBufferPool *>,int,std::pair<unsigned int const ,Ogre::HardwareBufferPool *> const *,std::pair<unsigned int const ,Ogre::HardwareBufferPool *> const &>::_Bidit<std::pair<unsigned int const ,Ogre::HardwareBufferPool *>,int,std::pair<unsigned int const ,Ogre::HardwareBufferPool *> const *,std::pair<unsigned int const ,Ogre::HardwareBufferPool *> const &>
_TEXT	ENDS
PUBLIC	??0_Iterator_base_aux@std@@QAE@XZ		; std::_Iterator_base_aux::_Iterator_base_aux
; Function compile flags: /Odtp
;	COMDAT ??0?$_Iterator_with_base@Ubidirectional_iterator_tag@std@@U?$pair@$$CBIPAVHardwareBufferPool@Ogre@@@2@HPBU32@ABU32@V_Iterator_base_aux@2@@std@@QAE@XZ
_TEXT	SEGMENT
_this$ = -4						; size = 4
??0?$_Iterator_with_base@Ubidirectional_iterator_tag@std@@U?$pair@$$CBIPAVHardwareBufferPool@Ogre@@@2@HPBU32@ABU32@V_Iterator_base_aux@2@@std@@QAE@XZ PROC ; std::_Iterator_with_base<std::bidirectional_iterator_tag,std::pair<unsigned int const ,Ogre::HardwareBufferPool *>,int,std::pair<unsigned int const ,Ogre::HardwareBufferPool *> const *,std::pair<unsigned int const ,Ogre::HardwareBufferPool *> const &,std::_Iterator_base_aux>::_Iterator_with_base<std::bidirectional_iterator_tag,std::pair<unsigned int const ,Ogre::HardwareBufferPool *>,int,std::pair<unsigned int const ,Ogre::HardwareBufferPool *> const *,std::pair<unsigned int const ,Ogre::HardwareBufferPool *> const &,std::_Iterator_base_aux>, COMDAT
; _this$ = ecx
	push	ebp
	mov	ebp, esp
	push	ecx
	mov	DWORD PTR _this$[ebp], ecx
	mov	ecx, DWORD PTR _this$[ebp]
	call	??0_Iterator_base_aux@std@@QAE@XZ	; std::_Iterator_base_aux::_Iterator_base_aux
	mov	eax, DWORD PTR _this$[ebp]
	mov	esp, ebp
	pop	ebp
	ret	0
??0?$_Iterator_with_base@Ubidirectional_iterator_tag@std@@U?$pair@$$CBIPAVHardwareBufferPool@Ogre@@@2@HPBU32@ABU32@V_Iterator_base_aux@2@@std@@QAE@XZ ENDP ; std::_Iterator_with_base<std::bidirectional_iterator_tag,std::pair<unsigned int const ,Ogre::HardwareBufferPool *>,int,std::pair<unsigned int const ,Ogre::HardwareBufferPool *> const *,std::pair<unsigned int const ,Ogre::HardwareBufferPool *> const &,std::_Iterator_base_aux>::_Iterator_with_base<std::bidirectional_iterator_tag,std::pair<unsigned int const ,Ogre::HardwareBufferPool *>,int,std::pair<unsigned int const ,Ogre::HardwareBufferPool *> const *,std::pair<unsigned int const ,Ogre::HardwareBufferPool *> const &,std::_Iterator_base_aux>
; Function compile flags: /Odtp
; File d:\program files (x86)\microsoft visual studio 9.0\vc\include\xutility
_TEXT	ENDS
;	COMDAT ??0_Iterator_base_aux@std@@QAE@XZ
_TEXT	SEGMENT
_this$ = -4						; size = 4
??0_Iterator_base_aux@std@@QAE@XZ PROC			; std::_Iterator_base_aux::_Iterator_base_aux, COMDAT
; _this$ = ecx

; 448  : 	_Iterator_base_aux()

	push	ebp
	mov	ebp, esp
	push	ecx
	mov	DWORD PTR _this$[ebp], ecx
	mov	eax, DWORD PTR _this$[ebp]
	mov	DWORD PTR [eax], 0
	mov	eax, DWORD PTR _this$[ebp]
	mov	esp, ebp
	pop	ebp
	ret	0
??0_Iterator_base_aux@std@@QAE@XZ ENDP			; std::_Iterator_base_aux::_Iterator_base_aux
; Function compile flags: /Odtp
; File d:\program files (x86)\microsoft visual studio 9.0\vc\include\xtree
_TEXT	ENDS
;	COMDAT ?_Color@?$_Tree@V?$_Tmap_traits@IPAVHardwareBufferPool@Ogre@@U?$less@I@std@@V?$allocator@U?$pair@$$CBIPAVHardwareBufferPool@Ogre@@@std@@@4@$0A@@std@@@std@@KAAADPAU_Node@?$_Tree_nod@V?$_Tmap_traits@IPAVHardwareBufferPool@Ogre@@U?$less@I@std@@V?$allocator@U?$pair@$$CBIPAVHardwareBufferPool@Ogre@@@std@@@4@$0A@@std@@@2@@Z
_TEXT	SEGMENT
__Pnode$ = 8						; size = 4
?_Color@?$_Tree@V?$_Tmap_traits@IPAVHardwareBufferPool@Ogre@@U?$less@I@std@@V?$allocator@U?$pair@$$CBIPAVHardwareBufferPool@Ogre@@@std@@@4@$0A@@std@@@std@@KAAADPAU_Node@?$_Tree_nod@V?$_Tmap_traits@IPAVHardwareBufferPool@Ogre@@U?$less@I@std@@V?$allocator@U?$pair@$$CBIPAVHardwareBufferPool@Ogre@@@std@@@4@$0A@@std@@@2@@Z PROC ; std::_Tree<std::_Tmap_traits<unsigned int,Ogre::HardwareBufferPool *,std::less<unsigned int>,std::allocator<std::pair<unsigned int const ,Ogre::HardwareBufferPool *> >,0> >::_Color, COMDAT

; 151  : 		{	// return reference to color in node

	push	ebp
	mov	ebp, esp

; 152  : 		return ((_Charref)(*_Pnode)._Color);

	mov	eax, DWORD PTR __Pnode$[ebp]
	add	eax, 20					; 00000014H

; 153  : 		}

	pop	ebp
	ret	0
?_Color@?$_Tree@V?$_Tmap_traits@IPAVHardwareBufferPool@Ogre@@U?$less@I@std@@V?$allocator@U?$pair@$$CBIPAVHardwareBufferPool@Ogre@@@std@@@4@$0A@@std@@@std@@KAAADPAU_Node@?$_Tree_nod@V?$_Tmap_traits@IPAVHardwareBufferPool@Ogre@@U?$less@I@std@@V?$allocator@U?$pair@$$CBIPAVHardwareBufferPool@Ogre@@@std@@@4@$0A@@std@@@2@@Z ENDP ; std::_Tree<std::_Tmap_traits<unsigned int,Ogre::HardwareBufferPool *,std::less<unsigned int>,std::allocator<std::pair<unsigned int const ,Ogre::HardwareBufferPool *> >,0> >::_Color
_TEXT	ENDS
PUBLIC	?max_size@?$allocator@U?$pair@$$CBIPAVHardwareBufferPool@Ogre@@@std@@@std@@QBEIXZ ; std::allocator<std::pair<unsigned int const ,Ogre::HardwareBufferPool *> >::max_size
; Function compile flags: /Odtp
;	COMDAT ?max_size@?$_Tree@V?$_Tmap_traits@IPAVHardwareBufferPool@Ogre@@U?$less@I@std@@V?$allocator@U?$pair@$$CBIPAVHardwareBufferPool@Ogre@@@std@@@4@$0A@@std@@@std@@QBEIXZ
_TEXT	SEGMENT
_this$ = -4						; size = 4
?max_size@?$_Tree@V?$_Tmap_traits@IPAVHardwareBufferPool@Ogre@@U?$less@I@std@@V?$allocator@U?$pair@$$CBIPAVHardwareBufferPool@Ogre@@@std@@@4@$0A@@std@@@std@@QBEIXZ PROC ; std::_Tree<std::_Tmap_traits<unsigned int,Ogre::HardwareBufferPool *,std::less<unsigned int>,std::allocator<std::pair<unsigned int const ,Ogre::HardwareBufferPool *> >,0> >::max_size, COMDAT
; _this$ = ecx

; 605  : 		{	// return maximum possible length of sequence

	push	ebp
	mov	ebp, esp
	push	ecx
	mov	DWORD PTR _this$[ebp], ecx

; 606  : 		return (this->_Alval.max_size());

	mov	ecx, DWORD PTR _this$[ebp]
	add	ecx, 20					; 00000014H
	call	?max_size@?$allocator@U?$pair@$$CBIPAVHardwareBufferPool@Ogre@@@std@@@std@@QBEIXZ ; std::allocator<std::pair<unsigned int const ,Ogre::HardwareBufferPool *> >::max_size

; 607  : 		}

	mov	esp, ebp
	pop	ebp
	ret	0
?max_size@?$_Tree@V?$_Tmap_traits@IPAVHardwareBufferPool@Ogre@@U?$less@I@std@@V?$allocator@U?$pair@$$CBIPAVHardwareBufferPool@Ogre@@@std@@@4@$0A@@std@@@std@@QBEIXZ ENDP ; std::_Tree<std::_Tmap_traits<unsigned int,Ogre::HardwareBufferPool *,std::less<unsigned int>,std::allocator<std::pair<unsigned int const ,Ogre::HardwareBufferPool *> >,0> >::max_size
; Function compile flags: /Odtp
_TEXT	ENDS
;	COMDAT ?_Erase@?$_Tree@V?$_Tmap_traits@IPAVHardwareBufferPool@Ogre@@U?$less@I@std@@V?$allocator@U?$pair@$$CBIPAVHardwareBufferPool@Ogre@@@std@@@4@$0A@@std@@@std@@IAEXPAU_Node@?$_Tree_nod@V?$_Tmap_traits@IPAVHardwareBufferPool@Ogre@@U?$less@I@std@@V?$allocator@U?$pair@$$CBIPAVHardwareBufferPool@Ogre@@@std@@@4@$0A@@std@@@2@@Z
_TEXT	SEGMENT
_this$ = -8						; size = 4
__Pnode$61256 = -4					; size = 4
__Rootnode$ = 8						; size = 4
?_Erase@?$_Tree@V?$_Tmap_traits@IPAVHardwareBufferPool@Ogre@@U?$less@I@std@@V?$allocator@U?$pair@$$CBIPAVHardwareBufferPool@Ogre@@@std@@@4@$0A@@std@@@std@@IAEXPAU_Node@?$_Tree_nod@V?$_Tmap_traits@IPAVHardwareBufferPool@Ogre@@U?$less@I@std@@V?$allocator@U?$pair@$$CBIPAVHardwareBufferPool@Ogre@@@std@@@4@$0A@@std@@@2@@Z PROC ; std::_Tree<std::_Tmap_traits<unsigned int,Ogre::HardwareBufferPool *,std::less<unsigned int>,std::allocator<std::pair<unsigned int const ,Ogre::HardwareBufferPool *> >,0> >::_Erase, COMDAT
; _this$ = ecx

; 1166 : 		{	// free entire subtree, recursively

	push	ebp
	mov	ebp, esp
	sub	esp, 8
	mov	DWORD PTR _this$[ebp], ecx

; 1167 : 		for (_Nodeptr _Pnode = _Rootnode; !_Isnil(_Pnode); _Rootnode = _Pnode)

	mov	eax, DWORD PTR __Rootnode$[ebp]
	mov	DWORD PTR __Pnode$61256[ebp], eax
	jmp	SHORT $LN3@Erase
$LN2@Erase:
	mov	ecx, DWORD PTR __Pnode$61256[ebp]
	mov	DWORD PTR __Rootnode$[ebp], ecx
$LN3@Erase:
	mov	edx, DWORD PTR __Pnode$61256[ebp]
	push	edx
	call	?_Isnil@?$_Tree@V?$_Tmap_traits@IPAVHardwareBufferPool@Ogre@@U?$less@I@std@@V?$allocator@U?$pair@$$CBIPAVHardwareBufferPool@Ogre@@@std@@@4@$0A@@std@@@std@@KAAADPAU_Node@?$_Tree_nod@V?$_Tmap_traits@IPAVHardwareBufferPool@Ogre@@U?$less@I@std@@V?$allocator@U?$pair@$$CBIPAVHardwareBufferPool@Ogre@@@std@@@4@$0A@@std@@@2@@Z ; std::_Tree<std::_Tmap_traits<unsigned int,Ogre::HardwareBufferPool *,std::less<unsigned int>,std::allocator<std::pair<unsigned int const ,Ogre::HardwareBufferPool *> >,0> >::_Isnil
	add	esp, 4
	movsx	eax, BYTE PTR [eax]
	test	eax, eax
	jne	SHORT $LN4@Erase

; 1168 : 			{	// free subtrees, then node
; 1169 : 			_Erase(_Right(_Pnode));

	mov	ecx, DWORD PTR __Pnode$61256[ebp]
	push	ecx
	call	?_Right@?$_Tree@V?$_Tmap_traits@IPAVHardwareBufferPool@Ogre@@U?$less@I@std@@V?$allocator@U?$pair@$$CBIPAVHardwareBufferPool@Ogre@@@std@@@4@$0A@@std@@@std@@KAAAPAU_Node@?$_Tree_nod@V?$_Tmap_traits@IPAVHardwareBufferPool@Ogre@@U?$less@I@std@@V?$allocator@U?$pair@$$CBIPAVHardwareBufferPool@Ogre@@@std@@@4@$0A@@std@@@2@PAU342@@Z ; std::_Tree<std::_Tmap_traits<unsigned int,Ogre::HardwareBufferPool *,std::less<unsigned int>,std::allocator<std::pair<unsigned int const ,Ogre::HardwareBufferPool *> >,0> >::_Right
	add	esp, 4
	mov	edx, DWORD PTR [eax]
	push	edx
	mov	ecx, DWORD PTR _this$[ebp]
	call	?_Erase@?$_Tree@V?$_Tmap_traits@IPAVHardwareBufferPool@Ogre@@U?$less@I@std@@V?$allocator@U?$pair@$$CBIPAVHardwareBufferPool@Ogre@@@std@@@4@$0A@@std@@@std@@IAEXPAU_Node@?$_Tree_nod@V?$_Tmap_traits@IPAVHardwareBufferPool@Ogre@@U?$less@I@std@@V?$allocator@U?$pair@$$CBIPAVHardwareBufferPool@Ogre@@@std@@@4@$0A@@std@@@2@@Z ; std::_Tree<std::_Tmap_traits<unsigned int,Ogre::HardwareBufferPool *,std::less<unsigned int>,std::allocator<std::pair<unsigned int const ,Ogre::HardwareBufferPool *> >,0> >::_Erase

; 1170 : 			_Pnode = _Left(_Pnode);

	mov	eax, DWORD PTR __Pnode$61256[ebp]
	push	eax
	call	?_Left@?$_Tree@V?$_Tmap_traits@IPAVHardwareBufferPool@Ogre@@U?$less@I@std@@V?$allocator@U?$pair@$$CBIPAVHardwareBufferPool@Ogre@@@std@@@4@$0A@@std@@@std@@KAAAPAU_Node@?$_Tree_nod@V?$_Tmap_traits@IPAVHardwareBufferPool@Ogre@@U?$less@I@std@@V?$allocator@U?$pair@$$CBIPAVHardwareBufferPool@Ogre@@@std@@@4@$0A@@std@@@2@PAU342@@Z ; std::_Tree<std::_Tmap_traits<unsigned int,Ogre::HardwareBufferPool *,std::less<unsigned int>,std::allocator<std::pair<unsigned int const ,Ogre::HardwareBufferPool *> >,0> >::_Left
	add	esp, 4
	mov	ecx, DWORD PTR [eax]
	mov	DWORD PTR __Pnode$61256[ebp], ecx

; 1171 : 			this->_Alnod.destroy(_Rootnode);	// destroy, free erased node

	mov	edx, DWORD PTR __Rootnode$[ebp]
	push	edx
	mov	ecx, DWORD PTR _this$[ebp]
	add	ecx, 12					; 0000000cH
	call	?destroy@?$allocator@U_Node@?$_Tree_nod@V?$_Tmap_traits@IPAVHardwareBufferPool@Ogre@@U?$less@I@std@@V?$allocator@U?$pair@$$CBIPAVHardwareBufferPool@Ogre@@@std@@@4@$0A@@std@@@std@@@std@@QAEXPAU_Node@?$_Tree_nod@V?$_Tmap_traits@IPAVHardwareBufferPool@Ogre@@U?$less@I@std@@V?$allocator@U?$pair@$$CBIPAVHardwareBufferPool@Ogre@@@std@@@4@$0A@@std@@@2@@Z ; std::allocator<std::_Tree_nod<std::_Tmap_traits<unsigned int,Ogre::HardwareBufferPool *,std::less<unsigned int>,std::allocator<std::pair<unsigned int const ,Ogre::HardwareBufferPool *> >,0> >::_Node>::destroy

; 1172 : 			this->_Alnod.deallocate(_Rootnode, 1);

	push	1
	mov	eax, DWORD PTR __Rootnode$[ebp]
	push	eax
	mov	ecx, DWORD PTR _this$[ebp]
	add	ecx, 12					; 0000000cH
	call	?deallocate@?$allocator@U_Node@?$_Tree_nod@V?$_Tmap_traits@IPAVHardwareBufferPool@Ogre@@U?$less@I@std@@V?$allocator@U?$pair@$$CBIPAVHardwareBufferPool@Ogre@@@std@@@4@$0A@@std@@@std@@@std@@QAEXPAU_Node@?$_Tree_nod@V?$_Tmap_traits@IPAVHardwareBufferPool@Ogre@@U?$less@I@std@@V?$allocator@U?$pair@$$CBIPAVHardwareBufferPool@Ogre@@@std@@@4@$0A@@std@@@2@I@Z ; std::allocator<std::_Tree_nod<std::_Tmap_traits<unsigned int,Ogre::HardwareBufferPool *,std::less<unsigned int>,std::allocator<std::pair<unsigned int const ,Ogre::HardwareBufferPool *> >,0> >::_Node>::deallocate

; 1173 : 			}

	jmp	SHORT $LN2@Erase
$LN4@Erase:

; 1174 : 		}

	mov	esp, ebp
	pop	ebp
	ret	4
?_Erase@?$_Tree@V?$_Tmap_traits@IPAVHardwareBufferPool@Ogre@@U?$less@I@std@@V?$allocator@U?$pair@$$CBIPAVHardwareBufferPool@Ogre@@@std@@@4@$0A@@std@@@std@@IAEXPAU_Node@?$_Tree_nod@V?$_Tmap_traits@IPAVHardwareBufferPool@Ogre@@U?$less@I@std@@V?$allocator@U?$pair@$$CBIPAVHardwareBufferPool@Ogre@@@std@@@4@$0A@@std@@@2@@Z ENDP ; std::_Tree<std::_Tmap_traits<unsigned int,Ogre::HardwareBufferPool *,std::less<unsigned int>,std::allocator<std::pair<unsigned int const ,Ogre::HardwareBufferPool *> >,0> >::_Erase
; Function compile flags: /Odtp
_TEXT	ENDS
;	COMDAT ?_Lrotate@?$_Tree@V?$_Tmap_traits@IPAVHardwareBufferPool@Ogre@@U?$less@I@std@@V?$allocator@U?$pair@$$CBIPAVHardwareBufferPool@Ogre@@@std@@@4@$0A@@std@@@std@@IAEXPAU_Node@?$_Tree_nod@V?$_Tmap_traits@IPAVHardwareBufferPool@Ogre@@U?$less@I@std@@V?$allocator@U?$pair@$$CBIPAVHardwareBufferPool@Ogre@@@std@@@4@$0A@@std@@@2@@Z
_TEXT	SEGMENT
_this$ = -8						; size = 4
__Pnode$ = -4						; size = 4
__Wherenode$ = 8					; size = 4
?_Lrotate@?$_Tree@V?$_Tmap_traits@IPAVHardwareBufferPool@Ogre@@U?$less@I@std@@V?$allocator@U?$pair@$$CBIPAVHardwareBufferPool@Ogre@@@std@@@4@$0A@@std@@@std@@IAEXPAU_Node@?$_Tree_nod@V?$_Tmap_traits@IPAVHardwareBufferPool@Ogre@@U?$less@I@std@@V?$allocator@U?$pair@$$CBIPAVHardwareBufferPool@Ogre@@@std@@@4@$0A@@std@@@2@@Z PROC ; std::_Tree<std::_Tmap_traits<unsigned int,Ogre::HardwareBufferPool *,std::less<unsigned int>,std::allocator<std::pair<unsigned int const ,Ogre::HardwareBufferPool *> >,0> >::_Lrotate, COMDAT
; _this$ = ecx

; 1285 : 		{	// promote right node to root of subtree

	push	ebp
	mov	ebp, esp
	sub	esp, 8
	push	esi
	mov	DWORD PTR _this$[ebp], ecx

; 1286 : 		_Nodeptr _Pnode = _Right(_Wherenode);

	mov	eax, DWORD PTR __Wherenode$[ebp]
	push	eax
	call	?_Right@?$_Tree@V?$_Tmap_traits@IPAVHardwareBufferPool@Ogre@@U?$less@I@std@@V?$allocator@U?$pair@$$CBIPAVHardwareBufferPool@Ogre@@@std@@@4@$0A@@std@@@std@@KAAAPAU_Node@?$_Tree_nod@V?$_Tmap_traits@IPAVHardwareBufferPool@Ogre@@U?$less@I@std@@V?$allocator@U?$pair@$$CBIPAVHardwareBufferPool@Ogre@@@std@@@4@$0A@@std@@@2@PAU342@@Z ; std::_Tree<std::_Tmap_traits<unsigned int,Ogre::HardwareBufferPool *,std::less<unsigned int>,std::allocator<std::pair<unsigned int const ,Ogre::HardwareBufferPool *> >,0> >::_Right
	add	esp, 4
	mov	ecx, DWORD PTR [eax]
	mov	DWORD PTR __Pnode$[ebp], ecx

; 1287 : 		_Right(_Wherenode) = _Left(_Pnode);

	mov	edx, DWORD PTR __Pnode$[ebp]
	push	edx
	call	?_Left@?$_Tree@V?$_Tmap_traits@IPAVHardwareBufferPool@Ogre@@U?$less@I@std@@V?$allocator@U?$pair@$$CBIPAVHardwareBufferPool@Ogre@@@std@@@4@$0A@@std@@@std@@KAAAPAU_Node@?$_Tree_nod@V?$_Tmap_traits@IPAVHardwareBufferPool@Ogre@@U?$less@I@std@@V?$allocator@U?$pair@$$CBIPAVHardwareBufferPool@Ogre@@@std@@@4@$0A@@std@@@2@PAU342@@Z ; std::_Tree<std::_Tmap_traits<unsigned int,Ogre::HardwareBufferPool *,std::less<unsigned int>,std::allocator<std::pair<unsigned int const ,Ogre::HardwareBufferPool *> >,0> >::_Left
	add	esp, 4
	mov	esi, eax
	mov	eax, DWORD PTR __Wherenode$[ebp]
	push	eax
	call	?_Right@?$_Tree@V?$_Tmap_traits@IPAVHardwareBufferPool@Ogre@@U?$less@I@std@@V?$allocator@U?$pair@$$CBIPAVHardwareBufferPool@Ogre@@@std@@@4@$0A@@std@@@std@@KAAAPAU_Node@?$_Tree_nod@V?$_Tmap_traits@IPAVHardwareBufferPool@Ogre@@U?$less@I@std@@V?$allocator@U?$pair@$$CBIPAVHardwareBufferPool@Ogre@@@std@@@4@$0A@@std@@@2@PAU342@@Z ; std::_Tree<std::_Tmap_traits<unsigned int,Ogre::HardwareBufferPool *,std::less<unsigned int>,std::allocator<std::pair<unsigned int const ,Ogre::HardwareBufferPool *> >,0> >::_Right
	add	esp, 4
	mov	ecx, DWORD PTR [esi]
	mov	DWORD PTR [eax], ecx

; 1288 : 
; 1289 : 		if (!_Isnil(_Left(_Pnode)))

	mov	edx, DWORD PTR __Pnode$[ebp]
	push	edx
	call	?_Left@?$_Tree@V?$_Tmap_traits@IPAVHardwareBufferPool@Ogre@@U?$less@I@std@@V?$allocator@U?$pair@$$CBIPAVHardwareBufferPool@Ogre@@@std@@@4@$0A@@std@@@std@@KAAAPAU_Node@?$_Tree_nod@V?$_Tmap_traits@IPAVHardwareBufferPool@Ogre@@U?$less@I@std@@V?$allocator@U?$pair@$$CBIPAVHardwareBufferPool@Ogre@@@std@@@4@$0A@@std@@@2@PAU342@@Z ; std::_Tree<std::_Tmap_traits<unsigned int,Ogre::HardwareBufferPool *,std::less<unsigned int>,std::allocator<std::pair<unsigned int const ,Ogre::HardwareBufferPool *> >,0> >::_Left
	add	esp, 4
	mov	eax, DWORD PTR [eax]
	push	eax
	call	?_Isnil@?$_Tree@V?$_Tmap_traits@IPAVHardwareBufferPool@Ogre@@U?$less@I@std@@V?$allocator@U?$pair@$$CBIPAVHardwareBufferPool@Ogre@@@std@@@4@$0A@@std@@@std@@KAAADPAU_Node@?$_Tree_nod@V?$_Tmap_traits@IPAVHardwareBufferPool@Ogre@@U?$less@I@std@@V?$allocator@U?$pair@$$CBIPAVHardwareBufferPool@Ogre@@@std@@@4@$0A@@std@@@2@@Z ; std::_Tree<std::_Tmap_traits<unsigned int,Ogre::HardwareBufferPool *,std::less<unsigned int>,std::allocator<std::pair<unsigned int const ,Ogre::HardwareBufferPool *> >,0> >::_Isnil
	add	esp, 4
	movsx	ecx, BYTE PTR [eax]
	test	ecx, ecx
	jne	SHORT $LN5@Lrotate

; 1290 : 			_Parent(_Left(_Pnode)) = _Wherenode;

	mov	edx, DWORD PTR __Pnode$[ebp]
	push	edx
	call	?_Left@?$_Tree@V?$_Tmap_traits@IPAVHardwareBufferPool@Ogre@@U?$less@I@std@@V?$allocator@U?$pair@$$CBIPAVHardwareBufferPool@Ogre@@@std@@@4@$0A@@std@@@std@@KAAAPAU_Node@?$_Tree_nod@V?$_Tmap_traits@IPAVHardwareBufferPool@Ogre@@U?$less@I@std@@V?$allocator@U?$pair@$$CBIPAVHardwareBufferPool@Ogre@@@std@@@4@$0A@@std@@@2@PAU342@@Z ; std::_Tree<std::_Tmap_traits<unsigned int,Ogre::HardwareBufferPool *,std::less<unsigned int>,std::allocator<std::pair<unsigned int const ,Ogre::HardwareBufferPool *> >,0> >::_Left
	add	esp, 4
	mov	eax, DWORD PTR [eax]
	push	eax
	call	?_Parent@?$_Tree@V?$_Tmap_traits@IPAVHardwareBufferPool@Ogre@@U?$less@I@std@@V?$allocator@U?$pair@$$CBIPAVHardwareBufferPool@Ogre@@@std@@@4@$0A@@std@@@std@@KAAAPAU_Node@?$_Tree_nod@V?$_Tmap_traits@IPAVHardwareBufferPool@Ogre@@U?$less@I@std@@V?$allocator@U?$pair@$$CBIPAVHardwareBufferPool@Ogre@@@std@@@4@$0A@@std@@@2@PAU342@@Z ; std::_Tree<std::_Tmap_traits<unsigned int,Ogre::HardwareBufferPool *,std::less<unsigned int>,std::allocator<std::pair<unsigned int const ,Ogre::HardwareBufferPool *> >,0> >::_Parent
	add	esp, 4
	mov	ecx, DWORD PTR __Wherenode$[ebp]
	mov	DWORD PTR [eax], ecx
$LN5@Lrotate:

; 1291 : 		_Parent(_Pnode) = _Parent(_Wherenode);

	mov	edx, DWORD PTR __Wherenode$[ebp]
	push	edx
	call	?_Parent@?$_Tree@V?$_Tmap_traits@IPAVHardwareBufferPool@Ogre@@U?$less@I@std@@V?$allocator@U?$pair@$$CBIPAVHardwareBufferPool@Ogre@@@std@@@4@$0A@@std@@@std@@KAAAPAU_Node@?$_Tree_nod@V?$_Tmap_traits@IPAVHardwareBufferPool@Ogre@@U?$less@I@std@@V?$allocator@U?$pair@$$CBIPAVHardwareBufferPool@Ogre@@@std@@@4@$0A@@std@@@2@PAU342@@Z ; std::_Tree<std::_Tmap_traits<unsigned int,Ogre::HardwareBufferPool *,std::less<unsigned int>,std::allocator<std::pair<unsigned int const ,Ogre::HardwareBufferPool *> >,0> >::_Parent
	add	esp, 4
	mov	esi, eax
	mov	eax, DWORD PTR __Pnode$[ebp]
	push	eax
	call	?_Parent@?$_Tree@V?$_Tmap_traits@IPAVHardwareBufferPool@Ogre@@U?$less@I@std@@V?$allocator@U?$pair@$$CBIPAVHardwareBufferPool@Ogre@@@std@@@4@$0A@@std@@@std@@KAAAPAU_Node@?$_Tree_nod@V?$_Tmap_traits@IPAVHardwareBufferPool@Ogre@@U?$less@I@std@@V?$allocator@U?$pair@$$CBIPAVHardwareBufferPool@Ogre@@@std@@@4@$0A@@std@@@2@PAU342@@Z ; std::_Tree<std::_Tmap_traits<unsigned int,Ogre::HardwareBufferPool *,std::less<unsigned int>,std::allocator<std::pair<unsigned int const ,Ogre::HardwareBufferPool *> >,0> >::_Parent
	add	esp, 4
	mov	ecx, DWORD PTR [esi]
	mov	DWORD PTR [eax], ecx

; 1292 : 
; 1293 : 		if (_Wherenode == _Root())

	mov	ecx, DWORD PTR _this$[ebp]
	call	?_Root@?$_Tree@V?$_Tmap_traits@IPAVHardwareBufferPool@Ogre@@U?$less@I@std@@V?$allocator@U?$pair@$$CBIPAVHardwareBufferPool@Ogre@@@std@@@4@$0A@@std@@@std@@IBEAAPAU_Node@?$_Tree_nod@V?$_Tmap_traits@IPAVHardwareBufferPool@Ogre@@U?$less@I@std@@V?$allocator@U?$pair@$$CBIPAVHardwareBufferPool@Ogre@@@std@@@4@$0A@@std@@@2@XZ ; std::_Tree<std::_Tmap_traits<unsigned int,Ogre::HardwareBufferPool *,std::less<unsigned int>,std::allocator<std::pair<unsigned int const ,Ogre::HardwareBufferPool *> >,0> >::_Root
	mov	edx, DWORD PTR __Wherenode$[ebp]
	cmp	edx, DWORD PTR [eax]
	jne	SHORT $LN4@Lrotate

; 1294 : 			_Root() = _Pnode;

	mov	ecx, DWORD PTR _this$[ebp]
	call	?_Root@?$_Tree@V?$_Tmap_traits@IPAVHardwareBufferPool@Ogre@@U?$less@I@std@@V?$allocator@U?$pair@$$CBIPAVHardwareBufferPool@Ogre@@@std@@@4@$0A@@std@@@std@@IBEAAPAU_Node@?$_Tree_nod@V?$_Tmap_traits@IPAVHardwareBufferPool@Ogre@@U?$less@I@std@@V?$allocator@U?$pair@$$CBIPAVHardwareBufferPool@Ogre@@@std@@@4@$0A@@std@@@2@XZ ; std::_Tree<std::_Tmap_traits<unsigned int,Ogre::HardwareBufferPool *,std::less<unsigned int>,std::allocator<std::pair<unsigned int const ,Ogre::HardwareBufferPool *> >,0> >::_Root
	mov	ecx, DWORD PTR __Pnode$[ebp]
	mov	DWORD PTR [eax], ecx
	jmp	SHORT $LN3@Lrotate
$LN4@Lrotate:

; 1295 : 		else if (_Wherenode == _Left(_Parent(_Wherenode)))

	mov	edx, DWORD PTR __Wherenode$[ebp]
	push	edx
	call	?_Parent@?$_Tree@V?$_Tmap_traits@IPAVHardwareBufferPool@Ogre@@U?$less@I@std@@V?$allocator@U?$pair@$$CBIPAVHardwareBufferPool@Ogre@@@std@@@4@$0A@@std@@@std@@KAAAPAU_Node@?$_Tree_nod@V?$_Tmap_traits@IPAVHardwareBufferPool@Ogre@@U?$less@I@std@@V?$allocator@U?$pair@$$CBIPAVHardwareBufferPool@Ogre@@@std@@@4@$0A@@std@@@2@PAU342@@Z ; std::_Tree<std::_Tmap_traits<unsigned int,Ogre::HardwareBufferPool *,std::less<unsigned int>,std::allocator<std::pair<unsigned int const ,Ogre::HardwareBufferPool *> >,0> >::_Parent
	add	esp, 4
	mov	eax, DWORD PTR [eax]
	push	eax
	call	?_Left@?$_Tree@V?$_Tmap_traits@IPAVHardwareBufferPool@Ogre@@U?$less@I@std@@V?$allocator@U?$pair@$$CBIPAVHardwareBufferPool@Ogre@@@std@@@4@$0A@@std@@@std@@KAAAPAU_Node@?$_Tree_nod@V?$_Tmap_traits@IPAVHardwareBufferPool@Ogre@@U?$less@I@std@@V?$allocator@U?$pair@$$CBIPAVHardwareBufferPool@Ogre@@@std@@@4@$0A@@std@@@2@PAU342@@Z ; std::_Tree<std::_Tmap_traits<unsigned int,Ogre::HardwareBufferPool *,std::less<unsigned int>,std::allocator<std::pair<unsigned int const ,Ogre::HardwareBufferPool *> >,0> >::_Left
	add	esp, 4
	mov	ecx, DWORD PTR __Wherenode$[ebp]
	cmp	ecx, DWORD PTR [eax]
	jne	SHORT $LN2@Lrotate

; 1296 : 			_Left(_Parent(_Wherenode)) = _Pnode;

	mov	edx, DWORD PTR __Wherenode$[ebp]
	push	edx
	call	?_Parent@?$_Tree@V?$_Tmap_traits@IPAVHardwareBufferPool@Ogre@@U?$less@I@std@@V?$allocator@U?$pair@$$CBIPAVHardwareBufferPool@Ogre@@@std@@@4@$0A@@std@@@std@@KAAAPAU_Node@?$_Tree_nod@V?$_Tmap_traits@IPAVHardwareBufferPool@Ogre@@U?$less@I@std@@V?$allocator@U?$pair@$$CBIPAVHardwareBufferPool@Ogre@@@std@@@4@$0A@@std@@@2@PAU342@@Z ; std::_Tree<std::_Tmap_traits<unsigned int,Ogre::HardwareBufferPool *,std::less<unsigned int>,std::allocator<std::pair<unsigned int const ,Ogre::HardwareBufferPool *> >,0> >::_Parent
	add	esp, 4
	mov	eax, DWORD PTR [eax]
	push	eax
	call	?_Left@?$_Tree@V?$_Tmap_traits@IPAVHardwareBufferPool@Ogre@@U?$less@I@std@@V?$allocator@U?$pair@$$CBIPAVHardwareBufferPool@Ogre@@@std@@@4@$0A@@std@@@std@@KAAAPAU_Node@?$_Tree_nod@V?$_Tmap_traits@IPAVHardwareBufferPool@Ogre@@U?$less@I@std@@V?$allocator@U?$pair@$$CBIPAVHardwareBufferPool@Ogre@@@std@@@4@$0A@@std@@@2@PAU342@@Z ; std::_Tree<std::_Tmap_traits<unsigned int,Ogre::HardwareBufferPool *,std::less<unsigned int>,std::allocator<std::pair<unsigned int const ,Ogre::HardwareBufferPool *> >,0> >::_Left
	add	esp, 4
	mov	ecx, DWORD PTR __Pnode$[ebp]
	mov	DWORD PTR [eax], ecx

; 1297 : 		else

	jmp	SHORT $LN3@Lrotate
$LN2@Lrotate:

; 1298 : 			_Right(_Parent(_Wherenode)) = _Pnode;

	mov	edx, DWORD PTR __Wherenode$[ebp]
	push	edx
	call	?_Parent@?$_Tree@V?$_Tmap_traits@IPAVHardwareBufferPool@Ogre@@U?$less@I@std@@V?$allocator@U?$pair@$$CBIPAVHardwareBufferPool@Ogre@@@std@@@4@$0A@@std@@@std@@KAAAPAU_Node@?$_Tree_nod@V?$_Tmap_traits@IPAVHardwareBufferPool@Ogre@@U?$less@I@std@@V?$allocator@U?$pair@$$CBIPAVHardwareBufferPool@Ogre@@@std@@@4@$0A@@std@@@2@PAU342@@Z ; std::_Tree<std::_Tmap_traits<unsigned int,Ogre::HardwareBufferPool *,std::less<unsigned int>,std::allocator<std::pair<unsigned int const ,Ogre::HardwareBufferPool *> >,0> >::_Parent
	add	esp, 4
	mov	eax, DWORD PTR [eax]
	push	eax
	call	?_Right@?$_Tree@V?$_Tmap_traits@IPAVHardwareBufferPool@Ogre@@U?$less@I@std@@V?$allocator@U?$pair@$$CBIPAVHardwareBufferPool@Ogre@@@std@@@4@$0A@@std@@@std@@KAAAPAU_Node@?$_Tree_nod@V?$_Tmap_traits@IPAVHardwareBufferPool@Ogre@@U?$less@I@std@@V?$allocator@U?$pair@$$CBIPAVHardwareBufferPool@Ogre@@@std@@@4@$0A@@std@@@2@PAU342@@Z ; std::_Tree<std::_Tmap_traits<unsigned int,Ogre::HardwareBufferPool *,std::less<unsigned int>,std::allocator<std::pair<unsigned int const ,Ogre::HardwareBufferPool *> >,0> >::_Right
	add	esp, 4
	mov	ecx, DWORD PTR __Pnode$[ebp]
	mov	DWORD PTR [eax], ecx
$LN3@Lrotate:

; 1299 : 
; 1300 : 		_Left(_Pnode) = _Wherenode;

	mov	edx, DWORD PTR __Pnode$[ebp]
	push	edx
	call	?_Left@?$_Tree@V?$_Tmap_traits@IPAVHardwareBufferPool@Ogre@@U?$less@I@std@@V?$allocator@U?$pair@$$CBIPAVHardwareBufferPool@Ogre@@@std@@@4@$0A@@std@@@std@@KAAAPAU_Node@?$_Tree_nod@V?$_Tmap_traits@IPAVHardwareBufferPool@Ogre@@U?$less@I@std@@V?$allocator@U?$pair@$$CBIPAVHardwareBufferPool@Ogre@@@std@@@4@$0A@@std@@@2@PAU342@@Z ; std::_Tree<std::_Tmap_traits<unsigned int,Ogre::HardwareBufferPool *,std::less<unsigned int>,std::allocator<std::pair<unsigned int const ,Ogre::HardwareBufferPool *> >,0> >::_Left
	add	esp, 4
	mov	ecx, DWORD PTR __Wherenode$[ebp]
	mov	DWORD PTR [eax], ecx

; 1301 : 		_Parent(_Wherenode) = _Pnode;

	mov	edx, DWORD PTR __Wherenode$[ebp]
	push	edx
	call	?_Parent@?$_Tree@V?$_Tmap_traits@IPAVHardwareBufferPool@Ogre@@U?$less@I@std@@V?$allocator@U?$pair@$$CBIPAVHardwareBufferPool@Ogre@@@std@@@4@$0A@@std@@@std@@KAAAPAU_Node@?$_Tree_nod@V?$_Tmap_traits@IPAVHardwareBufferPool@Ogre@@U?$less@I@std@@V?$allocator@U?$pair@$$CBIPAVHardwareBufferPool@Ogre@@@std@@@4@$0A@@std@@@2@PAU342@@Z ; std::_Tree<std::_Tmap_traits<unsigned int,Ogre::HardwareBufferPool *,std::less<unsigned int>,std::allocator<std::pair<unsigned int const ,Ogre::HardwareBufferPool *> >,0> >::_Parent
	add	esp, 4
	mov	ecx, DWORD PTR __Pnode$[ebp]
	mov	DWORD PTR [eax], ecx

; 1302 : 		}

	pop	esi
	mov	esp, ebp
	pop	ebp
	ret	4
?_Lrotate@?$_Tree@V?$_Tmap_traits@IPAVHardwareBufferPool@Ogre@@U?$less@I@std@@V?$allocator@U?$pair@$$CBIPAVHardwareBufferPool@Ogre@@@std@@@4@$0A@@std@@@std@@IAEXPAU_Node@?$_Tree_nod@V?$_Tmap_traits@IPAVHardwareBufferPool@Ogre@@U?$less@I@std@@V?$allocator@U?$pair@$$CBIPAVHardwareBufferPool@Ogre@@@std@@@4@$0A@@std@@@2@@Z ENDP ; std::_Tree<std::_Tmap_traits<unsigned int,Ogre::HardwareBufferPool *,std::less<unsigned int>,std::allocator<std::pair<unsigned int const ,Ogre::HardwareBufferPool *> >,0> >::_Lrotate
; Function compile flags: /Odtp
_TEXT	ENDS
;	COMDAT ?_Rrotate@?$_Tree@V?$_Tmap_traits@IPAVHardwareBufferPool@Ogre@@U?$less@I@std@@V?$allocator@U?$pair@$$CBIPAVHardwareBufferPool@Ogre@@@std@@@4@$0A@@std@@@std@@IAEXPAU_Node@?$_Tree_nod@V?$_Tmap_traits@IPAVHardwareBufferPool@Ogre@@U?$less@I@std@@V?$allocator@U?$pair@$$CBIPAVHardwareBufferPool@Ogre@@@std@@@4@$0A@@std@@@2@@Z
_TEXT	SEGMENT
_this$ = -8						; size = 4
__Pnode$ = -4						; size = 4
__Wherenode$ = 8					; size = 4
?_Rrotate@?$_Tree@V?$_Tmap_traits@IPAVHardwareBufferPool@Ogre@@U?$less@I@std@@V?$allocator@U?$pair@$$CBIPAVHardwareBufferPool@Ogre@@@std@@@4@$0A@@std@@@std@@IAEXPAU_Node@?$_Tree_nod@V?$_Tmap_traits@IPAVHardwareBufferPool@Ogre@@U?$less@I@std@@V?$allocator@U?$pair@$$CBIPAVHardwareBufferPool@Ogre@@@std@@@4@$0A@@std@@@2@@Z PROC ; std::_Tree<std::_Tmap_traits<unsigned int,Ogre::HardwareBufferPool *,std::less<unsigned int>,std::allocator<std::pair<unsigned int const ,Ogre::HardwareBufferPool *> >,0> >::_Rrotate, COMDAT
; _this$ = ecx

; 1329 : 		{	// promote left node to root of subtree

	push	ebp
	mov	ebp, esp
	sub	esp, 8
	push	esi
	mov	DWORD PTR _this$[ebp], ecx

; 1330 : 		_Nodeptr _Pnode = _Left(_Wherenode);

	mov	eax, DWORD PTR __Wherenode$[ebp]
	push	eax
	call	?_Left@?$_Tree@V?$_Tmap_traits@IPAVHardwareBufferPool@Ogre@@U?$less@I@std@@V?$allocator@U?$pair@$$CBIPAVHardwareBufferPool@Ogre@@@std@@@4@$0A@@std@@@std@@KAAAPAU_Node@?$_Tree_nod@V?$_Tmap_traits@IPAVHardwareBufferPool@Ogre@@U?$less@I@std@@V?$allocator@U?$pair@$$CBIPAVHardwareBufferPool@Ogre@@@std@@@4@$0A@@std@@@2@PAU342@@Z ; std::_Tree<std::_Tmap_traits<unsigned int,Ogre::HardwareBufferPool *,std::less<unsigned int>,std::allocator<std::pair<unsigned int const ,Ogre::HardwareBufferPool *> >,0> >::_Left
	add	esp, 4
	mov	ecx, DWORD PTR [eax]
	mov	DWORD PTR __Pnode$[ebp], ecx

; 1331 : 		_Left(_Wherenode) = _Right(_Pnode);

	mov	edx, DWORD PTR __Pnode$[ebp]
	push	edx
	call	?_Right@?$_Tree@V?$_Tmap_traits@IPAVHardwareBufferPool@Ogre@@U?$less@I@std@@V?$allocator@U?$pair@$$CBIPAVHardwareBufferPool@Ogre@@@std@@@4@$0A@@std@@@std@@KAAAPAU_Node@?$_Tree_nod@V?$_Tmap_traits@IPAVHardwareBufferPool@Ogre@@U?$less@I@std@@V?$allocator@U?$pair@$$CBIPAVHardwareBufferPool@Ogre@@@std@@@4@$0A@@std@@@2@PAU342@@Z ; std::_Tree<std::_Tmap_traits<unsigned int,Ogre::HardwareBufferPool *,std::less<unsigned int>,std::allocator<std::pair<unsigned int const ,Ogre::HardwareBufferPool *> >,0> >::_Right
	add	esp, 4
	mov	esi, eax
	mov	eax, DWORD PTR __Wherenode$[ebp]
	push	eax
	call	?_Left@?$_Tree@V?$_Tmap_traits@IPAVHardwareBufferPool@Ogre@@U?$less@I@std@@V?$allocator@U?$pair@$$CBIPAVHardwareBufferPool@Ogre@@@std@@@4@$0A@@std@@@std@@KAAAPAU_Node@?$_Tree_nod@V?$_Tmap_traits@IPAVHardwareBufferPool@Ogre@@U?$less@I@std@@V?$allocator@U?$pair@$$CBIPAVHardwareBufferPool@Ogre@@@std@@@4@$0A@@std@@@2@PAU342@@Z ; std::_Tree<std::_Tmap_traits<unsigned int,Ogre::HardwareBufferPool *,std::less<unsigned int>,std::allocator<std::pair<unsigned int const ,Ogre::HardwareBufferPool *> >,0> >::_Left
	add	esp, 4
	mov	ecx, DWORD PTR [esi]
	mov	DWORD PTR [eax], ecx

; 1332 : 
; 1333 : 		if (!_Isnil(_Right(_Pnode)))

	mov	edx, DWORD PTR __Pnode$[ebp]
	push	edx
	call	?_Right@?$_Tree@V?$_Tmap_traits@IPAVHardwareBufferPool@Ogre@@U?$less@I@std@@V?$allocator@U?$pair@$$CBIPAVHardwareBufferPool@Ogre@@@std@@@4@$0A@@std@@@std@@KAAAPAU_Node@?$_Tree_nod@V?$_Tmap_traits@IPAVHardwareBufferPool@Ogre@@U?$less@I@std@@V?$allocator@U?$pair@$$CBIPAVHardwareBufferPool@Ogre@@@std@@@4@$0A@@std@@@2@PAU342@@Z ; std::_Tree<std::_Tmap_traits<unsigned int,Ogre::HardwareBufferPool *,std::less<unsigned int>,std::allocator<std::pair<unsigned int const ,Ogre::HardwareBufferPool *> >,0> >::_Right
	add	esp, 4
	mov	eax, DWORD PTR [eax]
	push	eax
	call	?_Isnil@?$_Tree@V?$_Tmap_traits@IPAVHardwareBufferPool@Ogre@@U?$less@I@std@@V?$allocator@U?$pair@$$CBIPAVHardwareBufferPool@Ogre@@@std@@@4@$0A@@std@@@std@@KAAADPAU_Node@?$_Tree_nod@V?$_Tmap_traits@IPAVHardwareBufferPool@Ogre@@U?$less@I@std@@V?$allocator@U?$pair@$$CBIPAVHardwareBufferPool@Ogre@@@std@@@4@$0A@@std@@@2@@Z ; std::_Tree<std::_Tmap_traits<unsigned int,Ogre::HardwareBufferPool *,std::less<unsigned int>,std::allocator<std::pair<unsigned int const ,Ogre::HardwareBufferPool *> >,0> >::_Isnil
	add	esp, 4
	movsx	ecx, BYTE PTR [eax]
	test	ecx, ecx
	jne	SHORT $LN5@Rrotate

; 1334 : 			_Parent(_Right(_Pnode)) = _Wherenode;

	mov	edx, DWORD PTR __Pnode$[ebp]
	push	edx
	call	?_Right@?$_Tree@V?$_Tmap_traits@IPAVHardwareBufferPool@Ogre@@U?$less@I@std@@V?$allocator@U?$pair@$$CBIPAVHardwareBufferPool@Ogre@@@std@@@4@$0A@@std@@@std@@KAAAPAU_Node@?$_Tree_nod@V?$_Tmap_traits@IPAVHardwareBufferPool@Ogre@@U?$less@I@std@@V?$allocator@U?$pair@$$CBIPAVHardwareBufferPool@Ogre@@@std@@@4@$0A@@std@@@2@PAU342@@Z ; std::_Tree<std::_Tmap_traits<unsigned int,Ogre::HardwareBufferPool *,std::less<unsigned int>,std::allocator<std::pair<unsigned int const ,Ogre::HardwareBufferPool *> >,0> >::_Right
	add	esp, 4
	mov	eax, DWORD PTR [eax]
	push	eax
	call	?_Parent@?$_Tree@V?$_Tmap_traits@IPAVHardwareBufferPool@Ogre@@U?$less@I@std@@V?$allocator@U?$pair@$$CBIPAVHardwareBufferPool@Ogre@@@std@@@4@$0A@@std@@@std@@KAAAPAU_Node@?$_Tree_nod@V?$_Tmap_traits@IPAVHardwareBufferPool@Ogre@@U?$less@I@std@@V?$allocator@U?$pair@$$CBIPAVHardwareBufferPool@Ogre@@@std@@@4@$0A@@std@@@2@PAU342@@Z ; std::_Tree<std::_Tmap_traits<unsigned int,Ogre::HardwareBufferPool *,std::less<unsigned int>,std::allocator<std::pair<unsigned int const ,Ogre::HardwareBufferPool *> >,0> >::_Parent
	add	esp, 4
	mov	ecx, DWORD PTR __Wherenode$[ebp]
	mov	DWORD PTR [eax], ecx
$LN5@Rrotate:

; 1335 : 		_Parent(_Pnode) = _Parent(_Wherenode);

	mov	edx, DWORD PTR __Wherenode$[ebp]
	push	edx
	call	?_Parent@?$_Tree@V?$_Tmap_traits@IPAVHardwareBufferPool@Ogre@@U?$less@I@std@@V?$allocator@U?$pair@$$CBIPAVHardwareBufferPool@Ogre@@@std@@@4@$0A@@std@@@std@@KAAAPAU_Node@?$_Tree_nod@V?$_Tmap_traits@IPAVHardwareBufferPool@Ogre@@U?$less@I@std@@V?$allocator@U?$pair@$$CBIPAVHardwareBufferPool@Ogre@@@std@@@4@$0A@@std@@@2@PAU342@@Z ; std::_Tree<std::_Tmap_traits<unsigned int,Ogre::HardwareBufferPool *,std::less<unsigned int>,std::allocator<std::pair<unsigned int const ,Ogre::HardwareBufferPool *> >,0> >::_Parent
	add	esp, 4
	mov	esi, eax
	mov	eax, DWORD PTR __Pnode$[ebp]
	push	eax
	call	?_Parent@?$_Tree@V?$_Tmap_traits@IPAVHardwareBufferPool@Ogre@@U?$less@I@std@@V?$allocator@U?$pair@$$CBIPAVHardwareBufferPool@Ogre@@@std@@@4@$0A@@std@@@std@@KAAAPAU_Node@?$_Tree_nod@V?$_Tmap_traits@IPAVHardwareBufferPool@Ogre@@U?$less@I@std@@V?$allocator@U?$pair@$$CBIPAVHardwareBufferPool@Ogre@@@std@@@4@$0A@@std@@@2@PAU342@@Z ; std::_Tree<std::_Tmap_traits<unsigned int,Ogre::HardwareBufferPool *,std::less<unsigned int>,std::allocator<std::pair<unsigned int const ,Ogre::HardwareBufferPool *> >,0> >::_Parent
	add	esp, 4
	mov	ecx, DWORD PTR [esi]
	mov	DWORD PTR [eax], ecx

; 1336 : 
; 1337 : 		if (_Wherenode == _Root())

	mov	ecx, DWORD PTR _this$[ebp]
	call	?_Root@?$_Tree@V?$_Tmap_traits@IPAVHardwareBufferPool@Ogre@@U?$less@I@std@@V?$allocator@U?$pair@$$CBIPAVHardwareBufferPool@Ogre@@@std@@@4@$0A@@std@@@std@@IBEAAPAU_Node@?$_Tree_nod@V?$_Tmap_traits@IPAVHardwareBufferPool@Ogre@@U?$less@I@std@@V?$allocator@U?$pair@$$CBIPAVHardwareBufferPool@Ogre@@@std@@@4@$0A@@std@@@2@XZ ; std::_Tree<std::_Tmap_traits<unsigned int,Ogre::HardwareBufferPool *,std::less<unsigned int>,std::allocator<std::pair<unsigned int const ,Ogre::HardwareBufferPool *> >,0> >::_Root
	mov	edx, DWORD PTR __Wherenode$[ebp]
	cmp	edx, DWORD PTR [eax]
	jne	SHORT $LN4@Rrotate

; 1338 : 			_Root() = _Pnode;

	mov	ecx, DWORD PTR _this$[ebp]
	call	?_Root@?$_Tree@V?$_Tmap_traits@IPAVHardwareBufferPool@Ogre@@U?$less@I@std@@V?$allocator@U?$pair@$$CBIPAVHardwareBufferPool@Ogre@@@std@@@4@$0A@@std@@@std@@IBEAAPAU_Node@?$_Tree_nod@V?$_Tmap_traits@IPAVHardwareBufferPool@Ogre@@U?$less@I@std@@V?$allocator@U?$pair@$$CBIPAVHardwareBufferPool@Ogre@@@std@@@4@$0A@@std@@@2@XZ ; std::_Tree<std::_Tmap_traits<unsigned int,Ogre::HardwareBufferPool *,std::less<unsigned int>,std::allocator<std::pair<unsigned int const ,Ogre::HardwareBufferPool *> >,0> >::_Root
	mov	ecx, DWORD PTR __Pnode$[ebp]
	mov	DWORD PTR [eax], ecx
	jmp	SHORT $LN3@Rrotate
$LN4@Rrotate:

; 1339 : 		else if (_Wherenode == _Right(_Parent(_Wherenode)))

	mov	edx, DWORD PTR __Wherenode$[ebp]
	push	edx
	call	?_Parent@?$_Tree@V?$_Tmap_traits@IPAVHardwareBufferPool@Ogre@@U?$less@I@std@@V?$allocator@U?$pair@$$CBIPAVHardwareBufferPool@Ogre@@@std@@@4@$0A@@std@@@std@@KAAAPAU_Node@?$_Tree_nod@V?$_Tmap_traits@IPAVHardwareBufferPool@Ogre@@U?$less@I@std@@V?$allocator@U?$pair@$$CBIPAVHardwareBufferPool@Ogre@@@std@@@4@$0A@@std@@@2@PAU342@@Z ; std::_Tree<std::_Tmap_traits<unsigned int,Ogre::HardwareBufferPool *,std::less<unsigned int>,std::allocator<std::pair<unsigned int const ,Ogre::HardwareBufferPool *> >,0> >::_Parent
	add	esp, 4
	mov	eax, DWORD PTR [eax]
	push	eax
	call	?_Right@?$_Tree@V?$_Tmap_traits@IPAVHardwareBufferPool@Ogre@@U?$less@I@std@@V?$allocator@U?$pair@$$CBIPAVHardwareBufferPool@Ogre@@@std@@@4@$0A@@std@@@std@@KAAAPAU_Node@?$_Tree_nod@V?$_Tmap_traits@IPAVHardwareBufferPool@Ogre@@U?$less@I@std@@V?$allocator@U?$pair@$$CBIPAVHardwareBufferPool@Ogre@@@std@@@4@$0A@@std@@@2@PAU342@@Z ; std::_Tree<std::_Tmap_traits<unsigned int,Ogre::HardwareBufferPool *,std::less<unsigned int>,std::allocator<std::pair<unsigned int const ,Ogre::HardwareBufferPool *> >,0> >::_Right
	add	esp, 4
	mov	ecx, DWORD PTR __Wherenode$[ebp]
	cmp	ecx, DWORD PTR [eax]
	jne	SHORT $LN2@Rrotate

; 1340 : 			_Right(_Parent(_Wherenode)) = _Pnode;

	mov	edx, DWORD PTR __Wherenode$[ebp]
	push	edx
	call	?_Parent@?$_Tree@V?$_Tmap_traits@IPAVHardwareBufferPool@Ogre@@U?$less@I@std@@V?$allocator@U?$pair@$$CBIPAVHardwareBufferPool@Ogre@@@std@@@4@$0A@@std@@@std@@KAAAPAU_Node@?$_Tree_nod@V?$_Tmap_traits@IPAVHardwareBufferPool@Ogre@@U?$less@I@std@@V?$allocator@U?$pair@$$CBIPAVHardwareBufferPool@Ogre@@@std@@@4@$0A@@std@@@2@PAU342@@Z ; std::_Tree<std::_Tmap_traits<unsigned int,Ogre::HardwareBufferPool *,std::less<unsigned int>,std::allocator<std::pair<unsigned int const ,Ogre::HardwareBufferPool *> >,0> >::_Parent
	add	esp, 4
	mov	eax, DWORD PTR [eax]
	push	eax
	call	?_Right@?$_Tree@V?$_Tmap_traits@IPAVHardwareBufferPool@Ogre@@U?$less@I@std@@V?$allocator@U?$pair@$$CBIPAVHardwareBufferPool@Ogre@@@std@@@4@$0A@@std@@@std@@KAAAPAU_Node@?$_Tree_nod@V?$_Tmap_traits@IPAVHardwareBufferPool@Ogre@@U?$less@I@std@@V?$allocator@U?$pair@$$CBIPAVHardwareBufferPool@Ogre@@@std@@@4@$0A@@std@@@2@PAU342@@Z ; std::_Tree<std::_Tmap_traits<unsigned int,Ogre::HardwareBufferPool *,std::less<unsigned int>,std::allocator<std::pair<unsigned int const ,Ogre::HardwareBufferPool *> >,0> >::_Right
	add	esp, 4
	mov	ecx, DWORD PTR __Pnode$[ebp]
	mov	DWORD PTR [eax], ecx

; 1341 : 		else

	jmp	SHORT $LN3@Rrotate
$LN2@Rrotate:

; 1342 : 			_Left(_Parent(_Wherenode)) = _Pnode;

	mov	edx, DWORD PTR __Wherenode$[ebp]
	push	edx
	call	?_Parent@?$_Tree@V?$_Tmap_traits@IPAVHardwareBufferPool@Ogre@@U?$less@I@std@@V?$allocator@U?$pair@$$CBIPAVHardwareBufferPool@Ogre@@@std@@@4@$0A@@std@@@std@@KAAAPAU_Node@?$_Tree_nod@V?$_Tmap_traits@IPAVHardwareBufferPool@Ogre@@U?$less@I@std@@V?$allocator@U?$pair@$$CBIPAVHardwareBufferPool@Ogre@@@std@@@4@$0A@@std@@@2@PAU342@@Z ; std::_Tree<std::_Tmap_traits<unsigned int,Ogre::HardwareBufferPool *,std::less<unsigned int>,std::allocator<std::pair<unsigned int const ,Ogre::HardwareBufferPool *> >,0> >::_Parent
	add	esp, 4
	mov	eax, DWORD PTR [eax]
	push	eax
	call	?_Left@?$_Tree@V?$_Tmap_traits@IPAVHardwareBufferPool@Ogre@@U?$less@I@std@@V?$allocator@U?$pair@$$CBIPAVHardwareBufferPool@Ogre@@@std@@@4@$0A@@std@@@std@@KAAAPAU_Node@?$_Tree_nod@V?$_Tmap_traits@IPAVHardwareBufferPool@Ogre@@U?$less@I@std@@V?$allocator@U?$pair@$$CBIPAVHardwareBufferPool@Ogre@@@std@@@4@$0A@@std@@@2@PAU342@@Z ; std::_Tree<std::_Tmap_traits<unsigned int,Ogre::HardwareBufferPool *,std::less<unsigned int>,std::allocator<std::pair<unsigned int const ,Ogre::HardwareBufferPool *> >,0> >::_Left
	add	esp, 4
	mov	ecx, DWORD PTR __Pnode$[ebp]
	mov	DWORD PTR [eax], ecx
$LN3@Rrotate:

; 1343 : 
; 1344 : 		_Right(_Pnode) = _Wherenode;

	mov	edx, DWORD PTR __Pnode$[ebp]
	push	edx
	call	?_Right@?$_Tree@V?$_Tmap_traits@IPAVHardwareBufferPool@Ogre@@U?$less@I@std@@V?$allocator@U?$pair@$$CBIPAVHardwareBufferPool@Ogre@@@std@@@4@$0A@@std@@@std@@KAAAPAU_Node@?$_Tree_nod@V?$_Tmap_traits@IPAVHardwareBufferPool@Ogre@@U?$less@I@std@@V?$allocator@U?$pair@$$CBIPAVHardwareBufferPool@Ogre@@@std@@@4@$0A@@std@@@2@PAU342@@Z ; std::_Tree<std::_Tmap_traits<unsigned int,Ogre::HardwareBufferPool *,std::less<unsigned int>,std::allocator<std::pair<unsigned int const ,Ogre::HardwareBufferPool *> >,0> >::_Right
	add	esp, 4
	mov	ecx, DWORD PTR __Wherenode$[ebp]
	mov	DWORD PTR [eax], ecx

; 1345 : 		_Parent(_Wherenode) = _Pnode;

	mov	edx, DWORD PTR __Wherenode$[ebp]
	push	edx
	call	?_Parent@?$_Tree@V?$_Tmap_traits@IPAVHardwareBufferPool@Ogre@@U?$less@I@std@@V?$allocator@U?$pair@$$CBIPAVHardwareBufferPool@Ogre@@@std@@@4@$0A@@std@@@std@@KAAAPAU_Node@?$_Tree_nod@V?$_Tmap_traits@IPAVHardwareBufferPool@Ogre@@U?$less@I@std@@V?$allocator@U?$pair@$$CBIPAVHardwareBufferPool@Ogre@@@std@@@4@$0A@@std@@@2@PAU342@@Z ; std::_Tree<std::_Tmap_traits<unsigned int,Ogre::HardwareBufferPool *,std::less<unsigned int>,std::allocator<std::pair<unsigned int const ,Ogre::HardwareBufferPool *> >,0> >::_Parent
	add	esp, 4
	mov	ecx, DWORD PTR __Pnode$[ebp]
	mov	DWORD PTR [eax], ecx

; 1346 : 		}

	pop	esi
	mov	esp, ebp
	pop	ebp
	ret	4
?_Rrotate@?$_Tree@V?$_Tmap_traits@IPAVHardwareBufferPool@Ogre@@U?$less@I@std@@V?$allocator@U?$pair@$$CBIPAVHardwareBufferPool@Ogre@@@std@@@4@$0A@@std@@@std@@IAEXPAU_Node@?$_Tree_nod@V?$_Tmap_traits@IPAVHardwareBufferPool@Ogre@@U?$less@I@std@@V?$allocator@U?$pair@$$CBIPAVHardwareBufferPool@Ogre@@@std@@@4@$0A@@std@@@2@@Z ENDP ; std::_Tree<std::_Tmap_traits<unsigned int,Ogre::HardwareBufferPool *,std::less<unsigned int>,std::allocator<std::pair<unsigned int const ,Ogre::HardwareBufferPool *> >,0> >::_Rrotate
_TEXT	ENDS
PUBLIC	??3@YAXPAX0@Z					; operator delete
PUBLIC	??0_Node@?$_Tree_nod@V?$_Tmap_traits@IPAVHardwareBufferPool@Ogre@@U?$less@I@std@@V?$allocator@U?$pair@$$CBIPAVHardwareBufferPool@Ogre@@@std@@@4@$0A@@std@@@std@@QAE@PAU012@00ABU?$pair@$$CBIPAVHardwareBufferPool@Ogre@@@2@D@Z ; std::_Tree_nod<std::_Tmap_traits<unsigned int,Ogre::HardwareBufferPool *,std::less<unsigned int>,std::allocator<std::pair<unsigned int const ,Ogre::HardwareBufferPool *> >,0> >::_Node::_Node
PUBLIC	??2@YAPAXIPAX@Z					; operator new
;	COMDAT xdata$x
xdata$x	SEGMENT
__catchsym$?_Buynode@?$_Tree@V?$_Tmap_traits@IPAVHardwareBufferPool@Ogre@@U?$less@I@std@@V?$allocator@U?$pair@$$CBIPAVHardwareBufferPool@Ogre@@@std@@@4@$0A@@std@@@std@@IAEPAU_Node@?$_Tree_nod@V?$_Tmap_traits@IPAVHardwareBufferPool@Ogre@@U?$less@I@std@@V?$allocator@U?$pair@$$CBIPAVHardwareBufferPool@Ogre@@@std@@@4@$0A@@std@@@2@PAU342@00ABU?$pair@$$CBIPAVHardwareBufferPool@Ogre@@@2@D@Z$3 DD 00H
	DD	00H
	DD	00H
	DD	FLAT:__catch$?_Buynode@?$_Tree@V?$_Tmap_traits@IPAVHardwareBufferPool@Ogre@@U?$less@I@std@@V?$allocator@U?$pair@$$CBIPAVHardwareBufferPool@Ogre@@@std@@@4@$0A@@std@@@std@@IAEPAU_Node@?$_Tree_nod@V?$_Tmap_traits@IPAVHardwareBufferPool@Ogre@@U?$less@I@std@@V?$allocator@U?$pair@$$CBIPAVHardwareBufferPool@Ogre@@@std@@@4@$0A@@std@@@2@PAU342@00ABU?$pair@$$CBIPAVHardwareBufferPool@Ogre@@@2@D@Z$0
__tryblocktable$?_Buynode@?$_Tree@V?$_Tmap_traits@IPAVHardwareBufferPool@Ogre@@U?$less@I@std@@V?$allocator@U?$pair@$$CBIPAVHardwareBufferPool@Ogre@@@std@@@4@$0A@@std@@@std@@IAEPAU_Node@?$_Tree_nod@V?$_Tmap_traits@IPAVHardwareBufferPool@Ogre@@U?$less@I@std@@V?$allocator@U?$pair@$$CBIPAVHardwareBufferPool@Ogre@@@std@@@4@$0A@@std@@@2@PAU342@00ABU?$pair@$$CBIPAVHardwareBufferPool@Ogre@@@2@D@Z DD 00H
	DD	01H
	DD	02H
	DD	01H
	DD	FLAT:__catchsym$?_Buynode@?$_Tree@V?$_Tmap_traits@IPAVHardwareBufferPool@Ogre@@U?$less@I@std@@V?$allocator@U?$pair@$$CBIPAVHardwareBufferPool@Ogre@@@std@@@4@$0A@@std@@@std@@IAEPAU_Node@?$_Tree_nod@V?$_Tmap_traits@IPAVHardwareBufferPool@Ogre@@U?$less@I@std@@V?$allocator@U?$pair@$$CBIPAVHardwareBufferPool@Ogre@@@std@@@4@$0A@@std@@@2@PAU342@00ABU?$pair@$$CBIPAVHardwareBufferPool@Ogre@@@2@D@Z$3
__unwindtable$?_Buynode@?$_Tree@V?$_Tmap_traits@IPAVHardwareBufferPool@Ogre@@U?$less@I@std@@V?$allocator@U?$pair@$$CBIPAVHardwareBufferPool@Ogre@@@std@@@4@$0A@@std@@@std@@IAEPAU_Node@?$_Tree_nod@V?$_Tmap_traits@IPAVHardwareBufferPool@Ogre@@U?$less@I@std@@V?$allocator@U?$pair@$$CBIPAVHardwareBufferPool@Ogre@@@std@@@4@$0A@@std@@@2@PAU342@00ABU?$pair@$$CBIPAVHardwareBufferPool@Ogre@@@2@D@Z DD 0ffffffffH
	DD	00H
	DD	00H
	DD	FLAT:__unwindfunclet$?_Buynode@?$_Tree@V?$_Tmap_traits@IPAVHardwareBufferPool@Ogre@@U?$less@I@std@@V?$allocator@U?$pair@$$CBIPAVHardwareBufferPool@Ogre@@@std@@@4@$0A@@std@@@std@@IAEPAU_Node@?$_Tree_nod@V?$_Tmap_traits@IPAVHardwareBufferPool@Ogre@@U?$less@I@std@@V?$allocator@U?$pair@$$CBIPAVHardwareBufferPool@Ogre@@@std@@@4@$0A@@std@@@2@PAU342@00ABU?$pair@$$CBIPAVHardwareBufferPool@Ogre@@@2@D@Z$2
	DD	0ffffffffH
	DD	00H
__ehfuncinfo$?_Buynode@?$_Tree@V?$_Tmap_traits@IPAVHardwareBufferPool@Ogre@@U?$less@I@std@@V?$allocator@U?$pair@$$CBIPAVHardwareBufferPool@Ogre@@@std@@@4@$0A@@std@@@std@@IAEPAU_Node@?$_Tree_nod@V?$_Tmap_traits@IPAVHardwareBufferPool@Ogre@@U?$less@I@std@@V?$allocator@U?$pair@$$CBIPAVHardwareBufferPool@Ogre@@@std@@@4@$0A@@std@@@2@PAU342@00ABU?$pair@$$CBIPAVHardwareBufferPool@Ogre@@@2@D@Z DD 019930522H
	DD	03H
	DD	FLAT:__unwindtable$?_Buynode@?$_Tree@V?$_Tmap_traits@IPAVHardwareBufferPool@Ogre@@U?$less@I@std@@V?$allocator@U?$pair@$$CBIPAVHardwareBufferPool@Ogre@@@std@@@4@$0A@@std@@@std@@IAEPAU_Node@?$_Tree_nod@V?$_Tmap_traits@IPAVHardwareBufferPool@Ogre@@U?$less@I@std@@V?$allocator@U?$pair@$$CBIPAVHardwareBufferPool@Ogre@@@std@@@4@$0A@@std@@@2@PAU342@00ABU?$pair@$$CBIPAVHardwareBufferPool@Ogre@@@2@D@Z
	DD	01H
	DD	FLAT:__tryblocktable$?_Buynode@?$_Tree@V?$_Tmap_traits@IPAVHardwareBufferPool@Ogre@@U?$less@I@std@@V?$allocator@U?$pair@$$CBIPAVHardwareBufferPool@Ogre@@@std@@@4@$0A@@std@@@std@@IAEPAU_Node@?$_Tree_nod@V?$_Tmap_traits@IPAVHardwareBufferPool@Ogre@@U?$less@I@std@@V?$allocator@U?$pair@$$CBIPAVHardwareBufferPool@Ogre@@@std@@@4@$0A@@std@@@2@PAU342@00ABU?$pair@$$CBIPAVHardwareBufferPool@Ogre@@@2@D@Z
	DD	2 DUP(00H)
	DD	00H
	DD	00H
; Function compile flags: /Odtp
xdata$x	ENDS
;	COMDAT ?_Buynode@?$_Tree@V?$_Tmap_traits@IPAVHardwareBufferPool@Ogre@@U?$less@I@std@@V?$allocator@U?$pair@$$CBIPAVHardwareBufferPool@Ogre@@@std@@@4@$0A@@std@@@std@@IAEPAU_Node@?$_Tree_nod@V?$_Tmap_traits@IPAVHardwareBufferPool@Ogre@@U?$less@I@std@@V?$allocator@U?$pair@$$CBIPAVHardwareBufferPool@Ogre@@@std@@@4@$0A@@std@@@2@PAU342@00ABU?$pair@$$CBIPAVHardwareBufferPool@Ogre@@@2@D@Z
_TEXT	SEGMENT
tv86 = -36						; size = 4
_this$ = -32						; size = 4
$T64495 = -28						; size = 4
$T64494 = -24						; size = 4
__Wherenode$ = -20					; size = 4
__$EHRec$ = -16						; size = 16
__Larg$ = 8						; size = 4
__Parg$ = 12						; size = 4
__Rarg$ = 16						; size = 4
__Val$ = 20						; size = 4
__Carg$ = 24						; size = 1
?_Buynode@?$_Tree@V?$_Tmap_traits@IPAVHardwareBufferPool@Ogre@@U?$less@I@std@@V?$allocator@U?$pair@$$CBIPAVHardwareBufferPool@Ogre@@@std@@@4@$0A@@std@@@std@@IAEPAU_Node@?$_Tree_nod@V?$_Tmap_traits@IPAVHardwareBufferPool@Ogre@@U?$less@I@std@@V?$allocator@U?$pair@$$CBIPAVHardwareBufferPool@Ogre@@@std@@@4@$0A@@std@@@2@PAU342@00ABU?$pair@$$CBIPAVHardwareBufferPool@Ogre@@@2@D@Z PROC ; std::_Tree<std::_Tmap_traits<unsigned int,Ogre::HardwareBufferPool *,std::less<unsigned int>,std::allocator<std::pair<unsigned int const ,Ogre::HardwareBufferPool *> >,0> >::_Buynode, COMDAT
; _this$ = ecx

; 1408 : 		{	// allocate a node with pointers, value, and color

	push	ebp
	mov	ebp, esp
	push	-1
	push	__ehhandler$?_Buynode@?$_Tree@V?$_Tmap_traits@IPAVHardwareBufferPool@Ogre@@U?$less@I@std@@V?$allocator@U?$pair@$$CBIPAVHardwareBufferPool@Ogre@@@std@@@4@$0A@@std@@@std@@IAEPAU_Node@?$_Tree_nod@V?$_Tmap_traits@IPAVHardwareBufferPool@Ogre@@U?$less@I@std@@V?$allocator@U?$pair@$$CBIPAVHardwareBufferPool@Ogre@@@std@@@4@$0A@@std@@@2@PAU342@00ABU?$pair@$$CBIPAVHardwareBufferPool@Ogre@@@2@D@Z
	mov	eax, DWORD PTR fs:0
	push	eax
	push	ecx
	sub	esp, 20					; 00000014H
	push	ebx
	push	esi
	push	edi
	mov	eax, DWORD PTR ___security_cookie
	xor	eax, ebp
	push	eax
	lea	eax, DWORD PTR __$EHRec$[ebp+4]
	mov	DWORD PTR fs:0, eax
	mov	DWORD PTR __$EHRec$[ebp], esp
	mov	DWORD PTR _this$[ebp], ecx

; 1409 : 		_Nodeptr _Wherenode = this->_Alnod.allocate(1);

	push	1
	mov	ecx, DWORD PTR _this$[ebp]
	add	ecx, 12					; 0000000cH
	call	?allocate@?$allocator@U_Node@?$_Tree_nod@V?$_Tmap_traits@IPAVHardwareBufferPool@Ogre@@U?$less@I@std@@V?$allocator@U?$pair@$$CBIPAVHardwareBufferPool@Ogre@@@std@@@4@$0A@@std@@@std@@@std@@QAEPAU_Node@?$_Tree_nod@V?$_Tmap_traits@IPAVHardwareBufferPool@Ogre@@U?$less@I@std@@V?$allocator@U?$pair@$$CBIPAVHardwareBufferPool@Ogre@@@std@@@4@$0A@@std@@@2@I@Z ; std::allocator<std::_Tree_nod<std::_Tmap_traits<unsigned int,Ogre::HardwareBufferPool *,std::less<unsigned int>,std::allocator<std::pair<unsigned int const ,Ogre::HardwareBufferPool *> >,0> >::_Node>::allocate
	mov	DWORD PTR __Wherenode$[ebp], eax

; 1410 : 		_TRY_BEGIN

	mov	DWORD PTR __$EHRec$[ebp+12], 0

; 1411 : 		new (_Wherenode) _Node(_Larg, _Parg, _Rarg, _Val, _Carg);

	mov	eax, DWORD PTR __Wherenode$[ebp]
	push	eax
	push	24					; 00000018H
	call	??2@YAPAXIPAX@Z				; operator new
	add	esp, 8
	mov	DWORD PTR $T64495[ebp], eax
	mov	BYTE PTR __$EHRec$[ebp+12], 1
	cmp	DWORD PTR $T64495[ebp], 0
	je	SHORT $LN4@Buynode@2
	movzx	ecx, BYTE PTR __Carg$[ebp]
	push	ecx
	mov	edx, DWORD PTR __Val$[ebp]
	push	edx
	mov	eax, DWORD PTR __Rarg$[ebp]
	push	eax
	mov	ecx, DWORD PTR __Parg$[ebp]
	push	ecx
	mov	edx, DWORD PTR __Larg$[ebp]
	push	edx
	mov	ecx, DWORD PTR $T64495[ebp]
	call	??0_Node@?$_Tree_nod@V?$_Tmap_traits@IPAVHardwareBufferPool@Ogre@@U?$less@I@std@@V?$allocator@U?$pair@$$CBIPAVHardwareBufferPool@Ogre@@@std@@@4@$0A@@std@@@std@@QAE@PAU012@00ABU?$pair@$$CBIPAVHardwareBufferPool@Ogre@@@2@D@Z ; std::_Tree_nod<std::_Tmap_traits<unsigned int,Ogre::HardwareBufferPool *,std::less<unsigned int>,std::allocator<std::pair<unsigned int const ,Ogre::HardwareBufferPool *> >,0> >::_Node::_Node
	mov	DWORD PTR tv86[ebp], eax
	jmp	SHORT $LN5@Buynode@2
$LN4@Buynode@2:
	mov	DWORD PTR tv86[ebp], 0
$LN5@Buynode@2:
	mov	eax, DWORD PTR tv86[ebp]
	mov	DWORD PTR $T64494[ebp], eax
	mov	BYTE PTR __$EHRec$[ebp+12], 0
	jmp	SHORT $LN6@Buynode@2
__catch$?_Buynode@?$_Tree@V?$_Tmap_traits@IPAVHardwareBufferPool@Ogre@@U?$less@I@std@@V?$allocator@U?$pair@$$CBIPAVHardwareBufferPool@Ogre@@@std@@@4@$0A@@std@@@std@@IAEPAU_Node@?$_Tree_nod@V?$_Tmap_traits@IPAVHardwareBufferPool@Ogre@@U?$less@I@std@@V?$allocator@U?$pair@$$CBIPAVHardwareBufferPool@Ogre@@@std@@@4@$0A@@std@@@2@PAU342@00ABU?$pair@$$CBIPAVHardwareBufferPool@Ogre@@@2@D@Z$0:

; 1412 : 		_CATCH_ALL
; 1413 : 		this->_Alnod.deallocate(_Wherenode, 1);

	push	1
	mov	ecx, DWORD PTR __Wherenode$[ebp]
	push	ecx
	mov	ecx, DWORD PTR _this$[ebp]
	add	ecx, 12					; 0000000cH
	call	?deallocate@?$allocator@U_Node@?$_Tree_nod@V?$_Tmap_traits@IPAVHardwareBufferPool@Ogre@@U?$less@I@std@@V?$allocator@U?$pair@$$CBIPAVHardwareBufferPool@Ogre@@@std@@@4@$0A@@std@@@std@@@std@@QAEXPAU_Node@?$_Tree_nod@V?$_Tmap_traits@IPAVHardwareBufferPool@Ogre@@U?$less@I@std@@V?$allocator@U?$pair@$$CBIPAVHardwareBufferPool@Ogre@@@std@@@4@$0A@@std@@@2@I@Z ; std::allocator<std::_Tree_nod<std::_Tmap_traits<unsigned int,Ogre::HardwareBufferPool *,std::less<unsigned int>,std::allocator<std::pair<unsigned int const ,Ogre::HardwareBufferPool *> >,0> >::_Node>::deallocate

; 1414 : 		_RERAISE;

	push	0
	push	0
	call	__CxxThrowException@8

; 1415 : 		_CATCH_END

	mov	DWORD PTR __$EHRec$[ebp+12], -1
	mov	eax, __tryend$?_Buynode@?$_Tree@V?$_Tmap_traits@IPAVHardwareBufferPool@Ogre@@U?$less@I@std@@V?$allocator@U?$pair@$$CBIPAVHardwareBufferPool@Ogre@@@std@@@4@$0A@@std@@@std@@IAEPAU_Node@?$_Tree_nod@V?$_Tmap_traits@IPAVHardwareBufferPool@Ogre@@U?$less@I@std@@V?$allocator@U?$pair@$$CBIPAVHardwareBufferPool@Ogre@@@std@@@4@$0A@@std@@@2@PAU342@00ABU?$pair@$$CBIPAVHardwareBufferPool@Ogre@@@2@D@Z$1
	ret	0
$LN6@Buynode@2:
	mov	DWORD PTR __$EHRec$[ebp+12], -1
__tryend$?_Buynode@?$_Tree@V?$_Tmap_traits@IPAVHardwareBufferPool@Ogre@@U?$less@I@std@@V?$allocator@U?$pair@$$CBIPAVHardwareBufferPool@Ogre@@@std@@@4@$0A@@std@@@std@@IAEPAU_Node@?$_Tree_nod@V?$_Tmap_traits@IPAVHardwareBufferPool@Ogre@@U?$less@I@std@@V?$allocator@U?$pair@$$CBIPAVHardwareBufferPool@Ogre@@@std@@@4@$0A@@std@@@2@PAU342@00ABU?$pair@$$CBIPAVHardwareBufferPool@Ogre@@@2@D@Z$1:

; 1416 : 		return (_Wherenode);

	mov	eax, DWORD PTR __Wherenode$[ebp]
$LN3@Buynode@2:

; 1417 : 		}

	mov	ecx, DWORD PTR __$EHRec$[ebp+4]
	mov	DWORD PTR fs:0, ecx
	pop	ecx
	pop	edi
	pop	esi
	pop	ebx
	mov	esp, ebp
	pop	ebp
	ret	20					; 00000014H
_TEXT	ENDS
;	COMDAT text$x
text$x	SEGMENT
__unwindfunclet$?_Buynode@?$_Tree@V?$_Tmap_traits@IPAVHardwareBufferPool@Ogre@@U?$less@I@std@@V?$allocator@U?$pair@$$CBIPAVHardwareBufferPool@Ogre@@@std@@@4@$0A@@std@@@std@@IAEPAU_Node@?$_Tree_nod@V?$_Tmap_traits@IPAVHardwareBufferPool@Ogre@@U?$less@I@std@@V?$allocator@U?$pair@$$CBIPAVHardwareBufferPool@Ogre@@@std@@@4@$0A@@std@@@2@PAU342@00ABU?$pair@$$CBIPAVHardwareBufferPool@Ogre@@@2@D@Z$2:
	mov	eax, DWORD PTR __Wherenode$[ebp]
	push	eax
	mov	ecx, DWORD PTR $T64495[ebp]
	push	ecx
	call	??3@YAXPAX0@Z				; operator delete
	add	esp, 8
	ret	0
__ehhandler$?_Buynode@?$_Tree@V?$_Tmap_traits@IPAVHardwareBufferPool@Ogre@@U?$less@I@std@@V?$allocator@U?$pair@$$CBIPAVHardwareBufferPool@Ogre@@@std@@@4@$0A@@std@@@std@@IAEPAU_Node@?$_Tree_nod@V?$_Tmap_traits@IPAVHardwareBufferPool@Ogre@@U?$less@I@std@@V?$allocator@U?$pair@$$CBIPAVHardwareBufferPool@Ogre@@@std@@@4@$0A@@std@@@2@PAU342@00ABU?$pair@$$CBIPAVHardwareBufferPool@Ogre@@@2@D@Z:
	mov	edx, DWORD PTR [esp+8]
	lea	eax, DWORD PTR [edx+12]
	mov	ecx, DWORD PTR [edx-40]
	xor	ecx, eax
	call	@__security_check_cookie@4
	mov	eax, OFFSET __ehfuncinfo$?_Buynode@?$_Tree@V?$_Tmap_traits@IPAVHardwareBufferPool@Ogre@@U?$less@I@std@@V?$allocator@U?$pair@$$CBIPAVHardwareBufferPool@Ogre@@@std@@@4@$0A@@std@@@std@@IAEPAU_Node@?$_Tree_nod@V?$_Tmap_traits@IPAVHardwareBufferPool@Ogre@@U?$less@I@std@@V?$allocator@U?$pair@$$CBIPAVHardwareBufferPool@Ogre@@@std@@@4@$0A@@std@@@2@PAU342@00ABU?$pair@$$CBIPAVHardwareBufferPool@Ogre@@@2@D@Z
	jmp	___CxxFrameHandler3
text$x	ENDS
?_Buynode@?$_Tree@V?$_Tmap_traits@IPAVHardwareBufferPool@Ogre@@U?$less@I@std@@V?$allocator@U?$pair@$$CBIPAVHardwareBufferPool@Ogre@@@std@@@4@$0A@@std@@@std@@IAEPAU_Node@?$_Tree_nod@V?$_Tmap_traits@IPAVHardwareBufferPool@Ogre@@U?$less@I@std@@V?$allocator@U?$pair@$$CBIPAVHardwareBufferPool@Ogre@@@std@@@4@$0A@@std@@@2@PAU342@00ABU?$pair@$$CBIPAVHardwareBufferPool@Ogre@@@2@D@Z ENDP ; std::_Tree<std::_Tmap_traits<unsigned int,Ogre::HardwareBufferPool *,std::less<unsigned int>,std::allocator<std::pair<unsigned int const ,Ogre::HardwareBufferPool *> >,0> >::_Buynode
; Function compile flags: /Odtp
; File d:\program files (x86)\microsoft visual studio 9.0\vc\include\new
;	COMDAT ??2@YAPAXIPAX@Z
_TEXT	SEGMENT
___formal$ = 8						; size = 4
__Where$ = 12						; size = 4
??2@YAPAXIPAX@Z PROC					; operator new, COMDAT

; 58   : 	{	// construct array with placement at _Where

	push	ebp
	mov	ebp, esp

; 59   : 	return (_Where);

	mov	eax, DWORD PTR __Where$[ebp]

; 60   : 	}

	pop	ebp
	ret	0
??2@YAPAXIPAX@Z ENDP					; operator new
; Function compile flags: /Odtp
_TEXT	ENDS
;	COMDAT ??3@YAXPAX0@Z
_TEXT	SEGMENT
___formal$ = 8						; size = 4
___formal$ = 12						; size = 4
??3@YAXPAX0@Z PROC					; operator delete, COMDAT

; 63   : 	{	// delete if placement new fails

	push	ebp
	mov	ebp, esp

; 64   : 	}

	pop	ebp
	ret	0
??3@YAXPAX0@Z ENDP					; operator delete
_TEXT	ENDS
PUBLIC	??$?0U?$pair@$$CBIPAVHardwareBufferPool@Ogre@@@std@@@?$allocator@U_Node@?$_Tree_nod@V?$_Tmap_traits@IPAVHardwareBufferPool@Ogre@@U?$less@I@std@@V?$allocator@U?$pair@$$CBIPAVHardwareBufferPool@Ogre@@@std@@@4@$0A@@std@@@std@@@std@@QAE@ABV?$allocator@U?$pair@$$CBIPAVHardwareBufferPool@Ogre@@@std@@@1@@Z ; std::allocator<std::_Tree_nod<std::_Tmap_traits<unsigned int,Ogre::HardwareBufferPool *,std::less<unsigned int>,std::allocator<std::pair<unsigned int const ,Ogre::HardwareBufferPool *> >,0> >::_Node>::allocator<std::_Tree_nod<std::_Tmap_traits<unsigned int,Ogre::HardwareBufferPool *,std::less<unsigned int>,std::allocator<std::pair<unsigned int const ,Ogre::HardwareBufferPool *> >,0> >::_Node><std::pair<unsigned int const ,Ogre::HardwareBufferPool *> >
PUBLIC	??0?$_Tmap_traits@IPAVHardwareBufferPool@Ogre@@U?$less@I@std@@V?$allocator@U?$pair@$$CBIPAVHardwareBufferPool@Ogre@@@std@@@4@$0A@@std@@QAE@U?$less@I@1@V?$allocator@U?$pair@$$CBIPAVHardwareBufferPool@Ogre@@@std@@@1@@Z ; std::_Tmap_traits<unsigned int,Ogre::HardwareBufferPool *,std::less<unsigned int>,std::allocator<std::pair<unsigned int const ,Ogre::HardwareBufferPool *> >,0>::_Tmap_traits<unsigned int,Ogre::HardwareBufferPool *,std::less<unsigned int>,std::allocator<std::pair<unsigned int const ,Ogre::HardwareBufferPool *> >,0>
;	COMDAT xdata$x
; File d:\program files (x86)\microsoft visual studio 9.0\vc\include\xtree
xdata$x	SEGMENT
__unwindtable$??0?$_Tree_nod@V?$_Tmap_traits@IPAVHardwareBufferPool@Ogre@@U?$less@I@std@@V?$allocator@U?$pair@$$CBIPAVHardwareBufferPool@Ogre@@@std@@@4@$0A@@std@@@std@@IAE@ABU?$less@I@1@V?$allocator@U?$pair@$$CBIPAVHardwareBufferPool@Ogre@@@std@@@1@@Z DD 0ffffffffH
	DD	FLAT:__unwindfunclet$??0?$_Tree_nod@V?$_Tmap_traits@IPAVHardwareBufferPool@Ogre@@U?$less@I@std@@V?$allocator@U?$pair@$$CBIPAVHardwareBufferPool@Ogre@@@std@@@4@$0A@@std@@@std@@IAE@ABU?$less@I@1@V?$allocator@U?$pair@$$CBIPAVHardwareBufferPool@Ogre@@@std@@@1@@Z$0
__ehfuncinfo$??0?$_Tree_nod@V?$_Tmap_traits@IPAVHardwareBufferPool@Ogre@@U?$less@I@std@@V?$allocator@U?$pair@$$CBIPAVHardwareBufferPool@Ogre@@@std@@@4@$0A@@std@@@std@@IAE@ABU?$less@I@1@V?$allocator@U?$pair@$$CBIPAVHardwareBufferPool@Ogre@@@std@@@1@@Z DD 019930522H
	DD	01H
	DD	FLAT:__unwindtable$??0?$_Tree_nod@V?$_Tmap_traits@IPAVHardwareBufferPool@Ogre@@U?$less@I@std@@V?$allocator@U?$pair@$$CBIPAVHardwareBufferPool@Ogre@@@std@@@4@$0A@@std@@@std@@IAE@ABU?$less@I@1@V?$allocator@U?$pair@$$CBIPAVHardwareBufferPool@Ogre@@@std@@@1@@Z
	DD	2 DUP(00H)
	DD	2 DUP(00H)
	DD	00H
	DD	00H
; Function compile flags: /Odtp
xdata$x	ENDS
;	COMDAT ??0?$_Tree_nod@V?$_Tmap_traits@IPAVHardwareBufferPool@Ogre@@U?$less@I@std@@V?$allocator@U?$pair@$$CBIPAVHardwareBufferPool@Ogre@@@std@@@4@$0A@@std@@@std@@IAE@ABU?$less@I@1@V?$allocator@U?$pair@$$CBIPAVHardwareBufferPool@Ogre@@@std@@@1@@Z
_TEXT	SEGMENT
_this$ = -20						; size = 4
$T64518 = -16						; size = 4
__$EHRec$ = -12						; size = 12
__Parg$ = 8						; size = 4
__Al$ = 12						; size = 1
??0?$_Tree_nod@V?$_Tmap_traits@IPAVHardwareBufferPool@Ogre@@U?$less@I@std@@V?$allocator@U?$pair@$$CBIPAVHardwareBufferPool@Ogre@@@std@@@4@$0A@@std@@@std@@IAE@ABU?$less@I@1@V?$allocator@U?$pair@$$CBIPAVHardwareBufferPool@Ogre@@@std@@@1@@Z PROC ; std::_Tree_nod<std::_Tmap_traits<unsigned int,Ogre::HardwareBufferPool *,std::less<unsigned int>,std::allocator<std::pair<unsigned int const ,Ogre::HardwareBufferPool *> >,0> >::_Tree_nod<std::_Tmap_traits<unsigned int,Ogre::HardwareBufferPool *,std::less<unsigned int>,std::allocator<std::pair<unsigned int const ,Ogre::HardwareBufferPool *> >,0> >, COMDAT
; _this$ = ecx

; 52   : 		{	// construct traits from _Parg and allocator from _Al

	push	ebp
	mov	ebp, esp
	push	-1
	push	__ehhandler$??0?$_Tree_nod@V?$_Tmap_traits@IPAVHardwareBufferPool@Ogre@@U?$less@I@std@@V?$allocator@U?$pair@$$CBIPAVHardwareBufferPool@Ogre@@@std@@@4@$0A@@std@@@std@@IAE@ABU?$less@I@1@V?$allocator@U?$pair@$$CBIPAVHardwareBufferPool@Ogre@@@std@@@1@@Z
	mov	eax, DWORD PTR fs:0
	push	eax
	sub	esp, 8
	mov	eax, DWORD PTR ___security_cookie
	xor	eax, ebp
	push	eax
	lea	eax, DWORD PTR __$EHRec$[ebp]
	mov	DWORD PTR fs:0, eax
	mov	DWORD PTR _this$[ebp], ecx
	push	ecx
	mov	ecx, esp
	mov	DWORD PTR $T64518[ebp], esp
	lea	eax, DWORD PTR __Al$[ebp]
	push	eax
	call	??0?$allocator@U?$pair@$$CBIPAVHardwareBufferPool@Ogre@@@std@@@std@@QAE@ABV01@@Z ; std::allocator<std::pair<unsigned int const ,Ogre::HardwareBufferPool *> >::allocator<std::pair<unsigned int const ,Ogre::HardwareBufferPool *> >
	mov	ecx, DWORD PTR __Parg$[ebp]
	movzx	edx, BYTE PTR [ecx]
	push	edx
	mov	ecx, DWORD PTR _this$[ebp]
	call	??0?$_Tmap_traits@IPAVHardwareBufferPool@Ogre@@U?$less@I@std@@V?$allocator@U?$pair@$$CBIPAVHardwareBufferPool@Ogre@@@std@@@4@$0A@@std@@QAE@U?$less@I@1@V?$allocator@U?$pair@$$CBIPAVHardwareBufferPool@Ogre@@@std@@@1@@Z ; std::_Tmap_traits<unsigned int,Ogre::HardwareBufferPool *,std::less<unsigned int>,std::allocator<std::pair<unsigned int const ,Ogre::HardwareBufferPool *> >,0>::_Tmap_traits<unsigned int,Ogre::HardwareBufferPool *,std::less<unsigned int>,std::allocator<std::pair<unsigned int const ,Ogre::HardwareBufferPool *> >,0>
	mov	DWORD PTR __$EHRec$[ebp+8], 0
	lea	eax, DWORD PTR __Al$[ebp]
	push	eax
	mov	ecx, DWORD PTR _this$[ebp]
	add	ecx, 12					; 0000000cH
	call	??$?0U?$pair@$$CBIPAVHardwareBufferPool@Ogre@@@std@@@?$allocator@U_Node@?$_Tree_nod@V?$_Tmap_traits@IPAVHardwareBufferPool@Ogre@@U?$less@I@std@@V?$allocator@U?$pair@$$CBIPAVHardwareBufferPool@Ogre@@@std@@@4@$0A@@std@@@std@@@std@@QAE@ABV?$allocator@U?$pair@$$CBIPAVHardwareBufferPool@Ogre@@@std@@@1@@Z ; std::allocator<std::_Tree_nod<std::_Tmap_traits<unsigned int,Ogre::HardwareBufferPool *,std::less<unsigned int>,std::allocator<std::pair<unsigned int const ,Ogre::HardwareBufferPool *> >,0> >::_Node>::allocator<std::_Tree_nod<std::_Tmap_traits<unsigned int,Ogre::HardwareBufferPool *,std::less<unsigned int>,std::allocator<std::pair<unsigned int const ,Ogre::HardwareBufferPool *> >,0> >::_Node><std::pair<unsigned int const ,Ogre::HardwareBufferPool *> >

; 53   : 		}

	mov	DWORD PTR __$EHRec$[ebp+8], -1
	mov	eax, DWORD PTR _this$[ebp]
	mov	ecx, DWORD PTR __$EHRec$[ebp]
	mov	DWORD PTR fs:0, ecx
	pop	ecx
	mov	esp, ebp
	pop	ebp
	ret	8
_TEXT	ENDS
;	COMDAT text$x
text$x	SEGMENT
__unwindfunclet$??0?$_Tree_nod@V?$_Tmap_traits@IPAVHardwareBufferPool@Ogre@@U?$less@I@std@@V?$allocator@U?$pair@$$CBIPAVHardwareBufferPool@Ogre@@@std@@@4@$0A@@std@@@std@@IAE@ABU?$less@I@1@V?$allocator@U?$pair@$$CBIPAVHardwareBufferPool@Ogre@@@std@@@1@@Z$0:
	mov	ecx, DWORD PTR _this$[ebp]
	jmp	??1?$_Tmap_traits@IPAVHardwareBufferPool@Ogre@@U?$less@I@std@@V?$allocator@U?$pair@$$CBIPAVHardwareBufferPool@Ogre@@@std@@@4@$0A@@std@@QAE@XZ
__ehhandler$??0?$_Tree_nod@V?$_Tmap_traits@IPAVHardwareBufferPool@Ogre@@U?$less@I@std@@V?$allocator@U?$pair@$$CBIPAVHardwareBufferPool@Ogre@@@std@@@4@$0A@@std@@@std@@IAE@ABU?$less@I@1@V?$allocator@U?$pair@$$CBIPAVHardwareBufferPool@Ogre@@@std@@@1@@Z:
	mov	edx, DWORD PTR [esp+8]
	lea	eax, DWORD PTR [edx+12]
	mov	ecx, DWORD PTR [edx-12]
	xor	ecx, eax
	call	@__security_check_cookie@4
	mov	eax, OFFSET __ehfuncinfo$??0?$_Tree_nod@V?$_Tmap_traits@IPAVHardwareBufferPool@Ogre@@U?$less@I@std@@V?$allocator@U?$pair@$$CBIPAVHardwareBufferPool@Ogre@@@std@@@4@$0A@@std@@@std@@IAE@ABU?$less@I@1@V?$allocator@U?$pair@$$CBIPAVHardwareBufferPool@Ogre@@@std@@@1@@Z
	jmp	___CxxFrameHandler3
text$x	ENDS
??0?$_Tree_nod@V?$_Tmap_traits@IPAVHardwareBufferPool@Ogre@@U?$less@I@std@@V?$allocator@U?$pair@$$CBIPAVHardwareBufferPool@Ogre@@@std@@@4@$0A@@std@@@std@@IAE@ABU?$less@I@1@V?$allocator@U?$pair@$$CBIPAVHardwareBufferPool@Ogre@@@std@@@1@@Z ENDP ; std::_Tree_nod<std::_Tmap_traits<unsigned int,Ogre::HardwareBufferPool *,std::less<unsigned int>,std::allocator<std::pair<unsigned int const ,Ogre::HardwareBufferPool *> >,0> >::_Tree_nod<std::_Tmap_traits<unsigned int,Ogre::HardwareBufferPool *,std::less<unsigned int>,std::allocator<std::pair<unsigned int const ,Ogre::HardwareBufferPool *> >,0> >
PUBLIC	??$_Allocate@U_Node@?$_Tree_nod@V?$_Tmap_traits@IPAVHardwareBufferPool@Ogre@@U?$less@I@std@@V?$allocator@U?$pair@$$CBIPAVHardwareBufferPool@Ogre@@@std@@@4@$0A@@std@@@std@@@std@@YAPAU_Node@?$_Tree_nod@V?$_Tmap_traits@IPAVHardwareBufferPool@Ogre@@U?$less@I@std@@V?$allocator@U?$pair@$$CBIPAVHardwareBufferPool@Ogre@@@std@@@4@$0A@@std@@@0@IPAU120@@Z ; std::_Allocate<std::_Tree_nod<std::_Tmap_traits<unsigned int,Ogre::HardwareBufferPool *,std::less<unsigned int>,std::allocator<std::pair<unsigned int const ,Ogre::HardwareBufferPool *> >,0> >::_Node>
; Function compile flags: /Odtp
; File d:\program files (x86)\microsoft visual studio 9.0\vc\include\xmemory
;	COMDAT ?allocate@?$allocator@U_Node@?$_Tree_nod@V?$_Tmap_traits@IPAVHardwareBufferPool@Ogre@@U?$less@I@std@@V?$allocator@U?$pair@$$CBIPAVHardwareBufferPool@Ogre@@@std@@@4@$0A@@std@@@std@@@std@@QAEPAU_Node@?$_Tree_nod@V?$_Tmap_traits@IPAVHardwareBufferPool@Ogre@@U?$less@I@std@@V?$allocator@U?$pair@$$CBIPAVHardwareBufferPool@Ogre@@@std@@@4@$0A@@std@@@2@I@Z
_TEXT	SEGMENT
_this$ = -4						; size = 4
__Count$ = 8						; size = 4
?allocate@?$allocator@U_Node@?$_Tree_nod@V?$_Tmap_traits@IPAVHardwareBufferPool@Ogre@@U?$less@I@std@@V?$allocator@U?$pair@$$CBIPAVHardwareBufferPool@Ogre@@@std@@@4@$0A@@std@@@std@@@std@@QAEPAU_Node@?$_Tree_nod@V?$_Tmap_traits@IPAVHardwareBufferPool@Ogre@@U?$less@I@std@@V?$allocator@U?$pair@$$CBIPAVHardwareBufferPool@Ogre@@@std@@@4@$0A@@std@@@2@I@Z PROC ; std::allocator<std::_Tree_nod<std::_Tmap_traits<unsigned int,Ogre::HardwareBufferPool *,std::less<unsigned int>,std::allocator<std::pair<unsigned int const ,Ogre::HardwareBufferPool *> >,0> >::_Node>::allocate, COMDAT
; _this$ = ecx

; 144  : 		{	// allocate array of _Count elements

	push	ebp
	mov	ebp, esp
	push	ecx
	mov	DWORD PTR _this$[ebp], ecx

; 145  : 		return (_Allocate(_Count, (pointer)0));

	push	0
	mov	eax, DWORD PTR __Count$[ebp]
	push	eax
	call	??$_Allocate@U_Node@?$_Tree_nod@V?$_Tmap_traits@IPAVHardwareBufferPool@Ogre@@U?$less@I@std@@V?$allocator@U?$pair@$$CBIPAVHardwareBufferPool@Ogre@@@std@@@4@$0A@@std@@@std@@@std@@YAPAU_Node@?$_Tree_nod@V?$_Tmap_traits@IPAVHardwareBufferPool@Ogre@@U?$less@I@std@@V?$allocator@U?$pair@$$CBIPAVHardwareBufferPool@Ogre@@@std@@@4@$0A@@std@@@0@IPAU120@@Z ; std::_Allocate<std::_Tree_nod<std::_Tmap_traits<unsigned int,Ogre::HardwareBufferPool *,std::less<unsigned int>,std::allocator<std::pair<unsigned int const ,Ogre::HardwareBufferPool *> >,0> >::_Node>
	add	esp, 8

; 146  : 		}

	mov	esp, ebp
	pop	ebp
	ret	4
?allocate@?$allocator@U_Node@?$_Tree_nod@V?$_Tmap_traits@IPAVHardwareBufferPool@Ogre@@U?$less@I@std@@V?$allocator@U?$pair@$$CBIPAVHardwareBufferPool@Ogre@@@std@@@4@$0A@@std@@@std@@@std@@QAEPAU_Node@?$_Tree_nod@V?$_Tmap_traits@IPAVHardwareBufferPool@Ogre@@U?$less@I@std@@V?$allocator@U?$pair@$$CBIPAVHardwareBufferPool@Ogre@@@std@@@4@$0A@@std@@@2@I@Z ENDP ; std::allocator<std::_Tree_nod<std::_Tmap_traits<unsigned int,Ogre::HardwareBufferPool *,std::less<unsigned int>,std::allocator<std::pair<unsigned int const ,Ogre::HardwareBufferPool *> >,0> >::_Node>::allocate
_TEXT	ENDS
PUBLIC	??$_Destroy@U_Node@?$_Tree_nod@V?$_Tmap_traits@IPAVHardwareBufferPool@Ogre@@U?$less@I@std@@V?$allocator@U?$pair@$$CBIPAVHardwareBufferPool@Ogre@@@std@@@4@$0A@@std@@@std@@@std@@YAXPAU_Node@?$_Tree_nod@V?$_Tmap_traits@IPAVHardwareBufferPool@Ogre@@U?$less@I@std@@V?$allocator@U?$pair@$$CBIPAVHardwareBufferPool@Ogre@@@std@@@4@$0A@@std@@@0@@Z ; std::_Destroy<std::_Tree_nod<std::_Tmap_traits<unsigned int,Ogre::HardwareBufferPool *,std::less<unsigned int>,std::allocator<std::pair<unsigned int const ,Ogre::HardwareBufferPool *> >,0> >::_Node>
; Function compile flags: /Odtp
;	COMDAT ?destroy@?$allocator@U_Node@?$_Tree_nod@V?$_Tmap_traits@IPAVHardwareBufferPool@Ogre@@U?$less@I@std@@V?$allocator@U?$pair@$$CBIPAVHardwareBufferPool@Ogre@@@std@@@4@$0A@@std@@@std@@@std@@QAEXPAU_Node@?$_Tree_nod@V?$_Tmap_traits@IPAVHardwareBufferPool@Ogre@@U?$less@I@std@@V?$allocator@U?$pair@$$CBIPAVHardwareBufferPool@Ogre@@@std@@@4@$0A@@std@@@2@@Z
_TEXT	SEGMENT
_this$ = -4						; size = 4
__Ptr$ = 8						; size = 4
?destroy@?$allocator@U_Node@?$_Tree_nod@V?$_Tmap_traits@IPAVHardwareBufferPool@Ogre@@U?$less@I@std@@V?$allocator@U?$pair@$$CBIPAVHardwareBufferPool@Ogre@@@std@@@4@$0A@@std@@@std@@@std@@QAEXPAU_Node@?$_Tree_nod@V?$_Tmap_traits@IPAVHardwareBufferPool@Ogre@@U?$less@I@std@@V?$allocator@U?$pair@$$CBIPAVHardwareBufferPool@Ogre@@@std@@@4@$0A@@std@@@2@@Z PROC ; std::allocator<std::_Tree_nod<std::_Tmap_traits<unsigned int,Ogre::HardwareBufferPool *,std::less<unsigned int>,std::allocator<std::pair<unsigned int const ,Ogre::HardwareBufferPool *> >,0> >::_Node>::destroy, COMDAT
; _this$ = ecx

; 159  : 		{	// destroy object at _Ptr

	push	ebp
	mov	ebp, esp
	push	ecx
	mov	DWORD PTR _this$[ebp], ecx

; 160  : 		_Destroy(_Ptr);

	mov	eax, DWORD PTR __Ptr$[ebp]
	push	eax
	call	??$_Destroy@U_Node@?$_Tree_nod@V?$_Tmap_traits@IPAVHardwareBufferPool@Ogre@@U?$less@I@std@@V?$allocator@U?$pair@$$CBIPAVHardwareBufferPool@Ogre@@@std@@@4@$0A@@std@@@std@@@std@@YAXPAU_Node@?$_Tree_nod@V?$_Tmap_traits@IPAVHardwareBufferPool@Ogre@@U?$less@I@std@@V?$allocator@U?$pair@$$CBIPAVHardwareBufferPool@Ogre@@@std@@@4@$0A@@std@@@0@@Z ; std::_Destroy<std::_Tree_nod<std::_Tmap_traits<unsigned int,Ogre::HardwareBufferPool *,std::less<unsigned int>,std::allocator<std::pair<unsigned int const ,Ogre::HardwareBufferPool *> >,0> >::_Node>
	add	esp, 4

; 161  : 		}

	mov	esp, ebp
	pop	ebp
	ret	4
?destroy@?$allocator@U_Node@?$_Tree_nod@V?$_Tmap_traits@IPAVHardwareBufferPool@Ogre@@U?$less@I@std@@V?$allocator@U?$pair@$$CBIPAVHardwareBufferPool@Ogre@@@std@@@4@$0A@@std@@@std@@@std@@QAEXPAU_Node@?$_Tree_nod@V?$_Tmap_traits@IPAVHardwareBufferPool@Ogre@@U?$less@I@std@@V?$allocator@U?$pair@$$CBIPAVHardwareBufferPool@Ogre@@@std@@@4@$0A@@std@@@2@@Z ENDP ; std::allocator<std::_Tree_nod<std::_Tmap_traits<unsigned int,Ogre::HardwareBufferPool *,std::less<unsigned int>,std::allocator<std::pair<unsigned int const ,Ogre::HardwareBufferPool *> >,0> >::_Node>::destroy
_TEXT	ENDS
PUBLIC	??$_Construct@PAU_Node@?$_Tree_nod@V?$_Tmap_traits@IPAVHardwareBufferPool@Ogre@@U?$less@I@std@@V?$allocator@U?$pair@$$CBIPAVHardwareBufferPool@Ogre@@@std@@@4@$0A@@std@@@std@@PAU123@@std@@YAXPAPAU_Node@?$_Tree_nod@V?$_Tmap_traits@IPAVHardwareBufferPool@Ogre@@U?$less@I@std@@V?$allocator@U?$pair@$$CBIPAVHardwareBufferPool@Ogre@@@std@@@4@$0A@@std@@@0@ABQAU120@@Z ; std::_Construct<std::_Tree_nod<std::_Tmap_traits<unsigned int,Ogre::HardwareBufferPool *,std::less<unsigned int>,std::allocator<std::pair<unsigned int const ,Ogre::HardwareBufferPool *> >,0> >::_Node *,std::_Tree_nod<std::_Tmap_traits<unsigned int,Ogre::HardwareBufferPool *,std::less<unsigned int>,std::allocator<std::pair<unsigned int const ,Ogre::HardwareBufferPool *> >,0> >::_Node *>
; Function compile flags: /Odtp
;	COMDAT ?construct@?$allocator@PAU_Node@?$_Tree_nod@V?$_Tmap_traits@IPAVHardwareBufferPool@Ogre@@U?$less@I@std@@V?$allocator@U?$pair@$$CBIPAVHardwareBufferPool@Ogre@@@std@@@4@$0A@@std@@@std@@@std@@QAEXPAPAU_Node@?$_Tree_nod@V?$_Tmap_traits@IPAVHardwareBufferPool@Ogre@@U?$less@I@std@@V?$allocator@U?$pair@$$CBIPAVHardwareBufferPool@Ogre@@@std@@@4@$0A@@std@@@2@ABQAU342@@Z
_TEXT	SEGMENT
_this$ = -4						; size = 4
__Ptr$ = 8						; size = 4
__Val$ = 12						; size = 4
?construct@?$allocator@PAU_Node@?$_Tree_nod@V?$_Tmap_traits@IPAVHardwareBufferPool@Ogre@@U?$less@I@std@@V?$allocator@U?$pair@$$CBIPAVHardwareBufferPool@Ogre@@@std@@@4@$0A@@std@@@std@@@std@@QAEXPAPAU_Node@?$_Tree_nod@V?$_Tmap_traits@IPAVHardwareBufferPool@Ogre@@U?$less@I@std@@V?$allocator@U?$pair@$$CBIPAVHardwareBufferPool@Ogre@@@std@@@4@$0A@@std@@@2@ABQAU342@@Z PROC ; std::allocator<std::_Tree_nod<std::_Tmap_traits<unsigned int,Ogre::HardwareBufferPool *,std::less<unsigned int>,std::allocator<std::pair<unsigned int const ,Ogre::HardwareBufferPool *> >,0> >::_Node *>::construct, COMDAT
; _this$ = ecx

; 154  : 		{	// construct object at _Ptr with value _Val

	push	ebp
	mov	ebp, esp
	push	ecx
	mov	DWORD PTR _this$[ebp], ecx

; 155  : 		_Construct(_Ptr, _Val);

	mov	eax, DWORD PTR __Val$[ebp]
	push	eax
	mov	ecx, DWORD PTR __Ptr$[ebp]
	push	ecx
	call	??$_Construct@PAU_Node@?$_Tree_nod@V?$_Tmap_traits@IPAVHardwareBufferPool@Ogre@@U?$less@I@std@@V?$allocator@U?$pair@$$CBIPAVHardwareBufferPool@Ogre@@@std@@@4@$0A@@std@@@std@@PAU123@@std@@YAXPAPAU_Node@?$_Tree_nod@V?$_Tmap_traits@IPAVHardwareBufferPool@Ogre@@U?$less@I@std@@V?$allocator@U?$pair@$$CBIPAVHardwareBufferPool@Ogre@@@std@@@4@$0A@@std@@@0@ABQAU120@@Z ; std::_Construct<std::_Tree_nod<std::_Tmap_traits<unsigned int,Ogre::HardwareBufferPool *,std::less<unsigned int>,std::allocator<std::pair<unsigned int const ,Ogre::HardwareBufferPool *> >,0> >::_Node *,std::_Tree_nod<std::_Tmap_traits<unsigned int,Ogre::HardwareBufferPool *,std::less<unsigned int>,std::allocator<std::pair<unsigned int const ,Ogre::HardwareBufferPool *> >,0> >::_Node *>
	add	esp, 8

; 156  : 		}

	mov	esp, ebp
	pop	ebp
	ret	8
?construct@?$allocator@PAU_Node@?$_Tree_nod@V?$_Tmap_traits@IPAVHardwareBufferPool@Ogre@@U?$less@I@std@@V?$allocator@U?$pair@$$CBIPAVHardwareBufferPool@Ogre@@@std@@@4@$0A@@std@@@std@@@std@@QAEXPAPAU_Node@?$_Tree_nod@V?$_Tmap_traits@IPAVHardwareBufferPool@Ogre@@U?$less@I@std@@V?$allocator@U?$pair@$$CBIPAVHardwareBufferPool@Ogre@@@std@@@4@$0A@@std@@@2@ABQAU342@@Z ENDP ; std::allocator<std::_Tree_nod<std::_Tmap_traits<unsigned int,Ogre::HardwareBufferPool *,std::less<unsigned int>,std::allocator<std::pair<unsigned int const ,Ogre::HardwareBufferPool *> >,0> >::_Node *>::construct
; Function compile flags: /Odtp
; File d:\program files (x86)\microsoft visual studio 9.0\vc\include\xtree
_TEXT	ENDS
;	COMDAT ??Fiterator@?$_Tree@V?$_Tmap_traits@IPAVHardwareBufferPool@Ogre@@U?$less@I@std@@V?$allocator@U?$pair@$$CBIPAVHardwareBufferPool@Ogre@@@std@@@4@$0A@@std@@@std@@QAEAAV012@XZ
_TEXT	SEGMENT
_this$ = -4						; size = 4
??Fiterator@?$_Tree@V?$_Tmap_traits@IPAVHardwareBufferPool@Ogre@@U?$less@I@std@@V?$allocator@U?$pair@$$CBIPAVHardwareBufferPool@Ogre@@@std@@@4@$0A@@std@@@std@@QAEAAV012@XZ PROC ; std::_Tree<std::_Tmap_traits<unsigned int,Ogre::HardwareBufferPool *,std::less<unsigned int>,std::allocator<std::pair<unsigned int const ,Ogre::HardwareBufferPool *> >,0> >::iterator::operator--, COMDAT
; _this$ = ecx

; 487  : 			{	// predecrement

	push	ebp
	mov	ebp, esp
	push	ecx
	mov	DWORD PTR _this$[ebp], ecx

; 488  : 			--(*(const_iterator *)this);

	mov	ecx, DWORD PTR _this$[ebp]
	call	??Fconst_iterator@?$_Tree@V?$_Tmap_traits@IPAVHardwareBufferPool@Ogre@@U?$less@I@std@@V?$allocator@U?$pair@$$CBIPAVHardwareBufferPool@Ogre@@@std@@@4@$0A@@std@@@std@@QAEAAV012@XZ ; std::_Tree<std::_Tmap_traits<unsigned int,Ogre::HardwareBufferPool *,std::less<unsigned int>,std::allocator<std::pair<unsigned int const ,Ogre::HardwareBufferPool *> >,0> >::const_iterator::operator--

; 489  : 			return (*this);

	mov	eax, DWORD PTR _this$[ebp]

; 490  : 			}

	mov	esp, ebp
	pop	ebp
	ret	0
??Fiterator@?$_Tree@V?$_Tmap_traits@IPAVHardwareBufferPool@Ogre@@U?$less@I@std@@V?$allocator@U?$pair@$$CBIPAVHardwareBufferPool@Ogre@@@std@@@4@$0A@@std@@@std@@QAEAAV012@XZ ENDP ; std::_Tree<std::_Tmap_traits<unsigned int,Ogre::HardwareBufferPool *,std::less<unsigned int>,std::allocator<std::pair<unsigned int const ,Ogre::HardwareBufferPool *> >,0> >::iterator::operator--
; Function compile flags: /Odtp
_TEXT	ENDS
;	COMDAT ?_Dec@const_iterator@?$_Tree@V?$_Tmap_traits@IPAVHardwareBufferPool@Ogre@@U?$less@I@std@@V?$allocator@U?$pair@$$CBIPAVHardwareBufferPool@Ogre@@@std@@@4@$0A@@std@@@std@@QAEXXZ
_TEXT	SEGMENT
_this$ = -8						; size = 4
__Pnode$61328 = -4					; size = 4
?_Dec@const_iterator@?$_Tree@V?$_Tmap_traits@IPAVHardwareBufferPool@Ogre@@U?$less@I@std@@V?$allocator@U?$pair@$$CBIPAVHardwareBufferPool@Ogre@@@std@@@4@$0A@@std@@@std@@QAEXXZ PROC ; std::_Tree<std::_Tmap_traits<unsigned int,Ogre::HardwareBufferPool *,std::less<unsigned int>,std::allocator<std::pair<unsigned int const ,Ogre::HardwareBufferPool *> >,0> >::const_iterator::_Dec, COMDAT
; _this$ = ecx

; 320  : 			{	// move to node with next smaller value

	push	ebp
	mov	ebp, esp
	sub	esp, 8
	mov	DWORD PTR _this$[ebp], ecx

; 321  : 
; 322  :  #if _HAS_ITERATOR_DEBUGGING
; 323  : 			if (this->_Mycont == 0
; 324  : 				|| _Ptr == 0)
; 325  : 				{
; 326  : 				_DEBUG_ERROR("map/set iterator not decrementable");
; 327  : 				_SCL_SECURE_INVALID_ARGUMENT;
; 328  : 				}
; 329  :  #else
; 330  : 			_SCL_SECURE_VALIDATE(this->_Has_container());

	mov	ecx, DWORD PTR _this$[ebp]
	call	?_Has_container@_Iterator_base_aux@std@@QBE_NXZ ; std::_Iterator_base_aux::_Has_container
	movzx	eax, al
	test	eax, eax
	jne	SHORT $LN10@Dec
	call	DWORD PTR __imp___invalid_parameter_noinfo
$LN10@Dec:

; 331  :  #endif /* _HAS_ITERATOR_DEBUGGING */
; 332  : 
; 333  : 			if (_Isnil(_Ptr))

	mov	ecx, DWORD PTR _this$[ebp]
	mov	edx, DWORD PTR [ecx+4]
	push	edx
	call	?_Isnil@?$_Tree@V?$_Tmap_traits@IPAVHardwareBufferPool@Ogre@@U?$less@I@std@@V?$allocator@U?$pair@$$CBIPAVHardwareBufferPool@Ogre@@@std@@@4@$0A@@std@@@std@@KAAADPAU_Node@?$_Tree_nod@V?$_Tmap_traits@IPAVHardwareBufferPool@Ogre@@U?$less@I@std@@V?$allocator@U?$pair@$$CBIPAVHardwareBufferPool@Ogre@@@std@@@4@$0A@@std@@@2@@Z ; std::_Tree<std::_Tmap_traits<unsigned int,Ogre::HardwareBufferPool *,std::less<unsigned int>,std::allocator<std::pair<unsigned int const ,Ogre::HardwareBufferPool *> >,0> >::_Isnil
	add	esp, 4
	movsx	eax, BYTE PTR [eax]
	test	eax, eax
	je	SHORT $LN9@Dec

; 334  : 			{
; 335  : 				_Ptr = _Right(_Ptr);	// end() ==> rightmost

	mov	ecx, DWORD PTR _this$[ebp]
	mov	edx, DWORD PTR [ecx+4]
	push	edx
	call	?_Right@?$_Tree@V?$_Tmap_traits@IPAVHardwareBufferPool@Ogre@@U?$less@I@std@@V?$allocator@U?$pair@$$CBIPAVHardwareBufferPool@Ogre@@@std@@@4@$0A@@std@@@std@@KAAAPAU_Node@?$_Tree_nod@V?$_Tmap_traits@IPAVHardwareBufferPool@Ogre@@U?$less@I@std@@V?$allocator@U?$pair@$$CBIPAVHardwareBufferPool@Ogre@@@std@@@4@$0A@@std@@@2@PAU342@@Z ; std::_Tree<std::_Tmap_traits<unsigned int,Ogre::HardwareBufferPool *,std::less<unsigned int>,std::allocator<std::pair<unsigned int const ,Ogre::HardwareBufferPool *> >,0> >::_Right
	add	esp, 4
	mov	ecx, DWORD PTR _this$[ebp]
	mov	edx, DWORD PTR [eax]
	mov	DWORD PTR [ecx+4], edx

; 336  :    				if (_Isnil(_Ptr))

	mov	eax, DWORD PTR _this$[ebp]
	mov	ecx, DWORD PTR [eax+4]
	push	ecx
	call	?_Isnil@?$_Tree@V?$_Tmap_traits@IPAVHardwareBufferPool@Ogre@@U?$less@I@std@@V?$allocator@U?$pair@$$CBIPAVHardwareBufferPool@Ogre@@@std@@@4@$0A@@std@@@std@@KAAADPAU_Node@?$_Tree_nod@V?$_Tmap_traits@IPAVHardwareBufferPool@Ogre@@U?$less@I@std@@V?$allocator@U?$pair@$$CBIPAVHardwareBufferPool@Ogre@@@std@@@4@$0A@@std@@@2@@Z ; std::_Tree<std::_Tmap_traits<unsigned int,Ogre::HardwareBufferPool *,std::less<unsigned int>,std::allocator<std::pair<unsigned int const ,Ogre::HardwareBufferPool *> >,0> >::_Isnil
	add	esp, 4
	movsx	edx, BYTE PTR [eax]
	test	edx, edx
	je	SHORT $LN8@Dec

; 337  : #if _HAS_ITERATOR_DEBUGGING
; 338  : 				{
; 339  : 					_DEBUG_ERROR("map/set iterator not decrementable");
; 340  : 					_SCL_SECURE_OUT_OF_RANGE;
; 341  : 				}
; 342  : #elif _SECURE_SCL
; 343  : 				{
; 344  :     				_SCL_SECURE_OUT_OF_RANGE;

	call	DWORD PTR __imp___invalid_parameter_noinfo
$LN8@Dec:

; 345  : 				}
; 346  : #else
; 347  : 				return;	// begin() shouldn't be incremented, don't move
; 348  : #endif
; 349  : 			}

	jmp	$LN11@Dec
$LN9@Dec:

; 350  : 			else if (!_Isnil(_Left(_Ptr)))

	mov	eax, DWORD PTR _this$[ebp]
	mov	ecx, DWORD PTR [eax+4]
	push	ecx
	call	?_Left@?$_Tree@V?$_Tmap_traits@IPAVHardwareBufferPool@Ogre@@U?$less@I@std@@V?$allocator@U?$pair@$$CBIPAVHardwareBufferPool@Ogre@@@std@@@4@$0A@@std@@@std@@KAAAPAU_Node@?$_Tree_nod@V?$_Tmap_traits@IPAVHardwareBufferPool@Ogre@@U?$less@I@std@@V?$allocator@U?$pair@$$CBIPAVHardwareBufferPool@Ogre@@@std@@@4@$0A@@std@@@2@PAU342@@Z ; std::_Tree<std::_Tmap_traits<unsigned int,Ogre::HardwareBufferPool *,std::less<unsigned int>,std::allocator<std::pair<unsigned int const ,Ogre::HardwareBufferPool *> >,0> >::_Left
	add	esp, 4
	mov	edx, DWORD PTR [eax]
	push	edx
	call	?_Isnil@?$_Tree@V?$_Tmap_traits@IPAVHardwareBufferPool@Ogre@@U?$less@I@std@@V?$allocator@U?$pair@$$CBIPAVHardwareBufferPool@Ogre@@@std@@@4@$0A@@std@@@std@@KAAADPAU_Node@?$_Tree_nod@V?$_Tmap_traits@IPAVHardwareBufferPool@Ogre@@U?$less@I@std@@V?$allocator@U?$pair@$$CBIPAVHardwareBufferPool@Ogre@@@std@@@4@$0A@@std@@@2@@Z ; std::_Tree<std::_Tmap_traits<unsigned int,Ogre::HardwareBufferPool *,std::less<unsigned int>,std::allocator<std::pair<unsigned int const ,Ogre::HardwareBufferPool *> >,0> >::_Isnil
	add	esp, 4
	movsx	eax, BYTE PTR [eax]
	test	eax, eax
	jne	SHORT $LN4@Dec

; 351  : 				_Ptr = _Max(_Left(_Ptr));	// ==> largest of left subtree

	mov	ecx, DWORD PTR _this$[ebp]
	mov	edx, DWORD PTR [ecx+4]
	push	edx
	call	?_Left@?$_Tree@V?$_Tmap_traits@IPAVHardwareBufferPool@Ogre@@U?$less@I@std@@V?$allocator@U?$pair@$$CBIPAVHardwareBufferPool@Ogre@@@std@@@4@$0A@@std@@@std@@KAAAPAU_Node@?$_Tree_nod@V?$_Tmap_traits@IPAVHardwareBufferPool@Ogre@@U?$less@I@std@@V?$allocator@U?$pair@$$CBIPAVHardwareBufferPool@Ogre@@@std@@@4@$0A@@std@@@2@PAU342@@Z ; std::_Tree<std::_Tmap_traits<unsigned int,Ogre::HardwareBufferPool *,std::less<unsigned int>,std::allocator<std::pair<unsigned int const ,Ogre::HardwareBufferPool *> >,0> >::_Left
	add	esp, 4
	mov	eax, DWORD PTR [eax]
	push	eax
	call	?_Max@?$_Tree@V?$_Tmap_traits@IPAVHardwareBufferPool@Ogre@@U?$less@I@std@@V?$allocator@U?$pair@$$CBIPAVHardwareBufferPool@Ogre@@@std@@@4@$0A@@std@@@std@@KAPAU_Node@?$_Tree_nod@V?$_Tmap_traits@IPAVHardwareBufferPool@Ogre@@U?$less@I@std@@V?$allocator@U?$pair@$$CBIPAVHardwareBufferPool@Ogre@@@std@@@4@$0A@@std@@@2@PAU342@@Z ; std::_Tree<std::_Tmap_traits<unsigned int,Ogre::HardwareBufferPool *,std::less<unsigned int>,std::allocator<std::pair<unsigned int const ,Ogre::HardwareBufferPool *> >,0> >::_Max
	add	esp, 4
	mov	ecx, DWORD PTR _this$[ebp]
	mov	DWORD PTR [ecx+4], eax

; 352  : 			else

	jmp	SHORT $LN11@Dec
$LN4@Dec:

; 353  : 				{	// climb looking for left subtree
; 354  : 				_Nodeptr _Pnode;
; 355  : 				while (!_Isnil(_Pnode = _Parent(_Ptr))
; 356  : 					&& _Ptr == _Left(_Pnode))

	mov	edx, DWORD PTR _this$[ebp]
	mov	eax, DWORD PTR [edx+4]
	push	eax
	call	?_Parent@?$_Tree@V?$_Tmap_traits@IPAVHardwareBufferPool@Ogre@@U?$less@I@std@@V?$allocator@U?$pair@$$CBIPAVHardwareBufferPool@Ogre@@@std@@@4@$0A@@std@@@std@@KAAAPAU_Node@?$_Tree_nod@V?$_Tmap_traits@IPAVHardwareBufferPool@Ogre@@U?$less@I@std@@V?$allocator@U?$pair@$$CBIPAVHardwareBufferPool@Ogre@@@std@@@4@$0A@@std@@@2@PAU342@@Z ; std::_Tree<std::_Tmap_traits<unsigned int,Ogre::HardwareBufferPool *,std::less<unsigned int>,std::allocator<std::pair<unsigned int const ,Ogre::HardwareBufferPool *> >,0> >::_Parent
	add	esp, 4
	mov	ecx, DWORD PTR [eax]
	mov	DWORD PTR __Pnode$61328[ebp], ecx
	mov	edx, DWORD PTR __Pnode$61328[ebp]
	push	edx
	call	?_Isnil@?$_Tree@V?$_Tmap_traits@IPAVHardwareBufferPool@Ogre@@U?$less@I@std@@V?$allocator@U?$pair@$$CBIPAVHardwareBufferPool@Ogre@@@std@@@4@$0A@@std@@@std@@KAAADPAU_Node@?$_Tree_nod@V?$_Tmap_traits@IPAVHardwareBufferPool@Ogre@@U?$less@I@std@@V?$allocator@U?$pair@$$CBIPAVHardwareBufferPool@Ogre@@@std@@@4@$0A@@std@@@2@@Z ; std::_Tree<std::_Tmap_traits<unsigned int,Ogre::HardwareBufferPool *,std::less<unsigned int>,std::allocator<std::pair<unsigned int const ,Ogre::HardwareBufferPool *> >,0> >::_Isnil
	add	esp, 4
	movsx	eax, BYTE PTR [eax]
	test	eax, eax
	jne	SHORT $LN3@Dec
	mov	ecx, DWORD PTR __Pnode$61328[ebp]
	push	ecx
	call	?_Left@?$_Tree@V?$_Tmap_traits@IPAVHardwareBufferPool@Ogre@@U?$less@I@std@@V?$allocator@U?$pair@$$CBIPAVHardwareBufferPool@Ogre@@@std@@@4@$0A@@std@@@std@@KAAAPAU_Node@?$_Tree_nod@V?$_Tmap_traits@IPAVHardwareBufferPool@Ogre@@U?$less@I@std@@V?$allocator@U?$pair@$$CBIPAVHardwareBufferPool@Ogre@@@std@@@4@$0A@@std@@@2@PAU342@@Z ; std::_Tree<std::_Tmap_traits<unsigned int,Ogre::HardwareBufferPool *,std::less<unsigned int>,std::allocator<std::pair<unsigned int const ,Ogre::HardwareBufferPool *> >,0> >::_Left
	add	esp, 4
	mov	edx, DWORD PTR _this$[ebp]
	mov	ecx, DWORD PTR [edx+4]
	cmp	ecx, DWORD PTR [eax]
	jne	SHORT $LN3@Dec

; 357  : 					_Ptr = _Pnode;	// ==> parent while left subtree

	mov	edx, DWORD PTR _this$[ebp]
	mov	eax, DWORD PTR __Pnode$61328[ebp]
	mov	DWORD PTR [edx+4], eax
	jmp	SHORT $LN4@Dec
$LN3@Dec:

; 358  : 				if (_Isnil(_Ptr))

	mov	ecx, DWORD PTR _this$[ebp]
	mov	edx, DWORD PTR [ecx+4]
	push	edx
	call	?_Isnil@?$_Tree@V?$_Tmap_traits@IPAVHardwareBufferPool@Ogre@@U?$less@I@std@@V?$allocator@U?$pair@$$CBIPAVHardwareBufferPool@Ogre@@@std@@@4@$0A@@std@@@std@@KAAADPAU_Node@?$_Tree_nod@V?$_Tmap_traits@IPAVHardwareBufferPool@Ogre@@U?$less@I@std@@V?$allocator@U?$pair@$$CBIPAVHardwareBufferPool@Ogre@@@std@@@4@$0A@@std@@@2@@Z ; std::_Tree<std::_Tmap_traits<unsigned int,Ogre::HardwareBufferPool *,std::less<unsigned int>,std::allocator<std::pair<unsigned int const ,Ogre::HardwareBufferPool *> >,0> >::_Isnil
	add	esp, 4
	movsx	eax, BYTE PTR [eax]
	test	eax, eax
	je	SHORT $LN2@Dec

; 359  :  #if _HAS_ITERATOR_DEBUGGING
; 360  :  					{
; 361  : 					_DEBUG_ERROR("map/set iterator not decrementable");
; 362  : 					_SCL_SECURE_OUT_OF_RANGE;
; 363  : 					}
; 364  :  #elif _SECURE_SCL
; 365  : 					{
; 366  : 					_SCL_SECURE_OUT_OF_RANGE;

	call	DWORD PTR __imp___invalid_parameter_noinfo

; 367  : 					}
; 368  :  #else
; 369  : 					return;	// begin() shouldn't be incremented, don't move
; 370  :  #endif
; 371  : 				else

	jmp	SHORT $LN11@Dec
$LN2@Dec:

; 372  : 					_Ptr = _Pnode;	// ==> parent if not head

	mov	ecx, DWORD PTR _this$[ebp]
	mov	edx, DWORD PTR __Pnode$61328[ebp]
	mov	DWORD PTR [ecx+4], edx
$LN11@Dec:

; 373  : 				}
; 374  : 			}

	mov	esp, ebp
	pop	ebp
	ret	0
?_Dec@const_iterator@?$_Tree@V?$_Tmap_traits@IPAVHardwareBufferPool@Ogre@@U?$less@I@std@@V?$allocator@U?$pair@$$CBIPAVHardwareBufferPool@Ogre@@@std@@@4@$0A@@std@@@std@@QAEXXZ ENDP ; std::_Tree<std::_Tmap_traits<unsigned int,Ogre::HardwareBufferPool *,std::less<unsigned int>,std::allocator<std::pair<unsigned int const ,Ogre::HardwareBufferPool *> >,0> >::const_iterator::_Dec
; Function compile flags: /Odtp
_TEXT	ENDS
;	COMDAT ?_Inc@const_iterator@?$_Tree@V?$_Tmap_traits@IPAVHardwareBufferPool@Ogre@@U?$less@I@std@@V?$allocator@U?$pair@$$CBIPAVHardwareBufferPool@Ogre@@@std@@@4@$0A@@std@@@std@@QAEXXZ
_TEXT	SEGMENT
_this$ = -8						; size = 4
__Pnode$61344 = -4					; size = 4
?_Inc@const_iterator@?$_Tree@V?$_Tmap_traits@IPAVHardwareBufferPool@Ogre@@U?$less@I@std@@V?$allocator@U?$pair@$$CBIPAVHardwareBufferPool@Ogre@@@std@@@4@$0A@@std@@@std@@QAEXXZ PROC ; std::_Tree<std::_Tmap_traits<unsigned int,Ogre::HardwareBufferPool *,std::less<unsigned int>,std::allocator<std::pair<unsigned int const ,Ogre::HardwareBufferPool *> >,0> >::const_iterator::_Inc, COMDAT
; _this$ = ecx

; 377  : 			{	// move to node with next larger value

	push	ebp
	mov	ebp, esp
	sub	esp, 8
	mov	DWORD PTR _this$[ebp], ecx

; 378  : 
; 379  :  #if _HAS_ITERATOR_DEBUGGING
; 380  : 			if (this->_Mycont == 0
; 381  : 				|| _Ptr == 0
; 382  : 				|| _Isnil(_Ptr))
; 383  : 				{
; 384  : 				_DEBUG_ERROR("map/set iterator not incrementable");
; 385  : 				_SCL_SECURE_OUT_OF_RANGE;
; 386  : 				}
; 387  :  #else
; 388  : 			_SCL_SECURE_VALIDATE(this->_Has_container());

	mov	ecx, DWORD PTR _this$[ebp]
	call	?_Has_container@_Iterator_base_aux@std@@QBE_NXZ ; std::_Iterator_base_aux::_Has_container
	movzx	eax, al
	test	eax, eax
	jne	SHORT $LN7@Inc
	call	DWORD PTR __imp___invalid_parameter_noinfo
$LN7@Inc:

; 389  : 			if (_Isnil(_Ptr))

	mov	ecx, DWORD PTR _this$[ebp]
	mov	edx, DWORD PTR [ecx+4]
	push	edx
	call	?_Isnil@?$_Tree@V?$_Tmap_traits@IPAVHardwareBufferPool@Ogre@@U?$less@I@std@@V?$allocator@U?$pair@$$CBIPAVHardwareBufferPool@Ogre@@@std@@@4@$0A@@std@@@std@@KAAADPAU_Node@?$_Tree_nod@V?$_Tmap_traits@IPAVHardwareBufferPool@Ogre@@U?$less@I@std@@V?$allocator@U?$pair@$$CBIPAVHardwareBufferPool@Ogre@@@std@@@4@$0A@@std@@@2@@Z ; std::_Tree<std::_Tmap_traits<unsigned int,Ogre::HardwareBufferPool *,std::less<unsigned int>,std::allocator<std::pair<unsigned int const ,Ogre::HardwareBufferPool *> >,0> >::_Isnil
	add	esp, 4
	movsx	eax, BYTE PTR [eax]
	test	eax, eax
	je	SHORT $LN6@Inc

; 390  : 				{
; 391  : 				_SCL_SECURE_OUT_OF_RANGE;

	call	DWORD PTR __imp___invalid_parameter_noinfo
	jmp	$LN8@Inc
$LN6@Inc:

; 392  : 				// end() shouldn't be incremented, don't move if _SCL_SECURE is not turned on
; 393  : 				}
; 394  :  #endif /* _HAS_ITERATOR_DEBUGGING */
; 395  : 
; 396  : 			else if (!_Isnil(_Right(_Ptr)))

	mov	ecx, DWORD PTR _this$[ebp]
	mov	edx, DWORD PTR [ecx+4]
	push	edx
	call	?_Right@?$_Tree@V?$_Tmap_traits@IPAVHardwareBufferPool@Ogre@@U?$less@I@std@@V?$allocator@U?$pair@$$CBIPAVHardwareBufferPool@Ogre@@@std@@@4@$0A@@std@@@std@@KAAAPAU_Node@?$_Tree_nod@V?$_Tmap_traits@IPAVHardwareBufferPool@Ogre@@U?$less@I@std@@V?$allocator@U?$pair@$$CBIPAVHardwareBufferPool@Ogre@@@std@@@4@$0A@@std@@@2@PAU342@@Z ; std::_Tree<std::_Tmap_traits<unsigned int,Ogre::HardwareBufferPool *,std::less<unsigned int>,std::allocator<std::pair<unsigned int const ,Ogre::HardwareBufferPool *> >,0> >::_Right
	add	esp, 4
	mov	eax, DWORD PTR [eax]
	push	eax
	call	?_Isnil@?$_Tree@V?$_Tmap_traits@IPAVHardwareBufferPool@Ogre@@U?$less@I@std@@V?$allocator@U?$pair@$$CBIPAVHardwareBufferPool@Ogre@@@std@@@4@$0A@@std@@@std@@KAAADPAU_Node@?$_Tree_nod@V?$_Tmap_traits@IPAVHardwareBufferPool@Ogre@@U?$less@I@std@@V?$allocator@U?$pair@$$CBIPAVHardwareBufferPool@Ogre@@@std@@@4@$0A@@std@@@2@@Z ; std::_Tree<std::_Tmap_traits<unsigned int,Ogre::HardwareBufferPool *,std::less<unsigned int>,std::allocator<std::pair<unsigned int const ,Ogre::HardwareBufferPool *> >,0> >::_Isnil
	add	esp, 4
	movsx	ecx, BYTE PTR [eax]
	test	ecx, ecx
	jne	SHORT $LN2@Inc

; 397  : 				_Ptr = _Min(_Right(_Ptr));	// ==> smallest of right subtree

	mov	edx, DWORD PTR _this$[ebp]
	mov	eax, DWORD PTR [edx+4]
	push	eax
	call	?_Right@?$_Tree@V?$_Tmap_traits@IPAVHardwareBufferPool@Ogre@@U?$less@I@std@@V?$allocator@U?$pair@$$CBIPAVHardwareBufferPool@Ogre@@@std@@@4@$0A@@std@@@std@@KAAAPAU_Node@?$_Tree_nod@V?$_Tmap_traits@IPAVHardwareBufferPool@Ogre@@U?$less@I@std@@V?$allocator@U?$pair@$$CBIPAVHardwareBufferPool@Ogre@@@std@@@4@$0A@@std@@@2@PAU342@@Z ; std::_Tree<std::_Tmap_traits<unsigned int,Ogre::HardwareBufferPool *,std::less<unsigned int>,std::allocator<std::pair<unsigned int const ,Ogre::HardwareBufferPool *> >,0> >::_Right
	add	esp, 4
	mov	ecx, DWORD PTR [eax]
	push	ecx
	call	?_Min@?$_Tree@V?$_Tmap_traits@IPAVHardwareBufferPool@Ogre@@U?$less@I@std@@V?$allocator@U?$pair@$$CBIPAVHardwareBufferPool@Ogre@@@std@@@4@$0A@@std@@@std@@KAPAU_Node@?$_Tree_nod@V?$_Tmap_traits@IPAVHardwareBufferPool@Ogre@@U?$less@I@std@@V?$allocator@U?$pair@$$CBIPAVHardwareBufferPool@Ogre@@@std@@@4@$0A@@std@@@2@PAU342@@Z ; std::_Tree<std::_Tmap_traits<unsigned int,Ogre::HardwareBufferPool *,std::less<unsigned int>,std::allocator<std::pair<unsigned int const ,Ogre::HardwareBufferPool *> >,0> >::_Min
	add	esp, 4
	mov	edx, DWORD PTR _this$[ebp]
	mov	DWORD PTR [edx+4], eax

; 398  : 			else

	jmp	SHORT $LN8@Inc
$LN2@Inc:

; 399  : 				{	// climb looking for right subtree
; 400  : 				_Nodeptr _Pnode;
; 401  : 				while (!_Isnil(_Pnode = _Parent(_Ptr))
; 402  : 					&& _Ptr == _Right(_Pnode))

	mov	eax, DWORD PTR _this$[ebp]
	mov	ecx, DWORD PTR [eax+4]
	push	ecx
	call	?_Parent@?$_Tree@V?$_Tmap_traits@IPAVHardwareBufferPool@Ogre@@U?$less@I@std@@V?$allocator@U?$pair@$$CBIPAVHardwareBufferPool@Ogre@@@std@@@4@$0A@@std@@@std@@KAAAPAU_Node@?$_Tree_nod@V?$_Tmap_traits@IPAVHardwareBufferPool@Ogre@@U?$less@I@std@@V?$allocator@U?$pair@$$CBIPAVHardwareBufferPool@Ogre@@@std@@@4@$0A@@std@@@2@PAU342@@Z ; std::_Tree<std::_Tmap_traits<unsigned int,Ogre::HardwareBufferPool *,std::less<unsigned int>,std::allocator<std::pair<unsigned int const ,Ogre::HardwareBufferPool *> >,0> >::_Parent
	add	esp, 4
	mov	edx, DWORD PTR [eax]
	mov	DWORD PTR __Pnode$61344[ebp], edx
	mov	eax, DWORD PTR __Pnode$61344[ebp]
	push	eax
	call	?_Isnil@?$_Tree@V?$_Tmap_traits@IPAVHardwareBufferPool@Ogre@@U?$less@I@std@@V?$allocator@U?$pair@$$CBIPAVHardwareBufferPool@Ogre@@@std@@@4@$0A@@std@@@std@@KAAADPAU_Node@?$_Tree_nod@V?$_Tmap_traits@IPAVHardwareBufferPool@Ogre@@U?$less@I@std@@V?$allocator@U?$pair@$$CBIPAVHardwareBufferPool@Ogre@@@std@@@4@$0A@@std@@@2@@Z ; std::_Tree<std::_Tmap_traits<unsigned int,Ogre::HardwareBufferPool *,std::less<unsigned int>,std::allocator<std::pair<unsigned int const ,Ogre::HardwareBufferPool *> >,0> >::_Isnil
	add	esp, 4
	movsx	ecx, BYTE PTR [eax]
	test	ecx, ecx
	jne	SHORT $LN1@Inc
	mov	edx, DWORD PTR __Pnode$61344[ebp]
	push	edx
	call	?_Right@?$_Tree@V?$_Tmap_traits@IPAVHardwareBufferPool@Ogre@@U?$less@I@std@@V?$allocator@U?$pair@$$CBIPAVHardwareBufferPool@Ogre@@@std@@@4@$0A@@std@@@std@@KAAAPAU_Node@?$_Tree_nod@V?$_Tmap_traits@IPAVHardwareBufferPool@Ogre@@U?$less@I@std@@V?$allocator@U?$pair@$$CBIPAVHardwareBufferPool@Ogre@@@std@@@4@$0A@@std@@@2@PAU342@@Z ; std::_Tree<std::_Tmap_traits<unsigned int,Ogre::HardwareBufferPool *,std::less<unsigned int>,std::allocator<std::pair<unsigned int const ,Ogre::HardwareBufferPool *> >,0> >::_Right
	add	esp, 4
	mov	ecx, DWORD PTR _this$[ebp]
	mov	edx, DWORD PTR [ecx+4]
	cmp	edx, DWORD PTR [eax]
	jne	SHORT $LN1@Inc

; 403  : 					_Ptr = _Pnode;	// ==> parent while right subtree

	mov	eax, DWORD PTR _this$[ebp]
	mov	ecx, DWORD PTR __Pnode$61344[ebp]
	mov	DWORD PTR [eax+4], ecx
	jmp	SHORT $LN2@Inc
$LN1@Inc:

; 404  : 				_Ptr = _Pnode;	// ==> parent (head if end())

	mov	edx, DWORD PTR _this$[ebp]
	mov	eax, DWORD PTR __Pnode$61344[ebp]
	mov	DWORD PTR [edx+4], eax
$LN8@Inc:

; 405  : 				}
; 406  : 			}

	mov	esp, ebp
	pop	ebp
	ret	0
?_Inc@const_iterator@?$_Tree@V?$_Tmap_traits@IPAVHardwareBufferPool@Ogre@@U?$less@I@std@@V?$allocator@U?$pair@$$CBIPAVHardwareBufferPool@Ogre@@@std@@@4@$0A@@std@@@std@@QAEXXZ ENDP ; std::_Tree<std::_Tmap_traits<unsigned int,Ogre::HardwareBufferPool *,std::less<unsigned int>,std::allocator<std::pair<unsigned int const ,Ogre::HardwareBufferPool *> >,0> >::const_iterator::_Inc
; Function compile flags: /Odtp
; File d:\program files (x86)\microsoft visual studio 9.0\vc\include\utility
_TEXT	ENDS
;	COMDAT ??0?$pair@Viterator@?$_Tree@V?$_Tmap_traits@IPAVHardwareBufferPool@Ogre@@U?$less@I@std@@V?$allocator@U?$pair@$$CBIPAVHardwareBufferPool@Ogre@@@std@@@4@$0A@@std@@@std@@_N@std@@QAE@ABViterator@?$_Tree@V?$_Tmap_traits@IPAVHardwareBufferPool@Ogre@@U?$less@I@std@@V?$allocator@U?$pair@$$CBIPAVHardwareBufferPool@Ogre@@@std@@@4@$0A@@std@@@1@AB_N@Z
_TEXT	SEGMENT
_this$ = -4						; size = 4
__Val1$ = 8						; size = 4
__Val2$ = 12						; size = 4
??0?$pair@Viterator@?$_Tree@V?$_Tmap_traits@IPAVHardwareBufferPool@Ogre@@U?$less@I@std@@V?$allocator@U?$pair@$$CBIPAVHardwareBufferPool@Ogre@@@std@@@4@$0A@@std@@@std@@_N@std@@QAE@ABViterator@?$_Tree@V?$_Tmap_traits@IPAVHardwareBufferPool@Ogre@@U?$less@I@std@@V?$allocator@U?$pair@$$CBIPAVHardwareBufferPool@Ogre@@@std@@@4@$0A@@std@@@1@AB_N@Z PROC ; std::pair<std::_Tree<std::_Tmap_traits<unsigned int,Ogre::HardwareBufferPool *,std::less<unsigned int>,std::allocator<std::pair<unsigned int const ,Ogre::HardwareBufferPool *> >,0> >::iterator,bool>::pair<std::_Tree<std::_Tmap_traits<unsigned int,Ogre::HardwareBufferPool *,std::less<unsigned int>,std::allocator<std::pair<unsigned int const ,Ogre::HardwareBufferPool *> >,0> >::iterator,bool>, COMDAT
; _this$ = ecx

; 50   : 		{	// construct from specified values

	push	ebp
	mov	ebp, esp
	push	ecx
	mov	DWORD PTR _this$[ebp], ecx
	mov	eax, DWORD PTR __Val1$[ebp]
	mov	ecx, DWORD PTR [eax]
	mov	edx, DWORD PTR [eax+4]
	mov	eax, DWORD PTR _this$[ebp]
	mov	DWORD PTR [eax], ecx
	mov	DWORD PTR [eax+4], edx
	mov	ecx, DWORD PTR _this$[ebp]
	mov	edx, DWORD PTR __Val2$[ebp]
	mov	al, BYTE PTR [edx]
	mov	BYTE PTR [ecx+8], al

; 51   : 		}

	mov	eax, DWORD PTR _this$[ebp]
	mov	esp, ebp
	pop	ebp
	ret	8
??0?$pair@Viterator@?$_Tree@V?$_Tmap_traits@IPAVHardwareBufferPool@Ogre@@U?$less@I@std@@V?$allocator@U?$pair@$$CBIPAVHardwareBufferPool@Ogre@@@std@@@4@$0A@@std@@@std@@_N@std@@QAE@ABViterator@?$_Tree@V?$_Tmap_traits@IPAVHardwareBufferPool@Ogre@@U?$less@I@std@@V?$allocator@U?$pair@$$CBIPAVHardwareBufferPool@Ogre@@@std@@@4@$0A@@std@@@1@AB_N@Z ENDP ; std::pair<std::_Tree<std::_Tmap_traits<unsigned int,Ogre::HardwareBufferPool *,std::less<unsigned int>,std::allocator<std::pair<unsigned int const ,Ogre::HardwareBufferPool *> >,0> >::iterator,bool>::pair<std::_Tree<std::_Tmap_traits<unsigned int,Ogre::HardwareBufferPool *,std::less<unsigned int>,std::allocator<std::pair<unsigned int const ,Ogre::HardwareBufferPool *> >,0> >::iterator,bool>
_TEXT	ENDS
PUBLIC	??0?$_Container_base_aux_alloc_real@V?$allocator@U?$pair@$$CBIPAVHardwareBufferPool@Ogre@@@std@@@std@@@std@@IAE@V?$allocator@U?$pair@$$CBIPAVHardwareBufferPool@Ogre@@@std@@@1@@Z ; std::_Container_base_aux_alloc_real<std::allocator<std::pair<unsigned int const ,Ogre::HardwareBufferPool *> > >::_Container_base_aux_alloc_real<std::allocator<std::pair<unsigned int const ,Ogre::HardwareBufferPool *> > >
;	COMDAT xdata$x
; File d:\program files (x86)\microsoft visual studio 9.0\vc\include\map
xdata$x	SEGMENT
__unwindtable$??0?$_Tmap_traits@IPAVHardwareBufferPool@Ogre@@U?$less@I@std@@V?$allocator@U?$pair@$$CBIPAVHardwareBufferPool@Ogre@@@std@@@4@$0A@@std@@QAE@U?$less@I@1@V?$allocator@U?$pair@$$CBIPAVHardwareBufferPool@Ogre@@@std@@@1@@Z DD 0ffffffffH
	DD	FLAT:__unwindfunclet$??0?$_Tmap_traits@IPAVHardwareBufferPool@Ogre@@U?$less@I@std@@V?$allocator@U?$pair@$$CBIPAVHardwareBufferPool@Ogre@@@std@@@4@$0A@@std@@QAE@U?$less@I@1@V?$allocator@U?$pair@$$CBIPAVHardwareBufferPool@Ogre@@@std@@@1@@Z$0
__ehfuncinfo$??0?$_Tmap_traits@IPAVHardwareBufferPool@Ogre@@U?$less@I@std@@V?$allocator@U?$pair@$$CBIPAVHardwareBufferPool@Ogre@@@std@@@4@$0A@@std@@QAE@U?$less@I@1@V?$allocator@U?$pair@$$CBIPAVHardwareBufferPool@Ogre@@@std@@@1@@Z DD 019930522H
	DD	01H
	DD	FLAT:__unwindtable$??0?$_Tmap_traits@IPAVHardwareBufferPool@Ogre@@U?$less@I@std@@V?$allocator@U?$pair@$$CBIPAVHardwareBufferPool@Ogre@@@std@@@4@$0A@@std@@QAE@U?$less@I@1@V?$allocator@U?$pair@$$CBIPAVHardwareBufferPool@Ogre@@@std@@@1@@Z
	DD	2 DUP(00H)
	DD	2 DUP(00H)
	DD	00H
	DD	00H
; Function compile flags: /Odtp
xdata$x	ENDS
;	COMDAT ??0?$_Tmap_traits@IPAVHardwareBufferPool@Ogre@@U?$less@I@std@@V?$allocator@U?$pair@$$CBIPAVHardwareBufferPool@Ogre@@@std@@@4@$0A@@std@@QAE@U?$less@I@1@V?$allocator@U?$pair@$$CBIPAVHardwareBufferPool@Ogre@@@std@@@1@@Z
_TEXT	SEGMENT
_this$ = -20						; size = 4
$T64542 = -16						; size = 4
__$EHRec$ = -12						; size = 12
__Parg$ = 8						; size = 1
__Al$ = 12						; size = 1
??0?$_Tmap_traits@IPAVHardwareBufferPool@Ogre@@U?$less@I@std@@V?$allocator@U?$pair@$$CBIPAVHardwareBufferPool@Ogre@@@std@@@4@$0A@@std@@QAE@U?$less@I@1@V?$allocator@U?$pair@$$CBIPAVHardwareBufferPool@Ogre@@@std@@@1@@Z PROC ; std::_Tmap_traits<unsigned int,Ogre::HardwareBufferPool *,std::less<unsigned int>,std::allocator<std::pair<unsigned int const ,Ogre::HardwareBufferPool *> >,0>::_Tmap_traits<unsigned int,Ogre::HardwareBufferPool *,std::less<unsigned int>,std::allocator<std::pair<unsigned int const ,Ogre::HardwareBufferPool *> >,0>, COMDAT
; _this$ = ecx

; 39   : 		{	// construct with specified comparator

	push	ebp
	mov	ebp, esp
	push	-1
	push	__ehhandler$??0?$_Tmap_traits@IPAVHardwareBufferPool@Ogre@@U?$less@I@std@@V?$allocator@U?$pair@$$CBIPAVHardwareBufferPool@Ogre@@@std@@@4@$0A@@std@@QAE@U?$less@I@1@V?$allocator@U?$pair@$$CBIPAVHardwareBufferPool@Ogre@@@std@@@1@@Z
	mov	eax, DWORD PTR fs:0
	push	eax
	sub	esp, 8
	mov	eax, DWORD PTR ___security_cookie
	xor	eax, ebp
	push	eax
	lea	eax, DWORD PTR __$EHRec$[ebp]
	mov	DWORD PTR fs:0, eax
	mov	DWORD PTR _this$[ebp], ecx
	push	ecx
	mov	ecx, esp
	mov	DWORD PTR $T64542[ebp], esp
	lea	eax, DWORD PTR __Al$[ebp]
	push	eax
	call	??0?$allocator@U?$pair@$$CBIPAVHardwareBufferPool@Ogre@@@std@@@std@@QAE@ABV01@@Z ; std::allocator<std::pair<unsigned int const ,Ogre::HardwareBufferPool *> >::allocator<std::pair<unsigned int const ,Ogre::HardwareBufferPool *> >
	mov	ecx, DWORD PTR _this$[ebp]
	call	??0?$_Container_base_aux_alloc_real@V?$allocator@U?$pair@$$CBIPAVHardwareBufferPool@Ogre@@@std@@@std@@@std@@IAE@V?$allocator@U?$pair@$$CBIPAVHardwareBufferPool@Ogre@@@std@@@1@@Z ; std::_Container_base_aux_alloc_real<std::allocator<std::pair<unsigned int const ,Ogre::HardwareBufferPool *> > >::_Container_base_aux_alloc_real<std::allocator<std::pair<unsigned int const ,Ogre::HardwareBufferPool *> > >
	mov	DWORD PTR __$EHRec$[ebp+8], 0

; 40   : 		}

	mov	DWORD PTR __$EHRec$[ebp+8], -1
	mov	eax, DWORD PTR _this$[ebp]
	mov	ecx, DWORD PTR __$EHRec$[ebp]
	mov	DWORD PTR fs:0, ecx
	pop	ecx
	mov	esp, ebp
	pop	ebp
	ret	8
_TEXT	ENDS
;	COMDAT text$x
text$x	SEGMENT
__unwindfunclet$??0?$_Tmap_traits@IPAVHardwareBufferPool@Ogre@@U?$less@I@std@@V?$allocator@U?$pair@$$CBIPAVHardwareBufferPool@Ogre@@@std@@@4@$0A@@std@@QAE@U?$less@I@1@V?$allocator@U?$pair@$$CBIPAVHardwareBufferPool@Ogre@@@std@@@1@@Z$0:
	mov	ecx, DWORD PTR _this$[ebp]
	jmp	??1?$_Container_base_aux_alloc_real@V?$allocator@U?$pair@$$CBIPAVHardwareBufferPool@Ogre@@@std@@@std@@@std@@IAE@XZ ; std::_Container_base_aux_alloc_real<std::allocator<std::pair<unsigned int const ,Ogre::HardwareBufferPool *> > >::~_Container_base_aux_alloc_real<std::allocator<std::pair<unsigned int const ,Ogre::HardwareBufferPool *> > >
__ehhandler$??0?$_Tmap_traits@IPAVHardwareBufferPool@Ogre@@U?$less@I@std@@V?$allocator@U?$pair@$$CBIPAVHardwareBufferPool@Ogre@@@std@@@4@$0A@@std@@QAE@U?$less@I@1@V?$allocator@U?$pair@$$CBIPAVHardwareBufferPool@Ogre@@@std@@@1@@Z:
	mov	edx, DWORD PTR [esp+8]
	lea	eax, DWORD PTR [edx+12]
	mov	ecx, DWORD PTR [edx-12]
	xor	ecx, eax
	call	@__security_check_cookie@4
	mov	eax, OFFSET __ehfuncinfo$??0?$_Tmap_traits@IPAVHardwareBufferPool@Ogre@@U?$less@I@std@@V?$allocator@U?$pair@$$CBIPAVHardwareBufferPool@Ogre@@@std@@@4@$0A@@std@@QAE@U?$less@I@1@V?$allocator@U?$pair@$$CBIPAVHardwareBufferPool@Ogre@@@std@@@1@@Z
	jmp	___CxxFrameHandler3
text$x	ENDS
??0?$_Tmap_traits@IPAVHardwareBufferPool@Ogre@@U?$less@I@std@@V?$allocator@U?$pair@$$CBIPAVHardwareBufferPool@Ogre@@@std@@@4@$0A@@std@@QAE@U?$less@I@1@V?$allocator@U?$pair@$$CBIPAVHardwareBufferPool@Ogre@@@std@@@1@@Z ENDP ; std::_Tmap_traits<unsigned int,Ogre::HardwareBufferPool *,std::less<unsigned int>,std::allocator<std::pair<unsigned int const ,Ogre::HardwareBufferPool *> >,0>::_Tmap_traits<unsigned int,Ogre::HardwareBufferPool *,std::less<unsigned int>,std::allocator<std::pair<unsigned int const ,Ogre::HardwareBufferPool *> >,0>
; Function compile flags: /Odtp
; File d:\program files (x86)\microsoft visual studio 9.0\vc\include\xmemory
;	COMDAT ?max_size@?$allocator@U?$pair@$$CBIPAVHardwareBufferPool@Ogre@@@std@@@std@@QBEIXZ
_TEXT	SEGMENT
tv65 = -12						; size = 4
_this$ = -8						; size = 4
__Count$ = -4						; size = 4
?max_size@?$allocator@U?$pair@$$CBIPAVHardwareBufferPool@Ogre@@@std@@@std@@QBEIXZ PROC ; std::allocator<std::pair<unsigned int const ,Ogre::HardwareBufferPool *> >::max_size, COMDAT
; _this$ = ecx

; 164  : 		{	// estimate maximum array size

	push	ebp
	mov	ebp, esp
	sub	esp, 12					; 0000000cH
	mov	DWORD PTR _this$[ebp], ecx

; 165  : 		_SIZT _Count = (_SIZT)(-1) / sizeof (_Ty);

	mov	DWORD PTR __Count$[ebp], 536870911	; 1fffffffH

; 166  : 		return (0 < _Count ? _Count : 1);

	cmp	DWORD PTR __Count$[ebp], 0
	jbe	SHORT $LN3@max_size
	mov	eax, DWORD PTR __Count$[ebp]
	mov	DWORD PTR tv65[ebp], eax
	jmp	SHORT $LN4@max_size
$LN3@max_size:
	mov	DWORD PTR tv65[ebp], 1
$LN4@max_size:
	mov	eax, DWORD PTR tv65[ebp]

; 167  : 		}

	mov	esp, ebp
	pop	ebp
	ret	0
?max_size@?$allocator@U?$pair@$$CBIPAVHardwareBufferPool@Ogre@@@std@@@std@@QBEIXZ ENDP ; std::allocator<std::pair<unsigned int const ,Ogre::HardwareBufferPool *> >::max_size
; Function compile flags: /Odtp
; File d:\program files (x86)\microsoft visual studio 9.0\vc\include\xtree
_TEXT	ENDS
;	COMDAT ??0_Node@?$_Tree_nod@V?$_Tmap_traits@IPAVHardwareBufferPool@Ogre@@U?$less@I@std@@V?$allocator@U?$pair@$$CBIPAVHardwareBufferPool@Ogre@@@std@@@4@$0A@@std@@@std@@QAE@PAU012@00ABU?$pair@$$CBIPAVHardwareBufferPool@Ogre@@@2@D@Z
_TEXT	SEGMENT
_this$ = -4						; size = 4
__Larg$ = 8						; size = 4
__Parg$ = 12						; size = 4
__Rarg$ = 16						; size = 4
__Val$ = 20						; size = 4
__Carg$ = 24						; size = 1
??0_Node@?$_Tree_nod@V?$_Tmap_traits@IPAVHardwareBufferPool@Ogre@@U?$less@I@std@@V?$allocator@U?$pair@$$CBIPAVHardwareBufferPool@Ogre@@@std@@@4@$0A@@std@@@std@@QAE@PAU012@00ABU?$pair@$$CBIPAVHardwareBufferPool@Ogre@@@2@D@Z PROC ; std::_Tree_nod<std::_Tmap_traits<unsigned int,Ogre::HardwareBufferPool *,std::less<unsigned int>,std::allocator<std::pair<unsigned int const ,Ogre::HardwareBufferPool *> >,0> >::_Node::_Node, COMDAT
; _this$ = ecx

; 38   : 			{	// construct a node with value

	push	ebp
	mov	ebp, esp
	push	ecx
	mov	DWORD PTR _this$[ebp], ecx
	mov	eax, DWORD PTR _this$[ebp]
	mov	ecx, DWORD PTR __Larg$[ebp]
	mov	DWORD PTR [eax], ecx
	mov	edx, DWORD PTR _this$[ebp]
	mov	eax, DWORD PTR __Parg$[ebp]
	mov	DWORD PTR [edx+4], eax
	mov	ecx, DWORD PTR _this$[ebp]
	mov	edx, DWORD PTR __Rarg$[ebp]
	mov	DWORD PTR [ecx+8], edx
	mov	eax, DWORD PTR __Val$[ebp]
	mov	ecx, DWORD PTR [eax]
	mov	edx, DWORD PTR [eax+4]
	mov	eax, DWORD PTR _this$[ebp]
	mov	DWORD PTR [eax+12], ecx
	mov	DWORD PTR [eax+16], edx
	mov	ecx, DWORD PTR _this$[ebp]
	mov	dl, BYTE PTR __Carg$[ebp]
	mov	BYTE PTR [ecx+20], dl
	mov	eax, DWORD PTR _this$[ebp]
	mov	BYTE PTR [eax+21], 0

; 39   : 			}

	mov	eax, DWORD PTR _this$[ebp]
	mov	esp, ebp
	pop	ebp
	ret	20					; 00000014H
??0_Node@?$_Tree_nod@V?$_Tmap_traits@IPAVHardwareBufferPool@Ogre@@U?$less@I@std@@V?$allocator@U?$pair@$$CBIPAVHardwareBufferPool@Ogre@@@std@@@4@$0A@@std@@@std@@QAE@PAU012@00ABU?$pair@$$CBIPAVHardwareBufferPool@Ogre@@@2@D@Z ENDP ; std::_Tree_nod<std::_Tmap_traits<unsigned int,Ogre::HardwareBufferPool *,std::less<unsigned int>,std::allocator<std::pair<unsigned int const ,Ogre::HardwareBufferPool *> >,0> >::_Node::_Node
_TEXT	ENDS
PUBLIC	??0_Aux_cont@std@@QAE@QBV_Container_base_aux@1@@Z ; std::_Aux_cont::_Aux_cont
PUBLIC	?allocate@?$allocator@V_Aux_cont@std@@@std@@QAEPAV_Aux_cont@2@I@Z ; std::allocator<std::_Aux_cont>::allocate
PUBLIC	??$?0U?$pair@$$CBIPAVHardwareBufferPool@Ogre@@@std@@@?$allocator@V_Aux_cont@std@@@std@@QAE@ABV?$allocator@U?$pair@$$CBIPAVHardwareBufferPool@Ogre@@@std@@@1@@Z ; std::allocator<std::_Aux_cont>::allocator<std::_Aux_cont><std::pair<unsigned int const ,Ogre::HardwareBufferPool *> >
PUBLIC	??0_Container_base_aux@std@@QAE@XZ		; std::_Container_base_aux::_Container_base_aux
;	COMDAT xdata$x
; File d:\program files (x86)\microsoft visual studio 9.0\vc\include\xutility
xdata$x	SEGMENT
__unwindtable$??0?$_Container_base_aux_alloc_real@V?$allocator@U?$pair@$$CBIPAVHardwareBufferPool@Ogre@@@std@@@std@@@std@@IAE@V?$allocator@U?$pair@$$CBIPAVHardwareBufferPool@Ogre@@@std@@@1@@Z DD 0ffffffffH
	DD	FLAT:__unwindfunclet$??0?$_Container_base_aux_alloc_real@V?$allocator@U?$pair@$$CBIPAVHardwareBufferPool@Ogre@@@std@@@std@@@std@@IAE@V?$allocator@U?$pair@$$CBIPAVHardwareBufferPool@Ogre@@@std@@@1@@Z$0
	DD	00H
	DD	FLAT:__unwindfunclet$??0?$_Container_base_aux_alloc_real@V?$allocator@U?$pair@$$CBIPAVHardwareBufferPool@Ogre@@@std@@@std@@@std@@IAE@V?$allocator@U?$pair@$$CBIPAVHardwareBufferPool@Ogre@@@std@@@1@@Z$1
__ehfuncinfo$??0?$_Container_base_aux_alloc_real@V?$allocator@U?$pair@$$CBIPAVHardwareBufferPool@Ogre@@@std@@@std@@@std@@IAE@V?$allocator@U?$pair@$$CBIPAVHardwareBufferPool@Ogre@@@std@@@1@@Z DD 019930522H
	DD	02H
	DD	FLAT:__unwindtable$??0?$_Container_base_aux_alloc_real@V?$allocator@U?$pair@$$CBIPAVHardwareBufferPool@Ogre@@@std@@@std@@@std@@IAE@V?$allocator@U?$pair@$$CBIPAVHardwareBufferPool@Ogre@@@std@@@1@@Z
	DD	2 DUP(00H)
	DD	2 DUP(00H)
	DD	00H
	DD	00H
; Function compile flags: /Odtp
xdata$x	ENDS
;	COMDAT ??0?$_Container_base_aux_alloc_real@V?$allocator@U?$pair@$$CBIPAVHardwareBufferPool@Ogre@@@std@@@std@@@std@@IAE@V?$allocator@U?$pair@$$CBIPAVHardwareBufferPool@Ogre@@@std@@@1@@Z
_TEXT	SEGMENT
tv133 = -32						; size = 4
_this$ = -28						; size = 4
$T64560 = -24						; size = 4
$T64559 = -20						; size = 4
$T64558 = -16						; size = 4
__$EHRec$ = -12						; size = 12
__Al$ = 8						; size = 1
??0?$_Container_base_aux_alloc_real@V?$allocator@U?$pair@$$CBIPAVHardwareBufferPool@Ogre@@@std@@@std@@@std@@IAE@V?$allocator@U?$pair@$$CBIPAVHardwareBufferPool@Ogre@@@std@@@1@@Z PROC ; std::_Container_base_aux_alloc_real<std::allocator<std::pair<unsigned int const ,Ogre::HardwareBufferPool *> > >::_Container_base_aux_alloc_real<std::allocator<std::pair<unsigned int const ,Ogre::HardwareBufferPool *> > >, COMDAT
; _this$ = ecx

; 419  : 		{

	push	ebp
	mov	ebp, esp
	push	-1
	push	__ehhandler$??0?$_Container_base_aux_alloc_real@V?$allocator@U?$pair@$$CBIPAVHardwareBufferPool@Ogre@@@std@@@std@@@std@@IAE@V?$allocator@U?$pair@$$CBIPAVHardwareBufferPool@Ogre@@@std@@@1@@Z
	mov	eax, DWORD PTR fs:0
	push	eax
	sub	esp, 20					; 00000014H
	mov	eax, DWORD PTR ___security_cookie
	xor	eax, ebp
	push	eax
	lea	eax, DWORD PTR __$EHRec$[ebp]
	mov	DWORD PTR fs:0, eax
	mov	DWORD PTR _this$[ebp], ecx
	mov	ecx, DWORD PTR _this$[ebp]
	call	??0_Container_base_aux@std@@QAE@XZ	; std::_Container_base_aux::_Container_base_aux
	mov	DWORD PTR __$EHRec$[ebp+8], 0
	lea	eax, DWORD PTR __Al$[ebp]
	push	eax
	mov	ecx, DWORD PTR _this$[ebp]
	add	ecx, 4
	call	??$?0U?$pair@$$CBIPAVHardwareBufferPool@Ogre@@@std@@@?$allocator@V_Aux_cont@std@@@std@@QAE@ABV?$allocator@U?$pair@$$CBIPAVHardwareBufferPool@Ogre@@@std@@@1@@Z ; std::allocator<std::_Aux_cont>::allocator<std::_Aux_cont><std::pair<unsigned int const ,Ogre::HardwareBufferPool *> >

; 420  : 		_Myownedaux = new (_Alaux.allocate(1)) _Aux_cont(this);

	push	1
	mov	ecx, DWORD PTR _this$[ebp]
	add	ecx, 4
	call	?allocate@?$allocator@V_Aux_cont@std@@@std@@QAEPAV_Aux_cont@2@I@Z ; std::allocator<std::_Aux_cont>::allocate
	mov	DWORD PTR $T64560[ebp], eax
	mov	ecx, DWORD PTR $T64560[ebp]
	push	ecx
	push	4
	call	??2@YAPAXIPAX@Z				; operator new
	add	esp, 8
	mov	DWORD PTR $T64559[ebp], eax
	mov	BYTE PTR __$EHRec$[ebp+8], 1
	cmp	DWORD PTR $T64559[ebp], 0
	je	SHORT $LN3@Container_
	mov	edx, DWORD PTR _this$[ebp]
	push	edx
	mov	ecx, DWORD PTR $T64559[ebp]
	call	??0_Aux_cont@std@@QAE@QBV_Container_base_aux@1@@Z ; std::_Aux_cont::_Aux_cont
	mov	DWORD PTR tv133[ebp], eax
	jmp	SHORT $LN4@Container_
$LN3@Container_:
	mov	DWORD PTR tv133[ebp], 0
$LN4@Container_:
	mov	eax, DWORD PTR tv133[ebp]
	mov	DWORD PTR $T64558[ebp], eax
	mov	BYTE PTR __$EHRec$[ebp+8], 0
	mov	ecx, DWORD PTR _this$[ebp]
	mov	edx, DWORD PTR $T64558[ebp]
	mov	DWORD PTR [ecx], edx

; 421  : 		}

	mov	DWORD PTR __$EHRec$[ebp+8], -1
	mov	eax, DWORD PTR _this$[ebp]
	mov	ecx, DWORD PTR __$EHRec$[ebp]
	mov	DWORD PTR fs:0, ecx
	pop	ecx
	mov	esp, ebp
	pop	ebp
	ret	4
_TEXT	ENDS
;	COMDAT text$x
text$x	SEGMENT
__unwindfunclet$??0?$_Container_base_aux_alloc_real@V?$allocator@U?$pair@$$CBIPAVHardwareBufferPool@Ogre@@@std@@@std@@@std@@IAE@V?$allocator@U?$pair@$$CBIPAVHardwareBufferPool@Ogre@@@std@@@1@@Z$0:
	mov	ecx, DWORD PTR _this$[ebp]
	jmp	??1_Container_base_aux@std@@QAE@XZ	; std::_Container_base_aux::~_Container_base_aux
__unwindfunclet$??0?$_Container_base_aux_alloc_real@V?$allocator@U?$pair@$$CBIPAVHardwareBufferPool@Ogre@@@std@@@std@@@std@@IAE@V?$allocator@U?$pair@$$CBIPAVHardwareBufferPool@Ogre@@@std@@@1@@Z$1:
	mov	eax, DWORD PTR $T64560[ebp]
	push	eax
	mov	ecx, DWORD PTR $T64559[ebp]
	push	ecx
	call	??3@YAXPAX0@Z				; operator delete
	add	esp, 8
	ret	0
__ehhandler$??0?$_Container_base_aux_alloc_real@V?$allocator@U?$pair@$$CBIPAVHardwareBufferPool@Ogre@@@std@@@std@@@std@@IAE@V?$allocator@U?$pair@$$CBIPAVHardwareBufferPool@Ogre@@@std@@@1@@Z:
	mov	edx, DWORD PTR [esp+8]
	lea	eax, DWORD PTR [edx+12]
	mov	ecx, DWORD PTR [edx-24]
	xor	ecx, eax
	call	@__security_check_cookie@4
	mov	eax, OFFSET __ehfuncinfo$??0?$_Container_base_aux_alloc_real@V?$allocator@U?$pair@$$CBIPAVHardwareBufferPool@Ogre@@@std@@@std@@@std@@IAE@V?$allocator@U?$pair@$$CBIPAVHardwareBufferPool@Ogre@@@std@@@1@@Z
	jmp	___CxxFrameHandler3
text$x	ENDS
??0?$_Container_base_aux_alloc_real@V?$allocator@U?$pair@$$CBIPAVHardwareBufferPool@Ogre@@@std@@@std@@@std@@IAE@V?$allocator@U?$pair@$$CBIPAVHardwareBufferPool@Ogre@@@std@@@1@@Z ENDP ; std::_Container_base_aux_alloc_real<std::allocator<std::pair<unsigned int const ,Ogre::HardwareBufferPool *> > >::_Container_base_aux_alloc_real<std::allocator<std::pair<unsigned int const ,Ogre::HardwareBufferPool *> > >
; Function compile flags: /Odtp
;	COMDAT ??0_Aux_cont@std@@QAE@QBV_Container_base_aux@1@@Z
_TEXT	SEGMENT
_this$ = -4						; size = 4
__Pcont$ = 8						; size = 4
??0_Aux_cont@std@@QAE@QBV_Container_base_aux@1@@Z PROC	; std::_Aux_cont::_Aux_cont, COMDAT
; _this$ = ecx

; 364  : 	explicit _Aux_cont(const _Container_base_aux * const _Pcont)

	push	ebp
	mov	ebp, esp
	push	ecx
	mov	DWORD PTR _this$[ebp], ecx
	mov	eax, DWORD PTR _this$[ebp]
	mov	ecx, DWORD PTR __Pcont$[ebp]
	mov	DWORD PTR [eax], ecx
	mov	eax, DWORD PTR _this$[ebp]
	mov	esp, ebp
	pop	ebp
	ret	4
??0_Aux_cont@std@@QAE@QBV_Container_base_aux@1@@Z ENDP	; std::_Aux_cont::_Aux_cont
; Function compile flags: /Odtp
_TEXT	ENDS
;	COMDAT ??0_Container_base_aux@std@@QAE@XZ
_TEXT	SEGMENT
_this$ = -4						; size = 4
??0_Container_base_aux@std@@QAE@XZ PROC			; std::_Container_base_aux::_Container_base_aux, COMDAT
; _this$ = ecx

; 379  : 	_Container_base_aux()

	push	ebp
	mov	ebp, esp
	push	ecx
	mov	DWORD PTR _this$[ebp], ecx

; 380  : 		{
; 381  : 		// Do nothing: _Container_base_aux_alloc_real() will construct the aux object.
; 382  : 		}

	mov	eax, DWORD PTR _this$[ebp]
	mov	esp, ebp
	pop	ebp
	ret	0
??0_Container_base_aux@std@@QAE@XZ ENDP			; std::_Container_base_aux::_Container_base_aux
_TEXT	ENDS
PUBLIC	??$_Allocate@V_Aux_cont@std@@@std@@YAPAV_Aux_cont@0@IPAV10@@Z ; std::_Allocate<std::_Aux_cont>
; Function compile flags: /Odtp
; File d:\program files (x86)\microsoft visual studio 9.0\vc\include\xmemory
;	COMDAT ?allocate@?$allocator@V_Aux_cont@std@@@std@@QAEPAV_Aux_cont@2@I@Z
_TEXT	SEGMENT
_this$ = -4						; size = 4
__Count$ = 8						; size = 4
?allocate@?$allocator@V_Aux_cont@std@@@std@@QAEPAV_Aux_cont@2@I@Z PROC ; std::allocator<std::_Aux_cont>::allocate, COMDAT
; _this$ = ecx

; 144  : 		{	// allocate array of _Count elements

	push	ebp
	mov	ebp, esp
	push	ecx
	mov	DWORD PTR _this$[ebp], ecx

; 145  : 		return (_Allocate(_Count, (pointer)0));

	push	0
	mov	eax, DWORD PTR __Count$[ebp]
	push	eax
	call	??$_Allocate@V_Aux_cont@std@@@std@@YAPAV_Aux_cont@0@IPAV10@@Z ; std::_Allocate<std::_Aux_cont>
	add	esp, 8

; 146  : 		}

	mov	esp, ebp
	pop	ebp
	ret	4
?allocate@?$allocator@V_Aux_cont@std@@@std@@QAEPAV_Aux_cont@2@I@Z ENDP ; std::allocator<std::_Aux_cont>::allocate
; Function compile flags: /Odtp
; File i:\svnroot\client\ogremain\ogremath.h
_TEXT	ENDS
;	COMDAT ??$Max@I@Ogre@@YAIABI0@Z
_TEXT	SEGMENT
tv65 = -4						; size = 4
_a$ = 8							; size = 4
_b$ = 12						; size = 4
??$Max@I@Ogre@@YAIABI0@Z PROC				; Ogre::Max<unsigned int>, COMDAT

; 120  : 	{

	push	ebp
	mov	ebp, esp
	push	ecx

; 121  : 		return ( (a) > (b) ? (a) : (b) );

	mov	eax, DWORD PTR _a$[ebp]
	mov	ecx, DWORD PTR _b$[ebp]
	mov	edx, DWORD PTR [eax]
	cmp	edx, DWORD PTR [ecx]
	jbe	SHORT $LN3@Max@2
	mov	eax, DWORD PTR _a$[ebp]
	mov	ecx, DWORD PTR [eax]
	mov	DWORD PTR tv65[ebp], ecx
	jmp	SHORT $LN4@Max@2
$LN3@Max@2:
	mov	edx, DWORD PTR _b$[ebp]
	mov	eax, DWORD PTR [edx]
	mov	DWORD PTR tv65[ebp], eax
$LN4@Max@2:
	mov	eax, DWORD PTR tv65[ebp]

; 122  : 	}

	mov	esp, ebp
	pop	ebp
	ret	0
??$Max@I@Ogre@@YAIABI0@Z ENDP				; Ogre::Max<unsigned int>
; Function compile flags: /Odtp
; File d:\program files (x86)\microsoft visual studio 9.0\vc\include\utility
_TEXT	ENDS
;	COMDAT ??$swap@D@std@@YAXAAD0@Z
_TEXT	SEGMENT
__Tmp$61872 = -1					; size = 1
__Left$ = 8						; size = 4
__Right$ = 12						; size = 4
??$swap@D@std@@YAXAAD0@Z PROC				; std::swap<char>, COMDAT

; 17   : 	{	// exchange values stored at _Left and _Right

	push	ebp
	mov	ebp, esp
	push	ecx

; 18   : 	if (&_Left != &_Right)

	mov	eax, DWORD PTR __Left$[ebp]
	cmp	eax, DWORD PTR __Right$[ebp]
	je	SHORT $LN2@swap

; 19   : 		{	// different, worth swapping
; 20   : 		_Ty _Tmp = _Left;

	mov	ecx, DWORD PTR __Left$[ebp]
	mov	dl, BYTE PTR [ecx]
	mov	BYTE PTR __Tmp$61872[ebp], dl

; 21   : 
; 22   : 		_Left = _Right;

	mov	eax, DWORD PTR __Left$[ebp]
	mov	ecx, DWORD PTR __Right$[ebp]
	mov	dl, BYTE PTR [ecx]
	mov	BYTE PTR [eax], dl

; 23   : 		_Right = _Tmp;

	mov	eax, DWORD PTR __Right$[ebp]
	mov	cl, BYTE PTR __Tmp$61872[ebp]
	mov	BYTE PTR [eax], cl
$LN2@swap:

; 24   : 		}
; 25   : 	}

	mov	esp, ebp
	pop	ebp
	ret	0
??$swap@D@std@@YAXAAD0@Z ENDP				; std::swap<char>
; Function compile flags: /Odtp
; File d:\program files (x86)\microsoft visual studio 9.0\vc\include\xmemory
_TEXT	ENDS
;	COMDAT ??$?0U?$pair@$$CBIPAVHardwareBufferPool@Ogre@@@std@@@?$allocator@PAU_Node@?$_Tree_nod@V?$_Tmap_traits@IPAVHardwareBufferPool@Ogre@@U?$less@I@std@@V?$allocator@U?$pair@$$CBIPAVHardwareBufferPool@Ogre@@@std@@@4@$0A@@std@@@std@@@std@@QAE@ABV?$allocator@U?$pair@$$CBIPAVHardwareBufferPool@Ogre@@@std@@@1@@Z
_TEXT	SEGMENT
_this$ = -4						; size = 4
___formal$ = 8						; size = 4
??$?0U?$pair@$$CBIPAVHardwareBufferPool@Ogre@@@std@@@?$allocator@PAU_Node@?$_Tree_nod@V?$_Tmap_traits@IPAVHardwareBufferPool@Ogre@@U?$less@I@std@@V?$allocator@U?$pair@$$CBIPAVHardwareBufferPool@Ogre@@@std@@@4@$0A@@std@@@std@@@std@@QAE@ABV?$allocator@U?$pair@$$CBIPAVHardwareBufferPool@Ogre@@@std@@@1@@Z PROC ; std::allocator<std::_Tree_nod<std::_Tmap_traits<unsigned int,Ogre::HardwareBufferPool *,std::less<unsigned int>,std::allocator<std::pair<unsigned int const ,Ogre::HardwareBufferPool *> >,0> >::_Node *>::allocator<std::_Tree_nod<std::_Tmap_traits<unsigned int,Ogre::HardwareBufferPool *,std::less<unsigned int>,std::allocator<std::pair<unsigned int const ,Ogre::HardwareBufferPool *> >,0> >::_Node *><std::pair<unsigned int const ,Ogre::HardwareBufferPool *> >, COMDAT
; _this$ = ecx

; 128  : 		allocator(const allocator<_Other>&) _THROW0()

	push	ebp
	mov	ebp, esp
	push	ecx
	mov	DWORD PTR _this$[ebp], ecx

; 129  : 		{	// construct from a related allocator (do nothing)
; 130  : 		}

	mov	eax, DWORD PTR _this$[ebp]
	mov	esp, ebp
	pop	ebp
	ret	4
??$?0U?$pair@$$CBIPAVHardwareBufferPool@Ogre@@@std@@@?$allocator@PAU_Node@?$_Tree_nod@V?$_Tmap_traits@IPAVHardwareBufferPool@Ogre@@U?$less@I@std@@V?$allocator@U?$pair@$$CBIPAVHardwareBufferPool@Ogre@@@std@@@4@$0A@@std@@@std@@@std@@QAE@ABV?$allocator@U?$pair@$$CBIPAVHardwareBufferPool@Ogre@@@std@@@1@@Z ENDP ; std::allocator<std::_Tree_nod<std::_Tmap_traits<unsigned int,Ogre::HardwareBufferPool *,std::less<unsigned int>,std::allocator<std::pair<unsigned int const ,Ogre::HardwareBufferPool *> >,0> >::_Node *>::allocator<std::_Tree_nod<std::_Tmap_traits<unsigned int,Ogre::HardwareBufferPool *,std::less<unsigned int>,std::allocator<std::pair<unsigned int const ,Ogre::HardwareBufferPool *> >,0> >::_Node *><std::pair<unsigned int const ,Ogre::HardwareBufferPool *> >
; Function compile flags: /Odtp
_TEXT	ENDS
;	COMDAT ??$_Destroy@PAU_Node@?$_Tree_nod@V?$_Tmap_traits@IPAVHardwareBufferPool@Ogre@@U?$less@I@std@@V?$allocator@U?$pair@$$CBIPAVHardwareBufferPool@Ogre@@@std@@@4@$0A@@std@@@std@@@std@@YAXPAPAU_Node@?$_Tree_nod@V?$_Tmap_traits@IPAVHardwareBufferPool@Ogre@@U?$less@I@std@@V?$allocator@U?$pair@$$CBIPAVHardwareBufferPool@Ogre@@@std@@@4@$0A@@std@@@0@@Z
_TEXT	SEGMENT
__Ptr$ = 8						; size = 4
??$_Destroy@PAU_Node@?$_Tree_nod@V?$_Tmap_traits@IPAVHardwareBufferPool@Ogre@@U?$less@I@std@@V?$allocator@U?$pair@$$CBIPAVHardwareBufferPool@Ogre@@@std@@@4@$0A@@std@@@std@@@std@@YAXPAPAU_Node@?$_Tree_nod@V?$_Tmap_traits@IPAVHardwareBufferPool@Ogre@@U?$less@I@std@@V?$allocator@U?$pair@$$CBIPAVHardwareBufferPool@Ogre@@@std@@@4@$0A@@std@@@0@@Z PROC ; std::_Destroy<std::_Tree_nod<std::_Tmap_traits<unsigned int,Ogre::HardwareBufferPool *,std::less<unsigned int>,std::allocator<std::pair<unsigned int const ,Ogre::HardwareBufferPool *> >,0> >::_Node *>, COMDAT

; 58   : 	{	// destroy object at _Ptr

	push	ebp
	mov	ebp, esp

; 59   : 	_DESTRUCTOR(_Ty, _Ptr);
; 60   : 	}

	pop	ebp
	ret	0
??$_Destroy@PAU_Node@?$_Tree_nod@V?$_Tmap_traits@IPAVHardwareBufferPool@Ogre@@U?$less@I@std@@V?$allocator@U?$pair@$$CBIPAVHardwareBufferPool@Ogre@@@std@@@4@$0A@@std@@@std@@@std@@YAXPAPAU_Node@?$_Tree_nod@V?$_Tmap_traits@IPAVHardwareBufferPool@Ogre@@U?$less@I@std@@V?$allocator@U?$pair@$$CBIPAVHardwareBufferPool@Ogre@@@std@@@4@$0A@@std@@@0@@Z ENDP ; std::_Destroy<std::_Tree_nod<std::_Tmap_traits<unsigned int,Ogre::HardwareBufferPool *,std::less<unsigned int>,std::allocator<std::pair<unsigned int const ,Ogre::HardwareBufferPool *> >,0> >::_Node *>
; Function compile flags: /Odtp
_TEXT	ENDS
;	COMDAT ??$?0U?$pair@$$CBIPAVHardwareBufferPool@Ogre@@@std@@@?$allocator@U_Node@?$_Tree_nod@V?$_Tmap_traits@IPAVHardwareBufferPool@Ogre@@U?$less@I@std@@V?$allocator@U?$pair@$$CBIPAVHardwareBufferPool@Ogre@@@std@@@4@$0A@@std@@@std@@@std@@QAE@ABV?$allocator@U?$pair@$$CBIPAVHardwareBufferPool@Ogre@@@std@@@1@@Z
_TEXT	SEGMENT
_this$ = -4						; size = 4
___formal$ = 8						; size = 4
??$?0U?$pair@$$CBIPAVHardwareBufferPool@Ogre@@@std@@@?$allocator@U_Node@?$_Tree_nod@V?$_Tmap_traits@IPAVHardwareBufferPool@Ogre@@U?$less@I@std@@V?$allocator@U?$pair@$$CBIPAVHardwareBufferPool@Ogre@@@std@@@4@$0A@@std@@@std@@@std@@QAE@ABV?$allocator@U?$pair@$$CBIPAVHardwareBufferPool@Ogre@@@std@@@1@@Z PROC ; std::allocator<std::_Tree_nod<std::_Tmap_traits<unsigned int,Ogre::HardwareBufferPool *,std::less<unsigned int>,std::allocator<std::pair<unsigned int const ,Ogre::HardwareBufferPool *> >,0> >::_Node>::allocator<std::_Tree_nod<std::_Tmap_traits<unsigned int,Ogre::HardwareBufferPool *,std::less<unsigned int>,std::allocator<std::pair<unsigned int const ,Ogre::HardwareBufferPool *> >,0> >::_Node><std::pair<unsigned int const ,Ogre::HardwareBufferPool *> >, COMDAT
; _this$ = ecx

; 128  : 		allocator(const allocator<_Other>&) _THROW0()

	push	ebp
	mov	ebp, esp
	push	ecx
	mov	DWORD PTR _this$[ebp], ecx

; 129  : 		{	// construct from a related allocator (do nothing)
; 130  : 		}

	mov	eax, DWORD PTR _this$[ebp]
	mov	esp, ebp
	pop	ebp
	ret	4
??$?0U?$pair@$$CBIPAVHardwareBufferPool@Ogre@@@std@@@?$allocator@U_Node@?$_Tree_nod@V?$_Tmap_traits@IPAVHardwareBufferPool@Ogre@@U?$less@I@std@@V?$allocator@U?$pair@$$CBIPAVHardwareBufferPool@Ogre@@@std@@@4@$0A@@std@@@std@@@std@@QAE@ABV?$allocator@U?$pair@$$CBIPAVHardwareBufferPool@Ogre@@@std@@@1@@Z ENDP ; std::allocator<std::_Tree_nod<std::_Tmap_traits<unsigned int,Ogre::HardwareBufferPool *,std::less<unsigned int>,std::allocator<std::pair<unsigned int const ,Ogre::HardwareBufferPool *> >,0> >::_Node>::allocator<std::_Tree_nod<std::_Tmap_traits<unsigned int,Ogre::HardwareBufferPool *,std::less<unsigned int>,std::allocator<std::pair<unsigned int const ,Ogre::HardwareBufferPool *> >,0> >::_Node><std::pair<unsigned int const ,Ogre::HardwareBufferPool *> >
_TEXT	ENDS
PUBLIC	__TI2?AVbad_alloc@std@@
PUBLIC	??0bad_alloc@std@@QAE@PBD@Z			; std::bad_alloc::bad_alloc
PUBLIC	??1bad_alloc@std@@UAE@XZ			; std::bad_alloc::~bad_alloc
PUBLIC	__CTA2?AVbad_alloc@std@@
PUBLIC	__CT??_R0?AVbad_alloc@std@@@8??0bad_alloc@std@@QAE@ABV01@@Z12
PUBLIC	??_R0?AVbad_alloc@std@@@8			; std::bad_alloc `RTTI Type Descriptor'
PUBLIC	??0bad_alloc@std@@QAE@ABV01@@Z			; std::bad_alloc::bad_alloc
;	COMDAT ??_R0?AVbad_alloc@std@@@8
_DATA	SEGMENT
??_R0?AVbad_alloc@std@@@8 DD FLAT:??_7type_info@@6B@	; std::bad_alloc `RTTI Type Descriptor'
	DD	00H
	DB	'.?AVbad_alloc@std@@', 00H
_DATA	ENDS
;	COMDAT __CT??_R0?AVbad_alloc@std@@@8??0bad_alloc@std@@QAE@ABV01@@Z12
xdata$x	SEGMENT
__CT??_R0?AVbad_alloc@std@@@8??0bad_alloc@std@@QAE@ABV01@@Z12 DD 00H
	DD	FLAT:??_R0?AVbad_alloc@std@@@8
	DD	00H
	DD	0ffffffffH
	ORG $+4
	DD	0cH
	DD	FLAT:??0bad_alloc@std@@QAE@ABV01@@Z
xdata$x	ENDS
;	COMDAT __CTA2?AVbad_alloc@std@@
xdata$x	SEGMENT
__CTA2?AVbad_alloc@std@@ DD 02H
	DD	FLAT:__CT??_R0?AVbad_alloc@std@@@8??0bad_alloc@std@@QAE@ABV01@@Z12
	DD	FLAT:__CT??_R0?AVexception@std@@@8??0exception@std@@QAE@ABV01@@Z12
xdata$x	ENDS
;	COMDAT __TI2?AVbad_alloc@std@@
xdata$x	SEGMENT
__TI2?AVbad_alloc@std@@ DD 00H
	DD	FLAT:??1bad_alloc@std@@UAE@XZ
	DD	00H
	DD	FLAT:__CTA2?AVbad_alloc@std@@
; Function compile flags: /Odtp
xdata$x	ENDS
;	COMDAT ??$_Allocate@U_Node@?$_Tree_nod@V?$_Tmap_traits@IPAVHardwareBufferPool@Ogre@@U?$less@I@std@@V?$allocator@U?$pair@$$CBIPAVHardwareBufferPool@Ogre@@@std@@@4@$0A@@std@@@std@@@std@@YAPAU_Node@?$_Tree_nod@V?$_Tmap_traits@IPAVHardwareBufferPool@Ogre@@U?$less@I@std@@V?$allocator@U?$pair@$$CBIPAVHardwareBufferPool@Ogre@@@std@@@4@$0A@@std@@@0@IPAU120@@Z
_TEXT	SEGMENT
$T64591 = -12						; size = 12
__Count$ = 8						; size = 4
___formal$ = 12						; size = 4
??$_Allocate@U_Node@?$_Tree_nod@V?$_Tmap_traits@IPAVHardwareBufferPool@Ogre@@U?$less@I@std@@V?$allocator@U?$pair@$$CBIPAVHardwareBufferPool@Ogre@@@std@@@4@$0A@@std@@@std@@@std@@YAPAU_Node@?$_Tree_nod@V?$_Tmap_traits@IPAVHardwareBufferPool@Ogre@@U?$less@I@std@@V?$allocator@U?$pair@$$CBIPAVHardwareBufferPool@Ogre@@@std@@@4@$0A@@std@@@0@IPAU120@@Z PROC ; std::_Allocate<std::_Tree_nod<std::_Tmap_traits<unsigned int,Ogre::HardwareBufferPool *,std::less<unsigned int>,std::allocator<std::pair<unsigned int const ,Ogre::HardwareBufferPool *> >,0> >::_Node>, COMDAT

; 36   : 	{	// check for integer overflow

	push	ebp
	mov	ebp, esp
	sub	esp, 12					; 0000000cH

; 37   : 	if (_Count <= 0)

	cmp	DWORD PTR __Count$[ebp], 0
	ja	SHORT $LN3@Allocate

; 38   : 		_Count = 0;

	mov	DWORD PTR __Count$[ebp], 0
	jmp	SHORT $LN2@Allocate
$LN3@Allocate:

; 39   : 	else if (((_SIZT)(-1) / _Count) < sizeof (_Ty))

	or	eax, -1
	xor	edx, edx
	div	DWORD PTR __Count$[ebp]
	cmp	eax, 24					; 00000018H
	jae	SHORT $LN2@Allocate

; 40   : 		_THROW_NCEE(std::bad_alloc, NULL);

	push	0
	lea	ecx, DWORD PTR $T64591[ebp]
	call	??0bad_alloc@std@@QAE@PBD@Z		; std::bad_alloc::bad_alloc
	push	OFFSET __TI2?AVbad_alloc@std@@
	lea	eax, DWORD PTR $T64591[ebp]
	push	eax
	call	__CxxThrowException@8
$LN2@Allocate:

; 41   : 
; 42   : 		// allocate storage for _Count elements of type _Ty
; 43   : 	return ((_Ty _FARQ *)::operator new(_Count * sizeof (_Ty)));

	mov	ecx, DWORD PTR __Count$[ebp]
	imul	ecx, 24					; 00000018H
	push	ecx
	call	??2@YAPAXI@Z				; operator new
	add	esp, 4
$LN5@Allocate:

; 44   : 	}

	mov	esp, ebp
	pop	ebp
	ret	0
??$_Allocate@U_Node@?$_Tree_nod@V?$_Tmap_traits@IPAVHardwareBufferPool@Ogre@@U?$less@I@std@@V?$allocator@U?$pair@$$CBIPAVHardwareBufferPool@Ogre@@@std@@@4@$0A@@std@@@std@@@std@@YAPAU_Node@?$_Tree_nod@V?$_Tmap_traits@IPAVHardwareBufferPool@Ogre@@U?$less@I@std@@V?$allocator@U?$pair@$$CBIPAVHardwareBufferPool@Ogre@@@std@@@4@$0A@@std@@@0@IPAU120@@Z ENDP ; std::_Allocate<std::_Tree_nod<std::_Tmap_traits<unsigned int,Ogre::HardwareBufferPool *,std::less<unsigned int>,std::allocator<std::pair<unsigned int const ,Ogre::HardwareBufferPool *> >,0> >::_Node>
_TEXT	ENDS
PUBLIC	??_7bad_alloc@std@@6B@				; std::bad_alloc::`vftable'
PUBLIC	??_R4bad_alloc@std@@6B@				; std::bad_alloc::`RTTI Complete Object Locator'
PUBLIC	??_R3bad_alloc@std@@8				; std::bad_alloc::`RTTI Class Hierarchy Descriptor'
PUBLIC	??_R2bad_alloc@std@@8				; std::bad_alloc::`RTTI Base Class Array'
PUBLIC	??_R1A@?0A@EA@bad_alloc@std@@8			; std::bad_alloc::`RTTI Base Class Descriptor at (0,-1,0,64)'
EXTRN	__imp_??0exception@std@@QAE@ABQBD@Z:PROC
EXTRN	??_Ebad_alloc@std@@UAEPAXI@Z:PROC		; std::bad_alloc::`vector deleting destructor'
EXTRN	?what@exception@std@@UBEPBDXZ:PROC		; std::exception::what
;	COMDAT ??_R1A@?0A@EA@bad_alloc@std@@8
; File d:\program files (x86)\microsoft visual studio 9.0\vc\include\exception
rdata$r	SEGMENT
??_R1A@?0A@EA@bad_alloc@std@@8 DD FLAT:??_R0?AVbad_alloc@std@@@8 ; std::bad_alloc::`RTTI Base Class Descriptor at (0,-1,0,64)'
	DD	01H
	DD	00H
	DD	0ffffffffH
	DD	00H
	DD	040H
	DD	FLAT:??_R3bad_alloc@std@@8
rdata$r	ENDS
;	COMDAT ??_R2bad_alloc@std@@8
rdata$r	SEGMENT
??_R2bad_alloc@std@@8 DD FLAT:??_R1A@?0A@EA@bad_alloc@std@@8 ; std::bad_alloc::`RTTI Base Class Array'
	DD	FLAT:??_R1A@?0A@EA@exception@std@@8
rdata$r	ENDS
;	COMDAT ??_R3bad_alloc@std@@8
rdata$r	SEGMENT
??_R3bad_alloc@std@@8 DD 00H				; std::bad_alloc::`RTTI Class Hierarchy Descriptor'
	DD	00H
	DD	02H
	DD	FLAT:??_R2bad_alloc@std@@8
rdata$r	ENDS
;	COMDAT ??_R4bad_alloc@std@@6B@
rdata$r	SEGMENT
??_R4bad_alloc@std@@6B@ DD 00H				; std::bad_alloc::`RTTI Complete Object Locator'
	DD	00H
	DD	00H
	DD	FLAT:??_R0?AVbad_alloc@std@@@8
	DD	FLAT:??_R3bad_alloc@std@@8
rdata$r	ENDS
;	COMDAT ??_7bad_alloc@std@@6B@
CONST	SEGMENT
??_7bad_alloc@std@@6B@ DD FLAT:??_R4bad_alloc@std@@6B@	; std::bad_alloc::`vftable'
	DD	FLAT:??_Ebad_alloc@std@@UAEPAXI@Z
	DD	FLAT:?what@exception@std@@UBEPBDXZ
CONST	ENDS
;	COMDAT xdata$x
xdata$x	SEGMENT
__unwindtable$??0bad_alloc@std@@QAE@PBD@Z DD 0ffffffffH
	DD	FLAT:__unwindfunclet$??0bad_alloc@std@@QAE@PBD@Z$0
__ehfuncinfo$??0bad_alloc@std@@QAE@PBD@Z DD 019930522H
	DD	01H
	DD	FLAT:__unwindtable$??0bad_alloc@std@@QAE@PBD@Z
	DD	2 DUP(00H)
	DD	2 DUP(00H)
	DD	00H
	DD	00H
; Function compile flags: /Odtp
xdata$x	ENDS
;	COMDAT ??0bad_alloc@std@@QAE@PBD@Z
_TEXT	SEGMENT
_this$ = -16						; size = 4
__$EHRec$ = -12						; size = 12
__Message$ = 8						; size = 4
??0bad_alloc@std@@QAE@PBD@Z PROC			; std::bad_alloc::bad_alloc, COMDAT
; _this$ = ecx

; 371  : 		{	// construct from message string

	push	ebp
	mov	ebp, esp
	push	-1
	push	__ehhandler$??0bad_alloc@std@@QAE@PBD@Z
	mov	eax, DWORD PTR fs:0
	push	eax
	push	ecx
	mov	eax, DWORD PTR ___security_cookie
	xor	eax, ebp
	push	eax
	lea	eax, DWORD PTR __$EHRec$[ebp]
	mov	DWORD PTR fs:0, eax
	mov	DWORD PTR _this$[ebp], ecx
	lea	eax, DWORD PTR __Message$[ebp]
	push	eax
	mov	ecx, DWORD PTR _this$[ebp]
	call	DWORD PTR __imp_??0exception@std@@QAE@ABQBD@Z
	mov	DWORD PTR __$EHRec$[ebp+8], 0
	mov	ecx, DWORD PTR _this$[ebp]
	mov	DWORD PTR [ecx], OFFSET ??_7bad_alloc@std@@6B@

; 372  : 		}

	mov	DWORD PTR __$EHRec$[ebp+8], -1
	mov	eax, DWORD PTR _this$[ebp]
	mov	ecx, DWORD PTR __$EHRec$[ebp]
	mov	DWORD PTR fs:0, ecx
	pop	ecx
	mov	esp, ebp
	pop	ebp
	ret	4
_TEXT	ENDS
;	COMDAT text$x
text$x	SEGMENT
__unwindfunclet$??0bad_alloc@std@@QAE@PBD@Z$0:
	mov	ecx, DWORD PTR _this$[ebp]
	jmp	DWORD PTR __imp_??1exception@std@@UAE@XZ
__ehhandler$??0bad_alloc@std@@QAE@PBD@Z:
	mov	edx, DWORD PTR [esp+8]
	lea	eax, DWORD PTR [edx+12]
	mov	ecx, DWORD PTR [edx-8]
	xor	ecx, eax
	call	@__security_check_cookie@4
	mov	eax, OFFSET __ehfuncinfo$??0bad_alloc@std@@QAE@PBD@Z
	jmp	___CxxFrameHandler3
text$x	ENDS
??0bad_alloc@std@@QAE@PBD@Z ENDP			; std::bad_alloc::bad_alloc
;	COMDAT xdata$x
xdata$x	SEGMENT
__unwindtable$??1bad_alloc@std@@UAE@XZ DD 0ffffffffH
	DD	FLAT:__unwindfunclet$??1bad_alloc@std@@UAE@XZ$0
__ehfuncinfo$??1bad_alloc@std@@UAE@XZ DD 019930522H
	DD	01H
	DD	FLAT:__unwindtable$??1bad_alloc@std@@UAE@XZ
	DD	2 DUP(00H)
	DD	2 DUP(00H)
	DD	00H
	DD	00H
; Function compile flags: /Odtp
xdata$x	ENDS
;	COMDAT ??1bad_alloc@std@@UAE@XZ
_TEXT	SEGMENT
_this$ = -16						; size = 4
__$EHRec$ = -12						; size = 12
??1bad_alloc@std@@UAE@XZ PROC				; std::bad_alloc::~bad_alloc, COMDAT
; _this$ = ecx

; 380  : 		{	// destroy the object

	push	ebp
	mov	ebp, esp
	push	-1
	push	__ehhandler$??1bad_alloc@std@@UAE@XZ
	mov	eax, DWORD PTR fs:0
	push	eax
	push	ecx
	mov	eax, DWORD PTR ___security_cookie
	xor	eax, ebp
	push	eax
	lea	eax, DWORD PTR __$EHRec$[ebp]
	mov	DWORD PTR fs:0, eax
	mov	DWORD PTR _this$[ebp], ecx
	mov	eax, DWORD PTR _this$[ebp]
	mov	DWORD PTR [eax], OFFSET ??_7bad_alloc@std@@6B@
	mov	DWORD PTR __$EHRec$[ebp+8], 0

; 381  : 		}

	mov	DWORD PTR __$EHRec$[ebp+8], -1
	mov	ecx, DWORD PTR _this$[ebp]
	call	DWORD PTR __imp_??1exception@std@@UAE@XZ
	mov	ecx, DWORD PTR __$EHRec$[ebp]
	mov	DWORD PTR fs:0, ecx
	pop	ecx
	mov	esp, ebp
	pop	ebp
	ret	0
_TEXT	ENDS
;	COMDAT text$x
text$x	SEGMENT
__unwindfunclet$??1bad_alloc@std@@UAE@XZ$0:
	mov	ecx, DWORD PTR _this$[ebp]
	jmp	DWORD PTR __imp_??1exception@std@@UAE@XZ
__ehhandler$??1bad_alloc@std@@UAE@XZ:
	mov	edx, DWORD PTR [esp+8]
	lea	eax, DWORD PTR [edx+12]
	mov	ecx, DWORD PTR [edx-8]
	xor	ecx, eax
	call	@__security_check_cookie@4
	mov	eax, OFFSET __ehfuncinfo$??1bad_alloc@std@@UAE@XZ
	jmp	___CxxFrameHandler3
text$x	ENDS
??1bad_alloc@std@@UAE@XZ ENDP				; std::bad_alloc::~bad_alloc
; Function compile flags: /Odtp
;	COMDAT ??_Gbad_alloc@std@@UAEPAXI@Z
_TEXT	SEGMENT
_this$ = -4						; size = 4
___flags$ = 8						; size = 4
??_Gbad_alloc@std@@UAEPAXI@Z PROC			; std::bad_alloc::`scalar deleting destructor', COMDAT
; _this$ = ecx
	push	ebp
	mov	ebp, esp
	push	ecx
	mov	DWORD PTR _this$[ebp], ecx
	mov	ecx, DWORD PTR _this$[ebp]
	call	??1bad_alloc@std@@UAE@XZ		; std::bad_alloc::~bad_alloc
	mov	eax, DWORD PTR ___flags$[ebp]
	and	eax, 1
	je	SHORT $LN1@scalar@14
	mov	ecx, DWORD PTR _this$[ebp]
	push	ecx
	call	??3@YAXPAX@Z				; operator delete
	add	esp, 4
$LN1@scalar@14:
	mov	eax, DWORD PTR _this$[ebp]
	mov	esp, ebp
	pop	ebp
	ret	4
??_Gbad_alloc@std@@UAEPAXI@Z ENDP			; std::bad_alloc::`scalar deleting destructor'
; Function compile flags: /Odtp
; File d:\program files (x86)\microsoft visual studio 9.0\vc\include\xmemory
_TEXT	ENDS
;	COMDAT ??$_Destroy@U_Node@?$_Tree_nod@V?$_Tmap_traits@IPAVHardwareBufferPool@Ogre@@U?$less@I@std@@V?$allocator@U?$pair@$$CBIPAVHardwareBufferPool@Ogre@@@std@@@4@$0A@@std@@@std@@@std@@YAXPAU_Node@?$_Tree_nod@V?$_Tmap_traits@IPAVHardwareBufferPool@Ogre@@U?$less@I@std@@V?$allocator@U?$pair@$$CBIPAVHardwareBufferPool@Ogre@@@std@@@4@$0A@@std@@@0@@Z
_TEXT	SEGMENT
__Ptr$ = 8						; size = 4
??$_Destroy@U_Node@?$_Tree_nod@V?$_Tmap_traits@IPAVHardwareBufferPool@Ogre@@U?$less@I@std@@V?$allocator@U?$pair@$$CBIPAVHardwareBufferPool@Ogre@@@std@@@4@$0A@@std@@@std@@@std@@YAXPAU_Node@?$_Tree_nod@V?$_Tmap_traits@IPAVHardwareBufferPool@Ogre@@U?$less@I@std@@V?$allocator@U?$pair@$$CBIPAVHardwareBufferPool@Ogre@@@std@@@4@$0A@@std@@@0@@Z PROC ; std::_Destroy<std::_Tree_nod<std::_Tmap_traits<unsigned int,Ogre::HardwareBufferPool *,std::less<unsigned int>,std::allocator<std::pair<unsigned int const ,Ogre::HardwareBufferPool *> >,0> >::_Node>, COMDAT

; 58   : 	{	// destroy object at _Ptr

	push	ebp
	mov	ebp, esp

; 59   : 	_DESTRUCTOR(_Ty, _Ptr);
; 60   : 	}

	pop	ebp
	ret	0
??$_Destroy@U_Node@?$_Tree_nod@V?$_Tmap_traits@IPAVHardwareBufferPool@Ogre@@U?$less@I@std@@V?$allocator@U?$pair@$$CBIPAVHardwareBufferPool@Ogre@@@std@@@4@$0A@@std@@@std@@@std@@YAXPAU_Node@?$_Tree_nod@V?$_Tmap_traits@IPAVHardwareBufferPool@Ogre@@U?$less@I@std@@V?$allocator@U?$pair@$$CBIPAVHardwareBufferPool@Ogre@@@std@@@4@$0A@@std@@@0@@Z ENDP ; std::_Destroy<std::_Tree_nod<std::_Tmap_traits<unsigned int,Ogre::HardwareBufferPool *,std::less<unsigned int>,std::allocator<std::pair<unsigned int const ,Ogre::HardwareBufferPool *> >,0> >::_Node>
; Function compile flags: /Odtp
_TEXT	ENDS
;	COMDAT ??$_Construct@PAU_Node@?$_Tree_nod@V?$_Tmap_traits@IPAVHardwareBufferPool@Ogre@@U?$less@I@std@@V?$allocator@U?$pair@$$CBIPAVHardwareBufferPool@Ogre@@@std@@@4@$0A@@std@@@std@@PAU123@@std@@YAXPAPAU_Node@?$_Tree_nod@V?$_Tmap_traits@IPAVHardwareBufferPool@Ogre@@U?$less@I@std@@V?$allocator@U?$pair@$$CBIPAVHardwareBufferPool@Ogre@@@std@@@4@$0A@@std@@@0@ABQAU120@@Z
_TEXT	SEGMENT
tv68 = -12						; size = 4
$T64616 = -8						; size = 4
__Vptr$ = -4						; size = 4
__Ptr$ = 8						; size = 4
__Val$ = 12						; size = 4
??$_Construct@PAU_Node@?$_Tree_nod@V?$_Tmap_traits@IPAVHardwareBufferPool@Ogre@@U?$less@I@std@@V?$allocator@U?$pair@$$CBIPAVHardwareBufferPool@Ogre@@@std@@@4@$0A@@std@@@std@@PAU123@@std@@YAXPAPAU_Node@?$_Tree_nod@V?$_Tmap_traits@IPAVHardwareBufferPool@Ogre@@U?$less@I@std@@V?$allocator@U?$pair@$$CBIPAVHardwareBufferPool@Ogre@@@std@@@4@$0A@@std@@@0@ABQAU120@@Z PROC ; std::_Construct<std::_Tree_nod<std::_Tmap_traits<unsigned int,Ogre::HardwareBufferPool *,std::less<unsigned int>,std::allocator<std::pair<unsigned int const ,Ogre::HardwareBufferPool *> >,0> >::_Node *,std::_Tree_nod<std::_Tmap_traits<unsigned int,Ogre::HardwareBufferPool *,std::less<unsigned int>,std::allocator<std::pair<unsigned int const ,Ogre::HardwareBufferPool *> >,0> >::_Node *>, COMDAT

; 50   : 	{	// construct object at _Ptr with value _Val

	push	ebp
	mov	ebp, esp
	sub	esp, 12					; 0000000cH

; 51   : 	void _FARQ *_Vptr = _Ptr;

	mov	eax, DWORD PTR __Ptr$[ebp]
	mov	DWORD PTR __Vptr$[ebp], eax

; 52   : 	::new (_Vptr) _T1(_Val);

	mov	ecx, DWORD PTR __Vptr$[ebp]
	push	ecx
	push	4
	call	??2@YAPAXIPAX@Z				; operator new
	add	esp, 8
	mov	DWORD PTR $T64616[ebp], eax
	cmp	DWORD PTR $T64616[ebp], 0
	je	SHORT $LN3@Construct
	mov	edx, DWORD PTR $T64616[ebp]
	mov	eax, DWORD PTR __Val$[ebp]
	mov	ecx, DWORD PTR [eax]
	mov	DWORD PTR [edx], ecx
	mov	edx, DWORD PTR $T64616[ebp]
	mov	DWORD PTR tv68[ebp], edx
	jmp	SHORT $LN1@Construct
$LN3@Construct:
	mov	DWORD PTR tv68[ebp], 0
$LN1@Construct:

; 53   : 	}

	mov	esp, ebp
	pop	ebp
	ret	0
??$_Construct@PAU_Node@?$_Tree_nod@V?$_Tmap_traits@IPAVHardwareBufferPool@Ogre@@U?$less@I@std@@V?$allocator@U?$pair@$$CBIPAVHardwareBufferPool@Ogre@@@std@@@4@$0A@@std@@@std@@PAU123@@std@@YAXPAPAU_Node@?$_Tree_nod@V?$_Tmap_traits@IPAVHardwareBufferPool@Ogre@@U?$less@I@std@@V?$allocator@U?$pair@$$CBIPAVHardwareBufferPool@Ogre@@@std@@@4@$0A@@std@@@0@ABQAU120@@Z ENDP ; std::_Construct<std::_Tree_nod<std::_Tmap_traits<unsigned int,Ogre::HardwareBufferPool *,std::less<unsigned int>,std::allocator<std::pair<unsigned int const ,Ogre::HardwareBufferPool *> >,0> >::_Node *,std::_Tree_nod<std::_Tmap_traits<unsigned int,Ogre::HardwareBufferPool *,std::less<unsigned int>,std::allocator<std::pair<unsigned int const ,Ogre::HardwareBufferPool *> >,0> >::_Node *>
; Function compile flags: /Odtp
_TEXT	ENDS
;	COMDAT ??$?0U?$pair@$$CBIPAVHardwareBufferPool@Ogre@@@std@@@?$allocator@V_Aux_cont@std@@@std@@QAE@ABV?$allocator@U?$pair@$$CBIPAVHardwareBufferPool@Ogre@@@std@@@1@@Z
_TEXT	SEGMENT
_this$ = -4						; size = 4
___formal$ = 8						; size = 4
??$?0U?$pair@$$CBIPAVHardwareBufferPool@Ogre@@@std@@@?$allocator@V_Aux_cont@std@@@std@@QAE@ABV?$allocator@U?$pair@$$CBIPAVHardwareBufferPool@Ogre@@@std@@@1@@Z PROC ; std::allocator<std::_Aux_cont>::allocator<std::_Aux_cont><std::pair<unsigned int const ,Ogre::HardwareBufferPool *> >, COMDAT
; _this$ = ecx

; 128  : 		allocator(const allocator<_Other>&) _THROW0()

	push	ebp
	mov	ebp, esp
	push	ecx
	mov	DWORD PTR _this$[ebp], ecx

; 129  : 		{	// construct from a related allocator (do nothing)
; 130  : 		}

	mov	eax, DWORD PTR _this$[ebp]
	mov	esp, ebp
	pop	ebp
	ret	4
??$?0U?$pair@$$CBIPAVHardwareBufferPool@Ogre@@@std@@@?$allocator@V_Aux_cont@std@@@std@@QAE@ABV?$allocator@U?$pair@$$CBIPAVHardwareBufferPool@Ogre@@@std@@@1@@Z ENDP ; std::allocator<std::_Aux_cont>::allocator<std::_Aux_cont><std::pair<unsigned int const ,Ogre::HardwareBufferPool *> >
; Function compile flags: /Odtp
_TEXT	ENDS
;	COMDAT ??$_Allocate@V_Aux_cont@std@@@std@@YAPAV_Aux_cont@0@IPAV10@@Z
_TEXT	SEGMENT
$T64623 = -12						; size = 12
__Count$ = 8						; size = 4
___formal$ = 12						; size = 4
??$_Allocate@V_Aux_cont@std@@@std@@YAPAV_Aux_cont@0@IPAV10@@Z PROC ; std::_Allocate<std::_Aux_cont>, COMDAT

; 36   : 	{	// check for integer overflow

	push	ebp
	mov	ebp, esp
	sub	esp, 12					; 0000000cH

; 37   : 	if (_Count <= 0)

	cmp	DWORD PTR __Count$[ebp], 0
	ja	SHORT $LN3@Allocate@2

; 38   : 		_Count = 0;

	mov	DWORD PTR __Count$[ebp], 0
	jmp	SHORT $LN2@Allocate@2
$LN3@Allocate@2:

; 39   : 	else if (((_SIZT)(-1) / _Count) < sizeof (_Ty))

	or	eax, -1
	xor	edx, edx
	div	DWORD PTR __Count$[ebp]
	cmp	eax, 4
	jae	SHORT $LN2@Allocate@2

; 40   : 		_THROW_NCEE(std::bad_alloc, NULL);

	push	0
	lea	ecx, DWORD PTR $T64623[ebp]
	call	??0bad_alloc@std@@QAE@PBD@Z		; std::bad_alloc::bad_alloc
	push	OFFSET __TI2?AVbad_alloc@std@@
	lea	eax, DWORD PTR $T64623[ebp]
	push	eax
	call	__CxxThrowException@8
$LN2@Allocate@2:

; 41   : 
; 42   : 		// allocate storage for _Count elements of type _Ty
; 43   : 	return ((_Ty _FARQ *)::operator new(_Count * sizeof (_Ty)));

	mov	ecx, DWORD PTR __Count$[ebp]
	shl	ecx, 2
	push	ecx
	call	??2@YAPAXI@Z				; operator new
	add	esp, 4
$LN5@Allocate@2:

; 44   : 	}

	mov	esp, ebp
	pop	ebp
	ret	0
??$_Allocate@V_Aux_cont@std@@@std@@YAPAV_Aux_cont@0@IPAV10@@Z ENDP ; std::_Allocate<std::_Aux_cont>
_TEXT	ENDS
;	COMDAT xdata$x
xdata$x	SEGMENT
__unwindtable$??0bad_alloc@std@@QAE@ABV01@@Z DD 0ffffffffH
	DD	FLAT:__unwindfunclet$??0bad_alloc@std@@QAE@ABV01@@Z$0
__ehfuncinfo$??0bad_alloc@std@@QAE@ABV01@@Z DD 019930522H
	DD	01H
	DD	FLAT:__unwindtable$??0bad_alloc@std@@QAE@ABV01@@Z
	DD	2 DUP(00H)
	DD	2 DUP(00H)
	DD	00H
	DD	00H
; Function compile flags: /Odtp
xdata$x	ENDS
;	COMDAT ??0bad_alloc@std@@QAE@ABV01@@Z
_TEXT	SEGMENT
_this$ = -16						; size = 4
__$EHRec$ = -12						; size = 12
___that$ = 8						; size = 4
??0bad_alloc@std@@QAE@ABV01@@Z PROC			; std::bad_alloc::bad_alloc, COMDAT
; _this$ = ecx
	push	ebp
	mov	ebp, esp
	push	-1
	push	__ehhandler$??0bad_alloc@std@@QAE@ABV01@@Z
	mov	eax, DWORD PTR fs:0
	push	eax
	push	ecx
	mov	eax, DWORD PTR ___security_cookie
	xor	eax, ebp
	push	eax
	lea	eax, DWORD PTR __$EHRec$[ebp]
	mov	DWORD PTR fs:0, eax
	mov	DWORD PTR _this$[ebp], ecx
	mov	eax, DWORD PTR ___that$[ebp]
	push	eax
	mov	ecx, DWORD PTR _this$[ebp]
	call	DWORD PTR __imp_??0exception@std@@QAE@ABV01@@Z
	mov	DWORD PTR __$EHRec$[ebp+8], 0
	mov	ecx, DWORD PTR _this$[ebp]
	mov	DWORD PTR [ecx], OFFSET ??_7bad_alloc@std@@6B@
	mov	DWORD PTR __$EHRec$[ebp+8], -1
	mov	eax, DWORD PTR _this$[ebp]
	mov	ecx, DWORD PTR __$EHRec$[ebp]
	mov	DWORD PTR fs:0, ecx
	pop	ecx
	mov	esp, ebp
	pop	ebp
	ret	4
_TEXT	ENDS
;	COMDAT text$x
text$x	SEGMENT
__unwindfunclet$??0bad_alloc@std@@QAE@ABV01@@Z$0:
	mov	ecx, DWORD PTR _this$[ebp]
	jmp	DWORD PTR __imp_??1exception@std@@UAE@XZ
__ehhandler$??0bad_alloc@std@@QAE@ABV01@@Z:
	mov	edx, DWORD PTR [esp+8]
	lea	eax, DWORD PTR [edx+12]
	mov	ecx, DWORD PTR [edx-8]
	xor	ecx, eax
	call	@__security_check_cookie@4
	mov	eax, OFFSET __ehfuncinfo$??0bad_alloc@std@@QAE@ABV01@@Z
	jmp	___CxxFrameHandler3
text$x	ENDS
??0bad_alloc@std@@QAE@ABV01@@Z ENDP			; std::bad_alloc::bad_alloc
EXTRN	__fltused:DWORD
; Function compile flags: /Odtp
; File i:\svnroot\client\ogremain\ogremath.h
;	COMDAT ??__ETWO_PI@Ogre@@YAXXZ
text$yc	SEGMENT
??__ETWO_PI@Ogre@@YAXXZ PROC				; Ogre::`dynamic initializer for 'TWO_PI'', COMDAT

; 10   : 	const float TWO_PI = ONE_PI*2;

	push	ebp
	mov	ebp, esp
	fld	DWORD PTR _ONE_PI
	fadd	ST(0), ST(0)
	fstp	DWORD PTR _TWO_PI
	pop	ebp
	ret	0
??__ETWO_PI@Ogre@@YAXXZ ENDP				; Ogre::`dynamic initializer for 'TWO_PI''
text$yc	ENDS
PUBLIC	__real@3fe0000000000000
;	COMDAT __real@3fe0000000000000
CONST	SEGMENT
__real@3fe0000000000000 DQ 03fe0000000000000r	; 0.5
; Function compile flags: /Odtp
CONST	ENDS
;	COMDAT ??__EHALF_PI@Ogre@@YAXXZ
text$yc	SEGMENT
??__EHALF_PI@Ogre@@YAXXZ PROC				; Ogre::`dynamic initializer for 'HALF_PI'', COMDAT

; 11   : 	const float	HALF_PI = ONE_PI*0.5f;

	push	ebp
	mov	ebp, esp
	fld	DWORD PTR _ONE_PI
	fmul	QWORD PTR __real@3fe0000000000000
	fstp	DWORD PTR _HALF_PI
	pop	ebp
	ret	0
??__EHALF_PI@Ogre@@YAXXZ ENDP				; Ogre::`dynamic initializer for 'HALF_PI''
text$yc	ENDS
_BSS	SEGMENT
_TWO_PI	DD	01H DUP (?)
_HALF_PI DD	01H DUP (?)
_BSS	ENDS
CRT$XCU	SEGMENT
_TWO_PI$initializer$ DD FLAT:??__ETWO_PI@Ogre@@YAXXZ
_HALF_PI$initializer$ DD FLAT:??__EHALF_PI@Ogre@@YAXXZ
CRT$XCU	ENDS
END
