; Listing generated by Microsoft (R) Optimizing Compiler Version 15.00.30729.01 

	TITLE	i:\svnroot\client\Plugins\RenderSystem_D3D9\OgreD3D9Plugin.cpp
	.686P
	.XMM
	include listing.inc
	.model	flat

INCLUDELIB MSVCRT
INCLUDELIB OLDNAMES

PUBLIC	?_Value@?$_Is_swap_move@U_Swap_move_tag@std@@@std@@2_NB ; std::_Is_swap_move<std::_Swap_move_tag>::_Value
PUBLIC	?collate@?$_Locbase@H@std@@2HB			; std::_Locbase<int>::collate
PUBLIC	?ctype@?$_Locbase@H@std@@2HB			; std::_Locbase<int>::ctype
PUBLIC	?monetary@?$_Locbase@H@std@@2HB			; std::_Locbase<int>::monetary
PUBLIC	?numeric@?$_Locbase@H@std@@2HB			; std::_Locbase<int>::numeric
PUBLIC	?time@?$_Locbase@H@std@@2HB			; std::_Locbase<int>::time
PUBLIC	?messages@?$_Locbase@H@std@@2HB			; std::_Locbase<int>::messages
PUBLIC	?all@?$_Locbase@H@std@@2HB			; std::_Locbase<int>::all
PUBLIC	?none@?$_Locbase@H@std@@2HB			; std::_Locbase<int>::none
PUBLIC	?skipws@?$_Iosb@H@std@@2W4_Fmtflags@12@B	; std::_Iosb<int>::skipws
PUBLIC	?unitbuf@?$_Iosb@H@std@@2W4_Fmtflags@12@B	; std::_Iosb<int>::unitbuf
PUBLIC	?uppercase@?$_Iosb@H@std@@2W4_Fmtflags@12@B	; std::_Iosb<int>::uppercase
PUBLIC	?showbase@?$_Iosb@H@std@@2W4_Fmtflags@12@B	; std::_Iosb<int>::showbase
PUBLIC	?showpoint@?$_Iosb@H@std@@2W4_Fmtflags@12@B	; std::_Iosb<int>::showpoint
PUBLIC	?showpos@?$_Iosb@H@std@@2W4_Fmtflags@12@B	; std::_Iosb<int>::showpos
PUBLIC	?left@?$_Iosb@H@std@@2W4_Fmtflags@12@B		; std::_Iosb<int>::left
PUBLIC	?right@?$_Iosb@H@std@@2W4_Fmtflags@12@B		; std::_Iosb<int>::right
PUBLIC	?internal@?$_Iosb@H@std@@2W4_Fmtflags@12@B	; std::_Iosb<int>::internal
PUBLIC	?dec@?$_Iosb@H@std@@2W4_Fmtflags@12@B		; std::_Iosb<int>::dec
PUBLIC	?oct@?$_Iosb@H@std@@2W4_Fmtflags@12@B		; std::_Iosb<int>::oct
PUBLIC	?hex@?$_Iosb@H@std@@2W4_Fmtflags@12@B		; std::_Iosb<int>::hex
PUBLIC	?scientific@?$_Iosb@H@std@@2W4_Fmtflags@12@B	; std::_Iosb<int>::scientific
PUBLIC	?fixed@?$_Iosb@H@std@@2W4_Fmtflags@12@B		; std::_Iosb<int>::fixed
PUBLIC	?hexfloat@?$_Iosb@H@std@@2W4_Fmtflags@12@B	; std::_Iosb<int>::hexfloat
PUBLIC	?boolalpha@?$_Iosb@H@std@@2W4_Fmtflags@12@B	; std::_Iosb<int>::boolalpha
PUBLIC	?_Stdio@?$_Iosb@H@std@@2W4_Fmtflags@12@B	; std::_Iosb<int>::_Stdio
PUBLIC	?adjustfield@?$_Iosb@H@std@@2W4_Fmtflags@12@B	; std::_Iosb<int>::adjustfield
PUBLIC	?basefield@?$_Iosb@H@std@@2W4_Fmtflags@12@B	; std::_Iosb<int>::basefield
PUBLIC	?floatfield@?$_Iosb@H@std@@2W4_Fmtflags@12@B	; std::_Iosb<int>::floatfield
PUBLIC	?goodbit@?$_Iosb@H@std@@2W4_Iostate@12@B	; std::_Iosb<int>::goodbit
PUBLIC	?eofbit@?$_Iosb@H@std@@2W4_Iostate@12@B		; std::_Iosb<int>::eofbit
PUBLIC	?failbit@?$_Iosb@H@std@@2W4_Iostate@12@B	; std::_Iosb<int>::failbit
PUBLIC	?badbit@?$_Iosb@H@std@@2W4_Iostate@12@B		; std::_Iosb<int>::badbit
PUBLIC	?_Hardfail@?$_Iosb@H@std@@2W4_Iostate@12@B	; std::_Iosb<int>::_Hardfail
PUBLIC	?in@?$_Iosb@H@std@@2W4_Openmode@12@B		; std::_Iosb<int>::in
PUBLIC	?out@?$_Iosb@H@std@@2W4_Openmode@12@B		; std::_Iosb<int>::out
PUBLIC	?ate@?$_Iosb@H@std@@2W4_Openmode@12@B		; std::_Iosb<int>::ate
PUBLIC	?app@?$_Iosb@H@std@@2W4_Openmode@12@B		; std::_Iosb<int>::app
PUBLIC	?trunc@?$_Iosb@H@std@@2W4_Openmode@12@B		; std::_Iosb<int>::trunc
PUBLIC	?_Nocreate@?$_Iosb@H@std@@2W4_Openmode@12@B	; std::_Iosb<int>::_Nocreate
PUBLIC	?_Noreplace@?$_Iosb@H@std@@2W4_Openmode@12@B	; std::_Iosb<int>::_Noreplace
PUBLIC	?binary@?$_Iosb@H@std@@2W4_Openmode@12@B	; std::_Iosb<int>::binary
PUBLIC	?beg@?$_Iosb@H@std@@2W4_Seekdir@12@B		; std::_Iosb<int>::beg
PUBLIC	?cur@?$_Iosb@H@std@@2W4_Seekdir@12@B		; std::_Iosb<int>::cur
PUBLIC	?end@?$_Iosb@H@std@@2W4_Seekdir@12@B		; std::_Iosb<int>::end
PUBLIC	?value@?$integral_constant@_N$0A@@tr1@std@@2_NB	; std::tr1::integral_constant<bool,0>::value
PUBLIC	?value@?$integral_constant@_N$00@tr1@std@@2_NB	; std::tr1::integral_constant<bool,1>::value
;	COMDAT ?value@?$integral_constant@_N$00@tr1@std@@2_NB
CONST	SEGMENT
?value@?$integral_constant@_N$00@tr1@std@@2_NB DB 01H	; std::tr1::integral_constant<bool,1>::value
CONST	ENDS
;	COMDAT ?value@?$integral_constant@_N$0A@@tr1@std@@2_NB
CONST	SEGMENT
?value@?$integral_constant@_N$0A@@tr1@std@@2_NB DB 00H	; std::tr1::integral_constant<bool,0>::value
CONST	ENDS
;	COMDAT ?end@?$_Iosb@H@std@@2W4_Seekdir@12@B
CONST	SEGMENT
?end@?$_Iosb@H@std@@2W4_Seekdir@12@B DD 02H		; std::_Iosb<int>::end
CONST	ENDS
;	COMDAT ?cur@?$_Iosb@H@std@@2W4_Seekdir@12@B
CONST	SEGMENT
?cur@?$_Iosb@H@std@@2W4_Seekdir@12@B DD 01H		; std::_Iosb<int>::cur
CONST	ENDS
;	COMDAT ?beg@?$_Iosb@H@std@@2W4_Seekdir@12@B
CONST	SEGMENT
?beg@?$_Iosb@H@std@@2W4_Seekdir@12@B DD 00H		; std::_Iosb<int>::beg
CONST	ENDS
;	COMDAT ?binary@?$_Iosb@H@std@@2W4_Openmode@12@B
CONST	SEGMENT
?binary@?$_Iosb@H@std@@2W4_Openmode@12@B DD 020H	; std::_Iosb<int>::binary
CONST	ENDS
;	COMDAT ?_Noreplace@?$_Iosb@H@std@@2W4_Openmode@12@B
CONST	SEGMENT
?_Noreplace@?$_Iosb@H@std@@2W4_Openmode@12@B DD 080H	; std::_Iosb<int>::_Noreplace
CONST	ENDS
;	COMDAT ?_Nocreate@?$_Iosb@H@std@@2W4_Openmode@12@B
CONST	SEGMENT
?_Nocreate@?$_Iosb@H@std@@2W4_Openmode@12@B DD 040H	; std::_Iosb<int>::_Nocreate
CONST	ENDS
;	COMDAT ?trunc@?$_Iosb@H@std@@2W4_Openmode@12@B
CONST	SEGMENT
?trunc@?$_Iosb@H@std@@2W4_Openmode@12@B DD 010H		; std::_Iosb<int>::trunc
CONST	ENDS
;	COMDAT ?app@?$_Iosb@H@std@@2W4_Openmode@12@B
CONST	SEGMENT
?app@?$_Iosb@H@std@@2W4_Openmode@12@B DD 08H		; std::_Iosb<int>::app
CONST	ENDS
;	COMDAT ?ate@?$_Iosb@H@std@@2W4_Openmode@12@B
CONST	SEGMENT
?ate@?$_Iosb@H@std@@2W4_Openmode@12@B DD 04H		; std::_Iosb<int>::ate
CONST	ENDS
;	COMDAT ?out@?$_Iosb@H@std@@2W4_Openmode@12@B
CONST	SEGMENT
?out@?$_Iosb@H@std@@2W4_Openmode@12@B DD 02H		; std::_Iosb<int>::out
CONST	ENDS
;	COMDAT ?in@?$_Iosb@H@std@@2W4_Openmode@12@B
CONST	SEGMENT
?in@?$_Iosb@H@std@@2W4_Openmode@12@B DD 01H		; std::_Iosb<int>::in
CONST	ENDS
;	COMDAT ?_Hardfail@?$_Iosb@H@std@@2W4_Iostate@12@B
CONST	SEGMENT
?_Hardfail@?$_Iosb@H@std@@2W4_Iostate@12@B DD 010H	; std::_Iosb<int>::_Hardfail
CONST	ENDS
;	COMDAT ?badbit@?$_Iosb@H@std@@2W4_Iostate@12@B
CONST	SEGMENT
?badbit@?$_Iosb@H@std@@2W4_Iostate@12@B DD 04H		; std::_Iosb<int>::badbit
CONST	ENDS
;	COMDAT ?failbit@?$_Iosb@H@std@@2W4_Iostate@12@B
CONST	SEGMENT
?failbit@?$_Iosb@H@std@@2W4_Iostate@12@B DD 02H		; std::_Iosb<int>::failbit
CONST	ENDS
;	COMDAT ?eofbit@?$_Iosb@H@std@@2W4_Iostate@12@B
CONST	SEGMENT
?eofbit@?$_Iosb@H@std@@2W4_Iostate@12@B DD 01H		; std::_Iosb<int>::eofbit
CONST	ENDS
;	COMDAT ?goodbit@?$_Iosb@H@std@@2W4_Iostate@12@B
CONST	SEGMENT
?goodbit@?$_Iosb@H@std@@2W4_Iostate@12@B DD 00H		; std::_Iosb<int>::goodbit
CONST	ENDS
;	COMDAT ?floatfield@?$_Iosb@H@std@@2W4_Fmtflags@12@B
CONST	SEGMENT
?floatfield@?$_Iosb@H@std@@2W4_Fmtflags@12@B DD 03000H	; std::_Iosb<int>::floatfield
CONST	ENDS
;	COMDAT ?basefield@?$_Iosb@H@std@@2W4_Fmtflags@12@B
CONST	SEGMENT
?basefield@?$_Iosb@H@std@@2W4_Fmtflags@12@B DD 0e00H	; std::_Iosb<int>::basefield
CONST	ENDS
;	COMDAT ?adjustfield@?$_Iosb@H@std@@2W4_Fmtflags@12@B
CONST	SEGMENT
?adjustfield@?$_Iosb@H@std@@2W4_Fmtflags@12@B DD 01c0H	; std::_Iosb<int>::adjustfield
CONST	ENDS
;	COMDAT ?_Stdio@?$_Iosb@H@std@@2W4_Fmtflags@12@B
CONST	SEGMENT
?_Stdio@?$_Iosb@H@std@@2W4_Fmtflags@12@B DD 08000H	; std::_Iosb<int>::_Stdio
CONST	ENDS
;	COMDAT ?boolalpha@?$_Iosb@H@std@@2W4_Fmtflags@12@B
CONST	SEGMENT
?boolalpha@?$_Iosb@H@std@@2W4_Fmtflags@12@B DD 04000H	; std::_Iosb<int>::boolalpha
CONST	ENDS
;	COMDAT ?hexfloat@?$_Iosb@H@std@@2W4_Fmtflags@12@B
CONST	SEGMENT
?hexfloat@?$_Iosb@H@std@@2W4_Fmtflags@12@B DD 03000H	; std::_Iosb<int>::hexfloat
CONST	ENDS
;	COMDAT ?fixed@?$_Iosb@H@std@@2W4_Fmtflags@12@B
CONST	SEGMENT
?fixed@?$_Iosb@H@std@@2W4_Fmtflags@12@B DD 02000H	; std::_Iosb<int>::fixed
CONST	ENDS
;	COMDAT ?scientific@?$_Iosb@H@std@@2W4_Fmtflags@12@B
CONST	SEGMENT
?scientific@?$_Iosb@H@std@@2W4_Fmtflags@12@B DD 01000H	; std::_Iosb<int>::scientific
CONST	ENDS
;	COMDAT ?hex@?$_Iosb@H@std@@2W4_Fmtflags@12@B
CONST	SEGMENT
?hex@?$_Iosb@H@std@@2W4_Fmtflags@12@B DD 0800H		; std::_Iosb<int>::hex
CONST	ENDS
;	COMDAT ?oct@?$_Iosb@H@std@@2W4_Fmtflags@12@B
CONST	SEGMENT
?oct@?$_Iosb@H@std@@2W4_Fmtflags@12@B DD 0400H		; std::_Iosb<int>::oct
CONST	ENDS
;	COMDAT ?dec@?$_Iosb@H@std@@2W4_Fmtflags@12@B
CONST	SEGMENT
?dec@?$_Iosb@H@std@@2W4_Fmtflags@12@B DD 0200H		; std::_Iosb<int>::dec
CONST	ENDS
;	COMDAT ?internal@?$_Iosb@H@std@@2W4_Fmtflags@12@B
CONST	SEGMENT
?internal@?$_Iosb@H@std@@2W4_Fmtflags@12@B DD 0100H	; std::_Iosb<int>::internal
CONST	ENDS
;	COMDAT ?right@?$_Iosb@H@std@@2W4_Fmtflags@12@B
CONST	SEGMENT
?right@?$_Iosb@H@std@@2W4_Fmtflags@12@B DD 080H		; std::_Iosb<int>::right
CONST	ENDS
;	COMDAT ?left@?$_Iosb@H@std@@2W4_Fmtflags@12@B
CONST	SEGMENT
?left@?$_Iosb@H@std@@2W4_Fmtflags@12@B DD 040H		; std::_Iosb<int>::left
CONST	ENDS
;	COMDAT ?showpos@?$_Iosb@H@std@@2W4_Fmtflags@12@B
CONST	SEGMENT
?showpos@?$_Iosb@H@std@@2W4_Fmtflags@12@B DD 020H	; std::_Iosb<int>::showpos
CONST	ENDS
;	COMDAT ?showpoint@?$_Iosb@H@std@@2W4_Fmtflags@12@B
CONST	SEGMENT
?showpoint@?$_Iosb@H@std@@2W4_Fmtflags@12@B DD 010H	; std::_Iosb<int>::showpoint
CONST	ENDS
;	COMDAT ?showbase@?$_Iosb@H@std@@2W4_Fmtflags@12@B
CONST	SEGMENT
?showbase@?$_Iosb@H@std@@2W4_Fmtflags@12@B DD 08H	; std::_Iosb<int>::showbase
CONST	ENDS
;	COMDAT ?uppercase@?$_Iosb@H@std@@2W4_Fmtflags@12@B
CONST	SEGMENT
?uppercase@?$_Iosb@H@std@@2W4_Fmtflags@12@B DD 04H	; std::_Iosb<int>::uppercase
CONST	ENDS
;	COMDAT ?unitbuf@?$_Iosb@H@std@@2W4_Fmtflags@12@B
CONST	SEGMENT
?unitbuf@?$_Iosb@H@std@@2W4_Fmtflags@12@B DD 02H	; std::_Iosb<int>::unitbuf
CONST	ENDS
;	COMDAT ?skipws@?$_Iosb@H@std@@2W4_Fmtflags@12@B
CONST	SEGMENT
?skipws@?$_Iosb@H@std@@2W4_Fmtflags@12@B DD 01H		; std::_Iosb<int>::skipws
CONST	ENDS
;	COMDAT ?none@?$_Locbase@H@std@@2HB
CONST	SEGMENT
?none@?$_Locbase@H@std@@2HB DD 00H			; std::_Locbase<int>::none
CONST	ENDS
;	COMDAT ?all@?$_Locbase@H@std@@2HB
CONST	SEGMENT
?all@?$_Locbase@H@std@@2HB DD 03fH			; std::_Locbase<int>::all
CONST	ENDS
;	COMDAT ?messages@?$_Locbase@H@std@@2HB
CONST	SEGMENT
?messages@?$_Locbase@H@std@@2HB DD 020H			; std::_Locbase<int>::messages
CONST	ENDS
;	COMDAT ?time@?$_Locbase@H@std@@2HB
CONST	SEGMENT
?time@?$_Locbase@H@std@@2HB DD 010H			; std::_Locbase<int>::time
CONST	ENDS
;	COMDAT ?numeric@?$_Locbase@H@std@@2HB
CONST	SEGMENT
?numeric@?$_Locbase@H@std@@2HB DD 08H			; std::_Locbase<int>::numeric
CONST	ENDS
;	COMDAT ?monetary@?$_Locbase@H@std@@2HB
CONST	SEGMENT
?monetary@?$_Locbase@H@std@@2HB DD 04H			; std::_Locbase<int>::monetary
CONST	ENDS
;	COMDAT ?ctype@?$_Locbase@H@std@@2HB
CONST	SEGMENT
?ctype@?$_Locbase@H@std@@2HB DD 02H			; std::_Locbase<int>::ctype
CONST	ENDS
;	COMDAT ?collate@?$_Locbase@H@std@@2HB
CONST	SEGMENT
?collate@?$_Locbase@H@std@@2HB DD 01H			; std::_Locbase<int>::collate
CONST	ENDS
;	COMDAT ?_Value@?$_Is_swap_move@U_Swap_move_tag@std@@@std@@2_NB
CONST	SEGMENT
?_Value@?$_Is_swap_move@U_Swap_move_tag@std@@@std@@2_NB DB 01H ; std::_Is_swap_move<std::_Swap_move_tag>::_Value
CONST	ENDS
_DATA	SEGMENT
__bad_alloc_Message DD FLAT:$SG5714
_DATA	ENDS
CONST	SEGMENT
$SG5714	DB	'bad allocation', 00H
	ORG $+1
_MAX_FLOAT DD	07f7fffffr			; 3.40282e+038
_ONE_PI	DD	040490fd0r			; 3.14159
_EPSILON DD	03727c5acr			; 1e-005
_RADS_PER_DEG DD 03c8efa35r			; 0.0174533
_DEGS_PER_RAD DD 042652ee1r			; 57.2958
$SG139073 DB	'D3D9 RenderSystem', 00H
	ORG $+2
$SG139094 DB	'RenderSystem_Direct3D9.dll', 00H
CONST	ENDS
PUBLIC	??_7D3D9Plugin@Ogre@@6B@			; Ogre::D3D9Plugin::`vftable'
PUBLIC	??0D3D9Plugin@Ogre@@QAE@XZ			; Ogre::D3D9Plugin::D3D9Plugin
PUBLIC	??_R4D3D9Plugin@Ogre@@6B@			; Ogre::D3D9Plugin::`RTTI Complete Object Locator'
PUBLIC	??_R0?AVD3D9Plugin@Ogre@@@8			; Ogre::D3D9Plugin `RTTI Type Descriptor'
PUBLIC	??_R3D3D9Plugin@Ogre@@8				; Ogre::D3D9Plugin::`RTTI Class Hierarchy Descriptor'
PUBLIC	??_R2D3D9Plugin@Ogre@@8				; Ogre::D3D9Plugin::`RTTI Base Class Array'
PUBLIC	??_R1A@?0A@EA@D3D9Plugin@Ogre@@8		; Ogre::D3D9Plugin::`RTTI Base Class Descriptor at (0,-1,0,64)'
PUBLIC	??_R1A@?0A@EA@Plugin@Ogre@@8			; Ogre::Plugin::`RTTI Base Class Descriptor at (0,-1,0,64)'
PUBLIC	??_R0?AVPlugin@Ogre@@@8				; Ogre::Plugin `RTTI Type Descriptor'
PUBLIC	??_R3Plugin@Ogre@@8				; Ogre::Plugin::`RTTI Class Hierarchy Descriptor'
PUBLIC	??_R2Plugin@Ogre@@8				; Ogre::Plugin::`RTTI Base Class Array'
PUBLIC	?getName@D3D9Plugin@Ogre@@UBEABV?$basic_string@DU?$char_traits@D@std@@V?$allocator@D@2@@std@@XZ ; Ogre::D3D9Plugin::getName
PUBLIC	?install@D3D9Plugin@Ogre@@UAEXXZ		; Ogre::D3D9Plugin::install
PUBLIC	?initialise@D3D9Plugin@Ogre@@UAEXXZ		; Ogre::D3D9Plugin::initialise
PUBLIC	?shutdown@D3D9Plugin@Ogre@@UAEXXZ		; Ogre::D3D9Plugin::shutdown
PUBLIC	?uninstall@D3D9Plugin@Ogre@@UAEXXZ		; Ogre::D3D9Plugin::uninstall
EXTRN	__imp_??1Plugin@Ogre@@UAE@XZ:PROC
EXTRN	__imp_??0Plugin@Ogre@@QAE@XZ:PROC
EXTRN	___security_cookie:DWORD
EXTRN	___CxxFrameHandler3:PROC
EXTRN	@__security_check_cookie@4:PROC
EXTRN	??_7type_info@@6B@:QWORD			; type_info::`vftable'
EXTRN	??_ED3D9Plugin@Ogre@@UAEPAXI@Z:PROC		; Ogre::D3D9Plugin::`vector deleting destructor'
;	COMDAT ??_R2Plugin@Ogre@@8
; File i:\svnroot\client\plugins\rendersystem_d3d9\ogred3d9plugin.cpp
rdata$r	SEGMENT
??_R2Plugin@Ogre@@8 DD FLAT:??_R1A@?0A@EA@Plugin@Ogre@@8 ; Ogre::Plugin::`RTTI Base Class Array'
rdata$r	ENDS
;	COMDAT ??_R3Plugin@Ogre@@8
rdata$r	SEGMENT
??_R3Plugin@Ogre@@8 DD 00H				; Ogre::Plugin::`RTTI Class Hierarchy Descriptor'
	DD	00H
	DD	01H
	DD	FLAT:??_R2Plugin@Ogre@@8
rdata$r	ENDS
;	COMDAT ??_R0?AVPlugin@Ogre@@@8
_DATA	SEGMENT
??_R0?AVPlugin@Ogre@@@8 DD FLAT:??_7type_info@@6B@	; Ogre::Plugin `RTTI Type Descriptor'
	DD	00H
	DB	'.?AVPlugin@Ogre@@', 00H
_DATA	ENDS
;	COMDAT ??_R1A@?0A@EA@Plugin@Ogre@@8
rdata$r	SEGMENT
??_R1A@?0A@EA@Plugin@Ogre@@8 DD FLAT:??_R0?AVPlugin@Ogre@@@8 ; Ogre::Plugin::`RTTI Base Class Descriptor at (0,-1,0,64)'
	DD	00H
	DD	00H
	DD	0ffffffffH
	DD	00H
	DD	040H
	DD	FLAT:??_R3Plugin@Ogre@@8
rdata$r	ENDS
;	COMDAT ??_R1A@?0A@EA@D3D9Plugin@Ogre@@8
rdata$r	SEGMENT
??_R1A@?0A@EA@D3D9Plugin@Ogre@@8 DD FLAT:??_R0?AVD3D9Plugin@Ogre@@@8 ; Ogre::D3D9Plugin::`RTTI Base Class Descriptor at (0,-1,0,64)'
	DD	01H
	DD	00H
	DD	0ffffffffH
	DD	00H
	DD	040H
	DD	FLAT:??_R3D3D9Plugin@Ogre@@8
rdata$r	ENDS
;	COMDAT ??_R2D3D9Plugin@Ogre@@8
rdata$r	SEGMENT
??_R2D3D9Plugin@Ogre@@8 DD FLAT:??_R1A@?0A@EA@D3D9Plugin@Ogre@@8 ; Ogre::D3D9Plugin::`RTTI Base Class Array'
	DD	FLAT:??_R1A@?0A@EA@Plugin@Ogre@@8
rdata$r	ENDS
;	COMDAT ??_R3D3D9Plugin@Ogre@@8
rdata$r	SEGMENT
??_R3D3D9Plugin@Ogre@@8 DD 00H				; Ogre::D3D9Plugin::`RTTI Class Hierarchy Descriptor'
	DD	00H
	DD	02H
	DD	FLAT:??_R2D3D9Plugin@Ogre@@8
rdata$r	ENDS
;	COMDAT ??_R0?AVD3D9Plugin@Ogre@@@8
_DATA	SEGMENT
??_R0?AVD3D9Plugin@Ogre@@@8 DD FLAT:??_7type_info@@6B@	; Ogre::D3D9Plugin `RTTI Type Descriptor'
	DD	00H
	DB	'.?AVD3D9Plugin@Ogre@@', 00H
_DATA	ENDS
;	COMDAT ??_R4D3D9Plugin@Ogre@@6B@
rdata$r	SEGMENT
??_R4D3D9Plugin@Ogre@@6B@ DD 00H			; Ogre::D3D9Plugin::`RTTI Complete Object Locator'
	DD	00H
	DD	00H
	DD	FLAT:??_R0?AVD3D9Plugin@Ogre@@@8
	DD	FLAT:??_R3D3D9Plugin@Ogre@@8
rdata$r	ENDS
;	COMDAT ??_7D3D9Plugin@Ogre@@6B@
CONST	SEGMENT
??_7D3D9Plugin@Ogre@@6B@ DD FLAT:??_R4D3D9Plugin@Ogre@@6B@ ; Ogre::D3D9Plugin::`vftable'
	DD	FLAT:??_ED3D9Plugin@Ogre@@UAEPAXI@Z
	DD	FLAT:?getName@D3D9Plugin@Ogre@@UBEABV?$basic_string@DU?$char_traits@D@std@@V?$allocator@D@2@@std@@XZ
	DD	FLAT:?install@D3D9Plugin@Ogre@@UAEXXZ
	DD	FLAT:?initialise@D3D9Plugin@Ogre@@UAEXXZ
	DD	FLAT:?shutdown@D3D9Plugin@Ogre@@UAEXXZ
	DD	FLAT:?uninstall@D3D9Plugin@Ogre@@UAEXXZ
CONST	ENDS
xdata$x	SEGMENT
__unwindtable$??0D3D9Plugin@Ogre@@QAE@XZ DD 0ffffffffH
	DD	FLAT:__unwindfunclet$??0D3D9Plugin@Ogre@@QAE@XZ$0
__ehfuncinfo$??0D3D9Plugin@Ogre@@QAE@XZ DD 019930522H
	DD	01H
	DD	FLAT:__unwindtable$??0D3D9Plugin@Ogre@@QAE@XZ
	DD	2 DUP(00H)
	DD	2 DUP(00H)
	DD	00H
	DD	00H
; Function compile flags: /Odtp
xdata$x	ENDS
_TEXT	SEGMENT
_this$ = -16						; size = 4
__$EHRec$ = -12						; size = 12
??0D3D9Plugin@Ogre@@QAE@XZ PROC				; Ogre::D3D9Plugin::D3D9Plugin
; _this$ = ecx

; 43   : 	{

	push	ebp
	mov	ebp, esp
	push	-1
	push	__ehhandler$??0D3D9Plugin@Ogre@@QAE@XZ
	mov	eax, DWORD PTR fs:0
	push	eax
	push	ecx
	mov	eax, DWORD PTR ___security_cookie
	xor	eax, ebp
	push	eax
	lea	eax, DWORD PTR __$EHRec$[ebp]
	mov	DWORD PTR fs:0, eax
	mov	DWORD PTR _this$[ebp], ecx
	mov	ecx, DWORD PTR _this$[ebp]
	call	DWORD PTR __imp_??0Plugin@Ogre@@QAE@XZ
	mov	DWORD PTR __$EHRec$[ebp+8], 0
	mov	eax, DWORD PTR _this$[ebp]
	mov	DWORD PTR [eax], OFFSET ??_7D3D9Plugin@Ogre@@6B@
	mov	ecx, DWORD PTR _this$[ebp]
	mov	DWORD PTR [ecx+4], 0

; 44   : 
; 45   : 	}

	mov	DWORD PTR __$EHRec$[ebp+8], -1
	mov	eax, DWORD PTR _this$[ebp]
	mov	ecx, DWORD PTR __$EHRec$[ebp]
	mov	DWORD PTR fs:0, ecx
	pop	ecx
	mov	esp, ebp
	pop	ebp
	ret	0
_TEXT	ENDS
text$x	SEGMENT
__unwindfunclet$??0D3D9Plugin@Ogre@@QAE@XZ$0:
	mov	ecx, DWORD PTR _this$[ebp]
	jmp	DWORD PTR __imp_??1Plugin@Ogre@@UAE@XZ
__ehhandler$??0D3D9Plugin@Ogre@@QAE@XZ:
	mov	edx, DWORD PTR [esp+8]
	lea	eax, DWORD PTR [edx+12]
	mov	ecx, DWORD PTR [edx-8]
	xor	ecx, eax
	call	@__security_check_cookie@4
	mov	eax, OFFSET __ehfuncinfo$??0D3D9Plugin@Ogre@@QAE@XZ
	jmp	___CxxFrameHandler3
text$x	ENDS
??0D3D9Plugin@Ogre@@QAE@XZ ENDP				; Ogre::D3D9Plugin::D3D9Plugin
PUBLIC	??1D3D9Plugin@Ogre@@UAE@XZ			; Ogre::D3D9Plugin::~D3D9Plugin
EXTRN	??3@YAXPAX@Z:PROC				; operator delete
; Function compile flags: /Odtp
;	COMDAT ??_GD3D9Plugin@Ogre@@UAEPAXI@Z
_TEXT	SEGMENT
_this$ = -4						; size = 4
___flags$ = 8						; size = 4
??_GD3D9Plugin@Ogre@@UAEPAXI@Z PROC			; Ogre::D3D9Plugin::`scalar deleting destructor', COMDAT
; _this$ = ecx
	push	ebp
	mov	ebp, esp
	push	ecx
	mov	DWORD PTR _this$[ebp], ecx
	mov	ecx, DWORD PTR _this$[ebp]
	call	??1D3D9Plugin@Ogre@@UAE@XZ
	mov	eax, DWORD PTR ___flags$[ebp]
	and	eax, 1
	je	SHORT $LN1@scalar
	mov	ecx, DWORD PTR _this$[ebp]
	push	ecx
	call	??3@YAXPAX@Z				; operator delete
	add	esp, 4
$LN1@scalar:
	mov	eax, DWORD PTR _this$[ebp]
	mov	esp, ebp
	pop	ebp
	ret	4
??_GD3D9Plugin@Ogre@@UAEPAXI@Z ENDP			; Ogre::D3D9Plugin::`scalar deleting destructor'
_TEXT	ENDS
;	COMDAT xdata$x
xdata$x	SEGMENT
__unwindtable$??1D3D9Plugin@Ogre@@UAE@XZ DD 0ffffffffH
	DD	FLAT:__unwindfunclet$??1D3D9Plugin@Ogre@@UAE@XZ$0
__ehfuncinfo$??1D3D9Plugin@Ogre@@UAE@XZ DD 019930522H
	DD	01H
	DD	FLAT:__unwindtable$??1D3D9Plugin@Ogre@@UAE@XZ
	DD	2 DUP(00H)
	DD	2 DUP(00H)
	DD	00H
	DD	00H
; Function compile flags: /Odtp
xdata$x	ENDS
;	COMDAT ??1D3D9Plugin@Ogre@@UAE@XZ
_TEXT	SEGMENT
_this$ = -16						; size = 4
__$EHRec$ = -12						; size = 12
??1D3D9Plugin@Ogre@@UAE@XZ PROC				; Ogre::D3D9Plugin::~D3D9Plugin, COMDAT
; _this$ = ecx
	push	ebp
	mov	ebp, esp
	push	-1
	push	__ehhandler$??1D3D9Plugin@Ogre@@UAE@XZ
	mov	eax, DWORD PTR fs:0
	push	eax
	push	ecx
	mov	eax, DWORD PTR ___security_cookie
	xor	eax, ebp
	push	eax
	lea	eax, DWORD PTR __$EHRec$[ebp]
	mov	DWORD PTR fs:0, eax
	mov	DWORD PTR _this$[ebp], ecx
	mov	DWORD PTR __$EHRec$[ebp+8], 0
	mov	DWORD PTR __$EHRec$[ebp+8], -1
	mov	ecx, DWORD PTR _this$[ebp]
	call	DWORD PTR __imp_??1Plugin@Ogre@@UAE@XZ
	mov	ecx, DWORD PTR __$EHRec$[ebp]
	mov	DWORD PTR fs:0, ecx
	pop	ecx
	mov	esp, ebp
	pop	ebp
	ret	0
_TEXT	ENDS
;	COMDAT text$x
text$x	SEGMENT
__unwindfunclet$??1D3D9Plugin@Ogre@@UAE@XZ$0:
	mov	ecx, DWORD PTR _this$[ebp]
	jmp	DWORD PTR __imp_??1Plugin@Ogre@@UAE@XZ
__ehhandler$??1D3D9Plugin@Ogre@@UAE@XZ:
	mov	edx, DWORD PTR [esp+8]
	lea	eax, DWORD PTR [edx+12]
	mov	ecx, DWORD PTR [edx-8]
	xor	ecx, eax
	call	@__security_check_cookie@4
	mov	eax, OFFSET __ehfuncinfo$??1D3D9Plugin@Ogre@@UAE@XZ
	jmp	___CxxFrameHandler3
text$x	ENDS
??1D3D9Plugin@Ogre@@UAE@XZ ENDP				; Ogre::D3D9Plugin::~D3D9Plugin
; Function compile flags: /Odtp
_TEXT	SEGMENT
_this$ = -4						; size = 4
?getName@D3D9Plugin@Ogre@@UBEABV?$basic_string@DU?$char_traits@D@std@@V?$allocator@D@2@@std@@XZ PROC ; Ogre::D3D9Plugin::getName
; _this$ = ecx

; 48   : 	{

	push	ebp
	mov	ebp, esp
	push	ecx
	mov	DWORD PTR _this$[ebp], ecx

; 49   : 		return sPluginName;

	mov	eax, OFFSET _sPluginName

; 50   : 	}

	mov	esp, ebp
	pop	ebp
	ret	0
?getName@D3D9Plugin@Ogre@@UBEABV?$basic_string@DU?$char_traits@D@std@@V?$allocator@D@2@@std@@XZ ENDP ; Ogre::D3D9Plugin::getName
_TEXT	ENDS
EXTRN	??0D3D9RenderSystem@Ogre@@QAE@PAUHINSTANCE__@@@Z:PROC ; Ogre::D3D9RenderSystem::D3D9RenderSystem
EXTRN	??2@YAPAXI@Z:PROC				; operator new
EXTRN	__imp__GetModuleHandleA@4:PROC
xdata$x	SEGMENT
__unwindtable$?install@D3D9Plugin@Ogre@@UAEXXZ DD 0ffffffffH
	DD	FLAT:__unwindfunclet$?install@D3D9Plugin@Ogre@@UAEXXZ$0
__ehfuncinfo$?install@D3D9Plugin@Ogre@@UAEXXZ DD 019930522H
	DD	01H
	DD	FLAT:__unwindtable$?install@D3D9Plugin@Ogre@@UAEXXZ
	DD	2 DUP(00H)
	DD	2 DUP(00H)
	DD	00H
	DD	00H
; Function compile flags: /Odtp
xdata$x	ENDS
_TEXT	SEGMENT
tv75 = -32						; size = 4
_this$ = -28						; size = 4
$T143932 = -24						; size = 4
$T143931 = -20						; size = 4
_hInst$ = -16						; size = 4
__$EHRec$ = -12						; size = 12
?install@D3D9Plugin@Ogre@@UAEXXZ PROC			; Ogre::D3D9Plugin::install
; _this$ = ecx

; 53   : 	{

	push	ebp
	mov	ebp, esp
	push	-1
	push	__ehhandler$?install@D3D9Plugin@Ogre@@UAEXXZ
	mov	eax, DWORD PTR fs:0
	push	eax
	sub	esp, 20					; 00000014H
	mov	eax, DWORD PTR ___security_cookie
	xor	eax, ebp
	push	eax
	lea	eax, DWORD PTR __$EHRec$[ebp]
	mov	DWORD PTR fs:0, eax
	mov	DWORD PTR _this$[ebp], ecx

; 54   : 		// Create the DirectX 9 rendering api
; 55   : #ifdef OGRE_STATIC_LIB
; 56   : 		HINSTANCE hInst = GetModuleHandle( NULL );
; 57   : #else
; 58   : #ifndef _DEBUG
; 59   : 		HINSTANCE hInst = GetModuleHandle( "RenderSystem_Direct3D9.dll" );

	push	OFFSET $SG139094
	call	DWORD PTR __imp__GetModuleHandleA@4
	mov	DWORD PTR _hInst$[ebp], eax

; 60   : #else
; 61   : 		HINSTANCE hInst = GetModuleHandle( "RenderSystem_Direct3D9_d.dll" );
; 62   : #endif
; 63   : #endif
; 64   : 		m_pRenderSystem = new D3D9RenderSystem( hInst );

	push	568					; 00000238H
	call	??2@YAPAXI@Z				; operator new
	add	esp, 4
	mov	DWORD PTR $T143932[ebp], eax
	mov	DWORD PTR __$EHRec$[ebp+8], 0
	cmp	DWORD PTR $T143932[ebp], 0
	je	SHORT $LN3@install
	mov	eax, DWORD PTR _hInst$[ebp]
	push	eax
	mov	ecx, DWORD PTR $T143932[ebp]
	call	??0D3D9RenderSystem@Ogre@@QAE@PAUHINSTANCE__@@@Z ; Ogre::D3D9RenderSystem::D3D9RenderSystem
	mov	DWORD PTR tv75[ebp], eax
	jmp	SHORT $LN4@install
$LN3@install:
	mov	DWORD PTR tv75[ebp], 0
$LN4@install:
	mov	ecx, DWORD PTR tv75[ebp]
	mov	DWORD PTR $T143931[ebp], ecx
	mov	DWORD PTR __$EHRec$[ebp+8], -1
	mov	edx, DWORD PTR _this$[ebp]
	mov	eax, DWORD PTR $T143931[ebp]
	mov	DWORD PTR [edx+4], eax

; 65   : 	}

	mov	ecx, DWORD PTR __$EHRec$[ebp]
	mov	DWORD PTR fs:0, ecx
	pop	ecx
	mov	esp, ebp
	pop	ebp
	ret	0
_TEXT	ENDS
text$x	SEGMENT
__unwindfunclet$?install@D3D9Plugin@Ogre@@UAEXXZ$0:
	mov	eax, DWORD PTR $T143932[ebp]
	push	eax
	call	??3@YAXPAX@Z				; operator delete
	pop	ecx
	ret	0
__ehhandler$?install@D3D9Plugin@Ogre@@UAEXXZ:
	mov	edx, DWORD PTR [esp+8]
	lea	eax, DWORD PTR [edx+12]
	mov	ecx, DWORD PTR [edx-24]
	xor	ecx, eax
	call	@__security_check_cookie@4
	mov	eax, OFFSET __ehfuncinfo$?install@D3D9Plugin@Ogre@@UAEXXZ
	jmp	___CxxFrameHandler3
text$x	ENDS
?install@D3D9Plugin@Ogre@@UAEXXZ ENDP			; Ogre::D3D9Plugin::install
; Function compile flags: /Odtp
_TEXT	SEGMENT
_this$ = -4						; size = 4
?initialise@D3D9Plugin@Ogre@@UAEXXZ PROC		; Ogre::D3D9Plugin::initialise
; _this$ = ecx

; 68   : 	{

	push	ebp
	mov	ebp, esp
	push	ecx
	mov	DWORD PTR _this$[ebp], ecx

; 69   : 		// nothing to do
; 70   : 	}

	mov	esp, ebp
	pop	ebp
	ret	0
?initialise@D3D9Plugin@Ogre@@UAEXXZ ENDP		; Ogre::D3D9Plugin::initialise
; Function compile flags: /Odtp
_this$ = -4						; size = 4
?shutdown@D3D9Plugin@Ogre@@UAEXXZ PROC			; Ogre::D3D9Plugin::shutdown
; _this$ = ecx

; 73   : 	{

	push	ebp
	mov	ebp, esp
	push	ecx
	mov	DWORD PTR _this$[ebp], ecx

; 74   : 		// nothing to do
; 75   : 	}

	mov	esp, ebp
	pop	ebp
	ret	0
?shutdown@D3D9Plugin@Ogre@@UAEXXZ ENDP			; Ogre::D3D9Plugin::shutdown
_TEXT	ENDS
PUBLIC	??_GD3D9RenderSystem@Ogre@@QAEPAXI@Z		; Ogre::D3D9RenderSystem::`scalar deleting destructor'
; Function compile flags: /Odtp
_TEXT	SEGMENT
tv69 = -16						; size = 4
_this$ = -12						; size = 4
$T143944 = -8						; size = 4
$T143943 = -4						; size = 4
?uninstall@D3D9Plugin@Ogre@@UAEXXZ PROC			; Ogre::D3D9Plugin::uninstall
; _this$ = ecx

; 78   : 	{

	push	ebp
	mov	ebp, esp
	sub	esp, 16					; 00000010H
	mov	DWORD PTR _this$[ebp], ecx

; 79   : 		delete m_pRenderSystem;

	mov	eax, DWORD PTR _this$[ebp]
	mov	ecx, DWORD PTR [eax+4]
	mov	DWORD PTR $T143944[ebp], ecx
	mov	edx, DWORD PTR $T143944[ebp]
	mov	DWORD PTR $T143943[ebp], edx
	cmp	DWORD PTR $T143943[ebp], 0
	je	SHORT $LN3@uninstall
	push	1
	mov	ecx, DWORD PTR $T143943[ebp]
	call	??_GD3D9RenderSystem@Ogre@@QAEPAXI@Z
	mov	DWORD PTR tv69[ebp], eax
	jmp	SHORT $LN1@uninstall
$LN3@uninstall:
	mov	DWORD PTR tv69[ebp], 0
$LN1@uninstall:

; 80   : 	}

	mov	esp, ebp
	pop	ebp
	ret	0
?uninstall@D3D9Plugin@Ogre@@UAEXXZ ENDP			; Ogre::D3D9Plugin::uninstall
_TEXT	ENDS
EXTRN	??1D3D9RenderSystem@Ogre@@QAE@XZ:PROC		; Ogre::D3D9RenderSystem::~D3D9RenderSystem
; Function compile flags: /Odtp
;	COMDAT ??_GD3D9RenderSystem@Ogre@@QAEPAXI@Z
_TEXT	SEGMENT
_this$ = -4						; size = 4
___flags$ = 8						; size = 4
??_GD3D9RenderSystem@Ogre@@QAEPAXI@Z PROC		; Ogre::D3D9RenderSystem::`scalar deleting destructor', COMDAT
; _this$ = ecx
	push	ebp
	mov	ebp, esp
	push	ecx
	mov	DWORD PTR _this$[ebp], ecx
	mov	ecx, DWORD PTR _this$[ebp]
	call	??1D3D9RenderSystem@Ogre@@QAE@XZ	; Ogre::D3D9RenderSystem::~D3D9RenderSystem
	mov	eax, DWORD PTR ___flags$[ebp]
	and	eax, 1
	je	SHORT $LN1@scalar@2
	mov	ecx, DWORD PTR _this$[ebp]
	push	ecx
	call	??3@YAXPAX@Z				; operator delete
	add	esp, 4
$LN1@scalar@2:
	mov	eax, DWORD PTR _this$[ebp]
	mov	esp, ebp
	pop	ebp
	ret	4
??_GD3D9RenderSystem@Ogre@@QAEPAXI@Z ENDP		; Ogre::D3D9RenderSystem::`scalar deleting destructor'
_TEXT	ENDS
EXTRN	__fltused:DWORD
; Function compile flags: /Odtp
; File i:\svnroot\client\ogremain\ogremath.h
;	COMDAT ??__ETWO_PI@Ogre@@YAXXZ
text$yc	SEGMENT
??__ETWO_PI@Ogre@@YAXXZ PROC				; Ogre::`dynamic initializer for 'TWO_PI'', COMDAT

; 10   : 	const float TWO_PI = ONE_PI*2;

	push	ebp
	mov	ebp, esp
	fld	DWORD PTR _ONE_PI
	fadd	ST(0), ST(0)
	fstp	DWORD PTR _TWO_PI
	pop	ebp
	ret	0
??__ETWO_PI@Ogre@@YAXXZ ENDP				; Ogre::`dynamic initializer for 'TWO_PI''
text$yc	ENDS
PUBLIC	__real@3fe0000000000000
;	COMDAT __real@3fe0000000000000
CONST	SEGMENT
__real@3fe0000000000000 DQ 03fe0000000000000r	; 0.5
; Function compile flags: /Odtp
CONST	ENDS
;	COMDAT ??__EHALF_PI@Ogre@@YAXXZ
text$yc	SEGMENT
??__EHALF_PI@Ogre@@YAXXZ PROC				; Ogre::`dynamic initializer for 'HALF_PI'', COMDAT

; 11   : 	const float	HALF_PI = ONE_PI*0.5f;

	push	ebp
	mov	ebp, esp
	fld	DWORD PTR _ONE_PI
	fmul	QWORD PTR __real@3fe0000000000000
	fstp	DWORD PTR _HALF_PI
	pop	ebp
	ret	0
??__EHALF_PI@Ogre@@YAXXZ ENDP				; Ogre::`dynamic initializer for 'HALF_PI''
text$yc	ENDS
EXTRN	_atexit:PROC
EXTRN	__imp_??0?$basic_string@DU?$char_traits@D@std@@V?$allocator@D@2@@std@@QAE@PBD@Z:PROC
; Function compile flags: /Odtp
; File i:\svnroot\client\plugins\rendersystem_d3d9\ogred3d9plugin.cpp
;	COMDAT ??__EsPluginName@Ogre@@YAXXZ
text$yc	SEGMENT
??__EsPluginName@Ogre@@YAXXZ PROC			; Ogre::`dynamic initializer for 'sPluginName'', COMDAT

; 39   : 	const String sPluginName = "D3D9 RenderSystem";

	push	ebp
	mov	ebp, esp
	push	OFFSET $SG139073
	mov	ecx, OFFSET _sPluginName
	call	DWORD PTR __imp_??0?$basic_string@DU?$char_traits@D@std@@V?$allocator@D@2@@std@@QAE@PBD@Z
	push	OFFSET ??__FsPluginName@Ogre@@YAXXZ	; Ogre::`dynamic atexit destructor for 'sPluginName''
	call	_atexit
	add	esp, 4
	pop	ebp
	ret	0
??__EsPluginName@Ogre@@YAXXZ ENDP			; Ogre::`dynamic initializer for 'sPluginName''
text$yc	ENDS
EXTRN	__imp_??1?$basic_string@DU?$char_traits@D@std@@V?$allocator@D@2@@std@@QAE@XZ:PROC
; Function compile flags: /Odtp
;	COMDAT ??__FsPluginName@Ogre@@YAXXZ
text$yd	SEGMENT
??__FsPluginName@Ogre@@YAXXZ PROC			; Ogre::`dynamic atexit destructor for 'sPluginName'', COMDAT
	push	ebp
	mov	ebp, esp
	mov	ecx, OFFSET _sPluginName
	call	DWORD PTR __imp_??1?$basic_string@DU?$char_traits@D@std@@V?$allocator@D@2@@std@@QAE@XZ
	pop	ebp
	ret	0
??__FsPluginName@Ogre@@YAXXZ ENDP			; Ogre::`dynamic atexit destructor for 'sPluginName''
text$yd	ENDS
_BSS	SEGMENT
_TWO_PI	DD	01H DUP (?)
_HALF_PI DD	01H DUP (?)
_sPluginName DB	01cH DUP (?)
_BSS	ENDS
CRT$XCU	SEGMENT
_TWO_PI$initializer$ DD FLAT:??__ETWO_PI@Ogre@@YAXXZ
_HALF_PI$initializer$ DD FLAT:??__EHALF_PI@Ogre@@YAXXZ
_sPluginName$initializer$ DD FLAT:??__EsPluginName@Ogre@@YAXXZ
CRT$XCU	ENDS
END
