; Listing generated by Microsoft (R) Optimizing Compiler Version 15.00.30729.01 

	TITLE	i:\svnroot\client\Plugins\RenderSystem_D3D9\OgreD3D9Technique_Impl.cpp
	.686P
	.XMM
	include listing.inc
	.model	flat

INCLUDELIB MSVCRT
INCLUDELIB OLDNAMES

PUBLIC	?_Value@?$_Is_swap_move@U_Swap_move_tag@std@@@std@@2_NB ; std::_Is_swap_move<std::_Swap_move_tag>::_Value
PUBLIC	?collate@?$_Locbase@H@std@@2HB			; std::_Locbase<int>::collate
PUBLIC	?ctype@?$_Locbase@H@std@@2HB			; std::_Locbase<int>::ctype
PUBLIC	?monetary@?$_Locbase@H@std@@2HB			; std::_Locbase<int>::monetary
PUBLIC	?numeric@?$_Locbase@H@std@@2HB			; std::_Locbase<int>::numeric
PUBLIC	?time@?$_Locbase@H@std@@2HB			; std::_Locbase<int>::time
PUBLIC	?messages@?$_Locbase@H@std@@2HB			; std::_Locbase<int>::messages
PUBLIC	?all@?$_Locbase@H@std@@2HB			; std::_Locbase<int>::all
PUBLIC	?none@?$_Locbase@H@std@@2HB			; std::_Locbase<int>::none
PUBLIC	?skipws@?$_Iosb@H@std@@2W4_Fmtflags@12@B	; std::_Iosb<int>::skipws
PUBLIC	?unitbuf@?$_Iosb@H@std@@2W4_Fmtflags@12@B	; std::_Iosb<int>::unitbuf
PUBLIC	?uppercase@?$_Iosb@H@std@@2W4_Fmtflags@12@B	; std::_Iosb<int>::uppercase
PUBLIC	?showbase@?$_Iosb@H@std@@2W4_Fmtflags@12@B	; std::_Iosb<int>::showbase
PUBLIC	?showpoint@?$_Iosb@H@std@@2W4_Fmtflags@12@B	; std::_Iosb<int>::showpoint
PUBLIC	?showpos@?$_Iosb@H@std@@2W4_Fmtflags@12@B	; std::_Iosb<int>::showpos
PUBLIC	?left@?$_Iosb@H@std@@2W4_Fmtflags@12@B		; std::_Iosb<int>::left
PUBLIC	?right@?$_Iosb@H@std@@2W4_Fmtflags@12@B		; std::_Iosb<int>::right
PUBLIC	?internal@?$_Iosb@H@std@@2W4_Fmtflags@12@B	; std::_Iosb<int>::internal
PUBLIC	?dec@?$_Iosb@H@std@@2W4_Fmtflags@12@B		; std::_Iosb<int>::dec
PUBLIC	?oct@?$_Iosb@H@std@@2W4_Fmtflags@12@B		; std::_Iosb<int>::oct
PUBLIC	?hex@?$_Iosb@H@std@@2W4_Fmtflags@12@B		; std::_Iosb<int>::hex
PUBLIC	?scientific@?$_Iosb@H@std@@2W4_Fmtflags@12@B	; std::_Iosb<int>::scientific
PUBLIC	?fixed@?$_Iosb@H@std@@2W4_Fmtflags@12@B		; std::_Iosb<int>::fixed
PUBLIC	?hexfloat@?$_Iosb@H@std@@2W4_Fmtflags@12@B	; std::_Iosb<int>::hexfloat
PUBLIC	?boolalpha@?$_Iosb@H@std@@2W4_Fmtflags@12@B	; std::_Iosb<int>::boolalpha
PUBLIC	?_Stdio@?$_Iosb@H@std@@2W4_Fmtflags@12@B	; std::_Iosb<int>::_Stdio
PUBLIC	?adjustfield@?$_Iosb@H@std@@2W4_Fmtflags@12@B	; std::_Iosb<int>::adjustfield
PUBLIC	?basefield@?$_Iosb@H@std@@2W4_Fmtflags@12@B	; std::_Iosb<int>::basefield
PUBLIC	?floatfield@?$_Iosb@H@std@@2W4_Fmtflags@12@B	; std::_Iosb<int>::floatfield
PUBLIC	?goodbit@?$_Iosb@H@std@@2W4_Iostate@12@B	; std::_Iosb<int>::goodbit
PUBLIC	?eofbit@?$_Iosb@H@std@@2W4_Iostate@12@B		; std::_Iosb<int>::eofbit
PUBLIC	?failbit@?$_Iosb@H@std@@2W4_Iostate@12@B	; std::_Iosb<int>::failbit
PUBLIC	?badbit@?$_Iosb@H@std@@2W4_Iostate@12@B		; std::_Iosb<int>::badbit
PUBLIC	?_Hardfail@?$_Iosb@H@std@@2W4_Iostate@12@B	; std::_Iosb<int>::_Hardfail
PUBLIC	?in@?$_Iosb@H@std@@2W4_Openmode@12@B		; std::_Iosb<int>::in
PUBLIC	?out@?$_Iosb@H@std@@2W4_Openmode@12@B		; std::_Iosb<int>::out
PUBLIC	?ate@?$_Iosb@H@std@@2W4_Openmode@12@B		; std::_Iosb<int>::ate
PUBLIC	?app@?$_Iosb@H@std@@2W4_Openmode@12@B		; std::_Iosb<int>::app
PUBLIC	?trunc@?$_Iosb@H@std@@2W4_Openmode@12@B		; std::_Iosb<int>::trunc
PUBLIC	?_Nocreate@?$_Iosb@H@std@@2W4_Openmode@12@B	; std::_Iosb<int>::_Nocreate
PUBLIC	?_Noreplace@?$_Iosb@H@std@@2W4_Openmode@12@B	; std::_Iosb<int>::_Noreplace
PUBLIC	?binary@?$_Iosb@H@std@@2W4_Openmode@12@B	; std::_Iosb<int>::binary
PUBLIC	?beg@?$_Iosb@H@std@@2W4_Seekdir@12@B		; std::_Iosb<int>::beg
PUBLIC	?cur@?$_Iosb@H@std@@2W4_Seekdir@12@B		; std::_Iosb<int>::cur
PUBLIC	?end@?$_Iosb@H@std@@2W4_Seekdir@12@B		; std::_Iosb<int>::end
PUBLIC	?value@?$integral_constant@_N$0A@@tr1@std@@2_NB	; std::tr1::integral_constant<bool,0>::value
PUBLIC	?value@?$integral_constant@_N$00@tr1@std@@2_NB	; std::tr1::integral_constant<bool,1>::value
;	COMDAT ?value@?$integral_constant@_N$00@tr1@std@@2_NB
CONST	SEGMENT
?value@?$integral_constant@_N$00@tr1@std@@2_NB DB 01H	; std::tr1::integral_constant<bool,1>::value
CONST	ENDS
;	COMDAT ?value@?$integral_constant@_N$0A@@tr1@std@@2_NB
CONST	SEGMENT
?value@?$integral_constant@_N$0A@@tr1@std@@2_NB DB 00H	; std::tr1::integral_constant<bool,0>::value
CONST	ENDS
;	COMDAT ?end@?$_Iosb@H@std@@2W4_Seekdir@12@B
CONST	SEGMENT
?end@?$_Iosb@H@std@@2W4_Seekdir@12@B DD 02H		; std::_Iosb<int>::end
CONST	ENDS
;	COMDAT ?cur@?$_Iosb@H@std@@2W4_Seekdir@12@B
CONST	SEGMENT
?cur@?$_Iosb@H@std@@2W4_Seekdir@12@B DD 01H		; std::_Iosb<int>::cur
CONST	ENDS
;	COMDAT ?beg@?$_Iosb@H@std@@2W4_Seekdir@12@B
CONST	SEGMENT
?beg@?$_Iosb@H@std@@2W4_Seekdir@12@B DD 00H		; std::_Iosb<int>::beg
CONST	ENDS
;	COMDAT ?binary@?$_Iosb@H@std@@2W4_Openmode@12@B
CONST	SEGMENT
?binary@?$_Iosb@H@std@@2W4_Openmode@12@B DD 020H	; std::_Iosb<int>::binary
CONST	ENDS
;	COMDAT ?_Noreplace@?$_Iosb@H@std@@2W4_Openmode@12@B
CONST	SEGMENT
?_Noreplace@?$_Iosb@H@std@@2W4_Openmode@12@B DD 080H	; std::_Iosb<int>::_Noreplace
CONST	ENDS
;	COMDAT ?_Nocreate@?$_Iosb@H@std@@2W4_Openmode@12@B
CONST	SEGMENT
?_Nocreate@?$_Iosb@H@std@@2W4_Openmode@12@B DD 040H	; std::_Iosb<int>::_Nocreate
CONST	ENDS
;	COMDAT ?trunc@?$_Iosb@H@std@@2W4_Openmode@12@B
CONST	SEGMENT
?trunc@?$_Iosb@H@std@@2W4_Openmode@12@B DD 010H		; std::_Iosb<int>::trunc
CONST	ENDS
;	COMDAT ?app@?$_Iosb@H@std@@2W4_Openmode@12@B
CONST	SEGMENT
?app@?$_Iosb@H@std@@2W4_Openmode@12@B DD 08H		; std::_Iosb<int>::app
CONST	ENDS
;	COMDAT ?ate@?$_Iosb@H@std@@2W4_Openmode@12@B
CONST	SEGMENT
?ate@?$_Iosb@H@std@@2W4_Openmode@12@B DD 04H		; std::_Iosb<int>::ate
CONST	ENDS
;	COMDAT ?out@?$_Iosb@H@std@@2W4_Openmode@12@B
CONST	SEGMENT
?out@?$_Iosb@H@std@@2W4_Openmode@12@B DD 02H		; std::_Iosb<int>::out
CONST	ENDS
;	COMDAT ?in@?$_Iosb@H@std@@2W4_Openmode@12@B
CONST	SEGMENT
?in@?$_Iosb@H@std@@2W4_Openmode@12@B DD 01H		; std::_Iosb<int>::in
CONST	ENDS
;	COMDAT ?_Hardfail@?$_Iosb@H@std@@2W4_Iostate@12@B
CONST	SEGMENT
?_Hardfail@?$_Iosb@H@std@@2W4_Iostate@12@B DD 010H	; std::_Iosb<int>::_Hardfail
CONST	ENDS
;	COMDAT ?badbit@?$_Iosb@H@std@@2W4_Iostate@12@B
CONST	SEGMENT
?badbit@?$_Iosb@H@std@@2W4_Iostate@12@B DD 04H		; std::_Iosb<int>::badbit
CONST	ENDS
;	COMDAT ?failbit@?$_Iosb@H@std@@2W4_Iostate@12@B
CONST	SEGMENT
?failbit@?$_Iosb@H@std@@2W4_Iostate@12@B DD 02H		; std::_Iosb<int>::failbit
CONST	ENDS
;	COMDAT ?eofbit@?$_Iosb@H@std@@2W4_Iostate@12@B
CONST	SEGMENT
?eofbit@?$_Iosb@H@std@@2W4_Iostate@12@B DD 01H		; std::_Iosb<int>::eofbit
CONST	ENDS
;	COMDAT ?goodbit@?$_Iosb@H@std@@2W4_Iostate@12@B
CONST	SEGMENT
?goodbit@?$_Iosb@H@std@@2W4_Iostate@12@B DD 00H		; std::_Iosb<int>::goodbit
CONST	ENDS
;	COMDAT ?floatfield@?$_Iosb@H@std@@2W4_Fmtflags@12@B
CONST	SEGMENT
?floatfield@?$_Iosb@H@std@@2W4_Fmtflags@12@B DD 03000H	; std::_Iosb<int>::floatfield
CONST	ENDS
;	COMDAT ?basefield@?$_Iosb@H@std@@2W4_Fmtflags@12@B
CONST	SEGMENT
?basefield@?$_Iosb@H@std@@2W4_Fmtflags@12@B DD 0e00H	; std::_Iosb<int>::basefield
CONST	ENDS
;	COMDAT ?adjustfield@?$_Iosb@H@std@@2W4_Fmtflags@12@B
CONST	SEGMENT
?adjustfield@?$_Iosb@H@std@@2W4_Fmtflags@12@B DD 01c0H	; std::_Iosb<int>::adjustfield
CONST	ENDS
;	COMDAT ?_Stdio@?$_Iosb@H@std@@2W4_Fmtflags@12@B
CONST	SEGMENT
?_Stdio@?$_Iosb@H@std@@2W4_Fmtflags@12@B DD 08000H	; std::_Iosb<int>::_Stdio
CONST	ENDS
;	COMDAT ?boolalpha@?$_Iosb@H@std@@2W4_Fmtflags@12@B
CONST	SEGMENT
?boolalpha@?$_Iosb@H@std@@2W4_Fmtflags@12@B DD 04000H	; std::_Iosb<int>::boolalpha
CONST	ENDS
;	COMDAT ?hexfloat@?$_Iosb@H@std@@2W4_Fmtflags@12@B
CONST	SEGMENT
?hexfloat@?$_Iosb@H@std@@2W4_Fmtflags@12@B DD 03000H	; std::_Iosb<int>::hexfloat
CONST	ENDS
;	COMDAT ?fixed@?$_Iosb@H@std@@2W4_Fmtflags@12@B
CONST	SEGMENT
?fixed@?$_Iosb@H@std@@2W4_Fmtflags@12@B DD 02000H	; std::_Iosb<int>::fixed
CONST	ENDS
;	COMDAT ?scientific@?$_Iosb@H@std@@2W4_Fmtflags@12@B
CONST	SEGMENT
?scientific@?$_Iosb@H@std@@2W4_Fmtflags@12@B DD 01000H	; std::_Iosb<int>::scientific
CONST	ENDS
;	COMDAT ?hex@?$_Iosb@H@std@@2W4_Fmtflags@12@B
CONST	SEGMENT
?hex@?$_Iosb@H@std@@2W4_Fmtflags@12@B DD 0800H		; std::_Iosb<int>::hex
CONST	ENDS
;	COMDAT ?oct@?$_Iosb@H@std@@2W4_Fmtflags@12@B
CONST	SEGMENT
?oct@?$_Iosb@H@std@@2W4_Fmtflags@12@B DD 0400H		; std::_Iosb<int>::oct
CONST	ENDS
;	COMDAT ?dec@?$_Iosb@H@std@@2W4_Fmtflags@12@B
CONST	SEGMENT
?dec@?$_Iosb@H@std@@2W4_Fmtflags@12@B DD 0200H		; std::_Iosb<int>::dec
CONST	ENDS
;	COMDAT ?internal@?$_Iosb@H@std@@2W4_Fmtflags@12@B
CONST	SEGMENT
?internal@?$_Iosb@H@std@@2W4_Fmtflags@12@B DD 0100H	; std::_Iosb<int>::internal
CONST	ENDS
;	COMDAT ?right@?$_Iosb@H@std@@2W4_Fmtflags@12@B
CONST	SEGMENT
?right@?$_Iosb@H@std@@2W4_Fmtflags@12@B DD 080H		; std::_Iosb<int>::right
CONST	ENDS
;	COMDAT ?left@?$_Iosb@H@std@@2W4_Fmtflags@12@B
CONST	SEGMENT
?left@?$_Iosb@H@std@@2W4_Fmtflags@12@B DD 040H		; std::_Iosb<int>::left
CONST	ENDS
;	COMDAT ?showpos@?$_Iosb@H@std@@2W4_Fmtflags@12@B
CONST	SEGMENT
?showpos@?$_Iosb@H@std@@2W4_Fmtflags@12@B DD 020H	; std::_Iosb<int>::showpos
CONST	ENDS
;	COMDAT ?showpoint@?$_Iosb@H@std@@2W4_Fmtflags@12@B
CONST	SEGMENT
?showpoint@?$_Iosb@H@std@@2W4_Fmtflags@12@B DD 010H	; std::_Iosb<int>::showpoint
CONST	ENDS
;	COMDAT ?showbase@?$_Iosb@H@std@@2W4_Fmtflags@12@B
CONST	SEGMENT
?showbase@?$_Iosb@H@std@@2W4_Fmtflags@12@B DD 08H	; std::_Iosb<int>::showbase
CONST	ENDS
;	COMDAT ?uppercase@?$_Iosb@H@std@@2W4_Fmtflags@12@B
CONST	SEGMENT
?uppercase@?$_Iosb@H@std@@2W4_Fmtflags@12@B DD 04H	; std::_Iosb<int>::uppercase
CONST	ENDS
;	COMDAT ?unitbuf@?$_Iosb@H@std@@2W4_Fmtflags@12@B
CONST	SEGMENT
?unitbuf@?$_Iosb@H@std@@2W4_Fmtflags@12@B DD 02H	; std::_Iosb<int>::unitbuf
CONST	ENDS
;	COMDAT ?skipws@?$_Iosb@H@std@@2W4_Fmtflags@12@B
CONST	SEGMENT
?skipws@?$_Iosb@H@std@@2W4_Fmtflags@12@B DD 01H		; std::_Iosb<int>::skipws
CONST	ENDS
;	COMDAT ?none@?$_Locbase@H@std@@2HB
CONST	SEGMENT
?none@?$_Locbase@H@std@@2HB DD 00H			; std::_Locbase<int>::none
CONST	ENDS
;	COMDAT ?all@?$_Locbase@H@std@@2HB
CONST	SEGMENT
?all@?$_Locbase@H@std@@2HB DD 03fH			; std::_Locbase<int>::all
CONST	ENDS
;	COMDAT ?messages@?$_Locbase@H@std@@2HB
CONST	SEGMENT
?messages@?$_Locbase@H@std@@2HB DD 020H			; std::_Locbase<int>::messages
CONST	ENDS
;	COMDAT ?time@?$_Locbase@H@std@@2HB
CONST	SEGMENT
?time@?$_Locbase@H@std@@2HB DD 010H			; std::_Locbase<int>::time
CONST	ENDS
;	COMDAT ?numeric@?$_Locbase@H@std@@2HB
CONST	SEGMENT
?numeric@?$_Locbase@H@std@@2HB DD 08H			; std::_Locbase<int>::numeric
CONST	ENDS
;	COMDAT ?monetary@?$_Locbase@H@std@@2HB
CONST	SEGMENT
?monetary@?$_Locbase@H@std@@2HB DD 04H			; std::_Locbase<int>::monetary
CONST	ENDS
;	COMDAT ?ctype@?$_Locbase@H@std@@2HB
CONST	SEGMENT
?ctype@?$_Locbase@H@std@@2HB DD 02H			; std::_Locbase<int>::ctype
CONST	ENDS
;	COMDAT ?collate@?$_Locbase@H@std@@2HB
CONST	SEGMENT
?collate@?$_Locbase@H@std@@2HB DD 01H			; std::_Locbase<int>::collate
CONST	ENDS
;	COMDAT ?_Value@?$_Is_swap_move@U_Swap_move_tag@std@@@std@@2_NB
CONST	SEGMENT
?_Value@?$_Is_swap_move@U_Swap_move_tag@std@@@std@@2_NB DB 01H ; std::_Is_swap_move<std::_Swap_move_tag>::_Value
CONST	ENDS
_DATA	SEGMENT
__bad_alloc_Message DD FLAT:$SG5714
_DATA	ENDS
CONST	SEGMENT
$SG5714	DB	'bad allocation', 00H
	ORG $+1
_MAX_FLOAT DD	07f7fffffr			; 3.40282e+038
_ONE_PI	DD	040490fd0r			; 3.14159
_EPSILON DD	03727c5acr			; 1e-005
_RADS_PER_DEG DD 03c8efa35r			; 0.0174533
_DEGS_PER_RAD DD 042652ee1r			; 57.2958
$SG134046 DB	'back0_lod0', 00H
	ORG $+1
$SG134053 DB	'back1_lod0', 00H
	ORG $+1
$SG134060 DB	'border_lod0', 00H
$SG134067 DB	'border1_lod0', 00H
	ORG $+3
$SG134074 DB	'overlay_lod0', 00H
	ORG $+3
$SG134081 DB	'particle_lod0', 00H
	ORG $+2
$SG134088 DB	'particle_distort', 00H
	ORG $+3
$SG134095 DB	'uvanim_lod0', 00H
$SG134102 DB	'uvanim_blend_lod0', 00H
	ORG $+2
$SG134109 DB	'uvanim_selfillum_lod0', 00H
	ORG $+2
$SG134116 DB	'uvanim_2layer_lod0', 00H
	ORG $+1
$SG134123 DB	'line_lod0', 00H
	ORG $+2
$SG134130 DB	'cloth_lod0', 00H
	ORG $+1
$SG134137 DB	'cloth_shadowgen', 00H
$SG134144 DB	'stdmtl_lod0', 00H
$SG134151 DB	'stdmtl_shadowgen', 00H
	ORG $+3
$SG134158 DB	'beach_lod0', 00H
	ORG $+1
$SG134165 DB	'bloom_lod0', 00H
	ORG $+1
$SG134172 DB	'distort_lod0', 00H
	ORG $+3
$SG134179 DB	'decal_lod0', 00H
	ORG $+1
$SG134186 DB	'decal_distort', 00H
	ORG $+2
$SG134193 DB	'footprint_lod0', 00H
	ORG $+1
$SG134200 DB	'dirdecal_lod0', 00H
	ORG $+2
$SG134207 DB	'sky_stdmtl_lod0', 00H
$SG134214 DB	'sky_stdmtl_shadowgen', 00H
	ORG $+3
$SG134221 DB	'ui_element_lod0', 00H
$SG134228 DB	'plant_lod0', 00H
	ORG $+1
$SG134235 DB	'water_reflect_lod0', 00H
	ORG $+1
$SG134242 DB	'general_water_lod0', 00H
	ORG $+1
$SG134249 DB	'terrain_colormask_lod0', 00H
	ORG $+1
$SG134256 DB	'terrain_all_lod0', 00H
CONST	ENDS
PUBLIC	??0D3DTech_terrain_all_lod0@Ogre@@QAE@XZ	; Ogre::D3DTech_terrain_all_lod0::D3DTech_terrain_all_lod0
PUBLIC	??0D3DTech_terrain_colormask_lod0@Ogre@@QAE@XZ	; Ogre::D3DTech_terrain_colormask_lod0::D3DTech_terrain_colormask_lod0
PUBLIC	??0D3DTech_general_water_lod0@Ogre@@QAE@XZ	; Ogre::D3DTech_general_water_lod0::D3DTech_general_water_lod0
PUBLIC	??0D3DTech_water_reflect_lod0@Ogre@@QAE@XZ	; Ogre::D3DTech_water_reflect_lod0::D3DTech_water_reflect_lod0
PUBLIC	??0D3DTech_plant_lod0@Ogre@@QAE@XZ		; Ogre::D3DTech_plant_lod0::D3DTech_plant_lod0
PUBLIC	??0D3DTech_uielement_lod0@Ogre@@QAE@XZ		; Ogre::D3DTech_uielement_lod0::D3DTech_uielement_lod0
PUBLIC	??0D3DTech_sky_stdmtl_shadowgen@Ogre@@QAE@XZ	; Ogre::D3DTech_sky_stdmtl_shadowgen::D3DTech_sky_stdmtl_shadowgen
PUBLIC	??0D3DTech_sky_stdmtl_lod0@Ogre@@QAE@XZ		; Ogre::D3DTech_sky_stdmtl_lod0::D3DTech_sky_stdmtl_lod0
PUBLIC	??0D3DTech_dirdecal_lod0@Ogre@@QAE@XZ		; Ogre::D3DTech_dirdecal_lod0::D3DTech_dirdecal_lod0
PUBLIC	??0D3DTech_footprint_lod0@Ogre@@QAE@XZ		; Ogre::D3DTech_footprint_lod0::D3DTech_footprint_lod0
PUBLIC	??0D3DTech_decal_distort@Ogre@@QAE@XZ		; Ogre::D3DTech_decal_distort::D3DTech_decal_distort
PUBLIC	??0D3DTech_decal_lod0@Ogre@@QAE@XZ		; Ogre::D3DTech_decal_lod0::D3DTech_decal_lod0
PUBLIC	??0D3DTech_distort_lod0@Ogre@@QAE@XZ		; Ogre::D3DTech_distort_lod0::D3DTech_distort_lod0
PUBLIC	??0D3DTech_bloom_lod0@Ogre@@QAE@XZ		; Ogre::D3DTech_bloom_lod0::D3DTech_bloom_lod0
PUBLIC	??0D3DTech_beach_lod0@Ogre@@QAE@XZ		; Ogre::D3DTech_beach_lod0::D3DTech_beach_lod0
PUBLIC	??0D3DTech_stdmtl_shadowgen@Ogre@@QAE@XZ	; Ogre::D3DTech_stdmtl_shadowgen::D3DTech_stdmtl_shadowgen
PUBLIC	??0D3DTech_stdmtl_lod0@Ogre@@QAE@XZ		; Ogre::D3DTech_stdmtl_lod0::D3DTech_stdmtl_lod0
PUBLIC	??0D3DTech_cloth_shadowgen@Ogre@@QAE@XZ		; Ogre::D3DTech_cloth_shadowgen::D3DTech_cloth_shadowgen
PUBLIC	??0D3DTech_cloth_lod0@Ogre@@QAE@XZ		; Ogre::D3DTech_cloth_lod0::D3DTech_cloth_lod0
PUBLIC	??0D3DTech_Line_lod0@Ogre@@QAE@XZ		; Ogre::D3DTech_Line_lod0::D3DTech_Line_lod0
PUBLIC	??0D3DTech_Uvanim2Layer_lod0@Ogre@@QAE@XZ	; Ogre::D3DTech_Uvanim2Layer_lod0::D3DTech_Uvanim2Layer_lod0
PUBLIC	??0D3DTech_UvanimSelfillum_lod0@Ogre@@QAE@XZ	; Ogre::D3DTech_UvanimSelfillum_lod0::D3DTech_UvanimSelfillum_lod0
PUBLIC	??0D3DTech_UvanimBlend_lod0@Ogre@@QAE@XZ	; Ogre::D3DTech_UvanimBlend_lod0::D3DTech_UvanimBlend_lod0
PUBLIC	??0D3DTech_Uvanim_lod0@Ogre@@QAE@XZ		; Ogre::D3DTech_Uvanim_lod0::D3DTech_Uvanim_lod0
PUBLIC	??0D3DTech_particle_distort@Ogre@@QAE@XZ	; Ogre::D3DTech_particle_distort::D3DTech_particle_distort
PUBLIC	??0D3DTech_Particle_lod0@Ogre@@QAE@XZ		; Ogre::D3DTech_Particle_lod0::D3DTech_Particle_lod0
PUBLIC	??0D3DTech_Overlay_lod0@Ogre@@QAE@XZ		; Ogre::D3DTech_Overlay_lod0::D3DTech_Overlay_lod0
PUBLIC	??0D3DTech_Border1_lod0@Ogre@@QAE@XZ		; Ogre::D3DTech_Border1_lod0::D3DTech_Border1_lod0
PUBLIC	??0D3DTech_Border_lod0@Ogre@@QAE@XZ		; Ogre::D3DTech_Border_lod0::D3DTech_Border_lod0
PUBLIC	??0D3DTech_Back1_lod0@Ogre@@QAE@XZ		; Ogre::D3DTech_Back1_lod0::D3DTech_Back1_lod0
PUBLIC	??0D3DTech_Back0_lod0@Ogre@@QAE@XZ		; Ogre::D3DTech_Back0_lod0::D3DTech_Back0_lod0
PUBLIC	?CreateD3DTech@Ogre@@YAPAVD3DTech@1@PBD@Z	; Ogre::CreateD3DTech
EXTRN	??3@YAXPAX@Z:PROC				; operator delete
EXTRN	??2@YAPAXI@Z:PROC				; operator new
EXTRN	_strcmp:PROC
EXTRN	___security_cookie:DWORD
EXTRN	___CxxFrameHandler3:PROC
EXTRN	@__security_check_cookie@4:PROC
xdata$x	SEGMENT
__ehfuncinfo$?CreateD3DTech@Ogre@@YAPAVD3DTech@1@PBD@Z DD 019930522H
	DD	01fH
	DD	FLAT:__unwindtable$?CreateD3DTech@Ogre@@YAPAVD3DTech@1@PBD@Z
	DD	2 DUP(00H)
	DD	2 DUP(00H)
	DD	00H
	DD	00H
__unwindtable$?CreateD3DTech@Ogre@@YAPAVD3DTech@1@PBD@Z DD 0ffffffffH
	DD	FLAT:__unwindfunclet$?CreateD3DTech@Ogre@@YAPAVD3DTech@1@PBD@Z$0
	DD	0ffffffffH
	DD	FLAT:__unwindfunclet$?CreateD3DTech@Ogre@@YAPAVD3DTech@1@PBD@Z$1
	DD	0ffffffffH
	DD	FLAT:__unwindfunclet$?CreateD3DTech@Ogre@@YAPAVD3DTech@1@PBD@Z$2
	DD	0ffffffffH
	DD	FLAT:__unwindfunclet$?CreateD3DTech@Ogre@@YAPAVD3DTech@1@PBD@Z$3
	DD	0ffffffffH
	DD	FLAT:__unwindfunclet$?CreateD3DTech@Ogre@@YAPAVD3DTech@1@PBD@Z$4
	DD	0ffffffffH
	DD	FLAT:__unwindfunclet$?CreateD3DTech@Ogre@@YAPAVD3DTech@1@PBD@Z$5
	DD	0ffffffffH
	DD	FLAT:__unwindfunclet$?CreateD3DTech@Ogre@@YAPAVD3DTech@1@PBD@Z$6
	DD	0ffffffffH
	DD	FLAT:__unwindfunclet$?CreateD3DTech@Ogre@@YAPAVD3DTech@1@PBD@Z$7
	DD	0ffffffffH
	DD	FLAT:__unwindfunclet$?CreateD3DTech@Ogre@@YAPAVD3DTech@1@PBD@Z$8
	DD	0ffffffffH
	DD	FLAT:__unwindfunclet$?CreateD3DTech@Ogre@@YAPAVD3DTech@1@PBD@Z$9
	DD	0ffffffffH
	DD	FLAT:__unwindfunclet$?CreateD3DTech@Ogre@@YAPAVD3DTech@1@PBD@Z$10
	DD	0ffffffffH
	DD	FLAT:__unwindfunclet$?CreateD3DTech@Ogre@@YAPAVD3DTech@1@PBD@Z$11
	DD	0ffffffffH
	DD	FLAT:__unwindfunclet$?CreateD3DTech@Ogre@@YAPAVD3DTech@1@PBD@Z$12
	DD	0ffffffffH
	DD	FLAT:__unwindfunclet$?CreateD3DTech@Ogre@@YAPAVD3DTech@1@PBD@Z$13
	DD	0ffffffffH
	DD	FLAT:__unwindfunclet$?CreateD3DTech@Ogre@@YAPAVD3DTech@1@PBD@Z$14
	DD	0ffffffffH
	DD	FLAT:__unwindfunclet$?CreateD3DTech@Ogre@@YAPAVD3DTech@1@PBD@Z$15
	DD	0ffffffffH
	DD	FLAT:__unwindfunclet$?CreateD3DTech@Ogre@@YAPAVD3DTech@1@PBD@Z$16
	DD	0ffffffffH
	DD	FLAT:__unwindfunclet$?CreateD3DTech@Ogre@@YAPAVD3DTech@1@PBD@Z$17
	DD	0ffffffffH
	DD	FLAT:__unwindfunclet$?CreateD3DTech@Ogre@@YAPAVD3DTech@1@PBD@Z$18
	DD	0ffffffffH
	DD	FLAT:__unwindfunclet$?CreateD3DTech@Ogre@@YAPAVD3DTech@1@PBD@Z$19
	DD	0ffffffffH
	DD	FLAT:__unwindfunclet$?CreateD3DTech@Ogre@@YAPAVD3DTech@1@PBD@Z$20
	DD	0ffffffffH
	DD	FLAT:__unwindfunclet$?CreateD3DTech@Ogre@@YAPAVD3DTech@1@PBD@Z$21
	DD	0ffffffffH
	DD	FLAT:__unwindfunclet$?CreateD3DTech@Ogre@@YAPAVD3DTech@1@PBD@Z$22
	DD	0ffffffffH
	DD	FLAT:__unwindfunclet$?CreateD3DTech@Ogre@@YAPAVD3DTech@1@PBD@Z$23
	DD	0ffffffffH
	DD	FLAT:__unwindfunclet$?CreateD3DTech@Ogre@@YAPAVD3DTech@1@PBD@Z$24
	DD	0ffffffffH
	DD	FLAT:__unwindfunclet$?CreateD3DTech@Ogre@@YAPAVD3DTech@1@PBD@Z$25
	DD	0ffffffffH
	DD	FLAT:__unwindfunclet$?CreateD3DTech@Ogre@@YAPAVD3DTech@1@PBD@Z$26
	DD	0ffffffffH
	DD	FLAT:__unwindfunclet$?CreateD3DTech@Ogre@@YAPAVD3DTech@1@PBD@Z$27
	DD	0ffffffffH
	DD	FLAT:__unwindfunclet$?CreateD3DTech@Ogre@@YAPAVD3DTech@1@PBD@Z$28
	DD	0ffffffffH
	DD	FLAT:__unwindfunclet$?CreateD3DTech@Ogre@@YAPAVD3DTech@1@PBD@Z$29
	DD	0ffffffffH
	DD	FLAT:__unwindfunclet$?CreateD3DTech@Ogre@@YAPAVD3DTech@1@PBD@Z$30
; Function compile flags: /Odtp
; File i:\svnroot\client\plugins\rendersystem_d3d9\ogred3d9technique_impl.cpp
xdata$x	ENDS
_TEXT	SEGMENT
tv592 = -384						; size = 4
tv577 = -380						; size = 4
tv562 = -376						; size = 4
tv547 = -372						; size = 4
tv532 = -368						; size = 4
tv517 = -364						; size = 4
tv502 = -360						; size = 4
tv487 = -356						; size = 4
tv472 = -352						; size = 4
tv457 = -348						; size = 4
tv442 = -344						; size = 4
tv427 = -340						; size = 4
tv412 = -336						; size = 4
tv397 = -332						; size = 4
tv350 = -328						; size = 4
tv335 = -324						; size = 4
tv320 = -320						; size = 4
tv305 = -316						; size = 4
tv290 = -312						; size = 4
tv275 = -308						; size = 4
tv260 = -304						; size = 4
tv245 = -300						; size = 4
tv230 = -296						; size = 4
tv215 = -292						; size = 4
tv200 = -288						; size = 4
tv185 = -284						; size = 4
tv170 = -280						; size = 4
tv155 = -276						; size = 4
tv140 = -272						; size = 4
tv93 = -268						; size = 4
tv78 = -264						; size = 4
$T139427 = -260						; size = 4
$T139426 = -256						; size = 4
$T139423 = -252						; size = 4
$T139422 = -248						; size = 4
$T139419 = -244						; size = 4
$T139418 = -240						; size = 4
$T139415 = -236						; size = 4
$T139414 = -232						; size = 4
$T139411 = -228						; size = 4
$T139410 = -224						; size = 4
$T139407 = -220						; size = 4
$T139406 = -216						; size = 4
$T139403 = -212						; size = 4
$T139402 = -208						; size = 4
$T139399 = -204						; size = 4
$T139398 = -200						; size = 4
$T139395 = -196						; size = 4
$T139394 = -192						; size = 4
$T139391 = -188						; size = 4
$T139390 = -184						; size = 4
$T139387 = -180						; size = 4
$T139386 = -176						; size = 4
$T139383 = -172						; size = 4
$T139382 = -168						; size = 4
$T139379 = -164						; size = 4
$T139378 = -160						; size = 4
$T139375 = -156						; size = 4
$T139374 = -152						; size = 4
$T139371 = -148						; size = 4
$T139370 = -144						; size = 4
$T139367 = -140						; size = 4
$T139366 = -136						; size = 4
$T139363 = -132						; size = 4
$T139362 = -128						; size = 4
$T139359 = -124						; size = 4
$T139358 = -120						; size = 4
$T139355 = -116						; size = 4
$T139354 = -112						; size = 4
$T139351 = -108						; size = 4
$T139350 = -104						; size = 4
$T139347 = -100						; size = 4
$T139346 = -96						; size = 4
$T139343 = -92						; size = 4
$T139342 = -88						; size = 4
$T139339 = -84						; size = 4
$T139338 = -80						; size = 4
$T139335 = -76						; size = 4
$T139334 = -72						; size = 4
$T139331 = -68						; size = 4
$T139330 = -64						; size = 4
$T139327 = -60						; size = 4
$T139326 = -56						; size = 4
$T139323 = -52						; size = 4
$T139322 = -48						; size = 4
$T139319 = -44						; size = 4
$T139318 = -40						; size = 4
$T139315 = -36						; size = 4
$T139314 = -32						; size = 4
$T139311 = -28						; size = 4
$T139310 = -24						; size = 4
$T139307 = -20						; size = 4
$T139306 = -16						; size = 4
__$EHRec$ = -12						; size = 12
_name$ = 8						; size = 4
?CreateD3DTech@Ogre@@YAPAVD3DTech@1@PBD@Z PROC		; Ogre::CreateD3DTech

; 36   : 	{

	push	ebp
	mov	ebp, esp
	push	-1
	push	__ehhandler$?CreateD3DTech@Ogre@@YAPAVD3DTech@1@PBD@Z
	mov	eax, DWORD PTR fs:0
	push	eax
	sub	esp, 372				; 00000174H
	mov	eax, DWORD PTR ___security_cookie
	xor	eax, ebp
	push	eax
	lea	eax, DWORD PTR __$EHRec$[ebp]
	mov	DWORD PTR fs:0, eax

; 37   : 		if (strcmp(name, "back0_lod0") == 0)

	push	OFFSET $SG134046
	mov	eax, DWORD PTR _name$[ebp]
	push	eax
	call	_strcmp
	add	esp, 8
	test	eax, eax
	jne	SHORT $LN61@CreateD3DT

; 38   : 		{
; 39   : 			return new D3DTech_Back0_lod0;

	push	396					; 0000018cH
	call	??2@YAPAXI@Z				; operator new
	add	esp, 4
	mov	DWORD PTR $T139307[ebp], eax
	mov	DWORD PTR __$EHRec$[ebp+8], 0
	cmp	DWORD PTR $T139307[ebp], 0
	je	SHORT $LN64@CreateD3DT
	mov	ecx, DWORD PTR $T139307[ebp]
	call	??0D3DTech_Back0_lod0@Ogre@@QAE@XZ
	mov	DWORD PTR tv78[ebp], eax
	jmp	SHORT $LN65@CreateD3DT
$LN64@CreateD3DT:
	mov	DWORD PTR tv78[ebp], 0
$LN65@CreateD3DT:
	mov	ecx, DWORD PTR tv78[ebp]
	mov	DWORD PTR $T139306[ebp], ecx
	mov	DWORD PTR __$EHRec$[ebp+8], -1
	mov	eax, DWORD PTR $T139306[ebp]
	jmp	$LN62@CreateD3DT
	jmp	$LN60@CreateD3DT
$LN61@CreateD3DT:

; 40   : 		}
; 41   : 		else if (strcmp(name, "back1_lod0") == 0)

	push	OFFSET $SG134053
	mov	edx, DWORD PTR _name$[ebp]
	push	edx
	call	_strcmp
	add	esp, 8
	test	eax, eax
	jne	SHORT $LN59@CreateD3DT

; 42   : 		{
; 43   : 			return new D3DTech_Back1_lod0;

	push	392					; 00000188H
	call	??2@YAPAXI@Z				; operator new
	add	esp, 4
	mov	DWORD PTR $T139311[ebp], eax
	mov	DWORD PTR __$EHRec$[ebp+8], 1
	cmp	DWORD PTR $T139311[ebp], 0
	je	SHORT $LN66@CreateD3DT
	mov	ecx, DWORD PTR $T139311[ebp]
	call	??0D3DTech_Back1_lod0@Ogre@@QAE@XZ
	mov	DWORD PTR tv93[ebp], eax
	jmp	SHORT $LN67@CreateD3DT
$LN66@CreateD3DT:
	mov	DWORD PTR tv93[ebp], 0
$LN67@CreateD3DT:
	mov	eax, DWORD PTR tv93[ebp]
	mov	DWORD PTR $T139310[ebp], eax
	mov	DWORD PTR __$EHRec$[ebp+8], -1
	mov	eax, DWORD PTR $T139310[ebp]
	jmp	$LN62@CreateD3DT
	jmp	$LN60@CreateD3DT
$LN59@CreateD3DT:

; 44   : 		}
; 45   : 		else if (strcmp(name, "border_lod0") == 0)

	push	OFFSET $SG134060
	mov	ecx, DWORD PTR _name$[ebp]
	push	ecx
	call	_strcmp
	add	esp, 8
	test	eax, eax
	jne	SHORT $LN57@CreateD3DT

; 46   : 		{
; 47   : 			return new D3DTech_Border_lod0;

	push	392					; 00000188H
	call	??2@YAPAXI@Z				; operator new
	add	esp, 4
	mov	DWORD PTR $T139315[ebp], eax
	mov	DWORD PTR __$EHRec$[ebp+8], 2
	cmp	DWORD PTR $T139315[ebp], 0
	je	SHORT $LN68@CreateD3DT
	mov	ecx, DWORD PTR $T139315[ebp]
	call	??0D3DTech_Border_lod0@Ogre@@QAE@XZ
	mov	DWORD PTR tv140[ebp], eax
	jmp	SHORT $LN69@CreateD3DT
$LN68@CreateD3DT:
	mov	DWORD PTR tv140[ebp], 0
$LN69@CreateD3DT:
	mov	edx, DWORD PTR tv140[ebp]
	mov	DWORD PTR $T139314[ebp], edx
	mov	DWORD PTR __$EHRec$[ebp+8], -1
	mov	eax, DWORD PTR $T139314[ebp]
	jmp	$LN62@CreateD3DT
	jmp	$LN60@CreateD3DT
$LN57@CreateD3DT:

; 48   : 		}
; 49   : 		else if (strcmp(name, "border1_lod0") == 0)

	push	OFFSET $SG134067
	mov	eax, DWORD PTR _name$[ebp]
	push	eax
	call	_strcmp
	add	esp, 8
	test	eax, eax
	jne	SHORT $LN55@CreateD3DT

; 50   : 		{
; 51   : 			return new D3DTech_Border1_lod0;

	push	392					; 00000188H
	call	??2@YAPAXI@Z				; operator new
	add	esp, 4
	mov	DWORD PTR $T139319[ebp], eax
	mov	DWORD PTR __$EHRec$[ebp+8], 3
	cmp	DWORD PTR $T139319[ebp], 0
	je	SHORT $LN70@CreateD3DT
	mov	ecx, DWORD PTR $T139319[ebp]
	call	??0D3DTech_Border1_lod0@Ogre@@QAE@XZ
	mov	DWORD PTR tv155[ebp], eax
	jmp	SHORT $LN71@CreateD3DT
$LN70@CreateD3DT:
	mov	DWORD PTR tv155[ebp], 0
$LN71@CreateD3DT:
	mov	ecx, DWORD PTR tv155[ebp]
	mov	DWORD PTR $T139318[ebp], ecx
	mov	DWORD PTR __$EHRec$[ebp+8], -1
	mov	eax, DWORD PTR $T139318[ebp]
	jmp	$LN62@CreateD3DT
	jmp	$LN60@CreateD3DT
$LN55@CreateD3DT:

; 52   : 		}
; 53   : 		else if (strcmp(name, "overlay_lod0") == 0)

	push	OFFSET $SG134074
	mov	edx, DWORD PTR _name$[ebp]
	push	edx
	call	_strcmp
	add	esp, 8
	test	eax, eax
	jne	SHORT $LN53@CreateD3DT

; 54   : 		{
; 55   : 			return new D3DTech_Overlay_lod0;

	push	396					; 0000018cH
	call	??2@YAPAXI@Z				; operator new
	add	esp, 4
	mov	DWORD PTR $T139323[ebp], eax
	mov	DWORD PTR __$EHRec$[ebp+8], 4
	cmp	DWORD PTR $T139323[ebp], 0
	je	SHORT $LN72@CreateD3DT
	mov	ecx, DWORD PTR $T139323[ebp]
	call	??0D3DTech_Overlay_lod0@Ogre@@QAE@XZ
	mov	DWORD PTR tv170[ebp], eax
	jmp	SHORT $LN73@CreateD3DT
$LN72@CreateD3DT:
	mov	DWORD PTR tv170[ebp], 0
$LN73@CreateD3DT:
	mov	eax, DWORD PTR tv170[ebp]
	mov	DWORD PTR $T139322[ebp], eax
	mov	DWORD PTR __$EHRec$[ebp+8], -1
	mov	eax, DWORD PTR $T139322[ebp]
	jmp	$LN62@CreateD3DT
	jmp	$LN60@CreateD3DT
$LN53@CreateD3DT:

; 56   : 		}
; 57   : 		else if (strcmp(name, "particle_lod0") == 0)

	push	OFFSET $SG134081
	mov	ecx, DWORD PTR _name$[ebp]
	push	ecx
	call	_strcmp
	add	esp, 8
	test	eax, eax
	jne	SHORT $LN51@CreateD3DT

; 58   : 		{
; 59   : 			return new D3DTech_Particle_lod0;

	push	396					; 0000018cH
	call	??2@YAPAXI@Z				; operator new
	add	esp, 4
	mov	DWORD PTR $T139327[ebp], eax
	mov	DWORD PTR __$EHRec$[ebp+8], 5
	cmp	DWORD PTR $T139327[ebp], 0
	je	SHORT $LN74@CreateD3DT
	mov	ecx, DWORD PTR $T139327[ebp]
	call	??0D3DTech_Particle_lod0@Ogre@@QAE@XZ
	mov	DWORD PTR tv185[ebp], eax
	jmp	SHORT $LN75@CreateD3DT
$LN74@CreateD3DT:
	mov	DWORD PTR tv185[ebp], 0
$LN75@CreateD3DT:
	mov	edx, DWORD PTR tv185[ebp]
	mov	DWORD PTR $T139326[ebp], edx
	mov	DWORD PTR __$EHRec$[ebp+8], -1
	mov	eax, DWORD PTR $T139326[ebp]
	jmp	$LN62@CreateD3DT
	jmp	$LN60@CreateD3DT
$LN51@CreateD3DT:

; 60   : 		}
; 61   : 		else if (strcmp(name, "particle_distort") == 0)

	push	OFFSET $SG134088
	mov	eax, DWORD PTR _name$[ebp]
	push	eax
	call	_strcmp
	add	esp, 8
	test	eax, eax
	jne	SHORT $LN49@CreateD3DT

; 62   : 		{
; 63   : 			return new D3DTech_particle_distort;

	push	396					; 0000018cH
	call	??2@YAPAXI@Z				; operator new
	add	esp, 4
	mov	DWORD PTR $T139331[ebp], eax
	mov	DWORD PTR __$EHRec$[ebp+8], 6
	cmp	DWORD PTR $T139331[ebp], 0
	je	SHORT $LN76@CreateD3DT
	mov	ecx, DWORD PTR $T139331[ebp]
	call	??0D3DTech_particle_distort@Ogre@@QAE@XZ
	mov	DWORD PTR tv200[ebp], eax
	jmp	SHORT $LN77@CreateD3DT
$LN76@CreateD3DT:
	mov	DWORD PTR tv200[ebp], 0
$LN77@CreateD3DT:
	mov	ecx, DWORD PTR tv200[ebp]
	mov	DWORD PTR $T139330[ebp], ecx
	mov	DWORD PTR __$EHRec$[ebp+8], -1
	mov	eax, DWORD PTR $T139330[ebp]
	jmp	$LN62@CreateD3DT
	jmp	$LN60@CreateD3DT
$LN49@CreateD3DT:

; 64   : 		}
; 65   : 		else if (strcmp(name, "uvanim_lod0") == 0)

	push	OFFSET $SG134095
	mov	edx, DWORD PTR _name$[ebp]
	push	edx
	call	_strcmp
	add	esp, 8
	test	eax, eax
	jne	SHORT $LN47@CreateD3DT

; 66   : 		{
; 67   : 			return new D3DTech_Uvanim_lod0;

	push	408					; 00000198H
	call	??2@YAPAXI@Z				; operator new
	add	esp, 4
	mov	DWORD PTR $T139335[ebp], eax
	mov	DWORD PTR __$EHRec$[ebp+8], 7
	cmp	DWORD PTR $T139335[ebp], 0
	je	SHORT $LN78@CreateD3DT
	mov	ecx, DWORD PTR $T139335[ebp]
	call	??0D3DTech_Uvanim_lod0@Ogre@@QAE@XZ
	mov	DWORD PTR tv215[ebp], eax
	jmp	SHORT $LN79@CreateD3DT
$LN78@CreateD3DT:
	mov	DWORD PTR tv215[ebp], 0
$LN79@CreateD3DT:
	mov	eax, DWORD PTR tv215[ebp]
	mov	DWORD PTR $T139334[ebp], eax
	mov	DWORD PTR __$EHRec$[ebp+8], -1
	mov	eax, DWORD PTR $T139334[ebp]
	jmp	$LN62@CreateD3DT
	jmp	$LN60@CreateD3DT
$LN47@CreateD3DT:

; 68   : 		}
; 69   : 		else if (strcmp(name, "uvanim_blend_lod0")==0)

	push	OFFSET $SG134102
	mov	ecx, DWORD PTR _name$[ebp]
	push	ecx
	call	_strcmp
	add	esp, 8
	test	eax, eax
	jne	SHORT $LN45@CreateD3DT

; 70   : 		{
; 71   : 			return new D3DTech_UvanimBlend_lod0;

	push	392					; 00000188H
	call	??2@YAPAXI@Z				; operator new
	add	esp, 4
	mov	DWORD PTR $T139339[ebp], eax
	mov	DWORD PTR __$EHRec$[ebp+8], 8
	cmp	DWORD PTR $T139339[ebp], 0
	je	SHORT $LN80@CreateD3DT
	mov	ecx, DWORD PTR $T139339[ebp]
	call	??0D3DTech_UvanimBlend_lod0@Ogre@@QAE@XZ
	mov	DWORD PTR tv230[ebp], eax
	jmp	SHORT $LN81@CreateD3DT
$LN80@CreateD3DT:
	mov	DWORD PTR tv230[ebp], 0
$LN81@CreateD3DT:
	mov	edx, DWORD PTR tv230[ebp]
	mov	DWORD PTR $T139338[ebp], edx
	mov	DWORD PTR __$EHRec$[ebp+8], -1
	mov	eax, DWORD PTR $T139338[ebp]
	jmp	$LN62@CreateD3DT
	jmp	$LN60@CreateD3DT
$LN45@CreateD3DT:

; 72   : 		}
; 73   : 		else if (strcmp(name, "uvanim_selfillum_lod0")==0)

	push	OFFSET $SG134109
	mov	eax, DWORD PTR _name$[ebp]
	push	eax
	call	_strcmp
	add	esp, 8
	test	eax, eax
	jne	SHORT $LN43@CreateD3DT

; 74   : 		{
; 75   : 			return new D3DTech_UvanimSelfillum_lod0;

	push	392					; 00000188H
	call	??2@YAPAXI@Z				; operator new
	add	esp, 4
	mov	DWORD PTR $T139343[ebp], eax
	mov	DWORD PTR __$EHRec$[ebp+8], 9
	cmp	DWORD PTR $T139343[ebp], 0
	je	SHORT $LN82@CreateD3DT
	mov	ecx, DWORD PTR $T139343[ebp]
	call	??0D3DTech_UvanimSelfillum_lod0@Ogre@@QAE@XZ
	mov	DWORD PTR tv245[ebp], eax
	jmp	SHORT $LN83@CreateD3DT
$LN82@CreateD3DT:
	mov	DWORD PTR tv245[ebp], 0
$LN83@CreateD3DT:
	mov	ecx, DWORD PTR tv245[ebp]
	mov	DWORD PTR $T139342[ebp], ecx
	mov	DWORD PTR __$EHRec$[ebp+8], -1
	mov	eax, DWORD PTR $T139342[ebp]
	jmp	$LN62@CreateD3DT
	jmp	$LN60@CreateD3DT
$LN43@CreateD3DT:

; 76   : 		}
; 77   : 		else if (strcmp(name, "uvanim_2layer_lod0")==0)

	push	OFFSET $SG134116
	mov	edx, DWORD PTR _name$[ebp]
	push	edx
	call	_strcmp
	add	esp, 8
	test	eax, eax
	jne	SHORT $LN41@CreateD3DT

; 78   : 		{
; 79   : 			return new D3DTech_Uvanim2Layer_lod0;

	push	392					; 00000188H
	call	??2@YAPAXI@Z				; operator new
	add	esp, 4
	mov	DWORD PTR $T139347[ebp], eax
	mov	DWORD PTR __$EHRec$[ebp+8], 10		; 0000000aH
	cmp	DWORD PTR $T139347[ebp], 0
	je	SHORT $LN84@CreateD3DT
	mov	ecx, DWORD PTR $T139347[ebp]
	call	??0D3DTech_Uvanim2Layer_lod0@Ogre@@QAE@XZ
	mov	DWORD PTR tv260[ebp], eax
	jmp	SHORT $LN85@CreateD3DT
$LN84@CreateD3DT:
	mov	DWORD PTR tv260[ebp], 0
$LN85@CreateD3DT:
	mov	eax, DWORD PTR tv260[ebp]
	mov	DWORD PTR $T139346[ebp], eax
	mov	DWORD PTR __$EHRec$[ebp+8], -1
	mov	eax, DWORD PTR $T139346[ebp]
	jmp	$LN62@CreateD3DT
	jmp	$LN60@CreateD3DT
$LN41@CreateD3DT:

; 80   : 		}
; 81   : 		else if (strcmp(name, "line_lod0")==0)

	push	OFFSET $SG134123
	mov	ecx, DWORD PTR _name$[ebp]
	push	ecx
	call	_strcmp
	add	esp, 8
	test	eax, eax
	jne	SHORT $LN39@CreateD3DT

; 82   : 		{
; 83   : 			return new D3DTech_Line_lod0;

	push	392					; 00000188H
	call	??2@YAPAXI@Z				; operator new
	add	esp, 4
	mov	DWORD PTR $T139351[ebp], eax
	mov	DWORD PTR __$EHRec$[ebp+8], 11		; 0000000bH
	cmp	DWORD PTR $T139351[ebp], 0
	je	SHORT $LN86@CreateD3DT
	mov	ecx, DWORD PTR $T139351[ebp]
	call	??0D3DTech_Line_lod0@Ogre@@QAE@XZ
	mov	DWORD PTR tv275[ebp], eax
	jmp	SHORT $LN87@CreateD3DT
$LN86@CreateD3DT:
	mov	DWORD PTR tv275[ebp], 0
$LN87@CreateD3DT:
	mov	edx, DWORD PTR tv275[ebp]
	mov	DWORD PTR $T139350[ebp], edx
	mov	DWORD PTR __$EHRec$[ebp+8], -1
	mov	eax, DWORD PTR $T139350[ebp]
	jmp	$LN62@CreateD3DT
	jmp	$LN60@CreateD3DT
$LN39@CreateD3DT:

; 84   : 		}
; 85   : 
; 86   : 		else if (strcmp(name, "cloth_lod0") == 0)

	push	OFFSET $SG134130
	mov	eax, DWORD PTR _name$[ebp]
	push	eax
	call	_strcmp
	add	esp, 8
	test	eax, eax
	jne	SHORT $LN37@CreateD3DT

; 87   : 		{
; 88   : 			return new D3DTech_cloth_lod0;

	push	396					; 0000018cH
	call	??2@YAPAXI@Z				; operator new
	add	esp, 4
	mov	DWORD PTR $T139355[ebp], eax
	mov	DWORD PTR __$EHRec$[ebp+8], 12		; 0000000cH
	cmp	DWORD PTR $T139355[ebp], 0
	je	SHORT $LN88@CreateD3DT
	mov	ecx, DWORD PTR $T139355[ebp]
	call	??0D3DTech_cloth_lod0@Ogre@@QAE@XZ
	mov	DWORD PTR tv290[ebp], eax
	jmp	SHORT $LN89@CreateD3DT
$LN88@CreateD3DT:
	mov	DWORD PTR tv290[ebp], 0
$LN89@CreateD3DT:
	mov	ecx, DWORD PTR tv290[ebp]
	mov	DWORD PTR $T139354[ebp], ecx
	mov	DWORD PTR __$EHRec$[ebp+8], -1
	mov	eax, DWORD PTR $T139354[ebp]
	jmp	$LN62@CreateD3DT
	jmp	$LN60@CreateD3DT
$LN37@CreateD3DT:

; 89   : 		}
; 90   : 		else if (strcmp(name, "cloth_shadowgen") == 0)

	push	OFFSET $SG134137
	mov	edx, DWORD PTR _name$[ebp]
	push	edx
	call	_strcmp
	add	esp, 8
	test	eax, eax
	jne	SHORT $LN35@CreateD3DT

; 91   : 		{
; 92   : 			return new D3DTech_cloth_shadowgen;

	push	396					; 0000018cH
	call	??2@YAPAXI@Z				; operator new
	add	esp, 4
	mov	DWORD PTR $T139359[ebp], eax
	mov	DWORD PTR __$EHRec$[ebp+8], 13		; 0000000dH
	cmp	DWORD PTR $T139359[ebp], 0
	je	SHORT $LN90@CreateD3DT
	mov	ecx, DWORD PTR $T139359[ebp]
	call	??0D3DTech_cloth_shadowgen@Ogre@@QAE@XZ
	mov	DWORD PTR tv305[ebp], eax
	jmp	SHORT $LN91@CreateD3DT
$LN90@CreateD3DT:
	mov	DWORD PTR tv305[ebp], 0
$LN91@CreateD3DT:
	mov	eax, DWORD PTR tv305[ebp]
	mov	DWORD PTR $T139358[ebp], eax
	mov	DWORD PTR __$EHRec$[ebp+8], -1
	mov	eax, DWORD PTR $T139358[ebp]
	jmp	$LN62@CreateD3DT
	jmp	$LN60@CreateD3DT
$LN35@CreateD3DT:

; 93   : 		}
; 94   : 
; 95   : 		else if(strcmp(name, "stdmtl_lod0")==0)

	push	OFFSET $SG134144
	mov	ecx, DWORD PTR _name$[ebp]
	push	ecx
	call	_strcmp
	add	esp, 8
	test	eax, eax
	jne	SHORT $LN33@CreateD3DT

; 96   : 		{
; 97   : 			return new D3DTech_stdmtl_lod0;

	push	396					; 0000018cH
	call	??2@YAPAXI@Z				; operator new
	add	esp, 4
	mov	DWORD PTR $T139363[ebp], eax
	mov	DWORD PTR __$EHRec$[ebp+8], 14		; 0000000eH
	cmp	DWORD PTR $T139363[ebp], 0
	je	SHORT $LN92@CreateD3DT
	mov	ecx, DWORD PTR $T139363[ebp]
	call	??0D3DTech_stdmtl_lod0@Ogre@@QAE@XZ
	mov	DWORD PTR tv320[ebp], eax
	jmp	SHORT $LN93@CreateD3DT
$LN92@CreateD3DT:
	mov	DWORD PTR tv320[ebp], 0
$LN93@CreateD3DT:
	mov	edx, DWORD PTR tv320[ebp]
	mov	DWORD PTR $T139362[ebp], edx
	mov	DWORD PTR __$EHRec$[ebp+8], -1
	mov	eax, DWORD PTR $T139362[ebp]
	jmp	$LN62@CreateD3DT
	jmp	$LN60@CreateD3DT
$LN33@CreateD3DT:

; 98   : 		}
; 99   : 		else if(strcmp(name, "stdmtl_shadowgen") == 0)

	push	OFFSET $SG134151
	mov	eax, DWORD PTR _name$[ebp]
	push	eax
	call	_strcmp
	add	esp, 8
	test	eax, eax
	jne	SHORT $LN31@CreateD3DT

; 100  : 		{
; 101  : 			return new D3DTech_stdmtl_shadowgen;

	push	396					; 0000018cH
	call	??2@YAPAXI@Z				; operator new
	add	esp, 4
	mov	DWORD PTR $T139367[ebp], eax
	mov	DWORD PTR __$EHRec$[ebp+8], 15		; 0000000fH
	cmp	DWORD PTR $T139367[ebp], 0
	je	SHORT $LN94@CreateD3DT
	mov	ecx, DWORD PTR $T139367[ebp]
	call	??0D3DTech_stdmtl_shadowgen@Ogre@@QAE@XZ
	mov	DWORD PTR tv335[ebp], eax
	jmp	SHORT $LN95@CreateD3DT
$LN94@CreateD3DT:
	mov	DWORD PTR tv335[ebp], 0
$LN95@CreateD3DT:
	mov	ecx, DWORD PTR tv335[ebp]
	mov	DWORD PTR $T139366[ebp], ecx
	mov	DWORD PTR __$EHRec$[ebp+8], -1
	mov	eax, DWORD PTR $T139366[ebp]
	jmp	$LN62@CreateD3DT
	jmp	$LN60@CreateD3DT
$LN31@CreateD3DT:

; 102  : 		}
; 103  : 		else if(strcmp(name, "beach_lod0") == 0)

	push	OFFSET $SG134158
	mov	edx, DWORD PTR _name$[ebp]
	push	edx
	call	_strcmp
	add	esp, 8
	test	eax, eax
	jne	SHORT $LN29@CreateD3DT

; 104  : 		{
; 105  : 			return new D3DTech_beach_lod0;

	push	396					; 0000018cH
	call	??2@YAPAXI@Z				; operator new
	add	esp, 4
	mov	DWORD PTR $T139371[ebp], eax
	mov	DWORD PTR __$EHRec$[ebp+8], 16		; 00000010H
	cmp	DWORD PTR $T139371[ebp], 0
	je	SHORT $LN96@CreateD3DT
	mov	ecx, DWORD PTR $T139371[ebp]
	call	??0D3DTech_beach_lod0@Ogre@@QAE@XZ
	mov	DWORD PTR tv350[ebp], eax
	jmp	SHORT $LN97@CreateD3DT
$LN96@CreateD3DT:
	mov	DWORD PTR tv350[ebp], 0
$LN97@CreateD3DT:
	mov	eax, DWORD PTR tv350[ebp]
	mov	DWORD PTR $T139370[ebp], eax
	mov	DWORD PTR __$EHRec$[ebp+8], -1
	mov	eax, DWORD PTR $T139370[ebp]
	jmp	$LN62@CreateD3DT
	jmp	$LN60@CreateD3DT
$LN29@CreateD3DT:

; 106  : 		}
; 107  : 		else if(strcmp(name, "bloom_lod0") == 0)

	push	OFFSET $SG134165
	mov	ecx, DWORD PTR _name$[ebp]
	push	ecx
	call	_strcmp
	add	esp, 8
	test	eax, eax
	jne	SHORT $LN27@CreateD3DT

; 108  : 		{
; 109  : 			return new D3DTech_bloom_lod0;

	push	396					; 0000018cH
	call	??2@YAPAXI@Z				; operator new
	add	esp, 4
	mov	DWORD PTR $T139375[ebp], eax
	mov	DWORD PTR __$EHRec$[ebp+8], 17		; 00000011H
	cmp	DWORD PTR $T139375[ebp], 0
	je	SHORT $LN98@CreateD3DT
	mov	ecx, DWORD PTR $T139375[ebp]
	call	??0D3DTech_bloom_lod0@Ogre@@QAE@XZ
	mov	DWORD PTR tv397[ebp], eax
	jmp	SHORT $LN99@CreateD3DT
$LN98@CreateD3DT:
	mov	DWORD PTR tv397[ebp], 0
$LN99@CreateD3DT:
	mov	edx, DWORD PTR tv397[ebp]
	mov	DWORD PTR $T139374[ebp], edx
	mov	DWORD PTR __$EHRec$[ebp+8], -1
	mov	eax, DWORD PTR $T139374[ebp]
	jmp	$LN62@CreateD3DT
	jmp	$LN60@CreateD3DT
$LN27@CreateD3DT:

; 110  : 		}
; 111  : 		else if(strcmp(name, "distort_lod0") == 0)

	push	OFFSET $SG134172
	mov	eax, DWORD PTR _name$[ebp]
	push	eax
	call	_strcmp
	add	esp, 8
	test	eax, eax
	jne	SHORT $LN25@CreateD3DT

; 112  : 		{
; 113  : 			return new D3DTech_distort_lod0;

	push	392					; 00000188H
	call	??2@YAPAXI@Z				; operator new
	add	esp, 4
	mov	DWORD PTR $T139379[ebp], eax
	mov	DWORD PTR __$EHRec$[ebp+8], 18		; 00000012H
	cmp	DWORD PTR $T139379[ebp], 0
	je	SHORT $LN100@CreateD3DT
	mov	ecx, DWORD PTR $T139379[ebp]
	call	??0D3DTech_distort_lod0@Ogre@@QAE@XZ
	mov	DWORD PTR tv412[ebp], eax
	jmp	SHORT $LN101@CreateD3DT
$LN100@CreateD3DT:
	mov	DWORD PTR tv412[ebp], 0
$LN101@CreateD3DT:
	mov	ecx, DWORD PTR tv412[ebp]
	mov	DWORD PTR $T139378[ebp], ecx
	mov	DWORD PTR __$EHRec$[ebp+8], -1
	mov	eax, DWORD PTR $T139378[ebp]
	jmp	$LN62@CreateD3DT
	jmp	$LN60@CreateD3DT
$LN25@CreateD3DT:

; 114  : 		}
; 115  : 		else if(strcmp(name, "decal_lod0") == 0)

	push	OFFSET $SG134179
	mov	edx, DWORD PTR _name$[ebp]
	push	edx
	call	_strcmp
	add	esp, 8
	test	eax, eax
	jne	SHORT $LN23@CreateD3DT

; 116  : 		{
; 117  : 			return new D3DTech_decal_lod0;

	push	396					; 0000018cH
	call	??2@YAPAXI@Z				; operator new
	add	esp, 4
	mov	DWORD PTR $T139383[ebp], eax
	mov	DWORD PTR __$EHRec$[ebp+8], 19		; 00000013H
	cmp	DWORD PTR $T139383[ebp], 0
	je	SHORT $LN102@CreateD3DT
	mov	ecx, DWORD PTR $T139383[ebp]
	call	??0D3DTech_decal_lod0@Ogre@@QAE@XZ
	mov	DWORD PTR tv427[ebp], eax
	jmp	SHORT $LN103@CreateD3DT
$LN102@CreateD3DT:
	mov	DWORD PTR tv427[ebp], 0
$LN103@CreateD3DT:
	mov	eax, DWORD PTR tv427[ebp]
	mov	DWORD PTR $T139382[ebp], eax
	mov	DWORD PTR __$EHRec$[ebp+8], -1
	mov	eax, DWORD PTR $T139382[ebp]
	jmp	$LN62@CreateD3DT
	jmp	$LN60@CreateD3DT
$LN23@CreateD3DT:

; 118  : 		}
; 119  : 		else if(strcmp(name, "decal_distort") == 0)

	push	OFFSET $SG134186
	mov	ecx, DWORD PTR _name$[ebp]
	push	ecx
	call	_strcmp
	add	esp, 8
	test	eax, eax
	jne	SHORT $LN21@CreateD3DT

; 120  : 		{
; 121  : 			return new D3DTech_decal_distort;

	push	392					; 00000188H
	call	??2@YAPAXI@Z				; operator new
	add	esp, 4
	mov	DWORD PTR $T139387[ebp], eax
	mov	DWORD PTR __$EHRec$[ebp+8], 20		; 00000014H
	cmp	DWORD PTR $T139387[ebp], 0
	je	SHORT $LN104@CreateD3DT
	mov	ecx, DWORD PTR $T139387[ebp]
	call	??0D3DTech_decal_distort@Ogre@@QAE@XZ
	mov	DWORD PTR tv442[ebp], eax
	jmp	SHORT $LN105@CreateD3DT
$LN104@CreateD3DT:
	mov	DWORD PTR tv442[ebp], 0
$LN105@CreateD3DT:
	mov	edx, DWORD PTR tv442[ebp]
	mov	DWORD PTR $T139386[ebp], edx
	mov	DWORD PTR __$EHRec$[ebp+8], -1
	mov	eax, DWORD PTR $T139386[ebp]
	jmp	$LN62@CreateD3DT
	jmp	$LN60@CreateD3DT
$LN21@CreateD3DT:

; 122  : 		}
; 123  : 		else if(strcmp(name, "footprint_lod0") == 0)

	push	OFFSET $SG134193
	mov	eax, DWORD PTR _name$[ebp]
	push	eax
	call	_strcmp
	add	esp, 8
	test	eax, eax
	jne	SHORT $LN19@CreateD3DT

; 124  : 		{
; 125  : 			return new D3DTech_footprint_lod0;

	push	392					; 00000188H
	call	??2@YAPAXI@Z				; operator new
	add	esp, 4
	mov	DWORD PTR $T139391[ebp], eax
	mov	DWORD PTR __$EHRec$[ebp+8], 21		; 00000015H
	cmp	DWORD PTR $T139391[ebp], 0
	je	SHORT $LN106@CreateD3DT
	mov	ecx, DWORD PTR $T139391[ebp]
	call	??0D3DTech_footprint_lod0@Ogre@@QAE@XZ
	mov	DWORD PTR tv457[ebp], eax
	jmp	SHORT $LN107@CreateD3DT
$LN106@CreateD3DT:
	mov	DWORD PTR tv457[ebp], 0
$LN107@CreateD3DT:
	mov	ecx, DWORD PTR tv457[ebp]
	mov	DWORD PTR $T139390[ebp], ecx
	mov	DWORD PTR __$EHRec$[ebp+8], -1
	mov	eax, DWORD PTR $T139390[ebp]
	jmp	$LN62@CreateD3DT
	jmp	$LN60@CreateD3DT
$LN19@CreateD3DT:

; 126  : 		}
; 127  : 		else if(strcmp(name, "dirdecal_lod0") == 0)

	push	OFFSET $SG134200
	mov	edx, DWORD PTR _name$[ebp]
	push	edx
	call	_strcmp
	add	esp, 8
	test	eax, eax
	jne	SHORT $LN17@CreateD3DT

; 128  : 		{
; 129  : 			return new D3DTech_dirdecal_lod0;

	push	396					; 0000018cH
	call	??2@YAPAXI@Z				; operator new
	add	esp, 4
	mov	DWORD PTR $T139395[ebp], eax
	mov	DWORD PTR __$EHRec$[ebp+8], 22		; 00000016H
	cmp	DWORD PTR $T139395[ebp], 0
	je	SHORT $LN108@CreateD3DT
	mov	ecx, DWORD PTR $T139395[ebp]
	call	??0D3DTech_dirdecal_lod0@Ogre@@QAE@XZ
	mov	DWORD PTR tv472[ebp], eax
	jmp	SHORT $LN109@CreateD3DT
$LN108@CreateD3DT:
	mov	DWORD PTR tv472[ebp], 0
$LN109@CreateD3DT:
	mov	eax, DWORD PTR tv472[ebp]
	mov	DWORD PTR $T139394[ebp], eax
	mov	DWORD PTR __$EHRec$[ebp+8], -1
	mov	eax, DWORD PTR $T139394[ebp]
	jmp	$LN62@CreateD3DT
	jmp	$LN60@CreateD3DT
$LN17@CreateD3DT:

; 130  : 		}
; 131  : 		else if(strcmp(name, "sky_stdmtl_lod0") == 0)

	push	OFFSET $SG134207
	mov	ecx, DWORD PTR _name$[ebp]
	push	ecx
	call	_strcmp
	add	esp, 8
	test	eax, eax
	jne	SHORT $LN15@CreateD3DT

; 132  : 		{
; 133  : 			return new D3DTech_sky_stdmtl_lod0;

	push	392					; 00000188H
	call	??2@YAPAXI@Z				; operator new
	add	esp, 4
	mov	DWORD PTR $T139399[ebp], eax
	mov	DWORD PTR __$EHRec$[ebp+8], 23		; 00000017H
	cmp	DWORD PTR $T139399[ebp], 0
	je	SHORT $LN110@CreateD3DT
	mov	ecx, DWORD PTR $T139399[ebp]
	call	??0D3DTech_sky_stdmtl_lod0@Ogre@@QAE@XZ
	mov	DWORD PTR tv487[ebp], eax
	jmp	SHORT $LN111@CreateD3DT
$LN110@CreateD3DT:
	mov	DWORD PTR tv487[ebp], 0
$LN111@CreateD3DT:
	mov	edx, DWORD PTR tv487[ebp]
	mov	DWORD PTR $T139398[ebp], edx
	mov	DWORD PTR __$EHRec$[ebp+8], -1
	mov	eax, DWORD PTR $T139398[ebp]
	jmp	$LN62@CreateD3DT
	jmp	$LN60@CreateD3DT
$LN15@CreateD3DT:

; 134  : 		}
; 135  : 		else if(strcmp(name, "sky_stdmtl_shadowgen") == 0)

	push	OFFSET $SG134214
	mov	eax, DWORD PTR _name$[ebp]
	push	eax
	call	_strcmp
	add	esp, 8
	test	eax, eax
	jne	SHORT $LN13@CreateD3DT

; 136  : 		{
; 137  : 			return new D3DTech_sky_stdmtl_shadowgen;

	push	392					; 00000188H
	call	??2@YAPAXI@Z				; operator new
	add	esp, 4
	mov	DWORD PTR $T139403[ebp], eax
	mov	DWORD PTR __$EHRec$[ebp+8], 24		; 00000018H
	cmp	DWORD PTR $T139403[ebp], 0
	je	SHORT $LN112@CreateD3DT
	mov	ecx, DWORD PTR $T139403[ebp]
	call	??0D3DTech_sky_stdmtl_shadowgen@Ogre@@QAE@XZ
	mov	DWORD PTR tv502[ebp], eax
	jmp	SHORT $LN113@CreateD3DT
$LN112@CreateD3DT:
	mov	DWORD PTR tv502[ebp], 0
$LN113@CreateD3DT:
	mov	ecx, DWORD PTR tv502[ebp]
	mov	DWORD PTR $T139402[ebp], ecx
	mov	DWORD PTR __$EHRec$[ebp+8], -1
	mov	eax, DWORD PTR $T139402[ebp]
	jmp	$LN62@CreateD3DT
	jmp	$LN60@CreateD3DT
$LN13@CreateD3DT:

; 138  : 		}
; 139  : 		else if(strcmp(name, "ui_element_lod0") == 0)

	push	OFFSET $SG134221
	mov	edx, DWORD PTR _name$[ebp]
	push	edx
	call	_strcmp
	add	esp, 8
	test	eax, eax
	jne	SHORT $LN11@CreateD3DT

; 140  : 		{
; 141  : 			return new D3DTech_uielement_lod0;

	push	396					; 0000018cH
	call	??2@YAPAXI@Z				; operator new
	add	esp, 4
	mov	DWORD PTR $T139407[ebp], eax
	mov	DWORD PTR __$EHRec$[ebp+8], 25		; 00000019H
	cmp	DWORD PTR $T139407[ebp], 0
	je	SHORT $LN114@CreateD3DT
	mov	ecx, DWORD PTR $T139407[ebp]
	call	??0D3DTech_uielement_lod0@Ogre@@QAE@XZ
	mov	DWORD PTR tv517[ebp], eax
	jmp	SHORT $LN115@CreateD3DT
$LN114@CreateD3DT:
	mov	DWORD PTR tv517[ebp], 0
$LN115@CreateD3DT:
	mov	eax, DWORD PTR tv517[ebp]
	mov	DWORD PTR $T139406[ebp], eax
	mov	DWORD PTR __$EHRec$[ebp+8], -1
	mov	eax, DWORD PTR $T139406[ebp]
	jmp	$LN62@CreateD3DT
	jmp	$LN60@CreateD3DT
$LN11@CreateD3DT:

; 142  : 		}
; 143  : 		else if(strcmp(name, "plant_lod0") == 0)

	push	OFFSET $SG134228
	mov	ecx, DWORD PTR _name$[ebp]
	push	ecx
	call	_strcmp
	add	esp, 8
	test	eax, eax
	jne	SHORT $LN9@CreateD3DT

; 144  : 		{
; 145  : 			return new D3DTech_plant_lod0;

	push	392					; 00000188H
	call	??2@YAPAXI@Z				; operator new
	add	esp, 4
	mov	DWORD PTR $T139411[ebp], eax
	mov	DWORD PTR __$EHRec$[ebp+8], 26		; 0000001aH
	cmp	DWORD PTR $T139411[ebp], 0
	je	SHORT $LN116@CreateD3DT
	mov	ecx, DWORD PTR $T139411[ebp]
	call	??0D3DTech_plant_lod0@Ogre@@QAE@XZ
	mov	DWORD PTR tv532[ebp], eax
	jmp	SHORT $LN117@CreateD3DT
$LN116@CreateD3DT:
	mov	DWORD PTR tv532[ebp], 0
$LN117@CreateD3DT:
	mov	edx, DWORD PTR tv532[ebp]
	mov	DWORD PTR $T139410[ebp], edx
	mov	DWORD PTR __$EHRec$[ebp+8], -1
	mov	eax, DWORD PTR $T139410[ebp]
	jmp	$LN62@CreateD3DT
	jmp	$LN60@CreateD3DT
$LN9@CreateD3DT:

; 146  : 		}
; 147  : 		else if(strcmp(name, "water_reflect_lod0") == 0)

	push	OFFSET $SG134235
	mov	eax, DWORD PTR _name$[ebp]
	push	eax
	call	_strcmp
	add	esp, 8
	test	eax, eax
	jne	SHORT $LN7@CreateD3DT

; 148  : 		{
; 149  : 			return new D3DTech_water_reflect_lod0;

	push	392					; 00000188H
	call	??2@YAPAXI@Z				; operator new
	add	esp, 4
	mov	DWORD PTR $T139415[ebp], eax
	mov	DWORD PTR __$EHRec$[ebp+8], 27		; 0000001bH
	cmp	DWORD PTR $T139415[ebp], 0
	je	SHORT $LN118@CreateD3DT
	mov	ecx, DWORD PTR $T139415[ebp]
	call	??0D3DTech_water_reflect_lod0@Ogre@@QAE@XZ
	mov	DWORD PTR tv547[ebp], eax
	jmp	SHORT $LN119@CreateD3DT
$LN118@CreateD3DT:
	mov	DWORD PTR tv547[ebp], 0
$LN119@CreateD3DT:
	mov	ecx, DWORD PTR tv547[ebp]
	mov	DWORD PTR $T139414[ebp], ecx
	mov	DWORD PTR __$EHRec$[ebp+8], -1
	mov	eax, DWORD PTR $T139414[ebp]
	jmp	$LN62@CreateD3DT
	jmp	$LN60@CreateD3DT
$LN7@CreateD3DT:

; 150  : 		}
; 151  : 		else if(strcmp(name, "general_water_lod0") == 0)

	push	OFFSET $SG134242
	mov	edx, DWORD PTR _name$[ebp]
	push	edx
	call	_strcmp
	add	esp, 8
	test	eax, eax
	jne	SHORT $LN5@CreateD3DT

; 152  : 		{
; 153  : 			return new D3DTech_general_water_lod0;

	push	396					; 0000018cH
	call	??2@YAPAXI@Z				; operator new
	add	esp, 4
	mov	DWORD PTR $T139419[ebp], eax
	mov	DWORD PTR __$EHRec$[ebp+8], 28		; 0000001cH
	cmp	DWORD PTR $T139419[ebp], 0
	je	SHORT $LN120@CreateD3DT
	mov	ecx, DWORD PTR $T139419[ebp]
	call	??0D3DTech_general_water_lod0@Ogre@@QAE@XZ
	mov	DWORD PTR tv562[ebp], eax
	jmp	SHORT $LN121@CreateD3DT
$LN120@CreateD3DT:
	mov	DWORD PTR tv562[ebp], 0
$LN121@CreateD3DT:
	mov	eax, DWORD PTR tv562[ebp]
	mov	DWORD PTR $T139418[ebp], eax
	mov	DWORD PTR __$EHRec$[ebp+8], -1
	mov	eax, DWORD PTR $T139418[ebp]
	jmp	$LN62@CreateD3DT
	jmp	$LN60@CreateD3DT
$LN5@CreateD3DT:

; 154  : 		}
; 155  : 		else if(strcmp(name, "terrain_colormask_lod0") == 0)

	push	OFFSET $SG134249
	mov	ecx, DWORD PTR _name$[ebp]
	push	ecx
	call	_strcmp
	add	esp, 8
	test	eax, eax
	jne	SHORT $LN3@CreateD3DT

; 156  : 		{
; 157  : 			return new D3DTech_terrain_colormask_lod0;

	push	392					; 00000188H
	call	??2@YAPAXI@Z				; operator new
	add	esp, 4
	mov	DWORD PTR $T139423[ebp], eax
	mov	DWORD PTR __$EHRec$[ebp+8], 29		; 0000001dH
	cmp	DWORD PTR $T139423[ebp], 0
	je	SHORT $LN122@CreateD3DT
	mov	ecx, DWORD PTR $T139423[ebp]
	call	??0D3DTech_terrain_colormask_lod0@Ogre@@QAE@XZ
	mov	DWORD PTR tv577[ebp], eax
	jmp	SHORT $LN123@CreateD3DT
$LN122@CreateD3DT:
	mov	DWORD PTR tv577[ebp], 0
$LN123@CreateD3DT:
	mov	edx, DWORD PTR tv577[ebp]
	mov	DWORD PTR $T139422[ebp], edx
	mov	DWORD PTR __$EHRec$[ebp+8], -1
	mov	eax, DWORD PTR $T139422[ebp]
	jmp	SHORT $LN62@CreateD3DT
	jmp	SHORT $LN60@CreateD3DT
$LN3@CreateD3DT:

; 158  : 		}
; 159  : 		else if(strcmp(name, "terrain_all_lod0") == 0)

	push	OFFSET $SG134256
	mov	eax, DWORD PTR _name$[ebp]
	push	eax
	call	_strcmp
	add	esp, 8
	test	eax, eax
	jne	SHORT $LN60@CreateD3DT

; 160  : 		{
; 161  : 			return new D3DTech_terrain_all_lod0;

	push	396					; 0000018cH
	call	??2@YAPAXI@Z				; operator new
	add	esp, 4
	mov	DWORD PTR $T139427[ebp], eax
	mov	DWORD PTR __$EHRec$[ebp+8], 30		; 0000001eH
	cmp	DWORD PTR $T139427[ebp], 0
	je	SHORT $LN124@CreateD3DT
	mov	ecx, DWORD PTR $T139427[ebp]
	call	??0D3DTech_terrain_all_lod0@Ogre@@QAE@XZ
	mov	DWORD PTR tv592[ebp], eax
	jmp	SHORT $LN125@CreateD3DT
$LN124@CreateD3DT:
	mov	DWORD PTR tv592[ebp], 0
$LN125@CreateD3DT:
	mov	ecx, DWORD PTR tv592[ebp]
	mov	DWORD PTR $T139426[ebp], ecx
	mov	DWORD PTR __$EHRec$[ebp+8], -1
	mov	eax, DWORD PTR $T139426[ebp]
	jmp	SHORT $LN62@CreateD3DT
$LN60@CreateD3DT:

; 162  : 		}
; 163  : 
; 164  : 		return NULL;

	xor	eax, eax
$LN62@CreateD3DT:

; 165  : 	}

	mov	ecx, DWORD PTR __$EHRec$[ebp]
	mov	DWORD PTR fs:0, ecx
	pop	ecx
	mov	esp, ebp
	pop	ebp
	ret	0
_TEXT	ENDS
text$x	SEGMENT
__unwindfunclet$?CreateD3DTech@Ogre@@YAPAVD3DTech@1@PBD@Z$0:
	mov	eax, DWORD PTR $T139307[ebp]
	push	eax
	call	??3@YAXPAX@Z				; operator delete
	pop	ecx
	ret	0
__unwindfunclet$?CreateD3DTech@Ogre@@YAPAVD3DTech@1@PBD@Z$1:
	mov	eax, DWORD PTR $T139311[ebp]
	push	eax
	call	??3@YAXPAX@Z				; operator delete
	pop	ecx
	ret	0
__unwindfunclet$?CreateD3DTech@Ogre@@YAPAVD3DTech@1@PBD@Z$2:
	mov	eax, DWORD PTR $T139315[ebp]
	push	eax
	call	??3@YAXPAX@Z				; operator delete
	pop	ecx
	ret	0
__unwindfunclet$?CreateD3DTech@Ogre@@YAPAVD3DTech@1@PBD@Z$3:
	mov	eax, DWORD PTR $T139319[ebp]
	push	eax
	call	??3@YAXPAX@Z				; operator delete
	pop	ecx
	ret	0
__unwindfunclet$?CreateD3DTech@Ogre@@YAPAVD3DTech@1@PBD@Z$4:
	mov	eax, DWORD PTR $T139323[ebp]
	push	eax
	call	??3@YAXPAX@Z				; operator delete
	pop	ecx
	ret	0
__unwindfunclet$?CreateD3DTech@Ogre@@YAPAVD3DTech@1@PBD@Z$5:
	mov	eax, DWORD PTR $T139327[ebp]
	push	eax
	call	??3@YAXPAX@Z				; operator delete
	pop	ecx
	ret	0
__unwindfunclet$?CreateD3DTech@Ogre@@YAPAVD3DTech@1@PBD@Z$6:
	mov	eax, DWORD PTR $T139331[ebp]
	push	eax
	call	??3@YAXPAX@Z				; operator delete
	pop	ecx
	ret	0
__unwindfunclet$?CreateD3DTech@Ogre@@YAPAVD3DTech@1@PBD@Z$7:
	mov	eax, DWORD PTR $T139335[ebp]
	push	eax
	call	??3@YAXPAX@Z				; operator delete
	pop	ecx
	ret	0
__unwindfunclet$?CreateD3DTech@Ogre@@YAPAVD3DTech@1@PBD@Z$8:
	mov	eax, DWORD PTR $T139339[ebp]
	push	eax
	call	??3@YAXPAX@Z				; operator delete
	pop	ecx
	ret	0
__unwindfunclet$?CreateD3DTech@Ogre@@YAPAVD3DTech@1@PBD@Z$9:
	mov	eax, DWORD PTR $T139343[ebp]
	push	eax
	call	??3@YAXPAX@Z				; operator delete
	pop	ecx
	ret	0
__unwindfunclet$?CreateD3DTech@Ogre@@YAPAVD3DTech@1@PBD@Z$10:
	mov	eax, DWORD PTR $T139347[ebp]
	push	eax
	call	??3@YAXPAX@Z				; operator delete
	pop	ecx
	ret	0
__unwindfunclet$?CreateD3DTech@Ogre@@YAPAVD3DTech@1@PBD@Z$11:
	mov	eax, DWORD PTR $T139351[ebp]
	push	eax
	call	??3@YAXPAX@Z				; operator delete
	pop	ecx
	ret	0
__unwindfunclet$?CreateD3DTech@Ogre@@YAPAVD3DTech@1@PBD@Z$12:
	mov	eax, DWORD PTR $T139355[ebp]
	push	eax
	call	??3@YAXPAX@Z				; operator delete
	pop	ecx
	ret	0
__unwindfunclet$?CreateD3DTech@Ogre@@YAPAVD3DTech@1@PBD@Z$13:
	mov	eax, DWORD PTR $T139359[ebp]
	push	eax
	call	??3@YAXPAX@Z				; operator delete
	pop	ecx
	ret	0
__unwindfunclet$?CreateD3DTech@Ogre@@YAPAVD3DTech@1@PBD@Z$14:
	mov	eax, DWORD PTR $T139363[ebp]
	push	eax
	call	??3@YAXPAX@Z				; operator delete
	pop	ecx
	ret	0
__unwindfunclet$?CreateD3DTech@Ogre@@YAPAVD3DTech@1@PBD@Z$15:
	mov	eax, DWORD PTR $T139367[ebp]
	push	eax
	call	??3@YAXPAX@Z				; operator delete
	pop	ecx
	ret	0
__unwindfunclet$?CreateD3DTech@Ogre@@YAPAVD3DTech@1@PBD@Z$16:
	mov	eax, DWORD PTR $T139371[ebp]
	push	eax
	call	??3@YAXPAX@Z				; operator delete
	pop	ecx
	ret	0
__unwindfunclet$?CreateD3DTech@Ogre@@YAPAVD3DTech@1@PBD@Z$17:
	mov	eax, DWORD PTR $T139375[ebp]
	push	eax
	call	??3@YAXPAX@Z				; operator delete
	pop	ecx
	ret	0
__unwindfunclet$?CreateD3DTech@Ogre@@YAPAVD3DTech@1@PBD@Z$18:
	mov	eax, DWORD PTR $T139379[ebp]
	push	eax
	call	??3@YAXPAX@Z				; operator delete
	pop	ecx
	ret	0
__unwindfunclet$?CreateD3DTech@Ogre@@YAPAVD3DTech@1@PBD@Z$19:
	mov	eax, DWORD PTR $T139383[ebp]
	push	eax
	call	??3@YAXPAX@Z				; operator delete
	pop	ecx
	ret	0
__unwindfunclet$?CreateD3DTech@Ogre@@YAPAVD3DTech@1@PBD@Z$20:
	mov	eax, DWORD PTR $T139387[ebp]
	push	eax
	call	??3@YAXPAX@Z				; operator delete
	pop	ecx
	ret	0
__unwindfunclet$?CreateD3DTech@Ogre@@YAPAVD3DTech@1@PBD@Z$21:
	mov	eax, DWORD PTR $T139391[ebp]
	push	eax
	call	??3@YAXPAX@Z				; operator delete
	pop	ecx
	ret	0
__unwindfunclet$?CreateD3DTech@Ogre@@YAPAVD3DTech@1@PBD@Z$22:
	mov	eax, DWORD PTR $T139395[ebp]
	push	eax
	call	??3@YAXPAX@Z				; operator delete
	pop	ecx
	ret	0
__unwindfunclet$?CreateD3DTech@Ogre@@YAPAVD3DTech@1@PBD@Z$23:
	mov	eax, DWORD PTR $T139399[ebp]
	push	eax
	call	??3@YAXPAX@Z				; operator delete
	pop	ecx
	ret	0
__unwindfunclet$?CreateD3DTech@Ogre@@YAPAVD3DTech@1@PBD@Z$24:
	mov	eax, DWORD PTR $T139403[ebp]
	push	eax
	call	??3@YAXPAX@Z				; operator delete
	pop	ecx
	ret	0
__unwindfunclet$?CreateD3DTech@Ogre@@YAPAVD3DTech@1@PBD@Z$25:
	mov	eax, DWORD PTR $T139407[ebp]
	push	eax
	call	??3@YAXPAX@Z				; operator delete
	pop	ecx
	ret	0
__unwindfunclet$?CreateD3DTech@Ogre@@YAPAVD3DTech@1@PBD@Z$26:
	mov	eax, DWORD PTR $T139411[ebp]
	push	eax
	call	??3@YAXPAX@Z				; operator delete
	pop	ecx
	ret	0
__unwindfunclet$?CreateD3DTech@Ogre@@YAPAVD3DTech@1@PBD@Z$27:
	mov	eax, DWORD PTR $T139415[ebp]
	push	eax
	call	??3@YAXPAX@Z				; operator delete
	pop	ecx
	ret	0
__unwindfunclet$?CreateD3DTech@Ogre@@YAPAVD3DTech@1@PBD@Z$28:
	mov	eax, DWORD PTR $T139419[ebp]
	push	eax
	call	??3@YAXPAX@Z				; operator delete
	pop	ecx
	ret	0
__unwindfunclet$?CreateD3DTech@Ogre@@YAPAVD3DTech@1@PBD@Z$29:
	mov	eax, DWORD PTR $T139423[ebp]
	push	eax
	call	??3@YAXPAX@Z				; operator delete
	pop	ecx
	ret	0
__unwindfunclet$?CreateD3DTech@Ogre@@YAPAVD3DTech@1@PBD@Z$30:
	mov	eax, DWORD PTR $T139427[ebp]
	push	eax
	call	??3@YAXPAX@Z				; operator delete
	pop	ecx
	ret	0
__ehhandler$?CreateD3DTech@Ogre@@YAPAVD3DTech@1@PBD@Z:
	mov	edx, DWORD PTR [esp+8]
	lea	eax, DWORD PTR [edx+12]
	mov	ecx, DWORD PTR [edx-376]
	xor	ecx, eax
	call	@__security_check_cookie@4
	mov	eax, OFFSET __ehfuncinfo$?CreateD3DTech@Ogre@@YAPAVD3DTech@1@PBD@Z
	jmp	___CxxFrameHandler3
text$x	ENDS
?CreateD3DTech@Ogre@@YAPAVD3DTech@1@PBD@Z ENDP		; Ogre::CreateD3DTech
PUBLIC	??1D3DTech@Ogre@@UAE@XZ				; Ogre::D3DTech::~D3DTech
PUBLIC	??_7D3DTech_Back0_lod0@Ogre@@6B@		; Ogre::D3DTech_Back0_lod0::`vftable'
PUBLIC	??_R4D3DTech_Back0_lod0@Ogre@@6B@		; Ogre::D3DTech_Back0_lod0::`RTTI Complete Object Locator'
PUBLIC	??_R0?AVD3DTech_Back0_lod0@Ogre@@@8		; Ogre::D3DTech_Back0_lod0 `RTTI Type Descriptor'
PUBLIC	??_R3D3DTech_Back0_lod0@Ogre@@8			; Ogre::D3DTech_Back0_lod0::`RTTI Class Hierarchy Descriptor'
PUBLIC	??_R2D3DTech_Back0_lod0@Ogre@@8			; Ogre::D3DTech_Back0_lod0::`RTTI Base Class Array'
PUBLIC	??_R1A@?0A@EA@D3DTech_Back0_lod0@Ogre@@8	; Ogre::D3DTech_Back0_lod0::`RTTI Base Class Descriptor at (0,-1,0,64)'
PUBLIC	??_R1A@?0A@EA@D3DTech@Ogre@@8			; Ogre::D3DTech::`RTTI Base Class Descriptor at (0,-1,0,64)'
PUBLIC	??_R0?AVD3DTech@Ogre@@@8			; Ogre::D3DTech `RTTI Type Descriptor'
PUBLIC	??_R3D3DTech@Ogre@@8				; Ogre::D3DTech::`RTTI Class Hierarchy Descriptor'
PUBLIC	??_R2D3DTech@Ogre@@8				; Ogre::D3DTech::`RTTI Base Class Array'
PUBLIC	??_R1A@?0A@EA@ShaderTechnique@Ogre@@8		; Ogre::ShaderTechnique::`RTTI Base Class Descriptor at (0,-1,0,64)'
PUBLIC	??_R0?AVShaderTechnique@Ogre@@@8		; Ogre::ShaderTechnique `RTTI Type Descriptor'
PUBLIC	??_R3ShaderTechnique@Ogre@@8			; Ogre::ShaderTechnique::`RTTI Class Hierarchy Descriptor'
PUBLIC	??_R2ShaderTechnique@Ogre@@8			; Ogre::ShaderTechnique::`RTTI Base Class Array'
PUBLIC	?begin@D3DTech_Back0_lod0@Ogre@@UAEIXZ		; Ogre::D3DTech_Back0_lod0::begin
PUBLIC	?end@D3DTech_Back0_lod0@Ogre@@UAEXXZ		; Ogre::D3DTech_Back0_lod0::end
PUBLIC	?beginPass@D3DTech_Back0_lod0@Ogre@@UAEXI@Z	; Ogre::D3DTech_Back0_lod0::beginPass
PUBLIC	?endPass@D3DTech_Back0_lod0@Ogre@@UAEXXZ	; Ogre::D3DTech_Back0_lod0::endPass
PUBLIC	?setConstant@D3DTech@Ogre@@UAEXPBDPBXI@Z	; Ogre::D3DTech::setConstant
PUBLIC	?setTexture@D3DTech@Ogre@@UAEXPBDPAVHardwarePixelBuffer@2@@Z ; Ogre::D3DTech::setTexture
PUBLIC	?commitChanges@D3DTech@Ogre@@UAEXXZ		; Ogre::D3DTech::commitChanges
PUBLIC	?clone@D3DTech_Back0_lod0@Ogre@@UAEPAVD3DTech@2@XZ ; Ogre::D3DTech_Back0_lod0::clone
PUBLIC	?init@D3DTech_Back0_lod0@Ogre@@UAEXABUShaderEnvFlags@2@ABUMaterialMacro@2@@Z ; Ogre::D3DTech_Back0_lod0::init
EXTRN	??0D3DTech@Ogre@@QAE@XZ:PROC			; Ogre::D3DTech::D3DTech
EXTRN	??_7type_info@@6B@:QWORD			; type_info::`vftable'
EXTRN	?setConstant@D3DTech@Ogre@@UAEXW4ShaderParamUsage@2@PBXI@Z:PROC ; Ogre::D3DTech::setConstant
EXTRN	?setTexture@D3DTech@Ogre@@UAEXW4ShaderParamUsage@2@PAVHardwarePixelBuffer@2@@Z:PROC ; Ogre::D3DTech::setTexture
EXTRN	?setStreamInput@D3DTech@Ogre@@UAEXIPAPAVHardwareVertexBuffer@2@HPAI@Z:PROC ; Ogre::D3DTech::setStreamInput
EXTRN	?setStreamInput@D3DTech@Ogre@@UAEXIPAVHardwareVertexBuffer@2@I@Z:PROC ; Ogre::D3DTech::setStreamInput
EXTRN	?setStreamInput@D3DTech@Ogre@@UAEXIPAPAVHardwareVertexBuffer@2@PAI@Z:PROC ; Ogre::D3DTech::setStreamInput
EXTRN	?draw@D3DTech@Ogre@@UAEXW4PrimitiveType@2@IIPAVHardwareIndexBuffer@2@II@Z:PROC ; Ogre::D3DTech::draw
EXTRN	?draw@D3DTech@Ogre@@UAEXW4PrimitiveType@2@II@Z:PROC ; Ogre::D3DTech::draw
EXTRN	?getRequiredParams@D3DTech@Ogre@@UAEIPAW4ShaderParamUsage@2@I@Z:PROC ; Ogre::D3DTech::getRequiredParams
EXTRN	??_ED3DTech_Back0_lod0@Ogre@@UAEPAXI@Z:PROC	; Ogre::D3DTech_Back0_lod0::`vector deleting destructor'
;	COMDAT ??_R2ShaderTechnique@Ogre@@8
rdata$r	SEGMENT
??_R2ShaderTechnique@Ogre@@8 DD FLAT:??_R1A@?0A@EA@ShaderTechnique@Ogre@@8 ; Ogre::ShaderTechnique::`RTTI Base Class Array'
rdata$r	ENDS
;	COMDAT ??_R3ShaderTechnique@Ogre@@8
rdata$r	SEGMENT
??_R3ShaderTechnique@Ogre@@8 DD 00H			; Ogre::ShaderTechnique::`RTTI Class Hierarchy Descriptor'
	DD	00H
	DD	01H
	DD	FLAT:??_R2ShaderTechnique@Ogre@@8
rdata$r	ENDS
;	COMDAT ??_R0?AVShaderTechnique@Ogre@@@8
_DATA	SEGMENT
??_R0?AVShaderTechnique@Ogre@@@8 DD FLAT:??_7type_info@@6B@ ; Ogre::ShaderTechnique `RTTI Type Descriptor'
	DD	00H
	DB	'.?AVShaderTechnique@Ogre@@', 00H
_DATA	ENDS
;	COMDAT ??_R1A@?0A@EA@ShaderTechnique@Ogre@@8
rdata$r	SEGMENT
??_R1A@?0A@EA@ShaderTechnique@Ogre@@8 DD FLAT:??_R0?AVShaderTechnique@Ogre@@@8 ; Ogre::ShaderTechnique::`RTTI Base Class Descriptor at (0,-1,0,64)'
	DD	00H
	DD	00H
	DD	0ffffffffH
	DD	00H
	DD	040H
	DD	FLAT:??_R3ShaderTechnique@Ogre@@8
rdata$r	ENDS
;	COMDAT ??_R2D3DTech@Ogre@@8
rdata$r	SEGMENT
??_R2D3DTech@Ogre@@8 DD FLAT:??_R1A@?0A@EA@D3DTech@Ogre@@8 ; Ogre::D3DTech::`RTTI Base Class Array'
	DD	FLAT:??_R1A@?0A@EA@ShaderTechnique@Ogre@@8
rdata$r	ENDS
;	COMDAT ??_R3D3DTech@Ogre@@8
rdata$r	SEGMENT
??_R3D3DTech@Ogre@@8 DD 00H				; Ogre::D3DTech::`RTTI Class Hierarchy Descriptor'
	DD	00H
	DD	02H
	DD	FLAT:??_R2D3DTech@Ogre@@8
rdata$r	ENDS
;	COMDAT ??_R0?AVD3DTech@Ogre@@@8
_DATA	SEGMENT
??_R0?AVD3DTech@Ogre@@@8 DD FLAT:??_7type_info@@6B@	; Ogre::D3DTech `RTTI Type Descriptor'
	DD	00H
	DB	'.?AVD3DTech@Ogre@@', 00H
_DATA	ENDS
;	COMDAT ??_R1A@?0A@EA@D3DTech@Ogre@@8
rdata$r	SEGMENT
??_R1A@?0A@EA@D3DTech@Ogre@@8 DD FLAT:??_R0?AVD3DTech@Ogre@@@8 ; Ogre::D3DTech::`RTTI Base Class Descriptor at (0,-1,0,64)'
	DD	01H
	DD	00H
	DD	0ffffffffH
	DD	00H
	DD	040H
	DD	FLAT:??_R3D3DTech@Ogre@@8
rdata$r	ENDS
;	COMDAT ??_R1A@?0A@EA@D3DTech_Back0_lod0@Ogre@@8
rdata$r	SEGMENT
??_R1A@?0A@EA@D3DTech_Back0_lod0@Ogre@@8 DD FLAT:??_R0?AVD3DTech_Back0_lod0@Ogre@@@8 ; Ogre::D3DTech_Back0_lod0::`RTTI Base Class Descriptor at (0,-1,0,64)'
	DD	02H
	DD	00H
	DD	0ffffffffH
	DD	00H
	DD	040H
	DD	FLAT:??_R3D3DTech_Back0_lod0@Ogre@@8
rdata$r	ENDS
;	COMDAT ??_R2D3DTech_Back0_lod0@Ogre@@8
rdata$r	SEGMENT
??_R2D3DTech_Back0_lod0@Ogre@@8 DD FLAT:??_R1A@?0A@EA@D3DTech_Back0_lod0@Ogre@@8 ; Ogre::D3DTech_Back0_lod0::`RTTI Base Class Array'
	DD	FLAT:??_R1A@?0A@EA@D3DTech@Ogre@@8
	DD	FLAT:??_R1A@?0A@EA@ShaderTechnique@Ogre@@8
rdata$r	ENDS
;	COMDAT ??_R3D3DTech_Back0_lod0@Ogre@@8
rdata$r	SEGMENT
??_R3D3DTech_Back0_lod0@Ogre@@8 DD 00H			; Ogre::D3DTech_Back0_lod0::`RTTI Class Hierarchy Descriptor'
	DD	00H
	DD	03H
	DD	FLAT:??_R2D3DTech_Back0_lod0@Ogre@@8
rdata$r	ENDS
;	COMDAT ??_R0?AVD3DTech_Back0_lod0@Ogre@@@8
_DATA	SEGMENT
??_R0?AVD3DTech_Back0_lod0@Ogre@@@8 DD FLAT:??_7type_info@@6B@ ; Ogre::D3DTech_Back0_lod0 `RTTI Type Descriptor'
	DD	00H
	DB	'.?AVD3DTech_Back0_lod0@Ogre@@', 00H
_DATA	ENDS
;	COMDAT ??_R4D3DTech_Back0_lod0@Ogre@@6B@
rdata$r	SEGMENT
??_R4D3DTech_Back0_lod0@Ogre@@6B@ DD 00H		; Ogre::D3DTech_Back0_lod0::`RTTI Complete Object Locator'
	DD	00H
	DD	00H
	DD	FLAT:??_R0?AVD3DTech_Back0_lod0@Ogre@@@8
	DD	FLAT:??_R3D3DTech_Back0_lod0@Ogre@@8
rdata$r	ENDS
;	COMDAT ??_7D3DTech_Back0_lod0@Ogre@@6B@
CONST	SEGMENT
??_7D3DTech_Back0_lod0@Ogre@@6B@ DD FLAT:??_R4D3DTech_Back0_lod0@Ogre@@6B@ ; Ogre::D3DTech_Back0_lod0::`vftable'
	DD	FLAT:?begin@D3DTech_Back0_lod0@Ogre@@UAEIXZ
	DD	FLAT:?end@D3DTech_Back0_lod0@Ogre@@UAEXXZ
	DD	FLAT:?beginPass@D3DTech_Back0_lod0@Ogre@@UAEXI@Z
	DD	FLAT:?endPass@D3DTech_Back0_lod0@Ogre@@UAEXXZ
	DD	FLAT:?setConstant@D3DTech@Ogre@@UAEXW4ShaderParamUsage@2@PBXI@Z
	DD	FLAT:?setConstant@D3DTech@Ogre@@UAEXPBDPBXI@Z
	DD	FLAT:?setTexture@D3DTech@Ogre@@UAEXW4ShaderParamUsage@2@PAVHardwarePixelBuffer@2@@Z
	DD	FLAT:?setTexture@D3DTech@Ogre@@UAEXPBDPAVHardwarePixelBuffer@2@@Z
	DD	FLAT:?setStreamInput@D3DTech@Ogre@@UAEXIPAPAVHardwareVertexBuffer@2@HPAI@Z
	DD	FLAT:?setStreamInput@D3DTech@Ogre@@UAEXIPAVHardwareVertexBuffer@2@I@Z
	DD	FLAT:?setStreamInput@D3DTech@Ogre@@UAEXIPAPAVHardwareVertexBuffer@2@PAI@Z
	DD	FLAT:?commitChanges@D3DTech@Ogre@@UAEXXZ
	DD	FLAT:?draw@D3DTech@Ogre@@UAEXW4PrimitiveType@2@IIPAVHardwareIndexBuffer@2@II@Z
	DD	FLAT:?draw@D3DTech@Ogre@@UAEXW4PrimitiveType@2@II@Z
	DD	FLAT:?getRequiredParams@D3DTech@Ogre@@UAEIPAW4ShaderParamUsage@2@I@Z
	DD	FLAT:??_ED3DTech_Back0_lod0@Ogre@@UAEPAXI@Z
	DD	FLAT:?clone@D3DTech_Back0_lod0@Ogre@@UAEPAVD3DTech@2@XZ
	DD	FLAT:?init@D3DTech_Back0_lod0@Ogre@@UAEXABUShaderEnvFlags@2@ABUMaterialMacro@2@@Z
CONST	ENDS
;	COMDAT xdata$x
xdata$x	SEGMENT
__unwindtable$??0D3DTech_Back0_lod0@Ogre@@QAE@XZ DD 0ffffffffH
	DD	FLAT:__unwindfunclet$??0D3DTech_Back0_lod0@Ogre@@QAE@XZ$0
__ehfuncinfo$??0D3DTech_Back0_lod0@Ogre@@QAE@XZ DD 019930522H
	DD	01H
	DD	FLAT:__unwindtable$??0D3DTech_Back0_lod0@Ogre@@QAE@XZ
	DD	2 DUP(00H)
	DD	2 DUP(00H)
	DD	00H
	DD	00H
; Function compile flags: /Odtp
xdata$x	ENDS
;	COMDAT ??0D3DTech_Back0_lod0@Ogre@@QAE@XZ
_TEXT	SEGMENT
_this$ = -16						; size = 4
__$EHRec$ = -12						; size = 12
??0D3DTech_Back0_lod0@Ogre@@QAE@XZ PROC			; Ogre::D3DTech_Back0_lod0::D3DTech_Back0_lod0, COMDAT
; _this$ = ecx
	push	ebp
	mov	ebp, esp
	push	-1
	push	__ehhandler$??0D3DTech_Back0_lod0@Ogre@@QAE@XZ
	mov	eax, DWORD PTR fs:0
	push	eax
	push	ecx
	mov	eax, DWORD PTR ___security_cookie
	xor	eax, ebp
	push	eax
	lea	eax, DWORD PTR __$EHRec$[ebp]
	mov	DWORD PTR fs:0, eax
	mov	DWORD PTR _this$[ebp], ecx
	mov	ecx, DWORD PTR _this$[ebp]
	call	??0D3DTech@Ogre@@QAE@XZ			; Ogre::D3DTech::D3DTech
	mov	DWORD PTR __$EHRec$[ebp+8], 0
	mov	eax, DWORD PTR _this$[ebp]
	mov	DWORD PTR [eax], OFFSET ??_7D3DTech_Back0_lod0@Ogre@@6B@
	mov	DWORD PTR __$EHRec$[ebp+8], -1
	mov	eax, DWORD PTR _this$[ebp]
	mov	ecx, DWORD PTR __$EHRec$[ebp]
	mov	DWORD PTR fs:0, ecx
	pop	ecx
	mov	esp, ebp
	pop	ebp
	ret	0
_TEXT	ENDS
;	COMDAT text$x
text$x	SEGMENT
__unwindfunclet$??0D3DTech_Back0_lod0@Ogre@@QAE@XZ$0:
	mov	ecx, DWORD PTR _this$[ebp]
	jmp	??1D3DTech@Ogre@@UAE@XZ
__ehhandler$??0D3DTech_Back0_lod0@Ogre@@QAE@XZ:
	mov	edx, DWORD PTR [esp+8]
	lea	eax, DWORD PTR [edx+12]
	mov	ecx, DWORD PTR [edx-8]
	xor	ecx, eax
	call	@__security_check_cookie@4
	mov	eax, OFFSET __ehfuncinfo$??0D3DTech_Back0_lod0@Ogre@@QAE@XZ
	jmp	___CxxFrameHandler3
text$x	ENDS
??0D3DTech_Back0_lod0@Ogre@@QAE@XZ ENDP			; Ogre::D3DTech_Back0_lod0::D3DTech_Back0_lod0
; Function compile flags: /Odtp
; File i:\svnroot\client\plugins\rendersystem_d3d9\ogred3d9technique.h
;	COMDAT ?setConstant@D3DTech@Ogre@@UAEXPBDPBXI@Z
_TEXT	SEGMENT
_this$ = -4						; size = 4
_pname$ = 8						; size = 4
_pdata$ = 12						; size = 4
_nbytes$ = 16						; size = 4
?setConstant@D3DTech@Ogre@@UAEXPBDPBXI@Z PROC		; Ogre::D3DTech::setConstant, COMDAT
; _this$ = ecx

; 35   : 		{

	push	ebp
	mov	ebp, esp
	push	ecx
	mov	DWORD PTR _this$[ebp], ecx

; 36   : 			assert(0);
; 37   : 		}

	mov	esp, ebp
	pop	ebp
	ret	12					; 0000000cH
?setConstant@D3DTech@Ogre@@UAEXPBDPBXI@Z ENDP		; Ogre::D3DTech::setConstant
; Function compile flags: /Odtp
_TEXT	ENDS
;	COMDAT ?setTexture@D3DTech@Ogre@@UAEXPBDPAVHardwarePixelBuffer@2@@Z
_TEXT	SEGMENT
_this$ = -4						; size = 4
_pname$ = 8						; size = 4
_ptexture$ = 12						; size = 4
?setTexture@D3DTech@Ogre@@UAEXPBDPAVHardwarePixelBuffer@2@@Z PROC ; Ogre::D3DTech::setTexture, COMDAT
; _this$ = ecx

; 39   : 		{

	push	ebp
	mov	ebp, esp
	push	ecx
	mov	DWORD PTR _this$[ebp], ecx

; 40   : 			assert(0);
; 41   : 		}

	mov	esp, ebp
	pop	ebp
	ret	8
?setTexture@D3DTech@Ogre@@UAEXPBDPAVHardwarePixelBuffer@2@@Z ENDP ; Ogre::D3DTech::setTexture
; Function compile flags: /Odtp
_TEXT	ENDS
;	COMDAT ?commitChanges@D3DTech@Ogre@@UAEXXZ
_TEXT	SEGMENT
_this$ = -4						; size = 4
?commitChanges@D3DTech@Ogre@@UAEXXZ PROC		; Ogre::D3DTech::commitChanges, COMDAT
; _this$ = ecx

; 46   : 		{

	push	ebp
	mov	ebp, esp
	push	ecx
	mov	DWORD PTR _this$[ebp], ecx

; 47   : 			assert(0);
; 48   : 		}

	mov	esp, ebp
	pop	ebp
	ret	0
?commitChanges@D3DTech@Ogre@@UAEXXZ ENDP		; Ogre::D3DTech::commitChanges
_TEXT	ENDS
;	COMDAT xdata$x
; File i:\svnroot\client\plugins\rendersystem_d3d9\ogred3d9tech_back.h
xdata$x	SEGMENT
__unwindtable$?clone@D3DTech_Back0_lod0@Ogre@@UAEPAVD3DTech@2@XZ DD 0ffffffffH
	DD	FLAT:__unwindfunclet$?clone@D3DTech_Back0_lod0@Ogre@@UAEPAVD3DTech@2@XZ$0
__ehfuncinfo$?clone@D3DTech_Back0_lod0@Ogre@@UAEPAVD3DTech@2@XZ DD 019930522H
	DD	01H
	DD	FLAT:__unwindtable$?clone@D3DTech_Back0_lod0@Ogre@@UAEPAVD3DTech@2@XZ
	DD	2 DUP(00H)
	DD	2 DUP(00H)
	DD	00H
	DD	00H
; Function compile flags: /Odtp
xdata$x	ENDS
;	COMDAT ?clone@D3DTech_Back0_lod0@Ogre@@UAEPAVD3DTech@2@XZ
_TEXT	SEGMENT
tv74 = -28						; size = 4
_this$ = -24						; size = 4
$T139487 = -20						; size = 4
$T139486 = -16						; size = 4
__$EHRec$ = -12						; size = 12
?clone@D3DTech_Back0_lod0@Ogre@@UAEPAVD3DTech@2@XZ PROC	; Ogre::D3DTech_Back0_lod0::clone, COMDAT
; _this$ = ecx

; 22   : 		{

	push	ebp
	mov	ebp, esp
	push	-1
	push	__ehhandler$?clone@D3DTech_Back0_lod0@Ogre@@UAEPAVD3DTech@2@XZ
	mov	eax, DWORD PTR fs:0
	push	eax
	sub	esp, 16					; 00000010H
	mov	eax, DWORD PTR ___security_cookie
	xor	eax, ebp
	push	eax
	lea	eax, DWORD PTR __$EHRec$[ebp]
	mov	DWORD PTR fs:0, eax
	mov	DWORD PTR _this$[ebp], ecx

; 23   : 			return new D3DTech_Back0_lod0;

	push	396					; 0000018cH
	call	??2@YAPAXI@Z				; operator new
	add	esp, 4
	mov	DWORD PTR $T139487[ebp], eax
	mov	DWORD PTR __$EHRec$[ebp+8], 0
	cmp	DWORD PTR $T139487[ebp], 0
	je	SHORT $LN3@clone
	mov	ecx, DWORD PTR $T139487[ebp]
	call	??0D3DTech_Back0_lod0@Ogre@@QAE@XZ
	mov	DWORD PTR tv74[ebp], eax
	jmp	SHORT $LN4@clone
$LN3@clone:
	mov	DWORD PTR tv74[ebp], 0
$LN4@clone:
	mov	eax, DWORD PTR tv74[ebp]
	mov	DWORD PTR $T139486[ebp], eax
	mov	DWORD PTR __$EHRec$[ebp+8], -1
	mov	eax, DWORD PTR $T139486[ebp]

; 24   : 		}

	mov	ecx, DWORD PTR __$EHRec$[ebp]
	mov	DWORD PTR fs:0, ecx
	pop	ecx
	mov	esp, ebp
	pop	ebp
	ret	0
_TEXT	ENDS
;	COMDAT text$x
text$x	SEGMENT
__unwindfunclet$?clone@D3DTech_Back0_lod0@Ogre@@UAEPAVD3DTech@2@XZ$0:
	mov	eax, DWORD PTR $T139487[ebp]
	push	eax
	call	??3@YAXPAX@Z				; operator delete
	pop	ecx
	ret	0
__ehhandler$?clone@D3DTech_Back0_lod0@Ogre@@UAEPAVD3DTech@2@XZ:
	mov	edx, DWORD PTR [esp+8]
	lea	eax, DWORD PTR [edx+12]
	mov	ecx, DWORD PTR [edx-20]
	xor	ecx, eax
	call	@__security_check_cookie@4
	mov	eax, OFFSET __ehfuncinfo$?clone@D3DTech_Back0_lod0@Ogre@@UAEPAVD3DTech@2@XZ
	jmp	___CxxFrameHandler3
text$x	ENDS
?clone@D3DTech_Back0_lod0@Ogre@@UAEPAVD3DTech@2@XZ ENDP	; Ogre::D3DTech_Back0_lod0::clone
PUBLIC	??_C@_04KGFMLCPK@Main?$AA@			; `string'
EXTRN	?initParams@D3DTech@Ogre@@IAEXXZ:PROC		; Ogre::D3DTech::initParams
EXTRN	?getCompiledVSPS@D3DMaterialTemplate@Ogre@@QAEPAVCompiledShader@2@W4COMPILED_TYPE@2@PBDABUShaderEnvFlags@2@ABUMaterialMacro@2@@Z:PROC ; Ogre::D3DMaterialTemplate::getCompiledVSPS
;	COMDAT ??_C@_04KGFMLCPK@Main?$AA@
CONST	SEGMENT
??_C@_04KGFMLCPK@Main?$AA@ DB 'Main', 00H		; `string'
; Function compile flags: /Odtp
CONST	ENDS
;	COMDAT ?init@D3DTech_Back0_lod0@Ogre@@UAEXABUShaderEnvFlags@2@ABUMaterialMacro@2@@Z
_TEXT	SEGMENT
_this$ = -12						; size = 4
_indx$132416 = -8					; size = 4
_i$132412 = -4						; size = 4
_env$ = 8						; size = 4
_macros$ = 12						; size = 4
?init@D3DTech_Back0_lod0@Ogre@@UAEXABUShaderEnvFlags@2@ABUMaterialMacro@2@@Z PROC ; Ogre::D3DTech_Back0_lod0::init, COMDAT
; _this$ = ecx

; 27   : 		{

	push	ebp
	mov	ebp, esp
	sub	esp, 12					; 0000000cH
	mov	DWORD PTR _this$[ebp], ecx

; 28   : 			m_BlendMode = 0;

	mov	eax, DWORD PTR _this$[ebp]
	mov	BYTE PTR [eax+392], 0

; 29   : 			for(int i=0; i<MaterialMacro::MAX_MACRO; i++)

	mov	DWORD PTR _i$132412[ebp], 0
	jmp	SHORT $LN7@init
$LN6@init:
	mov	ecx, DWORD PTR _i$132412[ebp]
	add	ecx, 1
	mov	DWORD PTR _i$132412[ebp], ecx
$LN7@init:
	cmp	DWORD PTR _i$132412[ebp], 4
	jge	SHORT $LN5@init

; 30   : 			{
; 31   : 				int indx = macros.indices[i];

	mov	edx, DWORD PTR _macros$[ebp]
	add	edx, DWORD PTR _i$132412[ebp]
	movzx	eax, BYTE PTR [edx]
	mov	DWORD PTR _indx$132416[ebp], eax

; 32   : 				if(indx == 0) break;

	cmp	DWORD PTR _indx$132416[ebp], 0
	jne	SHORT $LN4@init
	jmp	SHORT $LN5@init
$LN4@init:

; 33   : 
; 34   : 				if(indx == MTLPARAM_BLEND_MODE) m_BlendMode = macros.value[i];

	cmp	DWORD PTR _indx$132416[ebp], 1
	jne	SHORT $LN3@init
	mov	ecx, DWORD PTR _macros$[ebp]
	add	ecx, DWORD PTR _i$132412[ebp]
	mov	edx, DWORD PTR _this$[ebp]
	mov	al, BYTE PTR [ecx+4]
	mov	BYTE PTR [edx+392], al
$LN3@init:

; 35   : 			}

	jmp	SHORT $LN6@init
$LN5@init:

; 36   : 
; 37   : 			if(env.model_xparent)

	mov	ecx, DWORD PTR _env$[ebp]
	mov	edx, DWORD PTR [ecx]
	shr	edx, 23					; 00000017H
	and	edx, 1
	je	SHORT $LN2@init

; 38   : 			{
; 39   : 				if(m_BlendMode <= 1)

	mov	eax, DWORD PTR _this$[ebp]
	movzx	ecx, BYTE PTR [eax+392]
	cmp	ecx, 1
	jg	SHORT $LN2@init

; 40   : 				{
; 41   : 					m_BlendMode = 2;

	mov	edx, DWORD PTR _this$[ebp]
	mov	BYTE PTR [edx+392], 2
$LN2@init:

; 42   : 				}
; 43   : 			}
; 44   : 
; 45   : 			m_nPass = 1;

	mov	eax, DWORD PTR _this$[ebp]
	mov	DWORD PTR [eax+188], 1

; 46   : 			m_AllPass[0].vs = m_pMtlTemplate->getCompiledVSPS(COMPILED_VS, "Main", env, macros);

	mov	ecx, DWORD PTR _macros$[ebp]
	push	ecx
	mov	edx, DWORD PTR _env$[ebp]
	push	edx
	push	OFFSET ??_C@_04KGFMLCPK@Main?$AA@
	push	1
	mov	eax, DWORD PTR _this$[ebp]
	mov	ecx, DWORD PTR [eax+8]
	call	?getCompiledVSPS@D3DMaterialTemplate@Ogre@@QAEPAVCompiledShader@2@W4COMPILED_TYPE@2@PBDABUShaderEnvFlags@2@ABUMaterialMacro@2@@Z ; Ogre::D3DMaterialTemplate::getCompiledVSPS
	mov	ecx, DWORD PTR _this$[ebp]
	mov	DWORD PTR [ecx+12], eax

; 47   : 			m_AllPass[0].ps = m_pMtlTemplate->getCompiledVSPS(COMPILED_PS, "Main", env, macros);

	mov	edx, DWORD PTR _macros$[ebp]
	push	edx
	mov	eax, DWORD PTR _env$[ebp]
	push	eax
	push	OFFSET ??_C@_04KGFMLCPK@Main?$AA@
	push	2
	mov	ecx, DWORD PTR _this$[ebp]
	mov	ecx, DWORD PTR [ecx+8]
	call	?getCompiledVSPS@D3DMaterialTemplate@Ogre@@QAEPAVCompiledShader@2@W4COMPILED_TYPE@2@PBDABUShaderEnvFlags@2@ABUMaterialMacro@2@@Z ; Ogre::D3DMaterialTemplate::getCompiledVSPS
	mov	edx, DWORD PTR _this$[ebp]
	mov	DWORD PTR [edx+16], eax

; 48   : 
; 49   : 			m_AllPass[0].ntex = 1;

	mov	eax, DWORD PTR _this$[ebp]
	mov	DWORD PTR [eax+20], 1

; 50   : 			m_AllPass[0].texstage[0] = SPU_GENERAL_PARAM + 1; //diffusetex

	mov	ecx, DWORD PTR _this$[ebp]
	mov	DWORD PTR [ecx+24], 1001		; 000003e9H

; 51   : 
; 52   : 			initParams();

	mov	ecx, DWORD PTR _this$[ebp]
	call	?initParams@D3DTech@Ogre@@IAEXXZ	; Ogre::D3DTech::initParams

; 53   : 			m_UsedMacroMask = m_BlendMode|(env.model_xparent<<8);

	mov	edx, DWORD PTR _this$[ebp]
	movzx	eax, BYTE PTR [edx+392]
	mov	ecx, DWORD PTR _env$[ebp]
	mov	edx, DWORD PTR [ecx]
	shr	edx, 23					; 00000017H
	and	edx, 1
	shl	edx, 8
	or	eax, edx
	mov	ecx, DWORD PTR _this$[ebp]
	mov	DWORD PTR [ecx+4], eax

; 54   : 		}

	mov	esp, ebp
	pop	ebp
	ret	8
?init@D3DTech_Back0_lod0@Ogre@@UAEXABUShaderEnvFlags@2@ABUMaterialMacro@2@@Z ENDP ; Ogre::D3DTech_Back0_lod0::init
; Function compile flags: /Odtp
_TEXT	ENDS
;	COMDAT ?begin@D3DTech_Back0_lod0@Ogre@@UAEIXZ
_TEXT	SEGMENT
_this$ = -4						; size = 4
?begin@D3DTech_Back0_lod0@Ogre@@UAEIXZ PROC		; Ogre::D3DTech_Back0_lod0::begin, COMDAT
; _this$ = ecx

; 57   : 		{

	push	ebp
	mov	ebp, esp
	push	ecx
	mov	DWORD PTR _this$[ebp], ecx

; 58   : 			return 1;

	mov	eax, 1

; 59   : 		}

	mov	esp, ebp
	pop	ebp
	ret	0
?begin@D3DTech_Back0_lod0@Ogre@@UAEIXZ ENDP		; Ogre::D3DTech_Back0_lod0::begin
; Function compile flags: /Odtp
_TEXT	ENDS
;	COMDAT ?end@D3DTech_Back0_lod0@Ogre@@UAEXXZ
_TEXT	SEGMENT
_this$ = -4						; size = 4
?end@D3DTech_Back0_lod0@Ogre@@UAEXXZ PROC		; Ogre::D3DTech_Back0_lod0::end, COMDAT
; _this$ = ecx

; 62   : 		{

	push	ebp
	mov	ebp, esp
	push	ecx
	mov	DWORD PTR _this$[ebp], ecx

; 63   : 
; 64   : 		}

	mov	esp, ebp
	pop	ebp
	ret	0
?end@D3DTech_Back0_lod0@Ogre@@UAEXXZ ENDP		; Ogre::D3DTech_Back0_lod0::end
_TEXT	ENDS
PUBLIC	?SamplerState_Wrap@Ogre@@YAXPAUIDirect3DDevice9@@H@Z ; Ogre::SamplerState_Wrap
PUBLIC	?SetBlendState@Ogre@@YAXPAUIDirect3DDevice9@@HH@Z ; Ogre::SetBlendState
EXTRN	?applyVSPS@D3DTech@Ogre@@IAEXI@Z:PROC		; Ogre::D3DTech::applyVSPS
EXTRN	?m_pDevice@D3DTech@Ogre@@2PAUIDirect3DDevice9@@A:DWORD ; Ogre::D3DTech::m_pDevice
; Function compile flags: /Odtp
;	COMDAT ?beginPass@D3DTech_Back0_lod0@Ogre@@UAEXI@Z
_TEXT	SEGMENT
_this$ = -4						; size = 4
_ipass$ = 8						; size = 4
?beginPass@D3DTech_Back0_lod0@Ogre@@UAEXI@Z PROC	; Ogre::D3DTech_Back0_lod0::beginPass, COMDAT
; _this$ = ecx

; 67   : 		{

	push	ebp
	mov	ebp, esp
	push	ecx
	mov	DWORD PTR _this$[ebp], ecx

; 68   : 			m_CurPass = ipass;

	mov	eax, DWORD PTR _this$[ebp]
	mov	ecx, DWORD PTR _ipass$[ebp]
	mov	DWORD PTR [eax+192], ecx

; 69   : 
; 70   : 			m_pDevice->SetRenderState(D3DRS_COLORWRITEENABLE, (DWORD)0);

	push	0
	push	168					; 000000a8H
	mov	edx, DWORD PTR ?m_pDevice@D3DTech@Ogre@@2PAUIDirect3DDevice9@@A ; Ogre::D3DTech::m_pDevice
	mov	eax, DWORD PTR [edx]
	mov	ecx, DWORD PTR ?m_pDevice@D3DTech@Ogre@@2PAUIDirect3DDevice9@@A ; Ogre::D3DTech::m_pDevice
	push	ecx
	mov	edx, DWORD PTR [eax+228]
	call	edx

; 71   : 
; 72   : 			m_pDevice->SetRenderState(D3DRS_ZENABLE, TRUE);

	push	1
	push	7
	mov	eax, DWORD PTR ?m_pDevice@D3DTech@Ogre@@2PAUIDirect3DDevice9@@A ; Ogre::D3DTech::m_pDevice
	mov	ecx, DWORD PTR [eax]
	mov	edx, DWORD PTR ?m_pDevice@D3DTech@Ogre@@2PAUIDirect3DDevice9@@A ; Ogre::D3DTech::m_pDevice
	push	edx
	mov	eax, DWORD PTR [ecx+228]
	call	eax

; 73   : 			m_pDevice->SetRenderState(D3DRS_ZWRITEENABLE, false);

	push	0
	push	14					; 0000000eH
	mov	ecx, DWORD PTR ?m_pDevice@D3DTech@Ogre@@2PAUIDirect3DDevice9@@A ; Ogre::D3DTech::m_pDevice
	mov	edx, DWORD PTR [ecx]
	mov	eax, DWORD PTR ?m_pDevice@D3DTech@Ogre@@2PAUIDirect3DDevice9@@A ; Ogre::D3DTech::m_pDevice
	push	eax
	mov	ecx, DWORD PTR [edx+228]
	call	ecx

; 74   : 			m_pDevice->SetRenderState(D3DRS_ZFUNC, D3DCMP_EQUAL);

	push	3
	push	23					; 00000017H
	mov	edx, DWORD PTR ?m_pDevice@D3DTech@Ogre@@2PAUIDirect3DDevice9@@A ; Ogre::D3DTech::m_pDevice
	mov	eax, DWORD PTR [edx]
	mov	ecx, DWORD PTR ?m_pDevice@D3DTech@Ogre@@2PAUIDirect3DDevice9@@A ; Ogre::D3DTech::m_pDevice
	push	ecx
	mov	edx, DWORD PTR [eax+228]
	call	edx

; 75   : 
; 76   : 			m_pDevice->SetRenderState(D3DRS_STENCILENABLE, true);

	push	1
	push	52					; 00000034H
	mov	eax, DWORD PTR ?m_pDevice@D3DTech@Ogre@@2PAUIDirect3DDevice9@@A ; Ogre::D3DTech::m_pDevice
	mov	ecx, DWORD PTR [eax]
	mov	edx, DWORD PTR ?m_pDevice@D3DTech@Ogre@@2PAUIDirect3DDevice9@@A ; Ogre::D3DTech::m_pDevice
	push	edx
	mov	eax, DWORD PTR [ecx+228]
	call	eax

; 77   : 			m_pDevice->SetRenderState(D3DRS_STENCILFUNC, D3DCMP_ALWAYS);

	push	8
	push	56					; 00000038H
	mov	ecx, DWORD PTR ?m_pDevice@D3DTech@Ogre@@2PAUIDirect3DDevice9@@A ; Ogre::D3DTech::m_pDevice
	mov	edx, DWORD PTR [ecx]
	mov	eax, DWORD PTR ?m_pDevice@D3DTech@Ogre@@2PAUIDirect3DDevice9@@A ; Ogre::D3DTech::m_pDevice
	push	eax
	mov	ecx, DWORD PTR [edx+228]
	call	ecx

; 78   : 			m_pDevice->SetRenderState(D3DRS_STENCILREF, (DWORD)1);

	push	1
	push	57					; 00000039H
	mov	edx, DWORD PTR ?m_pDevice@D3DTech@Ogre@@2PAUIDirect3DDevice9@@A ; Ogre::D3DTech::m_pDevice
	mov	eax, DWORD PTR [edx]
	mov	ecx, DWORD PTR ?m_pDevice@D3DTech@Ogre@@2PAUIDirect3DDevice9@@A ; Ogre::D3DTech::m_pDevice
	push	ecx
	mov	edx, DWORD PTR [eax+228]
	call	edx

; 79   : 			m_pDevice->SetRenderState(D3DRS_STENCILPASS, D3DSTENCILOP_REPLACE);

	push	3
	push	55					; 00000037H
	mov	eax, DWORD PTR ?m_pDevice@D3DTech@Ogre@@2PAUIDirect3DDevice9@@A ; Ogre::D3DTech::m_pDevice
	mov	ecx, DWORD PTR [eax]
	mov	edx, DWORD PTR ?m_pDevice@D3DTech@Ogre@@2PAUIDirect3DDevice9@@A ; Ogre::D3DTech::m_pDevice
	push	edx
	mov	eax, DWORD PTR [ecx+228]
	call	eax

; 80   : 			m_pDevice->SetRenderState(D3DRS_STENCILZFAIL, D3DSTENCILOP_KEEP);

	push	1
	push	54					; 00000036H
	mov	ecx, DWORD PTR ?m_pDevice@D3DTech@Ogre@@2PAUIDirect3DDevice9@@A ; Ogre::D3DTech::m_pDevice
	mov	edx, DWORD PTR [ecx]
	mov	eax, DWORD PTR ?m_pDevice@D3DTech@Ogre@@2PAUIDirect3DDevice9@@A ; Ogre::D3DTech::m_pDevice
	push	eax
	mov	ecx, DWORD PTR [edx+228]
	call	ecx

; 81   : 
; 82   : 			SetBlendState(m_pDevice, m_BlendMode);

	push	-1
	mov	edx, DWORD PTR _this$[ebp]
	movzx	eax, BYTE PTR [edx+392]
	push	eax
	mov	ecx, DWORD PTR ?m_pDevice@D3DTech@Ogre@@2PAUIDirect3DDevice9@@A ; Ogre::D3DTech::m_pDevice
	push	ecx
	call	?SetBlendState@Ogre@@YAXPAUIDirect3DDevice9@@HH@Z ; Ogre::SetBlendState
	add	esp, 12					; 0000000cH

; 83   : 
; 84   : 			m_pDevice->SetRenderState(D3DRS_CULLMODE, D3DCULL_NONE);

	push	1
	push	22					; 00000016H
	mov	edx, DWORD PTR ?m_pDevice@D3DTech@Ogre@@2PAUIDirect3DDevice9@@A ; Ogre::D3DTech::m_pDevice
	mov	eax, DWORD PTR [edx]
	mov	ecx, DWORD PTR ?m_pDevice@D3DTech@Ogre@@2PAUIDirect3DDevice9@@A ; Ogre::D3DTech::m_pDevice
	push	ecx
	mov	edx, DWORD PTR [eax+228]
	call	edx

; 85   : 
; 86   : 			SamplerState_Wrap(m_pDevice, 0);

	push	0
	mov	eax, DWORD PTR ?m_pDevice@D3DTech@Ogre@@2PAUIDirect3DDevice9@@A ; Ogre::D3DTech::m_pDevice
	push	eax
	call	?SamplerState_Wrap@Ogre@@YAXPAUIDirect3DDevice9@@H@Z ; Ogre::SamplerState_Wrap
	add	esp, 8

; 87   : 
; 88   : 			applyVSPS(m_CurPass);

	mov	ecx, DWORD PTR _this$[ebp]
	mov	edx, DWORD PTR [ecx+192]
	push	edx
	mov	ecx, DWORD PTR _this$[ebp]
	call	?applyVSPS@D3DTech@Ogre@@IAEXI@Z	; Ogre::D3DTech::applyVSPS

; 89   : 		}

	mov	esp, ebp
	pop	ebp
	ret	4
?beginPass@D3DTech_Back0_lod0@Ogre@@UAEXI@Z ENDP	; Ogre::D3DTech_Back0_lod0::beginPass
; Function compile flags: /Odtp
; File i:\svnroot\client\plugins\rendersystem_d3d9\ogred3d9technique.h
_TEXT	ENDS
;	COMDAT ?SamplerState_Wrap@Ogre@@YAXPAUIDirect3DDevice9@@H@Z
_TEXT	SEGMENT
_pdevice$ = 8						; size = 4
_stage$ = 12						; size = 4
?SamplerState_Wrap@Ogre@@YAXPAUIDirect3DDevice9@@H@Z PROC ; Ogre::SamplerState_Wrap, COMDAT

; 89   : 	{

	push	ebp
	mov	ebp, esp

; 90   : 		pdevice->SetSamplerState(stage, D3DSAMP_ADDRESSU, D3DTADDRESS_WRAP);

	push	1
	push	1
	mov	eax, DWORD PTR _stage$[ebp]
	push	eax
	mov	ecx, DWORD PTR _pdevice$[ebp]
	mov	edx, DWORD PTR [ecx]
	mov	eax, DWORD PTR _pdevice$[ebp]
	push	eax
	mov	ecx, DWORD PTR [edx+276]
	call	ecx

; 91   : 		pdevice->SetSamplerState(stage, D3DSAMP_ADDRESSV, D3DTADDRESS_WRAP);

	push	1
	push	2
	mov	edx, DWORD PTR _stage$[ebp]
	push	edx
	mov	eax, DWORD PTR _pdevice$[ebp]
	mov	ecx, DWORD PTR [eax]
	mov	edx, DWORD PTR _pdevice$[ebp]
	push	edx
	mov	eax, DWORD PTR [ecx+276]
	call	eax

; 92   : 		pdevice->SetSamplerState(stage, D3DSAMP_MIPFILTER, D3DTEXF_POINT);

	push	1
	push	7
	mov	ecx, DWORD PTR _stage$[ebp]
	push	ecx
	mov	edx, DWORD PTR _pdevice$[ebp]
	mov	eax, DWORD PTR [edx]
	mov	ecx, DWORD PTR _pdevice$[ebp]
	push	ecx
	mov	edx, DWORD PTR [eax+276]
	call	edx

; 93   : 		pdevice->SetSamplerState(stage, D3DSAMP_MINFILTER, D3DTEXF_LINEAR);

	push	2
	push	6
	mov	eax, DWORD PTR _stage$[ebp]
	push	eax
	mov	ecx, DWORD PTR _pdevice$[ebp]
	mov	edx, DWORD PTR [ecx]
	mov	eax, DWORD PTR _pdevice$[ebp]
	push	eax
	mov	ecx, DWORD PTR [edx+276]
	call	ecx

; 94   : 		pdevice->SetSamplerState(stage, D3DSAMP_MAGFILTER, D3DTEXF_LINEAR);

	push	2
	push	5
	mov	edx, DWORD PTR _stage$[ebp]
	push	edx
	mov	eax, DWORD PTR _pdevice$[ebp]
	mov	ecx, DWORD PTR [eax]
	mov	edx, DWORD PTR _pdevice$[ebp]
	push	edx
	mov	eax, DWORD PTR [ecx+276]
	call	eax

; 95   : 	}

	pop	ebp
	ret	0
?SamplerState_Wrap@Ogre@@YAXPAUIDirect3DDevice9@@H@Z ENDP ; Ogre::SamplerState_Wrap
; Function compile flags: /Odtp
_TEXT	ENDS
;	COMDAT ?SetBlendState@Ogre@@YAXPAUIDirect3DDevice9@@HH@Z
_TEXT	SEGMENT
tv91 = -4						; size = 4
_pdevice$ = 8						; size = 4
_blendmode$ = 12					; size = 4
_alpharef$ = 16						; size = 4
?SetBlendState@Ogre@@YAXPAUIDirect3DDevice9@@HH@Z PROC	; Ogre::SetBlendState, COMDAT

; 129  : 	{

	push	ebp
	mov	ebp, esp
	push	ecx

; 130  : 		if(blendmode == BLEND_OPAQUE)

	cmp	DWORD PTR _blendmode$[ebp], 0
	jne	SHORT $LN14@SetBlendSt

; 131  : 		{
; 132  : 			pdevice->SetRenderState(D3DRS_ALPHABLENDENABLE, FALSE);

	push	0
	push	27					; 0000001bH
	mov	eax, DWORD PTR _pdevice$[ebp]
	mov	ecx, DWORD PTR [eax]
	mov	edx, DWORD PTR _pdevice$[ebp]
	push	edx
	mov	eax, DWORD PTR [ecx+228]
	call	eax

; 133  : 			pdevice->SetRenderState(D3DRS_ALPHATESTENABLE, FALSE);

	push	0
	push	15					; 0000000fH
	mov	ecx, DWORD PTR _pdevice$[ebp]
	mov	edx, DWORD PTR [ecx]
	mov	eax, DWORD PTR _pdevice$[ebp]
	push	eax
	mov	ecx, DWORD PTR [edx+228]
	call	ecx
	jmp	$LN15@SetBlendSt
$LN14@SetBlendSt:

; 134  : 		}
; 135  : 		else if(blendmode == BLEND_ALPHATEST)

	cmp	DWORD PTR _blendmode$[ebp], 1
	jne	SHORT $LN12@SetBlendSt

; 136  : 		{
; 137  : 			pdevice->SetRenderState(D3DRS_ALPHABLENDENABLE, FALSE);

	push	0
	push	27					; 0000001bH
	mov	edx, DWORD PTR _pdevice$[ebp]
	mov	eax, DWORD PTR [edx]
	mov	ecx, DWORD PTR _pdevice$[ebp]
	push	ecx
	mov	edx, DWORD PTR [eax+228]
	call	edx

; 138  : 			pdevice->SetRenderState(D3DRS_ALPHATESTENABLE, TRUE);

	push	1
	push	15					; 0000000fH
	mov	eax, DWORD PTR _pdevice$[ebp]
	mov	ecx, DWORD PTR [eax]
	mov	edx, DWORD PTR _pdevice$[ebp]
	push	edx
	mov	eax, DWORD PTR [ecx+228]
	call	eax

; 139  : 			pdevice->SetRenderState(D3DRS_ALPHAREF, alpharef<0?85:alpharef);

	cmp	DWORD PTR _alpharef$[ebp], 0
	jge	SHORT $LN17@SetBlendSt
	mov	DWORD PTR tv91[ebp], 85			; 00000055H
	jmp	SHORT $LN18@SetBlendSt
$LN17@SetBlendSt:
	mov	ecx, DWORD PTR _alpharef$[ebp]
	mov	DWORD PTR tv91[ebp], ecx
$LN18@SetBlendSt:
	mov	edx, DWORD PTR tv91[ebp]
	push	edx
	push	24					; 00000018H
	mov	eax, DWORD PTR _pdevice$[ebp]
	mov	ecx, DWORD PTR [eax]
	mov	edx, DWORD PTR _pdevice$[ebp]
	push	edx
	mov	eax, DWORD PTR [ecx+228]
	call	eax

; 140  : 			pdevice->SetRenderState(D3DRS_ALPHAFUNC, D3DCMP_GREATER);

	push	5
	push	25					; 00000019H
	mov	ecx, DWORD PTR _pdevice$[ebp]
	mov	edx, DWORD PTR [ecx]
	mov	eax, DWORD PTR _pdevice$[ebp]
	push	eax
	mov	ecx, DWORD PTR [edx+228]
	call	ecx
	jmp	$LN15@SetBlendSt
$LN12@SetBlendSt:

; 141  : 		}
; 142  : 		else if(blendmode == BLEND_ALPHABLEND)

	cmp	DWORD PTR _blendmode$[ebp], 2
	jne	$LN10@SetBlendSt

; 143  : 		{
; 144  : 			pdevice->SetRenderState(D3DRS_ALPHABLENDENABLE, TRUE);

	push	1
	push	27					; 0000001bH
	mov	edx, DWORD PTR _pdevice$[ebp]
	mov	eax, DWORD PTR [edx]
	mov	ecx, DWORD PTR _pdevice$[ebp]
	push	ecx
	mov	edx, DWORD PTR [eax+228]
	call	edx

; 145  : 			pdevice->SetRenderState(D3DRS_ALPHATESTENABLE, TRUE);

	push	1
	push	15					; 0000000fH
	mov	eax, DWORD PTR _pdevice$[ebp]
	mov	ecx, DWORD PTR [eax]
	mov	edx, DWORD PTR _pdevice$[ebp]
	push	edx
	mov	eax, DWORD PTR [ecx+228]
	call	eax

; 146  : 			pdevice->SetRenderState(D3DRS_ALPHAREF, alpharef<0?0:alpharef);

	xor	ecx, ecx
	cmp	DWORD PTR _alpharef$[ebp], 0
	setl	cl
	sub	ecx, 1
	and	ecx, DWORD PTR _alpharef$[ebp]
	push	ecx
	push	24					; 00000018H
	mov	edx, DWORD PTR _pdevice$[ebp]
	mov	eax, DWORD PTR [edx]
	mov	ecx, DWORD PTR _pdevice$[ebp]
	push	ecx
	mov	edx, DWORD PTR [eax+228]
	call	edx

; 147  : 			pdevice->SetRenderState(D3DRS_ALPHAFUNC, D3DCMP_GREATER);

	push	5
	push	25					; 00000019H
	mov	eax, DWORD PTR _pdevice$[ebp]
	mov	ecx, DWORD PTR [eax]
	mov	edx, DWORD PTR _pdevice$[ebp]
	push	edx
	mov	eax, DWORD PTR [ecx+228]
	call	eax

; 148  : 			pdevice->SetRenderState(D3DRS_SRCBLEND, D3DBLEND_SRCALPHA);

	push	5
	push	19					; 00000013H
	mov	ecx, DWORD PTR _pdevice$[ebp]
	mov	edx, DWORD PTR [ecx]
	mov	eax, DWORD PTR _pdevice$[ebp]
	push	eax
	mov	ecx, DWORD PTR [edx+228]
	call	ecx

; 149  : 			pdevice->SetRenderState(D3DRS_DESTBLEND, D3DBLEND_INVSRCALPHA);

	push	6
	push	20					; 00000014H
	mov	edx, DWORD PTR _pdevice$[ebp]
	mov	eax, DWORD PTR [edx]
	mov	ecx, DWORD PTR _pdevice$[ebp]
	push	ecx
	mov	edx, DWORD PTR [eax+228]
	call	edx
	jmp	$LN15@SetBlendSt
$LN10@SetBlendSt:

; 150  : 		}
; 151  : 		else if(blendmode == BLEND_ADDBLEND)

	cmp	DWORD PTR _blendmode$[ebp], 3
	jne	SHORT $LN8@SetBlendSt

; 152  : 		{
; 153  : 			pdevice->SetRenderState(D3DRS_ALPHABLENDENABLE, TRUE);

	push	1
	push	27					; 0000001bH
	mov	eax, DWORD PTR _pdevice$[ebp]
	mov	ecx, DWORD PTR [eax]
	mov	edx, DWORD PTR _pdevice$[ebp]
	push	edx
	mov	eax, DWORD PTR [ecx+228]
	call	eax

; 154  : 			pdevice->SetRenderState(D3DRS_ALPHATESTENABLE, FALSE);

	push	0
	push	15					; 0000000fH
	mov	ecx, DWORD PTR _pdevice$[ebp]
	mov	edx, DWORD PTR [ecx]
	mov	eax, DWORD PTR _pdevice$[ebp]
	push	eax
	mov	ecx, DWORD PTR [edx+228]
	call	ecx

; 155  : 			pdevice->SetRenderState(D3DRS_SRCBLEND, D3DBLEND_ONE);

	push	2
	push	19					; 00000013H
	mov	edx, DWORD PTR _pdevice$[ebp]
	mov	eax, DWORD PTR [edx]
	mov	ecx, DWORD PTR _pdevice$[ebp]
	push	ecx
	mov	edx, DWORD PTR [eax+228]
	call	edx

; 156  : 			pdevice->SetRenderState(D3DRS_DESTBLEND, D3DBLEND_INVSRCALPHA);

	push	6
	push	20					; 00000014H
	mov	eax, DWORD PTR _pdevice$[ebp]
	mov	ecx, DWORD PTR [eax]
	mov	edx, DWORD PTR _pdevice$[ebp]
	push	edx
	mov	eax, DWORD PTR [ecx+228]
	call	eax
	jmp	$LN15@SetBlendSt
$LN8@SetBlendSt:

; 157  : 		}
; 158  : 		else if(blendmode == BLEND_ADD)

	cmp	DWORD PTR _blendmode$[ebp], 4
	jne	SHORT $LN6@SetBlendSt

; 159  : 		{
; 160  : 			pdevice->SetRenderState(D3DRS_ALPHABLENDENABLE, TRUE);

	push	1
	push	27					; 0000001bH
	mov	ecx, DWORD PTR _pdevice$[ebp]
	mov	edx, DWORD PTR [ecx]
	mov	eax, DWORD PTR _pdevice$[ebp]
	push	eax
	mov	ecx, DWORD PTR [edx+228]
	call	ecx

; 161  : 			pdevice->SetRenderState(D3DRS_ALPHATESTENABLE, FALSE);

	push	0
	push	15					; 0000000fH
	mov	edx, DWORD PTR _pdevice$[ebp]
	mov	eax, DWORD PTR [edx]
	mov	ecx, DWORD PTR _pdevice$[ebp]
	push	ecx
	mov	edx, DWORD PTR [eax+228]
	call	edx

; 162  : 			pdevice->SetRenderState(D3DRS_SRCBLEND, D3DBLEND_ONE);

	push	2
	push	19					; 00000013H
	mov	eax, DWORD PTR _pdevice$[ebp]
	mov	ecx, DWORD PTR [eax]
	mov	edx, DWORD PTR _pdevice$[ebp]
	push	edx
	mov	eax, DWORD PTR [ecx+228]
	call	eax

; 163  : 			pdevice->SetRenderState(D3DRS_DESTBLEND, D3DBLEND_ONE);

	push	2
	push	20					; 00000014H
	mov	ecx, DWORD PTR _pdevice$[ebp]
	mov	edx, DWORD PTR [ecx]
	mov	eax, DWORD PTR _pdevice$[ebp]
	push	eax
	mov	ecx, DWORD PTR [edx+228]
	call	ecx
	jmp	$LN15@SetBlendSt
$LN6@SetBlendSt:

; 164  : 		}
; 165  : 		else if(blendmode == BLEND_MODULATE)

	cmp	DWORD PTR _blendmode$[ebp], 5
	jne	SHORT $LN4@SetBlendSt

; 166  : 		{
; 167  : 			pdevice->SetRenderState(D3DRS_ALPHABLENDENABLE, TRUE);

	push	1
	push	27					; 0000001bH
	mov	edx, DWORD PTR _pdevice$[ebp]
	mov	eax, DWORD PTR [edx]
	mov	ecx, DWORD PTR _pdevice$[ebp]
	push	ecx
	mov	edx, DWORD PTR [eax+228]
	call	edx

; 168  : 			pdevice->SetRenderState(D3DRS_ALPHATESTENABLE, FALSE);

	push	0
	push	15					; 0000000fH
	mov	eax, DWORD PTR _pdevice$[ebp]
	mov	ecx, DWORD PTR [eax]
	mov	edx, DWORD PTR _pdevice$[ebp]
	push	edx
	mov	eax, DWORD PTR [ecx+228]
	call	eax

; 169  : 			pdevice->SetRenderState(D3DRS_SRCBLEND, D3DBLEND_ZERO);

	push	1
	push	19					; 00000013H
	mov	ecx, DWORD PTR _pdevice$[ebp]
	mov	edx, DWORD PTR [ecx]
	mov	eax, DWORD PTR _pdevice$[ebp]
	push	eax
	mov	ecx, DWORD PTR [edx+228]
	call	ecx

; 170  : 			pdevice->SetRenderState(D3DRS_DESTBLEND, D3DBLEND_SRCCOLOR);

	push	3
	push	20					; 00000014H
	mov	edx, DWORD PTR _pdevice$[ebp]
	mov	eax, DWORD PTR [edx]
	mov	ecx, DWORD PTR _pdevice$[ebp]
	push	ecx
	mov	edx, DWORD PTR [eax+228]
	call	edx
	jmp	SHORT $LN15@SetBlendSt
$LN4@SetBlendSt:

; 171  : 		}
; 172  : 		else if(blendmode == BLEND_MODULATE2X)

	cmp	DWORD PTR _blendmode$[ebp], 6
	jne	SHORT $LN15@SetBlendSt

; 173  : 		{
; 174  : 			pdevice->SetRenderState(D3DRS_ALPHABLENDENABLE, TRUE);

	push	1
	push	27					; 0000001bH
	mov	eax, DWORD PTR _pdevice$[ebp]
	mov	ecx, DWORD PTR [eax]
	mov	edx, DWORD PTR _pdevice$[ebp]
	push	edx
	mov	eax, DWORD PTR [ecx+228]
	call	eax

; 175  : 			pdevice->SetRenderState(D3DRS_ALPHATESTENABLE, FALSE);

	push	0
	push	15					; 0000000fH
	mov	ecx, DWORD PTR _pdevice$[ebp]
	mov	edx, DWORD PTR [ecx]
	mov	eax, DWORD PTR _pdevice$[ebp]
	push	eax
	mov	ecx, DWORD PTR [edx+228]
	call	ecx

; 176  : 			pdevice->SetRenderState(D3DRS_SRCBLEND, D3DBLEND_DESTCOLOR);

	push	9
	push	19					; 00000013H
	mov	edx, DWORD PTR _pdevice$[ebp]
	mov	eax, DWORD PTR [edx]
	mov	ecx, DWORD PTR _pdevice$[ebp]
	push	ecx
	mov	edx, DWORD PTR [eax+228]
	call	edx

; 177  : 			pdevice->SetRenderState(D3DRS_DESTBLEND, D3DBLEND_SRCCOLOR);

	push	3
	push	20					; 00000014H
	mov	eax, DWORD PTR _pdevice$[ebp]
	mov	ecx, DWORD PTR [eax]
	mov	edx, DWORD PTR _pdevice$[ebp]
	push	edx
	mov	eax, DWORD PTR [ecx+228]
	call	eax
$LN15@SetBlendSt:

; 178  : 		}
; 179  : 		else
; 180  : 		{
; 181  : 			assert(0);
; 182  : 		}
; 183  : 	}

	mov	esp, ebp
	pop	ebp
	ret	0
?SetBlendState@Ogre@@YAXPAUIDirect3DDevice9@@HH@Z ENDP	; Ogre::SetBlendState
; Function compile flags: /Odtp
; File i:\svnroot\client\plugins\rendersystem_d3d9\ogred3d9tech_back.h
_TEXT	ENDS
;	COMDAT ?endPass@D3DTech_Back0_lod0@Ogre@@UAEXXZ
_TEXT	SEGMENT
_this$ = -4						; size = 4
?endPass@D3DTech_Back0_lod0@Ogre@@UAEXXZ PROC		; Ogre::D3DTech_Back0_lod0::endPass, COMDAT
; _this$ = ecx

; 92   : 		{

	push	ebp
	mov	ebp, esp
	push	ecx
	mov	DWORD PTR _this$[ebp], ecx

; 93   : 			m_pDevice->SetRenderState(D3DRS_COLORWRITEENABLE, 0xf);

	push	15					; 0000000fH
	push	168					; 000000a8H
	mov	eax, DWORD PTR ?m_pDevice@D3DTech@Ogre@@2PAUIDirect3DDevice9@@A ; Ogre::D3DTech::m_pDevice
	mov	ecx, DWORD PTR [eax]
	mov	edx, DWORD PTR ?m_pDevice@D3DTech@Ogre@@2PAUIDirect3DDevice9@@A ; Ogre::D3DTech::m_pDevice
	push	edx
	mov	eax, DWORD PTR [ecx+228]
	call	eax

; 94   : 			m_pDevice->SetRenderState(D3DRS_STENCILENABLE, false);

	push	0
	push	52					; 00000034H
	mov	ecx, DWORD PTR ?m_pDevice@D3DTech@Ogre@@2PAUIDirect3DDevice9@@A ; Ogre::D3DTech::m_pDevice
	mov	edx, DWORD PTR [ecx]
	mov	eax, DWORD PTR ?m_pDevice@D3DTech@Ogre@@2PAUIDirect3DDevice9@@A ; Ogre::D3DTech::m_pDevice
	push	eax
	mov	ecx, DWORD PTR [edx+228]
	call	ecx

; 95   : 			m_pDevice->SetRenderState(D3DRS_ZENABLE, true);

	push	1
	push	7
	mov	edx, DWORD PTR ?m_pDevice@D3DTech@Ogre@@2PAUIDirect3DDevice9@@A ; Ogre::D3DTech::m_pDevice
	mov	eax, DWORD PTR [edx]
	mov	ecx, DWORD PTR ?m_pDevice@D3DTech@Ogre@@2PAUIDirect3DDevice9@@A ; Ogre::D3DTech::m_pDevice
	push	ecx
	mov	edx, DWORD PTR [eax+228]
	call	edx

; 96   : 			m_pDevice->SetRenderState(D3DRS_ZWRITEENABLE, true);

	push	1
	push	14					; 0000000eH
	mov	eax, DWORD PTR ?m_pDevice@D3DTech@Ogre@@2PAUIDirect3DDevice9@@A ; Ogre::D3DTech::m_pDevice
	mov	ecx, DWORD PTR [eax]
	mov	edx, DWORD PTR ?m_pDevice@D3DTech@Ogre@@2PAUIDirect3DDevice9@@A ; Ogre::D3DTech::m_pDevice
	push	edx
	mov	eax, DWORD PTR [ecx+228]
	call	eax

; 97   : 			m_pDevice->SetRenderState(D3DRS_ZFUNC, D3DCMP_LESSEQUAL);

	push	4
	push	23					; 00000017H
	mov	ecx, DWORD PTR ?m_pDevice@D3DTech@Ogre@@2PAUIDirect3DDevice9@@A ; Ogre::D3DTech::m_pDevice
	mov	edx, DWORD PTR [ecx]
	mov	eax, DWORD PTR ?m_pDevice@D3DTech@Ogre@@2PAUIDirect3DDevice9@@A ; Ogre::D3DTech::m_pDevice
	push	eax
	mov	ecx, DWORD PTR [edx+228]
	call	ecx

; 98   : 
; 99   : 		}

	mov	esp, ebp
	pop	ebp
	ret	0
?endPass@D3DTech_Back0_lod0@Ogre@@UAEXXZ ENDP		; Ogre::D3DTech_Back0_lod0::endPass
_TEXT	ENDS
PUBLIC	??1D3DTech_Back0_lod0@Ogre@@UAE@XZ		; Ogre::D3DTech_Back0_lod0::~D3DTech_Back0_lod0
; Function compile flags: /Odtp
;	COMDAT ??_GD3DTech_Back0_lod0@Ogre@@UAEPAXI@Z
_TEXT	SEGMENT
_this$ = -4						; size = 4
___flags$ = 8						; size = 4
??_GD3DTech_Back0_lod0@Ogre@@UAEPAXI@Z PROC		; Ogre::D3DTech_Back0_lod0::`scalar deleting destructor', COMDAT
; _this$ = ecx
	push	ebp
	mov	ebp, esp
	push	ecx
	mov	DWORD PTR _this$[ebp], ecx
	mov	ecx, DWORD PTR _this$[ebp]
	call	??1D3DTech_Back0_lod0@Ogre@@UAE@XZ
	mov	eax, DWORD PTR ___flags$[ebp]
	and	eax, 1
	je	SHORT $LN1@scalar
	mov	ecx, DWORD PTR _this$[ebp]
	push	ecx
	call	??3@YAXPAX@Z				; operator delete
	add	esp, 4
$LN1@scalar:
	mov	eax, DWORD PTR _this$[ebp]
	mov	esp, ebp
	pop	ebp
	ret	4
??_GD3DTech_Back0_lod0@Ogre@@UAEPAXI@Z ENDP		; Ogre::D3DTech_Back0_lod0::`scalar deleting destructor'
_TEXT	ENDS
PUBLIC	??1ShaderTechnique@Ogre@@MAE@XZ			; Ogre::ShaderTechnique::~ShaderTechnique
;	COMDAT xdata$x
xdata$x	SEGMENT
__unwindtable$??1D3DTech@Ogre@@UAE@XZ DD 0ffffffffH
	DD	FLAT:__unwindfunclet$??1D3DTech@Ogre@@UAE@XZ$0
__ehfuncinfo$??1D3DTech@Ogre@@UAE@XZ DD 019930522H
	DD	01H
	DD	FLAT:__unwindtable$??1D3DTech@Ogre@@UAE@XZ
	DD	2 DUP(00H)
	DD	2 DUP(00H)
	DD	00H
	DD	00H
; Function compile flags: /Odtp
xdata$x	ENDS
;	COMDAT ??1D3DTech@Ogre@@UAE@XZ
_TEXT	SEGMENT
_this$ = -16						; size = 4
__$EHRec$ = -12						; size = 12
??1D3DTech@Ogre@@UAE@XZ PROC				; Ogre::D3DTech::~D3DTech, COMDAT
; _this$ = ecx
	push	ebp
	mov	ebp, esp
	push	-1
	push	__ehhandler$??1D3DTech@Ogre@@UAE@XZ
	mov	eax, DWORD PTR fs:0
	push	eax
	push	ecx
	mov	eax, DWORD PTR ___security_cookie
	xor	eax, ebp
	push	eax
	lea	eax, DWORD PTR __$EHRec$[ebp]
	mov	DWORD PTR fs:0, eax
	mov	DWORD PTR _this$[ebp], ecx
	mov	DWORD PTR __$EHRec$[ebp+8], 0
	mov	DWORD PTR __$EHRec$[ebp+8], -1
	mov	ecx, DWORD PTR _this$[ebp]
	call	??1ShaderTechnique@Ogre@@MAE@XZ		; Ogre::ShaderTechnique::~ShaderTechnique
	mov	ecx, DWORD PTR __$EHRec$[ebp]
	mov	DWORD PTR fs:0, ecx
	pop	ecx
	mov	esp, ebp
	pop	ebp
	ret	0
_TEXT	ENDS
;	COMDAT text$x
text$x	SEGMENT
__unwindfunclet$??1D3DTech@Ogre@@UAE@XZ$0:
	mov	ecx, DWORD PTR _this$[ebp]
	jmp	??1ShaderTechnique@Ogre@@MAE@XZ		; Ogre::ShaderTechnique::~ShaderTechnique
__ehhandler$??1D3DTech@Ogre@@UAE@XZ:
	mov	edx, DWORD PTR [esp+8]
	lea	eax, DWORD PTR [edx+12]
	mov	ecx, DWORD PTR [edx-8]
	xor	ecx, eax
	call	@__security_check_cookie@4
	mov	eax, OFFSET __ehfuncinfo$??1D3DTech@Ogre@@UAE@XZ
	jmp	___CxxFrameHandler3
text$x	ENDS
??1D3DTech@Ogre@@UAE@XZ ENDP				; Ogre::D3DTech::~D3DTech
PUBLIC	??_7ShaderTechnique@Ogre@@6B@			; Ogre::ShaderTechnique::`vftable'
PUBLIC	??_R4ShaderTechnique@Ogre@@6B@			; Ogre::ShaderTechnique::`RTTI Complete Object Locator'
EXTRN	__purecall:PROC
EXTRN	??_EShaderTechnique@Ogre@@MAEPAXI@Z:PROC	; Ogre::ShaderTechnique::`vector deleting destructor'
;	COMDAT ??_R4ShaderTechnique@Ogre@@6B@
; File i:\svnroot\client\ogremain\ogreshader.h
rdata$r	SEGMENT
??_R4ShaderTechnique@Ogre@@6B@ DD 00H			; Ogre::ShaderTechnique::`RTTI Complete Object Locator'
	DD	00H
	DD	00H
	DD	FLAT:??_R0?AVShaderTechnique@Ogre@@@8
	DD	FLAT:??_R3ShaderTechnique@Ogre@@8
rdata$r	ENDS
;	COMDAT ??_7ShaderTechnique@Ogre@@6B@
CONST	SEGMENT
??_7ShaderTechnique@Ogre@@6B@ DD FLAT:??_R4ShaderTechnique@Ogre@@6B@ ; Ogre::ShaderTechnique::`vftable'
	DD	FLAT:__purecall
	DD	FLAT:__purecall
	DD	FLAT:__purecall
	DD	FLAT:__purecall
	DD	FLAT:__purecall
	DD	FLAT:__purecall
	DD	FLAT:__purecall
	DD	FLAT:__purecall
	DD	FLAT:__purecall
	DD	FLAT:__purecall
	DD	FLAT:__purecall
	DD	FLAT:__purecall
	DD	FLAT:__purecall
	DD	FLAT:__purecall
	DD	FLAT:__purecall
	DD	FLAT:??_EShaderTechnique@Ogre@@MAEPAXI@Z
; Function compile flags: /Odtp
CONST	ENDS
;	COMDAT ??1ShaderTechnique@Ogre@@MAE@XZ
_TEXT	SEGMENT
_this$ = -4						; size = 4
??1ShaderTechnique@Ogre@@MAE@XZ PROC			; Ogre::ShaderTechnique::~ShaderTechnique, COMDAT
; _this$ = ecx

; 195  : 		virtual ~ShaderTechnique(){}

	push	ebp
	mov	ebp, esp
	push	ecx
	mov	DWORD PTR _this$[ebp], ecx
	mov	eax, DWORD PTR _this$[ebp]
	mov	DWORD PTR [eax], OFFSET ??_7ShaderTechnique@Ogre@@6B@
	mov	esp, ebp
	pop	ebp
	ret	0
??1ShaderTechnique@Ogre@@MAE@XZ ENDP			; Ogre::ShaderTechnique::~ShaderTechnique
; Function compile flags: /Odtp
_TEXT	ENDS
;	COMDAT ??_GShaderTechnique@Ogre@@MAEPAXI@Z
_TEXT	SEGMENT
_this$ = -4						; size = 4
___flags$ = 8						; size = 4
??_GShaderTechnique@Ogre@@MAEPAXI@Z PROC		; Ogre::ShaderTechnique::`scalar deleting destructor', COMDAT
; _this$ = ecx
	push	ebp
	mov	ebp, esp
	push	ecx
	mov	DWORD PTR _this$[ebp], ecx
	mov	ecx, DWORD PTR _this$[ebp]
	call	??1ShaderTechnique@Ogre@@MAE@XZ		; Ogre::ShaderTechnique::~ShaderTechnique
	mov	eax, DWORD PTR ___flags$[ebp]
	and	eax, 1
	je	SHORT $LN1@scalar@2
	mov	ecx, DWORD PTR _this$[ebp]
	push	ecx
	call	??3@YAXPAX@Z				; operator delete
	add	esp, 4
$LN1@scalar@2:
	mov	eax, DWORD PTR _this$[ebp]
	mov	esp, ebp
	pop	ebp
	ret	4
??_GShaderTechnique@Ogre@@MAEPAXI@Z ENDP		; Ogre::ShaderTechnique::`scalar deleting destructor'
_TEXT	ENDS
;	COMDAT xdata$x
xdata$x	SEGMENT
__unwindtable$??1D3DTech_Back0_lod0@Ogre@@UAE@XZ DD 0ffffffffH
	DD	FLAT:__unwindfunclet$??1D3DTech_Back0_lod0@Ogre@@UAE@XZ$0
__ehfuncinfo$??1D3DTech_Back0_lod0@Ogre@@UAE@XZ DD 019930522H
	DD	01H
	DD	FLAT:__unwindtable$??1D3DTech_Back0_lod0@Ogre@@UAE@XZ
	DD	2 DUP(00H)
	DD	2 DUP(00H)
	DD	00H
	DD	00H
; Function compile flags: /Odtp
xdata$x	ENDS
;	COMDAT ??1D3DTech_Back0_lod0@Ogre@@UAE@XZ
_TEXT	SEGMENT
_this$ = -16						; size = 4
__$EHRec$ = -12						; size = 12
??1D3DTech_Back0_lod0@Ogre@@UAE@XZ PROC			; Ogre::D3DTech_Back0_lod0::~D3DTech_Back0_lod0, COMDAT
; _this$ = ecx
	push	ebp
	mov	ebp, esp
	push	-1
	push	__ehhandler$??1D3DTech_Back0_lod0@Ogre@@UAE@XZ
	mov	eax, DWORD PTR fs:0
	push	eax
	push	ecx
	mov	eax, DWORD PTR ___security_cookie
	xor	eax, ebp
	push	eax
	lea	eax, DWORD PTR __$EHRec$[ebp]
	mov	DWORD PTR fs:0, eax
	mov	DWORD PTR _this$[ebp], ecx
	mov	DWORD PTR __$EHRec$[ebp+8], 0
	mov	DWORD PTR __$EHRec$[ebp+8], -1
	mov	ecx, DWORD PTR _this$[ebp]
	call	??1D3DTech@Ogre@@UAE@XZ
	mov	ecx, DWORD PTR __$EHRec$[ebp]
	mov	DWORD PTR fs:0, ecx
	pop	ecx
	mov	esp, ebp
	pop	ebp
	ret	0
_TEXT	ENDS
;	COMDAT text$x
text$x	SEGMENT
__unwindfunclet$??1D3DTech_Back0_lod0@Ogre@@UAE@XZ$0:
	mov	ecx, DWORD PTR _this$[ebp]
	jmp	??1D3DTech@Ogre@@UAE@XZ
__ehhandler$??1D3DTech_Back0_lod0@Ogre@@UAE@XZ:
	mov	edx, DWORD PTR [esp+8]
	lea	eax, DWORD PTR [edx+12]
	mov	ecx, DWORD PTR [edx-8]
	xor	ecx, eax
	call	@__security_check_cookie@4
	mov	eax, OFFSET __ehfuncinfo$??1D3DTech_Back0_lod0@Ogre@@UAE@XZ
	jmp	___CxxFrameHandler3
text$x	ENDS
??1D3DTech_Back0_lod0@Ogre@@UAE@XZ ENDP			; Ogre::D3DTech_Back0_lod0::~D3DTech_Back0_lod0
PUBLIC	??_7D3DTech_Back1_lod0@Ogre@@6B@		; Ogre::D3DTech_Back1_lod0::`vftable'
PUBLIC	??_R4D3DTech_Back1_lod0@Ogre@@6B@		; Ogre::D3DTech_Back1_lod0::`RTTI Complete Object Locator'
PUBLIC	??_R0?AVD3DTech_Back1_lod0@Ogre@@@8		; Ogre::D3DTech_Back1_lod0 `RTTI Type Descriptor'
PUBLIC	??_R3D3DTech_Back1_lod0@Ogre@@8			; Ogre::D3DTech_Back1_lod0::`RTTI Class Hierarchy Descriptor'
PUBLIC	??_R2D3DTech_Back1_lod0@Ogre@@8			; Ogre::D3DTech_Back1_lod0::`RTTI Base Class Array'
PUBLIC	??_R1A@?0A@EA@D3DTech_Back1_lod0@Ogre@@8	; Ogre::D3DTech_Back1_lod0::`RTTI Base Class Descriptor at (0,-1,0,64)'
PUBLIC	?begin@D3DTech_Back1_lod0@Ogre@@UAEIXZ		; Ogre::D3DTech_Back1_lod0::begin
PUBLIC	?end@D3DTech_Back1_lod0@Ogre@@UAEXXZ		; Ogre::D3DTech_Back1_lod0::end
PUBLIC	?beginPass@D3DTech_Back1_lod0@Ogre@@UAEXI@Z	; Ogre::D3DTech_Back1_lod0::beginPass
PUBLIC	?endPass@D3DTech_Back1_lod0@Ogre@@UAEXXZ	; Ogre::D3DTech_Back1_lod0::endPass
PUBLIC	?clone@D3DTech_Back1_lod0@Ogre@@UAEPAVD3DTech@2@XZ ; Ogre::D3DTech_Back1_lod0::clone
PUBLIC	?init@D3DTech_Back1_lod0@Ogre@@UAEXABUShaderEnvFlags@2@ABUMaterialMacro@2@@Z ; Ogre::D3DTech_Back1_lod0::init
EXTRN	??_ED3DTech_Back1_lod0@Ogre@@UAEPAXI@Z:PROC	; Ogre::D3DTech_Back1_lod0::`vector deleting destructor'
;	COMDAT ??_R1A@?0A@EA@D3DTech_Back1_lod0@Ogre@@8
rdata$r	SEGMENT
??_R1A@?0A@EA@D3DTech_Back1_lod0@Ogre@@8 DD FLAT:??_R0?AVD3DTech_Back1_lod0@Ogre@@@8 ; Ogre::D3DTech_Back1_lod0::`RTTI Base Class Descriptor at (0,-1,0,64)'
	DD	02H
	DD	00H
	DD	0ffffffffH
	DD	00H
	DD	040H
	DD	FLAT:??_R3D3DTech_Back1_lod0@Ogre@@8
rdata$r	ENDS
;	COMDAT ??_R2D3DTech_Back1_lod0@Ogre@@8
rdata$r	SEGMENT
??_R2D3DTech_Back1_lod0@Ogre@@8 DD FLAT:??_R1A@?0A@EA@D3DTech_Back1_lod0@Ogre@@8 ; Ogre::D3DTech_Back1_lod0::`RTTI Base Class Array'
	DD	FLAT:??_R1A@?0A@EA@D3DTech@Ogre@@8
	DD	FLAT:??_R1A@?0A@EA@ShaderTechnique@Ogre@@8
rdata$r	ENDS
;	COMDAT ??_R3D3DTech_Back1_lod0@Ogre@@8
rdata$r	SEGMENT
??_R3D3DTech_Back1_lod0@Ogre@@8 DD 00H			; Ogre::D3DTech_Back1_lod0::`RTTI Class Hierarchy Descriptor'
	DD	00H
	DD	03H
	DD	FLAT:??_R2D3DTech_Back1_lod0@Ogre@@8
rdata$r	ENDS
;	COMDAT ??_R0?AVD3DTech_Back1_lod0@Ogre@@@8
_DATA	SEGMENT
??_R0?AVD3DTech_Back1_lod0@Ogre@@@8 DD FLAT:??_7type_info@@6B@ ; Ogre::D3DTech_Back1_lod0 `RTTI Type Descriptor'
	DD	00H
	DB	'.?AVD3DTech_Back1_lod0@Ogre@@', 00H
_DATA	ENDS
;	COMDAT ??_R4D3DTech_Back1_lod0@Ogre@@6B@
rdata$r	SEGMENT
??_R4D3DTech_Back1_lod0@Ogre@@6B@ DD 00H		; Ogre::D3DTech_Back1_lod0::`RTTI Complete Object Locator'
	DD	00H
	DD	00H
	DD	FLAT:??_R0?AVD3DTech_Back1_lod0@Ogre@@@8
	DD	FLAT:??_R3D3DTech_Back1_lod0@Ogre@@8
rdata$r	ENDS
;	COMDAT ??_7D3DTech_Back1_lod0@Ogre@@6B@
CONST	SEGMENT
??_7D3DTech_Back1_lod0@Ogre@@6B@ DD FLAT:??_R4D3DTech_Back1_lod0@Ogre@@6B@ ; Ogre::D3DTech_Back1_lod0::`vftable'
	DD	FLAT:?begin@D3DTech_Back1_lod0@Ogre@@UAEIXZ
	DD	FLAT:?end@D3DTech_Back1_lod0@Ogre@@UAEXXZ
	DD	FLAT:?beginPass@D3DTech_Back1_lod0@Ogre@@UAEXI@Z
	DD	FLAT:?endPass@D3DTech_Back1_lod0@Ogre@@UAEXXZ
	DD	FLAT:?setConstant@D3DTech@Ogre@@UAEXW4ShaderParamUsage@2@PBXI@Z
	DD	FLAT:?setConstant@D3DTech@Ogre@@UAEXPBDPBXI@Z
	DD	FLAT:?setTexture@D3DTech@Ogre@@UAEXW4ShaderParamUsage@2@PAVHardwarePixelBuffer@2@@Z
	DD	FLAT:?setTexture@D3DTech@Ogre@@UAEXPBDPAVHardwarePixelBuffer@2@@Z
	DD	FLAT:?setStreamInput@D3DTech@Ogre@@UAEXIPAPAVHardwareVertexBuffer@2@HPAI@Z
	DD	FLAT:?setStreamInput@D3DTech@Ogre@@UAEXIPAVHardwareVertexBuffer@2@I@Z
	DD	FLAT:?setStreamInput@D3DTech@Ogre@@UAEXIPAPAVHardwareVertexBuffer@2@PAI@Z
	DD	FLAT:?commitChanges@D3DTech@Ogre@@UAEXXZ
	DD	FLAT:?draw@D3DTech@Ogre@@UAEXW4PrimitiveType@2@IIPAVHardwareIndexBuffer@2@II@Z
	DD	FLAT:?draw@D3DTech@Ogre@@UAEXW4PrimitiveType@2@II@Z
	DD	FLAT:?getRequiredParams@D3DTech@Ogre@@UAEIPAW4ShaderParamUsage@2@I@Z
	DD	FLAT:??_ED3DTech_Back1_lod0@Ogre@@UAEPAXI@Z
	DD	FLAT:?clone@D3DTech_Back1_lod0@Ogre@@UAEPAVD3DTech@2@XZ
	DD	FLAT:?init@D3DTech_Back1_lod0@Ogre@@UAEXABUShaderEnvFlags@2@ABUMaterialMacro@2@@Z
CONST	ENDS
;	COMDAT xdata$x
xdata$x	SEGMENT
__unwindtable$??0D3DTech_Back1_lod0@Ogre@@QAE@XZ DD 0ffffffffH
	DD	FLAT:__unwindfunclet$??0D3DTech_Back1_lod0@Ogre@@QAE@XZ$0
__ehfuncinfo$??0D3DTech_Back1_lod0@Ogre@@QAE@XZ DD 019930522H
	DD	01H
	DD	FLAT:__unwindtable$??0D3DTech_Back1_lod0@Ogre@@QAE@XZ
	DD	2 DUP(00H)
	DD	2 DUP(00H)
	DD	00H
	DD	00H
; Function compile flags: /Odtp
xdata$x	ENDS
;	COMDAT ??0D3DTech_Back1_lod0@Ogre@@QAE@XZ
_TEXT	SEGMENT
_this$ = -16						; size = 4
__$EHRec$ = -12						; size = 12
??0D3DTech_Back1_lod0@Ogre@@QAE@XZ PROC			; Ogre::D3DTech_Back1_lod0::D3DTech_Back1_lod0, COMDAT
; _this$ = ecx
	push	ebp
	mov	ebp, esp
	push	-1
	push	__ehhandler$??0D3DTech_Back1_lod0@Ogre@@QAE@XZ
	mov	eax, DWORD PTR fs:0
	push	eax
	push	ecx
	mov	eax, DWORD PTR ___security_cookie
	xor	eax, ebp
	push	eax
	lea	eax, DWORD PTR __$EHRec$[ebp]
	mov	DWORD PTR fs:0, eax
	mov	DWORD PTR _this$[ebp], ecx
	mov	ecx, DWORD PTR _this$[ebp]
	call	??0D3DTech@Ogre@@QAE@XZ			; Ogre::D3DTech::D3DTech
	mov	DWORD PTR __$EHRec$[ebp+8], 0
	mov	eax, DWORD PTR _this$[ebp]
	mov	DWORD PTR [eax], OFFSET ??_7D3DTech_Back1_lod0@Ogre@@6B@
	mov	DWORD PTR __$EHRec$[ebp+8], -1
	mov	eax, DWORD PTR _this$[ebp]
	mov	ecx, DWORD PTR __$EHRec$[ebp]
	mov	DWORD PTR fs:0, ecx
	pop	ecx
	mov	esp, ebp
	pop	ebp
	ret	0
_TEXT	ENDS
;	COMDAT text$x
text$x	SEGMENT
__unwindfunclet$??0D3DTech_Back1_lod0@Ogre@@QAE@XZ$0:
	mov	ecx, DWORD PTR _this$[ebp]
	jmp	??1D3DTech@Ogre@@UAE@XZ
__ehhandler$??0D3DTech_Back1_lod0@Ogre@@QAE@XZ:
	mov	edx, DWORD PTR [esp+8]
	lea	eax, DWORD PTR [edx+12]
	mov	ecx, DWORD PTR [edx-8]
	xor	ecx, eax
	call	@__security_check_cookie@4
	mov	eax, OFFSET __ehfuncinfo$??0D3DTech_Back1_lod0@Ogre@@QAE@XZ
	jmp	___CxxFrameHandler3
text$x	ENDS
??0D3DTech_Back1_lod0@Ogre@@QAE@XZ ENDP			; Ogre::D3DTech_Back1_lod0::D3DTech_Back1_lod0
;	COMDAT xdata$x
; File i:\svnroot\client\plugins\rendersystem_d3d9\ogred3d9tech_back.h
xdata$x	SEGMENT
__unwindtable$?clone@D3DTech_Back1_lod0@Ogre@@UAEPAVD3DTech@2@XZ DD 0ffffffffH
	DD	FLAT:__unwindfunclet$?clone@D3DTech_Back1_lod0@Ogre@@UAEPAVD3DTech@2@XZ$0
__ehfuncinfo$?clone@D3DTech_Back1_lod0@Ogre@@UAEPAVD3DTech@2@XZ DD 019930522H
	DD	01H
	DD	FLAT:__unwindtable$?clone@D3DTech_Back1_lod0@Ogre@@UAEPAVD3DTech@2@XZ
	DD	2 DUP(00H)
	DD	2 DUP(00H)
	DD	00H
	DD	00H
; Function compile flags: /Odtp
xdata$x	ENDS
;	COMDAT ?clone@D3DTech_Back1_lod0@Ogre@@UAEPAVD3DTech@2@XZ
_TEXT	SEGMENT
tv74 = -28						; size = 4
_this$ = -24						; size = 4
$T139549 = -20						; size = 4
$T139548 = -16						; size = 4
__$EHRec$ = -12						; size = 12
?clone@D3DTech_Back1_lod0@Ogre@@UAEPAVD3DTech@2@XZ PROC	; Ogre::D3DTech_Back1_lod0::clone, COMDAT
; _this$ = ecx

; 106  : 		{

	push	ebp
	mov	ebp, esp
	push	-1
	push	__ehhandler$?clone@D3DTech_Back1_lod0@Ogre@@UAEPAVD3DTech@2@XZ
	mov	eax, DWORD PTR fs:0
	push	eax
	sub	esp, 16					; 00000010H
	mov	eax, DWORD PTR ___security_cookie
	xor	eax, ebp
	push	eax
	lea	eax, DWORD PTR __$EHRec$[ebp]
	mov	DWORD PTR fs:0, eax
	mov	DWORD PTR _this$[ebp], ecx

; 107  : 			return new D3DTech_Back1_lod0;

	push	392					; 00000188H
	call	??2@YAPAXI@Z				; operator new
	add	esp, 4
	mov	DWORD PTR $T139549[ebp], eax
	mov	DWORD PTR __$EHRec$[ebp+8], 0
	cmp	DWORD PTR $T139549[ebp], 0
	je	SHORT $LN3@clone@2
	mov	ecx, DWORD PTR $T139549[ebp]
	call	??0D3DTech_Back1_lod0@Ogre@@QAE@XZ
	mov	DWORD PTR tv74[ebp], eax
	jmp	SHORT $LN4@clone@2
$LN3@clone@2:
	mov	DWORD PTR tv74[ebp], 0
$LN4@clone@2:
	mov	eax, DWORD PTR tv74[ebp]
	mov	DWORD PTR $T139548[ebp], eax
	mov	DWORD PTR __$EHRec$[ebp+8], -1
	mov	eax, DWORD PTR $T139548[ebp]

; 108  : 		}

	mov	ecx, DWORD PTR __$EHRec$[ebp]
	mov	DWORD PTR fs:0, ecx
	pop	ecx
	mov	esp, ebp
	pop	ebp
	ret	0
_TEXT	ENDS
;	COMDAT text$x
text$x	SEGMENT
__unwindfunclet$?clone@D3DTech_Back1_lod0@Ogre@@UAEPAVD3DTech@2@XZ$0:
	mov	eax, DWORD PTR $T139549[ebp]
	push	eax
	call	??3@YAXPAX@Z				; operator delete
	pop	ecx
	ret	0
__ehhandler$?clone@D3DTech_Back1_lod0@Ogre@@UAEPAVD3DTech@2@XZ:
	mov	edx, DWORD PTR [esp+8]
	lea	eax, DWORD PTR [edx+12]
	mov	ecx, DWORD PTR [edx-20]
	xor	ecx, eax
	call	@__security_check_cookie@4
	mov	eax, OFFSET __ehfuncinfo$?clone@D3DTech_Back1_lod0@Ogre@@UAEPAVD3DTech@2@XZ
	jmp	___CxxFrameHandler3
text$x	ENDS
?clone@D3DTech_Back1_lod0@Ogre@@UAEPAVD3DTech@2@XZ ENDP	; Ogre::D3DTech_Back1_lod0::clone
; Function compile flags: /Odtp
;	COMDAT ?init@D3DTech_Back1_lod0@Ogre@@UAEXABUShaderEnvFlags@2@ABUMaterialMacro@2@@Z
_TEXT	SEGMENT
_this$ = -4						; size = 4
_env$ = 8						; size = 4
_macros$ = 12						; size = 4
?init@D3DTech_Back1_lod0@Ogre@@UAEXABUShaderEnvFlags@2@ABUMaterialMacro@2@@Z PROC ; Ogre::D3DTech_Back1_lod0::init, COMDAT
; _this$ = ecx

; 111  : 		{

	push	ebp
	mov	ebp, esp
	push	ecx
	mov	DWORD PTR _this$[ebp], ecx

; 112  : 			m_nPass = 1;

	mov	eax, DWORD PTR _this$[ebp]
	mov	DWORD PTR [eax+188], 1

; 113  : 			m_AllPass[0].vs = m_pMtlTemplate->getCompiledVSPS(COMPILED_VS, "Main", env, macros);

	mov	ecx, DWORD PTR _macros$[ebp]
	push	ecx
	mov	edx, DWORD PTR _env$[ebp]
	push	edx
	push	OFFSET ??_C@_04KGFMLCPK@Main?$AA@
	push	1
	mov	eax, DWORD PTR _this$[ebp]
	mov	ecx, DWORD PTR [eax+8]
	call	?getCompiledVSPS@D3DMaterialTemplate@Ogre@@QAEPAVCompiledShader@2@W4COMPILED_TYPE@2@PBDABUShaderEnvFlags@2@ABUMaterialMacro@2@@Z ; Ogre::D3DMaterialTemplate::getCompiledVSPS
	mov	ecx, DWORD PTR _this$[ebp]
	mov	DWORD PTR [ecx+12], eax

; 114  : 			m_AllPass[0].ps = m_pMtlTemplate->getCompiledVSPS(COMPILED_PS, "Main", env, macros);

	mov	edx, DWORD PTR _macros$[ebp]
	push	edx
	mov	eax, DWORD PTR _env$[ebp]
	push	eax
	push	OFFSET ??_C@_04KGFMLCPK@Main?$AA@
	push	2
	mov	ecx, DWORD PTR _this$[ebp]
	mov	ecx, DWORD PTR [ecx+8]
	call	?getCompiledVSPS@D3DMaterialTemplate@Ogre@@QAEPAVCompiledShader@2@W4COMPILED_TYPE@2@PBDABUShaderEnvFlags@2@ABUMaterialMacro@2@@Z ; Ogre::D3DMaterialTemplate::getCompiledVSPS
	mov	edx, DWORD PTR _this$[ebp]
	mov	DWORD PTR [edx+16], eax

; 115  : 
; 116  : 			m_AllPass[0].ntex = 1;

	mov	eax, DWORD PTR _this$[ebp]
	mov	DWORD PTR [eax+20], 1

; 117  : 			m_AllPass[0].texstage[0] = SPU_GENERAL_PARAM + 0; //diffusetex

	mov	ecx, DWORD PTR _this$[ebp]
	mov	DWORD PTR [ecx+24], 1000		; 000003e8H

; 118  : 
; 119  : 
; 120  : 			initParams();

	mov	ecx, DWORD PTR _this$[ebp]
	call	?initParams@D3DTech@Ogre@@IAEXXZ	; Ogre::D3DTech::initParams

; 121  : 			m_UsedMacroMask = 0;

	mov	edx, DWORD PTR _this$[ebp]
	mov	DWORD PTR [edx+4], 0

; 122  : 		}

	mov	esp, ebp
	pop	ebp
	ret	8
?init@D3DTech_Back1_lod0@Ogre@@UAEXABUShaderEnvFlags@2@ABUMaterialMacro@2@@Z ENDP ; Ogre::D3DTech_Back1_lod0::init
; Function compile flags: /Odtp
_TEXT	ENDS
;	COMDAT ?begin@D3DTech_Back1_lod0@Ogre@@UAEIXZ
_TEXT	SEGMENT
_this$ = -4						; size = 4
?begin@D3DTech_Back1_lod0@Ogre@@UAEIXZ PROC		; Ogre::D3DTech_Back1_lod0::begin, COMDAT
; _this$ = ecx

; 125  : 		{

	push	ebp
	mov	ebp, esp
	push	ecx
	mov	DWORD PTR _this$[ebp], ecx

; 126  : 			return 1;

	mov	eax, 1

; 127  : 		}

	mov	esp, ebp
	pop	ebp
	ret	0
?begin@D3DTech_Back1_lod0@Ogre@@UAEIXZ ENDP		; Ogre::D3DTech_Back1_lod0::begin
; Function compile flags: /Odtp
_TEXT	ENDS
;	COMDAT ?end@D3DTech_Back1_lod0@Ogre@@UAEXXZ
_TEXT	SEGMENT
_this$ = -4						; size = 4
?end@D3DTech_Back1_lod0@Ogre@@UAEXXZ PROC		; Ogre::D3DTech_Back1_lod0::end, COMDAT
; _this$ = ecx

; 130  : 		{

	push	ebp
	mov	ebp, esp
	push	ecx
	mov	DWORD PTR _this$[ebp], ecx

; 131  : 
; 132  : 		}

	mov	esp, ebp
	pop	ebp
	ret	0
?end@D3DTech_Back1_lod0@Ogre@@UAEXXZ ENDP		; Ogre::D3DTech_Back1_lod0::end
; Function compile flags: /Odtp
_TEXT	ENDS
;	COMDAT ?beginPass@D3DTech_Back1_lod0@Ogre@@UAEXI@Z
_TEXT	SEGMENT
_this$ = -4						; size = 4
_ipass$ = 8						; size = 4
?beginPass@D3DTech_Back1_lod0@Ogre@@UAEXI@Z PROC	; Ogre::D3DTech_Back1_lod0::beginPass, COMDAT
; _this$ = ecx

; 135  : 		{

	push	ebp
	mov	ebp, esp
	push	ecx
	mov	DWORD PTR _this$[ebp], ecx

; 136  : 			m_CurPass = ipass;

	mov	eax, DWORD PTR _this$[ebp]
	mov	ecx, DWORD PTR _ipass$[ebp]
	mov	DWORD PTR [eax+192], ecx

; 137  : 
; 138  : 			m_pDevice->SetRenderState(D3DRS_ALPHATESTENABLE, true);

	push	1
	push	15					; 0000000fH
	mov	edx, DWORD PTR ?m_pDevice@D3DTech@Ogre@@2PAUIDirect3DDevice9@@A ; Ogre::D3DTech::m_pDevice
	mov	eax, DWORD PTR [edx]
	mov	ecx, DWORD PTR ?m_pDevice@D3DTech@Ogre@@2PAUIDirect3DDevice9@@A ; Ogre::D3DTech::m_pDevice
	push	ecx
	mov	edx, DWORD PTR [eax+228]
	call	edx

; 139  : 			m_pDevice->SetRenderState(D3DRS_ALPHAREF, 0);

	push	0
	push	24					; 00000018H
	mov	eax, DWORD PTR ?m_pDevice@D3DTech@Ogre@@2PAUIDirect3DDevice9@@A ; Ogre::D3DTech::m_pDevice
	mov	ecx, DWORD PTR [eax]
	mov	edx, DWORD PTR ?m_pDevice@D3DTech@Ogre@@2PAUIDirect3DDevice9@@A ; Ogre::D3DTech::m_pDevice
	push	edx
	mov	eax, DWORD PTR [ecx+228]
	call	eax

; 140  : 			m_pDevice->SetRenderState(D3DRS_ALPHAFUNC, D3DCMP_GREATER);

	push	5
	push	25					; 00000019H
	mov	ecx, DWORD PTR ?m_pDevice@D3DTech@Ogre@@2PAUIDirect3DDevice9@@A ; Ogre::D3DTech::m_pDevice
	mov	edx, DWORD PTR [ecx]
	mov	eax, DWORD PTR ?m_pDevice@D3DTech@Ogre@@2PAUIDirect3DDevice9@@A ; Ogre::D3DTech::m_pDevice
	push	eax
	mov	ecx, DWORD PTR [edx+228]
	call	ecx

; 141  : 
; 142  : 			m_pDevice->SetRenderState(D3DRS_ALPHABLENDENABLE, true);

	push	1
	push	27					; 0000001bH
	mov	edx, DWORD PTR ?m_pDevice@D3DTech@Ogre@@2PAUIDirect3DDevice9@@A ; Ogre::D3DTech::m_pDevice
	mov	eax, DWORD PTR [edx]
	mov	ecx, DWORD PTR ?m_pDevice@D3DTech@Ogre@@2PAUIDirect3DDevice9@@A ; Ogre::D3DTech::m_pDevice
	push	ecx
	mov	edx, DWORD PTR [eax+228]
	call	edx

; 143  : 			m_pDevice->SetRenderState(D3DRS_SRCBLEND, D3DBLEND_SRCALPHA);

	push	5
	push	19					; 00000013H
	mov	eax, DWORD PTR ?m_pDevice@D3DTech@Ogre@@2PAUIDirect3DDevice9@@A ; Ogre::D3DTech::m_pDevice
	mov	ecx, DWORD PTR [eax]
	mov	edx, DWORD PTR ?m_pDevice@D3DTech@Ogre@@2PAUIDirect3DDevice9@@A ; Ogre::D3DTech::m_pDevice
	push	edx
	mov	eax, DWORD PTR [ecx+228]
	call	eax

; 144  : 			m_pDevice->SetRenderState(D3DRS_DESTBLEND, D3DBLEND_ONE);

	push	2
	push	20					; 00000014H
	mov	ecx, DWORD PTR ?m_pDevice@D3DTech@Ogre@@2PAUIDirect3DDevice9@@A ; Ogre::D3DTech::m_pDevice
	mov	edx, DWORD PTR [ecx]
	mov	eax, DWORD PTR ?m_pDevice@D3DTech@Ogre@@2PAUIDirect3DDevice9@@A ; Ogre::D3DTech::m_pDevice
	push	eax
	mov	ecx, DWORD PTR [edx+228]
	call	ecx

; 145  : 
; 146  : 			m_pDevice->SetRenderState(D3DRS_ZENABLE, false);

	push	0
	push	7
	mov	edx, DWORD PTR ?m_pDevice@D3DTech@Ogre@@2PAUIDirect3DDevice9@@A ; Ogre::D3DTech::m_pDevice
	mov	eax, DWORD PTR [edx]
	mov	ecx, DWORD PTR ?m_pDevice@D3DTech@Ogre@@2PAUIDirect3DDevice9@@A ; Ogre::D3DTech::m_pDevice
	push	ecx
	mov	edx, DWORD PTR [eax+228]
	call	edx

; 147  : 			m_pDevice->SetRenderState(D3DRS_ZWRITEENABLE, false);

	push	0
	push	14					; 0000000eH
	mov	eax, DWORD PTR ?m_pDevice@D3DTech@Ogre@@2PAUIDirect3DDevice9@@A ; Ogre::D3DTech::m_pDevice
	mov	ecx, DWORD PTR [eax]
	mov	edx, DWORD PTR ?m_pDevice@D3DTech@Ogre@@2PAUIDirect3DDevice9@@A ; Ogre::D3DTech::m_pDevice
	push	edx
	mov	eax, DWORD PTR [ecx+228]
	call	eax

; 148  : 			m_pDevice->SetRenderState(D3DRS_ZFUNC, D3DCMP_GREATER);

	push	5
	push	23					; 00000017H
	mov	ecx, DWORD PTR ?m_pDevice@D3DTech@Ogre@@2PAUIDirect3DDevice9@@A ; Ogre::D3DTech::m_pDevice
	mov	edx, DWORD PTR [ecx]
	mov	eax, DWORD PTR ?m_pDevice@D3DTech@Ogre@@2PAUIDirect3DDevice9@@A ; Ogre::D3DTech::m_pDevice
	push	eax
	mov	ecx, DWORD PTR [edx+228]
	call	ecx

; 149  : 
; 150  : 			m_pDevice->SetRenderState(D3DRS_STENCILENABLE, true);

	push	1
	push	52					; 00000034H
	mov	edx, DWORD PTR ?m_pDevice@D3DTech@Ogre@@2PAUIDirect3DDevice9@@A ; Ogre::D3DTech::m_pDevice
	mov	eax, DWORD PTR [edx]
	mov	ecx, DWORD PTR ?m_pDevice@D3DTech@Ogre@@2PAUIDirect3DDevice9@@A ; Ogre::D3DTech::m_pDevice
	push	ecx
	mov	edx, DWORD PTR [eax+228]
	call	edx

; 151  : 			m_pDevice->SetRenderState(D3DRS_STENCILFUNC, D3DCMP_NOTEQUAL);

	push	6
	push	56					; 00000038H
	mov	eax, DWORD PTR ?m_pDevice@D3DTech@Ogre@@2PAUIDirect3DDevice9@@A ; Ogre::D3DTech::m_pDevice
	mov	ecx, DWORD PTR [eax]
	mov	edx, DWORD PTR ?m_pDevice@D3DTech@Ogre@@2PAUIDirect3DDevice9@@A ; Ogre::D3DTech::m_pDevice
	push	edx
	mov	eax, DWORD PTR [ecx+228]
	call	eax

; 152  : 			m_pDevice->SetRenderState(D3DRS_STENCILREF, (DWORD)1);

	push	1
	push	57					; 00000039H
	mov	ecx, DWORD PTR ?m_pDevice@D3DTech@Ogre@@2PAUIDirect3DDevice9@@A ; Ogre::D3DTech::m_pDevice
	mov	edx, DWORD PTR [ecx]
	mov	eax, DWORD PTR ?m_pDevice@D3DTech@Ogre@@2PAUIDirect3DDevice9@@A ; Ogre::D3DTech::m_pDevice
	push	eax
	mov	ecx, DWORD PTR [edx+228]
	call	ecx

; 153  : 			m_pDevice->SetRenderState(D3DRS_STENCILPASS, D3DSTENCILOP_KEEP);

	push	1
	push	55					; 00000037H
	mov	edx, DWORD PTR ?m_pDevice@D3DTech@Ogre@@2PAUIDirect3DDevice9@@A ; Ogre::D3DTech::m_pDevice
	mov	eax, DWORD PTR [edx]
	mov	ecx, DWORD PTR ?m_pDevice@D3DTech@Ogre@@2PAUIDirect3DDevice9@@A ; Ogre::D3DTech::m_pDevice
	push	ecx
	mov	edx, DWORD PTR [eax+228]
	call	edx

; 154  : 			m_pDevice->SetRenderState(D3DRS_STENCILZFAIL, D3DSTENCILOP_ZERO);

	push	2
	push	54					; 00000036H
	mov	eax, DWORD PTR ?m_pDevice@D3DTech@Ogre@@2PAUIDirect3DDevice9@@A ; Ogre::D3DTech::m_pDevice
	mov	ecx, DWORD PTR [eax]
	mov	edx, DWORD PTR ?m_pDevice@D3DTech@Ogre@@2PAUIDirect3DDevice9@@A ; Ogre::D3DTech::m_pDevice
	push	edx
	mov	eax, DWORD PTR [ecx+228]
	call	eax

; 155  : 
; 156  : 			m_pDevice->SetRenderState(D3DRS_CULLMODE, D3DCULL_CCW);

	push	3
	push	22					; 00000016H
	mov	ecx, DWORD PTR ?m_pDevice@D3DTech@Ogre@@2PAUIDirect3DDevice9@@A ; Ogre::D3DTech::m_pDevice
	mov	edx, DWORD PTR [ecx]
	mov	eax, DWORD PTR ?m_pDevice@D3DTech@Ogre@@2PAUIDirect3DDevice9@@A ; Ogre::D3DTech::m_pDevice
	push	eax
	mov	ecx, DWORD PTR [edx+228]
	call	ecx

; 157  : 
; 158  : 			SamplerState_Wrap(m_pDevice, 0);

	push	0
	mov	edx, DWORD PTR ?m_pDevice@D3DTech@Ogre@@2PAUIDirect3DDevice9@@A ; Ogre::D3DTech::m_pDevice
	push	edx
	call	?SamplerState_Wrap@Ogre@@YAXPAUIDirect3DDevice9@@H@Z ; Ogre::SamplerState_Wrap
	add	esp, 8

; 159  : 
; 160  : 			applyVSPS(m_CurPass);

	mov	eax, DWORD PTR _this$[ebp]
	mov	ecx, DWORD PTR [eax+192]
	push	ecx
	mov	ecx, DWORD PTR _this$[ebp]
	call	?applyVSPS@D3DTech@Ogre@@IAEXI@Z	; Ogre::D3DTech::applyVSPS

; 161  : 		}

	mov	esp, ebp
	pop	ebp
	ret	4
?beginPass@D3DTech_Back1_lod0@Ogre@@UAEXI@Z ENDP	; Ogre::D3DTech_Back1_lod0::beginPass
; Function compile flags: /Odtp
_TEXT	ENDS
;	COMDAT ?endPass@D3DTech_Back1_lod0@Ogre@@UAEXXZ
_TEXT	SEGMENT
_this$ = -4						; size = 4
?endPass@D3DTech_Back1_lod0@Ogre@@UAEXXZ PROC		; Ogre::D3DTech_Back1_lod0::endPass, COMDAT
; _this$ = ecx

; 164  : 		{

	push	ebp
	mov	ebp, esp
	push	ecx
	mov	DWORD PTR _this$[ebp], ecx

; 165  : 			SetBlendState(m_pDevice, BLEND_OPAQUE);

	push	-1
	push	0
	mov	eax, DWORD PTR ?m_pDevice@D3DTech@Ogre@@2PAUIDirect3DDevice9@@A ; Ogre::D3DTech::m_pDevice
	push	eax
	call	?SetBlendState@Ogre@@YAXPAUIDirect3DDevice9@@HH@Z ; Ogre::SetBlendState
	add	esp, 12					; 0000000cH

; 166  : 			m_pDevice->SetRenderState(D3DRS_STENCILENABLE, false);

	push	0
	push	52					; 00000034H
	mov	ecx, DWORD PTR ?m_pDevice@D3DTech@Ogre@@2PAUIDirect3DDevice9@@A ; Ogre::D3DTech::m_pDevice
	mov	edx, DWORD PTR [ecx]
	mov	eax, DWORD PTR ?m_pDevice@D3DTech@Ogre@@2PAUIDirect3DDevice9@@A ; Ogre::D3DTech::m_pDevice
	push	eax
	mov	ecx, DWORD PTR [edx+228]
	call	ecx

; 167  : 			m_pDevice->SetRenderState(D3DRS_ZENABLE, true);

	push	1
	push	7
	mov	edx, DWORD PTR ?m_pDevice@D3DTech@Ogre@@2PAUIDirect3DDevice9@@A ; Ogre::D3DTech::m_pDevice
	mov	eax, DWORD PTR [edx]
	mov	ecx, DWORD PTR ?m_pDevice@D3DTech@Ogre@@2PAUIDirect3DDevice9@@A ; Ogre::D3DTech::m_pDevice
	push	ecx
	mov	edx, DWORD PTR [eax+228]
	call	edx

; 168  : 			m_pDevice->SetRenderState(D3DRS_ZWRITEENABLE, true);

	push	1
	push	14					; 0000000eH
	mov	eax, DWORD PTR ?m_pDevice@D3DTech@Ogre@@2PAUIDirect3DDevice9@@A ; Ogre::D3DTech::m_pDevice
	mov	ecx, DWORD PTR [eax]
	mov	edx, DWORD PTR ?m_pDevice@D3DTech@Ogre@@2PAUIDirect3DDevice9@@A ; Ogre::D3DTech::m_pDevice
	push	edx
	mov	eax, DWORD PTR [ecx+228]
	call	eax

; 169  : 			m_pDevice->SetRenderState(D3DRS_ZFUNC, D3DCMP_LESSEQUAL);

	push	4
	push	23					; 00000017H
	mov	ecx, DWORD PTR ?m_pDevice@D3DTech@Ogre@@2PAUIDirect3DDevice9@@A ; Ogre::D3DTech::m_pDevice
	mov	edx, DWORD PTR [ecx]
	mov	eax, DWORD PTR ?m_pDevice@D3DTech@Ogre@@2PAUIDirect3DDevice9@@A ; Ogre::D3DTech::m_pDevice
	push	eax
	mov	ecx, DWORD PTR [edx+228]
	call	ecx

; 170  : 			m_pDevice->SetRenderState(D3DRS_CULLMODE, D3DCULL_CCW);

	push	3
	push	22					; 00000016H
	mov	edx, DWORD PTR ?m_pDevice@D3DTech@Ogre@@2PAUIDirect3DDevice9@@A ; Ogre::D3DTech::m_pDevice
	mov	eax, DWORD PTR [edx]
	mov	ecx, DWORD PTR ?m_pDevice@D3DTech@Ogre@@2PAUIDirect3DDevice9@@A ; Ogre::D3DTech::m_pDevice
	push	ecx
	mov	edx, DWORD PTR [eax+228]
	call	edx

; 171  : 		}

	mov	esp, ebp
	pop	ebp
	ret	0
?endPass@D3DTech_Back1_lod0@Ogre@@UAEXXZ ENDP		; Ogre::D3DTech_Back1_lod0::endPass
_TEXT	ENDS
PUBLIC	??1D3DTech_Back1_lod0@Ogre@@UAE@XZ		; Ogre::D3DTech_Back1_lod0::~D3DTech_Back1_lod0
; Function compile flags: /Odtp
;	COMDAT ??_GD3DTech_Back1_lod0@Ogre@@UAEPAXI@Z
_TEXT	SEGMENT
_this$ = -4						; size = 4
___flags$ = 8						; size = 4
??_GD3DTech_Back1_lod0@Ogre@@UAEPAXI@Z PROC		; Ogre::D3DTech_Back1_lod0::`scalar deleting destructor', COMDAT
; _this$ = ecx
	push	ebp
	mov	ebp, esp
	push	ecx
	mov	DWORD PTR _this$[ebp], ecx
	mov	ecx, DWORD PTR _this$[ebp]
	call	??1D3DTech_Back1_lod0@Ogre@@UAE@XZ
	mov	eax, DWORD PTR ___flags$[ebp]
	and	eax, 1
	je	SHORT $LN1@scalar@3
	mov	ecx, DWORD PTR _this$[ebp]
	push	ecx
	call	??3@YAXPAX@Z				; operator delete
	add	esp, 4
$LN1@scalar@3:
	mov	eax, DWORD PTR _this$[ebp]
	mov	esp, ebp
	pop	ebp
	ret	4
??_GD3DTech_Back1_lod0@Ogre@@UAEPAXI@Z ENDP		; Ogre::D3DTech_Back1_lod0::`scalar deleting destructor'
_TEXT	ENDS
;	COMDAT xdata$x
xdata$x	SEGMENT
__unwindtable$??1D3DTech_Back1_lod0@Ogre@@UAE@XZ DD 0ffffffffH
	DD	FLAT:__unwindfunclet$??1D3DTech_Back1_lod0@Ogre@@UAE@XZ$0
__ehfuncinfo$??1D3DTech_Back1_lod0@Ogre@@UAE@XZ DD 019930522H
	DD	01H
	DD	FLAT:__unwindtable$??1D3DTech_Back1_lod0@Ogre@@UAE@XZ
	DD	2 DUP(00H)
	DD	2 DUP(00H)
	DD	00H
	DD	00H
; Function compile flags: /Odtp
xdata$x	ENDS
;	COMDAT ??1D3DTech_Back1_lod0@Ogre@@UAE@XZ
_TEXT	SEGMENT
_this$ = -16						; size = 4
__$EHRec$ = -12						; size = 12
??1D3DTech_Back1_lod0@Ogre@@UAE@XZ PROC			; Ogre::D3DTech_Back1_lod0::~D3DTech_Back1_lod0, COMDAT
; _this$ = ecx
	push	ebp
	mov	ebp, esp
	push	-1
	push	__ehhandler$??1D3DTech_Back1_lod0@Ogre@@UAE@XZ
	mov	eax, DWORD PTR fs:0
	push	eax
	push	ecx
	mov	eax, DWORD PTR ___security_cookie
	xor	eax, ebp
	push	eax
	lea	eax, DWORD PTR __$EHRec$[ebp]
	mov	DWORD PTR fs:0, eax
	mov	DWORD PTR _this$[ebp], ecx
	mov	DWORD PTR __$EHRec$[ebp+8], 0
	mov	DWORD PTR __$EHRec$[ebp+8], -1
	mov	ecx, DWORD PTR _this$[ebp]
	call	??1D3DTech@Ogre@@UAE@XZ
	mov	ecx, DWORD PTR __$EHRec$[ebp]
	mov	DWORD PTR fs:0, ecx
	pop	ecx
	mov	esp, ebp
	pop	ebp
	ret	0
_TEXT	ENDS
;	COMDAT text$x
text$x	SEGMENT
__unwindfunclet$??1D3DTech_Back1_lod0@Ogre@@UAE@XZ$0:
	mov	ecx, DWORD PTR _this$[ebp]
	jmp	??1D3DTech@Ogre@@UAE@XZ
__ehhandler$??1D3DTech_Back1_lod0@Ogre@@UAE@XZ:
	mov	edx, DWORD PTR [esp+8]
	lea	eax, DWORD PTR [edx+12]
	mov	ecx, DWORD PTR [edx-8]
	xor	ecx, eax
	call	@__security_check_cookie@4
	mov	eax, OFFSET __ehfuncinfo$??1D3DTech_Back1_lod0@Ogre@@UAE@XZ
	jmp	___CxxFrameHandler3
text$x	ENDS
??1D3DTech_Back1_lod0@Ogre@@UAE@XZ ENDP			; Ogre::D3DTech_Back1_lod0::~D3DTech_Back1_lod0
PUBLIC	??_7D3DTech_Border_lod0@Ogre@@6B@		; Ogre::D3DTech_Border_lod0::`vftable'
PUBLIC	??_R4D3DTech_Border_lod0@Ogre@@6B@		; Ogre::D3DTech_Border_lod0::`RTTI Complete Object Locator'
PUBLIC	??_R0?AVD3DTech_Border_lod0@Ogre@@@8		; Ogre::D3DTech_Border_lod0 `RTTI Type Descriptor'
PUBLIC	??_R3D3DTech_Border_lod0@Ogre@@8		; Ogre::D3DTech_Border_lod0::`RTTI Class Hierarchy Descriptor'
PUBLIC	??_R2D3DTech_Border_lod0@Ogre@@8		; Ogre::D3DTech_Border_lod0::`RTTI Base Class Array'
PUBLIC	??_R1A@?0A@EA@D3DTech_Border_lod0@Ogre@@8	; Ogre::D3DTech_Border_lod0::`RTTI Base Class Descriptor at (0,-1,0,64)'
PUBLIC	?begin@D3DTech@Ogre@@UAEIXZ			; Ogre::D3DTech::begin
PUBLIC	?end@D3DTech@Ogre@@UAEXXZ			; Ogre::D3DTech::end
PUBLIC	?beginPass@D3DTech_Border_lod0@Ogre@@UAEXI@Z	; Ogre::D3DTech_Border_lod0::beginPass
PUBLIC	?endPass@D3DTech_Border_lod0@Ogre@@UAEXXZ	; Ogre::D3DTech_Border_lod0::endPass
PUBLIC	?clone@D3DTech_Border_lod0@Ogre@@UAEPAVD3DTech@2@XZ ; Ogre::D3DTech_Border_lod0::clone
PUBLIC	?init@D3DTech_Border_lod0@Ogre@@UAEXABUShaderEnvFlags@2@ABUMaterialMacro@2@@Z ; Ogre::D3DTech_Border_lod0::init
EXTRN	??_ED3DTech_Border_lod0@Ogre@@UAEPAXI@Z:PROC	; Ogre::D3DTech_Border_lod0::`vector deleting destructor'
;	COMDAT ??_R1A@?0A@EA@D3DTech_Border_lod0@Ogre@@8
rdata$r	SEGMENT
??_R1A@?0A@EA@D3DTech_Border_lod0@Ogre@@8 DD FLAT:??_R0?AVD3DTech_Border_lod0@Ogre@@@8 ; Ogre::D3DTech_Border_lod0::`RTTI Base Class Descriptor at (0,-1,0,64)'
	DD	02H
	DD	00H
	DD	0ffffffffH
	DD	00H
	DD	040H
	DD	FLAT:??_R3D3DTech_Border_lod0@Ogre@@8
rdata$r	ENDS
;	COMDAT ??_R2D3DTech_Border_lod0@Ogre@@8
rdata$r	SEGMENT
??_R2D3DTech_Border_lod0@Ogre@@8 DD FLAT:??_R1A@?0A@EA@D3DTech_Border_lod0@Ogre@@8 ; Ogre::D3DTech_Border_lod0::`RTTI Base Class Array'
	DD	FLAT:??_R1A@?0A@EA@D3DTech@Ogre@@8
	DD	FLAT:??_R1A@?0A@EA@ShaderTechnique@Ogre@@8
rdata$r	ENDS
;	COMDAT ??_R3D3DTech_Border_lod0@Ogre@@8
rdata$r	SEGMENT
??_R3D3DTech_Border_lod0@Ogre@@8 DD 00H			; Ogre::D3DTech_Border_lod0::`RTTI Class Hierarchy Descriptor'
	DD	00H
	DD	03H
	DD	FLAT:??_R2D3DTech_Border_lod0@Ogre@@8
rdata$r	ENDS
;	COMDAT ??_R0?AVD3DTech_Border_lod0@Ogre@@@8
_DATA	SEGMENT
??_R0?AVD3DTech_Border_lod0@Ogre@@@8 DD FLAT:??_7type_info@@6B@ ; Ogre::D3DTech_Border_lod0 `RTTI Type Descriptor'
	DD	00H
	DB	'.?AVD3DTech_Border_lod0@Ogre@@', 00H
_DATA	ENDS
;	COMDAT ??_R4D3DTech_Border_lod0@Ogre@@6B@
rdata$r	SEGMENT
??_R4D3DTech_Border_lod0@Ogre@@6B@ DD 00H		; Ogre::D3DTech_Border_lod0::`RTTI Complete Object Locator'
	DD	00H
	DD	00H
	DD	FLAT:??_R0?AVD3DTech_Border_lod0@Ogre@@@8
	DD	FLAT:??_R3D3DTech_Border_lod0@Ogre@@8
rdata$r	ENDS
;	COMDAT ??_7D3DTech_Border_lod0@Ogre@@6B@
CONST	SEGMENT
??_7D3DTech_Border_lod0@Ogre@@6B@ DD FLAT:??_R4D3DTech_Border_lod0@Ogre@@6B@ ; Ogre::D3DTech_Border_lod0::`vftable'
	DD	FLAT:?begin@D3DTech@Ogre@@UAEIXZ
	DD	FLAT:?end@D3DTech@Ogre@@UAEXXZ
	DD	FLAT:?beginPass@D3DTech_Border_lod0@Ogre@@UAEXI@Z
	DD	FLAT:?endPass@D3DTech_Border_lod0@Ogre@@UAEXXZ
	DD	FLAT:?setConstant@D3DTech@Ogre@@UAEXW4ShaderParamUsage@2@PBXI@Z
	DD	FLAT:?setConstant@D3DTech@Ogre@@UAEXPBDPBXI@Z
	DD	FLAT:?setTexture@D3DTech@Ogre@@UAEXW4ShaderParamUsage@2@PAVHardwarePixelBuffer@2@@Z
	DD	FLAT:?setTexture@D3DTech@Ogre@@UAEXPBDPAVHardwarePixelBuffer@2@@Z
	DD	FLAT:?setStreamInput@D3DTech@Ogre@@UAEXIPAPAVHardwareVertexBuffer@2@HPAI@Z
	DD	FLAT:?setStreamInput@D3DTech@Ogre@@UAEXIPAVHardwareVertexBuffer@2@I@Z
	DD	FLAT:?setStreamInput@D3DTech@Ogre@@UAEXIPAPAVHardwareVertexBuffer@2@PAI@Z
	DD	FLAT:?commitChanges@D3DTech@Ogre@@UAEXXZ
	DD	FLAT:?draw@D3DTech@Ogre@@UAEXW4PrimitiveType@2@IIPAVHardwareIndexBuffer@2@II@Z
	DD	FLAT:?draw@D3DTech@Ogre@@UAEXW4PrimitiveType@2@II@Z
	DD	FLAT:?getRequiredParams@D3DTech@Ogre@@UAEIPAW4ShaderParamUsage@2@I@Z
	DD	FLAT:??_ED3DTech_Border_lod0@Ogre@@UAEPAXI@Z
	DD	FLAT:?clone@D3DTech_Border_lod0@Ogre@@UAEPAVD3DTech@2@XZ
	DD	FLAT:?init@D3DTech_Border_lod0@Ogre@@UAEXABUShaderEnvFlags@2@ABUMaterialMacro@2@@Z
CONST	ENDS
;	COMDAT xdata$x
xdata$x	SEGMENT
__unwindtable$??0D3DTech_Border_lod0@Ogre@@QAE@XZ DD 0ffffffffH
	DD	FLAT:__unwindfunclet$??0D3DTech_Border_lod0@Ogre@@QAE@XZ$0
__ehfuncinfo$??0D3DTech_Border_lod0@Ogre@@QAE@XZ DD 019930522H
	DD	01H
	DD	FLAT:__unwindtable$??0D3DTech_Border_lod0@Ogre@@QAE@XZ
	DD	2 DUP(00H)
	DD	2 DUP(00H)
	DD	00H
	DD	00H
; Function compile flags: /Odtp
xdata$x	ENDS
;	COMDAT ??0D3DTech_Border_lod0@Ogre@@QAE@XZ
_TEXT	SEGMENT
_this$ = -16						; size = 4
__$EHRec$ = -12						; size = 12
??0D3DTech_Border_lod0@Ogre@@QAE@XZ PROC		; Ogre::D3DTech_Border_lod0::D3DTech_Border_lod0, COMDAT
; _this$ = ecx
	push	ebp
	mov	ebp, esp
	push	-1
	push	__ehhandler$??0D3DTech_Border_lod0@Ogre@@QAE@XZ
	mov	eax, DWORD PTR fs:0
	push	eax
	push	ecx
	mov	eax, DWORD PTR ___security_cookie
	xor	eax, ebp
	push	eax
	lea	eax, DWORD PTR __$EHRec$[ebp]
	mov	DWORD PTR fs:0, eax
	mov	DWORD PTR _this$[ebp], ecx
	mov	ecx, DWORD PTR _this$[ebp]
	call	??0D3DTech@Ogre@@QAE@XZ			; Ogre::D3DTech::D3DTech
	mov	DWORD PTR __$EHRec$[ebp+8], 0
	mov	eax, DWORD PTR _this$[ebp]
	mov	DWORD PTR [eax], OFFSET ??_7D3DTech_Border_lod0@Ogre@@6B@
	mov	DWORD PTR __$EHRec$[ebp+8], -1
	mov	eax, DWORD PTR _this$[ebp]
	mov	ecx, DWORD PTR __$EHRec$[ebp]
	mov	DWORD PTR fs:0, ecx
	pop	ecx
	mov	esp, ebp
	pop	ebp
	ret	0
_TEXT	ENDS
;	COMDAT text$x
text$x	SEGMENT
__unwindfunclet$??0D3DTech_Border_lod0@Ogre@@QAE@XZ$0:
	mov	ecx, DWORD PTR _this$[ebp]
	jmp	??1D3DTech@Ogre@@UAE@XZ
__ehhandler$??0D3DTech_Border_lod0@Ogre@@QAE@XZ:
	mov	edx, DWORD PTR [esp+8]
	lea	eax, DWORD PTR [edx+12]
	mov	ecx, DWORD PTR [edx-8]
	xor	ecx, eax
	call	@__security_check_cookie@4
	mov	eax, OFFSET __ehfuncinfo$??0D3DTech_Border_lod0@Ogre@@QAE@XZ
	jmp	___CxxFrameHandler3
text$x	ENDS
??0D3DTech_Border_lod0@Ogre@@QAE@XZ ENDP		; Ogre::D3DTech_Border_lod0::D3DTech_Border_lod0
; Function compile flags: /Odtp
; File i:\svnroot\client\plugins\rendersystem_d3d9\ogred3d9technique.h
;	COMDAT ?begin@D3DTech@Ogre@@UAEIXZ
_TEXT	SEGMENT
_this$ = -4						; size = 4
?begin@D3DTech@Ogre@@UAEIXZ PROC			; Ogre::D3DTech::begin, COMDAT
; _this$ = ecx

; 20   : 		{

	push	ebp
	mov	ebp, esp
	push	ecx
	mov	DWORD PTR _this$[ebp], ecx

; 21   : 			return m_nPass;

	mov	eax, DWORD PTR _this$[ebp]
	mov	eax, DWORD PTR [eax+188]

; 22   : 		}

	mov	esp, ebp
	pop	ebp
	ret	0
?begin@D3DTech@Ogre@@UAEIXZ ENDP			; Ogre::D3DTech::begin
; Function compile flags: /Odtp
_TEXT	ENDS
;	COMDAT ?end@D3DTech@Ogre@@UAEXXZ
_TEXT	SEGMENT
_this$ = -4						; size = 4
?end@D3DTech@Ogre@@UAEXXZ PROC				; Ogre::D3DTech::end, COMDAT
; _this$ = ecx

; 25   : 		{

	push	ebp
	mov	ebp, esp
	push	ecx
	mov	DWORD PTR _this$[ebp], ecx

; 26   : 		}

	mov	esp, ebp
	pop	ebp
	ret	0
?end@D3DTech@Ogre@@UAEXXZ ENDP				; Ogre::D3DTech::end
_TEXT	ENDS
;	COMDAT xdata$x
; File i:\svnroot\client\plugins\rendersystem_d3d9\ogred3d9tech_border.h
xdata$x	SEGMENT
__unwindtable$?clone@D3DTech_Border_lod0@Ogre@@UAEPAVD3DTech@2@XZ DD 0ffffffffH
	DD	FLAT:__unwindfunclet$?clone@D3DTech_Border_lod0@Ogre@@UAEPAVD3DTech@2@XZ$0
__ehfuncinfo$?clone@D3DTech_Border_lod0@Ogre@@UAEPAVD3DTech@2@XZ DD 019930522H
	DD	01H
	DD	FLAT:__unwindtable$?clone@D3DTech_Border_lod0@Ogre@@UAEPAVD3DTech@2@XZ
	DD	2 DUP(00H)
	DD	2 DUP(00H)
	DD	00H
	DD	00H
; Function compile flags: /Odtp
xdata$x	ENDS
;	COMDAT ?clone@D3DTech_Border_lod0@Ogre@@UAEPAVD3DTech@2@XZ
_TEXT	SEGMENT
tv74 = -28						; size = 4
_this$ = -24						; size = 4
$T139596 = -20						; size = 4
$T139595 = -16						; size = 4
__$EHRec$ = -12						; size = 12
?clone@D3DTech_Border_lod0@Ogre@@UAEPAVD3DTech@2@XZ PROC ; Ogre::D3DTech_Border_lod0::clone, COMDAT
; _this$ = ecx

; 14   : 		{

	push	ebp
	mov	ebp, esp
	push	-1
	push	__ehhandler$?clone@D3DTech_Border_lod0@Ogre@@UAEPAVD3DTech@2@XZ
	mov	eax, DWORD PTR fs:0
	push	eax
	sub	esp, 16					; 00000010H
	mov	eax, DWORD PTR ___security_cookie
	xor	eax, ebp
	push	eax
	lea	eax, DWORD PTR __$EHRec$[ebp]
	mov	DWORD PTR fs:0, eax
	mov	DWORD PTR _this$[ebp], ecx

; 15   : 			return new D3DTech_Border_lod0;

	push	392					; 00000188H
	call	??2@YAPAXI@Z				; operator new
	add	esp, 4
	mov	DWORD PTR $T139596[ebp], eax
	mov	DWORD PTR __$EHRec$[ebp+8], 0
	cmp	DWORD PTR $T139596[ebp], 0
	je	SHORT $LN3@clone@3
	mov	ecx, DWORD PTR $T139596[ebp]
	call	??0D3DTech_Border_lod0@Ogre@@QAE@XZ
	mov	DWORD PTR tv74[ebp], eax
	jmp	SHORT $LN4@clone@3
$LN3@clone@3:
	mov	DWORD PTR tv74[ebp], 0
$LN4@clone@3:
	mov	eax, DWORD PTR tv74[ebp]
	mov	DWORD PTR $T139595[ebp], eax
	mov	DWORD PTR __$EHRec$[ebp+8], -1
	mov	eax, DWORD PTR $T139595[ebp]

; 16   : 		}

	mov	ecx, DWORD PTR __$EHRec$[ebp]
	mov	DWORD PTR fs:0, ecx
	pop	ecx
	mov	esp, ebp
	pop	ebp
	ret	0
_TEXT	ENDS
;	COMDAT text$x
text$x	SEGMENT
__unwindfunclet$?clone@D3DTech_Border_lod0@Ogre@@UAEPAVD3DTech@2@XZ$0:
	mov	eax, DWORD PTR $T139596[ebp]
	push	eax
	call	??3@YAXPAX@Z				; operator delete
	pop	ecx
	ret	0
__ehhandler$?clone@D3DTech_Border_lod0@Ogre@@UAEPAVD3DTech@2@XZ:
	mov	edx, DWORD PTR [esp+8]
	lea	eax, DWORD PTR [edx+12]
	mov	ecx, DWORD PTR [edx-20]
	xor	ecx, eax
	call	@__security_check_cookie@4
	mov	eax, OFFSET __ehfuncinfo$?clone@D3DTech_Border_lod0@Ogre@@UAEPAVD3DTech@2@XZ
	jmp	___CxxFrameHandler3
text$x	ENDS
?clone@D3DTech_Border_lod0@Ogre@@UAEPAVD3DTech@2@XZ ENDP ; Ogre::D3DTech_Border_lod0::clone
; Function compile flags: /Odtp
;	COMDAT ?init@D3DTech_Border_lod0@Ogre@@UAEXABUShaderEnvFlags@2@ABUMaterialMacro@2@@Z
_TEXT	SEGMENT
_this$ = -4						; size = 4
_env$ = 8						; size = 4
_macros$ = 12						; size = 4
?init@D3DTech_Border_lod0@Ogre@@UAEXABUShaderEnvFlags@2@ABUMaterialMacro@2@@Z PROC ; Ogre::D3DTech_Border_lod0::init, COMDAT
; _this$ = ecx

; 19   : 		{

	push	ebp
	mov	ebp, esp
	push	ecx
	mov	DWORD PTR _this$[ebp], ecx

; 20   : 			m_nPass = 1;

	mov	eax, DWORD PTR _this$[ebp]
	mov	DWORD PTR [eax+188], 1

; 21   : 			m_AllPass[0].vs = m_pMtlTemplate->getCompiledVSPS(COMPILED_VS, "Main", env, macros);

	mov	ecx, DWORD PTR _macros$[ebp]
	push	ecx
	mov	edx, DWORD PTR _env$[ebp]
	push	edx
	push	OFFSET ??_C@_04KGFMLCPK@Main?$AA@
	push	1
	mov	eax, DWORD PTR _this$[ebp]
	mov	ecx, DWORD PTR [eax+8]
	call	?getCompiledVSPS@D3DMaterialTemplate@Ogre@@QAEPAVCompiledShader@2@W4COMPILED_TYPE@2@PBDABUShaderEnvFlags@2@ABUMaterialMacro@2@@Z ; Ogre::D3DMaterialTemplate::getCompiledVSPS
	mov	ecx, DWORD PTR _this$[ebp]
	mov	DWORD PTR [ecx+12], eax

; 22   : 			m_AllPass[0].ps = m_pMtlTemplate->getCompiledVSPS(COMPILED_PS, "Main", env, macros);

	mov	edx, DWORD PTR _macros$[ebp]
	push	edx
	mov	eax, DWORD PTR _env$[ebp]
	push	eax
	push	OFFSET ??_C@_04KGFMLCPK@Main?$AA@
	push	2
	mov	ecx, DWORD PTR _this$[ebp]
	mov	ecx, DWORD PTR [ecx+8]
	call	?getCompiledVSPS@D3DMaterialTemplate@Ogre@@QAEPAVCompiledShader@2@W4COMPILED_TYPE@2@PBDABUShaderEnvFlags@2@ABUMaterialMacro@2@@Z ; Ogre::D3DMaterialTemplate::getCompiledVSPS
	mov	edx, DWORD PTR _this$[ebp]
	mov	DWORD PTR [edx+16], eax

; 23   : 
; 24   : 			m_AllPass[0].ntex = 1;

	mov	eax, DWORD PTR _this$[ebp]
	mov	DWORD PTR [eax+20], 1

; 25   : 			m_AllPass[0].texstage[0] = SPU_GENERAL_PARAM +0; //diffusetex

	mov	ecx, DWORD PTR _this$[ebp]
	mov	DWORD PTR [ecx+24], 1000		; 000003e8H

; 26   : 
; 27   : 			initParams();

	mov	ecx, DWORD PTR _this$[ebp]
	call	?initParams@D3DTech@Ogre@@IAEXXZ	; Ogre::D3DTech::initParams

; 28   : 			m_UsedMacroMask = 0;

	mov	edx, DWORD PTR _this$[ebp]
	mov	DWORD PTR [edx+4], 0

; 29   : 		}

	mov	esp, ebp
	pop	ebp
	ret	8
?init@D3DTech_Border_lod0@Ogre@@UAEXABUShaderEnvFlags@2@ABUMaterialMacro@2@@Z ENDP ; Ogre::D3DTech_Border_lod0::init
; Function compile flags: /Odtp
_TEXT	ENDS
;	COMDAT ?beginPass@D3DTech_Border_lod0@Ogre@@UAEXI@Z
_TEXT	SEGMENT
_this$ = -4						; size = 4
_ipass$ = 8						; size = 4
?beginPass@D3DTech_Border_lod0@Ogre@@UAEXI@Z PROC	; Ogre::D3DTech_Border_lod0::beginPass, COMDAT
; _this$ = ecx

; 32   : 		{

	push	ebp
	mov	ebp, esp
	push	ecx
	mov	DWORD PTR _this$[ebp], ecx

; 33   : 			m_CurPass = ipass;

	mov	eax, DWORD PTR _this$[ebp]
	mov	ecx, DWORD PTR _ipass$[ebp]
	mov	DWORD PTR [eax+192], ecx

; 34   : 
; 35   : 			m_pDevice->SetRenderState(D3DRS_COLORWRITEENABLE, (DWORD)0);

	push	0
	push	168					; 000000a8H
	mov	edx, DWORD PTR ?m_pDevice@D3DTech@Ogre@@2PAUIDirect3DDevice9@@A ; Ogre::D3DTech::m_pDevice
	mov	eax, DWORD PTR [edx]
	mov	ecx, DWORD PTR ?m_pDevice@D3DTech@Ogre@@2PAUIDirect3DDevice9@@A ; Ogre::D3DTech::m_pDevice
	push	ecx
	mov	edx, DWORD PTR [eax+228]
	call	edx

; 36   : 
; 37   : 			SetBlendState(m_pDevice, BLEND_ALPHATEST, 0);

	push	0
	push	1
	mov	eax, DWORD PTR ?m_pDevice@D3DTech@Ogre@@2PAUIDirect3DDevice9@@A ; Ogre::D3DTech::m_pDevice
	push	eax
	call	?SetBlendState@Ogre@@YAXPAUIDirect3DDevice9@@HH@Z ; Ogre::SetBlendState
	add	esp, 12					; 0000000cH

; 38   : 
; 39   : 			m_pDevice->SetRenderState(D3DRS_CULLMODE, D3DCULL_NONE);

	push	1
	push	22					; 00000016H
	mov	ecx, DWORD PTR ?m_pDevice@D3DTech@Ogre@@2PAUIDirect3DDevice9@@A ; Ogre::D3DTech::m_pDevice
	mov	edx, DWORD PTR [ecx]
	mov	eax, DWORD PTR ?m_pDevice@D3DTech@Ogre@@2PAUIDirect3DDevice9@@A ; Ogre::D3DTech::m_pDevice
	push	eax
	mov	ecx, DWORD PTR [edx+228]
	call	ecx

; 40   : 
; 41   : 			m_pDevice->SetRenderState(D3DRS_STENCILENABLE, true);

	push	1
	push	52					; 00000034H
	mov	edx, DWORD PTR ?m_pDevice@D3DTech@Ogre@@2PAUIDirect3DDevice9@@A ; Ogre::D3DTech::m_pDevice
	mov	eax, DWORD PTR [edx]
	mov	ecx, DWORD PTR ?m_pDevice@D3DTech@Ogre@@2PAUIDirect3DDevice9@@A ; Ogre::D3DTech::m_pDevice
	push	ecx
	mov	edx, DWORD PTR [eax+228]
	call	edx

; 42   : 			m_pDevice->SetRenderState(D3DRS_STENCILFUNC, D3DCMP_ALWAYS);

	push	8
	push	56					; 00000038H
	mov	eax, DWORD PTR ?m_pDevice@D3DTech@Ogre@@2PAUIDirect3DDevice9@@A ; Ogre::D3DTech::m_pDevice
	mov	ecx, DWORD PTR [eax]
	mov	edx, DWORD PTR ?m_pDevice@D3DTech@Ogre@@2PAUIDirect3DDevice9@@A ; Ogre::D3DTech::m_pDevice
	push	edx
	mov	eax, DWORD PTR [ecx+228]
	call	eax

; 43   : 			m_pDevice->SetRenderState(D3DRS_STENCILREF, (DWORD)1);

	push	1
	push	57					; 00000039H
	mov	ecx, DWORD PTR ?m_pDevice@D3DTech@Ogre@@2PAUIDirect3DDevice9@@A ; Ogre::D3DTech::m_pDevice
	mov	edx, DWORD PTR [ecx]
	mov	eax, DWORD PTR ?m_pDevice@D3DTech@Ogre@@2PAUIDirect3DDevice9@@A ; Ogre::D3DTech::m_pDevice
	push	eax
	mov	ecx, DWORD PTR [edx+228]
	call	ecx

; 44   : 			m_pDevice->SetRenderState(D3DRS_STENCILPASS, D3DSTENCILOP_REPLACE);

	push	3
	push	55					; 00000037H
	mov	edx, DWORD PTR ?m_pDevice@D3DTech@Ogre@@2PAUIDirect3DDevice9@@A ; Ogre::D3DTech::m_pDevice
	mov	eax, DWORD PTR [edx]
	mov	ecx, DWORD PTR ?m_pDevice@D3DTech@Ogre@@2PAUIDirect3DDevice9@@A ; Ogre::D3DTech::m_pDevice
	push	ecx
	mov	edx, DWORD PTR [eax+228]
	call	edx

; 45   : 			m_pDevice->SetRenderState(D3DRS_STENCILZFAIL, D3DSTENCILOP_KEEP);

	push	1
	push	54					; 00000036H
	mov	eax, DWORD PTR ?m_pDevice@D3DTech@Ogre@@2PAUIDirect3DDevice9@@A ; Ogre::D3DTech::m_pDevice
	mov	ecx, DWORD PTR [eax]
	mov	edx, DWORD PTR ?m_pDevice@D3DTech@Ogre@@2PAUIDirect3DDevice9@@A ; Ogre::D3DTech::m_pDevice
	push	edx
	mov	eax, DWORD PTR [ecx+228]
	call	eax

; 46   : 
; 47   : 			SamplerState_Wrap(m_pDevice, 0);

	push	0
	mov	ecx, DWORD PTR ?m_pDevice@D3DTech@Ogre@@2PAUIDirect3DDevice9@@A ; Ogre::D3DTech::m_pDevice
	push	ecx
	call	?SamplerState_Wrap@Ogre@@YAXPAUIDirect3DDevice9@@H@Z ; Ogre::SamplerState_Wrap
	add	esp, 8

; 48   : 
; 49   : 			applyVSPS(m_CurPass);

	mov	edx, DWORD PTR _this$[ebp]
	mov	eax, DWORD PTR [edx+192]
	push	eax
	mov	ecx, DWORD PTR _this$[ebp]
	call	?applyVSPS@D3DTech@Ogre@@IAEXI@Z	; Ogre::D3DTech::applyVSPS

; 50   : 		}

	mov	esp, ebp
	pop	ebp
	ret	4
?beginPass@D3DTech_Border_lod0@Ogre@@UAEXI@Z ENDP	; Ogre::D3DTech_Border_lod0::beginPass
; Function compile flags: /Odtp
_TEXT	ENDS
;	COMDAT ?endPass@D3DTech_Border_lod0@Ogre@@UAEXXZ
_TEXT	SEGMENT
_this$ = -4						; size = 4
?endPass@D3DTech_Border_lod0@Ogre@@UAEXXZ PROC		; Ogre::D3DTech_Border_lod0::endPass, COMDAT
; _this$ = ecx

; 53   : 		{

	push	ebp
	mov	ebp, esp
	push	ecx
	mov	DWORD PTR _this$[ebp], ecx

; 54   : 			m_pDevice->SetRenderState(D3DRS_COLORWRITEENABLE, 0xf);

	push	15					; 0000000fH
	push	168					; 000000a8H
	mov	eax, DWORD PTR ?m_pDevice@D3DTech@Ogre@@2PAUIDirect3DDevice9@@A ; Ogre::D3DTech::m_pDevice
	mov	ecx, DWORD PTR [eax]
	mov	edx, DWORD PTR ?m_pDevice@D3DTech@Ogre@@2PAUIDirect3DDevice9@@A ; Ogre::D3DTech::m_pDevice
	push	edx
	mov	eax, DWORD PTR [ecx+228]
	call	eax

; 55   : 		}

	mov	esp, ebp
	pop	ebp
	ret	0
?endPass@D3DTech_Border_lod0@Ogre@@UAEXXZ ENDP		; Ogre::D3DTech_Border_lod0::endPass
_TEXT	ENDS
PUBLIC	??1D3DTech_Border_lod0@Ogre@@UAE@XZ		; Ogre::D3DTech_Border_lod0::~D3DTech_Border_lod0
; Function compile flags: /Odtp
;	COMDAT ??_GD3DTech_Border_lod0@Ogre@@UAEPAXI@Z
_TEXT	SEGMENT
_this$ = -4						; size = 4
___flags$ = 8						; size = 4
??_GD3DTech_Border_lod0@Ogre@@UAEPAXI@Z PROC		; Ogre::D3DTech_Border_lod0::`scalar deleting destructor', COMDAT
; _this$ = ecx
	push	ebp
	mov	ebp, esp
	push	ecx
	mov	DWORD PTR _this$[ebp], ecx
	mov	ecx, DWORD PTR _this$[ebp]
	call	??1D3DTech_Border_lod0@Ogre@@UAE@XZ
	mov	eax, DWORD PTR ___flags$[ebp]
	and	eax, 1
	je	SHORT $LN1@scalar@4
	mov	ecx, DWORD PTR _this$[ebp]
	push	ecx
	call	??3@YAXPAX@Z				; operator delete
	add	esp, 4
$LN1@scalar@4:
	mov	eax, DWORD PTR _this$[ebp]
	mov	esp, ebp
	pop	ebp
	ret	4
??_GD3DTech_Border_lod0@Ogre@@UAEPAXI@Z ENDP		; Ogre::D3DTech_Border_lod0::`scalar deleting destructor'
_TEXT	ENDS
;	COMDAT xdata$x
xdata$x	SEGMENT
__unwindtable$??1D3DTech_Border_lod0@Ogre@@UAE@XZ DD 0ffffffffH
	DD	FLAT:__unwindfunclet$??1D3DTech_Border_lod0@Ogre@@UAE@XZ$0
__ehfuncinfo$??1D3DTech_Border_lod0@Ogre@@UAE@XZ DD 019930522H
	DD	01H
	DD	FLAT:__unwindtable$??1D3DTech_Border_lod0@Ogre@@UAE@XZ
	DD	2 DUP(00H)
	DD	2 DUP(00H)
	DD	00H
	DD	00H
; Function compile flags: /Odtp
xdata$x	ENDS
;	COMDAT ??1D3DTech_Border_lod0@Ogre@@UAE@XZ
_TEXT	SEGMENT
_this$ = -16						; size = 4
__$EHRec$ = -12						; size = 12
??1D3DTech_Border_lod0@Ogre@@UAE@XZ PROC		; Ogre::D3DTech_Border_lod0::~D3DTech_Border_lod0, COMDAT
; _this$ = ecx
	push	ebp
	mov	ebp, esp
	push	-1
	push	__ehhandler$??1D3DTech_Border_lod0@Ogre@@UAE@XZ
	mov	eax, DWORD PTR fs:0
	push	eax
	push	ecx
	mov	eax, DWORD PTR ___security_cookie
	xor	eax, ebp
	push	eax
	lea	eax, DWORD PTR __$EHRec$[ebp]
	mov	DWORD PTR fs:0, eax
	mov	DWORD PTR _this$[ebp], ecx
	mov	DWORD PTR __$EHRec$[ebp+8], 0
	mov	DWORD PTR __$EHRec$[ebp+8], -1
	mov	ecx, DWORD PTR _this$[ebp]
	call	??1D3DTech@Ogre@@UAE@XZ
	mov	ecx, DWORD PTR __$EHRec$[ebp]
	mov	DWORD PTR fs:0, ecx
	pop	ecx
	mov	esp, ebp
	pop	ebp
	ret	0
_TEXT	ENDS
;	COMDAT text$x
text$x	SEGMENT
__unwindfunclet$??1D3DTech_Border_lod0@Ogre@@UAE@XZ$0:
	mov	ecx, DWORD PTR _this$[ebp]
	jmp	??1D3DTech@Ogre@@UAE@XZ
__ehhandler$??1D3DTech_Border_lod0@Ogre@@UAE@XZ:
	mov	edx, DWORD PTR [esp+8]
	lea	eax, DWORD PTR [edx+12]
	mov	ecx, DWORD PTR [edx-8]
	xor	ecx, eax
	call	@__security_check_cookie@4
	mov	eax, OFFSET __ehfuncinfo$??1D3DTech_Border_lod0@Ogre@@UAE@XZ
	jmp	___CxxFrameHandler3
text$x	ENDS
??1D3DTech_Border_lod0@Ogre@@UAE@XZ ENDP		; Ogre::D3DTech_Border_lod0::~D3DTech_Border_lod0
PUBLIC	??_7D3DTech_Border1_lod0@Ogre@@6B@		; Ogre::D3DTech_Border1_lod0::`vftable'
PUBLIC	??_R4D3DTech_Border1_lod0@Ogre@@6B@		; Ogre::D3DTech_Border1_lod0::`RTTI Complete Object Locator'
PUBLIC	??_R0?AVD3DTech_Border1_lod0@Ogre@@@8		; Ogre::D3DTech_Border1_lod0 `RTTI Type Descriptor'
PUBLIC	??_R3D3DTech_Border1_lod0@Ogre@@8		; Ogre::D3DTech_Border1_lod0::`RTTI Class Hierarchy Descriptor'
PUBLIC	??_R2D3DTech_Border1_lod0@Ogre@@8		; Ogre::D3DTech_Border1_lod0::`RTTI Base Class Array'
PUBLIC	??_R1A@?0A@EA@D3DTech_Border1_lod0@Ogre@@8	; Ogre::D3DTech_Border1_lod0::`RTTI Base Class Descriptor at (0,-1,0,64)'
PUBLIC	?beginPass@D3DTech_Border1_lod0@Ogre@@UAEXI@Z	; Ogre::D3DTech_Border1_lod0::beginPass
PUBLIC	?endPass@D3DTech_Border1_lod0@Ogre@@UAEXXZ	; Ogre::D3DTech_Border1_lod0::endPass
PUBLIC	?clone@D3DTech_Border1_lod0@Ogre@@UAEPAVD3DTech@2@XZ ; Ogre::D3DTech_Border1_lod0::clone
PUBLIC	?init@D3DTech_Border1_lod0@Ogre@@UAEXABUShaderEnvFlags@2@ABUMaterialMacro@2@@Z ; Ogre::D3DTech_Border1_lod0::init
EXTRN	??_ED3DTech_Border1_lod0@Ogre@@UAEPAXI@Z:PROC	; Ogre::D3DTech_Border1_lod0::`vector deleting destructor'
;	COMDAT ??_R1A@?0A@EA@D3DTech_Border1_lod0@Ogre@@8
rdata$r	SEGMENT
??_R1A@?0A@EA@D3DTech_Border1_lod0@Ogre@@8 DD FLAT:??_R0?AVD3DTech_Border1_lod0@Ogre@@@8 ; Ogre::D3DTech_Border1_lod0::`RTTI Base Class Descriptor at (0,-1,0,64)'
	DD	02H
	DD	00H
	DD	0ffffffffH
	DD	00H
	DD	040H
	DD	FLAT:??_R3D3DTech_Border1_lod0@Ogre@@8
rdata$r	ENDS
;	COMDAT ??_R2D3DTech_Border1_lod0@Ogre@@8
rdata$r	SEGMENT
??_R2D3DTech_Border1_lod0@Ogre@@8 DD FLAT:??_R1A@?0A@EA@D3DTech_Border1_lod0@Ogre@@8 ; Ogre::D3DTech_Border1_lod0::`RTTI Base Class Array'
	DD	FLAT:??_R1A@?0A@EA@D3DTech@Ogre@@8
	DD	FLAT:??_R1A@?0A@EA@ShaderTechnique@Ogre@@8
rdata$r	ENDS
;	COMDAT ??_R3D3DTech_Border1_lod0@Ogre@@8
rdata$r	SEGMENT
??_R3D3DTech_Border1_lod0@Ogre@@8 DD 00H		; Ogre::D3DTech_Border1_lod0::`RTTI Class Hierarchy Descriptor'
	DD	00H
	DD	03H
	DD	FLAT:??_R2D3DTech_Border1_lod0@Ogre@@8
rdata$r	ENDS
;	COMDAT ??_R0?AVD3DTech_Border1_lod0@Ogre@@@8
_DATA	SEGMENT
??_R0?AVD3DTech_Border1_lod0@Ogre@@@8 DD FLAT:??_7type_info@@6B@ ; Ogre::D3DTech_Border1_lod0 `RTTI Type Descriptor'
	DD	00H
	DB	'.?AVD3DTech_Border1_lod0@Ogre@@', 00H
_DATA	ENDS
;	COMDAT ??_R4D3DTech_Border1_lod0@Ogre@@6B@
rdata$r	SEGMENT
??_R4D3DTech_Border1_lod0@Ogre@@6B@ DD 00H		; Ogre::D3DTech_Border1_lod0::`RTTI Complete Object Locator'
	DD	00H
	DD	00H
	DD	FLAT:??_R0?AVD3DTech_Border1_lod0@Ogre@@@8
	DD	FLAT:??_R3D3DTech_Border1_lod0@Ogre@@8
rdata$r	ENDS
;	COMDAT ??_7D3DTech_Border1_lod0@Ogre@@6B@
CONST	SEGMENT
??_7D3DTech_Border1_lod0@Ogre@@6B@ DD FLAT:??_R4D3DTech_Border1_lod0@Ogre@@6B@ ; Ogre::D3DTech_Border1_lod0::`vftable'
	DD	FLAT:?begin@D3DTech@Ogre@@UAEIXZ
	DD	FLAT:?end@D3DTech@Ogre@@UAEXXZ
	DD	FLAT:?beginPass@D3DTech_Border1_lod0@Ogre@@UAEXI@Z
	DD	FLAT:?endPass@D3DTech_Border1_lod0@Ogre@@UAEXXZ
	DD	FLAT:?setConstant@D3DTech@Ogre@@UAEXW4ShaderParamUsage@2@PBXI@Z
	DD	FLAT:?setConstant@D3DTech@Ogre@@UAEXPBDPBXI@Z
	DD	FLAT:?setTexture@D3DTech@Ogre@@UAEXW4ShaderParamUsage@2@PAVHardwarePixelBuffer@2@@Z
	DD	FLAT:?setTexture@D3DTech@Ogre@@UAEXPBDPAVHardwarePixelBuffer@2@@Z
	DD	FLAT:?setStreamInput@D3DTech@Ogre@@UAEXIPAPAVHardwareVertexBuffer@2@HPAI@Z
	DD	FLAT:?setStreamInput@D3DTech@Ogre@@UAEXIPAVHardwareVertexBuffer@2@I@Z
	DD	FLAT:?setStreamInput@D3DTech@Ogre@@UAEXIPAPAVHardwareVertexBuffer@2@PAI@Z
	DD	FLAT:?commitChanges@D3DTech@Ogre@@UAEXXZ
	DD	FLAT:?draw@D3DTech@Ogre@@UAEXW4PrimitiveType@2@IIPAVHardwareIndexBuffer@2@II@Z
	DD	FLAT:?draw@D3DTech@Ogre@@UAEXW4PrimitiveType@2@II@Z
	DD	FLAT:?getRequiredParams@D3DTech@Ogre@@UAEIPAW4ShaderParamUsage@2@I@Z
	DD	FLAT:??_ED3DTech_Border1_lod0@Ogre@@UAEPAXI@Z
	DD	FLAT:?clone@D3DTech_Border1_lod0@Ogre@@UAEPAVD3DTech@2@XZ
	DD	FLAT:?init@D3DTech_Border1_lod0@Ogre@@UAEXABUShaderEnvFlags@2@ABUMaterialMacro@2@@Z
CONST	ENDS
;	COMDAT xdata$x
xdata$x	SEGMENT
__unwindtable$??0D3DTech_Border1_lod0@Ogre@@QAE@XZ DD 0ffffffffH
	DD	FLAT:__unwindfunclet$??0D3DTech_Border1_lod0@Ogre@@QAE@XZ$0
__ehfuncinfo$??0D3DTech_Border1_lod0@Ogre@@QAE@XZ DD 019930522H
	DD	01H
	DD	FLAT:__unwindtable$??0D3DTech_Border1_lod0@Ogre@@QAE@XZ
	DD	2 DUP(00H)
	DD	2 DUP(00H)
	DD	00H
	DD	00H
; Function compile flags: /Odtp
xdata$x	ENDS
;	COMDAT ??0D3DTech_Border1_lod0@Ogre@@QAE@XZ
_TEXT	SEGMENT
_this$ = -16						; size = 4
__$EHRec$ = -12						; size = 12
??0D3DTech_Border1_lod0@Ogre@@QAE@XZ PROC		; Ogre::D3DTech_Border1_lod0::D3DTech_Border1_lod0, COMDAT
; _this$ = ecx
	push	ebp
	mov	ebp, esp
	push	-1
	push	__ehhandler$??0D3DTech_Border1_lod0@Ogre@@QAE@XZ
	mov	eax, DWORD PTR fs:0
	push	eax
	push	ecx
	mov	eax, DWORD PTR ___security_cookie
	xor	eax, ebp
	push	eax
	lea	eax, DWORD PTR __$EHRec$[ebp]
	mov	DWORD PTR fs:0, eax
	mov	DWORD PTR _this$[ebp], ecx
	mov	ecx, DWORD PTR _this$[ebp]
	call	??0D3DTech@Ogre@@QAE@XZ			; Ogre::D3DTech::D3DTech
	mov	DWORD PTR __$EHRec$[ebp+8], 0
	mov	eax, DWORD PTR _this$[ebp]
	mov	DWORD PTR [eax], OFFSET ??_7D3DTech_Border1_lod0@Ogre@@6B@
	mov	DWORD PTR __$EHRec$[ebp+8], -1
	mov	eax, DWORD PTR _this$[ebp]
	mov	ecx, DWORD PTR __$EHRec$[ebp]
	mov	DWORD PTR fs:0, ecx
	pop	ecx
	mov	esp, ebp
	pop	ebp
	ret	0
_TEXT	ENDS
;	COMDAT text$x
text$x	SEGMENT
__unwindfunclet$??0D3DTech_Border1_lod0@Ogre@@QAE@XZ$0:
	mov	ecx, DWORD PTR _this$[ebp]
	jmp	??1D3DTech@Ogre@@UAE@XZ
__ehhandler$??0D3DTech_Border1_lod0@Ogre@@QAE@XZ:
	mov	edx, DWORD PTR [esp+8]
	lea	eax, DWORD PTR [edx+12]
	mov	ecx, DWORD PTR [edx-8]
	xor	ecx, eax
	call	@__security_check_cookie@4
	mov	eax, OFFSET __ehfuncinfo$??0D3DTech_Border1_lod0@Ogre@@QAE@XZ
	jmp	___CxxFrameHandler3
text$x	ENDS
??0D3DTech_Border1_lod0@Ogre@@QAE@XZ ENDP		; Ogre::D3DTech_Border1_lod0::D3DTech_Border1_lod0
;	COMDAT xdata$x
xdata$x	SEGMENT
__unwindtable$?clone@D3DTech_Border1_lod0@Ogre@@UAEPAVD3DTech@2@XZ DD 0ffffffffH
	DD	FLAT:__unwindfunclet$?clone@D3DTech_Border1_lod0@Ogre@@UAEPAVD3DTech@2@XZ$0
__ehfuncinfo$?clone@D3DTech_Border1_lod0@Ogre@@UAEPAVD3DTech@2@XZ DD 019930522H
	DD	01H
	DD	FLAT:__unwindtable$?clone@D3DTech_Border1_lod0@Ogre@@UAEPAVD3DTech@2@XZ
	DD	2 DUP(00H)
	DD	2 DUP(00H)
	DD	00H
	DD	00H
; Function compile flags: /Odtp
xdata$x	ENDS
;	COMDAT ?clone@D3DTech_Border1_lod0@Ogre@@UAEPAVD3DTech@2@XZ
_TEXT	SEGMENT
tv74 = -28						; size = 4
_this$ = -24						; size = 4
$T139635 = -20						; size = 4
$T139634 = -16						; size = 4
__$EHRec$ = -12						; size = 12
?clone@D3DTech_Border1_lod0@Ogre@@UAEPAVD3DTech@2@XZ PROC ; Ogre::D3DTech_Border1_lod0::clone, COMDAT
; _this$ = ecx

; 62   : 		{

	push	ebp
	mov	ebp, esp
	push	-1
	push	__ehhandler$?clone@D3DTech_Border1_lod0@Ogre@@UAEPAVD3DTech@2@XZ
	mov	eax, DWORD PTR fs:0
	push	eax
	sub	esp, 16					; 00000010H
	mov	eax, DWORD PTR ___security_cookie
	xor	eax, ebp
	push	eax
	lea	eax, DWORD PTR __$EHRec$[ebp]
	mov	DWORD PTR fs:0, eax
	mov	DWORD PTR _this$[ebp], ecx

; 63   : 			return new D3DTech_Border1_lod0;

	push	392					; 00000188H
	call	??2@YAPAXI@Z				; operator new
	add	esp, 4
	mov	DWORD PTR $T139635[ebp], eax
	mov	DWORD PTR __$EHRec$[ebp+8], 0
	cmp	DWORD PTR $T139635[ebp], 0
	je	SHORT $LN3@clone@4
	mov	ecx, DWORD PTR $T139635[ebp]
	call	??0D3DTech_Border1_lod0@Ogre@@QAE@XZ
	mov	DWORD PTR tv74[ebp], eax
	jmp	SHORT $LN4@clone@4
$LN3@clone@4:
	mov	DWORD PTR tv74[ebp], 0
$LN4@clone@4:
	mov	eax, DWORD PTR tv74[ebp]
	mov	DWORD PTR $T139634[ebp], eax
	mov	DWORD PTR __$EHRec$[ebp+8], -1
	mov	eax, DWORD PTR $T139634[ebp]

; 64   : 		}

	mov	ecx, DWORD PTR __$EHRec$[ebp]
	mov	DWORD PTR fs:0, ecx
	pop	ecx
	mov	esp, ebp
	pop	ebp
	ret	0
_TEXT	ENDS
;	COMDAT text$x
text$x	SEGMENT
__unwindfunclet$?clone@D3DTech_Border1_lod0@Ogre@@UAEPAVD3DTech@2@XZ$0:
	mov	eax, DWORD PTR $T139635[ebp]
	push	eax
	call	??3@YAXPAX@Z				; operator delete
	pop	ecx
	ret	0
__ehhandler$?clone@D3DTech_Border1_lod0@Ogre@@UAEPAVD3DTech@2@XZ:
	mov	edx, DWORD PTR [esp+8]
	lea	eax, DWORD PTR [edx+12]
	mov	ecx, DWORD PTR [edx-20]
	xor	ecx, eax
	call	@__security_check_cookie@4
	mov	eax, OFFSET __ehfuncinfo$?clone@D3DTech_Border1_lod0@Ogre@@UAEPAVD3DTech@2@XZ
	jmp	___CxxFrameHandler3
text$x	ENDS
?clone@D3DTech_Border1_lod0@Ogre@@UAEPAVD3DTech@2@XZ ENDP ; Ogre::D3DTech_Border1_lod0::clone
PUBLIC	??_C@_05JLJDEAAC@Main1?$AA@			; `string'
;	COMDAT ??_C@_05JLJDEAAC@Main1?$AA@
CONST	SEGMENT
??_C@_05JLJDEAAC@Main1?$AA@ DB 'Main1', 00H		; `string'
; Function compile flags: /Odtp
CONST	ENDS
;	COMDAT ?init@D3DTech_Border1_lod0@Ogre@@UAEXABUShaderEnvFlags@2@ABUMaterialMacro@2@@Z
_TEXT	SEGMENT
_this$ = -4						; size = 4
_env$ = 8						; size = 4
_macros$ = 12						; size = 4
?init@D3DTech_Border1_lod0@Ogre@@UAEXABUShaderEnvFlags@2@ABUMaterialMacro@2@@Z PROC ; Ogre::D3DTech_Border1_lod0::init, COMDAT
; _this$ = ecx

; 67   : 		{

	push	ebp
	mov	ebp, esp
	push	ecx
	mov	DWORD PTR _this$[ebp], ecx

; 68   : 			m_nPass = 2;

	mov	eax, DWORD PTR _this$[ebp]
	mov	DWORD PTR [eax+188], 2

; 69   : 			m_AllPass[0].vs = m_pMtlTemplate->getCompiledVSPS(COMPILED_VS, "Main1", env, macros);

	mov	ecx, DWORD PTR _macros$[ebp]
	push	ecx
	mov	edx, DWORD PTR _env$[ebp]
	push	edx
	push	OFFSET ??_C@_05JLJDEAAC@Main1?$AA@
	push	1
	mov	eax, DWORD PTR _this$[ebp]
	mov	ecx, DWORD PTR [eax+8]
	call	?getCompiledVSPS@D3DMaterialTemplate@Ogre@@QAEPAVCompiledShader@2@W4COMPILED_TYPE@2@PBDABUShaderEnvFlags@2@ABUMaterialMacro@2@@Z ; Ogre::D3DMaterialTemplate::getCompiledVSPS
	mov	ecx, DWORD PTR _this$[ebp]
	mov	DWORD PTR [ecx+12], eax

; 70   : 			m_AllPass[0].ps = m_pMtlTemplate->getCompiledVSPS(COMPILED_PS, "Main1", env, macros);

	mov	edx, DWORD PTR _macros$[ebp]
	push	edx
	mov	eax, DWORD PTR _env$[ebp]
	push	eax
	push	OFFSET ??_C@_05JLJDEAAC@Main1?$AA@
	push	2
	mov	ecx, DWORD PTR _this$[ebp]
	mov	ecx, DWORD PTR [ecx+8]
	call	?getCompiledVSPS@D3DMaterialTemplate@Ogre@@QAEPAVCompiledShader@2@W4COMPILED_TYPE@2@PBDABUShaderEnvFlags@2@ABUMaterialMacro@2@@Z ; Ogre::D3DMaterialTemplate::getCompiledVSPS
	mov	edx, DWORD PTR _this$[ebp]
	mov	DWORD PTR [edx+16], eax

; 71   : 
; 72   : 			m_AllPass[0].ntex = 1;

	mov	eax, DWORD PTR _this$[ebp]
	mov	DWORD PTR [eax+20], 1

; 73   : 			m_AllPass[0].texstage[0] = SPU_GENERAL_PARAM + 0; //diffusetex\

	mov	ecx, DWORD PTR _this$[ebp]
	mov	DWORD PTR [ecx+24], 1000		; 000003e8H

; 74   : 			
; 75   : 			m_AllPass[1].vs = m_pMtlTemplate->getCompiledVSPS(COMPILED_VS, "Main", env, macros);

	mov	edx, DWORD PTR _macros$[ebp]
	push	edx
	mov	eax, DWORD PTR _env$[ebp]
	push	eax
	push	OFFSET ??_C@_04KGFMLCPK@Main?$AA@
	push	1
	mov	ecx, DWORD PTR _this$[ebp]
	mov	ecx, DWORD PTR [ecx+8]
	call	?getCompiledVSPS@D3DMaterialTemplate@Ogre@@QAEPAVCompiledShader@2@W4COMPILED_TYPE@2@PBDABUShaderEnvFlags@2@ABUMaterialMacro@2@@Z ; Ogre::D3DMaterialTemplate::getCompiledVSPS
	mov	edx, DWORD PTR _this$[ebp]
	mov	DWORD PTR [edx+56], eax

; 76   : 			m_AllPass[1].ps = m_pMtlTemplate->getCompiledVSPS(COMPILED_PS, "Main", env, macros);

	mov	eax, DWORD PTR _macros$[ebp]
	push	eax
	mov	ecx, DWORD PTR _env$[ebp]
	push	ecx
	push	OFFSET ??_C@_04KGFMLCPK@Main?$AA@
	push	2
	mov	edx, DWORD PTR _this$[ebp]
	mov	ecx, DWORD PTR [edx+8]
	call	?getCompiledVSPS@D3DMaterialTemplate@Ogre@@QAEPAVCompiledShader@2@W4COMPILED_TYPE@2@PBDABUShaderEnvFlags@2@ABUMaterialMacro@2@@Z ; Ogre::D3DMaterialTemplate::getCompiledVSPS
	mov	ecx, DWORD PTR _this$[ebp]
	mov	DWORD PTR [ecx+60], eax

; 77   : 
; 78   : 			m_AllPass[1].ntex = 1;

	mov	edx, DWORD PTR _this$[ebp]
	mov	DWORD PTR [edx+64], 1

; 79   : 			m_AllPass[1].texstage[0] = SPU_GENERAL_PARAM + 0; //diffusetex

	mov	eax, DWORD PTR _this$[ebp]
	mov	DWORD PTR [eax+68], 1000		; 000003e8H

; 80   : 
; 81   : 			initParams();

	mov	ecx, DWORD PTR _this$[ebp]
	call	?initParams@D3DTech@Ogre@@IAEXXZ	; Ogre::D3DTech::initParams

; 82   : 			m_UsedMacroMask = 0;

	mov	ecx, DWORD PTR _this$[ebp]
	mov	DWORD PTR [ecx+4], 0

; 83   : 		}

	mov	esp, ebp
	pop	ebp
	ret	8
?init@D3DTech_Border1_lod0@Ogre@@UAEXABUShaderEnvFlags@2@ABUMaterialMacro@2@@Z ENDP ; Ogre::D3DTech_Border1_lod0::init
; Function compile flags: /Odtp
_TEXT	ENDS
;	COMDAT ?beginPass@D3DTech_Border1_lod0@Ogre@@UAEXI@Z
_TEXT	SEGMENT
_this$ = -4						; size = 4
_ipass$ = 8						; size = 4
?beginPass@D3DTech_Border1_lod0@Ogre@@UAEXI@Z PROC	; Ogre::D3DTech_Border1_lod0::beginPass, COMDAT
; _this$ = ecx

; 86   : 		{

	push	ebp
	mov	ebp, esp
	push	ecx
	mov	DWORD PTR _this$[ebp], ecx

; 87   : 			m_CurPass = ipass;

	mov	eax, DWORD PTR _this$[ebp]
	mov	ecx, DWORD PTR _ipass$[ebp]
	mov	DWORD PTR [eax+192], ecx

; 88   : 
; 89   : 			m_pDevice->SetRenderState(D3DRS_STENCILENABLE, true);

	push	1
	push	52					; 00000034H
	mov	edx, DWORD PTR ?m_pDevice@D3DTech@Ogre@@2PAUIDirect3DDevice9@@A ; Ogre::D3DTech::m_pDevice
	mov	eax, DWORD PTR [edx]
	mov	ecx, DWORD PTR ?m_pDevice@D3DTech@Ogre@@2PAUIDirect3DDevice9@@A ; Ogre::D3DTech::m_pDevice
	push	ecx
	mov	edx, DWORD PTR [eax+228]
	call	edx

; 90   : 			m_pDevice->SetRenderState(D3DRS_STENCILFUNC, D3DCMP_NOTEQUAL);

	push	6
	push	56					; 00000038H
	mov	eax, DWORD PTR ?m_pDevice@D3DTech@Ogre@@2PAUIDirect3DDevice9@@A ; Ogre::D3DTech::m_pDevice
	mov	ecx, DWORD PTR [eax]
	mov	edx, DWORD PTR ?m_pDevice@D3DTech@Ogre@@2PAUIDirect3DDevice9@@A ; Ogre::D3DTech::m_pDevice
	push	edx
	mov	eax, DWORD PTR [ecx+228]
	call	eax

; 91   : 			m_pDevice->SetRenderState(D3DRS_STENCILREF, (DWORD)1);

	push	1
	push	57					; 00000039H
	mov	ecx, DWORD PTR ?m_pDevice@D3DTech@Ogre@@2PAUIDirect3DDevice9@@A ; Ogre::D3DTech::m_pDevice
	mov	edx, DWORD PTR [ecx]
	mov	eax, DWORD PTR ?m_pDevice@D3DTech@Ogre@@2PAUIDirect3DDevice9@@A ; Ogre::D3DTech::m_pDevice
	push	eax
	mov	ecx, DWORD PTR [edx+228]
	call	ecx

; 92   : 			m_pDevice->SetRenderState(D3DRS_STENCILPASS, D3DSTENCILOP_KEEP);

	push	1
	push	55					; 00000037H
	mov	edx, DWORD PTR ?m_pDevice@D3DTech@Ogre@@2PAUIDirect3DDevice9@@A ; Ogre::D3DTech::m_pDevice
	mov	eax, DWORD PTR [edx]
	mov	ecx, DWORD PTR ?m_pDevice@D3DTech@Ogre@@2PAUIDirect3DDevice9@@A ; Ogre::D3DTech::m_pDevice
	push	ecx
	mov	edx, DWORD PTR [eax+228]
	call	edx

; 93   : 			m_pDevice->SetRenderState(D3DRS_STENCILZFAIL, D3DSTENCILOP_KEEP);

	push	1
	push	54					; 00000036H
	mov	eax, DWORD PTR ?m_pDevice@D3DTech@Ogre@@2PAUIDirect3DDevice9@@A ; Ogre::D3DTech::m_pDevice
	mov	ecx, DWORD PTR [eax]
	mov	edx, DWORD PTR ?m_pDevice@D3DTech@Ogre@@2PAUIDirect3DDevice9@@A ; Ogre::D3DTech::m_pDevice
	push	edx
	mov	eax, DWORD PTR [ecx+228]
	call	eax

; 94   : 			m_pDevice->SetRenderState(D3DRS_COLORWRITEENABLE, 0xf);

	push	15					; 0000000fH
	push	168					; 000000a8H
	mov	ecx, DWORD PTR ?m_pDevice@D3DTech@Ogre@@2PAUIDirect3DDevice9@@A ; Ogre::D3DTech::m_pDevice
	mov	edx, DWORD PTR [ecx]
	mov	eax, DWORD PTR ?m_pDevice@D3DTech@Ogre@@2PAUIDirect3DDevice9@@A ; Ogre::D3DTech::m_pDevice
	push	eax
	mov	ecx, DWORD PTR [edx+228]
	call	ecx

; 95   : 			m_pDevice->SetRenderState(D3DRS_CULLMODE, D3DCULL_NONE);

	push	1
	push	22					; 00000016H
	mov	edx, DWORD PTR ?m_pDevice@D3DTech@Ogre@@2PAUIDirect3DDevice9@@A ; Ogre::D3DTech::m_pDevice
	mov	eax, DWORD PTR [edx]
	mov	ecx, DWORD PTR ?m_pDevice@D3DTech@Ogre@@2PAUIDirect3DDevice9@@A ; Ogre::D3DTech::m_pDevice
	push	ecx
	mov	edx, DWORD PTR [eax+228]
	call	edx

; 96   : 			m_pDevice->SetRenderState(D3DRS_ZENABLE, false);

	push	0
	push	7
	mov	eax, DWORD PTR ?m_pDevice@D3DTech@Ogre@@2PAUIDirect3DDevice9@@A ; Ogre::D3DTech::m_pDevice
	mov	ecx, DWORD PTR [eax]
	mov	edx, DWORD PTR ?m_pDevice@D3DTech@Ogre@@2PAUIDirect3DDevice9@@A ; Ogre::D3DTech::m_pDevice
	push	edx
	mov	eax, DWORD PTR [ecx+228]
	call	eax

; 97   : 
; 98   : 			SamplerState_Wrap(m_pDevice, 0);

	push	0
	mov	ecx, DWORD PTR ?m_pDevice@D3DTech@Ogre@@2PAUIDirect3DDevice9@@A ; Ogre::D3DTech::m_pDevice
	push	ecx
	call	?SamplerState_Wrap@Ogre@@YAXPAUIDirect3DDevice9@@H@Z ; Ogre::SamplerState_Wrap
	add	esp, 8

; 99   : 
; 100  : 			SetBlendState(m_pDevice, BLEND_ALPHABLEND);

	push	-1
	push	2
	mov	edx, DWORD PTR ?m_pDevice@D3DTech@Ogre@@2PAUIDirect3DDevice9@@A ; Ogre::D3DTech::m_pDevice
	push	edx
	call	?SetBlendState@Ogre@@YAXPAUIDirect3DDevice9@@HH@Z ; Ogre::SetBlendState
	add	esp, 12					; 0000000cH

; 101  : 			m_pDevice->SetRenderState(D3DRS_ALPHATESTENABLE, false);

	push	0
	push	15					; 0000000fH
	mov	eax, DWORD PTR ?m_pDevice@D3DTech@Ogre@@2PAUIDirect3DDevice9@@A ; Ogre::D3DTech::m_pDevice
	mov	ecx, DWORD PTR [eax]
	mov	edx, DWORD PTR ?m_pDevice@D3DTech@Ogre@@2PAUIDirect3DDevice9@@A ; Ogre::D3DTech::m_pDevice
	push	edx
	mov	eax, DWORD PTR [ecx+228]
	call	eax

; 102  : 
; 103  : 			applyVSPS(m_CurPass);

	mov	ecx, DWORD PTR _this$[ebp]
	mov	edx, DWORD PTR [ecx+192]
	push	edx
	mov	ecx, DWORD PTR _this$[ebp]
	call	?applyVSPS@D3DTech@Ogre@@IAEXI@Z	; Ogre::D3DTech::applyVSPS

; 104  : 
; 105  : 		}

	mov	esp, ebp
	pop	ebp
	ret	4
?beginPass@D3DTech_Border1_lod0@Ogre@@UAEXI@Z ENDP	; Ogre::D3DTech_Border1_lod0::beginPass
; Function compile flags: /Odtp
_TEXT	ENDS
;	COMDAT ?endPass@D3DTech_Border1_lod0@Ogre@@UAEXXZ
_TEXT	SEGMENT
_this$ = -4						; size = 4
?endPass@D3DTech_Border1_lod0@Ogre@@UAEXXZ PROC		; Ogre::D3DTech_Border1_lod0::endPass, COMDAT
; _this$ = ecx

; 108  : 		{

	push	ebp
	mov	ebp, esp
	push	ecx
	mov	DWORD PTR _this$[ebp], ecx

; 109  : 			m_pDevice->SetRenderState(D3DRS_STENCILENABLE, false);

	push	0
	push	52					; 00000034H
	mov	eax, DWORD PTR ?m_pDevice@D3DTech@Ogre@@2PAUIDirect3DDevice9@@A ; Ogre::D3DTech::m_pDevice
	mov	ecx, DWORD PTR [eax]
	mov	edx, DWORD PTR ?m_pDevice@D3DTech@Ogre@@2PAUIDirect3DDevice9@@A ; Ogre::D3DTech::m_pDevice
	push	edx
	mov	eax, DWORD PTR [ecx+228]
	call	eax

; 110  : 			SetBlendState(m_pDevice, BLEND_OPAQUE);

	push	-1
	push	0
	mov	ecx, DWORD PTR ?m_pDevice@D3DTech@Ogre@@2PAUIDirect3DDevice9@@A ; Ogre::D3DTech::m_pDevice
	push	ecx
	call	?SetBlendState@Ogre@@YAXPAUIDirect3DDevice9@@HH@Z ; Ogre::SetBlendState
	add	esp, 12					; 0000000cH

; 111  : 		}

	mov	esp, ebp
	pop	ebp
	ret	0
?endPass@D3DTech_Border1_lod0@Ogre@@UAEXXZ ENDP		; Ogre::D3DTech_Border1_lod0::endPass
_TEXT	ENDS
PUBLIC	??1D3DTech_Border1_lod0@Ogre@@UAE@XZ		; Ogre::D3DTech_Border1_lod0::~D3DTech_Border1_lod0
; Function compile flags: /Odtp
;	COMDAT ??_GD3DTech_Border1_lod0@Ogre@@UAEPAXI@Z
_TEXT	SEGMENT
_this$ = -4						; size = 4
___flags$ = 8						; size = 4
??_GD3DTech_Border1_lod0@Ogre@@UAEPAXI@Z PROC		; Ogre::D3DTech_Border1_lod0::`scalar deleting destructor', COMDAT
; _this$ = ecx
	push	ebp
	mov	ebp, esp
	push	ecx
	mov	DWORD PTR _this$[ebp], ecx
	mov	ecx, DWORD PTR _this$[ebp]
	call	??1D3DTech_Border1_lod0@Ogre@@UAE@XZ
	mov	eax, DWORD PTR ___flags$[ebp]
	and	eax, 1
	je	SHORT $LN1@scalar@5
	mov	ecx, DWORD PTR _this$[ebp]
	push	ecx
	call	??3@YAXPAX@Z				; operator delete
	add	esp, 4
$LN1@scalar@5:
	mov	eax, DWORD PTR _this$[ebp]
	mov	esp, ebp
	pop	ebp
	ret	4
??_GD3DTech_Border1_lod0@Ogre@@UAEPAXI@Z ENDP		; Ogre::D3DTech_Border1_lod0::`scalar deleting destructor'
_TEXT	ENDS
;	COMDAT xdata$x
xdata$x	SEGMENT
__unwindtable$??1D3DTech_Border1_lod0@Ogre@@UAE@XZ DD 0ffffffffH
	DD	FLAT:__unwindfunclet$??1D3DTech_Border1_lod0@Ogre@@UAE@XZ$0
__ehfuncinfo$??1D3DTech_Border1_lod0@Ogre@@UAE@XZ DD 019930522H
	DD	01H
	DD	FLAT:__unwindtable$??1D3DTech_Border1_lod0@Ogre@@UAE@XZ
	DD	2 DUP(00H)
	DD	2 DUP(00H)
	DD	00H
	DD	00H
; Function compile flags: /Odtp
xdata$x	ENDS
;	COMDAT ??1D3DTech_Border1_lod0@Ogre@@UAE@XZ
_TEXT	SEGMENT
_this$ = -16						; size = 4
__$EHRec$ = -12						; size = 12
??1D3DTech_Border1_lod0@Ogre@@UAE@XZ PROC		; Ogre::D3DTech_Border1_lod0::~D3DTech_Border1_lod0, COMDAT
; _this$ = ecx
	push	ebp
	mov	ebp, esp
	push	-1
	push	__ehhandler$??1D3DTech_Border1_lod0@Ogre@@UAE@XZ
	mov	eax, DWORD PTR fs:0
	push	eax
	push	ecx
	mov	eax, DWORD PTR ___security_cookie
	xor	eax, ebp
	push	eax
	lea	eax, DWORD PTR __$EHRec$[ebp]
	mov	DWORD PTR fs:0, eax
	mov	DWORD PTR _this$[ebp], ecx
	mov	DWORD PTR __$EHRec$[ebp+8], 0
	mov	DWORD PTR __$EHRec$[ebp+8], -1
	mov	ecx, DWORD PTR _this$[ebp]
	call	??1D3DTech@Ogre@@UAE@XZ
	mov	ecx, DWORD PTR __$EHRec$[ebp]
	mov	DWORD PTR fs:0, ecx
	pop	ecx
	mov	esp, ebp
	pop	ebp
	ret	0
_TEXT	ENDS
;	COMDAT text$x
text$x	SEGMENT
__unwindfunclet$??1D3DTech_Border1_lod0@Ogre@@UAE@XZ$0:
	mov	ecx, DWORD PTR _this$[ebp]
	jmp	??1D3DTech@Ogre@@UAE@XZ
__ehhandler$??1D3DTech_Border1_lod0@Ogre@@UAE@XZ:
	mov	edx, DWORD PTR [esp+8]
	lea	eax, DWORD PTR [edx+12]
	mov	ecx, DWORD PTR [edx-8]
	xor	ecx, eax
	call	@__security_check_cookie@4
	mov	eax, OFFSET __ehfuncinfo$??1D3DTech_Border1_lod0@Ogre@@UAE@XZ
	jmp	___CxxFrameHandler3
text$x	ENDS
??1D3DTech_Border1_lod0@Ogre@@UAE@XZ ENDP		; Ogre::D3DTech_Border1_lod0::~D3DTech_Border1_lod0
PUBLIC	??_7D3DTech_Overlay_lod0@Ogre@@6B@		; Ogre::D3DTech_Overlay_lod0::`vftable'
PUBLIC	??_R4D3DTech_Overlay_lod0@Ogre@@6B@		; Ogre::D3DTech_Overlay_lod0::`RTTI Complete Object Locator'
PUBLIC	??_R0?AVD3DTech_Overlay_lod0@Ogre@@@8		; Ogre::D3DTech_Overlay_lod0 `RTTI Type Descriptor'
PUBLIC	??_R3D3DTech_Overlay_lod0@Ogre@@8		; Ogre::D3DTech_Overlay_lod0::`RTTI Class Hierarchy Descriptor'
PUBLIC	??_R2D3DTech_Overlay_lod0@Ogre@@8		; Ogre::D3DTech_Overlay_lod0::`RTTI Base Class Array'
PUBLIC	??_R1A@?0A@EA@D3DTech_Overlay_lod0@Ogre@@8	; Ogre::D3DTech_Overlay_lod0::`RTTI Base Class Descriptor at (0,-1,0,64)'
PUBLIC	?beginPass@D3DTech_Overlay_lod0@Ogre@@UAEXI@Z	; Ogre::D3DTech_Overlay_lod0::beginPass
PUBLIC	?endPass@D3DTech_Overlay_lod0@Ogre@@UAEXXZ	; Ogre::D3DTech_Overlay_lod0::endPass
PUBLIC	?clone@D3DTech_Overlay_lod0@Ogre@@UAEPAVD3DTech@2@XZ ; Ogre::D3DTech_Overlay_lod0::clone
PUBLIC	?init@D3DTech_Overlay_lod0@Ogre@@UAEXABUShaderEnvFlags@2@ABUMaterialMacro@2@@Z ; Ogre::D3DTech_Overlay_lod0::init
EXTRN	??_ED3DTech_Overlay_lod0@Ogre@@UAEPAXI@Z:PROC	; Ogre::D3DTech_Overlay_lod0::`vector deleting destructor'
;	COMDAT ??_R1A@?0A@EA@D3DTech_Overlay_lod0@Ogre@@8
rdata$r	SEGMENT
??_R1A@?0A@EA@D3DTech_Overlay_lod0@Ogre@@8 DD FLAT:??_R0?AVD3DTech_Overlay_lod0@Ogre@@@8 ; Ogre::D3DTech_Overlay_lod0::`RTTI Base Class Descriptor at (0,-1,0,64)'
	DD	02H
	DD	00H
	DD	0ffffffffH
	DD	00H
	DD	040H
	DD	FLAT:??_R3D3DTech_Overlay_lod0@Ogre@@8
rdata$r	ENDS
;	COMDAT ??_R2D3DTech_Overlay_lod0@Ogre@@8
rdata$r	SEGMENT
??_R2D3DTech_Overlay_lod0@Ogre@@8 DD FLAT:??_R1A@?0A@EA@D3DTech_Overlay_lod0@Ogre@@8 ; Ogre::D3DTech_Overlay_lod0::`RTTI Base Class Array'
	DD	FLAT:??_R1A@?0A@EA@D3DTech@Ogre@@8
	DD	FLAT:??_R1A@?0A@EA@ShaderTechnique@Ogre@@8
rdata$r	ENDS
;	COMDAT ??_R3D3DTech_Overlay_lod0@Ogre@@8
rdata$r	SEGMENT
??_R3D3DTech_Overlay_lod0@Ogre@@8 DD 00H		; Ogre::D3DTech_Overlay_lod0::`RTTI Class Hierarchy Descriptor'
	DD	00H
	DD	03H
	DD	FLAT:??_R2D3DTech_Overlay_lod0@Ogre@@8
rdata$r	ENDS
;	COMDAT ??_R0?AVD3DTech_Overlay_lod0@Ogre@@@8
_DATA	SEGMENT
??_R0?AVD3DTech_Overlay_lod0@Ogre@@@8 DD FLAT:??_7type_info@@6B@ ; Ogre::D3DTech_Overlay_lod0 `RTTI Type Descriptor'
	DD	00H
	DB	'.?AVD3DTech_Overlay_lod0@Ogre@@', 00H
_DATA	ENDS
;	COMDAT ??_R4D3DTech_Overlay_lod0@Ogre@@6B@
rdata$r	SEGMENT
??_R4D3DTech_Overlay_lod0@Ogre@@6B@ DD 00H		; Ogre::D3DTech_Overlay_lod0::`RTTI Complete Object Locator'
	DD	00H
	DD	00H
	DD	FLAT:??_R0?AVD3DTech_Overlay_lod0@Ogre@@@8
	DD	FLAT:??_R3D3DTech_Overlay_lod0@Ogre@@8
rdata$r	ENDS
;	COMDAT ??_7D3DTech_Overlay_lod0@Ogre@@6B@
CONST	SEGMENT
??_7D3DTech_Overlay_lod0@Ogre@@6B@ DD FLAT:??_R4D3DTech_Overlay_lod0@Ogre@@6B@ ; Ogre::D3DTech_Overlay_lod0::`vftable'
	DD	FLAT:?begin@D3DTech@Ogre@@UAEIXZ
	DD	FLAT:?end@D3DTech@Ogre@@UAEXXZ
	DD	FLAT:?beginPass@D3DTech_Overlay_lod0@Ogre@@UAEXI@Z
	DD	FLAT:?endPass@D3DTech_Overlay_lod0@Ogre@@UAEXXZ
	DD	FLAT:?setConstant@D3DTech@Ogre@@UAEXW4ShaderParamUsage@2@PBXI@Z
	DD	FLAT:?setConstant@D3DTech@Ogre@@UAEXPBDPBXI@Z
	DD	FLAT:?setTexture@D3DTech@Ogre@@UAEXW4ShaderParamUsage@2@PAVHardwarePixelBuffer@2@@Z
	DD	FLAT:?setTexture@D3DTech@Ogre@@UAEXPBDPAVHardwarePixelBuffer@2@@Z
	DD	FLAT:?setStreamInput@D3DTech@Ogre@@UAEXIPAPAVHardwareVertexBuffer@2@HPAI@Z
	DD	FLAT:?setStreamInput@D3DTech@Ogre@@UAEXIPAVHardwareVertexBuffer@2@I@Z
	DD	FLAT:?setStreamInput@D3DTech@Ogre@@UAEXIPAPAVHardwareVertexBuffer@2@PAI@Z
	DD	FLAT:?commitChanges@D3DTech@Ogre@@UAEXXZ
	DD	FLAT:?draw@D3DTech@Ogre@@UAEXW4PrimitiveType@2@IIPAVHardwareIndexBuffer@2@II@Z
	DD	FLAT:?draw@D3DTech@Ogre@@UAEXW4PrimitiveType@2@II@Z
	DD	FLAT:?getRequiredParams@D3DTech@Ogre@@UAEIPAW4ShaderParamUsage@2@I@Z
	DD	FLAT:??_ED3DTech_Overlay_lod0@Ogre@@UAEPAXI@Z
	DD	FLAT:?clone@D3DTech_Overlay_lod0@Ogre@@UAEPAVD3DTech@2@XZ
	DD	FLAT:?init@D3DTech_Overlay_lod0@Ogre@@UAEXABUShaderEnvFlags@2@ABUMaterialMacro@2@@Z
CONST	ENDS
;	COMDAT xdata$x
xdata$x	SEGMENT
__unwindtable$??0D3DTech_Overlay_lod0@Ogre@@QAE@XZ DD 0ffffffffH
	DD	FLAT:__unwindfunclet$??0D3DTech_Overlay_lod0@Ogre@@QAE@XZ$0
__ehfuncinfo$??0D3DTech_Overlay_lod0@Ogre@@QAE@XZ DD 019930522H
	DD	01H
	DD	FLAT:__unwindtable$??0D3DTech_Overlay_lod0@Ogre@@QAE@XZ
	DD	2 DUP(00H)
	DD	2 DUP(00H)
	DD	00H
	DD	00H
; Function compile flags: /Odtp
xdata$x	ENDS
;	COMDAT ??0D3DTech_Overlay_lod0@Ogre@@QAE@XZ
_TEXT	SEGMENT
_this$ = -16						; size = 4
__$EHRec$ = -12						; size = 12
??0D3DTech_Overlay_lod0@Ogre@@QAE@XZ PROC		; Ogre::D3DTech_Overlay_lod0::D3DTech_Overlay_lod0, COMDAT
; _this$ = ecx
	push	ebp
	mov	ebp, esp
	push	-1
	push	__ehhandler$??0D3DTech_Overlay_lod0@Ogre@@QAE@XZ
	mov	eax, DWORD PTR fs:0
	push	eax
	push	ecx
	mov	eax, DWORD PTR ___security_cookie
	xor	eax, ebp
	push	eax
	lea	eax, DWORD PTR __$EHRec$[ebp]
	mov	DWORD PTR fs:0, eax
	mov	DWORD PTR _this$[ebp], ecx
	mov	ecx, DWORD PTR _this$[ebp]
	call	??0D3DTech@Ogre@@QAE@XZ			; Ogre::D3DTech::D3DTech
	mov	DWORD PTR __$EHRec$[ebp+8], 0
	mov	eax, DWORD PTR _this$[ebp]
	mov	DWORD PTR [eax], OFFSET ??_7D3DTech_Overlay_lod0@Ogre@@6B@
	mov	DWORD PTR __$EHRec$[ebp+8], -1
	mov	eax, DWORD PTR _this$[ebp]
	mov	ecx, DWORD PTR __$EHRec$[ebp]
	mov	DWORD PTR fs:0, ecx
	pop	ecx
	mov	esp, ebp
	pop	ebp
	ret	0
_TEXT	ENDS
;	COMDAT text$x
text$x	SEGMENT
__unwindfunclet$??0D3DTech_Overlay_lod0@Ogre@@QAE@XZ$0:
	mov	ecx, DWORD PTR _this$[ebp]
	jmp	??1D3DTech@Ogre@@UAE@XZ
__ehhandler$??0D3DTech_Overlay_lod0@Ogre@@QAE@XZ:
	mov	edx, DWORD PTR [esp+8]
	lea	eax, DWORD PTR [edx+12]
	mov	ecx, DWORD PTR [edx-8]
	xor	ecx, eax
	call	@__security_check_cookie@4
	mov	eax, OFFSET __ehfuncinfo$??0D3DTech_Overlay_lod0@Ogre@@QAE@XZ
	jmp	___CxxFrameHandler3
text$x	ENDS
??0D3DTech_Overlay_lod0@Ogre@@QAE@XZ ENDP		; Ogre::D3DTech_Overlay_lod0::D3DTech_Overlay_lod0
;	COMDAT xdata$x
; File i:\svnroot\client\plugins\rendersystem_d3d9\ogred3d9tech_overlay.h
xdata$x	SEGMENT
__unwindtable$?clone@D3DTech_Overlay_lod0@Ogre@@UAEPAVD3DTech@2@XZ DD 0ffffffffH
	DD	FLAT:__unwindfunclet$?clone@D3DTech_Overlay_lod0@Ogre@@UAEPAVD3DTech@2@XZ$0
__ehfuncinfo$?clone@D3DTech_Overlay_lod0@Ogre@@UAEPAVD3DTech@2@XZ DD 019930522H
	DD	01H
	DD	FLAT:__unwindtable$?clone@D3DTech_Overlay_lod0@Ogre@@UAEPAVD3DTech@2@XZ
	DD	2 DUP(00H)
	DD	2 DUP(00H)
	DD	00H
	DD	00H
; Function compile flags: /Odtp
xdata$x	ENDS
;	COMDAT ?clone@D3DTech_Overlay_lod0@Ogre@@UAEPAVD3DTech@2@XZ
_TEXT	SEGMENT
tv74 = -28						; size = 4
_this$ = -24						; size = 4
$T139674 = -20						; size = 4
$T139673 = -16						; size = 4
__$EHRec$ = -12						; size = 12
?clone@D3DTech_Overlay_lod0@Ogre@@UAEPAVD3DTech@2@XZ PROC ; Ogre::D3DTech_Overlay_lod0::clone, COMDAT
; _this$ = ecx

; 23   : 		{

	push	ebp
	mov	ebp, esp
	push	-1
	push	__ehhandler$?clone@D3DTech_Overlay_lod0@Ogre@@UAEPAVD3DTech@2@XZ
	mov	eax, DWORD PTR fs:0
	push	eax
	sub	esp, 16					; 00000010H
	mov	eax, DWORD PTR ___security_cookie
	xor	eax, ebp
	push	eax
	lea	eax, DWORD PTR __$EHRec$[ebp]
	mov	DWORD PTR fs:0, eax
	mov	DWORD PTR _this$[ebp], ecx

; 24   : 			return new D3DTech_Overlay_lod0;

	push	396					; 0000018cH
	call	??2@YAPAXI@Z				; operator new
	add	esp, 4
	mov	DWORD PTR $T139674[ebp], eax
	mov	DWORD PTR __$EHRec$[ebp+8], 0
	cmp	DWORD PTR $T139674[ebp], 0
	je	SHORT $LN3@clone@5
	mov	ecx, DWORD PTR $T139674[ebp]
	call	??0D3DTech_Overlay_lod0@Ogre@@QAE@XZ
	mov	DWORD PTR tv74[ebp], eax
	jmp	SHORT $LN4@clone@5
$LN3@clone@5:
	mov	DWORD PTR tv74[ebp], 0
$LN4@clone@5:
	mov	eax, DWORD PTR tv74[ebp]
	mov	DWORD PTR $T139673[ebp], eax
	mov	DWORD PTR __$EHRec$[ebp+8], -1
	mov	eax, DWORD PTR $T139673[ebp]

; 25   : 		}

	mov	ecx, DWORD PTR __$EHRec$[ebp]
	mov	DWORD PTR fs:0, ecx
	pop	ecx
	mov	esp, ebp
	pop	ebp
	ret	0
_TEXT	ENDS
;	COMDAT text$x
text$x	SEGMENT
__unwindfunclet$?clone@D3DTech_Overlay_lod0@Ogre@@UAEPAVD3DTech@2@XZ$0:
	mov	eax, DWORD PTR $T139674[ebp]
	push	eax
	call	??3@YAXPAX@Z				; operator delete
	pop	ecx
	ret	0
__ehhandler$?clone@D3DTech_Overlay_lod0@Ogre@@UAEPAVD3DTech@2@XZ:
	mov	edx, DWORD PTR [esp+8]
	lea	eax, DWORD PTR [edx+12]
	mov	ecx, DWORD PTR [edx-20]
	xor	ecx, eax
	call	@__security_check_cookie@4
	mov	eax, OFFSET __ehfuncinfo$?clone@D3DTech_Overlay_lod0@Ogre@@UAEPAVD3DTech@2@XZ
	jmp	___CxxFrameHandler3
text$x	ENDS
?clone@D3DTech_Overlay_lod0@Ogre@@UAEPAVD3DTech@2@XZ ENDP ; Ogre::D3DTech_Overlay_lod0::clone
; Function compile flags: /Odtp
;	COMDAT ?init@D3DTech_Overlay_lod0@Ogre@@UAEXABUShaderEnvFlags@2@ABUMaterialMacro@2@@Z
_TEXT	SEGMENT
_this$ = -12						; size = 4
_indx$132614 = -8					; size = 4
_i$132610 = -4						; size = 4
_env$ = 8						; size = 4
_macros$ = 12						; size = 4
?init@D3DTech_Overlay_lod0@Ogre@@UAEXABUShaderEnvFlags@2@ABUMaterialMacro@2@@Z PROC ; Ogre::D3DTech_Overlay_lod0::init, COMDAT
; _this$ = ecx

; 28   : 		{

	push	ebp
	mov	ebp, esp
	sub	esp, 12					; 0000000cH
	mov	DWORD PTR _this$[ebp], ecx

; 29   : 			m_BlendMode = 0;

	mov	eax, DWORD PTR _this$[ebp]
	mov	BYTE PTR [eax+392], 0

; 30   : 
; 31   : 			for(int i=0; i<MaterialMacro::MAX_MACRO; i++)

	mov	DWORD PTR _i$132610[ebp], 0
	jmp	SHORT $LN6@init@2
$LN5@init@2:
	mov	ecx, DWORD PTR _i$132610[ebp]
	add	ecx, 1
	mov	DWORD PTR _i$132610[ebp], ecx
$LN6@init@2:
	cmp	DWORD PTR _i$132610[ebp], 4
	jge	SHORT $LN4@init@2

; 32   : 			{
; 33   : 				int indx = macros.indices[i];

	mov	edx, DWORD PTR _macros$[ebp]
	add	edx, DWORD PTR _i$132610[ebp]
	movzx	eax, BYTE PTR [edx]
	mov	DWORD PTR _indx$132614[ebp], eax

; 34   : 				if(indx == 0) break;

	cmp	DWORD PTR _indx$132614[ebp], 0
	jne	SHORT $LN3@init@2
	jmp	SHORT $LN4@init@2
$LN3@init@2:

; 35   : 
; 36   : 				if(indx == MTLPARAM_BLEND_MODE)

	cmp	DWORD PTR _indx$132614[ebp], 1
	jne	SHORT $LN2@init@2

; 37   : 					m_BlendMode = macros.value[i];

	mov	ecx, DWORD PTR _macros$[ebp]
	add	ecx, DWORD PTR _i$132610[ebp]
	mov	edx, DWORD PTR _this$[ebp]
	mov	al, BYTE PTR [ecx+4]
	mov	BYTE PTR [edx+392], al
$LN2@init@2:

; 38   : 			}

	jmp	SHORT $LN5@init@2
$LN4@init@2:

; 39   : 
; 40   : 			if(env.model_xparent)

	mov	ecx, DWORD PTR _env$[ebp]
	mov	edx, DWORD PTR [ecx]
	shr	edx, 23					; 00000017H
	and	edx, 1
	je	SHORT $LN1@init@2

; 41   : 			{
; 42   : 				m_BlendMode = 2;

	mov	eax, DWORD PTR _this$[ebp]
	mov	BYTE PTR [eax+392], 2
$LN1@init@2:

; 43   : 			}
; 44   : 
; 45   : 			m_nPass = 1;

	mov	ecx, DWORD PTR _this$[ebp]
	mov	DWORD PTR [ecx+188], 1

; 46   : 			m_AllPass[0].vs = m_pMtlTemplate->getCompiledVSPS(COMPILED_VS, "Main", env, macros);

	mov	edx, DWORD PTR _macros$[ebp]
	push	edx
	mov	eax, DWORD PTR _env$[ebp]
	push	eax
	push	OFFSET ??_C@_04KGFMLCPK@Main?$AA@
	push	1
	mov	ecx, DWORD PTR _this$[ebp]
	mov	ecx, DWORD PTR [ecx+8]
	call	?getCompiledVSPS@D3DMaterialTemplate@Ogre@@QAEPAVCompiledShader@2@W4COMPILED_TYPE@2@PBDABUShaderEnvFlags@2@ABUMaterialMacro@2@@Z ; Ogre::D3DMaterialTemplate::getCompiledVSPS
	mov	edx, DWORD PTR _this$[ebp]
	mov	DWORD PTR [edx+12], eax

; 47   : 			m_AllPass[0].ps = m_pMtlTemplate->getCompiledVSPS(COMPILED_PS, "Main", env, macros);

	mov	eax, DWORD PTR _macros$[ebp]
	push	eax
	mov	ecx, DWORD PTR _env$[ebp]
	push	ecx
	push	OFFSET ??_C@_04KGFMLCPK@Main?$AA@
	push	2
	mov	edx, DWORD PTR _this$[ebp]
	mov	ecx, DWORD PTR [edx+8]
	call	?getCompiledVSPS@D3DMaterialTemplate@Ogre@@QAEPAVCompiledShader@2@W4COMPILED_TYPE@2@PBDABUShaderEnvFlags@2@ABUMaterialMacro@2@@Z ; Ogre::D3DMaterialTemplate::getCompiledVSPS
	mov	ecx, DWORD PTR _this$[ebp]
	mov	DWORD PTR [ecx+16], eax

; 48   : 
; 49   : 			m_AllPass[0].ntex = 1;

	mov	edx, DWORD PTR _this$[ebp]
	mov	DWORD PTR [edx+20], 1

; 50   : 			m_AllPass[0].texstage[0] = SPU_GENERAL_PARAM + 1; //diffusetex

	mov	eax, DWORD PTR _this$[ebp]
	mov	DWORD PTR [eax+24], 1001		; 000003e9H

; 51   : 
; 52   : 			initParams();

	mov	ecx, DWORD PTR _this$[ebp]
	call	?initParams@D3DTech@Ogre@@IAEXXZ	; Ogre::D3DTech::initParams

; 53   : 			m_UsedMacroMask = m_BlendMode;

	mov	ecx, DWORD PTR _this$[ebp]
	movzx	edx, BYTE PTR [ecx+392]
	mov	eax, DWORD PTR _this$[ebp]
	mov	DWORD PTR [eax+4], edx

; 54   : 		}

	mov	esp, ebp
	pop	ebp
	ret	8
?init@D3DTech_Overlay_lod0@Ogre@@UAEXABUShaderEnvFlags@2@ABUMaterialMacro@2@@Z ENDP ; Ogre::D3DTech_Overlay_lod0::init
; Function compile flags: /Odtp
_TEXT	ENDS
;	COMDAT ?beginPass@D3DTech_Overlay_lod0@Ogre@@UAEXI@Z
_TEXT	SEGMENT
_this$ = -4						; size = 4
_ipass$ = 8						; size = 4
?beginPass@D3DTech_Overlay_lod0@Ogre@@UAEXI@Z PROC	; Ogre::D3DTech_Overlay_lod0::beginPass, COMDAT
; _this$ = ecx

; 57   : 		{

	push	ebp
	mov	ebp, esp
	push	ecx
	mov	DWORD PTR _this$[ebp], ecx

; 58   : 			m_CurPass = ipass;

	mov	eax, DWORD PTR _this$[ebp]
	mov	ecx, DWORD PTR _ipass$[ebp]
	mov	DWORD PTR [eax+192], ecx

; 59   : 
; 60   : 			SetBlendState(m_pDevice, m_BlendMode, 0);

	push	0
	mov	edx, DWORD PTR _this$[ebp]
	movzx	eax, BYTE PTR [edx+392]
	push	eax
	mov	ecx, DWORD PTR ?m_pDevice@D3DTech@Ogre@@2PAUIDirect3DDevice9@@A ; Ogre::D3DTech::m_pDevice
	push	ecx
	call	?SetBlendState@Ogre@@YAXPAUIDirect3DDevice9@@HH@Z ; Ogre::SetBlendState
	add	esp, 12					; 0000000cH

; 61   : 			m_pDevice->SetRenderState(D3DRS_ZENABLE, TRUE);

	push	1
	push	7
	mov	edx, DWORD PTR ?m_pDevice@D3DTech@Ogre@@2PAUIDirect3DDevice9@@A ; Ogre::D3DTech::m_pDevice
	mov	eax, DWORD PTR [edx]
	mov	ecx, DWORD PTR ?m_pDevice@D3DTech@Ogre@@2PAUIDirect3DDevice9@@A ; Ogre::D3DTech::m_pDevice
	push	ecx
	mov	edx, DWORD PTR [eax+228]
	call	edx

; 62   : 			m_pDevice->SetRenderState(D3DRS_ZWRITEENABLE, false);

	push	0
	push	14					; 0000000eH
	mov	eax, DWORD PTR ?m_pDevice@D3DTech@Ogre@@2PAUIDirect3DDevice9@@A ; Ogre::D3DTech::m_pDevice
	mov	ecx, DWORD PTR [eax]
	mov	edx, DWORD PTR ?m_pDevice@D3DTech@Ogre@@2PAUIDirect3DDevice9@@A ; Ogre::D3DTech::m_pDevice
	push	edx
	mov	eax, DWORD PTR [ecx+228]
	call	eax

; 63   : 			m_pDevice->SetRenderState(D3DRS_ZFUNC, D3DCMP_EQUAL);

	push	3
	push	23					; 00000017H
	mov	ecx, DWORD PTR ?m_pDevice@D3DTech@Ogre@@2PAUIDirect3DDevice9@@A ; Ogre::D3DTech::m_pDevice
	mov	edx, DWORD PTR [ecx]
	mov	eax, DWORD PTR ?m_pDevice@D3DTech@Ogre@@2PAUIDirect3DDevice9@@A ; Ogre::D3DTech::m_pDevice
	push	eax
	mov	ecx, DWORD PTR [edx+228]
	call	ecx

; 64   : 			m_pDevice->SetRenderState(D3DRS_CULLMODE, D3DCULL_NONE);

	push	1
	push	22					; 00000016H
	mov	edx, DWORD PTR ?m_pDevice@D3DTech@Ogre@@2PAUIDirect3DDevice9@@A ; Ogre::D3DTech::m_pDevice
	mov	eax, DWORD PTR [edx]
	mov	ecx, DWORD PTR ?m_pDevice@D3DTech@Ogre@@2PAUIDirect3DDevice9@@A ; Ogre::D3DTech::m_pDevice
	push	ecx
	mov	edx, DWORD PTR [eax+228]
	call	edx

; 65   : 
; 66   : 			SamplerState_Wrap(m_pDevice, 0);

	push	0
	mov	eax, DWORD PTR ?m_pDevice@D3DTech@Ogre@@2PAUIDirect3DDevice9@@A ; Ogre::D3DTech::m_pDevice
	push	eax
	call	?SamplerState_Wrap@Ogre@@YAXPAUIDirect3DDevice9@@H@Z ; Ogre::SamplerState_Wrap
	add	esp, 8

; 67   : 
; 68   : 			applyVSPS(m_CurPass);

	mov	ecx, DWORD PTR _this$[ebp]
	mov	edx, DWORD PTR [ecx+192]
	push	edx
	mov	ecx, DWORD PTR _this$[ebp]
	call	?applyVSPS@D3DTech@Ogre@@IAEXI@Z	; Ogre::D3DTech::applyVSPS

; 69   : 		}

	mov	esp, ebp
	pop	ebp
	ret	4
?beginPass@D3DTech_Overlay_lod0@Ogre@@UAEXI@Z ENDP	; Ogre::D3DTech_Overlay_lod0::beginPass
; Function compile flags: /Odtp
_TEXT	ENDS
;	COMDAT ?endPass@D3DTech_Overlay_lod0@Ogre@@UAEXXZ
_TEXT	SEGMENT
_this$ = -4						; size = 4
?endPass@D3DTech_Overlay_lod0@Ogre@@UAEXXZ PROC		; Ogre::D3DTech_Overlay_lod0::endPass, COMDAT
; _this$ = ecx

; 72   : 		{

	push	ebp
	mov	ebp, esp
	push	ecx
	mov	DWORD PTR _this$[ebp], ecx

; 73   : 			m_pDevice->SetRenderState(D3DRS_CULLMODE, D3DCULL_CCW);

	push	3
	push	22					; 00000016H
	mov	eax, DWORD PTR ?m_pDevice@D3DTech@Ogre@@2PAUIDirect3DDevice9@@A ; Ogre::D3DTech::m_pDevice
	mov	ecx, DWORD PTR [eax]
	mov	edx, DWORD PTR ?m_pDevice@D3DTech@Ogre@@2PAUIDirect3DDevice9@@A ; Ogre::D3DTech::m_pDevice
	push	edx
	mov	eax, DWORD PTR [ecx+228]
	call	eax

; 74   : 			m_pDevice->SetRenderState(D3DRS_ZENABLE, TRUE);

	push	1
	push	7
	mov	ecx, DWORD PTR ?m_pDevice@D3DTech@Ogre@@2PAUIDirect3DDevice9@@A ; Ogre::D3DTech::m_pDevice
	mov	edx, DWORD PTR [ecx]
	mov	eax, DWORD PTR ?m_pDevice@D3DTech@Ogre@@2PAUIDirect3DDevice9@@A ; Ogre::D3DTech::m_pDevice
	push	eax
	mov	ecx, DWORD PTR [edx+228]
	call	ecx

; 75   : 			m_pDevice->SetRenderState(D3DRS_ZWRITEENABLE, true);

	push	1
	push	14					; 0000000eH
	mov	edx, DWORD PTR ?m_pDevice@D3DTech@Ogre@@2PAUIDirect3DDevice9@@A ; Ogre::D3DTech::m_pDevice
	mov	eax, DWORD PTR [edx]
	mov	ecx, DWORD PTR ?m_pDevice@D3DTech@Ogre@@2PAUIDirect3DDevice9@@A ; Ogre::D3DTech::m_pDevice
	push	ecx
	mov	edx, DWORD PTR [eax+228]
	call	edx

; 76   : 			m_pDevice->SetRenderState(D3DRS_ZFUNC, D3DCMP_LESSEQUAL);

	push	4
	push	23					; 00000017H
	mov	eax, DWORD PTR ?m_pDevice@D3DTech@Ogre@@2PAUIDirect3DDevice9@@A ; Ogre::D3DTech::m_pDevice
	mov	ecx, DWORD PTR [eax]
	mov	edx, DWORD PTR ?m_pDevice@D3DTech@Ogre@@2PAUIDirect3DDevice9@@A ; Ogre::D3DTech::m_pDevice
	push	edx
	mov	eax, DWORD PTR [ecx+228]
	call	eax

; 77   : 		}

	mov	esp, ebp
	pop	ebp
	ret	0
?endPass@D3DTech_Overlay_lod0@Ogre@@UAEXXZ ENDP		; Ogre::D3DTech_Overlay_lod0::endPass
_TEXT	ENDS
PUBLIC	??1D3DTech_Overlay_lod0@Ogre@@UAE@XZ		; Ogre::D3DTech_Overlay_lod0::~D3DTech_Overlay_lod0
; Function compile flags: /Odtp
;	COMDAT ??_GD3DTech_Overlay_lod0@Ogre@@UAEPAXI@Z
_TEXT	SEGMENT
_this$ = -4						; size = 4
___flags$ = 8						; size = 4
??_GD3DTech_Overlay_lod0@Ogre@@UAEPAXI@Z PROC		; Ogre::D3DTech_Overlay_lod0::`scalar deleting destructor', COMDAT
; _this$ = ecx
	push	ebp
	mov	ebp, esp
	push	ecx
	mov	DWORD PTR _this$[ebp], ecx
	mov	ecx, DWORD PTR _this$[ebp]
	call	??1D3DTech_Overlay_lod0@Ogre@@UAE@XZ
	mov	eax, DWORD PTR ___flags$[ebp]
	and	eax, 1
	je	SHORT $LN1@scalar@6
	mov	ecx, DWORD PTR _this$[ebp]
	push	ecx
	call	??3@YAXPAX@Z				; operator delete
	add	esp, 4
$LN1@scalar@6:
	mov	eax, DWORD PTR _this$[ebp]
	mov	esp, ebp
	pop	ebp
	ret	4
??_GD3DTech_Overlay_lod0@Ogre@@UAEPAXI@Z ENDP		; Ogre::D3DTech_Overlay_lod0::`scalar deleting destructor'
_TEXT	ENDS
;	COMDAT xdata$x
xdata$x	SEGMENT
__unwindtable$??1D3DTech_Overlay_lod0@Ogre@@UAE@XZ DD 0ffffffffH
	DD	FLAT:__unwindfunclet$??1D3DTech_Overlay_lod0@Ogre@@UAE@XZ$0
__ehfuncinfo$??1D3DTech_Overlay_lod0@Ogre@@UAE@XZ DD 019930522H
	DD	01H
	DD	FLAT:__unwindtable$??1D3DTech_Overlay_lod0@Ogre@@UAE@XZ
	DD	2 DUP(00H)
	DD	2 DUP(00H)
	DD	00H
	DD	00H
; Function compile flags: /Odtp
xdata$x	ENDS
;	COMDAT ??1D3DTech_Overlay_lod0@Ogre@@UAE@XZ
_TEXT	SEGMENT
_this$ = -16						; size = 4
__$EHRec$ = -12						; size = 12
??1D3DTech_Overlay_lod0@Ogre@@UAE@XZ PROC		; Ogre::D3DTech_Overlay_lod0::~D3DTech_Overlay_lod0, COMDAT
; _this$ = ecx
	push	ebp
	mov	ebp, esp
	push	-1
	push	__ehhandler$??1D3DTech_Overlay_lod0@Ogre@@UAE@XZ
	mov	eax, DWORD PTR fs:0
	push	eax
	push	ecx
	mov	eax, DWORD PTR ___security_cookie
	xor	eax, ebp
	push	eax
	lea	eax, DWORD PTR __$EHRec$[ebp]
	mov	DWORD PTR fs:0, eax
	mov	DWORD PTR _this$[ebp], ecx
	mov	DWORD PTR __$EHRec$[ebp+8], 0
	mov	DWORD PTR __$EHRec$[ebp+8], -1
	mov	ecx, DWORD PTR _this$[ebp]
	call	??1D3DTech@Ogre@@UAE@XZ
	mov	ecx, DWORD PTR __$EHRec$[ebp]
	mov	DWORD PTR fs:0, ecx
	pop	ecx
	mov	esp, ebp
	pop	ebp
	ret	0
_TEXT	ENDS
;	COMDAT text$x
text$x	SEGMENT
__unwindfunclet$??1D3DTech_Overlay_lod0@Ogre@@UAE@XZ$0:
	mov	ecx, DWORD PTR _this$[ebp]
	jmp	??1D3DTech@Ogre@@UAE@XZ
__ehhandler$??1D3DTech_Overlay_lod0@Ogre@@UAE@XZ:
	mov	edx, DWORD PTR [esp+8]
	lea	eax, DWORD PTR [edx+12]
	mov	ecx, DWORD PTR [edx-8]
	xor	ecx, eax
	call	@__security_check_cookie@4
	mov	eax, OFFSET __ehfuncinfo$??1D3DTech_Overlay_lod0@Ogre@@UAE@XZ
	jmp	___CxxFrameHandler3
text$x	ENDS
??1D3DTech_Overlay_lod0@Ogre@@UAE@XZ ENDP		; Ogre::D3DTech_Overlay_lod0::~D3DTech_Overlay_lod0
PUBLIC	??_7D3DTech_Particle_lod0@Ogre@@6B@		; Ogre::D3DTech_Particle_lod0::`vftable'
PUBLIC	??_R4D3DTech_Particle_lod0@Ogre@@6B@		; Ogre::D3DTech_Particle_lod0::`RTTI Complete Object Locator'
PUBLIC	??_R0?AVD3DTech_Particle_lod0@Ogre@@@8		; Ogre::D3DTech_Particle_lod0 `RTTI Type Descriptor'
PUBLIC	??_R3D3DTech_Particle_lod0@Ogre@@8		; Ogre::D3DTech_Particle_lod0::`RTTI Class Hierarchy Descriptor'
PUBLIC	??_R2D3DTech_Particle_lod0@Ogre@@8		; Ogre::D3DTech_Particle_lod0::`RTTI Base Class Array'
PUBLIC	??_R1A@?0A@EA@D3DTech_Particle_lod0@Ogre@@8	; Ogre::D3DTech_Particle_lod0::`RTTI Base Class Descriptor at (0,-1,0,64)'
PUBLIC	?begin@D3DTech_Particle_lod0@Ogre@@UAEIXZ	; Ogre::D3DTech_Particle_lod0::begin
PUBLIC	?end@D3DTech_Particle_lod0@Ogre@@UAEXXZ		; Ogre::D3DTech_Particle_lod0::end
PUBLIC	?beginPass@D3DTech_Particle_lod0@Ogre@@UAEXI@Z	; Ogre::D3DTech_Particle_lod0::beginPass
PUBLIC	?endPass@D3DTech_Particle_lod0@Ogre@@UAEXXZ	; Ogre::D3DTech_Particle_lod0::endPass
PUBLIC	?clone@D3DTech_Particle_lod0@Ogre@@UAEPAVD3DTech@2@XZ ; Ogre::D3DTech_Particle_lod0::clone
PUBLIC	?init@D3DTech_Particle_lod0@Ogre@@UAEXABUShaderEnvFlags@2@ABUMaterialMacro@2@@Z ; Ogre::D3DTech_Particle_lod0::init
EXTRN	??_ED3DTech_Particle_lod0@Ogre@@UAEPAXI@Z:PROC	; Ogre::D3DTech_Particle_lod0::`vector deleting destructor'
;	COMDAT ??_R1A@?0A@EA@D3DTech_Particle_lod0@Ogre@@8
rdata$r	SEGMENT
??_R1A@?0A@EA@D3DTech_Particle_lod0@Ogre@@8 DD FLAT:??_R0?AVD3DTech_Particle_lod0@Ogre@@@8 ; Ogre::D3DTech_Particle_lod0::`RTTI Base Class Descriptor at (0,-1,0,64)'
	DD	02H
	DD	00H
	DD	0ffffffffH
	DD	00H
	DD	040H
	DD	FLAT:??_R3D3DTech_Particle_lod0@Ogre@@8
rdata$r	ENDS
;	COMDAT ??_R2D3DTech_Particle_lod0@Ogre@@8
rdata$r	SEGMENT
??_R2D3DTech_Particle_lod0@Ogre@@8 DD FLAT:??_R1A@?0A@EA@D3DTech_Particle_lod0@Ogre@@8 ; Ogre::D3DTech_Particle_lod0::`RTTI Base Class Array'
	DD	FLAT:??_R1A@?0A@EA@D3DTech@Ogre@@8
	DD	FLAT:??_R1A@?0A@EA@ShaderTechnique@Ogre@@8
rdata$r	ENDS
;	COMDAT ??_R3D3DTech_Particle_lod0@Ogre@@8
rdata$r	SEGMENT
??_R3D3DTech_Particle_lod0@Ogre@@8 DD 00H		; Ogre::D3DTech_Particle_lod0::`RTTI Class Hierarchy Descriptor'
	DD	00H
	DD	03H
	DD	FLAT:??_R2D3DTech_Particle_lod0@Ogre@@8
rdata$r	ENDS
;	COMDAT ??_R0?AVD3DTech_Particle_lod0@Ogre@@@8
_DATA	SEGMENT
??_R0?AVD3DTech_Particle_lod0@Ogre@@@8 DD FLAT:??_7type_info@@6B@ ; Ogre::D3DTech_Particle_lod0 `RTTI Type Descriptor'
	DD	00H
	DB	'.?AVD3DTech_Particle_lod0@Ogre@@', 00H
_DATA	ENDS
;	COMDAT ??_R4D3DTech_Particle_lod0@Ogre@@6B@
rdata$r	SEGMENT
??_R4D3DTech_Particle_lod0@Ogre@@6B@ DD 00H		; Ogre::D3DTech_Particle_lod0::`RTTI Complete Object Locator'
	DD	00H
	DD	00H
	DD	FLAT:??_R0?AVD3DTech_Particle_lod0@Ogre@@@8
	DD	FLAT:??_R3D3DTech_Particle_lod0@Ogre@@8
rdata$r	ENDS
;	COMDAT ??_7D3DTech_Particle_lod0@Ogre@@6B@
CONST	SEGMENT
??_7D3DTech_Particle_lod0@Ogre@@6B@ DD FLAT:??_R4D3DTech_Particle_lod0@Ogre@@6B@ ; Ogre::D3DTech_Particle_lod0::`vftable'
	DD	FLAT:?begin@D3DTech_Particle_lod0@Ogre@@UAEIXZ
	DD	FLAT:?end@D3DTech_Particle_lod0@Ogre@@UAEXXZ
	DD	FLAT:?beginPass@D3DTech_Particle_lod0@Ogre@@UAEXI@Z
	DD	FLAT:?endPass@D3DTech_Particle_lod0@Ogre@@UAEXXZ
	DD	FLAT:?setConstant@D3DTech@Ogre@@UAEXW4ShaderParamUsage@2@PBXI@Z
	DD	FLAT:?setConstant@D3DTech@Ogre@@UAEXPBDPBXI@Z
	DD	FLAT:?setTexture@D3DTech@Ogre@@UAEXW4ShaderParamUsage@2@PAVHardwarePixelBuffer@2@@Z
	DD	FLAT:?setTexture@D3DTech@Ogre@@UAEXPBDPAVHardwarePixelBuffer@2@@Z
	DD	FLAT:?setStreamInput@D3DTech@Ogre@@UAEXIPAPAVHardwareVertexBuffer@2@HPAI@Z
	DD	FLAT:?setStreamInput@D3DTech@Ogre@@UAEXIPAVHardwareVertexBuffer@2@I@Z
	DD	FLAT:?setStreamInput@D3DTech@Ogre@@UAEXIPAPAVHardwareVertexBuffer@2@PAI@Z
	DD	FLAT:?commitChanges@D3DTech@Ogre@@UAEXXZ
	DD	FLAT:?draw@D3DTech@Ogre@@UAEXW4PrimitiveType@2@IIPAVHardwareIndexBuffer@2@II@Z
	DD	FLAT:?draw@D3DTech@Ogre@@UAEXW4PrimitiveType@2@II@Z
	DD	FLAT:?getRequiredParams@D3DTech@Ogre@@UAEIPAW4ShaderParamUsage@2@I@Z
	DD	FLAT:??_ED3DTech_Particle_lod0@Ogre@@UAEPAXI@Z
	DD	FLAT:?clone@D3DTech_Particle_lod0@Ogre@@UAEPAVD3DTech@2@XZ
	DD	FLAT:?init@D3DTech_Particle_lod0@Ogre@@UAEXABUShaderEnvFlags@2@ABUMaterialMacro@2@@Z
CONST	ENDS
;	COMDAT xdata$x
xdata$x	SEGMENT
__unwindtable$??0D3DTech_Particle_lod0@Ogre@@QAE@XZ DD 0ffffffffH
	DD	FLAT:__unwindfunclet$??0D3DTech_Particle_lod0@Ogre@@QAE@XZ$0
__ehfuncinfo$??0D3DTech_Particle_lod0@Ogre@@QAE@XZ DD 019930522H
	DD	01H
	DD	FLAT:__unwindtable$??0D3DTech_Particle_lod0@Ogre@@QAE@XZ
	DD	2 DUP(00H)
	DD	2 DUP(00H)
	DD	00H
	DD	00H
; Function compile flags: /Odtp
xdata$x	ENDS
;	COMDAT ??0D3DTech_Particle_lod0@Ogre@@QAE@XZ
_TEXT	SEGMENT
_this$ = -16						; size = 4
__$EHRec$ = -12						; size = 12
??0D3DTech_Particle_lod0@Ogre@@QAE@XZ PROC		; Ogre::D3DTech_Particle_lod0::D3DTech_Particle_lod0, COMDAT
; _this$ = ecx
	push	ebp
	mov	ebp, esp
	push	-1
	push	__ehhandler$??0D3DTech_Particle_lod0@Ogre@@QAE@XZ
	mov	eax, DWORD PTR fs:0
	push	eax
	push	ecx
	mov	eax, DWORD PTR ___security_cookie
	xor	eax, ebp
	push	eax
	lea	eax, DWORD PTR __$EHRec$[ebp]
	mov	DWORD PTR fs:0, eax
	mov	DWORD PTR _this$[ebp], ecx
	mov	ecx, DWORD PTR _this$[ebp]
	call	??0D3DTech@Ogre@@QAE@XZ			; Ogre::D3DTech::D3DTech
	mov	DWORD PTR __$EHRec$[ebp+8], 0
	mov	eax, DWORD PTR _this$[ebp]
	mov	DWORD PTR [eax], OFFSET ??_7D3DTech_Particle_lod0@Ogre@@6B@
	mov	DWORD PTR __$EHRec$[ebp+8], -1
	mov	eax, DWORD PTR _this$[ebp]
	mov	ecx, DWORD PTR __$EHRec$[ebp]
	mov	DWORD PTR fs:0, ecx
	pop	ecx
	mov	esp, ebp
	pop	ebp
	ret	0
_TEXT	ENDS
;	COMDAT text$x
text$x	SEGMENT
__unwindfunclet$??0D3DTech_Particle_lod0@Ogre@@QAE@XZ$0:
	mov	ecx, DWORD PTR _this$[ebp]
	jmp	??1D3DTech@Ogre@@UAE@XZ
__ehhandler$??0D3DTech_Particle_lod0@Ogre@@QAE@XZ:
	mov	edx, DWORD PTR [esp+8]
	lea	eax, DWORD PTR [edx+12]
	mov	ecx, DWORD PTR [edx-8]
	xor	ecx, eax
	call	@__security_check_cookie@4
	mov	eax, OFFSET __ehfuncinfo$??0D3DTech_Particle_lod0@Ogre@@QAE@XZ
	jmp	___CxxFrameHandler3
text$x	ENDS
??0D3DTech_Particle_lod0@Ogre@@QAE@XZ ENDP		; Ogre::D3DTech_Particle_lod0::D3DTech_Particle_lod0
;	COMDAT xdata$x
; File i:\svnroot\client\plugins\rendersystem_d3d9\ogred3d9tech_particle.h
xdata$x	SEGMENT
__unwindtable$?clone@D3DTech_Particle_lod0@Ogre@@UAEPAVD3DTech@2@XZ DD 0ffffffffH
	DD	FLAT:__unwindfunclet$?clone@D3DTech_Particle_lod0@Ogre@@UAEPAVD3DTech@2@XZ$0
__ehfuncinfo$?clone@D3DTech_Particle_lod0@Ogre@@UAEPAVD3DTech@2@XZ DD 019930522H
	DD	01H
	DD	FLAT:__unwindtable$?clone@D3DTech_Particle_lod0@Ogre@@UAEPAVD3DTech@2@XZ
	DD	2 DUP(00H)
	DD	2 DUP(00H)
	DD	00H
	DD	00H
; Function compile flags: /Odtp
xdata$x	ENDS
;	COMDAT ?clone@D3DTech_Particle_lod0@Ogre@@UAEPAVD3DTech@2@XZ
_TEXT	SEGMENT
tv74 = -28						; size = 4
_this$ = -24						; size = 4
$T139713 = -20						; size = 4
$T139712 = -16						; size = 4
__$EHRec$ = -12						; size = 12
?clone@D3DTech_Particle_lod0@Ogre@@UAEPAVD3DTech@2@XZ PROC ; Ogre::D3DTech_Particle_lod0::clone, COMDAT
; _this$ = ecx

; 29   : 		{

	push	ebp
	mov	ebp, esp
	push	-1
	push	__ehhandler$?clone@D3DTech_Particle_lod0@Ogre@@UAEPAVD3DTech@2@XZ
	mov	eax, DWORD PTR fs:0
	push	eax
	sub	esp, 16					; 00000010H
	mov	eax, DWORD PTR ___security_cookie
	xor	eax, ebp
	push	eax
	lea	eax, DWORD PTR __$EHRec$[ebp]
	mov	DWORD PTR fs:0, eax
	mov	DWORD PTR _this$[ebp], ecx

; 30   : 			return new D3DTech_Particle_lod0;

	push	396					; 0000018cH
	call	??2@YAPAXI@Z				; operator new
	add	esp, 4
	mov	DWORD PTR $T139713[ebp], eax
	mov	DWORD PTR __$EHRec$[ebp+8], 0
	cmp	DWORD PTR $T139713[ebp], 0
	je	SHORT $LN3@clone@6
	mov	ecx, DWORD PTR $T139713[ebp]
	call	??0D3DTech_Particle_lod0@Ogre@@QAE@XZ
	mov	DWORD PTR tv74[ebp], eax
	jmp	SHORT $LN4@clone@6
$LN3@clone@6:
	mov	DWORD PTR tv74[ebp], 0
$LN4@clone@6:
	mov	eax, DWORD PTR tv74[ebp]
	mov	DWORD PTR $T139712[ebp], eax
	mov	DWORD PTR __$EHRec$[ebp+8], -1
	mov	eax, DWORD PTR $T139712[ebp]

; 31   : 		}

	mov	ecx, DWORD PTR __$EHRec$[ebp]
	mov	DWORD PTR fs:0, ecx
	pop	ecx
	mov	esp, ebp
	pop	ebp
	ret	0
_TEXT	ENDS
;	COMDAT text$x
text$x	SEGMENT
__unwindfunclet$?clone@D3DTech_Particle_lod0@Ogre@@UAEPAVD3DTech@2@XZ$0:
	mov	eax, DWORD PTR $T139713[ebp]
	push	eax
	call	??3@YAXPAX@Z				; operator delete
	pop	ecx
	ret	0
__ehhandler$?clone@D3DTech_Particle_lod0@Ogre@@UAEPAVD3DTech@2@XZ:
	mov	edx, DWORD PTR [esp+8]
	lea	eax, DWORD PTR [edx+12]
	mov	ecx, DWORD PTR [edx-20]
	xor	ecx, eax
	call	@__security_check_cookie@4
	mov	eax, OFFSET __ehfuncinfo$?clone@D3DTech_Particle_lod0@Ogre@@UAEPAVD3DTech@2@XZ
	jmp	___CxxFrameHandler3
text$x	ENDS
?clone@D3DTech_Particle_lod0@Ogre@@UAEPAVD3DTech@2@XZ ENDP ; Ogre::D3DTech_Particle_lod0::clone
; Function compile flags: /Odtp
;	COMDAT ?init@D3DTech_Particle_lod0@Ogre@@UAEXABUShaderEnvFlags@2@ABUMaterialMacro@2@@Z
_TEXT	SEGMENT
_this$ = -12						; size = 4
_indx$132675 = -8					; size = 4
_i$132671 = -4						; size = 4
_env$ = 8						; size = 4
_macros$ = 12						; size = 4
?init@D3DTech_Particle_lod0@Ogre@@UAEXABUShaderEnvFlags@2@ABUMaterialMacro@2@@Z PROC ; Ogre::D3DTech_Particle_lod0::init, COMDAT
; _this$ = ecx

; 34   : 		{

	push	ebp
	mov	ebp, esp
	sub	esp, 12					; 0000000cH
	mov	DWORD PTR _this$[ebp], ecx

; 35   : 			m_BlendMode = m_MaskTexture = m_DiffuseSampleMode = m_MaskSampleMode = 0;

	mov	eax, DWORD PTR _this$[ebp]
	mov	BYTE PTR [eax+395], 0
	mov	ecx, DWORD PTR _this$[ebp]
	mov	BYTE PTR [ecx+394], 0
	mov	edx, DWORD PTR _this$[ebp]
	mov	BYTE PTR [edx+393], 0
	mov	eax, DWORD PTR _this$[ebp]
	mov	BYTE PTR [eax+392], 0

; 36   : 
; 37   : 			for(int i=0; i<MaterialMacro::MAX_MACRO; i++)

	mov	DWORD PTR _i$132671[ebp], 0
	jmp	SHORT $LN12@init@3
$LN11@init@3:
	mov	ecx, DWORD PTR _i$132671[ebp]
	add	ecx, 1
	mov	DWORD PTR _i$132671[ebp], ecx
$LN12@init@3:
	cmp	DWORD PTR _i$132671[ebp], 4
	jge	SHORT $LN10@init@3

; 38   : 			{
; 39   : 				int indx = macros.indices[i];

	mov	edx, DWORD PTR _macros$[ebp]
	add	edx, DWORD PTR _i$132671[ebp]
	movzx	eax, BYTE PTR [edx]
	mov	DWORD PTR _indx$132675[ebp], eax

; 40   : 				if(indx == 0) break;

	cmp	DWORD PTR _indx$132675[ebp], 0
	jne	SHORT $LN9@init@3
	jmp	SHORT $LN10@init@3
$LN9@init@3:

; 41   : 
; 42   : 				if(indx == MTLPARAM_BLEND_MODE) m_BlendMode = macros.value[i];

	cmp	DWORD PTR _indx$132675[ebp], 1
	jne	SHORT $LN8@init@3
	mov	ecx, DWORD PTR _macros$[ebp]
	add	ecx, DWORD PTR _i$132671[ebp]
	mov	edx, DWORD PTR _this$[ebp]
	mov	al, BYTE PTR [ecx+4]
	mov	BYTE PTR [edx+392], al
	jmp	SHORT $LN7@init@3
$LN8@init@3:

; 43   : 				else if(indx == MTLPARAM_MASK_TEXTURE) m_MaskTexture = macros.value[i];

	cmp	DWORD PTR _indx$132675[ebp], 2
	jne	SHORT $LN6@init@3
	mov	ecx, DWORD PTR _macros$[ebp]
	add	ecx, DWORD PTR _i$132671[ebp]
	mov	edx, DWORD PTR _this$[ebp]
	mov	al, BYTE PTR [ecx+4]
	mov	BYTE PTR [edx+393], al
	jmp	SHORT $LN7@init@3
$LN6@init@3:

; 44   : 				else if(indx == MTLPARAM_DIFFUSE_SAMPLEMODE) m_DiffuseSampleMode = macros.value[i];

	cmp	DWORD PTR _indx$132675[ebp], 3
	jne	SHORT $LN4@init@3
	mov	ecx, DWORD PTR _macros$[ebp]
	add	ecx, DWORD PTR _i$132671[ebp]
	mov	edx, DWORD PTR _this$[ebp]
	mov	al, BYTE PTR [ecx+4]
	mov	BYTE PTR [edx+394], al
	jmp	SHORT $LN7@init@3
$LN4@init@3:

; 45   : 				else if(indx == MTLPARAM_MASK_SAMPLEMODE) m_MaskSampleMode = macros.value[i];

	cmp	DWORD PTR _indx$132675[ebp], 4
	jne	SHORT $LN7@init@3
	mov	ecx, DWORD PTR _macros$[ebp]
	add	ecx, DWORD PTR _i$132671[ebp]
	mov	edx, DWORD PTR _this$[ebp]
	mov	al, BYTE PTR [ecx+4]
	mov	BYTE PTR [edx+395], al
$LN7@init@3:

; 46   : 			}

	jmp	$LN11@init@3
$LN10@init@3:

; 47   : 
; 48   : 			m_nPass = 1;

	mov	ecx, DWORD PTR _this$[ebp]
	mov	DWORD PTR [ecx+188], 1

; 49   : 			m_AllPass[0].vs = m_pMtlTemplate->getCompiledVSPS(COMPILED_VS, "Main", env, macros);

	mov	edx, DWORD PTR _macros$[ebp]
	push	edx
	mov	eax, DWORD PTR _env$[ebp]
	push	eax
	push	OFFSET ??_C@_04KGFMLCPK@Main?$AA@
	push	1
	mov	ecx, DWORD PTR _this$[ebp]
	mov	ecx, DWORD PTR [ecx+8]
	call	?getCompiledVSPS@D3DMaterialTemplate@Ogre@@QAEPAVCompiledShader@2@W4COMPILED_TYPE@2@PBDABUShaderEnvFlags@2@ABUMaterialMacro@2@@Z ; Ogre::D3DMaterialTemplate::getCompiledVSPS
	mov	edx, DWORD PTR _this$[ebp]
	mov	DWORD PTR [edx+12], eax

; 50   : 			m_AllPass[0].ps = NULL;

	mov	eax, DWORD PTR _this$[ebp]
	mov	DWORD PTR [eax+16], 0

; 51   : 
; 52   : 			m_AllPass[0].ntex = 1;

	mov	ecx, DWORD PTR _this$[ebp]
	mov	DWORD PTR [ecx+20], 1

; 53   : 			m_AllPass[0].texstage[0] = SPU_GENERAL_PARAM + 4; //diffusetex

	mov	edx, DWORD PTR _this$[ebp]
	mov	DWORD PTR [edx+24], 1004		; 000003ecH

; 54   : 
; 55   : 			if (m_MaskTexture)

	mov	eax, DWORD PTR _this$[ebp]
	movzx	ecx, BYTE PTR [eax+393]
	test	ecx, ecx
	je	SHORT $LN1@init@3

; 56   : 			{
; 57   : 				m_AllPass[0].ntex = 2;

	mov	edx, DWORD PTR _this$[ebp]
	mov	DWORD PTR [edx+20], 2

; 58   : 				m_AllPass[0].texstage[1] = SPU_GENERAL_PARAM + 5; //mask

	mov	eax, DWORD PTR _this$[ebp]
	mov	DWORD PTR [eax+28], 1005		; 000003edH
$LN1@init@3:

; 59   : 			}
; 60   : 
; 61   : 			initParams();

	mov	ecx, DWORD PTR _this$[ebp]
	call	?initParams@D3DTech@Ogre@@IAEXXZ	; Ogre::D3DTech::initParams

; 62   : 			m_UsedMacroMask = m_BlendMode|(m_MaskTexture<<8)|(m_DiffuseSampleMode<<16)|(m_MaskSampleMode<<24);

	mov	ecx, DWORD PTR _this$[ebp]
	movzx	edx, BYTE PTR [ecx+392]
	mov	eax, DWORD PTR _this$[ebp]
	movzx	ecx, BYTE PTR [eax+393]
	shl	ecx, 8
	or	edx, ecx
	mov	eax, DWORD PTR _this$[ebp]
	movzx	ecx, BYTE PTR [eax+394]
	shl	ecx, 16					; 00000010H
	or	edx, ecx
	mov	eax, DWORD PTR _this$[ebp]
	movzx	ecx, BYTE PTR [eax+395]
	shl	ecx, 24					; 00000018H
	or	edx, ecx
	mov	eax, DWORD PTR _this$[ebp]
	mov	DWORD PTR [eax+4], edx

; 63   : 		}

	mov	esp, ebp
	pop	ebp
	ret	8
?init@D3DTech_Particle_lod0@Ogre@@UAEXABUShaderEnvFlags@2@ABUMaterialMacro@2@@Z ENDP ; Ogre::D3DTech_Particle_lod0::init
; Function compile flags: /Odtp
_TEXT	ENDS
;	COMDAT ?begin@D3DTech_Particle_lod0@Ogre@@UAEIXZ
_TEXT	SEGMENT
_this$ = -4						; size = 4
?begin@D3DTech_Particle_lod0@Ogre@@UAEIXZ PROC		; Ogre::D3DTech_Particle_lod0::begin, COMDAT
; _this$ = ecx

; 66   : 		{

	push	ebp
	mov	ebp, esp
	push	ecx
	mov	DWORD PTR _this$[ebp], ecx

; 67   : 			return 1;

	mov	eax, 1

; 68   : 		}

	mov	esp, ebp
	pop	ebp
	ret	0
?begin@D3DTech_Particle_lod0@Ogre@@UAEIXZ ENDP		; Ogre::D3DTech_Particle_lod0::begin
; Function compile flags: /Odtp
_TEXT	ENDS
;	COMDAT ?end@D3DTech_Particle_lod0@Ogre@@UAEXXZ
_TEXT	SEGMENT
_this$ = -4						; size = 4
?end@D3DTech_Particle_lod0@Ogre@@UAEXXZ PROC		; Ogre::D3DTech_Particle_lod0::end, COMDAT
; _this$ = ecx

; 71   : 		{

	push	ebp
	mov	ebp, esp
	push	ecx
	mov	DWORD PTR _this$[ebp], ecx

; 72   : 
; 73   : 		}

	mov	esp, ebp
	pop	ebp
	ret	0
?end@D3DTech_Particle_lod0@Ogre@@UAEXXZ ENDP		; Ogre::D3DTech_Particle_lod0::end
_TEXT	ENDS
PUBLIC	?SamplerState_Clamp@Ogre@@YAXPAUIDirect3DDevice9@@H@Z ; Ogre::SamplerState_Clamp
; Function compile flags: /Odtp
;	COMDAT ?beginPass@D3DTech_Particle_lod0@Ogre@@UAEXI@Z
_TEXT	SEGMENT
_this$ = -4						; size = 4
_ipass$ = 8						; size = 4
?beginPass@D3DTech_Particle_lod0@Ogre@@UAEXI@Z PROC	; Ogre::D3DTech_Particle_lod0::beginPass, COMDAT
; _this$ = ecx

; 76   : 		{

	push	ebp
	mov	ebp, esp
	push	ecx
	mov	DWORD PTR _this$[ebp], ecx

; 77   : 			m_CurPass = ipass;

	mov	eax, DWORD PTR _this$[ebp]
	mov	ecx, DWORD PTR _ipass$[ebp]
	mov	DWORD PTR [eax+192], ecx

; 78   : 
; 79   : 			m_pDevice->SetRenderState(D3DRS_CULLMODE, D3DCULL_NONE);

	push	1
	push	22					; 00000016H
	mov	edx, DWORD PTR ?m_pDevice@D3DTech@Ogre@@2PAUIDirect3DDevice9@@A ; Ogre::D3DTech::m_pDevice
	mov	eax, DWORD PTR [edx]
	mov	ecx, DWORD PTR ?m_pDevice@D3DTech@Ogre@@2PAUIDirect3DDevice9@@A ; Ogre::D3DTech::m_pDevice
	push	ecx
	mov	edx, DWORD PTR [eax+228]
	call	edx

; 80   : 
; 81   : 			SetBlendState(m_pDevice, m_BlendMode);

	push	-1
	mov	eax, DWORD PTR _this$[ebp]
	movzx	ecx, BYTE PTR [eax+392]
	push	ecx
	mov	edx, DWORD PTR ?m_pDevice@D3DTech@Ogre@@2PAUIDirect3DDevice9@@A ; Ogre::D3DTech::m_pDevice
	push	edx
	call	?SetBlendState@Ogre@@YAXPAUIDirect3DDevice9@@HH@Z ; Ogre::SetBlendState
	add	esp, 12					; 0000000cH

; 82   : 
; 83   : 			if (m_BlendMode==0 || m_BlendMode==1)

	mov	eax, DWORD PTR _this$[ebp]
	movzx	ecx, BYTE PTR [eax+392]
	test	ecx, ecx
	je	SHORT $LN8@beginPass
	mov	edx, DWORD PTR _this$[ebp]
	movzx	eax, BYTE PTR [edx+392]
	cmp	eax, 1
	jne	SHORT $LN9@beginPass
$LN8@beginPass:

; 84   : 			{
; 85   : 				m_pDevice->SetRenderState(D3DRS_ZENABLE, true);

	push	1
	push	7
	mov	ecx, DWORD PTR ?m_pDevice@D3DTech@Ogre@@2PAUIDirect3DDevice9@@A ; Ogre::D3DTech::m_pDevice
	mov	edx, DWORD PTR [ecx]
	mov	eax, DWORD PTR ?m_pDevice@D3DTech@Ogre@@2PAUIDirect3DDevice9@@A ; Ogre::D3DTech::m_pDevice
	push	eax
	mov	ecx, DWORD PTR [edx+228]
	call	ecx

; 86   : 				m_pDevice->SetRenderState(D3DRS_ZWRITEENABLE, true);

	push	1
	push	14					; 0000000eH
	mov	edx, DWORD PTR ?m_pDevice@D3DTech@Ogre@@2PAUIDirect3DDevice9@@A ; Ogre::D3DTech::m_pDevice
	mov	eax, DWORD PTR [edx]
	mov	ecx, DWORD PTR ?m_pDevice@D3DTech@Ogre@@2PAUIDirect3DDevice9@@A ; Ogre::D3DTech::m_pDevice
	push	ecx
	mov	edx, DWORD PTR [eax+228]
	call	edx

; 87   : 			}
; 88   : 			else

	jmp	SHORT $LN7@beginPass
$LN9@beginPass:

; 89   : 			{
; 90   : 				m_pDevice->SetRenderState(D3DRS_ZENABLE, true);

	push	1
	push	7
	mov	eax, DWORD PTR ?m_pDevice@D3DTech@Ogre@@2PAUIDirect3DDevice9@@A ; Ogre::D3DTech::m_pDevice
	mov	ecx, DWORD PTR [eax]
	mov	edx, DWORD PTR ?m_pDevice@D3DTech@Ogre@@2PAUIDirect3DDevice9@@A ; Ogre::D3DTech::m_pDevice
	push	edx
	mov	eax, DWORD PTR [ecx+228]
	call	eax

; 91   : 				m_pDevice->SetRenderState(D3DRS_ZWRITEENABLE, false);

	push	0
	push	14					; 0000000eH
	mov	ecx, DWORD PTR ?m_pDevice@D3DTech@Ogre@@2PAUIDirect3DDevice9@@A ; Ogre::D3DTech::m_pDevice
	mov	edx, DWORD PTR [ecx]
	mov	eax, DWORD PTR ?m_pDevice@D3DTech@Ogre@@2PAUIDirect3DDevice9@@A ; Ogre::D3DTech::m_pDevice
	push	eax
	mov	ecx, DWORD PTR [edx+228]
	call	ecx
$LN7@beginPass:

; 92   : 			}
; 93   : 
; 94   : 			if (m_DiffuseSampleMode)

	mov	edx, DWORD PTR _this$[ebp]
	movzx	eax, BYTE PTR [edx+394]
	test	eax, eax
	je	SHORT $LN6@beginPass

; 95   : 				SamplerState_Clamp(m_pDevice, 0);

	push	0
	mov	ecx, DWORD PTR ?m_pDevice@D3DTech@Ogre@@2PAUIDirect3DDevice9@@A ; Ogre::D3DTech::m_pDevice
	push	ecx
	call	?SamplerState_Clamp@Ogre@@YAXPAUIDirect3DDevice9@@H@Z ; Ogre::SamplerState_Clamp
	add	esp, 8

; 96   : 			else

	jmp	SHORT $LN5@beginPass
$LN6@beginPass:

; 97   : 				SamplerState_Wrap(m_pDevice, 0);

	push	0
	mov	edx, DWORD PTR ?m_pDevice@D3DTech@Ogre@@2PAUIDirect3DDevice9@@A ; Ogre::D3DTech::m_pDevice
	push	edx
	call	?SamplerState_Wrap@Ogre@@YAXPAUIDirect3DDevice9@@H@Z ; Ogre::SamplerState_Wrap
	add	esp, 8
$LN5@beginPass:

; 98   : 
; 99   : 			m_pDevice->SetTextureStageState(0, D3DTSS_COLOROP, D3DTOP_MODULATE);

	push	4
	push	1
	push	0
	mov	eax, DWORD PTR ?m_pDevice@D3DTech@Ogre@@2PAUIDirect3DDevice9@@A ; Ogre::D3DTech::m_pDevice
	mov	ecx, DWORD PTR [eax]
	mov	edx, DWORD PTR ?m_pDevice@D3DTech@Ogre@@2PAUIDirect3DDevice9@@A ; Ogre::D3DTech::m_pDevice
	push	edx
	mov	eax, DWORD PTR [ecx+268]
	call	eax

; 100  : 			m_pDevice->SetTextureStageState(0, D3DTSS_ALPHAOP, D3DTOP_MODULATE);

	push	4
	push	4
	push	0
	mov	ecx, DWORD PTR ?m_pDevice@D3DTech@Ogre@@2PAUIDirect3DDevice9@@A ; Ogre::D3DTech::m_pDevice
	mov	edx, DWORD PTR [ecx]
	mov	eax, DWORD PTR ?m_pDevice@D3DTech@Ogre@@2PAUIDirect3DDevice9@@A ; Ogre::D3DTech::m_pDevice
	push	eax
	mov	ecx, DWORD PTR [edx+268]
	call	ecx

; 101  : 
; 102  : 			if(m_MaskTexture)

	mov	edx, DWORD PTR _this$[ebp]
	movzx	eax, BYTE PTR [edx+393]
	test	eax, eax
	je	$LN4@beginPass

; 103  : 			{
; 104  : 				if (m_MaskSampleMode)

	mov	ecx, DWORD PTR _this$[ebp]
	movzx	edx, BYTE PTR [ecx+395]
	test	edx, edx
	je	SHORT $LN3@beginPass

; 105  : 					SamplerState_Clamp(m_pDevice, 1);

	push	1
	mov	eax, DWORD PTR ?m_pDevice@D3DTech@Ogre@@2PAUIDirect3DDevice9@@A ; Ogre::D3DTech::m_pDevice
	push	eax
	call	?SamplerState_Clamp@Ogre@@YAXPAUIDirect3DDevice9@@H@Z ; Ogre::SamplerState_Clamp
	add	esp, 8

; 106  : 				else

	jmp	SHORT $LN2@beginPass
$LN3@beginPass:

; 107  : 					SamplerState_Wrap(m_pDevice, 1);

	push	1
	mov	ecx, DWORD PTR ?m_pDevice@D3DTech@Ogre@@2PAUIDirect3DDevice9@@A ; Ogre::D3DTech::m_pDevice
	push	ecx
	call	?SamplerState_Wrap@Ogre@@YAXPAUIDirect3DDevice9@@H@Z ; Ogre::SamplerState_Wrap
	add	esp, 8
$LN2@beginPass:

; 108  : 
; 109  : 				m_pDevice->SetTextureStageState(1, D3DTSS_COLOROP, D3DTOP_MODULATE);

	push	4
	push	1
	push	1
	mov	edx, DWORD PTR ?m_pDevice@D3DTech@Ogre@@2PAUIDirect3DDevice9@@A ; Ogre::D3DTech::m_pDevice
	mov	eax, DWORD PTR [edx]
	mov	ecx, DWORD PTR ?m_pDevice@D3DTech@Ogre@@2PAUIDirect3DDevice9@@A ; Ogre::D3DTech::m_pDevice
	push	ecx
	mov	edx, DWORD PTR [eax+268]
	call	edx

; 110  : 				m_pDevice->SetTextureStageState(1, D3DTSS_ALPHAOP, D3DTOP_MODULATE);

	push	4
	push	4
	push	1
	mov	eax, DWORD PTR ?m_pDevice@D3DTech@Ogre@@2PAUIDirect3DDevice9@@A ; Ogre::D3DTech::m_pDevice
	mov	ecx, DWORD PTR [eax]
	mov	edx, DWORD PTR ?m_pDevice@D3DTech@Ogre@@2PAUIDirect3DDevice9@@A ; Ogre::D3DTech::m_pDevice
	push	edx
	mov	eax, DWORD PTR [ecx+268]
	call	eax

; 111  : 				m_pDevice->SetTextureStageState(2, D3DTSS_COLOROP, D3DTOP_DISABLE);

	push	1
	push	1
	push	2
	mov	ecx, DWORD PTR ?m_pDevice@D3DTech@Ogre@@2PAUIDirect3DDevice9@@A ; Ogre::D3DTech::m_pDevice
	mov	edx, DWORD PTR [ecx]
	mov	eax, DWORD PTR ?m_pDevice@D3DTech@Ogre@@2PAUIDirect3DDevice9@@A ; Ogre::D3DTech::m_pDevice
	push	eax
	mov	ecx, DWORD PTR [edx+268]
	call	ecx
	jmp	SHORT $LN1@beginPass
$LN4@beginPass:

; 112  : 			}
; 113  : 			else m_pDevice->SetTextureStageState(1, D3DTSS_COLOROP, D3DTOP_DISABLE);

	push	1
	push	1
	push	1
	mov	edx, DWORD PTR ?m_pDevice@D3DTech@Ogre@@2PAUIDirect3DDevice9@@A ; Ogre::D3DTech::m_pDevice
	mov	eax, DWORD PTR [edx]
	mov	ecx, DWORD PTR ?m_pDevice@D3DTech@Ogre@@2PAUIDirect3DDevice9@@A ; Ogre::D3DTech::m_pDevice
	push	ecx
	mov	edx, DWORD PTR [eax+268]
	call	edx
$LN1@beginPass:

; 114  : 
; 115  : 			applyVSPS(m_CurPass);

	mov	eax, DWORD PTR _this$[ebp]
	mov	ecx, DWORD PTR [eax+192]
	push	ecx
	mov	ecx, DWORD PTR _this$[ebp]
	call	?applyVSPS@D3DTech@Ogre@@IAEXI@Z	; Ogre::D3DTech::applyVSPS

; 116  : 		}

	mov	esp, ebp
	pop	ebp
	ret	4
?beginPass@D3DTech_Particle_lod0@Ogre@@UAEXI@Z ENDP	; Ogre::D3DTech_Particle_lod0::beginPass
; Function compile flags: /Odtp
; File i:\svnroot\client\plugins\rendersystem_d3d9\ogred3d9technique.h
_TEXT	ENDS
;	COMDAT ?SamplerState_Clamp@Ogre@@YAXPAUIDirect3DDevice9@@H@Z
_TEXT	SEGMENT
_pdevice$ = 8						; size = 4
_stage$ = 12						; size = 4
?SamplerState_Clamp@Ogre@@YAXPAUIDirect3DDevice9@@H@Z PROC ; Ogre::SamplerState_Clamp, COMDAT

; 98   : 	{

	push	ebp
	mov	ebp, esp

; 99   : 		pdevice->SetSamplerState(stage, D3DSAMP_ADDRESSU, D3DTADDRESS_CLAMP);

	push	3
	push	1
	mov	eax, DWORD PTR _stage$[ebp]
	push	eax
	mov	ecx, DWORD PTR _pdevice$[ebp]
	mov	edx, DWORD PTR [ecx]
	mov	eax, DWORD PTR _pdevice$[ebp]
	push	eax
	mov	ecx, DWORD PTR [edx+276]
	call	ecx

; 100  : 		pdevice->SetSamplerState(stage, D3DSAMP_ADDRESSV, D3DTADDRESS_CLAMP);

	push	3
	push	2
	mov	edx, DWORD PTR _stage$[ebp]
	push	edx
	mov	eax, DWORD PTR _pdevice$[ebp]
	mov	ecx, DWORD PTR [eax]
	mov	edx, DWORD PTR _pdevice$[ebp]
	push	edx
	mov	eax, DWORD PTR [ecx+276]
	call	eax

; 101  : 		pdevice->SetSamplerState(stage, D3DSAMP_MIPFILTER, D3DTEXF_POINT);

	push	1
	push	7
	mov	ecx, DWORD PTR _stage$[ebp]
	push	ecx
	mov	edx, DWORD PTR _pdevice$[ebp]
	mov	eax, DWORD PTR [edx]
	mov	ecx, DWORD PTR _pdevice$[ebp]
	push	ecx
	mov	edx, DWORD PTR [eax+276]
	call	edx

; 102  : 		pdevice->SetSamplerState(stage, D3DSAMP_MINFILTER, D3DTEXF_LINEAR);

	push	2
	push	6
	mov	eax, DWORD PTR _stage$[ebp]
	push	eax
	mov	ecx, DWORD PTR _pdevice$[ebp]
	mov	edx, DWORD PTR [ecx]
	mov	eax, DWORD PTR _pdevice$[ebp]
	push	eax
	mov	ecx, DWORD PTR [edx+276]
	call	ecx

; 103  : 		pdevice->SetSamplerState(stage, D3DSAMP_MAGFILTER, D3DTEXF_LINEAR);

	push	2
	push	5
	mov	edx, DWORD PTR _stage$[ebp]
	push	edx
	mov	eax, DWORD PTR _pdevice$[ebp]
	mov	ecx, DWORD PTR [eax]
	mov	edx, DWORD PTR _pdevice$[ebp]
	push	edx
	mov	eax, DWORD PTR [ecx+276]
	call	eax

; 104  : 	}

	pop	ebp
	ret	0
?SamplerState_Clamp@Ogre@@YAXPAUIDirect3DDevice9@@H@Z ENDP ; Ogre::SamplerState_Clamp
; Function compile flags: /Odtp
; File i:\svnroot\client\plugins\rendersystem_d3d9\ogred3d9tech_particle.h
_TEXT	ENDS
;	COMDAT ?endPass@D3DTech_Particle_lod0@Ogre@@UAEXXZ
_TEXT	SEGMENT
_this$ = -4						; size = 4
?endPass@D3DTech_Particle_lod0@Ogre@@UAEXXZ PROC	; Ogre::D3DTech_Particle_lod0::endPass, COMDAT
; _this$ = ecx

; 119  : 		{

	push	ebp
	mov	ebp, esp
	push	ecx
	mov	DWORD PTR _this$[ebp], ecx

; 120  : 		}

	mov	esp, ebp
	pop	ebp
	ret	0
?endPass@D3DTech_Particle_lod0@Ogre@@UAEXXZ ENDP	; Ogre::D3DTech_Particle_lod0::endPass
_TEXT	ENDS
PUBLIC	??1D3DTech_Particle_lod0@Ogre@@UAE@XZ		; Ogre::D3DTech_Particle_lod0::~D3DTech_Particle_lod0
; Function compile flags: /Odtp
;	COMDAT ??_GD3DTech_Particle_lod0@Ogre@@UAEPAXI@Z
_TEXT	SEGMENT
_this$ = -4						; size = 4
___flags$ = 8						; size = 4
??_GD3DTech_Particle_lod0@Ogre@@UAEPAXI@Z PROC		; Ogre::D3DTech_Particle_lod0::`scalar deleting destructor', COMDAT
; _this$ = ecx
	push	ebp
	mov	ebp, esp
	push	ecx
	mov	DWORD PTR _this$[ebp], ecx
	mov	ecx, DWORD PTR _this$[ebp]
	call	??1D3DTech_Particle_lod0@Ogre@@UAE@XZ
	mov	eax, DWORD PTR ___flags$[ebp]
	and	eax, 1
	je	SHORT $LN1@scalar@7
	mov	ecx, DWORD PTR _this$[ebp]
	push	ecx
	call	??3@YAXPAX@Z				; operator delete
	add	esp, 4
$LN1@scalar@7:
	mov	eax, DWORD PTR _this$[ebp]
	mov	esp, ebp
	pop	ebp
	ret	4
??_GD3DTech_Particle_lod0@Ogre@@UAEPAXI@Z ENDP		; Ogre::D3DTech_Particle_lod0::`scalar deleting destructor'
_TEXT	ENDS
;	COMDAT xdata$x
xdata$x	SEGMENT
__unwindtable$??1D3DTech_Particle_lod0@Ogre@@UAE@XZ DD 0ffffffffH
	DD	FLAT:__unwindfunclet$??1D3DTech_Particle_lod0@Ogre@@UAE@XZ$0
__ehfuncinfo$??1D3DTech_Particle_lod0@Ogre@@UAE@XZ DD 019930522H
	DD	01H
	DD	FLAT:__unwindtable$??1D3DTech_Particle_lod0@Ogre@@UAE@XZ
	DD	2 DUP(00H)
	DD	2 DUP(00H)
	DD	00H
	DD	00H
; Function compile flags: /Odtp
xdata$x	ENDS
;	COMDAT ??1D3DTech_Particle_lod0@Ogre@@UAE@XZ
_TEXT	SEGMENT
_this$ = -16						; size = 4
__$EHRec$ = -12						; size = 12
??1D3DTech_Particle_lod0@Ogre@@UAE@XZ PROC		; Ogre::D3DTech_Particle_lod0::~D3DTech_Particle_lod0, COMDAT
; _this$ = ecx
	push	ebp
	mov	ebp, esp
	push	-1
	push	__ehhandler$??1D3DTech_Particle_lod0@Ogre@@UAE@XZ
	mov	eax, DWORD PTR fs:0
	push	eax
	push	ecx
	mov	eax, DWORD PTR ___security_cookie
	xor	eax, ebp
	push	eax
	lea	eax, DWORD PTR __$EHRec$[ebp]
	mov	DWORD PTR fs:0, eax
	mov	DWORD PTR _this$[ebp], ecx
	mov	DWORD PTR __$EHRec$[ebp+8], 0
	mov	DWORD PTR __$EHRec$[ebp+8], -1
	mov	ecx, DWORD PTR _this$[ebp]
	call	??1D3DTech@Ogre@@UAE@XZ
	mov	ecx, DWORD PTR __$EHRec$[ebp]
	mov	DWORD PTR fs:0, ecx
	pop	ecx
	mov	esp, ebp
	pop	ebp
	ret	0
_TEXT	ENDS
;	COMDAT text$x
text$x	SEGMENT
__unwindfunclet$??1D3DTech_Particle_lod0@Ogre@@UAE@XZ$0:
	mov	ecx, DWORD PTR _this$[ebp]
	jmp	??1D3DTech@Ogre@@UAE@XZ
__ehhandler$??1D3DTech_Particle_lod0@Ogre@@UAE@XZ:
	mov	edx, DWORD PTR [esp+8]
	lea	eax, DWORD PTR [edx+12]
	mov	ecx, DWORD PTR [edx-8]
	xor	ecx, eax
	call	@__security_check_cookie@4
	mov	eax, OFFSET __ehfuncinfo$??1D3DTech_Particle_lod0@Ogre@@UAE@XZ
	jmp	___CxxFrameHandler3
text$x	ENDS
??1D3DTech_Particle_lod0@Ogre@@UAE@XZ ENDP		; Ogre::D3DTech_Particle_lod0::~D3DTech_Particle_lod0
PUBLIC	??_7D3DTech_particle_distort@Ogre@@6B@		; Ogre::D3DTech_particle_distort::`vftable'
PUBLIC	??_R4D3DTech_particle_distort@Ogre@@6B@		; Ogre::D3DTech_particle_distort::`RTTI Complete Object Locator'
PUBLIC	??_R0?AVD3DTech_particle_distort@Ogre@@@8	; Ogre::D3DTech_particle_distort `RTTI Type Descriptor'
PUBLIC	??_R3D3DTech_particle_distort@Ogre@@8		; Ogre::D3DTech_particle_distort::`RTTI Class Hierarchy Descriptor'
PUBLIC	??_R2D3DTech_particle_distort@Ogre@@8		; Ogre::D3DTech_particle_distort::`RTTI Base Class Array'
PUBLIC	??_R1A@?0A@EA@D3DTech_particle_distort@Ogre@@8	; Ogre::D3DTech_particle_distort::`RTTI Base Class Descriptor at (0,-1,0,64)'
PUBLIC	?beginPass@D3DTech_particle_distort@Ogre@@UAEXI@Z ; Ogre::D3DTech_particle_distort::beginPass
PUBLIC	?endPass@D3DTech_particle_distort@Ogre@@UAEXXZ	; Ogre::D3DTech_particle_distort::endPass
PUBLIC	?clone@D3DTech_particle_distort@Ogre@@UAEPAVD3DTech@2@XZ ; Ogre::D3DTech_particle_distort::clone
PUBLIC	?init@D3DTech_particle_distort@Ogre@@UAEXABUShaderEnvFlags@2@ABUMaterialMacro@2@@Z ; Ogre::D3DTech_particle_distort::init
EXTRN	??_ED3DTech_particle_distort@Ogre@@UAEPAXI@Z:PROC ; Ogre::D3DTech_particle_distort::`vector deleting destructor'
;	COMDAT ??_R1A@?0A@EA@D3DTech_particle_distort@Ogre@@8
rdata$r	SEGMENT
??_R1A@?0A@EA@D3DTech_particle_distort@Ogre@@8 DD FLAT:??_R0?AVD3DTech_particle_distort@Ogre@@@8 ; Ogre::D3DTech_particle_distort::`RTTI Base Class Descriptor at (0,-1,0,64)'
	DD	02H
	DD	00H
	DD	0ffffffffH
	DD	00H
	DD	040H
	DD	FLAT:??_R3D3DTech_particle_distort@Ogre@@8
rdata$r	ENDS
;	COMDAT ??_R2D3DTech_particle_distort@Ogre@@8
rdata$r	SEGMENT
??_R2D3DTech_particle_distort@Ogre@@8 DD FLAT:??_R1A@?0A@EA@D3DTech_particle_distort@Ogre@@8 ; Ogre::D3DTech_particle_distort::`RTTI Base Class Array'
	DD	FLAT:??_R1A@?0A@EA@D3DTech@Ogre@@8
	DD	FLAT:??_R1A@?0A@EA@ShaderTechnique@Ogre@@8
rdata$r	ENDS
;	COMDAT ??_R3D3DTech_particle_distort@Ogre@@8
rdata$r	SEGMENT
??_R3D3DTech_particle_distort@Ogre@@8 DD 00H		; Ogre::D3DTech_particle_distort::`RTTI Class Hierarchy Descriptor'
	DD	00H
	DD	03H
	DD	FLAT:??_R2D3DTech_particle_distort@Ogre@@8
rdata$r	ENDS
;	COMDAT ??_R0?AVD3DTech_particle_distort@Ogre@@@8
_DATA	SEGMENT
??_R0?AVD3DTech_particle_distort@Ogre@@@8 DD FLAT:??_7type_info@@6B@ ; Ogre::D3DTech_particle_distort `RTTI Type Descriptor'
	DD	00H
	DB	'.?AVD3DTech_particle_distort@Ogre@@', 00H
_DATA	ENDS
;	COMDAT ??_R4D3DTech_particle_distort@Ogre@@6B@
rdata$r	SEGMENT
??_R4D3DTech_particle_distort@Ogre@@6B@ DD 00H		; Ogre::D3DTech_particle_distort::`RTTI Complete Object Locator'
	DD	00H
	DD	00H
	DD	FLAT:??_R0?AVD3DTech_particle_distort@Ogre@@@8
	DD	FLAT:??_R3D3DTech_particle_distort@Ogre@@8
rdata$r	ENDS
;	COMDAT ??_7D3DTech_particle_distort@Ogre@@6B@
CONST	SEGMENT
??_7D3DTech_particle_distort@Ogre@@6B@ DD FLAT:??_R4D3DTech_particle_distort@Ogre@@6B@ ; Ogre::D3DTech_particle_distort::`vftable'
	DD	FLAT:?begin@D3DTech@Ogre@@UAEIXZ
	DD	FLAT:?end@D3DTech@Ogre@@UAEXXZ
	DD	FLAT:?beginPass@D3DTech_particle_distort@Ogre@@UAEXI@Z
	DD	FLAT:?endPass@D3DTech_particle_distort@Ogre@@UAEXXZ
	DD	FLAT:?setConstant@D3DTech@Ogre@@UAEXW4ShaderParamUsage@2@PBXI@Z
	DD	FLAT:?setConstant@D3DTech@Ogre@@UAEXPBDPBXI@Z
	DD	FLAT:?setTexture@D3DTech@Ogre@@UAEXW4ShaderParamUsage@2@PAVHardwarePixelBuffer@2@@Z
	DD	FLAT:?setTexture@D3DTech@Ogre@@UAEXPBDPAVHardwarePixelBuffer@2@@Z
	DD	FLAT:?setStreamInput@D3DTech@Ogre@@UAEXIPAPAVHardwareVertexBuffer@2@HPAI@Z
	DD	FLAT:?setStreamInput@D3DTech@Ogre@@UAEXIPAVHardwareVertexBuffer@2@I@Z
	DD	FLAT:?setStreamInput@D3DTech@Ogre@@UAEXIPAPAVHardwareVertexBuffer@2@PAI@Z
	DD	FLAT:?commitChanges@D3DTech@Ogre@@UAEXXZ
	DD	FLAT:?draw@D3DTech@Ogre@@UAEXW4PrimitiveType@2@IIPAVHardwareIndexBuffer@2@II@Z
	DD	FLAT:?draw@D3DTech@Ogre@@UAEXW4PrimitiveType@2@II@Z
	DD	FLAT:?getRequiredParams@D3DTech@Ogre@@UAEIPAW4ShaderParamUsage@2@I@Z
	DD	FLAT:??_ED3DTech_particle_distort@Ogre@@UAEPAXI@Z
	DD	FLAT:?clone@D3DTech_particle_distort@Ogre@@UAEPAVD3DTech@2@XZ
	DD	FLAT:?init@D3DTech_particle_distort@Ogre@@UAEXABUShaderEnvFlags@2@ABUMaterialMacro@2@@Z
CONST	ENDS
;	COMDAT xdata$x
xdata$x	SEGMENT
__unwindtable$??0D3DTech_particle_distort@Ogre@@QAE@XZ DD 0ffffffffH
	DD	FLAT:__unwindfunclet$??0D3DTech_particle_distort@Ogre@@QAE@XZ$0
__ehfuncinfo$??0D3DTech_particle_distort@Ogre@@QAE@XZ DD 019930522H
	DD	01H
	DD	FLAT:__unwindtable$??0D3DTech_particle_distort@Ogre@@QAE@XZ
	DD	2 DUP(00H)
	DD	2 DUP(00H)
	DD	00H
	DD	00H
; Function compile flags: /Odtp
xdata$x	ENDS
;	COMDAT ??0D3DTech_particle_distort@Ogre@@QAE@XZ
_TEXT	SEGMENT
_this$ = -16						; size = 4
__$EHRec$ = -12						; size = 12
??0D3DTech_particle_distort@Ogre@@QAE@XZ PROC		; Ogre::D3DTech_particle_distort::D3DTech_particle_distort, COMDAT
; _this$ = ecx
	push	ebp
	mov	ebp, esp
	push	-1
	push	__ehhandler$??0D3DTech_particle_distort@Ogre@@QAE@XZ
	mov	eax, DWORD PTR fs:0
	push	eax
	push	ecx
	mov	eax, DWORD PTR ___security_cookie
	xor	eax, ebp
	push	eax
	lea	eax, DWORD PTR __$EHRec$[ebp]
	mov	DWORD PTR fs:0, eax
	mov	DWORD PTR _this$[ebp], ecx
	mov	ecx, DWORD PTR _this$[ebp]
	call	??0D3DTech@Ogre@@QAE@XZ			; Ogre::D3DTech::D3DTech
	mov	DWORD PTR __$EHRec$[ebp+8], 0
	mov	eax, DWORD PTR _this$[ebp]
	mov	DWORD PTR [eax], OFFSET ??_7D3DTech_particle_distort@Ogre@@6B@
	mov	DWORD PTR __$EHRec$[ebp+8], -1
	mov	eax, DWORD PTR _this$[ebp]
	mov	ecx, DWORD PTR __$EHRec$[ebp]
	mov	DWORD PTR fs:0, ecx
	pop	ecx
	mov	esp, ebp
	pop	ebp
	ret	0
_TEXT	ENDS
;	COMDAT text$x
text$x	SEGMENT
__unwindfunclet$??0D3DTech_particle_distort@Ogre@@QAE@XZ$0:
	mov	ecx, DWORD PTR _this$[ebp]
	jmp	??1D3DTech@Ogre@@UAE@XZ
__ehhandler$??0D3DTech_particle_distort@Ogre@@QAE@XZ:
	mov	edx, DWORD PTR [esp+8]
	lea	eax, DWORD PTR [edx+12]
	mov	ecx, DWORD PTR [edx-8]
	xor	ecx, eax
	call	@__security_check_cookie@4
	mov	eax, OFFSET __ehfuncinfo$??0D3DTech_particle_distort@Ogre@@QAE@XZ
	jmp	___CxxFrameHandler3
text$x	ENDS
??0D3DTech_particle_distort@Ogre@@QAE@XZ ENDP		; Ogre::D3DTech_particle_distort::D3DTech_particle_distort
;	COMDAT xdata$x
xdata$x	SEGMENT
__unwindtable$?clone@D3DTech_particle_distort@Ogre@@UAEPAVD3DTech@2@XZ DD 0ffffffffH
	DD	FLAT:__unwindfunclet$?clone@D3DTech_particle_distort@Ogre@@UAEPAVD3DTech@2@XZ$0
__ehfuncinfo$?clone@D3DTech_particle_distort@Ogre@@UAEPAVD3DTech@2@XZ DD 019930522H
	DD	01H
	DD	FLAT:__unwindtable$?clone@D3DTech_particle_distort@Ogre@@UAEPAVD3DTech@2@XZ
	DD	2 DUP(00H)
	DD	2 DUP(00H)
	DD	00H
	DD	00H
; Function compile flags: /Odtp
xdata$x	ENDS
;	COMDAT ?clone@D3DTech_particle_distort@Ogre@@UAEPAVD3DTech@2@XZ
_TEXT	SEGMENT
tv74 = -28						; size = 4
_this$ = -24						; size = 4
$T139758 = -20						; size = 4
$T139757 = -16						; size = 4
__$EHRec$ = -12						; size = 12
?clone@D3DTech_particle_distort@Ogre@@UAEPAVD3DTech@2@XZ PROC ; Ogre::D3DTech_particle_distort::clone, COMDAT
; _this$ = ecx

; 140  : 		{

	push	ebp
	mov	ebp, esp
	push	-1
	push	__ehhandler$?clone@D3DTech_particle_distort@Ogre@@UAEPAVD3DTech@2@XZ
	mov	eax, DWORD PTR fs:0
	push	eax
	sub	esp, 16					; 00000010H
	mov	eax, DWORD PTR ___security_cookie
	xor	eax, ebp
	push	eax
	lea	eax, DWORD PTR __$EHRec$[ebp]
	mov	DWORD PTR fs:0, eax
	mov	DWORD PTR _this$[ebp], ecx

; 141  : 			return new D3DTech_particle_distort;

	push	396					; 0000018cH
	call	??2@YAPAXI@Z				; operator new
	add	esp, 4
	mov	DWORD PTR $T139758[ebp], eax
	mov	DWORD PTR __$EHRec$[ebp+8], 0
	cmp	DWORD PTR $T139758[ebp], 0
	je	SHORT $LN3@clone@7
	mov	ecx, DWORD PTR $T139758[ebp]
	call	??0D3DTech_particle_distort@Ogre@@QAE@XZ
	mov	DWORD PTR tv74[ebp], eax
	jmp	SHORT $LN4@clone@7
$LN3@clone@7:
	mov	DWORD PTR tv74[ebp], 0
$LN4@clone@7:
	mov	eax, DWORD PTR tv74[ebp]
	mov	DWORD PTR $T139757[ebp], eax
	mov	DWORD PTR __$EHRec$[ebp+8], -1
	mov	eax, DWORD PTR $T139757[ebp]

; 142  : 		}

	mov	ecx, DWORD PTR __$EHRec$[ebp]
	mov	DWORD PTR fs:0, ecx
	pop	ecx
	mov	esp, ebp
	pop	ebp
	ret	0
_TEXT	ENDS
;	COMDAT text$x
text$x	SEGMENT
__unwindfunclet$?clone@D3DTech_particle_distort@Ogre@@UAEPAVD3DTech@2@XZ$0:
	mov	eax, DWORD PTR $T139758[ebp]
	push	eax
	call	??3@YAXPAX@Z				; operator delete
	pop	ecx
	ret	0
__ehhandler$?clone@D3DTech_particle_distort@Ogre@@UAEPAVD3DTech@2@XZ:
	mov	edx, DWORD PTR [esp+8]
	lea	eax, DWORD PTR [edx+12]
	mov	ecx, DWORD PTR [edx-20]
	xor	ecx, eax
	call	@__security_check_cookie@4
	mov	eax, OFFSET __ehfuncinfo$?clone@D3DTech_particle_distort@Ogre@@UAEPAVD3DTech@2@XZ
	jmp	___CxxFrameHandler3
text$x	ENDS
?clone@D3DTech_particle_distort@Ogre@@UAEPAVD3DTech@2@XZ ENDP ; Ogre::D3DTech_particle_distort::clone
PUBLIC	??_C@_07NHKDDLEO@Distort?$AA@			; `string'
;	COMDAT ??_C@_07NHKDDLEO@Distort?$AA@
CONST	SEGMENT
??_C@_07NHKDDLEO@Distort?$AA@ DB 'Distort', 00H		; `string'
; Function compile flags: /Odtp
CONST	ENDS
;	COMDAT ?init@D3DTech_particle_distort@Ogre@@UAEXABUShaderEnvFlags@2@ABUMaterialMacro@2@@Z
_TEXT	SEGMENT
_this$ = -12						; size = 4
_indx$132752 = -8					; size = 4
_i$132748 = -4						; size = 4
_env$ = 8						; size = 4
_macros$ = 12						; size = 4
?init@D3DTech_particle_distort@Ogre@@UAEXABUShaderEnvFlags@2@ABUMaterialMacro@2@@Z PROC ; Ogre::D3DTech_particle_distort::init, COMDAT
; _this$ = ecx

; 145  : 		{

	push	ebp
	mov	ebp, esp
	sub	esp, 12					; 0000000cH
	mov	DWORD PTR _this$[ebp], ecx

; 146  : 			m_BlendMode = m_MaskTexture = m_DiffuseSampleMode = m_MaskSampleMode = 0;

	mov	eax, DWORD PTR _this$[ebp]
	mov	BYTE PTR [eax+395], 0
	mov	ecx, DWORD PTR _this$[ebp]
	mov	BYTE PTR [ecx+394], 0
	mov	edx, DWORD PTR _this$[ebp]
	mov	BYTE PTR [edx+393], 0
	mov	eax, DWORD PTR _this$[ebp]
	mov	BYTE PTR [eax+392], 0

; 147  : 
; 148  : 			for(int i=0; i<MaterialMacro::MAX_MACRO; i++)

	mov	DWORD PTR _i$132748[ebp], 0
	jmp	SHORT $LN11@init@4
$LN10@init@4:
	mov	ecx, DWORD PTR _i$132748[ebp]
	add	ecx, 1
	mov	DWORD PTR _i$132748[ebp], ecx
$LN11@init@4:
	cmp	DWORD PTR _i$132748[ebp], 4
	jge	SHORT $LN9@init@4

; 149  : 			{
; 150  : 				int indx = macros.indices[i];

	mov	edx, DWORD PTR _macros$[ebp]
	add	edx, DWORD PTR _i$132748[ebp]
	movzx	eax, BYTE PTR [edx]
	mov	DWORD PTR _indx$132752[ebp], eax

; 151  : 				if(indx == 0) break;

	cmp	DWORD PTR _indx$132752[ebp], 0
	jne	SHORT $LN8@init@4
	jmp	SHORT $LN9@init@4
$LN8@init@4:

; 152  : 
; 153  : 				if(indx == MTLPARAM_BLEND_MODE) m_BlendMode = macros.value[i];

	cmp	DWORD PTR _indx$132752[ebp], 1
	jne	SHORT $LN7@init@4
	mov	ecx, DWORD PTR _macros$[ebp]
	add	ecx, DWORD PTR _i$132748[ebp]
	mov	edx, DWORD PTR _this$[ebp]
	mov	al, BYTE PTR [ecx+4]
	mov	BYTE PTR [edx+392], al
	jmp	SHORT $LN6@init@4
$LN7@init@4:

; 154  : 				else if(indx == MTLPARAM_MASK_TEXTURE) m_MaskTexture = macros.value[i];

	cmp	DWORD PTR _indx$132752[ebp], 2
	jne	SHORT $LN5@init@4
	mov	ecx, DWORD PTR _macros$[ebp]
	add	ecx, DWORD PTR _i$132748[ebp]
	mov	edx, DWORD PTR _this$[ebp]
	mov	al, BYTE PTR [ecx+4]
	mov	BYTE PTR [edx+393], al
	jmp	SHORT $LN6@init@4
$LN5@init@4:

; 155  : 				else if(indx == MTLPARAM_DIFFUSE_SAMPLEMODE) m_DiffuseSampleMode = macros.value[i];

	cmp	DWORD PTR _indx$132752[ebp], 3
	jne	SHORT $LN3@init@4
	mov	ecx, DWORD PTR _macros$[ebp]
	add	ecx, DWORD PTR _i$132748[ebp]
	mov	edx, DWORD PTR _this$[ebp]
	mov	al, BYTE PTR [ecx+4]
	mov	BYTE PTR [edx+394], al
	jmp	SHORT $LN6@init@4
$LN3@init@4:

; 156  : 				else if(indx == MTLPARAM_MASK_SAMPLEMODE) m_MaskSampleMode = macros.value[i];

	cmp	DWORD PTR _indx$132752[ebp], 4
	jne	SHORT $LN6@init@4
	mov	ecx, DWORD PTR _macros$[ebp]
	add	ecx, DWORD PTR _i$132748[ebp]
	mov	edx, DWORD PTR _this$[ebp]
	mov	al, BYTE PTR [ecx+4]
	mov	BYTE PTR [edx+395], al
$LN6@init@4:

; 157  : 			}

	jmp	$LN10@init@4
$LN9@init@4:

; 158  : 
; 159  : 			m_nPass = 1;

	mov	ecx, DWORD PTR _this$[ebp]
	mov	DWORD PTR [ecx+188], 1

; 160  : 			m_AllPass[0].vs = m_pMtlTemplate->getCompiledVSPS(COMPILED_VS, "Main", env, macros);

	mov	edx, DWORD PTR _macros$[ebp]
	push	edx
	mov	eax, DWORD PTR _env$[ebp]
	push	eax
	push	OFFSET ??_C@_04KGFMLCPK@Main?$AA@
	push	1
	mov	ecx, DWORD PTR _this$[ebp]
	mov	ecx, DWORD PTR [ecx+8]
	call	?getCompiledVSPS@D3DMaterialTemplate@Ogre@@QAEPAVCompiledShader@2@W4COMPILED_TYPE@2@PBDABUShaderEnvFlags@2@ABUMaterialMacro@2@@Z ; Ogre::D3DMaterialTemplate::getCompiledVSPS
	mov	edx, DWORD PTR _this$[ebp]
	mov	DWORD PTR [edx+12], eax

; 161  : 			m_AllPass[0].ps = m_pMtlTemplate->getCompiledVSPS(COMPILED_PS, "Distort", env, macros);

	mov	eax, DWORD PTR _macros$[ebp]
	push	eax
	mov	ecx, DWORD PTR _env$[ebp]
	push	ecx
	push	OFFSET ??_C@_07NHKDDLEO@Distort?$AA@
	push	2
	mov	edx, DWORD PTR _this$[ebp]
	mov	ecx, DWORD PTR [edx+8]
	call	?getCompiledVSPS@D3DMaterialTemplate@Ogre@@QAEPAVCompiledShader@2@W4COMPILED_TYPE@2@PBDABUShaderEnvFlags@2@ABUMaterialMacro@2@@Z ; Ogre::D3DMaterialTemplate::getCompiledVSPS
	mov	ecx, DWORD PTR _this$[ebp]
	mov	DWORD PTR [ecx+16], eax

; 162  : 
; 163  : 			m_AllPass[0].ntex = 1;

	mov	edx, DWORD PTR _this$[ebp]
	mov	DWORD PTR [edx+20], 1

; 164  : 			m_AllPass[0].texstage[0] = SPU_GENERAL_PARAM + 4; //diffusetex

	mov	eax, DWORD PTR _this$[ebp]
	mov	DWORD PTR [eax+24], 1004		; 000003ecH

; 165  : 
; 166  : 			initParams();

	mov	ecx, DWORD PTR _this$[ebp]
	call	?initParams@D3DTech@Ogre@@IAEXXZ	; Ogre::D3DTech::initParams

; 167  : 			m_UsedMacroMask = 0;

	mov	ecx, DWORD PTR _this$[ebp]
	mov	DWORD PTR [ecx+4], 0

; 168  : 		}

	mov	esp, ebp
	pop	ebp
	ret	8
?init@D3DTech_particle_distort@Ogre@@UAEXABUShaderEnvFlags@2@ABUMaterialMacro@2@@Z ENDP ; Ogre::D3DTech_particle_distort::init
; Function compile flags: /Odtp
_TEXT	ENDS
;	COMDAT ?beginPass@D3DTech_particle_distort@Ogre@@UAEXI@Z
_TEXT	SEGMENT
_this$ = -4						; size = 4
_ipass$ = 8						; size = 4
?beginPass@D3DTech_particle_distort@Ogre@@UAEXI@Z PROC	; Ogre::D3DTech_particle_distort::beginPass, COMDAT
; _this$ = ecx

; 171  : 		{

	push	ebp
	mov	ebp, esp
	push	ecx
	mov	DWORD PTR _this$[ebp], ecx

; 172  : 			m_CurPass = ipass;

	mov	eax, DWORD PTR _this$[ebp]
	mov	ecx, DWORD PTR _ipass$[ebp]
	mov	DWORD PTR [eax+192], ecx

; 173  : 
; 174  : 			SetBlendState(m_pDevice, BLEND_OPAQUE);

	push	-1
	push	0
	mov	edx, DWORD PTR ?m_pDevice@D3DTech@Ogre@@2PAUIDirect3DDevice9@@A ; Ogre::D3DTech::m_pDevice
	push	edx
	call	?SetBlendState@Ogre@@YAXPAUIDirect3DDevice9@@HH@Z ; Ogre::SetBlendState
	add	esp, 12					; 0000000cH

; 175  : 			m_pDevice->SetRenderState(D3DRS_CULLMODE, D3DCULL_NONE);

	push	1
	push	22					; 00000016H
	mov	eax, DWORD PTR ?m_pDevice@D3DTech@Ogre@@2PAUIDirect3DDevice9@@A ; Ogre::D3DTech::m_pDevice
	mov	ecx, DWORD PTR [eax]
	mov	edx, DWORD PTR ?m_pDevice@D3DTech@Ogre@@2PAUIDirect3DDevice9@@A ; Ogre::D3DTech::m_pDevice
	push	edx
	mov	eax, DWORD PTR [ecx+228]
	call	eax

; 176  : 
; 177  : 			if (m_DiffuseSampleMode)

	mov	ecx, DWORD PTR _this$[ebp]
	movzx	edx, BYTE PTR [ecx+394]
	test	edx, edx
	je	SHORT $LN2@beginPass@2

; 178  : 				SamplerState_Clamp(m_pDevice, 0);

	push	0
	mov	eax, DWORD PTR ?m_pDevice@D3DTech@Ogre@@2PAUIDirect3DDevice9@@A ; Ogre::D3DTech::m_pDevice
	push	eax
	call	?SamplerState_Clamp@Ogre@@YAXPAUIDirect3DDevice9@@H@Z ; Ogre::SamplerState_Clamp
	add	esp, 8

; 179  : 			else

	jmp	SHORT $LN1@beginPass@2
$LN2@beginPass@2:

; 180  : 				SamplerState_Wrap(m_pDevice, 0);

	push	0
	mov	ecx, DWORD PTR ?m_pDevice@D3DTech@Ogre@@2PAUIDirect3DDevice9@@A ; Ogre::D3DTech::m_pDevice
	push	ecx
	call	?SamplerState_Wrap@Ogre@@YAXPAUIDirect3DDevice9@@H@Z ; Ogre::SamplerState_Wrap
	add	esp, 8
$LN1@beginPass@2:

; 181  : 
; 182  : 			SamplerState_Wrap(m_pDevice, 0);

	push	0
	mov	edx, DWORD PTR ?m_pDevice@D3DTech@Ogre@@2PAUIDirect3DDevice9@@A ; Ogre::D3DTech::m_pDevice
	push	edx
	call	?SamplerState_Wrap@Ogre@@YAXPAUIDirect3DDevice9@@H@Z ; Ogre::SamplerState_Wrap
	add	esp, 8

; 183  : 
; 184  : 			applyVSPS(m_CurPass);

	mov	eax, DWORD PTR _this$[ebp]
	mov	ecx, DWORD PTR [eax+192]
	push	ecx
	mov	ecx, DWORD PTR _this$[ebp]
	call	?applyVSPS@D3DTech@Ogre@@IAEXI@Z	; Ogre::D3DTech::applyVSPS

; 185  : 		}

	mov	esp, ebp
	pop	ebp
	ret	4
?beginPass@D3DTech_particle_distort@Ogre@@UAEXI@Z ENDP	; Ogre::D3DTech_particle_distort::beginPass
; Function compile flags: /Odtp
_TEXT	ENDS
;	COMDAT ?endPass@D3DTech_particle_distort@Ogre@@UAEXXZ
_TEXT	SEGMENT
_this$ = -4						; size = 4
?endPass@D3DTech_particle_distort@Ogre@@UAEXXZ PROC	; Ogre::D3DTech_particle_distort::endPass, COMDAT
; _this$ = ecx

; 188  : 		{

	push	ebp
	mov	ebp, esp
	push	ecx
	mov	DWORD PTR _this$[ebp], ecx

; 189  : 		}

	mov	esp, ebp
	pop	ebp
	ret	0
?endPass@D3DTech_particle_distort@Ogre@@UAEXXZ ENDP	; Ogre::D3DTech_particle_distort::endPass
_TEXT	ENDS
PUBLIC	??1D3DTech_particle_distort@Ogre@@UAE@XZ	; Ogre::D3DTech_particle_distort::~D3DTech_particle_distort
; Function compile flags: /Odtp
;	COMDAT ??_GD3DTech_particle_distort@Ogre@@UAEPAXI@Z
_TEXT	SEGMENT
_this$ = -4						; size = 4
___flags$ = 8						; size = 4
??_GD3DTech_particle_distort@Ogre@@UAEPAXI@Z PROC	; Ogre::D3DTech_particle_distort::`scalar deleting destructor', COMDAT
; _this$ = ecx
	push	ebp
	mov	ebp, esp
	push	ecx
	mov	DWORD PTR _this$[ebp], ecx
	mov	ecx, DWORD PTR _this$[ebp]
	call	??1D3DTech_particle_distort@Ogre@@UAE@XZ
	mov	eax, DWORD PTR ___flags$[ebp]
	and	eax, 1
	je	SHORT $LN1@scalar@8
	mov	ecx, DWORD PTR _this$[ebp]
	push	ecx
	call	??3@YAXPAX@Z				; operator delete
	add	esp, 4
$LN1@scalar@8:
	mov	eax, DWORD PTR _this$[ebp]
	mov	esp, ebp
	pop	ebp
	ret	4
??_GD3DTech_particle_distort@Ogre@@UAEPAXI@Z ENDP	; Ogre::D3DTech_particle_distort::`scalar deleting destructor'
_TEXT	ENDS
;	COMDAT xdata$x
xdata$x	SEGMENT
__unwindtable$??1D3DTech_particle_distort@Ogre@@UAE@XZ DD 0ffffffffH
	DD	FLAT:__unwindfunclet$??1D3DTech_particle_distort@Ogre@@UAE@XZ$0
__ehfuncinfo$??1D3DTech_particle_distort@Ogre@@UAE@XZ DD 019930522H
	DD	01H
	DD	FLAT:__unwindtable$??1D3DTech_particle_distort@Ogre@@UAE@XZ
	DD	2 DUP(00H)
	DD	2 DUP(00H)
	DD	00H
	DD	00H
; Function compile flags: /Odtp
xdata$x	ENDS
;	COMDAT ??1D3DTech_particle_distort@Ogre@@UAE@XZ
_TEXT	SEGMENT
_this$ = -16						; size = 4
__$EHRec$ = -12						; size = 12
??1D3DTech_particle_distort@Ogre@@UAE@XZ PROC		; Ogre::D3DTech_particle_distort::~D3DTech_particle_distort, COMDAT
; _this$ = ecx
	push	ebp
	mov	ebp, esp
	push	-1
	push	__ehhandler$??1D3DTech_particle_distort@Ogre@@UAE@XZ
	mov	eax, DWORD PTR fs:0
	push	eax
	push	ecx
	mov	eax, DWORD PTR ___security_cookie
	xor	eax, ebp
	push	eax
	lea	eax, DWORD PTR __$EHRec$[ebp]
	mov	DWORD PTR fs:0, eax
	mov	DWORD PTR _this$[ebp], ecx
	mov	DWORD PTR __$EHRec$[ebp+8], 0
	mov	DWORD PTR __$EHRec$[ebp+8], -1
	mov	ecx, DWORD PTR _this$[ebp]
	call	??1D3DTech@Ogre@@UAE@XZ
	mov	ecx, DWORD PTR __$EHRec$[ebp]
	mov	DWORD PTR fs:0, ecx
	pop	ecx
	mov	esp, ebp
	pop	ebp
	ret	0
_TEXT	ENDS
;	COMDAT text$x
text$x	SEGMENT
__unwindfunclet$??1D3DTech_particle_distort@Ogre@@UAE@XZ$0:
	mov	ecx, DWORD PTR _this$[ebp]
	jmp	??1D3DTech@Ogre@@UAE@XZ
__ehhandler$??1D3DTech_particle_distort@Ogre@@UAE@XZ:
	mov	edx, DWORD PTR [esp+8]
	lea	eax, DWORD PTR [edx+12]
	mov	ecx, DWORD PTR [edx-8]
	xor	ecx, eax
	call	@__security_check_cookie@4
	mov	eax, OFFSET __ehfuncinfo$??1D3DTech_particle_distort@Ogre@@UAE@XZ
	jmp	___CxxFrameHandler3
text$x	ENDS
??1D3DTech_particle_distort@Ogre@@UAE@XZ ENDP		; Ogre::D3DTech_particle_distort::~D3DTech_particle_distort
PUBLIC	??_7D3DTech_Uvanim_lod0@Ogre@@6B@		; Ogre::D3DTech_Uvanim_lod0::`vftable'
PUBLIC	??_R4D3DTech_Uvanim_lod0@Ogre@@6B@		; Ogre::D3DTech_Uvanim_lod0::`RTTI Complete Object Locator'
PUBLIC	??_R0?AVD3DTech_Uvanim_lod0@Ogre@@@8		; Ogre::D3DTech_Uvanim_lod0 `RTTI Type Descriptor'
PUBLIC	??_R3D3DTech_Uvanim_lod0@Ogre@@8		; Ogre::D3DTech_Uvanim_lod0::`RTTI Class Hierarchy Descriptor'
PUBLIC	??_R2D3DTech_Uvanim_lod0@Ogre@@8		; Ogre::D3DTech_Uvanim_lod0::`RTTI Base Class Array'
PUBLIC	??_R1A@?0A@EA@D3DTech_Uvanim_lod0@Ogre@@8	; Ogre::D3DTech_Uvanim_lod0::`RTTI Base Class Descriptor at (0,-1,0,64)'
PUBLIC	?beginPass@D3DTech_Uvanim_lod0@Ogre@@UAEXI@Z	; Ogre::D3DTech_Uvanim_lod0::beginPass
PUBLIC	?endPass@D3DTech_Uvanim_lod0@Ogre@@UAEXXZ	; Ogre::D3DTech_Uvanim_lod0::endPass
PUBLIC	?clone@D3DTech_Uvanim_lod0@Ogre@@UAEPAVD3DTech@2@XZ ; Ogre::D3DTech_Uvanim_lod0::clone
PUBLIC	?init@D3DTech_Uvanim_lod0@Ogre@@UAEXABUShaderEnvFlags@2@ABUMaterialMacro@2@@Z ; Ogre::D3DTech_Uvanim_lod0::init
EXTRN	??_ED3DTech_Uvanim_lod0@Ogre@@UAEPAXI@Z:PROC	; Ogre::D3DTech_Uvanim_lod0::`vector deleting destructor'
;	COMDAT ??_R1A@?0A@EA@D3DTech_Uvanim_lod0@Ogre@@8
rdata$r	SEGMENT
??_R1A@?0A@EA@D3DTech_Uvanim_lod0@Ogre@@8 DD FLAT:??_R0?AVD3DTech_Uvanim_lod0@Ogre@@@8 ; Ogre::D3DTech_Uvanim_lod0::`RTTI Base Class Descriptor at (0,-1,0,64)'
	DD	02H
	DD	00H
	DD	0ffffffffH
	DD	00H
	DD	040H
	DD	FLAT:??_R3D3DTech_Uvanim_lod0@Ogre@@8
rdata$r	ENDS
;	COMDAT ??_R2D3DTech_Uvanim_lod0@Ogre@@8
rdata$r	SEGMENT
??_R2D3DTech_Uvanim_lod0@Ogre@@8 DD FLAT:??_R1A@?0A@EA@D3DTech_Uvanim_lod0@Ogre@@8 ; Ogre::D3DTech_Uvanim_lod0::`RTTI Base Class Array'
	DD	FLAT:??_R1A@?0A@EA@D3DTech@Ogre@@8
	DD	FLAT:??_R1A@?0A@EA@ShaderTechnique@Ogre@@8
rdata$r	ENDS
;	COMDAT ??_R3D3DTech_Uvanim_lod0@Ogre@@8
rdata$r	SEGMENT
??_R3D3DTech_Uvanim_lod0@Ogre@@8 DD 00H			; Ogre::D3DTech_Uvanim_lod0::`RTTI Class Hierarchy Descriptor'
	DD	00H
	DD	03H
	DD	FLAT:??_R2D3DTech_Uvanim_lod0@Ogre@@8
rdata$r	ENDS
;	COMDAT ??_R0?AVD3DTech_Uvanim_lod0@Ogre@@@8
_DATA	SEGMENT
??_R0?AVD3DTech_Uvanim_lod0@Ogre@@@8 DD FLAT:??_7type_info@@6B@ ; Ogre::D3DTech_Uvanim_lod0 `RTTI Type Descriptor'
	DD	00H
	DB	'.?AVD3DTech_Uvanim_lod0@Ogre@@', 00H
_DATA	ENDS
;	COMDAT ??_R4D3DTech_Uvanim_lod0@Ogre@@6B@
rdata$r	SEGMENT
??_R4D3DTech_Uvanim_lod0@Ogre@@6B@ DD 00H		; Ogre::D3DTech_Uvanim_lod0::`RTTI Complete Object Locator'
	DD	00H
	DD	00H
	DD	FLAT:??_R0?AVD3DTech_Uvanim_lod0@Ogre@@@8
	DD	FLAT:??_R3D3DTech_Uvanim_lod0@Ogre@@8
rdata$r	ENDS
;	COMDAT ??_7D3DTech_Uvanim_lod0@Ogre@@6B@
CONST	SEGMENT
??_7D3DTech_Uvanim_lod0@Ogre@@6B@ DD FLAT:??_R4D3DTech_Uvanim_lod0@Ogre@@6B@ ; Ogre::D3DTech_Uvanim_lod0::`vftable'
	DD	FLAT:?begin@D3DTech@Ogre@@UAEIXZ
	DD	FLAT:?end@D3DTech@Ogre@@UAEXXZ
	DD	FLAT:?beginPass@D3DTech_Uvanim_lod0@Ogre@@UAEXI@Z
	DD	FLAT:?endPass@D3DTech_Uvanim_lod0@Ogre@@UAEXXZ
	DD	FLAT:?setConstant@D3DTech@Ogre@@UAEXW4ShaderParamUsage@2@PBXI@Z
	DD	FLAT:?setConstant@D3DTech@Ogre@@UAEXPBDPBXI@Z
	DD	FLAT:?setTexture@D3DTech@Ogre@@UAEXW4ShaderParamUsage@2@PAVHardwarePixelBuffer@2@@Z
	DD	FLAT:?setTexture@D3DTech@Ogre@@UAEXPBDPAVHardwarePixelBuffer@2@@Z
	DD	FLAT:?setStreamInput@D3DTech@Ogre@@UAEXIPAPAVHardwareVertexBuffer@2@HPAI@Z
	DD	FLAT:?setStreamInput@D3DTech@Ogre@@UAEXIPAVHardwareVertexBuffer@2@I@Z
	DD	FLAT:?setStreamInput@D3DTech@Ogre@@UAEXIPAPAVHardwareVertexBuffer@2@PAI@Z
	DD	FLAT:?commitChanges@D3DTech@Ogre@@UAEXXZ
	DD	FLAT:?draw@D3DTech@Ogre@@UAEXW4PrimitiveType@2@IIPAVHardwareIndexBuffer@2@II@Z
	DD	FLAT:?draw@D3DTech@Ogre@@UAEXW4PrimitiveType@2@II@Z
	DD	FLAT:?getRequiredParams@D3DTech@Ogre@@UAEIPAW4ShaderParamUsage@2@I@Z
	DD	FLAT:??_ED3DTech_Uvanim_lod0@Ogre@@UAEPAXI@Z
	DD	FLAT:?clone@D3DTech_Uvanim_lod0@Ogre@@UAEPAVD3DTech@2@XZ
	DD	FLAT:?init@D3DTech_Uvanim_lod0@Ogre@@UAEXABUShaderEnvFlags@2@ABUMaterialMacro@2@@Z
CONST	ENDS
;	COMDAT xdata$x
xdata$x	SEGMENT
__unwindtable$??0D3DTech_Uvanim_lod0@Ogre@@QAE@XZ DD 0ffffffffH
	DD	FLAT:__unwindfunclet$??0D3DTech_Uvanim_lod0@Ogre@@QAE@XZ$0
__ehfuncinfo$??0D3DTech_Uvanim_lod0@Ogre@@QAE@XZ DD 019930522H
	DD	01H
	DD	FLAT:__unwindtable$??0D3DTech_Uvanim_lod0@Ogre@@QAE@XZ
	DD	2 DUP(00H)
	DD	2 DUP(00H)
	DD	00H
	DD	00H
; Function compile flags: /Odtp
xdata$x	ENDS
;	COMDAT ??0D3DTech_Uvanim_lod0@Ogre@@QAE@XZ
_TEXT	SEGMENT
_this$ = -16						; size = 4
__$EHRec$ = -12						; size = 12
??0D3DTech_Uvanim_lod0@Ogre@@QAE@XZ PROC		; Ogre::D3DTech_Uvanim_lod0::D3DTech_Uvanim_lod0, COMDAT
; _this$ = ecx
	push	ebp
	mov	ebp, esp
	push	-1
	push	__ehhandler$??0D3DTech_Uvanim_lod0@Ogre@@QAE@XZ
	mov	eax, DWORD PTR fs:0
	push	eax
	push	ecx
	mov	eax, DWORD PTR ___security_cookie
	xor	eax, ebp
	push	eax
	lea	eax, DWORD PTR __$EHRec$[ebp]
	mov	DWORD PTR fs:0, eax
	mov	DWORD PTR _this$[ebp], ecx
	mov	ecx, DWORD PTR _this$[ebp]
	call	??0D3DTech@Ogre@@QAE@XZ			; Ogre::D3DTech::D3DTech
	mov	DWORD PTR __$EHRec$[ebp+8], 0
	mov	eax, DWORD PTR _this$[ebp]
	mov	DWORD PTR [eax], OFFSET ??_7D3DTech_Uvanim_lod0@Ogre@@6B@
	mov	DWORD PTR __$EHRec$[ebp+8], -1
	mov	eax, DWORD PTR _this$[ebp]
	mov	ecx, DWORD PTR __$EHRec$[ebp]
	mov	DWORD PTR fs:0, ecx
	pop	ecx
	mov	esp, ebp
	pop	ebp
	ret	0
_TEXT	ENDS
;	COMDAT text$x
text$x	SEGMENT
__unwindfunclet$??0D3DTech_Uvanim_lod0@Ogre@@QAE@XZ$0:
	mov	ecx, DWORD PTR _this$[ebp]
	jmp	??1D3DTech@Ogre@@UAE@XZ
__ehhandler$??0D3DTech_Uvanim_lod0@Ogre@@QAE@XZ:
	mov	edx, DWORD PTR [esp+8]
	lea	eax, DWORD PTR [edx+12]
	mov	ecx, DWORD PTR [edx-8]
	xor	ecx, eax
	call	@__security_check_cookie@4
	mov	eax, OFFSET __ehfuncinfo$??0D3DTech_Uvanim_lod0@Ogre@@QAE@XZ
	jmp	___CxxFrameHandler3
text$x	ENDS
??0D3DTech_Uvanim_lod0@Ogre@@QAE@XZ ENDP		; Ogre::D3DTech_Uvanim_lod0::D3DTech_Uvanim_lod0
;	COMDAT xdata$x
; File i:\svnroot\client\plugins\rendersystem_d3d9\ogred3d9tech_uvanim.h
xdata$x	SEGMENT
__unwindtable$?clone@D3DTech_Uvanim_lod0@Ogre@@UAEPAVD3DTech@2@XZ DD 0ffffffffH
	DD	FLAT:__unwindfunclet$?clone@D3DTech_Uvanim_lod0@Ogre@@UAEPAVD3DTech@2@XZ$0
__ehfuncinfo$?clone@D3DTech_Uvanim_lod0@Ogre@@UAEPAVD3DTech@2@XZ DD 019930522H
	DD	01H
	DD	FLAT:__unwindtable$?clone@D3DTech_Uvanim_lod0@Ogre@@UAEPAVD3DTech@2@XZ
	DD	2 DUP(00H)
	DD	2 DUP(00H)
	DD	00H
	DD	00H
; Function compile flags: /Odtp
xdata$x	ENDS
;	COMDAT ?clone@D3DTech_Uvanim_lod0@Ogre@@UAEPAVD3DTech@2@XZ
_TEXT	SEGMENT
tv74 = -28						; size = 4
_this$ = -24						; size = 4
$T139797 = -20						; size = 4
$T139796 = -16						; size = 4
__$EHRec$ = -12						; size = 12
?clone@D3DTech_Uvanim_lod0@Ogre@@UAEPAVD3DTech@2@XZ PROC ; Ogre::D3DTech_Uvanim_lod0::clone, COMDAT
; _this$ = ecx

; 29   : 		{

	push	ebp
	mov	ebp, esp
	push	-1
	push	__ehhandler$?clone@D3DTech_Uvanim_lod0@Ogre@@UAEPAVD3DTech@2@XZ
	mov	eax, DWORD PTR fs:0
	push	eax
	sub	esp, 16					; 00000010H
	mov	eax, DWORD PTR ___security_cookie
	xor	eax, ebp
	push	eax
	lea	eax, DWORD PTR __$EHRec$[ebp]
	mov	DWORD PTR fs:0, eax
	mov	DWORD PTR _this$[ebp], ecx

; 30   : 			return new D3DTech_Uvanim_lod0;

	push	408					; 00000198H
	call	??2@YAPAXI@Z				; operator new
	add	esp, 4
	mov	DWORD PTR $T139797[ebp], eax
	mov	DWORD PTR __$EHRec$[ebp+8], 0
	cmp	DWORD PTR $T139797[ebp], 0
	je	SHORT $LN3@clone@8
	mov	ecx, DWORD PTR $T139797[ebp]
	call	??0D3DTech_Uvanim_lod0@Ogre@@QAE@XZ
	mov	DWORD PTR tv74[ebp], eax
	jmp	SHORT $LN4@clone@8
$LN3@clone@8:
	mov	DWORD PTR tv74[ebp], 0
$LN4@clone@8:
	mov	eax, DWORD PTR tv74[ebp]
	mov	DWORD PTR $T139796[ebp], eax
	mov	DWORD PTR __$EHRec$[ebp+8], -1
	mov	eax, DWORD PTR $T139796[ebp]

; 31   : 		}

	mov	ecx, DWORD PTR __$EHRec$[ebp]
	mov	DWORD PTR fs:0, ecx
	pop	ecx
	mov	esp, ebp
	pop	ebp
	ret	0
_TEXT	ENDS
;	COMDAT text$x
text$x	SEGMENT
__unwindfunclet$?clone@D3DTech_Uvanim_lod0@Ogre@@UAEPAVD3DTech@2@XZ$0:
	mov	eax, DWORD PTR $T139797[ebp]
	push	eax
	call	??3@YAXPAX@Z				; operator delete
	pop	ecx
	ret	0
__ehhandler$?clone@D3DTech_Uvanim_lod0@Ogre@@UAEPAVD3DTech@2@XZ:
	mov	edx, DWORD PTR [esp+8]
	lea	eax, DWORD PTR [edx+12]
	mov	ecx, DWORD PTR [edx-20]
	xor	ecx, eax
	call	@__security_check_cookie@4
	mov	eax, OFFSET __ehfuncinfo$?clone@D3DTech_Uvanim_lod0@Ogre@@UAEPAVD3DTech@2@XZ
	jmp	___CxxFrameHandler3
text$x	ENDS
?clone@D3DTech_Uvanim_lod0@Ogre@@UAEPAVD3DTech@2@XZ ENDP ; Ogre::D3DTech_Uvanim_lod0::clone
; Function compile flags: /Odtp
;	COMDAT ?init@D3DTech_Uvanim_lod0@Ogre@@UAEXABUShaderEnvFlags@2@ABUMaterialMacro@2@@Z
_TEXT	SEGMENT
_this$ = -12						; size = 4
_indx$132819 = -8					; size = 4
_i$132815 = -4						; size = 4
_env$ = 8						; size = 4
_macros$ = 12						; size = 4
?init@D3DTech_Uvanim_lod0@Ogre@@UAEXABUShaderEnvFlags@2@ABUMaterialMacro@2@@Z PROC ; Ogre::D3DTech_Uvanim_lod0::init, COMDAT
; _this$ = ecx

; 34   : 		{

	push	ebp
	mov	ebp, esp
	sub	esp, 12					; 0000000cH
	mov	DWORD PTR _this$[ebp], ecx

; 35   : 			m_BlendMode = m_ReceiveLighting = m_ReceiveFog = m_Mask = 0;

	mov	eax, DWORD PTR _this$[ebp]
	mov	DWORD PTR [eax+404], 0
	mov	ecx, DWORD PTR _this$[ebp]
	mov	DWORD PTR [ecx+400], 0
	mov	edx, DWORD PTR _this$[ebp]
	mov	DWORD PTR [edx+396], 0
	mov	eax, DWORD PTR _this$[ebp]
	mov	DWORD PTR [eax+392], 0

; 36   : 
; 37   : 			for(int i=0; i<MaterialMacro::MAX_MACRO; i++)

	mov	DWORD PTR _i$132815[ebp], 0
	jmp	SHORT $LN13@init@5
$LN12@init@5:
	mov	ecx, DWORD PTR _i$132815[ebp]
	add	ecx, 1
	mov	DWORD PTR _i$132815[ebp], ecx
$LN13@init@5:
	cmp	DWORD PTR _i$132815[ebp], 4
	jge	$LN11@init@5

; 38   : 			{
; 39   : 				int indx = macros.indices[i];

	mov	edx, DWORD PTR _macros$[ebp]
	add	edx, DWORD PTR _i$132815[ebp]
	movzx	eax, BYTE PTR [edx]
	mov	DWORD PTR _indx$132819[ebp], eax

; 40   : 				if(indx == 0) break;

	cmp	DWORD PTR _indx$132819[ebp], 0
	jne	SHORT $LN10@init@5
	jmp	SHORT $LN11@init@5
$LN10@init@5:

; 41   : 
; 42   : 				if(indx == MTLPARAM_BLEND_MODE)

	cmp	DWORD PTR _indx$132819[ebp], 1
	jne	SHORT $LN9@init@5

; 43   : 					m_BlendMode = macros.value[i];

	mov	ecx, DWORD PTR _macros$[ebp]
	add	ecx, DWORD PTR _i$132815[ebp]
	movzx	edx, BYTE PTR [ecx+4]
	mov	eax, DWORD PTR _this$[ebp]
	mov	DWORD PTR [eax+392], edx
	jmp	SHORT $LN8@init@5
$LN9@init@5:

; 44   : 				else if (indx == MTLPARAM_RECEIVE_LIGHTING)

	cmp	DWORD PTR _indx$132819[ebp], 2
	jne	SHORT $LN7@init@5

; 45   : 					m_ReceiveLighting = macros.value[i];

	mov	ecx, DWORD PTR _macros$[ebp]
	add	ecx, DWORD PTR _i$132815[ebp]
	movzx	edx, BYTE PTR [ecx+4]
	mov	eax, DWORD PTR _this$[ebp]
	mov	DWORD PTR [eax+396], edx
	jmp	SHORT $LN8@init@5
$LN7@init@5:

; 46   : 				else if (indx == MTLPARAM_RECEIVE_FOG)

	cmp	DWORD PTR _indx$132819[ebp], 3
	jne	SHORT $LN5@init@5

; 47   : 					m_ReceiveFog = macros.value[i];

	mov	ecx, DWORD PTR _macros$[ebp]
	add	ecx, DWORD PTR _i$132815[ebp]
	movzx	edx, BYTE PTR [ecx+4]
	mov	eax, DWORD PTR _this$[ebp]
	mov	DWORD PTR [eax+400], edx
	jmp	SHORT $LN8@init@5
$LN5@init@5:

; 48   : 				else if (indx == MTLPARAM_MASK_TEX)

	cmp	DWORD PTR _indx$132819[ebp], 4
	jne	SHORT $LN8@init@5

; 49   : 					m_Mask = macros.value[i];

	mov	ecx, DWORD PTR _macros$[ebp]
	add	ecx, DWORD PTR _i$132815[ebp]
	movzx	edx, BYTE PTR [ecx+4]
	mov	eax, DWORD PTR _this$[ebp]
	mov	DWORD PTR [eax+404], edx
$LN8@init@5:

; 50   : 			}

	jmp	$LN12@init@5
$LN11@init@5:

; 51   : 
; 52   : 			if(env.model_xparent && m_BlendMode<2) m_BlendMode = 2;

	mov	ecx, DWORD PTR _env$[ebp]
	mov	edx, DWORD PTR [ecx]
	shr	edx, 23					; 00000017H
	and	edx, 1
	je	SHORT $LN2@init@5
	mov	eax, DWORD PTR _this$[ebp]
	cmp	DWORD PTR [eax+392], 2
	jge	SHORT $LN2@init@5
	mov	ecx, DWORD PTR _this$[ebp]
	mov	DWORD PTR [ecx+392], 2
$LN2@init@5:

; 53   : 
; 54   : 			m_nPass = 1;

	mov	edx, DWORD PTR _this$[ebp]
	mov	DWORD PTR [edx+188], 1

; 55   : 			m_AllPass[0].vs = m_pMtlTemplate->getCompiledVSPS(COMPILED_VS, "Main", env, macros);

	mov	eax, DWORD PTR _macros$[ebp]
	push	eax
	mov	ecx, DWORD PTR _env$[ebp]
	push	ecx
	push	OFFSET ??_C@_04KGFMLCPK@Main?$AA@
	push	1
	mov	edx, DWORD PTR _this$[ebp]
	mov	ecx, DWORD PTR [edx+8]
	call	?getCompiledVSPS@D3DMaterialTemplate@Ogre@@QAEPAVCompiledShader@2@W4COMPILED_TYPE@2@PBDABUShaderEnvFlags@2@ABUMaterialMacro@2@@Z ; Ogre::D3DMaterialTemplate::getCompiledVSPS
	mov	ecx, DWORD PTR _this$[ebp]
	mov	DWORD PTR [ecx+12], eax

; 56   : 			m_AllPass[0].ps = m_pMtlTemplate->getCompiledVSPS(COMPILED_PS, "Main", env, macros);

	mov	edx, DWORD PTR _macros$[ebp]
	push	edx
	mov	eax, DWORD PTR _env$[ebp]
	push	eax
	push	OFFSET ??_C@_04KGFMLCPK@Main?$AA@
	push	2
	mov	ecx, DWORD PTR _this$[ebp]
	mov	ecx, DWORD PTR [ecx+8]
	call	?getCompiledVSPS@D3DMaterialTemplate@Ogre@@QAEPAVCompiledShader@2@W4COMPILED_TYPE@2@PBDABUShaderEnvFlags@2@ABUMaterialMacro@2@@Z ; Ogre::D3DMaterialTemplate::getCompiledVSPS
	mov	edx, DWORD PTR _this$[ebp]
	mov	DWORD PTR [edx+16], eax

; 57   : 
; 58   : 			m_AllPass[0].ntex = 2;

	mov	eax, DWORD PTR _this$[ebp]
	mov	DWORD PTR [eax+20], 2

; 59   : 			m_AllPass[0].texstage[0] = SPU_GENERAL_PARAM + 4; //diffusetex

	mov	ecx, DWORD PTR _this$[ebp]
	mov	DWORD PTR [ecx+24], 1004		; 000003ecH

; 60   : 			m_AllPass[0].texstage[1] = SPU_DEPTHMAP;

	mov	edx, DWORD PTR _this$[ebp]
	mov	DWORD PTR [edx+28], 18			; 00000012H

; 61   : 
; 62   : 			if(m_Mask)

	mov	eax, DWORD PTR _this$[ebp]
	cmp	DWORD PTR [eax+404], 0
	je	SHORT $LN1@init@5

; 63   : 			{
; 64   : 				m_AllPass[0].ntex = 3;

	mov	ecx, DWORD PTR _this$[ebp]
	mov	DWORD PTR [ecx+20], 3

; 65   : 				m_AllPass[0].texstage[2] = SPU_GENERAL_PARAM + 5; //masktexture

	mov	edx, DWORD PTR _this$[ebp]
	mov	DWORD PTR [edx+32], 1005		; 000003edH
$LN1@init@5:

; 66   : 			}
; 67   : 
; 68   : 			initParams();

	mov	ecx, DWORD PTR _this$[ebp]
	call	?initParams@D3DTech@Ogre@@IAEXXZ	; Ogre::D3DTech::initParams

; 69   : 			m_UsedMacroMask = m_BlendMode|(m_ReceiveLighting<<8)|(m_ReceiveFog<<12)|(m_Mask<<16)|(env.model_xparent<<20);

	mov	eax, DWORD PTR _this$[ebp]
	mov	ecx, DWORD PTR [eax+396]
	shl	ecx, 8
	mov	edx, DWORD PTR _this$[ebp]
	or	ecx, DWORD PTR [edx+392]
	mov	eax, DWORD PTR _this$[ebp]
	mov	edx, DWORD PTR [eax+400]
	shl	edx, 12					; 0000000cH
	or	ecx, edx
	mov	eax, DWORD PTR _this$[ebp]
	mov	edx, DWORD PTR [eax+404]
	shl	edx, 16					; 00000010H
	or	ecx, edx
	mov	eax, DWORD PTR _env$[ebp]
	mov	edx, DWORD PTR [eax]
	shr	edx, 23					; 00000017H
	and	edx, 1
	shl	edx, 20					; 00000014H
	or	ecx, edx
	mov	eax, DWORD PTR _this$[ebp]
	mov	DWORD PTR [eax+4], ecx

; 70   : 		}

	mov	esp, ebp
	pop	ebp
	ret	8
?init@D3DTech_Uvanim_lod0@Ogre@@UAEXABUShaderEnvFlags@2@ABUMaterialMacro@2@@Z ENDP ; Ogre::D3DTech_Uvanim_lod0::init
_TEXT	ENDS
PUBLIC	?SamplerState_DMap@Ogre@@YAXPAUIDirect3DDevice9@@H@Z ; Ogre::SamplerState_DMap
; Function compile flags: /Odtp
;	COMDAT ?beginPass@D3DTech_Uvanim_lod0@Ogre@@UAEXI@Z
_TEXT	SEGMENT
_this$ = -4						; size = 4
_ipass$ = 8						; size = 4
?beginPass@D3DTech_Uvanim_lod0@Ogre@@UAEXI@Z PROC	; Ogre::D3DTech_Uvanim_lod0::beginPass, COMDAT
; _this$ = ecx

; 73   : 		{

	push	ebp
	mov	ebp, esp
	push	ecx
	mov	DWORD PTR _this$[ebp], ecx

; 74   : 			m_CurPass = ipass;

	mov	eax, DWORD PTR _this$[ebp]
	mov	ecx, DWORD PTR _ipass$[ebp]
	mov	DWORD PTR [eax+192], ecx

; 75   : 
; 76   : 			SetBlendState(m_pDevice, m_BlendMode);

	push	-1
	mov	edx, DWORD PTR _this$[ebp]
	mov	eax, DWORD PTR [edx+392]
	push	eax
	mov	ecx, DWORD PTR ?m_pDevice@D3DTech@Ogre@@2PAUIDirect3DDevice9@@A ; Ogre::D3DTech::m_pDevice
	push	ecx
	call	?SetBlendState@Ogre@@YAXPAUIDirect3DDevice9@@HH@Z ; Ogre::SetBlendState
	add	esp, 12					; 0000000cH

; 77   : 
; 78   : 			if (m_BlendMode == 0 || m_BlendMode == 1)

	mov	edx, DWORD PTR _this$[ebp]
	cmp	DWORD PTR [edx+392], 0
	je	SHORT $LN3@beginPass@3
	mov	eax, DWORD PTR _this$[ebp]
	cmp	DWORD PTR [eax+392], 1
	jne	SHORT $LN4@beginPass@3
$LN3@beginPass@3:

; 79   : 			{
; 80   : 				m_pDevice->SetRenderState(D3DRS_ZENABLE, true);

	push	1
	push	7
	mov	ecx, DWORD PTR ?m_pDevice@D3DTech@Ogre@@2PAUIDirect3DDevice9@@A ; Ogre::D3DTech::m_pDevice
	mov	edx, DWORD PTR [ecx]
	mov	eax, DWORD PTR ?m_pDevice@D3DTech@Ogre@@2PAUIDirect3DDevice9@@A ; Ogre::D3DTech::m_pDevice
	push	eax
	mov	ecx, DWORD PTR [edx+228]
	call	ecx

; 81   : 				m_pDevice->SetRenderState(D3DRS_ZWRITEENABLE, true);

	push	1
	push	14					; 0000000eH
	mov	edx, DWORD PTR ?m_pDevice@D3DTech@Ogre@@2PAUIDirect3DDevice9@@A ; Ogre::D3DTech::m_pDevice
	mov	eax, DWORD PTR [edx]
	mov	ecx, DWORD PTR ?m_pDevice@D3DTech@Ogre@@2PAUIDirect3DDevice9@@A ; Ogre::D3DTech::m_pDevice
	push	ecx
	mov	edx, DWORD PTR [eax+228]
	call	edx

; 82   : 			}
; 83   : 			else

	jmp	SHORT $LN2@beginPass@3
$LN4@beginPass@3:

; 84   : 			{
; 85   : 				m_pDevice->SetRenderState(D3DRS_ZENABLE, true);

	push	1
	push	7
	mov	eax, DWORD PTR ?m_pDevice@D3DTech@Ogre@@2PAUIDirect3DDevice9@@A ; Ogre::D3DTech::m_pDevice
	mov	ecx, DWORD PTR [eax]
	mov	edx, DWORD PTR ?m_pDevice@D3DTech@Ogre@@2PAUIDirect3DDevice9@@A ; Ogre::D3DTech::m_pDevice
	push	edx
	mov	eax, DWORD PTR [ecx+228]
	call	eax

; 86   : 				m_pDevice->SetRenderState(D3DRS_ZWRITEENABLE, false);

	push	0
	push	14					; 0000000eH
	mov	ecx, DWORD PTR ?m_pDevice@D3DTech@Ogre@@2PAUIDirect3DDevice9@@A ; Ogre::D3DTech::m_pDevice
	mov	edx, DWORD PTR [ecx]
	mov	eax, DWORD PTR ?m_pDevice@D3DTech@Ogre@@2PAUIDirect3DDevice9@@A ; Ogre::D3DTech::m_pDevice
	push	eax
	mov	ecx, DWORD PTR [edx+228]
	call	ecx
$LN2@beginPass@3:

; 87   : 			}
; 88   : 
; 89   : 			m_pDevice->SetRenderState(D3DRS_CULLMODE, D3DCULL_NONE);

	push	1
	push	22					; 00000016H
	mov	edx, DWORD PTR ?m_pDevice@D3DTech@Ogre@@2PAUIDirect3DDevice9@@A ; Ogre::D3DTech::m_pDevice
	mov	eax, DWORD PTR [edx]
	mov	ecx, DWORD PTR ?m_pDevice@D3DTech@Ogre@@2PAUIDirect3DDevice9@@A ; Ogre::D3DTech::m_pDevice
	push	ecx
	mov	edx, DWORD PTR [eax+228]
	call	edx

; 90   : 
; 91   : 			SamplerState_Wrap(m_pDevice, 0);

	push	0
	mov	eax, DWORD PTR ?m_pDevice@D3DTech@Ogre@@2PAUIDirect3DDevice9@@A ; Ogre::D3DTech::m_pDevice
	push	eax
	call	?SamplerState_Wrap@Ogre@@YAXPAUIDirect3DDevice9@@H@Z ; Ogre::SamplerState_Wrap
	add	esp, 8

; 92   : 			SamplerState_DMap(m_pDevice, 1);

	push	1
	mov	ecx, DWORD PTR ?m_pDevice@D3DTech@Ogre@@2PAUIDirect3DDevice9@@A ; Ogre::D3DTech::m_pDevice
	push	ecx
	call	?SamplerState_DMap@Ogre@@YAXPAUIDirect3DDevice9@@H@Z ; Ogre::SamplerState_DMap
	add	esp, 8

; 93   : 			if(m_Mask)

	mov	edx, DWORD PTR _this$[ebp]
	cmp	DWORD PTR [edx+404], 0
	je	SHORT $LN1@beginPass@3

; 94   : 			{
; 95   : 				SamplerState_Wrap(m_pDevice, 2);

	push	2
	mov	eax, DWORD PTR ?m_pDevice@D3DTech@Ogre@@2PAUIDirect3DDevice9@@A ; Ogre::D3DTech::m_pDevice
	push	eax
	call	?SamplerState_Wrap@Ogre@@YAXPAUIDirect3DDevice9@@H@Z ; Ogre::SamplerState_Wrap
	add	esp, 8
$LN1@beginPass@3:

; 96   : 			}
; 97   : 			applyVSPS(m_CurPass);

	mov	ecx, DWORD PTR _this$[ebp]
	mov	edx, DWORD PTR [ecx+192]
	push	edx
	mov	ecx, DWORD PTR _this$[ebp]
	call	?applyVSPS@D3DTech@Ogre@@IAEXI@Z	; Ogre::D3DTech::applyVSPS

; 98   : 		}

	mov	esp, ebp
	pop	ebp
	ret	4
?beginPass@D3DTech_Uvanim_lod0@Ogre@@UAEXI@Z ENDP	; Ogre::D3DTech_Uvanim_lod0::beginPass
; Function compile flags: /Odtp
; File i:\svnroot\client\plugins\rendersystem_d3d9\ogred3d9technique.h
_TEXT	ENDS
;	COMDAT ?SamplerState_DMap@Ogre@@YAXPAUIDirect3DDevice9@@H@Z
_TEXT	SEGMENT
_pdevice$ = 8						; size = 4
_stage$ = 12						; size = 4
?SamplerState_DMap@Ogre@@YAXPAUIDirect3DDevice9@@H@Z PROC ; Ogre::SamplerState_DMap, COMDAT

; 107  : 	{

	push	ebp
	mov	ebp, esp

; 108  : 		pdevice->SetSamplerState(stage, D3DSAMP_ADDRESSU, D3DTADDRESS_BORDER);

	push	4
	push	1
	mov	eax, DWORD PTR _stage$[ebp]
	push	eax
	mov	ecx, DWORD PTR _pdevice$[ebp]
	mov	edx, DWORD PTR [ecx]
	mov	eax, DWORD PTR _pdevice$[ebp]
	push	eax
	mov	ecx, DWORD PTR [edx+276]
	call	ecx

; 109  : 		pdevice->SetSamplerState(stage, D3DSAMP_ADDRESSV, D3DTADDRESS_BORDER);

	push	4
	push	2
	mov	edx, DWORD PTR _stage$[ebp]
	push	edx
	mov	eax, DWORD PTR _pdevice$[ebp]
	mov	ecx, DWORD PTR [eax]
	mov	edx, DWORD PTR _pdevice$[ebp]
	push	edx
	mov	eax, DWORD PTR [ecx+276]
	call	eax

; 110  : 		pdevice->SetSamplerState(stage, D3DSAMP_BORDERCOLOR, 0x00ffffff);

	push	16777215				; 00ffffffH
	push	4
	mov	ecx, DWORD PTR _stage$[ebp]
	push	ecx
	mov	edx, DWORD PTR _pdevice$[ebp]
	mov	eax, DWORD PTR [edx]
	mov	ecx, DWORD PTR _pdevice$[ebp]
	push	ecx
	mov	edx, DWORD PTR [eax+276]
	call	edx

; 111  : 
; 112  : 		pdevice->SetSamplerState(stage, D3DSAMP_MIPFILTER, D3DTEXF_NONE);

	push	0
	push	7
	mov	eax, DWORD PTR _stage$[ebp]
	push	eax
	mov	ecx, DWORD PTR _pdevice$[ebp]
	mov	edx, DWORD PTR [ecx]
	mov	eax, DWORD PTR _pdevice$[ebp]
	push	eax
	mov	ecx, DWORD PTR [edx+276]
	call	ecx

; 113  : 		pdevice->SetSamplerState(stage, D3DSAMP_MINFILTER, D3DTEXF_LINEAR);

	push	2
	push	6
	mov	edx, DWORD PTR _stage$[ebp]
	push	edx
	mov	eax, DWORD PTR _pdevice$[ebp]
	mov	ecx, DWORD PTR [eax]
	mov	edx, DWORD PTR _pdevice$[ebp]
	push	edx
	mov	eax, DWORD PTR [ecx+276]
	call	eax

; 114  : 		pdevice->SetSamplerState(stage, D3DSAMP_MAGFILTER, D3DTEXF_LINEAR);

	push	2
	push	5
	mov	ecx, DWORD PTR _stage$[ebp]
	push	ecx
	mov	edx, DWORD PTR _pdevice$[ebp]
	mov	eax, DWORD PTR [edx]
	mov	ecx, DWORD PTR _pdevice$[ebp]
	push	ecx
	mov	edx, DWORD PTR [eax+276]
	call	edx

; 115  : 	}

	pop	ebp
	ret	0
?SamplerState_DMap@Ogre@@YAXPAUIDirect3DDevice9@@H@Z ENDP ; Ogre::SamplerState_DMap
; Function compile flags: /Odtp
; File i:\svnroot\client\plugins\rendersystem_d3d9\ogred3d9tech_uvanim.h
_TEXT	ENDS
;	COMDAT ?endPass@D3DTech_Uvanim_lod0@Ogre@@UAEXXZ
_TEXT	SEGMENT
_this$ = -4						; size = 4
?endPass@D3DTech_Uvanim_lod0@Ogre@@UAEXXZ PROC		; Ogre::D3DTech_Uvanim_lod0::endPass, COMDAT
; _this$ = ecx

; 101  : 		{

	push	ebp
	mov	ebp, esp
	push	ecx
	mov	DWORD PTR _this$[ebp], ecx

; 102  : 			m_pDevice->SetRenderState(D3DRS_ZWRITEENABLE, TRUE);

	push	1
	push	14					; 0000000eH
	mov	eax, DWORD PTR ?m_pDevice@D3DTech@Ogre@@2PAUIDirect3DDevice9@@A ; Ogre::D3DTech::m_pDevice
	mov	ecx, DWORD PTR [eax]
	mov	edx, DWORD PTR ?m_pDevice@D3DTech@Ogre@@2PAUIDirect3DDevice9@@A ; Ogre::D3DTech::m_pDevice
	push	edx
	mov	eax, DWORD PTR [ecx+228]
	call	eax

; 103  : 			m_pDevice->SetRenderState(D3DRS_CULLMODE, D3DCULL_CCW);

	push	3
	push	22					; 00000016H
	mov	ecx, DWORD PTR ?m_pDevice@D3DTech@Ogre@@2PAUIDirect3DDevice9@@A ; Ogre::D3DTech::m_pDevice
	mov	edx, DWORD PTR [ecx]
	mov	eax, DWORD PTR ?m_pDevice@D3DTech@Ogre@@2PAUIDirect3DDevice9@@A ; Ogre::D3DTech::m_pDevice
	push	eax
	mov	ecx, DWORD PTR [edx+228]
	call	ecx

; 104  : 
; 105  : 			m_pDevice->SetTexture(1, 0); // 

	push	0
	push	1
	mov	edx, DWORD PTR ?m_pDevice@D3DTech@Ogre@@2PAUIDirect3DDevice9@@A ; Ogre::D3DTech::m_pDevice
	mov	eax, DWORD PTR [edx]
	mov	ecx, DWORD PTR ?m_pDevice@D3DTech@Ogre@@2PAUIDirect3DDevice9@@A ; Ogre::D3DTech::m_pDevice
	push	ecx
	mov	edx, DWORD PTR [eax+260]
	call	edx

; 106  : 		}

	mov	esp, ebp
	pop	ebp
	ret	0
?endPass@D3DTech_Uvanim_lod0@Ogre@@UAEXXZ ENDP		; Ogre::D3DTech_Uvanim_lod0::endPass
_TEXT	ENDS
PUBLIC	??1D3DTech_Uvanim_lod0@Ogre@@UAE@XZ		; Ogre::D3DTech_Uvanim_lod0::~D3DTech_Uvanim_lod0
; Function compile flags: /Odtp
;	COMDAT ??_GD3DTech_Uvanim_lod0@Ogre@@UAEPAXI@Z
_TEXT	SEGMENT
_this$ = -4						; size = 4
___flags$ = 8						; size = 4
??_GD3DTech_Uvanim_lod0@Ogre@@UAEPAXI@Z PROC		; Ogre::D3DTech_Uvanim_lod0::`scalar deleting destructor', COMDAT
; _this$ = ecx
	push	ebp
	mov	ebp, esp
	push	ecx
	mov	DWORD PTR _this$[ebp], ecx
	mov	ecx, DWORD PTR _this$[ebp]
	call	??1D3DTech_Uvanim_lod0@Ogre@@UAE@XZ
	mov	eax, DWORD PTR ___flags$[ebp]
	and	eax, 1
	je	SHORT $LN1@scalar@9
	mov	ecx, DWORD PTR _this$[ebp]
	push	ecx
	call	??3@YAXPAX@Z				; operator delete
	add	esp, 4
$LN1@scalar@9:
	mov	eax, DWORD PTR _this$[ebp]
	mov	esp, ebp
	pop	ebp
	ret	4
??_GD3DTech_Uvanim_lod0@Ogre@@UAEPAXI@Z ENDP		; Ogre::D3DTech_Uvanim_lod0::`scalar deleting destructor'
_TEXT	ENDS
;	COMDAT xdata$x
xdata$x	SEGMENT
__unwindtable$??1D3DTech_Uvanim_lod0@Ogre@@UAE@XZ DD 0ffffffffH
	DD	FLAT:__unwindfunclet$??1D3DTech_Uvanim_lod0@Ogre@@UAE@XZ$0
__ehfuncinfo$??1D3DTech_Uvanim_lod0@Ogre@@UAE@XZ DD 019930522H
	DD	01H
	DD	FLAT:__unwindtable$??1D3DTech_Uvanim_lod0@Ogre@@UAE@XZ
	DD	2 DUP(00H)
	DD	2 DUP(00H)
	DD	00H
	DD	00H
; Function compile flags: /Odtp
xdata$x	ENDS
;	COMDAT ??1D3DTech_Uvanim_lod0@Ogre@@UAE@XZ
_TEXT	SEGMENT
_this$ = -16						; size = 4
__$EHRec$ = -12						; size = 12
??1D3DTech_Uvanim_lod0@Ogre@@UAE@XZ PROC		; Ogre::D3DTech_Uvanim_lod0::~D3DTech_Uvanim_lod0, COMDAT
; _this$ = ecx
	push	ebp
	mov	ebp, esp
	push	-1
	push	__ehhandler$??1D3DTech_Uvanim_lod0@Ogre@@UAE@XZ
	mov	eax, DWORD PTR fs:0
	push	eax
	push	ecx
	mov	eax, DWORD PTR ___security_cookie
	xor	eax, ebp
	push	eax
	lea	eax, DWORD PTR __$EHRec$[ebp]
	mov	DWORD PTR fs:0, eax
	mov	DWORD PTR _this$[ebp], ecx
	mov	DWORD PTR __$EHRec$[ebp+8], 0
	mov	DWORD PTR __$EHRec$[ebp+8], -1
	mov	ecx, DWORD PTR _this$[ebp]
	call	??1D3DTech@Ogre@@UAE@XZ
	mov	ecx, DWORD PTR __$EHRec$[ebp]
	mov	DWORD PTR fs:0, ecx
	pop	ecx
	mov	esp, ebp
	pop	ebp
	ret	0
_TEXT	ENDS
;	COMDAT text$x
text$x	SEGMENT
__unwindfunclet$??1D3DTech_Uvanim_lod0@Ogre@@UAE@XZ$0:
	mov	ecx, DWORD PTR _this$[ebp]
	jmp	??1D3DTech@Ogre@@UAE@XZ
__ehhandler$??1D3DTech_Uvanim_lod0@Ogre@@UAE@XZ:
	mov	edx, DWORD PTR [esp+8]
	lea	eax, DWORD PTR [edx+12]
	mov	ecx, DWORD PTR [edx-8]
	xor	ecx, eax
	call	@__security_check_cookie@4
	mov	eax, OFFSET __ehfuncinfo$??1D3DTech_Uvanim_lod0@Ogre@@UAE@XZ
	jmp	___CxxFrameHandler3
text$x	ENDS
??1D3DTech_Uvanim_lod0@Ogre@@UAE@XZ ENDP		; Ogre::D3DTech_Uvanim_lod0::~D3DTech_Uvanim_lod0
PUBLIC	??_7D3DTech_Uvanim2Layer_lod0@Ogre@@6B@		; Ogre::D3DTech_Uvanim2Layer_lod0::`vftable'
PUBLIC	??_R4D3DTech_Uvanim2Layer_lod0@Ogre@@6B@	; Ogre::D3DTech_Uvanim2Layer_lod0::`RTTI Complete Object Locator'
PUBLIC	??_R0?AVD3DTech_Uvanim2Layer_lod0@Ogre@@@8	; Ogre::D3DTech_Uvanim2Layer_lod0 `RTTI Type Descriptor'
PUBLIC	??_R3D3DTech_Uvanim2Layer_lod0@Ogre@@8		; Ogre::D3DTech_Uvanim2Layer_lod0::`RTTI Class Hierarchy Descriptor'
PUBLIC	??_R2D3DTech_Uvanim2Layer_lod0@Ogre@@8		; Ogre::D3DTech_Uvanim2Layer_lod0::`RTTI Base Class Array'
PUBLIC	??_R1A@?0A@EA@D3DTech_Uvanim2Layer_lod0@Ogre@@8	; Ogre::D3DTech_Uvanim2Layer_lod0::`RTTI Base Class Descriptor at (0,-1,0,64)'
PUBLIC	?beginPass@D3DTech_Uvanim2Layer_lod0@Ogre@@UAEXI@Z ; Ogre::D3DTech_Uvanim2Layer_lod0::beginPass
PUBLIC	?endPass@D3DTech_Uvanim2Layer_lod0@Ogre@@UAEXXZ	; Ogre::D3DTech_Uvanim2Layer_lod0::endPass
PUBLIC	?clone@D3DTech_Uvanim2Layer_lod0@Ogre@@UAEPAVD3DTech@2@XZ ; Ogre::D3DTech_Uvanim2Layer_lod0::clone
PUBLIC	?init@D3DTech_Uvanim2Layer_lod0@Ogre@@UAEXABUShaderEnvFlags@2@ABUMaterialMacro@2@@Z ; Ogre::D3DTech_Uvanim2Layer_lod0::init
EXTRN	??_ED3DTech_Uvanim2Layer_lod0@Ogre@@UAEPAXI@Z:PROC ; Ogre::D3DTech_Uvanim2Layer_lod0::`vector deleting destructor'
;	COMDAT ??_R1A@?0A@EA@D3DTech_Uvanim2Layer_lod0@Ogre@@8
rdata$r	SEGMENT
??_R1A@?0A@EA@D3DTech_Uvanim2Layer_lod0@Ogre@@8 DD FLAT:??_R0?AVD3DTech_Uvanim2Layer_lod0@Ogre@@@8 ; Ogre::D3DTech_Uvanim2Layer_lod0::`RTTI Base Class Descriptor at (0,-1,0,64)'
	DD	02H
	DD	00H
	DD	0ffffffffH
	DD	00H
	DD	040H
	DD	FLAT:??_R3D3DTech_Uvanim2Layer_lod0@Ogre@@8
rdata$r	ENDS
;	COMDAT ??_R2D3DTech_Uvanim2Layer_lod0@Ogre@@8
rdata$r	SEGMENT
??_R2D3DTech_Uvanim2Layer_lod0@Ogre@@8 DD FLAT:??_R1A@?0A@EA@D3DTech_Uvanim2Layer_lod0@Ogre@@8 ; Ogre::D3DTech_Uvanim2Layer_lod0::`RTTI Base Class Array'
	DD	FLAT:??_R1A@?0A@EA@D3DTech@Ogre@@8
	DD	FLAT:??_R1A@?0A@EA@ShaderTechnique@Ogre@@8
rdata$r	ENDS
;	COMDAT ??_R3D3DTech_Uvanim2Layer_lod0@Ogre@@8
rdata$r	SEGMENT
??_R3D3DTech_Uvanim2Layer_lod0@Ogre@@8 DD 00H		; Ogre::D3DTech_Uvanim2Layer_lod0::`RTTI Class Hierarchy Descriptor'
	DD	00H
	DD	03H
	DD	FLAT:??_R2D3DTech_Uvanim2Layer_lod0@Ogre@@8
rdata$r	ENDS
;	COMDAT ??_R0?AVD3DTech_Uvanim2Layer_lod0@Ogre@@@8
_DATA	SEGMENT
??_R0?AVD3DTech_Uvanim2Layer_lod0@Ogre@@@8 DD FLAT:??_7type_info@@6B@ ; Ogre::D3DTech_Uvanim2Layer_lod0 `RTTI Type Descriptor'
	DD	00H
	DB	'.?AVD3DTech_Uvanim2Layer_lod0@Ogre@@', 00H
_DATA	ENDS
;	COMDAT ??_R4D3DTech_Uvanim2Layer_lod0@Ogre@@6B@
rdata$r	SEGMENT
??_R4D3DTech_Uvanim2Layer_lod0@Ogre@@6B@ DD 00H		; Ogre::D3DTech_Uvanim2Layer_lod0::`RTTI Complete Object Locator'
	DD	00H
	DD	00H
	DD	FLAT:??_R0?AVD3DTech_Uvanim2Layer_lod0@Ogre@@@8
	DD	FLAT:??_R3D3DTech_Uvanim2Layer_lod0@Ogre@@8
rdata$r	ENDS
;	COMDAT ??_7D3DTech_Uvanim2Layer_lod0@Ogre@@6B@
CONST	SEGMENT
??_7D3DTech_Uvanim2Layer_lod0@Ogre@@6B@ DD FLAT:??_R4D3DTech_Uvanim2Layer_lod0@Ogre@@6B@ ; Ogre::D3DTech_Uvanim2Layer_lod0::`vftable'
	DD	FLAT:?begin@D3DTech@Ogre@@UAEIXZ
	DD	FLAT:?end@D3DTech@Ogre@@UAEXXZ
	DD	FLAT:?beginPass@D3DTech_Uvanim2Layer_lod0@Ogre@@UAEXI@Z
	DD	FLAT:?endPass@D3DTech_Uvanim2Layer_lod0@Ogre@@UAEXXZ
	DD	FLAT:?setConstant@D3DTech@Ogre@@UAEXW4ShaderParamUsage@2@PBXI@Z
	DD	FLAT:?setConstant@D3DTech@Ogre@@UAEXPBDPBXI@Z
	DD	FLAT:?setTexture@D3DTech@Ogre@@UAEXW4ShaderParamUsage@2@PAVHardwarePixelBuffer@2@@Z
	DD	FLAT:?setTexture@D3DTech@Ogre@@UAEXPBDPAVHardwarePixelBuffer@2@@Z
	DD	FLAT:?setStreamInput@D3DTech@Ogre@@UAEXIPAPAVHardwareVertexBuffer@2@HPAI@Z
	DD	FLAT:?setStreamInput@D3DTech@Ogre@@UAEXIPAVHardwareVertexBuffer@2@I@Z
	DD	FLAT:?setStreamInput@D3DTech@Ogre@@UAEXIPAPAVHardwareVertexBuffer@2@PAI@Z
	DD	FLAT:?commitChanges@D3DTech@Ogre@@UAEXXZ
	DD	FLAT:?draw@D3DTech@Ogre@@UAEXW4PrimitiveType@2@IIPAVHardwareIndexBuffer@2@II@Z
	DD	FLAT:?draw@D3DTech@Ogre@@UAEXW4PrimitiveType@2@II@Z
	DD	FLAT:?getRequiredParams@D3DTech@Ogre@@UAEIPAW4ShaderParamUsage@2@I@Z
	DD	FLAT:??_ED3DTech_Uvanim2Layer_lod0@Ogre@@UAEPAXI@Z
	DD	FLAT:?clone@D3DTech_Uvanim2Layer_lod0@Ogre@@UAEPAVD3DTech@2@XZ
	DD	FLAT:?init@D3DTech_Uvanim2Layer_lod0@Ogre@@UAEXABUShaderEnvFlags@2@ABUMaterialMacro@2@@Z
CONST	ENDS
;	COMDAT xdata$x
xdata$x	SEGMENT
__unwindtable$??0D3DTech_Uvanim2Layer_lod0@Ogre@@QAE@XZ DD 0ffffffffH
	DD	FLAT:__unwindfunclet$??0D3DTech_Uvanim2Layer_lod0@Ogre@@QAE@XZ$0
__ehfuncinfo$??0D3DTech_Uvanim2Layer_lod0@Ogre@@QAE@XZ DD 019930522H
	DD	01H
	DD	FLAT:__unwindtable$??0D3DTech_Uvanim2Layer_lod0@Ogre@@QAE@XZ
	DD	2 DUP(00H)
	DD	2 DUP(00H)
	DD	00H
	DD	00H
; Function compile flags: /Odtp
xdata$x	ENDS
;	COMDAT ??0D3DTech_Uvanim2Layer_lod0@Ogre@@QAE@XZ
_TEXT	SEGMENT
_this$ = -16						; size = 4
__$EHRec$ = -12						; size = 12
??0D3DTech_Uvanim2Layer_lod0@Ogre@@QAE@XZ PROC		; Ogre::D3DTech_Uvanim2Layer_lod0::D3DTech_Uvanim2Layer_lod0, COMDAT
; _this$ = ecx
	push	ebp
	mov	ebp, esp
	push	-1
	push	__ehhandler$??0D3DTech_Uvanim2Layer_lod0@Ogre@@QAE@XZ
	mov	eax, DWORD PTR fs:0
	push	eax
	push	ecx
	mov	eax, DWORD PTR ___security_cookie
	xor	eax, ebp
	push	eax
	lea	eax, DWORD PTR __$EHRec$[ebp]
	mov	DWORD PTR fs:0, eax
	mov	DWORD PTR _this$[ebp], ecx
	mov	ecx, DWORD PTR _this$[ebp]
	call	??0D3DTech@Ogre@@QAE@XZ			; Ogre::D3DTech::D3DTech
	mov	DWORD PTR __$EHRec$[ebp+8], 0
	mov	eax, DWORD PTR _this$[ebp]
	mov	DWORD PTR [eax], OFFSET ??_7D3DTech_Uvanim2Layer_lod0@Ogre@@6B@
	mov	DWORD PTR __$EHRec$[ebp+8], -1
	mov	eax, DWORD PTR _this$[ebp]
	mov	ecx, DWORD PTR __$EHRec$[ebp]
	mov	DWORD PTR fs:0, ecx
	pop	ecx
	mov	esp, ebp
	pop	ebp
	ret	0
_TEXT	ENDS
;	COMDAT text$x
text$x	SEGMENT
__unwindfunclet$??0D3DTech_Uvanim2Layer_lod0@Ogre@@QAE@XZ$0:
	mov	ecx, DWORD PTR _this$[ebp]
	jmp	??1D3DTech@Ogre@@UAE@XZ
__ehhandler$??0D3DTech_Uvanim2Layer_lod0@Ogre@@QAE@XZ:
	mov	edx, DWORD PTR [esp+8]
	lea	eax, DWORD PTR [edx+12]
	mov	ecx, DWORD PTR [edx-8]
	xor	ecx, eax
	call	@__security_check_cookie@4
	mov	eax, OFFSET __ehfuncinfo$??0D3DTech_Uvanim2Layer_lod0@Ogre@@QAE@XZ
	jmp	___CxxFrameHandler3
text$x	ENDS
??0D3DTech_Uvanim2Layer_lod0@Ogre@@QAE@XZ ENDP		; Ogre::D3DTech_Uvanim2Layer_lod0::D3DTech_Uvanim2Layer_lod0
;	COMDAT xdata$x
; File i:\svnroot\client\plugins\rendersystem_d3d9\ogred3d9tech_uvanim2layer.h
xdata$x	SEGMENT
__unwindtable$?clone@D3DTech_Uvanim2Layer_lod0@Ogre@@UAEPAVD3DTech@2@XZ DD 0ffffffffH
	DD	FLAT:__unwindfunclet$?clone@D3DTech_Uvanim2Layer_lod0@Ogre@@UAEPAVD3DTech@2@XZ$0
__ehfuncinfo$?clone@D3DTech_Uvanim2Layer_lod0@Ogre@@UAEPAVD3DTech@2@XZ DD 019930522H
	DD	01H
	DD	FLAT:__unwindtable$?clone@D3DTech_Uvanim2Layer_lod0@Ogre@@UAEPAVD3DTech@2@XZ
	DD	2 DUP(00H)
	DD	2 DUP(00H)
	DD	00H
	DD	00H
; Function compile flags: /Odtp
xdata$x	ENDS
;	COMDAT ?clone@D3DTech_Uvanim2Layer_lod0@Ogre@@UAEPAVD3DTech@2@XZ
_TEXT	SEGMENT
tv74 = -28						; size = 4
_this$ = -24						; size = 4
$T139838 = -20						; size = 4
$T139837 = -16						; size = 4
__$EHRec$ = -12						; size = 12
?clone@D3DTech_Uvanim2Layer_lod0@Ogre@@UAEPAVD3DTech@2@XZ PROC ; Ogre::D3DTech_Uvanim2Layer_lod0::clone, COMDAT
; _this$ = ecx

; 14   : 		{

	push	ebp
	mov	ebp, esp
	push	-1
	push	__ehhandler$?clone@D3DTech_Uvanim2Layer_lod0@Ogre@@UAEPAVD3DTech@2@XZ
	mov	eax, DWORD PTR fs:0
	push	eax
	sub	esp, 16					; 00000010H
	mov	eax, DWORD PTR ___security_cookie
	xor	eax, ebp
	push	eax
	lea	eax, DWORD PTR __$EHRec$[ebp]
	mov	DWORD PTR fs:0, eax
	mov	DWORD PTR _this$[ebp], ecx

; 15   : 			return new D3DTech_Uvanim2Layer_lod0;

	push	392					; 00000188H
	call	??2@YAPAXI@Z				; operator new
	add	esp, 4
	mov	DWORD PTR $T139838[ebp], eax
	mov	DWORD PTR __$EHRec$[ebp+8], 0
	cmp	DWORD PTR $T139838[ebp], 0
	je	SHORT $LN3@clone@9
	mov	ecx, DWORD PTR $T139838[ebp]
	call	??0D3DTech_Uvanim2Layer_lod0@Ogre@@QAE@XZ
	mov	DWORD PTR tv74[ebp], eax
	jmp	SHORT $LN4@clone@9
$LN3@clone@9:
	mov	DWORD PTR tv74[ebp], 0
$LN4@clone@9:
	mov	eax, DWORD PTR tv74[ebp]
	mov	DWORD PTR $T139837[ebp], eax
	mov	DWORD PTR __$EHRec$[ebp+8], -1
	mov	eax, DWORD PTR $T139837[ebp]

; 16   : 		}

	mov	ecx, DWORD PTR __$EHRec$[ebp]
	mov	DWORD PTR fs:0, ecx
	pop	ecx
	mov	esp, ebp
	pop	ebp
	ret	0
_TEXT	ENDS
;	COMDAT text$x
text$x	SEGMENT
__unwindfunclet$?clone@D3DTech_Uvanim2Layer_lod0@Ogre@@UAEPAVD3DTech@2@XZ$0:
	mov	eax, DWORD PTR $T139838[ebp]
	push	eax
	call	??3@YAXPAX@Z				; operator delete
	pop	ecx
	ret	0
__ehhandler$?clone@D3DTech_Uvanim2Layer_lod0@Ogre@@UAEPAVD3DTech@2@XZ:
	mov	edx, DWORD PTR [esp+8]
	lea	eax, DWORD PTR [edx+12]
	mov	ecx, DWORD PTR [edx-20]
	xor	ecx, eax
	call	@__security_check_cookie@4
	mov	eax, OFFSET __ehfuncinfo$?clone@D3DTech_Uvanim2Layer_lod0@Ogre@@UAEPAVD3DTech@2@XZ
	jmp	___CxxFrameHandler3
text$x	ENDS
?clone@D3DTech_Uvanim2Layer_lod0@Ogre@@UAEPAVD3DTech@2@XZ ENDP ; Ogre::D3DTech_Uvanim2Layer_lod0::clone
; Function compile flags: /Odtp
;	COMDAT ?init@D3DTech_Uvanim2Layer_lod0@Ogre@@UAEXABUShaderEnvFlags@2@ABUMaterialMacro@2@@Z
_TEXT	SEGMENT
_this$ = -4						; size = 4
_env$ = 8						; size = 4
_macros$ = 12						; size = 4
?init@D3DTech_Uvanim2Layer_lod0@Ogre@@UAEXABUShaderEnvFlags@2@ABUMaterialMacro@2@@Z PROC ; Ogre::D3DTech_Uvanim2Layer_lod0::init, COMDAT
; _this$ = ecx

; 19   : 		{

	push	ebp
	mov	ebp, esp
	push	ecx
	mov	DWORD PTR _this$[ebp], ecx

; 20   : 			m_nPass = 1;

	mov	eax, DWORD PTR _this$[ebp]
	mov	DWORD PTR [eax+188], 1

; 21   : 			m_AllPass[0].vs = m_pMtlTemplate->getCompiledVSPS(COMPILED_VS, "Main", env, macros);

	mov	ecx, DWORD PTR _macros$[ebp]
	push	ecx
	mov	edx, DWORD PTR _env$[ebp]
	push	edx
	push	OFFSET ??_C@_04KGFMLCPK@Main?$AA@
	push	1
	mov	eax, DWORD PTR _this$[ebp]
	mov	ecx, DWORD PTR [eax+8]
	call	?getCompiledVSPS@D3DMaterialTemplate@Ogre@@QAEPAVCompiledShader@2@W4COMPILED_TYPE@2@PBDABUShaderEnvFlags@2@ABUMaterialMacro@2@@Z ; Ogre::D3DMaterialTemplate::getCompiledVSPS
	mov	ecx, DWORD PTR _this$[ebp]
	mov	DWORD PTR [ecx+12], eax

; 22   : 			m_AllPass[0].ps = m_pMtlTemplate->getCompiledVSPS(COMPILED_PS, "Main", env, macros);

	mov	edx, DWORD PTR _macros$[ebp]
	push	edx
	mov	eax, DWORD PTR _env$[ebp]
	push	eax
	push	OFFSET ??_C@_04KGFMLCPK@Main?$AA@
	push	2
	mov	ecx, DWORD PTR _this$[ebp]
	mov	ecx, DWORD PTR [ecx+8]
	call	?getCompiledVSPS@D3DMaterialTemplate@Ogre@@QAEPAVCompiledShader@2@W4COMPILED_TYPE@2@PBDABUShaderEnvFlags@2@ABUMaterialMacro@2@@Z ; Ogre::D3DMaterialTemplate::getCompiledVSPS
	mov	edx, DWORD PTR _this$[ebp]
	mov	DWORD PTR [edx+16], eax

; 23   : 
; 24   : 			m_AllPass[0].ntex = 2;

	mov	eax, DWORD PTR _this$[ebp]
	mov	DWORD PTR [eax+20], 2

; 25   : 			m_AllPass[0].texstage[0] = SPU_GENERAL_PARAM + 0; //diffusetex

	mov	ecx, DWORD PTR _this$[ebp]
	mov	DWORD PTR [ecx+24], 1000		; 000003e8H

; 26   : 			m_AllPass[0].texstage[1] = SPU_GENERAL_PARAM + 1;

	mov	edx, DWORD PTR _this$[ebp]
	mov	DWORD PTR [edx+28], 1001		; 000003e9H

; 27   : 
; 28   : 			initParams();

	mov	ecx, DWORD PTR _this$[ebp]
	call	?initParams@D3DTech@Ogre@@IAEXXZ	; Ogre::D3DTech::initParams

; 29   : 			m_UsedMacroMask = 0;

	mov	eax, DWORD PTR _this$[ebp]
	mov	DWORD PTR [eax+4], 0

; 30   : 		}

	mov	esp, ebp
	pop	ebp
	ret	8
?init@D3DTech_Uvanim2Layer_lod0@Ogre@@UAEXABUShaderEnvFlags@2@ABUMaterialMacro@2@@Z ENDP ; Ogre::D3DTech_Uvanim2Layer_lod0::init
; Function compile flags: /Odtp
_TEXT	ENDS
;	COMDAT ?beginPass@D3DTech_Uvanim2Layer_lod0@Ogre@@UAEXI@Z
_TEXT	SEGMENT
_this$ = -4						; size = 4
_ipass$ = 8						; size = 4
?beginPass@D3DTech_Uvanim2Layer_lod0@Ogre@@UAEXI@Z PROC	; Ogre::D3DTech_Uvanim2Layer_lod0::beginPass, COMDAT
; _this$ = ecx

; 33   : 		{

	push	ebp
	mov	ebp, esp
	push	ecx
	mov	DWORD PTR _this$[ebp], ecx

; 34   : 			m_CurPass = ipass;

	mov	eax, DWORD PTR _this$[ebp]
	mov	ecx, DWORD PTR _ipass$[ebp]
	mov	DWORD PTR [eax+192], ecx

; 35   : 
; 36   : 			m_pDevice->SetRenderState(D3DRS_CULLMODE, D3DCULL_NONE);

	push	1
	push	22					; 00000016H
	mov	edx, DWORD PTR ?m_pDevice@D3DTech@Ogre@@2PAUIDirect3DDevice9@@A ; Ogre::D3DTech::m_pDevice
	mov	eax, DWORD PTR [edx]
	mov	ecx, DWORD PTR ?m_pDevice@D3DTech@Ogre@@2PAUIDirect3DDevice9@@A ; Ogre::D3DTech::m_pDevice
	push	ecx
	mov	edx, DWORD PTR [eax+228]
	call	edx

; 37   : 			m_pDevice->SetRenderState(D3DRS_ZENABLE, true);

	push	1
	push	7
	mov	eax, DWORD PTR ?m_pDevice@D3DTech@Ogre@@2PAUIDirect3DDevice9@@A ; Ogre::D3DTech::m_pDevice
	mov	ecx, DWORD PTR [eax]
	mov	edx, DWORD PTR ?m_pDevice@D3DTech@Ogre@@2PAUIDirect3DDevice9@@A ; Ogre::D3DTech::m_pDevice
	push	edx
	mov	eax, DWORD PTR [ecx+228]
	call	eax

; 38   : 			m_pDevice->SetRenderState(D3DRS_ZWRITEENABLE, true);

	push	1
	push	14					; 0000000eH
	mov	ecx, DWORD PTR ?m_pDevice@D3DTech@Ogre@@2PAUIDirect3DDevice9@@A ; Ogre::D3DTech::m_pDevice
	mov	edx, DWORD PTR [ecx]
	mov	eax, DWORD PTR ?m_pDevice@D3DTech@Ogre@@2PAUIDirect3DDevice9@@A ; Ogre::D3DTech::m_pDevice
	push	eax
	mov	ecx, DWORD PTR [edx+228]
	call	ecx

; 39   : 
; 40   : 			SetBlendState(m_pDevice, BLEND_ALPHATEST, 85);

	push	85					; 00000055H
	push	1
	mov	edx, DWORD PTR ?m_pDevice@D3DTech@Ogre@@2PAUIDirect3DDevice9@@A ; Ogre::D3DTech::m_pDevice
	push	edx
	call	?SetBlendState@Ogre@@YAXPAUIDirect3DDevice9@@HH@Z ; Ogre::SetBlendState
	add	esp, 12					; 0000000cH

; 41   : 
; 42   : 			applyVSPS(m_CurPass);

	mov	eax, DWORD PTR _this$[ebp]
	mov	ecx, DWORD PTR [eax+192]
	push	ecx
	mov	ecx, DWORD PTR _this$[ebp]
	call	?applyVSPS@D3DTech@Ogre@@IAEXI@Z	; Ogre::D3DTech::applyVSPS

; 43   : 		}

	mov	esp, ebp
	pop	ebp
	ret	4
?beginPass@D3DTech_Uvanim2Layer_lod0@Ogre@@UAEXI@Z ENDP	; Ogre::D3DTech_Uvanim2Layer_lod0::beginPass
; Function compile flags: /Odtp
_TEXT	ENDS
;	COMDAT ?endPass@D3DTech_Uvanim2Layer_lod0@Ogre@@UAEXXZ
_TEXT	SEGMENT
_this$ = -4						; size = 4
?endPass@D3DTech_Uvanim2Layer_lod0@Ogre@@UAEXXZ PROC	; Ogre::D3DTech_Uvanim2Layer_lod0::endPass, COMDAT
; _this$ = ecx

; 46   : 		{

	push	ebp
	mov	ebp, esp
	push	ecx
	mov	DWORD PTR _this$[ebp], ecx

; 47   : 		}

	mov	esp, ebp
	pop	ebp
	ret	0
?endPass@D3DTech_Uvanim2Layer_lod0@Ogre@@UAEXXZ ENDP	; Ogre::D3DTech_Uvanim2Layer_lod0::endPass
_TEXT	ENDS
PUBLIC	??1D3DTech_Uvanim2Layer_lod0@Ogre@@UAE@XZ	; Ogre::D3DTech_Uvanim2Layer_lod0::~D3DTech_Uvanim2Layer_lod0
; Function compile flags: /Odtp
;	COMDAT ??_GD3DTech_Uvanim2Layer_lod0@Ogre@@UAEPAXI@Z
_TEXT	SEGMENT
_this$ = -4						; size = 4
___flags$ = 8						; size = 4
??_GD3DTech_Uvanim2Layer_lod0@Ogre@@UAEPAXI@Z PROC	; Ogre::D3DTech_Uvanim2Layer_lod0::`scalar deleting destructor', COMDAT
; _this$ = ecx
	push	ebp
	mov	ebp, esp
	push	ecx
	mov	DWORD PTR _this$[ebp], ecx
	mov	ecx, DWORD PTR _this$[ebp]
	call	??1D3DTech_Uvanim2Layer_lod0@Ogre@@UAE@XZ
	mov	eax, DWORD PTR ___flags$[ebp]
	and	eax, 1
	je	SHORT $LN1@scalar@10
	mov	ecx, DWORD PTR _this$[ebp]
	push	ecx
	call	??3@YAXPAX@Z				; operator delete
	add	esp, 4
$LN1@scalar@10:
	mov	eax, DWORD PTR _this$[ebp]
	mov	esp, ebp
	pop	ebp
	ret	4
??_GD3DTech_Uvanim2Layer_lod0@Ogre@@UAEPAXI@Z ENDP	; Ogre::D3DTech_Uvanim2Layer_lod0::`scalar deleting destructor'
_TEXT	ENDS
;	COMDAT xdata$x
xdata$x	SEGMENT
__unwindtable$??1D3DTech_Uvanim2Layer_lod0@Ogre@@UAE@XZ DD 0ffffffffH
	DD	FLAT:__unwindfunclet$??1D3DTech_Uvanim2Layer_lod0@Ogre@@UAE@XZ$0
__ehfuncinfo$??1D3DTech_Uvanim2Layer_lod0@Ogre@@UAE@XZ DD 019930522H
	DD	01H
	DD	FLAT:__unwindtable$??1D3DTech_Uvanim2Layer_lod0@Ogre@@UAE@XZ
	DD	2 DUP(00H)
	DD	2 DUP(00H)
	DD	00H
	DD	00H
; Function compile flags: /Odtp
xdata$x	ENDS
;	COMDAT ??1D3DTech_Uvanim2Layer_lod0@Ogre@@UAE@XZ
_TEXT	SEGMENT
_this$ = -16						; size = 4
__$EHRec$ = -12						; size = 12
??1D3DTech_Uvanim2Layer_lod0@Ogre@@UAE@XZ PROC		; Ogre::D3DTech_Uvanim2Layer_lod0::~D3DTech_Uvanim2Layer_lod0, COMDAT
; _this$ = ecx
	push	ebp
	mov	ebp, esp
	push	-1
	push	__ehhandler$??1D3DTech_Uvanim2Layer_lod0@Ogre@@UAE@XZ
	mov	eax, DWORD PTR fs:0
	push	eax
	push	ecx
	mov	eax, DWORD PTR ___security_cookie
	xor	eax, ebp
	push	eax
	lea	eax, DWORD PTR __$EHRec$[ebp]
	mov	DWORD PTR fs:0, eax
	mov	DWORD PTR _this$[ebp], ecx
	mov	DWORD PTR __$EHRec$[ebp+8], 0
	mov	DWORD PTR __$EHRec$[ebp+8], -1
	mov	ecx, DWORD PTR _this$[ebp]
	call	??1D3DTech@Ogre@@UAE@XZ
	mov	ecx, DWORD PTR __$EHRec$[ebp]
	mov	DWORD PTR fs:0, ecx
	pop	ecx
	mov	esp, ebp
	pop	ebp
	ret	0
_TEXT	ENDS
;	COMDAT text$x
text$x	SEGMENT
__unwindfunclet$??1D3DTech_Uvanim2Layer_lod0@Ogre@@UAE@XZ$0:
	mov	ecx, DWORD PTR _this$[ebp]
	jmp	??1D3DTech@Ogre@@UAE@XZ
__ehhandler$??1D3DTech_Uvanim2Layer_lod0@Ogre@@UAE@XZ:
	mov	edx, DWORD PTR [esp+8]
	lea	eax, DWORD PTR [edx+12]
	mov	ecx, DWORD PTR [edx-8]
	xor	ecx, eax
	call	@__security_check_cookie@4
	mov	eax, OFFSET __ehfuncinfo$??1D3DTech_Uvanim2Layer_lod0@Ogre@@UAE@XZ
	jmp	___CxxFrameHandler3
text$x	ENDS
??1D3DTech_Uvanim2Layer_lod0@Ogre@@UAE@XZ ENDP		; Ogre::D3DTech_Uvanim2Layer_lod0::~D3DTech_Uvanim2Layer_lod0
PUBLIC	??_7D3DTech_UvanimBlend_lod0@Ogre@@6B@		; Ogre::D3DTech_UvanimBlend_lod0::`vftable'
PUBLIC	??_R4D3DTech_UvanimBlend_lod0@Ogre@@6B@		; Ogre::D3DTech_UvanimBlend_lod0::`RTTI Complete Object Locator'
PUBLIC	??_R0?AVD3DTech_UvanimBlend_lod0@Ogre@@@8	; Ogre::D3DTech_UvanimBlend_lod0 `RTTI Type Descriptor'
PUBLIC	??_R3D3DTech_UvanimBlend_lod0@Ogre@@8		; Ogre::D3DTech_UvanimBlend_lod0::`RTTI Class Hierarchy Descriptor'
PUBLIC	??_R2D3DTech_UvanimBlend_lod0@Ogre@@8		; Ogre::D3DTech_UvanimBlend_lod0::`RTTI Base Class Array'
PUBLIC	??_R1A@?0A@EA@D3DTech_UvanimBlend_lod0@Ogre@@8	; Ogre::D3DTech_UvanimBlend_lod0::`RTTI Base Class Descriptor at (0,-1,0,64)'
PUBLIC	?beginPass@D3DTech_UvanimBlend_lod0@Ogre@@UAEXI@Z ; Ogre::D3DTech_UvanimBlend_lod0::beginPass
PUBLIC	?endPass@D3DTech_UvanimBlend_lod0@Ogre@@UAEXXZ	; Ogre::D3DTech_UvanimBlend_lod0::endPass
PUBLIC	?clone@D3DTech_UvanimBlend_lod0@Ogre@@UAEPAVD3DTech@2@XZ ; Ogre::D3DTech_UvanimBlend_lod0::clone
PUBLIC	?init@D3DTech_UvanimBlend_lod0@Ogre@@UAEXABUShaderEnvFlags@2@ABUMaterialMacro@2@@Z ; Ogre::D3DTech_UvanimBlend_lod0::init
EXTRN	??_ED3DTech_UvanimBlend_lod0@Ogre@@UAEPAXI@Z:PROC ; Ogre::D3DTech_UvanimBlend_lod0::`vector deleting destructor'
;	COMDAT ??_R1A@?0A@EA@D3DTech_UvanimBlend_lod0@Ogre@@8
rdata$r	SEGMENT
??_R1A@?0A@EA@D3DTech_UvanimBlend_lod0@Ogre@@8 DD FLAT:??_R0?AVD3DTech_UvanimBlend_lod0@Ogre@@@8 ; Ogre::D3DTech_UvanimBlend_lod0::`RTTI Base Class Descriptor at (0,-1,0,64)'
	DD	02H
	DD	00H
	DD	0ffffffffH
	DD	00H
	DD	040H
	DD	FLAT:??_R3D3DTech_UvanimBlend_lod0@Ogre@@8
rdata$r	ENDS
;	COMDAT ??_R2D3DTech_UvanimBlend_lod0@Ogre@@8
rdata$r	SEGMENT
??_R2D3DTech_UvanimBlend_lod0@Ogre@@8 DD FLAT:??_R1A@?0A@EA@D3DTech_UvanimBlend_lod0@Ogre@@8 ; Ogre::D3DTech_UvanimBlend_lod0::`RTTI Base Class Array'
	DD	FLAT:??_R1A@?0A@EA@D3DTech@Ogre@@8
	DD	FLAT:??_R1A@?0A@EA@ShaderTechnique@Ogre@@8
rdata$r	ENDS
;	COMDAT ??_R3D3DTech_UvanimBlend_lod0@Ogre@@8
rdata$r	SEGMENT
??_R3D3DTech_UvanimBlend_lod0@Ogre@@8 DD 00H		; Ogre::D3DTech_UvanimBlend_lod0::`RTTI Class Hierarchy Descriptor'
	DD	00H
	DD	03H
	DD	FLAT:??_R2D3DTech_UvanimBlend_lod0@Ogre@@8
rdata$r	ENDS
;	COMDAT ??_R0?AVD3DTech_UvanimBlend_lod0@Ogre@@@8
_DATA	SEGMENT
??_R0?AVD3DTech_UvanimBlend_lod0@Ogre@@@8 DD FLAT:??_7type_info@@6B@ ; Ogre::D3DTech_UvanimBlend_lod0 `RTTI Type Descriptor'
	DD	00H
	DB	'.?AVD3DTech_UvanimBlend_lod0@Ogre@@', 00H
_DATA	ENDS
;	COMDAT ??_R4D3DTech_UvanimBlend_lod0@Ogre@@6B@
rdata$r	SEGMENT
??_R4D3DTech_UvanimBlend_lod0@Ogre@@6B@ DD 00H		; Ogre::D3DTech_UvanimBlend_lod0::`RTTI Complete Object Locator'
	DD	00H
	DD	00H
	DD	FLAT:??_R0?AVD3DTech_UvanimBlend_lod0@Ogre@@@8
	DD	FLAT:??_R3D3DTech_UvanimBlend_lod0@Ogre@@8
rdata$r	ENDS
;	COMDAT ??_7D3DTech_UvanimBlend_lod0@Ogre@@6B@
CONST	SEGMENT
??_7D3DTech_UvanimBlend_lod0@Ogre@@6B@ DD FLAT:??_R4D3DTech_UvanimBlend_lod0@Ogre@@6B@ ; Ogre::D3DTech_UvanimBlend_lod0::`vftable'
	DD	FLAT:?begin@D3DTech@Ogre@@UAEIXZ
	DD	FLAT:?end@D3DTech@Ogre@@UAEXXZ
	DD	FLAT:?beginPass@D3DTech_UvanimBlend_lod0@Ogre@@UAEXI@Z
	DD	FLAT:?endPass@D3DTech_UvanimBlend_lod0@Ogre@@UAEXXZ
	DD	FLAT:?setConstant@D3DTech@Ogre@@UAEXW4ShaderParamUsage@2@PBXI@Z
	DD	FLAT:?setConstant@D3DTech@Ogre@@UAEXPBDPBXI@Z
	DD	FLAT:?setTexture@D3DTech@Ogre@@UAEXW4ShaderParamUsage@2@PAVHardwarePixelBuffer@2@@Z
	DD	FLAT:?setTexture@D3DTech@Ogre@@UAEXPBDPAVHardwarePixelBuffer@2@@Z
	DD	FLAT:?setStreamInput@D3DTech@Ogre@@UAEXIPAPAVHardwareVertexBuffer@2@HPAI@Z
	DD	FLAT:?setStreamInput@D3DTech@Ogre@@UAEXIPAVHardwareVertexBuffer@2@I@Z
	DD	FLAT:?setStreamInput@D3DTech@Ogre@@UAEXIPAPAVHardwareVertexBuffer@2@PAI@Z
	DD	FLAT:?commitChanges@D3DTech@Ogre@@UAEXXZ
	DD	FLAT:?draw@D3DTech@Ogre@@UAEXW4PrimitiveType@2@IIPAVHardwareIndexBuffer@2@II@Z
	DD	FLAT:?draw@D3DTech@Ogre@@UAEXW4PrimitiveType@2@II@Z
	DD	FLAT:?getRequiredParams@D3DTech@Ogre@@UAEIPAW4ShaderParamUsage@2@I@Z
	DD	FLAT:??_ED3DTech_UvanimBlend_lod0@Ogre@@UAEPAXI@Z
	DD	FLAT:?clone@D3DTech_UvanimBlend_lod0@Ogre@@UAEPAVD3DTech@2@XZ
	DD	FLAT:?init@D3DTech_UvanimBlend_lod0@Ogre@@UAEXABUShaderEnvFlags@2@ABUMaterialMacro@2@@Z
CONST	ENDS
;	COMDAT xdata$x
xdata$x	SEGMENT
__unwindtable$??0D3DTech_UvanimBlend_lod0@Ogre@@QAE@XZ DD 0ffffffffH
	DD	FLAT:__unwindfunclet$??0D3DTech_UvanimBlend_lod0@Ogre@@QAE@XZ$0
__ehfuncinfo$??0D3DTech_UvanimBlend_lod0@Ogre@@QAE@XZ DD 019930522H
	DD	01H
	DD	FLAT:__unwindtable$??0D3DTech_UvanimBlend_lod0@Ogre@@QAE@XZ
	DD	2 DUP(00H)
	DD	2 DUP(00H)
	DD	00H
	DD	00H
; Function compile flags: /Odtp
xdata$x	ENDS
;	COMDAT ??0D3DTech_UvanimBlend_lod0@Ogre@@QAE@XZ
_TEXT	SEGMENT
_this$ = -16						; size = 4
__$EHRec$ = -12						; size = 12
??0D3DTech_UvanimBlend_lod0@Ogre@@QAE@XZ PROC		; Ogre::D3DTech_UvanimBlend_lod0::D3DTech_UvanimBlend_lod0, COMDAT
; _this$ = ecx
	push	ebp
	mov	ebp, esp
	push	-1
	push	__ehhandler$??0D3DTech_UvanimBlend_lod0@Ogre@@QAE@XZ
	mov	eax, DWORD PTR fs:0
	push	eax
	push	ecx
	mov	eax, DWORD PTR ___security_cookie
	xor	eax, ebp
	push	eax
	lea	eax, DWORD PTR __$EHRec$[ebp]
	mov	DWORD PTR fs:0, eax
	mov	DWORD PTR _this$[ebp], ecx
	mov	ecx, DWORD PTR _this$[ebp]
	call	??0D3DTech@Ogre@@QAE@XZ			; Ogre::D3DTech::D3DTech
	mov	DWORD PTR __$EHRec$[ebp+8], 0
	mov	eax, DWORD PTR _this$[ebp]
	mov	DWORD PTR [eax], OFFSET ??_7D3DTech_UvanimBlend_lod0@Ogre@@6B@
	mov	DWORD PTR __$EHRec$[ebp+8], -1
	mov	eax, DWORD PTR _this$[ebp]
	mov	ecx, DWORD PTR __$EHRec$[ebp]
	mov	DWORD PTR fs:0, ecx
	pop	ecx
	mov	esp, ebp
	pop	ebp
	ret	0
_TEXT	ENDS
;	COMDAT text$x
text$x	SEGMENT
__unwindfunclet$??0D3DTech_UvanimBlend_lod0@Ogre@@QAE@XZ$0:
	mov	ecx, DWORD PTR _this$[ebp]
	jmp	??1D3DTech@Ogre@@UAE@XZ
__ehhandler$??0D3DTech_UvanimBlend_lod0@Ogre@@QAE@XZ:
	mov	edx, DWORD PTR [esp+8]
	lea	eax, DWORD PTR [edx+12]
	mov	ecx, DWORD PTR [edx-8]
	xor	ecx, eax
	call	@__security_check_cookie@4
	mov	eax, OFFSET __ehfuncinfo$??0D3DTech_UvanimBlend_lod0@Ogre@@QAE@XZ
	jmp	___CxxFrameHandler3
text$x	ENDS
??0D3DTech_UvanimBlend_lod0@Ogre@@QAE@XZ ENDP		; Ogre::D3DTech_UvanimBlend_lod0::D3DTech_UvanimBlend_lod0
;	COMDAT xdata$x
; File i:\svnroot\client\plugins\rendersystem_d3d9\ogred3d9tech_uvanimblend.h
xdata$x	SEGMENT
__unwindtable$?clone@D3DTech_UvanimBlend_lod0@Ogre@@UAEPAVD3DTech@2@XZ DD 0ffffffffH
	DD	FLAT:__unwindfunclet$?clone@D3DTech_UvanimBlend_lod0@Ogre@@UAEPAVD3DTech@2@XZ$0
__ehfuncinfo$?clone@D3DTech_UvanimBlend_lod0@Ogre@@UAEPAVD3DTech@2@XZ DD 019930522H
	DD	01H
	DD	FLAT:__unwindtable$?clone@D3DTech_UvanimBlend_lod0@Ogre@@UAEPAVD3DTech@2@XZ
	DD	2 DUP(00H)
	DD	2 DUP(00H)
	DD	00H
	DD	00H
; Function compile flags: /Odtp
xdata$x	ENDS
;	COMDAT ?clone@D3DTech_UvanimBlend_lod0@Ogre@@UAEPAVD3DTech@2@XZ
_TEXT	SEGMENT
tv74 = -28						; size = 4
_this$ = -24						; size = 4
$T139877 = -20						; size = 4
$T139876 = -16						; size = 4
__$EHRec$ = -12						; size = 12
?clone@D3DTech_UvanimBlend_lod0@Ogre@@UAEPAVD3DTech@2@XZ PROC ; Ogre::D3DTech_UvanimBlend_lod0::clone, COMDAT
; _this$ = ecx

; 14   : 		{

	push	ebp
	mov	ebp, esp
	push	-1
	push	__ehhandler$?clone@D3DTech_UvanimBlend_lod0@Ogre@@UAEPAVD3DTech@2@XZ
	mov	eax, DWORD PTR fs:0
	push	eax
	sub	esp, 16					; 00000010H
	mov	eax, DWORD PTR ___security_cookie
	xor	eax, ebp
	push	eax
	lea	eax, DWORD PTR __$EHRec$[ebp]
	mov	DWORD PTR fs:0, eax
	mov	DWORD PTR _this$[ebp], ecx

; 15   : 			return new D3DTech_UvanimBlend_lod0;

	push	392					; 00000188H
	call	??2@YAPAXI@Z				; operator new
	add	esp, 4
	mov	DWORD PTR $T139877[ebp], eax
	mov	DWORD PTR __$EHRec$[ebp+8], 0
	cmp	DWORD PTR $T139877[ebp], 0
	je	SHORT $LN3@clone@10
	mov	ecx, DWORD PTR $T139877[ebp]
	call	??0D3DTech_UvanimBlend_lod0@Ogre@@QAE@XZ
	mov	DWORD PTR tv74[ebp], eax
	jmp	SHORT $LN4@clone@10
$LN3@clone@10:
	mov	DWORD PTR tv74[ebp], 0
$LN4@clone@10:
	mov	eax, DWORD PTR tv74[ebp]
	mov	DWORD PTR $T139876[ebp], eax
	mov	DWORD PTR __$EHRec$[ebp+8], -1
	mov	eax, DWORD PTR $T139876[ebp]

; 16   : 		}

	mov	ecx, DWORD PTR __$EHRec$[ebp]
	mov	DWORD PTR fs:0, ecx
	pop	ecx
	mov	esp, ebp
	pop	ebp
	ret	0
_TEXT	ENDS
;	COMDAT text$x
text$x	SEGMENT
__unwindfunclet$?clone@D3DTech_UvanimBlend_lod0@Ogre@@UAEPAVD3DTech@2@XZ$0:
	mov	eax, DWORD PTR $T139877[ebp]
	push	eax
	call	??3@YAXPAX@Z				; operator delete
	pop	ecx
	ret	0
__ehhandler$?clone@D3DTech_UvanimBlend_lod0@Ogre@@UAEPAVD3DTech@2@XZ:
	mov	edx, DWORD PTR [esp+8]
	lea	eax, DWORD PTR [edx+12]
	mov	ecx, DWORD PTR [edx-20]
	xor	ecx, eax
	call	@__security_check_cookie@4
	mov	eax, OFFSET __ehfuncinfo$?clone@D3DTech_UvanimBlend_lod0@Ogre@@UAEPAVD3DTech@2@XZ
	jmp	___CxxFrameHandler3
text$x	ENDS
?clone@D3DTech_UvanimBlend_lod0@Ogre@@UAEPAVD3DTech@2@XZ ENDP ; Ogre::D3DTech_UvanimBlend_lod0::clone
; Function compile flags: /Odtp
;	COMDAT ?init@D3DTech_UvanimBlend_lod0@Ogre@@UAEXABUShaderEnvFlags@2@ABUMaterialMacro@2@@Z
_TEXT	SEGMENT
_this$ = -4						; size = 4
_env$ = 8						; size = 4
_macros$ = 12						; size = 4
?init@D3DTech_UvanimBlend_lod0@Ogre@@UAEXABUShaderEnvFlags@2@ABUMaterialMacro@2@@Z PROC ; Ogre::D3DTech_UvanimBlend_lod0::init, COMDAT
; _this$ = ecx

; 19   : 		{

	push	ebp
	mov	ebp, esp
	push	ecx
	mov	DWORD PTR _this$[ebp], ecx

; 20   : 			m_nPass = 1;

	mov	eax, DWORD PTR _this$[ebp]
	mov	DWORD PTR [eax+188], 1

; 21   : 
; 22   : 			m_AllPass[0].vs = m_pMtlTemplate->getCompiledVSPS(COMPILED_VS, "Main", env, macros);

	mov	ecx, DWORD PTR _macros$[ebp]
	push	ecx
	mov	edx, DWORD PTR _env$[ebp]
	push	edx
	push	OFFSET ??_C@_04KGFMLCPK@Main?$AA@
	push	1
	mov	eax, DWORD PTR _this$[ebp]
	mov	ecx, DWORD PTR [eax+8]
	call	?getCompiledVSPS@D3DMaterialTemplate@Ogre@@QAEPAVCompiledShader@2@W4COMPILED_TYPE@2@PBDABUShaderEnvFlags@2@ABUMaterialMacro@2@@Z ; Ogre::D3DMaterialTemplate::getCompiledVSPS
	mov	ecx, DWORD PTR _this$[ebp]
	mov	DWORD PTR [ecx+12], eax

; 23   : 			m_AllPass[0].ps = m_pMtlTemplate->getCompiledVSPS(COMPILED_PS, "Main", env, macros);

	mov	edx, DWORD PTR _macros$[ebp]
	push	edx
	mov	eax, DWORD PTR _env$[ebp]
	push	eax
	push	OFFSET ??_C@_04KGFMLCPK@Main?$AA@
	push	2
	mov	ecx, DWORD PTR _this$[ebp]
	mov	ecx, DWORD PTR [ecx+8]
	call	?getCompiledVSPS@D3DMaterialTemplate@Ogre@@QAEPAVCompiledShader@2@W4COMPILED_TYPE@2@PBDABUShaderEnvFlags@2@ABUMaterialMacro@2@@Z ; Ogre::D3DMaterialTemplate::getCompiledVSPS
	mov	edx, DWORD PTR _this$[ebp]
	mov	DWORD PTR [edx+16], eax

; 24   : 
; 25   : 			m_AllPass[0].ntex = 2;

	mov	eax, DWORD PTR _this$[ebp]
	mov	DWORD PTR [eax+20], 2

; 26   : 			m_AllPass[0].texstage[0] = SPU_GENERAL_PARAM + 0; //diffusetex

	mov	ecx, DWORD PTR _this$[ebp]
	mov	DWORD PTR [ecx+24], 1000		; 000003e8H

; 27   : 			m_AllPass[0].texstage[1] = SPU_GENERAL_PARAM + 1;

	mov	edx, DWORD PTR _this$[ebp]
	mov	DWORD PTR [edx+28], 1001		; 000003e9H

; 28   : 
; 29   : 			initParams();

	mov	ecx, DWORD PTR _this$[ebp]
	call	?initParams@D3DTech@Ogre@@IAEXXZ	; Ogre::D3DTech::initParams

; 30   : 			m_UsedMacroMask = 0;

	mov	eax, DWORD PTR _this$[ebp]
	mov	DWORD PTR [eax+4], 0

; 31   : 		}

	mov	esp, ebp
	pop	ebp
	ret	8
?init@D3DTech_UvanimBlend_lod0@Ogre@@UAEXABUShaderEnvFlags@2@ABUMaterialMacro@2@@Z ENDP ; Ogre::D3DTech_UvanimBlend_lod0::init
; Function compile flags: /Odtp
_TEXT	ENDS
;	COMDAT ?beginPass@D3DTech_UvanimBlend_lod0@Ogre@@UAEXI@Z
_TEXT	SEGMENT
_this$ = -4						; size = 4
_ipass$ = 8						; size = 4
?beginPass@D3DTech_UvanimBlend_lod0@Ogre@@UAEXI@Z PROC	; Ogre::D3DTech_UvanimBlend_lod0::beginPass, COMDAT
; _this$ = ecx

; 34   : 		{

	push	ebp
	mov	ebp, esp
	push	ecx
	mov	DWORD PTR _this$[ebp], ecx

; 35   : 			m_CurPass = ipass;

	mov	eax, DWORD PTR _this$[ebp]
	mov	ecx, DWORD PTR _ipass$[ebp]
	mov	DWORD PTR [eax+192], ecx

; 36   : 
; 37   : 			SetBlendState(m_pDevice, BLEND_ADDBLEND);

	push	-1
	push	3
	mov	edx, DWORD PTR ?m_pDevice@D3DTech@Ogre@@2PAUIDirect3DDevice9@@A ; Ogre::D3DTech::m_pDevice
	push	edx
	call	?SetBlendState@Ogre@@YAXPAUIDirect3DDevice9@@HH@Z ; Ogre::SetBlendState
	add	esp, 12					; 0000000cH

; 38   : 
; 39   : 			m_pDevice->SetRenderState(D3DRS_ZENABLE, true);

	push	1
	push	7
	mov	eax, DWORD PTR ?m_pDevice@D3DTech@Ogre@@2PAUIDirect3DDevice9@@A ; Ogre::D3DTech::m_pDevice
	mov	ecx, DWORD PTR [eax]
	mov	edx, DWORD PTR ?m_pDevice@D3DTech@Ogre@@2PAUIDirect3DDevice9@@A ; Ogre::D3DTech::m_pDevice
	push	edx
	mov	eax, DWORD PTR [ecx+228]
	call	eax

; 40   : 			m_pDevice->SetRenderState(D3DRS_ZWRITEENABLE, false);

	push	0
	push	14					; 0000000eH
	mov	ecx, DWORD PTR ?m_pDevice@D3DTech@Ogre@@2PAUIDirect3DDevice9@@A ; Ogre::D3DTech::m_pDevice
	mov	edx, DWORD PTR [ecx]
	mov	eax, DWORD PTR ?m_pDevice@D3DTech@Ogre@@2PAUIDirect3DDevice9@@A ; Ogre::D3DTech::m_pDevice
	push	eax
	mov	ecx, DWORD PTR [edx+228]
	call	ecx

; 41   : 
; 42   : 			applyVSPS(m_CurPass);

	mov	edx, DWORD PTR _this$[ebp]
	mov	eax, DWORD PTR [edx+192]
	push	eax
	mov	ecx, DWORD PTR _this$[ebp]
	call	?applyVSPS@D3DTech@Ogre@@IAEXI@Z	; Ogre::D3DTech::applyVSPS

; 43   : 		}

	mov	esp, ebp
	pop	ebp
	ret	4
?beginPass@D3DTech_UvanimBlend_lod0@Ogre@@UAEXI@Z ENDP	; Ogre::D3DTech_UvanimBlend_lod0::beginPass
; Function compile flags: /Odtp
_TEXT	ENDS
;	COMDAT ?endPass@D3DTech_UvanimBlend_lod0@Ogre@@UAEXXZ
_TEXT	SEGMENT
_this$ = -4						; size = 4
?endPass@D3DTech_UvanimBlend_lod0@Ogre@@UAEXXZ PROC	; Ogre::D3DTech_UvanimBlend_lod0::endPass, COMDAT
; _this$ = ecx

; 46   : 		{

	push	ebp
	mov	ebp, esp
	push	ecx
	mov	DWORD PTR _this$[ebp], ecx

; 47   : 		}

	mov	esp, ebp
	pop	ebp
	ret	0
?endPass@D3DTech_UvanimBlend_lod0@Ogre@@UAEXXZ ENDP	; Ogre::D3DTech_UvanimBlend_lod0::endPass
_TEXT	ENDS
PUBLIC	??1D3DTech_UvanimBlend_lod0@Ogre@@UAE@XZ	; Ogre::D3DTech_UvanimBlend_lod0::~D3DTech_UvanimBlend_lod0
; Function compile flags: /Odtp
;	COMDAT ??_GD3DTech_UvanimBlend_lod0@Ogre@@UAEPAXI@Z
_TEXT	SEGMENT
_this$ = -4						; size = 4
___flags$ = 8						; size = 4
??_GD3DTech_UvanimBlend_lod0@Ogre@@UAEPAXI@Z PROC	; Ogre::D3DTech_UvanimBlend_lod0::`scalar deleting destructor', COMDAT
; _this$ = ecx
	push	ebp
	mov	ebp, esp
	push	ecx
	mov	DWORD PTR _this$[ebp], ecx
	mov	ecx, DWORD PTR _this$[ebp]
	call	??1D3DTech_UvanimBlend_lod0@Ogre@@UAE@XZ
	mov	eax, DWORD PTR ___flags$[ebp]
	and	eax, 1
	je	SHORT $LN1@scalar@11
	mov	ecx, DWORD PTR _this$[ebp]
	push	ecx
	call	??3@YAXPAX@Z				; operator delete
	add	esp, 4
$LN1@scalar@11:
	mov	eax, DWORD PTR _this$[ebp]
	mov	esp, ebp
	pop	ebp
	ret	4
??_GD3DTech_UvanimBlend_lod0@Ogre@@UAEPAXI@Z ENDP	; Ogre::D3DTech_UvanimBlend_lod0::`scalar deleting destructor'
_TEXT	ENDS
;	COMDAT xdata$x
xdata$x	SEGMENT
__unwindtable$??1D3DTech_UvanimBlend_lod0@Ogre@@UAE@XZ DD 0ffffffffH
	DD	FLAT:__unwindfunclet$??1D3DTech_UvanimBlend_lod0@Ogre@@UAE@XZ$0
__ehfuncinfo$??1D3DTech_UvanimBlend_lod0@Ogre@@UAE@XZ DD 019930522H
	DD	01H
	DD	FLAT:__unwindtable$??1D3DTech_UvanimBlend_lod0@Ogre@@UAE@XZ
	DD	2 DUP(00H)
	DD	2 DUP(00H)
	DD	00H
	DD	00H
; Function compile flags: /Odtp
xdata$x	ENDS
;	COMDAT ??1D3DTech_UvanimBlend_lod0@Ogre@@UAE@XZ
_TEXT	SEGMENT
_this$ = -16						; size = 4
__$EHRec$ = -12						; size = 12
??1D3DTech_UvanimBlend_lod0@Ogre@@UAE@XZ PROC		; Ogre::D3DTech_UvanimBlend_lod0::~D3DTech_UvanimBlend_lod0, COMDAT
; _this$ = ecx
	push	ebp
	mov	ebp, esp
	push	-1
	push	__ehhandler$??1D3DTech_UvanimBlend_lod0@Ogre@@UAE@XZ
	mov	eax, DWORD PTR fs:0
	push	eax
	push	ecx
	mov	eax, DWORD PTR ___security_cookie
	xor	eax, ebp
	push	eax
	lea	eax, DWORD PTR __$EHRec$[ebp]
	mov	DWORD PTR fs:0, eax
	mov	DWORD PTR _this$[ebp], ecx
	mov	DWORD PTR __$EHRec$[ebp+8], 0
	mov	DWORD PTR __$EHRec$[ebp+8], -1
	mov	ecx, DWORD PTR _this$[ebp]
	call	??1D3DTech@Ogre@@UAE@XZ
	mov	ecx, DWORD PTR __$EHRec$[ebp]
	mov	DWORD PTR fs:0, ecx
	pop	ecx
	mov	esp, ebp
	pop	ebp
	ret	0
_TEXT	ENDS
;	COMDAT text$x
text$x	SEGMENT
__unwindfunclet$??1D3DTech_UvanimBlend_lod0@Ogre@@UAE@XZ$0:
	mov	ecx, DWORD PTR _this$[ebp]
	jmp	??1D3DTech@Ogre@@UAE@XZ
__ehhandler$??1D3DTech_UvanimBlend_lod0@Ogre@@UAE@XZ:
	mov	edx, DWORD PTR [esp+8]
	lea	eax, DWORD PTR [edx+12]
	mov	ecx, DWORD PTR [edx-8]
	xor	ecx, eax
	call	@__security_check_cookie@4
	mov	eax, OFFSET __ehfuncinfo$??1D3DTech_UvanimBlend_lod0@Ogre@@UAE@XZ
	jmp	___CxxFrameHandler3
text$x	ENDS
??1D3DTech_UvanimBlend_lod0@Ogre@@UAE@XZ ENDP		; Ogre::D3DTech_UvanimBlend_lod0::~D3DTech_UvanimBlend_lod0
PUBLIC	??_7D3DTech_UvanimSelfillum_lod0@Ogre@@6B@	; Ogre::D3DTech_UvanimSelfillum_lod0::`vftable'
PUBLIC	??_R4D3DTech_UvanimSelfillum_lod0@Ogre@@6B@	; Ogre::D3DTech_UvanimSelfillum_lod0::`RTTI Complete Object Locator'
PUBLIC	??_R0?AVD3DTech_UvanimSelfillum_lod0@Ogre@@@8	; Ogre::D3DTech_UvanimSelfillum_lod0 `RTTI Type Descriptor'
PUBLIC	??_R3D3DTech_UvanimSelfillum_lod0@Ogre@@8	; Ogre::D3DTech_UvanimSelfillum_lod0::`RTTI Class Hierarchy Descriptor'
PUBLIC	??_R2D3DTech_UvanimSelfillum_lod0@Ogre@@8	; Ogre::D3DTech_UvanimSelfillum_lod0::`RTTI Base Class Array'
PUBLIC	??_R1A@?0A@EA@D3DTech_UvanimSelfillum_lod0@Ogre@@8 ; Ogre::D3DTech_UvanimSelfillum_lod0::`RTTI Base Class Descriptor at (0,-1,0,64)'
PUBLIC	?beginPass@D3DTech_UvanimSelfillum_lod0@Ogre@@UAEXI@Z ; Ogre::D3DTech_UvanimSelfillum_lod0::beginPass
PUBLIC	?endPass@D3DTech_UvanimSelfillum_lod0@Ogre@@UAEXXZ ; Ogre::D3DTech_UvanimSelfillum_lod0::endPass
PUBLIC	?clone@D3DTech_UvanimSelfillum_lod0@Ogre@@UAEPAVD3DTech@2@XZ ; Ogre::D3DTech_UvanimSelfillum_lod0::clone
PUBLIC	?init@D3DTech_UvanimSelfillum_lod0@Ogre@@UAEXABUShaderEnvFlags@2@ABUMaterialMacro@2@@Z ; Ogre::D3DTech_UvanimSelfillum_lod0::init
EXTRN	??_ED3DTech_UvanimSelfillum_lod0@Ogre@@UAEPAXI@Z:PROC ; Ogre::D3DTech_UvanimSelfillum_lod0::`vector deleting destructor'
;	COMDAT ??_R1A@?0A@EA@D3DTech_UvanimSelfillum_lod0@Ogre@@8
rdata$r	SEGMENT
??_R1A@?0A@EA@D3DTech_UvanimSelfillum_lod0@Ogre@@8 DD FLAT:??_R0?AVD3DTech_UvanimSelfillum_lod0@Ogre@@@8 ; Ogre::D3DTech_UvanimSelfillum_lod0::`RTTI Base Class Descriptor at (0,-1,0,64)'
	DD	02H
	DD	00H
	DD	0ffffffffH
	DD	00H
	DD	040H
	DD	FLAT:??_R3D3DTech_UvanimSelfillum_lod0@Ogre@@8
rdata$r	ENDS
;	COMDAT ??_R2D3DTech_UvanimSelfillum_lod0@Ogre@@8
rdata$r	SEGMENT
??_R2D3DTech_UvanimSelfillum_lod0@Ogre@@8 DD FLAT:??_R1A@?0A@EA@D3DTech_UvanimSelfillum_lod0@Ogre@@8 ; Ogre::D3DTech_UvanimSelfillum_lod0::`RTTI Base Class Array'
	DD	FLAT:??_R1A@?0A@EA@D3DTech@Ogre@@8
	DD	FLAT:??_R1A@?0A@EA@ShaderTechnique@Ogre@@8
rdata$r	ENDS
;	COMDAT ??_R3D3DTech_UvanimSelfillum_lod0@Ogre@@8
rdata$r	SEGMENT
??_R3D3DTech_UvanimSelfillum_lod0@Ogre@@8 DD 00H	; Ogre::D3DTech_UvanimSelfillum_lod0::`RTTI Class Hierarchy Descriptor'
	DD	00H
	DD	03H
	DD	FLAT:??_R2D3DTech_UvanimSelfillum_lod0@Ogre@@8
rdata$r	ENDS
;	COMDAT ??_R0?AVD3DTech_UvanimSelfillum_lod0@Ogre@@@8
_DATA	SEGMENT
??_R0?AVD3DTech_UvanimSelfillum_lod0@Ogre@@@8 DD FLAT:??_7type_info@@6B@ ; Ogre::D3DTech_UvanimSelfillum_lod0 `RTTI Type Descriptor'
	DD	00H
	DB	'.?AVD3DTech_UvanimSelfillum_lod0@Ogre@@', 00H
_DATA	ENDS
;	COMDAT ??_R4D3DTech_UvanimSelfillum_lod0@Ogre@@6B@
rdata$r	SEGMENT
??_R4D3DTech_UvanimSelfillum_lod0@Ogre@@6B@ DD 00H	; Ogre::D3DTech_UvanimSelfillum_lod0::`RTTI Complete Object Locator'
	DD	00H
	DD	00H
	DD	FLAT:??_R0?AVD3DTech_UvanimSelfillum_lod0@Ogre@@@8
	DD	FLAT:??_R3D3DTech_UvanimSelfillum_lod0@Ogre@@8
rdata$r	ENDS
;	COMDAT ??_7D3DTech_UvanimSelfillum_lod0@Ogre@@6B@
CONST	SEGMENT
??_7D3DTech_UvanimSelfillum_lod0@Ogre@@6B@ DD FLAT:??_R4D3DTech_UvanimSelfillum_lod0@Ogre@@6B@ ; Ogre::D3DTech_UvanimSelfillum_lod0::`vftable'
	DD	FLAT:?begin@D3DTech@Ogre@@UAEIXZ
	DD	FLAT:?end@D3DTech@Ogre@@UAEXXZ
	DD	FLAT:?beginPass@D3DTech_UvanimSelfillum_lod0@Ogre@@UAEXI@Z
	DD	FLAT:?endPass@D3DTech_UvanimSelfillum_lod0@Ogre@@UAEXXZ
	DD	FLAT:?setConstant@D3DTech@Ogre@@UAEXW4ShaderParamUsage@2@PBXI@Z
	DD	FLAT:?setConstant@D3DTech@Ogre@@UAEXPBDPBXI@Z
	DD	FLAT:?setTexture@D3DTech@Ogre@@UAEXW4ShaderParamUsage@2@PAVHardwarePixelBuffer@2@@Z
	DD	FLAT:?setTexture@D3DTech@Ogre@@UAEXPBDPAVHardwarePixelBuffer@2@@Z
	DD	FLAT:?setStreamInput@D3DTech@Ogre@@UAEXIPAPAVHardwareVertexBuffer@2@HPAI@Z
	DD	FLAT:?setStreamInput@D3DTech@Ogre@@UAEXIPAVHardwareVertexBuffer@2@I@Z
	DD	FLAT:?setStreamInput@D3DTech@Ogre@@UAEXIPAPAVHardwareVertexBuffer@2@PAI@Z
	DD	FLAT:?commitChanges@D3DTech@Ogre@@UAEXXZ
	DD	FLAT:?draw@D3DTech@Ogre@@UAEXW4PrimitiveType@2@IIPAVHardwareIndexBuffer@2@II@Z
	DD	FLAT:?draw@D3DTech@Ogre@@UAEXW4PrimitiveType@2@II@Z
	DD	FLAT:?getRequiredParams@D3DTech@Ogre@@UAEIPAW4ShaderParamUsage@2@I@Z
	DD	FLAT:??_ED3DTech_UvanimSelfillum_lod0@Ogre@@UAEPAXI@Z
	DD	FLAT:?clone@D3DTech_UvanimSelfillum_lod0@Ogre@@UAEPAVD3DTech@2@XZ
	DD	FLAT:?init@D3DTech_UvanimSelfillum_lod0@Ogre@@UAEXABUShaderEnvFlags@2@ABUMaterialMacro@2@@Z
CONST	ENDS
;	COMDAT xdata$x
xdata$x	SEGMENT
__unwindtable$??0D3DTech_UvanimSelfillum_lod0@Ogre@@QAE@XZ DD 0ffffffffH
	DD	FLAT:__unwindfunclet$??0D3DTech_UvanimSelfillum_lod0@Ogre@@QAE@XZ$0
__ehfuncinfo$??0D3DTech_UvanimSelfillum_lod0@Ogre@@QAE@XZ DD 019930522H
	DD	01H
	DD	FLAT:__unwindtable$??0D3DTech_UvanimSelfillum_lod0@Ogre@@QAE@XZ
	DD	2 DUP(00H)
	DD	2 DUP(00H)
	DD	00H
	DD	00H
; Function compile flags: /Odtp
xdata$x	ENDS
;	COMDAT ??0D3DTech_UvanimSelfillum_lod0@Ogre@@QAE@XZ
_TEXT	SEGMENT
_this$ = -16						; size = 4
__$EHRec$ = -12						; size = 12
??0D3DTech_UvanimSelfillum_lod0@Ogre@@QAE@XZ PROC	; Ogre::D3DTech_UvanimSelfillum_lod0::D3DTech_UvanimSelfillum_lod0, COMDAT
; _this$ = ecx
	push	ebp
	mov	ebp, esp
	push	-1
	push	__ehhandler$??0D3DTech_UvanimSelfillum_lod0@Ogre@@QAE@XZ
	mov	eax, DWORD PTR fs:0
	push	eax
	push	ecx
	mov	eax, DWORD PTR ___security_cookie
	xor	eax, ebp
	push	eax
	lea	eax, DWORD PTR __$EHRec$[ebp]
	mov	DWORD PTR fs:0, eax
	mov	DWORD PTR _this$[ebp], ecx
	mov	ecx, DWORD PTR _this$[ebp]
	call	??0D3DTech@Ogre@@QAE@XZ			; Ogre::D3DTech::D3DTech
	mov	DWORD PTR __$EHRec$[ebp+8], 0
	mov	eax, DWORD PTR _this$[ebp]
	mov	DWORD PTR [eax], OFFSET ??_7D3DTech_UvanimSelfillum_lod0@Ogre@@6B@
	mov	DWORD PTR __$EHRec$[ebp+8], -1
	mov	eax, DWORD PTR _this$[ebp]
	mov	ecx, DWORD PTR __$EHRec$[ebp]
	mov	DWORD PTR fs:0, ecx
	pop	ecx
	mov	esp, ebp
	pop	ebp
	ret	0
_TEXT	ENDS
;	COMDAT text$x
text$x	SEGMENT
__unwindfunclet$??0D3DTech_UvanimSelfillum_lod0@Ogre@@QAE@XZ$0:
	mov	ecx, DWORD PTR _this$[ebp]
	jmp	??1D3DTech@Ogre@@UAE@XZ
__ehhandler$??0D3DTech_UvanimSelfillum_lod0@Ogre@@QAE@XZ:
	mov	edx, DWORD PTR [esp+8]
	lea	eax, DWORD PTR [edx+12]
	mov	ecx, DWORD PTR [edx-8]
	xor	ecx, eax
	call	@__security_check_cookie@4
	mov	eax, OFFSET __ehfuncinfo$??0D3DTech_UvanimSelfillum_lod0@Ogre@@QAE@XZ
	jmp	___CxxFrameHandler3
text$x	ENDS
??0D3DTech_UvanimSelfillum_lod0@Ogre@@QAE@XZ ENDP	; Ogre::D3DTech_UvanimSelfillum_lod0::D3DTech_UvanimSelfillum_lod0
;	COMDAT xdata$x
; File i:\svnroot\client\plugins\rendersystem_d3d9\ogred3d9tech_uvanimselfillum.h
xdata$x	SEGMENT
__unwindtable$?clone@D3DTech_UvanimSelfillum_lod0@Ogre@@UAEPAVD3DTech@2@XZ DD 0ffffffffH
	DD	FLAT:__unwindfunclet$?clone@D3DTech_UvanimSelfillum_lod0@Ogre@@UAEPAVD3DTech@2@XZ$0
__ehfuncinfo$?clone@D3DTech_UvanimSelfillum_lod0@Ogre@@UAEPAVD3DTech@2@XZ DD 019930522H
	DD	01H
	DD	FLAT:__unwindtable$?clone@D3DTech_UvanimSelfillum_lod0@Ogre@@UAEPAVD3DTech@2@XZ
	DD	2 DUP(00H)
	DD	2 DUP(00H)
	DD	00H
	DD	00H
; Function compile flags: /Odtp
xdata$x	ENDS
;	COMDAT ?clone@D3DTech_UvanimSelfillum_lod0@Ogre@@UAEPAVD3DTech@2@XZ
_TEXT	SEGMENT
tv74 = -28						; size = 4
_this$ = -24						; size = 4
$T139916 = -20						; size = 4
$T139915 = -16						; size = 4
__$EHRec$ = -12						; size = 12
?clone@D3DTech_UvanimSelfillum_lod0@Ogre@@UAEPAVD3DTech@2@XZ PROC ; Ogre::D3DTech_UvanimSelfillum_lod0::clone, COMDAT
; _this$ = ecx

; 14   : 		{

	push	ebp
	mov	ebp, esp
	push	-1
	push	__ehhandler$?clone@D3DTech_UvanimSelfillum_lod0@Ogre@@UAEPAVD3DTech@2@XZ
	mov	eax, DWORD PTR fs:0
	push	eax
	sub	esp, 16					; 00000010H
	mov	eax, DWORD PTR ___security_cookie
	xor	eax, ebp
	push	eax
	lea	eax, DWORD PTR __$EHRec$[ebp]
	mov	DWORD PTR fs:0, eax
	mov	DWORD PTR _this$[ebp], ecx

; 15   : 			return new D3DTech_UvanimSelfillum_lod0;

	push	392					; 00000188H
	call	??2@YAPAXI@Z				; operator new
	add	esp, 4
	mov	DWORD PTR $T139916[ebp], eax
	mov	DWORD PTR __$EHRec$[ebp+8], 0
	cmp	DWORD PTR $T139916[ebp], 0
	je	SHORT $LN3@clone@11
	mov	ecx, DWORD PTR $T139916[ebp]
	call	??0D3DTech_UvanimSelfillum_lod0@Ogre@@QAE@XZ
	mov	DWORD PTR tv74[ebp], eax
	jmp	SHORT $LN4@clone@11
$LN3@clone@11:
	mov	DWORD PTR tv74[ebp], 0
$LN4@clone@11:
	mov	eax, DWORD PTR tv74[ebp]
	mov	DWORD PTR $T139915[ebp], eax
	mov	DWORD PTR __$EHRec$[ebp+8], -1
	mov	eax, DWORD PTR $T139915[ebp]

; 16   : 		}

	mov	ecx, DWORD PTR __$EHRec$[ebp]
	mov	DWORD PTR fs:0, ecx
	pop	ecx
	mov	esp, ebp
	pop	ebp
	ret	0
_TEXT	ENDS
;	COMDAT text$x
text$x	SEGMENT
__unwindfunclet$?clone@D3DTech_UvanimSelfillum_lod0@Ogre@@UAEPAVD3DTech@2@XZ$0:
	mov	eax, DWORD PTR $T139916[ebp]
	push	eax
	call	??3@YAXPAX@Z				; operator delete
	pop	ecx
	ret	0
__ehhandler$?clone@D3DTech_UvanimSelfillum_lod0@Ogre@@UAEPAVD3DTech@2@XZ:
	mov	edx, DWORD PTR [esp+8]
	lea	eax, DWORD PTR [edx+12]
	mov	ecx, DWORD PTR [edx-20]
	xor	ecx, eax
	call	@__security_check_cookie@4
	mov	eax, OFFSET __ehfuncinfo$?clone@D3DTech_UvanimSelfillum_lod0@Ogre@@UAEPAVD3DTech@2@XZ
	jmp	___CxxFrameHandler3
text$x	ENDS
?clone@D3DTech_UvanimSelfillum_lod0@Ogre@@UAEPAVD3DTech@2@XZ ENDP ; Ogre::D3DTech_UvanimSelfillum_lod0::clone
; Function compile flags: /Odtp
;	COMDAT ?init@D3DTech_UvanimSelfillum_lod0@Ogre@@UAEXABUShaderEnvFlags@2@ABUMaterialMacro@2@@Z
_TEXT	SEGMENT
_this$ = -4						; size = 4
_env$ = 8						; size = 4
_macros$ = 12						; size = 4
?init@D3DTech_UvanimSelfillum_lod0@Ogre@@UAEXABUShaderEnvFlags@2@ABUMaterialMacro@2@@Z PROC ; Ogre::D3DTech_UvanimSelfillum_lod0::init, COMDAT
; _this$ = ecx

; 19   : 		{

	push	ebp
	mov	ebp, esp
	push	ecx
	mov	DWORD PTR _this$[ebp], ecx

; 20   : 			m_AllPass[0].vs = m_pMtlTemplate->getCompiledVSPS(COMPILED_VS, "Main", env, macros);

	mov	eax, DWORD PTR _macros$[ebp]
	push	eax
	mov	ecx, DWORD PTR _env$[ebp]
	push	ecx
	push	OFFSET ??_C@_04KGFMLCPK@Main?$AA@
	push	1
	mov	edx, DWORD PTR _this$[ebp]
	mov	ecx, DWORD PTR [edx+8]
	call	?getCompiledVSPS@D3DMaterialTemplate@Ogre@@QAEPAVCompiledShader@2@W4COMPILED_TYPE@2@PBDABUShaderEnvFlags@2@ABUMaterialMacro@2@@Z ; Ogre::D3DMaterialTemplate::getCompiledVSPS
	mov	ecx, DWORD PTR _this$[ebp]
	mov	DWORD PTR [ecx+12], eax

; 21   : 			m_AllPass[0].ps = m_pMtlTemplate->getCompiledVSPS(COMPILED_PS, "Main", env, macros);

	mov	edx, DWORD PTR _macros$[ebp]
	push	edx
	mov	eax, DWORD PTR _env$[ebp]
	push	eax
	push	OFFSET ??_C@_04KGFMLCPK@Main?$AA@
	push	2
	mov	ecx, DWORD PTR _this$[ebp]
	mov	ecx, DWORD PTR [ecx+8]
	call	?getCompiledVSPS@D3DMaterialTemplate@Ogre@@QAEPAVCompiledShader@2@W4COMPILED_TYPE@2@PBDABUShaderEnvFlags@2@ABUMaterialMacro@2@@Z ; Ogre::D3DMaterialTemplate::getCompiledVSPS
	mov	edx, DWORD PTR _this$[ebp]
	mov	DWORD PTR [edx+16], eax

; 22   : 
; 23   : 			m_AllPass[0].texstage[0] = SPU_GENERAL_PARAM + 1; //diffusetex

	mov	eax, DWORD PTR _this$[ebp]
	mov	DWORD PTR [eax+24], 1001		; 000003e9H

; 24   : 			m_AllPass[0].texstage[1] = SPU_GENERAL_PARAM + 2;

	mov	ecx, DWORD PTR _this$[ebp]
	mov	DWORD PTR [ecx+28], 1002		; 000003eaH

; 25   : 
; 26   : 			initParams();

	mov	ecx, DWORD PTR _this$[ebp]
	call	?initParams@D3DTech@Ogre@@IAEXXZ	; Ogre::D3DTech::initParams

; 27   : 		}

	mov	esp, ebp
	pop	ebp
	ret	8
?init@D3DTech_UvanimSelfillum_lod0@Ogre@@UAEXABUShaderEnvFlags@2@ABUMaterialMacro@2@@Z ENDP ; Ogre::D3DTech_UvanimSelfillum_lod0::init
; Function compile flags: /Odtp
_TEXT	ENDS
;	COMDAT ?beginPass@D3DTech_UvanimSelfillum_lod0@Ogre@@UAEXI@Z
_TEXT	SEGMENT
_this$ = -4						; size = 4
_ipass$ = 8						; size = 4
?beginPass@D3DTech_UvanimSelfillum_lod0@Ogre@@UAEXI@Z PROC ; Ogre::D3DTech_UvanimSelfillum_lod0::beginPass, COMDAT
; _this$ = ecx

; 30   : 		{

	push	ebp
	mov	ebp, esp
	push	ecx
	mov	DWORD PTR _this$[ebp], ecx

; 31   : 			m_CurPass = ipass;

	mov	eax, DWORD PTR _this$[ebp]
	mov	ecx, DWORD PTR _ipass$[ebp]
	mov	DWORD PTR [eax+192], ecx

; 32   : 
; 33   : 			SetBlendState(m_pDevice, BLEND_ADDBLEND);

	push	-1
	push	3
	mov	edx, DWORD PTR ?m_pDevice@D3DTech@Ogre@@2PAUIDirect3DDevice9@@A ; Ogre::D3DTech::m_pDevice
	push	edx
	call	?SetBlendState@Ogre@@YAXPAUIDirect3DDevice9@@HH@Z ; Ogre::SetBlendState
	add	esp, 12					; 0000000cH

; 34   : 
; 35   : 			m_pDevice->SetRenderState(D3DRS_ZENABLE, true);

	push	1
	push	7
	mov	eax, DWORD PTR ?m_pDevice@D3DTech@Ogre@@2PAUIDirect3DDevice9@@A ; Ogre::D3DTech::m_pDevice
	mov	ecx, DWORD PTR [eax]
	mov	edx, DWORD PTR ?m_pDevice@D3DTech@Ogre@@2PAUIDirect3DDevice9@@A ; Ogre::D3DTech::m_pDevice
	push	edx
	mov	eax, DWORD PTR [ecx+228]
	call	eax

; 36   : 			m_pDevice->SetRenderState(D3DRS_ZWRITEENABLE, false);

	push	0
	push	14					; 0000000eH
	mov	ecx, DWORD PTR ?m_pDevice@D3DTech@Ogre@@2PAUIDirect3DDevice9@@A ; Ogre::D3DTech::m_pDevice
	mov	edx, DWORD PTR [ecx]
	mov	eax, DWORD PTR ?m_pDevice@D3DTech@Ogre@@2PAUIDirect3DDevice9@@A ; Ogre::D3DTech::m_pDevice
	push	eax
	mov	ecx, DWORD PTR [edx+228]
	call	ecx

; 37   : 
; 38   : 			applyVSPS(m_CurPass);

	mov	edx, DWORD PTR _this$[ebp]
	mov	eax, DWORD PTR [edx+192]
	push	eax
	mov	ecx, DWORD PTR _this$[ebp]
	call	?applyVSPS@D3DTech@Ogre@@IAEXI@Z	; Ogre::D3DTech::applyVSPS

; 39   : 		}

	mov	esp, ebp
	pop	ebp
	ret	4
?beginPass@D3DTech_UvanimSelfillum_lod0@Ogre@@UAEXI@Z ENDP ; Ogre::D3DTech_UvanimSelfillum_lod0::beginPass
; Function compile flags: /Odtp
_TEXT	ENDS
;	COMDAT ?endPass@D3DTech_UvanimSelfillum_lod0@Ogre@@UAEXXZ
_TEXT	SEGMENT
_this$ = -4						; size = 4
?endPass@D3DTech_UvanimSelfillum_lod0@Ogre@@UAEXXZ PROC	; Ogre::D3DTech_UvanimSelfillum_lod0::endPass, COMDAT
; _this$ = ecx

; 42   : 		{

	push	ebp
	mov	ebp, esp
	push	ecx
	mov	DWORD PTR _this$[ebp], ecx

; 43   : 		}

	mov	esp, ebp
	pop	ebp
	ret	0
?endPass@D3DTech_UvanimSelfillum_lod0@Ogre@@UAEXXZ ENDP	; Ogre::D3DTech_UvanimSelfillum_lod0::endPass
_TEXT	ENDS
PUBLIC	??1D3DTech_UvanimSelfillum_lod0@Ogre@@UAE@XZ	; Ogre::D3DTech_UvanimSelfillum_lod0::~D3DTech_UvanimSelfillum_lod0
; Function compile flags: /Odtp
;	COMDAT ??_GD3DTech_UvanimSelfillum_lod0@Ogre@@UAEPAXI@Z
_TEXT	SEGMENT
_this$ = -4						; size = 4
___flags$ = 8						; size = 4
??_GD3DTech_UvanimSelfillum_lod0@Ogre@@UAEPAXI@Z PROC	; Ogre::D3DTech_UvanimSelfillum_lod0::`scalar deleting destructor', COMDAT
; _this$ = ecx
	push	ebp
	mov	ebp, esp
	push	ecx
	mov	DWORD PTR _this$[ebp], ecx
	mov	ecx, DWORD PTR _this$[ebp]
	call	??1D3DTech_UvanimSelfillum_lod0@Ogre@@UAE@XZ
	mov	eax, DWORD PTR ___flags$[ebp]
	and	eax, 1
	je	SHORT $LN1@scalar@12
	mov	ecx, DWORD PTR _this$[ebp]
	push	ecx
	call	??3@YAXPAX@Z				; operator delete
	add	esp, 4
$LN1@scalar@12:
	mov	eax, DWORD PTR _this$[ebp]
	mov	esp, ebp
	pop	ebp
	ret	4
??_GD3DTech_UvanimSelfillum_lod0@Ogre@@UAEPAXI@Z ENDP	; Ogre::D3DTech_UvanimSelfillum_lod0::`scalar deleting destructor'
_TEXT	ENDS
;	COMDAT xdata$x
xdata$x	SEGMENT
__unwindtable$??1D3DTech_UvanimSelfillum_lod0@Ogre@@UAE@XZ DD 0ffffffffH
	DD	FLAT:__unwindfunclet$??1D3DTech_UvanimSelfillum_lod0@Ogre@@UAE@XZ$0
__ehfuncinfo$??1D3DTech_UvanimSelfillum_lod0@Ogre@@UAE@XZ DD 019930522H
	DD	01H
	DD	FLAT:__unwindtable$??1D3DTech_UvanimSelfillum_lod0@Ogre@@UAE@XZ
	DD	2 DUP(00H)
	DD	2 DUP(00H)
	DD	00H
	DD	00H
; Function compile flags: /Odtp
xdata$x	ENDS
;	COMDAT ??1D3DTech_UvanimSelfillum_lod0@Ogre@@UAE@XZ
_TEXT	SEGMENT
_this$ = -16						; size = 4
__$EHRec$ = -12						; size = 12
??1D3DTech_UvanimSelfillum_lod0@Ogre@@UAE@XZ PROC	; Ogre::D3DTech_UvanimSelfillum_lod0::~D3DTech_UvanimSelfillum_lod0, COMDAT
; _this$ = ecx
	push	ebp
	mov	ebp, esp
	push	-1
	push	__ehhandler$??1D3DTech_UvanimSelfillum_lod0@Ogre@@UAE@XZ
	mov	eax, DWORD PTR fs:0
	push	eax
	push	ecx
	mov	eax, DWORD PTR ___security_cookie
	xor	eax, ebp
	push	eax
	lea	eax, DWORD PTR __$EHRec$[ebp]
	mov	DWORD PTR fs:0, eax
	mov	DWORD PTR _this$[ebp], ecx
	mov	DWORD PTR __$EHRec$[ebp+8], 0
	mov	DWORD PTR __$EHRec$[ebp+8], -1
	mov	ecx, DWORD PTR _this$[ebp]
	call	??1D3DTech@Ogre@@UAE@XZ
	mov	ecx, DWORD PTR __$EHRec$[ebp]
	mov	DWORD PTR fs:0, ecx
	pop	ecx
	mov	esp, ebp
	pop	ebp
	ret	0
_TEXT	ENDS
;	COMDAT text$x
text$x	SEGMENT
__unwindfunclet$??1D3DTech_UvanimSelfillum_lod0@Ogre@@UAE@XZ$0:
	mov	ecx, DWORD PTR _this$[ebp]
	jmp	??1D3DTech@Ogre@@UAE@XZ
__ehhandler$??1D3DTech_UvanimSelfillum_lod0@Ogre@@UAE@XZ:
	mov	edx, DWORD PTR [esp+8]
	lea	eax, DWORD PTR [edx+12]
	mov	ecx, DWORD PTR [edx-8]
	xor	ecx, eax
	call	@__security_check_cookie@4
	mov	eax, OFFSET __ehfuncinfo$??1D3DTech_UvanimSelfillum_lod0@Ogre@@UAE@XZ
	jmp	___CxxFrameHandler3
text$x	ENDS
??1D3DTech_UvanimSelfillum_lod0@Ogre@@UAE@XZ ENDP	; Ogre::D3DTech_UvanimSelfillum_lod0::~D3DTech_UvanimSelfillum_lod0
PUBLIC	??_7D3DTech_cloth_lod0@Ogre@@6B@		; Ogre::D3DTech_cloth_lod0::`vftable'
PUBLIC	??_R4D3DTech_cloth_lod0@Ogre@@6B@		; Ogre::D3DTech_cloth_lod0::`RTTI Complete Object Locator'
PUBLIC	??_R0?AVD3DTech_cloth_lod0@Ogre@@@8		; Ogre::D3DTech_cloth_lod0 `RTTI Type Descriptor'
PUBLIC	??_R3D3DTech_cloth_lod0@Ogre@@8			; Ogre::D3DTech_cloth_lod0::`RTTI Class Hierarchy Descriptor'
PUBLIC	??_R2D3DTech_cloth_lod0@Ogre@@8			; Ogre::D3DTech_cloth_lod0::`RTTI Base Class Array'
PUBLIC	??_R1A@?0A@EA@D3DTech_cloth_lod0@Ogre@@8	; Ogre::D3DTech_cloth_lod0::`RTTI Base Class Descriptor at (0,-1,0,64)'
PUBLIC	?beginPass@D3DTech_cloth_lod0@Ogre@@UAEXI@Z	; Ogre::D3DTech_cloth_lod0::beginPass
PUBLIC	?endPass@D3DTech_cloth_lod0@Ogre@@UAEXXZ	; Ogre::D3DTech_cloth_lod0::endPass
PUBLIC	?clone@D3DTech_cloth_lod0@Ogre@@UAEPAVD3DTech@2@XZ ; Ogre::D3DTech_cloth_lod0::clone
PUBLIC	?init@D3DTech_cloth_lod0@Ogre@@UAEXABUShaderEnvFlags@2@ABUMaterialMacro@2@@Z ; Ogre::D3DTech_cloth_lod0::init
EXTRN	??_ED3DTech_cloth_lod0@Ogre@@UAEPAXI@Z:PROC	; Ogre::D3DTech_cloth_lod0::`vector deleting destructor'
;	COMDAT ??_R1A@?0A@EA@D3DTech_cloth_lod0@Ogre@@8
rdata$r	SEGMENT
??_R1A@?0A@EA@D3DTech_cloth_lod0@Ogre@@8 DD FLAT:??_R0?AVD3DTech_cloth_lod0@Ogre@@@8 ; Ogre::D3DTech_cloth_lod0::`RTTI Base Class Descriptor at (0,-1,0,64)'
	DD	02H
	DD	00H
	DD	0ffffffffH
	DD	00H
	DD	040H
	DD	FLAT:??_R3D3DTech_cloth_lod0@Ogre@@8
rdata$r	ENDS
;	COMDAT ??_R2D3DTech_cloth_lod0@Ogre@@8
rdata$r	SEGMENT
??_R2D3DTech_cloth_lod0@Ogre@@8 DD FLAT:??_R1A@?0A@EA@D3DTech_cloth_lod0@Ogre@@8 ; Ogre::D3DTech_cloth_lod0::`RTTI Base Class Array'
	DD	FLAT:??_R1A@?0A@EA@D3DTech@Ogre@@8
	DD	FLAT:??_R1A@?0A@EA@ShaderTechnique@Ogre@@8
rdata$r	ENDS
;	COMDAT ??_R3D3DTech_cloth_lod0@Ogre@@8
rdata$r	SEGMENT
??_R3D3DTech_cloth_lod0@Ogre@@8 DD 00H			; Ogre::D3DTech_cloth_lod0::`RTTI Class Hierarchy Descriptor'
	DD	00H
	DD	03H
	DD	FLAT:??_R2D3DTech_cloth_lod0@Ogre@@8
rdata$r	ENDS
;	COMDAT ??_R0?AVD3DTech_cloth_lod0@Ogre@@@8
_DATA	SEGMENT
??_R0?AVD3DTech_cloth_lod0@Ogre@@@8 DD FLAT:??_7type_info@@6B@ ; Ogre::D3DTech_cloth_lod0 `RTTI Type Descriptor'
	DD	00H
	DB	'.?AVD3DTech_cloth_lod0@Ogre@@', 00H
_DATA	ENDS
;	COMDAT ??_R4D3DTech_cloth_lod0@Ogre@@6B@
rdata$r	SEGMENT
??_R4D3DTech_cloth_lod0@Ogre@@6B@ DD 00H		; Ogre::D3DTech_cloth_lod0::`RTTI Complete Object Locator'
	DD	00H
	DD	00H
	DD	FLAT:??_R0?AVD3DTech_cloth_lod0@Ogre@@@8
	DD	FLAT:??_R3D3DTech_cloth_lod0@Ogre@@8
rdata$r	ENDS
;	COMDAT ??_7D3DTech_cloth_lod0@Ogre@@6B@
CONST	SEGMENT
??_7D3DTech_cloth_lod0@Ogre@@6B@ DD FLAT:??_R4D3DTech_cloth_lod0@Ogre@@6B@ ; Ogre::D3DTech_cloth_lod0::`vftable'
	DD	FLAT:?begin@D3DTech@Ogre@@UAEIXZ
	DD	FLAT:?end@D3DTech@Ogre@@UAEXXZ
	DD	FLAT:?beginPass@D3DTech_cloth_lod0@Ogre@@UAEXI@Z
	DD	FLAT:?endPass@D3DTech_cloth_lod0@Ogre@@UAEXXZ
	DD	FLAT:?setConstant@D3DTech@Ogre@@UAEXW4ShaderParamUsage@2@PBXI@Z
	DD	FLAT:?setConstant@D3DTech@Ogre@@UAEXPBDPBXI@Z
	DD	FLAT:?setTexture@D3DTech@Ogre@@UAEXW4ShaderParamUsage@2@PAVHardwarePixelBuffer@2@@Z
	DD	FLAT:?setTexture@D3DTech@Ogre@@UAEXPBDPAVHardwarePixelBuffer@2@@Z
	DD	FLAT:?setStreamInput@D3DTech@Ogre@@UAEXIPAPAVHardwareVertexBuffer@2@HPAI@Z
	DD	FLAT:?setStreamInput@D3DTech@Ogre@@UAEXIPAVHardwareVertexBuffer@2@I@Z
	DD	FLAT:?setStreamInput@D3DTech@Ogre@@UAEXIPAPAVHardwareVertexBuffer@2@PAI@Z
	DD	FLAT:?commitChanges@D3DTech@Ogre@@UAEXXZ
	DD	FLAT:?draw@D3DTech@Ogre@@UAEXW4PrimitiveType@2@IIPAVHardwareIndexBuffer@2@II@Z
	DD	FLAT:?draw@D3DTech@Ogre@@UAEXW4PrimitiveType@2@II@Z
	DD	FLAT:?getRequiredParams@D3DTech@Ogre@@UAEIPAW4ShaderParamUsage@2@I@Z
	DD	FLAT:??_ED3DTech_cloth_lod0@Ogre@@UAEPAXI@Z
	DD	FLAT:?clone@D3DTech_cloth_lod0@Ogre@@UAEPAVD3DTech@2@XZ
	DD	FLAT:?init@D3DTech_cloth_lod0@Ogre@@UAEXABUShaderEnvFlags@2@ABUMaterialMacro@2@@Z
CONST	ENDS
;	COMDAT xdata$x
xdata$x	SEGMENT
__unwindtable$??0D3DTech_cloth_lod0@Ogre@@QAE@XZ DD 0ffffffffH
	DD	FLAT:__unwindfunclet$??0D3DTech_cloth_lod0@Ogre@@QAE@XZ$0
__ehfuncinfo$??0D3DTech_cloth_lod0@Ogre@@QAE@XZ DD 019930522H
	DD	01H
	DD	FLAT:__unwindtable$??0D3DTech_cloth_lod0@Ogre@@QAE@XZ
	DD	2 DUP(00H)
	DD	2 DUP(00H)
	DD	00H
	DD	00H
; Function compile flags: /Odtp
xdata$x	ENDS
;	COMDAT ??0D3DTech_cloth_lod0@Ogre@@QAE@XZ
_TEXT	SEGMENT
_this$ = -16						; size = 4
__$EHRec$ = -12						; size = 12
??0D3DTech_cloth_lod0@Ogre@@QAE@XZ PROC			; Ogre::D3DTech_cloth_lod0::D3DTech_cloth_lod0, COMDAT
; _this$ = ecx
	push	ebp
	mov	ebp, esp
	push	-1
	push	__ehhandler$??0D3DTech_cloth_lod0@Ogre@@QAE@XZ
	mov	eax, DWORD PTR fs:0
	push	eax
	push	ecx
	mov	eax, DWORD PTR ___security_cookie
	xor	eax, ebp
	push	eax
	lea	eax, DWORD PTR __$EHRec$[ebp]
	mov	DWORD PTR fs:0, eax
	mov	DWORD PTR _this$[ebp], ecx
	mov	ecx, DWORD PTR _this$[ebp]
	call	??0D3DTech@Ogre@@QAE@XZ			; Ogre::D3DTech::D3DTech
	mov	DWORD PTR __$EHRec$[ebp+8], 0
	mov	eax, DWORD PTR _this$[ebp]
	mov	DWORD PTR [eax], OFFSET ??_7D3DTech_cloth_lod0@Ogre@@6B@
	mov	DWORD PTR __$EHRec$[ebp+8], -1
	mov	eax, DWORD PTR _this$[ebp]
	mov	ecx, DWORD PTR __$EHRec$[ebp]
	mov	DWORD PTR fs:0, ecx
	pop	ecx
	mov	esp, ebp
	pop	ebp
	ret	0
_TEXT	ENDS
;	COMDAT text$x
text$x	SEGMENT
__unwindfunclet$??0D3DTech_cloth_lod0@Ogre@@QAE@XZ$0:
	mov	ecx, DWORD PTR _this$[ebp]
	jmp	??1D3DTech@Ogre@@UAE@XZ
__ehhandler$??0D3DTech_cloth_lod0@Ogre@@QAE@XZ:
	mov	edx, DWORD PTR [esp+8]
	lea	eax, DWORD PTR [edx+12]
	mov	ecx, DWORD PTR [edx-8]
	xor	ecx, eax
	call	@__security_check_cookie@4
	mov	eax, OFFSET __ehfuncinfo$??0D3DTech_cloth_lod0@Ogre@@QAE@XZ
	jmp	___CxxFrameHandler3
text$x	ENDS
??0D3DTech_cloth_lod0@Ogre@@QAE@XZ ENDP			; Ogre::D3DTech_cloth_lod0::D3DTech_cloth_lod0
;	COMDAT xdata$x
; File i:\svnroot\client\plugins\rendersystem_d3d9\ogred3d9tech_cloth.h
xdata$x	SEGMENT
__unwindtable$?clone@D3DTech_cloth_lod0@Ogre@@UAEPAVD3DTech@2@XZ DD 0ffffffffH
	DD	FLAT:__unwindfunclet$?clone@D3DTech_cloth_lod0@Ogre@@UAEPAVD3DTech@2@XZ$0
__ehfuncinfo$?clone@D3DTech_cloth_lod0@Ogre@@UAEPAVD3DTech@2@XZ DD 019930522H
	DD	01H
	DD	FLAT:__unwindtable$?clone@D3DTech_cloth_lod0@Ogre@@UAEPAVD3DTech@2@XZ
	DD	2 DUP(00H)
	DD	2 DUP(00H)
	DD	00H
	DD	00H
; Function compile flags: /Odtp
xdata$x	ENDS
;	COMDAT ?clone@D3DTech_cloth_lod0@Ogre@@UAEPAVD3DTech@2@XZ
_TEXT	SEGMENT
tv74 = -28						; size = 4
_this$ = -24						; size = 4
$T139955 = -20						; size = 4
$T139954 = -16						; size = 4
__$EHRec$ = -12						; size = 12
?clone@D3DTech_cloth_lod0@Ogre@@UAEPAVD3DTech@2@XZ PROC	; Ogre::D3DTech_cloth_lod0::clone, COMDAT
; _this$ = ecx

; 27   : 		{

	push	ebp
	mov	ebp, esp
	push	-1
	push	__ehhandler$?clone@D3DTech_cloth_lod0@Ogre@@UAEPAVD3DTech@2@XZ
	mov	eax, DWORD PTR fs:0
	push	eax
	sub	esp, 16					; 00000010H
	mov	eax, DWORD PTR ___security_cookie
	xor	eax, ebp
	push	eax
	lea	eax, DWORD PTR __$EHRec$[ebp]
	mov	DWORD PTR fs:0, eax
	mov	DWORD PTR _this$[ebp], ecx

; 28   : 			return new D3DTech_cloth_lod0;

	push	396					; 0000018cH
	call	??2@YAPAXI@Z				; operator new
	add	esp, 4
	mov	DWORD PTR $T139955[ebp], eax
	mov	DWORD PTR __$EHRec$[ebp+8], 0
	cmp	DWORD PTR $T139955[ebp], 0
	je	SHORT $LN3@clone@12
	mov	ecx, DWORD PTR $T139955[ebp]
	call	??0D3DTech_cloth_lod0@Ogre@@QAE@XZ
	mov	DWORD PTR tv74[ebp], eax
	jmp	SHORT $LN4@clone@12
$LN3@clone@12:
	mov	DWORD PTR tv74[ebp], 0
$LN4@clone@12:
	mov	eax, DWORD PTR tv74[ebp]
	mov	DWORD PTR $T139954[ebp], eax
	mov	DWORD PTR __$EHRec$[ebp+8], -1
	mov	eax, DWORD PTR $T139954[ebp]

; 29   : 		}

	mov	ecx, DWORD PTR __$EHRec$[ebp]
	mov	DWORD PTR fs:0, ecx
	pop	ecx
	mov	esp, ebp
	pop	ebp
	ret	0
_TEXT	ENDS
;	COMDAT text$x
text$x	SEGMENT
__unwindfunclet$?clone@D3DTech_cloth_lod0@Ogre@@UAEPAVD3DTech@2@XZ$0:
	mov	eax, DWORD PTR $T139955[ebp]
	push	eax
	call	??3@YAXPAX@Z				; operator delete
	pop	ecx
	ret	0
__ehhandler$?clone@D3DTech_cloth_lod0@Ogre@@UAEPAVD3DTech@2@XZ:
	mov	edx, DWORD PTR [esp+8]
	lea	eax, DWORD PTR [edx+12]
	mov	ecx, DWORD PTR [edx-20]
	xor	ecx, eax
	call	@__security_check_cookie@4
	mov	eax, OFFSET __ehfuncinfo$?clone@D3DTech_cloth_lod0@Ogre@@UAEPAVD3DTech@2@XZ
	jmp	___CxxFrameHandler3
text$x	ENDS
?clone@D3DTech_cloth_lod0@Ogre@@UAEPAVD3DTech@2@XZ ENDP	; Ogre::D3DTech_cloth_lod0::clone
; Function compile flags: /Odtp
;	COMDAT ?init@D3DTech_cloth_lod0@Ogre@@UAEXABUShaderEnvFlags@2@ABUMaterialMacro@2@@Z
_TEXT	SEGMENT
_this$ = -12						; size = 4
_indx$133015 = -8					; size = 4
_i$133011 = -4						; size = 4
_env$ = 8						; size = 4
_macros$ = 12						; size = 4
?init@D3DTech_cloth_lod0@Ogre@@UAEXABUShaderEnvFlags@2@ABUMaterialMacro@2@@Z PROC ; Ogre::D3DTech_cloth_lod0::init, COMDAT
; _this$ = ecx

; 32   : 		{

	push	ebp
	mov	ebp, esp
	sub	esp, 12					; 0000000cH
	push	esi
	push	edi
	mov	DWORD PTR _this$[ebp], ecx

; 33   : 			m_BlendMode = m_DoubleSide = m_UseSelfIllumTex = 0;

	mov	eax, DWORD PTR _this$[ebp]
	mov	BYTE PTR [eax+394], 0
	mov	ecx, DWORD PTR _this$[ebp]
	mov	BYTE PTR [ecx+393], 0
	mov	edx, DWORD PTR _this$[ebp]
	mov	BYTE PTR [edx+392], 0

; 34   : 
; 35   : 			for(int i=0; i<MaterialMacro::MAX_MACRO; i++)

	mov	DWORD PTR _i$133011[ebp], 0
	jmp	SHORT $LN17@init@6
$LN16@init@6:
	mov	eax, DWORD PTR _i$133011[ebp]
	add	eax, 1
	mov	DWORD PTR _i$133011[ebp], eax
$LN17@init@6:
	cmp	DWORD PTR _i$133011[ebp], 4
	jge	SHORT $LN15@init@6

; 36   : 			{
; 37   : 				int indx = macros.indices[i];

	mov	ecx, DWORD PTR _macros$[ebp]
	add	ecx, DWORD PTR _i$133011[ebp]
	movzx	edx, BYTE PTR [ecx]
	mov	DWORD PTR _indx$133015[ebp], edx

; 38   : 				if(indx == 0) break;

	cmp	DWORD PTR _indx$133015[ebp], 0
	jne	SHORT $LN14@init@6
	jmp	SHORT $LN15@init@6
$LN14@init@6:

; 39   : 
; 40   : 				if(indx == MTLPARAM_BLEND_MODE) m_BlendMode = macros.value[i];

	cmp	DWORD PTR _indx$133015[ebp], 1
	jne	SHORT $LN13@init@6
	mov	eax, DWORD PTR _macros$[ebp]
	add	eax, DWORD PTR _i$133011[ebp]
	mov	ecx, DWORD PTR _this$[ebp]
	mov	dl, BYTE PTR [eax+4]
	mov	BYTE PTR [ecx+392], dl
	jmp	SHORT $LN12@init@6
$LN13@init@6:

; 41   : 				else if(indx == MTLPARAM_DOUBLE_SIDE) m_DoubleSide = macros.value[i];

	cmp	DWORD PTR _indx$133015[ebp], 2
	jne	SHORT $LN11@init@6
	mov	eax, DWORD PTR _macros$[ebp]
	add	eax, DWORD PTR _i$133011[ebp]
	mov	ecx, DWORD PTR _this$[ebp]
	mov	dl, BYTE PTR [eax+4]
	mov	BYTE PTR [ecx+393], dl
	jmp	SHORT $LN12@init@6
$LN11@init@6:

; 42   : 				else if(indx == MTLPARAM_USE_SELFILLUM_TEX) m_UseSelfIllumTex = macros.value[i];

	cmp	DWORD PTR _indx$133015[ebp], 3
	jne	SHORT $LN9@init@6
	mov	eax, DWORD PTR _macros$[ebp]
	add	eax, DWORD PTR _i$133011[ebp]
	mov	ecx, DWORD PTR _this$[ebp]
	mov	dl, BYTE PTR [eax+4]
	mov	BYTE PTR [ecx+394], dl
	jmp	SHORT $LN12@init@6
$LN9@init@6:

; 43   : 				else if(indx == MTLPARAM_USE_CLOTHMASK) m_UseMask = macros.value[i];

	cmp	DWORD PTR _indx$133015[ebp], 4
	jne	SHORT $LN12@init@6
	mov	eax, DWORD PTR _macros$[ebp]
	add	eax, DWORD PTR _i$133011[ebp]
	mov	ecx, DWORD PTR _this$[ebp]
	mov	dl, BYTE PTR [eax+4]
	mov	BYTE PTR [ecx+395], dl
$LN12@init@6:

; 44   : 			}

	jmp	$LN16@init@6
$LN15@init@6:

; 45   : 
; 46   : 			m_nPass = 1;

	mov	eax, DWORD PTR _this$[ebp]
	mov	DWORD PTR [eax+188], 1

; 47   : 			if(env.model_xparent)

	mov	ecx, DWORD PTR _env$[ebp]
	mov	edx, DWORD PTR [ecx]
	shr	edx, 23					; 00000017H
	and	edx, 1
	je	SHORT $LN6@init@6

; 48   : 			{
; 49   : 				if(m_BlendMode <= 1)

	mov	eax, DWORD PTR _this$[ebp]
	movzx	ecx, BYTE PTR [eax+392]
	cmp	ecx, 1
	jg	SHORT $LN6@init@6

; 50   : 				{
; 51   : 					m_BlendMode = 2;

	mov	edx, DWORD PTR _this$[ebp]
	mov	BYTE PTR [edx+392], 2

; 52   : 					m_nPass = 2;

	mov	eax, DWORD PTR _this$[ebp]
	mov	DWORD PTR [eax+188], 2
$LN6@init@6:

; 53   : 				}
; 54   : 			}
; 55   : 
; 56   : 			m_AllPass[0].vs = m_pMtlTemplate->getCompiledVSPS(COMPILED_VS, "Main", env, macros);

	mov	ecx, DWORD PTR _macros$[ebp]
	push	ecx
	mov	edx, DWORD PTR _env$[ebp]
	push	edx
	push	OFFSET ??_C@_04KGFMLCPK@Main?$AA@
	push	1
	mov	eax, DWORD PTR _this$[ebp]
	mov	ecx, DWORD PTR [eax+8]
	call	?getCompiledVSPS@D3DMaterialTemplate@Ogre@@QAEPAVCompiledShader@2@W4COMPILED_TYPE@2@PBDABUShaderEnvFlags@2@ABUMaterialMacro@2@@Z ; Ogre::D3DMaterialTemplate::getCompiledVSPS
	mov	ecx, DWORD PTR _this$[ebp]
	mov	DWORD PTR [ecx+12], eax

; 57   : 			m_AllPass[0].ps = m_pMtlTemplate->getCompiledVSPS(COMPILED_PS, "Main", env, macros);

	mov	edx, DWORD PTR _macros$[ebp]
	push	edx
	mov	eax, DWORD PTR _env$[ebp]
	push	eax
	push	OFFSET ??_C@_04KGFMLCPK@Main?$AA@
	push	2
	mov	ecx, DWORD PTR _this$[ebp]
	mov	ecx, DWORD PTR [ecx+8]
	call	?getCompiledVSPS@D3DMaterialTemplate@Ogre@@QAEPAVCompiledShader@2@W4COMPILED_TYPE@2@PBDABUShaderEnvFlags@2@ABUMaterialMacro@2@@Z ; Ogre::D3DMaterialTemplate::getCompiledVSPS
	mov	edx, DWORD PTR _this$[ebp]
	mov	DWORD PTR [edx+16], eax

; 58   : 
; 59   : 			m_AllPass[0].texstage[0] = SPU_GENERAL_PARAM + 4;

	mov	eax, DWORD PTR _this$[ebp]
	mov	DWORD PTR [eax+24], 1004		; 000003ecH

; 60   : 			m_AllPass[0].texstage[1] = SPU_DEPTHMAP;

	mov	ecx, DWORD PTR _this$[ebp]
	mov	DWORD PTR [ecx+28], 18			; 00000012H

; 61   : 			m_AllPass[0].ntex = 2;

	mov	edx, DWORD PTR _this$[ebp]
	mov	DWORD PTR [edx+20], 2

; 62   : 			if(m_UseSelfIllumTex==SELFILLUM_TEX || m_UseSelfIllumTex==SELFILLUM_ALL)

	mov	eax, DWORD PTR _this$[ebp]
	movzx	ecx, BYTE PTR [eax+394]
	cmp	ecx, 1
	je	SHORT $LN3@init@6
	mov	edx, DWORD PTR _this$[ebp]
	movzx	eax, BYTE PTR [edx+394]
	cmp	eax, 4
	jne	SHORT $LN4@init@6
$LN3@init@6:

; 63   : 			{
; 64   : 				m_AllPass[0].texstage[2] = SPU_GENERAL_PARAM + 5;

	mov	ecx, DWORD PTR _this$[ebp]
	mov	DWORD PTR [ecx+32], 1005		; 000003edH

; 65   : 				m_AllPass[0].ntex = 3;

	mov	edx, DWORD PTR _this$[ebp]
	mov	DWORD PTR [edx+20], 3
$LN4@init@6:

; 66   : 			}
; 67   : 
; 68   : 			if (m_UseMask)

	mov	eax, DWORD PTR _this$[ebp]
	movzx	ecx, BYTE PTR [eax+395]
	test	ecx, ecx
	je	SHORT $LN2@init@6

; 69   : 			{
; 70   : 				m_AllPass[0].texstage[3] = SPU_GENERAL_PARAM + 6;

	mov	edx, DWORD PTR _this$[ebp]
	mov	DWORD PTR [edx+36], 1006		; 000003eeH

; 71   : 				m_AllPass[0].texstage[4] = SPU_GENERAL_PARAM + 7;

	mov	eax, DWORD PTR _this$[ebp]
	mov	DWORD PTR [eax+40], 1007		; 000003efH

; 72   : 				m_AllPass[0].ntex = 5;

	mov	ecx, DWORD PTR _this$[ebp]
	mov	DWORD PTR [ecx+20], 5
$LN2@init@6:

; 73   : 			}
; 74   : 
; 75   : 			if(m_nPass == 2)

	mov	edx, DWORD PTR _this$[ebp]
	cmp	DWORD PTR [edx+188], 2
	jne	SHORT $LN1@init@6

; 76   : 			{
; 77   : 				m_AllPass[1] = m_AllPass[0];

	mov	esi, DWORD PTR _this$[ebp]
	add	esi, 12					; 0000000cH
	mov	edi, DWORD PTR _this$[ebp]
	add	edi, 56					; 00000038H
	mov	ecx, 11					; 0000000bH
	rep movsd
$LN1@init@6:

; 78   : 			}
; 79   : 
; 80   : 			initParams();

	mov	ecx, DWORD PTR _this$[ebp]
	call	?initParams@D3DTech@Ogre@@IAEXXZ	; Ogre::D3DTech::initParams

; 81   : 			m_UsedMacroMask = m_BlendMode|(m_DoubleSide<<8)|(m_UseSelfIllumTex<<16);

	mov	eax, DWORD PTR _this$[ebp]
	movzx	ecx, BYTE PTR [eax+392]
	mov	edx, DWORD PTR _this$[ebp]
	movzx	eax, BYTE PTR [edx+393]
	shl	eax, 8
	or	ecx, eax
	mov	edx, DWORD PTR _this$[ebp]
	movzx	eax, BYTE PTR [edx+394]
	shl	eax, 16					; 00000010H
	or	ecx, eax
	mov	edx, DWORD PTR _this$[ebp]
	mov	DWORD PTR [edx+4], ecx

; 82   : 		}

	pop	edi
	pop	esi
	mov	esp, ebp
	pop	ebp
	ret	8
?init@D3DTech_cloth_lod0@Ogre@@UAEXABUShaderEnvFlags@2@ABUMaterialMacro@2@@Z ENDP ; Ogre::D3DTech_cloth_lod0::init
; Function compile flags: /Odtp
_TEXT	ENDS
;	COMDAT ?beginPass@D3DTech_cloth_lod0@Ogre@@UAEXI@Z
_TEXT	SEGMENT
_this$ = -4						; size = 4
_ipass$ = 8						; size = 4
?beginPass@D3DTech_cloth_lod0@Ogre@@UAEXI@Z PROC	; Ogre::D3DTech_cloth_lod0::beginPass, COMDAT
; _this$ = ecx

; 85   : 		{

	push	ebp
	mov	ebp, esp
	push	ecx
	mov	DWORD PTR _this$[ebp], ecx

; 86   : 			m_CurPass = ipass;

	mov	eax, DWORD PTR _this$[ebp]
	mov	ecx, DWORD PTR _ipass$[ebp]
	mov	DWORD PTR [eax+192], ecx

; 87   : 
; 88   : 			m_pDevice->SetRenderState(D3DRS_ZENABLE, TRUE);

	push	1
	push	7
	mov	edx, DWORD PTR ?m_pDevice@D3DTech@Ogre@@2PAUIDirect3DDevice9@@A ; Ogre::D3DTech::m_pDevice
	mov	eax, DWORD PTR [edx]
	mov	ecx, DWORD PTR ?m_pDevice@D3DTech@Ogre@@2PAUIDirect3DDevice9@@A ; Ogre::D3DTech::m_pDevice
	push	ecx
	mov	edx, DWORD PTR [eax+228]
	call	edx

; 89   : 			m_pDevice->SetRenderState(D3DRS_CULLMODE, m_DoubleSide?D3DCULL_NONE:D3DCULL_CCW);

	mov	eax, DWORD PTR _this$[ebp]
	movzx	ecx, BYTE PTR [eax+393]
	neg	ecx
	sbb	ecx, ecx
	and	ecx, -2					; fffffffeH
	add	ecx, 3
	push	ecx
	push	22					; 00000016H
	mov	edx, DWORD PTR ?m_pDevice@D3DTech@Ogre@@2PAUIDirect3DDevice9@@A ; Ogre::D3DTech::m_pDevice
	mov	eax, DWORD PTR [edx]
	mov	ecx, DWORD PTR ?m_pDevice@D3DTech@Ogre@@2PAUIDirect3DDevice9@@A ; Ogre::D3DTech::m_pDevice
	push	ecx
	mov	edx, DWORD PTR [eax+228]
	call	edx

; 90   : 
; 91   : 			if(m_nPass>1 && ipass==0)

	mov	eax, DWORD PTR _this$[ebp]
	cmp	DWORD PTR [eax+188], 1
	jbe	SHORT $LN10@beginPass@4
	cmp	DWORD PTR _ipass$[ebp], 0
	jne	SHORT $LN10@beginPass@4

; 92   : 			{
; 93   : 				SetBlendState(m_pDevice, BLEND_ALPHATEST, 0);

	push	0
	push	1
	mov	ecx, DWORD PTR ?m_pDevice@D3DTech@Ogre@@2PAUIDirect3DDevice9@@A ; Ogre::D3DTech::m_pDevice
	push	ecx
	call	?SetBlendState@Ogre@@YAXPAUIDirect3DDevice9@@HH@Z ; Ogre::SetBlendState
	add	esp, 12					; 0000000cH

; 94   : 				m_pDevice->SetRenderState(D3DRS_ZWRITEENABLE, TRUE);

	push	1
	push	14					; 0000000eH
	mov	edx, DWORD PTR ?m_pDevice@D3DTech@Ogre@@2PAUIDirect3DDevice9@@A ; Ogre::D3DTech::m_pDevice
	mov	eax, DWORD PTR [edx]
	mov	ecx, DWORD PTR ?m_pDevice@D3DTech@Ogre@@2PAUIDirect3DDevice9@@A ; Ogre::D3DTech::m_pDevice
	push	ecx
	mov	edx, DWORD PTR [eax+228]
	call	edx

; 95   : 				m_pDevice->SetRenderState(D3DRS_COLORWRITEENABLE, 0);

	push	0
	push	168					; 000000a8H
	mov	eax, DWORD PTR ?m_pDevice@D3DTech@Ogre@@2PAUIDirect3DDevice9@@A ; Ogre::D3DTech::m_pDevice
	mov	ecx, DWORD PTR [eax]
	mov	edx, DWORD PTR ?m_pDevice@D3DTech@Ogre@@2PAUIDirect3DDevice9@@A ; Ogre::D3DTech::m_pDevice
	push	edx
	mov	eax, DWORD PTR [ecx+228]
	call	eax

; 96   : 			}
; 97   : 			else

	jmp	$LN9@beginPass@4
$LN10@beginPass@4:

; 98   : 			{
; 99   : 				if(m_BlendMode == BLEND_ALPHATEST)

	mov	ecx, DWORD PTR _this$[ebp]
	movzx	edx, BYTE PTR [ecx+392]
	cmp	edx, 1
	jne	SHORT $LN8@beginPass@4

; 100  : 				{
; 101  : 					if(m_UseSelfIllumTex==SELFILLUM_ALPHA || m_UseSelfIllumTex==SELFILLUM_ALL)

	mov	eax, DWORD PTR _this$[ebp]
	movzx	ecx, BYTE PTR [eax+394]
	cmp	ecx, 3
	je	SHORT $LN6@beginPass@4
	mov	edx, DWORD PTR _this$[ebp]
	movzx	eax, BYTE PTR [edx+394]
	cmp	eax, 4
	jne	SHORT $LN7@beginPass@4
$LN6@beginPass@4:

; 102  : 						SetBlendState(m_pDevice, BLEND_ALPHATEST, 0);

	push	0
	push	1
	mov	ecx, DWORD PTR ?m_pDevice@D3DTech@Ogre@@2PAUIDirect3DDevice9@@A ; Ogre::D3DTech::m_pDevice
	push	ecx
	call	?SetBlendState@Ogre@@YAXPAUIDirect3DDevice9@@HH@Z ; Ogre::SetBlendState
	add	esp, 12					; 0000000cH

; 103  : 					else

	jmp	SHORT $LN5@beginPass@4
$LN7@beginPass@4:

; 104  : 						SetBlendState(m_pDevice, m_BlendMode, 85);

	push	85					; 00000055H
	mov	edx, DWORD PTR _this$[ebp]
	movzx	eax, BYTE PTR [edx+392]
	push	eax
	mov	ecx, DWORD PTR ?m_pDevice@D3DTech@Ogre@@2PAUIDirect3DDevice9@@A ; Ogre::D3DTech::m_pDevice
	push	ecx
	call	?SetBlendState@Ogre@@YAXPAUIDirect3DDevice9@@HH@Z ; Ogre::SetBlendState
	add	esp, 12					; 0000000cH
$LN5@beginPass@4:
	jmp	SHORT $LN4@beginPass@4
$LN8@beginPass@4:

; 105  : 				}
; 106  : 				else SetBlendState(m_pDevice, m_BlendMode);

	push	-1
	mov	edx, DWORD PTR _this$[ebp]
	movzx	eax, BYTE PTR [edx+392]
	push	eax
	mov	ecx, DWORD PTR ?m_pDevice@D3DTech@Ogre@@2PAUIDirect3DDevice9@@A ; Ogre::D3DTech::m_pDevice
	push	ecx
	call	?SetBlendState@Ogre@@YAXPAUIDirect3DDevice9@@HH@Z ; Ogre::SetBlendState
	add	esp, 12					; 0000000cH
$LN4@beginPass@4:

; 107  : 
; 108  : 				//m_pDevice->SetRenderState(D3DRS_ZFUNC, m_nPass>1?D3DCMP_LESSEQUAL:D3DCMP_LESS);
; 109  : 				m_pDevice->SetRenderState(D3DRS_ZWRITEENABLE, m_BlendMode<=1?TRUE:FALSE);

	mov	edx, DWORD PTR _this$[ebp]
	movzx	eax, BYTE PTR [edx+392]
	xor	ecx, ecx
	cmp	eax, 1
	setle	cl
	push	ecx
	push	14					; 0000000eH
	mov	edx, DWORD PTR ?m_pDevice@D3DTech@Ogre@@2PAUIDirect3DDevice9@@A ; Ogre::D3DTech::m_pDevice
	mov	eax, DWORD PTR [edx]
	mov	ecx, DWORD PTR ?m_pDevice@D3DTech@Ogre@@2PAUIDirect3DDevice9@@A ; Ogre::D3DTech::m_pDevice
	push	ecx
	mov	edx, DWORD PTR [eax+228]
	call	edx
$LN9@beginPass@4:

; 110  : 			}
; 111  : 
; 112  : 			SamplerState_Wrap(m_pDevice, 0);

	push	0
	mov	eax, DWORD PTR ?m_pDevice@D3DTech@Ogre@@2PAUIDirect3DDevice9@@A ; Ogre::D3DTech::m_pDevice
	push	eax
	call	?SamplerState_Wrap@Ogre@@YAXPAUIDirect3DDevice9@@H@Z ; Ogre::SamplerState_Wrap
	add	esp, 8

; 113  : 			SamplerState_DMap(m_pDevice, 1);

	push	1
	mov	ecx, DWORD PTR ?m_pDevice@D3DTech@Ogre@@2PAUIDirect3DDevice9@@A ; Ogre::D3DTech::m_pDevice
	push	ecx
	call	?SamplerState_DMap@Ogre@@YAXPAUIDirect3DDevice9@@H@Z ; Ogre::SamplerState_DMap
	add	esp, 8

; 114  : 			if(m_UseSelfIllumTex==SELFILLUM_TEX || m_UseSelfIllumTex==SELFILLUM_ALL)

	mov	edx, DWORD PTR _this$[ebp]
	movzx	eax, BYTE PTR [edx+394]
	cmp	eax, 1
	je	SHORT $LN2@beginPass@4
	mov	ecx, DWORD PTR _this$[ebp]
	movzx	edx, BYTE PTR [ecx+394]
	cmp	edx, 4
	jne	SHORT $LN3@beginPass@4
$LN2@beginPass@4:

; 115  : 			{
; 116  : 				SamplerState_Wrap(m_pDevice, 2);

	push	2
	mov	eax, DWORD PTR ?m_pDevice@D3DTech@Ogre@@2PAUIDirect3DDevice9@@A ; Ogre::D3DTech::m_pDevice
	push	eax
	call	?SamplerState_Wrap@Ogre@@YAXPAUIDirect3DDevice9@@H@Z ; Ogre::SamplerState_Wrap
	add	esp, 8
$LN3@beginPass@4:

; 117  : 			}
; 118  : 
; 119  : 			if (m_UseMask)

	mov	ecx, DWORD PTR _this$[ebp]
	movzx	edx, BYTE PTR [ecx+395]
	test	edx, edx
	je	SHORT $LN1@beginPass@4

; 120  : 			{
; 121  : 				SamplerState_Clamp(m_pDevice, 3);

	push	3
	mov	eax, DWORD PTR ?m_pDevice@D3DTech@Ogre@@2PAUIDirect3DDevice9@@A ; Ogre::D3DTech::m_pDevice
	push	eax
	call	?SamplerState_Clamp@Ogre@@YAXPAUIDirect3DDevice9@@H@Z ; Ogre::SamplerState_Clamp
	add	esp, 8

; 122  : 				SamplerState_Wrap(m_pDevice, 4);

	push	4
	mov	ecx, DWORD PTR ?m_pDevice@D3DTech@Ogre@@2PAUIDirect3DDevice9@@A ; Ogre::D3DTech::m_pDevice
	push	ecx
	call	?SamplerState_Wrap@Ogre@@YAXPAUIDirect3DDevice9@@H@Z ; Ogre::SamplerState_Wrap
	add	esp, 8
$LN1@beginPass@4:

; 123  : 			}
; 124  : 
; 125  : 			applyVSPS(m_CurPass);

	mov	edx, DWORD PTR _this$[ebp]
	mov	eax, DWORD PTR [edx+192]
	push	eax
	mov	ecx, DWORD PTR _this$[ebp]
	call	?applyVSPS@D3DTech@Ogre@@IAEXI@Z	; Ogre::D3DTech::applyVSPS

; 126  : 		}

	mov	esp, ebp
	pop	ebp
	ret	4
?beginPass@D3DTech_cloth_lod0@Ogre@@UAEXI@Z ENDP	; Ogre::D3DTech_cloth_lod0::beginPass
; Function compile flags: /Odtp
_TEXT	ENDS
;	COMDAT ?endPass@D3DTech_cloth_lod0@Ogre@@UAEXXZ
_TEXT	SEGMENT
_this$ = -4						; size = 4
?endPass@D3DTech_cloth_lod0@Ogre@@UAEXXZ PROC		; Ogre::D3DTech_cloth_lod0::endPass, COMDAT
; _this$ = ecx

; 128  : 		{

	push	ebp
	mov	ebp, esp
	push	ecx
	mov	DWORD PTR _this$[ebp], ecx

; 129  : 			m_pDevice->SetRenderState(D3DRS_COLORWRITEENABLE, 0xf);

	push	15					; 0000000fH
	push	168					; 000000a8H
	mov	eax, DWORD PTR ?m_pDevice@D3DTech@Ogre@@2PAUIDirect3DDevice9@@A ; Ogre::D3DTech::m_pDevice
	mov	ecx, DWORD PTR [eax]
	mov	edx, DWORD PTR ?m_pDevice@D3DTech@Ogre@@2PAUIDirect3DDevice9@@A ; Ogre::D3DTech::m_pDevice
	push	edx
	mov	eax, DWORD PTR [ecx+228]
	call	eax

; 130  : 			m_pDevice->SetRenderState(D3DRS_ZWRITEENABLE, TRUE);

	push	1
	push	14					; 0000000eH
	mov	ecx, DWORD PTR ?m_pDevice@D3DTech@Ogre@@2PAUIDirect3DDevice9@@A ; Ogre::D3DTech::m_pDevice
	mov	edx, DWORD PTR [ecx]
	mov	eax, DWORD PTR ?m_pDevice@D3DTech@Ogre@@2PAUIDirect3DDevice9@@A ; Ogre::D3DTech::m_pDevice
	push	eax
	mov	ecx, DWORD PTR [edx+228]
	call	ecx

; 131  : 			//m_pDevice->SetRenderState(D3DRS_ZFUNC, D3DCMP_LESS);
; 132  : 
; 133  : 			m_pDevice->SetTexture(1, 0); // 

	push	0
	push	1
	mov	edx, DWORD PTR ?m_pDevice@D3DTech@Ogre@@2PAUIDirect3DDevice9@@A ; Ogre::D3DTech::m_pDevice
	mov	eax, DWORD PTR [edx]
	mov	ecx, DWORD PTR ?m_pDevice@D3DTech@Ogre@@2PAUIDirect3DDevice9@@A ; Ogre::D3DTech::m_pDevice
	push	ecx
	mov	edx, DWORD PTR [eax+260]
	call	edx

; 134  : 
; 135  : 			if (m_UseMask)

	mov	eax, DWORD PTR _this$[ebp]
	movzx	ecx, BYTE PTR [eax+395]
	test	ecx, ecx
	je	SHORT $LN2@endPass

; 136  : 			{
; 137  : 				m_pDevice->SetTexture(3, 0); // 

	push	0
	push	3
	mov	edx, DWORD PTR ?m_pDevice@D3DTech@Ogre@@2PAUIDirect3DDevice9@@A ; Ogre::D3DTech::m_pDevice
	mov	eax, DWORD PTR [edx]
	mov	ecx, DWORD PTR ?m_pDevice@D3DTech@Ogre@@2PAUIDirect3DDevice9@@A ; Ogre::D3DTech::m_pDevice
	push	ecx
	mov	edx, DWORD PTR [eax+260]
	call	edx

; 138  : 				m_pDevice->SetTexture(4, 0); 

	push	0
	push	4
	mov	eax, DWORD PTR ?m_pDevice@D3DTech@Ogre@@2PAUIDirect3DDevice9@@A ; Ogre::D3DTech::m_pDevice
	mov	ecx, DWORD PTR [eax]
	mov	edx, DWORD PTR ?m_pDevice@D3DTech@Ogre@@2PAUIDirect3DDevice9@@A ; Ogre::D3DTech::m_pDevice
	push	edx
	mov	eax, DWORD PTR [ecx+260]
	call	eax
$LN2@endPass:

; 139  : 			}
; 140  : 
; 141  : 		}

	mov	esp, ebp
	pop	ebp
	ret	0
?endPass@D3DTech_cloth_lod0@Ogre@@UAEXXZ ENDP		; Ogre::D3DTech_cloth_lod0::endPass
_TEXT	ENDS
PUBLIC	??1D3DTech_cloth_lod0@Ogre@@UAE@XZ		; Ogre::D3DTech_cloth_lod0::~D3DTech_cloth_lod0
; Function compile flags: /Odtp
;	COMDAT ??_GD3DTech_cloth_lod0@Ogre@@UAEPAXI@Z
_TEXT	SEGMENT
_this$ = -4						; size = 4
___flags$ = 8						; size = 4
??_GD3DTech_cloth_lod0@Ogre@@UAEPAXI@Z PROC		; Ogre::D3DTech_cloth_lod0::`scalar deleting destructor', COMDAT
; _this$ = ecx
	push	ebp
	mov	ebp, esp
	push	ecx
	mov	DWORD PTR _this$[ebp], ecx
	mov	ecx, DWORD PTR _this$[ebp]
	call	??1D3DTech_cloth_lod0@Ogre@@UAE@XZ
	mov	eax, DWORD PTR ___flags$[ebp]
	and	eax, 1
	je	SHORT $LN1@scalar@13
	mov	ecx, DWORD PTR _this$[ebp]
	push	ecx
	call	??3@YAXPAX@Z				; operator delete
	add	esp, 4
$LN1@scalar@13:
	mov	eax, DWORD PTR _this$[ebp]
	mov	esp, ebp
	pop	ebp
	ret	4
??_GD3DTech_cloth_lod0@Ogre@@UAEPAXI@Z ENDP		; Ogre::D3DTech_cloth_lod0::`scalar deleting destructor'
_TEXT	ENDS
;	COMDAT xdata$x
xdata$x	SEGMENT
__unwindtable$??1D3DTech_cloth_lod0@Ogre@@UAE@XZ DD 0ffffffffH
	DD	FLAT:__unwindfunclet$??1D3DTech_cloth_lod0@Ogre@@UAE@XZ$0
__ehfuncinfo$??1D3DTech_cloth_lod0@Ogre@@UAE@XZ DD 019930522H
	DD	01H
	DD	FLAT:__unwindtable$??1D3DTech_cloth_lod0@Ogre@@UAE@XZ
	DD	2 DUP(00H)
	DD	2 DUP(00H)
	DD	00H
	DD	00H
; Function compile flags: /Odtp
xdata$x	ENDS
;	COMDAT ??1D3DTech_cloth_lod0@Ogre@@UAE@XZ
_TEXT	SEGMENT
_this$ = -16						; size = 4
__$EHRec$ = -12						; size = 12
??1D3DTech_cloth_lod0@Ogre@@UAE@XZ PROC			; Ogre::D3DTech_cloth_lod0::~D3DTech_cloth_lod0, COMDAT
; _this$ = ecx
	push	ebp
	mov	ebp, esp
	push	-1
	push	__ehhandler$??1D3DTech_cloth_lod0@Ogre@@UAE@XZ
	mov	eax, DWORD PTR fs:0
	push	eax
	push	ecx
	mov	eax, DWORD PTR ___security_cookie
	xor	eax, ebp
	push	eax
	lea	eax, DWORD PTR __$EHRec$[ebp]
	mov	DWORD PTR fs:0, eax
	mov	DWORD PTR _this$[ebp], ecx
	mov	DWORD PTR __$EHRec$[ebp+8], 0
	mov	DWORD PTR __$EHRec$[ebp+8], -1
	mov	ecx, DWORD PTR _this$[ebp]
	call	??1D3DTech@Ogre@@UAE@XZ
	mov	ecx, DWORD PTR __$EHRec$[ebp]
	mov	DWORD PTR fs:0, ecx
	pop	ecx
	mov	esp, ebp
	pop	ebp
	ret	0
_TEXT	ENDS
;	COMDAT text$x
text$x	SEGMENT
__unwindfunclet$??1D3DTech_cloth_lod0@Ogre@@UAE@XZ$0:
	mov	ecx, DWORD PTR _this$[ebp]
	jmp	??1D3DTech@Ogre@@UAE@XZ
__ehhandler$??1D3DTech_cloth_lod0@Ogre@@UAE@XZ:
	mov	edx, DWORD PTR [esp+8]
	lea	eax, DWORD PTR [edx+12]
	mov	ecx, DWORD PTR [edx-8]
	xor	ecx, eax
	call	@__security_check_cookie@4
	mov	eax, OFFSET __ehfuncinfo$??1D3DTech_cloth_lod0@Ogre@@UAE@XZ
	jmp	___CxxFrameHandler3
text$x	ENDS
??1D3DTech_cloth_lod0@Ogre@@UAE@XZ ENDP			; Ogre::D3DTech_cloth_lod0::~D3DTech_cloth_lod0
PUBLIC	??_7D3DTech_cloth_shadowgen@Ogre@@6B@		; Ogre::D3DTech_cloth_shadowgen::`vftable'
PUBLIC	??_R4D3DTech_cloth_shadowgen@Ogre@@6B@		; Ogre::D3DTech_cloth_shadowgen::`RTTI Complete Object Locator'
PUBLIC	??_R0?AVD3DTech_cloth_shadowgen@Ogre@@@8	; Ogre::D3DTech_cloth_shadowgen `RTTI Type Descriptor'
PUBLIC	??_R3D3DTech_cloth_shadowgen@Ogre@@8		; Ogre::D3DTech_cloth_shadowgen::`RTTI Class Hierarchy Descriptor'
PUBLIC	??_R2D3DTech_cloth_shadowgen@Ogre@@8		; Ogre::D3DTech_cloth_shadowgen::`RTTI Base Class Array'
PUBLIC	??_R1A@?0A@EA@D3DTech_cloth_shadowgen@Ogre@@8	; Ogre::D3DTech_cloth_shadowgen::`RTTI Base Class Descriptor at (0,-1,0,64)'
PUBLIC	?beginPass@D3DTech_cloth_shadowgen@Ogre@@UAEXI@Z ; Ogre::D3DTech_cloth_shadowgen::beginPass
PUBLIC	?endPass@D3DTech_cloth_shadowgen@Ogre@@UAEXXZ	; Ogre::D3DTech_cloth_shadowgen::endPass
PUBLIC	?clone@D3DTech_cloth_shadowgen@Ogre@@UAEPAVD3DTech@2@XZ ; Ogre::D3DTech_cloth_shadowgen::clone
PUBLIC	?init@D3DTech_cloth_shadowgen@Ogre@@UAEXABUShaderEnvFlags@2@ABUMaterialMacro@2@@Z ; Ogre::D3DTech_cloth_shadowgen::init
EXTRN	??_ED3DTech_cloth_shadowgen@Ogre@@UAEPAXI@Z:PROC ; Ogre::D3DTech_cloth_shadowgen::`vector deleting destructor'
;	COMDAT ??_R1A@?0A@EA@D3DTech_cloth_shadowgen@Ogre@@8
rdata$r	SEGMENT
??_R1A@?0A@EA@D3DTech_cloth_shadowgen@Ogre@@8 DD FLAT:??_R0?AVD3DTech_cloth_shadowgen@Ogre@@@8 ; Ogre::D3DTech_cloth_shadowgen::`RTTI Base Class Descriptor at (0,-1,0,64)'
	DD	02H
	DD	00H
	DD	0ffffffffH
	DD	00H
	DD	040H
	DD	FLAT:??_R3D3DTech_cloth_shadowgen@Ogre@@8
rdata$r	ENDS
;	COMDAT ??_R2D3DTech_cloth_shadowgen@Ogre@@8
rdata$r	SEGMENT
??_R2D3DTech_cloth_shadowgen@Ogre@@8 DD FLAT:??_R1A@?0A@EA@D3DTech_cloth_shadowgen@Ogre@@8 ; Ogre::D3DTech_cloth_shadowgen::`RTTI Base Class Array'
	DD	FLAT:??_R1A@?0A@EA@D3DTech@Ogre@@8
	DD	FLAT:??_R1A@?0A@EA@ShaderTechnique@Ogre@@8
rdata$r	ENDS
;	COMDAT ??_R3D3DTech_cloth_shadowgen@Ogre@@8
rdata$r	SEGMENT
??_R3D3DTech_cloth_shadowgen@Ogre@@8 DD 00H		; Ogre::D3DTech_cloth_shadowgen::`RTTI Class Hierarchy Descriptor'
	DD	00H
	DD	03H
	DD	FLAT:??_R2D3DTech_cloth_shadowgen@Ogre@@8
rdata$r	ENDS
;	COMDAT ??_R0?AVD3DTech_cloth_shadowgen@Ogre@@@8
_DATA	SEGMENT
??_R0?AVD3DTech_cloth_shadowgen@Ogre@@@8 DD FLAT:??_7type_info@@6B@ ; Ogre::D3DTech_cloth_shadowgen `RTTI Type Descriptor'
	DD	00H
	DB	'.?AVD3DTech_cloth_shadowgen@Ogre@@', 00H
_DATA	ENDS
;	COMDAT ??_R4D3DTech_cloth_shadowgen@Ogre@@6B@
rdata$r	SEGMENT
??_R4D3DTech_cloth_shadowgen@Ogre@@6B@ DD 00H		; Ogre::D3DTech_cloth_shadowgen::`RTTI Complete Object Locator'
	DD	00H
	DD	00H
	DD	FLAT:??_R0?AVD3DTech_cloth_shadowgen@Ogre@@@8
	DD	FLAT:??_R3D3DTech_cloth_shadowgen@Ogre@@8
rdata$r	ENDS
;	COMDAT ??_7D3DTech_cloth_shadowgen@Ogre@@6B@
CONST	SEGMENT
??_7D3DTech_cloth_shadowgen@Ogre@@6B@ DD FLAT:??_R4D3DTech_cloth_shadowgen@Ogre@@6B@ ; Ogre::D3DTech_cloth_shadowgen::`vftable'
	DD	FLAT:?begin@D3DTech@Ogre@@UAEIXZ
	DD	FLAT:?end@D3DTech@Ogre@@UAEXXZ
	DD	FLAT:?beginPass@D3DTech_cloth_shadowgen@Ogre@@UAEXI@Z
	DD	FLAT:?endPass@D3DTech_cloth_shadowgen@Ogre@@UAEXXZ
	DD	FLAT:?setConstant@D3DTech@Ogre@@UAEXW4ShaderParamUsage@2@PBXI@Z
	DD	FLAT:?setConstant@D3DTech@Ogre@@UAEXPBDPBXI@Z
	DD	FLAT:?setTexture@D3DTech@Ogre@@UAEXW4ShaderParamUsage@2@PAVHardwarePixelBuffer@2@@Z
	DD	FLAT:?setTexture@D3DTech@Ogre@@UAEXPBDPAVHardwarePixelBuffer@2@@Z
	DD	FLAT:?setStreamInput@D3DTech@Ogre@@UAEXIPAPAVHardwareVertexBuffer@2@HPAI@Z
	DD	FLAT:?setStreamInput@D3DTech@Ogre@@UAEXIPAVHardwareVertexBuffer@2@I@Z
	DD	FLAT:?setStreamInput@D3DTech@Ogre@@UAEXIPAPAVHardwareVertexBuffer@2@PAI@Z
	DD	FLAT:?commitChanges@D3DTech@Ogre@@UAEXXZ
	DD	FLAT:?draw@D3DTech@Ogre@@UAEXW4PrimitiveType@2@IIPAVHardwareIndexBuffer@2@II@Z
	DD	FLAT:?draw@D3DTech@Ogre@@UAEXW4PrimitiveType@2@II@Z
	DD	FLAT:?getRequiredParams@D3DTech@Ogre@@UAEIPAW4ShaderParamUsage@2@I@Z
	DD	FLAT:??_ED3DTech_cloth_shadowgen@Ogre@@UAEPAXI@Z
	DD	FLAT:?clone@D3DTech_cloth_shadowgen@Ogre@@UAEPAVD3DTech@2@XZ
	DD	FLAT:?init@D3DTech_cloth_shadowgen@Ogre@@UAEXABUShaderEnvFlags@2@ABUMaterialMacro@2@@Z
CONST	ENDS
;	COMDAT xdata$x
xdata$x	SEGMENT
__unwindtable$??0D3DTech_cloth_shadowgen@Ogre@@QAE@XZ DD 0ffffffffH
	DD	FLAT:__unwindfunclet$??0D3DTech_cloth_shadowgen@Ogre@@QAE@XZ$0
__ehfuncinfo$??0D3DTech_cloth_shadowgen@Ogre@@QAE@XZ DD 019930522H
	DD	01H
	DD	FLAT:__unwindtable$??0D3DTech_cloth_shadowgen@Ogre@@QAE@XZ
	DD	2 DUP(00H)
	DD	2 DUP(00H)
	DD	00H
	DD	00H
; Function compile flags: /Odtp
xdata$x	ENDS
;	COMDAT ??0D3DTech_cloth_shadowgen@Ogre@@QAE@XZ
_TEXT	SEGMENT
_this$ = -16						; size = 4
__$EHRec$ = -12						; size = 12
??0D3DTech_cloth_shadowgen@Ogre@@QAE@XZ PROC		; Ogre::D3DTech_cloth_shadowgen::D3DTech_cloth_shadowgen, COMDAT
; _this$ = ecx
	push	ebp
	mov	ebp, esp
	push	-1
	push	__ehhandler$??0D3DTech_cloth_shadowgen@Ogre@@QAE@XZ
	mov	eax, DWORD PTR fs:0
	push	eax
	push	ecx
	mov	eax, DWORD PTR ___security_cookie
	xor	eax, ebp
	push	eax
	lea	eax, DWORD PTR __$EHRec$[ebp]
	mov	DWORD PTR fs:0, eax
	mov	DWORD PTR _this$[ebp], ecx
	mov	ecx, DWORD PTR _this$[ebp]
	call	??0D3DTech@Ogre@@QAE@XZ			; Ogre::D3DTech::D3DTech
	mov	DWORD PTR __$EHRec$[ebp+8], 0
	mov	eax, DWORD PTR _this$[ebp]
	mov	DWORD PTR [eax], OFFSET ??_7D3DTech_cloth_shadowgen@Ogre@@6B@
	mov	DWORD PTR __$EHRec$[ebp+8], -1
	mov	eax, DWORD PTR _this$[ebp]
	mov	ecx, DWORD PTR __$EHRec$[ebp]
	mov	DWORD PTR fs:0, ecx
	pop	ecx
	mov	esp, ebp
	pop	ebp
	ret	0
_TEXT	ENDS
;	COMDAT text$x
text$x	SEGMENT
__unwindfunclet$??0D3DTech_cloth_shadowgen@Ogre@@QAE@XZ$0:
	mov	ecx, DWORD PTR _this$[ebp]
	jmp	??1D3DTech@Ogre@@UAE@XZ
__ehhandler$??0D3DTech_cloth_shadowgen@Ogre@@QAE@XZ:
	mov	edx, DWORD PTR [esp+8]
	lea	eax, DWORD PTR [edx+12]
	mov	ecx, DWORD PTR [edx-8]
	xor	ecx, eax
	call	@__security_check_cookie@4
	mov	eax, OFFSET __ehfuncinfo$??0D3DTech_cloth_shadowgen@Ogre@@QAE@XZ
	jmp	___CxxFrameHandler3
text$x	ENDS
??0D3DTech_cloth_shadowgen@Ogre@@QAE@XZ ENDP		; Ogre::D3DTech_cloth_shadowgen::D3DTech_cloth_shadowgen
;	COMDAT xdata$x
xdata$x	SEGMENT
__unwindtable$?clone@D3DTech_cloth_shadowgen@Ogre@@UAEPAVD3DTech@2@XZ DD 0ffffffffH
	DD	FLAT:__unwindfunclet$?clone@D3DTech_cloth_shadowgen@Ogre@@UAEPAVD3DTech@2@XZ$0
__ehfuncinfo$?clone@D3DTech_cloth_shadowgen@Ogre@@UAEPAVD3DTech@2@XZ DD 019930522H
	DD	01H
	DD	FLAT:__unwindtable$?clone@D3DTech_cloth_shadowgen@Ogre@@UAEPAVD3DTech@2@XZ
	DD	2 DUP(00H)
	DD	2 DUP(00H)
	DD	00H
	DD	00H
; Function compile flags: /Odtp
xdata$x	ENDS
;	COMDAT ?clone@D3DTech_cloth_shadowgen@Ogre@@UAEPAVD3DTech@2@XZ
_TEXT	SEGMENT
tv74 = -28						; size = 4
_this$ = -24						; size = 4
$T139994 = -20						; size = 4
$T139993 = -16						; size = 4
__$EHRec$ = -12						; size = 12
?clone@D3DTech_cloth_shadowgen@Ogre@@UAEPAVD3DTech@2@XZ PROC ; Ogre::D3DTech_cloth_shadowgen::clone, COMDAT
; _this$ = ecx

; 159  : 		{

	push	ebp
	mov	ebp, esp
	push	-1
	push	__ehhandler$?clone@D3DTech_cloth_shadowgen@Ogre@@UAEPAVD3DTech@2@XZ
	mov	eax, DWORD PTR fs:0
	push	eax
	sub	esp, 16					; 00000010H
	mov	eax, DWORD PTR ___security_cookie
	xor	eax, ebp
	push	eax
	lea	eax, DWORD PTR __$EHRec$[ebp]
	mov	DWORD PTR fs:0, eax
	mov	DWORD PTR _this$[ebp], ecx

; 160  : 			return new D3DTech_cloth_shadowgen;

	push	396					; 0000018cH
	call	??2@YAPAXI@Z				; operator new
	add	esp, 4
	mov	DWORD PTR $T139994[ebp], eax
	mov	DWORD PTR __$EHRec$[ebp+8], 0
	cmp	DWORD PTR $T139994[ebp], 0
	je	SHORT $LN3@clone@13
	mov	ecx, DWORD PTR $T139994[ebp]
	call	??0D3DTech_cloth_shadowgen@Ogre@@QAE@XZ
	mov	DWORD PTR tv74[ebp], eax
	jmp	SHORT $LN4@clone@13
$LN3@clone@13:
	mov	DWORD PTR tv74[ebp], 0
$LN4@clone@13:
	mov	eax, DWORD PTR tv74[ebp]
	mov	DWORD PTR $T139993[ebp], eax
	mov	DWORD PTR __$EHRec$[ebp+8], -1
	mov	eax, DWORD PTR $T139993[ebp]

; 161  : 		}

	mov	ecx, DWORD PTR __$EHRec$[ebp]
	mov	DWORD PTR fs:0, ecx
	pop	ecx
	mov	esp, ebp
	pop	ebp
	ret	0
_TEXT	ENDS
;	COMDAT text$x
text$x	SEGMENT
__unwindfunclet$?clone@D3DTech_cloth_shadowgen@Ogre@@UAEPAVD3DTech@2@XZ$0:
	mov	eax, DWORD PTR $T139994[ebp]
	push	eax
	call	??3@YAXPAX@Z				; operator delete
	pop	ecx
	ret	0
__ehhandler$?clone@D3DTech_cloth_shadowgen@Ogre@@UAEPAVD3DTech@2@XZ:
	mov	edx, DWORD PTR [esp+8]
	lea	eax, DWORD PTR [edx+12]
	mov	ecx, DWORD PTR [edx-20]
	xor	ecx, eax
	call	@__security_check_cookie@4
	mov	eax, OFFSET __ehfuncinfo$?clone@D3DTech_cloth_shadowgen@Ogre@@UAEPAVD3DTech@2@XZ
	jmp	___CxxFrameHandler3
text$x	ENDS
?clone@D3DTech_cloth_shadowgen@Ogre@@UAEPAVD3DTech@2@XZ ENDP ; Ogre::D3DTech_cloth_shadowgen::clone
PUBLIC	??_C@_09MLKEOPJL@ShadowGen?$AA@			; `string'
;	COMDAT ??_C@_09MLKEOPJL@ShadowGen?$AA@
CONST	SEGMENT
??_C@_09MLKEOPJL@ShadowGen?$AA@ DB 'ShadowGen', 00H	; `string'
; Function compile flags: /Odtp
CONST	ENDS
;	COMDAT ?init@D3DTech_cloth_shadowgen@Ogre@@UAEXABUShaderEnvFlags@2@ABUMaterialMacro@2@@Z
_TEXT	SEGMENT
_this$ = -12						; size = 4
_indx$133092 = -8					; size = 4
_i$133088 = -4						; size = 4
_env$ = 8						; size = 4
_macros$ = 12						; size = 4
?init@D3DTech_cloth_shadowgen@Ogre@@UAEXABUShaderEnvFlags@2@ABUMaterialMacro@2@@Z PROC ; Ogre::D3DTech_cloth_shadowgen::init, COMDAT
; _this$ = ecx

; 164  : 		{

	push	ebp
	mov	ebp, esp
	sub	esp, 12					; 0000000cH
	mov	DWORD PTR _this$[ebp], ecx

; 165  : 			m_DoubleSide = 0;

	mov	eax, DWORD PTR _this$[ebp]
	mov	BYTE PTR [eax+392], 0

; 166  : 
; 167  : 			for(int i=0; i<MaterialMacro::MAX_MACRO; i++)

	mov	DWORD PTR _i$133088[ebp], 0
	jmp	SHORT $LN5@init@7
$LN4@init@7:
	mov	ecx, DWORD PTR _i$133088[ebp]
	add	ecx, 1
	mov	DWORD PTR _i$133088[ebp], ecx
$LN5@init@7:
	cmp	DWORD PTR _i$133088[ebp], 4
	jge	SHORT $LN3@init@7

; 168  : 			{
; 169  : 				int indx = macros.indices[i];

	mov	edx, DWORD PTR _macros$[ebp]
	add	edx, DWORD PTR _i$133088[ebp]
	movzx	eax, BYTE PTR [edx]
	mov	DWORD PTR _indx$133092[ebp], eax

; 170  : 				if(indx == 0) break;

	cmp	DWORD PTR _indx$133092[ebp], 0
	jne	SHORT $LN2@init@7
	jmp	SHORT $LN3@init@7
$LN2@init@7:

; 171  : 
; 172  : 				if(indx == MTLPARAM_DOUBLE_SIDE) m_DoubleSide = macros.value[i];

	cmp	DWORD PTR _indx$133092[ebp], 2
	jne	SHORT $LN1@init@7
	mov	ecx, DWORD PTR _macros$[ebp]
	add	ecx, DWORD PTR _i$133088[ebp]
	mov	edx, DWORD PTR _this$[ebp]
	mov	al, BYTE PTR [ecx+4]
	mov	BYTE PTR [edx+392], al
$LN1@init@7:

; 173  : 			}

	jmp	SHORT $LN4@init@7
$LN3@init@7:

; 174  : 
; 175  : 			m_nPass = 1;

	mov	ecx, DWORD PTR _this$[ebp]
	mov	DWORD PTR [ecx+188], 1

; 176  : 			m_AllPass[0].vs = m_pMtlTemplate->getCompiledVSPS(COMPILED_VS, "ShadowGen", env, macros);

	mov	edx, DWORD PTR _macros$[ebp]
	push	edx
	mov	eax, DWORD PTR _env$[ebp]
	push	eax
	push	OFFSET ??_C@_09MLKEOPJL@ShadowGen?$AA@
	push	1
	mov	ecx, DWORD PTR _this$[ebp]
	mov	ecx, DWORD PTR [ecx+8]
	call	?getCompiledVSPS@D3DMaterialTemplate@Ogre@@QAEPAVCompiledShader@2@W4COMPILED_TYPE@2@PBDABUShaderEnvFlags@2@ABUMaterialMacro@2@@Z ; Ogre::D3DMaterialTemplate::getCompiledVSPS
	mov	edx, DWORD PTR _this$[ebp]
	mov	DWORD PTR [edx+12], eax

; 177  : 			m_AllPass[0].ps = m_pMtlTemplate->getCompiledVSPS(COMPILED_PS, "ShadowGen", env, macros);

	mov	eax, DWORD PTR _macros$[ebp]
	push	eax
	mov	ecx, DWORD PTR _env$[ebp]
	push	ecx
	push	OFFSET ??_C@_09MLKEOPJL@ShadowGen?$AA@
	push	2
	mov	edx, DWORD PTR _this$[ebp]
	mov	ecx, DWORD PTR [edx+8]
	call	?getCompiledVSPS@D3DMaterialTemplate@Ogre@@QAEPAVCompiledShader@2@W4COMPILED_TYPE@2@PBDABUShaderEnvFlags@2@ABUMaterialMacro@2@@Z ; Ogre::D3DMaterialTemplate::getCompiledVSPS
	mov	ecx, DWORD PTR _this$[ebp]
	mov	DWORD PTR [ecx+16], eax

; 178  : 
; 179  : 			m_AllPass[0].ntex = 1;

	mov	edx, DWORD PTR _this$[ebp]
	mov	DWORD PTR [edx+20], 1

; 180  : 			m_AllPass[0].texstage[0] = SPU_GENERAL_PARAM + 4;

	mov	eax, DWORD PTR _this$[ebp]
	mov	DWORD PTR [eax+24], 1004		; 000003ecH

; 181  : 
; 182  : 			initParams();

	mov	ecx, DWORD PTR _this$[ebp]
	call	?initParams@D3DTech@Ogre@@IAEXXZ	; Ogre::D3DTech::initParams

; 183  : 			m_UsedMacroMask = m_DoubleSide;

	mov	ecx, DWORD PTR _this$[ebp]
	movzx	edx, BYTE PTR [ecx+392]
	mov	eax, DWORD PTR _this$[ebp]
	mov	DWORD PTR [eax+4], edx

; 184  : 		}

	mov	esp, ebp
	pop	ebp
	ret	8
?init@D3DTech_cloth_shadowgen@Ogre@@UAEXABUShaderEnvFlags@2@ABUMaterialMacro@2@@Z ENDP ; Ogre::D3DTech_cloth_shadowgen::init
; Function compile flags: /Odtp
_TEXT	ENDS
;	COMDAT ?beginPass@D3DTech_cloth_shadowgen@Ogre@@UAEXI@Z
_TEXT	SEGMENT
_this$ = -4						; size = 4
_ipass$ = 8						; size = 4
?beginPass@D3DTech_cloth_shadowgen@Ogre@@UAEXI@Z PROC	; Ogre::D3DTech_cloth_shadowgen::beginPass, COMDAT
; _this$ = ecx

; 187  : 		{

	push	ebp
	mov	ebp, esp
	push	ecx
	mov	DWORD PTR _this$[ebp], ecx

; 188  : 			m_CurPass = ipass;

	mov	eax, DWORD PTR _this$[ebp]
	mov	ecx, DWORD PTR _ipass$[ebp]
	mov	DWORD PTR [eax+192], ecx

; 189  : 
; 190  : 			m_pDevice->SetRenderState(D3DRS_COLORWRITEENABLE, 0);

	push	0
	push	168					; 000000a8H
	mov	edx, DWORD PTR ?m_pDevice@D3DTech@Ogre@@2PAUIDirect3DDevice9@@A ; Ogre::D3DTech::m_pDevice
	mov	eax, DWORD PTR [edx]
	mov	ecx, DWORD PTR ?m_pDevice@D3DTech@Ogre@@2PAUIDirect3DDevice9@@A ; Ogre::D3DTech::m_pDevice
	push	ecx
	mov	edx, DWORD PTR [eax+228]
	call	edx

; 191  : 			m_pDevice->SetRenderState(D3DRS_ZENABLE, TRUE);

	push	1
	push	7
	mov	eax, DWORD PTR ?m_pDevice@D3DTech@Ogre@@2PAUIDirect3DDevice9@@A ; Ogre::D3DTech::m_pDevice
	mov	ecx, DWORD PTR [eax]
	mov	edx, DWORD PTR ?m_pDevice@D3DTech@Ogre@@2PAUIDirect3DDevice9@@A ; Ogre::D3DTech::m_pDevice
	push	edx
	mov	eax, DWORD PTR [ecx+228]
	call	eax

; 192  : 			m_pDevice->SetRenderState(D3DRS_ZWRITEENABLE, TRUE);

	push	1
	push	14					; 0000000eH
	mov	ecx, DWORD PTR ?m_pDevice@D3DTech@Ogre@@2PAUIDirect3DDevice9@@A ; Ogre::D3DTech::m_pDevice
	mov	edx, DWORD PTR [ecx]
	mov	eax, DWORD PTR ?m_pDevice@D3DTech@Ogre@@2PAUIDirect3DDevice9@@A ; Ogre::D3DTech::m_pDevice
	push	eax
	mov	ecx, DWORD PTR [edx+228]
	call	ecx

; 193  : 			SetBlendState(m_pDevice, BLEND_ALPHATEST);

	push	-1
	push	1
	mov	edx, DWORD PTR ?m_pDevice@D3DTech@Ogre@@2PAUIDirect3DDevice9@@A ; Ogre::D3DTech::m_pDevice
	push	edx
	call	?SetBlendState@Ogre@@YAXPAUIDirect3DDevice9@@HH@Z ; Ogre::SetBlendState
	add	esp, 12					; 0000000cH

; 194  : 			m_pDevice->SetRenderState(D3DRS_CULLMODE, m_DoubleSide?D3DCULL_NONE:D3DCULL_CCW);

	mov	eax, DWORD PTR _this$[ebp]
	movzx	ecx, BYTE PTR [eax+392]
	neg	ecx
	sbb	ecx, ecx
	and	ecx, -2					; fffffffeH
	add	ecx, 3
	push	ecx
	push	22					; 00000016H
	mov	edx, DWORD PTR ?m_pDevice@D3DTech@Ogre@@2PAUIDirect3DDevice9@@A ; Ogre::D3DTech::m_pDevice
	mov	eax, DWORD PTR [edx]
	mov	ecx, DWORD PTR ?m_pDevice@D3DTech@Ogre@@2PAUIDirect3DDevice9@@A ; Ogre::D3DTech::m_pDevice
	push	ecx
	mov	edx, DWORD PTR [eax+228]
	call	edx

; 195  : 
; 196  : 			/*
; 197  : 			uint bias;
; 198  : 			*(float *)&bias = 0.0005f;
; 199  : 			m_pDevice->SetRenderState(D3DRS_DEPTHBIAS, bias);
; 200  : 			*/
; 201  : 
; 202  : 			SamplerState_Wrap(m_pDevice, 0);

	push	0
	mov	eax, DWORD PTR ?m_pDevice@D3DTech@Ogre@@2PAUIDirect3DDevice9@@A ; Ogre::D3DTech::m_pDevice
	push	eax
	call	?SamplerState_Wrap@Ogre@@YAXPAUIDirect3DDevice9@@H@Z ; Ogre::SamplerState_Wrap
	add	esp, 8

; 203  : 
; 204  : 			applyVSPS(m_CurPass);

	mov	ecx, DWORD PTR _this$[ebp]
	mov	edx, DWORD PTR [ecx+192]
	push	edx
	mov	ecx, DWORD PTR _this$[ebp]
	call	?applyVSPS@D3DTech@Ogre@@IAEXI@Z	; Ogre::D3DTech::applyVSPS

; 205  : 		}

	mov	esp, ebp
	pop	ebp
	ret	4
?beginPass@D3DTech_cloth_shadowgen@Ogre@@UAEXI@Z ENDP	; Ogre::D3DTech_cloth_shadowgen::beginPass
; Function compile flags: /Odtp
_TEXT	ENDS
;	COMDAT ?endPass@D3DTech_cloth_shadowgen@Ogre@@UAEXXZ
_TEXT	SEGMENT
_this$ = -4						; size = 4
?endPass@D3DTech_cloth_shadowgen@Ogre@@UAEXXZ PROC	; Ogre::D3DTech_cloth_shadowgen::endPass, COMDAT
; _this$ = ecx

; 208  : 		{

	push	ebp
	mov	ebp, esp
	push	ecx
	mov	DWORD PTR _this$[ebp], ecx

; 209  : 			m_pDevice->SetRenderState(D3DRS_COLORWRITEENABLE, 0xf);

	push	15					; 0000000fH
	push	168					; 000000a8H
	mov	eax, DWORD PTR ?m_pDevice@D3DTech@Ogre@@2PAUIDirect3DDevice9@@A ; Ogre::D3DTech::m_pDevice
	mov	ecx, DWORD PTR [eax]
	mov	edx, DWORD PTR ?m_pDevice@D3DTech@Ogre@@2PAUIDirect3DDevice9@@A ; Ogre::D3DTech::m_pDevice
	push	edx
	mov	eax, DWORD PTR [ecx+228]
	call	eax

; 210  : 		}

	mov	esp, ebp
	pop	ebp
	ret	0
?endPass@D3DTech_cloth_shadowgen@Ogre@@UAEXXZ ENDP	; Ogre::D3DTech_cloth_shadowgen::endPass
_TEXT	ENDS
PUBLIC	??1D3DTech_cloth_shadowgen@Ogre@@UAE@XZ		; Ogre::D3DTech_cloth_shadowgen::~D3DTech_cloth_shadowgen
; Function compile flags: /Odtp
;	COMDAT ??_GD3DTech_cloth_shadowgen@Ogre@@UAEPAXI@Z
_TEXT	SEGMENT
_this$ = -4						; size = 4
___flags$ = 8						; size = 4
??_GD3DTech_cloth_shadowgen@Ogre@@UAEPAXI@Z PROC	; Ogre::D3DTech_cloth_shadowgen::`scalar deleting destructor', COMDAT
; _this$ = ecx
	push	ebp
	mov	ebp, esp
	push	ecx
	mov	DWORD PTR _this$[ebp], ecx
	mov	ecx, DWORD PTR _this$[ebp]
	call	??1D3DTech_cloth_shadowgen@Ogre@@UAE@XZ
	mov	eax, DWORD PTR ___flags$[ebp]
	and	eax, 1
	je	SHORT $LN1@scalar@14
	mov	ecx, DWORD PTR _this$[ebp]
	push	ecx
	call	??3@YAXPAX@Z				; operator delete
	add	esp, 4
$LN1@scalar@14:
	mov	eax, DWORD PTR _this$[ebp]
	mov	esp, ebp
	pop	ebp
	ret	4
??_GD3DTech_cloth_shadowgen@Ogre@@UAEPAXI@Z ENDP	; Ogre::D3DTech_cloth_shadowgen::`scalar deleting destructor'
_TEXT	ENDS
;	COMDAT xdata$x
xdata$x	SEGMENT
__unwindtable$??1D3DTech_cloth_shadowgen@Ogre@@UAE@XZ DD 0ffffffffH
	DD	FLAT:__unwindfunclet$??1D3DTech_cloth_shadowgen@Ogre@@UAE@XZ$0
__ehfuncinfo$??1D3DTech_cloth_shadowgen@Ogre@@UAE@XZ DD 019930522H
	DD	01H
	DD	FLAT:__unwindtable$??1D3DTech_cloth_shadowgen@Ogre@@UAE@XZ
	DD	2 DUP(00H)
	DD	2 DUP(00H)
	DD	00H
	DD	00H
; Function compile flags: /Odtp
xdata$x	ENDS
;	COMDAT ??1D3DTech_cloth_shadowgen@Ogre@@UAE@XZ
_TEXT	SEGMENT
_this$ = -16						; size = 4
__$EHRec$ = -12						; size = 12
??1D3DTech_cloth_shadowgen@Ogre@@UAE@XZ PROC		; Ogre::D3DTech_cloth_shadowgen::~D3DTech_cloth_shadowgen, COMDAT
; _this$ = ecx
	push	ebp
	mov	ebp, esp
	push	-1
	push	__ehhandler$??1D3DTech_cloth_shadowgen@Ogre@@UAE@XZ
	mov	eax, DWORD PTR fs:0
	push	eax
	push	ecx
	mov	eax, DWORD PTR ___security_cookie
	xor	eax, ebp
	push	eax
	lea	eax, DWORD PTR __$EHRec$[ebp]
	mov	DWORD PTR fs:0, eax
	mov	DWORD PTR _this$[ebp], ecx
	mov	DWORD PTR __$EHRec$[ebp+8], 0
	mov	DWORD PTR __$EHRec$[ebp+8], -1
	mov	ecx, DWORD PTR _this$[ebp]
	call	??1D3DTech@Ogre@@UAE@XZ
	mov	ecx, DWORD PTR __$EHRec$[ebp]
	mov	DWORD PTR fs:0, ecx
	pop	ecx
	mov	esp, ebp
	pop	ebp
	ret	0
_TEXT	ENDS
;	COMDAT text$x
text$x	SEGMENT
__unwindfunclet$??1D3DTech_cloth_shadowgen@Ogre@@UAE@XZ$0:
	mov	ecx, DWORD PTR _this$[ebp]
	jmp	??1D3DTech@Ogre@@UAE@XZ
__ehhandler$??1D3DTech_cloth_shadowgen@Ogre@@UAE@XZ:
	mov	edx, DWORD PTR [esp+8]
	lea	eax, DWORD PTR [edx+12]
	mov	ecx, DWORD PTR [edx-8]
	xor	ecx, eax
	call	@__security_check_cookie@4
	mov	eax, OFFSET __ehfuncinfo$??1D3DTech_cloth_shadowgen@Ogre@@UAE@XZ
	jmp	___CxxFrameHandler3
text$x	ENDS
??1D3DTech_cloth_shadowgen@Ogre@@UAE@XZ ENDP		; Ogre::D3DTech_cloth_shadowgen::~D3DTech_cloth_shadowgen
PUBLIC	??_7D3DTech_stdmtl_lod0@Ogre@@6B@		; Ogre::D3DTech_stdmtl_lod0::`vftable'
PUBLIC	??_R4D3DTech_stdmtl_lod0@Ogre@@6B@		; Ogre::D3DTech_stdmtl_lod0::`RTTI Complete Object Locator'
PUBLIC	??_R0?AVD3DTech_stdmtl_lod0@Ogre@@@8		; Ogre::D3DTech_stdmtl_lod0 `RTTI Type Descriptor'
PUBLIC	??_R3D3DTech_stdmtl_lod0@Ogre@@8		; Ogre::D3DTech_stdmtl_lod0::`RTTI Class Hierarchy Descriptor'
PUBLIC	??_R2D3DTech_stdmtl_lod0@Ogre@@8		; Ogre::D3DTech_stdmtl_lod0::`RTTI Base Class Array'
PUBLIC	??_R1A@?0A@EA@D3DTech_stdmtl_lod0@Ogre@@8	; Ogre::D3DTech_stdmtl_lod0::`RTTI Base Class Descriptor at (0,-1,0,64)'
PUBLIC	?beginPass@D3DTech_stdmtl_lod0@Ogre@@UAEXI@Z	; Ogre::D3DTech_stdmtl_lod0::beginPass
PUBLIC	?endPass@D3DTech_stdmtl_lod0@Ogre@@UAEXXZ	; Ogre::D3DTech_stdmtl_lod0::endPass
PUBLIC	?clone@D3DTech_stdmtl_lod0@Ogre@@UAEPAVD3DTech@2@XZ ; Ogre::D3DTech_stdmtl_lod0::clone
PUBLIC	?init@D3DTech_stdmtl_lod0@Ogre@@UAEXABUShaderEnvFlags@2@ABUMaterialMacro@2@@Z ; Ogre::D3DTech_stdmtl_lod0::init
EXTRN	??_ED3DTech_stdmtl_lod0@Ogre@@UAEPAXI@Z:PROC	; Ogre::D3DTech_stdmtl_lod0::`vector deleting destructor'
;	COMDAT ??_R1A@?0A@EA@D3DTech_stdmtl_lod0@Ogre@@8
rdata$r	SEGMENT
??_R1A@?0A@EA@D3DTech_stdmtl_lod0@Ogre@@8 DD FLAT:??_R0?AVD3DTech_stdmtl_lod0@Ogre@@@8 ; Ogre::D3DTech_stdmtl_lod0::`RTTI Base Class Descriptor at (0,-1,0,64)'
	DD	02H
	DD	00H
	DD	0ffffffffH
	DD	00H
	DD	040H
	DD	FLAT:??_R3D3DTech_stdmtl_lod0@Ogre@@8
rdata$r	ENDS
;	COMDAT ??_R2D3DTech_stdmtl_lod0@Ogre@@8
rdata$r	SEGMENT
??_R2D3DTech_stdmtl_lod0@Ogre@@8 DD FLAT:??_R1A@?0A@EA@D3DTech_stdmtl_lod0@Ogre@@8 ; Ogre::D3DTech_stdmtl_lod0::`RTTI Base Class Array'
	DD	FLAT:??_R1A@?0A@EA@D3DTech@Ogre@@8
	DD	FLAT:??_R1A@?0A@EA@ShaderTechnique@Ogre@@8
rdata$r	ENDS
;	COMDAT ??_R3D3DTech_stdmtl_lod0@Ogre@@8
rdata$r	SEGMENT
??_R3D3DTech_stdmtl_lod0@Ogre@@8 DD 00H			; Ogre::D3DTech_stdmtl_lod0::`RTTI Class Hierarchy Descriptor'
	DD	00H
	DD	03H
	DD	FLAT:??_R2D3DTech_stdmtl_lod0@Ogre@@8
rdata$r	ENDS
;	COMDAT ??_R0?AVD3DTech_stdmtl_lod0@Ogre@@@8
_DATA	SEGMENT
??_R0?AVD3DTech_stdmtl_lod0@Ogre@@@8 DD FLAT:??_7type_info@@6B@ ; Ogre::D3DTech_stdmtl_lod0 `RTTI Type Descriptor'
	DD	00H
	DB	'.?AVD3DTech_stdmtl_lod0@Ogre@@', 00H
_DATA	ENDS
;	COMDAT ??_R4D3DTech_stdmtl_lod0@Ogre@@6B@
rdata$r	SEGMENT
??_R4D3DTech_stdmtl_lod0@Ogre@@6B@ DD 00H		; Ogre::D3DTech_stdmtl_lod0::`RTTI Complete Object Locator'
	DD	00H
	DD	00H
	DD	FLAT:??_R0?AVD3DTech_stdmtl_lod0@Ogre@@@8
	DD	FLAT:??_R3D3DTech_stdmtl_lod0@Ogre@@8
rdata$r	ENDS
;	COMDAT ??_7D3DTech_stdmtl_lod0@Ogre@@6B@
CONST	SEGMENT
??_7D3DTech_stdmtl_lod0@Ogre@@6B@ DD FLAT:??_R4D3DTech_stdmtl_lod0@Ogre@@6B@ ; Ogre::D3DTech_stdmtl_lod0::`vftable'
	DD	FLAT:?begin@D3DTech@Ogre@@UAEIXZ
	DD	FLAT:?end@D3DTech@Ogre@@UAEXXZ
	DD	FLAT:?beginPass@D3DTech_stdmtl_lod0@Ogre@@UAEXI@Z
	DD	FLAT:?endPass@D3DTech_stdmtl_lod0@Ogre@@UAEXXZ
	DD	FLAT:?setConstant@D3DTech@Ogre@@UAEXW4ShaderParamUsage@2@PBXI@Z
	DD	FLAT:?setConstant@D3DTech@Ogre@@UAEXPBDPBXI@Z
	DD	FLAT:?setTexture@D3DTech@Ogre@@UAEXW4ShaderParamUsage@2@PAVHardwarePixelBuffer@2@@Z
	DD	FLAT:?setTexture@D3DTech@Ogre@@UAEXPBDPAVHardwarePixelBuffer@2@@Z
	DD	FLAT:?setStreamInput@D3DTech@Ogre@@UAEXIPAPAVHardwareVertexBuffer@2@HPAI@Z
	DD	FLAT:?setStreamInput@D3DTech@Ogre@@UAEXIPAVHardwareVertexBuffer@2@I@Z
	DD	FLAT:?setStreamInput@D3DTech@Ogre@@UAEXIPAPAVHardwareVertexBuffer@2@PAI@Z
	DD	FLAT:?commitChanges@D3DTech@Ogre@@UAEXXZ
	DD	FLAT:?draw@D3DTech@Ogre@@UAEXW4PrimitiveType@2@IIPAVHardwareIndexBuffer@2@II@Z
	DD	FLAT:?draw@D3DTech@Ogre@@UAEXW4PrimitiveType@2@II@Z
	DD	FLAT:?getRequiredParams@D3DTech@Ogre@@UAEIPAW4ShaderParamUsage@2@I@Z
	DD	FLAT:??_ED3DTech_stdmtl_lod0@Ogre@@UAEPAXI@Z
	DD	FLAT:?clone@D3DTech_stdmtl_lod0@Ogre@@UAEPAVD3DTech@2@XZ
	DD	FLAT:?init@D3DTech_stdmtl_lod0@Ogre@@UAEXABUShaderEnvFlags@2@ABUMaterialMacro@2@@Z
CONST	ENDS
;	COMDAT xdata$x
xdata$x	SEGMENT
__unwindtable$??0D3DTech_stdmtl_lod0@Ogre@@QAE@XZ DD 0ffffffffH
	DD	FLAT:__unwindfunclet$??0D3DTech_stdmtl_lod0@Ogre@@QAE@XZ$0
__ehfuncinfo$??0D3DTech_stdmtl_lod0@Ogre@@QAE@XZ DD 019930522H
	DD	01H
	DD	FLAT:__unwindtable$??0D3DTech_stdmtl_lod0@Ogre@@QAE@XZ
	DD	2 DUP(00H)
	DD	2 DUP(00H)
	DD	00H
	DD	00H
; Function compile flags: /Odtp
xdata$x	ENDS
;	COMDAT ??0D3DTech_stdmtl_lod0@Ogre@@QAE@XZ
_TEXT	SEGMENT
_this$ = -16						; size = 4
__$EHRec$ = -12						; size = 12
??0D3DTech_stdmtl_lod0@Ogre@@QAE@XZ PROC		; Ogre::D3DTech_stdmtl_lod0::D3DTech_stdmtl_lod0, COMDAT
; _this$ = ecx
	push	ebp
	mov	ebp, esp
	push	-1
	push	__ehhandler$??0D3DTech_stdmtl_lod0@Ogre@@QAE@XZ
	mov	eax, DWORD PTR fs:0
	push	eax
	push	ecx
	mov	eax, DWORD PTR ___security_cookie
	xor	eax, ebp
	push	eax
	lea	eax, DWORD PTR __$EHRec$[ebp]
	mov	DWORD PTR fs:0, eax
	mov	DWORD PTR _this$[ebp], ecx
	mov	ecx, DWORD PTR _this$[ebp]
	call	??0D3DTech@Ogre@@QAE@XZ			; Ogre::D3DTech::D3DTech
	mov	DWORD PTR __$EHRec$[ebp+8], 0
	mov	eax, DWORD PTR _this$[ebp]
	mov	DWORD PTR [eax], OFFSET ??_7D3DTech_stdmtl_lod0@Ogre@@6B@
	mov	DWORD PTR __$EHRec$[ebp+8], -1
	mov	eax, DWORD PTR _this$[ebp]
	mov	ecx, DWORD PTR __$EHRec$[ebp]
	mov	DWORD PTR fs:0, ecx
	pop	ecx
	mov	esp, ebp
	pop	ebp
	ret	0
_TEXT	ENDS
;	COMDAT text$x
text$x	SEGMENT
__unwindfunclet$??0D3DTech_stdmtl_lod0@Ogre@@QAE@XZ$0:
	mov	ecx, DWORD PTR _this$[ebp]
	jmp	??1D3DTech@Ogre@@UAE@XZ
__ehhandler$??0D3DTech_stdmtl_lod0@Ogre@@QAE@XZ:
	mov	edx, DWORD PTR [esp+8]
	lea	eax, DWORD PTR [edx+12]
	mov	ecx, DWORD PTR [edx-8]
	xor	ecx, eax
	call	@__security_check_cookie@4
	mov	eax, OFFSET __ehfuncinfo$??0D3DTech_stdmtl_lod0@Ogre@@QAE@XZ
	jmp	___CxxFrameHandler3
text$x	ENDS
??0D3DTech_stdmtl_lod0@Ogre@@QAE@XZ ENDP		; Ogre::D3DTech_stdmtl_lod0::D3DTech_stdmtl_lod0
;	COMDAT xdata$x
; File i:\svnroot\client\plugins\rendersystem_d3d9\ogred3d9tech_stdmtl.h
xdata$x	SEGMENT
__unwindtable$?clone@D3DTech_stdmtl_lod0@Ogre@@UAEPAVD3DTech@2@XZ DD 0ffffffffH
	DD	FLAT:__unwindfunclet$?clone@D3DTech_stdmtl_lod0@Ogre@@UAEPAVD3DTech@2@XZ$0
__ehfuncinfo$?clone@D3DTech_stdmtl_lod0@Ogre@@UAEPAVD3DTech@2@XZ DD 019930522H
	DD	01H
	DD	FLAT:__unwindtable$?clone@D3DTech_stdmtl_lod0@Ogre@@UAEPAVD3DTech@2@XZ
	DD	2 DUP(00H)
	DD	2 DUP(00H)
	DD	00H
	DD	00H
; Function compile flags: /Odtp
xdata$x	ENDS
;	COMDAT ?clone@D3DTech_stdmtl_lod0@Ogre@@UAEPAVD3DTech@2@XZ
_TEXT	SEGMENT
tv74 = -28						; size = 4
_this$ = -24						; size = 4
$T140033 = -20						; size = 4
$T140032 = -16						; size = 4
__$EHRec$ = -12						; size = 12
?clone@D3DTech_stdmtl_lod0@Ogre@@UAEPAVD3DTech@2@XZ PROC ; Ogre::D3DTech_stdmtl_lod0::clone, COMDAT
; _this$ = ecx

; 27   : 		{

	push	ebp
	mov	ebp, esp
	push	-1
	push	__ehhandler$?clone@D3DTech_stdmtl_lod0@Ogre@@UAEPAVD3DTech@2@XZ
	mov	eax, DWORD PTR fs:0
	push	eax
	sub	esp, 16					; 00000010H
	mov	eax, DWORD PTR ___security_cookie
	xor	eax, ebp
	push	eax
	lea	eax, DWORD PTR __$EHRec$[ebp]
	mov	DWORD PTR fs:0, eax
	mov	DWORD PTR _this$[ebp], ecx

; 28   : 			return new D3DTech_stdmtl_lod0;

	push	396					; 0000018cH
	call	??2@YAPAXI@Z				; operator new
	add	esp, 4
	mov	DWORD PTR $T140033[ebp], eax
	mov	DWORD PTR __$EHRec$[ebp+8], 0
	cmp	DWORD PTR $T140033[ebp], 0
	je	SHORT $LN3@clone@14
	mov	ecx, DWORD PTR $T140033[ebp]
	call	??0D3DTech_stdmtl_lod0@Ogre@@QAE@XZ
	mov	DWORD PTR tv74[ebp], eax
	jmp	SHORT $LN4@clone@14
$LN3@clone@14:
	mov	DWORD PTR tv74[ebp], 0
$LN4@clone@14:
	mov	eax, DWORD PTR tv74[ebp]
	mov	DWORD PTR $T140032[ebp], eax
	mov	DWORD PTR __$EHRec$[ebp+8], -1
	mov	eax, DWORD PTR $T140032[ebp]

; 29   : 		}

	mov	ecx, DWORD PTR __$EHRec$[ebp]
	mov	DWORD PTR fs:0, ecx
	pop	ecx
	mov	esp, ebp
	pop	ebp
	ret	0
_TEXT	ENDS
;	COMDAT text$x
text$x	SEGMENT
__unwindfunclet$?clone@D3DTech_stdmtl_lod0@Ogre@@UAEPAVD3DTech@2@XZ$0:
	mov	eax, DWORD PTR $T140033[ebp]
	push	eax
	call	??3@YAXPAX@Z				; operator delete
	pop	ecx
	ret	0
__ehhandler$?clone@D3DTech_stdmtl_lod0@Ogre@@UAEPAVD3DTech@2@XZ:
	mov	edx, DWORD PTR [esp+8]
	lea	eax, DWORD PTR [edx+12]
	mov	ecx, DWORD PTR [edx-20]
	xor	ecx, eax
	call	@__security_check_cookie@4
	mov	eax, OFFSET __ehfuncinfo$?clone@D3DTech_stdmtl_lod0@Ogre@@UAEPAVD3DTech@2@XZ
	jmp	___CxxFrameHandler3
text$x	ENDS
?clone@D3DTech_stdmtl_lod0@Ogre@@UAEPAVD3DTech@2@XZ ENDP ; Ogre::D3DTech_stdmtl_lod0::clone
; Function compile flags: /Odtp
;	COMDAT ?init@D3DTech_stdmtl_lod0@Ogre@@UAEXABUShaderEnvFlags@2@ABUMaterialMacro@2@@Z
_TEXT	SEGMENT
_this$ = -12						; size = 4
_indx$133151 = -8					; size = 4
_i$133147 = -4						; size = 4
_env$ = 8						; size = 4
_macros$ = 12						; size = 4
?init@D3DTech_stdmtl_lod0@Ogre@@UAEXABUShaderEnvFlags@2@ABUMaterialMacro@2@@Z PROC ; Ogre::D3DTech_stdmtl_lod0::init, COMDAT
; _this$ = ecx

; 32   : 		{

	push	ebp
	mov	ebp, esp
	sub	esp, 12					; 0000000cH
	push	esi
	push	edi
	mov	DWORD PTR _this$[ebp], ecx

; 33   : 			m_BlendMode = m_DoubleSide = m_UseSelfIllumTex = 0;

	mov	eax, DWORD PTR _this$[ebp]
	mov	BYTE PTR [eax+394], 0
	mov	ecx, DWORD PTR _this$[ebp]
	mov	BYTE PTR [ecx+393], 0
	mov	edx, DWORD PTR _this$[ebp]
	mov	BYTE PTR [edx+392], 0

; 34   : 
; 35   : 			for(int i=0; i<MaterialMacro::MAX_MACRO; i++)

	mov	DWORD PTR _i$133147[ebp], 0
	jmp	SHORT $LN17@init@8
$LN16@init@8:
	mov	eax, DWORD PTR _i$133147[ebp]
	add	eax, 1
	mov	DWORD PTR _i$133147[ebp], eax
$LN17@init@8:
	cmp	DWORD PTR _i$133147[ebp], 4
	jge	SHORT $LN15@init@8

; 36   : 			{
; 37   : 				int indx = macros.indices[i];

	mov	ecx, DWORD PTR _macros$[ebp]
	add	ecx, DWORD PTR _i$133147[ebp]
	movzx	edx, BYTE PTR [ecx]
	mov	DWORD PTR _indx$133151[ebp], edx

; 38   : 				if(indx == 0) break;

	cmp	DWORD PTR _indx$133151[ebp], 0
	jne	SHORT $LN14@init@8
	jmp	SHORT $LN15@init@8
$LN14@init@8:

; 39   : 
; 40   : 				if(indx == MTLPARAM_BLEND_MODE) m_BlendMode = macros.value[i];

	cmp	DWORD PTR _indx$133151[ebp], 1
	jne	SHORT $LN13@init@8
	mov	eax, DWORD PTR _macros$[ebp]
	add	eax, DWORD PTR _i$133147[ebp]
	mov	ecx, DWORD PTR _this$[ebp]
	mov	dl, BYTE PTR [eax+4]
	mov	BYTE PTR [ecx+392], dl
	jmp	SHORT $LN12@init@8
$LN13@init@8:

; 41   : 				else if(indx == MTLPARAM_DOUBLE_SIDE) m_DoubleSide = macros.value[i];

	cmp	DWORD PTR _indx$133151[ebp], 2
	jne	SHORT $LN11@init@8
	mov	eax, DWORD PTR _macros$[ebp]
	add	eax, DWORD PTR _i$133147[ebp]
	mov	ecx, DWORD PTR _this$[ebp]
	mov	dl, BYTE PTR [eax+4]
	mov	BYTE PTR [ecx+393], dl
	jmp	SHORT $LN12@init@8
$LN11@init@8:

; 42   : 				else if(indx == MTLPARAM_USE_SELFILLUM_TEX) m_UseSelfIllumTex = macros.value[i];

	cmp	DWORD PTR _indx$133151[ebp], 3
	jne	SHORT $LN9@init@8
	mov	eax, DWORD PTR _macros$[ebp]
	add	eax, DWORD PTR _i$133147[ebp]
	mov	ecx, DWORD PTR _this$[ebp]
	mov	dl, BYTE PTR [eax+4]
	mov	BYTE PTR [ecx+394], dl
	jmp	SHORT $LN12@init@8
$LN9@init@8:

; 43   : 				else if(indx == MTLPARAM_USE_MASK) m_UseMask = macros.value[i];

	cmp	DWORD PTR _indx$133151[ebp], 4
	jne	SHORT $LN12@init@8
	mov	eax, DWORD PTR _macros$[ebp]
	add	eax, DWORD PTR _i$133147[ebp]
	mov	ecx, DWORD PTR _this$[ebp]
	mov	dl, BYTE PTR [eax+4]
	mov	BYTE PTR [ecx+395], dl
$LN12@init@8:

; 44   : 			}

	jmp	$LN16@init@8
$LN15@init@8:

; 45   : 
; 46   : 			m_nPass = 1;

	mov	eax, DWORD PTR _this$[ebp]
	mov	DWORD PTR [eax+188], 1

; 47   : 			if(env.model_xparent)

	mov	ecx, DWORD PTR _env$[ebp]
	mov	edx, DWORD PTR [ecx]
	shr	edx, 23					; 00000017H
	and	edx, 1
	je	SHORT $LN6@init@8

; 48   : 			{
; 49   : 				if(m_BlendMode <= 1)

	mov	eax, DWORD PTR _this$[ebp]
	movzx	ecx, BYTE PTR [eax+392]
	cmp	ecx, 1
	jg	SHORT $LN6@init@8

; 50   : 				{
; 51   : 					m_BlendMode = 2;

	mov	edx, DWORD PTR _this$[ebp]
	mov	BYTE PTR [edx+392], 2

; 52   : 					m_nPass = 2;

	mov	eax, DWORD PTR _this$[ebp]
	mov	DWORD PTR [eax+188], 2
$LN6@init@8:

; 53   : 				}
; 54   : 			}
; 55   : 
; 56   : 			m_AllPass[0].vs = m_pMtlTemplate->getCompiledVSPS(COMPILED_VS, "Main", env, macros);

	mov	ecx, DWORD PTR _macros$[ebp]
	push	ecx
	mov	edx, DWORD PTR _env$[ebp]
	push	edx
	push	OFFSET ??_C@_04KGFMLCPK@Main?$AA@
	push	1
	mov	eax, DWORD PTR _this$[ebp]
	mov	ecx, DWORD PTR [eax+8]
	call	?getCompiledVSPS@D3DMaterialTemplate@Ogre@@QAEPAVCompiledShader@2@W4COMPILED_TYPE@2@PBDABUShaderEnvFlags@2@ABUMaterialMacro@2@@Z ; Ogre::D3DMaterialTemplate::getCompiledVSPS
	mov	ecx, DWORD PTR _this$[ebp]
	mov	DWORD PTR [ecx+12], eax

; 57   : 			m_AllPass[0].ps = m_pMtlTemplate->getCompiledVSPS(COMPILED_PS, "Main", env, macros);

	mov	edx, DWORD PTR _macros$[ebp]
	push	edx
	mov	eax, DWORD PTR _env$[ebp]
	push	eax
	push	OFFSET ??_C@_04KGFMLCPK@Main?$AA@
	push	2
	mov	ecx, DWORD PTR _this$[ebp]
	mov	ecx, DWORD PTR [ecx+8]
	call	?getCompiledVSPS@D3DMaterialTemplate@Ogre@@QAEPAVCompiledShader@2@W4COMPILED_TYPE@2@PBDABUShaderEnvFlags@2@ABUMaterialMacro@2@@Z ; Ogre::D3DMaterialTemplate::getCompiledVSPS
	mov	edx, DWORD PTR _this$[ebp]
	mov	DWORD PTR [edx+16], eax

; 58   : 
; 59   : 			m_AllPass[0].texstage[0] = SPU_GENERAL_PARAM + 4;

	mov	eax, DWORD PTR _this$[ebp]
	mov	DWORD PTR [eax+24], 1004		; 000003ecH

; 60   : 			m_AllPass[0].texstage[1] = SPU_DEPTHMAP;

	mov	ecx, DWORD PTR _this$[ebp]
	mov	DWORD PTR [ecx+28], 18			; 00000012H

; 61   : 			m_AllPass[0].ntex = 2;

	mov	edx, DWORD PTR _this$[ebp]
	mov	DWORD PTR [edx+20], 2

; 62   : 			if(m_UseSelfIllumTex==SELFILLUM_TEX || m_UseSelfIllumTex==SELFILLUM_ALL)

	mov	eax, DWORD PTR _this$[ebp]
	movzx	ecx, BYTE PTR [eax+394]
	cmp	ecx, 1
	je	SHORT $LN3@init@8
	mov	edx, DWORD PTR _this$[ebp]
	movzx	eax, BYTE PTR [edx+394]
	cmp	eax, 4
	jne	SHORT $LN4@init@8
$LN3@init@8:

; 63   : 			{
; 64   : 				m_AllPass[0].texstage[2] = SPU_GENERAL_PARAM + 5;

	mov	ecx, DWORD PTR _this$[ebp]
	mov	DWORD PTR [ecx+32], 1005		; 000003edH

; 65   : 				m_AllPass[0].ntex = 3;

	mov	edx, DWORD PTR _this$[ebp]
	mov	DWORD PTR [edx+20], 3
$LN4@init@8:

; 66   : 			}
; 67   : 
; 68   : 			if (m_UseMask)

	mov	eax, DWORD PTR _this$[ebp]
	movzx	ecx, BYTE PTR [eax+395]
	test	ecx, ecx
	je	SHORT $LN2@init@8

; 69   : 			{
; 70   : 				m_AllPass[0].texstage[3] = SPU_GENERAL_PARAM + 6;

	mov	edx, DWORD PTR _this$[ebp]
	mov	DWORD PTR [edx+36], 1006		; 000003eeH

; 71   : 				m_AllPass[0].ntex = 4;

	mov	eax, DWORD PTR _this$[ebp]
	mov	DWORD PTR [eax+20], 4
$LN2@init@8:

; 72   : 			}
; 73   : 
; 74   : 			if(m_nPass == 2)

	mov	ecx, DWORD PTR _this$[ebp]
	cmp	DWORD PTR [ecx+188], 2
	jne	SHORT $LN1@init@8

; 75   : 			{
; 76   : 				m_AllPass[1] = m_AllPass[0];

	mov	esi, DWORD PTR _this$[ebp]
	add	esi, 12					; 0000000cH
	mov	edi, DWORD PTR _this$[ebp]
	add	edi, 56					; 00000038H
	mov	ecx, 11					; 0000000bH
	rep movsd
$LN1@init@8:

; 77   : 			}
; 78   : 
; 79   : 			initParams();

	mov	ecx, DWORD PTR _this$[ebp]
	call	?initParams@D3DTech@Ogre@@IAEXXZ	; Ogre::D3DTech::initParams

; 80   : 			m_UsedMacroMask = m_BlendMode|(m_DoubleSide<<8)|(m_UseSelfIllumTex<<16);

	mov	edx, DWORD PTR _this$[ebp]
	movzx	eax, BYTE PTR [edx+392]
	mov	ecx, DWORD PTR _this$[ebp]
	movzx	edx, BYTE PTR [ecx+393]
	shl	edx, 8
	or	eax, edx
	mov	ecx, DWORD PTR _this$[ebp]
	movzx	edx, BYTE PTR [ecx+394]
	shl	edx, 16					; 00000010H
	or	eax, edx
	mov	ecx, DWORD PTR _this$[ebp]
	mov	DWORD PTR [ecx+4], eax

; 81   : 		}

	pop	edi
	pop	esi
	mov	esp, ebp
	pop	ebp
	ret	8
?init@D3DTech_stdmtl_lod0@Ogre@@UAEXABUShaderEnvFlags@2@ABUMaterialMacro@2@@Z ENDP ; Ogre::D3DTech_stdmtl_lod0::init
; Function compile flags: /Odtp
_TEXT	ENDS
;	COMDAT ?beginPass@D3DTech_stdmtl_lod0@Ogre@@UAEXI@Z
_TEXT	SEGMENT
_this$ = -4						; size = 4
_ipass$ = 8						; size = 4
?beginPass@D3DTech_stdmtl_lod0@Ogre@@UAEXI@Z PROC	; Ogre::D3DTech_stdmtl_lod0::beginPass, COMDAT
; _this$ = ecx

; 84   : 		{

	push	ebp
	mov	ebp, esp
	push	ecx
	mov	DWORD PTR _this$[ebp], ecx

; 85   : 			m_CurPass = ipass;

	mov	eax, DWORD PTR _this$[ebp]
	mov	ecx, DWORD PTR _ipass$[ebp]
	mov	DWORD PTR [eax+192], ecx

; 86   : 
; 87   : 			m_pDevice->SetRenderState(D3DRS_ZENABLE, TRUE);

	push	1
	push	7
	mov	edx, DWORD PTR ?m_pDevice@D3DTech@Ogre@@2PAUIDirect3DDevice9@@A ; Ogre::D3DTech::m_pDevice
	mov	eax, DWORD PTR [edx]
	mov	ecx, DWORD PTR ?m_pDevice@D3DTech@Ogre@@2PAUIDirect3DDevice9@@A ; Ogre::D3DTech::m_pDevice
	push	ecx
	mov	edx, DWORD PTR [eax+228]
	call	edx

; 88   : 			m_pDevice->SetRenderState(D3DRS_CULLMODE, m_DoubleSide?D3DCULL_NONE:D3DCULL_CCW);

	mov	eax, DWORD PTR _this$[ebp]
	movzx	ecx, BYTE PTR [eax+393]
	neg	ecx
	sbb	ecx, ecx
	and	ecx, -2					; fffffffeH
	add	ecx, 3
	push	ecx
	push	22					; 00000016H
	mov	edx, DWORD PTR ?m_pDevice@D3DTech@Ogre@@2PAUIDirect3DDevice9@@A ; Ogre::D3DTech::m_pDevice
	mov	eax, DWORD PTR [edx]
	mov	ecx, DWORD PTR ?m_pDevice@D3DTech@Ogre@@2PAUIDirect3DDevice9@@A ; Ogre::D3DTech::m_pDevice
	push	ecx
	mov	edx, DWORD PTR [eax+228]
	call	edx

; 89   : 
; 90   : 			if(m_nPass>1 && ipass==0)

	mov	eax, DWORD PTR _this$[ebp]
	cmp	DWORD PTR [eax+188], 1
	jbe	SHORT $LN10@beginPass@5
	cmp	DWORD PTR _ipass$[ebp], 0
	jne	SHORT $LN10@beginPass@5

; 91   : 			{
; 92   : 				SetBlendState(m_pDevice, BLEND_ALPHATEST, 0);

	push	0
	push	1
	mov	ecx, DWORD PTR ?m_pDevice@D3DTech@Ogre@@2PAUIDirect3DDevice9@@A ; Ogre::D3DTech::m_pDevice
	push	ecx
	call	?SetBlendState@Ogre@@YAXPAUIDirect3DDevice9@@HH@Z ; Ogre::SetBlendState
	add	esp, 12					; 0000000cH

; 93   : 				m_pDevice->SetRenderState(D3DRS_ZWRITEENABLE, TRUE);

	push	1
	push	14					; 0000000eH
	mov	edx, DWORD PTR ?m_pDevice@D3DTech@Ogre@@2PAUIDirect3DDevice9@@A ; Ogre::D3DTech::m_pDevice
	mov	eax, DWORD PTR [edx]
	mov	ecx, DWORD PTR ?m_pDevice@D3DTech@Ogre@@2PAUIDirect3DDevice9@@A ; Ogre::D3DTech::m_pDevice
	push	ecx
	mov	edx, DWORD PTR [eax+228]
	call	edx

; 94   : 				m_pDevice->SetRenderState(D3DRS_COLORWRITEENABLE, 0);

	push	0
	push	168					; 000000a8H
	mov	eax, DWORD PTR ?m_pDevice@D3DTech@Ogre@@2PAUIDirect3DDevice9@@A ; Ogre::D3DTech::m_pDevice
	mov	ecx, DWORD PTR [eax]
	mov	edx, DWORD PTR ?m_pDevice@D3DTech@Ogre@@2PAUIDirect3DDevice9@@A ; Ogre::D3DTech::m_pDevice
	push	edx
	mov	eax, DWORD PTR [ecx+228]
	call	eax

; 95   : 			}
; 96   : 			else

	jmp	$LN9@beginPass@5
$LN10@beginPass@5:

; 97   : 			{
; 98   : 				if(m_BlendMode == BLEND_ALPHATEST)

	mov	ecx, DWORD PTR _this$[ebp]
	movzx	edx, BYTE PTR [ecx+392]
	cmp	edx, 1
	jne	SHORT $LN8@beginPass@5

; 99   : 				{
; 100  : 					if(m_UseSelfIllumTex==SELFILLUM_ALPHA || m_UseSelfIllumTex==SELFILLUM_ALL) SetBlendState(m_pDevice, BLEND_ALPHATEST, 0);

	mov	eax, DWORD PTR _this$[ebp]
	movzx	ecx, BYTE PTR [eax+394]
	cmp	ecx, 3
	je	SHORT $LN6@beginPass@5
	mov	edx, DWORD PTR _this$[ebp]
	movzx	eax, BYTE PTR [edx+394]
	cmp	eax, 4
	jne	SHORT $LN7@beginPass@5
$LN6@beginPass@5:
	push	0
	push	1
	mov	ecx, DWORD PTR ?m_pDevice@D3DTech@Ogre@@2PAUIDirect3DDevice9@@A ; Ogre::D3DTech::m_pDevice
	push	ecx
	call	?SetBlendState@Ogre@@YAXPAUIDirect3DDevice9@@HH@Z ; Ogre::SetBlendState
	add	esp, 12					; 0000000cH
	jmp	SHORT $LN5@beginPass@5
$LN7@beginPass@5:

; 101  : 					else SetBlendState(m_pDevice, m_BlendMode, 85);

	push	85					; 00000055H
	mov	edx, DWORD PTR _this$[ebp]
	movzx	eax, BYTE PTR [edx+392]
	push	eax
	mov	ecx, DWORD PTR ?m_pDevice@D3DTech@Ogre@@2PAUIDirect3DDevice9@@A ; Ogre::D3DTech::m_pDevice
	push	ecx
	call	?SetBlendState@Ogre@@YAXPAUIDirect3DDevice9@@HH@Z ; Ogre::SetBlendState
	add	esp, 12					; 0000000cH
$LN5@beginPass@5:
	jmp	SHORT $LN4@beginPass@5
$LN8@beginPass@5:

; 102  : 				}
; 103  : 				else SetBlendState(m_pDevice, m_BlendMode);

	push	-1
	mov	edx, DWORD PTR _this$[ebp]
	movzx	eax, BYTE PTR [edx+392]
	push	eax
	mov	ecx, DWORD PTR ?m_pDevice@D3DTech@Ogre@@2PAUIDirect3DDevice9@@A ; Ogre::D3DTech::m_pDevice
	push	ecx
	call	?SetBlendState@Ogre@@YAXPAUIDirect3DDevice9@@HH@Z ; Ogre::SetBlendState
	add	esp, 12					; 0000000cH
$LN4@beginPass@5:

; 104  : 
; 105  : 				//m_pDevice->SetRenderState(D3DRS_ZFUNC, m_nPass>1?D3DCMP_LESSEQUAL:D3DCMP_LESS);
; 106  : 				m_pDevice->SetRenderState(D3DRS_ZWRITEENABLE, m_BlendMode<=1?TRUE:FALSE);

	mov	edx, DWORD PTR _this$[ebp]
	movzx	eax, BYTE PTR [edx+392]
	xor	ecx, ecx
	cmp	eax, 1
	setle	cl
	push	ecx
	push	14					; 0000000eH
	mov	edx, DWORD PTR ?m_pDevice@D3DTech@Ogre@@2PAUIDirect3DDevice9@@A ; Ogre::D3DTech::m_pDevice
	mov	eax, DWORD PTR [edx]
	mov	ecx, DWORD PTR ?m_pDevice@D3DTech@Ogre@@2PAUIDirect3DDevice9@@A ; Ogre::D3DTech::m_pDevice
	push	ecx
	mov	edx, DWORD PTR [eax+228]
	call	edx
$LN9@beginPass@5:

; 107  : 			}
; 108  : 
; 109  : 			SamplerState_Wrap(m_pDevice, 0);

	push	0
	mov	eax, DWORD PTR ?m_pDevice@D3DTech@Ogre@@2PAUIDirect3DDevice9@@A ; Ogre::D3DTech::m_pDevice
	push	eax
	call	?SamplerState_Wrap@Ogre@@YAXPAUIDirect3DDevice9@@H@Z ; Ogre::SamplerState_Wrap
	add	esp, 8

; 110  : 			SamplerState_DMap(m_pDevice, 1);

	push	1
	mov	ecx, DWORD PTR ?m_pDevice@D3DTech@Ogre@@2PAUIDirect3DDevice9@@A ; Ogre::D3DTech::m_pDevice
	push	ecx
	call	?SamplerState_DMap@Ogre@@YAXPAUIDirect3DDevice9@@H@Z ; Ogre::SamplerState_DMap
	add	esp, 8

; 111  : 			if(m_UseSelfIllumTex==SELFILLUM_TEX || m_UseSelfIllumTex==SELFILLUM_ALL)

	mov	edx, DWORD PTR _this$[ebp]
	movzx	eax, BYTE PTR [edx+394]
	cmp	eax, 1
	je	SHORT $LN2@beginPass@5
	mov	ecx, DWORD PTR _this$[ebp]
	movzx	edx, BYTE PTR [ecx+394]
	cmp	edx, 4
	jne	SHORT $LN3@beginPass@5
$LN2@beginPass@5:

; 112  : 			{
; 113  : 				SamplerState_Wrap(m_pDevice, 2);

	push	2
	mov	eax, DWORD PTR ?m_pDevice@D3DTech@Ogre@@2PAUIDirect3DDevice9@@A ; Ogre::D3DTech::m_pDevice
	push	eax
	call	?SamplerState_Wrap@Ogre@@YAXPAUIDirect3DDevice9@@H@Z ; Ogre::SamplerState_Wrap
	add	esp, 8
$LN3@beginPass@5:

; 114  : 			}
; 115  : 
; 116  : 			if (m_UseMask)

	mov	ecx, DWORD PTR _this$[ebp]
	movzx	edx, BYTE PTR [ecx+395]
	test	edx, edx
	je	SHORT $LN1@beginPass@5

; 117  : 			{
; 118  : 				SamplerState_Wrap(m_pDevice, 3);

	push	3
	mov	eax, DWORD PTR ?m_pDevice@D3DTech@Ogre@@2PAUIDirect3DDevice9@@A ; Ogre::D3DTech::m_pDevice
	push	eax
	call	?SamplerState_Wrap@Ogre@@YAXPAUIDirect3DDevice9@@H@Z ; Ogre::SamplerState_Wrap
	add	esp, 8
$LN1@beginPass@5:

; 119  : 			}
; 120  : 
; 121  : 			applyVSPS(m_CurPass);

	mov	ecx, DWORD PTR _this$[ebp]
	mov	edx, DWORD PTR [ecx+192]
	push	edx
	mov	ecx, DWORD PTR _this$[ebp]
	call	?applyVSPS@D3DTech@Ogre@@IAEXI@Z	; Ogre::D3DTech::applyVSPS

; 122  : 		}

	mov	esp, ebp
	pop	ebp
	ret	4
?beginPass@D3DTech_stdmtl_lod0@Ogre@@UAEXI@Z ENDP	; Ogre::D3DTech_stdmtl_lod0::beginPass
; Function compile flags: /Odtp
_TEXT	ENDS
;	COMDAT ?endPass@D3DTech_stdmtl_lod0@Ogre@@UAEXXZ
_TEXT	SEGMENT
_this$ = -4						; size = 4
?endPass@D3DTech_stdmtl_lod0@Ogre@@UAEXXZ PROC		; Ogre::D3DTech_stdmtl_lod0::endPass, COMDAT
; _this$ = ecx

; 124  : 		{

	push	ebp
	mov	ebp, esp
	push	ecx
	mov	DWORD PTR _this$[ebp], ecx

; 125  : 			m_pDevice->SetRenderState(D3DRS_COLORWRITEENABLE, 0xf);

	push	15					; 0000000fH
	push	168					; 000000a8H
	mov	eax, DWORD PTR ?m_pDevice@D3DTech@Ogre@@2PAUIDirect3DDevice9@@A ; Ogre::D3DTech::m_pDevice
	mov	ecx, DWORD PTR [eax]
	mov	edx, DWORD PTR ?m_pDevice@D3DTech@Ogre@@2PAUIDirect3DDevice9@@A ; Ogre::D3DTech::m_pDevice
	push	edx
	mov	eax, DWORD PTR [ecx+228]
	call	eax

; 126  : 			m_pDevice->SetRenderState(D3DRS_ZWRITEENABLE, TRUE);

	push	1
	push	14					; 0000000eH
	mov	ecx, DWORD PTR ?m_pDevice@D3DTech@Ogre@@2PAUIDirect3DDevice9@@A ; Ogre::D3DTech::m_pDevice
	mov	edx, DWORD PTR [ecx]
	mov	eax, DWORD PTR ?m_pDevice@D3DTech@Ogre@@2PAUIDirect3DDevice9@@A ; Ogre::D3DTech::m_pDevice
	push	eax
	mov	ecx, DWORD PTR [edx+228]
	call	ecx

; 127  : 
; 128  : 			m_pDevice->SetTexture(1, 0); // 

	push	0
	push	1
	mov	edx, DWORD PTR ?m_pDevice@D3DTech@Ogre@@2PAUIDirect3DDevice9@@A ; Ogre::D3DTech::m_pDevice
	mov	eax, DWORD PTR [edx]
	mov	ecx, DWORD PTR ?m_pDevice@D3DTech@Ogre@@2PAUIDirect3DDevice9@@A ; Ogre::D3DTech::m_pDevice
	push	ecx
	mov	edx, DWORD PTR [eax+260]
	call	edx

; 129  : 
; 130  : 			if (m_UseMask)

	mov	eax, DWORD PTR _this$[ebp]
	movzx	ecx, BYTE PTR [eax+395]
	test	ecx, ecx
	je	SHORT $LN2@endPass@2

; 131  : 			{
; 132  : 				m_pDevice->SetTexture(3, 0); // 

	push	0
	push	3
	mov	edx, DWORD PTR ?m_pDevice@D3DTech@Ogre@@2PAUIDirect3DDevice9@@A ; Ogre::D3DTech::m_pDevice
	mov	eax, DWORD PTR [edx]
	mov	ecx, DWORD PTR ?m_pDevice@D3DTech@Ogre@@2PAUIDirect3DDevice9@@A ; Ogre::D3DTech::m_pDevice
	push	ecx
	mov	edx, DWORD PTR [eax+260]
	call	edx
$LN2@endPass@2:

; 133  : 			}
; 134  : 
; 135  : 			//m_pDevice->SetRenderState(D3DRS_ZFUNC, D3DCMP_LESS);
; 136  : 		}

	mov	esp, ebp
	pop	ebp
	ret	0
?endPass@D3DTech_stdmtl_lod0@Ogre@@UAEXXZ ENDP		; Ogre::D3DTech_stdmtl_lod0::endPass
_TEXT	ENDS
PUBLIC	??1D3DTech_stdmtl_lod0@Ogre@@UAE@XZ		; Ogre::D3DTech_stdmtl_lod0::~D3DTech_stdmtl_lod0
; Function compile flags: /Odtp
;	COMDAT ??_GD3DTech_stdmtl_lod0@Ogre@@UAEPAXI@Z
_TEXT	SEGMENT
_this$ = -4						; size = 4
___flags$ = 8						; size = 4
??_GD3DTech_stdmtl_lod0@Ogre@@UAEPAXI@Z PROC		; Ogre::D3DTech_stdmtl_lod0::`scalar deleting destructor', COMDAT
; _this$ = ecx
	push	ebp
	mov	ebp, esp
	push	ecx
	mov	DWORD PTR _this$[ebp], ecx
	mov	ecx, DWORD PTR _this$[ebp]
	call	??1D3DTech_stdmtl_lod0@Ogre@@UAE@XZ
	mov	eax, DWORD PTR ___flags$[ebp]
	and	eax, 1
	je	SHORT $LN1@scalar@15
	mov	ecx, DWORD PTR _this$[ebp]
	push	ecx
	call	??3@YAXPAX@Z				; operator delete
	add	esp, 4
$LN1@scalar@15:
	mov	eax, DWORD PTR _this$[ebp]
	mov	esp, ebp
	pop	ebp
	ret	4
??_GD3DTech_stdmtl_lod0@Ogre@@UAEPAXI@Z ENDP		; Ogre::D3DTech_stdmtl_lod0::`scalar deleting destructor'
_TEXT	ENDS
;	COMDAT xdata$x
xdata$x	SEGMENT
__unwindtable$??1D3DTech_stdmtl_lod0@Ogre@@UAE@XZ DD 0ffffffffH
	DD	FLAT:__unwindfunclet$??1D3DTech_stdmtl_lod0@Ogre@@UAE@XZ$0
__ehfuncinfo$??1D3DTech_stdmtl_lod0@Ogre@@UAE@XZ DD 019930522H
	DD	01H
	DD	FLAT:__unwindtable$??1D3DTech_stdmtl_lod0@Ogre@@UAE@XZ
	DD	2 DUP(00H)
	DD	2 DUP(00H)
	DD	00H
	DD	00H
; Function compile flags: /Odtp
xdata$x	ENDS
;	COMDAT ??1D3DTech_stdmtl_lod0@Ogre@@UAE@XZ
_TEXT	SEGMENT
_this$ = -16						; size = 4
__$EHRec$ = -12						; size = 12
??1D3DTech_stdmtl_lod0@Ogre@@UAE@XZ PROC		; Ogre::D3DTech_stdmtl_lod0::~D3DTech_stdmtl_lod0, COMDAT
; _this$ = ecx
	push	ebp
	mov	ebp, esp
	push	-1
	push	__ehhandler$??1D3DTech_stdmtl_lod0@Ogre@@UAE@XZ
	mov	eax, DWORD PTR fs:0
	push	eax
	push	ecx
	mov	eax, DWORD PTR ___security_cookie
	xor	eax, ebp
	push	eax
	lea	eax, DWORD PTR __$EHRec$[ebp]
	mov	DWORD PTR fs:0, eax
	mov	DWORD PTR _this$[ebp], ecx
	mov	DWORD PTR __$EHRec$[ebp+8], 0
	mov	DWORD PTR __$EHRec$[ebp+8], -1
	mov	ecx, DWORD PTR _this$[ebp]
	call	??1D3DTech@Ogre@@UAE@XZ
	mov	ecx, DWORD PTR __$EHRec$[ebp]
	mov	DWORD PTR fs:0, ecx
	pop	ecx
	mov	esp, ebp
	pop	ebp
	ret	0
_TEXT	ENDS
;	COMDAT text$x
text$x	SEGMENT
__unwindfunclet$??1D3DTech_stdmtl_lod0@Ogre@@UAE@XZ$0:
	mov	ecx, DWORD PTR _this$[ebp]
	jmp	??1D3DTech@Ogre@@UAE@XZ
__ehhandler$??1D3DTech_stdmtl_lod0@Ogre@@UAE@XZ:
	mov	edx, DWORD PTR [esp+8]
	lea	eax, DWORD PTR [edx+12]
	mov	ecx, DWORD PTR [edx-8]
	xor	ecx, eax
	call	@__security_check_cookie@4
	mov	eax, OFFSET __ehfuncinfo$??1D3DTech_stdmtl_lod0@Ogre@@UAE@XZ
	jmp	___CxxFrameHandler3
text$x	ENDS
??1D3DTech_stdmtl_lod0@Ogre@@UAE@XZ ENDP		; Ogre::D3DTech_stdmtl_lod0::~D3DTech_stdmtl_lod0
PUBLIC	??_7D3DTech_stdmtl_shadowgen@Ogre@@6B@		; Ogre::D3DTech_stdmtl_shadowgen::`vftable'
PUBLIC	??_R4D3DTech_stdmtl_shadowgen@Ogre@@6B@		; Ogre::D3DTech_stdmtl_shadowgen::`RTTI Complete Object Locator'
PUBLIC	??_R0?AVD3DTech_stdmtl_shadowgen@Ogre@@@8	; Ogre::D3DTech_stdmtl_shadowgen `RTTI Type Descriptor'
PUBLIC	??_R3D3DTech_stdmtl_shadowgen@Ogre@@8		; Ogre::D3DTech_stdmtl_shadowgen::`RTTI Class Hierarchy Descriptor'
PUBLIC	??_R2D3DTech_stdmtl_shadowgen@Ogre@@8		; Ogre::D3DTech_stdmtl_shadowgen::`RTTI Base Class Array'
PUBLIC	??_R1A@?0A@EA@D3DTech_stdmtl_shadowgen@Ogre@@8	; Ogre::D3DTech_stdmtl_shadowgen::`RTTI Base Class Descriptor at (0,-1,0,64)'
PUBLIC	?beginPass@D3DTech_stdmtl_shadowgen@Ogre@@UAEXI@Z ; Ogre::D3DTech_stdmtl_shadowgen::beginPass
PUBLIC	?endPass@D3DTech_stdmtl_shadowgen@Ogre@@UAEXXZ	; Ogre::D3DTech_stdmtl_shadowgen::endPass
PUBLIC	?clone@D3DTech_stdmtl_shadowgen@Ogre@@UAEPAVD3DTech@2@XZ ; Ogre::D3DTech_stdmtl_shadowgen::clone
PUBLIC	?init@D3DTech_stdmtl_shadowgen@Ogre@@UAEXABUShaderEnvFlags@2@ABUMaterialMacro@2@@Z ; Ogre::D3DTech_stdmtl_shadowgen::init
EXTRN	??_ED3DTech_stdmtl_shadowgen@Ogre@@UAEPAXI@Z:PROC ; Ogre::D3DTech_stdmtl_shadowgen::`vector deleting destructor'
;	COMDAT ??_R1A@?0A@EA@D3DTech_stdmtl_shadowgen@Ogre@@8
rdata$r	SEGMENT
??_R1A@?0A@EA@D3DTech_stdmtl_shadowgen@Ogre@@8 DD FLAT:??_R0?AVD3DTech_stdmtl_shadowgen@Ogre@@@8 ; Ogre::D3DTech_stdmtl_shadowgen::`RTTI Base Class Descriptor at (0,-1,0,64)'
	DD	02H
	DD	00H
	DD	0ffffffffH
	DD	00H
	DD	040H
	DD	FLAT:??_R3D3DTech_stdmtl_shadowgen@Ogre@@8
rdata$r	ENDS
;	COMDAT ??_R2D3DTech_stdmtl_shadowgen@Ogre@@8
rdata$r	SEGMENT
??_R2D3DTech_stdmtl_shadowgen@Ogre@@8 DD FLAT:??_R1A@?0A@EA@D3DTech_stdmtl_shadowgen@Ogre@@8 ; Ogre::D3DTech_stdmtl_shadowgen::`RTTI Base Class Array'
	DD	FLAT:??_R1A@?0A@EA@D3DTech@Ogre@@8
	DD	FLAT:??_R1A@?0A@EA@ShaderTechnique@Ogre@@8
rdata$r	ENDS
;	COMDAT ??_R3D3DTech_stdmtl_shadowgen@Ogre@@8
rdata$r	SEGMENT
??_R3D3DTech_stdmtl_shadowgen@Ogre@@8 DD 00H		; Ogre::D3DTech_stdmtl_shadowgen::`RTTI Class Hierarchy Descriptor'
	DD	00H
	DD	03H
	DD	FLAT:??_R2D3DTech_stdmtl_shadowgen@Ogre@@8
rdata$r	ENDS
;	COMDAT ??_R0?AVD3DTech_stdmtl_shadowgen@Ogre@@@8
_DATA	SEGMENT
??_R0?AVD3DTech_stdmtl_shadowgen@Ogre@@@8 DD FLAT:??_7type_info@@6B@ ; Ogre::D3DTech_stdmtl_shadowgen `RTTI Type Descriptor'
	DD	00H
	DB	'.?AVD3DTech_stdmtl_shadowgen@Ogre@@', 00H
_DATA	ENDS
;	COMDAT ??_R4D3DTech_stdmtl_shadowgen@Ogre@@6B@
rdata$r	SEGMENT
??_R4D3DTech_stdmtl_shadowgen@Ogre@@6B@ DD 00H		; Ogre::D3DTech_stdmtl_shadowgen::`RTTI Complete Object Locator'
	DD	00H
	DD	00H
	DD	FLAT:??_R0?AVD3DTech_stdmtl_shadowgen@Ogre@@@8
	DD	FLAT:??_R3D3DTech_stdmtl_shadowgen@Ogre@@8
rdata$r	ENDS
;	COMDAT ??_7D3DTech_stdmtl_shadowgen@Ogre@@6B@
CONST	SEGMENT
??_7D3DTech_stdmtl_shadowgen@Ogre@@6B@ DD FLAT:??_R4D3DTech_stdmtl_shadowgen@Ogre@@6B@ ; Ogre::D3DTech_stdmtl_shadowgen::`vftable'
	DD	FLAT:?begin@D3DTech@Ogre@@UAEIXZ
	DD	FLAT:?end@D3DTech@Ogre@@UAEXXZ
	DD	FLAT:?beginPass@D3DTech_stdmtl_shadowgen@Ogre@@UAEXI@Z
	DD	FLAT:?endPass@D3DTech_stdmtl_shadowgen@Ogre@@UAEXXZ
	DD	FLAT:?setConstant@D3DTech@Ogre@@UAEXW4ShaderParamUsage@2@PBXI@Z
	DD	FLAT:?setConstant@D3DTech@Ogre@@UAEXPBDPBXI@Z
	DD	FLAT:?setTexture@D3DTech@Ogre@@UAEXW4ShaderParamUsage@2@PAVHardwarePixelBuffer@2@@Z
	DD	FLAT:?setTexture@D3DTech@Ogre@@UAEXPBDPAVHardwarePixelBuffer@2@@Z
	DD	FLAT:?setStreamInput@D3DTech@Ogre@@UAEXIPAPAVHardwareVertexBuffer@2@HPAI@Z
	DD	FLAT:?setStreamInput@D3DTech@Ogre@@UAEXIPAVHardwareVertexBuffer@2@I@Z
	DD	FLAT:?setStreamInput@D3DTech@Ogre@@UAEXIPAPAVHardwareVertexBuffer@2@PAI@Z
	DD	FLAT:?commitChanges@D3DTech@Ogre@@UAEXXZ
	DD	FLAT:?draw@D3DTech@Ogre@@UAEXW4PrimitiveType@2@IIPAVHardwareIndexBuffer@2@II@Z
	DD	FLAT:?draw@D3DTech@Ogre@@UAEXW4PrimitiveType@2@II@Z
	DD	FLAT:?getRequiredParams@D3DTech@Ogre@@UAEIPAW4ShaderParamUsage@2@I@Z
	DD	FLAT:??_ED3DTech_stdmtl_shadowgen@Ogre@@UAEPAXI@Z
	DD	FLAT:?clone@D3DTech_stdmtl_shadowgen@Ogre@@UAEPAVD3DTech@2@XZ
	DD	FLAT:?init@D3DTech_stdmtl_shadowgen@Ogre@@UAEXABUShaderEnvFlags@2@ABUMaterialMacro@2@@Z
CONST	ENDS
;	COMDAT xdata$x
xdata$x	SEGMENT
__unwindtable$??0D3DTech_stdmtl_shadowgen@Ogre@@QAE@XZ DD 0ffffffffH
	DD	FLAT:__unwindfunclet$??0D3DTech_stdmtl_shadowgen@Ogre@@QAE@XZ$0
__ehfuncinfo$??0D3DTech_stdmtl_shadowgen@Ogre@@QAE@XZ DD 019930522H
	DD	01H
	DD	FLAT:__unwindtable$??0D3DTech_stdmtl_shadowgen@Ogre@@QAE@XZ
	DD	2 DUP(00H)
	DD	2 DUP(00H)
	DD	00H
	DD	00H
; Function compile flags: /Odtp
xdata$x	ENDS
;	COMDAT ??0D3DTech_stdmtl_shadowgen@Ogre@@QAE@XZ
_TEXT	SEGMENT
_this$ = -16						; size = 4
__$EHRec$ = -12						; size = 12
??0D3DTech_stdmtl_shadowgen@Ogre@@QAE@XZ PROC		; Ogre::D3DTech_stdmtl_shadowgen::D3DTech_stdmtl_shadowgen, COMDAT
; _this$ = ecx
	push	ebp
	mov	ebp, esp
	push	-1
	push	__ehhandler$??0D3DTech_stdmtl_shadowgen@Ogre@@QAE@XZ
	mov	eax, DWORD PTR fs:0
	push	eax
	push	ecx
	mov	eax, DWORD PTR ___security_cookie
	xor	eax, ebp
	push	eax
	lea	eax, DWORD PTR __$EHRec$[ebp]
	mov	DWORD PTR fs:0, eax
	mov	DWORD PTR _this$[ebp], ecx
	mov	ecx, DWORD PTR _this$[ebp]
	call	??0D3DTech@Ogre@@QAE@XZ			; Ogre::D3DTech::D3DTech
	mov	DWORD PTR __$EHRec$[ebp+8], 0
	mov	eax, DWORD PTR _this$[ebp]
	mov	DWORD PTR [eax], OFFSET ??_7D3DTech_stdmtl_shadowgen@Ogre@@6B@
	mov	DWORD PTR __$EHRec$[ebp+8], -1
	mov	eax, DWORD PTR _this$[ebp]
	mov	ecx, DWORD PTR __$EHRec$[ebp]
	mov	DWORD PTR fs:0, ecx
	pop	ecx
	mov	esp, ebp
	pop	ebp
	ret	0
_TEXT	ENDS
;	COMDAT text$x
text$x	SEGMENT
__unwindfunclet$??0D3DTech_stdmtl_shadowgen@Ogre@@QAE@XZ$0:
	mov	ecx, DWORD PTR _this$[ebp]
	jmp	??1D3DTech@Ogre@@UAE@XZ
__ehhandler$??0D3DTech_stdmtl_shadowgen@Ogre@@QAE@XZ:
	mov	edx, DWORD PTR [esp+8]
	lea	eax, DWORD PTR [edx+12]
	mov	ecx, DWORD PTR [edx-8]
	xor	ecx, eax
	call	@__security_check_cookie@4
	mov	eax, OFFSET __ehfuncinfo$??0D3DTech_stdmtl_shadowgen@Ogre@@QAE@XZ
	jmp	___CxxFrameHandler3
text$x	ENDS
??0D3DTech_stdmtl_shadowgen@Ogre@@QAE@XZ ENDP		; Ogre::D3DTech_stdmtl_shadowgen::D3DTech_stdmtl_shadowgen
;	COMDAT xdata$x
xdata$x	SEGMENT
__unwindtable$?clone@D3DTech_stdmtl_shadowgen@Ogre@@UAEPAVD3DTech@2@XZ DD 0ffffffffH
	DD	FLAT:__unwindfunclet$?clone@D3DTech_stdmtl_shadowgen@Ogre@@UAEPAVD3DTech@2@XZ$0
__ehfuncinfo$?clone@D3DTech_stdmtl_shadowgen@Ogre@@UAEPAVD3DTech@2@XZ DD 019930522H
	DD	01H
	DD	FLAT:__unwindtable$?clone@D3DTech_stdmtl_shadowgen@Ogre@@UAEPAVD3DTech@2@XZ
	DD	2 DUP(00H)
	DD	2 DUP(00H)
	DD	00H
	DD	00H
; Function compile flags: /Odtp
xdata$x	ENDS
;	COMDAT ?clone@D3DTech_stdmtl_shadowgen@Ogre@@UAEPAVD3DTech@2@XZ
_TEXT	SEGMENT
tv74 = -28						; size = 4
_this$ = -24						; size = 4
$T140072 = -20						; size = 4
$T140071 = -16						; size = 4
__$EHRec$ = -12						; size = 12
?clone@D3DTech_stdmtl_shadowgen@Ogre@@UAEPAVD3DTech@2@XZ PROC ; Ogre::D3DTech_stdmtl_shadowgen::clone, COMDAT
; _this$ = ecx

; 154  : 		{

	push	ebp
	mov	ebp, esp
	push	-1
	push	__ehhandler$?clone@D3DTech_stdmtl_shadowgen@Ogre@@UAEPAVD3DTech@2@XZ
	mov	eax, DWORD PTR fs:0
	push	eax
	sub	esp, 16					; 00000010H
	mov	eax, DWORD PTR ___security_cookie
	xor	eax, ebp
	push	eax
	lea	eax, DWORD PTR __$EHRec$[ebp]
	mov	DWORD PTR fs:0, eax
	mov	DWORD PTR _this$[ebp], ecx

; 155  : 			return new D3DTech_stdmtl_shadowgen;

	push	396					; 0000018cH
	call	??2@YAPAXI@Z				; operator new
	add	esp, 4
	mov	DWORD PTR $T140072[ebp], eax
	mov	DWORD PTR __$EHRec$[ebp+8], 0
	cmp	DWORD PTR $T140072[ebp], 0
	je	SHORT $LN3@clone@15
	mov	ecx, DWORD PTR $T140072[ebp]
	call	??0D3DTech_stdmtl_shadowgen@Ogre@@QAE@XZ
	mov	DWORD PTR tv74[ebp], eax
	jmp	SHORT $LN4@clone@15
$LN3@clone@15:
	mov	DWORD PTR tv74[ebp], 0
$LN4@clone@15:
	mov	eax, DWORD PTR tv74[ebp]
	mov	DWORD PTR $T140071[ebp], eax
	mov	DWORD PTR __$EHRec$[ebp+8], -1
	mov	eax, DWORD PTR $T140071[ebp]

; 156  : 		}

	mov	ecx, DWORD PTR __$EHRec$[ebp]
	mov	DWORD PTR fs:0, ecx
	pop	ecx
	mov	esp, ebp
	pop	ebp
	ret	0
_TEXT	ENDS
;	COMDAT text$x
text$x	SEGMENT
__unwindfunclet$?clone@D3DTech_stdmtl_shadowgen@Ogre@@UAEPAVD3DTech@2@XZ$0:
	mov	eax, DWORD PTR $T140072[ebp]
	push	eax
	call	??3@YAXPAX@Z				; operator delete
	pop	ecx
	ret	0
__ehhandler$?clone@D3DTech_stdmtl_shadowgen@Ogre@@UAEPAVD3DTech@2@XZ:
	mov	edx, DWORD PTR [esp+8]
	lea	eax, DWORD PTR [edx+12]
	mov	ecx, DWORD PTR [edx-20]
	xor	ecx, eax
	call	@__security_check_cookie@4
	mov	eax, OFFSET __ehfuncinfo$?clone@D3DTech_stdmtl_shadowgen@Ogre@@UAEPAVD3DTech@2@XZ
	jmp	___CxxFrameHandler3
text$x	ENDS
?clone@D3DTech_stdmtl_shadowgen@Ogre@@UAEPAVD3DTech@2@XZ ENDP ; Ogre::D3DTech_stdmtl_shadowgen::clone
; Function compile flags: /Odtp
;	COMDAT ?init@D3DTech_stdmtl_shadowgen@Ogre@@UAEXABUShaderEnvFlags@2@ABUMaterialMacro@2@@Z
_TEXT	SEGMENT
_this$ = -12						; size = 4
_indx$133228 = -8					; size = 4
_i$133224 = -4						; size = 4
_env$ = 8						; size = 4
_macros$ = 12						; size = 4
?init@D3DTech_stdmtl_shadowgen@Ogre@@UAEXABUShaderEnvFlags@2@ABUMaterialMacro@2@@Z PROC ; Ogre::D3DTech_stdmtl_shadowgen::init, COMDAT
; _this$ = ecx

; 159  : 		{

	push	ebp
	mov	ebp, esp
	sub	esp, 12					; 0000000cH
	mov	DWORD PTR _this$[ebp], ecx

; 160  : 			m_DoubleSide = 0;

	mov	eax, DWORD PTR _this$[ebp]
	mov	BYTE PTR [eax+392], 0

; 161  : 
; 162  : 			for(int i=0; i<MaterialMacro::MAX_MACRO; i++)

	mov	DWORD PTR _i$133224[ebp], 0
	jmp	SHORT $LN5@init@9
$LN4@init@9:
	mov	ecx, DWORD PTR _i$133224[ebp]
	add	ecx, 1
	mov	DWORD PTR _i$133224[ebp], ecx
$LN5@init@9:
	cmp	DWORD PTR _i$133224[ebp], 4
	jge	SHORT $LN3@init@9

; 163  : 			{
; 164  : 				int indx = macros.indices[i];

	mov	edx, DWORD PTR _macros$[ebp]
	add	edx, DWORD PTR _i$133224[ebp]
	movzx	eax, BYTE PTR [edx]
	mov	DWORD PTR _indx$133228[ebp], eax

; 165  : 				if(indx == 0) break;

	cmp	DWORD PTR _indx$133228[ebp], 0
	jne	SHORT $LN2@init@9
	jmp	SHORT $LN3@init@9
$LN2@init@9:

; 166  : 
; 167  : 				if(indx == MTLPARAM_DOUBLE_SIDE) m_DoubleSide = macros.value[i];

	cmp	DWORD PTR _indx$133228[ebp], 2
	jne	SHORT $LN1@init@9
	mov	ecx, DWORD PTR _macros$[ebp]
	add	ecx, DWORD PTR _i$133224[ebp]
	mov	edx, DWORD PTR _this$[ebp]
	mov	al, BYTE PTR [ecx+4]
	mov	BYTE PTR [edx+392], al
$LN1@init@9:

; 168  : 			}

	jmp	SHORT $LN4@init@9
$LN3@init@9:

; 169  : 
; 170  : 			m_nPass = 1;

	mov	ecx, DWORD PTR _this$[ebp]
	mov	DWORD PTR [ecx+188], 1

; 171  : 			m_AllPass[0].vs = m_pMtlTemplate->getCompiledVSPS(COMPILED_VS, "ShadowGen", env, macros);

	mov	edx, DWORD PTR _macros$[ebp]
	push	edx
	mov	eax, DWORD PTR _env$[ebp]
	push	eax
	push	OFFSET ??_C@_09MLKEOPJL@ShadowGen?$AA@
	push	1
	mov	ecx, DWORD PTR _this$[ebp]
	mov	ecx, DWORD PTR [ecx+8]
	call	?getCompiledVSPS@D3DMaterialTemplate@Ogre@@QAEPAVCompiledShader@2@W4COMPILED_TYPE@2@PBDABUShaderEnvFlags@2@ABUMaterialMacro@2@@Z ; Ogre::D3DMaterialTemplate::getCompiledVSPS
	mov	edx, DWORD PTR _this$[ebp]
	mov	DWORD PTR [edx+12], eax

; 172  : 			m_AllPass[0].ps = m_pMtlTemplate->getCompiledVSPS(COMPILED_PS, "ShadowGen", env, macros);

	mov	eax, DWORD PTR _macros$[ebp]
	push	eax
	mov	ecx, DWORD PTR _env$[ebp]
	push	ecx
	push	OFFSET ??_C@_09MLKEOPJL@ShadowGen?$AA@
	push	2
	mov	edx, DWORD PTR _this$[ebp]
	mov	ecx, DWORD PTR [edx+8]
	call	?getCompiledVSPS@D3DMaterialTemplate@Ogre@@QAEPAVCompiledShader@2@W4COMPILED_TYPE@2@PBDABUShaderEnvFlags@2@ABUMaterialMacro@2@@Z ; Ogre::D3DMaterialTemplate::getCompiledVSPS
	mov	ecx, DWORD PTR _this$[ebp]
	mov	DWORD PTR [ecx+16], eax

; 173  : 
; 174  : 			m_AllPass[0].ntex = 1;

	mov	edx, DWORD PTR _this$[ebp]
	mov	DWORD PTR [edx+20], 1

; 175  : 			m_AllPass[0].texstage[0] = SPU_GENERAL_PARAM + 4;

	mov	eax, DWORD PTR _this$[ebp]
	mov	DWORD PTR [eax+24], 1004		; 000003ecH

; 176  : 
; 177  : 			initParams();

	mov	ecx, DWORD PTR _this$[ebp]
	call	?initParams@D3DTech@Ogre@@IAEXXZ	; Ogre::D3DTech::initParams

; 178  : 			m_UsedMacroMask = m_DoubleSide;

	mov	ecx, DWORD PTR _this$[ebp]
	movzx	edx, BYTE PTR [ecx+392]
	mov	eax, DWORD PTR _this$[ebp]
	mov	DWORD PTR [eax+4], edx

; 179  : 		}

	mov	esp, ebp
	pop	ebp
	ret	8
?init@D3DTech_stdmtl_shadowgen@Ogre@@UAEXABUShaderEnvFlags@2@ABUMaterialMacro@2@@Z ENDP ; Ogre::D3DTech_stdmtl_shadowgen::init
; Function compile flags: /Odtp
_TEXT	ENDS
;	COMDAT ?beginPass@D3DTech_stdmtl_shadowgen@Ogre@@UAEXI@Z
_TEXT	SEGMENT
_this$ = -4						; size = 4
_ipass$ = 8						; size = 4
?beginPass@D3DTech_stdmtl_shadowgen@Ogre@@UAEXI@Z PROC	; Ogre::D3DTech_stdmtl_shadowgen::beginPass, COMDAT
; _this$ = ecx

; 182  : 		{

	push	ebp
	mov	ebp, esp
	push	ecx
	mov	DWORD PTR _this$[ebp], ecx

; 183  : 			m_CurPass = ipass;

	mov	eax, DWORD PTR _this$[ebp]
	mov	ecx, DWORD PTR _ipass$[ebp]
	mov	DWORD PTR [eax+192], ecx

; 184  : 
; 185  : 			m_pDevice->SetRenderState(D3DRS_COLORWRITEENABLE, 0);

	push	0
	push	168					; 000000a8H
	mov	edx, DWORD PTR ?m_pDevice@D3DTech@Ogre@@2PAUIDirect3DDevice9@@A ; Ogre::D3DTech::m_pDevice
	mov	eax, DWORD PTR [edx]
	mov	ecx, DWORD PTR ?m_pDevice@D3DTech@Ogre@@2PAUIDirect3DDevice9@@A ; Ogre::D3DTech::m_pDevice
	push	ecx
	mov	edx, DWORD PTR [eax+228]
	call	edx

; 186  : 			m_pDevice->SetRenderState(D3DRS_ZENABLE, TRUE);

	push	1
	push	7
	mov	eax, DWORD PTR ?m_pDevice@D3DTech@Ogre@@2PAUIDirect3DDevice9@@A ; Ogre::D3DTech::m_pDevice
	mov	ecx, DWORD PTR [eax]
	mov	edx, DWORD PTR ?m_pDevice@D3DTech@Ogre@@2PAUIDirect3DDevice9@@A ; Ogre::D3DTech::m_pDevice
	push	edx
	mov	eax, DWORD PTR [ecx+228]
	call	eax

; 187  : 			m_pDevice->SetRenderState(D3DRS_ZWRITEENABLE, TRUE);

	push	1
	push	14					; 0000000eH
	mov	ecx, DWORD PTR ?m_pDevice@D3DTech@Ogre@@2PAUIDirect3DDevice9@@A ; Ogre::D3DTech::m_pDevice
	mov	edx, DWORD PTR [ecx]
	mov	eax, DWORD PTR ?m_pDevice@D3DTech@Ogre@@2PAUIDirect3DDevice9@@A ; Ogre::D3DTech::m_pDevice
	push	eax
	mov	ecx, DWORD PTR [edx+228]
	call	ecx

; 188  : 			SetBlendState(m_pDevice, BLEND_ALPHATEST);

	push	-1
	push	1
	mov	edx, DWORD PTR ?m_pDevice@D3DTech@Ogre@@2PAUIDirect3DDevice9@@A ; Ogre::D3DTech::m_pDevice
	push	edx
	call	?SetBlendState@Ogre@@YAXPAUIDirect3DDevice9@@HH@Z ; Ogre::SetBlendState
	add	esp, 12					; 0000000cH

; 189  : 			m_pDevice->SetRenderState(D3DRS_CULLMODE, m_DoubleSide?D3DCULL_NONE:D3DCULL_CCW);

	mov	eax, DWORD PTR _this$[ebp]
	movzx	ecx, BYTE PTR [eax+392]
	neg	ecx
	sbb	ecx, ecx
	and	ecx, -2					; fffffffeH
	add	ecx, 3
	push	ecx
	push	22					; 00000016H
	mov	edx, DWORD PTR ?m_pDevice@D3DTech@Ogre@@2PAUIDirect3DDevice9@@A ; Ogre::D3DTech::m_pDevice
	mov	eax, DWORD PTR [edx]
	mov	ecx, DWORD PTR ?m_pDevice@D3DTech@Ogre@@2PAUIDirect3DDevice9@@A ; Ogre::D3DTech::m_pDevice
	push	ecx
	mov	edx, DWORD PTR [eax+228]
	call	edx

; 190  : 
; 191  : 			/*float bias = 0.001f;
; 192  : 			m_pDevice->SetRenderState(D3DRS_DEPTHBIAS, *(DWORD *)&bias);*/
; 193  : 
; 194  : 			/*
; 195  : 			uint bias;
; 196  : 			*(float *)&bias = 0.0005f;
; 197  : 			m_pDevice->SetRenderState(D3DRS_DEPTHBIAS, bias);
; 198  : 			*/
; 199  : 
; 200  : 			SamplerState_Wrap(m_pDevice, 0);

	push	0
	mov	eax, DWORD PTR ?m_pDevice@D3DTech@Ogre@@2PAUIDirect3DDevice9@@A ; Ogre::D3DTech::m_pDevice
	push	eax
	call	?SamplerState_Wrap@Ogre@@YAXPAUIDirect3DDevice9@@H@Z ; Ogre::SamplerState_Wrap
	add	esp, 8

; 201  : 
; 202  : 			applyVSPS(m_CurPass);

	mov	ecx, DWORD PTR _this$[ebp]
	mov	edx, DWORD PTR [ecx+192]
	push	edx
	mov	ecx, DWORD PTR _this$[ebp]
	call	?applyVSPS@D3DTech@Ogre@@IAEXI@Z	; Ogre::D3DTech::applyVSPS

; 203  : 		}

	mov	esp, ebp
	pop	ebp
	ret	4
?beginPass@D3DTech_stdmtl_shadowgen@Ogre@@UAEXI@Z ENDP	; Ogre::D3DTech_stdmtl_shadowgen::beginPass
; Function compile flags: /Odtp
_TEXT	ENDS
;	COMDAT ?endPass@D3DTech_stdmtl_shadowgen@Ogre@@UAEXXZ
_TEXT	SEGMENT
_this$ = -4						; size = 4
?endPass@D3DTech_stdmtl_shadowgen@Ogre@@UAEXXZ PROC	; Ogre::D3DTech_stdmtl_shadowgen::endPass, COMDAT
; _this$ = ecx

; 206  : 		{

	push	ebp
	mov	ebp, esp
	push	ecx
	mov	DWORD PTR _this$[ebp], ecx

; 207  : 			m_pDevice->SetRenderState(D3DRS_COLORWRITEENABLE, 0xf);

	push	15					; 0000000fH
	push	168					; 000000a8H
	mov	eax, DWORD PTR ?m_pDevice@D3DTech@Ogre@@2PAUIDirect3DDevice9@@A ; Ogre::D3DTech::m_pDevice
	mov	ecx, DWORD PTR [eax]
	mov	edx, DWORD PTR ?m_pDevice@D3DTech@Ogre@@2PAUIDirect3DDevice9@@A ; Ogre::D3DTech::m_pDevice
	push	edx
	mov	eax, DWORD PTR [ecx+228]
	call	eax

; 208  : 			m_pDevice->SetRenderState(D3DRS_DEPTHBIAS, 0);

	push	0
	push	195					; 000000c3H
	mov	ecx, DWORD PTR ?m_pDevice@D3DTech@Ogre@@2PAUIDirect3DDevice9@@A ; Ogre::D3DTech::m_pDevice
	mov	edx, DWORD PTR [ecx]
	mov	eax, DWORD PTR ?m_pDevice@D3DTech@Ogre@@2PAUIDirect3DDevice9@@A ; Ogre::D3DTech::m_pDevice
	push	eax
	mov	ecx, DWORD PTR [edx+228]
	call	ecx

; 209  : 		}

	mov	esp, ebp
	pop	ebp
	ret	0
?endPass@D3DTech_stdmtl_shadowgen@Ogre@@UAEXXZ ENDP	; Ogre::D3DTech_stdmtl_shadowgen::endPass
_TEXT	ENDS
PUBLIC	??1D3DTech_stdmtl_shadowgen@Ogre@@UAE@XZ	; Ogre::D3DTech_stdmtl_shadowgen::~D3DTech_stdmtl_shadowgen
; Function compile flags: /Odtp
;	COMDAT ??_GD3DTech_stdmtl_shadowgen@Ogre@@UAEPAXI@Z
_TEXT	SEGMENT
_this$ = -4						; size = 4
___flags$ = 8						; size = 4
??_GD3DTech_stdmtl_shadowgen@Ogre@@UAEPAXI@Z PROC	; Ogre::D3DTech_stdmtl_shadowgen::`scalar deleting destructor', COMDAT
; _this$ = ecx
	push	ebp
	mov	ebp, esp
	push	ecx
	mov	DWORD PTR _this$[ebp], ecx
	mov	ecx, DWORD PTR _this$[ebp]
	call	??1D3DTech_stdmtl_shadowgen@Ogre@@UAE@XZ
	mov	eax, DWORD PTR ___flags$[ebp]
	and	eax, 1
	je	SHORT $LN1@scalar@16
	mov	ecx, DWORD PTR _this$[ebp]
	push	ecx
	call	??3@YAXPAX@Z				; operator delete
	add	esp, 4
$LN1@scalar@16:
	mov	eax, DWORD PTR _this$[ebp]
	mov	esp, ebp
	pop	ebp
	ret	4
??_GD3DTech_stdmtl_shadowgen@Ogre@@UAEPAXI@Z ENDP	; Ogre::D3DTech_stdmtl_shadowgen::`scalar deleting destructor'
_TEXT	ENDS
;	COMDAT xdata$x
xdata$x	SEGMENT
__unwindtable$??1D3DTech_stdmtl_shadowgen@Ogre@@UAE@XZ DD 0ffffffffH
	DD	FLAT:__unwindfunclet$??1D3DTech_stdmtl_shadowgen@Ogre@@UAE@XZ$0
__ehfuncinfo$??1D3DTech_stdmtl_shadowgen@Ogre@@UAE@XZ DD 019930522H
	DD	01H
	DD	FLAT:__unwindtable$??1D3DTech_stdmtl_shadowgen@Ogre@@UAE@XZ
	DD	2 DUP(00H)
	DD	2 DUP(00H)
	DD	00H
	DD	00H
; Function compile flags: /Odtp
xdata$x	ENDS
;	COMDAT ??1D3DTech_stdmtl_shadowgen@Ogre@@UAE@XZ
_TEXT	SEGMENT
_this$ = -16						; size = 4
__$EHRec$ = -12						; size = 12
??1D3DTech_stdmtl_shadowgen@Ogre@@UAE@XZ PROC		; Ogre::D3DTech_stdmtl_shadowgen::~D3DTech_stdmtl_shadowgen, COMDAT
; _this$ = ecx
	push	ebp
	mov	ebp, esp
	push	-1
	push	__ehhandler$??1D3DTech_stdmtl_shadowgen@Ogre@@UAE@XZ
	mov	eax, DWORD PTR fs:0
	push	eax
	push	ecx
	mov	eax, DWORD PTR ___security_cookie
	xor	eax, ebp
	push	eax
	lea	eax, DWORD PTR __$EHRec$[ebp]
	mov	DWORD PTR fs:0, eax
	mov	DWORD PTR _this$[ebp], ecx
	mov	DWORD PTR __$EHRec$[ebp+8], 0
	mov	DWORD PTR __$EHRec$[ebp+8], -1
	mov	ecx, DWORD PTR _this$[ebp]
	call	??1D3DTech@Ogre@@UAE@XZ
	mov	ecx, DWORD PTR __$EHRec$[ebp]
	mov	DWORD PTR fs:0, ecx
	pop	ecx
	mov	esp, ebp
	pop	ebp
	ret	0
_TEXT	ENDS
;	COMDAT text$x
text$x	SEGMENT
__unwindfunclet$??1D3DTech_stdmtl_shadowgen@Ogre@@UAE@XZ$0:
	mov	ecx, DWORD PTR _this$[ebp]
	jmp	??1D3DTech@Ogre@@UAE@XZ
__ehhandler$??1D3DTech_stdmtl_shadowgen@Ogre@@UAE@XZ:
	mov	edx, DWORD PTR [esp+8]
	lea	eax, DWORD PTR [edx+12]
	mov	ecx, DWORD PTR [edx-8]
	xor	ecx, eax
	call	@__security_check_cookie@4
	mov	eax, OFFSET __ehfuncinfo$??1D3DTech_stdmtl_shadowgen@Ogre@@UAE@XZ
	jmp	___CxxFrameHandler3
text$x	ENDS
??1D3DTech_stdmtl_shadowgen@Ogre@@UAE@XZ ENDP		; Ogre::D3DTech_stdmtl_shadowgen::~D3DTech_stdmtl_shadowgen
PUBLIC	??_7D3DTech_terrain_all_lod0@Ogre@@6B@		; Ogre::D3DTech_terrain_all_lod0::`vftable'
PUBLIC	??_R4D3DTech_terrain_all_lod0@Ogre@@6B@		; Ogre::D3DTech_terrain_all_lod0::`RTTI Complete Object Locator'
PUBLIC	??_R0?AVD3DTech_terrain_all_lod0@Ogre@@@8	; Ogre::D3DTech_terrain_all_lod0 `RTTI Type Descriptor'
PUBLIC	??_R3D3DTech_terrain_all_lod0@Ogre@@8		; Ogre::D3DTech_terrain_all_lod0::`RTTI Class Hierarchy Descriptor'
PUBLIC	??_R2D3DTech_terrain_all_lod0@Ogre@@8		; Ogre::D3DTech_terrain_all_lod0::`RTTI Base Class Array'
PUBLIC	??_R1A@?0A@EA@D3DTech_terrain_all_lod0@Ogre@@8	; Ogre::D3DTech_terrain_all_lod0::`RTTI Base Class Descriptor at (0,-1,0,64)'
PUBLIC	?beginPass@D3DTech_terrain_all_lod0@Ogre@@UAEXI@Z ; Ogre::D3DTech_terrain_all_lod0::beginPass
PUBLIC	?endPass@D3DTech_terrain_all_lod0@Ogre@@UAEXXZ	; Ogre::D3DTech_terrain_all_lod0::endPass
PUBLIC	?clone@D3DTech_terrain_all_lod0@Ogre@@UAEPAVD3DTech@2@XZ ; Ogre::D3DTech_terrain_all_lod0::clone
PUBLIC	?init@D3DTech_terrain_all_lod0@Ogre@@UAEXABUShaderEnvFlags@2@ABUMaterialMacro@2@@Z ; Ogre::D3DTech_terrain_all_lod0::init
EXTRN	??_ED3DTech_terrain_all_lod0@Ogre@@UAEPAXI@Z:PROC ; Ogre::D3DTech_terrain_all_lod0::`vector deleting destructor'
;	COMDAT ??_R1A@?0A@EA@D3DTech_terrain_all_lod0@Ogre@@8
rdata$r	SEGMENT
??_R1A@?0A@EA@D3DTech_terrain_all_lod0@Ogre@@8 DD FLAT:??_R0?AVD3DTech_terrain_all_lod0@Ogre@@@8 ; Ogre::D3DTech_terrain_all_lod0::`RTTI Base Class Descriptor at (0,-1,0,64)'
	DD	02H
	DD	00H
	DD	0ffffffffH
	DD	00H
	DD	040H
	DD	FLAT:??_R3D3DTech_terrain_all_lod0@Ogre@@8
rdata$r	ENDS
;	COMDAT ??_R2D3DTech_terrain_all_lod0@Ogre@@8
rdata$r	SEGMENT
??_R2D3DTech_terrain_all_lod0@Ogre@@8 DD FLAT:??_R1A@?0A@EA@D3DTech_terrain_all_lod0@Ogre@@8 ; Ogre::D3DTech_terrain_all_lod0::`RTTI Base Class Array'
	DD	FLAT:??_R1A@?0A@EA@D3DTech@Ogre@@8
	DD	FLAT:??_R1A@?0A@EA@ShaderTechnique@Ogre@@8
rdata$r	ENDS
;	COMDAT ??_R3D3DTech_terrain_all_lod0@Ogre@@8
rdata$r	SEGMENT
??_R3D3DTech_terrain_all_lod0@Ogre@@8 DD 00H		; Ogre::D3DTech_terrain_all_lod0::`RTTI Class Hierarchy Descriptor'
	DD	00H
	DD	03H
	DD	FLAT:??_R2D3DTech_terrain_all_lod0@Ogre@@8
rdata$r	ENDS
;	COMDAT ??_R0?AVD3DTech_terrain_all_lod0@Ogre@@@8
_DATA	SEGMENT
??_R0?AVD3DTech_terrain_all_lod0@Ogre@@@8 DD FLAT:??_7type_info@@6B@ ; Ogre::D3DTech_terrain_all_lod0 `RTTI Type Descriptor'
	DD	00H
	DB	'.?AVD3DTech_terrain_all_lod0@Ogre@@', 00H
_DATA	ENDS
;	COMDAT ??_R4D3DTech_terrain_all_lod0@Ogre@@6B@
rdata$r	SEGMENT
??_R4D3DTech_terrain_all_lod0@Ogre@@6B@ DD 00H		; Ogre::D3DTech_terrain_all_lod0::`RTTI Complete Object Locator'
	DD	00H
	DD	00H
	DD	FLAT:??_R0?AVD3DTech_terrain_all_lod0@Ogre@@@8
	DD	FLAT:??_R3D3DTech_terrain_all_lod0@Ogre@@8
rdata$r	ENDS
;	COMDAT ??_7D3DTech_terrain_all_lod0@Ogre@@6B@
CONST	SEGMENT
??_7D3DTech_terrain_all_lod0@Ogre@@6B@ DD FLAT:??_R4D3DTech_terrain_all_lod0@Ogre@@6B@ ; Ogre::D3DTech_terrain_all_lod0::`vftable'
	DD	FLAT:?begin@D3DTech@Ogre@@UAEIXZ
	DD	FLAT:?end@D3DTech@Ogre@@UAEXXZ
	DD	FLAT:?beginPass@D3DTech_terrain_all_lod0@Ogre@@UAEXI@Z
	DD	FLAT:?endPass@D3DTech_terrain_all_lod0@Ogre@@UAEXXZ
	DD	FLAT:?setConstant@D3DTech@Ogre@@UAEXW4ShaderParamUsage@2@PBXI@Z
	DD	FLAT:?setConstant@D3DTech@Ogre@@UAEXPBDPBXI@Z
	DD	FLAT:?setTexture@D3DTech@Ogre@@UAEXW4ShaderParamUsage@2@PAVHardwarePixelBuffer@2@@Z
	DD	FLAT:?setTexture@D3DTech@Ogre@@UAEXPBDPAVHardwarePixelBuffer@2@@Z
	DD	FLAT:?setStreamInput@D3DTech@Ogre@@UAEXIPAPAVHardwareVertexBuffer@2@HPAI@Z
	DD	FLAT:?setStreamInput@D3DTech@Ogre@@UAEXIPAVHardwareVertexBuffer@2@I@Z
	DD	FLAT:?setStreamInput@D3DTech@Ogre@@UAEXIPAPAVHardwareVertexBuffer@2@PAI@Z
	DD	FLAT:?commitChanges@D3DTech@Ogre@@UAEXXZ
	DD	FLAT:?draw@D3DTech@Ogre@@UAEXW4PrimitiveType@2@IIPAVHardwareIndexBuffer@2@II@Z
	DD	FLAT:?draw@D3DTech@Ogre@@UAEXW4PrimitiveType@2@II@Z
	DD	FLAT:?getRequiredParams@D3DTech@Ogre@@UAEIPAW4ShaderParamUsage@2@I@Z
	DD	FLAT:??_ED3DTech_terrain_all_lod0@Ogre@@UAEPAXI@Z
	DD	FLAT:?clone@D3DTech_terrain_all_lod0@Ogre@@UAEPAVD3DTech@2@XZ
	DD	FLAT:?init@D3DTech_terrain_all_lod0@Ogre@@UAEXABUShaderEnvFlags@2@ABUMaterialMacro@2@@Z
CONST	ENDS
;	COMDAT xdata$x
xdata$x	SEGMENT
__unwindtable$??0D3DTech_terrain_all_lod0@Ogre@@QAE@XZ DD 0ffffffffH
	DD	FLAT:__unwindfunclet$??0D3DTech_terrain_all_lod0@Ogre@@QAE@XZ$0
__ehfuncinfo$??0D3DTech_terrain_all_lod0@Ogre@@QAE@XZ DD 019930522H
	DD	01H
	DD	FLAT:__unwindtable$??0D3DTech_terrain_all_lod0@Ogre@@QAE@XZ
	DD	2 DUP(00H)
	DD	2 DUP(00H)
	DD	00H
	DD	00H
; Function compile flags: /Odtp
xdata$x	ENDS
;	COMDAT ??0D3DTech_terrain_all_lod0@Ogre@@QAE@XZ
_TEXT	SEGMENT
_this$ = -16						; size = 4
__$EHRec$ = -12						; size = 12
??0D3DTech_terrain_all_lod0@Ogre@@QAE@XZ PROC		; Ogre::D3DTech_terrain_all_lod0::D3DTech_terrain_all_lod0, COMDAT
; _this$ = ecx
	push	ebp
	mov	ebp, esp
	push	-1
	push	__ehhandler$??0D3DTech_terrain_all_lod0@Ogre@@QAE@XZ
	mov	eax, DWORD PTR fs:0
	push	eax
	push	ecx
	mov	eax, DWORD PTR ___security_cookie
	xor	eax, ebp
	push	eax
	lea	eax, DWORD PTR __$EHRec$[ebp]
	mov	DWORD PTR fs:0, eax
	mov	DWORD PTR _this$[ebp], ecx
	mov	ecx, DWORD PTR _this$[ebp]
	call	??0D3DTech@Ogre@@QAE@XZ			; Ogre::D3DTech::D3DTech
	mov	DWORD PTR __$EHRec$[ebp+8], 0
	mov	eax, DWORD PTR _this$[ebp]
	mov	DWORD PTR [eax], OFFSET ??_7D3DTech_terrain_all_lod0@Ogre@@6B@
	mov	DWORD PTR __$EHRec$[ebp+8], -1
	mov	eax, DWORD PTR _this$[ebp]
	mov	ecx, DWORD PTR __$EHRec$[ebp]
	mov	DWORD PTR fs:0, ecx
	pop	ecx
	mov	esp, ebp
	pop	ebp
	ret	0
_TEXT	ENDS
;	COMDAT text$x
text$x	SEGMENT
__unwindfunclet$??0D3DTech_terrain_all_lod0@Ogre@@QAE@XZ$0:
	mov	ecx, DWORD PTR _this$[ebp]
	jmp	??1D3DTech@Ogre@@UAE@XZ
__ehhandler$??0D3DTech_terrain_all_lod0@Ogre@@QAE@XZ:
	mov	edx, DWORD PTR [esp+8]
	lea	eax, DWORD PTR [edx+12]
	mov	ecx, DWORD PTR [edx-8]
	xor	ecx, eax
	call	@__security_check_cookie@4
	mov	eax, OFFSET __ehfuncinfo$??0D3DTech_terrain_all_lod0@Ogre@@QAE@XZ
	jmp	___CxxFrameHandler3
text$x	ENDS
??0D3DTech_terrain_all_lod0@Ogre@@QAE@XZ ENDP		; Ogre::D3DTech_terrain_all_lod0::D3DTech_terrain_all_lod0
;	COMDAT xdata$x
; File i:\svnroot\client\plugins\rendersystem_d3d9\ogred3d9tech_terrain_all.h
xdata$x	SEGMENT
__unwindtable$?clone@D3DTech_terrain_all_lod0@Ogre@@UAEPAVD3DTech@2@XZ DD 0ffffffffH
	DD	FLAT:__unwindfunclet$?clone@D3DTech_terrain_all_lod0@Ogre@@UAEPAVD3DTech@2@XZ$0
__ehfuncinfo$?clone@D3DTech_terrain_all_lod0@Ogre@@UAEPAVD3DTech@2@XZ DD 019930522H
	DD	01H
	DD	FLAT:__unwindtable$?clone@D3DTech_terrain_all_lod0@Ogre@@UAEPAVD3DTech@2@XZ
	DD	2 DUP(00H)
	DD	2 DUP(00H)
	DD	00H
	DD	00H
; Function compile flags: /Odtp
xdata$x	ENDS
;	COMDAT ?clone@D3DTech_terrain_all_lod0@Ogre@@UAEPAVD3DTech@2@XZ
_TEXT	SEGMENT
tv74 = -28						; size = 4
_this$ = -24						; size = 4
$T140111 = -20						; size = 4
$T140110 = -16						; size = 4
__$EHRec$ = -12						; size = 12
?clone@D3DTech_terrain_all_lod0@Ogre@@UAEPAVD3DTech@2@XZ PROC ; Ogre::D3DTech_terrain_all_lod0::clone, COMDAT
; _this$ = ecx

; 25   : 		{

	push	ebp
	mov	ebp, esp
	push	-1
	push	__ehhandler$?clone@D3DTech_terrain_all_lod0@Ogre@@UAEPAVD3DTech@2@XZ
	mov	eax, DWORD PTR fs:0
	push	eax
	sub	esp, 16					; 00000010H
	mov	eax, DWORD PTR ___security_cookie
	xor	eax, ebp
	push	eax
	lea	eax, DWORD PTR __$EHRec$[ebp]
	mov	DWORD PTR fs:0, eax
	mov	DWORD PTR _this$[ebp], ecx

; 26   : 			return new D3DTech_terrain_all_lod0;

	push	396					; 0000018cH
	call	??2@YAPAXI@Z				; operator new
	add	esp, 4
	mov	DWORD PTR $T140111[ebp], eax
	mov	DWORD PTR __$EHRec$[ebp+8], 0
	cmp	DWORD PTR $T140111[ebp], 0
	je	SHORT $LN3@clone@16
	mov	ecx, DWORD PTR $T140111[ebp]
	call	??0D3DTech_terrain_all_lod0@Ogre@@QAE@XZ
	mov	DWORD PTR tv74[ebp], eax
	jmp	SHORT $LN4@clone@16
$LN3@clone@16:
	mov	DWORD PTR tv74[ebp], 0
$LN4@clone@16:
	mov	eax, DWORD PTR tv74[ebp]
	mov	DWORD PTR $T140110[ebp], eax
	mov	DWORD PTR __$EHRec$[ebp+8], -1
	mov	eax, DWORD PTR $T140110[ebp]

; 27   : 		}

	mov	ecx, DWORD PTR __$EHRec$[ebp]
	mov	DWORD PTR fs:0, ecx
	pop	ecx
	mov	esp, ebp
	pop	ebp
	ret	0
_TEXT	ENDS
;	COMDAT text$x
text$x	SEGMENT
__unwindfunclet$?clone@D3DTech_terrain_all_lod0@Ogre@@UAEPAVD3DTech@2@XZ$0:
	mov	eax, DWORD PTR $T140111[ebp]
	push	eax
	call	??3@YAXPAX@Z				; operator delete
	pop	ecx
	ret	0
__ehhandler$?clone@D3DTech_terrain_all_lod0@Ogre@@UAEPAVD3DTech@2@XZ:
	mov	edx, DWORD PTR [esp+8]
	lea	eax, DWORD PTR [edx+12]
	mov	ecx, DWORD PTR [edx-20]
	xor	ecx, eax
	call	@__security_check_cookie@4
	mov	eax, OFFSET __ehfuncinfo$?clone@D3DTech_terrain_all_lod0@Ogre@@UAEPAVD3DTech@2@XZ
	jmp	___CxxFrameHandler3
text$x	ENDS
?clone@D3DTech_terrain_all_lod0@Ogre@@UAEPAVD3DTech@2@XZ ENDP ; Ogre::D3DTech_terrain_all_lod0::clone
; Function compile flags: /Odtp
;	COMDAT ?init@D3DTech_terrain_all_lod0@Ogre@@UAEXABUShaderEnvFlags@2@ABUMaterialMacro@2@@Z
_TEXT	SEGMENT
_this$ = -12						; size = 4
_indx$133284 = -8					; size = 4
_i$133280 = -4						; size = 4
_env$ = 8						; size = 4
_macros$ = 12						; size = 4
?init@D3DTech_terrain_all_lod0@Ogre@@UAEXABUShaderEnvFlags@2@ABUMaterialMacro@2@@Z PROC ; Ogre::D3DTech_terrain_all_lod0::init, COMDAT
; _this$ = ecx

; 30   : 		{

	push	ebp
	mov	ebp, esp
	sub	esp, 12					; 0000000cH
	mov	DWORD PTR _this$[ebp], ecx

; 31   : 			m_TerrainLayers = 0;

	mov	eax, DWORD PTR _this$[ebp]
	mov	BYTE PTR [eax+392], 0

; 32   : 
; 33   : 			for(int i=0; i<MaterialMacro::MAX_MACRO; i++)

	mov	DWORD PTR _i$133280[ebp], 0
	jmp	SHORT $LN8@init@10
$LN7@init@10:
	mov	ecx, DWORD PTR _i$133280[ebp]
	add	ecx, 1
	mov	DWORD PTR _i$133280[ebp], ecx
$LN8@init@10:
	cmp	DWORD PTR _i$133280[ebp], 4
	jge	SHORT $LN6@init@10

; 34   : 			{
; 35   : 				int indx = macros.indices[i];

	mov	edx, DWORD PTR _macros$[ebp]
	add	edx, DWORD PTR _i$133280[ebp]
	movzx	eax, BYTE PTR [edx]
	mov	DWORD PTR _indx$133284[ebp], eax

; 36   : 				if(indx == 0) break;

	cmp	DWORD PTR _indx$133284[ebp], 0
	jne	SHORT $LN5@init@10
	jmp	SHORT $LN6@init@10
$LN5@init@10:

; 37   : 
; 38   : 				if (indx == MTLPARAM_TERRAIN_LAYERS) m_TerrainLayers = macros.value[i];

	cmp	DWORD PTR _indx$133284[ebp], 1
	jne	SHORT $LN4@init@10
	mov	ecx, DWORD PTR _macros$[ebp]
	add	ecx, DWORD PTR _i$133280[ebp]
	mov	edx, DWORD PTR _this$[ebp]
	mov	al, BYTE PTR [ecx+4]
	mov	BYTE PTR [edx+392], al
$LN4@init@10:

; 39   : 				if (indx == MTLPARAM_USE_STATICLIGHT) m_UseStaticLight = macros.value[i];

	cmp	DWORD PTR _indx$133284[ebp], 2
	jne	SHORT $LN3@init@10
	mov	ecx, DWORD PTR _macros$[ebp]
	add	ecx, DWORD PTR _i$133280[ebp]
	mov	edx, DWORD PTR _this$[ebp]
	mov	al, BYTE PTR [ecx+4]
	mov	BYTE PTR [edx+393], al
$LN3@init@10:

; 40   : 				if (indx == MTLPARAM_USE_LIGHTMAP) m_UseLightMap = macros.value[i];

	cmp	DWORD PTR _indx$133284[ebp], 3
	jne	SHORT $LN2@init@10
	mov	ecx, DWORD PTR _macros$[ebp]
	add	ecx, DWORD PTR _i$133280[ebp]
	mov	edx, DWORD PTR _this$[ebp]
	mov	al, BYTE PTR [ecx+4]
	mov	BYTE PTR [edx+394], al
$LN2@init@10:

; 41   : 			}

	jmp	SHORT $LN7@init@10
$LN6@init@10:

; 42   : 			if(m_TerrainLayers > 3 )m_TerrainLayers = 3;

	mov	ecx, DWORD PTR _this$[ebp]
	movzx	edx, BYTE PTR [ecx+392]
	cmp	edx, 3
	jle	SHORT $LN1@init@10
	mov	eax, DWORD PTR _this$[ebp]
	mov	BYTE PTR [eax+392], 3
$LN1@init@10:

; 43   : 
; 44   : 			m_nPass = 1;

	mov	ecx, DWORD PTR _this$[ebp]
	mov	DWORD PTR [ecx+188], 1

; 45   : 			m_AllPass[0].vs = m_pMtlTemplate->getCompiledVSPS(COMPILED_VS, "Main", env, macros);

	mov	edx, DWORD PTR _macros$[ebp]
	push	edx
	mov	eax, DWORD PTR _env$[ebp]
	push	eax
	push	OFFSET ??_C@_04KGFMLCPK@Main?$AA@
	push	1
	mov	ecx, DWORD PTR _this$[ebp]
	mov	ecx, DWORD PTR [ecx+8]
	call	?getCompiledVSPS@D3DMaterialTemplate@Ogre@@QAEPAVCompiledShader@2@W4COMPILED_TYPE@2@PBDABUShaderEnvFlags@2@ABUMaterialMacro@2@@Z ; Ogre::D3DMaterialTemplate::getCompiledVSPS
	mov	edx, DWORD PTR _this$[ebp]
	mov	DWORD PTR [edx+12], eax

; 46   : 			m_AllPass[0].ps = m_pMtlTemplate->getCompiledVSPS(COMPILED_PS, "Main", env, macros);

	mov	eax, DWORD PTR _macros$[ebp]
	push	eax
	mov	ecx, DWORD PTR _env$[ebp]
	push	ecx
	push	OFFSET ??_C@_04KGFMLCPK@Main?$AA@
	push	2
	mov	edx, DWORD PTR _this$[ebp]
	mov	ecx, DWORD PTR [edx+8]
	call	?getCompiledVSPS@D3DMaterialTemplate@Ogre@@QAEPAVCompiledShader@2@W4COMPILED_TYPE@2@PBDABUShaderEnvFlags@2@ABUMaterialMacro@2@@Z ; Ogre::D3DMaterialTemplate::getCompiledVSPS
	mov	ecx, DWORD PTR _this$[ebp]
	mov	DWORD PTR [ecx+16], eax

; 47   : 
; 48   : 			//assert(m_TerrainLayers > 0);
; 49   : 			//if(m_TerrainLayers == 1) m_AllPass[0].ntex = 2;
; 50   : 			//else m_AllPass[0].ntex = 2+m_TerrainLayers;
; 51   : 
; 52   : 			m_AllPass[0].ntex = 7;

	mov	edx, DWORD PTR _this$[ebp]
	mov	DWORD PTR [edx+20], 7

; 53   : 			m_AllPass[0].texstage[0] = SPU_GENERAL_PARAM + 2;//g_BlendColorTex0

	mov	eax, DWORD PTR _this$[ebp]
	mov	DWORD PTR [eax+24], 1002		; 000003eaH

; 54   : 			m_AllPass[0].texstage[1] = SPU_GENERAL_PARAM + 6;//g_BlendAlphaTex

	mov	ecx, DWORD PTR _this$[ebp]
	mov	DWORD PTR [ecx+28], 1006		; 000003eeH

; 55   : 			m_AllPass[0].texstage[2] = SPU_GENERAL_PARAM + 3;//g_BlendColorTex1

	mov	edx, DWORD PTR _this$[ebp]
	mov	DWORD PTR [edx+32], 1003		; 000003ebH

; 56   : 			m_AllPass[0].texstage[3] = SPU_GENERAL_PARAM + 4;//g_BlendColorTex2

	mov	eax, DWORD PTR _this$[ebp]
	mov	DWORD PTR [eax+36], 1004		; 000003ecH

; 57   : 			m_AllPass[0].texstage[4] = SPU_GENERAL_PARAM + 5;//g_BlendColorTex3

	mov	ecx, DWORD PTR _this$[ebp]
	mov	DWORD PTR [ecx+40], 1005		; 000003edH

; 58   : 			m_AllPass[0].texstage[5] = SPU_DEPTHMAP;

	mov	edx, DWORD PTR _this$[ebp]
	mov	DWORD PTR [edx+44], 18			; 00000012H

; 59   : 			m_AllPass[0].texstage[6] = SPU_GENERAL_PARAM + 7;

	mov	eax, DWORD PTR _this$[ebp]
	mov	DWORD PTR [eax+48], 1007		; 000003efH

; 60   : 
; 61   : 			initParams();

	mov	ecx, DWORD PTR _this$[ebp]
	call	?initParams@D3DTech@Ogre@@IAEXXZ	; Ogre::D3DTech::initParams

; 62   : 			m_UsedMacroMask = m_TerrainLayers;

	mov	ecx, DWORD PTR _this$[ebp]
	movzx	edx, BYTE PTR [ecx+392]
	mov	eax, DWORD PTR _this$[ebp]
	mov	DWORD PTR [eax+4], edx

; 63   : 		}

	mov	esp, ebp
	pop	ebp
	ret	8
?init@D3DTech_terrain_all_lod0@Ogre@@UAEXABUShaderEnvFlags@2@ABUMaterialMacro@2@@Z ENDP ; Ogre::D3DTech_terrain_all_lod0::init
_TEXT	ENDS
PUBLIC	__real@bf333333
EXTRN	__fltused:DWORD
;	COMDAT __real@bf333333
CONST	SEGMENT
__real@bf333333 DD 0bf333333r			; -0.7
; Function compile flags: /Odtp
CONST	ENDS
;	COMDAT ?beginPass@D3DTech_terrain_all_lod0@Ogre@@UAEXI@Z
_TEXT	SEGMENT
_this$ = -8						; size = 4
_LOD_BIAS$ = -4						; size = 4
_ipass$ = 8						; size = 4
?beginPass@D3DTech_terrain_all_lod0@Ogre@@UAEXI@Z PROC	; Ogre::D3DTech_terrain_all_lod0::beginPass, COMDAT
; _this$ = ecx

; 66   : 		{

	push	ebp
	mov	ebp, esp
	sub	esp, 8
	mov	DWORD PTR _this$[ebp], ecx

; 67   : 			m_CurPass = ipass;

	mov	eax, DWORD PTR _this$[ebp]
	mov	ecx, DWORD PTR _ipass$[ebp]
	mov	DWORD PTR [eax+192], ecx

; 68   : 
; 69   : 			m_pDevice->SetRenderState(D3DRS_ZENABLE, TRUE);

	push	1
	push	7
	mov	edx, DWORD PTR ?m_pDevice@D3DTech@Ogre@@2PAUIDirect3DDevice9@@A ; Ogre::D3DTech::m_pDevice
	mov	eax, DWORD PTR [edx]
	mov	ecx, DWORD PTR ?m_pDevice@D3DTech@Ogre@@2PAUIDirect3DDevice9@@A ; Ogre::D3DTech::m_pDevice
	push	ecx
	mov	edx, DWORD PTR [eax+228]
	call	edx

; 70   : 			m_pDevice->SetRenderState(D3DRS_ZWRITEENABLE, TRUE);

	push	1
	push	14					; 0000000eH
	mov	eax, DWORD PTR ?m_pDevice@D3DTech@Ogre@@2PAUIDirect3DDevice9@@A ; Ogre::D3DTech::m_pDevice
	mov	ecx, DWORD PTR [eax]
	mov	edx, DWORD PTR ?m_pDevice@D3DTech@Ogre@@2PAUIDirect3DDevice9@@A ; Ogre::D3DTech::m_pDevice
	push	edx
	mov	eax, DWORD PTR [ecx+228]
	call	eax

; 71   : 			m_pDevice->SetRenderState(D3DRS_CULLMODE, D3DCULL_CCW);

	push	3
	push	22					; 00000016H
	mov	ecx, DWORD PTR ?m_pDevice@D3DTech@Ogre@@2PAUIDirect3DDevice9@@A ; Ogre::D3DTech::m_pDevice
	mov	edx, DWORD PTR [ecx]
	mov	eax, DWORD PTR ?m_pDevice@D3DTech@Ogre@@2PAUIDirect3DDevice9@@A ; Ogre::D3DTech::m_pDevice
	push	eax
	mov	ecx, DWORD PTR [edx+228]
	call	ecx

; 72   : 			SetBlendState(m_pDevice, BLEND_OPAQUE, 0);

	push	0
	push	0
	mov	edx, DWORD PTR ?m_pDevice@D3DTech@Ogre@@2PAUIDirect3DDevice9@@A ; Ogre::D3DTech::m_pDevice
	push	edx
	call	?SetBlendState@Ogre@@YAXPAUIDirect3DDevice9@@HH@Z ; Ogre::SetBlendState
	add	esp, 12					; 0000000cH

; 73   : 
; 74   : 			uint LOD_BIAS;
; 75   : 			*(float *)&LOD_BIAS = -0.7f;

	fld	DWORD PTR __real@bf333333
	fstp	DWORD PTR _LOD_BIAS$[ebp]

; 76   : 
; 77   : 			SamplerState_Wrap(m_pDevice, 0);

	push	0
	mov	eax, DWORD PTR ?m_pDevice@D3DTech@Ogre@@2PAUIDirect3DDevice9@@A ; Ogre::D3DTech::m_pDevice
	push	eax
	call	?SamplerState_Wrap@Ogre@@YAXPAUIDirect3DDevice9@@H@Z ; Ogre::SamplerState_Wrap
	add	esp, 8

; 78   : 			m_pDevice->SetSamplerState(0, D3DSAMP_MIPMAPLODBIAS, LOD_BIAS);

	mov	ecx, DWORD PTR _LOD_BIAS$[ebp]
	push	ecx
	push	8
	push	0
	mov	edx, DWORD PTR ?m_pDevice@D3DTech@Ogre@@2PAUIDirect3DDevice9@@A ; Ogre::D3DTech::m_pDevice
	mov	eax, DWORD PTR [edx]
	mov	ecx, DWORD PTR ?m_pDevice@D3DTech@Ogre@@2PAUIDirect3DDevice9@@A ; Ogre::D3DTech::m_pDevice
	push	ecx
	mov	edx, DWORD PTR [eax+276]
	call	edx

; 79   : 			m_pDevice->SetSamplerState(0, D3DSAMP_MIPFILTER, D3DTEXF_LINEAR);

	push	2
	push	7
	push	0
	mov	eax, DWORD PTR ?m_pDevice@D3DTech@Ogre@@2PAUIDirect3DDevice9@@A ; Ogre::D3DTech::m_pDevice
	mov	ecx, DWORD PTR [eax]
	mov	edx, DWORD PTR ?m_pDevice@D3DTech@Ogre@@2PAUIDirect3DDevice9@@A ; Ogre::D3DTech::m_pDevice
	push	edx
	mov	eax, DWORD PTR [ecx+276]
	call	eax

; 80   : 			SamplerState_DMap(m_pDevice, 5);

	push	5
	mov	ecx, DWORD PTR ?m_pDevice@D3DTech@Ogre@@2PAUIDirect3DDevice9@@A ; Ogre::D3DTech::m_pDevice
	push	ecx
	call	?SamplerState_DMap@Ogre@@YAXPAUIDirect3DDevice9@@H@Z ; Ogre::SamplerState_DMap
	add	esp, 8

; 81   : 
; 82   : 		//	if(m_TerrainLayers > 1)
; 83   : 			{
; 84   : 				SamplerState_Clamp(m_pDevice, 1);

	push	1
	mov	edx, DWORD PTR ?m_pDevice@D3DTech@Ogre@@2PAUIDirect3DDevice9@@A ; Ogre::D3DTech::m_pDevice
	push	edx
	call	?SamplerState_Clamp@Ogre@@YAXPAUIDirect3DDevice9@@H@Z ; Ogre::SamplerState_Clamp
	add	esp, 8

; 85   : 				m_pDevice->SetSamplerState(1, D3DSAMP_MIPFILTER, D3DTEXF_NONE);

	push	0
	push	7
	push	1
	mov	eax, DWORD PTR ?m_pDevice@D3DTech@Ogre@@2PAUIDirect3DDevice9@@A ; Ogre::D3DTech::m_pDevice
	mov	ecx, DWORD PTR [eax]
	mov	edx, DWORD PTR ?m_pDevice@D3DTech@Ogre@@2PAUIDirect3DDevice9@@A ; Ogre::D3DTech::m_pDevice
	push	edx
	mov	eax, DWORD PTR [ecx+276]
	call	eax

; 86   : 
; 87   : 				SamplerState_Wrap(m_pDevice, 2);

	push	2
	mov	ecx, DWORD PTR ?m_pDevice@D3DTech@Ogre@@2PAUIDirect3DDevice9@@A ; Ogre::D3DTech::m_pDevice
	push	ecx
	call	?SamplerState_Wrap@Ogre@@YAXPAUIDirect3DDevice9@@H@Z ; Ogre::SamplerState_Wrap
	add	esp, 8

; 88   : 				m_pDevice->SetSamplerState(2, D3DSAMP_MIPMAPLODBIAS, LOD_BIAS);

	mov	edx, DWORD PTR _LOD_BIAS$[ebp]
	push	edx
	push	8
	push	2
	mov	eax, DWORD PTR ?m_pDevice@D3DTech@Ogre@@2PAUIDirect3DDevice9@@A ; Ogre::D3DTech::m_pDevice
	mov	ecx, DWORD PTR [eax]
	mov	edx, DWORD PTR ?m_pDevice@D3DTech@Ogre@@2PAUIDirect3DDevice9@@A ; Ogre::D3DTech::m_pDevice
	push	edx
	mov	eax, DWORD PTR [ecx+276]
	call	eax

; 89   : 				m_pDevice->SetSamplerState(2, D3DSAMP_MIPFILTER, D3DTEXF_LINEAR);

	push	2
	push	7
	push	2
	mov	ecx, DWORD PTR ?m_pDevice@D3DTech@Ogre@@2PAUIDirect3DDevice9@@A ; Ogre::D3DTech::m_pDevice
	mov	edx, DWORD PTR [ecx]
	mov	eax, DWORD PTR ?m_pDevice@D3DTech@Ogre@@2PAUIDirect3DDevice9@@A ; Ogre::D3DTech::m_pDevice
	push	eax
	mov	ecx, DWORD PTR [edx+276]
	call	ecx

; 90   : 			}
; 91   : 		//	if(m_TerrainLayers > 2)
; 92   : 			{
; 93   : 				SamplerState_Wrap(m_pDevice, 3);

	push	3
	mov	edx, DWORD PTR ?m_pDevice@D3DTech@Ogre@@2PAUIDirect3DDevice9@@A ; Ogre::D3DTech::m_pDevice
	push	edx
	call	?SamplerState_Wrap@Ogre@@YAXPAUIDirect3DDevice9@@H@Z ; Ogre::SamplerState_Wrap
	add	esp, 8

; 94   : 				m_pDevice->SetSamplerState(3, D3DSAMP_MIPMAPLODBIAS, LOD_BIAS);

	mov	eax, DWORD PTR _LOD_BIAS$[ebp]
	push	eax
	push	8
	push	3
	mov	ecx, DWORD PTR ?m_pDevice@D3DTech@Ogre@@2PAUIDirect3DDevice9@@A ; Ogre::D3DTech::m_pDevice
	mov	edx, DWORD PTR [ecx]
	mov	eax, DWORD PTR ?m_pDevice@D3DTech@Ogre@@2PAUIDirect3DDevice9@@A ; Ogre::D3DTech::m_pDevice
	push	eax
	mov	ecx, DWORD PTR [edx+276]
	call	ecx

; 95   : 				m_pDevice->SetSamplerState(3, D3DSAMP_MIPFILTER, D3DTEXF_LINEAR);

	push	2
	push	7
	push	3
	mov	edx, DWORD PTR ?m_pDevice@D3DTech@Ogre@@2PAUIDirect3DDevice9@@A ; Ogre::D3DTech::m_pDevice
	mov	eax, DWORD PTR [edx]
	mov	ecx, DWORD PTR ?m_pDevice@D3DTech@Ogre@@2PAUIDirect3DDevice9@@A ; Ogre::D3DTech::m_pDevice
	push	ecx
	mov	edx, DWORD PTR [eax+276]
	call	edx

; 96   : 			}
; 97   : 			//if(m_TerrainLayers > 3)
; 98   : 			{
; 99   : 				SamplerState_Wrap(m_pDevice, 4);

	push	4
	mov	eax, DWORD PTR ?m_pDevice@D3DTech@Ogre@@2PAUIDirect3DDevice9@@A ; Ogre::D3DTech::m_pDevice
	push	eax
	call	?SamplerState_Wrap@Ogre@@YAXPAUIDirect3DDevice9@@H@Z ; Ogre::SamplerState_Wrap
	add	esp, 8

; 100  : 				m_pDevice->SetSamplerState(4, D3DSAMP_MIPMAPLODBIAS, LOD_BIAS);

	mov	ecx, DWORD PTR _LOD_BIAS$[ebp]
	push	ecx
	push	8
	push	4
	mov	edx, DWORD PTR ?m_pDevice@D3DTech@Ogre@@2PAUIDirect3DDevice9@@A ; Ogre::D3DTech::m_pDevice
	mov	eax, DWORD PTR [edx]
	mov	ecx, DWORD PTR ?m_pDevice@D3DTech@Ogre@@2PAUIDirect3DDevice9@@A ; Ogre::D3DTech::m_pDevice
	push	ecx
	mov	edx, DWORD PTR [eax+276]
	call	edx

; 101  : 				m_pDevice->SetSamplerState(4, D3DSAMP_MIPFILTER, D3DTEXF_LINEAR);

	push	2
	push	7
	push	4
	mov	eax, DWORD PTR ?m_pDevice@D3DTech@Ogre@@2PAUIDirect3DDevice9@@A ; Ogre::D3DTech::m_pDevice
	mov	ecx, DWORD PTR [eax]
	mov	edx, DWORD PTR ?m_pDevice@D3DTech@Ogre@@2PAUIDirect3DDevice9@@A ; Ogre::D3DTech::m_pDevice
	push	edx
	mov	eax, DWORD PTR [ecx+276]
	call	eax

; 102  : 			}
; 103  : 
; 104  : 			SamplerState_Clamp(m_pDevice, 6);

	push	6
	mov	ecx, DWORD PTR ?m_pDevice@D3DTech@Ogre@@2PAUIDirect3DDevice9@@A ; Ogre::D3DTech::m_pDevice
	push	ecx
	call	?SamplerState_Clamp@Ogre@@YAXPAUIDirect3DDevice9@@H@Z ; Ogre::SamplerState_Clamp
	add	esp, 8

; 105  : 			m_pDevice->SetSamplerState(6, D3DSAMP_MIPMAPLODBIAS, LOD_BIAS);

	mov	edx, DWORD PTR _LOD_BIAS$[ebp]
	push	edx
	push	8
	push	6
	mov	eax, DWORD PTR ?m_pDevice@D3DTech@Ogre@@2PAUIDirect3DDevice9@@A ; Ogre::D3DTech::m_pDevice
	mov	ecx, DWORD PTR [eax]
	mov	edx, DWORD PTR ?m_pDevice@D3DTech@Ogre@@2PAUIDirect3DDevice9@@A ; Ogre::D3DTech::m_pDevice
	push	edx
	mov	eax, DWORD PTR [ecx+276]
	call	eax

; 106  : 			m_pDevice->SetSamplerState(6, D3DSAMP_MIPFILTER, D3DTEXF_LINEAR);

	push	2
	push	7
	push	6
	mov	ecx, DWORD PTR ?m_pDevice@D3DTech@Ogre@@2PAUIDirect3DDevice9@@A ; Ogre::D3DTech::m_pDevice
	mov	edx, DWORD PTR [ecx]
	mov	eax, DWORD PTR ?m_pDevice@D3DTech@Ogre@@2PAUIDirect3DDevice9@@A ; Ogre::D3DTech::m_pDevice
	push	eax
	mov	ecx, DWORD PTR [edx+276]
	call	ecx

; 107  : 
; 108  : 			applyVSPS(m_CurPass);

	mov	edx, DWORD PTR _this$[ebp]
	mov	eax, DWORD PTR [edx+192]
	push	eax
	mov	ecx, DWORD PTR _this$[ebp]
	call	?applyVSPS@D3DTech@Ogre@@IAEXI@Z	; Ogre::D3DTech::applyVSPS

; 109  : 		}

	mov	esp, ebp
	pop	ebp
	ret	4
?beginPass@D3DTech_terrain_all_lod0@Ogre@@UAEXI@Z ENDP	; Ogre::D3DTech_terrain_all_lod0::beginPass
; Function compile flags: /Odtp
_TEXT	ENDS
;	COMDAT ?endPass@D3DTech_terrain_all_lod0@Ogre@@UAEXXZ
_TEXT	SEGMENT
_this$ = -4						; size = 4
?endPass@D3DTech_terrain_all_lod0@Ogre@@UAEXXZ PROC	; Ogre::D3DTech_terrain_all_lod0::endPass, COMDAT
; _this$ = ecx

; 111  : 		{

	push	ebp
	mov	ebp, esp
	push	ecx
	mov	DWORD PTR _this$[ebp], ecx

; 112  : 			m_pDevice->SetSamplerState(0, D3DSAMP_MIPMAPLODBIAS, 0);

	push	0
	push	8
	push	0
	mov	eax, DWORD PTR ?m_pDevice@D3DTech@Ogre@@2PAUIDirect3DDevice9@@A ; Ogre::D3DTech::m_pDevice
	mov	ecx, DWORD PTR [eax]
	mov	edx, DWORD PTR ?m_pDevice@D3DTech@Ogre@@2PAUIDirect3DDevice9@@A ; Ogre::D3DTech::m_pDevice
	push	edx
	mov	eax, DWORD PTR [ecx+276]
	call	eax

; 113  : 			if(m_TerrainLayers > 1)

	mov	ecx, DWORD PTR _this$[ebp]
	movzx	edx, BYTE PTR [ecx+392]
	cmp	edx, 1
	jle	SHORT $LN3@endPass@3

; 114  : 			{
; 115  : 				m_pDevice->SetSamplerState(2, D3DSAMP_MIPMAPLODBIAS, 0);

	push	0
	push	8
	push	2
	mov	eax, DWORD PTR ?m_pDevice@D3DTech@Ogre@@2PAUIDirect3DDevice9@@A ; Ogre::D3DTech::m_pDevice
	mov	ecx, DWORD PTR [eax]
	mov	edx, DWORD PTR ?m_pDevice@D3DTech@Ogre@@2PAUIDirect3DDevice9@@A ; Ogre::D3DTech::m_pDevice
	push	edx
	mov	eax, DWORD PTR [ecx+276]
	call	eax
$LN3@endPass@3:

; 116  : 			}
; 117  : 			if(m_TerrainLayers > 2)

	mov	ecx, DWORD PTR _this$[ebp]
	movzx	edx, BYTE PTR [ecx+392]
	cmp	edx, 2
	jle	SHORT $LN2@endPass@3

; 118  : 			{
; 119  : 				m_pDevice->SetSamplerState(3, D3DSAMP_MIPMAPLODBIAS, 0);

	push	0
	push	8
	push	3
	mov	eax, DWORD PTR ?m_pDevice@D3DTech@Ogre@@2PAUIDirect3DDevice9@@A ; Ogre::D3DTech::m_pDevice
	mov	ecx, DWORD PTR [eax]
	mov	edx, DWORD PTR ?m_pDevice@D3DTech@Ogre@@2PAUIDirect3DDevice9@@A ; Ogre::D3DTech::m_pDevice
	push	edx
	mov	eax, DWORD PTR [ecx+276]
	call	eax
$LN2@endPass@3:

; 120  : 			}
; 121  : 			if(m_TerrainLayers > 3)

	mov	ecx, DWORD PTR _this$[ebp]
	movzx	edx, BYTE PTR [ecx+392]
	cmp	edx, 3
	jle	SHORT $LN1@endPass@3

; 122  : 			{
; 123  : 				m_pDevice->SetSamplerState(4, D3DSAMP_MIPMAPLODBIAS, 0);

	push	0
	push	8
	push	4
	mov	eax, DWORD PTR ?m_pDevice@D3DTech@Ogre@@2PAUIDirect3DDevice9@@A ; Ogre::D3DTech::m_pDevice
	mov	ecx, DWORD PTR [eax]
	mov	edx, DWORD PTR ?m_pDevice@D3DTech@Ogre@@2PAUIDirect3DDevice9@@A ; Ogre::D3DTech::m_pDevice
	push	edx
	mov	eax, DWORD PTR [ecx+276]
	call	eax
$LN1@endPass@3:

; 124  : 			}
; 125  : 
; 126  : 			m_pDevice->SetSamplerState(6, D3DSAMP_MIPMAPLODBIAS, 0);

	push	0
	push	8
	push	6
	mov	ecx, DWORD PTR ?m_pDevice@D3DTech@Ogre@@2PAUIDirect3DDevice9@@A ; Ogre::D3DTech::m_pDevice
	mov	edx, DWORD PTR [ecx]
	mov	eax, DWORD PTR ?m_pDevice@D3DTech@Ogre@@2PAUIDirect3DDevice9@@A ; Ogre::D3DTech::m_pDevice
	push	eax
	mov	ecx, DWORD PTR [edx+276]
	call	ecx

; 127  : 
; 128  : 			m_pDevice->SetTexture(0, 0); // 

	push	0
	push	0
	mov	edx, DWORD PTR ?m_pDevice@D3DTech@Ogre@@2PAUIDirect3DDevice9@@A ; Ogre::D3DTech::m_pDevice
	mov	eax, DWORD PTR [edx]
	mov	ecx, DWORD PTR ?m_pDevice@D3DTech@Ogre@@2PAUIDirect3DDevice9@@A ; Ogre::D3DTech::m_pDevice
	push	ecx
	mov	edx, DWORD PTR [eax+260]
	call	edx

; 129  : 			m_pDevice->SetTexture(1, 0); // 

	push	0
	push	1
	mov	eax, DWORD PTR ?m_pDevice@D3DTech@Ogre@@2PAUIDirect3DDevice9@@A ; Ogre::D3DTech::m_pDevice
	mov	ecx, DWORD PTR [eax]
	mov	edx, DWORD PTR ?m_pDevice@D3DTech@Ogre@@2PAUIDirect3DDevice9@@A ; Ogre::D3DTech::m_pDevice
	push	edx
	mov	eax, DWORD PTR [ecx+260]
	call	eax

; 130  : 			m_pDevice->SetTexture(2, 0); // 

	push	0
	push	2
	mov	ecx, DWORD PTR ?m_pDevice@D3DTech@Ogre@@2PAUIDirect3DDevice9@@A ; Ogre::D3DTech::m_pDevice
	mov	edx, DWORD PTR [ecx]
	mov	eax, DWORD PTR ?m_pDevice@D3DTech@Ogre@@2PAUIDirect3DDevice9@@A ; Ogre::D3DTech::m_pDevice
	push	eax
	mov	ecx, DWORD PTR [edx+260]
	call	ecx

; 131  : 			m_pDevice->SetTexture(3, 0); // 

	push	0
	push	3
	mov	edx, DWORD PTR ?m_pDevice@D3DTech@Ogre@@2PAUIDirect3DDevice9@@A ; Ogre::D3DTech::m_pDevice
	mov	eax, DWORD PTR [edx]
	mov	ecx, DWORD PTR ?m_pDevice@D3DTech@Ogre@@2PAUIDirect3DDevice9@@A ; Ogre::D3DTech::m_pDevice
	push	ecx
	mov	edx, DWORD PTR [eax+260]
	call	edx

; 132  : 			m_pDevice->SetTexture(4, 0); // 

	push	0
	push	4
	mov	eax, DWORD PTR ?m_pDevice@D3DTech@Ogre@@2PAUIDirect3DDevice9@@A ; Ogre::D3DTech::m_pDevice
	mov	ecx, DWORD PTR [eax]
	mov	edx, DWORD PTR ?m_pDevice@D3DTech@Ogre@@2PAUIDirect3DDevice9@@A ; Ogre::D3DTech::m_pDevice
	push	edx
	mov	eax, DWORD PTR [ecx+260]
	call	eax

; 133  : 			m_pDevice->SetTexture(5, 0); // 

	push	0
	push	5
	mov	ecx, DWORD PTR ?m_pDevice@D3DTech@Ogre@@2PAUIDirect3DDevice9@@A ; Ogre::D3DTech::m_pDevice
	mov	edx, DWORD PTR [ecx]
	mov	eax, DWORD PTR ?m_pDevice@D3DTech@Ogre@@2PAUIDirect3DDevice9@@A ; Ogre::D3DTech::m_pDevice
	push	eax
	mov	ecx, DWORD PTR [edx+260]
	call	ecx

; 134  : 			m_pDevice->SetTexture(6, 0); // 

	push	0
	push	6
	mov	edx, DWORD PTR ?m_pDevice@D3DTech@Ogre@@2PAUIDirect3DDevice9@@A ; Ogre::D3DTech::m_pDevice
	mov	eax, DWORD PTR [edx]
	mov	ecx, DWORD PTR ?m_pDevice@D3DTech@Ogre@@2PAUIDirect3DDevice9@@A ; Ogre::D3DTech::m_pDevice
	push	ecx
	mov	edx, DWORD PTR [eax+260]
	call	edx

; 135  : 		}

	mov	esp, ebp
	pop	ebp
	ret	0
?endPass@D3DTech_terrain_all_lod0@Ogre@@UAEXXZ ENDP	; Ogre::D3DTech_terrain_all_lod0::endPass
_TEXT	ENDS
PUBLIC	??1D3DTech_terrain_all_lod0@Ogre@@UAE@XZ	; Ogre::D3DTech_terrain_all_lod0::~D3DTech_terrain_all_lod0
; Function compile flags: /Odtp
;	COMDAT ??_GD3DTech_terrain_all_lod0@Ogre@@UAEPAXI@Z
_TEXT	SEGMENT
_this$ = -4						; size = 4
___flags$ = 8						; size = 4
??_GD3DTech_terrain_all_lod0@Ogre@@UAEPAXI@Z PROC	; Ogre::D3DTech_terrain_all_lod0::`scalar deleting destructor', COMDAT
; _this$ = ecx
	push	ebp
	mov	ebp, esp
	push	ecx
	mov	DWORD PTR _this$[ebp], ecx
	mov	ecx, DWORD PTR _this$[ebp]
	call	??1D3DTech_terrain_all_lod0@Ogre@@UAE@XZ
	mov	eax, DWORD PTR ___flags$[ebp]
	and	eax, 1
	je	SHORT $LN1@scalar@17
	mov	ecx, DWORD PTR _this$[ebp]
	push	ecx
	call	??3@YAXPAX@Z				; operator delete
	add	esp, 4
$LN1@scalar@17:
	mov	eax, DWORD PTR _this$[ebp]
	mov	esp, ebp
	pop	ebp
	ret	4
??_GD3DTech_terrain_all_lod0@Ogre@@UAEPAXI@Z ENDP	; Ogre::D3DTech_terrain_all_lod0::`scalar deleting destructor'
_TEXT	ENDS
;	COMDAT xdata$x
xdata$x	SEGMENT
__unwindtable$??1D3DTech_terrain_all_lod0@Ogre@@UAE@XZ DD 0ffffffffH
	DD	FLAT:__unwindfunclet$??1D3DTech_terrain_all_lod0@Ogre@@UAE@XZ$0
__ehfuncinfo$??1D3DTech_terrain_all_lod0@Ogre@@UAE@XZ DD 019930522H
	DD	01H
	DD	FLAT:__unwindtable$??1D3DTech_terrain_all_lod0@Ogre@@UAE@XZ
	DD	2 DUP(00H)
	DD	2 DUP(00H)
	DD	00H
	DD	00H
; Function compile flags: /Odtp
xdata$x	ENDS
;	COMDAT ??1D3DTech_terrain_all_lod0@Ogre@@UAE@XZ
_TEXT	SEGMENT
_this$ = -16						; size = 4
__$EHRec$ = -12						; size = 12
??1D3DTech_terrain_all_lod0@Ogre@@UAE@XZ PROC		; Ogre::D3DTech_terrain_all_lod0::~D3DTech_terrain_all_lod0, COMDAT
; _this$ = ecx
	push	ebp
	mov	ebp, esp
	push	-1
	push	__ehhandler$??1D3DTech_terrain_all_lod0@Ogre@@UAE@XZ
	mov	eax, DWORD PTR fs:0
	push	eax
	push	ecx
	mov	eax, DWORD PTR ___security_cookie
	xor	eax, ebp
	push	eax
	lea	eax, DWORD PTR __$EHRec$[ebp]
	mov	DWORD PTR fs:0, eax
	mov	DWORD PTR _this$[ebp], ecx
	mov	DWORD PTR __$EHRec$[ebp+8], 0
	mov	DWORD PTR __$EHRec$[ebp+8], -1
	mov	ecx, DWORD PTR _this$[ebp]
	call	??1D3DTech@Ogre@@UAE@XZ
	mov	ecx, DWORD PTR __$EHRec$[ebp]
	mov	DWORD PTR fs:0, ecx
	pop	ecx
	mov	esp, ebp
	pop	ebp
	ret	0
_TEXT	ENDS
;	COMDAT text$x
text$x	SEGMENT
__unwindfunclet$??1D3DTech_terrain_all_lod0@Ogre@@UAE@XZ$0:
	mov	ecx, DWORD PTR _this$[ebp]
	jmp	??1D3DTech@Ogre@@UAE@XZ
__ehhandler$??1D3DTech_terrain_all_lod0@Ogre@@UAE@XZ:
	mov	edx, DWORD PTR [esp+8]
	lea	eax, DWORD PTR [edx+12]
	mov	ecx, DWORD PTR [edx-8]
	xor	ecx, eax
	call	@__security_check_cookie@4
	mov	eax, OFFSET __ehfuncinfo$??1D3DTech_terrain_all_lod0@Ogre@@UAE@XZ
	jmp	___CxxFrameHandler3
text$x	ENDS
??1D3DTech_terrain_all_lod0@Ogre@@UAE@XZ ENDP		; Ogre::D3DTech_terrain_all_lod0::~D3DTech_terrain_all_lod0
PUBLIC	??_7D3DTech_terrain_colormask_lod0@Ogre@@6B@	; Ogre::D3DTech_terrain_colormask_lod0::`vftable'
PUBLIC	??_R4D3DTech_terrain_colormask_lod0@Ogre@@6B@	; Ogre::D3DTech_terrain_colormask_lod0::`RTTI Complete Object Locator'
PUBLIC	??_R0?AVD3DTech_terrain_colormask_lod0@Ogre@@@8	; Ogre::D3DTech_terrain_colormask_lod0 `RTTI Type Descriptor'
PUBLIC	??_R3D3DTech_terrain_colormask_lod0@Ogre@@8	; Ogre::D3DTech_terrain_colormask_lod0::`RTTI Class Hierarchy Descriptor'
PUBLIC	??_R2D3DTech_terrain_colormask_lod0@Ogre@@8	; Ogre::D3DTech_terrain_colormask_lod0::`RTTI Base Class Array'
PUBLIC	??_R1A@?0A@EA@D3DTech_terrain_colormask_lod0@Ogre@@8 ; Ogre::D3DTech_terrain_colormask_lod0::`RTTI Base Class Descriptor at (0,-1,0,64)'
PUBLIC	?beginPass@D3DTech_terrain_colormask_lod0@Ogre@@UAEXI@Z ; Ogre::D3DTech_terrain_colormask_lod0::beginPass
PUBLIC	?endPass@D3DTech_terrain_colormask_lod0@Ogre@@UAEXXZ ; Ogre::D3DTech_terrain_colormask_lod0::endPass
PUBLIC	?clone@D3DTech_terrain_colormask_lod0@Ogre@@UAEPAVD3DTech@2@XZ ; Ogre::D3DTech_terrain_colormask_lod0::clone
PUBLIC	?init@D3DTech_terrain_colormask_lod0@Ogre@@UAEXABUShaderEnvFlags@2@ABUMaterialMacro@2@@Z ; Ogre::D3DTech_terrain_colormask_lod0::init
EXTRN	??_ED3DTech_terrain_colormask_lod0@Ogre@@UAEPAXI@Z:PROC ; Ogre::D3DTech_terrain_colormask_lod0::`vector deleting destructor'
;	COMDAT ??_R1A@?0A@EA@D3DTech_terrain_colormask_lod0@Ogre@@8
rdata$r	SEGMENT
??_R1A@?0A@EA@D3DTech_terrain_colormask_lod0@Ogre@@8 DD FLAT:??_R0?AVD3DTech_terrain_colormask_lod0@Ogre@@@8 ; Ogre::D3DTech_terrain_colormask_lod0::`RTTI Base Class Descriptor at (0,-1,0,64)'
	DD	02H
	DD	00H
	DD	0ffffffffH
	DD	00H
	DD	040H
	DD	FLAT:??_R3D3DTech_terrain_colormask_lod0@Ogre@@8
rdata$r	ENDS
;	COMDAT ??_R2D3DTech_terrain_colormask_lod0@Ogre@@8
rdata$r	SEGMENT
??_R2D3DTech_terrain_colormask_lod0@Ogre@@8 DD FLAT:??_R1A@?0A@EA@D3DTech_terrain_colormask_lod0@Ogre@@8 ; Ogre::D3DTech_terrain_colormask_lod0::`RTTI Base Class Array'
	DD	FLAT:??_R1A@?0A@EA@D3DTech@Ogre@@8
	DD	FLAT:??_R1A@?0A@EA@ShaderTechnique@Ogre@@8
rdata$r	ENDS
;	COMDAT ??_R3D3DTech_terrain_colormask_lod0@Ogre@@8
rdata$r	SEGMENT
??_R3D3DTech_terrain_colormask_lod0@Ogre@@8 DD 00H	; Ogre::D3DTech_terrain_colormask_lod0::`RTTI Class Hierarchy Descriptor'
	DD	00H
	DD	03H
	DD	FLAT:??_R2D3DTech_terrain_colormask_lod0@Ogre@@8
rdata$r	ENDS
;	COMDAT ??_R0?AVD3DTech_terrain_colormask_lod0@Ogre@@@8
_DATA	SEGMENT
??_R0?AVD3DTech_terrain_colormask_lod0@Ogre@@@8 DD FLAT:??_7type_info@@6B@ ; Ogre::D3DTech_terrain_colormask_lod0 `RTTI Type Descriptor'
	DD	00H
	DB	'.?AVD3DTech_terrain_colormask_lod0@Ogre@@', 00H
_DATA	ENDS
;	COMDAT ??_R4D3DTech_terrain_colormask_lod0@Ogre@@6B@
rdata$r	SEGMENT
??_R4D3DTech_terrain_colormask_lod0@Ogre@@6B@ DD 00H	; Ogre::D3DTech_terrain_colormask_lod0::`RTTI Complete Object Locator'
	DD	00H
	DD	00H
	DD	FLAT:??_R0?AVD3DTech_terrain_colormask_lod0@Ogre@@@8
	DD	FLAT:??_R3D3DTech_terrain_colormask_lod0@Ogre@@8
rdata$r	ENDS
;	COMDAT ??_7D3DTech_terrain_colormask_lod0@Ogre@@6B@
CONST	SEGMENT
??_7D3DTech_terrain_colormask_lod0@Ogre@@6B@ DD FLAT:??_R4D3DTech_terrain_colormask_lod0@Ogre@@6B@ ; Ogre::D3DTech_terrain_colormask_lod0::`vftable'
	DD	FLAT:?begin@D3DTech@Ogre@@UAEIXZ
	DD	FLAT:?end@D3DTech@Ogre@@UAEXXZ
	DD	FLAT:?beginPass@D3DTech_terrain_colormask_lod0@Ogre@@UAEXI@Z
	DD	FLAT:?endPass@D3DTech_terrain_colormask_lod0@Ogre@@UAEXXZ
	DD	FLAT:?setConstant@D3DTech@Ogre@@UAEXW4ShaderParamUsage@2@PBXI@Z
	DD	FLAT:?setConstant@D3DTech@Ogre@@UAEXPBDPBXI@Z
	DD	FLAT:?setTexture@D3DTech@Ogre@@UAEXW4ShaderParamUsage@2@PAVHardwarePixelBuffer@2@@Z
	DD	FLAT:?setTexture@D3DTech@Ogre@@UAEXPBDPAVHardwarePixelBuffer@2@@Z
	DD	FLAT:?setStreamInput@D3DTech@Ogre@@UAEXIPAPAVHardwareVertexBuffer@2@HPAI@Z
	DD	FLAT:?setStreamInput@D3DTech@Ogre@@UAEXIPAVHardwareVertexBuffer@2@I@Z
	DD	FLAT:?setStreamInput@D3DTech@Ogre@@UAEXIPAPAVHardwareVertexBuffer@2@PAI@Z
	DD	FLAT:?commitChanges@D3DTech@Ogre@@UAEXXZ
	DD	FLAT:?draw@D3DTech@Ogre@@UAEXW4PrimitiveType@2@IIPAVHardwareIndexBuffer@2@II@Z
	DD	FLAT:?draw@D3DTech@Ogre@@UAEXW4PrimitiveType@2@II@Z
	DD	FLAT:?getRequiredParams@D3DTech@Ogre@@UAEIPAW4ShaderParamUsage@2@I@Z
	DD	FLAT:??_ED3DTech_terrain_colormask_lod0@Ogre@@UAEPAXI@Z
	DD	FLAT:?clone@D3DTech_terrain_colormask_lod0@Ogre@@UAEPAVD3DTech@2@XZ
	DD	FLAT:?init@D3DTech_terrain_colormask_lod0@Ogre@@UAEXABUShaderEnvFlags@2@ABUMaterialMacro@2@@Z
CONST	ENDS
;	COMDAT xdata$x
xdata$x	SEGMENT
__unwindtable$??0D3DTech_terrain_colormask_lod0@Ogre@@QAE@XZ DD 0ffffffffH
	DD	FLAT:__unwindfunclet$??0D3DTech_terrain_colormask_lod0@Ogre@@QAE@XZ$0
__ehfuncinfo$??0D3DTech_terrain_colormask_lod0@Ogre@@QAE@XZ DD 019930522H
	DD	01H
	DD	FLAT:__unwindtable$??0D3DTech_terrain_colormask_lod0@Ogre@@QAE@XZ
	DD	2 DUP(00H)
	DD	2 DUP(00H)
	DD	00H
	DD	00H
; Function compile flags: /Odtp
xdata$x	ENDS
;	COMDAT ??0D3DTech_terrain_colormask_lod0@Ogre@@QAE@XZ
_TEXT	SEGMENT
_this$ = -16						; size = 4
__$EHRec$ = -12						; size = 12
??0D3DTech_terrain_colormask_lod0@Ogre@@QAE@XZ PROC	; Ogre::D3DTech_terrain_colormask_lod0::D3DTech_terrain_colormask_lod0, COMDAT
; _this$ = ecx
	push	ebp
	mov	ebp, esp
	push	-1
	push	__ehhandler$??0D3DTech_terrain_colormask_lod0@Ogre@@QAE@XZ
	mov	eax, DWORD PTR fs:0
	push	eax
	push	ecx
	mov	eax, DWORD PTR ___security_cookie
	xor	eax, ebp
	push	eax
	lea	eax, DWORD PTR __$EHRec$[ebp]
	mov	DWORD PTR fs:0, eax
	mov	DWORD PTR _this$[ebp], ecx
	mov	ecx, DWORD PTR _this$[ebp]
	call	??0D3DTech@Ogre@@QAE@XZ			; Ogre::D3DTech::D3DTech
	mov	DWORD PTR __$EHRec$[ebp+8], 0
	mov	eax, DWORD PTR _this$[ebp]
	mov	DWORD PTR [eax], OFFSET ??_7D3DTech_terrain_colormask_lod0@Ogre@@6B@
	mov	DWORD PTR __$EHRec$[ebp+8], -1
	mov	eax, DWORD PTR _this$[ebp]
	mov	ecx, DWORD PTR __$EHRec$[ebp]
	mov	DWORD PTR fs:0, ecx
	pop	ecx
	mov	esp, ebp
	pop	ebp
	ret	0
_TEXT	ENDS
;	COMDAT text$x
text$x	SEGMENT
__unwindfunclet$??0D3DTech_terrain_colormask_lod0@Ogre@@QAE@XZ$0:
	mov	ecx, DWORD PTR _this$[ebp]
	jmp	??1D3DTech@Ogre@@UAE@XZ
__ehhandler$??0D3DTech_terrain_colormask_lod0@Ogre@@QAE@XZ:
	mov	edx, DWORD PTR [esp+8]
	lea	eax, DWORD PTR [edx+12]
	mov	ecx, DWORD PTR [edx-8]
	xor	ecx, eax
	call	@__security_check_cookie@4
	mov	eax, OFFSET __ehfuncinfo$??0D3DTech_terrain_colormask_lod0@Ogre@@QAE@XZ
	jmp	___CxxFrameHandler3
text$x	ENDS
??0D3DTech_terrain_colormask_lod0@Ogre@@QAE@XZ ENDP	; Ogre::D3DTech_terrain_colormask_lod0::D3DTech_terrain_colormask_lod0
;	COMDAT xdata$x
; File i:\svnroot\client\plugins\rendersystem_d3d9\ogred3d9tech_terrain_colormask.h
xdata$x	SEGMENT
__unwindtable$?clone@D3DTech_terrain_colormask_lod0@Ogre@@UAEPAVD3DTech@2@XZ DD 0ffffffffH
	DD	FLAT:__unwindfunclet$?clone@D3DTech_terrain_colormask_lod0@Ogre@@UAEPAVD3DTech@2@XZ$0
__ehfuncinfo$?clone@D3DTech_terrain_colormask_lod0@Ogre@@UAEPAVD3DTech@2@XZ DD 019930522H
	DD	01H
	DD	FLAT:__unwindtable$?clone@D3DTech_terrain_colormask_lod0@Ogre@@UAEPAVD3DTech@2@XZ
	DD	2 DUP(00H)
	DD	2 DUP(00H)
	DD	00H
	DD	00H
; Function compile flags: /Odtp
xdata$x	ENDS
;	COMDAT ?clone@D3DTech_terrain_colormask_lod0@Ogre@@UAEPAVD3DTech@2@XZ
_TEXT	SEGMENT
tv74 = -28						; size = 4
_this$ = -24						; size = 4
$T140153 = -20						; size = 4
$T140152 = -16						; size = 4
__$EHRec$ = -12						; size = 12
?clone@D3DTech_terrain_colormask_lod0@Ogre@@UAEPAVD3DTech@2@XZ PROC ; Ogre::D3DTech_terrain_colormask_lod0::clone, COMDAT
; _this$ = ecx

; 13   : 		{

	push	ebp
	mov	ebp, esp
	push	-1
	push	__ehhandler$?clone@D3DTech_terrain_colormask_lod0@Ogre@@UAEPAVD3DTech@2@XZ
	mov	eax, DWORD PTR fs:0
	push	eax
	sub	esp, 16					; 00000010H
	mov	eax, DWORD PTR ___security_cookie
	xor	eax, ebp
	push	eax
	lea	eax, DWORD PTR __$EHRec$[ebp]
	mov	DWORD PTR fs:0, eax
	mov	DWORD PTR _this$[ebp], ecx

; 14   : 			return new D3DTech_terrain_colormask_lod0;

	push	392					; 00000188H
	call	??2@YAPAXI@Z				; operator new
	add	esp, 4
	mov	DWORD PTR $T140153[ebp], eax
	mov	DWORD PTR __$EHRec$[ebp+8], 0
	cmp	DWORD PTR $T140153[ebp], 0
	je	SHORT $LN3@clone@17
	mov	ecx, DWORD PTR $T140153[ebp]
	call	??0D3DTech_terrain_colormask_lod0@Ogre@@QAE@XZ
	mov	DWORD PTR tv74[ebp], eax
	jmp	SHORT $LN4@clone@17
$LN3@clone@17:
	mov	DWORD PTR tv74[ebp], 0
$LN4@clone@17:
	mov	eax, DWORD PTR tv74[ebp]
	mov	DWORD PTR $T140152[ebp], eax
	mov	DWORD PTR __$EHRec$[ebp+8], -1
	mov	eax, DWORD PTR $T140152[ebp]

; 15   : 		}

	mov	ecx, DWORD PTR __$EHRec$[ebp]
	mov	DWORD PTR fs:0, ecx
	pop	ecx
	mov	esp, ebp
	pop	ebp
	ret	0
_TEXT	ENDS
;	COMDAT text$x
text$x	SEGMENT
__unwindfunclet$?clone@D3DTech_terrain_colormask_lod0@Ogre@@UAEPAVD3DTech@2@XZ$0:
	mov	eax, DWORD PTR $T140153[ebp]
	push	eax
	call	??3@YAXPAX@Z				; operator delete
	pop	ecx
	ret	0
__ehhandler$?clone@D3DTech_terrain_colormask_lod0@Ogre@@UAEPAVD3DTech@2@XZ:
	mov	edx, DWORD PTR [esp+8]
	lea	eax, DWORD PTR [edx+12]
	mov	ecx, DWORD PTR [edx-20]
	xor	ecx, eax
	call	@__security_check_cookie@4
	mov	eax, OFFSET __ehfuncinfo$?clone@D3DTech_terrain_colormask_lod0@Ogre@@UAEPAVD3DTech@2@XZ
	jmp	___CxxFrameHandler3
text$x	ENDS
?clone@D3DTech_terrain_colormask_lod0@Ogre@@UAEPAVD3DTech@2@XZ ENDP ; Ogre::D3DTech_terrain_colormask_lod0::clone
; Function compile flags: /Odtp
;	COMDAT ?init@D3DTech_terrain_colormask_lod0@Ogre@@UAEXABUShaderEnvFlags@2@ABUMaterialMacro@2@@Z
_TEXT	SEGMENT
_this$ = -4						; size = 4
_env$ = 8						; size = 4
_macros$ = 12						; size = 4
?init@D3DTech_terrain_colormask_lod0@Ogre@@UAEXABUShaderEnvFlags@2@ABUMaterialMacro@2@@Z PROC ; Ogre::D3DTech_terrain_colormask_lod0::init, COMDAT
; _this$ = ecx

; 18   : 		{

	push	ebp
	mov	ebp, esp
	push	ecx
	mov	DWORD PTR _this$[ebp], ecx

; 19   : 			m_nPass = 1;

	mov	eax, DWORD PTR _this$[ebp]
	mov	DWORD PTR [eax+188], 1

; 20   : 			m_AllPass[0].vs = m_pMtlTemplate->getCompiledVSPS(COMPILED_VS, "Main", env, macros);

	mov	ecx, DWORD PTR _macros$[ebp]
	push	ecx
	mov	edx, DWORD PTR _env$[ebp]
	push	edx
	push	OFFSET ??_C@_04KGFMLCPK@Main?$AA@
	push	1
	mov	eax, DWORD PTR _this$[ebp]
	mov	ecx, DWORD PTR [eax+8]
	call	?getCompiledVSPS@D3DMaterialTemplate@Ogre@@QAEPAVCompiledShader@2@W4COMPILED_TYPE@2@PBDABUShaderEnvFlags@2@ABUMaterialMacro@2@@Z ; Ogre::D3DMaterialTemplate::getCompiledVSPS
	mov	ecx, DWORD PTR _this$[ebp]
	mov	DWORD PTR [ecx+12], eax

; 21   : 			m_AllPass[0].ps = m_pMtlTemplate->getCompiledVSPS(COMPILED_PS, "Main", env, macros);

	mov	edx, DWORD PTR _macros$[ebp]
	push	edx
	mov	eax, DWORD PTR _env$[ebp]
	push	eax
	push	OFFSET ??_C@_04KGFMLCPK@Main?$AA@
	push	2
	mov	ecx, DWORD PTR _this$[ebp]
	mov	ecx, DWORD PTR [ecx+8]
	call	?getCompiledVSPS@D3DMaterialTemplate@Ogre@@QAEPAVCompiledShader@2@W4COMPILED_TYPE@2@PBDABUShaderEnvFlags@2@ABUMaterialMacro@2@@Z ; Ogre::D3DMaterialTemplate::getCompiledVSPS
	mov	edx, DWORD PTR _this$[ebp]
	mov	DWORD PTR [edx+16], eax

; 22   : 
; 23   : 			m_AllPass[0].ntex = 1;

	mov	eax, DWORD PTR _this$[ebp]
	mov	DWORD PTR [eax+20], 1

; 24   : 			m_AllPass[0].texstage[0] = SPU_GENERAL_PARAM + 0; //g_ColorMaskTex

	mov	ecx, DWORD PTR _this$[ebp]
	mov	DWORD PTR [ecx+24], 1000		; 000003e8H

; 25   : 
; 26   : 			initParams();

	mov	ecx, DWORD PTR _this$[ebp]
	call	?initParams@D3DTech@Ogre@@IAEXXZ	; Ogre::D3DTech::initParams

; 27   : 			m_UsedMacroMask = 0;

	mov	edx, DWORD PTR _this$[ebp]
	mov	DWORD PTR [edx+4], 0

; 28   : 		}

	mov	esp, ebp
	pop	ebp
	ret	8
?init@D3DTech_terrain_colormask_lod0@Ogre@@UAEXABUShaderEnvFlags@2@ABUMaterialMacro@2@@Z ENDP ; Ogre::D3DTech_terrain_colormask_lod0::init
; Function compile flags: /Odtp
_TEXT	ENDS
;	COMDAT ?beginPass@D3DTech_terrain_colormask_lod0@Ogre@@UAEXI@Z
_TEXT	SEGMENT
_this$ = -4						; size = 4
_ipass$ = 8						; size = 4
?beginPass@D3DTech_terrain_colormask_lod0@Ogre@@UAEXI@Z PROC ; Ogre::D3DTech_terrain_colormask_lod0::beginPass, COMDAT
; _this$ = ecx

; 31   : 		{

	push	ebp
	mov	ebp, esp
	push	ecx
	mov	DWORD PTR _this$[ebp], ecx

; 32   : 			m_CurPass = ipass;

	mov	eax, DWORD PTR _this$[ebp]
	mov	ecx, DWORD PTR _ipass$[ebp]
	mov	DWORD PTR [eax+192], ecx

; 33   : 
; 34   : 			SetBlendState(m_pDevice, BLEND_ALPHABLEND);

	push	-1
	push	2
	mov	edx, DWORD PTR ?m_pDevice@D3DTech@Ogre@@2PAUIDirect3DDevice9@@A ; Ogre::D3DTech::m_pDevice
	push	edx
	call	?SetBlendState@Ogre@@YAXPAUIDirect3DDevice9@@HH@Z ; Ogre::SetBlendState
	add	esp, 12					; 0000000cH

; 35   : 			m_pDevice->SetRenderState(D3DRS_ZWRITEENABLE, FALSE);

	push	0
	push	14					; 0000000eH
	mov	eax, DWORD PTR ?m_pDevice@D3DTech@Ogre@@2PAUIDirect3DDevice9@@A ; Ogre::D3DTech::m_pDevice
	mov	ecx, DWORD PTR [eax]
	mov	edx, DWORD PTR ?m_pDevice@D3DTech@Ogre@@2PAUIDirect3DDevice9@@A ; Ogre::D3DTech::m_pDevice
	push	edx
	mov	eax, DWORD PTR [ecx+228]
	call	eax

; 36   : 			m_pDevice->SetRenderState(D3DRS_CULLMODE, D3DCULL_NONE);

	push	1
	push	22					; 00000016H
	mov	ecx, DWORD PTR ?m_pDevice@D3DTech@Ogre@@2PAUIDirect3DDevice9@@A ; Ogre::D3DTech::m_pDevice
	mov	edx, DWORD PTR [ecx]
	mov	eax, DWORD PTR ?m_pDevice@D3DTech@Ogre@@2PAUIDirect3DDevice9@@A ; Ogre::D3DTech::m_pDevice
	push	eax
	mov	ecx, DWORD PTR [edx+228]
	call	ecx

; 37   : 			m_pDevice->SetRenderState(D3DRS_ZENABLE, TRUE);

	push	1
	push	7
	mov	edx, DWORD PTR ?m_pDevice@D3DTech@Ogre@@2PAUIDirect3DDevice9@@A ; Ogre::D3DTech::m_pDevice
	mov	eax, DWORD PTR [edx]
	mov	ecx, DWORD PTR ?m_pDevice@D3DTech@Ogre@@2PAUIDirect3DDevice9@@A ; Ogre::D3DTech::m_pDevice
	push	ecx
	mov	edx, DWORD PTR [eax+228]
	call	edx

; 38   : 
; 39   : 			m_pDevice->SetSamplerState(0, D3DSAMP_ADDRESSU, D3DTADDRESS_WRAP);

	push	1
	push	1
	push	0
	mov	eax, DWORD PTR ?m_pDevice@D3DTech@Ogre@@2PAUIDirect3DDevice9@@A ; Ogre::D3DTech::m_pDevice
	mov	ecx, DWORD PTR [eax]
	mov	edx, DWORD PTR ?m_pDevice@D3DTech@Ogre@@2PAUIDirect3DDevice9@@A ; Ogre::D3DTech::m_pDevice
	push	edx
	mov	eax, DWORD PTR [ecx+276]
	call	eax

; 40   : 			m_pDevice->SetSamplerState(0, D3DSAMP_ADDRESSV, D3DTADDRESS_WRAP);

	push	1
	push	2
	push	0
	mov	ecx, DWORD PTR ?m_pDevice@D3DTech@Ogre@@2PAUIDirect3DDevice9@@A ; Ogre::D3DTech::m_pDevice
	mov	edx, DWORD PTR [ecx]
	mov	eax, DWORD PTR ?m_pDevice@D3DTech@Ogre@@2PAUIDirect3DDevice9@@A ; Ogre::D3DTech::m_pDevice
	push	eax
	mov	ecx, DWORD PTR [edx+276]
	call	ecx

; 41   : 			m_pDevice->SetSamplerState(0, D3DSAMP_MIPFILTER, D3DTEXF_NONE);

	push	0
	push	7
	push	0
	mov	edx, DWORD PTR ?m_pDevice@D3DTech@Ogre@@2PAUIDirect3DDevice9@@A ; Ogre::D3DTech::m_pDevice
	mov	eax, DWORD PTR [edx]
	mov	ecx, DWORD PTR ?m_pDevice@D3DTech@Ogre@@2PAUIDirect3DDevice9@@A ; Ogre::D3DTech::m_pDevice
	push	ecx
	mov	edx, DWORD PTR [eax+276]
	call	edx

; 42   : 			m_pDevice->SetSamplerState(0, D3DSAMP_MINFILTER, D3DTEXF_POINT);

	push	1
	push	6
	push	0
	mov	eax, DWORD PTR ?m_pDevice@D3DTech@Ogre@@2PAUIDirect3DDevice9@@A ; Ogre::D3DTech::m_pDevice
	mov	ecx, DWORD PTR [eax]
	mov	edx, DWORD PTR ?m_pDevice@D3DTech@Ogre@@2PAUIDirect3DDevice9@@A ; Ogre::D3DTech::m_pDevice
	push	edx
	mov	eax, DWORD PTR [ecx+276]
	call	eax

; 43   : 			m_pDevice->SetSamplerState(0, D3DSAMP_MAGFILTER, D3DTEXF_POINT);

	push	1
	push	5
	push	0
	mov	ecx, DWORD PTR ?m_pDevice@D3DTech@Ogre@@2PAUIDirect3DDevice9@@A ; Ogre::D3DTech::m_pDevice
	mov	edx, DWORD PTR [ecx]
	mov	eax, DWORD PTR ?m_pDevice@D3DTech@Ogre@@2PAUIDirect3DDevice9@@A ; Ogre::D3DTech::m_pDevice
	push	eax
	mov	ecx, DWORD PTR [edx+276]
	call	ecx

; 44   : 
; 45   : 			applyVSPS(m_CurPass);

	mov	edx, DWORD PTR _this$[ebp]
	mov	eax, DWORD PTR [edx+192]
	push	eax
	mov	ecx, DWORD PTR _this$[ebp]
	call	?applyVSPS@D3DTech@Ogre@@IAEXI@Z	; Ogre::D3DTech::applyVSPS

; 46   : 		}

	mov	esp, ebp
	pop	ebp
	ret	4
?beginPass@D3DTech_terrain_colormask_lod0@Ogre@@UAEXI@Z ENDP ; Ogre::D3DTech_terrain_colormask_lod0::beginPass
; Function compile flags: /Odtp
_TEXT	ENDS
;	COMDAT ?endPass@D3DTech_terrain_colormask_lod0@Ogre@@UAEXXZ
_TEXT	SEGMENT
_this$ = -4						; size = 4
?endPass@D3DTech_terrain_colormask_lod0@Ogre@@UAEXXZ PROC ; Ogre::D3DTech_terrain_colormask_lod0::endPass, COMDAT
; _this$ = ecx

; 49   : 		{

	push	ebp
	mov	ebp, esp
	push	ecx
	mov	DWORD PTR _this$[ebp], ecx

; 50   : 			m_pDevice->SetRenderState(D3DRS_ZWRITEENABLE, TRUE);

	push	1
	push	14					; 0000000eH
	mov	eax, DWORD PTR ?m_pDevice@D3DTech@Ogre@@2PAUIDirect3DDevice9@@A ; Ogre::D3DTech::m_pDevice
	mov	ecx, DWORD PTR [eax]
	mov	edx, DWORD PTR ?m_pDevice@D3DTech@Ogre@@2PAUIDirect3DDevice9@@A ; Ogre::D3DTech::m_pDevice
	push	edx
	mov	eax, DWORD PTR [ecx+228]
	call	eax

; 51   : 		}

	mov	esp, ebp
	pop	ebp
	ret	0
?endPass@D3DTech_terrain_colormask_lod0@Ogre@@UAEXXZ ENDP ; Ogre::D3DTech_terrain_colormask_lod0::endPass
_TEXT	ENDS
PUBLIC	??1D3DTech_terrain_colormask_lod0@Ogre@@UAE@XZ	; Ogre::D3DTech_terrain_colormask_lod0::~D3DTech_terrain_colormask_lod0
; Function compile flags: /Odtp
;	COMDAT ??_GD3DTech_terrain_colormask_lod0@Ogre@@UAEPAXI@Z
_TEXT	SEGMENT
_this$ = -4						; size = 4
___flags$ = 8						; size = 4
??_GD3DTech_terrain_colormask_lod0@Ogre@@UAEPAXI@Z PROC	; Ogre::D3DTech_terrain_colormask_lod0::`scalar deleting destructor', COMDAT
; _this$ = ecx
	push	ebp
	mov	ebp, esp
	push	ecx
	mov	DWORD PTR _this$[ebp], ecx
	mov	ecx, DWORD PTR _this$[ebp]
	call	??1D3DTech_terrain_colormask_lod0@Ogre@@UAE@XZ
	mov	eax, DWORD PTR ___flags$[ebp]
	and	eax, 1
	je	SHORT $LN1@scalar@18
	mov	ecx, DWORD PTR _this$[ebp]
	push	ecx
	call	??3@YAXPAX@Z				; operator delete
	add	esp, 4
$LN1@scalar@18:
	mov	eax, DWORD PTR _this$[ebp]
	mov	esp, ebp
	pop	ebp
	ret	4
??_GD3DTech_terrain_colormask_lod0@Ogre@@UAEPAXI@Z ENDP	; Ogre::D3DTech_terrain_colormask_lod0::`scalar deleting destructor'
_TEXT	ENDS
;	COMDAT xdata$x
xdata$x	SEGMENT
__unwindtable$??1D3DTech_terrain_colormask_lod0@Ogre@@UAE@XZ DD 0ffffffffH
	DD	FLAT:__unwindfunclet$??1D3DTech_terrain_colormask_lod0@Ogre@@UAE@XZ$0
__ehfuncinfo$??1D3DTech_terrain_colormask_lod0@Ogre@@UAE@XZ DD 019930522H
	DD	01H
	DD	FLAT:__unwindtable$??1D3DTech_terrain_colormask_lod0@Ogre@@UAE@XZ
	DD	2 DUP(00H)
	DD	2 DUP(00H)
	DD	00H
	DD	00H
; Function compile flags: /Odtp
xdata$x	ENDS
;	COMDAT ??1D3DTech_terrain_colormask_lod0@Ogre@@UAE@XZ
_TEXT	SEGMENT
_this$ = -16						; size = 4
__$EHRec$ = -12						; size = 12
??1D3DTech_terrain_colormask_lod0@Ogre@@UAE@XZ PROC	; Ogre::D3DTech_terrain_colormask_lod0::~D3DTech_terrain_colormask_lod0, COMDAT
; _this$ = ecx
	push	ebp
	mov	ebp, esp
	push	-1
	push	__ehhandler$??1D3DTech_terrain_colormask_lod0@Ogre@@UAE@XZ
	mov	eax, DWORD PTR fs:0
	push	eax
	push	ecx
	mov	eax, DWORD PTR ___security_cookie
	xor	eax, ebp
	push	eax
	lea	eax, DWORD PTR __$EHRec$[ebp]
	mov	DWORD PTR fs:0, eax
	mov	DWORD PTR _this$[ebp], ecx
	mov	DWORD PTR __$EHRec$[ebp+8], 0
	mov	DWORD PTR __$EHRec$[ebp+8], -1
	mov	ecx, DWORD PTR _this$[ebp]
	call	??1D3DTech@Ogre@@UAE@XZ
	mov	ecx, DWORD PTR __$EHRec$[ebp]
	mov	DWORD PTR fs:0, ecx
	pop	ecx
	mov	esp, ebp
	pop	ebp
	ret	0
_TEXT	ENDS
;	COMDAT text$x
text$x	SEGMENT
__unwindfunclet$??1D3DTech_terrain_colormask_lod0@Ogre@@UAE@XZ$0:
	mov	ecx, DWORD PTR _this$[ebp]
	jmp	??1D3DTech@Ogre@@UAE@XZ
__ehhandler$??1D3DTech_terrain_colormask_lod0@Ogre@@UAE@XZ:
	mov	edx, DWORD PTR [esp+8]
	lea	eax, DWORD PTR [edx+12]
	mov	ecx, DWORD PTR [edx-8]
	xor	ecx, eax
	call	@__security_check_cookie@4
	mov	eax, OFFSET __ehfuncinfo$??1D3DTech_terrain_colormask_lod0@Ogre@@UAE@XZ
	jmp	___CxxFrameHandler3
text$x	ENDS
??1D3DTech_terrain_colormask_lod0@Ogre@@UAE@XZ ENDP	; Ogre::D3DTech_terrain_colormask_lod0::~D3DTech_terrain_colormask_lod0
PUBLIC	??_7D3DTech_general_water_lod0@Ogre@@6B@	; Ogre::D3DTech_general_water_lod0::`vftable'
PUBLIC	??_R4D3DTech_general_water_lod0@Ogre@@6B@	; Ogre::D3DTech_general_water_lod0::`RTTI Complete Object Locator'
PUBLIC	??_R0?AVD3DTech_general_water_lod0@Ogre@@@8	; Ogre::D3DTech_general_water_lod0 `RTTI Type Descriptor'
PUBLIC	??_R3D3DTech_general_water_lod0@Ogre@@8		; Ogre::D3DTech_general_water_lod0::`RTTI Class Hierarchy Descriptor'
PUBLIC	??_R2D3DTech_general_water_lod0@Ogre@@8		; Ogre::D3DTech_general_water_lod0::`RTTI Base Class Array'
PUBLIC	??_R1A@?0A@EA@D3DTech_general_water_lod0@Ogre@@8 ; Ogre::D3DTech_general_water_lod0::`RTTI Base Class Descriptor at (0,-1,0,64)'
PUBLIC	?beginPass@D3DTech_general_water_lod0@Ogre@@UAEXI@Z ; Ogre::D3DTech_general_water_lod0::beginPass
PUBLIC	?endPass@D3DTech_general_water_lod0@Ogre@@UAEXXZ ; Ogre::D3DTech_general_water_lod0::endPass
PUBLIC	?clone@D3DTech_general_water_lod0@Ogre@@UAEPAVD3DTech@2@XZ ; Ogre::D3DTech_general_water_lod0::clone
PUBLIC	?init@D3DTech_general_water_lod0@Ogre@@UAEXABUShaderEnvFlags@2@ABUMaterialMacro@2@@Z ; Ogre::D3DTech_general_water_lod0::init
EXTRN	??_ED3DTech_general_water_lod0@Ogre@@UAEPAXI@Z:PROC ; Ogre::D3DTech_general_water_lod0::`vector deleting destructor'
;	COMDAT ??_R1A@?0A@EA@D3DTech_general_water_lod0@Ogre@@8
rdata$r	SEGMENT
??_R1A@?0A@EA@D3DTech_general_water_lod0@Ogre@@8 DD FLAT:??_R0?AVD3DTech_general_water_lod0@Ogre@@@8 ; Ogre::D3DTech_general_water_lod0::`RTTI Base Class Descriptor at (0,-1,0,64)'
	DD	02H
	DD	00H
	DD	0ffffffffH
	DD	00H
	DD	040H
	DD	FLAT:??_R3D3DTech_general_water_lod0@Ogre@@8
rdata$r	ENDS
;	COMDAT ??_R2D3DTech_general_water_lod0@Ogre@@8
rdata$r	SEGMENT
??_R2D3DTech_general_water_lod0@Ogre@@8 DD FLAT:??_R1A@?0A@EA@D3DTech_general_water_lod0@Ogre@@8 ; Ogre::D3DTech_general_water_lod0::`RTTI Base Class Array'
	DD	FLAT:??_R1A@?0A@EA@D3DTech@Ogre@@8
	DD	FLAT:??_R1A@?0A@EA@ShaderTechnique@Ogre@@8
rdata$r	ENDS
;	COMDAT ??_R3D3DTech_general_water_lod0@Ogre@@8
rdata$r	SEGMENT
??_R3D3DTech_general_water_lod0@Ogre@@8 DD 00H		; Ogre::D3DTech_general_water_lod0::`RTTI Class Hierarchy Descriptor'
	DD	00H
	DD	03H
	DD	FLAT:??_R2D3DTech_general_water_lod0@Ogre@@8
rdata$r	ENDS
;	COMDAT ??_R0?AVD3DTech_general_water_lod0@Ogre@@@8
_DATA	SEGMENT
??_R0?AVD3DTech_general_water_lod0@Ogre@@@8 DD FLAT:??_7type_info@@6B@ ; Ogre::D3DTech_general_water_lod0 `RTTI Type Descriptor'
	DD	00H
	DB	'.?AVD3DTech_general_water_lod0@Ogre@@', 00H
_DATA	ENDS
;	COMDAT ??_R4D3DTech_general_water_lod0@Ogre@@6B@
rdata$r	SEGMENT
??_R4D3DTech_general_water_lod0@Ogre@@6B@ DD 00H	; Ogre::D3DTech_general_water_lod0::`RTTI Complete Object Locator'
	DD	00H
	DD	00H
	DD	FLAT:??_R0?AVD3DTech_general_water_lod0@Ogre@@@8
	DD	FLAT:??_R3D3DTech_general_water_lod0@Ogre@@8
rdata$r	ENDS
;	COMDAT ??_7D3DTech_general_water_lod0@Ogre@@6B@
CONST	SEGMENT
??_7D3DTech_general_water_lod0@Ogre@@6B@ DD FLAT:??_R4D3DTech_general_water_lod0@Ogre@@6B@ ; Ogre::D3DTech_general_water_lod0::`vftable'
	DD	FLAT:?begin@D3DTech@Ogre@@UAEIXZ
	DD	FLAT:?end@D3DTech@Ogre@@UAEXXZ
	DD	FLAT:?beginPass@D3DTech_general_water_lod0@Ogre@@UAEXI@Z
	DD	FLAT:?endPass@D3DTech_general_water_lod0@Ogre@@UAEXXZ
	DD	FLAT:?setConstant@D3DTech@Ogre@@UAEXW4ShaderParamUsage@2@PBXI@Z
	DD	FLAT:?setConstant@D3DTech@Ogre@@UAEXPBDPBXI@Z
	DD	FLAT:?setTexture@D3DTech@Ogre@@UAEXW4ShaderParamUsage@2@PAVHardwarePixelBuffer@2@@Z
	DD	FLAT:?setTexture@D3DTech@Ogre@@UAEXPBDPAVHardwarePixelBuffer@2@@Z
	DD	FLAT:?setStreamInput@D3DTech@Ogre@@UAEXIPAPAVHardwareVertexBuffer@2@HPAI@Z
	DD	FLAT:?setStreamInput@D3DTech@Ogre@@UAEXIPAVHardwareVertexBuffer@2@I@Z
	DD	FLAT:?setStreamInput@D3DTech@Ogre@@UAEXIPAPAVHardwareVertexBuffer@2@PAI@Z
	DD	FLAT:?commitChanges@D3DTech@Ogre@@UAEXXZ
	DD	FLAT:?draw@D3DTech@Ogre@@UAEXW4PrimitiveType@2@IIPAVHardwareIndexBuffer@2@II@Z
	DD	FLAT:?draw@D3DTech@Ogre@@UAEXW4PrimitiveType@2@II@Z
	DD	FLAT:?getRequiredParams@D3DTech@Ogre@@UAEIPAW4ShaderParamUsage@2@I@Z
	DD	FLAT:??_ED3DTech_general_water_lod0@Ogre@@UAEPAXI@Z
	DD	FLAT:?clone@D3DTech_general_water_lod0@Ogre@@UAEPAVD3DTech@2@XZ
	DD	FLAT:?init@D3DTech_general_water_lod0@Ogre@@UAEXABUShaderEnvFlags@2@ABUMaterialMacro@2@@Z
CONST	ENDS
;	COMDAT xdata$x
xdata$x	SEGMENT
__unwindtable$??0D3DTech_general_water_lod0@Ogre@@QAE@XZ DD 0ffffffffH
	DD	FLAT:__unwindfunclet$??0D3DTech_general_water_lod0@Ogre@@QAE@XZ$0
__ehfuncinfo$??0D3DTech_general_water_lod0@Ogre@@QAE@XZ DD 019930522H
	DD	01H
	DD	FLAT:__unwindtable$??0D3DTech_general_water_lod0@Ogre@@QAE@XZ
	DD	2 DUP(00H)
	DD	2 DUP(00H)
	DD	00H
	DD	00H
; Function compile flags: /Odtp
xdata$x	ENDS
;	COMDAT ??0D3DTech_general_water_lod0@Ogre@@QAE@XZ
_TEXT	SEGMENT
_this$ = -16						; size = 4
__$EHRec$ = -12						; size = 12
??0D3DTech_general_water_lod0@Ogre@@QAE@XZ PROC		; Ogre::D3DTech_general_water_lod0::D3DTech_general_water_lod0, COMDAT
; _this$ = ecx
	push	ebp
	mov	ebp, esp
	push	-1
	push	__ehhandler$??0D3DTech_general_water_lod0@Ogre@@QAE@XZ
	mov	eax, DWORD PTR fs:0
	push	eax
	push	ecx
	mov	eax, DWORD PTR ___security_cookie
	xor	eax, ebp
	push	eax
	lea	eax, DWORD PTR __$EHRec$[ebp]
	mov	DWORD PTR fs:0, eax
	mov	DWORD PTR _this$[ebp], ecx
	mov	ecx, DWORD PTR _this$[ebp]
	call	??0D3DTech@Ogre@@QAE@XZ			; Ogre::D3DTech::D3DTech
	mov	DWORD PTR __$EHRec$[ebp+8], 0
	mov	eax, DWORD PTR _this$[ebp]
	mov	DWORD PTR [eax], OFFSET ??_7D3DTech_general_water_lod0@Ogre@@6B@
	mov	DWORD PTR __$EHRec$[ebp+8], -1
	mov	eax, DWORD PTR _this$[ebp]
	mov	ecx, DWORD PTR __$EHRec$[ebp]
	mov	DWORD PTR fs:0, ecx
	pop	ecx
	mov	esp, ebp
	pop	ebp
	ret	0
_TEXT	ENDS
;	COMDAT text$x
text$x	SEGMENT
__unwindfunclet$??0D3DTech_general_water_lod0@Ogre@@QAE@XZ$0:
	mov	ecx, DWORD PTR _this$[ebp]
	jmp	??1D3DTech@Ogre@@UAE@XZ
__ehhandler$??0D3DTech_general_water_lod0@Ogre@@QAE@XZ:
	mov	edx, DWORD PTR [esp+8]
	lea	eax, DWORD PTR [edx+12]
	mov	ecx, DWORD PTR [edx-8]
	xor	ecx, eax
	call	@__security_check_cookie@4
	mov	eax, OFFSET __ehfuncinfo$??0D3DTech_general_water_lod0@Ogre@@QAE@XZ
	jmp	___CxxFrameHandler3
text$x	ENDS
??0D3DTech_general_water_lod0@Ogre@@QAE@XZ ENDP		; Ogre::D3DTech_general_water_lod0::D3DTech_general_water_lod0
;	COMDAT xdata$x
; File i:\svnroot\client\plugins\rendersystem_d3d9\ogred3d9tech_general_water.h
xdata$x	SEGMENT
__unwindtable$?clone@D3DTech_general_water_lod0@Ogre@@UAEPAVD3DTech@2@XZ DD 0ffffffffH
	DD	FLAT:__unwindfunclet$?clone@D3DTech_general_water_lod0@Ogre@@UAEPAVD3DTech@2@XZ$0
__ehfuncinfo$?clone@D3DTech_general_water_lod0@Ogre@@UAEPAVD3DTech@2@XZ DD 019930522H
	DD	01H
	DD	FLAT:__unwindtable$?clone@D3DTech_general_water_lod0@Ogre@@UAEPAVD3DTech@2@XZ
	DD	2 DUP(00H)
	DD	2 DUP(00H)
	DD	00H
	DD	00H
; Function compile flags: /Odtp
xdata$x	ENDS
;	COMDAT ?clone@D3DTech_general_water_lod0@Ogre@@UAEPAVD3DTech@2@XZ
_TEXT	SEGMENT
tv74 = -28						; size = 4
_this$ = -24						; size = 4
$T140192 = -20						; size = 4
$T140191 = -16						; size = 4
__$EHRec$ = -12						; size = 12
?clone@D3DTech_general_water_lod0@Ogre@@UAEPAVD3DTech@2@XZ PROC ; Ogre::D3DTech_general_water_lod0::clone, COMDAT
; _this$ = ecx

; 18   : 		{

	push	ebp
	mov	ebp, esp
	push	-1
	push	__ehhandler$?clone@D3DTech_general_water_lod0@Ogre@@UAEPAVD3DTech@2@XZ
	mov	eax, DWORD PTR fs:0
	push	eax
	sub	esp, 16					; 00000010H
	mov	eax, DWORD PTR ___security_cookie
	xor	eax, ebp
	push	eax
	lea	eax, DWORD PTR __$EHRec$[ebp]
	mov	DWORD PTR fs:0, eax
	mov	DWORD PTR _this$[ebp], ecx

; 19   : 			return new D3DTech_general_water_lod0;

	push	396					; 0000018cH
	call	??2@YAPAXI@Z				; operator new
	add	esp, 4
	mov	DWORD PTR $T140192[ebp], eax
	mov	DWORD PTR __$EHRec$[ebp+8], 0
	cmp	DWORD PTR $T140192[ebp], 0
	je	SHORT $LN3@clone@18
	mov	ecx, DWORD PTR $T140192[ebp]
	call	??0D3DTech_general_water_lod0@Ogre@@QAE@XZ
	mov	DWORD PTR tv74[ebp], eax
	jmp	SHORT $LN4@clone@18
$LN3@clone@18:
	mov	DWORD PTR tv74[ebp], 0
$LN4@clone@18:
	mov	eax, DWORD PTR tv74[ebp]
	mov	DWORD PTR $T140191[ebp], eax
	mov	DWORD PTR __$EHRec$[ebp+8], -1
	mov	eax, DWORD PTR $T140191[ebp]

; 20   : 		}

	mov	ecx, DWORD PTR __$EHRec$[ebp]
	mov	DWORD PTR fs:0, ecx
	pop	ecx
	mov	esp, ebp
	pop	ebp
	ret	0
_TEXT	ENDS
;	COMDAT text$x
text$x	SEGMENT
__unwindfunclet$?clone@D3DTech_general_water_lod0@Ogre@@UAEPAVD3DTech@2@XZ$0:
	mov	eax, DWORD PTR $T140192[ebp]
	push	eax
	call	??3@YAXPAX@Z				; operator delete
	pop	ecx
	ret	0
__ehhandler$?clone@D3DTech_general_water_lod0@Ogre@@UAEPAVD3DTech@2@XZ:
	mov	edx, DWORD PTR [esp+8]
	lea	eax, DWORD PTR [edx+12]
	mov	ecx, DWORD PTR [edx-20]
	xor	ecx, eax
	call	@__security_check_cookie@4
	mov	eax, OFFSET __ehfuncinfo$?clone@D3DTech_general_water_lod0@Ogre@@UAEPAVD3DTech@2@XZ
	jmp	___CxxFrameHandler3
text$x	ENDS
?clone@D3DTech_general_water_lod0@Ogre@@UAEPAVD3DTech@2@XZ ENDP ; Ogre::D3DTech_general_water_lod0::clone
; Function compile flags: /Odtp
;	COMDAT ?init@D3DTech_general_water_lod0@Ogre@@UAEXABUShaderEnvFlags@2@ABUMaterialMacro@2@@Z
_TEXT	SEGMENT
_this$ = -12						; size = 4
_indx$133386 = -8					; size = 4
_i$133382 = -4						; size = 4
_env$ = 8						; size = 4
_macros$ = 12						; size = 4
?init@D3DTech_general_water_lod0@Ogre@@UAEXABUShaderEnvFlags@2@ABUMaterialMacro@2@@Z PROC ; Ogre::D3DTech_general_water_lod0::init, COMDAT
; _this$ = ecx

; 23   : 		{

	push	ebp
	mov	ebp, esp
	sub	esp, 12					; 0000000cH
	mov	DWORD PTR _this$[ebp], ecx

; 24   : 			m_alphablend = 0;

	mov	eax, DWORD PTR _this$[ebp]
	mov	BYTE PTR [eax+392], 0

; 25   : 			for(int i=0; i<MaterialMacro::MAX_MACRO; i++)

	mov	DWORD PTR _i$133382[ebp], 0
	jmp	SHORT $LN5@init@11
$LN4@init@11:
	mov	ecx, DWORD PTR _i$133382[ebp]
	add	ecx, 1
	mov	DWORD PTR _i$133382[ebp], ecx
$LN5@init@11:
	cmp	DWORD PTR _i$133382[ebp], 4
	jge	SHORT $LN3@init@11

; 26   : 			{
; 27   : 				int indx = macros.indices[i];

	mov	edx, DWORD PTR _macros$[ebp]
	add	edx, DWORD PTR _i$133382[ebp]
	movzx	eax, BYTE PTR [edx]
	mov	DWORD PTR _indx$133386[ebp], eax

; 28   : 				if(indx == 0) break;

	cmp	DWORD PTR _indx$133386[ebp], 0
	jne	SHORT $LN2@init@11
	jmp	SHORT $LN3@init@11
$LN2@init@11:

; 29   : 
; 30   : 				if(indx == MTLPARAM_ALPHABLEND) m_alphablend = macros.value[i];

	cmp	DWORD PTR _indx$133386[ebp], 1
	jne	SHORT $LN1@init@11
	mov	ecx, DWORD PTR _macros$[ebp]
	add	ecx, DWORD PTR _i$133382[ebp]
	mov	edx, DWORD PTR _this$[ebp]
	mov	al, BYTE PTR [ecx+4]
	mov	BYTE PTR [edx+392], al
$LN1@init@11:

; 31   : 			}

	jmp	SHORT $LN4@init@11
$LN3@init@11:

; 32   : 
; 33   : 			m_nPass = 1;

	mov	ecx, DWORD PTR _this$[ebp]
	mov	DWORD PTR [ecx+188], 1

; 34   : 			m_AllPass[0].vs = m_pMtlTemplate->getCompiledVSPS(COMPILED_VS, "Main", env, macros);

	mov	edx, DWORD PTR _macros$[ebp]
	push	edx
	mov	eax, DWORD PTR _env$[ebp]
	push	eax
	push	OFFSET ??_C@_04KGFMLCPK@Main?$AA@
	push	1
	mov	ecx, DWORD PTR _this$[ebp]
	mov	ecx, DWORD PTR [ecx+8]
	call	?getCompiledVSPS@D3DMaterialTemplate@Ogre@@QAEPAVCompiledShader@2@W4COMPILED_TYPE@2@PBDABUShaderEnvFlags@2@ABUMaterialMacro@2@@Z ; Ogre::D3DMaterialTemplate::getCompiledVSPS
	mov	edx, DWORD PTR _this$[ebp]
	mov	DWORD PTR [edx+12], eax

; 35   : 			m_AllPass[0].ps = m_pMtlTemplate->getCompiledVSPS(COMPILED_PS, "Main", env, macros);

	mov	eax, DWORD PTR _macros$[ebp]
	push	eax
	mov	ecx, DWORD PTR _env$[ebp]
	push	ecx
	push	OFFSET ??_C@_04KGFMLCPK@Main?$AA@
	push	2
	mov	edx, DWORD PTR _this$[ebp]
	mov	ecx, DWORD PTR [edx+8]
	call	?getCompiledVSPS@D3DMaterialTemplate@Ogre@@QAEPAVCompiledShader@2@W4COMPILED_TYPE@2@PBDABUShaderEnvFlags@2@ABUMaterialMacro@2@@Z ; Ogre::D3DMaterialTemplate::getCompiledVSPS
	mov	ecx, DWORD PTR _this$[ebp]
	mov	DWORD PTR [ecx+16], eax

; 36   : 
; 37   : 			m_AllPass[0].ntex = 2;

	mov	edx, DWORD PTR _this$[ebp]
	mov	DWORD PTR [edx+20], 2

; 38   : 			m_AllPass[0].texstage[0] = SPU_GENERAL_PARAM + 4; //g_WaterBaseTex

	mov	eax, DWORD PTR _this$[ebp]
	mov	DWORD PTR [eax+24], 1004		; 000003ecH

; 39   : 			m_AllPass[0].texstage[1] = SPU_GENERAL_PARAM + 5; //g_WaterDepthTex

	mov	ecx, DWORD PTR _this$[ebp]
	mov	DWORD PTR [ecx+28], 1005		; 000003edH

; 40   : 
; 41   : 			initParams();

	mov	ecx, DWORD PTR _this$[ebp]
	call	?initParams@D3DTech@Ogre@@IAEXXZ	; Ogre::D3DTech::initParams

; 42   : 			m_UsedMacroMask = m_alphablend;

	mov	edx, DWORD PTR _this$[ebp]
	movzx	eax, BYTE PTR [edx+392]
	mov	ecx, DWORD PTR _this$[ebp]
	mov	DWORD PTR [ecx+4], eax

; 43   : 		}

	mov	esp, ebp
	pop	ebp
	ret	8
?init@D3DTech_general_water_lod0@Ogre@@UAEXABUShaderEnvFlags@2@ABUMaterialMacro@2@@Z ENDP ; Ogre::D3DTech_general_water_lod0::init
; Function compile flags: /Odtp
_TEXT	ENDS
;	COMDAT ?beginPass@D3DTech_general_water_lod0@Ogre@@UAEXI@Z
_TEXT	SEGMENT
_this$ = -4						; size = 4
_ipass$ = 8						; size = 4
?beginPass@D3DTech_general_water_lod0@Ogre@@UAEXI@Z PROC ; Ogre::D3DTech_general_water_lod0::beginPass, COMDAT
; _this$ = ecx

; 46   : 		{

	push	ebp
	mov	ebp, esp
	push	ecx
	mov	DWORD PTR _this$[ebp], ecx

; 47   : 			m_CurPass = ipass;

	mov	eax, DWORD PTR _this$[ebp]
	mov	ecx, DWORD PTR _ipass$[ebp]
	mov	DWORD PTR [eax+192], ecx

; 48   : 
; 49   : 			if(m_alphablend == 0)

	mov	edx, DWORD PTR _this$[ebp]
	movzx	eax, BYTE PTR [edx+392]
	test	eax, eax
	jne	SHORT $LN2@beginPass@6

; 50   : 			{
; 51   : 				SetBlendState(m_pDevice, BLEND_OPAQUE);

	push	-1
	push	0
	mov	ecx, DWORD PTR ?m_pDevice@D3DTech@Ogre@@2PAUIDirect3DDevice9@@A ; Ogre::D3DTech::m_pDevice
	push	ecx
	call	?SetBlendState@Ogre@@YAXPAUIDirect3DDevice9@@HH@Z ; Ogre::SetBlendState
	add	esp, 12					; 0000000cH

; 52   : 				m_pDevice->SetRenderState(D3DRS_ZWRITEENABLE, TRUE);

	push	1
	push	14					; 0000000eH
	mov	edx, DWORD PTR ?m_pDevice@D3DTech@Ogre@@2PAUIDirect3DDevice9@@A ; Ogre::D3DTech::m_pDevice
	mov	eax, DWORD PTR [edx]
	mov	ecx, DWORD PTR ?m_pDevice@D3DTech@Ogre@@2PAUIDirect3DDevice9@@A ; Ogre::D3DTech::m_pDevice
	push	ecx
	mov	edx, DWORD PTR [eax+228]
	call	edx

; 53   : 			}
; 54   : 			else

	jmp	SHORT $LN1@beginPass@6
$LN2@beginPass@6:

; 55   : 			{
; 56   : 				SetBlendState(m_pDevice, BLEND_ALPHABLEND);

	push	-1
	push	2
	mov	eax, DWORD PTR ?m_pDevice@D3DTech@Ogre@@2PAUIDirect3DDevice9@@A ; Ogre::D3DTech::m_pDevice
	push	eax
	call	?SetBlendState@Ogre@@YAXPAUIDirect3DDevice9@@HH@Z ; Ogre::SetBlendState
	add	esp, 12					; 0000000cH

; 57   : 				m_pDevice->SetRenderState(D3DRS_ZWRITEENABLE, FALSE);

	push	0
	push	14					; 0000000eH
	mov	ecx, DWORD PTR ?m_pDevice@D3DTech@Ogre@@2PAUIDirect3DDevice9@@A ; Ogre::D3DTech::m_pDevice
	mov	edx, DWORD PTR [ecx]
	mov	eax, DWORD PTR ?m_pDevice@D3DTech@Ogre@@2PAUIDirect3DDevice9@@A ; Ogre::D3DTech::m_pDevice
	push	eax
	mov	ecx, DWORD PTR [edx+228]
	call	ecx
$LN1@beginPass@6:

; 58   : 			}
; 59   : 			m_pDevice->SetRenderState(D3DRS_CULLMODE, D3DCULL_CW);

	push	2
	push	22					; 00000016H
	mov	edx, DWORD PTR ?m_pDevice@D3DTech@Ogre@@2PAUIDirect3DDevice9@@A ; Ogre::D3DTech::m_pDevice
	mov	eax, DWORD PTR [edx]
	mov	ecx, DWORD PTR ?m_pDevice@D3DTech@Ogre@@2PAUIDirect3DDevice9@@A ; Ogre::D3DTech::m_pDevice
	push	ecx
	mov	edx, DWORD PTR [eax+228]
	call	edx

; 60   : 			m_pDevice->SetRenderState(D3DRS_ZENABLE, TRUE);

	push	1
	push	7
	mov	eax, DWORD PTR ?m_pDevice@D3DTech@Ogre@@2PAUIDirect3DDevice9@@A ; Ogre::D3DTech::m_pDevice
	mov	ecx, DWORD PTR [eax]
	mov	edx, DWORD PTR ?m_pDevice@D3DTech@Ogre@@2PAUIDirect3DDevice9@@A ; Ogre::D3DTech::m_pDevice
	push	edx
	mov	eax, DWORD PTR [ecx+228]
	call	eax

; 61   : 			m_pDevice->SetRenderState(D3DRS_COLORWRITEENABLE, 0xf);

	push	15					; 0000000fH
	push	168					; 000000a8H
	mov	ecx, DWORD PTR ?m_pDevice@D3DTech@Ogre@@2PAUIDirect3DDevice9@@A ; Ogre::D3DTech::m_pDevice
	mov	edx, DWORD PTR [ecx]
	mov	eax, DWORD PTR ?m_pDevice@D3DTech@Ogre@@2PAUIDirect3DDevice9@@A ; Ogre::D3DTech::m_pDevice
	push	eax
	mov	ecx, DWORD PTR [edx+228]
	call	ecx

; 62   : 
; 63   : 			SamplerState_Wrap(m_pDevice, 0);

	push	0
	mov	edx, DWORD PTR ?m_pDevice@D3DTech@Ogre@@2PAUIDirect3DDevice9@@A ; Ogre::D3DTech::m_pDevice
	push	edx
	call	?SamplerState_Wrap@Ogre@@YAXPAUIDirect3DDevice9@@H@Z ; Ogre::SamplerState_Wrap
	add	esp, 8

; 64   : 			SamplerState_Clamp(m_pDevice, 1);

	push	1
	mov	eax, DWORD PTR ?m_pDevice@D3DTech@Ogre@@2PAUIDirect3DDevice9@@A ; Ogre::D3DTech::m_pDevice
	push	eax
	call	?SamplerState_Clamp@Ogre@@YAXPAUIDirect3DDevice9@@H@Z ; Ogre::SamplerState_Clamp
	add	esp, 8

; 65   : 
; 66   : 			applyVSPS(m_CurPass);

	mov	ecx, DWORD PTR _this$[ebp]
	mov	edx, DWORD PTR [ecx+192]
	push	edx
	mov	ecx, DWORD PTR _this$[ebp]
	call	?applyVSPS@D3DTech@Ogre@@IAEXI@Z	; Ogre::D3DTech::applyVSPS

; 67   : 		}

	mov	esp, ebp
	pop	ebp
	ret	4
?beginPass@D3DTech_general_water_lod0@Ogre@@UAEXI@Z ENDP ; Ogre::D3DTech_general_water_lod0::beginPass
; Function compile flags: /Odtp
_TEXT	ENDS
;	COMDAT ?endPass@D3DTech_general_water_lod0@Ogre@@UAEXXZ
_TEXT	SEGMENT
_this$ = -4						; size = 4
?endPass@D3DTech_general_water_lod0@Ogre@@UAEXXZ PROC	; Ogre::D3DTech_general_water_lod0::endPass, COMDAT
; _this$ = ecx

; 70   : 		{

	push	ebp
	mov	ebp, esp
	push	ecx
	mov	DWORD PTR _this$[ebp], ecx

; 71   : 			m_pDevice->SetRenderState(D3DRS_ZWRITEENABLE, TRUE);

	push	1
	push	14					; 0000000eH
	mov	eax, DWORD PTR ?m_pDevice@D3DTech@Ogre@@2PAUIDirect3DDevice9@@A ; Ogre::D3DTech::m_pDevice
	mov	ecx, DWORD PTR [eax]
	mov	edx, DWORD PTR ?m_pDevice@D3DTech@Ogre@@2PAUIDirect3DDevice9@@A ; Ogre::D3DTech::m_pDevice
	push	edx
	mov	eax, DWORD PTR [ecx+228]
	call	eax

; 72   : 		}

	mov	esp, ebp
	pop	ebp
	ret	0
?endPass@D3DTech_general_water_lod0@Ogre@@UAEXXZ ENDP	; Ogre::D3DTech_general_water_lod0::endPass
_TEXT	ENDS
PUBLIC	??1D3DTech_general_water_lod0@Ogre@@UAE@XZ	; Ogre::D3DTech_general_water_lod0::~D3DTech_general_water_lod0
; Function compile flags: /Odtp
;	COMDAT ??_GD3DTech_general_water_lod0@Ogre@@UAEPAXI@Z
_TEXT	SEGMENT
_this$ = -4						; size = 4
___flags$ = 8						; size = 4
??_GD3DTech_general_water_lod0@Ogre@@UAEPAXI@Z PROC	; Ogre::D3DTech_general_water_lod0::`scalar deleting destructor', COMDAT
; _this$ = ecx
	push	ebp
	mov	ebp, esp
	push	ecx
	mov	DWORD PTR _this$[ebp], ecx
	mov	ecx, DWORD PTR _this$[ebp]
	call	??1D3DTech_general_water_lod0@Ogre@@UAE@XZ
	mov	eax, DWORD PTR ___flags$[ebp]
	and	eax, 1
	je	SHORT $LN1@scalar@19
	mov	ecx, DWORD PTR _this$[ebp]
	push	ecx
	call	??3@YAXPAX@Z				; operator delete
	add	esp, 4
$LN1@scalar@19:
	mov	eax, DWORD PTR _this$[ebp]
	mov	esp, ebp
	pop	ebp
	ret	4
??_GD3DTech_general_water_lod0@Ogre@@UAEPAXI@Z ENDP	; Ogre::D3DTech_general_water_lod0::`scalar deleting destructor'
_TEXT	ENDS
;	COMDAT xdata$x
xdata$x	SEGMENT
__unwindtable$??1D3DTech_general_water_lod0@Ogre@@UAE@XZ DD 0ffffffffH
	DD	FLAT:__unwindfunclet$??1D3DTech_general_water_lod0@Ogre@@UAE@XZ$0
__ehfuncinfo$??1D3DTech_general_water_lod0@Ogre@@UAE@XZ DD 019930522H
	DD	01H
	DD	FLAT:__unwindtable$??1D3DTech_general_water_lod0@Ogre@@UAE@XZ
	DD	2 DUP(00H)
	DD	2 DUP(00H)
	DD	00H
	DD	00H
; Function compile flags: /Odtp
xdata$x	ENDS
;	COMDAT ??1D3DTech_general_water_lod0@Ogre@@UAE@XZ
_TEXT	SEGMENT
_this$ = -16						; size = 4
__$EHRec$ = -12						; size = 12
??1D3DTech_general_water_lod0@Ogre@@UAE@XZ PROC		; Ogre::D3DTech_general_water_lod0::~D3DTech_general_water_lod0, COMDAT
; _this$ = ecx
	push	ebp
	mov	ebp, esp
	push	-1
	push	__ehhandler$??1D3DTech_general_water_lod0@Ogre@@UAE@XZ
	mov	eax, DWORD PTR fs:0
	push	eax
	push	ecx
	mov	eax, DWORD PTR ___security_cookie
	xor	eax, ebp
	push	eax
	lea	eax, DWORD PTR __$EHRec$[ebp]
	mov	DWORD PTR fs:0, eax
	mov	DWORD PTR _this$[ebp], ecx
	mov	DWORD PTR __$EHRec$[ebp+8], 0
	mov	DWORD PTR __$EHRec$[ebp+8], -1
	mov	ecx, DWORD PTR _this$[ebp]
	call	??1D3DTech@Ogre@@UAE@XZ
	mov	ecx, DWORD PTR __$EHRec$[ebp]
	mov	DWORD PTR fs:0, ecx
	pop	ecx
	mov	esp, ebp
	pop	ebp
	ret	0
_TEXT	ENDS
;	COMDAT text$x
text$x	SEGMENT
__unwindfunclet$??1D3DTech_general_water_lod0@Ogre@@UAE@XZ$0:
	mov	ecx, DWORD PTR _this$[ebp]
	jmp	??1D3DTech@Ogre@@UAE@XZ
__ehhandler$??1D3DTech_general_water_lod0@Ogre@@UAE@XZ:
	mov	edx, DWORD PTR [esp+8]
	lea	eax, DWORD PTR [edx+12]
	mov	ecx, DWORD PTR [edx-8]
	xor	ecx, eax
	call	@__security_check_cookie@4
	mov	eax, OFFSET __ehfuncinfo$??1D3DTech_general_water_lod0@Ogre@@UAE@XZ
	jmp	___CxxFrameHandler3
text$x	ENDS
??1D3DTech_general_water_lod0@Ogre@@UAE@XZ ENDP		; Ogre::D3DTech_general_water_lod0::~D3DTech_general_water_lod0
PUBLIC	??_7D3DTech_water_reflect_lod0@Ogre@@6B@	; Ogre::D3DTech_water_reflect_lod0::`vftable'
PUBLIC	??_R4D3DTech_water_reflect_lod0@Ogre@@6B@	; Ogre::D3DTech_water_reflect_lod0::`RTTI Complete Object Locator'
PUBLIC	??_R0?AVD3DTech_water_reflect_lod0@Ogre@@@8	; Ogre::D3DTech_water_reflect_lod0 `RTTI Type Descriptor'
PUBLIC	??_R3D3DTech_water_reflect_lod0@Ogre@@8		; Ogre::D3DTech_water_reflect_lod0::`RTTI Class Hierarchy Descriptor'
PUBLIC	??_R2D3DTech_water_reflect_lod0@Ogre@@8		; Ogre::D3DTech_water_reflect_lod0::`RTTI Base Class Array'
PUBLIC	??_R1A@?0A@EA@D3DTech_water_reflect_lod0@Ogre@@8 ; Ogre::D3DTech_water_reflect_lod0::`RTTI Base Class Descriptor at (0,-1,0,64)'
PUBLIC	?beginPass@D3DTech_water_reflect_lod0@Ogre@@UAEXI@Z ; Ogre::D3DTech_water_reflect_lod0::beginPass
PUBLIC	?endPass@D3DTech_water_reflect_lod0@Ogre@@UAEXXZ ; Ogre::D3DTech_water_reflect_lod0::endPass
PUBLIC	?clone@D3DTech_water_reflect_lod0@Ogre@@UAEPAVD3DTech@2@XZ ; Ogre::D3DTech_water_reflect_lod0::clone
PUBLIC	?init@D3DTech_water_reflect_lod0@Ogre@@UAEXABUShaderEnvFlags@2@ABUMaterialMacro@2@@Z ; Ogre::D3DTech_water_reflect_lod0::init
EXTRN	??_ED3DTech_water_reflect_lod0@Ogre@@UAEPAXI@Z:PROC ; Ogre::D3DTech_water_reflect_lod0::`vector deleting destructor'
;	COMDAT ??_R1A@?0A@EA@D3DTech_water_reflect_lod0@Ogre@@8
rdata$r	SEGMENT
??_R1A@?0A@EA@D3DTech_water_reflect_lod0@Ogre@@8 DD FLAT:??_R0?AVD3DTech_water_reflect_lod0@Ogre@@@8 ; Ogre::D3DTech_water_reflect_lod0::`RTTI Base Class Descriptor at (0,-1,0,64)'
	DD	02H
	DD	00H
	DD	0ffffffffH
	DD	00H
	DD	040H
	DD	FLAT:??_R3D3DTech_water_reflect_lod0@Ogre@@8
rdata$r	ENDS
;	COMDAT ??_R2D3DTech_water_reflect_lod0@Ogre@@8
rdata$r	SEGMENT
??_R2D3DTech_water_reflect_lod0@Ogre@@8 DD FLAT:??_R1A@?0A@EA@D3DTech_water_reflect_lod0@Ogre@@8 ; Ogre::D3DTech_water_reflect_lod0::`RTTI Base Class Array'
	DD	FLAT:??_R1A@?0A@EA@D3DTech@Ogre@@8
	DD	FLAT:??_R1A@?0A@EA@ShaderTechnique@Ogre@@8
rdata$r	ENDS
;	COMDAT ??_R3D3DTech_water_reflect_lod0@Ogre@@8
rdata$r	SEGMENT
??_R3D3DTech_water_reflect_lod0@Ogre@@8 DD 00H		; Ogre::D3DTech_water_reflect_lod0::`RTTI Class Hierarchy Descriptor'
	DD	00H
	DD	03H
	DD	FLAT:??_R2D3DTech_water_reflect_lod0@Ogre@@8
rdata$r	ENDS
;	COMDAT ??_R0?AVD3DTech_water_reflect_lod0@Ogre@@@8
_DATA	SEGMENT
??_R0?AVD3DTech_water_reflect_lod0@Ogre@@@8 DD FLAT:??_7type_info@@6B@ ; Ogre::D3DTech_water_reflect_lod0 `RTTI Type Descriptor'
	DD	00H
	DB	'.?AVD3DTech_water_reflect_lod0@Ogre@@', 00H
_DATA	ENDS
;	COMDAT ??_R4D3DTech_water_reflect_lod0@Ogre@@6B@
rdata$r	SEGMENT
??_R4D3DTech_water_reflect_lod0@Ogre@@6B@ DD 00H	; Ogre::D3DTech_water_reflect_lod0::`RTTI Complete Object Locator'
	DD	00H
	DD	00H
	DD	FLAT:??_R0?AVD3DTech_water_reflect_lod0@Ogre@@@8
	DD	FLAT:??_R3D3DTech_water_reflect_lod0@Ogre@@8
rdata$r	ENDS
;	COMDAT ??_7D3DTech_water_reflect_lod0@Ogre@@6B@
CONST	SEGMENT
??_7D3DTech_water_reflect_lod0@Ogre@@6B@ DD FLAT:??_R4D3DTech_water_reflect_lod0@Ogre@@6B@ ; Ogre::D3DTech_water_reflect_lod0::`vftable'
	DD	FLAT:?begin@D3DTech@Ogre@@UAEIXZ
	DD	FLAT:?end@D3DTech@Ogre@@UAEXXZ
	DD	FLAT:?beginPass@D3DTech_water_reflect_lod0@Ogre@@UAEXI@Z
	DD	FLAT:?endPass@D3DTech_water_reflect_lod0@Ogre@@UAEXXZ
	DD	FLAT:?setConstant@D3DTech@Ogre@@UAEXW4ShaderParamUsage@2@PBXI@Z
	DD	FLAT:?setConstant@D3DTech@Ogre@@UAEXPBDPBXI@Z
	DD	FLAT:?setTexture@D3DTech@Ogre@@UAEXW4ShaderParamUsage@2@PAVHardwarePixelBuffer@2@@Z
	DD	FLAT:?setTexture@D3DTech@Ogre@@UAEXPBDPAVHardwarePixelBuffer@2@@Z
	DD	FLAT:?setStreamInput@D3DTech@Ogre@@UAEXIPAPAVHardwareVertexBuffer@2@HPAI@Z
	DD	FLAT:?setStreamInput@D3DTech@Ogre@@UAEXIPAVHardwareVertexBuffer@2@I@Z
	DD	FLAT:?setStreamInput@D3DTech@Ogre@@UAEXIPAPAVHardwareVertexBuffer@2@PAI@Z
	DD	FLAT:?commitChanges@D3DTech@Ogre@@UAEXXZ
	DD	FLAT:?draw@D3DTech@Ogre@@UAEXW4PrimitiveType@2@IIPAVHardwareIndexBuffer@2@II@Z
	DD	FLAT:?draw@D3DTech@Ogre@@UAEXW4PrimitiveType@2@II@Z
	DD	FLAT:?getRequiredParams@D3DTech@Ogre@@UAEIPAW4ShaderParamUsage@2@I@Z
	DD	FLAT:??_ED3DTech_water_reflect_lod0@Ogre@@UAEPAXI@Z
	DD	FLAT:?clone@D3DTech_water_reflect_lod0@Ogre@@UAEPAVD3DTech@2@XZ
	DD	FLAT:?init@D3DTech_water_reflect_lod0@Ogre@@UAEXABUShaderEnvFlags@2@ABUMaterialMacro@2@@Z
CONST	ENDS
;	COMDAT xdata$x
xdata$x	SEGMENT
__unwindtable$??0D3DTech_water_reflect_lod0@Ogre@@QAE@XZ DD 0ffffffffH
	DD	FLAT:__unwindfunclet$??0D3DTech_water_reflect_lod0@Ogre@@QAE@XZ$0
__ehfuncinfo$??0D3DTech_water_reflect_lod0@Ogre@@QAE@XZ DD 019930522H
	DD	01H
	DD	FLAT:__unwindtable$??0D3DTech_water_reflect_lod0@Ogre@@QAE@XZ
	DD	2 DUP(00H)
	DD	2 DUP(00H)
	DD	00H
	DD	00H
; Function compile flags: /Odtp
xdata$x	ENDS
;	COMDAT ??0D3DTech_water_reflect_lod0@Ogre@@QAE@XZ
_TEXT	SEGMENT
_this$ = -16						; size = 4
__$EHRec$ = -12						; size = 12
??0D3DTech_water_reflect_lod0@Ogre@@QAE@XZ PROC		; Ogre::D3DTech_water_reflect_lod0::D3DTech_water_reflect_lod0, COMDAT
; _this$ = ecx
	push	ebp
	mov	ebp, esp
	push	-1
	push	__ehhandler$??0D3DTech_water_reflect_lod0@Ogre@@QAE@XZ
	mov	eax, DWORD PTR fs:0
	push	eax
	push	ecx
	mov	eax, DWORD PTR ___security_cookie
	xor	eax, ebp
	push	eax
	lea	eax, DWORD PTR __$EHRec$[ebp]
	mov	DWORD PTR fs:0, eax
	mov	DWORD PTR _this$[ebp], ecx
	mov	ecx, DWORD PTR _this$[ebp]
	call	??0D3DTech@Ogre@@QAE@XZ			; Ogre::D3DTech::D3DTech
	mov	DWORD PTR __$EHRec$[ebp+8], 0
	mov	eax, DWORD PTR _this$[ebp]
	mov	DWORD PTR [eax], OFFSET ??_7D3DTech_water_reflect_lod0@Ogre@@6B@
	mov	DWORD PTR __$EHRec$[ebp+8], -1
	mov	eax, DWORD PTR _this$[ebp]
	mov	ecx, DWORD PTR __$EHRec$[ebp]
	mov	DWORD PTR fs:0, ecx
	pop	ecx
	mov	esp, ebp
	pop	ebp
	ret	0
_TEXT	ENDS
;	COMDAT text$x
text$x	SEGMENT
__unwindfunclet$??0D3DTech_water_reflect_lod0@Ogre@@QAE@XZ$0:
	mov	ecx, DWORD PTR _this$[ebp]
	jmp	??1D3DTech@Ogre@@UAE@XZ
__ehhandler$??0D3DTech_water_reflect_lod0@Ogre@@QAE@XZ:
	mov	edx, DWORD PTR [esp+8]
	lea	eax, DWORD PTR [edx+12]
	mov	ecx, DWORD PTR [edx-8]
	xor	ecx, eax
	call	@__security_check_cookie@4
	mov	eax, OFFSET __ehfuncinfo$??0D3DTech_water_reflect_lod0@Ogre@@QAE@XZ
	jmp	___CxxFrameHandler3
text$x	ENDS
??0D3DTech_water_reflect_lod0@Ogre@@QAE@XZ ENDP		; Ogre::D3DTech_water_reflect_lod0::D3DTech_water_reflect_lod0
;	COMDAT xdata$x
; File i:\svnroot\client\plugins\rendersystem_d3d9\ogred3d9tech_water_reflect.h
xdata$x	SEGMENT
__unwindtable$?clone@D3DTech_water_reflect_lod0@Ogre@@UAEPAVD3DTech@2@XZ DD 0ffffffffH
	DD	FLAT:__unwindfunclet$?clone@D3DTech_water_reflect_lod0@Ogre@@UAEPAVD3DTech@2@XZ$0
__ehfuncinfo$?clone@D3DTech_water_reflect_lod0@Ogre@@UAEPAVD3DTech@2@XZ DD 019930522H
	DD	01H
	DD	FLAT:__unwindtable$?clone@D3DTech_water_reflect_lod0@Ogre@@UAEPAVD3DTech@2@XZ
	DD	2 DUP(00H)
	DD	2 DUP(00H)
	DD	00H
	DD	00H
; Function compile flags: /Odtp
xdata$x	ENDS
;	COMDAT ?clone@D3DTech_water_reflect_lod0@Ogre@@UAEPAVD3DTech@2@XZ
_TEXT	SEGMENT
tv74 = -28						; size = 4
_this$ = -24						; size = 4
$T140231 = -20						; size = 4
$T140230 = -16						; size = 4
__$EHRec$ = -12						; size = 12
?clone@D3DTech_water_reflect_lod0@Ogre@@UAEPAVD3DTech@2@XZ PROC ; Ogre::D3DTech_water_reflect_lod0::clone, COMDAT
; _this$ = ecx

; 13   : 		{

	push	ebp
	mov	ebp, esp
	push	-1
	push	__ehhandler$?clone@D3DTech_water_reflect_lod0@Ogre@@UAEPAVD3DTech@2@XZ
	mov	eax, DWORD PTR fs:0
	push	eax
	sub	esp, 16					; 00000010H
	mov	eax, DWORD PTR ___security_cookie
	xor	eax, ebp
	push	eax
	lea	eax, DWORD PTR __$EHRec$[ebp]
	mov	DWORD PTR fs:0, eax
	mov	DWORD PTR _this$[ebp], ecx

; 14   : 			return new D3DTech_water_reflect_lod0;

	push	392					; 00000188H
	call	??2@YAPAXI@Z				; operator new
	add	esp, 4
	mov	DWORD PTR $T140231[ebp], eax
	mov	DWORD PTR __$EHRec$[ebp+8], 0
	cmp	DWORD PTR $T140231[ebp], 0
	je	SHORT $LN3@clone@19
	mov	ecx, DWORD PTR $T140231[ebp]
	call	??0D3DTech_water_reflect_lod0@Ogre@@QAE@XZ
	mov	DWORD PTR tv74[ebp], eax
	jmp	SHORT $LN4@clone@19
$LN3@clone@19:
	mov	DWORD PTR tv74[ebp], 0
$LN4@clone@19:
	mov	eax, DWORD PTR tv74[ebp]
	mov	DWORD PTR $T140230[ebp], eax
	mov	DWORD PTR __$EHRec$[ebp+8], -1
	mov	eax, DWORD PTR $T140230[ebp]

; 15   : 		}

	mov	ecx, DWORD PTR __$EHRec$[ebp]
	mov	DWORD PTR fs:0, ecx
	pop	ecx
	mov	esp, ebp
	pop	ebp
	ret	0
_TEXT	ENDS
;	COMDAT text$x
text$x	SEGMENT
__unwindfunclet$?clone@D3DTech_water_reflect_lod0@Ogre@@UAEPAVD3DTech@2@XZ$0:
	mov	eax, DWORD PTR $T140231[ebp]
	push	eax
	call	??3@YAXPAX@Z				; operator delete
	pop	ecx
	ret	0
__ehhandler$?clone@D3DTech_water_reflect_lod0@Ogre@@UAEPAVD3DTech@2@XZ:
	mov	edx, DWORD PTR [esp+8]
	lea	eax, DWORD PTR [edx+12]
	mov	ecx, DWORD PTR [edx-20]
	xor	ecx, eax
	call	@__security_check_cookie@4
	mov	eax, OFFSET __ehfuncinfo$?clone@D3DTech_water_reflect_lod0@Ogre@@UAEPAVD3DTech@2@XZ
	jmp	___CxxFrameHandler3
text$x	ENDS
?clone@D3DTech_water_reflect_lod0@Ogre@@UAEPAVD3DTech@2@XZ ENDP ; Ogre::D3DTech_water_reflect_lod0::clone
; Function compile flags: /Odtp
;	COMDAT ?init@D3DTech_water_reflect_lod0@Ogre@@UAEXABUShaderEnvFlags@2@ABUMaterialMacro@2@@Z
_TEXT	SEGMENT
_this$ = -4						; size = 4
_env$ = 8						; size = 4
_macros$ = 12						; size = 4
?init@D3DTech_water_reflect_lod0@Ogre@@UAEXABUShaderEnvFlags@2@ABUMaterialMacro@2@@Z PROC ; Ogre::D3DTech_water_reflect_lod0::init, COMDAT
; _this$ = ecx

; 18   : 		{

	push	ebp
	mov	ebp, esp
	push	ecx
	mov	DWORD PTR _this$[ebp], ecx

; 19   : 			m_nPass = 1;

	mov	eax, DWORD PTR _this$[ebp]
	mov	DWORD PTR [eax+188], 1

; 20   : 			m_AllPass[0].vs = m_pMtlTemplate->getCompiledVSPS(COMPILED_VS, "Main", env, macros);

	mov	ecx, DWORD PTR _macros$[ebp]
	push	ecx
	mov	edx, DWORD PTR _env$[ebp]
	push	edx
	push	OFFSET ??_C@_04KGFMLCPK@Main?$AA@
	push	1
	mov	eax, DWORD PTR _this$[ebp]
	mov	ecx, DWORD PTR [eax+8]
	call	?getCompiledVSPS@D3DMaterialTemplate@Ogre@@QAEPAVCompiledShader@2@W4COMPILED_TYPE@2@PBDABUShaderEnvFlags@2@ABUMaterialMacro@2@@Z ; Ogre::D3DMaterialTemplate::getCompiledVSPS
	mov	ecx, DWORD PTR _this$[ebp]
	mov	DWORD PTR [ecx+12], eax

; 21   : 			m_AllPass[0].ps = m_pMtlTemplate->getCompiledVSPS(COMPILED_PS, "Main", env, macros);

	mov	edx, DWORD PTR _macros$[ebp]
	push	edx
	mov	eax, DWORD PTR _env$[ebp]
	push	eax
	push	OFFSET ??_C@_04KGFMLCPK@Main?$AA@
	push	2
	mov	ecx, DWORD PTR _this$[ebp]
	mov	ecx, DWORD PTR [ecx+8]
	call	?getCompiledVSPS@D3DMaterialTemplate@Ogre@@QAEPAVCompiledShader@2@W4COMPILED_TYPE@2@PBDABUShaderEnvFlags@2@ABUMaterialMacro@2@@Z ; Ogre::D3DMaterialTemplate::getCompiledVSPS
	mov	edx, DWORD PTR _this$[ebp]
	mov	DWORD PTR [edx+16], eax

; 22   : 
; 23   : 			m_AllPass[0].ntex = 3;

	mov	eax, DWORD PTR _this$[ebp]
	mov	DWORD PTR [eax+20], 3

; 24   : 			m_AllPass[0].texstage[0] = SPU_GENERAL_PARAM + 6; //g_WaterDepthTex

	mov	ecx, DWORD PTR _this$[ebp]
	mov	DWORD PTR [ecx+24], 1006		; 000003eeH

; 25   : 			m_AllPass[0].texstage[1] = SPU_GENERAL_PARAM + 8;; //g_refelcttexture

	mov	edx, DWORD PTR _this$[ebp]
	mov	DWORD PTR [edx+28], 1008		; 000003f0H

; 26   : 			m_AllPass[0].texstage[2] = SPU_GENERAL_PARAM + 11; //g_Normaltexture

	mov	eax, DWORD PTR _this$[ebp]
	mov	DWORD PTR [eax+32], 1011		; 000003f3H

; 27   : 
; 28   : 			initParams();

	mov	ecx, DWORD PTR _this$[ebp]
	call	?initParams@D3DTech@Ogre@@IAEXXZ	; Ogre::D3DTech::initParams

; 29   : 			m_UsedMacroMask = 0;

	mov	ecx, DWORD PTR _this$[ebp]
	mov	DWORD PTR [ecx+4], 0

; 30   : 		}

	mov	esp, ebp
	pop	ebp
	ret	8
?init@D3DTech_water_reflect_lod0@Ogre@@UAEXABUShaderEnvFlags@2@ABUMaterialMacro@2@@Z ENDP ; Ogre::D3DTech_water_reflect_lod0::init
; Function compile flags: /Odtp
_TEXT	ENDS
;	COMDAT ?beginPass@D3DTech_water_reflect_lod0@Ogre@@UAEXI@Z
_TEXT	SEGMENT
_this$ = -4						; size = 4
_ipass$ = 8						; size = 4
?beginPass@D3DTech_water_reflect_lod0@Ogre@@UAEXI@Z PROC ; Ogre::D3DTech_water_reflect_lod0::beginPass, COMDAT
; _this$ = ecx

; 33   : 		{

	push	ebp
	mov	ebp, esp
	push	ecx
	mov	DWORD PTR _this$[ebp], ecx

; 34   : 			m_CurPass = ipass;

	mov	eax, DWORD PTR _this$[ebp]
	mov	ecx, DWORD PTR _ipass$[ebp]
	mov	DWORD PTR [eax+192], ecx

; 35   : 
; 36   : 			SetBlendState(m_pDevice, BLEND_ALPHABLEND);

	push	-1
	push	2
	mov	edx, DWORD PTR ?m_pDevice@D3DTech@Ogre@@2PAUIDirect3DDevice9@@A ; Ogre::D3DTech::m_pDevice
	push	edx
	call	?SetBlendState@Ogre@@YAXPAUIDirect3DDevice9@@HH@Z ; Ogre::SetBlendState
	add	esp, 12					; 0000000cH

; 37   : 			m_pDevice->SetRenderState(D3DRS_CULLMODE, D3DCULL_CW);

	push	2
	push	22					; 00000016H
	mov	eax, DWORD PTR ?m_pDevice@D3DTech@Ogre@@2PAUIDirect3DDevice9@@A ; Ogre::D3DTech::m_pDevice
	mov	ecx, DWORD PTR [eax]
	mov	edx, DWORD PTR ?m_pDevice@D3DTech@Ogre@@2PAUIDirect3DDevice9@@A ; Ogre::D3DTech::m_pDevice
	push	edx
	mov	eax, DWORD PTR [ecx+228]
	call	eax

; 38   : 			m_pDevice->SetRenderState(D3DRS_ZWRITEENABLE, FALSE);

	push	0
	push	14					; 0000000eH
	mov	ecx, DWORD PTR ?m_pDevice@D3DTech@Ogre@@2PAUIDirect3DDevice9@@A ; Ogre::D3DTech::m_pDevice
	mov	edx, DWORD PTR [ecx]
	mov	eax, DWORD PTR ?m_pDevice@D3DTech@Ogre@@2PAUIDirect3DDevice9@@A ; Ogre::D3DTech::m_pDevice
	push	eax
	mov	ecx, DWORD PTR [edx+228]
	call	ecx

; 39   : 			m_pDevice->SetRenderState(D3DRS_ZENABLE, TRUE);

	push	1
	push	7
	mov	edx, DWORD PTR ?m_pDevice@D3DTech@Ogre@@2PAUIDirect3DDevice9@@A ; Ogre::D3DTech::m_pDevice
	mov	eax, DWORD PTR [edx]
	mov	ecx, DWORD PTR ?m_pDevice@D3DTech@Ogre@@2PAUIDirect3DDevice9@@A ; Ogre::D3DTech::m_pDevice
	push	ecx
	mov	edx, DWORD PTR [eax+228]
	call	edx

; 40   : 
; 41   : 			SamplerState_Clamp(m_pDevice, 0);

	push	0
	mov	eax, DWORD PTR ?m_pDevice@D3DTech@Ogre@@2PAUIDirect3DDevice9@@A ; Ogre::D3DTech::m_pDevice
	push	eax
	call	?SamplerState_Clamp@Ogre@@YAXPAUIDirect3DDevice9@@H@Z ; Ogre::SamplerState_Clamp
	add	esp, 8

; 42   : 			SamplerState_Clamp(m_pDevice, 1);

	push	1
	mov	ecx, DWORD PTR ?m_pDevice@D3DTech@Ogre@@2PAUIDirect3DDevice9@@A ; Ogre::D3DTech::m_pDevice
	push	ecx
	call	?SamplerState_Clamp@Ogre@@YAXPAUIDirect3DDevice9@@H@Z ; Ogre::SamplerState_Clamp
	add	esp, 8

; 43   : 			SamplerState_Wrap(m_pDevice, 2);

	push	2
	mov	edx, DWORD PTR ?m_pDevice@D3DTech@Ogre@@2PAUIDirect3DDevice9@@A ; Ogre::D3DTech::m_pDevice
	push	edx
	call	?SamplerState_Wrap@Ogre@@YAXPAUIDirect3DDevice9@@H@Z ; Ogre::SamplerState_Wrap
	add	esp, 8

; 44   : 
; 45   : 			applyVSPS(m_CurPass);

	mov	eax, DWORD PTR _this$[ebp]
	mov	ecx, DWORD PTR [eax+192]
	push	ecx
	mov	ecx, DWORD PTR _this$[ebp]
	call	?applyVSPS@D3DTech@Ogre@@IAEXI@Z	; Ogre::D3DTech::applyVSPS

; 46   : 		}

	mov	esp, ebp
	pop	ebp
	ret	4
?beginPass@D3DTech_water_reflect_lod0@Ogre@@UAEXI@Z ENDP ; Ogre::D3DTech_water_reflect_lod0::beginPass
; Function compile flags: /Odtp
_TEXT	ENDS
;	COMDAT ?endPass@D3DTech_water_reflect_lod0@Ogre@@UAEXXZ
_TEXT	SEGMENT
_this$ = -4						; size = 4
?endPass@D3DTech_water_reflect_lod0@Ogre@@UAEXXZ PROC	; Ogre::D3DTech_water_reflect_lod0::endPass, COMDAT
; _this$ = ecx

; 49   : 		{

	push	ebp
	mov	ebp, esp
	push	ecx
	mov	DWORD PTR _this$[ebp], ecx

; 50   : 			m_pDevice->SetRenderState(D3DRS_ZWRITEENABLE, TRUE);

	push	1
	push	14					; 0000000eH
	mov	eax, DWORD PTR ?m_pDevice@D3DTech@Ogre@@2PAUIDirect3DDevice9@@A ; Ogre::D3DTech::m_pDevice
	mov	ecx, DWORD PTR [eax]
	mov	edx, DWORD PTR ?m_pDevice@D3DTech@Ogre@@2PAUIDirect3DDevice9@@A ; Ogre::D3DTech::m_pDevice
	push	edx
	mov	eax, DWORD PTR [ecx+228]
	call	eax

; 51   : 		}

	mov	esp, ebp
	pop	ebp
	ret	0
?endPass@D3DTech_water_reflect_lod0@Ogre@@UAEXXZ ENDP	; Ogre::D3DTech_water_reflect_lod0::endPass
_TEXT	ENDS
PUBLIC	??1D3DTech_water_reflect_lod0@Ogre@@UAE@XZ	; Ogre::D3DTech_water_reflect_lod0::~D3DTech_water_reflect_lod0
; Function compile flags: /Odtp
;	COMDAT ??_GD3DTech_water_reflect_lod0@Ogre@@UAEPAXI@Z
_TEXT	SEGMENT
_this$ = -4						; size = 4
___flags$ = 8						; size = 4
??_GD3DTech_water_reflect_lod0@Ogre@@UAEPAXI@Z PROC	; Ogre::D3DTech_water_reflect_lod0::`scalar deleting destructor', COMDAT
; _this$ = ecx
	push	ebp
	mov	ebp, esp
	push	ecx
	mov	DWORD PTR _this$[ebp], ecx
	mov	ecx, DWORD PTR _this$[ebp]
	call	??1D3DTech_water_reflect_lod0@Ogre@@UAE@XZ
	mov	eax, DWORD PTR ___flags$[ebp]
	and	eax, 1
	je	SHORT $LN1@scalar@20
	mov	ecx, DWORD PTR _this$[ebp]
	push	ecx
	call	??3@YAXPAX@Z				; operator delete
	add	esp, 4
$LN1@scalar@20:
	mov	eax, DWORD PTR _this$[ebp]
	mov	esp, ebp
	pop	ebp
	ret	4
??_GD3DTech_water_reflect_lod0@Ogre@@UAEPAXI@Z ENDP	; Ogre::D3DTech_water_reflect_lod0::`scalar deleting destructor'
_TEXT	ENDS
;	COMDAT xdata$x
xdata$x	SEGMENT
__unwindtable$??1D3DTech_water_reflect_lod0@Ogre@@UAE@XZ DD 0ffffffffH
	DD	FLAT:__unwindfunclet$??1D3DTech_water_reflect_lod0@Ogre@@UAE@XZ$0
__ehfuncinfo$??1D3DTech_water_reflect_lod0@Ogre@@UAE@XZ DD 019930522H
	DD	01H
	DD	FLAT:__unwindtable$??1D3DTech_water_reflect_lod0@Ogre@@UAE@XZ
	DD	2 DUP(00H)
	DD	2 DUP(00H)
	DD	00H
	DD	00H
; Function compile flags: /Odtp
xdata$x	ENDS
;	COMDAT ??1D3DTech_water_reflect_lod0@Ogre@@UAE@XZ
_TEXT	SEGMENT
_this$ = -16						; size = 4
__$EHRec$ = -12						; size = 12
??1D3DTech_water_reflect_lod0@Ogre@@UAE@XZ PROC		; Ogre::D3DTech_water_reflect_lod0::~D3DTech_water_reflect_lod0, COMDAT
; _this$ = ecx
	push	ebp
	mov	ebp, esp
	push	-1
	push	__ehhandler$??1D3DTech_water_reflect_lod0@Ogre@@UAE@XZ
	mov	eax, DWORD PTR fs:0
	push	eax
	push	ecx
	mov	eax, DWORD PTR ___security_cookie
	xor	eax, ebp
	push	eax
	lea	eax, DWORD PTR __$EHRec$[ebp]
	mov	DWORD PTR fs:0, eax
	mov	DWORD PTR _this$[ebp], ecx
	mov	DWORD PTR __$EHRec$[ebp+8], 0
	mov	DWORD PTR __$EHRec$[ebp+8], -1
	mov	ecx, DWORD PTR _this$[ebp]
	call	??1D3DTech@Ogre@@UAE@XZ
	mov	ecx, DWORD PTR __$EHRec$[ebp]
	mov	DWORD PTR fs:0, ecx
	pop	ecx
	mov	esp, ebp
	pop	ebp
	ret	0
_TEXT	ENDS
;	COMDAT text$x
text$x	SEGMENT
__unwindfunclet$??1D3DTech_water_reflect_lod0@Ogre@@UAE@XZ$0:
	mov	ecx, DWORD PTR _this$[ebp]
	jmp	??1D3DTech@Ogre@@UAE@XZ
__ehhandler$??1D3DTech_water_reflect_lod0@Ogre@@UAE@XZ:
	mov	edx, DWORD PTR [esp+8]
	lea	eax, DWORD PTR [edx+12]
	mov	ecx, DWORD PTR [edx-8]
	xor	ecx, eax
	call	@__security_check_cookie@4
	mov	eax, OFFSET __ehfuncinfo$??1D3DTech_water_reflect_lod0@Ogre@@UAE@XZ
	jmp	___CxxFrameHandler3
text$x	ENDS
??1D3DTech_water_reflect_lod0@Ogre@@UAE@XZ ENDP		; Ogre::D3DTech_water_reflect_lod0::~D3DTech_water_reflect_lod0
PUBLIC	??_7D3DTech_plant_lod0@Ogre@@6B@		; Ogre::D3DTech_plant_lod0::`vftable'
PUBLIC	??_R4D3DTech_plant_lod0@Ogre@@6B@		; Ogre::D3DTech_plant_lod0::`RTTI Complete Object Locator'
PUBLIC	??_R0?AVD3DTech_plant_lod0@Ogre@@@8		; Ogre::D3DTech_plant_lod0 `RTTI Type Descriptor'
PUBLIC	??_R3D3DTech_plant_lod0@Ogre@@8			; Ogre::D3DTech_plant_lod0::`RTTI Class Hierarchy Descriptor'
PUBLIC	??_R2D3DTech_plant_lod0@Ogre@@8			; Ogre::D3DTech_plant_lod0::`RTTI Base Class Array'
PUBLIC	??_R1A@?0A@EA@D3DTech_plant_lod0@Ogre@@8	; Ogre::D3DTech_plant_lod0::`RTTI Base Class Descriptor at (0,-1,0,64)'
PUBLIC	?beginPass@D3DTech_plant_lod0@Ogre@@UAEXI@Z	; Ogre::D3DTech_plant_lod0::beginPass
PUBLIC	?endPass@D3DTech_plant_lod0@Ogre@@UAEXXZ	; Ogre::D3DTech_plant_lod0::endPass
PUBLIC	?clone@D3DTech_plant_lod0@Ogre@@UAEPAVD3DTech@2@XZ ; Ogre::D3DTech_plant_lod0::clone
PUBLIC	?init@D3DTech_plant_lod0@Ogre@@UAEXABUShaderEnvFlags@2@ABUMaterialMacro@2@@Z ; Ogre::D3DTech_plant_lod0::init
EXTRN	??_ED3DTech_plant_lod0@Ogre@@UAEPAXI@Z:PROC	; Ogre::D3DTech_plant_lod0::`vector deleting destructor'
;	COMDAT ??_R1A@?0A@EA@D3DTech_plant_lod0@Ogre@@8
rdata$r	SEGMENT
??_R1A@?0A@EA@D3DTech_plant_lod0@Ogre@@8 DD FLAT:??_R0?AVD3DTech_plant_lod0@Ogre@@@8 ; Ogre::D3DTech_plant_lod0::`RTTI Base Class Descriptor at (0,-1,0,64)'
	DD	02H
	DD	00H
	DD	0ffffffffH
	DD	00H
	DD	040H
	DD	FLAT:??_R3D3DTech_plant_lod0@Ogre@@8
rdata$r	ENDS
;	COMDAT ??_R2D3DTech_plant_lod0@Ogre@@8
rdata$r	SEGMENT
??_R2D3DTech_plant_lod0@Ogre@@8 DD FLAT:??_R1A@?0A@EA@D3DTech_plant_lod0@Ogre@@8 ; Ogre::D3DTech_plant_lod0::`RTTI Base Class Array'
	DD	FLAT:??_R1A@?0A@EA@D3DTech@Ogre@@8
	DD	FLAT:??_R1A@?0A@EA@ShaderTechnique@Ogre@@8
rdata$r	ENDS
;	COMDAT ??_R3D3DTech_plant_lod0@Ogre@@8
rdata$r	SEGMENT
??_R3D3DTech_plant_lod0@Ogre@@8 DD 00H			; Ogre::D3DTech_plant_lod0::`RTTI Class Hierarchy Descriptor'
	DD	00H
	DD	03H
	DD	FLAT:??_R2D3DTech_plant_lod0@Ogre@@8
rdata$r	ENDS
;	COMDAT ??_R0?AVD3DTech_plant_lod0@Ogre@@@8
_DATA	SEGMENT
??_R0?AVD3DTech_plant_lod0@Ogre@@@8 DD FLAT:??_7type_info@@6B@ ; Ogre::D3DTech_plant_lod0 `RTTI Type Descriptor'
	DD	00H
	DB	'.?AVD3DTech_plant_lod0@Ogre@@', 00H
_DATA	ENDS
;	COMDAT ??_R4D3DTech_plant_lod0@Ogre@@6B@
rdata$r	SEGMENT
??_R4D3DTech_plant_lod0@Ogre@@6B@ DD 00H		; Ogre::D3DTech_plant_lod0::`RTTI Complete Object Locator'
	DD	00H
	DD	00H
	DD	FLAT:??_R0?AVD3DTech_plant_lod0@Ogre@@@8
	DD	FLAT:??_R3D3DTech_plant_lod0@Ogre@@8
rdata$r	ENDS
;	COMDAT ??_7D3DTech_plant_lod0@Ogre@@6B@
CONST	SEGMENT
??_7D3DTech_plant_lod0@Ogre@@6B@ DD FLAT:??_R4D3DTech_plant_lod0@Ogre@@6B@ ; Ogre::D3DTech_plant_lod0::`vftable'
	DD	FLAT:?begin@D3DTech@Ogre@@UAEIXZ
	DD	FLAT:?end@D3DTech@Ogre@@UAEXXZ
	DD	FLAT:?beginPass@D3DTech_plant_lod0@Ogre@@UAEXI@Z
	DD	FLAT:?endPass@D3DTech_plant_lod0@Ogre@@UAEXXZ
	DD	FLAT:?setConstant@D3DTech@Ogre@@UAEXW4ShaderParamUsage@2@PBXI@Z
	DD	FLAT:?setConstant@D3DTech@Ogre@@UAEXPBDPBXI@Z
	DD	FLAT:?setTexture@D3DTech@Ogre@@UAEXW4ShaderParamUsage@2@PAVHardwarePixelBuffer@2@@Z
	DD	FLAT:?setTexture@D3DTech@Ogre@@UAEXPBDPAVHardwarePixelBuffer@2@@Z
	DD	FLAT:?setStreamInput@D3DTech@Ogre@@UAEXIPAPAVHardwareVertexBuffer@2@HPAI@Z
	DD	FLAT:?setStreamInput@D3DTech@Ogre@@UAEXIPAVHardwareVertexBuffer@2@I@Z
	DD	FLAT:?setStreamInput@D3DTech@Ogre@@UAEXIPAPAVHardwareVertexBuffer@2@PAI@Z
	DD	FLAT:?commitChanges@D3DTech@Ogre@@UAEXXZ
	DD	FLAT:?draw@D3DTech@Ogre@@UAEXW4PrimitiveType@2@IIPAVHardwareIndexBuffer@2@II@Z
	DD	FLAT:?draw@D3DTech@Ogre@@UAEXW4PrimitiveType@2@II@Z
	DD	FLAT:?getRequiredParams@D3DTech@Ogre@@UAEIPAW4ShaderParamUsage@2@I@Z
	DD	FLAT:??_ED3DTech_plant_lod0@Ogre@@UAEPAXI@Z
	DD	FLAT:?clone@D3DTech_plant_lod0@Ogre@@UAEPAVD3DTech@2@XZ
	DD	FLAT:?init@D3DTech_plant_lod0@Ogre@@UAEXABUShaderEnvFlags@2@ABUMaterialMacro@2@@Z
CONST	ENDS
;	COMDAT xdata$x
xdata$x	SEGMENT
__unwindtable$??0D3DTech_plant_lod0@Ogre@@QAE@XZ DD 0ffffffffH
	DD	FLAT:__unwindfunclet$??0D3DTech_plant_lod0@Ogre@@QAE@XZ$0
__ehfuncinfo$??0D3DTech_plant_lod0@Ogre@@QAE@XZ DD 019930522H
	DD	01H
	DD	FLAT:__unwindtable$??0D3DTech_plant_lod0@Ogre@@QAE@XZ
	DD	2 DUP(00H)
	DD	2 DUP(00H)
	DD	00H
	DD	00H
; Function compile flags: /Odtp
xdata$x	ENDS
;	COMDAT ??0D3DTech_plant_lod0@Ogre@@QAE@XZ
_TEXT	SEGMENT
_this$ = -16						; size = 4
__$EHRec$ = -12						; size = 12
??0D3DTech_plant_lod0@Ogre@@QAE@XZ PROC			; Ogre::D3DTech_plant_lod0::D3DTech_plant_lod0, COMDAT
; _this$ = ecx
	push	ebp
	mov	ebp, esp
	push	-1
	push	__ehhandler$??0D3DTech_plant_lod0@Ogre@@QAE@XZ
	mov	eax, DWORD PTR fs:0
	push	eax
	push	ecx
	mov	eax, DWORD PTR ___security_cookie
	xor	eax, ebp
	push	eax
	lea	eax, DWORD PTR __$EHRec$[ebp]
	mov	DWORD PTR fs:0, eax
	mov	DWORD PTR _this$[ebp], ecx
	mov	ecx, DWORD PTR _this$[ebp]
	call	??0D3DTech@Ogre@@QAE@XZ			; Ogre::D3DTech::D3DTech
	mov	DWORD PTR __$EHRec$[ebp+8], 0
	mov	eax, DWORD PTR _this$[ebp]
	mov	DWORD PTR [eax], OFFSET ??_7D3DTech_plant_lod0@Ogre@@6B@
	mov	DWORD PTR __$EHRec$[ebp+8], -1
	mov	eax, DWORD PTR _this$[ebp]
	mov	ecx, DWORD PTR __$EHRec$[ebp]
	mov	DWORD PTR fs:0, ecx
	pop	ecx
	mov	esp, ebp
	pop	ebp
	ret	0
_TEXT	ENDS
;	COMDAT text$x
text$x	SEGMENT
__unwindfunclet$??0D3DTech_plant_lod0@Ogre@@QAE@XZ$0:
	mov	ecx, DWORD PTR _this$[ebp]
	jmp	??1D3DTech@Ogre@@UAE@XZ
__ehhandler$??0D3DTech_plant_lod0@Ogre@@QAE@XZ:
	mov	edx, DWORD PTR [esp+8]
	lea	eax, DWORD PTR [edx+12]
	mov	ecx, DWORD PTR [edx-8]
	xor	ecx, eax
	call	@__security_check_cookie@4
	mov	eax, OFFSET __ehfuncinfo$??0D3DTech_plant_lod0@Ogre@@QAE@XZ
	jmp	___CxxFrameHandler3
text$x	ENDS
??0D3DTech_plant_lod0@Ogre@@QAE@XZ ENDP			; Ogre::D3DTech_plant_lod0::D3DTech_plant_lod0
;	COMDAT xdata$x
; File i:\svnroot\client\plugins\rendersystem_d3d9\ogred3d9tech_plant.h
xdata$x	SEGMENT
__unwindtable$?clone@D3DTech_plant_lod0@Ogre@@UAEPAVD3DTech@2@XZ DD 0ffffffffH
	DD	FLAT:__unwindfunclet$?clone@D3DTech_plant_lod0@Ogre@@UAEPAVD3DTech@2@XZ$0
__ehfuncinfo$?clone@D3DTech_plant_lod0@Ogre@@UAEPAVD3DTech@2@XZ DD 019930522H
	DD	01H
	DD	FLAT:__unwindtable$?clone@D3DTech_plant_lod0@Ogre@@UAEPAVD3DTech@2@XZ
	DD	2 DUP(00H)
	DD	2 DUP(00H)
	DD	00H
	DD	00H
; Function compile flags: /Odtp
xdata$x	ENDS
;	COMDAT ?clone@D3DTech_plant_lod0@Ogre@@UAEPAVD3DTech@2@XZ
_TEXT	SEGMENT
tv74 = -28						; size = 4
_this$ = -24						; size = 4
$T140270 = -20						; size = 4
$T140269 = -16						; size = 4
__$EHRec$ = -12						; size = 12
?clone@D3DTech_plant_lod0@Ogre@@UAEPAVD3DTech@2@XZ PROC	; Ogre::D3DTech_plant_lod0::clone, COMDAT
; _this$ = ecx

; 13   : 		{

	push	ebp
	mov	ebp, esp
	push	-1
	push	__ehhandler$?clone@D3DTech_plant_lod0@Ogre@@UAEPAVD3DTech@2@XZ
	mov	eax, DWORD PTR fs:0
	push	eax
	sub	esp, 16					; 00000010H
	mov	eax, DWORD PTR ___security_cookie
	xor	eax, ebp
	push	eax
	lea	eax, DWORD PTR __$EHRec$[ebp]
	mov	DWORD PTR fs:0, eax
	mov	DWORD PTR _this$[ebp], ecx

; 14   : 			return new D3DTech_plant_lod0;

	push	392					; 00000188H
	call	??2@YAPAXI@Z				; operator new
	add	esp, 4
	mov	DWORD PTR $T140270[ebp], eax
	mov	DWORD PTR __$EHRec$[ebp+8], 0
	cmp	DWORD PTR $T140270[ebp], 0
	je	SHORT $LN3@clone@20
	mov	ecx, DWORD PTR $T140270[ebp]
	call	??0D3DTech_plant_lod0@Ogre@@QAE@XZ
	mov	DWORD PTR tv74[ebp], eax
	jmp	SHORT $LN4@clone@20
$LN3@clone@20:
	mov	DWORD PTR tv74[ebp], 0
$LN4@clone@20:
	mov	eax, DWORD PTR tv74[ebp]
	mov	DWORD PTR $T140269[ebp], eax
	mov	DWORD PTR __$EHRec$[ebp+8], -1
	mov	eax, DWORD PTR $T140269[ebp]

; 15   : 		}

	mov	ecx, DWORD PTR __$EHRec$[ebp]
	mov	DWORD PTR fs:0, ecx
	pop	ecx
	mov	esp, ebp
	pop	ebp
	ret	0
_TEXT	ENDS
;	COMDAT text$x
text$x	SEGMENT
__unwindfunclet$?clone@D3DTech_plant_lod0@Ogre@@UAEPAVD3DTech@2@XZ$0:
	mov	eax, DWORD PTR $T140270[ebp]
	push	eax
	call	??3@YAXPAX@Z				; operator delete
	pop	ecx
	ret	0
__ehhandler$?clone@D3DTech_plant_lod0@Ogre@@UAEPAVD3DTech@2@XZ:
	mov	edx, DWORD PTR [esp+8]
	lea	eax, DWORD PTR [edx+12]
	mov	ecx, DWORD PTR [edx-20]
	xor	ecx, eax
	call	@__security_check_cookie@4
	mov	eax, OFFSET __ehfuncinfo$?clone@D3DTech_plant_lod0@Ogre@@UAEPAVD3DTech@2@XZ
	jmp	___CxxFrameHandler3
text$x	ENDS
?clone@D3DTech_plant_lod0@Ogre@@UAEPAVD3DTech@2@XZ ENDP	; Ogre::D3DTech_plant_lod0::clone
; Function compile flags: /Odtp
;	COMDAT ?init@D3DTech_plant_lod0@Ogre@@UAEXABUShaderEnvFlags@2@ABUMaterialMacro@2@@Z
_TEXT	SEGMENT
_this$ = -4						; size = 4
_env$ = 8						; size = 4
_macros$ = 12						; size = 4
?init@D3DTech_plant_lod0@Ogre@@UAEXABUShaderEnvFlags@2@ABUMaterialMacro@2@@Z PROC ; Ogre::D3DTech_plant_lod0::init, COMDAT
; _this$ = ecx

; 18   : 		{

	push	ebp
	mov	ebp, esp
	push	ecx
	mov	DWORD PTR _this$[ebp], ecx

; 19   : 			m_nPass = 1;

	mov	eax, DWORD PTR _this$[ebp]
	mov	DWORD PTR [eax+188], 1

; 20   : 			m_AllPass[0].vs = m_pMtlTemplate->getCompiledVSPS(COMPILED_VS, "Main", env, macros);

	mov	ecx, DWORD PTR _macros$[ebp]
	push	ecx
	mov	edx, DWORD PTR _env$[ebp]
	push	edx
	push	OFFSET ??_C@_04KGFMLCPK@Main?$AA@
	push	1
	mov	eax, DWORD PTR _this$[ebp]
	mov	ecx, DWORD PTR [eax+8]
	call	?getCompiledVSPS@D3DMaterialTemplate@Ogre@@QAEPAVCompiledShader@2@W4COMPILED_TYPE@2@PBDABUShaderEnvFlags@2@ABUMaterialMacro@2@@Z ; Ogre::D3DMaterialTemplate::getCompiledVSPS
	mov	ecx, DWORD PTR _this$[ebp]
	mov	DWORD PTR [ecx+12], eax

; 21   : 			m_AllPass[0].ps = m_pMtlTemplate->getCompiledVSPS(COMPILED_PS, "Main", env, macros);

	mov	edx, DWORD PTR _macros$[ebp]
	push	edx
	mov	eax, DWORD PTR _env$[ebp]
	push	eax
	push	OFFSET ??_C@_04KGFMLCPK@Main?$AA@
	push	2
	mov	ecx, DWORD PTR _this$[ebp]
	mov	ecx, DWORD PTR [ecx+8]
	call	?getCompiledVSPS@D3DMaterialTemplate@Ogre@@QAEPAVCompiledShader@2@W4COMPILED_TYPE@2@PBDABUShaderEnvFlags@2@ABUMaterialMacro@2@@Z ; Ogre::D3DMaterialTemplate::getCompiledVSPS
	mov	edx, DWORD PTR _this$[ebp]
	mov	DWORD PTR [edx+16], eax

; 22   : 
; 23   : 			m_AllPass[0].ntex = 2;

	mov	eax, DWORD PTR _this$[ebp]
	mov	DWORD PTR [eax+20], 2

; 24   : 			m_AllPass[0].texstage[0] = SPU_GENERAL_PARAM + 0; //diffusetex

	mov	ecx, DWORD PTR _this$[ebp]
	mov	DWORD PTR [ecx+24], 1000		; 000003e8H

; 25   : 			m_AllPass[0].texstage[1] = SPU_DEPTHMAP; //

	mov	edx, DWORD PTR _this$[ebp]
	mov	DWORD PTR [edx+28], 18			; 00000012H

; 26   : 
; 27   : 			initParams();

	mov	ecx, DWORD PTR _this$[ebp]
	call	?initParams@D3DTech@Ogre@@IAEXXZ	; Ogre::D3DTech::initParams

; 28   : 			m_UsedMacroMask = 0;

	mov	eax, DWORD PTR _this$[ebp]
	mov	DWORD PTR [eax+4], 0

; 29   : 		}

	mov	esp, ebp
	pop	ebp
	ret	8
?init@D3DTech_plant_lod0@Ogre@@UAEXABUShaderEnvFlags@2@ABUMaterialMacro@2@@Z ENDP ; Ogre::D3DTech_plant_lod0::init
; Function compile flags: /Odtp
_TEXT	ENDS
;	COMDAT ?beginPass@D3DTech_plant_lod0@Ogre@@UAEXI@Z
_TEXT	SEGMENT
_this$ = -4						; size = 4
_ipass$ = 8						; size = 4
?beginPass@D3DTech_plant_lod0@Ogre@@UAEXI@Z PROC	; Ogre::D3DTech_plant_lod0::beginPass, COMDAT
; _this$ = ecx

; 32   : 		{

	push	ebp
	mov	ebp, esp
	push	ecx
	mov	DWORD PTR _this$[ebp], ecx

; 33   : 			m_CurPass = ipass;

	mov	eax, DWORD PTR _this$[ebp]
	mov	ecx, DWORD PTR _ipass$[ebp]
	mov	DWORD PTR [eax+192], ecx

; 34   : 
; 35   : 			SetBlendState(m_pDevice, BLEND_ALPHATEST);

	push	-1
	push	1
	mov	edx, DWORD PTR ?m_pDevice@D3DTech@Ogre@@2PAUIDirect3DDevice9@@A ; Ogre::D3DTech::m_pDevice
	push	edx
	call	?SetBlendState@Ogre@@YAXPAUIDirect3DDevice9@@HH@Z ; Ogre::SetBlendState
	add	esp, 12					; 0000000cH

; 36   : 			m_pDevice->SetRenderState(D3DRS_CULLMODE, D3DCULL_NONE);

	push	1
	push	22					; 00000016H
	mov	eax, DWORD PTR ?m_pDevice@D3DTech@Ogre@@2PAUIDirect3DDevice9@@A ; Ogre::D3DTech::m_pDevice
	mov	ecx, DWORD PTR [eax]
	mov	edx, DWORD PTR ?m_pDevice@D3DTech@Ogre@@2PAUIDirect3DDevice9@@A ; Ogre::D3DTech::m_pDevice
	push	edx
	mov	eax, DWORD PTR [ecx+228]
	call	eax

; 37   : 			m_pDevice->SetRenderState(D3DRS_ZENABLE, TRUE);

	push	1
	push	7
	mov	ecx, DWORD PTR ?m_pDevice@D3DTech@Ogre@@2PAUIDirect3DDevice9@@A ; Ogre::D3DTech::m_pDevice
	mov	edx, DWORD PTR [ecx]
	mov	eax, DWORD PTR ?m_pDevice@D3DTech@Ogre@@2PAUIDirect3DDevice9@@A ; Ogre::D3DTech::m_pDevice
	push	eax
	mov	ecx, DWORD PTR [edx+228]
	call	ecx

; 38   : 			m_pDevice->SetRenderState(D3DRS_ZWRITEENABLE, TRUE);

	push	1
	push	14					; 0000000eH
	mov	edx, DWORD PTR ?m_pDevice@D3DTech@Ogre@@2PAUIDirect3DDevice9@@A ; Ogre::D3DTech::m_pDevice
	mov	eax, DWORD PTR [edx]
	mov	ecx, DWORD PTR ?m_pDevice@D3DTech@Ogre@@2PAUIDirect3DDevice9@@A ; Ogre::D3DTech::m_pDevice
	push	ecx
	mov	edx, DWORD PTR [eax+228]
	call	edx

; 39   : 
; 40   : 			SamplerState_Clamp(m_pDevice, 0);

	push	0
	mov	eax, DWORD PTR ?m_pDevice@D3DTech@Ogre@@2PAUIDirect3DDevice9@@A ; Ogre::D3DTech::m_pDevice
	push	eax
	call	?SamplerState_Clamp@Ogre@@YAXPAUIDirect3DDevice9@@H@Z ; Ogre::SamplerState_Clamp
	add	esp, 8

; 41   : 			SamplerState_DMap(m_pDevice, 1);

	push	1
	mov	ecx, DWORD PTR ?m_pDevice@D3DTech@Ogre@@2PAUIDirect3DDevice9@@A ; Ogre::D3DTech::m_pDevice
	push	ecx
	call	?SamplerState_DMap@Ogre@@YAXPAUIDirect3DDevice9@@H@Z ; Ogre::SamplerState_DMap
	add	esp, 8

; 42   : 
; 43   : 			applyVSPS(m_CurPass);

	mov	edx, DWORD PTR _this$[ebp]
	mov	eax, DWORD PTR [edx+192]
	push	eax
	mov	ecx, DWORD PTR _this$[ebp]
	call	?applyVSPS@D3DTech@Ogre@@IAEXI@Z	; Ogre::D3DTech::applyVSPS

; 44   : 		}

	mov	esp, ebp
	pop	ebp
	ret	4
?beginPass@D3DTech_plant_lod0@Ogre@@UAEXI@Z ENDP	; Ogre::D3DTech_plant_lod0::beginPass
; Function compile flags: /Odtp
_TEXT	ENDS
;	COMDAT ?endPass@D3DTech_plant_lod0@Ogre@@UAEXXZ
_TEXT	SEGMENT
_this$ = -4						; size = 4
?endPass@D3DTech_plant_lod0@Ogre@@UAEXXZ PROC		; Ogre::D3DTech_plant_lod0::endPass, COMDAT
; _this$ = ecx

; 47   : 		{

	push	ebp
	mov	ebp, esp
	push	ecx
	mov	DWORD PTR _this$[ebp], ecx

; 48   : 			m_pDevice->SetTexture(1, 0); // 

	push	0
	push	1
	mov	eax, DWORD PTR ?m_pDevice@D3DTech@Ogre@@2PAUIDirect3DDevice9@@A ; Ogre::D3DTech::m_pDevice
	mov	ecx, DWORD PTR [eax]
	mov	edx, DWORD PTR ?m_pDevice@D3DTech@Ogre@@2PAUIDirect3DDevice9@@A ; Ogre::D3DTech::m_pDevice
	push	edx
	mov	eax, DWORD PTR [ecx+260]
	call	eax

; 49   : 		}

	mov	esp, ebp
	pop	ebp
	ret	0
?endPass@D3DTech_plant_lod0@Ogre@@UAEXXZ ENDP		; Ogre::D3DTech_plant_lod0::endPass
_TEXT	ENDS
PUBLIC	??1D3DTech_plant_lod0@Ogre@@UAE@XZ		; Ogre::D3DTech_plant_lod0::~D3DTech_plant_lod0
; Function compile flags: /Odtp
;	COMDAT ??_GD3DTech_plant_lod0@Ogre@@UAEPAXI@Z
_TEXT	SEGMENT
_this$ = -4						; size = 4
___flags$ = 8						; size = 4
??_GD3DTech_plant_lod0@Ogre@@UAEPAXI@Z PROC		; Ogre::D3DTech_plant_lod0::`scalar deleting destructor', COMDAT
; _this$ = ecx
	push	ebp
	mov	ebp, esp
	push	ecx
	mov	DWORD PTR _this$[ebp], ecx
	mov	ecx, DWORD PTR _this$[ebp]
	call	??1D3DTech_plant_lod0@Ogre@@UAE@XZ
	mov	eax, DWORD PTR ___flags$[ebp]
	and	eax, 1
	je	SHORT $LN1@scalar@21
	mov	ecx, DWORD PTR _this$[ebp]
	push	ecx
	call	??3@YAXPAX@Z				; operator delete
	add	esp, 4
$LN1@scalar@21:
	mov	eax, DWORD PTR _this$[ebp]
	mov	esp, ebp
	pop	ebp
	ret	4
??_GD3DTech_plant_lod0@Ogre@@UAEPAXI@Z ENDP		; Ogre::D3DTech_plant_lod0::`scalar deleting destructor'
_TEXT	ENDS
;	COMDAT xdata$x
xdata$x	SEGMENT
__unwindtable$??1D3DTech_plant_lod0@Ogre@@UAE@XZ DD 0ffffffffH
	DD	FLAT:__unwindfunclet$??1D3DTech_plant_lod0@Ogre@@UAE@XZ$0
__ehfuncinfo$??1D3DTech_plant_lod0@Ogre@@UAE@XZ DD 019930522H
	DD	01H
	DD	FLAT:__unwindtable$??1D3DTech_plant_lod0@Ogre@@UAE@XZ
	DD	2 DUP(00H)
	DD	2 DUP(00H)
	DD	00H
	DD	00H
; Function compile flags: /Odtp
xdata$x	ENDS
;	COMDAT ??1D3DTech_plant_lod0@Ogre@@UAE@XZ
_TEXT	SEGMENT
_this$ = -16						; size = 4
__$EHRec$ = -12						; size = 12
??1D3DTech_plant_lod0@Ogre@@UAE@XZ PROC			; Ogre::D3DTech_plant_lod0::~D3DTech_plant_lod0, COMDAT
; _this$ = ecx
	push	ebp
	mov	ebp, esp
	push	-1
	push	__ehhandler$??1D3DTech_plant_lod0@Ogre@@UAE@XZ
	mov	eax, DWORD PTR fs:0
	push	eax
	push	ecx
	mov	eax, DWORD PTR ___security_cookie
	xor	eax, ebp
	push	eax
	lea	eax, DWORD PTR __$EHRec$[ebp]
	mov	DWORD PTR fs:0, eax
	mov	DWORD PTR _this$[ebp], ecx
	mov	DWORD PTR __$EHRec$[ebp+8], 0
	mov	DWORD PTR __$EHRec$[ebp+8], -1
	mov	ecx, DWORD PTR _this$[ebp]
	call	??1D3DTech@Ogre@@UAE@XZ
	mov	ecx, DWORD PTR __$EHRec$[ebp]
	mov	DWORD PTR fs:0, ecx
	pop	ecx
	mov	esp, ebp
	pop	ebp
	ret	0
_TEXT	ENDS
;	COMDAT text$x
text$x	SEGMENT
__unwindfunclet$??1D3DTech_plant_lod0@Ogre@@UAE@XZ$0:
	mov	ecx, DWORD PTR _this$[ebp]
	jmp	??1D3DTech@Ogre@@UAE@XZ
__ehhandler$??1D3DTech_plant_lod0@Ogre@@UAE@XZ:
	mov	edx, DWORD PTR [esp+8]
	lea	eax, DWORD PTR [edx+12]
	mov	ecx, DWORD PTR [edx-8]
	xor	ecx, eax
	call	@__security_check_cookie@4
	mov	eax, OFFSET __ehfuncinfo$??1D3DTech_plant_lod0@Ogre@@UAE@XZ
	jmp	___CxxFrameHandler3
text$x	ENDS
??1D3DTech_plant_lod0@Ogre@@UAE@XZ ENDP			; Ogre::D3DTech_plant_lod0::~D3DTech_plant_lod0
PUBLIC	??_7D3DTech_uielement_lod0@Ogre@@6B@		; Ogre::D3DTech_uielement_lod0::`vftable'
PUBLIC	??_R4D3DTech_uielement_lod0@Ogre@@6B@		; Ogre::D3DTech_uielement_lod0::`RTTI Complete Object Locator'
PUBLIC	??_R0?AVD3DTech_uielement_lod0@Ogre@@@8		; Ogre::D3DTech_uielement_lod0 `RTTI Type Descriptor'
PUBLIC	??_R3D3DTech_uielement_lod0@Ogre@@8		; Ogre::D3DTech_uielement_lod0::`RTTI Class Hierarchy Descriptor'
PUBLIC	??_R2D3DTech_uielement_lod0@Ogre@@8		; Ogre::D3DTech_uielement_lod0::`RTTI Base Class Array'
PUBLIC	??_R1A@?0A@EA@D3DTech_uielement_lod0@Ogre@@8	; Ogre::D3DTech_uielement_lod0::`RTTI Base Class Descriptor at (0,-1,0,64)'
PUBLIC	?beginPass@D3DTech_uielement_lod0@Ogre@@UAEXI@Z	; Ogre::D3DTech_uielement_lod0::beginPass
PUBLIC	?endPass@D3DTech_uielement_lod0@Ogre@@UAEXXZ	; Ogre::D3DTech_uielement_lod0::endPass
PUBLIC	?clone@D3DTech_uielement_lod0@Ogre@@UAEPAVD3DTech@2@XZ ; Ogre::D3DTech_uielement_lod0::clone
PUBLIC	?init@D3DTech_uielement_lod0@Ogre@@UAEXABUShaderEnvFlags@2@ABUMaterialMacro@2@@Z ; Ogre::D3DTech_uielement_lod0::init
EXTRN	??_ED3DTech_uielement_lod0@Ogre@@UAEPAXI@Z:PROC	; Ogre::D3DTech_uielement_lod0::`vector deleting destructor'
;	COMDAT ??_R1A@?0A@EA@D3DTech_uielement_lod0@Ogre@@8
rdata$r	SEGMENT
??_R1A@?0A@EA@D3DTech_uielement_lod0@Ogre@@8 DD FLAT:??_R0?AVD3DTech_uielement_lod0@Ogre@@@8 ; Ogre::D3DTech_uielement_lod0::`RTTI Base Class Descriptor at (0,-1,0,64)'
	DD	02H
	DD	00H
	DD	0ffffffffH
	DD	00H
	DD	040H
	DD	FLAT:??_R3D3DTech_uielement_lod0@Ogre@@8
rdata$r	ENDS
;	COMDAT ??_R2D3DTech_uielement_lod0@Ogre@@8
rdata$r	SEGMENT
??_R2D3DTech_uielement_lod0@Ogre@@8 DD FLAT:??_R1A@?0A@EA@D3DTech_uielement_lod0@Ogre@@8 ; Ogre::D3DTech_uielement_lod0::`RTTI Base Class Array'
	DD	FLAT:??_R1A@?0A@EA@D3DTech@Ogre@@8
	DD	FLAT:??_R1A@?0A@EA@ShaderTechnique@Ogre@@8
rdata$r	ENDS
;	COMDAT ??_R3D3DTech_uielement_lod0@Ogre@@8
rdata$r	SEGMENT
??_R3D3DTech_uielement_lod0@Ogre@@8 DD 00H		; Ogre::D3DTech_uielement_lod0::`RTTI Class Hierarchy Descriptor'
	DD	00H
	DD	03H
	DD	FLAT:??_R2D3DTech_uielement_lod0@Ogre@@8
rdata$r	ENDS
;	COMDAT ??_R0?AVD3DTech_uielement_lod0@Ogre@@@8
_DATA	SEGMENT
??_R0?AVD3DTech_uielement_lod0@Ogre@@@8 DD FLAT:??_7type_info@@6B@ ; Ogre::D3DTech_uielement_lod0 `RTTI Type Descriptor'
	DD	00H
	DB	'.?AVD3DTech_uielement_lod0@Ogre@@', 00H
_DATA	ENDS
;	COMDAT ??_R4D3DTech_uielement_lod0@Ogre@@6B@
rdata$r	SEGMENT
??_R4D3DTech_uielement_lod0@Ogre@@6B@ DD 00H		; Ogre::D3DTech_uielement_lod0::`RTTI Complete Object Locator'
	DD	00H
	DD	00H
	DD	FLAT:??_R0?AVD3DTech_uielement_lod0@Ogre@@@8
	DD	FLAT:??_R3D3DTech_uielement_lod0@Ogre@@8
rdata$r	ENDS
;	COMDAT ??_7D3DTech_uielement_lod0@Ogre@@6B@
CONST	SEGMENT
??_7D3DTech_uielement_lod0@Ogre@@6B@ DD FLAT:??_R4D3DTech_uielement_lod0@Ogre@@6B@ ; Ogre::D3DTech_uielement_lod0::`vftable'
	DD	FLAT:?begin@D3DTech@Ogre@@UAEIXZ
	DD	FLAT:?end@D3DTech@Ogre@@UAEXXZ
	DD	FLAT:?beginPass@D3DTech_uielement_lod0@Ogre@@UAEXI@Z
	DD	FLAT:?endPass@D3DTech_uielement_lod0@Ogre@@UAEXXZ
	DD	FLAT:?setConstant@D3DTech@Ogre@@UAEXW4ShaderParamUsage@2@PBXI@Z
	DD	FLAT:?setConstant@D3DTech@Ogre@@UAEXPBDPBXI@Z
	DD	FLAT:?setTexture@D3DTech@Ogre@@UAEXW4ShaderParamUsage@2@PAVHardwarePixelBuffer@2@@Z
	DD	FLAT:?setTexture@D3DTech@Ogre@@UAEXPBDPAVHardwarePixelBuffer@2@@Z
	DD	FLAT:?setStreamInput@D3DTech@Ogre@@UAEXIPAPAVHardwareVertexBuffer@2@HPAI@Z
	DD	FLAT:?setStreamInput@D3DTech@Ogre@@UAEXIPAVHardwareVertexBuffer@2@I@Z
	DD	FLAT:?setStreamInput@D3DTech@Ogre@@UAEXIPAPAVHardwareVertexBuffer@2@PAI@Z
	DD	FLAT:?commitChanges@D3DTech@Ogre@@UAEXXZ
	DD	FLAT:?draw@D3DTech@Ogre@@UAEXW4PrimitiveType@2@IIPAVHardwareIndexBuffer@2@II@Z
	DD	FLAT:?draw@D3DTech@Ogre@@UAEXW4PrimitiveType@2@II@Z
	DD	FLAT:?getRequiredParams@D3DTech@Ogre@@UAEIPAW4ShaderParamUsage@2@I@Z
	DD	FLAT:??_ED3DTech_uielement_lod0@Ogre@@UAEPAXI@Z
	DD	FLAT:?clone@D3DTech_uielement_lod0@Ogre@@UAEPAVD3DTech@2@XZ
	DD	FLAT:?init@D3DTech_uielement_lod0@Ogre@@UAEXABUShaderEnvFlags@2@ABUMaterialMacro@2@@Z
CONST	ENDS
;	COMDAT xdata$x
xdata$x	SEGMENT
__unwindtable$??0D3DTech_uielement_lod0@Ogre@@QAE@XZ DD 0ffffffffH
	DD	FLAT:__unwindfunclet$??0D3DTech_uielement_lod0@Ogre@@QAE@XZ$0
__ehfuncinfo$??0D3DTech_uielement_lod0@Ogre@@QAE@XZ DD 019930522H
	DD	01H
	DD	FLAT:__unwindtable$??0D3DTech_uielement_lod0@Ogre@@QAE@XZ
	DD	2 DUP(00H)
	DD	2 DUP(00H)
	DD	00H
	DD	00H
; Function compile flags: /Odtp
xdata$x	ENDS
;	COMDAT ??0D3DTech_uielement_lod0@Ogre@@QAE@XZ
_TEXT	SEGMENT
_this$ = -16						; size = 4
__$EHRec$ = -12						; size = 12
??0D3DTech_uielement_lod0@Ogre@@QAE@XZ PROC		; Ogre::D3DTech_uielement_lod0::D3DTech_uielement_lod0, COMDAT
; _this$ = ecx
	push	ebp
	mov	ebp, esp
	push	-1
	push	__ehhandler$??0D3DTech_uielement_lod0@Ogre@@QAE@XZ
	mov	eax, DWORD PTR fs:0
	push	eax
	push	ecx
	mov	eax, DWORD PTR ___security_cookie
	xor	eax, ebp
	push	eax
	lea	eax, DWORD PTR __$EHRec$[ebp]
	mov	DWORD PTR fs:0, eax
	mov	DWORD PTR _this$[ebp], ecx
	mov	ecx, DWORD PTR _this$[ebp]
	call	??0D3DTech@Ogre@@QAE@XZ			; Ogre::D3DTech::D3DTech
	mov	DWORD PTR __$EHRec$[ebp+8], 0
	mov	eax, DWORD PTR _this$[ebp]
	mov	DWORD PTR [eax], OFFSET ??_7D3DTech_uielement_lod0@Ogre@@6B@
	mov	DWORD PTR __$EHRec$[ebp+8], -1
	mov	eax, DWORD PTR _this$[ebp]
	mov	ecx, DWORD PTR __$EHRec$[ebp]
	mov	DWORD PTR fs:0, ecx
	pop	ecx
	mov	esp, ebp
	pop	ebp
	ret	0
_TEXT	ENDS
;	COMDAT text$x
text$x	SEGMENT
__unwindfunclet$??0D3DTech_uielement_lod0@Ogre@@QAE@XZ$0:
	mov	ecx, DWORD PTR _this$[ebp]
	jmp	??1D3DTech@Ogre@@UAE@XZ
__ehhandler$??0D3DTech_uielement_lod0@Ogre@@QAE@XZ:
	mov	edx, DWORD PTR [esp+8]
	lea	eax, DWORD PTR [edx+12]
	mov	ecx, DWORD PTR [edx-8]
	xor	ecx, eax
	call	@__security_check_cookie@4
	mov	eax, OFFSET __ehfuncinfo$??0D3DTech_uielement_lod0@Ogre@@QAE@XZ
	jmp	___CxxFrameHandler3
text$x	ENDS
??0D3DTech_uielement_lod0@Ogre@@QAE@XZ ENDP		; Ogre::D3DTech_uielement_lod0::D3DTech_uielement_lod0
;	COMDAT xdata$x
; File i:\svnroot\client\plugins\rendersystem_d3d9\ogred3d9tech_uielement.h
xdata$x	SEGMENT
__unwindtable$?clone@D3DTech_uielement_lod0@Ogre@@UAEPAVD3DTech@2@XZ DD 0ffffffffH
	DD	FLAT:__unwindfunclet$?clone@D3DTech_uielement_lod0@Ogre@@UAEPAVD3DTech@2@XZ$0
__ehfuncinfo$?clone@D3DTech_uielement_lod0@Ogre@@UAEPAVD3DTech@2@XZ DD 019930522H
	DD	01H
	DD	FLAT:__unwindtable$?clone@D3DTech_uielement_lod0@Ogre@@UAEPAVD3DTech@2@XZ
	DD	2 DUP(00H)
	DD	2 DUP(00H)
	DD	00H
	DD	00H
; Function compile flags: /Odtp
xdata$x	ENDS
;	COMDAT ?clone@D3DTech_uielement_lod0@Ogre@@UAEPAVD3DTech@2@XZ
_TEXT	SEGMENT
tv74 = -28						; size = 4
_this$ = -24						; size = 4
$T140309 = -20						; size = 4
$T140308 = -16						; size = 4
__$EHRec$ = -12						; size = 12
?clone@D3DTech_uielement_lod0@Ogre@@UAEPAVD3DTech@2@XZ PROC ; Ogre::D3DTech_uielement_lod0::clone, COMDAT
; _this$ = ecx

; 22   : 		{

	push	ebp
	mov	ebp, esp
	push	-1
	push	__ehhandler$?clone@D3DTech_uielement_lod0@Ogre@@UAEPAVD3DTech@2@XZ
	mov	eax, DWORD PTR fs:0
	push	eax
	sub	esp, 16					; 00000010H
	mov	eax, DWORD PTR ___security_cookie
	xor	eax, ebp
	push	eax
	lea	eax, DWORD PTR __$EHRec$[ebp]
	mov	DWORD PTR fs:0, eax
	mov	DWORD PTR _this$[ebp], ecx

; 23   : 			return new D3DTech_uielement_lod0;

	push	396					; 0000018cH
	call	??2@YAPAXI@Z				; operator new
	add	esp, 4
	mov	DWORD PTR $T140309[ebp], eax
	mov	DWORD PTR __$EHRec$[ebp+8], 0
	cmp	DWORD PTR $T140309[ebp], 0
	je	SHORT $LN3@clone@21
	mov	ecx, DWORD PTR $T140309[ebp]
	call	??0D3DTech_uielement_lod0@Ogre@@QAE@XZ
	mov	DWORD PTR tv74[ebp], eax
	jmp	SHORT $LN4@clone@21
$LN3@clone@21:
	mov	DWORD PTR tv74[ebp], 0
$LN4@clone@21:
	mov	eax, DWORD PTR tv74[ebp]
	mov	DWORD PTR $T140308[ebp], eax
	mov	DWORD PTR __$EHRec$[ebp+8], -1
	mov	eax, DWORD PTR $T140308[ebp]

; 24   : 		}

	mov	ecx, DWORD PTR __$EHRec$[ebp]
	mov	DWORD PTR fs:0, ecx
	pop	ecx
	mov	esp, ebp
	pop	ebp
	ret	0
_TEXT	ENDS
;	COMDAT text$x
text$x	SEGMENT
__unwindfunclet$?clone@D3DTech_uielement_lod0@Ogre@@UAEPAVD3DTech@2@XZ$0:
	mov	eax, DWORD PTR $T140309[ebp]
	push	eax
	call	??3@YAXPAX@Z				; operator delete
	pop	ecx
	ret	0
__ehhandler$?clone@D3DTech_uielement_lod0@Ogre@@UAEPAVD3DTech@2@XZ:
	mov	edx, DWORD PTR [esp+8]
	lea	eax, DWORD PTR [edx+12]
	mov	ecx, DWORD PTR [edx-20]
	xor	ecx, eax
	call	@__security_check_cookie@4
	mov	eax, OFFSET __ehfuncinfo$?clone@D3DTech_uielement_lod0@Ogre@@UAEPAVD3DTech@2@XZ
	jmp	___CxxFrameHandler3
text$x	ENDS
?clone@D3DTech_uielement_lod0@Ogre@@UAEPAVD3DTech@2@XZ ENDP ; Ogre::D3DTech_uielement_lod0::clone
; Function compile flags: /Odtp
;	COMDAT ?init@D3DTech_uielement_lod0@Ogre@@UAEXABUShaderEnvFlags@2@ABUMaterialMacro@2@@Z
_TEXT	SEGMENT
_this$ = -12						; size = 4
_indx$133528 = -8					; size = 4
_i$133524 = -4						; size = 4
_env$ = 8						; size = 4
_macros$ = 12						; size = 4
?init@D3DTech_uielement_lod0@Ogre@@UAEXABUShaderEnvFlags@2@ABUMaterialMacro@2@@Z PROC ; Ogre::D3DTech_uielement_lod0::init, COMDAT
; _this$ = ecx

; 27   : 		{

	push	ebp
	mov	ebp, esp
	sub	esp, 12					; 0000000cH
	mov	DWORD PTR _this$[ebp], ecx

; 28   : 			m_BlendMode = m_HasMaskTex = 0;

	mov	eax, DWORD PTR _this$[ebp]
	mov	BYTE PTR [eax+393], 0
	mov	ecx, DWORD PTR _this$[ebp]
	mov	BYTE PTR [ecx+392], 0

; 29   : 
; 30   : 			for(int i=0; i<MaterialMacro::MAX_MACRO; i++)

	mov	DWORD PTR _i$133524[ebp], 0
	jmp	SHORT $LN11@init@12
$LN10@init@12:
	mov	edx, DWORD PTR _i$133524[ebp]
	add	edx, 1
	mov	DWORD PTR _i$133524[ebp], edx
$LN11@init@12:
	cmp	DWORD PTR _i$133524[ebp], 4
	jge	SHORT $LN9@init@12

; 31   : 			{
; 32   : 				int indx = macros.indices[i];

	mov	eax, DWORD PTR _macros$[ebp]
	add	eax, DWORD PTR _i$133524[ebp]
	movzx	ecx, BYTE PTR [eax]
	mov	DWORD PTR _indx$133528[ebp], ecx

; 33   : 				if(indx == 0) break;

	cmp	DWORD PTR _indx$133528[ebp], 0
	jne	SHORT $LN8@init@12
	jmp	SHORT $LN9@init@12
$LN8@init@12:

; 34   : 
; 35   : 				if(indx == MTLPARAM_BLEND_MODE) m_BlendMode = macros.value[i];

	cmp	DWORD PTR _indx$133528[ebp], 1
	jne	SHORT $LN7@init@12
	mov	edx, DWORD PTR _macros$[ebp]
	add	edx, DWORD PTR _i$133524[ebp]
	mov	eax, DWORD PTR _this$[ebp]
	mov	cl, BYTE PTR [edx+4]
	mov	BYTE PTR [eax+392], cl
	jmp	SHORT $LN6@init@12
$LN7@init@12:

; 36   : 				else if(indx == MTLPARAM_MASK_TEXTURE) m_HasMaskTex = macros.value[i];

	cmp	DWORD PTR _indx$133528[ebp], 2
	jne	SHORT $LN5@init@12
	mov	edx, DWORD PTR _macros$[ebp]
	add	edx, DWORD PTR _i$133524[ebp]
	mov	eax, DWORD PTR _this$[ebp]
	mov	cl, BYTE PTR [edx+4]
	mov	BYTE PTR [eax+393], cl
	jmp	SHORT $LN6@init@12
$LN5@init@12:

; 37   : 				else if(indx == MTLPARAM_RGB2GRAY) m_RGB2GRAY = macros.value[i];

	cmp	DWORD PTR _indx$133528[ebp], 3
	jne	SHORT $LN6@init@12
	mov	edx, DWORD PTR _macros$[ebp]
	add	edx, DWORD PTR _i$133524[ebp]
	mov	eax, DWORD PTR _this$[ebp]
	mov	cl, BYTE PTR [edx+4]
	mov	BYTE PTR [eax+394], cl
$LN6@init@12:

; 38   : 			}

	jmp	SHORT $LN10@init@12
$LN9@init@12:

; 39   : 
; 40   : 			m_nPass = 1;

	mov	edx, DWORD PTR _this$[ebp]
	mov	DWORD PTR [edx+188], 1

; 41   : 			m_AllPass[0].vs = NULL;

	mov	eax, DWORD PTR _this$[ebp]
	mov	DWORD PTR [eax+12], 0

; 42   : 
; 43   : 			if (m_RGB2GRAY)

	mov	ecx, DWORD PTR _this$[ebp]
	movzx	edx, BYTE PTR [ecx+394]
	test	edx, edx
	je	SHORT $LN2@init@12

; 44   : 				m_AllPass[0].ps = m_pMtlTemplate->getCompiledVSPS(COMPILED_PS, "Main", env, macros);

	mov	eax, DWORD PTR _macros$[ebp]
	push	eax
	mov	ecx, DWORD PTR _env$[ebp]
	push	ecx
	push	OFFSET ??_C@_04KGFMLCPK@Main?$AA@
	push	2
	mov	edx, DWORD PTR _this$[ebp]
	mov	ecx, DWORD PTR [edx+8]
	call	?getCompiledVSPS@D3DMaterialTemplate@Ogre@@QAEPAVCompiledShader@2@W4COMPILED_TYPE@2@PBDABUShaderEnvFlags@2@ABUMaterialMacro@2@@Z ; Ogre::D3DMaterialTemplate::getCompiledVSPS
	mov	ecx, DWORD PTR _this$[ebp]
	mov	DWORD PTR [ecx+16], eax

; 45   : 			else

	jmp	SHORT $LN1@init@12
$LN2@init@12:

; 46   : 				m_AllPass[0].ps = NULL;

	mov	edx, DWORD PTR _this$[ebp]
	mov	DWORD PTR [edx+16], 0
$LN1@init@12:

; 47   : 
; 48   : 			m_AllPass[0].ntex = 2;

	mov	eax, DWORD PTR _this$[ebp]
	mov	DWORD PTR [eax+20], 2

; 49   : 			m_AllPass[0].texstage[0] = SPU_GENERAL_PARAM + 3; //diffusetex

	mov	ecx, DWORD PTR _this$[ebp]
	mov	DWORD PTR [ecx+24], 1003		; 000003ebH

; 50   : 			m_AllPass[0].texstage[1] = SPU_GENERAL_PARAM + 4; //masktex

	mov	edx, DWORD PTR _this$[ebp]
	mov	DWORD PTR [edx+28], 1004		; 000003ecH

; 51   : 
; 52   : 			initParams();

	mov	ecx, DWORD PTR _this$[ebp]
	call	?initParams@D3DTech@Ogre@@IAEXXZ	; Ogre::D3DTech::initParams

; 53   : 			m_UsedMacroMask = m_BlendMode|(m_HasMaskTex<<8);

	mov	eax, DWORD PTR _this$[ebp]
	movzx	ecx, BYTE PTR [eax+392]
	mov	edx, DWORD PTR _this$[ebp]
	movzx	eax, BYTE PTR [edx+393]
	shl	eax, 8
	or	ecx, eax
	mov	edx, DWORD PTR _this$[ebp]
	mov	DWORD PTR [edx+4], ecx

; 54   : 		}

	mov	esp, ebp
	pop	ebp
	ret	8
?init@D3DTech_uielement_lod0@Ogre@@UAEXABUShaderEnvFlags@2@ABUMaterialMacro@2@@Z ENDP ; Ogre::D3DTech_uielement_lod0::init
; Function compile flags: /Odtp
_TEXT	ENDS
;	COMDAT ?beginPass@D3DTech_uielement_lod0@Ogre@@UAEXI@Z
_TEXT	SEGMENT
_this$ = -4						; size = 4
_ipass$ = 8						; size = 4
?beginPass@D3DTech_uielement_lod0@Ogre@@UAEXI@Z PROC	; Ogre::D3DTech_uielement_lod0::beginPass, COMDAT
; _this$ = ecx

; 57   : 		{

	push	ebp
	mov	ebp, esp
	push	ecx
	mov	DWORD PTR _this$[ebp], ecx

; 58   : 			m_CurPass = ipass;

	mov	eax, DWORD PTR _this$[ebp]
	mov	ecx, DWORD PTR _ipass$[ebp]
	mov	DWORD PTR [eax+192], ecx

; 59   : 
; 60   : 			SetBlendState(m_pDevice, m_BlendMode);

	push	-1
	mov	edx, DWORD PTR _this$[ebp]
	movzx	eax, BYTE PTR [edx+392]
	push	eax
	mov	ecx, DWORD PTR ?m_pDevice@D3DTech@Ogre@@2PAUIDirect3DDevice9@@A ; Ogre::D3DTech::m_pDevice
	push	ecx
	call	?SetBlendState@Ogre@@YAXPAUIDirect3DDevice9@@HH@Z ; Ogre::SetBlendState
	add	esp, 12					; 0000000cH

; 61   : 			m_pDevice->SetRenderState(D3DRS_CULLMODE, D3DCULL_NONE);

	push	1
	push	22					; 00000016H
	mov	edx, DWORD PTR ?m_pDevice@D3DTech@Ogre@@2PAUIDirect3DDevice9@@A ; Ogre::D3DTech::m_pDevice
	mov	eax, DWORD PTR [edx]
	mov	ecx, DWORD PTR ?m_pDevice@D3DTech@Ogre@@2PAUIDirect3DDevice9@@A ; Ogre::D3DTech::m_pDevice
	push	ecx
	mov	edx, DWORD PTR [eax+228]
	call	edx

; 62   : 			m_pDevice->SetRenderState(D3DRS_ZENABLE, FALSE);

	push	0
	push	7
	mov	eax, DWORD PTR ?m_pDevice@D3DTech@Ogre@@2PAUIDirect3DDevice9@@A ; Ogre::D3DTech::m_pDevice
	mov	ecx, DWORD PTR [eax]
	mov	edx, DWORD PTR ?m_pDevice@D3DTech@Ogre@@2PAUIDirect3DDevice9@@A ; Ogre::D3DTech::m_pDevice
	push	edx
	mov	eax, DWORD PTR [ecx+228]
	call	eax

; 63   : 
; 64   : 			if (m_RGB2GRAY)

	mov	ecx, DWORD PTR _this$[ebp]
	movzx	edx, BYTE PTR [ecx+394]
	test	edx, edx
	je	SHORT $LN4@beginPass@7

; 65   : 			{
; 66   : 				SamplerState_Wrap(m_pDevice, 0);

	push	0
	mov	eax, DWORD PTR ?m_pDevice@D3DTech@Ogre@@2PAUIDirect3DDevice9@@A ; Ogre::D3DTech::m_pDevice
	push	eax
	call	?SamplerState_Wrap@Ogre@@YAXPAUIDirect3DDevice9@@H@Z ; Ogre::SamplerState_Wrap
	add	esp, 8

; 67   : 				SamplerState_Clamp(m_pDevice, 1);

	push	1
	mov	ecx, DWORD PTR ?m_pDevice@D3DTech@Ogre@@2PAUIDirect3DDevice9@@A ; Ogre::D3DTech::m_pDevice
	push	ecx
	call	?SamplerState_Clamp@Ogre@@YAXPAUIDirect3DDevice9@@H@Z ; Ogre::SamplerState_Clamp
	add	esp, 8

; 68   : 			}
; 69   : 			else

	jmp	$LN3@beginPass@7
$LN4@beginPass@7:

; 70   : 			{
; 71   : 				SamplerState_Wrap(m_pDevice, 0);

	push	0
	mov	edx, DWORD PTR ?m_pDevice@D3DTech@Ogre@@2PAUIDirect3DDevice9@@A ; Ogre::D3DTech::m_pDevice
	push	edx
	call	?SamplerState_Wrap@Ogre@@YAXPAUIDirect3DDevice9@@H@Z ; Ogre::SamplerState_Wrap
	add	esp, 8

; 72   : 				m_pDevice->SetTextureStageState(0, D3DTSS_COLOROP, D3DTOP_MODULATE);

	push	4
	push	1
	push	0
	mov	eax, DWORD PTR ?m_pDevice@D3DTech@Ogre@@2PAUIDirect3DDevice9@@A ; Ogre::D3DTech::m_pDevice
	mov	ecx, DWORD PTR [eax]
	mov	edx, DWORD PTR ?m_pDevice@D3DTech@Ogre@@2PAUIDirect3DDevice9@@A ; Ogre::D3DTech::m_pDevice
	push	edx
	mov	eax, DWORD PTR [ecx+268]
	call	eax

; 73   : 				m_pDevice->SetTextureStageState(0, D3DTSS_ALPHAOP, D3DTOP_MODULATE);

	push	4
	push	4
	push	0
	mov	ecx, DWORD PTR ?m_pDevice@D3DTech@Ogre@@2PAUIDirect3DDevice9@@A ; Ogre::D3DTech::m_pDevice
	mov	edx, DWORD PTR [ecx]
	mov	eax, DWORD PTR ?m_pDevice@D3DTech@Ogre@@2PAUIDirect3DDevice9@@A ; Ogre::D3DTech::m_pDevice
	push	eax
	mov	ecx, DWORD PTR [edx+268]
	call	ecx

; 74   : 
; 75   : 				if(m_HasMaskTex)

	mov	edx, DWORD PTR _this$[ebp]
	movzx	eax, BYTE PTR [edx+393]
	test	eax, eax
	je	SHORT $LN2@beginPass@7

; 76   : 				{
; 77   : 					SamplerState_Clamp(m_pDevice, 1);

	push	1
	mov	ecx, DWORD PTR ?m_pDevice@D3DTech@Ogre@@2PAUIDirect3DDevice9@@A ; Ogre::D3DTech::m_pDevice
	push	ecx
	call	?SamplerState_Clamp@Ogre@@YAXPAUIDirect3DDevice9@@H@Z ; Ogre::SamplerState_Clamp
	add	esp, 8

; 78   : 					m_pDevice->SetTextureStageState(1, D3DTSS_COLOROP, D3DTOP_MODULATE);

	push	4
	push	1
	push	1
	mov	edx, DWORD PTR ?m_pDevice@D3DTech@Ogre@@2PAUIDirect3DDevice9@@A ; Ogre::D3DTech::m_pDevice
	mov	eax, DWORD PTR [edx]
	mov	ecx, DWORD PTR ?m_pDevice@D3DTech@Ogre@@2PAUIDirect3DDevice9@@A ; Ogre::D3DTech::m_pDevice
	push	ecx
	mov	edx, DWORD PTR [eax+268]
	call	edx

; 79   : 					m_pDevice->SetTextureStageState(1, D3DTSS_ALPHAOP, D3DTOP_MODULATE);

	push	4
	push	4
	push	1
	mov	eax, DWORD PTR ?m_pDevice@D3DTech@Ogre@@2PAUIDirect3DDevice9@@A ; Ogre::D3DTech::m_pDevice
	mov	ecx, DWORD PTR [eax]
	mov	edx, DWORD PTR ?m_pDevice@D3DTech@Ogre@@2PAUIDirect3DDevice9@@A ; Ogre::D3DTech::m_pDevice
	push	edx
	mov	eax, DWORD PTR [ecx+268]
	call	eax

; 80   : 					m_pDevice->SetTextureStageState(2, D3DTSS_COLOROP, D3DTOP_DISABLE);

	push	1
	push	1
	push	2
	mov	ecx, DWORD PTR ?m_pDevice@D3DTech@Ogre@@2PAUIDirect3DDevice9@@A ; Ogre::D3DTech::m_pDevice
	mov	edx, DWORD PTR [ecx]
	mov	eax, DWORD PTR ?m_pDevice@D3DTech@Ogre@@2PAUIDirect3DDevice9@@A ; Ogre::D3DTech::m_pDevice
	push	eax
	mov	ecx, DWORD PTR [edx+268]
	call	ecx

; 81   : 				}
; 82   : 				else 

	jmp	SHORT $LN3@beginPass@7
$LN2@beginPass@7:

; 83   : 					m_pDevice->SetTextureStageState(1, D3DTSS_COLOROP, D3DTOP_DISABLE);

	push	1
	push	1
	push	1
	mov	edx, DWORD PTR ?m_pDevice@D3DTech@Ogre@@2PAUIDirect3DDevice9@@A ; Ogre::D3DTech::m_pDevice
	mov	eax, DWORD PTR [edx]
	mov	ecx, DWORD PTR ?m_pDevice@D3DTech@Ogre@@2PAUIDirect3DDevice9@@A ; Ogre::D3DTech::m_pDevice
	push	ecx
	mov	edx, DWORD PTR [eax+268]
	call	edx
$LN3@beginPass@7:

; 84   : 			}
; 85   : 
; 86   : 			applyVSPS(m_CurPass);

	mov	eax, DWORD PTR _this$[ebp]
	mov	ecx, DWORD PTR [eax+192]
	push	ecx
	mov	ecx, DWORD PTR _this$[ebp]
	call	?applyVSPS@D3DTech@Ogre@@IAEXI@Z	; Ogre::D3DTech::applyVSPS

; 87   : 		}

	mov	esp, ebp
	pop	ebp
	ret	4
?beginPass@D3DTech_uielement_lod0@Ogre@@UAEXI@Z ENDP	; Ogre::D3DTech_uielement_lod0::beginPass
; Function compile flags: /Odtp
_TEXT	ENDS
;	COMDAT ?endPass@D3DTech_uielement_lod0@Ogre@@UAEXXZ
_TEXT	SEGMENT
_this$ = -4						; size = 4
?endPass@D3DTech_uielement_lod0@Ogre@@UAEXXZ PROC	; Ogre::D3DTech_uielement_lod0::endPass, COMDAT
; _this$ = ecx

; 90   : 		{

	push	ebp
	mov	ebp, esp
	push	ecx
	mov	DWORD PTR _this$[ebp], ecx

; 91   : 			m_pDevice->SetRenderState(D3DRS_CULLMODE, D3DCULL_CCW);

	push	3
	push	22					; 00000016H
	mov	eax, DWORD PTR ?m_pDevice@D3DTech@Ogre@@2PAUIDirect3DDevice9@@A ; Ogre::D3DTech::m_pDevice
	mov	ecx, DWORD PTR [eax]
	mov	edx, DWORD PTR ?m_pDevice@D3DTech@Ogre@@2PAUIDirect3DDevice9@@A ; Ogre::D3DTech::m_pDevice
	push	edx
	mov	eax, DWORD PTR [ecx+228]
	call	eax

; 92   : 			m_pDevice->SetRenderState(D3DRS_ZENABLE, TRUE);

	push	1
	push	7
	mov	ecx, DWORD PTR ?m_pDevice@D3DTech@Ogre@@2PAUIDirect3DDevice9@@A ; Ogre::D3DTech::m_pDevice
	mov	edx, DWORD PTR [ecx]
	mov	eax, DWORD PTR ?m_pDevice@D3DTech@Ogre@@2PAUIDirect3DDevice9@@A ; Ogre::D3DTech::m_pDevice
	push	eax
	mov	ecx, DWORD PTR [edx+228]
	call	ecx

; 93   : 		}

	mov	esp, ebp
	pop	ebp
	ret	0
?endPass@D3DTech_uielement_lod0@Ogre@@UAEXXZ ENDP	; Ogre::D3DTech_uielement_lod0::endPass
_TEXT	ENDS
PUBLIC	??1D3DTech_uielement_lod0@Ogre@@UAE@XZ		; Ogre::D3DTech_uielement_lod0::~D3DTech_uielement_lod0
; Function compile flags: /Odtp
;	COMDAT ??_GD3DTech_uielement_lod0@Ogre@@UAEPAXI@Z
_TEXT	SEGMENT
_this$ = -4						; size = 4
___flags$ = 8						; size = 4
??_GD3DTech_uielement_lod0@Ogre@@UAEPAXI@Z PROC		; Ogre::D3DTech_uielement_lod0::`scalar deleting destructor', COMDAT
; _this$ = ecx
	push	ebp
	mov	ebp, esp
	push	ecx
	mov	DWORD PTR _this$[ebp], ecx
	mov	ecx, DWORD PTR _this$[ebp]
	call	??1D3DTech_uielement_lod0@Ogre@@UAE@XZ
	mov	eax, DWORD PTR ___flags$[ebp]
	and	eax, 1
	je	SHORT $LN1@scalar@22
	mov	ecx, DWORD PTR _this$[ebp]
	push	ecx
	call	??3@YAXPAX@Z				; operator delete
	add	esp, 4
$LN1@scalar@22:
	mov	eax, DWORD PTR _this$[ebp]
	mov	esp, ebp
	pop	ebp
	ret	4
??_GD3DTech_uielement_lod0@Ogre@@UAEPAXI@Z ENDP		; Ogre::D3DTech_uielement_lod0::`scalar deleting destructor'
_TEXT	ENDS
;	COMDAT xdata$x
xdata$x	SEGMENT
__unwindtable$??1D3DTech_uielement_lod0@Ogre@@UAE@XZ DD 0ffffffffH
	DD	FLAT:__unwindfunclet$??1D3DTech_uielement_lod0@Ogre@@UAE@XZ$0
__ehfuncinfo$??1D3DTech_uielement_lod0@Ogre@@UAE@XZ DD 019930522H
	DD	01H
	DD	FLAT:__unwindtable$??1D3DTech_uielement_lod0@Ogre@@UAE@XZ
	DD	2 DUP(00H)
	DD	2 DUP(00H)
	DD	00H
	DD	00H
; Function compile flags: /Odtp
xdata$x	ENDS
;	COMDAT ??1D3DTech_uielement_lod0@Ogre@@UAE@XZ
_TEXT	SEGMENT
_this$ = -16						; size = 4
__$EHRec$ = -12						; size = 12
??1D3DTech_uielement_lod0@Ogre@@UAE@XZ PROC		; Ogre::D3DTech_uielement_lod0::~D3DTech_uielement_lod0, COMDAT
; _this$ = ecx
	push	ebp
	mov	ebp, esp
	push	-1
	push	__ehhandler$??1D3DTech_uielement_lod0@Ogre@@UAE@XZ
	mov	eax, DWORD PTR fs:0
	push	eax
	push	ecx
	mov	eax, DWORD PTR ___security_cookie
	xor	eax, ebp
	push	eax
	lea	eax, DWORD PTR __$EHRec$[ebp]
	mov	DWORD PTR fs:0, eax
	mov	DWORD PTR _this$[ebp], ecx
	mov	DWORD PTR __$EHRec$[ebp+8], 0
	mov	DWORD PTR __$EHRec$[ebp+8], -1
	mov	ecx, DWORD PTR _this$[ebp]
	call	??1D3DTech@Ogre@@UAE@XZ
	mov	ecx, DWORD PTR __$EHRec$[ebp]
	mov	DWORD PTR fs:0, ecx
	pop	ecx
	mov	esp, ebp
	pop	ebp
	ret	0
_TEXT	ENDS
;	COMDAT text$x
text$x	SEGMENT
__unwindfunclet$??1D3DTech_uielement_lod0@Ogre@@UAE@XZ$0:
	mov	ecx, DWORD PTR _this$[ebp]
	jmp	??1D3DTech@Ogre@@UAE@XZ
__ehhandler$??1D3DTech_uielement_lod0@Ogre@@UAE@XZ:
	mov	edx, DWORD PTR [esp+8]
	lea	eax, DWORD PTR [edx+12]
	mov	ecx, DWORD PTR [edx-8]
	xor	ecx, eax
	call	@__security_check_cookie@4
	mov	eax, OFFSET __ehfuncinfo$??1D3DTech_uielement_lod0@Ogre@@UAE@XZ
	jmp	___CxxFrameHandler3
text$x	ENDS
??1D3DTech_uielement_lod0@Ogre@@UAE@XZ ENDP		; Ogre::D3DTech_uielement_lod0::~D3DTech_uielement_lod0
PUBLIC	??_7D3DTech_sky_stdmtl_lod0@Ogre@@6B@		; Ogre::D3DTech_sky_stdmtl_lod0::`vftable'
PUBLIC	??_R4D3DTech_sky_stdmtl_lod0@Ogre@@6B@		; Ogre::D3DTech_sky_stdmtl_lod0::`RTTI Complete Object Locator'
PUBLIC	??_R0?AVD3DTech_sky_stdmtl_lod0@Ogre@@@8	; Ogre::D3DTech_sky_stdmtl_lod0 `RTTI Type Descriptor'
PUBLIC	??_R3D3DTech_sky_stdmtl_lod0@Ogre@@8		; Ogre::D3DTech_sky_stdmtl_lod0::`RTTI Class Hierarchy Descriptor'
PUBLIC	??_R2D3DTech_sky_stdmtl_lod0@Ogre@@8		; Ogre::D3DTech_sky_stdmtl_lod0::`RTTI Base Class Array'
PUBLIC	??_R1A@?0A@EA@D3DTech_sky_stdmtl_lod0@Ogre@@8	; Ogre::D3DTech_sky_stdmtl_lod0::`RTTI Base Class Descriptor at (0,-1,0,64)'
PUBLIC	?beginPass@D3DTech_sky_stdmtl_lod0@Ogre@@UAEXI@Z ; Ogre::D3DTech_sky_stdmtl_lod0::beginPass
PUBLIC	?endPass@D3DTech_sky_stdmtl_lod0@Ogre@@UAEXXZ	; Ogre::D3DTech_sky_stdmtl_lod0::endPass
PUBLIC	?clone@D3DTech_sky_stdmtl_lod0@Ogre@@UAEPAVD3DTech@2@XZ ; Ogre::D3DTech_sky_stdmtl_lod0::clone
PUBLIC	?init@D3DTech_sky_stdmtl_lod0@Ogre@@UAEXABUShaderEnvFlags@2@ABUMaterialMacro@2@@Z ; Ogre::D3DTech_sky_stdmtl_lod0::init
EXTRN	??_ED3DTech_sky_stdmtl_lod0@Ogre@@UAEPAXI@Z:PROC ; Ogre::D3DTech_sky_stdmtl_lod0::`vector deleting destructor'
;	COMDAT ??_R1A@?0A@EA@D3DTech_sky_stdmtl_lod0@Ogre@@8
rdata$r	SEGMENT
??_R1A@?0A@EA@D3DTech_sky_stdmtl_lod0@Ogre@@8 DD FLAT:??_R0?AVD3DTech_sky_stdmtl_lod0@Ogre@@@8 ; Ogre::D3DTech_sky_stdmtl_lod0::`RTTI Base Class Descriptor at (0,-1,0,64)'
	DD	02H
	DD	00H
	DD	0ffffffffH
	DD	00H
	DD	040H
	DD	FLAT:??_R3D3DTech_sky_stdmtl_lod0@Ogre@@8
rdata$r	ENDS
;	COMDAT ??_R2D3DTech_sky_stdmtl_lod0@Ogre@@8
rdata$r	SEGMENT
??_R2D3DTech_sky_stdmtl_lod0@Ogre@@8 DD FLAT:??_R1A@?0A@EA@D3DTech_sky_stdmtl_lod0@Ogre@@8 ; Ogre::D3DTech_sky_stdmtl_lod0::`RTTI Base Class Array'
	DD	FLAT:??_R1A@?0A@EA@D3DTech@Ogre@@8
	DD	FLAT:??_R1A@?0A@EA@ShaderTechnique@Ogre@@8
rdata$r	ENDS
;	COMDAT ??_R3D3DTech_sky_stdmtl_lod0@Ogre@@8
rdata$r	SEGMENT
??_R3D3DTech_sky_stdmtl_lod0@Ogre@@8 DD 00H		; Ogre::D3DTech_sky_stdmtl_lod0::`RTTI Class Hierarchy Descriptor'
	DD	00H
	DD	03H
	DD	FLAT:??_R2D3DTech_sky_stdmtl_lod0@Ogre@@8
rdata$r	ENDS
;	COMDAT ??_R0?AVD3DTech_sky_stdmtl_lod0@Ogre@@@8
_DATA	SEGMENT
??_R0?AVD3DTech_sky_stdmtl_lod0@Ogre@@@8 DD FLAT:??_7type_info@@6B@ ; Ogre::D3DTech_sky_stdmtl_lod0 `RTTI Type Descriptor'
	DD	00H
	DB	'.?AVD3DTech_sky_stdmtl_lod0@Ogre@@', 00H
_DATA	ENDS
;	COMDAT ??_R4D3DTech_sky_stdmtl_lod0@Ogre@@6B@
rdata$r	SEGMENT
??_R4D3DTech_sky_stdmtl_lod0@Ogre@@6B@ DD 00H		; Ogre::D3DTech_sky_stdmtl_lod0::`RTTI Complete Object Locator'
	DD	00H
	DD	00H
	DD	FLAT:??_R0?AVD3DTech_sky_stdmtl_lod0@Ogre@@@8
	DD	FLAT:??_R3D3DTech_sky_stdmtl_lod0@Ogre@@8
rdata$r	ENDS
;	COMDAT ??_7D3DTech_sky_stdmtl_lod0@Ogre@@6B@
CONST	SEGMENT
??_7D3DTech_sky_stdmtl_lod0@Ogre@@6B@ DD FLAT:??_R4D3DTech_sky_stdmtl_lod0@Ogre@@6B@ ; Ogre::D3DTech_sky_stdmtl_lod0::`vftable'
	DD	FLAT:?begin@D3DTech@Ogre@@UAEIXZ
	DD	FLAT:?end@D3DTech@Ogre@@UAEXXZ
	DD	FLAT:?beginPass@D3DTech_sky_stdmtl_lod0@Ogre@@UAEXI@Z
	DD	FLAT:?endPass@D3DTech_sky_stdmtl_lod0@Ogre@@UAEXXZ
	DD	FLAT:?setConstant@D3DTech@Ogre@@UAEXW4ShaderParamUsage@2@PBXI@Z
	DD	FLAT:?setConstant@D3DTech@Ogre@@UAEXPBDPBXI@Z
	DD	FLAT:?setTexture@D3DTech@Ogre@@UAEXW4ShaderParamUsage@2@PAVHardwarePixelBuffer@2@@Z
	DD	FLAT:?setTexture@D3DTech@Ogre@@UAEXPBDPAVHardwarePixelBuffer@2@@Z
	DD	FLAT:?setStreamInput@D3DTech@Ogre@@UAEXIPAPAVHardwareVertexBuffer@2@HPAI@Z
	DD	FLAT:?setStreamInput@D3DTech@Ogre@@UAEXIPAVHardwareVertexBuffer@2@I@Z
	DD	FLAT:?setStreamInput@D3DTech@Ogre@@UAEXIPAPAVHardwareVertexBuffer@2@PAI@Z
	DD	FLAT:?commitChanges@D3DTech@Ogre@@UAEXXZ
	DD	FLAT:?draw@D3DTech@Ogre@@UAEXW4PrimitiveType@2@IIPAVHardwareIndexBuffer@2@II@Z
	DD	FLAT:?draw@D3DTech@Ogre@@UAEXW4PrimitiveType@2@II@Z
	DD	FLAT:?getRequiredParams@D3DTech@Ogre@@UAEIPAW4ShaderParamUsage@2@I@Z
	DD	FLAT:??_ED3DTech_sky_stdmtl_lod0@Ogre@@UAEPAXI@Z
	DD	FLAT:?clone@D3DTech_sky_stdmtl_lod0@Ogre@@UAEPAVD3DTech@2@XZ
	DD	FLAT:?init@D3DTech_sky_stdmtl_lod0@Ogre@@UAEXABUShaderEnvFlags@2@ABUMaterialMacro@2@@Z
CONST	ENDS
;	COMDAT xdata$x
xdata$x	SEGMENT
__unwindtable$??0D3DTech_sky_stdmtl_lod0@Ogre@@QAE@XZ DD 0ffffffffH
	DD	FLAT:__unwindfunclet$??0D3DTech_sky_stdmtl_lod0@Ogre@@QAE@XZ$0
__ehfuncinfo$??0D3DTech_sky_stdmtl_lod0@Ogre@@QAE@XZ DD 019930522H
	DD	01H
	DD	FLAT:__unwindtable$??0D3DTech_sky_stdmtl_lod0@Ogre@@QAE@XZ
	DD	2 DUP(00H)
	DD	2 DUP(00H)
	DD	00H
	DD	00H
; Function compile flags: /Odtp
xdata$x	ENDS
;	COMDAT ??0D3DTech_sky_stdmtl_lod0@Ogre@@QAE@XZ
_TEXT	SEGMENT
_this$ = -16						; size = 4
__$EHRec$ = -12						; size = 12
??0D3DTech_sky_stdmtl_lod0@Ogre@@QAE@XZ PROC		; Ogre::D3DTech_sky_stdmtl_lod0::D3DTech_sky_stdmtl_lod0, COMDAT
; _this$ = ecx
	push	ebp
	mov	ebp, esp
	push	-1
	push	__ehhandler$??0D3DTech_sky_stdmtl_lod0@Ogre@@QAE@XZ
	mov	eax, DWORD PTR fs:0
	push	eax
	push	ecx
	mov	eax, DWORD PTR ___security_cookie
	xor	eax, ebp
	push	eax
	lea	eax, DWORD PTR __$EHRec$[ebp]
	mov	DWORD PTR fs:0, eax
	mov	DWORD PTR _this$[ebp], ecx
	mov	ecx, DWORD PTR _this$[ebp]
	call	??0D3DTech@Ogre@@QAE@XZ			; Ogre::D3DTech::D3DTech
	mov	DWORD PTR __$EHRec$[ebp+8], 0
	mov	eax, DWORD PTR _this$[ebp]
	mov	DWORD PTR [eax], OFFSET ??_7D3DTech_sky_stdmtl_lod0@Ogre@@6B@
	mov	DWORD PTR __$EHRec$[ebp+8], -1
	mov	eax, DWORD PTR _this$[ebp]
	mov	ecx, DWORD PTR __$EHRec$[ebp]
	mov	DWORD PTR fs:0, ecx
	pop	ecx
	mov	esp, ebp
	pop	ebp
	ret	0
_TEXT	ENDS
;	COMDAT text$x
text$x	SEGMENT
__unwindfunclet$??0D3DTech_sky_stdmtl_lod0@Ogre@@QAE@XZ$0:
	mov	ecx, DWORD PTR _this$[ebp]
	jmp	??1D3DTech@Ogre@@UAE@XZ
__ehhandler$??0D3DTech_sky_stdmtl_lod0@Ogre@@QAE@XZ:
	mov	edx, DWORD PTR [esp+8]
	lea	eax, DWORD PTR [edx+12]
	mov	ecx, DWORD PTR [edx-8]
	xor	ecx, eax
	call	@__security_check_cookie@4
	mov	eax, OFFSET __ehfuncinfo$??0D3DTech_sky_stdmtl_lod0@Ogre@@QAE@XZ
	jmp	___CxxFrameHandler3
text$x	ENDS
??0D3DTech_sky_stdmtl_lod0@Ogre@@QAE@XZ ENDP		; Ogre::D3DTech_sky_stdmtl_lod0::D3DTech_sky_stdmtl_lod0
;	COMDAT xdata$x
; File i:\svnroot\client\plugins\rendersystem_d3d9\ogred3d9tech_sky_stdmtl.h
xdata$x	SEGMENT
__unwindtable$?clone@D3DTech_sky_stdmtl_lod0@Ogre@@UAEPAVD3DTech@2@XZ DD 0ffffffffH
	DD	FLAT:__unwindfunclet$?clone@D3DTech_sky_stdmtl_lod0@Ogre@@UAEPAVD3DTech@2@XZ$0
__ehfuncinfo$?clone@D3DTech_sky_stdmtl_lod0@Ogre@@UAEPAVD3DTech@2@XZ DD 019930522H
	DD	01H
	DD	FLAT:__unwindtable$?clone@D3DTech_sky_stdmtl_lod0@Ogre@@UAEPAVD3DTech@2@XZ
	DD	2 DUP(00H)
	DD	2 DUP(00H)
	DD	00H
	DD	00H
; Function compile flags: /Odtp
xdata$x	ENDS
;	COMDAT ?clone@D3DTech_sky_stdmtl_lod0@Ogre@@UAEPAVD3DTech@2@XZ
_TEXT	SEGMENT
tv74 = -28						; size = 4
_this$ = -24						; size = 4
$T140348 = -20						; size = 4
$T140347 = -16						; size = 4
__$EHRec$ = -12						; size = 12
?clone@D3DTech_sky_stdmtl_lod0@Ogre@@UAEPAVD3DTech@2@XZ PROC ; Ogre::D3DTech_sky_stdmtl_lod0::clone, COMDAT
; _this$ = ecx

; 13   : 		{

	push	ebp
	mov	ebp, esp
	push	-1
	push	__ehhandler$?clone@D3DTech_sky_stdmtl_lod0@Ogre@@UAEPAVD3DTech@2@XZ
	mov	eax, DWORD PTR fs:0
	push	eax
	sub	esp, 16					; 00000010H
	mov	eax, DWORD PTR ___security_cookie
	xor	eax, ebp
	push	eax
	lea	eax, DWORD PTR __$EHRec$[ebp]
	mov	DWORD PTR fs:0, eax
	mov	DWORD PTR _this$[ebp], ecx

; 14   : 			return new D3DTech_sky_stdmtl_lod0;

	push	392					; 00000188H
	call	??2@YAPAXI@Z				; operator new
	add	esp, 4
	mov	DWORD PTR $T140348[ebp], eax
	mov	DWORD PTR __$EHRec$[ebp+8], 0
	cmp	DWORD PTR $T140348[ebp], 0
	je	SHORT $LN3@clone@22
	mov	ecx, DWORD PTR $T140348[ebp]
	call	??0D3DTech_sky_stdmtl_lod0@Ogre@@QAE@XZ
	mov	DWORD PTR tv74[ebp], eax
	jmp	SHORT $LN4@clone@22
$LN3@clone@22:
	mov	DWORD PTR tv74[ebp], 0
$LN4@clone@22:
	mov	eax, DWORD PTR tv74[ebp]
	mov	DWORD PTR $T140347[ebp], eax
	mov	DWORD PTR __$EHRec$[ebp+8], -1
	mov	eax, DWORD PTR $T140347[ebp]

; 15   : 		}

	mov	ecx, DWORD PTR __$EHRec$[ebp]
	mov	DWORD PTR fs:0, ecx
	pop	ecx
	mov	esp, ebp
	pop	ebp
	ret	0
_TEXT	ENDS
;	COMDAT text$x
text$x	SEGMENT
__unwindfunclet$?clone@D3DTech_sky_stdmtl_lod0@Ogre@@UAEPAVD3DTech@2@XZ$0:
	mov	eax, DWORD PTR $T140348[ebp]
	push	eax
	call	??3@YAXPAX@Z				; operator delete
	pop	ecx
	ret	0
__ehhandler$?clone@D3DTech_sky_stdmtl_lod0@Ogre@@UAEPAVD3DTech@2@XZ:
	mov	edx, DWORD PTR [esp+8]
	lea	eax, DWORD PTR [edx+12]
	mov	ecx, DWORD PTR [edx-20]
	xor	ecx, eax
	call	@__security_check_cookie@4
	mov	eax, OFFSET __ehfuncinfo$?clone@D3DTech_sky_stdmtl_lod0@Ogre@@UAEPAVD3DTech@2@XZ
	jmp	___CxxFrameHandler3
text$x	ENDS
?clone@D3DTech_sky_stdmtl_lod0@Ogre@@UAEPAVD3DTech@2@XZ ENDP ; Ogre::D3DTech_sky_stdmtl_lod0::clone
; Function compile flags: /Odtp
;	COMDAT ?init@D3DTech_sky_stdmtl_lod0@Ogre@@UAEXABUShaderEnvFlags@2@ABUMaterialMacro@2@@Z
_TEXT	SEGMENT
_this$ = -4						; size = 4
_env$ = 8						; size = 4
_macros$ = 12						; size = 4
?init@D3DTech_sky_stdmtl_lod0@Ogre@@UAEXABUShaderEnvFlags@2@ABUMaterialMacro@2@@Z PROC ; Ogre::D3DTech_sky_stdmtl_lod0::init, COMDAT
; _this$ = ecx

; 18   : 		{

	push	ebp
	mov	ebp, esp
	push	ecx
	mov	DWORD PTR _this$[ebp], ecx

; 19   : 			m_nPass = 1;

	mov	eax, DWORD PTR _this$[ebp]
	mov	DWORD PTR [eax+188], 1

; 20   : 			m_AllPass[0].vs = m_pMtlTemplate->getCompiledVSPS(COMPILED_VS, "Main", env, macros);

	mov	ecx, DWORD PTR _macros$[ebp]
	push	ecx
	mov	edx, DWORD PTR _env$[ebp]
	push	edx
	push	OFFSET ??_C@_04KGFMLCPK@Main?$AA@
	push	1
	mov	eax, DWORD PTR _this$[ebp]
	mov	ecx, DWORD PTR [eax+8]
	call	?getCompiledVSPS@D3DMaterialTemplate@Ogre@@QAEPAVCompiledShader@2@W4COMPILED_TYPE@2@PBDABUShaderEnvFlags@2@ABUMaterialMacro@2@@Z ; Ogre::D3DMaterialTemplate::getCompiledVSPS
	mov	ecx, DWORD PTR _this$[ebp]
	mov	DWORD PTR [ecx+12], eax

; 21   : 			m_AllPass[0].ps = m_pMtlTemplate->getCompiledVSPS(COMPILED_PS, "Main", env, macros);

	mov	edx, DWORD PTR _macros$[ebp]
	push	edx
	mov	eax, DWORD PTR _env$[ebp]
	push	eax
	push	OFFSET ??_C@_04KGFMLCPK@Main?$AA@
	push	2
	mov	ecx, DWORD PTR _this$[ebp]
	mov	ecx, DWORD PTR [ecx+8]
	call	?getCompiledVSPS@D3DMaterialTemplate@Ogre@@QAEPAVCompiledShader@2@W4COMPILED_TYPE@2@PBDABUShaderEnvFlags@2@ABUMaterialMacro@2@@Z ; Ogre::D3DMaterialTemplate::getCompiledVSPS
	mov	edx, DWORD PTR _this$[ebp]
	mov	DWORD PTR [edx+16], eax

; 22   : 
; 23   : 			m_AllPass[0].ntex = 1;

	mov	eax, DWORD PTR _this$[ebp]
	mov	DWORD PTR [eax+20], 1

; 24   : 			m_AllPass[0].texstage[0] = SPU_GENERAL_PARAM + 0; //diffusetex

	mov	ecx, DWORD PTR _this$[ebp]
	mov	DWORD PTR [ecx+24], 1000		; 000003e8H

; 25   : 
; 26   : 			initParams();

	mov	ecx, DWORD PTR _this$[ebp]
	call	?initParams@D3DTech@Ogre@@IAEXXZ	; Ogre::D3DTech::initParams

; 27   : 			m_UsedMacroMask = 0;

	mov	edx, DWORD PTR _this$[ebp]
	mov	DWORD PTR [edx+4], 0

; 28   : 		}

	mov	esp, ebp
	pop	ebp
	ret	8
?init@D3DTech_sky_stdmtl_lod0@Ogre@@UAEXABUShaderEnvFlags@2@ABUMaterialMacro@2@@Z ENDP ; Ogre::D3DTech_sky_stdmtl_lod0::init
; Function compile flags: /Odtp
_TEXT	ENDS
;	COMDAT ?beginPass@D3DTech_sky_stdmtl_lod0@Ogre@@UAEXI@Z
_TEXT	SEGMENT
_this$ = -4						; size = 4
_ipass$ = 8						; size = 4
?beginPass@D3DTech_sky_stdmtl_lod0@Ogre@@UAEXI@Z PROC	; Ogre::D3DTech_sky_stdmtl_lod0::beginPass, COMDAT
; _this$ = ecx

; 31   : 		{

	push	ebp
	mov	ebp, esp
	push	ecx
	mov	DWORD PTR _this$[ebp], ecx

; 32   : 			m_CurPass = ipass;

	mov	eax, DWORD PTR _this$[ebp]
	mov	ecx, DWORD PTR _ipass$[ebp]
	mov	DWORD PTR [eax+192], ecx

; 33   : 
; 34   : 			SetBlendState(m_pDevice, BLEND_OPAQUE);

	push	-1
	push	0
	mov	edx, DWORD PTR ?m_pDevice@D3DTech@Ogre@@2PAUIDirect3DDevice9@@A ; Ogre::D3DTech::m_pDevice
	push	edx
	call	?SetBlendState@Ogre@@YAXPAUIDirect3DDevice9@@HH@Z ; Ogre::SetBlendState
	add	esp, 12					; 0000000cH

; 35   : 			m_pDevice->SetRenderState(D3DRS_CULLMODE, D3DCULL_NONE);

	push	1
	push	22					; 00000016H
	mov	eax, DWORD PTR ?m_pDevice@D3DTech@Ogre@@2PAUIDirect3DDevice9@@A ; Ogre::D3DTech::m_pDevice
	mov	ecx, DWORD PTR [eax]
	mov	edx, DWORD PTR ?m_pDevice@D3DTech@Ogre@@2PAUIDirect3DDevice9@@A ; Ogre::D3DTech::m_pDevice
	push	edx
	mov	eax, DWORD PTR [ecx+228]
	call	eax

; 36   : 
; 37   : 			SamplerState_Wrap(m_pDevice, 0);

	push	0
	mov	ecx, DWORD PTR ?m_pDevice@D3DTech@Ogre@@2PAUIDirect3DDevice9@@A ; Ogre::D3DTech::m_pDevice
	push	ecx
	call	?SamplerState_Wrap@Ogre@@YAXPAUIDirect3DDevice9@@H@Z ; Ogre::SamplerState_Wrap
	add	esp, 8

; 38   : 
; 39   : 			applyVSPS(m_CurPass);

	mov	edx, DWORD PTR _this$[ebp]
	mov	eax, DWORD PTR [edx+192]
	push	eax
	mov	ecx, DWORD PTR _this$[ebp]
	call	?applyVSPS@D3DTech@Ogre@@IAEXI@Z	; Ogre::D3DTech::applyVSPS

; 40   : 		}

	mov	esp, ebp
	pop	ebp
	ret	4
?beginPass@D3DTech_sky_stdmtl_lod0@Ogre@@UAEXI@Z ENDP	; Ogre::D3DTech_sky_stdmtl_lod0::beginPass
; Function compile flags: /Odtp
_TEXT	ENDS
;	COMDAT ?endPass@D3DTech_sky_stdmtl_lod0@Ogre@@UAEXXZ
_TEXT	SEGMENT
_this$ = -4						; size = 4
?endPass@D3DTech_sky_stdmtl_lod0@Ogre@@UAEXXZ PROC	; Ogre::D3DTech_sky_stdmtl_lod0::endPass, COMDAT
; _this$ = ecx

; 43   : 		{

	push	ebp
	mov	ebp, esp
	push	ecx
	mov	DWORD PTR _this$[ebp], ecx

; 44   : 		}

	mov	esp, ebp
	pop	ebp
	ret	0
?endPass@D3DTech_sky_stdmtl_lod0@Ogre@@UAEXXZ ENDP	; Ogre::D3DTech_sky_stdmtl_lod0::endPass
_TEXT	ENDS
PUBLIC	??1D3DTech_sky_stdmtl_lod0@Ogre@@UAE@XZ		; Ogre::D3DTech_sky_stdmtl_lod0::~D3DTech_sky_stdmtl_lod0
; Function compile flags: /Odtp
;	COMDAT ??_GD3DTech_sky_stdmtl_lod0@Ogre@@UAEPAXI@Z
_TEXT	SEGMENT
_this$ = -4						; size = 4
___flags$ = 8						; size = 4
??_GD3DTech_sky_stdmtl_lod0@Ogre@@UAEPAXI@Z PROC	; Ogre::D3DTech_sky_stdmtl_lod0::`scalar deleting destructor', COMDAT
; _this$ = ecx
	push	ebp
	mov	ebp, esp
	push	ecx
	mov	DWORD PTR _this$[ebp], ecx
	mov	ecx, DWORD PTR _this$[ebp]
	call	??1D3DTech_sky_stdmtl_lod0@Ogre@@UAE@XZ
	mov	eax, DWORD PTR ___flags$[ebp]
	and	eax, 1
	je	SHORT $LN1@scalar@23
	mov	ecx, DWORD PTR _this$[ebp]
	push	ecx
	call	??3@YAXPAX@Z				; operator delete
	add	esp, 4
$LN1@scalar@23:
	mov	eax, DWORD PTR _this$[ebp]
	mov	esp, ebp
	pop	ebp
	ret	4
??_GD3DTech_sky_stdmtl_lod0@Ogre@@UAEPAXI@Z ENDP	; Ogre::D3DTech_sky_stdmtl_lod0::`scalar deleting destructor'
_TEXT	ENDS
;	COMDAT xdata$x
xdata$x	SEGMENT
__unwindtable$??1D3DTech_sky_stdmtl_lod0@Ogre@@UAE@XZ DD 0ffffffffH
	DD	FLAT:__unwindfunclet$??1D3DTech_sky_stdmtl_lod0@Ogre@@UAE@XZ$0
__ehfuncinfo$??1D3DTech_sky_stdmtl_lod0@Ogre@@UAE@XZ DD 019930522H
	DD	01H
	DD	FLAT:__unwindtable$??1D3DTech_sky_stdmtl_lod0@Ogre@@UAE@XZ
	DD	2 DUP(00H)
	DD	2 DUP(00H)
	DD	00H
	DD	00H
; Function compile flags: /Odtp
xdata$x	ENDS
;	COMDAT ??1D3DTech_sky_stdmtl_lod0@Ogre@@UAE@XZ
_TEXT	SEGMENT
_this$ = -16						; size = 4
__$EHRec$ = -12						; size = 12
??1D3DTech_sky_stdmtl_lod0@Ogre@@UAE@XZ PROC		; Ogre::D3DTech_sky_stdmtl_lod0::~D3DTech_sky_stdmtl_lod0, COMDAT
; _this$ = ecx
	push	ebp
	mov	ebp, esp
	push	-1
	push	__ehhandler$??1D3DTech_sky_stdmtl_lod0@Ogre@@UAE@XZ
	mov	eax, DWORD PTR fs:0
	push	eax
	push	ecx
	mov	eax, DWORD PTR ___security_cookie
	xor	eax, ebp
	push	eax
	lea	eax, DWORD PTR __$EHRec$[ebp]
	mov	DWORD PTR fs:0, eax
	mov	DWORD PTR _this$[ebp], ecx
	mov	DWORD PTR __$EHRec$[ebp+8], 0
	mov	DWORD PTR __$EHRec$[ebp+8], -1
	mov	ecx, DWORD PTR _this$[ebp]
	call	??1D3DTech@Ogre@@UAE@XZ
	mov	ecx, DWORD PTR __$EHRec$[ebp]
	mov	DWORD PTR fs:0, ecx
	pop	ecx
	mov	esp, ebp
	pop	ebp
	ret	0
_TEXT	ENDS
;	COMDAT text$x
text$x	SEGMENT
__unwindfunclet$??1D3DTech_sky_stdmtl_lod0@Ogre@@UAE@XZ$0:
	mov	ecx, DWORD PTR _this$[ebp]
	jmp	??1D3DTech@Ogre@@UAE@XZ
__ehhandler$??1D3DTech_sky_stdmtl_lod0@Ogre@@UAE@XZ:
	mov	edx, DWORD PTR [esp+8]
	lea	eax, DWORD PTR [edx+12]
	mov	ecx, DWORD PTR [edx-8]
	xor	ecx, eax
	call	@__security_check_cookie@4
	mov	eax, OFFSET __ehfuncinfo$??1D3DTech_sky_stdmtl_lod0@Ogre@@UAE@XZ
	jmp	___CxxFrameHandler3
text$x	ENDS
??1D3DTech_sky_stdmtl_lod0@Ogre@@UAE@XZ ENDP		; Ogre::D3DTech_sky_stdmtl_lod0::~D3DTech_sky_stdmtl_lod0
PUBLIC	??_7D3DTech_sky_stdmtl_shadowgen@Ogre@@6B@	; Ogre::D3DTech_sky_stdmtl_shadowgen::`vftable'
PUBLIC	??_R4D3DTech_sky_stdmtl_shadowgen@Ogre@@6B@	; Ogre::D3DTech_sky_stdmtl_shadowgen::`RTTI Complete Object Locator'
PUBLIC	??_R0?AVD3DTech_sky_stdmtl_shadowgen@Ogre@@@8	; Ogre::D3DTech_sky_stdmtl_shadowgen `RTTI Type Descriptor'
PUBLIC	??_R3D3DTech_sky_stdmtl_shadowgen@Ogre@@8	; Ogre::D3DTech_sky_stdmtl_shadowgen::`RTTI Class Hierarchy Descriptor'
PUBLIC	??_R2D3DTech_sky_stdmtl_shadowgen@Ogre@@8	; Ogre::D3DTech_sky_stdmtl_shadowgen::`RTTI Base Class Array'
PUBLIC	??_R1A@?0A@EA@D3DTech_sky_stdmtl_shadowgen@Ogre@@8 ; Ogre::D3DTech_sky_stdmtl_shadowgen::`RTTI Base Class Descriptor at (0,-1,0,64)'
PUBLIC	?beginPass@D3DTech_sky_stdmtl_shadowgen@Ogre@@UAEXI@Z ; Ogre::D3DTech_sky_stdmtl_shadowgen::beginPass
PUBLIC	?endPass@D3DTech_sky_stdmtl_shadowgen@Ogre@@UAEXXZ ; Ogre::D3DTech_sky_stdmtl_shadowgen::endPass
PUBLIC	?clone@D3DTech_sky_stdmtl_shadowgen@Ogre@@UAEPAVD3DTech@2@XZ ; Ogre::D3DTech_sky_stdmtl_shadowgen::clone
PUBLIC	?init@D3DTech_sky_stdmtl_shadowgen@Ogre@@UAEXABUShaderEnvFlags@2@ABUMaterialMacro@2@@Z ; Ogre::D3DTech_sky_stdmtl_shadowgen::init
EXTRN	??_ED3DTech_sky_stdmtl_shadowgen@Ogre@@UAEPAXI@Z:PROC ; Ogre::D3DTech_sky_stdmtl_shadowgen::`vector deleting destructor'
;	COMDAT ??_R1A@?0A@EA@D3DTech_sky_stdmtl_shadowgen@Ogre@@8
rdata$r	SEGMENT
??_R1A@?0A@EA@D3DTech_sky_stdmtl_shadowgen@Ogre@@8 DD FLAT:??_R0?AVD3DTech_sky_stdmtl_shadowgen@Ogre@@@8 ; Ogre::D3DTech_sky_stdmtl_shadowgen::`RTTI Base Class Descriptor at (0,-1,0,64)'
	DD	02H
	DD	00H
	DD	0ffffffffH
	DD	00H
	DD	040H
	DD	FLAT:??_R3D3DTech_sky_stdmtl_shadowgen@Ogre@@8
rdata$r	ENDS
;	COMDAT ??_R2D3DTech_sky_stdmtl_shadowgen@Ogre@@8
rdata$r	SEGMENT
??_R2D3DTech_sky_stdmtl_shadowgen@Ogre@@8 DD FLAT:??_R1A@?0A@EA@D3DTech_sky_stdmtl_shadowgen@Ogre@@8 ; Ogre::D3DTech_sky_stdmtl_shadowgen::`RTTI Base Class Array'
	DD	FLAT:??_R1A@?0A@EA@D3DTech@Ogre@@8
	DD	FLAT:??_R1A@?0A@EA@ShaderTechnique@Ogre@@8
rdata$r	ENDS
;	COMDAT ??_R3D3DTech_sky_stdmtl_shadowgen@Ogre@@8
rdata$r	SEGMENT
??_R3D3DTech_sky_stdmtl_shadowgen@Ogre@@8 DD 00H	; Ogre::D3DTech_sky_stdmtl_shadowgen::`RTTI Class Hierarchy Descriptor'
	DD	00H
	DD	03H
	DD	FLAT:??_R2D3DTech_sky_stdmtl_shadowgen@Ogre@@8
rdata$r	ENDS
;	COMDAT ??_R0?AVD3DTech_sky_stdmtl_shadowgen@Ogre@@@8
_DATA	SEGMENT
??_R0?AVD3DTech_sky_stdmtl_shadowgen@Ogre@@@8 DD FLAT:??_7type_info@@6B@ ; Ogre::D3DTech_sky_stdmtl_shadowgen `RTTI Type Descriptor'
	DD	00H
	DB	'.?AVD3DTech_sky_stdmtl_shadowgen@Ogre@@', 00H
_DATA	ENDS
;	COMDAT ??_R4D3DTech_sky_stdmtl_shadowgen@Ogre@@6B@
rdata$r	SEGMENT
??_R4D3DTech_sky_stdmtl_shadowgen@Ogre@@6B@ DD 00H	; Ogre::D3DTech_sky_stdmtl_shadowgen::`RTTI Complete Object Locator'
	DD	00H
	DD	00H
	DD	FLAT:??_R0?AVD3DTech_sky_stdmtl_shadowgen@Ogre@@@8
	DD	FLAT:??_R3D3DTech_sky_stdmtl_shadowgen@Ogre@@8
rdata$r	ENDS
;	COMDAT ??_7D3DTech_sky_stdmtl_shadowgen@Ogre@@6B@
CONST	SEGMENT
??_7D3DTech_sky_stdmtl_shadowgen@Ogre@@6B@ DD FLAT:??_R4D3DTech_sky_stdmtl_shadowgen@Ogre@@6B@ ; Ogre::D3DTech_sky_stdmtl_shadowgen::`vftable'
	DD	FLAT:?begin@D3DTech@Ogre@@UAEIXZ
	DD	FLAT:?end@D3DTech@Ogre@@UAEXXZ
	DD	FLAT:?beginPass@D3DTech_sky_stdmtl_shadowgen@Ogre@@UAEXI@Z
	DD	FLAT:?endPass@D3DTech_sky_stdmtl_shadowgen@Ogre@@UAEXXZ
	DD	FLAT:?setConstant@D3DTech@Ogre@@UAEXW4ShaderParamUsage@2@PBXI@Z
	DD	FLAT:?setConstant@D3DTech@Ogre@@UAEXPBDPBXI@Z
	DD	FLAT:?setTexture@D3DTech@Ogre@@UAEXW4ShaderParamUsage@2@PAVHardwarePixelBuffer@2@@Z
	DD	FLAT:?setTexture@D3DTech@Ogre@@UAEXPBDPAVHardwarePixelBuffer@2@@Z
	DD	FLAT:?setStreamInput@D3DTech@Ogre@@UAEXIPAPAVHardwareVertexBuffer@2@HPAI@Z
	DD	FLAT:?setStreamInput@D3DTech@Ogre@@UAEXIPAVHardwareVertexBuffer@2@I@Z
	DD	FLAT:?setStreamInput@D3DTech@Ogre@@UAEXIPAPAVHardwareVertexBuffer@2@PAI@Z
	DD	FLAT:?commitChanges@D3DTech@Ogre@@UAEXXZ
	DD	FLAT:?draw@D3DTech@Ogre@@UAEXW4PrimitiveType@2@IIPAVHardwareIndexBuffer@2@II@Z
	DD	FLAT:?draw@D3DTech@Ogre@@UAEXW4PrimitiveType@2@II@Z
	DD	FLAT:?getRequiredParams@D3DTech@Ogre@@UAEIPAW4ShaderParamUsage@2@I@Z
	DD	FLAT:??_ED3DTech_sky_stdmtl_shadowgen@Ogre@@UAEPAXI@Z
	DD	FLAT:?clone@D3DTech_sky_stdmtl_shadowgen@Ogre@@UAEPAVD3DTech@2@XZ
	DD	FLAT:?init@D3DTech_sky_stdmtl_shadowgen@Ogre@@UAEXABUShaderEnvFlags@2@ABUMaterialMacro@2@@Z
CONST	ENDS
;	COMDAT xdata$x
xdata$x	SEGMENT
__unwindtable$??0D3DTech_sky_stdmtl_shadowgen@Ogre@@QAE@XZ DD 0ffffffffH
	DD	FLAT:__unwindfunclet$??0D3DTech_sky_stdmtl_shadowgen@Ogre@@QAE@XZ$0
__ehfuncinfo$??0D3DTech_sky_stdmtl_shadowgen@Ogre@@QAE@XZ DD 019930522H
	DD	01H
	DD	FLAT:__unwindtable$??0D3DTech_sky_stdmtl_shadowgen@Ogre@@QAE@XZ
	DD	2 DUP(00H)
	DD	2 DUP(00H)
	DD	00H
	DD	00H
; Function compile flags: /Odtp
xdata$x	ENDS
;	COMDAT ??0D3DTech_sky_stdmtl_shadowgen@Ogre@@QAE@XZ
_TEXT	SEGMENT
_this$ = -16						; size = 4
__$EHRec$ = -12						; size = 12
??0D3DTech_sky_stdmtl_shadowgen@Ogre@@QAE@XZ PROC	; Ogre::D3DTech_sky_stdmtl_shadowgen::D3DTech_sky_stdmtl_shadowgen, COMDAT
; _this$ = ecx
	push	ebp
	mov	ebp, esp
	push	-1
	push	__ehhandler$??0D3DTech_sky_stdmtl_shadowgen@Ogre@@QAE@XZ
	mov	eax, DWORD PTR fs:0
	push	eax
	push	ecx
	mov	eax, DWORD PTR ___security_cookie
	xor	eax, ebp
	push	eax
	lea	eax, DWORD PTR __$EHRec$[ebp]
	mov	DWORD PTR fs:0, eax
	mov	DWORD PTR _this$[ebp], ecx
	mov	ecx, DWORD PTR _this$[ebp]
	call	??0D3DTech@Ogre@@QAE@XZ			; Ogre::D3DTech::D3DTech
	mov	DWORD PTR __$EHRec$[ebp+8], 0
	mov	eax, DWORD PTR _this$[ebp]
	mov	DWORD PTR [eax], OFFSET ??_7D3DTech_sky_stdmtl_shadowgen@Ogre@@6B@
	mov	DWORD PTR __$EHRec$[ebp+8], -1
	mov	eax, DWORD PTR _this$[ebp]
	mov	ecx, DWORD PTR __$EHRec$[ebp]
	mov	DWORD PTR fs:0, ecx
	pop	ecx
	mov	esp, ebp
	pop	ebp
	ret	0
_TEXT	ENDS
;	COMDAT text$x
text$x	SEGMENT
__unwindfunclet$??0D3DTech_sky_stdmtl_shadowgen@Ogre@@QAE@XZ$0:
	mov	ecx, DWORD PTR _this$[ebp]
	jmp	??1D3DTech@Ogre@@UAE@XZ
__ehhandler$??0D3DTech_sky_stdmtl_shadowgen@Ogre@@QAE@XZ:
	mov	edx, DWORD PTR [esp+8]
	lea	eax, DWORD PTR [edx+12]
	mov	ecx, DWORD PTR [edx-8]
	xor	ecx, eax
	call	@__security_check_cookie@4
	mov	eax, OFFSET __ehfuncinfo$??0D3DTech_sky_stdmtl_shadowgen@Ogre@@QAE@XZ
	jmp	___CxxFrameHandler3
text$x	ENDS
??0D3DTech_sky_stdmtl_shadowgen@Ogre@@QAE@XZ ENDP	; Ogre::D3DTech_sky_stdmtl_shadowgen::D3DTech_sky_stdmtl_shadowgen
;	COMDAT xdata$x
xdata$x	SEGMENT
__unwindtable$?clone@D3DTech_sky_stdmtl_shadowgen@Ogre@@UAEPAVD3DTech@2@XZ DD 0ffffffffH
	DD	FLAT:__unwindfunclet$?clone@D3DTech_sky_stdmtl_shadowgen@Ogre@@UAEPAVD3DTech@2@XZ$0
__ehfuncinfo$?clone@D3DTech_sky_stdmtl_shadowgen@Ogre@@UAEPAVD3DTech@2@XZ DD 019930522H
	DD	01H
	DD	FLAT:__unwindtable$?clone@D3DTech_sky_stdmtl_shadowgen@Ogre@@UAEPAVD3DTech@2@XZ
	DD	2 DUP(00H)
	DD	2 DUP(00H)
	DD	00H
	DD	00H
; Function compile flags: /Odtp
xdata$x	ENDS
;	COMDAT ?clone@D3DTech_sky_stdmtl_shadowgen@Ogre@@UAEPAVD3DTech@2@XZ
_TEXT	SEGMENT
tv74 = -28						; size = 4
_this$ = -24						; size = 4
$T140387 = -20						; size = 4
$T140386 = -16						; size = 4
__$EHRec$ = -12						; size = 12
?clone@D3DTech_sky_stdmtl_shadowgen@Ogre@@UAEPAVD3DTech@2@XZ PROC ; Ogre::D3DTech_sky_stdmtl_shadowgen::clone, COMDAT
; _this$ = ecx

; 52   : 		{

	push	ebp
	mov	ebp, esp
	push	-1
	push	__ehhandler$?clone@D3DTech_sky_stdmtl_shadowgen@Ogre@@UAEPAVD3DTech@2@XZ
	mov	eax, DWORD PTR fs:0
	push	eax
	sub	esp, 16					; 00000010H
	mov	eax, DWORD PTR ___security_cookie
	xor	eax, ebp
	push	eax
	lea	eax, DWORD PTR __$EHRec$[ebp]
	mov	DWORD PTR fs:0, eax
	mov	DWORD PTR _this$[ebp], ecx

; 53   : 			return new D3DTech_sky_stdmtl_shadowgen;

	push	392					; 00000188H
	call	??2@YAPAXI@Z				; operator new
	add	esp, 4
	mov	DWORD PTR $T140387[ebp], eax
	mov	DWORD PTR __$EHRec$[ebp+8], 0
	cmp	DWORD PTR $T140387[ebp], 0
	je	SHORT $LN3@clone@23
	mov	ecx, DWORD PTR $T140387[ebp]
	call	??0D3DTech_sky_stdmtl_shadowgen@Ogre@@QAE@XZ
	mov	DWORD PTR tv74[ebp], eax
	jmp	SHORT $LN4@clone@23
$LN3@clone@23:
	mov	DWORD PTR tv74[ebp], 0
$LN4@clone@23:
	mov	eax, DWORD PTR tv74[ebp]
	mov	DWORD PTR $T140386[ebp], eax
	mov	DWORD PTR __$EHRec$[ebp+8], -1
	mov	eax, DWORD PTR $T140386[ebp]

; 54   : 		}

	mov	ecx, DWORD PTR __$EHRec$[ebp]
	mov	DWORD PTR fs:0, ecx
	pop	ecx
	mov	esp, ebp
	pop	ebp
	ret	0
_TEXT	ENDS
;	COMDAT text$x
text$x	SEGMENT
__unwindfunclet$?clone@D3DTech_sky_stdmtl_shadowgen@Ogre@@UAEPAVD3DTech@2@XZ$0:
	mov	eax, DWORD PTR $T140387[ebp]
	push	eax
	call	??3@YAXPAX@Z				; operator delete
	pop	ecx
	ret	0
__ehhandler$?clone@D3DTech_sky_stdmtl_shadowgen@Ogre@@UAEPAVD3DTech@2@XZ:
	mov	edx, DWORD PTR [esp+8]
	lea	eax, DWORD PTR [edx+12]
	mov	ecx, DWORD PTR [edx-20]
	xor	ecx, eax
	call	@__security_check_cookie@4
	mov	eax, OFFSET __ehfuncinfo$?clone@D3DTech_sky_stdmtl_shadowgen@Ogre@@UAEPAVD3DTech@2@XZ
	jmp	___CxxFrameHandler3
text$x	ENDS
?clone@D3DTech_sky_stdmtl_shadowgen@Ogre@@UAEPAVD3DTech@2@XZ ENDP ; Ogre::D3DTech_sky_stdmtl_shadowgen::clone
; Function compile flags: /Odtp
;	COMDAT ?init@D3DTech_sky_stdmtl_shadowgen@Ogre@@UAEXABUShaderEnvFlags@2@ABUMaterialMacro@2@@Z
_TEXT	SEGMENT
_this$ = -4						; size = 4
_env$ = 8						; size = 4
_macros$ = 12						; size = 4
?init@D3DTech_sky_stdmtl_shadowgen@Ogre@@UAEXABUShaderEnvFlags@2@ABUMaterialMacro@2@@Z PROC ; Ogre::D3DTech_sky_stdmtl_shadowgen::init, COMDAT
; _this$ = ecx

; 57   : 		{

	push	ebp
	mov	ebp, esp
	push	ecx
	mov	DWORD PTR _this$[ebp], ecx

; 58   : 			m_nPass = 1;

	mov	eax, DWORD PTR _this$[ebp]
	mov	DWORD PTR [eax+188], 1

; 59   : 			m_AllPass[0].vs = m_pMtlTemplate->getCompiledVSPS(COMPILED_VS, "Main", env, macros);

	mov	ecx, DWORD PTR _macros$[ebp]
	push	ecx
	mov	edx, DWORD PTR _env$[ebp]
	push	edx
	push	OFFSET ??_C@_04KGFMLCPK@Main?$AA@
	push	1
	mov	eax, DWORD PTR _this$[ebp]
	mov	ecx, DWORD PTR [eax+8]
	call	?getCompiledVSPS@D3DMaterialTemplate@Ogre@@QAEPAVCompiledShader@2@W4COMPILED_TYPE@2@PBDABUShaderEnvFlags@2@ABUMaterialMacro@2@@Z ; Ogre::D3DMaterialTemplate::getCompiledVSPS
	mov	ecx, DWORD PTR _this$[ebp]
	mov	DWORD PTR [ecx+12], eax

; 60   : 			m_AllPass[0].ps = m_pMtlTemplate->getCompiledVSPS(COMPILED_PS, "Main", env, macros);

	mov	edx, DWORD PTR _macros$[ebp]
	push	edx
	mov	eax, DWORD PTR _env$[ebp]
	push	eax
	push	OFFSET ??_C@_04KGFMLCPK@Main?$AA@
	push	2
	mov	ecx, DWORD PTR _this$[ebp]
	mov	ecx, DWORD PTR [ecx+8]
	call	?getCompiledVSPS@D3DMaterialTemplate@Ogre@@QAEPAVCompiledShader@2@W4COMPILED_TYPE@2@PBDABUShaderEnvFlags@2@ABUMaterialMacro@2@@Z ; Ogre::D3DMaterialTemplate::getCompiledVSPS
	mov	edx, DWORD PTR _this$[ebp]
	mov	DWORD PTR [edx+16], eax

; 61   : 
; 62   : 			m_AllPass[0].ntex = 1;

	mov	eax, DWORD PTR _this$[ebp]
	mov	DWORD PTR [eax+20], 1

; 63   : 			m_AllPass[0].texstage[0] = SPU_GENERAL_PARAM + 0; //diffusetex

	mov	ecx, DWORD PTR _this$[ebp]
	mov	DWORD PTR [ecx+24], 1000		; 000003e8H

; 64   : 
; 65   : 			initParams();

	mov	ecx, DWORD PTR _this$[ebp]
	call	?initParams@D3DTech@Ogre@@IAEXXZ	; Ogre::D3DTech::initParams

; 66   : 			m_UsedMacroMask = 0;

	mov	edx, DWORD PTR _this$[ebp]
	mov	DWORD PTR [edx+4], 0

; 67   : 		}

	mov	esp, ebp
	pop	ebp
	ret	8
?init@D3DTech_sky_stdmtl_shadowgen@Ogre@@UAEXABUShaderEnvFlags@2@ABUMaterialMacro@2@@Z ENDP ; Ogre::D3DTech_sky_stdmtl_shadowgen::init
; Function compile flags: /Odtp
_TEXT	ENDS
;	COMDAT ?beginPass@D3DTech_sky_stdmtl_shadowgen@Ogre@@UAEXI@Z
_TEXT	SEGMENT
_this$ = -4						; size = 4
_ipass$ = 8						; size = 4
?beginPass@D3DTech_sky_stdmtl_shadowgen@Ogre@@UAEXI@Z PROC ; Ogre::D3DTech_sky_stdmtl_shadowgen::beginPass, COMDAT
; _this$ = ecx

; 70   : 		{

	push	ebp
	mov	ebp, esp
	push	ecx
	mov	DWORD PTR _this$[ebp], ecx

; 71   : 			m_CurPass = ipass;

	mov	eax, DWORD PTR _this$[ebp]
	mov	ecx, DWORD PTR _ipass$[ebp]
	mov	DWORD PTR [eax+192], ecx

; 72   : 
; 73   : 			SetBlendState(m_pDevice, BLEND_OPAQUE);

	push	-1
	push	0
	mov	edx, DWORD PTR ?m_pDevice@D3DTech@Ogre@@2PAUIDirect3DDevice9@@A ; Ogre::D3DTech::m_pDevice
	push	edx
	call	?SetBlendState@Ogre@@YAXPAUIDirect3DDevice9@@HH@Z ; Ogre::SetBlendState
	add	esp, 12					; 0000000cH

; 74   : 			m_pDevice->SetRenderState(D3DRS_CULLMODE, D3DCULL_NONE);

	push	1
	push	22					; 00000016H
	mov	eax, DWORD PTR ?m_pDevice@D3DTech@Ogre@@2PAUIDirect3DDevice9@@A ; Ogre::D3DTech::m_pDevice
	mov	ecx, DWORD PTR [eax]
	mov	edx, DWORD PTR ?m_pDevice@D3DTech@Ogre@@2PAUIDirect3DDevice9@@A ; Ogre::D3DTech::m_pDevice
	push	edx
	mov	eax, DWORD PTR [ecx+228]
	call	eax

; 75   : 			m_pDevice->SetRenderState(D3DRS_ZWRITEENABLE, FALSE);

	push	0
	push	14					; 0000000eH
	mov	ecx, DWORD PTR ?m_pDevice@D3DTech@Ogre@@2PAUIDirect3DDevice9@@A ; Ogre::D3DTech::m_pDevice
	mov	edx, DWORD PTR [ecx]
	mov	eax, DWORD PTR ?m_pDevice@D3DTech@Ogre@@2PAUIDirect3DDevice9@@A ; Ogre::D3DTech::m_pDevice
	push	eax
	mov	ecx, DWORD PTR [edx+228]
	call	ecx

; 76   : 			m_pDevice->SetRenderState(D3DRS_COLORWRITEENABLE, 0);

	push	0
	push	168					; 000000a8H
	mov	edx, DWORD PTR ?m_pDevice@D3DTech@Ogre@@2PAUIDirect3DDevice9@@A ; Ogre::D3DTech::m_pDevice
	mov	eax, DWORD PTR [edx]
	mov	ecx, DWORD PTR ?m_pDevice@D3DTech@Ogre@@2PAUIDirect3DDevice9@@A ; Ogre::D3DTech::m_pDevice
	push	ecx
	mov	edx, DWORD PTR [eax+228]
	call	edx

; 77   : 
; 78   : 			SamplerState_Wrap(m_pDevice, 0);

	push	0
	mov	eax, DWORD PTR ?m_pDevice@D3DTech@Ogre@@2PAUIDirect3DDevice9@@A ; Ogre::D3DTech::m_pDevice
	push	eax
	call	?SamplerState_Wrap@Ogre@@YAXPAUIDirect3DDevice9@@H@Z ; Ogre::SamplerState_Wrap
	add	esp, 8

; 79   : 
; 80   : 			applyVSPS(m_CurPass);

	mov	ecx, DWORD PTR _this$[ebp]
	mov	edx, DWORD PTR [ecx+192]
	push	edx
	mov	ecx, DWORD PTR _this$[ebp]
	call	?applyVSPS@D3DTech@Ogre@@IAEXI@Z	; Ogre::D3DTech::applyVSPS

; 81   : 		}

	mov	esp, ebp
	pop	ebp
	ret	4
?beginPass@D3DTech_sky_stdmtl_shadowgen@Ogre@@UAEXI@Z ENDP ; Ogre::D3DTech_sky_stdmtl_shadowgen::beginPass
; Function compile flags: /Odtp
_TEXT	ENDS
;	COMDAT ?endPass@D3DTech_sky_stdmtl_shadowgen@Ogre@@UAEXXZ
_TEXT	SEGMENT
_this$ = -4						; size = 4
?endPass@D3DTech_sky_stdmtl_shadowgen@Ogre@@UAEXXZ PROC	; Ogre::D3DTech_sky_stdmtl_shadowgen::endPass, COMDAT
; _this$ = ecx

; 84   : 		{

	push	ebp
	mov	ebp, esp
	push	ecx
	mov	DWORD PTR _this$[ebp], ecx

; 85   : 			m_pDevice->SetRenderState(D3DRS_ZWRITEENABLE, TRUE);

	push	1
	push	14					; 0000000eH
	mov	eax, DWORD PTR ?m_pDevice@D3DTech@Ogre@@2PAUIDirect3DDevice9@@A ; Ogre::D3DTech::m_pDevice
	mov	ecx, DWORD PTR [eax]
	mov	edx, DWORD PTR ?m_pDevice@D3DTech@Ogre@@2PAUIDirect3DDevice9@@A ; Ogre::D3DTech::m_pDevice
	push	edx
	mov	eax, DWORD PTR [ecx+228]
	call	eax

; 86   : 			m_pDevice->SetRenderState(D3DRS_COLORWRITEENABLE, 0xf);

	push	15					; 0000000fH
	push	168					; 000000a8H
	mov	ecx, DWORD PTR ?m_pDevice@D3DTech@Ogre@@2PAUIDirect3DDevice9@@A ; Ogre::D3DTech::m_pDevice
	mov	edx, DWORD PTR [ecx]
	mov	eax, DWORD PTR ?m_pDevice@D3DTech@Ogre@@2PAUIDirect3DDevice9@@A ; Ogre::D3DTech::m_pDevice
	push	eax
	mov	ecx, DWORD PTR [edx+228]
	call	ecx

; 87   : 		}

	mov	esp, ebp
	pop	ebp
	ret	0
?endPass@D3DTech_sky_stdmtl_shadowgen@Ogre@@UAEXXZ ENDP	; Ogre::D3DTech_sky_stdmtl_shadowgen::endPass
_TEXT	ENDS
PUBLIC	??1D3DTech_sky_stdmtl_shadowgen@Ogre@@UAE@XZ	; Ogre::D3DTech_sky_stdmtl_shadowgen::~D3DTech_sky_stdmtl_shadowgen
; Function compile flags: /Odtp
;	COMDAT ??_GD3DTech_sky_stdmtl_shadowgen@Ogre@@UAEPAXI@Z
_TEXT	SEGMENT
_this$ = -4						; size = 4
___flags$ = 8						; size = 4
??_GD3DTech_sky_stdmtl_shadowgen@Ogre@@UAEPAXI@Z PROC	; Ogre::D3DTech_sky_stdmtl_shadowgen::`scalar deleting destructor', COMDAT
; _this$ = ecx
	push	ebp
	mov	ebp, esp
	push	ecx
	mov	DWORD PTR _this$[ebp], ecx
	mov	ecx, DWORD PTR _this$[ebp]
	call	??1D3DTech_sky_stdmtl_shadowgen@Ogre@@UAE@XZ
	mov	eax, DWORD PTR ___flags$[ebp]
	and	eax, 1
	je	SHORT $LN1@scalar@24
	mov	ecx, DWORD PTR _this$[ebp]
	push	ecx
	call	??3@YAXPAX@Z				; operator delete
	add	esp, 4
$LN1@scalar@24:
	mov	eax, DWORD PTR _this$[ebp]
	mov	esp, ebp
	pop	ebp
	ret	4
??_GD3DTech_sky_stdmtl_shadowgen@Ogre@@UAEPAXI@Z ENDP	; Ogre::D3DTech_sky_stdmtl_shadowgen::`scalar deleting destructor'
_TEXT	ENDS
;	COMDAT xdata$x
xdata$x	SEGMENT
__unwindtable$??1D3DTech_sky_stdmtl_shadowgen@Ogre@@UAE@XZ DD 0ffffffffH
	DD	FLAT:__unwindfunclet$??1D3DTech_sky_stdmtl_shadowgen@Ogre@@UAE@XZ$0
__ehfuncinfo$??1D3DTech_sky_stdmtl_shadowgen@Ogre@@UAE@XZ DD 019930522H
	DD	01H
	DD	FLAT:__unwindtable$??1D3DTech_sky_stdmtl_shadowgen@Ogre@@UAE@XZ
	DD	2 DUP(00H)
	DD	2 DUP(00H)
	DD	00H
	DD	00H
; Function compile flags: /Odtp
xdata$x	ENDS
;	COMDAT ??1D3DTech_sky_stdmtl_shadowgen@Ogre@@UAE@XZ
_TEXT	SEGMENT
_this$ = -16						; size = 4
__$EHRec$ = -12						; size = 12
??1D3DTech_sky_stdmtl_shadowgen@Ogre@@UAE@XZ PROC	; Ogre::D3DTech_sky_stdmtl_shadowgen::~D3DTech_sky_stdmtl_shadowgen, COMDAT
; _this$ = ecx
	push	ebp
	mov	ebp, esp
	push	-1
	push	__ehhandler$??1D3DTech_sky_stdmtl_shadowgen@Ogre@@UAE@XZ
	mov	eax, DWORD PTR fs:0
	push	eax
	push	ecx
	mov	eax, DWORD PTR ___security_cookie
	xor	eax, ebp
	push	eax
	lea	eax, DWORD PTR __$EHRec$[ebp]
	mov	DWORD PTR fs:0, eax
	mov	DWORD PTR _this$[ebp], ecx
	mov	DWORD PTR __$EHRec$[ebp+8], 0
	mov	DWORD PTR __$EHRec$[ebp+8], -1
	mov	ecx, DWORD PTR _this$[ebp]
	call	??1D3DTech@Ogre@@UAE@XZ
	mov	ecx, DWORD PTR __$EHRec$[ebp]
	mov	DWORD PTR fs:0, ecx
	pop	ecx
	mov	esp, ebp
	pop	ebp
	ret	0
_TEXT	ENDS
;	COMDAT text$x
text$x	SEGMENT
__unwindfunclet$??1D3DTech_sky_stdmtl_shadowgen@Ogre@@UAE@XZ$0:
	mov	ecx, DWORD PTR _this$[ebp]
	jmp	??1D3DTech@Ogre@@UAE@XZ
__ehhandler$??1D3DTech_sky_stdmtl_shadowgen@Ogre@@UAE@XZ:
	mov	edx, DWORD PTR [esp+8]
	lea	eax, DWORD PTR [edx+12]
	mov	ecx, DWORD PTR [edx-8]
	xor	ecx, eax
	call	@__security_check_cookie@4
	mov	eax, OFFSET __ehfuncinfo$??1D3DTech_sky_stdmtl_shadowgen@Ogre@@UAE@XZ
	jmp	___CxxFrameHandler3
text$x	ENDS
??1D3DTech_sky_stdmtl_shadowgen@Ogre@@UAE@XZ ENDP	; Ogre::D3DTech_sky_stdmtl_shadowgen::~D3DTech_sky_stdmtl_shadowgen
PUBLIC	??_7D3DTech_decal_lod0@Ogre@@6B@		; Ogre::D3DTech_decal_lod0::`vftable'
PUBLIC	??_R4D3DTech_decal_lod0@Ogre@@6B@		; Ogre::D3DTech_decal_lod0::`RTTI Complete Object Locator'
PUBLIC	??_R0?AVD3DTech_decal_lod0@Ogre@@@8		; Ogre::D3DTech_decal_lod0 `RTTI Type Descriptor'
PUBLIC	??_R3D3DTech_decal_lod0@Ogre@@8			; Ogre::D3DTech_decal_lod0::`RTTI Class Hierarchy Descriptor'
PUBLIC	??_R2D3DTech_decal_lod0@Ogre@@8			; Ogre::D3DTech_decal_lod0::`RTTI Base Class Array'
PUBLIC	??_R1A@?0A@EA@D3DTech_decal_lod0@Ogre@@8	; Ogre::D3DTech_decal_lod0::`RTTI Base Class Descriptor at (0,-1,0,64)'
PUBLIC	?beginPass@D3DTech_decal_lod0@Ogre@@UAEXI@Z	; Ogre::D3DTech_decal_lod0::beginPass
PUBLIC	?endPass@D3DTech_decal_lod0@Ogre@@UAEXXZ	; Ogre::D3DTech_decal_lod0::endPass
PUBLIC	?clone@D3DTech_decal_lod0@Ogre@@UAEPAVD3DTech@2@XZ ; Ogre::D3DTech_decal_lod0::clone
PUBLIC	?init@D3DTech_decal_lod0@Ogre@@UAEXABUShaderEnvFlags@2@ABUMaterialMacro@2@@Z ; Ogre::D3DTech_decal_lod0::init
EXTRN	??_ED3DTech_decal_lod0@Ogre@@UAEPAXI@Z:PROC	; Ogre::D3DTech_decal_lod0::`vector deleting destructor'
;	COMDAT ??_R1A@?0A@EA@D3DTech_decal_lod0@Ogre@@8
rdata$r	SEGMENT
??_R1A@?0A@EA@D3DTech_decal_lod0@Ogre@@8 DD FLAT:??_R0?AVD3DTech_decal_lod0@Ogre@@@8 ; Ogre::D3DTech_decal_lod0::`RTTI Base Class Descriptor at (0,-1,0,64)'
	DD	02H
	DD	00H
	DD	0ffffffffH
	DD	00H
	DD	040H
	DD	FLAT:??_R3D3DTech_decal_lod0@Ogre@@8
rdata$r	ENDS
;	COMDAT ??_R2D3DTech_decal_lod0@Ogre@@8
rdata$r	SEGMENT
??_R2D3DTech_decal_lod0@Ogre@@8 DD FLAT:??_R1A@?0A@EA@D3DTech_decal_lod0@Ogre@@8 ; Ogre::D3DTech_decal_lod0::`RTTI Base Class Array'
	DD	FLAT:??_R1A@?0A@EA@D3DTech@Ogre@@8
	DD	FLAT:??_R1A@?0A@EA@ShaderTechnique@Ogre@@8
rdata$r	ENDS
;	COMDAT ??_R3D3DTech_decal_lod0@Ogre@@8
rdata$r	SEGMENT
??_R3D3DTech_decal_lod0@Ogre@@8 DD 00H			; Ogre::D3DTech_decal_lod0::`RTTI Class Hierarchy Descriptor'
	DD	00H
	DD	03H
	DD	FLAT:??_R2D3DTech_decal_lod0@Ogre@@8
rdata$r	ENDS
;	COMDAT ??_R0?AVD3DTech_decal_lod0@Ogre@@@8
_DATA	SEGMENT
??_R0?AVD3DTech_decal_lod0@Ogre@@@8 DD FLAT:??_7type_info@@6B@ ; Ogre::D3DTech_decal_lod0 `RTTI Type Descriptor'
	DD	00H
	DB	'.?AVD3DTech_decal_lod0@Ogre@@', 00H
_DATA	ENDS
;	COMDAT ??_R4D3DTech_decal_lod0@Ogre@@6B@
rdata$r	SEGMENT
??_R4D3DTech_decal_lod0@Ogre@@6B@ DD 00H		; Ogre::D3DTech_decal_lod0::`RTTI Complete Object Locator'
	DD	00H
	DD	00H
	DD	FLAT:??_R0?AVD3DTech_decal_lod0@Ogre@@@8
	DD	FLAT:??_R3D3DTech_decal_lod0@Ogre@@8
rdata$r	ENDS
;	COMDAT ??_7D3DTech_decal_lod0@Ogre@@6B@
CONST	SEGMENT
??_7D3DTech_decal_lod0@Ogre@@6B@ DD FLAT:??_R4D3DTech_decal_lod0@Ogre@@6B@ ; Ogre::D3DTech_decal_lod0::`vftable'
	DD	FLAT:?begin@D3DTech@Ogre@@UAEIXZ
	DD	FLAT:?end@D3DTech@Ogre@@UAEXXZ
	DD	FLAT:?beginPass@D3DTech_decal_lod0@Ogre@@UAEXI@Z
	DD	FLAT:?endPass@D3DTech_decal_lod0@Ogre@@UAEXXZ
	DD	FLAT:?setConstant@D3DTech@Ogre@@UAEXW4ShaderParamUsage@2@PBXI@Z
	DD	FLAT:?setConstant@D3DTech@Ogre@@UAEXPBDPBXI@Z
	DD	FLAT:?setTexture@D3DTech@Ogre@@UAEXW4ShaderParamUsage@2@PAVHardwarePixelBuffer@2@@Z
	DD	FLAT:?setTexture@D3DTech@Ogre@@UAEXPBDPAVHardwarePixelBuffer@2@@Z
	DD	FLAT:?setStreamInput@D3DTech@Ogre@@UAEXIPAPAVHardwareVertexBuffer@2@HPAI@Z
	DD	FLAT:?setStreamInput@D3DTech@Ogre@@UAEXIPAVHardwareVertexBuffer@2@I@Z
	DD	FLAT:?setStreamInput@D3DTech@Ogre@@UAEXIPAPAVHardwareVertexBuffer@2@PAI@Z
	DD	FLAT:?commitChanges@D3DTech@Ogre@@UAEXXZ
	DD	FLAT:?draw@D3DTech@Ogre@@UAEXW4PrimitiveType@2@IIPAVHardwareIndexBuffer@2@II@Z
	DD	FLAT:?draw@D3DTech@Ogre@@UAEXW4PrimitiveType@2@II@Z
	DD	FLAT:?getRequiredParams@D3DTech@Ogre@@UAEIPAW4ShaderParamUsage@2@I@Z
	DD	FLAT:??_ED3DTech_decal_lod0@Ogre@@UAEPAXI@Z
	DD	FLAT:?clone@D3DTech_decal_lod0@Ogre@@UAEPAVD3DTech@2@XZ
	DD	FLAT:?init@D3DTech_decal_lod0@Ogre@@UAEXABUShaderEnvFlags@2@ABUMaterialMacro@2@@Z
CONST	ENDS
;	COMDAT xdata$x
xdata$x	SEGMENT
__unwindtable$??0D3DTech_decal_lod0@Ogre@@QAE@XZ DD 0ffffffffH
	DD	FLAT:__unwindfunclet$??0D3DTech_decal_lod0@Ogre@@QAE@XZ$0
__ehfuncinfo$??0D3DTech_decal_lod0@Ogre@@QAE@XZ DD 019930522H
	DD	01H
	DD	FLAT:__unwindtable$??0D3DTech_decal_lod0@Ogre@@QAE@XZ
	DD	2 DUP(00H)
	DD	2 DUP(00H)
	DD	00H
	DD	00H
; Function compile flags: /Odtp
xdata$x	ENDS
;	COMDAT ??0D3DTech_decal_lod0@Ogre@@QAE@XZ
_TEXT	SEGMENT
_this$ = -16						; size = 4
__$EHRec$ = -12						; size = 12
??0D3DTech_decal_lod0@Ogre@@QAE@XZ PROC			; Ogre::D3DTech_decal_lod0::D3DTech_decal_lod0, COMDAT
; _this$ = ecx
	push	ebp
	mov	ebp, esp
	push	-1
	push	__ehhandler$??0D3DTech_decal_lod0@Ogre@@QAE@XZ
	mov	eax, DWORD PTR fs:0
	push	eax
	push	ecx
	mov	eax, DWORD PTR ___security_cookie
	xor	eax, ebp
	push	eax
	lea	eax, DWORD PTR __$EHRec$[ebp]
	mov	DWORD PTR fs:0, eax
	mov	DWORD PTR _this$[ebp], ecx
	mov	ecx, DWORD PTR _this$[ebp]
	call	??0D3DTech@Ogre@@QAE@XZ			; Ogre::D3DTech::D3DTech
	mov	DWORD PTR __$EHRec$[ebp+8], 0
	mov	eax, DWORD PTR _this$[ebp]
	mov	DWORD PTR [eax], OFFSET ??_7D3DTech_decal_lod0@Ogre@@6B@
	mov	DWORD PTR __$EHRec$[ebp+8], -1
	mov	eax, DWORD PTR _this$[ebp]
	mov	ecx, DWORD PTR __$EHRec$[ebp]
	mov	DWORD PTR fs:0, ecx
	pop	ecx
	mov	esp, ebp
	pop	ebp
	ret	0
_TEXT	ENDS
;	COMDAT text$x
text$x	SEGMENT
__unwindfunclet$??0D3DTech_decal_lod0@Ogre@@QAE@XZ$0:
	mov	ecx, DWORD PTR _this$[ebp]
	jmp	??1D3DTech@Ogre@@UAE@XZ
__ehhandler$??0D3DTech_decal_lod0@Ogre@@QAE@XZ:
	mov	edx, DWORD PTR [esp+8]
	lea	eax, DWORD PTR [edx+12]
	mov	ecx, DWORD PTR [edx-8]
	xor	ecx, eax
	call	@__security_check_cookie@4
	mov	eax, OFFSET __ehfuncinfo$??0D3DTech_decal_lod0@Ogre@@QAE@XZ
	jmp	___CxxFrameHandler3
text$x	ENDS
??0D3DTech_decal_lod0@Ogre@@QAE@XZ ENDP			; Ogre::D3DTech_decal_lod0::D3DTech_decal_lod0
;	COMDAT xdata$x
; File i:\svnroot\client\plugins\rendersystem_d3d9\ogred3d9tech_decal.h
xdata$x	SEGMENT
__unwindtable$?clone@D3DTech_decal_lod0@Ogre@@UAEPAVD3DTech@2@XZ DD 0ffffffffH
	DD	FLAT:__unwindfunclet$?clone@D3DTech_decal_lod0@Ogre@@UAEPAVD3DTech@2@XZ$0
__ehfuncinfo$?clone@D3DTech_decal_lod0@Ogre@@UAEPAVD3DTech@2@XZ DD 019930522H
	DD	01H
	DD	FLAT:__unwindtable$?clone@D3DTech_decal_lod0@Ogre@@UAEPAVD3DTech@2@XZ
	DD	2 DUP(00H)
	DD	2 DUP(00H)
	DD	00H
	DD	00H
; Function compile flags: /Odtp
xdata$x	ENDS
;	COMDAT ?clone@D3DTech_decal_lod0@Ogre@@UAEPAVD3DTech@2@XZ
_TEXT	SEGMENT
tv74 = -28						; size = 4
_this$ = -24						; size = 4
$T140426 = -20						; size = 4
$T140425 = -16						; size = 4
__$EHRec$ = -12						; size = 12
?clone@D3DTech_decal_lod0@Ogre@@UAEPAVD3DTech@2@XZ PROC	; Ogre::D3DTech_decal_lod0::clone, COMDAT
; _this$ = ecx

; 23   : 		{

	push	ebp
	mov	ebp, esp
	push	-1
	push	__ehhandler$?clone@D3DTech_decal_lod0@Ogre@@UAEPAVD3DTech@2@XZ
	mov	eax, DWORD PTR fs:0
	push	eax
	sub	esp, 16					; 00000010H
	mov	eax, DWORD PTR ___security_cookie
	xor	eax, ebp
	push	eax
	lea	eax, DWORD PTR __$EHRec$[ebp]
	mov	DWORD PTR fs:0, eax
	mov	DWORD PTR _this$[ebp], ecx

; 24   : 			return new D3DTech_decal_lod0;

	push	396					; 0000018cH
	call	??2@YAPAXI@Z				; operator new
	add	esp, 4
	mov	DWORD PTR $T140426[ebp], eax
	mov	DWORD PTR __$EHRec$[ebp+8], 0
	cmp	DWORD PTR $T140426[ebp], 0
	je	SHORT $LN3@clone@24
	mov	ecx, DWORD PTR $T140426[ebp]
	call	??0D3DTech_decal_lod0@Ogre@@QAE@XZ
	mov	DWORD PTR tv74[ebp], eax
	jmp	SHORT $LN4@clone@24
$LN3@clone@24:
	mov	DWORD PTR tv74[ebp], 0
$LN4@clone@24:
	mov	eax, DWORD PTR tv74[ebp]
	mov	DWORD PTR $T140425[ebp], eax
	mov	DWORD PTR __$EHRec$[ebp+8], -1
	mov	eax, DWORD PTR $T140425[ebp]

; 25   : 		}

	mov	ecx, DWORD PTR __$EHRec$[ebp]
	mov	DWORD PTR fs:0, ecx
	pop	ecx
	mov	esp, ebp
	pop	ebp
	ret	0
_TEXT	ENDS
;	COMDAT text$x
text$x	SEGMENT
__unwindfunclet$?clone@D3DTech_decal_lod0@Ogre@@UAEPAVD3DTech@2@XZ$0:
	mov	eax, DWORD PTR $T140426[ebp]
	push	eax
	call	??3@YAXPAX@Z				; operator delete
	pop	ecx
	ret	0
__ehhandler$?clone@D3DTech_decal_lod0@Ogre@@UAEPAVD3DTech@2@XZ:
	mov	edx, DWORD PTR [esp+8]
	lea	eax, DWORD PTR [edx+12]
	mov	ecx, DWORD PTR [edx-20]
	xor	ecx, eax
	call	@__security_check_cookie@4
	mov	eax, OFFSET __ehfuncinfo$?clone@D3DTech_decal_lod0@Ogre@@UAEPAVD3DTech@2@XZ
	jmp	___CxxFrameHandler3
text$x	ENDS
?clone@D3DTech_decal_lod0@Ogre@@UAEPAVD3DTech@2@XZ ENDP	; Ogre::D3DTech_decal_lod0::clone
; Function compile flags: /Odtp
;	COMDAT ?init@D3DTech_decal_lod0@Ogre@@UAEXABUShaderEnvFlags@2@ABUMaterialMacro@2@@Z
_TEXT	SEGMENT
_this$ = -12						; size = 4
_indx$133675 = -8					; size = 4
_i$133671 = -4						; size = 4
_env$ = 8						; size = 4
_macros$ = 12						; size = 4
?init@D3DTech_decal_lod0@Ogre@@UAEXABUShaderEnvFlags@2@ABUMaterialMacro@2@@Z PROC ; Ogre::D3DTech_decal_lod0::init, COMDAT
; _this$ = ecx

; 28   : 		{

	push	ebp
	mov	ebp, esp
	sub	esp, 12					; 0000000cH
	mov	DWORD PTR _this$[ebp], ecx

; 29   : 			m_BlendMode = m_HasMaskTex = 0;

	mov	eax, DWORD PTR _this$[ebp]
	mov	BYTE PTR [eax+393], 0
	mov	ecx, DWORD PTR _this$[ebp]
	mov	BYTE PTR [ecx+392], 0

; 30   : 
; 31   : 			for(int i=0; i<MaterialMacro::MAX_MACRO; i++)

	mov	DWORD PTR _i$133671[ebp], 0
	jmp	SHORT $LN7@init@13
$LN6@init@13:
	mov	edx, DWORD PTR _i$133671[ebp]
	add	edx, 1
	mov	DWORD PTR _i$133671[ebp], edx
$LN7@init@13:
	cmp	DWORD PTR _i$133671[ebp], 4
	jge	SHORT $LN5@init@13

; 32   : 			{
; 33   : 				int indx = macros.indices[i];

	mov	eax, DWORD PTR _macros$[ebp]
	add	eax, DWORD PTR _i$133671[ebp]
	movzx	ecx, BYTE PTR [eax]
	mov	DWORD PTR _indx$133675[ebp], ecx

; 34   : 				if(indx == 0) break;

	cmp	DWORD PTR _indx$133675[ebp], 0
	jne	SHORT $LN4@init@13
	jmp	SHORT $LN5@init@13
$LN4@init@13:

; 35   : 
; 36   : 				if(indx == MTLPARAM_BLEND_MODE) m_BlendMode = macros.value[i];

	cmp	DWORD PTR _indx$133675[ebp], 1
	jne	SHORT $LN3@init@13
	mov	edx, DWORD PTR _macros$[ebp]
	add	edx, DWORD PTR _i$133671[ebp]
	mov	eax, DWORD PTR _this$[ebp]
	mov	cl, BYTE PTR [edx+4]
	mov	BYTE PTR [eax+392], cl
	jmp	SHORT $LN2@init@13
$LN3@init@13:

; 37   : 				else if(indx == MTLPARAM_MASK_TEXTURE) m_HasMaskTex = macros.value[i];

	cmp	DWORD PTR _indx$133675[ebp], 2
	jne	SHORT $LN2@init@13
	mov	edx, DWORD PTR _macros$[ebp]
	add	edx, DWORD PTR _i$133671[ebp]
	mov	eax, DWORD PTR _this$[ebp]
	mov	cl, BYTE PTR [edx+4]
	mov	BYTE PTR [eax+393], cl
$LN2@init@13:

; 38   : 			}

	jmp	SHORT $LN6@init@13
$LN5@init@13:

; 39   : 
; 40   : 			m_nPass = 1;

	mov	edx, DWORD PTR _this$[ebp]
	mov	DWORD PTR [edx+188], 1

; 41   : 			m_AllPass[0].vs = m_pMtlTemplate->getCompiledVSPS(COMPILED_VS, "Main", env, macros);

	mov	eax, DWORD PTR _macros$[ebp]
	push	eax
	mov	ecx, DWORD PTR _env$[ebp]
	push	ecx
	push	OFFSET ??_C@_04KGFMLCPK@Main?$AA@
	push	1
	mov	edx, DWORD PTR _this$[ebp]
	mov	ecx, DWORD PTR [edx+8]
	call	?getCompiledVSPS@D3DMaterialTemplate@Ogre@@QAEPAVCompiledShader@2@W4COMPILED_TYPE@2@PBDABUShaderEnvFlags@2@ABUMaterialMacro@2@@Z ; Ogre::D3DMaterialTemplate::getCompiledVSPS
	mov	ecx, DWORD PTR _this$[ebp]
	mov	DWORD PTR [ecx+12], eax

; 42   : 			m_AllPass[0].ps = NULL;

	mov	edx, DWORD PTR _this$[ebp]
	mov	DWORD PTR [edx+16], 0

; 43   : 
; 44   : 			m_AllPass[0].ntex = 2;

	mov	eax, DWORD PTR _this$[ebp]
	mov	DWORD PTR [eax+20], 2

; 45   : 			m_AllPass[0].texstage[0] = SPU_GENERAL_PARAM + 2; //diffusetex

	mov	ecx, DWORD PTR _this$[ebp]
	mov	DWORD PTR [ecx+24], 1002		; 000003eaH

; 46   : 			m_AllPass[0].texstage[1] = SPU_GENERAL_PARAM + 3; //masktex

	mov	edx, DWORD PTR _this$[ebp]
	mov	DWORD PTR [edx+28], 1003		; 000003ebH

; 47   : 
; 48   : 			initParams();

	mov	ecx, DWORD PTR _this$[ebp]
	call	?initParams@D3DTech@Ogre@@IAEXXZ	; Ogre::D3DTech::initParams

; 49   : 			m_UsedMacroMask = m_BlendMode|(m_HasMaskTex<<8);

	mov	eax, DWORD PTR _this$[ebp]
	movzx	ecx, BYTE PTR [eax+392]
	mov	edx, DWORD PTR _this$[ebp]
	movzx	eax, BYTE PTR [edx+393]
	shl	eax, 8
	or	ecx, eax
	mov	edx, DWORD PTR _this$[ebp]
	mov	DWORD PTR [edx+4], ecx

; 50   : 		}

	mov	esp, ebp
	pop	ebp
	ret	8
?init@D3DTech_decal_lod0@Ogre@@UAEXABUShaderEnvFlags@2@ABUMaterialMacro@2@@Z ENDP ; Ogre::D3DTech_decal_lod0::init
_TEXT	ENDS
PUBLIC	?SamplerState_Border@Ogre@@YAXPAUIDirect3DDevice9@@HI@Z ; Ogre::SamplerState_Border
; Function compile flags: /Odtp
;	COMDAT ?beginPass@D3DTech_decal_lod0@Ogre@@UAEXI@Z
_TEXT	SEGMENT
_this$ = -4						; size = 4
_ipass$ = 8						; size = 4
?beginPass@D3DTech_decal_lod0@Ogre@@UAEXI@Z PROC	; Ogre::D3DTech_decal_lod0::beginPass, COMDAT
; _this$ = ecx

; 53   : 		{

	push	ebp
	mov	ebp, esp
	push	ecx
	mov	DWORD PTR _this$[ebp], ecx

; 54   : 			m_CurPass = ipass;

	mov	eax, DWORD PTR _this$[ebp]
	mov	ecx, DWORD PTR _ipass$[ebp]
	mov	DWORD PTR [eax+192], ecx

; 55   : 
; 56   : 			SetBlendState(m_pDevice, m_BlendMode);

	push	-1
	mov	edx, DWORD PTR _this$[ebp]
	movzx	eax, BYTE PTR [edx+392]
	push	eax
	mov	ecx, DWORD PTR ?m_pDevice@D3DTech@Ogre@@2PAUIDirect3DDevice9@@A ; Ogre::D3DTech::m_pDevice
	push	ecx
	call	?SetBlendState@Ogre@@YAXPAUIDirect3DDevice9@@HH@Z ; Ogre::SetBlendState
	add	esp, 12					; 0000000cH

; 57   : 			if(m_BlendMode==BLEND_OPAQUE || m_BlendMode==BLEND_ALPHATEST)

	mov	edx, DWORD PTR _this$[ebp]
	movzx	eax, BYTE PTR [edx+392]
	test	eax, eax
	je	SHORT $LN4@beginPass@8
	mov	ecx, DWORD PTR _this$[ebp]
	movzx	edx, BYTE PTR [ecx+392]
	cmp	edx, 1
	jne	SHORT $LN5@beginPass@8
$LN4@beginPass@8:

; 58   : 			{
; 59   : 				m_pDevice->SetRenderState(D3DRS_ZWRITEENABLE, TRUE);

	push	1
	push	14					; 0000000eH
	mov	eax, DWORD PTR ?m_pDevice@D3DTech@Ogre@@2PAUIDirect3DDevice9@@A ; Ogre::D3DTech::m_pDevice
	mov	ecx, DWORD PTR [eax]
	mov	edx, DWORD PTR ?m_pDevice@D3DTech@Ogre@@2PAUIDirect3DDevice9@@A ; Ogre::D3DTech::m_pDevice
	push	edx
	mov	eax, DWORD PTR [ecx+228]
	call	eax
	jmp	SHORT $LN3@beginPass@8
$LN5@beginPass@8:

; 60   : 			}
; 61   : 			else m_pDevice->SetRenderState(D3DRS_ZWRITEENABLE, FALSE);

	push	0
	push	14					; 0000000eH
	mov	ecx, DWORD PTR ?m_pDevice@D3DTech@Ogre@@2PAUIDirect3DDevice9@@A ; Ogre::D3DTech::m_pDevice
	mov	edx, DWORD PTR [ecx]
	mov	eax, DWORD PTR ?m_pDevice@D3DTech@Ogre@@2PAUIDirect3DDevice9@@A ; Ogre::D3DTech::m_pDevice
	push	eax
	mov	ecx, DWORD PTR [edx+228]
	call	ecx
$LN3@beginPass@8:

; 62   : 
; 63   : 			m_pDevice->SetRenderState(D3DRS_CULLMODE, D3DCULL_NONE);

	push	1
	push	22					; 00000016H
	mov	edx, DWORD PTR ?m_pDevice@D3DTech@Ogre@@2PAUIDirect3DDevice9@@A ; Ogre::D3DTech::m_pDevice
	mov	eax, DWORD PTR [edx]
	mov	ecx, DWORD PTR ?m_pDevice@D3DTech@Ogre@@2PAUIDirect3DDevice9@@A ; Ogre::D3DTech::m_pDevice
	push	ecx
	mov	edx, DWORD PTR [eax+228]
	call	edx

; 64   : 
; 65   : 			SamplerState_Border(m_pDevice, 0);

	push	0
	push	0
	mov	eax, DWORD PTR ?m_pDevice@D3DTech@Ogre@@2PAUIDirect3DDevice9@@A ; Ogre::D3DTech::m_pDevice
	push	eax
	call	?SamplerState_Border@Ogre@@YAXPAUIDirect3DDevice9@@HI@Z ; Ogre::SamplerState_Border
	add	esp, 12					; 0000000cH

; 66   : 			m_pDevice->SetTextureStageState(0, D3DTSS_COLOROP, D3DTOP_MODULATE);

	push	4
	push	1
	push	0
	mov	ecx, DWORD PTR ?m_pDevice@D3DTech@Ogre@@2PAUIDirect3DDevice9@@A ; Ogre::D3DTech::m_pDevice
	mov	edx, DWORD PTR [ecx]
	mov	eax, DWORD PTR ?m_pDevice@D3DTech@Ogre@@2PAUIDirect3DDevice9@@A ; Ogre::D3DTech::m_pDevice
	push	eax
	mov	ecx, DWORD PTR [edx+268]
	call	ecx

; 67   : 			m_pDevice->SetTextureStageState(0, D3DTSS_ALPHAOP, D3DTOP_MODULATE);

	push	4
	push	4
	push	0
	mov	edx, DWORD PTR ?m_pDevice@D3DTech@Ogre@@2PAUIDirect3DDevice9@@A ; Ogre::D3DTech::m_pDevice
	mov	eax, DWORD PTR [edx]
	mov	ecx, DWORD PTR ?m_pDevice@D3DTech@Ogre@@2PAUIDirect3DDevice9@@A ; Ogre::D3DTech::m_pDevice
	push	ecx
	mov	edx, DWORD PTR [eax+268]
	call	edx

; 68   : 
; 69   : 			if(m_HasMaskTex)

	mov	eax, DWORD PTR _this$[ebp]
	movzx	ecx, BYTE PTR [eax+393]
	test	ecx, ecx
	je	SHORT $LN2@beginPass@8

; 70   : 			{
; 71   : 				SamplerState_Clamp(m_pDevice, 1);

	push	1
	mov	edx, DWORD PTR ?m_pDevice@D3DTech@Ogre@@2PAUIDirect3DDevice9@@A ; Ogre::D3DTech::m_pDevice
	push	edx
	call	?SamplerState_Clamp@Ogre@@YAXPAUIDirect3DDevice9@@H@Z ; Ogre::SamplerState_Clamp
	add	esp, 8

; 72   : 				m_pDevice->SetTextureStageState(1, D3DTSS_COLOROP, D3DTOP_MODULATE);

	push	4
	push	1
	push	1
	mov	eax, DWORD PTR ?m_pDevice@D3DTech@Ogre@@2PAUIDirect3DDevice9@@A ; Ogre::D3DTech::m_pDevice
	mov	ecx, DWORD PTR [eax]
	mov	edx, DWORD PTR ?m_pDevice@D3DTech@Ogre@@2PAUIDirect3DDevice9@@A ; Ogre::D3DTech::m_pDevice
	push	edx
	mov	eax, DWORD PTR [ecx+268]
	call	eax

; 73   : 				m_pDevice->SetTextureStageState(1, D3DTSS_ALPHAOP, D3DTOP_MODULATE);

	push	4
	push	4
	push	1
	mov	ecx, DWORD PTR ?m_pDevice@D3DTech@Ogre@@2PAUIDirect3DDevice9@@A ; Ogre::D3DTech::m_pDevice
	mov	edx, DWORD PTR [ecx]
	mov	eax, DWORD PTR ?m_pDevice@D3DTech@Ogre@@2PAUIDirect3DDevice9@@A ; Ogre::D3DTech::m_pDevice
	push	eax
	mov	ecx, DWORD PTR [edx+268]
	call	ecx

; 74   : 				m_pDevice->SetTextureStageState(2, D3DTSS_COLOROP, D3DTOP_DISABLE);

	push	1
	push	1
	push	2
	mov	edx, DWORD PTR ?m_pDevice@D3DTech@Ogre@@2PAUIDirect3DDevice9@@A ; Ogre::D3DTech::m_pDevice
	mov	eax, DWORD PTR [edx]
	mov	ecx, DWORD PTR ?m_pDevice@D3DTech@Ogre@@2PAUIDirect3DDevice9@@A ; Ogre::D3DTech::m_pDevice
	push	ecx
	mov	edx, DWORD PTR [eax+268]
	call	edx
	jmp	SHORT $LN1@beginPass@8
$LN2@beginPass@8:

; 75   : 			}
; 76   : 			else m_pDevice->SetTextureStageState(1, D3DTSS_COLOROP, D3DTOP_DISABLE);

	push	1
	push	1
	push	1
	mov	eax, DWORD PTR ?m_pDevice@D3DTech@Ogre@@2PAUIDirect3DDevice9@@A ; Ogre::D3DTech::m_pDevice
	mov	ecx, DWORD PTR [eax]
	mov	edx, DWORD PTR ?m_pDevice@D3DTech@Ogre@@2PAUIDirect3DDevice9@@A ; Ogre::D3DTech::m_pDevice
	push	edx
	mov	eax, DWORD PTR [ecx+268]
	call	eax
$LN1@beginPass@8:

; 77   : 
; 78   : 			applyVSPS(m_CurPass);

	mov	ecx, DWORD PTR _this$[ebp]
	mov	edx, DWORD PTR [ecx+192]
	push	edx
	mov	ecx, DWORD PTR _this$[ebp]
	call	?applyVSPS@D3DTech@Ogre@@IAEXI@Z	; Ogre::D3DTech::applyVSPS

; 79   : 		}

	mov	esp, ebp
	pop	ebp
	ret	4
?beginPass@D3DTech_decal_lod0@Ogre@@UAEXI@Z ENDP	; Ogre::D3DTech_decal_lod0::beginPass
; Function compile flags: /Odtp
; File i:\svnroot\client\plugins\rendersystem_d3d9\ogred3d9technique.h
_TEXT	ENDS
;	COMDAT ?SamplerState_Border@Ogre@@YAXPAUIDirect3DDevice9@@HI@Z
_TEXT	SEGMENT
_pdevice$ = 8						; size = 4
_stage$ = 12						; size = 4
_bordercolor$ = 16					; size = 4
?SamplerState_Border@Ogre@@YAXPAUIDirect3DDevice9@@HI@Z PROC ; Ogre::SamplerState_Border, COMDAT

; 118  : 	{

	push	ebp
	mov	ebp, esp

; 119  : 		pdevice->SetSamplerState(stage, D3DSAMP_ADDRESSU, D3DTADDRESS_BORDER);

	push	4
	push	1
	mov	eax, DWORD PTR _stage$[ebp]
	push	eax
	mov	ecx, DWORD PTR _pdevice$[ebp]
	mov	edx, DWORD PTR [ecx]
	mov	eax, DWORD PTR _pdevice$[ebp]
	push	eax
	mov	ecx, DWORD PTR [edx+276]
	call	ecx

; 120  : 		pdevice->SetSamplerState(stage, D3DSAMP_ADDRESSV, D3DTADDRESS_BORDER);

	push	4
	push	2
	mov	edx, DWORD PTR _stage$[ebp]
	push	edx
	mov	eax, DWORD PTR _pdevice$[ebp]
	mov	ecx, DWORD PTR [eax]
	mov	edx, DWORD PTR _pdevice$[ebp]
	push	edx
	mov	eax, DWORD PTR [ecx+276]
	call	eax

; 121  : 		pdevice->SetSamplerState(stage, D3DSAMP_BORDERCOLOR, bordercolor);

	mov	ecx, DWORD PTR _bordercolor$[ebp]
	push	ecx
	push	4
	mov	edx, DWORD PTR _stage$[ebp]
	push	edx
	mov	eax, DWORD PTR _pdevice$[ebp]
	mov	ecx, DWORD PTR [eax]
	mov	edx, DWORD PTR _pdevice$[ebp]
	push	edx
	mov	eax, DWORD PTR [ecx+276]
	call	eax

; 122  : 
; 123  : 		pdevice->SetSamplerState(stage, D3DSAMP_MIPFILTER, D3DTEXF_POINT);

	push	1
	push	7
	mov	ecx, DWORD PTR _stage$[ebp]
	push	ecx
	mov	edx, DWORD PTR _pdevice$[ebp]
	mov	eax, DWORD PTR [edx]
	mov	ecx, DWORD PTR _pdevice$[ebp]
	push	ecx
	mov	edx, DWORD PTR [eax+276]
	call	edx

; 124  : 		pdevice->SetSamplerState(stage, D3DSAMP_MINFILTER, D3DTEXF_LINEAR);

	push	2
	push	6
	mov	eax, DWORD PTR _stage$[ebp]
	push	eax
	mov	ecx, DWORD PTR _pdevice$[ebp]
	mov	edx, DWORD PTR [ecx]
	mov	eax, DWORD PTR _pdevice$[ebp]
	push	eax
	mov	ecx, DWORD PTR [edx+276]
	call	ecx

; 125  : 		pdevice->SetSamplerState(stage, D3DSAMP_MAGFILTER, D3DTEXF_LINEAR);

	push	2
	push	5
	mov	edx, DWORD PTR _stage$[ebp]
	push	edx
	mov	eax, DWORD PTR _pdevice$[ebp]
	mov	ecx, DWORD PTR [eax]
	mov	edx, DWORD PTR _pdevice$[ebp]
	push	edx
	mov	eax, DWORD PTR [ecx+276]
	call	eax

; 126  : 	}

	pop	ebp
	ret	0
?SamplerState_Border@Ogre@@YAXPAUIDirect3DDevice9@@HI@Z ENDP ; Ogre::SamplerState_Border
; Function compile flags: /Odtp
; File i:\svnroot\client\plugins\rendersystem_d3d9\ogred3d9tech_decal.h
_TEXT	ENDS
;	COMDAT ?endPass@D3DTech_decal_lod0@Ogre@@UAEXXZ
_TEXT	SEGMENT
_this$ = -4						; size = 4
?endPass@D3DTech_decal_lod0@Ogre@@UAEXXZ PROC		; Ogre::D3DTech_decal_lod0::endPass, COMDAT
; _this$ = ecx

; 82   : 		{

	push	ebp
	mov	ebp, esp
	push	ecx
	mov	DWORD PTR _this$[ebp], ecx

; 83   : 			SetBlendState(m_pDevice, BLEND_OPAQUE);

	push	-1
	push	0
	mov	eax, DWORD PTR ?m_pDevice@D3DTech@Ogre@@2PAUIDirect3DDevice9@@A ; Ogre::D3DTech::m_pDevice
	push	eax
	call	?SetBlendState@Ogre@@YAXPAUIDirect3DDevice9@@HH@Z ; Ogre::SetBlendState
	add	esp, 12					; 0000000cH

; 84   : 			m_pDevice->SetRenderState(D3DRS_ZWRITEENABLE, TRUE);

	push	1
	push	14					; 0000000eH
	mov	ecx, DWORD PTR ?m_pDevice@D3DTech@Ogre@@2PAUIDirect3DDevice9@@A ; Ogre::D3DTech::m_pDevice
	mov	edx, DWORD PTR [ecx]
	mov	eax, DWORD PTR ?m_pDevice@D3DTech@Ogre@@2PAUIDirect3DDevice9@@A ; Ogre::D3DTech::m_pDevice
	push	eax
	mov	ecx, DWORD PTR [edx+228]
	call	ecx

; 85   : 		}

	mov	esp, ebp
	pop	ebp
	ret	0
?endPass@D3DTech_decal_lod0@Ogre@@UAEXXZ ENDP		; Ogre::D3DTech_decal_lod0::endPass
_TEXT	ENDS
PUBLIC	??1D3DTech_decal_lod0@Ogre@@UAE@XZ		; Ogre::D3DTech_decal_lod0::~D3DTech_decal_lod0
; Function compile flags: /Odtp
;	COMDAT ??_GD3DTech_decal_lod0@Ogre@@UAEPAXI@Z
_TEXT	SEGMENT
_this$ = -4						; size = 4
___flags$ = 8						; size = 4
??_GD3DTech_decal_lod0@Ogre@@UAEPAXI@Z PROC		; Ogre::D3DTech_decal_lod0::`scalar deleting destructor', COMDAT
; _this$ = ecx
	push	ebp
	mov	ebp, esp
	push	ecx
	mov	DWORD PTR _this$[ebp], ecx
	mov	ecx, DWORD PTR _this$[ebp]
	call	??1D3DTech_decal_lod0@Ogre@@UAE@XZ
	mov	eax, DWORD PTR ___flags$[ebp]
	and	eax, 1
	je	SHORT $LN1@scalar@25
	mov	ecx, DWORD PTR _this$[ebp]
	push	ecx
	call	??3@YAXPAX@Z				; operator delete
	add	esp, 4
$LN1@scalar@25:
	mov	eax, DWORD PTR _this$[ebp]
	mov	esp, ebp
	pop	ebp
	ret	4
??_GD3DTech_decal_lod0@Ogre@@UAEPAXI@Z ENDP		; Ogre::D3DTech_decal_lod0::`scalar deleting destructor'
_TEXT	ENDS
;	COMDAT xdata$x
xdata$x	SEGMENT
__unwindtable$??1D3DTech_decal_lod0@Ogre@@UAE@XZ DD 0ffffffffH
	DD	FLAT:__unwindfunclet$??1D3DTech_decal_lod0@Ogre@@UAE@XZ$0
__ehfuncinfo$??1D3DTech_decal_lod0@Ogre@@UAE@XZ DD 019930522H
	DD	01H
	DD	FLAT:__unwindtable$??1D3DTech_decal_lod0@Ogre@@UAE@XZ
	DD	2 DUP(00H)
	DD	2 DUP(00H)
	DD	00H
	DD	00H
; Function compile flags: /Odtp
xdata$x	ENDS
;	COMDAT ??1D3DTech_decal_lod0@Ogre@@UAE@XZ
_TEXT	SEGMENT
_this$ = -16						; size = 4
__$EHRec$ = -12						; size = 12
??1D3DTech_decal_lod0@Ogre@@UAE@XZ PROC			; Ogre::D3DTech_decal_lod0::~D3DTech_decal_lod0, COMDAT
; _this$ = ecx
	push	ebp
	mov	ebp, esp
	push	-1
	push	__ehhandler$??1D3DTech_decal_lod0@Ogre@@UAE@XZ
	mov	eax, DWORD PTR fs:0
	push	eax
	push	ecx
	mov	eax, DWORD PTR ___security_cookie
	xor	eax, ebp
	push	eax
	lea	eax, DWORD PTR __$EHRec$[ebp]
	mov	DWORD PTR fs:0, eax
	mov	DWORD PTR _this$[ebp], ecx
	mov	DWORD PTR __$EHRec$[ebp+8], 0
	mov	DWORD PTR __$EHRec$[ebp+8], -1
	mov	ecx, DWORD PTR _this$[ebp]
	call	??1D3DTech@Ogre@@UAE@XZ
	mov	ecx, DWORD PTR __$EHRec$[ebp]
	mov	DWORD PTR fs:0, ecx
	pop	ecx
	mov	esp, ebp
	pop	ebp
	ret	0
_TEXT	ENDS
;	COMDAT text$x
text$x	SEGMENT
__unwindfunclet$??1D3DTech_decal_lod0@Ogre@@UAE@XZ$0:
	mov	ecx, DWORD PTR _this$[ebp]
	jmp	??1D3DTech@Ogre@@UAE@XZ
__ehhandler$??1D3DTech_decal_lod0@Ogre@@UAE@XZ:
	mov	edx, DWORD PTR [esp+8]
	lea	eax, DWORD PTR [edx+12]
	mov	ecx, DWORD PTR [edx-8]
	xor	ecx, eax
	call	@__security_check_cookie@4
	mov	eax, OFFSET __ehfuncinfo$??1D3DTech_decal_lod0@Ogre@@UAE@XZ
	jmp	___CxxFrameHandler3
text$x	ENDS
??1D3DTech_decal_lod0@Ogre@@UAE@XZ ENDP			; Ogre::D3DTech_decal_lod0::~D3DTech_decal_lod0
PUBLIC	??_7D3DTech_decal_distort@Ogre@@6B@		; Ogre::D3DTech_decal_distort::`vftable'
PUBLIC	??_R4D3DTech_decal_distort@Ogre@@6B@		; Ogre::D3DTech_decal_distort::`RTTI Complete Object Locator'
PUBLIC	??_R0?AVD3DTech_decal_distort@Ogre@@@8		; Ogre::D3DTech_decal_distort `RTTI Type Descriptor'
PUBLIC	??_R3D3DTech_decal_distort@Ogre@@8		; Ogre::D3DTech_decal_distort::`RTTI Class Hierarchy Descriptor'
PUBLIC	??_R2D3DTech_decal_distort@Ogre@@8		; Ogre::D3DTech_decal_distort::`RTTI Base Class Array'
PUBLIC	??_R1A@?0A@EA@D3DTech_decal_distort@Ogre@@8	; Ogre::D3DTech_decal_distort::`RTTI Base Class Descriptor at (0,-1,0,64)'
PUBLIC	?beginPass@D3DTech_decal_distort@Ogre@@UAEXI@Z	; Ogre::D3DTech_decal_distort::beginPass
PUBLIC	?endPass@D3DTech_decal_distort@Ogre@@UAEXXZ	; Ogre::D3DTech_decal_distort::endPass
PUBLIC	?clone@D3DTech_decal_distort@Ogre@@UAEPAVD3DTech@2@XZ ; Ogre::D3DTech_decal_distort::clone
PUBLIC	?init@D3DTech_decal_distort@Ogre@@UAEXABUShaderEnvFlags@2@ABUMaterialMacro@2@@Z ; Ogre::D3DTech_decal_distort::init
EXTRN	??_ED3DTech_decal_distort@Ogre@@UAEPAXI@Z:PROC	; Ogre::D3DTech_decal_distort::`vector deleting destructor'
;	COMDAT ??_R1A@?0A@EA@D3DTech_decal_distort@Ogre@@8
rdata$r	SEGMENT
??_R1A@?0A@EA@D3DTech_decal_distort@Ogre@@8 DD FLAT:??_R0?AVD3DTech_decal_distort@Ogre@@@8 ; Ogre::D3DTech_decal_distort::`RTTI Base Class Descriptor at (0,-1,0,64)'
	DD	02H
	DD	00H
	DD	0ffffffffH
	DD	00H
	DD	040H
	DD	FLAT:??_R3D3DTech_decal_distort@Ogre@@8
rdata$r	ENDS
;	COMDAT ??_R2D3DTech_decal_distort@Ogre@@8
rdata$r	SEGMENT
??_R2D3DTech_decal_distort@Ogre@@8 DD FLAT:??_R1A@?0A@EA@D3DTech_decal_distort@Ogre@@8 ; Ogre::D3DTech_decal_distort::`RTTI Base Class Array'
	DD	FLAT:??_R1A@?0A@EA@D3DTech@Ogre@@8
	DD	FLAT:??_R1A@?0A@EA@ShaderTechnique@Ogre@@8
rdata$r	ENDS
;	COMDAT ??_R3D3DTech_decal_distort@Ogre@@8
rdata$r	SEGMENT
??_R3D3DTech_decal_distort@Ogre@@8 DD 00H		; Ogre::D3DTech_decal_distort::`RTTI Class Hierarchy Descriptor'
	DD	00H
	DD	03H
	DD	FLAT:??_R2D3DTech_decal_distort@Ogre@@8
rdata$r	ENDS
;	COMDAT ??_R0?AVD3DTech_decal_distort@Ogre@@@8
_DATA	SEGMENT
??_R0?AVD3DTech_decal_distort@Ogre@@@8 DD FLAT:??_7type_info@@6B@ ; Ogre::D3DTech_decal_distort `RTTI Type Descriptor'
	DD	00H
	DB	'.?AVD3DTech_decal_distort@Ogre@@', 00H
_DATA	ENDS
;	COMDAT ??_R4D3DTech_decal_distort@Ogre@@6B@
rdata$r	SEGMENT
??_R4D3DTech_decal_distort@Ogre@@6B@ DD 00H		; Ogre::D3DTech_decal_distort::`RTTI Complete Object Locator'
	DD	00H
	DD	00H
	DD	FLAT:??_R0?AVD3DTech_decal_distort@Ogre@@@8
	DD	FLAT:??_R3D3DTech_decal_distort@Ogre@@8
rdata$r	ENDS
;	COMDAT ??_7D3DTech_decal_distort@Ogre@@6B@
CONST	SEGMENT
??_7D3DTech_decal_distort@Ogre@@6B@ DD FLAT:??_R4D3DTech_decal_distort@Ogre@@6B@ ; Ogre::D3DTech_decal_distort::`vftable'
	DD	FLAT:?begin@D3DTech@Ogre@@UAEIXZ
	DD	FLAT:?end@D3DTech@Ogre@@UAEXXZ
	DD	FLAT:?beginPass@D3DTech_decal_distort@Ogre@@UAEXI@Z
	DD	FLAT:?endPass@D3DTech_decal_distort@Ogre@@UAEXXZ
	DD	FLAT:?setConstant@D3DTech@Ogre@@UAEXW4ShaderParamUsage@2@PBXI@Z
	DD	FLAT:?setConstant@D3DTech@Ogre@@UAEXPBDPBXI@Z
	DD	FLAT:?setTexture@D3DTech@Ogre@@UAEXW4ShaderParamUsage@2@PAVHardwarePixelBuffer@2@@Z
	DD	FLAT:?setTexture@D3DTech@Ogre@@UAEXPBDPAVHardwarePixelBuffer@2@@Z
	DD	FLAT:?setStreamInput@D3DTech@Ogre@@UAEXIPAPAVHardwareVertexBuffer@2@HPAI@Z
	DD	FLAT:?setStreamInput@D3DTech@Ogre@@UAEXIPAVHardwareVertexBuffer@2@I@Z
	DD	FLAT:?setStreamInput@D3DTech@Ogre@@UAEXIPAPAVHardwareVertexBuffer@2@PAI@Z
	DD	FLAT:?commitChanges@D3DTech@Ogre@@UAEXXZ
	DD	FLAT:?draw@D3DTech@Ogre@@UAEXW4PrimitiveType@2@IIPAVHardwareIndexBuffer@2@II@Z
	DD	FLAT:?draw@D3DTech@Ogre@@UAEXW4PrimitiveType@2@II@Z
	DD	FLAT:?getRequiredParams@D3DTech@Ogre@@UAEIPAW4ShaderParamUsage@2@I@Z
	DD	FLAT:??_ED3DTech_decal_distort@Ogre@@UAEPAXI@Z
	DD	FLAT:?clone@D3DTech_decal_distort@Ogre@@UAEPAVD3DTech@2@XZ
	DD	FLAT:?init@D3DTech_decal_distort@Ogre@@UAEXABUShaderEnvFlags@2@ABUMaterialMacro@2@@Z
CONST	ENDS
;	COMDAT xdata$x
xdata$x	SEGMENT
__unwindtable$??0D3DTech_decal_distort@Ogre@@QAE@XZ DD 0ffffffffH
	DD	FLAT:__unwindfunclet$??0D3DTech_decal_distort@Ogre@@QAE@XZ$0
__ehfuncinfo$??0D3DTech_decal_distort@Ogre@@QAE@XZ DD 019930522H
	DD	01H
	DD	FLAT:__unwindtable$??0D3DTech_decal_distort@Ogre@@QAE@XZ
	DD	2 DUP(00H)
	DD	2 DUP(00H)
	DD	00H
	DD	00H
; Function compile flags: /Odtp
xdata$x	ENDS
;	COMDAT ??0D3DTech_decal_distort@Ogre@@QAE@XZ
_TEXT	SEGMENT
_this$ = -16						; size = 4
__$EHRec$ = -12						; size = 12
??0D3DTech_decal_distort@Ogre@@QAE@XZ PROC		; Ogre::D3DTech_decal_distort::D3DTech_decal_distort, COMDAT
; _this$ = ecx
	push	ebp
	mov	ebp, esp
	push	-1
	push	__ehhandler$??0D3DTech_decal_distort@Ogre@@QAE@XZ
	mov	eax, DWORD PTR fs:0
	push	eax
	push	ecx
	mov	eax, DWORD PTR ___security_cookie
	xor	eax, ebp
	push	eax
	lea	eax, DWORD PTR __$EHRec$[ebp]
	mov	DWORD PTR fs:0, eax
	mov	DWORD PTR _this$[ebp], ecx
	mov	ecx, DWORD PTR _this$[ebp]
	call	??0D3DTech@Ogre@@QAE@XZ			; Ogre::D3DTech::D3DTech
	mov	DWORD PTR __$EHRec$[ebp+8], 0
	mov	eax, DWORD PTR _this$[ebp]
	mov	DWORD PTR [eax], OFFSET ??_7D3DTech_decal_distort@Ogre@@6B@
	mov	DWORD PTR __$EHRec$[ebp+8], -1
	mov	eax, DWORD PTR _this$[ebp]
	mov	ecx, DWORD PTR __$EHRec$[ebp]
	mov	DWORD PTR fs:0, ecx
	pop	ecx
	mov	esp, ebp
	pop	ebp
	ret	0
_TEXT	ENDS
;	COMDAT text$x
text$x	SEGMENT
__unwindfunclet$??0D3DTech_decal_distort@Ogre@@QAE@XZ$0:
	mov	ecx, DWORD PTR _this$[ebp]
	jmp	??1D3DTech@Ogre@@UAE@XZ
__ehhandler$??0D3DTech_decal_distort@Ogre@@QAE@XZ:
	mov	edx, DWORD PTR [esp+8]
	lea	eax, DWORD PTR [edx+12]
	mov	ecx, DWORD PTR [edx-8]
	xor	ecx, eax
	call	@__security_check_cookie@4
	mov	eax, OFFSET __ehfuncinfo$??0D3DTech_decal_distort@Ogre@@QAE@XZ
	jmp	___CxxFrameHandler3
text$x	ENDS
??0D3DTech_decal_distort@Ogre@@QAE@XZ ENDP		; Ogre::D3DTech_decal_distort::D3DTech_decal_distort
;	COMDAT xdata$x
xdata$x	SEGMENT
__unwindtable$?clone@D3DTech_decal_distort@Ogre@@UAEPAVD3DTech@2@XZ DD 0ffffffffH
	DD	FLAT:__unwindfunclet$?clone@D3DTech_decal_distort@Ogre@@UAEPAVD3DTech@2@XZ$0
__ehfuncinfo$?clone@D3DTech_decal_distort@Ogre@@UAEPAVD3DTech@2@XZ DD 019930522H
	DD	01H
	DD	FLAT:__unwindtable$?clone@D3DTech_decal_distort@Ogre@@UAEPAVD3DTech@2@XZ
	DD	2 DUP(00H)
	DD	2 DUP(00H)
	DD	00H
	DD	00H
; Function compile flags: /Odtp
xdata$x	ENDS
;	COMDAT ?clone@D3DTech_decal_distort@Ogre@@UAEPAVD3DTech@2@XZ
_TEXT	SEGMENT
tv74 = -28						; size = 4
_this$ = -24						; size = 4
$T140467 = -20						; size = 4
$T140466 = -16						; size = 4
__$EHRec$ = -12						; size = 12
?clone@D3DTech_decal_distort@Ogre@@UAEPAVD3DTech@2@XZ PROC ; Ogre::D3DTech_decal_distort::clone, COMDAT
; _this$ = ecx

; 92   : 		{

	push	ebp
	mov	ebp, esp
	push	-1
	push	__ehhandler$?clone@D3DTech_decal_distort@Ogre@@UAEPAVD3DTech@2@XZ
	mov	eax, DWORD PTR fs:0
	push	eax
	sub	esp, 16					; 00000010H
	mov	eax, DWORD PTR ___security_cookie
	xor	eax, ebp
	push	eax
	lea	eax, DWORD PTR __$EHRec$[ebp]
	mov	DWORD PTR fs:0, eax
	mov	DWORD PTR _this$[ebp], ecx

; 93   : 			return new D3DTech_decal_distort;

	push	392					; 00000188H
	call	??2@YAPAXI@Z				; operator new
	add	esp, 4
	mov	DWORD PTR $T140467[ebp], eax
	mov	DWORD PTR __$EHRec$[ebp+8], 0
	cmp	DWORD PTR $T140467[ebp], 0
	je	SHORT $LN3@clone@25
	mov	ecx, DWORD PTR $T140467[ebp]
	call	??0D3DTech_decal_distort@Ogre@@QAE@XZ
	mov	DWORD PTR tv74[ebp], eax
	jmp	SHORT $LN4@clone@25
$LN3@clone@25:
	mov	DWORD PTR tv74[ebp], 0
$LN4@clone@25:
	mov	eax, DWORD PTR tv74[ebp]
	mov	DWORD PTR $T140466[ebp], eax
	mov	DWORD PTR __$EHRec$[ebp+8], -1
	mov	eax, DWORD PTR $T140466[ebp]

; 94   : 		}

	mov	ecx, DWORD PTR __$EHRec$[ebp]
	mov	DWORD PTR fs:0, ecx
	pop	ecx
	mov	esp, ebp
	pop	ebp
	ret	0
_TEXT	ENDS
;	COMDAT text$x
text$x	SEGMENT
__unwindfunclet$?clone@D3DTech_decal_distort@Ogre@@UAEPAVD3DTech@2@XZ$0:
	mov	eax, DWORD PTR $T140467[ebp]
	push	eax
	call	??3@YAXPAX@Z				; operator delete
	pop	ecx
	ret	0
__ehhandler$?clone@D3DTech_decal_distort@Ogre@@UAEPAVD3DTech@2@XZ:
	mov	edx, DWORD PTR [esp+8]
	lea	eax, DWORD PTR [edx+12]
	mov	ecx, DWORD PTR [edx-20]
	xor	ecx, eax
	call	@__security_check_cookie@4
	mov	eax, OFFSET __ehfuncinfo$?clone@D3DTech_decal_distort@Ogre@@UAEPAVD3DTech@2@XZ
	jmp	___CxxFrameHandler3
text$x	ENDS
?clone@D3DTech_decal_distort@Ogre@@UAEPAVD3DTech@2@XZ ENDP ; Ogre::D3DTech_decal_distort::clone
; Function compile flags: /Odtp
;	COMDAT ?init@D3DTech_decal_distort@Ogre@@UAEXABUShaderEnvFlags@2@ABUMaterialMacro@2@@Z
_TEXT	SEGMENT
_this$ = -4						; size = 4
_env$ = 8						; size = 4
_macros$ = 12						; size = 4
?init@D3DTech_decal_distort@Ogre@@UAEXABUShaderEnvFlags@2@ABUMaterialMacro@2@@Z PROC ; Ogre::D3DTech_decal_distort::init, COMDAT
; _this$ = ecx

; 97   : 		{

	push	ebp
	mov	ebp, esp
	push	ecx
	mov	DWORD PTR _this$[ebp], ecx

; 98   : 			m_nPass = 1;

	mov	eax, DWORD PTR _this$[ebp]
	mov	DWORD PTR [eax+188], 1

; 99   : 			m_AllPass[0].vs = m_pMtlTemplate->getCompiledVSPS(COMPILED_VS, "Main", env, macros);

	mov	ecx, DWORD PTR _macros$[ebp]
	push	ecx
	mov	edx, DWORD PTR _env$[ebp]
	push	edx
	push	OFFSET ??_C@_04KGFMLCPK@Main?$AA@
	push	1
	mov	eax, DWORD PTR _this$[ebp]
	mov	ecx, DWORD PTR [eax+8]
	call	?getCompiledVSPS@D3DMaterialTemplate@Ogre@@QAEPAVCompiledShader@2@W4COMPILED_TYPE@2@PBDABUShaderEnvFlags@2@ABUMaterialMacro@2@@Z ; Ogre::D3DMaterialTemplate::getCompiledVSPS
	mov	ecx, DWORD PTR _this$[ebp]
	mov	DWORD PTR [ecx+12], eax

; 100  : 			m_AllPass[0].ps = m_pMtlTemplate->getCompiledVSPS(COMPILED_PS, "Distort", env, macros);

	mov	edx, DWORD PTR _macros$[ebp]
	push	edx
	mov	eax, DWORD PTR _env$[ebp]
	push	eax
	push	OFFSET ??_C@_07NHKDDLEO@Distort?$AA@
	push	2
	mov	ecx, DWORD PTR _this$[ebp]
	mov	ecx, DWORD PTR [ecx+8]
	call	?getCompiledVSPS@D3DMaterialTemplate@Ogre@@QAEPAVCompiledShader@2@W4COMPILED_TYPE@2@PBDABUShaderEnvFlags@2@ABUMaterialMacro@2@@Z ; Ogre::D3DMaterialTemplate::getCompiledVSPS
	mov	edx, DWORD PTR _this$[ebp]
	mov	DWORD PTR [edx+16], eax

; 101  : 
; 102  : 			m_AllPass[0].ntex = 2;

	mov	eax, DWORD PTR _this$[ebp]
	mov	DWORD PTR [eax+20], 2

; 103  : 			m_AllPass[0].texstage[0] = SPU_GENERAL_PARAM + 2; //diffusetex

	mov	ecx, DWORD PTR _this$[ebp]
	mov	DWORD PTR [ecx+24], 1002		; 000003eaH

; 104  : 			m_AllPass[0].texstage[1] = SPU_GENERAL_PARAM + 3; //masktex

	mov	edx, DWORD PTR _this$[ebp]
	mov	DWORD PTR [edx+28], 1003		; 000003ebH

; 105  : 
; 106  : 			initParams();

	mov	ecx, DWORD PTR _this$[ebp]
	call	?initParams@D3DTech@Ogre@@IAEXXZ	; Ogre::D3DTech::initParams

; 107  : 			m_UsedMacroMask = 0;

	mov	eax, DWORD PTR _this$[ebp]
	mov	DWORD PTR [eax+4], 0

; 108  : 		}

	mov	esp, ebp
	pop	ebp
	ret	8
?init@D3DTech_decal_distort@Ogre@@UAEXABUShaderEnvFlags@2@ABUMaterialMacro@2@@Z ENDP ; Ogre::D3DTech_decal_distort::init
; Function compile flags: /Odtp
_TEXT	ENDS
;	COMDAT ?beginPass@D3DTech_decal_distort@Ogre@@UAEXI@Z
_TEXT	SEGMENT
_this$ = -4						; size = 4
_ipass$ = 8						; size = 4
?beginPass@D3DTech_decal_distort@Ogre@@UAEXI@Z PROC	; Ogre::D3DTech_decal_distort::beginPass, COMDAT
; _this$ = ecx

; 111  : 		{

	push	ebp
	mov	ebp, esp
	push	ecx
	mov	DWORD PTR _this$[ebp], ecx

; 112  : 			m_CurPass = ipass;

	mov	eax, DWORD PTR _this$[ebp]
	mov	ecx, DWORD PTR _ipass$[ebp]
	mov	DWORD PTR [eax+192], ecx

; 113  : 
; 114  : 			SetBlendState(m_pDevice, BLEND_OPAQUE);

	push	-1
	push	0
	mov	edx, DWORD PTR ?m_pDevice@D3DTech@Ogre@@2PAUIDirect3DDevice9@@A ; Ogre::D3DTech::m_pDevice
	push	edx
	call	?SetBlendState@Ogre@@YAXPAUIDirect3DDevice9@@HH@Z ; Ogre::SetBlendState
	add	esp, 12					; 0000000cH

; 115  : 			m_pDevice->SetRenderState(D3DRS_CULLMODE, D3DCULL_NONE);

	push	1
	push	22					; 00000016H
	mov	eax, DWORD PTR ?m_pDevice@D3DTech@Ogre@@2PAUIDirect3DDevice9@@A ; Ogre::D3DTech::m_pDevice
	mov	ecx, DWORD PTR [eax]
	mov	edx, DWORD PTR ?m_pDevice@D3DTech@Ogre@@2PAUIDirect3DDevice9@@A ; Ogre::D3DTech::m_pDevice
	push	edx
	mov	eax, DWORD PTR [ecx+228]
	call	eax

; 116  : 
; 117  : 			SamplerState_Border(m_pDevice, 0);

	push	0
	push	0
	mov	ecx, DWORD PTR ?m_pDevice@D3DTech@Ogre@@2PAUIDirect3DDevice9@@A ; Ogre::D3DTech::m_pDevice
	push	ecx
	call	?SamplerState_Border@Ogre@@YAXPAUIDirect3DDevice9@@HI@Z ; Ogre::SamplerState_Border
	add	esp, 12					; 0000000cH

; 118  : 			SamplerState_Clamp(m_pDevice, 1);

	push	1
	mov	edx, DWORD PTR ?m_pDevice@D3DTech@Ogre@@2PAUIDirect3DDevice9@@A ; Ogre::D3DTech::m_pDevice
	push	edx
	call	?SamplerState_Clamp@Ogre@@YAXPAUIDirect3DDevice9@@H@Z ; Ogre::SamplerState_Clamp
	add	esp, 8

; 119  : 
; 120  : 			applyVSPS(m_CurPass);

	mov	eax, DWORD PTR _this$[ebp]
	mov	ecx, DWORD PTR [eax+192]
	push	ecx
	mov	ecx, DWORD PTR _this$[ebp]
	call	?applyVSPS@D3DTech@Ogre@@IAEXI@Z	; Ogre::D3DTech::applyVSPS

; 121  : 		}

	mov	esp, ebp
	pop	ebp
	ret	4
?beginPass@D3DTech_decal_distort@Ogre@@UAEXI@Z ENDP	; Ogre::D3DTech_decal_distort::beginPass
; Function compile flags: /Odtp
_TEXT	ENDS
;	COMDAT ?endPass@D3DTech_decal_distort@Ogre@@UAEXXZ
_TEXT	SEGMENT
_this$ = -4						; size = 4
?endPass@D3DTech_decal_distort@Ogre@@UAEXXZ PROC	; Ogre::D3DTech_decal_distort::endPass, COMDAT
; _this$ = ecx

; 124  : 		{

	push	ebp
	mov	ebp, esp
	push	ecx
	mov	DWORD PTR _this$[ebp], ecx

; 125  : 		}

	mov	esp, ebp
	pop	ebp
	ret	0
?endPass@D3DTech_decal_distort@Ogre@@UAEXXZ ENDP	; Ogre::D3DTech_decal_distort::endPass
_TEXT	ENDS
PUBLIC	??1D3DTech_decal_distort@Ogre@@UAE@XZ		; Ogre::D3DTech_decal_distort::~D3DTech_decal_distort
; Function compile flags: /Odtp
;	COMDAT ??_GD3DTech_decal_distort@Ogre@@UAEPAXI@Z
_TEXT	SEGMENT
_this$ = -4						; size = 4
___flags$ = 8						; size = 4
??_GD3DTech_decal_distort@Ogre@@UAEPAXI@Z PROC		; Ogre::D3DTech_decal_distort::`scalar deleting destructor', COMDAT
; _this$ = ecx
	push	ebp
	mov	ebp, esp
	push	ecx
	mov	DWORD PTR _this$[ebp], ecx
	mov	ecx, DWORD PTR _this$[ebp]
	call	??1D3DTech_decal_distort@Ogre@@UAE@XZ
	mov	eax, DWORD PTR ___flags$[ebp]
	and	eax, 1
	je	SHORT $LN1@scalar@26
	mov	ecx, DWORD PTR _this$[ebp]
	push	ecx
	call	??3@YAXPAX@Z				; operator delete
	add	esp, 4
$LN1@scalar@26:
	mov	eax, DWORD PTR _this$[ebp]
	mov	esp, ebp
	pop	ebp
	ret	4
??_GD3DTech_decal_distort@Ogre@@UAEPAXI@Z ENDP		; Ogre::D3DTech_decal_distort::`scalar deleting destructor'
_TEXT	ENDS
;	COMDAT xdata$x
xdata$x	SEGMENT
__unwindtable$??1D3DTech_decal_distort@Ogre@@UAE@XZ DD 0ffffffffH
	DD	FLAT:__unwindfunclet$??1D3DTech_decal_distort@Ogre@@UAE@XZ$0
__ehfuncinfo$??1D3DTech_decal_distort@Ogre@@UAE@XZ DD 019930522H
	DD	01H
	DD	FLAT:__unwindtable$??1D3DTech_decal_distort@Ogre@@UAE@XZ
	DD	2 DUP(00H)
	DD	2 DUP(00H)
	DD	00H
	DD	00H
; Function compile flags: /Odtp
xdata$x	ENDS
;	COMDAT ??1D3DTech_decal_distort@Ogre@@UAE@XZ
_TEXT	SEGMENT
_this$ = -16						; size = 4
__$EHRec$ = -12						; size = 12
??1D3DTech_decal_distort@Ogre@@UAE@XZ PROC		; Ogre::D3DTech_decal_distort::~D3DTech_decal_distort, COMDAT
; _this$ = ecx
	push	ebp
	mov	ebp, esp
	push	-1
	push	__ehhandler$??1D3DTech_decal_distort@Ogre@@UAE@XZ
	mov	eax, DWORD PTR fs:0
	push	eax
	push	ecx
	mov	eax, DWORD PTR ___security_cookie
	xor	eax, ebp
	push	eax
	lea	eax, DWORD PTR __$EHRec$[ebp]
	mov	DWORD PTR fs:0, eax
	mov	DWORD PTR _this$[ebp], ecx
	mov	DWORD PTR __$EHRec$[ebp+8], 0
	mov	DWORD PTR __$EHRec$[ebp+8], -1
	mov	ecx, DWORD PTR _this$[ebp]
	call	??1D3DTech@Ogre@@UAE@XZ
	mov	ecx, DWORD PTR __$EHRec$[ebp]
	mov	DWORD PTR fs:0, ecx
	pop	ecx
	mov	esp, ebp
	pop	ebp
	ret	0
_TEXT	ENDS
;	COMDAT text$x
text$x	SEGMENT
__unwindfunclet$??1D3DTech_decal_distort@Ogre@@UAE@XZ$0:
	mov	ecx, DWORD PTR _this$[ebp]
	jmp	??1D3DTech@Ogre@@UAE@XZ
__ehhandler$??1D3DTech_decal_distort@Ogre@@UAE@XZ:
	mov	edx, DWORD PTR [esp+8]
	lea	eax, DWORD PTR [edx+12]
	mov	ecx, DWORD PTR [edx-8]
	xor	ecx, eax
	call	@__security_check_cookie@4
	mov	eax, OFFSET __ehfuncinfo$??1D3DTech_decal_distort@Ogre@@UAE@XZ
	jmp	___CxxFrameHandler3
text$x	ENDS
??1D3DTech_decal_distort@Ogre@@UAE@XZ ENDP		; Ogre::D3DTech_decal_distort::~D3DTech_decal_distort
PUBLIC	??_7D3DTech_footprint_lod0@Ogre@@6B@		; Ogre::D3DTech_footprint_lod0::`vftable'
PUBLIC	??_R4D3DTech_footprint_lod0@Ogre@@6B@		; Ogre::D3DTech_footprint_lod0::`RTTI Complete Object Locator'
PUBLIC	??_R0?AVD3DTech_footprint_lod0@Ogre@@@8		; Ogre::D3DTech_footprint_lod0 `RTTI Type Descriptor'
PUBLIC	??_R3D3DTech_footprint_lod0@Ogre@@8		; Ogre::D3DTech_footprint_lod0::`RTTI Class Hierarchy Descriptor'
PUBLIC	??_R2D3DTech_footprint_lod0@Ogre@@8		; Ogre::D3DTech_footprint_lod0::`RTTI Base Class Array'
PUBLIC	??_R1A@?0A@EA@D3DTech_footprint_lod0@Ogre@@8	; Ogre::D3DTech_footprint_lod0::`RTTI Base Class Descriptor at (0,-1,0,64)'
PUBLIC	?beginPass@D3DTech_footprint_lod0@Ogre@@UAEXI@Z	; Ogre::D3DTech_footprint_lod0::beginPass
PUBLIC	?endPass@D3DTech_footprint_lod0@Ogre@@UAEXXZ	; Ogre::D3DTech_footprint_lod0::endPass
PUBLIC	?clone@D3DTech_footprint_lod0@Ogre@@UAEPAVD3DTech@2@XZ ; Ogre::D3DTech_footprint_lod0::clone
PUBLIC	?init@D3DTech_footprint_lod0@Ogre@@UAEXABUShaderEnvFlags@2@ABUMaterialMacro@2@@Z ; Ogre::D3DTech_footprint_lod0::init
EXTRN	??_ED3DTech_footprint_lod0@Ogre@@UAEPAXI@Z:PROC	; Ogre::D3DTech_footprint_lod0::`vector deleting destructor'
;	COMDAT ??_R1A@?0A@EA@D3DTech_footprint_lod0@Ogre@@8
rdata$r	SEGMENT
??_R1A@?0A@EA@D3DTech_footprint_lod0@Ogre@@8 DD FLAT:??_R0?AVD3DTech_footprint_lod0@Ogre@@@8 ; Ogre::D3DTech_footprint_lod0::`RTTI Base Class Descriptor at (0,-1,0,64)'
	DD	02H
	DD	00H
	DD	0ffffffffH
	DD	00H
	DD	040H
	DD	FLAT:??_R3D3DTech_footprint_lod0@Ogre@@8
rdata$r	ENDS
;	COMDAT ??_R2D3DTech_footprint_lod0@Ogre@@8
rdata$r	SEGMENT
??_R2D3DTech_footprint_lod0@Ogre@@8 DD FLAT:??_R1A@?0A@EA@D3DTech_footprint_lod0@Ogre@@8 ; Ogre::D3DTech_footprint_lod0::`RTTI Base Class Array'
	DD	FLAT:??_R1A@?0A@EA@D3DTech@Ogre@@8
	DD	FLAT:??_R1A@?0A@EA@ShaderTechnique@Ogre@@8
rdata$r	ENDS
;	COMDAT ??_R3D3DTech_footprint_lod0@Ogre@@8
rdata$r	SEGMENT
??_R3D3DTech_footprint_lod0@Ogre@@8 DD 00H		; Ogre::D3DTech_footprint_lod0::`RTTI Class Hierarchy Descriptor'
	DD	00H
	DD	03H
	DD	FLAT:??_R2D3DTech_footprint_lod0@Ogre@@8
rdata$r	ENDS
;	COMDAT ??_R0?AVD3DTech_footprint_lod0@Ogre@@@8
_DATA	SEGMENT
??_R0?AVD3DTech_footprint_lod0@Ogre@@@8 DD FLAT:??_7type_info@@6B@ ; Ogre::D3DTech_footprint_lod0 `RTTI Type Descriptor'
	DD	00H
	DB	'.?AVD3DTech_footprint_lod0@Ogre@@', 00H
_DATA	ENDS
;	COMDAT ??_R4D3DTech_footprint_lod0@Ogre@@6B@
rdata$r	SEGMENT
??_R4D3DTech_footprint_lod0@Ogre@@6B@ DD 00H		; Ogre::D3DTech_footprint_lod0::`RTTI Complete Object Locator'
	DD	00H
	DD	00H
	DD	FLAT:??_R0?AVD3DTech_footprint_lod0@Ogre@@@8
	DD	FLAT:??_R3D3DTech_footprint_lod0@Ogre@@8
rdata$r	ENDS
;	COMDAT ??_7D3DTech_footprint_lod0@Ogre@@6B@
CONST	SEGMENT
??_7D3DTech_footprint_lod0@Ogre@@6B@ DD FLAT:??_R4D3DTech_footprint_lod0@Ogre@@6B@ ; Ogre::D3DTech_footprint_lod0::`vftable'
	DD	FLAT:?begin@D3DTech@Ogre@@UAEIXZ
	DD	FLAT:?end@D3DTech@Ogre@@UAEXXZ
	DD	FLAT:?beginPass@D3DTech_footprint_lod0@Ogre@@UAEXI@Z
	DD	FLAT:?endPass@D3DTech_footprint_lod0@Ogre@@UAEXXZ
	DD	FLAT:?setConstant@D3DTech@Ogre@@UAEXW4ShaderParamUsage@2@PBXI@Z
	DD	FLAT:?setConstant@D3DTech@Ogre@@UAEXPBDPBXI@Z
	DD	FLAT:?setTexture@D3DTech@Ogre@@UAEXW4ShaderParamUsage@2@PAVHardwarePixelBuffer@2@@Z
	DD	FLAT:?setTexture@D3DTech@Ogre@@UAEXPBDPAVHardwarePixelBuffer@2@@Z
	DD	FLAT:?setStreamInput@D3DTech@Ogre@@UAEXIPAPAVHardwareVertexBuffer@2@HPAI@Z
	DD	FLAT:?setStreamInput@D3DTech@Ogre@@UAEXIPAVHardwareVertexBuffer@2@I@Z
	DD	FLAT:?setStreamInput@D3DTech@Ogre@@UAEXIPAPAVHardwareVertexBuffer@2@PAI@Z
	DD	FLAT:?commitChanges@D3DTech@Ogre@@UAEXXZ
	DD	FLAT:?draw@D3DTech@Ogre@@UAEXW4PrimitiveType@2@IIPAVHardwareIndexBuffer@2@II@Z
	DD	FLAT:?draw@D3DTech@Ogre@@UAEXW4PrimitiveType@2@II@Z
	DD	FLAT:?getRequiredParams@D3DTech@Ogre@@UAEIPAW4ShaderParamUsage@2@I@Z
	DD	FLAT:??_ED3DTech_footprint_lod0@Ogre@@UAEPAXI@Z
	DD	FLAT:?clone@D3DTech_footprint_lod0@Ogre@@UAEPAVD3DTech@2@XZ
	DD	FLAT:?init@D3DTech_footprint_lod0@Ogre@@UAEXABUShaderEnvFlags@2@ABUMaterialMacro@2@@Z
CONST	ENDS
;	COMDAT xdata$x
xdata$x	SEGMENT
__unwindtable$??0D3DTech_footprint_lod0@Ogre@@QAE@XZ DD 0ffffffffH
	DD	FLAT:__unwindfunclet$??0D3DTech_footprint_lod0@Ogre@@QAE@XZ$0
__ehfuncinfo$??0D3DTech_footprint_lod0@Ogre@@QAE@XZ DD 019930522H
	DD	01H
	DD	FLAT:__unwindtable$??0D3DTech_footprint_lod0@Ogre@@QAE@XZ
	DD	2 DUP(00H)
	DD	2 DUP(00H)
	DD	00H
	DD	00H
; Function compile flags: /Odtp
xdata$x	ENDS
;	COMDAT ??0D3DTech_footprint_lod0@Ogre@@QAE@XZ
_TEXT	SEGMENT
_this$ = -16						; size = 4
__$EHRec$ = -12						; size = 12
??0D3DTech_footprint_lod0@Ogre@@QAE@XZ PROC		; Ogre::D3DTech_footprint_lod0::D3DTech_footprint_lod0, COMDAT
; _this$ = ecx
	push	ebp
	mov	ebp, esp
	push	-1
	push	__ehhandler$??0D3DTech_footprint_lod0@Ogre@@QAE@XZ
	mov	eax, DWORD PTR fs:0
	push	eax
	push	ecx
	mov	eax, DWORD PTR ___security_cookie
	xor	eax, ebp
	push	eax
	lea	eax, DWORD PTR __$EHRec$[ebp]
	mov	DWORD PTR fs:0, eax
	mov	DWORD PTR _this$[ebp], ecx
	mov	ecx, DWORD PTR _this$[ebp]
	call	??0D3DTech@Ogre@@QAE@XZ			; Ogre::D3DTech::D3DTech
	mov	DWORD PTR __$EHRec$[ebp+8], 0
	mov	eax, DWORD PTR _this$[ebp]
	mov	DWORD PTR [eax], OFFSET ??_7D3DTech_footprint_lod0@Ogre@@6B@
	mov	DWORD PTR __$EHRec$[ebp+8], -1
	mov	eax, DWORD PTR _this$[ebp]
	mov	ecx, DWORD PTR __$EHRec$[ebp]
	mov	DWORD PTR fs:0, ecx
	pop	ecx
	mov	esp, ebp
	pop	ebp
	ret	0
_TEXT	ENDS
;	COMDAT text$x
text$x	SEGMENT
__unwindfunclet$??0D3DTech_footprint_lod0@Ogre@@QAE@XZ$0:
	mov	ecx, DWORD PTR _this$[ebp]
	jmp	??1D3DTech@Ogre@@UAE@XZ
__ehhandler$??0D3DTech_footprint_lod0@Ogre@@QAE@XZ:
	mov	edx, DWORD PTR [esp+8]
	lea	eax, DWORD PTR [edx+12]
	mov	ecx, DWORD PTR [edx-8]
	xor	ecx, eax
	call	@__security_check_cookie@4
	mov	eax, OFFSET __ehfuncinfo$??0D3DTech_footprint_lod0@Ogre@@QAE@XZ
	jmp	___CxxFrameHandler3
text$x	ENDS
??0D3DTech_footprint_lod0@Ogre@@QAE@XZ ENDP		; Ogre::D3DTech_footprint_lod0::D3DTech_footprint_lod0
;	COMDAT xdata$x
; File i:\svnroot\client\plugins\rendersystem_d3d9\ogred3d9tech_footprint.h
xdata$x	SEGMENT
__unwindtable$?clone@D3DTech_footprint_lod0@Ogre@@UAEPAVD3DTech@2@XZ DD 0ffffffffH
	DD	FLAT:__unwindfunclet$?clone@D3DTech_footprint_lod0@Ogre@@UAEPAVD3DTech@2@XZ$0
__ehfuncinfo$?clone@D3DTech_footprint_lod0@Ogre@@UAEPAVD3DTech@2@XZ DD 019930522H
	DD	01H
	DD	FLAT:__unwindtable$?clone@D3DTech_footprint_lod0@Ogre@@UAEPAVD3DTech@2@XZ
	DD	2 DUP(00H)
	DD	2 DUP(00H)
	DD	00H
	DD	00H
; Function compile flags: /Odtp
xdata$x	ENDS
;	COMDAT ?clone@D3DTech_footprint_lod0@Ogre@@UAEPAVD3DTech@2@XZ
_TEXT	SEGMENT
tv74 = -28						; size = 4
_this$ = -24						; size = 4
$T140506 = -20						; size = 4
$T140505 = -16						; size = 4
__$EHRec$ = -12						; size = 12
?clone@D3DTech_footprint_lod0@Ogre@@UAEPAVD3DTech@2@XZ PROC ; Ogre::D3DTech_footprint_lod0::clone, COMDAT
; _this$ = ecx

; 13   : 		{

	push	ebp
	mov	ebp, esp
	push	-1
	push	__ehhandler$?clone@D3DTech_footprint_lod0@Ogre@@UAEPAVD3DTech@2@XZ
	mov	eax, DWORD PTR fs:0
	push	eax
	sub	esp, 16					; 00000010H
	mov	eax, DWORD PTR ___security_cookie
	xor	eax, ebp
	push	eax
	lea	eax, DWORD PTR __$EHRec$[ebp]
	mov	DWORD PTR fs:0, eax
	mov	DWORD PTR _this$[ebp], ecx

; 14   : 			return new D3DTech_footprint_lod0;

	push	392					; 00000188H
	call	??2@YAPAXI@Z				; operator new
	add	esp, 4
	mov	DWORD PTR $T140506[ebp], eax
	mov	DWORD PTR __$EHRec$[ebp+8], 0
	cmp	DWORD PTR $T140506[ebp], 0
	je	SHORT $LN3@clone@26
	mov	ecx, DWORD PTR $T140506[ebp]
	call	??0D3DTech_footprint_lod0@Ogre@@QAE@XZ
	mov	DWORD PTR tv74[ebp], eax
	jmp	SHORT $LN4@clone@26
$LN3@clone@26:
	mov	DWORD PTR tv74[ebp], 0
$LN4@clone@26:
	mov	eax, DWORD PTR tv74[ebp]
	mov	DWORD PTR $T140505[ebp], eax
	mov	DWORD PTR __$EHRec$[ebp+8], -1
	mov	eax, DWORD PTR $T140505[ebp]

; 15   : 		}

	mov	ecx, DWORD PTR __$EHRec$[ebp]
	mov	DWORD PTR fs:0, ecx
	pop	ecx
	mov	esp, ebp
	pop	ebp
	ret	0
_TEXT	ENDS
;	COMDAT text$x
text$x	SEGMENT
__unwindfunclet$?clone@D3DTech_footprint_lod0@Ogre@@UAEPAVD3DTech@2@XZ$0:
	mov	eax, DWORD PTR $T140506[ebp]
	push	eax
	call	??3@YAXPAX@Z				; operator delete
	pop	ecx
	ret	0
__ehhandler$?clone@D3DTech_footprint_lod0@Ogre@@UAEPAVD3DTech@2@XZ:
	mov	edx, DWORD PTR [esp+8]
	lea	eax, DWORD PTR [edx+12]
	mov	ecx, DWORD PTR [edx-20]
	xor	ecx, eax
	call	@__security_check_cookie@4
	mov	eax, OFFSET __ehfuncinfo$?clone@D3DTech_footprint_lod0@Ogre@@UAEPAVD3DTech@2@XZ
	jmp	___CxxFrameHandler3
text$x	ENDS
?clone@D3DTech_footprint_lod0@Ogre@@UAEPAVD3DTech@2@XZ ENDP ; Ogre::D3DTech_footprint_lod0::clone
; Function compile flags: /Odtp
;	COMDAT ?init@D3DTech_footprint_lod0@Ogre@@UAEXABUShaderEnvFlags@2@ABUMaterialMacro@2@@Z
_TEXT	SEGMENT
_this$ = -4						; size = 4
_env$ = 8						; size = 4
_macros$ = 12						; size = 4
?init@D3DTech_footprint_lod0@Ogre@@UAEXABUShaderEnvFlags@2@ABUMaterialMacro@2@@Z PROC ; Ogre::D3DTech_footprint_lod0::init, COMDAT
; _this$ = ecx

; 18   : 		{

	push	ebp
	mov	ebp, esp
	push	ecx
	mov	DWORD PTR _this$[ebp], ecx

; 19   : 			m_nPass = 1;

	mov	eax, DWORD PTR _this$[ebp]
	mov	DWORD PTR [eax+188], 1

; 20   : 			m_AllPass[0].vs = m_pMtlTemplate->getCompiledVSPS(COMPILED_VS, "Main", env, macros);

	mov	ecx, DWORD PTR _macros$[ebp]
	push	ecx
	mov	edx, DWORD PTR _env$[ebp]
	push	edx
	push	OFFSET ??_C@_04KGFMLCPK@Main?$AA@
	push	1
	mov	eax, DWORD PTR _this$[ebp]
	mov	ecx, DWORD PTR [eax+8]
	call	?getCompiledVSPS@D3DMaterialTemplate@Ogre@@QAEPAVCompiledShader@2@W4COMPILED_TYPE@2@PBDABUShaderEnvFlags@2@ABUMaterialMacro@2@@Z ; Ogre::D3DMaterialTemplate::getCompiledVSPS
	mov	ecx, DWORD PTR _this$[ebp]
	mov	DWORD PTR [ecx+12], eax

; 21   : 			m_AllPass[0].ps = m_pMtlTemplate->getCompiledVSPS(COMPILED_PS, "Main", env, macros);

	mov	edx, DWORD PTR _macros$[ebp]
	push	edx
	mov	eax, DWORD PTR _env$[ebp]
	push	eax
	push	OFFSET ??_C@_04KGFMLCPK@Main?$AA@
	push	2
	mov	ecx, DWORD PTR _this$[ebp]
	mov	ecx, DWORD PTR [ecx+8]
	call	?getCompiledVSPS@D3DMaterialTemplate@Ogre@@QAEPAVCompiledShader@2@W4COMPILED_TYPE@2@PBDABUShaderEnvFlags@2@ABUMaterialMacro@2@@Z ; Ogre::D3DMaterialTemplate::getCompiledVSPS
	mov	edx, DWORD PTR _this$[ebp]
	mov	DWORD PTR [edx+16], eax

; 22   : 
; 23   : 			m_AllPass[0].ntex = 1;

	mov	eax, DWORD PTR _this$[ebp]
	mov	DWORD PTR [eax+20], 1

; 24   : 			m_AllPass[0].texstage[0] = SPU_GENERAL_PARAM + 0; //diffusetex

	mov	ecx, DWORD PTR _this$[ebp]
	mov	DWORD PTR [ecx+24], 1000		; 000003e8H

; 25   : 
; 26   : 			initParams();

	mov	ecx, DWORD PTR _this$[ebp]
	call	?initParams@D3DTech@Ogre@@IAEXXZ	; Ogre::D3DTech::initParams

; 27   : 			m_UsedMacroMask = 0;

	mov	edx, DWORD PTR _this$[ebp]
	mov	DWORD PTR [edx+4], 0

; 28   : 		}

	mov	esp, ebp
	pop	ebp
	ret	8
?init@D3DTech_footprint_lod0@Ogre@@UAEXABUShaderEnvFlags@2@ABUMaterialMacro@2@@Z ENDP ; Ogre::D3DTech_footprint_lod0::init
; Function compile flags: /Odtp
_TEXT	ENDS
;	COMDAT ?beginPass@D3DTech_footprint_lod0@Ogre@@UAEXI@Z
_TEXT	SEGMENT
_this$ = -4						; size = 4
_ipass$ = 8						; size = 4
?beginPass@D3DTech_footprint_lod0@Ogre@@UAEXI@Z PROC	; Ogre::D3DTech_footprint_lod0::beginPass, COMDAT
; _this$ = ecx

; 31   : 		{

	push	ebp
	mov	ebp, esp
	push	ecx
	mov	DWORD PTR _this$[ebp], ecx

; 32   : 			m_CurPass = ipass;

	mov	eax, DWORD PTR _this$[ebp]
	mov	ecx, DWORD PTR _ipass$[ebp]
	mov	DWORD PTR [eax+192], ecx

; 33   : 
; 34   : 			SetBlendState(m_pDevice, BLEND_MODULATE);

	push	-1
	push	5
	mov	edx, DWORD PTR ?m_pDevice@D3DTech@Ogre@@2PAUIDirect3DDevice9@@A ; Ogre::D3DTech::m_pDevice
	push	edx
	call	?SetBlendState@Ogre@@YAXPAUIDirect3DDevice9@@HH@Z ; Ogre::SetBlendState
	add	esp, 12					; 0000000cH

; 35   : 			m_pDevice->SetRenderState(D3DRS_CULLMODE, D3DCULL_NONE);

	push	1
	push	22					; 00000016H
	mov	eax, DWORD PTR ?m_pDevice@D3DTech@Ogre@@2PAUIDirect3DDevice9@@A ; Ogre::D3DTech::m_pDevice
	mov	ecx, DWORD PTR [eax]
	mov	edx, DWORD PTR ?m_pDevice@D3DTech@Ogre@@2PAUIDirect3DDevice9@@A ; Ogre::D3DTech::m_pDevice
	push	edx
	mov	eax, DWORD PTR [ecx+228]
	call	eax

; 36   : 			m_pDevice->SetRenderState(D3DRS_ZWRITEENABLE, FALSE);

	push	0
	push	14					; 0000000eH
	mov	ecx, DWORD PTR ?m_pDevice@D3DTech@Ogre@@2PAUIDirect3DDevice9@@A ; Ogre::D3DTech::m_pDevice
	mov	edx, DWORD PTR [ecx]
	mov	eax, DWORD PTR ?m_pDevice@D3DTech@Ogre@@2PAUIDirect3DDevice9@@A ; Ogre::D3DTech::m_pDevice
	push	eax
	mov	ecx, DWORD PTR [edx+228]
	call	ecx

; 37   : 
; 38   : 			SamplerState_Clamp(m_pDevice, 0);

	push	0
	mov	edx, DWORD PTR ?m_pDevice@D3DTech@Ogre@@2PAUIDirect3DDevice9@@A ; Ogre::D3DTech::m_pDevice
	push	edx
	call	?SamplerState_Clamp@Ogre@@YAXPAUIDirect3DDevice9@@H@Z ; Ogre::SamplerState_Clamp
	add	esp, 8

; 39   : 
; 40   : 			applyVSPS(m_CurPass);

	mov	eax, DWORD PTR _this$[ebp]
	mov	ecx, DWORD PTR [eax+192]
	push	ecx
	mov	ecx, DWORD PTR _this$[ebp]
	call	?applyVSPS@D3DTech@Ogre@@IAEXI@Z	; Ogre::D3DTech::applyVSPS

; 41   : 		}

	mov	esp, ebp
	pop	ebp
	ret	4
?beginPass@D3DTech_footprint_lod0@Ogre@@UAEXI@Z ENDP	; Ogre::D3DTech_footprint_lod0::beginPass
; Function compile flags: /Odtp
_TEXT	ENDS
;	COMDAT ?endPass@D3DTech_footprint_lod0@Ogre@@UAEXXZ
_TEXT	SEGMENT
_this$ = -4						; size = 4
?endPass@D3DTech_footprint_lod0@Ogre@@UAEXXZ PROC	; Ogre::D3DTech_footprint_lod0::endPass, COMDAT
; _this$ = ecx

; 44   : 		{

	push	ebp
	mov	ebp, esp
	push	ecx
	mov	DWORD PTR _this$[ebp], ecx

; 45   : 			m_pDevice->SetRenderState(D3DRS_ZWRITEENABLE, TRUE);

	push	1
	push	14					; 0000000eH
	mov	eax, DWORD PTR ?m_pDevice@D3DTech@Ogre@@2PAUIDirect3DDevice9@@A ; Ogre::D3DTech::m_pDevice
	mov	ecx, DWORD PTR [eax]
	mov	edx, DWORD PTR ?m_pDevice@D3DTech@Ogre@@2PAUIDirect3DDevice9@@A ; Ogre::D3DTech::m_pDevice
	push	edx
	mov	eax, DWORD PTR [ecx+228]
	call	eax

; 46   : 		}

	mov	esp, ebp
	pop	ebp
	ret	0
?endPass@D3DTech_footprint_lod0@Ogre@@UAEXXZ ENDP	; Ogre::D3DTech_footprint_lod0::endPass
_TEXT	ENDS
PUBLIC	??1D3DTech_footprint_lod0@Ogre@@UAE@XZ		; Ogre::D3DTech_footprint_lod0::~D3DTech_footprint_lod0
; Function compile flags: /Odtp
;	COMDAT ??_GD3DTech_footprint_lod0@Ogre@@UAEPAXI@Z
_TEXT	SEGMENT
_this$ = -4						; size = 4
___flags$ = 8						; size = 4
??_GD3DTech_footprint_lod0@Ogre@@UAEPAXI@Z PROC		; Ogre::D3DTech_footprint_lod0::`scalar deleting destructor', COMDAT
; _this$ = ecx
	push	ebp
	mov	ebp, esp
	push	ecx
	mov	DWORD PTR _this$[ebp], ecx
	mov	ecx, DWORD PTR _this$[ebp]
	call	??1D3DTech_footprint_lod0@Ogre@@UAE@XZ
	mov	eax, DWORD PTR ___flags$[ebp]
	and	eax, 1
	je	SHORT $LN1@scalar@27
	mov	ecx, DWORD PTR _this$[ebp]
	push	ecx
	call	??3@YAXPAX@Z				; operator delete
	add	esp, 4
$LN1@scalar@27:
	mov	eax, DWORD PTR _this$[ebp]
	mov	esp, ebp
	pop	ebp
	ret	4
??_GD3DTech_footprint_lod0@Ogre@@UAEPAXI@Z ENDP		; Ogre::D3DTech_footprint_lod0::`scalar deleting destructor'
_TEXT	ENDS
;	COMDAT xdata$x
xdata$x	SEGMENT
__unwindtable$??1D3DTech_footprint_lod0@Ogre@@UAE@XZ DD 0ffffffffH
	DD	FLAT:__unwindfunclet$??1D3DTech_footprint_lod0@Ogre@@UAE@XZ$0
__ehfuncinfo$??1D3DTech_footprint_lod0@Ogre@@UAE@XZ DD 019930522H
	DD	01H
	DD	FLAT:__unwindtable$??1D3DTech_footprint_lod0@Ogre@@UAE@XZ
	DD	2 DUP(00H)
	DD	2 DUP(00H)
	DD	00H
	DD	00H
; Function compile flags: /Odtp
xdata$x	ENDS
;	COMDAT ??1D3DTech_footprint_lod0@Ogre@@UAE@XZ
_TEXT	SEGMENT
_this$ = -16						; size = 4
__$EHRec$ = -12						; size = 12
??1D3DTech_footprint_lod0@Ogre@@UAE@XZ PROC		; Ogre::D3DTech_footprint_lod0::~D3DTech_footprint_lod0, COMDAT
; _this$ = ecx
	push	ebp
	mov	ebp, esp
	push	-1
	push	__ehhandler$??1D3DTech_footprint_lod0@Ogre@@UAE@XZ
	mov	eax, DWORD PTR fs:0
	push	eax
	push	ecx
	mov	eax, DWORD PTR ___security_cookie
	xor	eax, ebp
	push	eax
	lea	eax, DWORD PTR __$EHRec$[ebp]
	mov	DWORD PTR fs:0, eax
	mov	DWORD PTR _this$[ebp], ecx
	mov	DWORD PTR __$EHRec$[ebp+8], 0
	mov	DWORD PTR __$EHRec$[ebp+8], -1
	mov	ecx, DWORD PTR _this$[ebp]
	call	??1D3DTech@Ogre@@UAE@XZ
	mov	ecx, DWORD PTR __$EHRec$[ebp]
	mov	DWORD PTR fs:0, ecx
	pop	ecx
	mov	esp, ebp
	pop	ebp
	ret	0
_TEXT	ENDS
;	COMDAT text$x
text$x	SEGMENT
__unwindfunclet$??1D3DTech_footprint_lod0@Ogre@@UAE@XZ$0:
	mov	ecx, DWORD PTR _this$[ebp]
	jmp	??1D3DTech@Ogre@@UAE@XZ
__ehhandler$??1D3DTech_footprint_lod0@Ogre@@UAE@XZ:
	mov	edx, DWORD PTR [esp+8]
	lea	eax, DWORD PTR [edx+12]
	mov	ecx, DWORD PTR [edx-8]
	xor	ecx, eax
	call	@__security_check_cookie@4
	mov	eax, OFFSET __ehfuncinfo$??1D3DTech_footprint_lod0@Ogre@@UAE@XZ
	jmp	___CxxFrameHandler3
text$x	ENDS
??1D3DTech_footprint_lod0@Ogre@@UAE@XZ ENDP		; Ogre::D3DTech_footprint_lod0::~D3DTech_footprint_lod0
PUBLIC	??_7D3DTech_distort_lod0@Ogre@@6B@		; Ogre::D3DTech_distort_lod0::`vftable'
PUBLIC	??_R4D3DTech_distort_lod0@Ogre@@6B@		; Ogre::D3DTech_distort_lod0::`RTTI Complete Object Locator'
PUBLIC	??_R0?AVD3DTech_distort_lod0@Ogre@@@8		; Ogre::D3DTech_distort_lod0 `RTTI Type Descriptor'
PUBLIC	??_R3D3DTech_distort_lod0@Ogre@@8		; Ogre::D3DTech_distort_lod0::`RTTI Class Hierarchy Descriptor'
PUBLIC	??_R2D3DTech_distort_lod0@Ogre@@8		; Ogre::D3DTech_distort_lod0::`RTTI Base Class Array'
PUBLIC	??_R1A@?0A@EA@D3DTech_distort_lod0@Ogre@@8	; Ogre::D3DTech_distort_lod0::`RTTI Base Class Descriptor at (0,-1,0,64)'
PUBLIC	?beginPass@D3DTech_distort_lod0@Ogre@@UAEXI@Z	; Ogre::D3DTech_distort_lod0::beginPass
PUBLIC	?endPass@D3DTech_distort_lod0@Ogre@@UAEXXZ	; Ogre::D3DTech_distort_lod0::endPass
PUBLIC	?clone@D3DTech_distort_lod0@Ogre@@UAEPAVD3DTech@2@XZ ; Ogre::D3DTech_distort_lod0::clone
PUBLIC	?init@D3DTech_distort_lod0@Ogre@@UAEXABUShaderEnvFlags@2@ABUMaterialMacro@2@@Z ; Ogre::D3DTech_distort_lod0::init
EXTRN	??_ED3DTech_distort_lod0@Ogre@@UAEPAXI@Z:PROC	; Ogre::D3DTech_distort_lod0::`vector deleting destructor'
;	COMDAT ??_R1A@?0A@EA@D3DTech_distort_lod0@Ogre@@8
rdata$r	SEGMENT
??_R1A@?0A@EA@D3DTech_distort_lod0@Ogre@@8 DD FLAT:??_R0?AVD3DTech_distort_lod0@Ogre@@@8 ; Ogre::D3DTech_distort_lod0::`RTTI Base Class Descriptor at (0,-1,0,64)'
	DD	02H
	DD	00H
	DD	0ffffffffH
	DD	00H
	DD	040H
	DD	FLAT:??_R3D3DTech_distort_lod0@Ogre@@8
rdata$r	ENDS
;	COMDAT ??_R2D3DTech_distort_lod0@Ogre@@8
rdata$r	SEGMENT
??_R2D3DTech_distort_lod0@Ogre@@8 DD FLAT:??_R1A@?0A@EA@D3DTech_distort_lod0@Ogre@@8 ; Ogre::D3DTech_distort_lod0::`RTTI Base Class Array'
	DD	FLAT:??_R1A@?0A@EA@D3DTech@Ogre@@8
	DD	FLAT:??_R1A@?0A@EA@ShaderTechnique@Ogre@@8
rdata$r	ENDS
;	COMDAT ??_R3D3DTech_distort_lod0@Ogre@@8
rdata$r	SEGMENT
??_R3D3DTech_distort_lod0@Ogre@@8 DD 00H		; Ogre::D3DTech_distort_lod0::`RTTI Class Hierarchy Descriptor'
	DD	00H
	DD	03H
	DD	FLAT:??_R2D3DTech_distort_lod0@Ogre@@8
rdata$r	ENDS
;	COMDAT ??_R0?AVD3DTech_distort_lod0@Ogre@@@8
_DATA	SEGMENT
??_R0?AVD3DTech_distort_lod0@Ogre@@@8 DD FLAT:??_7type_info@@6B@ ; Ogre::D3DTech_distort_lod0 `RTTI Type Descriptor'
	DD	00H
	DB	'.?AVD3DTech_distort_lod0@Ogre@@', 00H
_DATA	ENDS
;	COMDAT ??_R4D3DTech_distort_lod0@Ogre@@6B@
rdata$r	SEGMENT
??_R4D3DTech_distort_lod0@Ogre@@6B@ DD 00H		; Ogre::D3DTech_distort_lod0::`RTTI Complete Object Locator'
	DD	00H
	DD	00H
	DD	FLAT:??_R0?AVD3DTech_distort_lod0@Ogre@@@8
	DD	FLAT:??_R3D3DTech_distort_lod0@Ogre@@8
rdata$r	ENDS
;	COMDAT ??_7D3DTech_distort_lod0@Ogre@@6B@
CONST	SEGMENT
??_7D3DTech_distort_lod0@Ogre@@6B@ DD FLAT:??_R4D3DTech_distort_lod0@Ogre@@6B@ ; Ogre::D3DTech_distort_lod0::`vftable'
	DD	FLAT:?begin@D3DTech@Ogre@@UAEIXZ
	DD	FLAT:?end@D3DTech@Ogre@@UAEXXZ
	DD	FLAT:?beginPass@D3DTech_distort_lod0@Ogre@@UAEXI@Z
	DD	FLAT:?endPass@D3DTech_distort_lod0@Ogre@@UAEXXZ
	DD	FLAT:?setConstant@D3DTech@Ogre@@UAEXW4ShaderParamUsage@2@PBXI@Z
	DD	FLAT:?setConstant@D3DTech@Ogre@@UAEXPBDPBXI@Z
	DD	FLAT:?setTexture@D3DTech@Ogre@@UAEXW4ShaderParamUsage@2@PAVHardwarePixelBuffer@2@@Z
	DD	FLAT:?setTexture@D3DTech@Ogre@@UAEXPBDPAVHardwarePixelBuffer@2@@Z
	DD	FLAT:?setStreamInput@D3DTech@Ogre@@UAEXIPAPAVHardwareVertexBuffer@2@HPAI@Z
	DD	FLAT:?setStreamInput@D3DTech@Ogre@@UAEXIPAVHardwareVertexBuffer@2@I@Z
	DD	FLAT:?setStreamInput@D3DTech@Ogre@@UAEXIPAPAVHardwareVertexBuffer@2@PAI@Z
	DD	FLAT:?commitChanges@D3DTech@Ogre@@UAEXXZ
	DD	FLAT:?draw@D3DTech@Ogre@@UAEXW4PrimitiveType@2@IIPAVHardwareIndexBuffer@2@II@Z
	DD	FLAT:?draw@D3DTech@Ogre@@UAEXW4PrimitiveType@2@II@Z
	DD	FLAT:?getRequiredParams@D3DTech@Ogre@@UAEIPAW4ShaderParamUsage@2@I@Z
	DD	FLAT:??_ED3DTech_distort_lod0@Ogre@@UAEPAXI@Z
	DD	FLAT:?clone@D3DTech_distort_lod0@Ogre@@UAEPAVD3DTech@2@XZ
	DD	FLAT:?init@D3DTech_distort_lod0@Ogre@@UAEXABUShaderEnvFlags@2@ABUMaterialMacro@2@@Z
CONST	ENDS
;	COMDAT xdata$x
xdata$x	SEGMENT
__unwindtable$??0D3DTech_distort_lod0@Ogre@@QAE@XZ DD 0ffffffffH
	DD	FLAT:__unwindfunclet$??0D3DTech_distort_lod0@Ogre@@QAE@XZ$0
__ehfuncinfo$??0D3DTech_distort_lod0@Ogre@@QAE@XZ DD 019930522H
	DD	01H
	DD	FLAT:__unwindtable$??0D3DTech_distort_lod0@Ogre@@QAE@XZ
	DD	2 DUP(00H)
	DD	2 DUP(00H)
	DD	00H
	DD	00H
; Function compile flags: /Odtp
xdata$x	ENDS
;	COMDAT ??0D3DTech_distort_lod0@Ogre@@QAE@XZ
_TEXT	SEGMENT
_this$ = -16						; size = 4
__$EHRec$ = -12						; size = 12
??0D3DTech_distort_lod0@Ogre@@QAE@XZ PROC		; Ogre::D3DTech_distort_lod0::D3DTech_distort_lod0, COMDAT
; _this$ = ecx
	push	ebp
	mov	ebp, esp
	push	-1
	push	__ehhandler$??0D3DTech_distort_lod0@Ogre@@QAE@XZ
	mov	eax, DWORD PTR fs:0
	push	eax
	push	ecx
	mov	eax, DWORD PTR ___security_cookie
	xor	eax, ebp
	push	eax
	lea	eax, DWORD PTR __$EHRec$[ebp]
	mov	DWORD PTR fs:0, eax
	mov	DWORD PTR _this$[ebp], ecx
	mov	ecx, DWORD PTR _this$[ebp]
	call	??0D3DTech@Ogre@@QAE@XZ			; Ogre::D3DTech::D3DTech
	mov	DWORD PTR __$EHRec$[ebp+8], 0
	mov	eax, DWORD PTR _this$[ebp]
	mov	DWORD PTR [eax], OFFSET ??_7D3DTech_distort_lod0@Ogre@@6B@
	mov	DWORD PTR __$EHRec$[ebp+8], -1
	mov	eax, DWORD PTR _this$[ebp]
	mov	ecx, DWORD PTR __$EHRec$[ebp]
	mov	DWORD PTR fs:0, ecx
	pop	ecx
	mov	esp, ebp
	pop	ebp
	ret	0
_TEXT	ENDS
;	COMDAT text$x
text$x	SEGMENT
__unwindfunclet$??0D3DTech_distort_lod0@Ogre@@QAE@XZ$0:
	mov	ecx, DWORD PTR _this$[ebp]
	jmp	??1D3DTech@Ogre@@UAE@XZ
__ehhandler$??0D3DTech_distort_lod0@Ogre@@QAE@XZ:
	mov	edx, DWORD PTR [esp+8]
	lea	eax, DWORD PTR [edx+12]
	mov	ecx, DWORD PTR [edx-8]
	xor	ecx, eax
	call	@__security_check_cookie@4
	mov	eax, OFFSET __ehfuncinfo$??0D3DTech_distort_lod0@Ogre@@QAE@XZ
	jmp	___CxxFrameHandler3
text$x	ENDS
??0D3DTech_distort_lod0@Ogre@@QAE@XZ ENDP		; Ogre::D3DTech_distort_lod0::D3DTech_distort_lod0
;	COMDAT xdata$x
; File i:\svnroot\client\plugins\rendersystem_d3d9\ogred3d9tech_distort.h
xdata$x	SEGMENT
__unwindtable$?clone@D3DTech_distort_lod0@Ogre@@UAEPAVD3DTech@2@XZ DD 0ffffffffH
	DD	FLAT:__unwindfunclet$?clone@D3DTech_distort_lod0@Ogre@@UAEPAVD3DTech@2@XZ$0
__ehfuncinfo$?clone@D3DTech_distort_lod0@Ogre@@UAEPAVD3DTech@2@XZ DD 019930522H
	DD	01H
	DD	FLAT:__unwindtable$?clone@D3DTech_distort_lod0@Ogre@@UAEPAVD3DTech@2@XZ
	DD	2 DUP(00H)
	DD	2 DUP(00H)
	DD	00H
	DD	00H
; Function compile flags: /Odtp
xdata$x	ENDS
;	COMDAT ?clone@D3DTech_distort_lod0@Ogre@@UAEPAVD3DTech@2@XZ
_TEXT	SEGMENT
tv74 = -28						; size = 4
_this$ = -24						; size = 4
$T140545 = -20						; size = 4
$T140544 = -16						; size = 4
__$EHRec$ = -12						; size = 12
?clone@D3DTech_distort_lod0@Ogre@@UAEPAVD3DTech@2@XZ PROC ; Ogre::D3DTech_distort_lod0::clone, COMDAT
; _this$ = ecx

; 13   : 		{

	push	ebp
	mov	ebp, esp
	push	-1
	push	__ehhandler$?clone@D3DTech_distort_lod0@Ogre@@UAEPAVD3DTech@2@XZ
	mov	eax, DWORD PTR fs:0
	push	eax
	sub	esp, 16					; 00000010H
	mov	eax, DWORD PTR ___security_cookie
	xor	eax, ebp
	push	eax
	lea	eax, DWORD PTR __$EHRec$[ebp]
	mov	DWORD PTR fs:0, eax
	mov	DWORD PTR _this$[ebp], ecx

; 14   : 			return new D3DTech_distort_lod0;

	push	392					; 00000188H
	call	??2@YAPAXI@Z				; operator new
	add	esp, 4
	mov	DWORD PTR $T140545[ebp], eax
	mov	DWORD PTR __$EHRec$[ebp+8], 0
	cmp	DWORD PTR $T140545[ebp], 0
	je	SHORT $LN3@clone@27
	mov	ecx, DWORD PTR $T140545[ebp]
	call	??0D3DTech_distort_lod0@Ogre@@QAE@XZ
	mov	DWORD PTR tv74[ebp], eax
	jmp	SHORT $LN4@clone@27
$LN3@clone@27:
	mov	DWORD PTR tv74[ebp], 0
$LN4@clone@27:
	mov	eax, DWORD PTR tv74[ebp]
	mov	DWORD PTR $T140544[ebp], eax
	mov	DWORD PTR __$EHRec$[ebp+8], -1
	mov	eax, DWORD PTR $T140544[ebp]

; 15   : 		}

	mov	ecx, DWORD PTR __$EHRec$[ebp]
	mov	DWORD PTR fs:0, ecx
	pop	ecx
	mov	esp, ebp
	pop	ebp
	ret	0
_TEXT	ENDS
;	COMDAT text$x
text$x	SEGMENT
__unwindfunclet$?clone@D3DTech_distort_lod0@Ogre@@UAEPAVD3DTech@2@XZ$0:
	mov	eax, DWORD PTR $T140545[ebp]
	push	eax
	call	??3@YAXPAX@Z				; operator delete
	pop	ecx
	ret	0
__ehhandler$?clone@D3DTech_distort_lod0@Ogre@@UAEPAVD3DTech@2@XZ:
	mov	edx, DWORD PTR [esp+8]
	lea	eax, DWORD PTR [edx+12]
	mov	ecx, DWORD PTR [edx-20]
	xor	ecx, eax
	call	@__security_check_cookie@4
	mov	eax, OFFSET __ehfuncinfo$?clone@D3DTech_distort_lod0@Ogre@@UAEPAVD3DTech@2@XZ
	jmp	___CxxFrameHandler3
text$x	ENDS
?clone@D3DTech_distort_lod0@Ogre@@UAEPAVD3DTech@2@XZ ENDP ; Ogre::D3DTech_distort_lod0::clone
; Function compile flags: /Odtp
;	COMDAT ?init@D3DTech_distort_lod0@Ogre@@UAEXABUShaderEnvFlags@2@ABUMaterialMacro@2@@Z
_TEXT	SEGMENT
_this$ = -4						; size = 4
_env$ = 8						; size = 4
_macros$ = 12						; size = 4
?init@D3DTech_distort_lod0@Ogre@@UAEXABUShaderEnvFlags@2@ABUMaterialMacro@2@@Z PROC ; Ogre::D3DTech_distort_lod0::init, COMDAT
; _this$ = ecx

; 18   : 		{

	push	ebp
	mov	ebp, esp
	push	ecx
	mov	DWORD PTR _this$[ebp], ecx

; 19   : 			m_nPass = 1;

	mov	eax, DWORD PTR _this$[ebp]
	mov	DWORD PTR [eax+188], 1

; 20   : 			m_AllPass[0].vs = NULL;

	mov	ecx, DWORD PTR _this$[ebp]
	mov	DWORD PTR [ecx+12], 0

; 21   : 			m_AllPass[0].ps = m_pMtlTemplate->getCompiledVSPS(COMPILED_PS, "Main", env, macros);

	mov	edx, DWORD PTR _macros$[ebp]
	push	edx
	mov	eax, DWORD PTR _env$[ebp]
	push	eax
	push	OFFSET ??_C@_04KGFMLCPK@Main?$AA@
	push	2
	mov	ecx, DWORD PTR _this$[ebp]
	mov	ecx, DWORD PTR [ecx+8]
	call	?getCompiledVSPS@D3DMaterialTemplate@Ogre@@QAEPAVCompiledShader@2@W4COMPILED_TYPE@2@PBDABUShaderEnvFlags@2@ABUMaterialMacro@2@@Z ; Ogre::D3DMaterialTemplate::getCompiledVSPS
	mov	edx, DWORD PTR _this$[ebp]
	mov	DWORD PTR [edx+16], eax

; 22   : 
; 23   : 			m_AllPass[0].ntex = 2;

	mov	eax, DWORD PTR _this$[ebp]
	mov	DWORD PTR [eax+20], 2

; 24   : 			m_AllPass[0].texstage[0] = SPU_GENERAL_PARAM + 0; //scenetex

	mov	ecx, DWORD PTR _this$[ebp]
	mov	DWORD PTR [ecx+24], 1000		; 000003e8H

; 25   : 			m_AllPass[0].texstage[1] = SPU_GENERAL_PARAM + 2; //distorttex

	mov	edx, DWORD PTR _this$[ebp]
	mov	DWORD PTR [edx+28], 1002		; 000003eaH

; 26   : 
; 27   : 			initParams();

	mov	ecx, DWORD PTR _this$[ebp]
	call	?initParams@D3DTech@Ogre@@IAEXXZ	; Ogre::D3DTech::initParams

; 28   : 			m_UsedMacroMask = 0;

	mov	eax, DWORD PTR _this$[ebp]
	mov	DWORD PTR [eax+4], 0

; 29   : 		}

	mov	esp, ebp
	pop	ebp
	ret	8
?init@D3DTech_distort_lod0@Ogre@@UAEXABUShaderEnvFlags@2@ABUMaterialMacro@2@@Z ENDP ; Ogre::D3DTech_distort_lod0::init
; Function compile flags: /Odtp
_TEXT	ENDS
;	COMDAT ?beginPass@D3DTech_distort_lod0@Ogre@@UAEXI@Z
_TEXT	SEGMENT
_this$ = -4						; size = 4
_ipass$ = 8						; size = 4
?beginPass@D3DTech_distort_lod0@Ogre@@UAEXI@Z PROC	; Ogre::D3DTech_distort_lod0::beginPass, COMDAT
; _this$ = ecx

; 32   : 		{

	push	ebp
	mov	ebp, esp
	push	ecx
	mov	DWORD PTR _this$[ebp], ecx

; 33   : 			m_CurPass = ipass;

	mov	eax, DWORD PTR _this$[ebp]
	mov	ecx, DWORD PTR _ipass$[ebp]
	mov	DWORD PTR [eax+192], ecx

; 34   : 
; 35   : 			SetBlendState(m_pDevice, BLEND_OPAQUE);

	push	-1
	push	0
	mov	edx, DWORD PTR ?m_pDevice@D3DTech@Ogre@@2PAUIDirect3DDevice9@@A ; Ogre::D3DTech::m_pDevice
	push	edx
	call	?SetBlendState@Ogre@@YAXPAUIDirect3DDevice9@@HH@Z ; Ogre::SetBlendState
	add	esp, 12					; 0000000cH

; 36   : 			m_pDevice->SetRenderState(D3DRS_ZENABLE, FALSE);

	push	0
	push	7
	mov	eax, DWORD PTR ?m_pDevice@D3DTech@Ogre@@2PAUIDirect3DDevice9@@A ; Ogre::D3DTech::m_pDevice
	mov	ecx, DWORD PTR [eax]
	mov	edx, DWORD PTR ?m_pDevice@D3DTech@Ogre@@2PAUIDirect3DDevice9@@A ; Ogre::D3DTech::m_pDevice
	push	edx
	mov	eax, DWORD PTR [ecx+228]
	call	eax

; 37   : 			m_pDevice->SetRenderState(D3DRS_CULLMODE, D3DCULL_NONE);

	push	1
	push	22					; 00000016H
	mov	ecx, DWORD PTR ?m_pDevice@D3DTech@Ogre@@2PAUIDirect3DDevice9@@A ; Ogre::D3DTech::m_pDevice
	mov	edx, DWORD PTR [ecx]
	mov	eax, DWORD PTR ?m_pDevice@D3DTech@Ogre@@2PAUIDirect3DDevice9@@A ; Ogre::D3DTech::m_pDevice
	push	eax
	mov	ecx, DWORD PTR [edx+228]
	call	ecx

; 38   : 
; 39   : 			SamplerState_Clamp(m_pDevice, 0);

	push	0
	mov	edx, DWORD PTR ?m_pDevice@D3DTech@Ogre@@2PAUIDirect3DDevice9@@A ; Ogre::D3DTech::m_pDevice
	push	edx
	call	?SamplerState_Clamp@Ogre@@YAXPAUIDirect3DDevice9@@H@Z ; Ogre::SamplerState_Clamp
	add	esp, 8

; 40   : 			SamplerState_Clamp(m_pDevice, 1);

	push	1
	mov	eax, DWORD PTR ?m_pDevice@D3DTech@Ogre@@2PAUIDirect3DDevice9@@A ; Ogre::D3DTech::m_pDevice
	push	eax
	call	?SamplerState_Clamp@Ogre@@YAXPAUIDirect3DDevice9@@H@Z ; Ogre::SamplerState_Clamp
	add	esp, 8

; 41   : 
; 42   : 			applyVSPS(m_CurPass);

	mov	ecx, DWORD PTR _this$[ebp]
	mov	edx, DWORD PTR [ecx+192]
	push	edx
	mov	ecx, DWORD PTR _this$[ebp]
	call	?applyVSPS@D3DTech@Ogre@@IAEXI@Z	; Ogre::D3DTech::applyVSPS

; 43   : 		}

	mov	esp, ebp
	pop	ebp
	ret	4
?beginPass@D3DTech_distort_lod0@Ogre@@UAEXI@Z ENDP	; Ogre::D3DTech_distort_lod0::beginPass
; Function compile flags: /Odtp
_TEXT	ENDS
;	COMDAT ?endPass@D3DTech_distort_lod0@Ogre@@UAEXXZ
_TEXT	SEGMENT
_this$ = -4						; size = 4
?endPass@D3DTech_distort_lod0@Ogre@@UAEXXZ PROC		; Ogre::D3DTech_distort_lod0::endPass, COMDAT
; _this$ = ecx

; 46   : 		{

	push	ebp
	mov	ebp, esp
	push	ecx
	mov	DWORD PTR _this$[ebp], ecx

; 47   : 			SetBlendState(m_pDevice, BLEND_OPAQUE);

	push	-1
	push	0
	mov	eax, DWORD PTR ?m_pDevice@D3DTech@Ogre@@2PAUIDirect3DDevice9@@A ; Ogre::D3DTech::m_pDevice
	push	eax
	call	?SetBlendState@Ogre@@YAXPAUIDirect3DDevice9@@HH@Z ; Ogre::SetBlendState
	add	esp, 12					; 0000000cH

; 48   : 			m_pDevice->SetRenderState(D3DRS_ZWRITEENABLE, TRUE);

	push	1
	push	14					; 0000000eH
	mov	ecx, DWORD PTR ?m_pDevice@D3DTech@Ogre@@2PAUIDirect3DDevice9@@A ; Ogre::D3DTech::m_pDevice
	mov	edx, DWORD PTR [ecx]
	mov	eax, DWORD PTR ?m_pDevice@D3DTech@Ogre@@2PAUIDirect3DDevice9@@A ; Ogre::D3DTech::m_pDevice
	push	eax
	mov	ecx, DWORD PTR [edx+228]
	call	ecx

; 49   : 		}

	mov	esp, ebp
	pop	ebp
	ret	0
?endPass@D3DTech_distort_lod0@Ogre@@UAEXXZ ENDP		; Ogre::D3DTech_distort_lod0::endPass
_TEXT	ENDS
PUBLIC	??1D3DTech_distort_lod0@Ogre@@UAE@XZ		; Ogre::D3DTech_distort_lod0::~D3DTech_distort_lod0
; Function compile flags: /Odtp
;	COMDAT ??_GD3DTech_distort_lod0@Ogre@@UAEPAXI@Z
_TEXT	SEGMENT
_this$ = -4						; size = 4
___flags$ = 8						; size = 4
??_GD3DTech_distort_lod0@Ogre@@UAEPAXI@Z PROC		; Ogre::D3DTech_distort_lod0::`scalar deleting destructor', COMDAT
; _this$ = ecx
	push	ebp
	mov	ebp, esp
	push	ecx
	mov	DWORD PTR _this$[ebp], ecx
	mov	ecx, DWORD PTR _this$[ebp]
	call	??1D3DTech_distort_lod0@Ogre@@UAE@XZ
	mov	eax, DWORD PTR ___flags$[ebp]
	and	eax, 1
	je	SHORT $LN1@scalar@28
	mov	ecx, DWORD PTR _this$[ebp]
	push	ecx
	call	??3@YAXPAX@Z				; operator delete
	add	esp, 4
$LN1@scalar@28:
	mov	eax, DWORD PTR _this$[ebp]
	mov	esp, ebp
	pop	ebp
	ret	4
??_GD3DTech_distort_lod0@Ogre@@UAEPAXI@Z ENDP		; Ogre::D3DTech_distort_lod0::`scalar deleting destructor'
_TEXT	ENDS
;	COMDAT xdata$x
xdata$x	SEGMENT
__unwindtable$??1D3DTech_distort_lod0@Ogre@@UAE@XZ DD 0ffffffffH
	DD	FLAT:__unwindfunclet$??1D3DTech_distort_lod0@Ogre@@UAE@XZ$0
__ehfuncinfo$??1D3DTech_distort_lod0@Ogre@@UAE@XZ DD 019930522H
	DD	01H
	DD	FLAT:__unwindtable$??1D3DTech_distort_lod0@Ogre@@UAE@XZ
	DD	2 DUP(00H)
	DD	2 DUP(00H)
	DD	00H
	DD	00H
; Function compile flags: /Odtp
xdata$x	ENDS
;	COMDAT ??1D3DTech_distort_lod0@Ogre@@UAE@XZ
_TEXT	SEGMENT
_this$ = -16						; size = 4
__$EHRec$ = -12						; size = 12
??1D3DTech_distort_lod0@Ogre@@UAE@XZ PROC		; Ogre::D3DTech_distort_lod0::~D3DTech_distort_lod0, COMDAT
; _this$ = ecx
	push	ebp
	mov	ebp, esp
	push	-1
	push	__ehhandler$??1D3DTech_distort_lod0@Ogre@@UAE@XZ
	mov	eax, DWORD PTR fs:0
	push	eax
	push	ecx
	mov	eax, DWORD PTR ___security_cookie
	xor	eax, ebp
	push	eax
	lea	eax, DWORD PTR __$EHRec$[ebp]
	mov	DWORD PTR fs:0, eax
	mov	DWORD PTR _this$[ebp], ecx
	mov	DWORD PTR __$EHRec$[ebp+8], 0
	mov	DWORD PTR __$EHRec$[ebp+8], -1
	mov	ecx, DWORD PTR _this$[ebp]
	call	??1D3DTech@Ogre@@UAE@XZ
	mov	ecx, DWORD PTR __$EHRec$[ebp]
	mov	DWORD PTR fs:0, ecx
	pop	ecx
	mov	esp, ebp
	pop	ebp
	ret	0
_TEXT	ENDS
;	COMDAT text$x
text$x	SEGMENT
__unwindfunclet$??1D3DTech_distort_lod0@Ogre@@UAE@XZ$0:
	mov	ecx, DWORD PTR _this$[ebp]
	jmp	??1D3DTech@Ogre@@UAE@XZ
__ehhandler$??1D3DTech_distort_lod0@Ogre@@UAE@XZ:
	mov	edx, DWORD PTR [esp+8]
	lea	eax, DWORD PTR [edx+12]
	mov	ecx, DWORD PTR [edx-8]
	xor	ecx, eax
	call	@__security_check_cookie@4
	mov	eax, OFFSET __ehfuncinfo$??1D3DTech_distort_lod0@Ogre@@UAE@XZ
	jmp	___CxxFrameHandler3
text$x	ENDS
??1D3DTech_distort_lod0@Ogre@@UAE@XZ ENDP		; Ogre::D3DTech_distort_lod0::~D3DTech_distort_lod0
PUBLIC	??_7D3DTech_bloom_lod0@Ogre@@6B@		; Ogre::D3DTech_bloom_lod0::`vftable'
PUBLIC	??_R4D3DTech_bloom_lod0@Ogre@@6B@		; Ogre::D3DTech_bloom_lod0::`RTTI Complete Object Locator'
PUBLIC	??_R0?AVD3DTech_bloom_lod0@Ogre@@@8		; Ogre::D3DTech_bloom_lod0 `RTTI Type Descriptor'
PUBLIC	??_R3D3DTech_bloom_lod0@Ogre@@8			; Ogre::D3DTech_bloom_lod0::`RTTI Class Hierarchy Descriptor'
PUBLIC	??_R2D3DTech_bloom_lod0@Ogre@@8			; Ogre::D3DTech_bloom_lod0::`RTTI Base Class Array'
PUBLIC	??_R1A@?0A@EA@D3DTech_bloom_lod0@Ogre@@8	; Ogre::D3DTech_bloom_lod0::`RTTI Base Class Descriptor at (0,-1,0,64)'
PUBLIC	?beginPass@D3DTech_bloom_lod0@Ogre@@UAEXI@Z	; Ogre::D3DTech_bloom_lod0::beginPass
PUBLIC	?endPass@D3DTech_bloom_lod0@Ogre@@UAEXXZ	; Ogre::D3DTech_bloom_lod0::endPass
PUBLIC	?clone@D3DTech_bloom_lod0@Ogre@@UAEPAVD3DTech@2@XZ ; Ogre::D3DTech_bloom_lod0::clone
PUBLIC	?init@D3DTech_bloom_lod0@Ogre@@UAEXABUShaderEnvFlags@2@ABUMaterialMacro@2@@Z ; Ogre::D3DTech_bloom_lod0::init
EXTRN	??_ED3DTech_bloom_lod0@Ogre@@UAEPAXI@Z:PROC	; Ogre::D3DTech_bloom_lod0::`vector deleting destructor'
;	COMDAT ??_R1A@?0A@EA@D3DTech_bloom_lod0@Ogre@@8
rdata$r	SEGMENT
??_R1A@?0A@EA@D3DTech_bloom_lod0@Ogre@@8 DD FLAT:??_R0?AVD3DTech_bloom_lod0@Ogre@@@8 ; Ogre::D3DTech_bloom_lod0::`RTTI Base Class Descriptor at (0,-1,0,64)'
	DD	02H
	DD	00H
	DD	0ffffffffH
	DD	00H
	DD	040H
	DD	FLAT:??_R3D3DTech_bloom_lod0@Ogre@@8
rdata$r	ENDS
;	COMDAT ??_R2D3DTech_bloom_lod0@Ogre@@8
rdata$r	SEGMENT
??_R2D3DTech_bloom_lod0@Ogre@@8 DD FLAT:??_R1A@?0A@EA@D3DTech_bloom_lod0@Ogre@@8 ; Ogre::D3DTech_bloom_lod0::`RTTI Base Class Array'
	DD	FLAT:??_R1A@?0A@EA@D3DTech@Ogre@@8
	DD	FLAT:??_R1A@?0A@EA@ShaderTechnique@Ogre@@8
rdata$r	ENDS
;	COMDAT ??_R3D3DTech_bloom_lod0@Ogre@@8
rdata$r	SEGMENT
??_R3D3DTech_bloom_lod0@Ogre@@8 DD 00H			; Ogre::D3DTech_bloom_lod0::`RTTI Class Hierarchy Descriptor'
	DD	00H
	DD	03H
	DD	FLAT:??_R2D3DTech_bloom_lod0@Ogre@@8
rdata$r	ENDS
;	COMDAT ??_R0?AVD3DTech_bloom_lod0@Ogre@@@8
_DATA	SEGMENT
??_R0?AVD3DTech_bloom_lod0@Ogre@@@8 DD FLAT:??_7type_info@@6B@ ; Ogre::D3DTech_bloom_lod0 `RTTI Type Descriptor'
	DD	00H
	DB	'.?AVD3DTech_bloom_lod0@Ogre@@', 00H
_DATA	ENDS
;	COMDAT ??_R4D3DTech_bloom_lod0@Ogre@@6B@
rdata$r	SEGMENT
??_R4D3DTech_bloom_lod0@Ogre@@6B@ DD 00H		; Ogre::D3DTech_bloom_lod0::`RTTI Complete Object Locator'
	DD	00H
	DD	00H
	DD	FLAT:??_R0?AVD3DTech_bloom_lod0@Ogre@@@8
	DD	FLAT:??_R3D3DTech_bloom_lod0@Ogre@@8
rdata$r	ENDS
;	COMDAT ??_7D3DTech_bloom_lod0@Ogre@@6B@
CONST	SEGMENT
??_7D3DTech_bloom_lod0@Ogre@@6B@ DD FLAT:??_R4D3DTech_bloom_lod0@Ogre@@6B@ ; Ogre::D3DTech_bloom_lod0::`vftable'
	DD	FLAT:?begin@D3DTech@Ogre@@UAEIXZ
	DD	FLAT:?end@D3DTech@Ogre@@UAEXXZ
	DD	FLAT:?beginPass@D3DTech_bloom_lod0@Ogre@@UAEXI@Z
	DD	FLAT:?endPass@D3DTech_bloom_lod0@Ogre@@UAEXXZ
	DD	FLAT:?setConstant@D3DTech@Ogre@@UAEXW4ShaderParamUsage@2@PBXI@Z
	DD	FLAT:?setConstant@D3DTech@Ogre@@UAEXPBDPBXI@Z
	DD	FLAT:?setTexture@D3DTech@Ogre@@UAEXW4ShaderParamUsage@2@PAVHardwarePixelBuffer@2@@Z
	DD	FLAT:?setTexture@D3DTech@Ogre@@UAEXPBDPAVHardwarePixelBuffer@2@@Z
	DD	FLAT:?setStreamInput@D3DTech@Ogre@@UAEXIPAPAVHardwareVertexBuffer@2@HPAI@Z
	DD	FLAT:?setStreamInput@D3DTech@Ogre@@UAEXIPAVHardwareVertexBuffer@2@I@Z
	DD	FLAT:?setStreamInput@D3DTech@Ogre@@UAEXIPAPAVHardwareVertexBuffer@2@PAI@Z
	DD	FLAT:?commitChanges@D3DTech@Ogre@@UAEXXZ
	DD	FLAT:?draw@D3DTech@Ogre@@UAEXW4PrimitiveType@2@IIPAVHardwareIndexBuffer@2@II@Z
	DD	FLAT:?draw@D3DTech@Ogre@@UAEXW4PrimitiveType@2@II@Z
	DD	FLAT:?getRequiredParams@D3DTech@Ogre@@UAEIPAW4ShaderParamUsage@2@I@Z
	DD	FLAT:??_ED3DTech_bloom_lod0@Ogre@@UAEPAXI@Z
	DD	FLAT:?clone@D3DTech_bloom_lod0@Ogre@@UAEPAVD3DTech@2@XZ
	DD	FLAT:?init@D3DTech_bloom_lod0@Ogre@@UAEXABUShaderEnvFlags@2@ABUMaterialMacro@2@@Z
CONST	ENDS
;	COMDAT xdata$x
xdata$x	SEGMENT
__unwindtable$??0D3DTech_bloom_lod0@Ogre@@QAE@XZ DD 0ffffffffH
	DD	FLAT:__unwindfunclet$??0D3DTech_bloom_lod0@Ogre@@QAE@XZ$0
__ehfuncinfo$??0D3DTech_bloom_lod0@Ogre@@QAE@XZ DD 019930522H
	DD	01H
	DD	FLAT:__unwindtable$??0D3DTech_bloom_lod0@Ogre@@QAE@XZ
	DD	2 DUP(00H)
	DD	2 DUP(00H)
	DD	00H
	DD	00H
; Function compile flags: /Odtp
xdata$x	ENDS
;	COMDAT ??0D3DTech_bloom_lod0@Ogre@@QAE@XZ
_TEXT	SEGMENT
_this$ = -16						; size = 4
__$EHRec$ = -12						; size = 12
??0D3DTech_bloom_lod0@Ogre@@QAE@XZ PROC			; Ogre::D3DTech_bloom_lod0::D3DTech_bloom_lod0, COMDAT
; _this$ = ecx
	push	ebp
	mov	ebp, esp
	push	-1
	push	__ehhandler$??0D3DTech_bloom_lod0@Ogre@@QAE@XZ
	mov	eax, DWORD PTR fs:0
	push	eax
	push	ecx
	mov	eax, DWORD PTR ___security_cookie
	xor	eax, ebp
	push	eax
	lea	eax, DWORD PTR __$EHRec$[ebp]
	mov	DWORD PTR fs:0, eax
	mov	DWORD PTR _this$[ebp], ecx
	mov	ecx, DWORD PTR _this$[ebp]
	call	??0D3DTech@Ogre@@QAE@XZ			; Ogre::D3DTech::D3DTech
	mov	DWORD PTR __$EHRec$[ebp+8], 0
	mov	eax, DWORD PTR _this$[ebp]
	mov	DWORD PTR [eax], OFFSET ??_7D3DTech_bloom_lod0@Ogre@@6B@
	mov	DWORD PTR __$EHRec$[ebp+8], -1
	mov	eax, DWORD PTR _this$[ebp]
	mov	ecx, DWORD PTR __$EHRec$[ebp]
	mov	DWORD PTR fs:0, ecx
	pop	ecx
	mov	esp, ebp
	pop	ebp
	ret	0
_TEXT	ENDS
;	COMDAT text$x
text$x	SEGMENT
__unwindfunclet$??0D3DTech_bloom_lod0@Ogre@@QAE@XZ$0:
	mov	ecx, DWORD PTR _this$[ebp]
	jmp	??1D3DTech@Ogre@@UAE@XZ
__ehhandler$??0D3DTech_bloom_lod0@Ogre@@QAE@XZ:
	mov	edx, DWORD PTR [esp+8]
	lea	eax, DWORD PTR [edx+12]
	mov	ecx, DWORD PTR [edx-8]
	xor	ecx, eax
	call	@__security_check_cookie@4
	mov	eax, OFFSET __ehfuncinfo$??0D3DTech_bloom_lod0@Ogre@@QAE@XZ
	jmp	___CxxFrameHandler3
text$x	ENDS
??0D3DTech_bloom_lod0@Ogre@@QAE@XZ ENDP			; Ogre::D3DTech_bloom_lod0::D3DTech_bloom_lod0
;	COMDAT xdata$x
; File i:\svnroot\client\plugins\rendersystem_d3d9\ogred3d9tech_bloom.h
xdata$x	SEGMENT
__unwindtable$?clone@D3DTech_bloom_lod0@Ogre@@UAEPAVD3DTech@2@XZ DD 0ffffffffH
	DD	FLAT:__unwindfunclet$?clone@D3DTech_bloom_lod0@Ogre@@UAEPAVD3DTech@2@XZ$0
__ehfuncinfo$?clone@D3DTech_bloom_lod0@Ogre@@UAEPAVD3DTech@2@XZ DD 019930522H
	DD	01H
	DD	FLAT:__unwindtable$?clone@D3DTech_bloom_lod0@Ogre@@UAEPAVD3DTech@2@XZ
	DD	2 DUP(00H)
	DD	2 DUP(00H)
	DD	00H
	DD	00H
; Function compile flags: /Odtp
xdata$x	ENDS
;	COMDAT ?clone@D3DTech_bloom_lod0@Ogre@@UAEPAVD3DTech@2@XZ
_TEXT	SEGMENT
tv74 = -28						; size = 4
_this$ = -24						; size = 4
$T140584 = -20						; size = 4
$T140583 = -16						; size = 4
__$EHRec$ = -12						; size = 12
?clone@D3DTech_bloom_lod0@Ogre@@UAEPAVD3DTech@2@XZ PROC	; Ogre::D3DTech_bloom_lod0::clone, COMDAT
; _this$ = ecx

; 20   : 		{

	push	ebp
	mov	ebp, esp
	push	-1
	push	__ehhandler$?clone@D3DTech_bloom_lod0@Ogre@@UAEPAVD3DTech@2@XZ
	mov	eax, DWORD PTR fs:0
	push	eax
	sub	esp, 16					; 00000010H
	mov	eax, DWORD PTR ___security_cookie
	xor	eax, ebp
	push	eax
	lea	eax, DWORD PTR __$EHRec$[ebp]
	mov	DWORD PTR fs:0, eax
	mov	DWORD PTR _this$[ebp], ecx

; 21   : 			return new D3DTech_bloom_lod0;

	push	396					; 0000018cH
	call	??2@YAPAXI@Z				; operator new
	add	esp, 4
	mov	DWORD PTR $T140584[ebp], eax
	mov	DWORD PTR __$EHRec$[ebp+8], 0
	cmp	DWORD PTR $T140584[ebp], 0
	je	SHORT $LN3@clone@28
	mov	ecx, DWORD PTR $T140584[ebp]
	call	??0D3DTech_bloom_lod0@Ogre@@QAE@XZ
	mov	DWORD PTR tv74[ebp], eax
	jmp	SHORT $LN4@clone@28
$LN3@clone@28:
	mov	DWORD PTR tv74[ebp], 0
$LN4@clone@28:
	mov	eax, DWORD PTR tv74[ebp]
	mov	DWORD PTR $T140583[ebp], eax
	mov	DWORD PTR __$EHRec$[ebp+8], -1
	mov	eax, DWORD PTR $T140583[ebp]

; 22   : 		}

	mov	ecx, DWORD PTR __$EHRec$[ebp]
	mov	DWORD PTR fs:0, ecx
	pop	ecx
	mov	esp, ebp
	pop	ebp
	ret	0
_TEXT	ENDS
;	COMDAT text$x
text$x	SEGMENT
__unwindfunclet$?clone@D3DTech_bloom_lod0@Ogre@@UAEPAVD3DTech@2@XZ$0:
	mov	eax, DWORD PTR $T140584[ebp]
	push	eax
	call	??3@YAXPAX@Z				; operator delete
	pop	ecx
	ret	0
__ehhandler$?clone@D3DTech_bloom_lod0@Ogre@@UAEPAVD3DTech@2@XZ:
	mov	edx, DWORD PTR [esp+8]
	lea	eax, DWORD PTR [edx+12]
	mov	ecx, DWORD PTR [edx-20]
	xor	ecx, eax
	call	@__security_check_cookie@4
	mov	eax, OFFSET __ehfuncinfo$?clone@D3DTech_bloom_lod0@Ogre@@UAEPAVD3DTech@2@XZ
	jmp	___CxxFrameHandler3
text$x	ENDS
?clone@D3DTech_bloom_lod0@Ogre@@UAEPAVD3DTech@2@XZ ENDP	; Ogre::D3DTech_bloom_lod0::clone
PUBLIC	??_C@_0N@HHBMEODH@FinalPSBloom?$AA@		; `string'
PUBLIC	??_C@_08MDKPIMGB@BloomPS2?$AA@			; `string'
PUBLIC	??_C@_08OIICNPKC@BloomPS1?$AA@			; `string'
PUBLIC	??_C@_08LMANELIJ@BrightPS?$AA@			; `string'
PUBLIC	??_C@_0M@BKEJMBLI@DownScenePS?$AA@		; `string'
;	COMDAT ??_C@_0N@HHBMEODH@FinalPSBloom?$AA@
CONST	SEGMENT
??_C@_0N@HHBMEODH@FinalPSBloom?$AA@ DB 'FinalPSBloom', 00H ; `string'
CONST	ENDS
;	COMDAT ??_C@_08MDKPIMGB@BloomPS2?$AA@
CONST	SEGMENT
??_C@_08MDKPIMGB@BloomPS2?$AA@ DB 'BloomPS2', 00H	; `string'
CONST	ENDS
;	COMDAT ??_C@_08OIICNPKC@BloomPS1?$AA@
CONST	SEGMENT
??_C@_08OIICNPKC@BloomPS1?$AA@ DB 'BloomPS1', 00H	; `string'
CONST	ENDS
;	COMDAT ??_C@_08LMANELIJ@BrightPS?$AA@
CONST	SEGMENT
??_C@_08LMANELIJ@BrightPS?$AA@ DB 'BrightPS', 00H	; `string'
CONST	ENDS
;	COMDAT ??_C@_0M@BKEJMBLI@DownScenePS?$AA@
CONST	SEGMENT
??_C@_0M@BKEJMBLI@DownScenePS?$AA@ DB 'DownScenePS', 00H ; `string'
; Function compile flags: /Odtp
CONST	ENDS
;	COMDAT ?init@D3DTech_bloom_lod0@Ogre@@UAEXABUShaderEnvFlags@2@ABUMaterialMacro@2@@Z
_TEXT	SEGMENT
_this$ = -12						; size = 4
_indx$133859 = -8					; size = 4
_i$133855 = -4						; size = 4
_env$ = 8						; size = 4
_macros$ = 12						; size = 4
?init@D3DTech_bloom_lod0@Ogre@@UAEXABUShaderEnvFlags@2@ABUMaterialMacro@2@@Z PROC ; Ogre::D3DTech_bloom_lod0::init, COMDAT
; _this$ = ecx

; 25   : 		{

	push	ebp
	mov	ebp, esp
	sub	esp, 12					; 0000000cH
	mov	DWORD PTR _this$[ebp], ecx

; 26   : 			m_BloomPass = 0;

	mov	eax, DWORD PTR _this$[ebp]
	mov	BYTE PTR [eax+392], 0

; 27   : 			for(int i=0; i<MaterialMacro::MAX_MACRO; i++)

	mov	DWORD PTR _i$133855[ebp], 0
	jmp	SHORT $LN14@init@14
$LN13@init@14:
	mov	ecx, DWORD PTR _i$133855[ebp]
	add	ecx, 1
	mov	DWORD PTR _i$133855[ebp], ecx
$LN14@init@14:
	cmp	DWORD PTR _i$133855[ebp], 4
	jge	SHORT $LN12@init@14

; 28   : 			{
; 29   : 				int indx = macros.indices[i];

	mov	edx, DWORD PTR _macros$[ebp]
	add	edx, DWORD PTR _i$133855[ebp]
	movzx	eax, BYTE PTR [edx]
	mov	DWORD PTR _indx$133859[ebp], eax

; 30   : 				if(indx == 0) break;

	cmp	DWORD PTR _indx$133859[ebp], 0
	jne	SHORT $LN11@init@14
	jmp	SHORT $LN12@init@14
$LN11@init@14:

; 31   : 
; 32   : 				if(indx == MTLPARAM_BLOOM_PASS) m_BloomPass = macros.value[i];

	cmp	DWORD PTR _indx$133859[ebp], 1
	jne	SHORT $LN10@init@14
	mov	ecx, DWORD PTR _macros$[ebp]
	add	ecx, DWORD PTR _i$133855[ebp]
	mov	edx, DWORD PTR _this$[ebp]
	mov	al, BYTE PTR [ecx+4]
	mov	BYTE PTR [edx+392], al
$LN10@init@14:

; 33   : 			}

	jmp	SHORT $LN13@init@14
$LN12@init@14:

; 34   : 
; 35   : 			m_nPass = 1;

	mov	ecx, DWORD PTR _this$[ebp]
	mov	DWORD PTR [ecx+188], 1

; 36   : 			m_AllPass[0].vs = NULL;

	mov	edx, DWORD PTR _this$[ebp]
	mov	DWORD PTR [edx+12], 0

; 37   : 			if(m_BloomPass == 0) //downscenepass

	mov	eax, DWORD PTR _this$[ebp]
	movzx	ecx, BYTE PTR [eax+392]
	test	ecx, ecx
	jne	SHORT $LN9@init@14

; 38   : 			{
; 39   : 				m_AllPass[0].ps = m_pMtlTemplate->getCompiledVSPS(COMPILED_PS, "DownScenePS", env, macros);

	mov	edx, DWORD PTR _macros$[ebp]
	push	edx
	mov	eax, DWORD PTR _env$[ebp]
	push	eax
	push	OFFSET ??_C@_0M@BKEJMBLI@DownScenePS?$AA@
	push	2
	mov	ecx, DWORD PTR _this$[ebp]
	mov	ecx, DWORD PTR [ecx+8]
	call	?getCompiledVSPS@D3DMaterialTemplate@Ogre@@QAEPAVCompiledShader@2@W4COMPILED_TYPE@2@PBDABUShaderEnvFlags@2@ABUMaterialMacro@2@@Z ; Ogre::D3DMaterialTemplate::getCompiledVSPS
	mov	edx, DWORD PTR _this$[ebp]
	mov	DWORD PTR [edx+16], eax
	jmp	$LN8@init@14
$LN9@init@14:

; 40   : 			}
; 41   : 			else if(m_BloomPass == 1) //brightpass

	mov	eax, DWORD PTR _this$[ebp]
	movzx	ecx, BYTE PTR [eax+392]
	cmp	ecx, 1
	jne	SHORT $LN7@init@14

; 42   : 			{
; 43   : 				m_AllPass[0].ps = m_pMtlTemplate->getCompiledVSPS(COMPILED_PS, "BrightPS", env, macros);

	mov	edx, DWORD PTR _macros$[ebp]
	push	edx
	mov	eax, DWORD PTR _env$[ebp]
	push	eax
	push	OFFSET ??_C@_08LMANELIJ@BrightPS?$AA@
	push	2
	mov	ecx, DWORD PTR _this$[ebp]
	mov	ecx, DWORD PTR [ecx+8]
	call	?getCompiledVSPS@D3DMaterialTemplate@Ogre@@QAEPAVCompiledShader@2@W4COMPILED_TYPE@2@PBDABUShaderEnvFlags@2@ABUMaterialMacro@2@@Z ; Ogre::D3DMaterialTemplate::getCompiledVSPS
	mov	edx, DWORD PTR _this$[ebp]
	mov	DWORD PTR [edx+16], eax
	jmp	$LN8@init@14
$LN7@init@14:

; 44   : 			}
; 45   : 			else if(m_BloomPass == 2) //Hblurpass

	mov	eax, DWORD PTR _this$[ebp]
	movzx	ecx, BYTE PTR [eax+392]
	cmp	ecx, 2
	jne	SHORT $LN5@init@14

; 46   : 			{
; 47   : 				m_AllPass[0].ps = m_pMtlTemplate->getCompiledVSPS(COMPILED_PS, "BloomPS1", env, macros);

	mov	edx, DWORD PTR _macros$[ebp]
	push	edx
	mov	eax, DWORD PTR _env$[ebp]
	push	eax
	push	OFFSET ??_C@_08OIICNPKC@BloomPS1?$AA@
	push	2
	mov	ecx, DWORD PTR _this$[ebp]
	mov	ecx, DWORD PTR [ecx+8]
	call	?getCompiledVSPS@D3DMaterialTemplate@Ogre@@QAEPAVCompiledShader@2@W4COMPILED_TYPE@2@PBDABUShaderEnvFlags@2@ABUMaterialMacro@2@@Z ; Ogre::D3DMaterialTemplate::getCompiledVSPS
	mov	edx, DWORD PTR _this$[ebp]
	mov	DWORD PTR [edx+16], eax
	jmp	SHORT $LN8@init@14
$LN5@init@14:

; 48   : 			}
; 49   : 			else if(m_BloomPass == 3) //Vblurpass

	mov	eax, DWORD PTR _this$[ebp]
	movzx	ecx, BYTE PTR [eax+392]
	cmp	ecx, 3
	jne	SHORT $LN3@init@14

; 50   : 			{
; 51   : 				m_AllPass[0].ps = m_pMtlTemplate->getCompiledVSPS(COMPILED_PS, "BloomPS2", env, macros);

	mov	edx, DWORD PTR _macros$[ebp]
	push	edx
	mov	eax, DWORD PTR _env$[ebp]
	push	eax
	push	OFFSET ??_C@_08MDKPIMGB@BloomPS2?$AA@
	push	2
	mov	ecx, DWORD PTR _this$[ebp]
	mov	ecx, DWORD PTR [ecx+8]
	call	?getCompiledVSPS@D3DMaterialTemplate@Ogre@@QAEPAVCompiledShader@2@W4COMPILED_TYPE@2@PBDABUShaderEnvFlags@2@ABUMaterialMacro@2@@Z ; Ogre::D3DMaterialTemplate::getCompiledVSPS
	mov	edx, DWORD PTR _this$[ebp]
	mov	DWORD PTR [edx+16], eax
	jmp	SHORT $LN8@init@14
$LN3@init@14:

; 52   : 			}
; 53   : 			else if(m_BloomPass == 4) //CombinePass

	mov	eax, DWORD PTR _this$[ebp]
	movzx	ecx, BYTE PTR [eax+392]
	cmp	ecx, 4
	jne	SHORT $LN8@init@14

; 54   : 			{
; 55   : 				m_AllPass[0].ps = m_pMtlTemplate->getCompiledVSPS(COMPILED_PS, "FinalPSBloom", env, macros);

	mov	edx, DWORD PTR _macros$[ebp]
	push	edx
	mov	eax, DWORD PTR _env$[ebp]
	push	eax
	push	OFFSET ??_C@_0N@HHBMEODH@FinalPSBloom?$AA@
	push	2
	mov	ecx, DWORD PTR _this$[ebp]
	mov	ecx, DWORD PTR [ecx+8]
	call	?getCompiledVSPS@D3DMaterialTemplate@Ogre@@QAEPAVCompiledShader@2@W4COMPILED_TYPE@2@PBDABUShaderEnvFlags@2@ABUMaterialMacro@2@@Z ; Ogre::D3DMaterialTemplate::getCompiledVSPS
	mov	edx, DWORD PTR _this$[ebp]
	mov	DWORD PTR [edx+16], eax
$LN8@init@14:

; 56   : 			}
; 57   : 
; 58   : 			m_nPass = 1;

	mov	eax, DWORD PTR _this$[ebp]
	mov	DWORD PTR [eax+188], 1

; 59   : 			m_AllPass[0].ntex = 4;

	mov	ecx, DWORD PTR _this$[ebp]
	mov	DWORD PTR [ecx+20], 4

; 60   : 			m_AllPass[0].texstage[0] = SPU_GENERAL_PARAM + 2; //MeshTexture

	mov	edx, DWORD PTR _this$[ebp]
	mov	DWORD PTR [edx+24], 1002		; 000003eaH

; 61   : 			m_AllPass[0].texstage[1] = SPU_GENERAL_PARAM + 3; //BlendTexture

	mov	eax, DWORD PTR _this$[ebp]
	mov	DWORD PTR [eax+28], 1003		; 000003ebH

; 62   : 			m_AllPass[0].texstage[2] = SPU_GENERAL_PARAM + 4; //BloomTexture

	mov	ecx, DWORD PTR _this$[ebp]
	mov	DWORD PTR [ecx+32], 1004		; 000003ecH

; 63   : 			m_AllPass[0].texstage[3] = SPU_GENERAL_PARAM + 2; //BlurTexture

	mov	edx, DWORD PTR _this$[ebp]
	mov	DWORD PTR [edx+36], 1002		; 000003eaH

; 64   : 
; 65   : 			initParams();

	mov	ecx, DWORD PTR _this$[ebp]
	call	?initParams@D3DTech@Ogre@@IAEXXZ	; Ogre::D3DTech::initParams

; 66   : 			m_UsedMacroMask = m_BloomPass;

	mov	eax, DWORD PTR _this$[ebp]
	movzx	ecx, BYTE PTR [eax+392]
	mov	edx, DWORD PTR _this$[ebp]
	mov	DWORD PTR [edx+4], ecx

; 67   : 		}

	mov	esp, ebp
	pop	ebp
	ret	8
?init@D3DTech_bloom_lod0@Ogre@@UAEXABUShaderEnvFlags@2@ABUMaterialMacro@2@@Z ENDP ; Ogre::D3DTech_bloom_lod0::init
_TEXT	ENDS
PUBLIC	?SetDefaultState@Ogre@@YAXPAUIDirect3DDevice9@@@Z ; Ogre::SetDefaultState
; Function compile flags: /Odtp
;	COMDAT ?beginPass@D3DTech_bloom_lod0@Ogre@@UAEXI@Z
_TEXT	SEGMENT
_this$ = -4						; size = 4
_ipass$ = 8						; size = 4
?beginPass@D3DTech_bloom_lod0@Ogre@@UAEXI@Z PROC	; Ogre::D3DTech_bloom_lod0::beginPass, COMDAT
; _this$ = ecx

; 70   : 		{

	push	ebp
	mov	ebp, esp
	push	ecx
	mov	DWORD PTR _this$[ebp], ecx

; 71   : 			m_CurPass = ipass;

	mov	eax, DWORD PTR _this$[ebp]
	mov	ecx, DWORD PTR _ipass$[ebp]
	mov	DWORD PTR [eax+192], ecx

; 72   : 
; 73   : 			SetDefaultState(m_pDevice);

	mov	edx, DWORD PTR ?m_pDevice@D3DTech@Ogre@@2PAUIDirect3DDevice9@@A ; Ogre::D3DTech::m_pDevice
	push	edx
	call	?SetDefaultState@Ogre@@YAXPAUIDirect3DDevice9@@@Z ; Ogre::SetDefaultState
	add	esp, 4

; 74   : 
; 75   : 			SetBlendState(m_pDevice, BLEND_OPAQUE);

	push	-1
	push	0
	mov	eax, DWORD PTR ?m_pDevice@D3DTech@Ogre@@2PAUIDirect3DDevice9@@A ; Ogre::D3DTech::m_pDevice
	push	eax
	call	?SetBlendState@Ogre@@YAXPAUIDirect3DDevice9@@HH@Z ; Ogre::SetBlendState
	add	esp, 12					; 0000000cH

; 76   : 			m_pDevice->SetRenderState(D3DRS_ZENABLE, FALSE);

	push	0
	push	7
	mov	ecx, DWORD PTR ?m_pDevice@D3DTech@Ogre@@2PAUIDirect3DDevice9@@A ; Ogre::D3DTech::m_pDevice
	mov	edx, DWORD PTR [ecx]
	mov	eax, DWORD PTR ?m_pDevice@D3DTech@Ogre@@2PAUIDirect3DDevice9@@A ; Ogre::D3DTech::m_pDevice
	push	eax
	mov	ecx, DWORD PTR [edx+228]
	call	ecx

; 77   : 			m_pDevice->SetRenderState(D3DRS_CULLMODE, D3DCULL_CCW);

	push	3
	push	22					; 00000016H
	mov	edx, DWORD PTR ?m_pDevice@D3DTech@Ogre@@2PAUIDirect3DDevice9@@A ; Ogre::D3DTech::m_pDevice
	mov	eax, DWORD PTR [edx]
	mov	ecx, DWORD PTR ?m_pDevice@D3DTech@Ogre@@2PAUIDirect3DDevice9@@A ; Ogre::D3DTech::m_pDevice
	push	ecx
	mov	edx, DWORD PTR [eax+228]
	call	edx

; 78   : 
; 79   : 			SamplerState_Clamp(m_pDevice, 0);

	push	0
	mov	eax, DWORD PTR ?m_pDevice@D3DTech@Ogre@@2PAUIDirect3DDevice9@@A ; Ogre::D3DTech::m_pDevice
	push	eax
	call	?SamplerState_Clamp@Ogre@@YAXPAUIDirect3DDevice9@@H@Z ; Ogre::SamplerState_Clamp
	add	esp, 8

; 80   : 			SamplerState_Clamp(m_pDevice, 1);

	push	1
	mov	ecx, DWORD PTR ?m_pDevice@D3DTech@Ogre@@2PAUIDirect3DDevice9@@A ; Ogre::D3DTech::m_pDevice
	push	ecx
	call	?SamplerState_Clamp@Ogre@@YAXPAUIDirect3DDevice9@@H@Z ; Ogre::SamplerState_Clamp
	add	esp, 8

; 81   : 			SamplerState_Clamp(m_pDevice, 2);

	push	2
	mov	edx, DWORD PTR ?m_pDevice@D3DTech@Ogre@@2PAUIDirect3DDevice9@@A ; Ogre::D3DTech::m_pDevice
	push	edx
	call	?SamplerState_Clamp@Ogre@@YAXPAUIDirect3DDevice9@@H@Z ; Ogre::SamplerState_Clamp
	add	esp, 8

; 82   : 
; 83   : 			m_pDevice->SetSamplerState(3, D3DSAMP_ADDRESSU, D3DTADDRESS_CLAMP);

	push	3
	push	1
	push	3
	mov	eax, DWORD PTR ?m_pDevice@D3DTech@Ogre@@2PAUIDirect3DDevice9@@A ; Ogre::D3DTech::m_pDevice
	mov	ecx, DWORD PTR [eax]
	mov	edx, DWORD PTR ?m_pDevice@D3DTech@Ogre@@2PAUIDirect3DDevice9@@A ; Ogre::D3DTech::m_pDevice
	push	edx
	mov	eax, DWORD PTR [ecx+276]
	call	eax

; 84   : 			m_pDevice->SetSamplerState(3, D3DSAMP_ADDRESSV, D3DTADDRESS_CLAMP);

	push	3
	push	2
	push	3
	mov	ecx, DWORD PTR ?m_pDevice@D3DTech@Ogre@@2PAUIDirect3DDevice9@@A ; Ogre::D3DTech::m_pDevice
	mov	edx, DWORD PTR [ecx]
	mov	eax, DWORD PTR ?m_pDevice@D3DTech@Ogre@@2PAUIDirect3DDevice9@@A ; Ogre::D3DTech::m_pDevice
	push	eax
	mov	ecx, DWORD PTR [edx+276]
	call	ecx

; 85   : 			m_pDevice->SetSamplerState(3, D3DSAMP_MIPFILTER, D3DTEXF_LINEAR);

	push	2
	push	7
	push	3
	mov	edx, DWORD PTR ?m_pDevice@D3DTech@Ogre@@2PAUIDirect3DDevice9@@A ; Ogre::D3DTech::m_pDevice
	mov	eax, DWORD PTR [edx]
	mov	ecx, DWORD PTR ?m_pDevice@D3DTech@Ogre@@2PAUIDirect3DDevice9@@A ; Ogre::D3DTech::m_pDevice
	push	ecx
	mov	edx, DWORD PTR [eax+276]
	call	edx

; 86   : 			m_pDevice->SetSamplerState(3, D3DSAMP_MINFILTER, D3DTEXF_POINT);

	push	1
	push	6
	push	3
	mov	eax, DWORD PTR ?m_pDevice@D3DTech@Ogre@@2PAUIDirect3DDevice9@@A ; Ogre::D3DTech::m_pDevice
	mov	ecx, DWORD PTR [eax]
	mov	edx, DWORD PTR ?m_pDevice@D3DTech@Ogre@@2PAUIDirect3DDevice9@@A ; Ogre::D3DTech::m_pDevice
	push	edx
	mov	eax, DWORD PTR [ecx+276]
	call	eax

; 87   : 			m_pDevice->SetSamplerState(3, D3DSAMP_MAGFILTER, D3DTEXF_POINT);

	push	1
	push	5
	push	3
	mov	ecx, DWORD PTR ?m_pDevice@D3DTech@Ogre@@2PAUIDirect3DDevice9@@A ; Ogre::D3DTech::m_pDevice
	mov	edx, DWORD PTR [ecx]
	mov	eax, DWORD PTR ?m_pDevice@D3DTech@Ogre@@2PAUIDirect3DDevice9@@A ; Ogre::D3DTech::m_pDevice
	push	eax
	mov	ecx, DWORD PTR [edx+276]
	call	ecx

; 88   : 
; 89   : 			applyVSPS(m_CurPass);

	mov	edx, DWORD PTR _this$[ebp]
	mov	eax, DWORD PTR [edx+192]
	push	eax
	mov	ecx, DWORD PTR _this$[ebp]
	call	?applyVSPS@D3DTech@Ogre@@IAEXI@Z	; Ogre::D3DTech::applyVSPS

; 90   : 		}

	mov	esp, ebp
	pop	ebp
	ret	4
?beginPass@D3DTech_bloom_lod0@Ogre@@UAEXI@Z ENDP	; Ogre::D3DTech_bloom_lod0::beginPass
; Function compile flags: /Odtp
; File i:\svnroot\client\plugins\rendersystem_d3d9\ogred3d9technique.h
_TEXT	ENDS
;	COMDAT ?SetDefaultState@Ogre@@YAXPAUIDirect3DDevice9@@@Z
_TEXT	SEGMENT
_stage$128089 = -4					; size = 4
_pdevice$ = 8						; size = 4
?SetDefaultState@Ogre@@YAXPAUIDirect3DDevice9@@@Z PROC	; Ogre::SetDefaultState, COMDAT

; 186  : 	{

	push	ebp
	mov	ebp, esp
	push	ecx

; 187  : 		pdevice->SetRenderState(D3DRS_ZENABLE, TRUE);

	push	1
	push	7
	mov	eax, DWORD PTR _pdevice$[ebp]
	mov	ecx, DWORD PTR [eax]
	mov	edx, DWORD PTR _pdevice$[ebp]
	push	edx
	mov	eax, DWORD PTR [ecx+228]
	call	eax

; 188  : 		pdevice->SetRenderState(D3DRS_CULLMODE, D3DCULL_CCW);

	push	3
	push	22					; 00000016H
	mov	ecx, DWORD PTR _pdevice$[ebp]
	mov	edx, DWORD PTR [ecx]
	mov	eax, DWORD PTR _pdevice$[ebp]
	push	eax
	mov	ecx, DWORD PTR [edx+228]
	call	ecx

; 189  : 		pdevice->SetRenderState(D3DRS_COLORWRITEENABLE, 0xf);

	push	15					; 0000000fH
	push	168					; 000000a8H
	mov	edx, DWORD PTR _pdevice$[ebp]
	mov	eax, DWORD PTR [edx]
	mov	ecx, DWORD PTR _pdevice$[ebp]
	push	ecx
	mov	edx, DWORD PTR [eax+228]
	call	edx

; 190  : 		pdevice->SetRenderState(D3DRS_ZWRITEENABLE, TRUE);

	push	1
	push	14					; 0000000eH
	mov	eax, DWORD PTR _pdevice$[ebp]
	mov	ecx, DWORD PTR [eax]
	mov	edx, DWORD PTR _pdevice$[ebp]
	push	edx
	mov	eax, DWORD PTR [ecx+228]
	call	eax

; 191  : 		pdevice->SetRenderState(D3DRS_ZFUNC, D3DCMP_LESSEQUAL);

	push	4
	push	23					; 00000017H
	mov	ecx, DWORD PTR _pdevice$[ebp]
	mov	edx, DWORD PTR [ecx]
	mov	eax, DWORD PTR _pdevice$[ebp]
	push	eax
	mov	ecx, DWORD PTR [edx+228]
	call	ecx

; 192  : 		pdevice->SetRenderState(D3DRS_ALPHABLENDENABLE, FALSE);

	push	0
	push	27					; 0000001bH
	mov	edx, DWORD PTR _pdevice$[ebp]
	mov	eax, DWORD PTR [edx]
	mov	ecx, DWORD PTR _pdevice$[ebp]
	push	ecx
	mov	edx, DWORD PTR [eax+228]
	call	edx

; 193  : 		pdevice->SetRenderState(D3DRS_ALPHATESTENABLE, FALSE);

	push	0
	push	15					; 0000000fH
	mov	eax, DWORD PTR _pdevice$[ebp]
	mov	ecx, DWORD PTR [eax]
	mov	edx, DWORD PTR _pdevice$[ebp]
	push	edx
	mov	eax, DWORD PTR [ecx+228]
	call	eax

; 194  : 		pdevice->SetRenderState(D3DRS_ALPHAREF, 0);

	push	0
	push	24					; 00000018H
	mov	ecx, DWORD PTR _pdevice$[ebp]
	mov	edx, DWORD PTR [ecx]
	mov	eax, DWORD PTR _pdevice$[ebp]
	push	eax
	mov	ecx, DWORD PTR [edx+228]
	call	ecx

; 195  : 		pdevice->SetRenderState(D3DRS_ALPHAFUNC, D3DCMP_GREATER);

	push	5
	push	25					; 00000019H
	mov	edx, DWORD PTR _pdevice$[ebp]
	mov	eax, DWORD PTR [edx]
	mov	ecx, DWORD PTR _pdevice$[ebp]
	push	ecx
	mov	edx, DWORD PTR [eax+228]
	call	edx

; 196  : 		pdevice->SetRenderState(D3DRS_SRCBLEND, D3DBLEND_SRCALPHA);

	push	5
	push	19					; 00000013H
	mov	eax, DWORD PTR _pdevice$[ebp]
	mov	ecx, DWORD PTR [eax]
	mov	edx, DWORD PTR _pdevice$[ebp]
	push	edx
	mov	eax, DWORD PTR [ecx+228]
	call	eax

; 197  : 		pdevice->SetRenderState(D3DRS_DESTBLEND, D3DBLEND_INVSRCALPHA);

	push	6
	push	20					; 00000014H
	mov	ecx, DWORD PTR _pdevice$[ebp]
	mov	edx, DWORD PTR [ecx]
	mov	eax, DWORD PTR _pdevice$[ebp]
	push	eax
	mov	ecx, DWORD PTR [edx+228]
	call	ecx

; 198  : 
; 199  : 		pdevice->SetRenderState(D3DRS_STENCILENABLE, FALSE);

	push	0
	push	52					; 00000034H
	mov	edx, DWORD PTR _pdevice$[ebp]
	mov	eax, DWORD PTR [edx]
	mov	ecx, DWORD PTR _pdevice$[ebp]
	push	ecx
	mov	edx, DWORD PTR [eax+228]
	call	edx

; 200  : 		pdevice->SetRenderState(D3DRS_DEPTHBIAS, 0);

	push	0
	push	195					; 000000c3H
	mov	eax, DWORD PTR _pdevice$[ebp]
	mov	ecx, DWORD PTR [eax]
	mov	edx, DWORD PTR _pdevice$[ebp]
	push	edx
	mov	eax, DWORD PTR [ecx+228]
	call	eax

; 201  : 		pdevice->SetRenderState(D3DRS_SLOPESCALEDEPTHBIAS, 0);

	push	0
	push	175					; 000000afH
	mov	ecx, DWORD PTR _pdevice$[ebp]
	mov	edx, DWORD PTR [ecx]
	mov	eax, DWORD PTR _pdevice$[ebp]
	push	eax
	mov	ecx, DWORD PTR [edx+228]
	call	ecx

; 202  : 
; 203  : 		for(int stage=0; stage<8; stage++)

	mov	DWORD PTR _stage$128089[ebp], 0
	jmp	SHORT $LN3@SetDefault
$LN2@SetDefault:
	mov	edx, DWORD PTR _stage$128089[ebp]
	add	edx, 1
	mov	DWORD PTR _stage$128089[ebp], edx
$LN3@SetDefault:
	cmp	DWORD PTR _stage$128089[ebp], 8
	jge	$LN4@SetDefault

; 204  : 		{
; 205  : 			pdevice->SetTexture(stage, NULL);

	push	0
	mov	eax, DWORD PTR _stage$128089[ebp]
	push	eax
	mov	ecx, DWORD PTR _pdevice$[ebp]
	mov	edx, DWORD PTR [ecx]
	mov	eax, DWORD PTR _pdevice$[ebp]
	push	eax
	mov	ecx, DWORD PTR [edx+260]
	call	ecx

; 206  : 			pdevice->SetTextureStageState(stage, D3DTSS_COLOROP, D3DTOP_DISABLE);

	push	1
	push	1
	mov	edx, DWORD PTR _stage$128089[ebp]
	push	edx
	mov	eax, DWORD PTR _pdevice$[ebp]
	mov	ecx, DWORD PTR [eax]
	mov	edx, DWORD PTR _pdevice$[ebp]
	push	edx
	mov	eax, DWORD PTR [ecx+268]
	call	eax

; 207  : 			pdevice->SetSamplerState(stage, D3DSAMP_ADDRESSU, D3DTADDRESS_WRAP);

	push	1
	push	1
	mov	ecx, DWORD PTR _stage$128089[ebp]
	push	ecx
	mov	edx, DWORD PTR _pdevice$[ebp]
	mov	eax, DWORD PTR [edx]
	mov	ecx, DWORD PTR _pdevice$[ebp]
	push	ecx
	mov	edx, DWORD PTR [eax+276]
	call	edx

; 208  : 			pdevice->SetSamplerState(stage, D3DSAMP_ADDRESSV, D3DTADDRESS_WRAP);

	push	1
	push	2
	mov	eax, DWORD PTR _stage$128089[ebp]
	push	eax
	mov	ecx, DWORD PTR _pdevice$[ebp]
	mov	edx, DWORD PTR [ecx]
	mov	eax, DWORD PTR _pdevice$[ebp]
	push	eax
	mov	ecx, DWORD PTR [edx+276]
	call	ecx

; 209  : 			pdevice->SetSamplerState(stage, D3DSAMP_MIPFILTER, D3DTEXF_NONE);

	push	0
	push	7
	mov	edx, DWORD PTR _stage$128089[ebp]
	push	edx
	mov	eax, DWORD PTR _pdevice$[ebp]
	mov	ecx, DWORD PTR [eax]
	mov	edx, DWORD PTR _pdevice$[ebp]
	push	edx
	mov	eax, DWORD PTR [ecx+276]
	call	eax

; 210  : 			pdevice->SetSamplerState(stage, D3DSAMP_MINFILTER, D3DTEXF_LINEAR);

	push	2
	push	6
	mov	ecx, DWORD PTR _stage$128089[ebp]
	push	ecx
	mov	edx, DWORD PTR _pdevice$[ebp]
	mov	eax, DWORD PTR [edx]
	mov	ecx, DWORD PTR _pdevice$[ebp]
	push	ecx
	mov	edx, DWORD PTR [eax+276]
	call	edx

; 211  : 			pdevice->SetSamplerState(stage, D3DSAMP_MAGFILTER, D3DTEXF_LINEAR);

	push	2
	push	5
	mov	eax, DWORD PTR _stage$128089[ebp]
	push	eax
	mov	ecx, DWORD PTR _pdevice$[ebp]
	mov	edx, DWORD PTR [ecx]
	mov	eax, DWORD PTR _pdevice$[ebp]
	push	eax
	mov	ecx, DWORD PTR [edx+276]
	call	ecx

; 212  : 			pdevice->SetSamplerState(stage, D3DSAMP_MIPMAPLODBIAS, 0);

	push	0
	push	8
	mov	edx, DWORD PTR _stage$128089[ebp]
	push	edx
	mov	eax, DWORD PTR _pdevice$[ebp]
	mov	ecx, DWORD PTR [eax]
	mov	edx, DWORD PTR _pdevice$[ebp]
	push	edx
	mov	eax, DWORD PTR [ecx+276]
	call	eax
	jmp	$LN2@SetDefault
$LN4@SetDefault:

; 213  : 		}
; 214  : 	}

	mov	esp, ebp
	pop	ebp
	ret	0
?SetDefaultState@Ogre@@YAXPAUIDirect3DDevice9@@@Z ENDP	; Ogre::SetDefaultState
; Function compile flags: /Odtp
; File i:\svnroot\client\plugins\rendersystem_d3d9\ogred3d9tech_bloom.h
_TEXT	ENDS
;	COMDAT ?endPass@D3DTech_bloom_lod0@Ogre@@UAEXXZ
_TEXT	SEGMENT
_this$ = -4						; size = 4
?endPass@D3DTech_bloom_lod0@Ogre@@UAEXXZ PROC		; Ogre::D3DTech_bloom_lod0::endPass, COMDAT
; _this$ = ecx

; 93   : 		{

	push	ebp
	mov	ebp, esp
	push	ecx
	mov	DWORD PTR _this$[ebp], ecx

; 94   : 			SetBlendState(m_pDevice, BLEND_OPAQUE);

	push	-1
	push	0
	mov	eax, DWORD PTR ?m_pDevice@D3DTech@Ogre@@2PAUIDirect3DDevice9@@A ; Ogre::D3DTech::m_pDevice
	push	eax
	call	?SetBlendState@Ogre@@YAXPAUIDirect3DDevice9@@HH@Z ; Ogre::SetBlendState
	add	esp, 12					; 0000000cH

; 95   : 			m_pDevice->SetRenderState(D3DRS_ZWRITEENABLE, TRUE);

	push	1
	push	14					; 0000000eH
	mov	ecx, DWORD PTR ?m_pDevice@D3DTech@Ogre@@2PAUIDirect3DDevice9@@A ; Ogre::D3DTech::m_pDevice
	mov	edx, DWORD PTR [ecx]
	mov	eax, DWORD PTR ?m_pDevice@D3DTech@Ogre@@2PAUIDirect3DDevice9@@A ; Ogre::D3DTech::m_pDevice
	push	eax
	mov	ecx, DWORD PTR [edx+228]
	call	ecx

; 96   : 			SetDefaultState(m_pDevice);

	mov	edx, DWORD PTR ?m_pDevice@D3DTech@Ogre@@2PAUIDirect3DDevice9@@A ; Ogre::D3DTech::m_pDevice
	push	edx
	call	?SetDefaultState@Ogre@@YAXPAUIDirect3DDevice9@@@Z ; Ogre::SetDefaultState
	add	esp, 4

; 97   : 		}

	mov	esp, ebp
	pop	ebp
	ret	0
?endPass@D3DTech_bloom_lod0@Ogre@@UAEXXZ ENDP		; Ogre::D3DTech_bloom_lod0::endPass
_TEXT	ENDS
PUBLIC	??1D3DTech_bloom_lod0@Ogre@@UAE@XZ		; Ogre::D3DTech_bloom_lod0::~D3DTech_bloom_lod0
; Function compile flags: /Odtp
;	COMDAT ??_GD3DTech_bloom_lod0@Ogre@@UAEPAXI@Z
_TEXT	SEGMENT
_this$ = -4						; size = 4
___flags$ = 8						; size = 4
??_GD3DTech_bloom_lod0@Ogre@@UAEPAXI@Z PROC		; Ogre::D3DTech_bloom_lod0::`scalar deleting destructor', COMDAT
; _this$ = ecx
	push	ebp
	mov	ebp, esp
	push	ecx
	mov	DWORD PTR _this$[ebp], ecx
	mov	ecx, DWORD PTR _this$[ebp]
	call	??1D3DTech_bloom_lod0@Ogre@@UAE@XZ
	mov	eax, DWORD PTR ___flags$[ebp]
	and	eax, 1
	je	SHORT $LN1@scalar@29
	mov	ecx, DWORD PTR _this$[ebp]
	push	ecx
	call	??3@YAXPAX@Z				; operator delete
	add	esp, 4
$LN1@scalar@29:
	mov	eax, DWORD PTR _this$[ebp]
	mov	esp, ebp
	pop	ebp
	ret	4
??_GD3DTech_bloom_lod0@Ogre@@UAEPAXI@Z ENDP		; Ogre::D3DTech_bloom_lod0::`scalar deleting destructor'
_TEXT	ENDS
;	COMDAT xdata$x
xdata$x	SEGMENT
__unwindtable$??1D3DTech_bloom_lod0@Ogre@@UAE@XZ DD 0ffffffffH
	DD	FLAT:__unwindfunclet$??1D3DTech_bloom_lod0@Ogre@@UAE@XZ$0
__ehfuncinfo$??1D3DTech_bloom_lod0@Ogre@@UAE@XZ DD 019930522H
	DD	01H
	DD	FLAT:__unwindtable$??1D3DTech_bloom_lod0@Ogre@@UAE@XZ
	DD	2 DUP(00H)
	DD	2 DUP(00H)
	DD	00H
	DD	00H
; Function compile flags: /Odtp
xdata$x	ENDS
;	COMDAT ??1D3DTech_bloom_lod0@Ogre@@UAE@XZ
_TEXT	SEGMENT
_this$ = -16						; size = 4
__$EHRec$ = -12						; size = 12
??1D3DTech_bloom_lod0@Ogre@@UAE@XZ PROC			; Ogre::D3DTech_bloom_lod0::~D3DTech_bloom_lod0, COMDAT
; _this$ = ecx
	push	ebp
	mov	ebp, esp
	push	-1
	push	__ehhandler$??1D3DTech_bloom_lod0@Ogre@@UAE@XZ
	mov	eax, DWORD PTR fs:0
	push	eax
	push	ecx
	mov	eax, DWORD PTR ___security_cookie
	xor	eax, ebp
	push	eax
	lea	eax, DWORD PTR __$EHRec$[ebp]
	mov	DWORD PTR fs:0, eax
	mov	DWORD PTR _this$[ebp], ecx
	mov	DWORD PTR __$EHRec$[ebp+8], 0
	mov	DWORD PTR __$EHRec$[ebp+8], -1
	mov	ecx, DWORD PTR _this$[ebp]
	call	??1D3DTech@Ogre@@UAE@XZ
	mov	ecx, DWORD PTR __$EHRec$[ebp]
	mov	DWORD PTR fs:0, ecx
	pop	ecx
	mov	esp, ebp
	pop	ebp
	ret	0
_TEXT	ENDS
;	COMDAT text$x
text$x	SEGMENT
__unwindfunclet$??1D3DTech_bloom_lod0@Ogre@@UAE@XZ$0:
	mov	ecx, DWORD PTR _this$[ebp]
	jmp	??1D3DTech@Ogre@@UAE@XZ
__ehhandler$??1D3DTech_bloom_lod0@Ogre@@UAE@XZ:
	mov	edx, DWORD PTR [esp+8]
	lea	eax, DWORD PTR [edx+12]
	mov	ecx, DWORD PTR [edx-8]
	xor	ecx, eax
	call	@__security_check_cookie@4
	mov	eax, OFFSET __ehfuncinfo$??1D3DTech_bloom_lod0@Ogre@@UAE@XZ
	jmp	___CxxFrameHandler3
text$x	ENDS
??1D3DTech_bloom_lod0@Ogre@@UAE@XZ ENDP			; Ogre::D3DTech_bloom_lod0::~D3DTech_bloom_lod0
PUBLIC	??_7D3DTech_dirdecal_lod0@Ogre@@6B@		; Ogre::D3DTech_dirdecal_lod0::`vftable'
PUBLIC	??_R4D3DTech_dirdecal_lod0@Ogre@@6B@		; Ogre::D3DTech_dirdecal_lod0::`RTTI Complete Object Locator'
PUBLIC	??_R0?AVD3DTech_dirdecal_lod0@Ogre@@@8		; Ogre::D3DTech_dirdecal_lod0 `RTTI Type Descriptor'
PUBLIC	??_R3D3DTech_dirdecal_lod0@Ogre@@8		; Ogre::D3DTech_dirdecal_lod0::`RTTI Class Hierarchy Descriptor'
PUBLIC	??_R2D3DTech_dirdecal_lod0@Ogre@@8		; Ogre::D3DTech_dirdecal_lod0::`RTTI Base Class Array'
PUBLIC	??_R1A@?0A@EA@D3DTech_dirdecal_lod0@Ogre@@8	; Ogre::D3DTech_dirdecal_lod0::`RTTI Base Class Descriptor at (0,-1,0,64)'
PUBLIC	?beginPass@D3DTech_dirdecal_lod0@Ogre@@UAEXI@Z	; Ogre::D3DTech_dirdecal_lod0::beginPass
PUBLIC	?endPass@D3DTech_dirdecal_lod0@Ogre@@UAEXXZ	; Ogre::D3DTech_dirdecal_lod0::endPass
PUBLIC	?clone@D3DTech_dirdecal_lod0@Ogre@@UAEPAVD3DTech@2@XZ ; Ogre::D3DTech_dirdecal_lod0::clone
PUBLIC	?init@D3DTech_dirdecal_lod0@Ogre@@UAEXABUShaderEnvFlags@2@ABUMaterialMacro@2@@Z ; Ogre::D3DTech_dirdecal_lod0::init
EXTRN	??_ED3DTech_dirdecal_lod0@Ogre@@UAEPAXI@Z:PROC	; Ogre::D3DTech_dirdecal_lod0::`vector deleting destructor'
;	COMDAT ??_R1A@?0A@EA@D3DTech_dirdecal_lod0@Ogre@@8
rdata$r	SEGMENT
??_R1A@?0A@EA@D3DTech_dirdecal_lod0@Ogre@@8 DD FLAT:??_R0?AVD3DTech_dirdecal_lod0@Ogre@@@8 ; Ogre::D3DTech_dirdecal_lod0::`RTTI Base Class Descriptor at (0,-1,0,64)'
	DD	02H
	DD	00H
	DD	0ffffffffH
	DD	00H
	DD	040H
	DD	FLAT:??_R3D3DTech_dirdecal_lod0@Ogre@@8
rdata$r	ENDS
;	COMDAT ??_R2D3DTech_dirdecal_lod0@Ogre@@8
rdata$r	SEGMENT
??_R2D3DTech_dirdecal_lod0@Ogre@@8 DD FLAT:??_R1A@?0A@EA@D3DTech_dirdecal_lod0@Ogre@@8 ; Ogre::D3DTech_dirdecal_lod0::`RTTI Base Class Array'
	DD	FLAT:??_R1A@?0A@EA@D3DTech@Ogre@@8
	DD	FLAT:??_R1A@?0A@EA@ShaderTechnique@Ogre@@8
rdata$r	ENDS
;	COMDAT ??_R3D3DTech_dirdecal_lod0@Ogre@@8
rdata$r	SEGMENT
??_R3D3DTech_dirdecal_lod0@Ogre@@8 DD 00H		; Ogre::D3DTech_dirdecal_lod0::`RTTI Class Hierarchy Descriptor'
	DD	00H
	DD	03H
	DD	FLAT:??_R2D3DTech_dirdecal_lod0@Ogre@@8
rdata$r	ENDS
;	COMDAT ??_R0?AVD3DTech_dirdecal_lod0@Ogre@@@8
_DATA	SEGMENT
??_R0?AVD3DTech_dirdecal_lod0@Ogre@@@8 DD FLAT:??_7type_info@@6B@ ; Ogre::D3DTech_dirdecal_lod0 `RTTI Type Descriptor'
	DD	00H
	DB	'.?AVD3DTech_dirdecal_lod0@Ogre@@', 00H
_DATA	ENDS
;	COMDAT ??_R4D3DTech_dirdecal_lod0@Ogre@@6B@
rdata$r	SEGMENT
??_R4D3DTech_dirdecal_lod0@Ogre@@6B@ DD 00H		; Ogre::D3DTech_dirdecal_lod0::`RTTI Complete Object Locator'
	DD	00H
	DD	00H
	DD	FLAT:??_R0?AVD3DTech_dirdecal_lod0@Ogre@@@8
	DD	FLAT:??_R3D3DTech_dirdecal_lod0@Ogre@@8
rdata$r	ENDS
;	COMDAT ??_7D3DTech_dirdecal_lod0@Ogre@@6B@
CONST	SEGMENT
??_7D3DTech_dirdecal_lod0@Ogre@@6B@ DD FLAT:??_R4D3DTech_dirdecal_lod0@Ogre@@6B@ ; Ogre::D3DTech_dirdecal_lod0::`vftable'
	DD	FLAT:?begin@D3DTech@Ogre@@UAEIXZ
	DD	FLAT:?end@D3DTech@Ogre@@UAEXXZ
	DD	FLAT:?beginPass@D3DTech_dirdecal_lod0@Ogre@@UAEXI@Z
	DD	FLAT:?endPass@D3DTech_dirdecal_lod0@Ogre@@UAEXXZ
	DD	FLAT:?setConstant@D3DTech@Ogre@@UAEXW4ShaderParamUsage@2@PBXI@Z
	DD	FLAT:?setConstant@D3DTech@Ogre@@UAEXPBDPBXI@Z
	DD	FLAT:?setTexture@D3DTech@Ogre@@UAEXW4ShaderParamUsage@2@PAVHardwarePixelBuffer@2@@Z
	DD	FLAT:?setTexture@D3DTech@Ogre@@UAEXPBDPAVHardwarePixelBuffer@2@@Z
	DD	FLAT:?setStreamInput@D3DTech@Ogre@@UAEXIPAPAVHardwareVertexBuffer@2@HPAI@Z
	DD	FLAT:?setStreamInput@D3DTech@Ogre@@UAEXIPAVHardwareVertexBuffer@2@I@Z
	DD	FLAT:?setStreamInput@D3DTech@Ogre@@UAEXIPAPAVHardwareVertexBuffer@2@PAI@Z
	DD	FLAT:?commitChanges@D3DTech@Ogre@@UAEXXZ
	DD	FLAT:?draw@D3DTech@Ogre@@UAEXW4PrimitiveType@2@IIPAVHardwareIndexBuffer@2@II@Z
	DD	FLAT:?draw@D3DTech@Ogre@@UAEXW4PrimitiveType@2@II@Z
	DD	FLAT:?getRequiredParams@D3DTech@Ogre@@UAEIPAW4ShaderParamUsage@2@I@Z
	DD	FLAT:??_ED3DTech_dirdecal_lod0@Ogre@@UAEPAXI@Z
	DD	FLAT:?clone@D3DTech_dirdecal_lod0@Ogre@@UAEPAVD3DTech@2@XZ
	DD	FLAT:?init@D3DTech_dirdecal_lod0@Ogre@@UAEXABUShaderEnvFlags@2@ABUMaterialMacro@2@@Z
CONST	ENDS
;	COMDAT xdata$x
xdata$x	SEGMENT
__unwindtable$??0D3DTech_dirdecal_lod0@Ogre@@QAE@XZ DD 0ffffffffH
	DD	FLAT:__unwindfunclet$??0D3DTech_dirdecal_lod0@Ogre@@QAE@XZ$0
__ehfuncinfo$??0D3DTech_dirdecal_lod0@Ogre@@QAE@XZ DD 019930522H
	DD	01H
	DD	FLAT:__unwindtable$??0D3DTech_dirdecal_lod0@Ogre@@QAE@XZ
	DD	2 DUP(00H)
	DD	2 DUP(00H)
	DD	00H
	DD	00H
; Function compile flags: /Odtp
xdata$x	ENDS
;	COMDAT ??0D3DTech_dirdecal_lod0@Ogre@@QAE@XZ
_TEXT	SEGMENT
_this$ = -16						; size = 4
__$EHRec$ = -12						; size = 12
??0D3DTech_dirdecal_lod0@Ogre@@QAE@XZ PROC		; Ogre::D3DTech_dirdecal_lod0::D3DTech_dirdecal_lod0, COMDAT
; _this$ = ecx
	push	ebp
	mov	ebp, esp
	push	-1
	push	__ehhandler$??0D3DTech_dirdecal_lod0@Ogre@@QAE@XZ
	mov	eax, DWORD PTR fs:0
	push	eax
	push	ecx
	mov	eax, DWORD PTR ___security_cookie
	xor	eax, ebp
	push	eax
	lea	eax, DWORD PTR __$EHRec$[ebp]
	mov	DWORD PTR fs:0, eax
	mov	DWORD PTR _this$[ebp], ecx
	mov	ecx, DWORD PTR _this$[ebp]
	call	??0D3DTech@Ogre@@QAE@XZ			; Ogre::D3DTech::D3DTech
	mov	DWORD PTR __$EHRec$[ebp+8], 0
	mov	eax, DWORD PTR _this$[ebp]
	mov	DWORD PTR [eax], OFFSET ??_7D3DTech_dirdecal_lod0@Ogre@@6B@
	mov	DWORD PTR __$EHRec$[ebp+8], -1
	mov	eax, DWORD PTR _this$[ebp]
	mov	ecx, DWORD PTR __$EHRec$[ebp]
	mov	DWORD PTR fs:0, ecx
	pop	ecx
	mov	esp, ebp
	pop	ebp
	ret	0
_TEXT	ENDS
;	COMDAT text$x
text$x	SEGMENT
__unwindfunclet$??0D3DTech_dirdecal_lod0@Ogre@@QAE@XZ$0:
	mov	ecx, DWORD PTR _this$[ebp]
	jmp	??1D3DTech@Ogre@@UAE@XZ
__ehhandler$??0D3DTech_dirdecal_lod0@Ogre@@QAE@XZ:
	mov	edx, DWORD PTR [esp+8]
	lea	eax, DWORD PTR [edx+12]
	mov	ecx, DWORD PTR [edx-8]
	xor	ecx, eax
	call	@__security_check_cookie@4
	mov	eax, OFFSET __ehfuncinfo$??0D3DTech_dirdecal_lod0@Ogre@@QAE@XZ
	jmp	___CxxFrameHandler3
text$x	ENDS
??0D3DTech_dirdecal_lod0@Ogre@@QAE@XZ ENDP		; Ogre::D3DTech_dirdecal_lod0::D3DTech_dirdecal_lod0
;	COMDAT xdata$x
; File i:\svnroot\client\plugins\rendersystem_d3d9\ogred3d9tech_dirdecal.h
xdata$x	SEGMENT
__unwindtable$?clone@D3DTech_dirdecal_lod0@Ogre@@UAEPAVD3DTech@2@XZ DD 0ffffffffH
	DD	FLAT:__unwindfunclet$?clone@D3DTech_dirdecal_lod0@Ogre@@UAEPAVD3DTech@2@XZ$0
__ehfuncinfo$?clone@D3DTech_dirdecal_lod0@Ogre@@UAEPAVD3DTech@2@XZ DD 019930522H
	DD	01H
	DD	FLAT:__unwindtable$?clone@D3DTech_dirdecal_lod0@Ogre@@UAEPAVD3DTech@2@XZ
	DD	2 DUP(00H)
	DD	2 DUP(00H)
	DD	00H
	DD	00H
; Function compile flags: /Odtp
xdata$x	ENDS
;	COMDAT ?clone@D3DTech_dirdecal_lod0@Ogre@@UAEPAVD3DTech@2@XZ
_TEXT	SEGMENT
tv74 = -28						; size = 4
_this$ = -24						; size = 4
$T140625 = -20						; size = 4
$T140624 = -16						; size = 4
__$EHRec$ = -12						; size = 12
?clone@D3DTech_dirdecal_lod0@Ogre@@UAEPAVD3DTech@2@XZ PROC ; Ogre::D3DTech_dirdecal_lod0::clone, COMDAT
; _this$ = ecx

; 21   : 		{

	push	ebp
	mov	ebp, esp
	push	-1
	push	__ehhandler$?clone@D3DTech_dirdecal_lod0@Ogre@@UAEPAVD3DTech@2@XZ
	mov	eax, DWORD PTR fs:0
	push	eax
	sub	esp, 16					; 00000010H
	mov	eax, DWORD PTR ___security_cookie
	xor	eax, ebp
	push	eax
	lea	eax, DWORD PTR __$EHRec$[ebp]
	mov	DWORD PTR fs:0, eax
	mov	DWORD PTR _this$[ebp], ecx

; 22   : 			return new D3DTech_dirdecal_lod0;

	push	396					; 0000018cH
	call	??2@YAPAXI@Z				; operator new
	add	esp, 4
	mov	DWORD PTR $T140625[ebp], eax
	mov	DWORD PTR __$EHRec$[ebp+8], 0
	cmp	DWORD PTR $T140625[ebp], 0
	je	SHORT $LN3@clone@29
	mov	ecx, DWORD PTR $T140625[ebp]
	call	??0D3DTech_dirdecal_lod0@Ogre@@QAE@XZ
	mov	DWORD PTR tv74[ebp], eax
	jmp	SHORT $LN4@clone@29
$LN3@clone@29:
	mov	DWORD PTR tv74[ebp], 0
$LN4@clone@29:
	mov	eax, DWORD PTR tv74[ebp]
	mov	DWORD PTR $T140624[ebp], eax
	mov	DWORD PTR __$EHRec$[ebp+8], -1
	mov	eax, DWORD PTR $T140624[ebp]

; 23   : 		}

	mov	ecx, DWORD PTR __$EHRec$[ebp]
	mov	DWORD PTR fs:0, ecx
	pop	ecx
	mov	esp, ebp
	pop	ebp
	ret	0
_TEXT	ENDS
;	COMDAT text$x
text$x	SEGMENT
__unwindfunclet$?clone@D3DTech_dirdecal_lod0@Ogre@@UAEPAVD3DTech@2@XZ$0:
	mov	eax, DWORD PTR $T140625[ebp]
	push	eax
	call	??3@YAXPAX@Z				; operator delete
	pop	ecx
	ret	0
__ehhandler$?clone@D3DTech_dirdecal_lod0@Ogre@@UAEPAVD3DTech@2@XZ:
	mov	edx, DWORD PTR [esp+8]
	lea	eax, DWORD PTR [edx+12]
	mov	ecx, DWORD PTR [edx-20]
	xor	ecx, eax
	call	@__security_check_cookie@4
	mov	eax, OFFSET __ehfuncinfo$?clone@D3DTech_dirdecal_lod0@Ogre@@UAEPAVD3DTech@2@XZ
	jmp	___CxxFrameHandler3
text$x	ENDS
?clone@D3DTech_dirdecal_lod0@Ogre@@UAEPAVD3DTech@2@XZ ENDP ; Ogre::D3DTech_dirdecal_lod0::clone
; Function compile flags: /Odtp
;	COMDAT ?init@D3DTech_dirdecal_lod0@Ogre@@UAEXABUShaderEnvFlags@2@ABUMaterialMacro@2@@Z
_TEXT	SEGMENT
_this$ = -12						; size = 4
_indx$133925 = -8					; size = 4
_i$133921 = -4						; size = 4
_env$ = 8						; size = 4
_macros$ = 12						; size = 4
?init@D3DTech_dirdecal_lod0@Ogre@@UAEXABUShaderEnvFlags@2@ABUMaterialMacro@2@@Z PROC ; Ogre::D3DTech_dirdecal_lod0::init, COMDAT
; _this$ = ecx

; 26   : 		{

	push	ebp
	mov	ebp, esp
	sub	esp, 12					; 0000000cH
	mov	DWORD PTR _this$[ebp], ecx

; 27   : 			m_isAdd = 0;

	mov	eax, DWORD PTR _this$[ebp]
	mov	BYTE PTR [eax+392], 0

; 28   : 
; 29   : 			for(int i=0; i<MaterialMacro::MAX_MACRO; i++)

	mov	DWORD PTR _i$133921[ebp], 0
	jmp	SHORT $LN7@init@15
$LN6@init@15:
	mov	ecx, DWORD PTR _i$133921[ebp]
	add	ecx, 1
	mov	DWORD PTR _i$133921[ebp], ecx
$LN7@init@15:
	cmp	DWORD PTR _i$133921[ebp], 4
	jge	SHORT $LN5@init@15

; 30   : 			{
; 31   : 				int indx = macros.indices[i];

	mov	edx, DWORD PTR _macros$[ebp]
	add	edx, DWORD PTR _i$133921[ebp]
	movzx	eax, BYTE PTR [edx]
	mov	DWORD PTR _indx$133925[ebp], eax

; 32   : 				if(indx == 0) break;

	cmp	DWORD PTR _indx$133925[ebp], 0
	jne	SHORT $LN4@init@15
	jmp	SHORT $LN5@init@15
$LN4@init@15:

; 33   : 
; 34   : 				if(indx == MTLPARAM_BLEND_MODE)

	cmp	DWORD PTR _indx$133925[ebp], 1
	jne	SHORT $LN3@init@15

; 35   : 				{
; 36   : 					// 
; 37   : 					if(macros.value[i] == 1) m_isAdd = 0;

	mov	ecx, DWORD PTR _macros$[ebp]
	add	ecx, DWORD PTR _i$133921[ebp]
	movzx	edx, BYTE PTR [ecx+4]
	cmp	edx, 1
	jne	SHORT $LN2@init@15
	mov	eax, DWORD PTR _this$[ebp]
	mov	BYTE PTR [eax+392], 0
	jmp	SHORT $LN3@init@15
$LN2@init@15:

; 38   : 					else m_isAdd = 1;

	mov	ecx, DWORD PTR _this$[ebp]
	mov	BYTE PTR [ecx+392], 1
$LN3@init@15:

; 39   : 				}
; 40   : 			}

	jmp	SHORT $LN6@init@15
$LN5@init@15:

; 41   : 
; 42   : 			m_nPass = 1;

	mov	edx, DWORD PTR _this$[ebp]
	mov	DWORD PTR [edx+188], 1

; 43   : 			m_AllPass[0].vs = m_pMtlTemplate->getCompiledVSPS(COMPILED_VS, "Main", env, macros);

	mov	eax, DWORD PTR _macros$[ebp]
	push	eax
	mov	ecx, DWORD PTR _env$[ebp]
	push	ecx
	push	OFFSET ??_C@_04KGFMLCPK@Main?$AA@
	push	1
	mov	edx, DWORD PTR _this$[ebp]
	mov	ecx, DWORD PTR [edx+8]
	call	?getCompiledVSPS@D3DMaterialTemplate@Ogre@@QAEPAVCompiledShader@2@W4COMPILED_TYPE@2@PBDABUShaderEnvFlags@2@ABUMaterialMacro@2@@Z ; Ogre::D3DMaterialTemplate::getCompiledVSPS
	mov	ecx, DWORD PTR _this$[ebp]
	mov	DWORD PTR [ecx+12], eax

; 44   : 			m_AllPass[0].ps = m_pMtlTemplate->getCompiledVSPS(COMPILED_PS, "Main", env, macros);

	mov	edx, DWORD PTR _macros$[ebp]
	push	edx
	mov	eax, DWORD PTR _env$[ebp]
	push	eax
	push	OFFSET ??_C@_04KGFMLCPK@Main?$AA@
	push	2
	mov	ecx, DWORD PTR _this$[ebp]
	mov	ecx, DWORD PTR [ecx+8]
	call	?getCompiledVSPS@D3DMaterialTemplate@Ogre@@QAEPAVCompiledShader@2@W4COMPILED_TYPE@2@PBDABUShaderEnvFlags@2@ABUMaterialMacro@2@@Z ; Ogre::D3DMaterialTemplate::getCompiledVSPS
	mov	edx, DWORD PTR _this$[ebp]
	mov	DWORD PTR [edx+16], eax

; 45   : 
; 46   : 			m_AllPass[0].ntex = 1;

	mov	eax, DWORD PTR _this$[ebp]
	mov	DWORD PTR [eax+20], 1

; 47   : 			m_AllPass[0].texstage[0] = SPU_GENERAL_PARAM + 1; //diffusetex

	mov	ecx, DWORD PTR _this$[ebp]
	mov	DWORD PTR [ecx+24], 1001		; 000003e9H

; 48   : 
; 49   : 			initParams();

	mov	ecx, DWORD PTR _this$[ebp]
	call	?initParams@D3DTech@Ogre@@IAEXXZ	; Ogre::D3DTech::initParams

; 50   : 			m_UsedMacroMask = m_isAdd;

	mov	edx, DWORD PTR _this$[ebp]
	movzx	eax, BYTE PTR [edx+392]
	mov	ecx, DWORD PTR _this$[ebp]
	mov	DWORD PTR [ecx+4], eax

; 51   : 		}

	mov	esp, ebp
	pop	ebp
	ret	8
?init@D3DTech_dirdecal_lod0@Ogre@@UAEXABUShaderEnvFlags@2@ABUMaterialMacro@2@@Z ENDP ; Ogre::D3DTech_dirdecal_lod0::init
; Function compile flags: /Odtp
_TEXT	ENDS
;	COMDAT ?beginPass@D3DTech_dirdecal_lod0@Ogre@@UAEXI@Z
_TEXT	SEGMENT
_this$ = -4						; size = 4
_ipass$ = 8						; size = 4
?beginPass@D3DTech_dirdecal_lod0@Ogre@@UAEXI@Z PROC	; Ogre::D3DTech_dirdecal_lod0::beginPass, COMDAT
; _this$ = ecx

; 54   : 		{

	push	ebp
	mov	ebp, esp
	push	ecx
	mov	DWORD PTR _this$[ebp], ecx

; 55   : 			m_CurPass = ipass;

	mov	eax, DWORD PTR _this$[ebp]
	mov	ecx, DWORD PTR _ipass$[ebp]
	mov	DWORD PTR [eax+192], ecx

; 56   : 
; 57   : 			if(m_isAdd)

	mov	edx, DWORD PTR _this$[ebp]
	movzx	eax, BYTE PTR [edx+392]
	test	eax, eax
	je	SHORT $LN2@beginPass@9

; 58   : 				SetBlendState(m_pDevice, BLEND_ADD);

	push	-1
	push	4
	mov	ecx, DWORD PTR ?m_pDevice@D3DTech@Ogre@@2PAUIDirect3DDevice9@@A ; Ogre::D3DTech::m_pDevice
	push	ecx
	call	?SetBlendState@Ogre@@YAXPAUIDirect3DDevice9@@HH@Z ; Ogre::SetBlendState
	add	esp, 12					; 0000000cH

; 59   : 			else 

	jmp	SHORT $LN1@beginPass@9
$LN2@beginPass@9:

; 60   : 				SetBlendState(m_pDevice, BLEND_ALPHABLEND);

	push	-1
	push	2
	mov	edx, DWORD PTR ?m_pDevice@D3DTech@Ogre@@2PAUIDirect3DDevice9@@A ; Ogre::D3DTech::m_pDevice
	push	edx
	call	?SetBlendState@Ogre@@YAXPAUIDirect3DDevice9@@HH@Z ; Ogre::SetBlendState
	add	esp, 12					; 0000000cH
$LN1@beginPass@9:

; 61   : 			
; 62   : 			m_pDevice->SetRenderState(D3DRS_CULLMODE, D3DCULL_NONE);

	push	1
	push	22					; 00000016H
	mov	eax, DWORD PTR ?m_pDevice@D3DTech@Ogre@@2PAUIDirect3DDevice9@@A ; Ogre::D3DTech::m_pDevice
	mov	ecx, DWORD PTR [eax]
	mov	edx, DWORD PTR ?m_pDevice@D3DTech@Ogre@@2PAUIDirect3DDevice9@@A ; Ogre::D3DTech::m_pDevice
	push	edx
	mov	eax, DWORD PTR [ecx+228]
	call	eax

; 63   : 
; 64   : 			SamplerState_Border(m_pDevice, 0);

	push	0
	push	0
	mov	ecx, DWORD PTR ?m_pDevice@D3DTech@Ogre@@2PAUIDirect3DDevice9@@A ; Ogre::D3DTech::m_pDevice
	push	ecx
	call	?SamplerState_Border@Ogre@@YAXPAUIDirect3DDevice9@@HI@Z ; Ogre::SamplerState_Border
	add	esp, 12					; 0000000cH

; 65   : 
; 66   : 			applyVSPS(m_CurPass);

	mov	edx, DWORD PTR _this$[ebp]
	mov	eax, DWORD PTR [edx+192]
	push	eax
	mov	ecx, DWORD PTR _this$[ebp]
	call	?applyVSPS@D3DTech@Ogre@@IAEXI@Z	; Ogre::D3DTech::applyVSPS

; 67   : 		}

	mov	esp, ebp
	pop	ebp
	ret	4
?beginPass@D3DTech_dirdecal_lod0@Ogre@@UAEXI@Z ENDP	; Ogre::D3DTech_dirdecal_lod0::beginPass
; Function compile flags: /Odtp
_TEXT	ENDS
;	COMDAT ?endPass@D3DTech_dirdecal_lod0@Ogre@@UAEXXZ
_TEXT	SEGMENT
_this$ = -4						; size = 4
?endPass@D3DTech_dirdecal_lod0@Ogre@@UAEXXZ PROC	; Ogre::D3DTech_dirdecal_lod0::endPass, COMDAT
; _this$ = ecx

; 70   : 		{

	push	ebp
	mov	ebp, esp
	push	ecx
	mov	DWORD PTR _this$[ebp], ecx

; 71   : 			SetBlendState(m_pDevice, BLEND_OPAQUE);

	push	-1
	push	0
	mov	eax, DWORD PTR ?m_pDevice@D3DTech@Ogre@@2PAUIDirect3DDevice9@@A ; Ogre::D3DTech::m_pDevice
	push	eax
	call	?SetBlendState@Ogre@@YAXPAUIDirect3DDevice9@@HH@Z ; Ogre::SetBlendState
	add	esp, 12					; 0000000cH

; 72   : 		}

	mov	esp, ebp
	pop	ebp
	ret	0
?endPass@D3DTech_dirdecal_lod0@Ogre@@UAEXXZ ENDP	; Ogre::D3DTech_dirdecal_lod0::endPass
_TEXT	ENDS
PUBLIC	??1D3DTech_dirdecal_lod0@Ogre@@UAE@XZ		; Ogre::D3DTech_dirdecal_lod0::~D3DTech_dirdecal_lod0
; Function compile flags: /Odtp
;	COMDAT ??_GD3DTech_dirdecal_lod0@Ogre@@UAEPAXI@Z
_TEXT	SEGMENT
_this$ = -4						; size = 4
___flags$ = 8						; size = 4
??_GD3DTech_dirdecal_lod0@Ogre@@UAEPAXI@Z PROC		; Ogre::D3DTech_dirdecal_lod0::`scalar deleting destructor', COMDAT
; _this$ = ecx
	push	ebp
	mov	ebp, esp
	push	ecx
	mov	DWORD PTR _this$[ebp], ecx
	mov	ecx, DWORD PTR _this$[ebp]
	call	??1D3DTech_dirdecal_lod0@Ogre@@UAE@XZ
	mov	eax, DWORD PTR ___flags$[ebp]
	and	eax, 1
	je	SHORT $LN1@scalar@30
	mov	ecx, DWORD PTR _this$[ebp]
	push	ecx
	call	??3@YAXPAX@Z				; operator delete
	add	esp, 4
$LN1@scalar@30:
	mov	eax, DWORD PTR _this$[ebp]
	mov	esp, ebp
	pop	ebp
	ret	4
??_GD3DTech_dirdecal_lod0@Ogre@@UAEPAXI@Z ENDP		; Ogre::D3DTech_dirdecal_lod0::`scalar deleting destructor'
_TEXT	ENDS
;	COMDAT xdata$x
xdata$x	SEGMENT
__unwindtable$??1D3DTech_dirdecal_lod0@Ogre@@UAE@XZ DD 0ffffffffH
	DD	FLAT:__unwindfunclet$??1D3DTech_dirdecal_lod0@Ogre@@UAE@XZ$0
__ehfuncinfo$??1D3DTech_dirdecal_lod0@Ogre@@UAE@XZ DD 019930522H
	DD	01H
	DD	FLAT:__unwindtable$??1D3DTech_dirdecal_lod0@Ogre@@UAE@XZ
	DD	2 DUP(00H)
	DD	2 DUP(00H)
	DD	00H
	DD	00H
; Function compile flags: /Odtp
xdata$x	ENDS
;	COMDAT ??1D3DTech_dirdecal_lod0@Ogre@@UAE@XZ
_TEXT	SEGMENT
_this$ = -16						; size = 4
__$EHRec$ = -12						; size = 12
??1D3DTech_dirdecal_lod0@Ogre@@UAE@XZ PROC		; Ogre::D3DTech_dirdecal_lod0::~D3DTech_dirdecal_lod0, COMDAT
; _this$ = ecx
	push	ebp
	mov	ebp, esp
	push	-1
	push	__ehhandler$??1D3DTech_dirdecal_lod0@Ogre@@UAE@XZ
	mov	eax, DWORD PTR fs:0
	push	eax
	push	ecx
	mov	eax, DWORD PTR ___security_cookie
	xor	eax, ebp
	push	eax
	lea	eax, DWORD PTR __$EHRec$[ebp]
	mov	DWORD PTR fs:0, eax
	mov	DWORD PTR _this$[ebp], ecx
	mov	DWORD PTR __$EHRec$[ebp+8], 0
	mov	DWORD PTR __$EHRec$[ebp+8], -1
	mov	ecx, DWORD PTR _this$[ebp]
	call	??1D3DTech@Ogre@@UAE@XZ
	mov	ecx, DWORD PTR __$EHRec$[ebp]
	mov	DWORD PTR fs:0, ecx
	pop	ecx
	mov	esp, ebp
	pop	ebp
	ret	0
_TEXT	ENDS
;	COMDAT text$x
text$x	SEGMENT
__unwindfunclet$??1D3DTech_dirdecal_lod0@Ogre@@UAE@XZ$0:
	mov	ecx, DWORD PTR _this$[ebp]
	jmp	??1D3DTech@Ogre@@UAE@XZ
__ehhandler$??1D3DTech_dirdecal_lod0@Ogre@@UAE@XZ:
	mov	edx, DWORD PTR [esp+8]
	lea	eax, DWORD PTR [edx+12]
	mov	ecx, DWORD PTR [edx-8]
	xor	ecx, eax
	call	@__security_check_cookie@4
	mov	eax, OFFSET __ehfuncinfo$??1D3DTech_dirdecal_lod0@Ogre@@UAE@XZ
	jmp	___CxxFrameHandler3
text$x	ENDS
??1D3DTech_dirdecal_lod0@Ogre@@UAE@XZ ENDP		; Ogre::D3DTech_dirdecal_lod0::~D3DTech_dirdecal_lod0
PUBLIC	??_7D3DTech_beach_lod0@Ogre@@6B@		; Ogre::D3DTech_beach_lod0::`vftable'
PUBLIC	??_R4D3DTech_beach_lod0@Ogre@@6B@		; Ogre::D3DTech_beach_lod0::`RTTI Complete Object Locator'
PUBLIC	??_R0?AVD3DTech_beach_lod0@Ogre@@@8		; Ogre::D3DTech_beach_lod0 `RTTI Type Descriptor'
PUBLIC	??_R3D3DTech_beach_lod0@Ogre@@8			; Ogre::D3DTech_beach_lod0::`RTTI Class Hierarchy Descriptor'
PUBLIC	??_R2D3DTech_beach_lod0@Ogre@@8			; Ogre::D3DTech_beach_lod0::`RTTI Base Class Array'
PUBLIC	??_R1A@?0A@EA@D3DTech_beach_lod0@Ogre@@8	; Ogre::D3DTech_beach_lod0::`RTTI Base Class Descriptor at (0,-1,0,64)'
PUBLIC	?beginPass@D3DTech_beach_lod0@Ogre@@UAEXI@Z	; Ogre::D3DTech_beach_lod0::beginPass
PUBLIC	?endPass@D3DTech_beach_lod0@Ogre@@UAEXXZ	; Ogre::D3DTech_beach_lod0::endPass
PUBLIC	?clone@D3DTech_beach_lod0@Ogre@@UAEPAVD3DTech@2@XZ ; Ogre::D3DTech_beach_lod0::clone
PUBLIC	?init@D3DTech_beach_lod0@Ogre@@UAEXABUShaderEnvFlags@2@ABUMaterialMacro@2@@Z ; Ogre::D3DTech_beach_lod0::init
EXTRN	??_ED3DTech_beach_lod0@Ogre@@UAEPAXI@Z:PROC	; Ogre::D3DTech_beach_lod0::`vector deleting destructor'
;	COMDAT ??_R1A@?0A@EA@D3DTech_beach_lod0@Ogre@@8
rdata$r	SEGMENT
??_R1A@?0A@EA@D3DTech_beach_lod0@Ogre@@8 DD FLAT:??_R0?AVD3DTech_beach_lod0@Ogre@@@8 ; Ogre::D3DTech_beach_lod0::`RTTI Base Class Descriptor at (0,-1,0,64)'
	DD	02H
	DD	00H
	DD	0ffffffffH
	DD	00H
	DD	040H
	DD	FLAT:??_R3D3DTech_beach_lod0@Ogre@@8
rdata$r	ENDS
;	COMDAT ??_R2D3DTech_beach_lod0@Ogre@@8
rdata$r	SEGMENT
??_R2D3DTech_beach_lod0@Ogre@@8 DD FLAT:??_R1A@?0A@EA@D3DTech_beach_lod0@Ogre@@8 ; Ogre::D3DTech_beach_lod0::`RTTI Base Class Array'
	DD	FLAT:??_R1A@?0A@EA@D3DTech@Ogre@@8
	DD	FLAT:??_R1A@?0A@EA@ShaderTechnique@Ogre@@8
rdata$r	ENDS
;	COMDAT ??_R3D3DTech_beach_lod0@Ogre@@8
rdata$r	SEGMENT
??_R3D3DTech_beach_lod0@Ogre@@8 DD 00H			; Ogre::D3DTech_beach_lod0::`RTTI Class Hierarchy Descriptor'
	DD	00H
	DD	03H
	DD	FLAT:??_R2D3DTech_beach_lod0@Ogre@@8
rdata$r	ENDS
;	COMDAT ??_R0?AVD3DTech_beach_lod0@Ogre@@@8
_DATA	SEGMENT
??_R0?AVD3DTech_beach_lod0@Ogre@@@8 DD FLAT:??_7type_info@@6B@ ; Ogre::D3DTech_beach_lod0 `RTTI Type Descriptor'
	DD	00H
	DB	'.?AVD3DTech_beach_lod0@Ogre@@', 00H
_DATA	ENDS
;	COMDAT ??_R4D3DTech_beach_lod0@Ogre@@6B@
rdata$r	SEGMENT
??_R4D3DTech_beach_lod0@Ogre@@6B@ DD 00H		; Ogre::D3DTech_beach_lod0::`RTTI Complete Object Locator'
	DD	00H
	DD	00H
	DD	FLAT:??_R0?AVD3DTech_beach_lod0@Ogre@@@8
	DD	FLAT:??_R3D3DTech_beach_lod0@Ogre@@8
rdata$r	ENDS
;	COMDAT ??_7D3DTech_beach_lod0@Ogre@@6B@
CONST	SEGMENT
??_7D3DTech_beach_lod0@Ogre@@6B@ DD FLAT:??_R4D3DTech_beach_lod0@Ogre@@6B@ ; Ogre::D3DTech_beach_lod0::`vftable'
	DD	FLAT:?begin@D3DTech@Ogre@@UAEIXZ
	DD	FLAT:?end@D3DTech@Ogre@@UAEXXZ
	DD	FLAT:?beginPass@D3DTech_beach_lod0@Ogre@@UAEXI@Z
	DD	FLAT:?endPass@D3DTech_beach_lod0@Ogre@@UAEXXZ
	DD	FLAT:?setConstant@D3DTech@Ogre@@UAEXW4ShaderParamUsage@2@PBXI@Z
	DD	FLAT:?setConstant@D3DTech@Ogre@@UAEXPBDPBXI@Z
	DD	FLAT:?setTexture@D3DTech@Ogre@@UAEXW4ShaderParamUsage@2@PAVHardwarePixelBuffer@2@@Z
	DD	FLAT:?setTexture@D3DTech@Ogre@@UAEXPBDPAVHardwarePixelBuffer@2@@Z
	DD	FLAT:?setStreamInput@D3DTech@Ogre@@UAEXIPAPAVHardwareVertexBuffer@2@HPAI@Z
	DD	FLAT:?setStreamInput@D3DTech@Ogre@@UAEXIPAVHardwareVertexBuffer@2@I@Z
	DD	FLAT:?setStreamInput@D3DTech@Ogre@@UAEXIPAPAVHardwareVertexBuffer@2@PAI@Z
	DD	FLAT:?commitChanges@D3DTech@Ogre@@UAEXXZ
	DD	FLAT:?draw@D3DTech@Ogre@@UAEXW4PrimitiveType@2@IIPAVHardwareIndexBuffer@2@II@Z
	DD	FLAT:?draw@D3DTech@Ogre@@UAEXW4PrimitiveType@2@II@Z
	DD	FLAT:?getRequiredParams@D3DTech@Ogre@@UAEIPAW4ShaderParamUsage@2@I@Z
	DD	FLAT:??_ED3DTech_beach_lod0@Ogre@@UAEPAXI@Z
	DD	FLAT:?clone@D3DTech_beach_lod0@Ogre@@UAEPAVD3DTech@2@XZ
	DD	FLAT:?init@D3DTech_beach_lod0@Ogre@@UAEXABUShaderEnvFlags@2@ABUMaterialMacro@2@@Z
CONST	ENDS
;	COMDAT xdata$x
xdata$x	SEGMENT
__unwindtable$??0D3DTech_beach_lod0@Ogre@@QAE@XZ DD 0ffffffffH
	DD	FLAT:__unwindfunclet$??0D3DTech_beach_lod0@Ogre@@QAE@XZ$0
__ehfuncinfo$??0D3DTech_beach_lod0@Ogre@@QAE@XZ DD 019930522H
	DD	01H
	DD	FLAT:__unwindtable$??0D3DTech_beach_lod0@Ogre@@QAE@XZ
	DD	2 DUP(00H)
	DD	2 DUP(00H)
	DD	00H
	DD	00H
; Function compile flags: /Odtp
xdata$x	ENDS
;	COMDAT ??0D3DTech_beach_lod0@Ogre@@QAE@XZ
_TEXT	SEGMENT
_this$ = -16						; size = 4
__$EHRec$ = -12						; size = 12
??0D3DTech_beach_lod0@Ogre@@QAE@XZ PROC			; Ogre::D3DTech_beach_lod0::D3DTech_beach_lod0, COMDAT
; _this$ = ecx
	push	ebp
	mov	ebp, esp
	push	-1
	push	__ehhandler$??0D3DTech_beach_lod0@Ogre@@QAE@XZ
	mov	eax, DWORD PTR fs:0
	push	eax
	push	ecx
	mov	eax, DWORD PTR ___security_cookie
	xor	eax, ebp
	push	eax
	lea	eax, DWORD PTR __$EHRec$[ebp]
	mov	DWORD PTR fs:0, eax
	mov	DWORD PTR _this$[ebp], ecx
	mov	ecx, DWORD PTR _this$[ebp]
	call	??0D3DTech@Ogre@@QAE@XZ			; Ogre::D3DTech::D3DTech
	mov	DWORD PTR __$EHRec$[ebp+8], 0
	mov	eax, DWORD PTR _this$[ebp]
	mov	DWORD PTR [eax], OFFSET ??_7D3DTech_beach_lod0@Ogre@@6B@
	mov	DWORD PTR __$EHRec$[ebp+8], -1
	mov	eax, DWORD PTR _this$[ebp]
	mov	ecx, DWORD PTR __$EHRec$[ebp]
	mov	DWORD PTR fs:0, ecx
	pop	ecx
	mov	esp, ebp
	pop	ebp
	ret	0
_TEXT	ENDS
;	COMDAT text$x
text$x	SEGMENT
__unwindfunclet$??0D3DTech_beach_lod0@Ogre@@QAE@XZ$0:
	mov	ecx, DWORD PTR _this$[ebp]
	jmp	??1D3DTech@Ogre@@UAE@XZ
__ehhandler$??0D3DTech_beach_lod0@Ogre@@QAE@XZ:
	mov	edx, DWORD PTR [esp+8]
	lea	eax, DWORD PTR [edx+12]
	mov	ecx, DWORD PTR [edx-8]
	xor	ecx, eax
	call	@__security_check_cookie@4
	mov	eax, OFFSET __ehfuncinfo$??0D3DTech_beach_lod0@Ogre@@QAE@XZ
	jmp	___CxxFrameHandler3
text$x	ENDS
??0D3DTech_beach_lod0@Ogre@@QAE@XZ ENDP			; Ogre::D3DTech_beach_lod0::D3DTech_beach_lod0
;	COMDAT xdata$x
; File i:\svnroot\client\plugins\rendersystem_d3d9\ogred3d9tech_beach.h
xdata$x	SEGMENT
__unwindtable$?clone@D3DTech_beach_lod0@Ogre@@UAEPAVD3DTech@2@XZ DD 0ffffffffH
	DD	FLAT:__unwindfunclet$?clone@D3DTech_beach_lod0@Ogre@@UAEPAVD3DTech@2@XZ$0
__ehfuncinfo$?clone@D3DTech_beach_lod0@Ogre@@UAEPAVD3DTech@2@XZ DD 019930522H
	DD	01H
	DD	FLAT:__unwindtable$?clone@D3DTech_beach_lod0@Ogre@@UAEPAVD3DTech@2@XZ
	DD	2 DUP(00H)
	DD	2 DUP(00H)
	DD	00H
	DD	00H
; Function compile flags: /Odtp
xdata$x	ENDS
;	COMDAT ?clone@D3DTech_beach_lod0@Ogre@@UAEPAVD3DTech@2@XZ
_TEXT	SEGMENT
tv74 = -28						; size = 4
_this$ = -24						; size = 4
$T140664 = -20						; size = 4
$T140663 = -16						; size = 4
__$EHRec$ = -12						; size = 12
?clone@D3DTech_beach_lod0@Ogre@@UAEPAVD3DTech@2@XZ PROC	; Ogre::D3DTech_beach_lod0::clone, COMDAT
; _this$ = ecx

; 21   : 		{

	push	ebp
	mov	ebp, esp
	push	-1
	push	__ehhandler$?clone@D3DTech_beach_lod0@Ogre@@UAEPAVD3DTech@2@XZ
	mov	eax, DWORD PTR fs:0
	push	eax
	sub	esp, 16					; 00000010H
	mov	eax, DWORD PTR ___security_cookie
	xor	eax, ebp
	push	eax
	lea	eax, DWORD PTR __$EHRec$[ebp]
	mov	DWORD PTR fs:0, eax
	mov	DWORD PTR _this$[ebp], ecx

; 22   : 			return new D3DTech_beach_lod0;

	push	396					; 0000018cH
	call	??2@YAPAXI@Z				; operator new
	add	esp, 4
	mov	DWORD PTR $T140664[ebp], eax
	mov	DWORD PTR __$EHRec$[ebp+8], 0
	cmp	DWORD PTR $T140664[ebp], 0
	je	SHORT $LN3@clone@30
	mov	ecx, DWORD PTR $T140664[ebp]
	call	??0D3DTech_beach_lod0@Ogre@@QAE@XZ
	mov	DWORD PTR tv74[ebp], eax
	jmp	SHORT $LN4@clone@30
$LN3@clone@30:
	mov	DWORD PTR tv74[ebp], 0
$LN4@clone@30:
	mov	eax, DWORD PTR tv74[ebp]
	mov	DWORD PTR $T140663[ebp], eax
	mov	DWORD PTR __$EHRec$[ebp+8], -1
	mov	eax, DWORD PTR $T140663[ebp]

; 23   : 		}

	mov	ecx, DWORD PTR __$EHRec$[ebp]
	mov	DWORD PTR fs:0, ecx
	pop	ecx
	mov	esp, ebp
	pop	ebp
	ret	0
_TEXT	ENDS
;	COMDAT text$x
text$x	SEGMENT
__unwindfunclet$?clone@D3DTech_beach_lod0@Ogre@@UAEPAVD3DTech@2@XZ$0:
	mov	eax, DWORD PTR $T140664[ebp]
	push	eax
	call	??3@YAXPAX@Z				; operator delete
	pop	ecx
	ret	0
__ehhandler$?clone@D3DTech_beach_lod0@Ogre@@UAEPAVD3DTech@2@XZ:
	mov	edx, DWORD PTR [esp+8]
	lea	eax, DWORD PTR [edx+12]
	mov	ecx, DWORD PTR [edx-20]
	xor	ecx, eax
	call	@__security_check_cookie@4
	mov	eax, OFFSET __ehfuncinfo$?clone@D3DTech_beach_lod0@Ogre@@UAEPAVD3DTech@2@XZ
	jmp	___CxxFrameHandler3
text$x	ENDS
?clone@D3DTech_beach_lod0@Ogre@@UAEPAVD3DTech@2@XZ ENDP	; Ogre::D3DTech_beach_lod0::clone
; Function compile flags: /Odtp
;	COMDAT ?init@D3DTech_beach_lod0@Ogre@@UAEXABUShaderEnvFlags@2@ABUMaterialMacro@2@@Z
_TEXT	SEGMENT
_this$ = -12						; size = 4
_indx$133981 = -8					; size = 4
_i$133977 = -4						; size = 4
_env$ = 8						; size = 4
_macros$ = 12						; size = 4
?init@D3DTech_beach_lod0@Ogre@@UAEXABUShaderEnvFlags@2@ABUMaterialMacro@2@@Z PROC ; Ogre::D3DTech_beach_lod0::init, COMDAT
; _this$ = ecx

; 26   : 		{

	push	ebp
	mov	ebp, esp
	sub	esp, 12					; 0000000cH
	mov	DWORD PTR _this$[ebp], ecx

; 27   : 			m_isAdd = 0;

	mov	eax, DWORD PTR _this$[ebp]
	mov	BYTE PTR [eax+392], 0

; 28   : 
; 29   : 			for(int i=0; i<MaterialMacro::MAX_MACRO; i++)

	mov	DWORD PTR _i$133977[ebp], 0
	jmp	SHORT $LN7@init@16
$LN6@init@16:
	mov	ecx, DWORD PTR _i$133977[ebp]
	add	ecx, 1
	mov	DWORD PTR _i$133977[ebp], ecx
$LN7@init@16:
	cmp	DWORD PTR _i$133977[ebp], 4
	jge	SHORT $LN5@init@16

; 30   : 			{
; 31   : 				int indx = macros.indices[i];

	mov	edx, DWORD PTR _macros$[ebp]
	add	edx, DWORD PTR _i$133977[ebp]
	movzx	eax, BYTE PTR [edx]
	mov	DWORD PTR _indx$133981[ebp], eax

; 32   : 				if(indx == 0) break;

	cmp	DWORD PTR _indx$133981[ebp], 0
	jne	SHORT $LN4@init@16
	jmp	SHORT $LN5@init@16
$LN4@init@16:

; 33   : 
; 34   : 				if(indx == MTLPARAM_BLEND_MODE)

	cmp	DWORD PTR _indx$133981[ebp], 1
	jne	SHORT $LN3@init@16

; 35   : 				{
; 36   : 					if(macros.value[i] == BLEND_ALPHABLEND) m_isAdd = 0;

	mov	ecx, DWORD PTR _macros$[ebp]
	add	ecx, DWORD PTR _i$133977[ebp]
	movzx	edx, BYTE PTR [ecx+4]
	cmp	edx, 2
	jne	SHORT $LN2@init@16
	mov	eax, DWORD PTR _this$[ebp]
	mov	BYTE PTR [eax+392], 0
	jmp	SHORT $LN3@init@16
$LN2@init@16:

; 37   : 					else m_isAdd = 1;

	mov	ecx, DWORD PTR _this$[ebp]
	mov	BYTE PTR [ecx+392], 1
$LN3@init@16:

; 38   : 				}
; 39   : 			}

	jmp	SHORT $LN6@init@16
$LN5@init@16:

; 40   : 
; 41   : 			m_nPass = 1;

	mov	edx, DWORD PTR _this$[ebp]
	mov	DWORD PTR [edx+188], 1

; 42   : 			m_AllPass[0].vs = m_pMtlTemplate->getCompiledVSPS(COMPILED_VS, "Main", env, macros);

	mov	eax, DWORD PTR _macros$[ebp]
	push	eax
	mov	ecx, DWORD PTR _env$[ebp]
	push	ecx
	push	OFFSET ??_C@_04KGFMLCPK@Main?$AA@
	push	1
	mov	edx, DWORD PTR _this$[ebp]
	mov	ecx, DWORD PTR [edx+8]
	call	?getCompiledVSPS@D3DMaterialTemplate@Ogre@@QAEPAVCompiledShader@2@W4COMPILED_TYPE@2@PBDABUShaderEnvFlags@2@ABUMaterialMacro@2@@Z ; Ogre::D3DMaterialTemplate::getCompiledVSPS
	mov	ecx, DWORD PTR _this$[ebp]
	mov	DWORD PTR [ecx+12], eax

; 43   : 			m_AllPass[0].ps = m_pMtlTemplate->getCompiledVSPS(COMPILED_PS, "Main", env, macros);

	mov	edx, DWORD PTR _macros$[ebp]
	push	edx
	mov	eax, DWORD PTR _env$[ebp]
	push	eax
	push	OFFSET ??_C@_04KGFMLCPK@Main?$AA@
	push	2
	mov	ecx, DWORD PTR _this$[ebp]
	mov	ecx, DWORD PTR [ecx+8]
	call	?getCompiledVSPS@D3DMaterialTemplate@Ogre@@QAEPAVCompiledShader@2@W4COMPILED_TYPE@2@PBDABUShaderEnvFlags@2@ABUMaterialMacro@2@@Z ; Ogre::D3DMaterialTemplate::getCompiledVSPS
	mov	edx, DWORD PTR _this$[ebp]
	mov	DWORD PTR [edx+16], eax

; 44   : 
; 45   : 			m_AllPass[0].ntex = 2;

	mov	eax, DWORD PTR _this$[ebp]
	mov	DWORD PTR [eax+20], 2

; 46   : 			m_AllPass[0].texstage[0] = SPU_GENERAL_PARAM + 1; //diffusetex

	mov	ecx, DWORD PTR _this$[ebp]
	mov	DWORD PTR [ecx+24], 1001		; 000003e9H

; 47   : 			m_AllPass[0].texstage[1] = SPU_GENERAL_PARAM + 2; //masktex

	mov	edx, DWORD PTR _this$[ebp]
	mov	DWORD PTR [edx+28], 1002		; 000003eaH

; 48   : 
; 49   : 			initParams();

	mov	ecx, DWORD PTR _this$[ebp]
	call	?initParams@D3DTech@Ogre@@IAEXXZ	; Ogre::D3DTech::initParams

; 50   : 			m_UsedMacroMask = m_isAdd;

	mov	eax, DWORD PTR _this$[ebp]
	movzx	ecx, BYTE PTR [eax+392]
	mov	edx, DWORD PTR _this$[ebp]
	mov	DWORD PTR [edx+4], ecx

; 51   : 		}

	mov	esp, ebp
	pop	ebp
	ret	8
?init@D3DTech_beach_lod0@Ogre@@UAEXABUShaderEnvFlags@2@ABUMaterialMacro@2@@Z ENDP ; Ogre::D3DTech_beach_lod0::init
; Function compile flags: /Odtp
_TEXT	ENDS
;	COMDAT ?beginPass@D3DTech_beach_lod0@Ogre@@UAEXI@Z
_TEXT	SEGMENT
_this$ = -4						; size = 4
_ipass$ = 8						; size = 4
?beginPass@D3DTech_beach_lod0@Ogre@@UAEXI@Z PROC	; Ogre::D3DTech_beach_lod0::beginPass, COMDAT
; _this$ = ecx

; 54   : 		{

	push	ebp
	mov	ebp, esp
	push	ecx
	mov	DWORD PTR _this$[ebp], ecx

; 55   : 			m_CurPass = ipass;

	mov	eax, DWORD PTR _this$[ebp]
	mov	ecx, DWORD PTR _ipass$[ebp]
	mov	DWORD PTR [eax+192], ecx

; 56   : 
; 57   : 			if(m_isAdd) SetBlendState(m_pDevice, BLEND_ADD);

	mov	edx, DWORD PTR _this$[ebp]
	movzx	eax, BYTE PTR [edx+392]
	test	eax, eax
	je	SHORT $LN2@beginPass@10
	push	-1
	push	4
	mov	ecx, DWORD PTR ?m_pDevice@D3DTech@Ogre@@2PAUIDirect3DDevice9@@A ; Ogre::D3DTech::m_pDevice
	push	ecx
	call	?SetBlendState@Ogre@@YAXPAUIDirect3DDevice9@@HH@Z ; Ogre::SetBlendState
	add	esp, 12					; 0000000cH
	jmp	SHORT $LN1@beginPass@10
$LN2@beginPass@10:

; 58   : 			else SetBlendState(m_pDevice, BLEND_ALPHABLEND);

	push	-1
	push	2
	mov	edx, DWORD PTR ?m_pDevice@D3DTech@Ogre@@2PAUIDirect3DDevice9@@A ; Ogre::D3DTech::m_pDevice
	push	edx
	call	?SetBlendState@Ogre@@YAXPAUIDirect3DDevice9@@HH@Z ; Ogre::SetBlendState
	add	esp, 12					; 0000000cH
$LN1@beginPass@10:

; 59   : 			m_pDevice->SetRenderState(D3DRS_CULLMODE, D3DCULL_NONE);

	push	1
	push	22					; 00000016H
	mov	eax, DWORD PTR ?m_pDevice@D3DTech@Ogre@@2PAUIDirect3DDevice9@@A ; Ogre::D3DTech::m_pDevice
	mov	ecx, DWORD PTR [eax]
	mov	edx, DWORD PTR ?m_pDevice@D3DTech@Ogre@@2PAUIDirect3DDevice9@@A ; Ogre::D3DTech::m_pDevice
	push	edx
	mov	eax, DWORD PTR [ecx+228]
	call	eax

; 60   : 
; 61   : 			SamplerState_Wrap(m_pDevice, 0);

	push	0
	mov	ecx, DWORD PTR ?m_pDevice@D3DTech@Ogre@@2PAUIDirect3DDevice9@@A ; Ogre::D3DTech::m_pDevice
	push	ecx
	call	?SamplerState_Wrap@Ogre@@YAXPAUIDirect3DDevice9@@H@Z ; Ogre::SamplerState_Wrap
	add	esp, 8

; 62   : 			SamplerState_Clamp(m_pDevice, 1);

	push	1
	mov	edx, DWORD PTR ?m_pDevice@D3DTech@Ogre@@2PAUIDirect3DDevice9@@A ; Ogre::D3DTech::m_pDevice
	push	edx
	call	?SamplerState_Clamp@Ogre@@YAXPAUIDirect3DDevice9@@H@Z ; Ogre::SamplerState_Clamp
	add	esp, 8

; 63   : 
; 64   : 			applyVSPS(m_CurPass);

	mov	eax, DWORD PTR _this$[ebp]
	mov	ecx, DWORD PTR [eax+192]
	push	ecx
	mov	ecx, DWORD PTR _this$[ebp]
	call	?applyVSPS@D3DTech@Ogre@@IAEXI@Z	; Ogre::D3DTech::applyVSPS

; 65   : 		}

	mov	esp, ebp
	pop	ebp
	ret	4
?beginPass@D3DTech_beach_lod0@Ogre@@UAEXI@Z ENDP	; Ogre::D3DTech_beach_lod0::beginPass
; Function compile flags: /Odtp
_TEXT	ENDS
;	COMDAT ?endPass@D3DTech_beach_lod0@Ogre@@UAEXXZ
_TEXT	SEGMENT
_this$ = -4						; size = 4
?endPass@D3DTech_beach_lod0@Ogre@@UAEXXZ PROC		; Ogre::D3DTech_beach_lod0::endPass, COMDAT
; _this$ = ecx

; 68   : 		{

	push	ebp
	mov	ebp, esp
	push	ecx
	mov	DWORD PTR _this$[ebp], ecx

; 69   : 			SetBlendState(m_pDevice, BLEND_OPAQUE);

	push	-1
	push	0
	mov	eax, DWORD PTR ?m_pDevice@D3DTech@Ogre@@2PAUIDirect3DDevice9@@A ; Ogre::D3DTech::m_pDevice
	push	eax
	call	?SetBlendState@Ogre@@YAXPAUIDirect3DDevice9@@HH@Z ; Ogre::SetBlendState
	add	esp, 12					; 0000000cH

; 70   : 		}

	mov	esp, ebp
	pop	ebp
	ret	0
?endPass@D3DTech_beach_lod0@Ogre@@UAEXXZ ENDP		; Ogre::D3DTech_beach_lod0::endPass
_TEXT	ENDS
PUBLIC	??1D3DTech_beach_lod0@Ogre@@UAE@XZ		; Ogre::D3DTech_beach_lod0::~D3DTech_beach_lod0
; Function compile flags: /Odtp
;	COMDAT ??_GD3DTech_beach_lod0@Ogre@@UAEPAXI@Z
_TEXT	SEGMENT
_this$ = -4						; size = 4
___flags$ = 8						; size = 4
??_GD3DTech_beach_lod0@Ogre@@UAEPAXI@Z PROC		; Ogre::D3DTech_beach_lod0::`scalar deleting destructor', COMDAT
; _this$ = ecx
	push	ebp
	mov	ebp, esp
	push	ecx
	mov	DWORD PTR _this$[ebp], ecx
	mov	ecx, DWORD PTR _this$[ebp]
	call	??1D3DTech_beach_lod0@Ogre@@UAE@XZ
	mov	eax, DWORD PTR ___flags$[ebp]
	and	eax, 1
	je	SHORT $LN1@scalar@31
	mov	ecx, DWORD PTR _this$[ebp]
	push	ecx
	call	??3@YAXPAX@Z				; operator delete
	add	esp, 4
$LN1@scalar@31:
	mov	eax, DWORD PTR _this$[ebp]
	mov	esp, ebp
	pop	ebp
	ret	4
??_GD3DTech_beach_lod0@Ogre@@UAEPAXI@Z ENDP		; Ogre::D3DTech_beach_lod0::`scalar deleting destructor'
_TEXT	ENDS
;	COMDAT xdata$x
xdata$x	SEGMENT
__unwindtable$??1D3DTech_beach_lod0@Ogre@@UAE@XZ DD 0ffffffffH
	DD	FLAT:__unwindfunclet$??1D3DTech_beach_lod0@Ogre@@UAE@XZ$0
__ehfuncinfo$??1D3DTech_beach_lod0@Ogre@@UAE@XZ DD 019930522H
	DD	01H
	DD	FLAT:__unwindtable$??1D3DTech_beach_lod0@Ogre@@UAE@XZ
	DD	2 DUP(00H)
	DD	2 DUP(00H)
	DD	00H
	DD	00H
; Function compile flags: /Odtp
xdata$x	ENDS
;	COMDAT ??1D3DTech_beach_lod0@Ogre@@UAE@XZ
_TEXT	SEGMENT
_this$ = -16						; size = 4
__$EHRec$ = -12						; size = 12
??1D3DTech_beach_lod0@Ogre@@UAE@XZ PROC			; Ogre::D3DTech_beach_lod0::~D3DTech_beach_lod0, COMDAT
; _this$ = ecx
	push	ebp
	mov	ebp, esp
	push	-1
	push	__ehhandler$??1D3DTech_beach_lod0@Ogre@@UAE@XZ
	mov	eax, DWORD PTR fs:0
	push	eax
	push	ecx
	mov	eax, DWORD PTR ___security_cookie
	xor	eax, ebp
	push	eax
	lea	eax, DWORD PTR __$EHRec$[ebp]
	mov	DWORD PTR fs:0, eax
	mov	DWORD PTR _this$[ebp], ecx
	mov	DWORD PTR __$EHRec$[ebp+8], 0
	mov	DWORD PTR __$EHRec$[ebp+8], -1
	mov	ecx, DWORD PTR _this$[ebp]
	call	??1D3DTech@Ogre@@UAE@XZ
	mov	ecx, DWORD PTR __$EHRec$[ebp]
	mov	DWORD PTR fs:0, ecx
	pop	ecx
	mov	esp, ebp
	pop	ebp
	ret	0
_TEXT	ENDS
;	COMDAT text$x
text$x	SEGMENT
__unwindfunclet$??1D3DTech_beach_lod0@Ogre@@UAE@XZ$0:
	mov	ecx, DWORD PTR _this$[ebp]
	jmp	??1D3DTech@Ogre@@UAE@XZ
__ehhandler$??1D3DTech_beach_lod0@Ogre@@UAE@XZ:
	mov	edx, DWORD PTR [esp+8]
	lea	eax, DWORD PTR [edx+12]
	mov	ecx, DWORD PTR [edx-8]
	xor	ecx, eax
	call	@__security_check_cookie@4
	mov	eax, OFFSET __ehfuncinfo$??1D3DTech_beach_lod0@Ogre@@UAE@XZ
	jmp	___CxxFrameHandler3
text$x	ENDS
??1D3DTech_beach_lod0@Ogre@@UAE@XZ ENDP			; Ogre::D3DTech_beach_lod0::~D3DTech_beach_lod0
PUBLIC	??_7D3DTech_Line_lod0@Ogre@@6B@			; Ogre::D3DTech_Line_lod0::`vftable'
PUBLIC	??_R4D3DTech_Line_lod0@Ogre@@6B@		; Ogre::D3DTech_Line_lod0::`RTTI Complete Object Locator'
PUBLIC	??_R0?AVD3DTech_Line_lod0@Ogre@@@8		; Ogre::D3DTech_Line_lod0 `RTTI Type Descriptor'
PUBLIC	??_R3D3DTech_Line_lod0@Ogre@@8			; Ogre::D3DTech_Line_lod0::`RTTI Class Hierarchy Descriptor'
PUBLIC	??_R2D3DTech_Line_lod0@Ogre@@8			; Ogre::D3DTech_Line_lod0::`RTTI Base Class Array'
PUBLIC	??_R1A@?0A@EA@D3DTech_Line_lod0@Ogre@@8		; Ogre::D3DTech_Line_lod0::`RTTI Base Class Descriptor at (0,-1,0,64)'
PUBLIC	?beginPass@D3DTech_Line_lod0@Ogre@@UAEXI@Z	; Ogre::D3DTech_Line_lod0::beginPass
PUBLIC	?endPass@D3DTech_Line_lod0@Ogre@@UAEXXZ		; Ogre::D3DTech_Line_lod0::endPass
PUBLIC	?clone@D3DTech_Line_lod0@Ogre@@UAEPAVD3DTech@2@XZ ; Ogre::D3DTech_Line_lod0::clone
PUBLIC	?init@D3DTech_Line_lod0@Ogre@@UAEXABUShaderEnvFlags@2@ABUMaterialMacro@2@@Z ; Ogre::D3DTech_Line_lod0::init
EXTRN	??_ED3DTech_Line_lod0@Ogre@@UAEPAXI@Z:PROC	; Ogre::D3DTech_Line_lod0::`vector deleting destructor'
;	COMDAT ??_R1A@?0A@EA@D3DTech_Line_lod0@Ogre@@8
rdata$r	SEGMENT
??_R1A@?0A@EA@D3DTech_Line_lod0@Ogre@@8 DD FLAT:??_R0?AVD3DTech_Line_lod0@Ogre@@@8 ; Ogre::D3DTech_Line_lod0::`RTTI Base Class Descriptor at (0,-1,0,64)'
	DD	02H
	DD	00H
	DD	0ffffffffH
	DD	00H
	DD	040H
	DD	FLAT:??_R3D3DTech_Line_lod0@Ogre@@8
rdata$r	ENDS
;	COMDAT ??_R2D3DTech_Line_lod0@Ogre@@8
rdata$r	SEGMENT
??_R2D3DTech_Line_lod0@Ogre@@8 DD FLAT:??_R1A@?0A@EA@D3DTech_Line_lod0@Ogre@@8 ; Ogre::D3DTech_Line_lod0::`RTTI Base Class Array'
	DD	FLAT:??_R1A@?0A@EA@D3DTech@Ogre@@8
	DD	FLAT:??_R1A@?0A@EA@ShaderTechnique@Ogre@@8
rdata$r	ENDS
;	COMDAT ??_R3D3DTech_Line_lod0@Ogre@@8
rdata$r	SEGMENT
??_R3D3DTech_Line_lod0@Ogre@@8 DD 00H			; Ogre::D3DTech_Line_lod0::`RTTI Class Hierarchy Descriptor'
	DD	00H
	DD	03H
	DD	FLAT:??_R2D3DTech_Line_lod0@Ogre@@8
rdata$r	ENDS
;	COMDAT ??_R0?AVD3DTech_Line_lod0@Ogre@@@8
_DATA	SEGMENT
??_R0?AVD3DTech_Line_lod0@Ogre@@@8 DD FLAT:??_7type_info@@6B@ ; Ogre::D3DTech_Line_lod0 `RTTI Type Descriptor'
	DD	00H
	DB	'.?AVD3DTech_Line_lod0@Ogre@@', 00H
_DATA	ENDS
;	COMDAT ??_R4D3DTech_Line_lod0@Ogre@@6B@
rdata$r	SEGMENT
??_R4D3DTech_Line_lod0@Ogre@@6B@ DD 00H			; Ogre::D3DTech_Line_lod0::`RTTI Complete Object Locator'
	DD	00H
	DD	00H
	DD	FLAT:??_R0?AVD3DTech_Line_lod0@Ogre@@@8
	DD	FLAT:??_R3D3DTech_Line_lod0@Ogre@@8
rdata$r	ENDS
;	COMDAT ??_7D3DTech_Line_lod0@Ogre@@6B@
CONST	SEGMENT
??_7D3DTech_Line_lod0@Ogre@@6B@ DD FLAT:??_R4D3DTech_Line_lod0@Ogre@@6B@ ; Ogre::D3DTech_Line_lod0::`vftable'
	DD	FLAT:?begin@D3DTech@Ogre@@UAEIXZ
	DD	FLAT:?end@D3DTech@Ogre@@UAEXXZ
	DD	FLAT:?beginPass@D3DTech_Line_lod0@Ogre@@UAEXI@Z
	DD	FLAT:?endPass@D3DTech_Line_lod0@Ogre@@UAEXXZ
	DD	FLAT:?setConstant@D3DTech@Ogre@@UAEXW4ShaderParamUsage@2@PBXI@Z
	DD	FLAT:?setConstant@D3DTech@Ogre@@UAEXPBDPBXI@Z
	DD	FLAT:?setTexture@D3DTech@Ogre@@UAEXW4ShaderParamUsage@2@PAVHardwarePixelBuffer@2@@Z
	DD	FLAT:?setTexture@D3DTech@Ogre@@UAEXPBDPAVHardwarePixelBuffer@2@@Z
	DD	FLAT:?setStreamInput@D3DTech@Ogre@@UAEXIPAPAVHardwareVertexBuffer@2@HPAI@Z
	DD	FLAT:?setStreamInput@D3DTech@Ogre@@UAEXIPAVHardwareVertexBuffer@2@I@Z
	DD	FLAT:?setStreamInput@D3DTech@Ogre@@UAEXIPAPAVHardwareVertexBuffer@2@PAI@Z
	DD	FLAT:?commitChanges@D3DTech@Ogre@@UAEXXZ
	DD	FLAT:?draw@D3DTech@Ogre@@UAEXW4PrimitiveType@2@IIPAVHardwareIndexBuffer@2@II@Z
	DD	FLAT:?draw@D3DTech@Ogre@@UAEXW4PrimitiveType@2@II@Z
	DD	FLAT:?getRequiredParams@D3DTech@Ogre@@UAEIPAW4ShaderParamUsage@2@I@Z
	DD	FLAT:??_ED3DTech_Line_lod0@Ogre@@UAEPAXI@Z
	DD	FLAT:?clone@D3DTech_Line_lod0@Ogre@@UAEPAVD3DTech@2@XZ
	DD	FLAT:?init@D3DTech_Line_lod0@Ogre@@UAEXABUShaderEnvFlags@2@ABUMaterialMacro@2@@Z
CONST	ENDS
;	COMDAT xdata$x
xdata$x	SEGMENT
__unwindtable$??0D3DTech_Line_lod0@Ogre@@QAE@XZ DD 0ffffffffH
	DD	FLAT:__unwindfunclet$??0D3DTech_Line_lod0@Ogre@@QAE@XZ$0
__ehfuncinfo$??0D3DTech_Line_lod0@Ogre@@QAE@XZ DD 019930522H
	DD	01H
	DD	FLAT:__unwindtable$??0D3DTech_Line_lod0@Ogre@@QAE@XZ
	DD	2 DUP(00H)
	DD	2 DUP(00H)
	DD	00H
	DD	00H
; Function compile flags: /Odtp
xdata$x	ENDS
;	COMDAT ??0D3DTech_Line_lod0@Ogre@@QAE@XZ
_TEXT	SEGMENT
_this$ = -16						; size = 4
__$EHRec$ = -12						; size = 12
??0D3DTech_Line_lod0@Ogre@@QAE@XZ PROC			; Ogre::D3DTech_Line_lod0::D3DTech_Line_lod0, COMDAT
; _this$ = ecx
	push	ebp
	mov	ebp, esp
	push	-1
	push	__ehhandler$??0D3DTech_Line_lod0@Ogre@@QAE@XZ
	mov	eax, DWORD PTR fs:0
	push	eax
	push	ecx
	mov	eax, DWORD PTR ___security_cookie
	xor	eax, ebp
	push	eax
	lea	eax, DWORD PTR __$EHRec$[ebp]
	mov	DWORD PTR fs:0, eax
	mov	DWORD PTR _this$[ebp], ecx
	mov	ecx, DWORD PTR _this$[ebp]
	call	??0D3DTech@Ogre@@QAE@XZ			; Ogre::D3DTech::D3DTech
	mov	DWORD PTR __$EHRec$[ebp+8], 0
	mov	eax, DWORD PTR _this$[ebp]
	mov	DWORD PTR [eax], OFFSET ??_7D3DTech_Line_lod0@Ogre@@6B@
	mov	DWORD PTR __$EHRec$[ebp+8], -1
	mov	eax, DWORD PTR _this$[ebp]
	mov	ecx, DWORD PTR __$EHRec$[ebp]
	mov	DWORD PTR fs:0, ecx
	pop	ecx
	mov	esp, ebp
	pop	ebp
	ret	0
_TEXT	ENDS
;	COMDAT text$x
text$x	SEGMENT
__unwindfunclet$??0D3DTech_Line_lod0@Ogre@@QAE@XZ$0:
	mov	ecx, DWORD PTR _this$[ebp]
	jmp	??1D3DTech@Ogre@@UAE@XZ
__ehhandler$??0D3DTech_Line_lod0@Ogre@@QAE@XZ:
	mov	edx, DWORD PTR [esp+8]
	lea	eax, DWORD PTR [edx+12]
	mov	ecx, DWORD PTR [edx-8]
	xor	ecx, eax
	call	@__security_check_cookie@4
	mov	eax, OFFSET __ehfuncinfo$??0D3DTech_Line_lod0@Ogre@@QAE@XZ
	jmp	___CxxFrameHandler3
text$x	ENDS
??0D3DTech_Line_lod0@Ogre@@QAE@XZ ENDP			; Ogre::D3DTech_Line_lod0::D3DTech_Line_lod0
;	COMDAT xdata$x
; File i:\svnroot\client\plugins\rendersystem_d3d9\ogred3d9tech_line.h
xdata$x	SEGMENT
__unwindtable$?clone@D3DTech_Line_lod0@Ogre@@UAEPAVD3DTech@2@XZ DD 0ffffffffH
	DD	FLAT:__unwindfunclet$?clone@D3DTech_Line_lod0@Ogre@@UAEPAVD3DTech@2@XZ$0
__ehfuncinfo$?clone@D3DTech_Line_lod0@Ogre@@UAEPAVD3DTech@2@XZ DD 019930522H
	DD	01H
	DD	FLAT:__unwindtable$?clone@D3DTech_Line_lod0@Ogre@@UAEPAVD3DTech@2@XZ
	DD	2 DUP(00H)
	DD	2 DUP(00H)
	DD	00H
	DD	00H
; Function compile flags: /Odtp
xdata$x	ENDS
;	COMDAT ?clone@D3DTech_Line_lod0@Ogre@@UAEPAVD3DTech@2@XZ
_TEXT	SEGMENT
tv74 = -28						; size = 4
_this$ = -24						; size = 4
$T140703 = -20						; size = 4
$T140702 = -16						; size = 4
__$EHRec$ = -12						; size = 12
?clone@D3DTech_Line_lod0@Ogre@@UAEPAVD3DTech@2@XZ PROC	; Ogre::D3DTech_Line_lod0::clone, COMDAT
; _this$ = ecx

; 12   : 		{

	push	ebp
	mov	ebp, esp
	push	-1
	push	__ehhandler$?clone@D3DTech_Line_lod0@Ogre@@UAEPAVD3DTech@2@XZ
	mov	eax, DWORD PTR fs:0
	push	eax
	sub	esp, 16					; 00000010H
	mov	eax, DWORD PTR ___security_cookie
	xor	eax, ebp
	push	eax
	lea	eax, DWORD PTR __$EHRec$[ebp]
	mov	DWORD PTR fs:0, eax
	mov	DWORD PTR _this$[ebp], ecx

; 13   : 			return new D3DTech_Line_lod0;

	push	392					; 00000188H
	call	??2@YAPAXI@Z				; operator new
	add	esp, 4
	mov	DWORD PTR $T140703[ebp], eax
	mov	DWORD PTR __$EHRec$[ebp+8], 0
	cmp	DWORD PTR $T140703[ebp], 0
	je	SHORT $LN3@clone@31
	mov	ecx, DWORD PTR $T140703[ebp]
	call	??0D3DTech_Line_lod0@Ogre@@QAE@XZ
	mov	DWORD PTR tv74[ebp], eax
	jmp	SHORT $LN4@clone@31
$LN3@clone@31:
	mov	DWORD PTR tv74[ebp], 0
$LN4@clone@31:
	mov	eax, DWORD PTR tv74[ebp]
	mov	DWORD PTR $T140702[ebp], eax
	mov	DWORD PTR __$EHRec$[ebp+8], -1
	mov	eax, DWORD PTR $T140702[ebp]

; 14   : 		}

	mov	ecx, DWORD PTR __$EHRec$[ebp]
	mov	DWORD PTR fs:0, ecx
	pop	ecx
	mov	esp, ebp
	pop	ebp
	ret	0
_TEXT	ENDS
;	COMDAT text$x
text$x	SEGMENT
__unwindfunclet$?clone@D3DTech_Line_lod0@Ogre@@UAEPAVD3DTech@2@XZ$0:
	mov	eax, DWORD PTR $T140703[ebp]
	push	eax
	call	??3@YAXPAX@Z				; operator delete
	pop	ecx
	ret	0
__ehhandler$?clone@D3DTech_Line_lod0@Ogre@@UAEPAVD3DTech@2@XZ:
	mov	edx, DWORD PTR [esp+8]
	lea	eax, DWORD PTR [edx+12]
	mov	ecx, DWORD PTR [edx-20]
	xor	ecx, eax
	call	@__security_check_cookie@4
	mov	eax, OFFSET __ehfuncinfo$?clone@D3DTech_Line_lod0@Ogre@@UAEPAVD3DTech@2@XZ
	jmp	___CxxFrameHandler3
text$x	ENDS
?clone@D3DTech_Line_lod0@Ogre@@UAEPAVD3DTech@2@XZ ENDP	; Ogre::D3DTech_Line_lod0::clone
; Function compile flags: /Odtp
;	COMDAT ?init@D3DTech_Line_lod0@Ogre@@UAEXABUShaderEnvFlags@2@ABUMaterialMacro@2@@Z
_TEXT	SEGMENT
_this$ = -4						; size = 4
_env$ = 8						; size = 4
_macros$ = 12						; size = 4
?init@D3DTech_Line_lod0@Ogre@@UAEXABUShaderEnvFlags@2@ABUMaterialMacro@2@@Z PROC ; Ogre::D3DTech_Line_lod0::init, COMDAT
; _this$ = ecx

; 17   : 		{

	push	ebp
	mov	ebp, esp
	push	ecx
	mov	DWORD PTR _this$[ebp], ecx

; 18   : 			m_nPass = 1;

	mov	eax, DWORD PTR _this$[ebp]
	mov	DWORD PTR [eax+188], 1

; 19   : 			m_AllPass[0].vs = m_pMtlTemplate->getCompiledVSPS(COMPILED_VS, "Main", env, macros);

	mov	ecx, DWORD PTR _macros$[ebp]
	push	ecx
	mov	edx, DWORD PTR _env$[ebp]
	push	edx
	push	OFFSET ??_C@_04KGFMLCPK@Main?$AA@
	push	1
	mov	eax, DWORD PTR _this$[ebp]
	mov	ecx, DWORD PTR [eax+8]
	call	?getCompiledVSPS@D3DMaterialTemplate@Ogre@@QAEPAVCompiledShader@2@W4COMPILED_TYPE@2@PBDABUShaderEnvFlags@2@ABUMaterialMacro@2@@Z ; Ogre::D3DMaterialTemplate::getCompiledVSPS
	mov	ecx, DWORD PTR _this$[ebp]
	mov	DWORD PTR [ecx+12], eax

; 20   : 			m_AllPass[0].ps = NULL;

	mov	edx, DWORD PTR _this$[ebp]
	mov	DWORD PTR [edx+16], 0

; 21   : 
; 22   : 			initParams();

	mov	ecx, DWORD PTR _this$[ebp]
	call	?initParams@D3DTech@Ogre@@IAEXXZ	; Ogre::D3DTech::initParams

; 23   : 		}

	mov	esp, ebp
	pop	ebp
	ret	8
?init@D3DTech_Line_lod0@Ogre@@UAEXABUShaderEnvFlags@2@ABUMaterialMacro@2@@Z ENDP ; Ogre::D3DTech_Line_lod0::init
; Function compile flags: /Odtp
_TEXT	ENDS
;	COMDAT ?beginPass@D3DTech_Line_lod0@Ogre@@UAEXI@Z
_TEXT	SEGMENT
_this$ = -4						; size = 4
_pass$ = 8						; size = 4
?beginPass@D3DTech_Line_lod0@Ogre@@UAEXI@Z PROC		; Ogre::D3DTech_Line_lod0::beginPass, COMDAT
; _this$ = ecx

; 26   : 		{

	push	ebp
	mov	ebp, esp
	push	ecx
	mov	DWORD PTR _this$[ebp], ecx

; 27   : 			m_CurPass = pass;

	mov	eax, DWORD PTR _this$[ebp]
	mov	ecx, DWORD PTR _pass$[ebp]
	mov	DWORD PTR [eax+192], ecx

; 28   : 
; 29   : 			m_pDevice->SetRenderState(D3DRS_CULLMODE, D3DCULL_NONE);

	push	1
	push	22					; 00000016H
	mov	edx, DWORD PTR ?m_pDevice@D3DTech@Ogre@@2PAUIDirect3DDevice9@@A ; Ogre::D3DTech::m_pDevice
	mov	eax, DWORD PTR [edx]
	mov	ecx, DWORD PTR ?m_pDevice@D3DTech@Ogre@@2PAUIDirect3DDevice9@@A ; Ogre::D3DTech::m_pDevice
	push	ecx
	mov	edx, DWORD PTR [eax+228]
	call	edx

; 30   : 			m_pDevice->SetRenderState(D3DRS_ZENABLE, false);

	push	0
	push	7
	mov	eax, DWORD PTR ?m_pDevice@D3DTech@Ogre@@2PAUIDirect3DDevice9@@A ; Ogre::D3DTech::m_pDevice
	mov	ecx, DWORD PTR [eax]
	mov	edx, DWORD PTR ?m_pDevice@D3DTech@Ogre@@2PAUIDirect3DDevice9@@A ; Ogre::D3DTech::m_pDevice
	push	edx
	mov	eax, DWORD PTR [ecx+228]
	call	eax

; 31   : 			m_pDevice->SetRenderState(D3DRS_ZWRITEENABLE, false);

	push	0
	push	14					; 0000000eH
	mov	ecx, DWORD PTR ?m_pDevice@D3DTech@Ogre@@2PAUIDirect3DDevice9@@A ; Ogre::D3DTech::m_pDevice
	mov	edx, DWORD PTR [ecx]
	mov	eax, DWORD PTR ?m_pDevice@D3DTech@Ogre@@2PAUIDirect3DDevice9@@A ; Ogre::D3DTech::m_pDevice
	push	eax
	mov	ecx, DWORD PTR [edx+228]
	call	ecx

; 32   : 			m_pDevice->SetTextureStageState(0, D3DTSS_COLOROP, D3DTOP_DISABLE);

	push	1
	push	1
	push	0
	mov	edx, DWORD PTR ?m_pDevice@D3DTech@Ogre@@2PAUIDirect3DDevice9@@A ; Ogre::D3DTech::m_pDevice
	mov	eax, DWORD PTR [edx]
	mov	ecx, DWORD PTR ?m_pDevice@D3DTech@Ogre@@2PAUIDirect3DDevice9@@A ; Ogre::D3DTech::m_pDevice
	push	ecx
	mov	edx, DWORD PTR [eax+268]
	call	edx

; 33   : 
; 34   : 			applyVSPS(m_CurPass);

	mov	eax, DWORD PTR _this$[ebp]
	mov	ecx, DWORD PTR [eax+192]
	push	ecx
	mov	ecx, DWORD PTR _this$[ebp]
	call	?applyVSPS@D3DTech@Ogre@@IAEXI@Z	; Ogre::D3DTech::applyVSPS

; 35   : 		}

	mov	esp, ebp
	pop	ebp
	ret	4
?beginPass@D3DTech_Line_lod0@Ogre@@UAEXI@Z ENDP		; Ogre::D3DTech_Line_lod0::beginPass
; Function compile flags: /Odtp
_TEXT	ENDS
;	COMDAT ?endPass@D3DTech_Line_lod0@Ogre@@UAEXXZ
_TEXT	SEGMENT
_this$ = -4						; size = 4
?endPass@D3DTech_Line_lod0@Ogre@@UAEXXZ PROC		; Ogre::D3DTech_Line_lod0::endPass, COMDAT
; _this$ = ecx

; 38   : 		{

	push	ebp
	mov	ebp, esp
	push	ecx
	mov	DWORD PTR _this$[ebp], ecx

; 39   : 			m_pDevice->SetRenderState(D3DRS_ZENABLE, true);

	push	1
	push	7
	mov	eax, DWORD PTR ?m_pDevice@D3DTech@Ogre@@2PAUIDirect3DDevice9@@A ; Ogre::D3DTech::m_pDevice
	mov	ecx, DWORD PTR [eax]
	mov	edx, DWORD PTR ?m_pDevice@D3DTech@Ogre@@2PAUIDirect3DDevice9@@A ; Ogre::D3DTech::m_pDevice
	push	edx
	mov	eax, DWORD PTR [ecx+228]
	call	eax

; 40   : 			m_pDevice->SetRenderState(D3DRS_ZWRITEENABLE, true);

	push	1
	push	14					; 0000000eH
	mov	ecx, DWORD PTR ?m_pDevice@D3DTech@Ogre@@2PAUIDirect3DDevice9@@A ; Ogre::D3DTech::m_pDevice
	mov	edx, DWORD PTR [ecx]
	mov	eax, DWORD PTR ?m_pDevice@D3DTech@Ogre@@2PAUIDirect3DDevice9@@A ; Ogre::D3DTech::m_pDevice
	push	eax
	mov	ecx, DWORD PTR [edx+228]
	call	ecx

; 41   : 		}

	mov	esp, ebp
	pop	ebp
	ret	0
?endPass@D3DTech_Line_lod0@Ogre@@UAEXXZ ENDP		; Ogre::D3DTech_Line_lod0::endPass
_TEXT	ENDS
PUBLIC	??1D3DTech_Line_lod0@Ogre@@UAE@XZ		; Ogre::D3DTech_Line_lod0::~D3DTech_Line_lod0
; Function compile flags: /Odtp
;	COMDAT ??_GD3DTech_Line_lod0@Ogre@@UAEPAXI@Z
_TEXT	SEGMENT
_this$ = -4						; size = 4
___flags$ = 8						; size = 4
??_GD3DTech_Line_lod0@Ogre@@UAEPAXI@Z PROC		; Ogre::D3DTech_Line_lod0::`scalar deleting destructor', COMDAT
; _this$ = ecx
	push	ebp
	mov	ebp, esp
	push	ecx
	mov	DWORD PTR _this$[ebp], ecx
	mov	ecx, DWORD PTR _this$[ebp]
	call	??1D3DTech_Line_lod0@Ogre@@UAE@XZ
	mov	eax, DWORD PTR ___flags$[ebp]
	and	eax, 1
	je	SHORT $LN1@scalar@32
	mov	ecx, DWORD PTR _this$[ebp]
	push	ecx
	call	??3@YAXPAX@Z				; operator delete
	add	esp, 4
$LN1@scalar@32:
	mov	eax, DWORD PTR _this$[ebp]
	mov	esp, ebp
	pop	ebp
	ret	4
??_GD3DTech_Line_lod0@Ogre@@UAEPAXI@Z ENDP		; Ogre::D3DTech_Line_lod0::`scalar deleting destructor'
_TEXT	ENDS
;	COMDAT xdata$x
xdata$x	SEGMENT
__unwindtable$??1D3DTech_Line_lod0@Ogre@@UAE@XZ DD 0ffffffffH
	DD	FLAT:__unwindfunclet$??1D3DTech_Line_lod0@Ogre@@UAE@XZ$0
__ehfuncinfo$??1D3DTech_Line_lod0@Ogre@@UAE@XZ DD 019930522H
	DD	01H
	DD	FLAT:__unwindtable$??1D3DTech_Line_lod0@Ogre@@UAE@XZ
	DD	2 DUP(00H)
	DD	2 DUP(00H)
	DD	00H
	DD	00H
; Function compile flags: /Odtp
xdata$x	ENDS
;	COMDAT ??1D3DTech_Line_lod0@Ogre@@UAE@XZ
_TEXT	SEGMENT
_this$ = -16						; size = 4
__$EHRec$ = -12						; size = 12
??1D3DTech_Line_lod0@Ogre@@UAE@XZ PROC			; Ogre::D3DTech_Line_lod0::~D3DTech_Line_lod0, COMDAT
; _this$ = ecx
	push	ebp
	mov	ebp, esp
	push	-1
	push	__ehhandler$??1D3DTech_Line_lod0@Ogre@@UAE@XZ
	mov	eax, DWORD PTR fs:0
	push	eax
	push	ecx
	mov	eax, DWORD PTR ___security_cookie
	xor	eax, ebp
	push	eax
	lea	eax, DWORD PTR __$EHRec$[ebp]
	mov	DWORD PTR fs:0, eax
	mov	DWORD PTR _this$[ebp], ecx
	mov	DWORD PTR __$EHRec$[ebp+8], 0
	mov	DWORD PTR __$EHRec$[ebp+8], -1
	mov	ecx, DWORD PTR _this$[ebp]
	call	??1D3DTech@Ogre@@UAE@XZ
	mov	ecx, DWORD PTR __$EHRec$[ebp]
	mov	DWORD PTR fs:0, ecx
	pop	ecx
	mov	esp, ebp
	pop	ebp
	ret	0
_TEXT	ENDS
;	COMDAT text$x
text$x	SEGMENT
__unwindfunclet$??1D3DTech_Line_lod0@Ogre@@UAE@XZ$0:
	mov	ecx, DWORD PTR _this$[ebp]
	jmp	??1D3DTech@Ogre@@UAE@XZ
__ehhandler$??1D3DTech_Line_lod0@Ogre@@UAE@XZ:
	mov	edx, DWORD PTR [esp+8]
	lea	eax, DWORD PTR [edx+12]
	mov	ecx, DWORD PTR [edx-8]
	xor	ecx, eax
	call	@__security_check_cookie@4
	mov	eax, OFFSET __ehfuncinfo$??1D3DTech_Line_lod0@Ogre@@UAE@XZ
	jmp	___CxxFrameHandler3
text$x	ENDS
??1D3DTech_Line_lod0@Ogre@@UAE@XZ ENDP			; Ogre::D3DTech_Line_lod0::~D3DTech_Line_lod0
; Function compile flags: /Odtp
; File i:\svnroot\client\ogremain\ogremath.h
;	COMDAT ??__ETWO_PI@Ogre@@YAXXZ
text$yc	SEGMENT
??__ETWO_PI@Ogre@@YAXXZ PROC				; Ogre::`dynamic initializer for 'TWO_PI'', COMDAT

; 10   : 	const float TWO_PI = ONE_PI*2;

	push	ebp
	mov	ebp, esp
	fld	DWORD PTR _ONE_PI
	fadd	ST(0), ST(0)
	fstp	DWORD PTR _TWO_PI
	pop	ebp
	ret	0
??__ETWO_PI@Ogre@@YAXXZ ENDP				; Ogre::`dynamic initializer for 'TWO_PI''
text$yc	ENDS
PUBLIC	__real@3fe0000000000000
;	COMDAT __real@3fe0000000000000
CONST	SEGMENT
__real@3fe0000000000000 DQ 03fe0000000000000r	; 0.5
; Function compile flags: /Odtp
CONST	ENDS
;	COMDAT ??__EHALF_PI@Ogre@@YAXXZ
text$yc	SEGMENT
??__EHALF_PI@Ogre@@YAXXZ PROC				; Ogre::`dynamic initializer for 'HALF_PI'', COMDAT

; 11   : 	const float	HALF_PI = ONE_PI*0.5f;

	push	ebp
	mov	ebp, esp
	fld	DWORD PTR _ONE_PI
	fmul	QWORD PTR __real@3fe0000000000000
	fstp	DWORD PTR _HALF_PI
	pop	ebp
	ret	0
??__EHALF_PI@Ogre@@YAXXZ ENDP				; Ogre::`dynamic initializer for 'HALF_PI''
text$yc	ENDS
_BSS	SEGMENT
_TWO_PI	DD	01H DUP (?)
_HALF_PI DD	01H DUP (?)
_BSS	ENDS
CRT$XCU	SEGMENT
_TWO_PI$initializer$ DD FLAT:??__ETWO_PI@Ogre@@YAXXZ
_HALF_PI$initializer$ DD FLAT:??__EHALF_PI@Ogre@@YAXXZ
CRT$XCU	ENDS
END
