; Listing generated by Microsoft (R) Optimizing Compiler Version 15.00.30729.01 

	TITLE	i:\svnroot\client\Plugins\RenderSystem_D3D9\OgreD3D9DriverEnum.cpp
	.686P
	.XMM
	include listing.inc
	.model	flat

INCLUDELIB MSVCRT
INCLUDELIB OLDNAMES

PUBLIC	?_Value@?$_Is_swap_move@U_Swap_move_tag@std@@@std@@2_NB ; std::_Is_swap_move<std::_Swap_move_tag>::_Value
PUBLIC	?collate@?$_Locbase@H@std@@2HB			; std::_Locbase<int>::collate
PUBLIC	?ctype@?$_Locbase@H@std@@2HB			; std::_Locbase<int>::ctype
PUBLIC	?monetary@?$_Locbase@H@std@@2HB			; std::_Locbase<int>::monetary
PUBLIC	?numeric@?$_Locbase@H@std@@2HB			; std::_Locbase<int>::numeric
PUBLIC	?time@?$_Locbase@H@std@@2HB			; std::_Locbase<int>::time
PUBLIC	?messages@?$_Locbase@H@std@@2HB			; std::_Locbase<int>::messages
PUBLIC	?all@?$_Locbase@H@std@@2HB			; std::_Locbase<int>::all
PUBLIC	?none@?$_Locbase@H@std@@2HB			; std::_Locbase<int>::none
PUBLIC	?skipws@?$_Iosb@H@std@@2W4_Fmtflags@12@B	; std::_Iosb<int>::skipws
PUBLIC	?unitbuf@?$_Iosb@H@std@@2W4_Fmtflags@12@B	; std::_Iosb<int>::unitbuf
PUBLIC	?uppercase@?$_Iosb@H@std@@2W4_Fmtflags@12@B	; std::_Iosb<int>::uppercase
PUBLIC	?showbase@?$_Iosb@H@std@@2W4_Fmtflags@12@B	; std::_Iosb<int>::showbase
PUBLIC	?showpoint@?$_Iosb@H@std@@2W4_Fmtflags@12@B	; std::_Iosb<int>::showpoint
PUBLIC	?showpos@?$_Iosb@H@std@@2W4_Fmtflags@12@B	; std::_Iosb<int>::showpos
PUBLIC	?left@?$_Iosb@H@std@@2W4_Fmtflags@12@B		; std::_Iosb<int>::left
PUBLIC	?right@?$_Iosb@H@std@@2W4_Fmtflags@12@B		; std::_Iosb<int>::right
PUBLIC	?internal@?$_Iosb@H@std@@2W4_Fmtflags@12@B	; std::_Iosb<int>::internal
PUBLIC	?dec@?$_Iosb@H@std@@2W4_Fmtflags@12@B		; std::_Iosb<int>::dec
PUBLIC	?oct@?$_Iosb@H@std@@2W4_Fmtflags@12@B		; std::_Iosb<int>::oct
PUBLIC	?hex@?$_Iosb@H@std@@2W4_Fmtflags@12@B		; std::_Iosb<int>::hex
PUBLIC	?scientific@?$_Iosb@H@std@@2W4_Fmtflags@12@B	; std::_Iosb<int>::scientific
PUBLIC	?fixed@?$_Iosb@H@std@@2W4_Fmtflags@12@B		; std::_Iosb<int>::fixed
PUBLIC	?hexfloat@?$_Iosb@H@std@@2W4_Fmtflags@12@B	; std::_Iosb<int>::hexfloat
PUBLIC	?boolalpha@?$_Iosb@H@std@@2W4_Fmtflags@12@B	; std::_Iosb<int>::boolalpha
PUBLIC	?_Stdio@?$_Iosb@H@std@@2W4_Fmtflags@12@B	; std::_Iosb<int>::_Stdio
PUBLIC	?adjustfield@?$_Iosb@H@std@@2W4_Fmtflags@12@B	; std::_Iosb<int>::adjustfield
PUBLIC	?basefield@?$_Iosb@H@std@@2W4_Fmtflags@12@B	; std::_Iosb<int>::basefield
PUBLIC	?floatfield@?$_Iosb@H@std@@2W4_Fmtflags@12@B	; std::_Iosb<int>::floatfield
PUBLIC	?goodbit@?$_Iosb@H@std@@2W4_Iostate@12@B	; std::_Iosb<int>::goodbit
PUBLIC	?eofbit@?$_Iosb@H@std@@2W4_Iostate@12@B		; std::_Iosb<int>::eofbit
PUBLIC	?failbit@?$_Iosb@H@std@@2W4_Iostate@12@B	; std::_Iosb<int>::failbit
PUBLIC	?badbit@?$_Iosb@H@std@@2W4_Iostate@12@B		; std::_Iosb<int>::badbit
PUBLIC	?_Hardfail@?$_Iosb@H@std@@2W4_Iostate@12@B	; std::_Iosb<int>::_Hardfail
PUBLIC	?in@?$_Iosb@H@std@@2W4_Openmode@12@B		; std::_Iosb<int>::in
PUBLIC	?out@?$_Iosb@H@std@@2W4_Openmode@12@B		; std::_Iosb<int>::out
PUBLIC	?ate@?$_Iosb@H@std@@2W4_Openmode@12@B		; std::_Iosb<int>::ate
PUBLIC	?app@?$_Iosb@H@std@@2W4_Openmode@12@B		; std::_Iosb<int>::app
PUBLIC	?trunc@?$_Iosb@H@std@@2W4_Openmode@12@B		; std::_Iosb<int>::trunc
PUBLIC	?_Nocreate@?$_Iosb@H@std@@2W4_Openmode@12@B	; std::_Iosb<int>::_Nocreate
PUBLIC	?_Noreplace@?$_Iosb@H@std@@2W4_Openmode@12@B	; std::_Iosb<int>::_Noreplace
PUBLIC	?binary@?$_Iosb@H@std@@2W4_Openmode@12@B	; std::_Iosb<int>::binary
PUBLIC	?beg@?$_Iosb@H@std@@2W4_Seekdir@12@B		; std::_Iosb<int>::beg
PUBLIC	?cur@?$_Iosb@H@std@@2W4_Seekdir@12@B		; std::_Iosb<int>::cur
PUBLIC	?end@?$_Iosb@H@std@@2W4_Seekdir@12@B		; std::_Iosb<int>::end
PUBLIC	?value@?$integral_constant@_N$0A@@tr1@std@@2_NB	; std::tr1::integral_constant<bool,0>::value
PUBLIC	?value@?$integral_constant@_N$00@tr1@std@@2_NB	; std::tr1::integral_constant<bool,1>::value
;	COMDAT ?value@?$integral_constant@_N$00@tr1@std@@2_NB
CONST	SEGMENT
?value@?$integral_constant@_N$00@tr1@std@@2_NB DB 01H	; std::tr1::integral_constant<bool,1>::value
CONST	ENDS
;	COMDAT ?value@?$integral_constant@_N$0A@@tr1@std@@2_NB
CONST	SEGMENT
?value@?$integral_constant@_N$0A@@tr1@std@@2_NB DB 00H	; std::tr1::integral_constant<bool,0>::value
CONST	ENDS
;	COMDAT ?end@?$_Iosb@H@std@@2W4_Seekdir@12@B
CONST	SEGMENT
?end@?$_Iosb@H@std@@2W4_Seekdir@12@B DD 02H		; std::_Iosb<int>::end
CONST	ENDS
;	COMDAT ?cur@?$_Iosb@H@std@@2W4_Seekdir@12@B
CONST	SEGMENT
?cur@?$_Iosb@H@std@@2W4_Seekdir@12@B DD 01H		; std::_Iosb<int>::cur
CONST	ENDS
;	COMDAT ?beg@?$_Iosb@H@std@@2W4_Seekdir@12@B
CONST	SEGMENT
?beg@?$_Iosb@H@std@@2W4_Seekdir@12@B DD 00H		; std::_Iosb<int>::beg
CONST	ENDS
;	COMDAT ?binary@?$_Iosb@H@std@@2W4_Openmode@12@B
CONST	SEGMENT
?binary@?$_Iosb@H@std@@2W4_Openmode@12@B DD 020H	; std::_Iosb<int>::binary
CONST	ENDS
;	COMDAT ?_Noreplace@?$_Iosb@H@std@@2W4_Openmode@12@B
CONST	SEGMENT
?_Noreplace@?$_Iosb@H@std@@2W4_Openmode@12@B DD 080H	; std::_Iosb<int>::_Noreplace
CONST	ENDS
;	COMDAT ?_Nocreate@?$_Iosb@H@std@@2W4_Openmode@12@B
CONST	SEGMENT
?_Nocreate@?$_Iosb@H@std@@2W4_Openmode@12@B DD 040H	; std::_Iosb<int>::_Nocreate
CONST	ENDS
;	COMDAT ?trunc@?$_Iosb@H@std@@2W4_Openmode@12@B
CONST	SEGMENT
?trunc@?$_Iosb@H@std@@2W4_Openmode@12@B DD 010H		; std::_Iosb<int>::trunc
CONST	ENDS
;	COMDAT ?app@?$_Iosb@H@std@@2W4_Openmode@12@B
CONST	SEGMENT
?app@?$_Iosb@H@std@@2W4_Openmode@12@B DD 08H		; std::_Iosb<int>::app
CONST	ENDS
;	COMDAT ?ate@?$_Iosb@H@std@@2W4_Openmode@12@B
CONST	SEGMENT
?ate@?$_Iosb@H@std@@2W4_Openmode@12@B DD 04H		; std::_Iosb<int>::ate
CONST	ENDS
;	COMDAT ?out@?$_Iosb@H@std@@2W4_Openmode@12@B
CONST	SEGMENT
?out@?$_Iosb@H@std@@2W4_Openmode@12@B DD 02H		; std::_Iosb<int>::out
CONST	ENDS
;	COMDAT ?in@?$_Iosb@H@std@@2W4_Openmode@12@B
CONST	SEGMENT
?in@?$_Iosb@H@std@@2W4_Openmode@12@B DD 01H		; std::_Iosb<int>::in
CONST	ENDS
;	COMDAT ?_Hardfail@?$_Iosb@H@std@@2W4_Iostate@12@B
CONST	SEGMENT
?_Hardfail@?$_Iosb@H@std@@2W4_Iostate@12@B DD 010H	; std::_Iosb<int>::_Hardfail
CONST	ENDS
;	COMDAT ?badbit@?$_Iosb@H@std@@2W4_Iostate@12@B
CONST	SEGMENT
?badbit@?$_Iosb@H@std@@2W4_Iostate@12@B DD 04H		; std::_Iosb<int>::badbit
CONST	ENDS
;	COMDAT ?failbit@?$_Iosb@H@std@@2W4_Iostate@12@B
CONST	SEGMENT
?failbit@?$_Iosb@H@std@@2W4_Iostate@12@B DD 02H		; std::_Iosb<int>::failbit
CONST	ENDS
;	COMDAT ?eofbit@?$_Iosb@H@std@@2W4_Iostate@12@B
CONST	SEGMENT
?eofbit@?$_Iosb@H@std@@2W4_Iostate@12@B DD 01H		; std::_Iosb<int>::eofbit
CONST	ENDS
;	COMDAT ?goodbit@?$_Iosb@H@std@@2W4_Iostate@12@B
CONST	SEGMENT
?goodbit@?$_Iosb@H@std@@2W4_Iostate@12@B DD 00H		; std::_Iosb<int>::goodbit
CONST	ENDS
;	COMDAT ?floatfield@?$_Iosb@H@std@@2W4_Fmtflags@12@B
CONST	SEGMENT
?floatfield@?$_Iosb@H@std@@2W4_Fmtflags@12@B DD 03000H	; std::_Iosb<int>::floatfield
CONST	ENDS
;	COMDAT ?basefield@?$_Iosb@H@std@@2W4_Fmtflags@12@B
CONST	SEGMENT
?basefield@?$_Iosb@H@std@@2W4_Fmtflags@12@B DD 0e00H	; std::_Iosb<int>::basefield
CONST	ENDS
;	COMDAT ?adjustfield@?$_Iosb@H@std@@2W4_Fmtflags@12@B
CONST	SEGMENT
?adjustfield@?$_Iosb@H@std@@2W4_Fmtflags@12@B DD 01c0H	; std::_Iosb<int>::adjustfield
CONST	ENDS
;	COMDAT ?_Stdio@?$_Iosb@H@std@@2W4_Fmtflags@12@B
CONST	SEGMENT
?_Stdio@?$_Iosb@H@std@@2W4_Fmtflags@12@B DD 08000H	; std::_Iosb<int>::_Stdio
CONST	ENDS
;	COMDAT ?boolalpha@?$_Iosb@H@std@@2W4_Fmtflags@12@B
CONST	SEGMENT
?boolalpha@?$_Iosb@H@std@@2W4_Fmtflags@12@B DD 04000H	; std::_Iosb<int>::boolalpha
CONST	ENDS
;	COMDAT ?hexfloat@?$_Iosb@H@std@@2W4_Fmtflags@12@B
CONST	SEGMENT
?hexfloat@?$_Iosb@H@std@@2W4_Fmtflags@12@B DD 03000H	; std::_Iosb<int>::hexfloat
CONST	ENDS
;	COMDAT ?fixed@?$_Iosb@H@std@@2W4_Fmtflags@12@B
CONST	SEGMENT
?fixed@?$_Iosb@H@std@@2W4_Fmtflags@12@B DD 02000H	; std::_Iosb<int>::fixed
CONST	ENDS
;	COMDAT ?scientific@?$_Iosb@H@std@@2W4_Fmtflags@12@B
CONST	SEGMENT
?scientific@?$_Iosb@H@std@@2W4_Fmtflags@12@B DD 01000H	; std::_Iosb<int>::scientific
CONST	ENDS
;	COMDAT ?hex@?$_Iosb@H@std@@2W4_Fmtflags@12@B
CONST	SEGMENT
?hex@?$_Iosb@H@std@@2W4_Fmtflags@12@B DD 0800H		; std::_Iosb<int>::hex
CONST	ENDS
;	COMDAT ?oct@?$_Iosb@H@std@@2W4_Fmtflags@12@B
CONST	SEGMENT
?oct@?$_Iosb@H@std@@2W4_Fmtflags@12@B DD 0400H		; std::_Iosb<int>::oct
CONST	ENDS
;	COMDAT ?dec@?$_Iosb@H@std@@2W4_Fmtflags@12@B
CONST	SEGMENT
?dec@?$_Iosb@H@std@@2W4_Fmtflags@12@B DD 0200H		; std::_Iosb<int>::dec
CONST	ENDS
;	COMDAT ?internal@?$_Iosb@H@std@@2W4_Fmtflags@12@B
CONST	SEGMENT
?internal@?$_Iosb@H@std@@2W4_Fmtflags@12@B DD 0100H	; std::_Iosb<int>::internal
CONST	ENDS
;	COMDAT ?right@?$_Iosb@H@std@@2W4_Fmtflags@12@B
CONST	SEGMENT
?right@?$_Iosb@H@std@@2W4_Fmtflags@12@B DD 080H		; std::_Iosb<int>::right
CONST	ENDS
;	COMDAT ?left@?$_Iosb@H@std@@2W4_Fmtflags@12@B
CONST	SEGMENT
?left@?$_Iosb@H@std@@2W4_Fmtflags@12@B DD 040H		; std::_Iosb<int>::left
CONST	ENDS
;	COMDAT ?showpos@?$_Iosb@H@std@@2W4_Fmtflags@12@B
CONST	SEGMENT
?showpos@?$_Iosb@H@std@@2W4_Fmtflags@12@B DD 020H	; std::_Iosb<int>::showpos
CONST	ENDS
;	COMDAT ?showpoint@?$_Iosb@H@std@@2W4_Fmtflags@12@B
CONST	SEGMENT
?showpoint@?$_Iosb@H@std@@2W4_Fmtflags@12@B DD 010H	; std::_Iosb<int>::showpoint
CONST	ENDS
;	COMDAT ?showbase@?$_Iosb@H@std@@2W4_Fmtflags@12@B
CONST	SEGMENT
?showbase@?$_Iosb@H@std@@2W4_Fmtflags@12@B DD 08H	; std::_Iosb<int>::showbase
CONST	ENDS
;	COMDAT ?uppercase@?$_Iosb@H@std@@2W4_Fmtflags@12@B
CONST	SEGMENT
?uppercase@?$_Iosb@H@std@@2W4_Fmtflags@12@B DD 04H	; std::_Iosb<int>::uppercase
CONST	ENDS
;	COMDAT ?unitbuf@?$_Iosb@H@std@@2W4_Fmtflags@12@B
CONST	SEGMENT
?unitbuf@?$_Iosb@H@std@@2W4_Fmtflags@12@B DD 02H	; std::_Iosb<int>::unitbuf
CONST	ENDS
;	COMDAT ?skipws@?$_Iosb@H@std@@2W4_Fmtflags@12@B
CONST	SEGMENT
?skipws@?$_Iosb@H@std@@2W4_Fmtflags@12@B DD 01H		; std::_Iosb<int>::skipws
CONST	ENDS
;	COMDAT ?none@?$_Locbase@H@std@@2HB
CONST	SEGMENT
?none@?$_Locbase@H@std@@2HB DD 00H			; std::_Locbase<int>::none
CONST	ENDS
;	COMDAT ?all@?$_Locbase@H@std@@2HB
CONST	SEGMENT
?all@?$_Locbase@H@std@@2HB DD 03fH			; std::_Locbase<int>::all
CONST	ENDS
;	COMDAT ?messages@?$_Locbase@H@std@@2HB
CONST	SEGMENT
?messages@?$_Locbase@H@std@@2HB DD 020H			; std::_Locbase<int>::messages
CONST	ENDS
;	COMDAT ?time@?$_Locbase@H@std@@2HB
CONST	SEGMENT
?time@?$_Locbase@H@std@@2HB DD 010H			; std::_Locbase<int>::time
CONST	ENDS
;	COMDAT ?numeric@?$_Locbase@H@std@@2HB
CONST	SEGMENT
?numeric@?$_Locbase@H@std@@2HB DD 08H			; std::_Locbase<int>::numeric
CONST	ENDS
;	COMDAT ?monetary@?$_Locbase@H@std@@2HB
CONST	SEGMENT
?monetary@?$_Locbase@H@std@@2HB DD 04H			; std::_Locbase<int>::monetary
CONST	ENDS
;	COMDAT ?ctype@?$_Locbase@H@std@@2HB
CONST	SEGMENT
?ctype@?$_Locbase@H@std@@2HB DD 02H			; std::_Locbase<int>::ctype
CONST	ENDS
;	COMDAT ?collate@?$_Locbase@H@std@@2HB
CONST	SEGMENT
?collate@?$_Locbase@H@std@@2HB DD 01H			; std::_Locbase<int>::collate
CONST	ENDS
;	COMDAT ?_Value@?$_Is_swap_move@U_Swap_move_tag@std@@@std@@2_NB
CONST	SEGMENT
?_Value@?$_Is_swap_move@U_Swap_move_tag@std@@@std@@2_NB DB 01H ; std::_Is_swap_move<std::_Swap_move_tag>::_Value
CONST	ENDS
_DATA	SEGMENT
__bad_alloc_Message DD FLAT:$SG5714
_DATA	ENDS
CONST	SEGMENT
$SG5714	DB	'bad allocation', 00H
	ORG $+1
$SG129038 DB	0d2H, 0fdH, 0c7H, 0e6H, 0b3H, 0f5H, 0caH, 0bcH, 0bbH, 0afH
	DB	0b4H, 0edH, 0ceH, 0f3H, 00H
	ORG $+1
$SG129039 DB	0d5H, 0d2H, 0b2H, 0bbH, 0b5H, 0bdH, '3D', 0d3H, 0b2H, 0bcH
	DB	0feH, 0bcH, 0d3H, 0cbH, 0d9H, 0c9H, 0e8H, 0b1H, 0b8H, 0a3H, 0acH
	DB	0d3H, 0d0H, 0bfH, 0c9H, 0c4H, 0dcH, 0caH, 0c7H, 0c3H, 0bbH, 0d3H
	DB	0d0H, 0b0H, 0b2H, 0d7H, 0b0H, 0cfH, 0d4H, 0bfH, 0a8H, 0c7H, 0fdH
	DB	0b6H, 0afH, 0b3H, 0ccH, 0d0H, 0f2H, 0bbH, 0f2H, 0d5H, 0dfH, 'D'
	DB	'irectX9.0c', 00H
	ORG $+2
$SG129057 DB	'.\OgreD3D9DriverEnum.cpp', 00H
	ORG $+3
$SG129058 DB	'Choose D3DSettings: dispmode=(%d,%d,%d), dsformat=%d, in'
	DB	'terval=%d, msquality=%d, mstype=%d, vptype=%d', 00H
CONST	ENDS
PUBLIC	??1?$vector@PAUD3DDEVCOMBO_T@Ogre@@V?$allocator@PAUD3DDEVCOMBO_T@Ogre@@@std@@@std@@QAE@XZ ; std::vector<Ogre::D3DDEVCOMBO_T *,std::allocator<Ogre::D3DDEVCOMBO_T *> >::~vector<Ogre::D3DDEVCOMBO_T *,std::allocator<Ogre::D3DDEVCOMBO_T *> >
PUBLIC	??_GD3DDEVCOMBO_T@Ogre@@QAEPAXI@Z		; Ogre::D3DDEVCOMBO_T::`scalar deleting destructor'
PUBLIC	??A?$vector@PAUD3DDEVCOMBO_T@Ogre@@V?$allocator@PAUD3DDEVCOMBO_T@Ogre@@@std@@@std@@QAEAAPAUD3DDEVCOMBO_T@Ogre@@I@Z ; std::vector<Ogre::D3DDEVCOMBO_T *,std::allocator<Ogre::D3DDEVCOMBO_T *> >::operator[]
PUBLIC	?size@?$vector@PAUD3DDEVCOMBO_T@Ogre@@V?$allocator@PAUD3DDEVCOMBO_T@Ogre@@@std@@@std@@QBEIXZ ; std::vector<Ogre::D3DDEVCOMBO_T *,std::allocator<Ogre::D3DDEVCOMBO_T *> >::size
PUBLIC	??1D3DDEVICEINFO_T@Ogre@@QAE@XZ			; Ogre::D3DDEVICEINFO_T::~D3DDEVICEINFO_T
EXTRN	___security_cookie:DWORD
EXTRN	___CxxFrameHandler3:PROC
EXTRN	@__security_check_cookie@4:PROC
xdata$x	SEGMENT
__unwindtable$??1D3DDEVICEINFO_T@Ogre@@QAE@XZ DD 0ffffffffH
	DD	FLAT:__unwindfunclet$??1D3DDEVICEINFO_T@Ogre@@QAE@XZ$0
__ehfuncinfo$??1D3DDEVICEINFO_T@Ogre@@QAE@XZ DD 019930522H
	DD	01H
	DD	FLAT:__unwindtable$??1D3DDEVICEINFO_T@Ogre@@QAE@XZ
	DD	2 DUP(00H)
	DD	2 DUP(00H)
	DD	00H
	DD	00H
; Function compile flags: /Odtp
; File i:\svnroot\client\plugins\rendersystem_d3d9\ogred3d9driverenum.cpp
xdata$x	ENDS
_TEXT	SEGMENT
tv79 = -32						; size = 4
_this$ = -28						; size = 4
$T141400 = -24						; size = 4
$T141399 = -20						; size = 4
_i$128705 = -16						; size = 4
__$EHRec$ = -12						; size = 12
??1D3DDEVICEINFO_T@Ogre@@QAE@XZ PROC			; Ogre::D3DDEVICEINFO_T::~D3DDEVICEINFO_T
; _this$ = ecx

; 126  : 	{

	push	ebp
	mov	ebp, esp
	push	-1
	push	__ehhandler$??1D3DDEVICEINFO_T@Ogre@@QAE@XZ
	mov	eax, DWORD PTR fs:0
	push	eax
	sub	esp, 20					; 00000014H
	mov	eax, DWORD PTR ___security_cookie
	xor	eax, ebp
	push	eax
	lea	eax, DWORD PTR __$EHRec$[ebp]
	mov	DWORD PTR fs:0, eax
	mov	DWORD PTR _this$[ebp], ecx
	mov	DWORD PTR __$EHRec$[ebp+8], 0

; 127  : 		for( SIZE_T i=0; i<devcombo.size(); i++ )

	mov	DWORD PTR _i$128705[ebp], 0
	jmp	SHORT $LN3@D3DDEVICEI
$LN2@D3DDEVICEI:
	mov	eax, DWORD PTR _i$128705[ebp]
	add	eax, 1
	mov	DWORD PTR _i$128705[ebp], eax
$LN3@D3DDEVICEI:
	mov	ecx, DWORD PTR _this$[ebp]
	add	ecx, 312				; 00000138H
	call	?size@?$vector@PAUD3DDEVCOMBO_T@Ogre@@V?$allocator@PAUD3DDEVCOMBO_T@Ogre@@@std@@@std@@QBEIXZ ; std::vector<Ogre::D3DDEVCOMBO_T *,std::allocator<Ogre::D3DDEVCOMBO_T *> >::size
	cmp	DWORD PTR _i$128705[ebp], eax
	jae	SHORT $LN4@D3DDEVICEI

; 128  : 		{
; 129  : 			delete(devcombo[i]);

	mov	ecx, DWORD PTR _i$128705[ebp]
	push	ecx
	mov	ecx, DWORD PTR _this$[ebp]
	add	ecx, 312				; 00000138H
	call	??A?$vector@PAUD3DDEVCOMBO_T@Ogre@@V?$allocator@PAUD3DDEVCOMBO_T@Ogre@@@std@@@std@@QAEAAPAUD3DDEVCOMBO_T@Ogre@@I@Z ; std::vector<Ogre::D3DDEVCOMBO_T *,std::allocator<Ogre::D3DDEVCOMBO_T *> >::operator[]
	mov	edx, DWORD PTR [eax]
	mov	DWORD PTR $T141400[ebp], edx
	mov	eax, DWORD PTR $T141400[ebp]
	mov	DWORD PTR $T141399[ebp], eax
	cmp	DWORD PTR $T141399[ebp], 0
	je	SHORT $LN6@D3DDEVICEI
	push	1
	mov	ecx, DWORD PTR $T141399[ebp]
	call	??_GD3DDEVCOMBO_T@Ogre@@QAEPAXI@Z
	mov	DWORD PTR tv79[ebp], eax
	jmp	SHORT $LN7@D3DDEVICEI
$LN6@D3DDEVICEI:
	mov	DWORD PTR tv79[ebp], 0
$LN7@D3DDEVICEI:

; 130  : 		}

	jmp	SHORT $LN2@D3DDEVICEI
$LN4@D3DDEVICEI:

; 131  : 	}

	mov	DWORD PTR __$EHRec$[ebp+8], -1
	mov	ecx, DWORD PTR _this$[ebp]
	add	ecx, 312				; 00000138H
	call	??1?$vector@PAUD3DDEVCOMBO_T@Ogre@@V?$allocator@PAUD3DDEVCOMBO_T@Ogre@@@std@@@std@@QAE@XZ ; std::vector<Ogre::D3DDEVCOMBO_T *,std::allocator<Ogre::D3DDEVCOMBO_T *> >::~vector<Ogre::D3DDEVCOMBO_T *,std::allocator<Ogre::D3DDEVCOMBO_T *> >
	mov	ecx, DWORD PTR __$EHRec$[ebp]
	mov	DWORD PTR fs:0, ecx
	pop	ecx
	mov	esp, ebp
	pop	ebp
	ret	0
_TEXT	ENDS
text$x	SEGMENT
__unwindfunclet$??1D3DDEVICEINFO_T@Ogre@@QAE@XZ$0:
	mov	ecx, DWORD PTR _this$[ebp]
	add	ecx, 312				; 00000138H
	jmp	??1?$vector@PAUD3DDEVCOMBO_T@Ogre@@V?$allocator@PAUD3DDEVCOMBO_T@Ogre@@@std@@@std@@QAE@XZ ; std::vector<Ogre::D3DDEVCOMBO_T *,std::allocator<Ogre::D3DDEVCOMBO_T *> >::~vector<Ogre::D3DDEVCOMBO_T *,std::allocator<Ogre::D3DDEVCOMBO_T *> >
__ehhandler$??1D3DDEVICEINFO_T@Ogre@@QAE@XZ:
	mov	edx, DWORD PTR [esp+8]
	lea	eax, DWORD PTR [edx+12]
	mov	ecx, DWORD PTR [edx-24]
	xor	ecx, eax
	call	@__security_check_cookie@4
	mov	eax, OFFSET __ehfuncinfo$??1D3DDEVICEINFO_T@Ogre@@QAE@XZ
	jmp	___CxxFrameHandler3
text$x	ENDS
??1D3DDEVICEINFO_T@Ogre@@QAE@XZ ENDP			; Ogre::D3DDEVICEINFO_T::~D3DDEVICEINFO_T
PUBLIC	??1D3DDEVCOMBO_T@Ogre@@QAE@XZ			; Ogre::D3DDEVCOMBO_T::~D3DDEVCOMBO_T
EXTRN	??3@YAXPAX@Z:PROC				; operator delete
; Function compile flags: /Odtp
;	COMDAT ??_GD3DDEVCOMBO_T@Ogre@@QAEPAXI@Z
_TEXT	SEGMENT
_this$ = -4						; size = 4
___flags$ = 8						; size = 4
??_GD3DDEVCOMBO_T@Ogre@@QAEPAXI@Z PROC			; Ogre::D3DDEVCOMBO_T::`scalar deleting destructor', COMDAT
; _this$ = ecx
	push	ebp
	mov	ebp, esp
	push	ecx
	mov	DWORD PTR _this$[ebp], ecx
	mov	ecx, DWORD PTR _this$[ebp]
	call	??1D3DDEVCOMBO_T@Ogre@@QAE@XZ
	mov	eax, DWORD PTR ___flags$[ebp]
	and	eax, 1
	je	SHORT $LN1@scalar
	mov	ecx, DWORD PTR _this$[ebp]
	push	ecx
	call	??3@YAXPAX@Z				; operator delete
	add	esp, 4
$LN1@scalar:
	mov	eax, DWORD PTR _this$[ebp]
	mov	esp, ebp
	pop	ebp
	ret	4
??_GD3DDEVCOMBO_T@Ogre@@QAEPAXI@Z ENDP			; Ogre::D3DDEVCOMBO_T::`scalar deleting destructor'
_TEXT	ENDS
PUBLIC	??1?$vector@W4_D3DFORMAT@@V?$allocator@W4_D3DFORMAT@@@std@@@std@@QAE@XZ ; std::vector<enum _D3DFORMAT,std::allocator<enum _D3DFORMAT> >::~vector<enum _D3DFORMAT,std::allocator<enum _D3DFORMAT> >
PUBLIC	??1?$vector@W4_D3DMULTISAMPLE_TYPE@@V?$allocator@W4_D3DMULTISAMPLE_TYPE@@@std@@@std@@QAE@XZ ; std::vector<enum _D3DMULTISAMPLE_TYPE,std::allocator<enum _D3DMULTISAMPLE_TYPE> >::~vector<enum _D3DMULTISAMPLE_TYPE,std::allocator<enum _D3DMULTISAMPLE_TYPE> >
PUBLIC	??1?$vector@UD3DSMSCONFLICT_T@Ogre@@V?$allocator@UD3DSMSCONFLICT_T@Ogre@@@std@@@std@@QAE@XZ ; std::vector<Ogre::D3DSMSCONFLICT_T,std::allocator<Ogre::D3DSMSCONFLICT_T> >::~vector<Ogre::D3DSMSCONFLICT_T,std::allocator<Ogre::D3DSMSCONFLICT_T> >
PUBLIC	??1?$vector@W4VERTPROCESS_T@Ogre@@V?$allocator@W4VERTPROCESS_T@Ogre@@@std@@@std@@QAE@XZ ; std::vector<enum Ogre::VERTPROCESS_T,std::allocator<enum Ogre::VERTPROCESS_T> >::~vector<enum Ogre::VERTPROCESS_T,std::allocator<enum Ogre::VERTPROCESS_T> >
PUBLIC	??1?$vector@IV?$allocator@I@std@@@std@@QAE@XZ	; std::vector<unsigned int,std::allocator<unsigned int> >::~vector<unsigned int,std::allocator<unsigned int> >
;	COMDAT xdata$x
xdata$x	SEGMENT
__ehfuncinfo$??1D3DDEVCOMBO_T@Ogre@@QAE@XZ DD 019930522H
	DD	06H
	DD	FLAT:__unwindtable$??1D3DDEVCOMBO_T@Ogre@@QAE@XZ
	DD	2 DUP(00H)
	DD	2 DUP(00H)
	DD	00H
	DD	00H
__unwindtable$??1D3DDEVCOMBO_T@Ogre@@QAE@XZ DD 0ffffffffH
	DD	FLAT:__unwindfunclet$??1D3DDEVCOMBO_T@Ogre@@QAE@XZ$0
	DD	00H
	DD	FLAT:__unwindfunclet$??1D3DDEVCOMBO_T@Ogre@@QAE@XZ$1
	DD	01H
	DD	FLAT:__unwindfunclet$??1D3DDEVCOMBO_T@Ogre@@QAE@XZ$2
	DD	02H
	DD	FLAT:__unwindfunclet$??1D3DDEVCOMBO_T@Ogre@@QAE@XZ$3
	DD	03H
	DD	FLAT:__unwindfunclet$??1D3DDEVCOMBO_T@Ogre@@QAE@XZ$4
	DD	04H
	DD	FLAT:__unwindfunclet$??1D3DDEVCOMBO_T@Ogre@@QAE@XZ$5
; Function compile flags: /Odtp
xdata$x	ENDS
;	COMDAT ??1D3DDEVCOMBO_T@Ogre@@QAE@XZ
_TEXT	SEGMENT
_this$ = -16						; size = 4
__$EHRec$ = -12						; size = 12
??1D3DDEVCOMBO_T@Ogre@@QAE@XZ PROC			; Ogre::D3DDEVCOMBO_T::~D3DDEVCOMBO_T, COMDAT
; _this$ = ecx
	push	ebp
	mov	ebp, esp
	push	-1
	push	__ehhandler$??1D3DDEVCOMBO_T@Ogre@@QAE@XZ
	mov	eax, DWORD PTR fs:0
	push	eax
	push	ecx
	mov	eax, DWORD PTR ___security_cookie
	xor	eax, ebp
	push	eax
	lea	eax, DWORD PTR __$EHRec$[ebp]
	mov	DWORD PTR fs:0, eax
	mov	DWORD PTR _this$[ebp], ecx
	mov	DWORD PTR __$EHRec$[ebp+8], 5
	mov	BYTE PTR __$EHRec$[ebp+8], 4
	mov	ecx, DWORD PTR _this$[ebp]
	add	ecx, 140				; 0000008cH
	call	??1?$vector@IV?$allocator@I@std@@@std@@QAE@XZ ; std::vector<unsigned int,std::allocator<unsigned int> >::~vector<unsigned int,std::allocator<unsigned int> >
	mov	BYTE PTR __$EHRec$[ebp+8], 3
	mov	ecx, DWORD PTR _this$[ebp]
	add	ecx, 116				; 00000074H
	call	??1?$vector@W4VERTPROCESS_T@Ogre@@V?$allocator@W4VERTPROCESS_T@Ogre@@@std@@@std@@QAE@XZ ; std::vector<enum Ogre::VERTPROCESS_T,std::allocator<enum Ogre::VERTPROCESS_T> >::~vector<enum Ogre::VERTPROCESS_T,std::allocator<enum Ogre::VERTPROCESS_T> >
	mov	BYTE PTR __$EHRec$[ebp+8], 2
	mov	ecx, DWORD PTR _this$[ebp]
	add	ecx, 92					; 0000005cH
	call	??1?$vector@UD3DSMSCONFLICT_T@Ogre@@V?$allocator@UD3DSMSCONFLICT_T@Ogre@@@std@@@std@@QAE@XZ ; std::vector<Ogre::D3DSMSCONFLICT_T,std::allocator<Ogre::D3DSMSCONFLICT_T> >::~vector<Ogre::D3DSMSCONFLICT_T,std::allocator<Ogre::D3DSMSCONFLICT_T> >
	mov	BYTE PTR __$EHRec$[ebp+8], 1
	mov	ecx, DWORD PTR _this$[ebp]
	add	ecx, 68					; 00000044H
	call	??1?$vector@IV?$allocator@I@std@@@std@@QAE@XZ ; std::vector<unsigned int,std::allocator<unsigned int> >::~vector<unsigned int,std::allocator<unsigned int> >
	mov	BYTE PTR __$EHRec$[ebp+8], 0
	mov	ecx, DWORD PTR _this$[ebp]
	add	ecx, 44					; 0000002cH
	call	??1?$vector@W4_D3DMULTISAMPLE_TYPE@@V?$allocator@W4_D3DMULTISAMPLE_TYPE@@@std@@@std@@QAE@XZ ; std::vector<enum _D3DMULTISAMPLE_TYPE,std::allocator<enum _D3DMULTISAMPLE_TYPE> >::~vector<enum _D3DMULTISAMPLE_TYPE,std::allocator<enum _D3DMULTISAMPLE_TYPE> >
	mov	DWORD PTR __$EHRec$[ebp+8], -1
	mov	ecx, DWORD PTR _this$[ebp]
	add	ecx, 20					; 00000014H
	call	??1?$vector@W4_D3DFORMAT@@V?$allocator@W4_D3DFORMAT@@@std@@@std@@QAE@XZ ; std::vector<enum _D3DFORMAT,std::allocator<enum _D3DFORMAT> >::~vector<enum _D3DFORMAT,std::allocator<enum _D3DFORMAT> >
	mov	ecx, DWORD PTR __$EHRec$[ebp]
	mov	DWORD PTR fs:0, ecx
	pop	ecx
	mov	esp, ebp
	pop	ebp
	ret	0
_TEXT	ENDS
;	COMDAT text$x
text$x	SEGMENT
__unwindfunclet$??1D3DDEVCOMBO_T@Ogre@@QAE@XZ$0:
	mov	ecx, DWORD PTR _this$[ebp]
	add	ecx, 20					; 00000014H
	jmp	??1?$vector@W4_D3DFORMAT@@V?$allocator@W4_D3DFORMAT@@@std@@@std@@QAE@XZ ; std::vector<enum _D3DFORMAT,std::allocator<enum _D3DFORMAT> >::~vector<enum _D3DFORMAT,std::allocator<enum _D3DFORMAT> >
__unwindfunclet$??1D3DDEVCOMBO_T@Ogre@@QAE@XZ$1:
	mov	ecx, DWORD PTR _this$[ebp]
	add	ecx, 44					; 0000002cH
	jmp	??1?$vector@W4_D3DMULTISAMPLE_TYPE@@V?$allocator@W4_D3DMULTISAMPLE_TYPE@@@std@@@std@@QAE@XZ ; std::vector<enum _D3DMULTISAMPLE_TYPE,std::allocator<enum _D3DMULTISAMPLE_TYPE> >::~vector<enum _D3DMULTISAMPLE_TYPE,std::allocator<enum _D3DMULTISAMPLE_TYPE> >
__unwindfunclet$??1D3DDEVCOMBO_T@Ogre@@QAE@XZ$2:
	mov	ecx, DWORD PTR _this$[ebp]
	add	ecx, 68					; 00000044H
	jmp	??1?$vector@IV?$allocator@I@std@@@std@@QAE@XZ ; std::vector<unsigned int,std::allocator<unsigned int> >::~vector<unsigned int,std::allocator<unsigned int> >
__unwindfunclet$??1D3DDEVCOMBO_T@Ogre@@QAE@XZ$3:
	mov	ecx, DWORD PTR _this$[ebp]
	add	ecx, 92					; 0000005cH
	jmp	??1?$vector@UD3DSMSCONFLICT_T@Ogre@@V?$allocator@UD3DSMSCONFLICT_T@Ogre@@@std@@@std@@QAE@XZ ; std::vector<Ogre::D3DSMSCONFLICT_T,std::allocator<Ogre::D3DSMSCONFLICT_T> >::~vector<Ogre::D3DSMSCONFLICT_T,std::allocator<Ogre::D3DSMSCONFLICT_T> >
__unwindfunclet$??1D3DDEVCOMBO_T@Ogre@@QAE@XZ$4:
	mov	ecx, DWORD PTR _this$[ebp]
	add	ecx, 116				; 00000074H
	jmp	??1?$vector@W4VERTPROCESS_T@Ogre@@V?$allocator@W4VERTPROCESS_T@Ogre@@@std@@@std@@QAE@XZ ; std::vector<enum Ogre::VERTPROCESS_T,std::allocator<enum Ogre::VERTPROCESS_T> >::~vector<enum Ogre::VERTPROCESS_T,std::allocator<enum Ogre::VERTPROCESS_T> >
__unwindfunclet$??1D3DDEVCOMBO_T@Ogre@@QAE@XZ$5:
	mov	ecx, DWORD PTR _this$[ebp]
	add	ecx, 140				; 0000008cH
	jmp	??1?$vector@IV?$allocator@I@std@@@std@@QAE@XZ ; std::vector<unsigned int,std::allocator<unsigned int> >::~vector<unsigned int,std::allocator<unsigned int> >
__ehhandler$??1D3DDEVCOMBO_T@Ogre@@QAE@XZ:
	mov	edx, DWORD PTR [esp+8]
	lea	eax, DWORD PTR [edx+12]
	mov	ecx, DWORD PTR [edx-8]
	xor	ecx, eax
	call	@__security_check_cookie@4
	mov	eax, OFFSET __ehfuncinfo$??1D3DDEVCOMBO_T@Ogre@@QAE@XZ
	jmp	___CxxFrameHandler3
text$x	ENDS
??1D3DDEVCOMBO_T@Ogre@@QAE@XZ ENDP			; Ogre::D3DDEVCOMBO_T::~D3DDEVCOMBO_T
PUBLIC	??1?$vector@U_D3DDISPLAYMODE@@V?$allocator@U_D3DDISPLAYMODE@@@std@@@std@@QAE@XZ ; std::vector<_D3DDISPLAYMODE,std::allocator<_D3DDISPLAYMODE> >::~vector<_D3DDISPLAYMODE,std::allocator<_D3DDISPLAYMODE> >
PUBLIC	??1?$vector@PAUD3DDEVICEINFO_T@Ogre@@V?$allocator@PAUD3DDEVICEINFO_T@Ogre@@@std@@@std@@QAE@XZ ; std::vector<Ogre::D3DDEVICEINFO_T *,std::allocator<Ogre::D3DDEVICEINFO_T *> >::~vector<Ogre::D3DDEVICEINFO_T *,std::allocator<Ogre::D3DDEVICEINFO_T *> >
PUBLIC	??_GD3DDEVICEINFO_T@Ogre@@QAEPAXI@Z		; Ogre::D3DDEVICEINFO_T::`scalar deleting destructor'
PUBLIC	??A?$vector@PAUD3DDEVICEINFO_T@Ogre@@V?$allocator@PAUD3DDEVICEINFO_T@Ogre@@@std@@@std@@QAEAAPAUD3DDEVICEINFO_T@Ogre@@I@Z ; std::vector<Ogre::D3DDEVICEINFO_T *,std::allocator<Ogre::D3DDEVICEINFO_T *> >::operator[]
PUBLIC	?size@?$vector@PAUD3DDEVICEINFO_T@Ogre@@V?$allocator@PAUD3DDEVICEINFO_T@Ogre@@@std@@@std@@QBEIXZ ; std::vector<Ogre::D3DDEVICEINFO_T *,std::allocator<Ogre::D3DDEVICEINFO_T *> >::size
PUBLIC	??1D3DADAPTER_T@Ogre@@QAE@XZ			; Ogre::D3DADAPTER_T::~D3DADAPTER_T
xdata$x	SEGMENT
__unwindtable$??1D3DADAPTER_T@Ogre@@QAE@XZ DD 0ffffffffH
	DD	FLAT:__unwindfunclet$??1D3DADAPTER_T@Ogre@@QAE@XZ$0
	DD	00H
	DD	FLAT:__unwindfunclet$??1D3DADAPTER_T@Ogre@@QAE@XZ$1
__ehfuncinfo$??1D3DADAPTER_T@Ogre@@QAE@XZ DD 019930522H
	DD	02H
	DD	FLAT:__unwindtable$??1D3DADAPTER_T@Ogre@@QAE@XZ
	DD	2 DUP(00H)
	DD	2 DUP(00H)
	DD	00H
	DD	00H
; Function compile flags: /Odtp
xdata$x	ENDS
_TEXT	SEGMENT
tv81 = -32						; size = 4
_this$ = -28						; size = 4
$T141431 = -24						; size = 4
$T141430 = -20						; size = 4
_i$128720 = -16						; size = 4
__$EHRec$ = -12						; size = 12
??1D3DADAPTER_T@Ogre@@QAE@XZ PROC			; Ogre::D3DADAPTER_T::~D3DADAPTER_T
; _this$ = ecx

; 134  : 	{

	push	ebp
	mov	ebp, esp
	push	-1
	push	__ehhandler$??1D3DADAPTER_T@Ogre@@QAE@XZ
	mov	eax, DWORD PTR fs:0
	push	eax
	sub	esp, 20					; 00000014H
	mov	eax, DWORD PTR ___security_cookie
	xor	eax, ebp
	push	eax
	lea	eax, DWORD PTR __$EHRec$[ebp]
	mov	DWORD PTR fs:0, eax
	mov	DWORD PTR _this$[ebp], ecx
	mov	DWORD PTR __$EHRec$[ebp+8], 1

; 135  : 		for( SIZE_T i=0; i<devinfo.size(); i++ )

	mov	DWORD PTR _i$128720[ebp], 0
	jmp	SHORT $LN3@D3DADAPTER
$LN2@D3DADAPTER:
	mov	eax, DWORD PTR _i$128720[ebp]
	add	eax, 1
	mov	DWORD PTR _i$128720[ebp], eax
$LN3@D3DADAPTER:
	mov	ecx, DWORD PTR _this$[ebp]
	add	ecx, 1128				; 00000468H
	call	?size@?$vector@PAUD3DDEVICEINFO_T@Ogre@@V?$allocator@PAUD3DDEVICEINFO_T@Ogre@@@std@@@std@@QBEIXZ ; std::vector<Ogre::D3DDEVICEINFO_T *,std::allocator<Ogre::D3DDEVICEINFO_T *> >::size
	cmp	DWORD PTR _i$128720[ebp], eax
	jae	SHORT $LN4@D3DADAPTER

; 136  : 		{
; 137  : 			delete(devinfo[i]);

	mov	ecx, DWORD PTR _i$128720[ebp]
	push	ecx
	mov	ecx, DWORD PTR _this$[ebp]
	add	ecx, 1128				; 00000468H
	call	??A?$vector@PAUD3DDEVICEINFO_T@Ogre@@V?$allocator@PAUD3DDEVICEINFO_T@Ogre@@@std@@@std@@QAEAAPAUD3DDEVICEINFO_T@Ogre@@I@Z ; std::vector<Ogre::D3DDEVICEINFO_T *,std::allocator<Ogre::D3DDEVICEINFO_T *> >::operator[]
	mov	edx, DWORD PTR [eax]
	mov	DWORD PTR $T141431[ebp], edx
	mov	eax, DWORD PTR $T141431[ebp]
	mov	DWORD PTR $T141430[ebp], eax
	cmp	DWORD PTR $T141430[ebp], 0
	je	SHORT $LN6@D3DADAPTER
	push	1
	mov	ecx, DWORD PTR $T141430[ebp]
	call	??_GD3DDEVICEINFO_T@Ogre@@QAEPAXI@Z
	mov	DWORD PTR tv81[ebp], eax
	jmp	SHORT $LN7@D3DADAPTER
$LN6@D3DADAPTER:
	mov	DWORD PTR tv81[ebp], 0
$LN7@D3DADAPTER:

; 138  : 		}

	jmp	SHORT $LN2@D3DADAPTER
$LN4@D3DADAPTER:

; 139  : 	}

	mov	BYTE PTR __$EHRec$[ebp+8], 0
	mov	ecx, DWORD PTR _this$[ebp]
	add	ecx, 1128				; 00000468H
	call	??1?$vector@PAUD3DDEVICEINFO_T@Ogre@@V?$allocator@PAUD3DDEVICEINFO_T@Ogre@@@std@@@std@@QAE@XZ ; std::vector<Ogre::D3DDEVICEINFO_T *,std::allocator<Ogre::D3DDEVICEINFO_T *> >::~vector<Ogre::D3DDEVICEINFO_T *,std::allocator<Ogre::D3DDEVICEINFO_T *> >
	mov	DWORD PTR __$EHRec$[ebp+8], -1
	mov	ecx, DWORD PTR _this$[ebp]
	add	ecx, 1104				; 00000450H
	call	??1?$vector@U_D3DDISPLAYMODE@@V?$allocator@U_D3DDISPLAYMODE@@@std@@@std@@QAE@XZ ; std::vector<_D3DDISPLAYMODE,std::allocator<_D3DDISPLAYMODE> >::~vector<_D3DDISPLAYMODE,std::allocator<_D3DDISPLAYMODE> >
	mov	ecx, DWORD PTR __$EHRec$[ebp]
	mov	DWORD PTR fs:0, ecx
	pop	ecx
	mov	esp, ebp
	pop	ebp
	ret	0
_TEXT	ENDS
text$x	SEGMENT
__unwindfunclet$??1D3DADAPTER_T@Ogre@@QAE@XZ$0:
	mov	ecx, DWORD PTR _this$[ebp]
	add	ecx, 1104				; 00000450H
	jmp	??1?$vector@U_D3DDISPLAYMODE@@V?$allocator@U_D3DDISPLAYMODE@@@std@@@std@@QAE@XZ ; std::vector<_D3DDISPLAYMODE,std::allocator<_D3DDISPLAYMODE> >::~vector<_D3DDISPLAYMODE,std::allocator<_D3DDISPLAYMODE> >
__unwindfunclet$??1D3DADAPTER_T@Ogre@@QAE@XZ$1:
	mov	ecx, DWORD PTR _this$[ebp]
	add	ecx, 1128				; 00000468H
	jmp	??1?$vector@PAUD3DDEVICEINFO_T@Ogre@@V?$allocator@PAUD3DDEVICEINFO_T@Ogre@@@std@@@std@@QAE@XZ ; std::vector<Ogre::D3DDEVICEINFO_T *,std::allocator<Ogre::D3DDEVICEINFO_T *> >::~vector<Ogre::D3DDEVICEINFO_T *,std::allocator<Ogre::D3DDEVICEINFO_T *> >
__ehhandler$??1D3DADAPTER_T@Ogre@@QAE@XZ:
	mov	edx, DWORD PTR [esp+8]
	lea	eax, DWORD PTR [edx+12]
	mov	ecx, DWORD PTR [edx-24]
	xor	ecx, eax
	call	@__security_check_cookie@4
	mov	eax, OFFSET __ehfuncinfo$??1D3DADAPTER_T@Ogre@@QAE@XZ
	jmp	___CxxFrameHandler3
text$x	ENDS
??1D3DADAPTER_T@Ogre@@QAE@XZ ENDP			; Ogre::D3DADAPTER_T::~D3DADAPTER_T
; Function compile flags: /Odtp
;	COMDAT ??_GD3DDEVICEINFO_T@Ogre@@QAEPAXI@Z
_TEXT	SEGMENT
_this$ = -4						; size = 4
___flags$ = 8						; size = 4
??_GD3DDEVICEINFO_T@Ogre@@QAEPAXI@Z PROC		; Ogre::D3DDEVICEINFO_T::`scalar deleting destructor', COMDAT
; _this$ = ecx
	push	ebp
	mov	ebp, esp
	push	ecx
	mov	DWORD PTR _this$[ebp], ecx
	mov	ecx, DWORD PTR _this$[ebp]
	call	??1D3DDEVICEINFO_T@Ogre@@QAE@XZ		; Ogre::D3DDEVICEINFO_T::~D3DDEVICEINFO_T
	mov	eax, DWORD PTR ___flags$[ebp]
	and	eax, 1
	je	SHORT $LN1@scalar@2
	mov	ecx, DWORD PTR _this$[ebp]
	push	ecx
	call	??3@YAXPAX@Z				; operator delete
	add	esp, 4
$LN1@scalar@2:
	mov	eax, DWORD PTR _this$[ebp]
	mov	esp, ebp
	pop	ebp
	ret	4
??_GD3DDEVICEINFO_T@Ogre@@QAEPAXI@Z ENDP		; Ogre::D3DDEVICEINFO_T::`scalar deleting destructor'
_TEXT	ENDS
PUBLIC	??1?$vector@PAUD3DADAPTER_T@Ogre@@V?$allocator@PAUD3DADAPTER_T@Ogre@@@std@@@std@@QAE@XZ ; std::vector<Ogre::D3DADAPTER_T *,std::allocator<Ogre::D3DADAPTER_T *> >::~vector<Ogre::D3DADAPTER_T *,std::allocator<Ogre::D3DADAPTER_T *> >
PUBLIC	?push_back@?$vector@W4_D3DFORMAT@@V?$allocator@W4_D3DFORMAT@@@std@@@std@@QAEXABW4_D3DFORMAT@@@Z ; std::vector<enum _D3DFORMAT,std::allocator<enum _D3DFORMAT> >::push_back
PUBLIC	??0?$vector@PAUD3DADAPTER_T@Ogre@@V?$allocator@PAUD3DADAPTER_T@Ogre@@@std@@@std@@QAE@XZ ; std::vector<Ogre::D3DADAPTER_T *,std::allocator<Ogre::D3DADAPTER_T *> >::vector<Ogre::D3DADAPTER_T *,std::allocator<Ogre::D3DADAPTER_T *> >
PUBLIC	??0?$vector@W4_D3DFORMAT@@V?$allocator@W4_D3DFORMAT@@@std@@@std@@QAE@XZ ; std::vector<enum _D3DFORMAT,std::allocator<enum _D3DFORMAT> >::vector<enum _D3DFORMAT,std::allocator<enum _D3DFORMAT> >
PUBLIC	??0D3DEnumeration@Ogre@@QAE@XZ			; Ogre::D3DEnumeration::D3DEnumeration
EXTRN	_memset:PROC
xdata$x	SEGMENT
__unwindtable$??0D3DEnumeration@Ogre@@QAE@XZ DD 0ffffffffH
	DD	FLAT:__unwindfunclet$??0D3DEnumeration@Ogre@@QAE@XZ$0
	DD	00H
	DD	FLAT:__unwindfunclet$??0D3DEnumeration@Ogre@@QAE@XZ$1
__ehfuncinfo$??0D3DEnumeration@Ogre@@QAE@XZ DD 019930522H
	DD	02H
	DD	FLAT:__unwindtable$??0D3DEnumeration@Ogre@@QAE@XZ
	DD	2 DUP(00H)
	DD	2 DUP(00H)
	DD	00H
	DD	00H
; Function compile flags: /Odtp
xdata$x	ENDS
_TEXT	SEGMENT
_this$ = -32						; size = 4
$T141446 = -28						; size = 4
$T141445 = -24						; size = 4
$T141444 = -20						; size = 4
$T141443 = -16						; size = 4
__$EHRec$ = -12						; size = 12
??0D3DEnumeration@Ogre@@QAE@XZ PROC			; Ogre::D3DEnumeration::D3DEnumeration
; _this$ = ecx

; 142  : 	{

	push	ebp
	mov	ebp, esp
	push	-1
	push	__ehhandler$??0D3DEnumeration@Ogre@@QAE@XZ
	mov	eax, DWORD PTR fs:0
	push	eax
	sub	esp, 20					; 00000014H
	mov	eax, DWORD PTR ___security_cookie
	xor	eax, ebp
	push	eax
	lea	eax, DWORD PTR __$EHRec$[ebp]
	mov	DWORD PTR fs:0, eax
	mov	DWORD PTR _this$[ebp], ecx
	mov	ecx, DWORD PTR _this$[ebp]
	call	??0?$vector@W4_D3DFORMAT@@V?$allocator@W4_D3DFORMAT@@@std@@@std@@QAE@XZ ; std::vector<enum _D3DFORMAT,std::allocator<enum _D3DFORMAT> >::vector<enum _D3DFORMAT,std::allocator<enum _D3DFORMAT> >
	mov	DWORD PTR __$EHRec$[ebp+8], 0
	mov	ecx, DWORD PTR _this$[ebp]
	add	ecx, 24					; 00000018H
	call	??0?$vector@PAUD3DADAPTER_T@Ogre@@V?$allocator@PAUD3DADAPTER_T@Ogre@@@std@@@std@@QAE@XZ ; std::vector<Ogre::D3DADAPTER_T *,std::allocator<Ogre::D3DADAPTER_T *> >::vector<Ogre::D3DADAPTER_T *,std::allocator<Ogre::D3DADAPTER_T *> >
	mov	BYTE PTR __$EHRec$[ebp+8], 1

; 143  : 		memset( &m_Settings, 0, sizeof(m_Settings) );

	push	48					; 00000030H
	push	0
	mov	eax, DWORD PTR _this$[ebp]
	add	eax, 96					; 00000060H
	push	eax
	call	_memset
	add	esp, 12					; 0000000cH

; 144  : 
; 145  : 		m_ConfirmDeviceCallback = NULL;

	mov	ecx, DWORD PTR _this$[ebp]
	mov	DWORD PTR [ecx+48], 0

; 146  : 		m_MinFullScreenWidth = 640;

	mov	edx, DWORD PTR _this$[ebp]
	mov	DWORD PTR [edx+52], 640			; 00000280H

; 147  : 		m_MinFullScreenHeight = 480;

	mov	eax, DWORD PTR _this$[ebp]
	mov	DWORD PTR [eax+56], 480			; 000001e0H

; 148  : 		m_MinColorChannelBits = 4;

	mov	ecx, DWORD PTR _this$[ebp]
	mov	DWORD PTR [ecx+60], 4

; 149  : 		m_MinAlphaChannelBits = 0;

	mov	edx, DWORD PTR _this$[ebp]
	mov	DWORD PTR [edx+64], 0

; 150  : 		m_MinDepthBits = 16;

	mov	eax, DWORD PTR _this$[ebp]
	mov	DWORD PTR [eax+68], 16			; 00000010H

; 151  : 		m_MinStencilBits = 0;

	mov	ecx, DWORD PTR _this$[ebp]
	mov	DWORD PTR [ecx+72], 0

; 152  : 
; 153  : 		m_UseDepthBuf = TRUE;

	mov	edx, DWORD PTR _this$[ebp]
	mov	DWORD PTR [edx+76], 1

; 154  : 		m_UseMixedVP = FALSE;

	mov	eax, DWORD PTR _this$[ebp]
	mov	DWORD PTR [eax+80], 0

; 155  : 		m_RequireWindowed = FALSE;

	mov	ecx, DWORD PTR _this$[ebp]
	mov	DWORD PTR [ecx+84], 0

; 156  : 		m_RequireFullscreen = FALSE;

	mov	edx, DWORD PTR _this$[ebp]
	mov	DWORD PTR [edx+88], 0

; 157  : 
; 158  : 		m_pD3D = NULL;

	mov	eax, DWORD PTR _this$[ebp]
	mov	DWORD PTR [eax+92], 0

; 159  : 		m_AllowedFmt.push_back( D3DFMT_X8R8G8B8 );

	mov	DWORD PTR $T141443[ebp], 22		; 00000016H
	lea	ecx, DWORD PTR $T141443[ebp]
	push	ecx
	mov	ecx, DWORD PTR _this$[ebp]
	call	?push_back@?$vector@W4_D3DFORMAT@@V?$allocator@W4_D3DFORMAT@@@std@@@std@@QAEXABW4_D3DFORMAT@@@Z ; std::vector<enum _D3DFORMAT,std::allocator<enum _D3DFORMAT> >::push_back

; 160  : 		m_AllowedFmt.push_back( D3DFMT_X1R5G5B5 );

	mov	DWORD PTR $T141444[ebp], 24		; 00000018H
	lea	edx, DWORD PTR $T141444[ebp]
	push	edx
	mov	ecx, DWORD PTR _this$[ebp]
	call	?push_back@?$vector@W4_D3DFORMAT@@V?$allocator@W4_D3DFORMAT@@@std@@@std@@QAEXABW4_D3DFORMAT@@@Z ; std::vector<enum _D3DFORMAT,std::allocator<enum _D3DFORMAT> >::push_back

; 161  : 		m_AllowedFmt.push_back( D3DFMT_R5G6B5 );

	mov	DWORD PTR $T141445[ebp], 23		; 00000017H
	lea	eax, DWORD PTR $T141445[ebp]
	push	eax
	mov	ecx, DWORD PTR _this$[ebp]
	call	?push_back@?$vector@W4_D3DFORMAT@@V?$allocator@W4_D3DFORMAT@@@std@@@std@@QAEXABW4_D3DFORMAT@@@Z ; std::vector<enum _D3DFORMAT,std::allocator<enum _D3DFORMAT> >::push_back

; 162  : 		m_AllowedFmt.push_back( D3DFMT_A2R10G10B10 );

	mov	DWORD PTR $T141446[ebp], 35		; 00000023H
	lea	ecx, DWORD PTR $T141446[ebp]
	push	ecx
	mov	ecx, DWORD PTR _this$[ebp]
	call	?push_back@?$vector@W4_D3DFORMAT@@V?$allocator@W4_D3DFORMAT@@@std@@@std@@QAEXABW4_D3DFORMAT@@@Z ; std::vector<enum _D3DFORMAT,std::allocator<enum _D3DFORMAT> >::push_back

; 163  : 	}

	mov	DWORD PTR __$EHRec$[ebp+8], -1
	mov	eax, DWORD PTR _this$[ebp]
	mov	ecx, DWORD PTR __$EHRec$[ebp]
	mov	DWORD PTR fs:0, ecx
	pop	ecx
	mov	esp, ebp
	pop	ebp
	ret	0
_TEXT	ENDS
text$x	SEGMENT
__unwindfunclet$??0D3DEnumeration@Ogre@@QAE@XZ$0:
	mov	ecx, DWORD PTR _this$[ebp]
	jmp	??1?$vector@W4_D3DFORMAT@@V?$allocator@W4_D3DFORMAT@@@std@@@std@@QAE@XZ ; std::vector<enum _D3DFORMAT,std::allocator<enum _D3DFORMAT> >::~vector<enum _D3DFORMAT,std::allocator<enum _D3DFORMAT> >
__unwindfunclet$??0D3DEnumeration@Ogre@@QAE@XZ$1:
	mov	ecx, DWORD PTR _this$[ebp]
	add	ecx, 24					; 00000018H
	jmp	??1?$vector@PAUD3DADAPTER_T@Ogre@@V?$allocator@PAUD3DADAPTER_T@Ogre@@@std@@@std@@QAE@XZ ; std::vector<Ogre::D3DADAPTER_T *,std::allocator<Ogre::D3DADAPTER_T *> >::~vector<Ogre::D3DADAPTER_T *,std::allocator<Ogre::D3DADAPTER_T *> >
__ehhandler$??0D3DEnumeration@Ogre@@QAE@XZ:
	mov	edx, DWORD PTR [esp+8]
	lea	eax, DWORD PTR [edx+12]
	mov	ecx, DWORD PTR [edx-24]
	xor	ecx, eax
	call	@__security_check_cookie@4
	mov	eax, OFFSET __ehfuncinfo$??0D3DEnumeration@Ogre@@QAE@XZ
	jmp	___CxxFrameHandler3
text$x	ENDS
??0D3DEnumeration@Ogre@@QAE@XZ ENDP			; Ogre::D3DEnumeration::D3DEnumeration
PUBLIC	??_GD3DADAPTER_T@Ogre@@QAEPAXI@Z		; Ogre::D3DADAPTER_T::`scalar deleting destructor'
PUBLIC	??A?$vector@PAUD3DADAPTER_T@Ogre@@V?$allocator@PAUD3DADAPTER_T@Ogre@@@std@@@std@@QAEAAPAUD3DADAPTER_T@Ogre@@I@Z ; std::vector<Ogre::D3DADAPTER_T *,std::allocator<Ogre::D3DADAPTER_T *> >::operator[]
PUBLIC	?size@?$vector@PAUD3DADAPTER_T@Ogre@@V?$allocator@PAUD3DADAPTER_T@Ogre@@@std@@@std@@QBEIXZ ; std::vector<Ogre::D3DADAPTER_T *,std::allocator<Ogre::D3DADAPTER_T *> >::size
PUBLIC	??1D3DEnumeration@Ogre@@QAE@XZ			; Ogre::D3DEnumeration::~D3DEnumeration
xdata$x	SEGMENT
__unwindtable$??1D3DEnumeration@Ogre@@QAE@XZ DD 0ffffffffH
	DD	FLAT:__unwindfunclet$??1D3DEnumeration@Ogre@@QAE@XZ$0
	DD	00H
	DD	FLAT:__unwindfunclet$??1D3DEnumeration@Ogre@@QAE@XZ$1
__ehfuncinfo$??1D3DEnumeration@Ogre@@QAE@XZ DD 019930522H
	DD	02H
	DD	FLAT:__unwindtable$??1D3DEnumeration@Ogre@@QAE@XZ
	DD	2 DUP(00H)
	DD	2 DUP(00H)
	DD	00H
	DD	00H
; Function compile flags: /Odtp
xdata$x	ENDS
_TEXT	SEGMENT
tv80 = -32						; size = 4
_this$ = -28						; size = 4
$T141455 = -24						; size = 4
$T141454 = -20						; size = 4
_i$128740 = -16						; size = 4
__$EHRec$ = -12						; size = 12
??1D3DEnumeration@Ogre@@QAE@XZ PROC			; Ogre::D3DEnumeration::~D3DEnumeration
; _this$ = ecx

; 166  : 	{

	push	ebp
	mov	ebp, esp
	push	-1
	push	__ehhandler$??1D3DEnumeration@Ogre@@QAE@XZ
	mov	eax, DWORD PTR fs:0
	push	eax
	sub	esp, 20					; 00000014H
	mov	eax, DWORD PTR ___security_cookie
	xor	eax, ebp
	push	eax
	lea	eax, DWORD PTR __$EHRec$[ebp]
	mov	DWORD PTR fs:0, eax
	mov	DWORD PTR _this$[ebp], ecx
	mov	DWORD PTR __$EHRec$[ebp+8], 1

; 167  : 		for( SIZE_T i=0; i<m_Adapters.size(); i++ ) delete(m_Adapters[i]);

	mov	DWORD PTR _i$128740[ebp], 0
	jmp	SHORT $LN3@D3DEnumera
$LN2@D3DEnumera:
	mov	eax, DWORD PTR _i$128740[ebp]
	add	eax, 1
	mov	DWORD PTR _i$128740[ebp], eax
$LN3@D3DEnumera:
	mov	ecx, DWORD PTR _this$[ebp]
	add	ecx, 24					; 00000018H
	call	?size@?$vector@PAUD3DADAPTER_T@Ogre@@V?$allocator@PAUD3DADAPTER_T@Ogre@@@std@@@std@@QBEIXZ ; std::vector<Ogre::D3DADAPTER_T *,std::allocator<Ogre::D3DADAPTER_T *> >::size
	cmp	DWORD PTR _i$128740[ebp], eax
	jae	SHORT $LN4@D3DEnumera
	mov	ecx, DWORD PTR _i$128740[ebp]
	push	ecx
	mov	ecx, DWORD PTR _this$[ebp]
	add	ecx, 24					; 00000018H
	call	??A?$vector@PAUD3DADAPTER_T@Ogre@@V?$allocator@PAUD3DADAPTER_T@Ogre@@@std@@@std@@QAEAAPAUD3DADAPTER_T@Ogre@@I@Z ; std::vector<Ogre::D3DADAPTER_T *,std::allocator<Ogre::D3DADAPTER_T *> >::operator[]
	mov	edx, DWORD PTR [eax]
	mov	DWORD PTR $T141455[ebp], edx
	mov	eax, DWORD PTR $T141455[ebp]
	mov	DWORD PTR $T141454[ebp], eax
	cmp	DWORD PTR $T141454[ebp], 0
	je	SHORT $LN6@D3DEnumera
	push	1
	mov	ecx, DWORD PTR $T141454[ebp]
	call	??_GD3DADAPTER_T@Ogre@@QAEPAXI@Z
	mov	DWORD PTR tv80[ebp], eax
	jmp	SHORT $LN7@D3DEnumera
$LN6@D3DEnumera:
	mov	DWORD PTR tv80[ebp], 0
$LN7@D3DEnumera:
	jmp	SHORT $LN2@D3DEnumera
$LN4@D3DEnumera:

; 168  : 	}

	mov	BYTE PTR __$EHRec$[ebp+8], 0
	mov	ecx, DWORD PTR _this$[ebp]
	add	ecx, 24					; 00000018H
	call	??1?$vector@PAUD3DADAPTER_T@Ogre@@V?$allocator@PAUD3DADAPTER_T@Ogre@@@std@@@std@@QAE@XZ ; std::vector<Ogre::D3DADAPTER_T *,std::allocator<Ogre::D3DADAPTER_T *> >::~vector<Ogre::D3DADAPTER_T *,std::allocator<Ogre::D3DADAPTER_T *> >
	mov	DWORD PTR __$EHRec$[ebp+8], -1
	mov	ecx, DWORD PTR _this$[ebp]
	call	??1?$vector@W4_D3DFORMAT@@V?$allocator@W4_D3DFORMAT@@@std@@@std@@QAE@XZ ; std::vector<enum _D3DFORMAT,std::allocator<enum _D3DFORMAT> >::~vector<enum _D3DFORMAT,std::allocator<enum _D3DFORMAT> >
	mov	ecx, DWORD PTR __$EHRec$[ebp]
	mov	DWORD PTR fs:0, ecx
	pop	ecx
	mov	esp, ebp
	pop	ebp
	ret	0
_TEXT	ENDS
text$x	SEGMENT
__unwindfunclet$??1D3DEnumeration@Ogre@@QAE@XZ$0:
	mov	ecx, DWORD PTR _this$[ebp]
	jmp	??1?$vector@W4_D3DFORMAT@@V?$allocator@W4_D3DFORMAT@@@std@@@std@@QAE@XZ ; std::vector<enum _D3DFORMAT,std::allocator<enum _D3DFORMAT> >::~vector<enum _D3DFORMAT,std::allocator<enum _D3DFORMAT> >
__unwindfunclet$??1D3DEnumeration@Ogre@@QAE@XZ$1:
	mov	ecx, DWORD PTR _this$[ebp]
	add	ecx, 24					; 00000018H
	jmp	??1?$vector@PAUD3DADAPTER_T@Ogre@@V?$allocator@PAUD3DADAPTER_T@Ogre@@@std@@@std@@QAE@XZ ; std::vector<Ogre::D3DADAPTER_T *,std::allocator<Ogre::D3DADAPTER_T *> >::~vector<Ogre::D3DADAPTER_T *,std::allocator<Ogre::D3DADAPTER_T *> >
__ehhandler$??1D3DEnumeration@Ogre@@QAE@XZ:
	mov	edx, DWORD PTR [esp+8]
	lea	eax, DWORD PTR [edx+12]
	mov	ecx, DWORD PTR [edx-24]
	xor	ecx, eax
	call	@__security_check_cookie@4
	mov	eax, OFFSET __ehfuncinfo$??1D3DEnumeration@Ogre@@QAE@XZ
	jmp	___CxxFrameHandler3
text$x	ENDS
??1D3DEnumeration@Ogre@@QAE@XZ ENDP			; Ogre::D3DEnumeration::~D3DEnumeration
; Function compile flags: /Odtp
;	COMDAT ??_GD3DADAPTER_T@Ogre@@QAEPAXI@Z
_TEXT	SEGMENT
_this$ = -4						; size = 4
___flags$ = 8						; size = 4
??_GD3DADAPTER_T@Ogre@@QAEPAXI@Z PROC			; Ogre::D3DADAPTER_T::`scalar deleting destructor', COMDAT
; _this$ = ecx
	push	ebp
	mov	ebp, esp
	push	ecx
	mov	DWORD PTR _this$[ebp], ecx
	mov	ecx, DWORD PTR _this$[ebp]
	call	??1D3DADAPTER_T@Ogre@@QAE@XZ		; Ogre::D3DADAPTER_T::~D3DADAPTER_T
	mov	eax, DWORD PTR ___flags$[ebp]
	and	eax, 1
	je	SHORT $LN1@scalar@3
	mov	ecx, DWORD PTR _this$[ebp]
	push	ecx
	call	??3@YAXPAX@Z				; operator delete
	add	esp, 4
$LN1@scalar@3:
	mov	eax, DWORD PTR _this$[ebp]
	mov	esp, ebp
	pop	ebp
	ret	4
??_GD3DADAPTER_T@Ogre@@QAEPAXI@Z ENDP			; Ogre::D3DADAPTER_T::`scalar deleting destructor'
_TEXT	ENDS
PUBLIC	?push_back@?$vector@PAUD3DADAPTER_T@Ogre@@V?$allocator@PAUD3DADAPTER_T@Ogre@@@std@@@std@@QAEXABQAUD3DADAPTER_T@Ogre@@@Z ; std::vector<Ogre::D3DADAPTER_T *,std::allocator<Ogre::D3DADAPTER_T *> >::push_back
PUBLIC	?EnumerateDevices@D3DEnumeration@Ogre@@AAEXPAUD3DADAPTER_T@2@AAV?$vector@W4_D3DFORMAT@@V?$allocator@W4_D3DFORMAT@@@std@@@std@@@Z ; Ogre::D3DEnumeration::EnumerateDevices
PUBLIC	??A?$vector@U_D3DDISPLAYMODE@@V?$allocator@U_D3DDISPLAYMODE@@@std@@@std@@QAEAAU_D3DDISPLAYMODE@@I@Z ; std::vector<_D3DDISPLAYMODE,std::allocator<_D3DDISPLAYMODE> >::operator[]
PUBLIC	?size@?$vector@U_D3DDISPLAYMODE@@V?$allocator@U_D3DDISPLAYMODE@@@std@@@std@@QBEIXZ ; std::vector<_D3DDISPLAYMODE,std::allocator<_D3DDISPLAYMODE> >::size
PUBLIC	??$IsVectorContain@W4_D3DFORMAT@@@Ogre@@YAHAAV?$vector@W4_D3DFORMAT@@V?$allocator@W4_D3DFORMAT@@@std@@@std@@ABW4_D3DFORMAT@@@Z ; Ogre::IsVectorContain<enum _D3DFORMAT>
PUBLIC	?push_back@?$vector@U_D3DDISPLAYMODE@@V?$allocator@U_D3DDISPLAYMODE@@@std@@@std@@QAEXABU_D3DDISPLAYMODE@@@Z ; std::vector<_D3DDISPLAYMODE,std::allocator<_D3DDISPLAYMODE> >::push_back
PUBLIC	??A?$vector@W4_D3DFORMAT@@V?$allocator@W4_D3DFORMAT@@@std@@@std@@QAEAAW4_D3DFORMAT@@I@Z ; std::vector<enum _D3DFORMAT,std::allocator<enum _D3DFORMAT> >::operator[]
PUBLIC	?size@?$vector@W4_D3DFORMAT@@V?$allocator@W4_D3DFORMAT@@@std@@@std@@QBEIXZ ; std::vector<enum _D3DFORMAT,std::allocator<enum _D3DFORMAT> >::size
PUBLIC	??0D3DADAPTER_T@Ogre@@QAE@XZ			; Ogre::D3DADAPTER_T::D3DADAPTER_T
PUBLIC	?Enumerate@D3DEnumeration@Ogre@@QAEHPAUIDirect3D9@@P6AHPAU_D3DCAPS9@@W4VERTPROCESS_T@2@W4_D3DFORMAT@@3@Z@Z ; Ogre::D3DEnumeration::Enumerate
EXTRN	__imp__qsort:PROC
EXTRN	??2@YAPAXI@Z:PROC				; operator new
xdata$x	SEGMENT
__unwindtable$?Enumerate@D3DEnumeration@Ogre@@QAEHPAUIDirect3D9@@P6AHPAU_D3DCAPS9@@W4VERTPROCESS_T@2@W4_D3DFORMAT@@3@Z@Z DD 0ffffffffH
	DD	FLAT:__unwindfunclet$?Enumerate@D3DEnumeration@Ogre@@QAEHPAUIDirect3D9@@P6AHPAU_D3DCAPS9@@W4VERTPROCESS_T@2@W4_D3DFORMAT@@3@Z@Z$0
	DD	0ffffffffH
	DD	FLAT:__unwindfunclet$?Enumerate@D3DEnumeration@Ogre@@QAEHPAUIDirect3D9@@P6AHPAU_D3DCAPS9@@W4VERTPROCESS_T@2@W4_D3DFORMAT@@3@Z@Z$1
__ehfuncinfo$?Enumerate@D3DEnumeration@Ogre@@QAEHPAUIDirect3D9@@P6AHPAU_D3DCAPS9@@W4VERTPROCESS_T@2@W4_D3DFORMAT@@3@Z@Z DD 019930522H
	DD	02H
	DD	FLAT:__unwindtable$?Enumerate@D3DEnumeration@Ogre@@QAEHPAUIDirect3D9@@P6AHPAU_D3DCAPS9@@W4VERTPROCESS_T@2@W4_D3DFORMAT@@3@Z@Z
	DD	2 DUP(00H)
	DD	2 DUP(00H)
	DD	00H
	DD	00H
; Function compile flags: /Odtp
xdata$x	ENDS
_TEXT	SEGMENT
tv201 = -104						; size = 4
tv83 = -100						; size = 4
_this$ = -96						; size = 4
$T141472 = -92						; size = 4
$T141471 = -88						; size = 4
$T141468 = -84						; size = 4
$T141467 = -80						; size = 4
_tmpmode$128807 = -76					; size = 16
_imode$128803 = -60					; size = 4
_nadaptermode$128802 = -56				; size = 4
_iallow$128798 = -52					; size = 4
_padapter$128788 = -48					; size = 4
_allformats$128797 = -44				; size = 24
_iadapter$128784 = -20					; size = 4
_nadapter$ = -16					; size = 4
__$EHRec$ = -12						; size = 12
_pd3d$ = 8						; size = 4
_mycallback$ = 12					; size = 4
?Enumerate@D3DEnumeration@Ogre@@QAEHPAUIDirect3D9@@P6AHPAU_D3DCAPS9@@W4VERTPROCESS_T@2@W4_D3DFORMAT@@3@Z@Z PROC ; Ogre::D3DEnumeration::Enumerate
; _this$ = ecx

; 201  : 	{

	push	ebp
	mov	ebp, esp
	push	-1
	push	__ehhandler$?Enumerate@D3DEnumeration@Ogre@@QAEHPAUIDirect3D9@@P6AHPAU_D3DCAPS9@@W4VERTPROCESS_T@2@W4_D3DFORMAT@@3@Z@Z
	mov	eax, DWORD PTR fs:0
	push	eax
	sub	esp, 92					; 0000005cH
	mov	eax, DWORD PTR ___security_cookie
	xor	eax, ebp
	push	eax
	lea	eax, DWORD PTR __$EHRec$[ebp]
	mov	DWORD PTR fs:0, eax
	mov	DWORD PTR _this$[ebp], ecx

; 202  : 		m_pD3D = pd3d;

	mov	eax, DWORD PTR _this$[ebp]
	mov	ecx, DWORD PTR _pd3d$[ebp]
	mov	DWORD PTR [eax+92], ecx

; 203  : 		m_ConfirmDeviceCallback = mycallback;

	mov	edx, DWORD PTR _this$[ebp]
	mov	eax, DWORD PTR _mycallback$[ebp]
	mov	DWORD PTR [edx+48], eax

; 204  : 
; 205  : 		UINT32 nadapter = m_pD3D->GetAdapterCount();

	mov	ecx, DWORD PTR _this$[ebp]
	mov	edx, DWORD PTR [ecx+92]
	mov	eax, DWORD PTR _this$[ebp]
	mov	ecx, DWORD PTR [eax+92]
	mov	edx, DWORD PTR [edx]
	push	ecx
	mov	eax, DWORD PTR [edx+16]
	call	eax
	mov	DWORD PTR _nadapter$[ebp], eax

; 206  : 		for( UINT32 iadapter=0; iadapter<nadapter; iadapter++ )

	mov	DWORD PTR _iadapter$128784[ebp], 0
	jmp	SHORT $LN14@Enumerate
$LN13@Enumerate:
	mov	ecx, DWORD PTR _iadapter$128784[ebp]
	add	ecx, 1
	mov	DWORD PTR _iadapter$128784[ebp], ecx
$LN14@Enumerate:
	mov	edx, DWORD PTR _iadapter$128784[ebp]
	cmp	edx, DWORD PTR _nadapter$[ebp]
	jae	$LN12@Enumerate

; 207  : 		{
; 208  : 			D3DADAPTER_T *padapter = new D3DADAPTER_T;

	push	1152					; 00000480H
	call	??2@YAPAXI@Z				; operator new
	add	esp, 4
	mov	DWORD PTR $T141468[ebp], eax
	mov	DWORD PTR __$EHRec$[ebp+8], 0
	cmp	DWORD PTR $T141468[ebp], 0
	je	SHORT $LN17@Enumerate
	mov	ecx, DWORD PTR $T141468[ebp]
	call	??0D3DADAPTER_T@Ogre@@QAE@XZ
	mov	DWORD PTR tv83[ebp], eax
	jmp	SHORT $LN18@Enumerate
$LN17@Enumerate:
	mov	DWORD PTR tv83[ebp], 0
$LN18@Enumerate:
	mov	eax, DWORD PTR tv83[ebp]
	mov	DWORD PTR $T141467[ebp], eax
	mov	DWORD PTR __$EHRec$[ebp+8], -1
	mov	ecx, DWORD PTR $T141467[ebp]
	mov	DWORD PTR _padapter$128788[ebp], ecx

; 209  : 			std::vector<D3DFORMAT> allformats;

	lea	ecx, DWORD PTR _allformats$128797[ebp]
	call	??0?$vector@W4_D3DFORMAT@@V?$allocator@W4_D3DFORMAT@@@std@@@std@@QAE@XZ ; std::vector<enum _D3DFORMAT,std::allocator<enum _D3DFORMAT> >::vector<enum _D3DFORMAT,std::allocator<enum _D3DFORMAT> >
	mov	DWORD PTR __$EHRec$[ebp+8], 1

; 210  : 
; 211  : 			padapter->iadapter = iadapter;

	mov	edx, DWORD PTR _padapter$128788[ebp]
	mov	eax, DWORD PTR _iadapter$128784[ebp]
	mov	DWORD PTR [edx], eax

; 212  : 			m_pD3D->GetAdapterIdentifier( iadapter, 0, &padapter->id );

	mov	ecx, DWORD PTR _padapter$128788[ebp]
	add	ecx, 4
	push	ecx
	push	0
	mov	edx, DWORD PTR _iadapter$128784[ebp]
	push	edx
	mov	eax, DWORD PTR _this$[ebp]
	mov	ecx, DWORD PTR [eax+92]
	mov	edx, DWORD PTR _this$[ebp]
	mov	eax, DWORD PTR [edx+92]
	mov	ecx, DWORD PTR [ecx]
	push	eax
	mov	edx, DWORD PTR [ecx+20]
	call	edx

; 213  : 
; 214  : 			for( UINT32 iallow=0; iallow<m_AllowedFmt.size(); iallow++ )

	mov	DWORD PTR _iallow$128798[ebp], 0
	jmp	SHORT $LN11@Enumerate
$LN10@Enumerate:
	mov	eax, DWORD PTR _iallow$128798[ebp]
	add	eax, 1
	mov	DWORD PTR _iallow$128798[ebp], eax
$LN11@Enumerate:
	mov	ecx, DWORD PTR _this$[ebp]
	call	?size@?$vector@W4_D3DFORMAT@@V?$allocator@W4_D3DFORMAT@@@std@@@std@@QBEIXZ ; std::vector<enum _D3DFORMAT,std::allocator<enum _D3DFORMAT> >::size
	cmp	DWORD PTR _iallow$128798[ebp], eax
	jae	$LN9@Enumerate

; 215  : 			{
; 216  : 				UINT32 nadaptermode = m_pD3D->GetAdapterModeCount( iadapter, m_AllowedFmt[iallow] );

	mov	ecx, DWORD PTR _iallow$128798[ebp]
	push	ecx
	mov	ecx, DWORD PTR _this$[ebp]
	call	??A?$vector@W4_D3DFORMAT@@V?$allocator@W4_D3DFORMAT@@@std@@@std@@QAEAAW4_D3DFORMAT@@I@Z ; std::vector<enum _D3DFORMAT,std::allocator<enum _D3DFORMAT> >::operator[]
	mov	edx, DWORD PTR [eax]
	push	edx
	mov	eax, DWORD PTR _iadapter$128784[ebp]
	push	eax
	mov	ecx, DWORD PTR _this$[ebp]
	mov	edx, DWORD PTR [ecx+92]
	mov	eax, DWORD PTR _this$[ebp]
	mov	ecx, DWORD PTR [eax+92]
	mov	edx, DWORD PTR [edx]
	push	ecx
	mov	eax, DWORD PTR [edx+24]
	call	eax
	mov	DWORD PTR _nadaptermode$128802[ebp], eax

; 217  : 				for( UINT32 imode=0; imode<nadaptermode; imode++ )

	mov	DWORD PTR _imode$128803[ebp], 0
	jmp	SHORT $LN8@Enumerate
$LN7@Enumerate:
	mov	ecx, DWORD PTR _imode$128803[ebp]
	add	ecx, 1
	mov	DWORD PTR _imode$128803[ebp], ecx
$LN8@Enumerate:
	mov	edx, DWORD PTR _imode$128803[ebp]
	cmp	edx, DWORD PTR _nadaptermode$128802[ebp]
	jae	$LN6@Enumerate

; 218  : 				{
; 219  : 					D3DDISPLAYMODE tmpmode;
; 220  : 					m_pD3D->EnumAdapterModes( iadapter, m_AllowedFmt[iallow], imode, &tmpmode );

	lea	eax, DWORD PTR _tmpmode$128807[ebp]
	push	eax
	mov	ecx, DWORD PTR _imode$128803[ebp]
	push	ecx
	mov	edx, DWORD PTR _iallow$128798[ebp]
	push	edx
	mov	ecx, DWORD PTR _this$[ebp]
	call	??A?$vector@W4_D3DFORMAT@@V?$allocator@W4_D3DFORMAT@@@std@@@std@@QAEAAW4_D3DFORMAT@@I@Z ; std::vector<enum _D3DFORMAT,std::allocator<enum _D3DFORMAT> >::operator[]
	mov	eax, DWORD PTR [eax]
	push	eax
	mov	ecx, DWORD PTR _iadapter$128784[ebp]
	push	ecx
	mov	edx, DWORD PTR _this$[ebp]
	mov	eax, DWORD PTR [edx+92]
	mov	ecx, DWORD PTR _this$[ebp]
	mov	edx, DWORD PTR [ecx+92]
	mov	eax, DWORD PTR [eax]
	push	edx
	mov	ecx, DWORD PTR [eax+28]
	call	ecx

; 221  : 
; 222  : 					if( tmpmode.Width<m_MinFullScreenWidth || tmpmode.Height<m_MinFullScreenHeight 
; 223  : 						|| ColorChannelBits(tmpmode.Format)<m_MinColorChannelBits ) continue;

	mov	edx, DWORD PTR _this$[ebp]
	mov	eax, DWORD PTR _tmpmode$128807[ebp]
	cmp	eax, DWORD PTR [edx+52]
	jb	SHORT $LN4@Enumerate
	mov	ecx, DWORD PTR _this$[ebp]
	mov	edx, DWORD PTR _tmpmode$128807[ebp+4]
	cmp	edx, DWORD PTR [ecx+56]
	jb	SHORT $LN4@Enumerate
	mov	eax, DWORD PTR _tmpmode$128807[ebp+12]
	push	eax
	call	?ColorChannelBits@Ogre@@YAIW4_D3DFORMAT@@@Z ; Ogre::ColorChannelBits
	add	esp, 4
	mov	ecx, DWORD PTR _this$[ebp]
	cmp	eax, DWORD PTR [ecx+60]
	jae	SHORT $LN5@Enumerate
$LN4@Enumerate:
	jmp	SHORT $LN7@Enumerate
$LN5@Enumerate:

; 224  : 
; 225  : 					padapter->modes.push_back( tmpmode );

	lea	edx, DWORD PTR _tmpmode$128807[ebp]
	push	edx
	mov	ecx, DWORD PTR _padapter$128788[ebp]
	add	ecx, 1104				; 00000450H
	call	?push_back@?$vector@U_D3DDISPLAYMODE@@V?$allocator@U_D3DDISPLAYMODE@@@std@@@std@@QAEXABU_D3DDISPLAYMODE@@@Z ; std::vector<_D3DDISPLAYMODE,std::allocator<_D3DDISPLAYMODE> >::push_back

; 226  : 					if( !IsVectorContain(allformats, tmpmode.Format) ) allformats.push_back( tmpmode.Format );

	lea	eax, DWORD PTR _tmpmode$128807[ebp+12]
	push	eax
	lea	ecx, DWORD PTR _allformats$128797[ebp]
	push	ecx
	call	??$IsVectorContain@W4_D3DFORMAT@@@Ogre@@YAHAAV?$vector@W4_D3DFORMAT@@V?$allocator@W4_D3DFORMAT@@@std@@@std@@ABW4_D3DFORMAT@@@Z ; Ogre::IsVectorContain<enum _D3DFORMAT>
	add	esp, 8
	test	eax, eax
	jne	SHORT $LN3@Enumerate
	lea	edx, DWORD PTR _tmpmode$128807[ebp+12]
	push	edx
	lea	ecx, DWORD PTR _allformats$128797[ebp]
	call	?push_back@?$vector@W4_D3DFORMAT@@V?$allocator@W4_D3DFORMAT@@@std@@@std@@QAEXABW4_D3DFORMAT@@@Z ; std::vector<enum _D3DFORMAT,std::allocator<enum _D3DFORMAT> >::push_back
$LN3@Enumerate:

; 227  : 				}

	jmp	$LN7@Enumerate
$LN6@Enumerate:

; 228  : 			}

	jmp	$LN10@Enumerate
$LN9@Enumerate:

; 229  : 
; 230  : 			//for all the modes, find devices
; 231  : 			qsort( &padapter->modes[0], padapter->modes.size(), sizeof(D3DDISPLAYMODE), SortModeCallback );

	push	OFFSET ?SortModeCallback@Ogre@@YAHPBX0@Z ; Ogre::SortModeCallback
	push	16					; 00000010H
	mov	ecx, DWORD PTR _padapter$128788[ebp]
	add	ecx, 1104				; 00000450H
	call	?size@?$vector@U_D3DDISPLAYMODE@@V?$allocator@U_D3DDISPLAYMODE@@@std@@@std@@QBEIXZ ; std::vector<_D3DDISPLAYMODE,std::allocator<_D3DDISPLAYMODE> >::size
	push	eax
	push	0
	mov	ecx, DWORD PTR _padapter$128788[ebp]
	add	ecx, 1104				; 00000450H
	call	??A?$vector@U_D3DDISPLAYMODE@@V?$allocator@U_D3DDISPLAYMODE@@@std@@@std@@QAEAAU_D3DDISPLAYMODE@@I@Z ; std::vector<_D3DDISPLAYMODE,std::allocator<_D3DDISPLAYMODE> >::operator[]
	push	eax
	call	DWORD PTR __imp__qsort
	add	esp, 16					; 00000010H

; 232  : 
; 233  : 			EnumerateDevices( padapter, allformats );

	lea	eax, DWORD PTR _allformats$128797[ebp]
	push	eax
	mov	ecx, DWORD PTR _padapter$128788[ebp]
	push	ecx
	mov	ecx, DWORD PTR _this$[ebp]
	call	?EnumerateDevices@D3DEnumeration@Ogre@@AAEXPAUD3DADAPTER_T@2@AAV?$vector@W4_D3DFORMAT@@V?$allocator@W4_D3DFORMAT@@@std@@@std@@@Z ; Ogre::D3DEnumeration::EnumerateDevices

; 234  : 
; 235  : 			if( padapter->devinfo.size() == 0 ) delete(padapter);

	mov	ecx, DWORD PTR _padapter$128788[ebp]
	add	ecx, 1128				; 00000468H
	call	?size@?$vector@PAUD3DDEVICEINFO_T@Ogre@@V?$allocator@PAUD3DDEVICEINFO_T@Ogre@@@std@@@std@@QBEIXZ ; std::vector<Ogre::D3DDEVICEINFO_T *,std::allocator<Ogre::D3DDEVICEINFO_T *> >::size
	test	eax, eax
	jne	SHORT $LN2@Enumerate
	mov	edx, DWORD PTR _padapter$128788[ebp]
	mov	DWORD PTR $T141472[ebp], edx
	mov	eax, DWORD PTR $T141472[ebp]
	mov	DWORD PTR $T141471[ebp], eax
	cmp	DWORD PTR $T141471[ebp], 0
	je	SHORT $LN19@Enumerate
	push	1
	mov	ecx, DWORD PTR $T141471[ebp]
	call	??_GD3DADAPTER_T@Ogre@@QAEPAXI@Z
	mov	DWORD PTR tv201[ebp], eax
	jmp	SHORT $LN20@Enumerate
$LN19@Enumerate:
	mov	DWORD PTR tv201[ebp], 0
$LN20@Enumerate:

; 236  : 			else m_Adapters.push_back( padapter );

	jmp	SHORT $LN1@Enumerate
$LN2@Enumerate:
	lea	ecx, DWORD PTR _padapter$128788[ebp]
	push	ecx
	mov	ecx, DWORD PTR _this$[ebp]
	add	ecx, 24					; 00000018H
	call	?push_back@?$vector@PAUD3DADAPTER_T@Ogre@@V?$allocator@PAUD3DADAPTER_T@Ogre@@@std@@@std@@QAEXABQAUD3DADAPTER_T@Ogre@@@Z ; std::vector<Ogre::D3DADAPTER_T *,std::allocator<Ogre::D3DADAPTER_T *> >::push_back
$LN1@Enumerate:

; 237  : 		}

	mov	DWORD PTR __$EHRec$[ebp+8], -1
	lea	ecx, DWORD PTR _allformats$128797[ebp]
	call	??1?$vector@W4_D3DFORMAT@@V?$allocator@W4_D3DFORMAT@@@std@@@std@@QAE@XZ ; std::vector<enum _D3DFORMAT,std::allocator<enum _D3DFORMAT> >::~vector<enum _D3DFORMAT,std::allocator<enum _D3DFORMAT> >
	jmp	$LN13@Enumerate
$LN12@Enumerate:

; 238  : 
; 239  : 		return TRUE;

	mov	eax, 1

; 240  : 	}

	mov	ecx, DWORD PTR __$EHRec$[ebp]
	mov	DWORD PTR fs:0, ecx
	pop	ecx
	mov	esp, ebp
	pop	ebp
	ret	8
_TEXT	ENDS
text$x	SEGMENT
__unwindfunclet$?Enumerate@D3DEnumeration@Ogre@@QAEHPAUIDirect3D9@@P6AHPAU_D3DCAPS9@@W4VERTPROCESS_T@2@W4_D3DFORMAT@@3@Z@Z$0:
	mov	eax, DWORD PTR $T141468[ebp]
	push	eax
	call	??3@YAXPAX@Z				; operator delete
	pop	ecx
	ret	0
__unwindfunclet$?Enumerate@D3DEnumeration@Ogre@@QAEHPAUIDirect3D9@@P6AHPAU_D3DCAPS9@@W4VERTPROCESS_T@2@W4_D3DFORMAT@@3@Z@Z$1:
	lea	ecx, DWORD PTR _allformats$128797[ebp]
	jmp	??1?$vector@W4_D3DFORMAT@@V?$allocator@W4_D3DFORMAT@@@std@@@std@@QAE@XZ ; std::vector<enum _D3DFORMAT,std::allocator<enum _D3DFORMAT> >::~vector<enum _D3DFORMAT,std::allocator<enum _D3DFORMAT> >
__ehhandler$?Enumerate@D3DEnumeration@Ogre@@QAEHPAUIDirect3D9@@P6AHPAU_D3DCAPS9@@W4VERTPROCESS_T@2@W4_D3DFORMAT@@3@Z@Z:
	mov	edx, DWORD PTR [esp+8]
	lea	eax, DWORD PTR [edx+12]
	mov	ecx, DWORD PTR [edx-96]
	xor	ecx, eax
	call	@__security_check_cookie@4
	mov	eax, OFFSET __ehfuncinfo$?Enumerate@D3DEnumeration@Ogre@@QAEHPAUIDirect3D9@@P6AHPAU_D3DCAPS9@@W4VERTPROCESS_T@2@W4_D3DFORMAT@@3@Z@Z
	jmp	___CxxFrameHandler3
text$x	ENDS
?Enumerate@D3DEnumeration@Ogre@@QAEHPAUIDirect3D9@@P6AHPAU_D3DCAPS9@@W4VERTPROCESS_T@2@W4_D3DFORMAT@@3@Z@Z ENDP ; Ogre::D3DEnumeration::Enumerate
; Function compile flags: /Odtp
_TEXT	SEGMENT
tv64 = -4						; size = 4
_fmt$ = 8						; size = 4
?ColorChannelBits@Ogre@@YAIW4_D3DFORMAT@@@Z PROC	; Ogre::ColorChannelBits

; 11   : 	{

	push	ebp
	mov	ebp, esp
	push	ecx

; 12   : 		switch( fmt )

	mov	eax, DWORD PTR _fmt$[ebp]
	mov	DWORD PTR tv64[ebp], eax
	mov	ecx, DWORD PTR tv64[ebp]
	sub	ecx, 20					; 00000014H
	mov	DWORD PTR tv64[ebp], ecx
	cmp	DWORD PTR tv64[ebp], 15			; 0000000fH
	ja	SHORT $LN1@ColorChann
	mov	edx, DWORD PTR tv64[ebp]
	jmp	DWORD PTR $LN18@ColorChann[edx*4]
$LN13@ColorChann:

; 13   : 		{
; 14   : 		case D3DFMT_R8G8B8:
; 15   : 			return 8;

	mov	eax, 8
	jmp	SHORT $LN16@ColorChann
$LN12@ColorChann:

; 16   : 		case D3DFMT_A8R8G8B8:
; 17   : 			return 8;

	mov	eax, 8
	jmp	SHORT $LN16@ColorChann
$LN11@ColorChann:

; 18   : 		case D3DFMT_X8R8G8B8:
; 19   : 			return 8;

	mov	eax, 8
	jmp	SHORT $LN16@ColorChann
$LN10@ColorChann:

; 20   : 		case D3DFMT_R5G6B5:
; 21   : 			return 5;

	mov	eax, 5
	jmp	SHORT $LN16@ColorChann
$LN9@ColorChann:

; 22   : 		case D3DFMT_X1R5G5B5:
; 23   : 			return 5;

	mov	eax, 5
	jmp	SHORT $LN16@ColorChann
$LN8@ColorChann:

; 24   : 		case D3DFMT_A1R5G5B5:
; 25   : 			return 5;

	mov	eax, 5
	jmp	SHORT $LN16@ColorChann
$LN7@ColorChann:

; 26   : 		case D3DFMT_A4R4G4B4:
; 27   : 			return 4;

	mov	eax, 4
	jmp	SHORT $LN16@ColorChann
$LN6@ColorChann:

; 28   : 		case D3DFMT_R3G3B2:
; 29   : 			return 2;

	mov	eax, 2
	jmp	SHORT $LN16@ColorChann
$LN5@ColorChann:

; 30   : 		case D3DFMT_A8R3G3B2:
; 31   : 			return 2;

	mov	eax, 2
	jmp	SHORT $LN16@ColorChann
$LN4@ColorChann:

; 32   : 		case D3DFMT_X4R4G4B4:
; 33   : 			return 4;

	mov	eax, 4
	jmp	SHORT $LN16@ColorChann
$LN3@ColorChann:

; 34   : 		case D3DFMT_A2B10G10R10:
; 35   : 			return 10;

	mov	eax, 10					; 0000000aH
	jmp	SHORT $LN16@ColorChann
$LN2@ColorChann:

; 36   : 		case D3DFMT_A2R10G10B10:
; 37   : 			return 10;

	mov	eax, 10					; 0000000aH
	jmp	SHORT $LN16@ColorChann
$LN1@ColorChann:

; 38   : 		default:
; 39   : 			return 0;

	xor	eax, eax
$LN16@ColorChann:

; 40   : 		}
; 41   : 	}

	mov	esp, ebp
	pop	ebp
	ret	0
	npad	3
$LN18@ColorChann:
	DD	$LN13@ColorChann
	DD	$LN12@ColorChann
	DD	$LN11@ColorChann
	DD	$LN10@ColorChann
	DD	$LN9@ColorChann
	DD	$LN8@ColorChann
	DD	$LN7@ColorChann
	DD	$LN6@ColorChann
	DD	$LN1@ColorChann
	DD	$LN5@ColorChann
	DD	$LN4@ColorChann
	DD	$LN3@ColorChann
	DD	$LN1@ColorChann
	DD	$LN1@ColorChann
	DD	$LN1@ColorChann
	DD	$LN2@ColorChann
?ColorChannelBits@Ogre@@YAIW4_D3DFORMAT@@@Z ENDP	; Ogre::ColorChannelBits
; Function compile flags: /Odtp
_pmode2$ = -8						; size = 4
_pmode1$ = -4						; size = 4
_p1$ = 8						; size = 4
_p2$ = 12						; size = 4
?SortModeCallback@Ogre@@YAHPBX0@Z PROC			; Ogre::SortModeCallback

; 181  : 	{

	push	ebp
	mov	ebp, esp
	sub	esp, 8

; 182  : 		D3DDISPLAYMODE *pmode1 = (D3DDISPLAYMODE *)p1;

	mov	eax, DWORD PTR _p1$[ebp]
	mov	DWORD PTR _pmode1$[ebp], eax

; 183  : 		D3DDISPLAYMODE *pmode2 = (D3DDISPLAYMODE *)p2;

	mov	ecx, DWORD PTR _p2$[ebp]
	mov	DWORD PTR _pmode2$[ebp], ecx

; 184  : 
; 185  : 		if( pmode1->Width > pmode2->Width ) return 1;

	mov	edx, DWORD PTR _pmode1$[ebp]
	mov	eax, DWORD PTR _pmode2$[ebp]
	mov	ecx, DWORD PTR [edx]
	cmp	ecx, DWORD PTR [eax]
	jbe	SHORT $LN12@SortModeCa
	mov	eax, 1
	jmp	$LN13@SortModeCa
	jmp	SHORT $LN11@SortModeCa
$LN12@SortModeCa:

; 186  : 		else if( pmode1->Width < pmode2->Width ) return -1;

	mov	edx, DWORD PTR _pmode1$[ebp]
	mov	eax, DWORD PTR _pmode2$[ebp]
	mov	ecx, DWORD PTR [edx]
	cmp	ecx, DWORD PTR [eax]
	jae	SHORT $LN11@SortModeCa
	or	eax, -1
	jmp	$LN13@SortModeCa
$LN11@SortModeCa:

; 187  : 
; 188  : 		if( pmode1->Height > pmode2->Height ) return 1;

	mov	edx, DWORD PTR _pmode1$[ebp]
	mov	eax, DWORD PTR _pmode2$[ebp]
	mov	ecx, DWORD PTR [edx+4]
	cmp	ecx, DWORD PTR [eax+4]
	jbe	SHORT $LN9@SortModeCa
	mov	eax, 1
	jmp	SHORT $LN13@SortModeCa
	jmp	SHORT $LN8@SortModeCa
$LN9@SortModeCa:

; 189  : 		else if( pmode1->Height < pmode2->Height ) return -1;

	mov	edx, DWORD PTR _pmode1$[ebp]
	mov	eax, DWORD PTR _pmode2$[ebp]
	mov	ecx, DWORD PTR [edx+4]
	cmp	ecx, DWORD PTR [eax+4]
	jae	SHORT $LN8@SortModeCa
	or	eax, -1
	jmp	SHORT $LN13@SortModeCa
$LN8@SortModeCa:

; 190  : 
; 191  : 		if( pmode1->Format > pmode2->Format ) return 1;

	mov	edx, DWORD PTR _pmode1$[ebp]
	mov	eax, DWORD PTR _pmode2$[ebp]
	mov	ecx, DWORD PTR [edx+12]
	cmp	ecx, DWORD PTR [eax+12]
	jle	SHORT $LN6@SortModeCa
	mov	eax, 1
	jmp	SHORT $LN13@SortModeCa
	jmp	SHORT $LN5@SortModeCa
$LN6@SortModeCa:

; 192  : 		else if( pmode1->Format < pmode2->Format ) return -1;

	mov	edx, DWORD PTR _pmode1$[ebp]
	mov	eax, DWORD PTR _pmode2$[ebp]
	mov	ecx, DWORD PTR [edx+12]
	cmp	ecx, DWORD PTR [eax+12]
	jge	SHORT $LN5@SortModeCa
	or	eax, -1
	jmp	SHORT $LN13@SortModeCa
$LN5@SortModeCa:

; 193  : 
; 194  : 		if( pmode1->RefreshRate > pmode2->RefreshRate ) return 1;

	mov	edx, DWORD PTR _pmode1$[ebp]
	mov	eax, DWORD PTR _pmode2$[ebp]
	mov	ecx, DWORD PTR [edx+8]
	cmp	ecx, DWORD PTR [eax+8]
	jbe	SHORT $LN3@SortModeCa
	mov	eax, 1
	jmp	SHORT $LN13@SortModeCa
	jmp	SHORT $LN2@SortModeCa
$LN3@SortModeCa:

; 195  : 		else if( pmode1->RefreshRate < pmode2->RefreshRate ) return -1;

	mov	edx, DWORD PTR _pmode1$[ebp]
	mov	eax, DWORD PTR _pmode2$[ebp]
	mov	ecx, DWORD PTR [edx+8]
	cmp	ecx, DWORD PTR [eax+8]
	jae	SHORT $LN2@SortModeCa
	or	eax, -1
	jmp	SHORT $LN13@SortModeCa
$LN2@SortModeCa:

; 196  : 
; 197  : 		return 0;

	xor	eax, eax
$LN13@SortModeCa:

; 198  : 	}

	mov	esp, ebp
	pop	ebp
	ret	0
?SortModeCallback@Ogre@@YAHPBX0@Z ENDP			; Ogre::SortModeCallback
_TEXT	ENDS
PUBLIC	??0?$vector@PAUD3DDEVICEINFO_T@Ogre@@V?$allocator@PAUD3DDEVICEINFO_T@Ogre@@@std@@@std@@QAE@XZ ; std::vector<Ogre::D3DDEVICEINFO_T *,std::allocator<Ogre::D3DDEVICEINFO_T *> >::vector<Ogre::D3DDEVICEINFO_T *,std::allocator<Ogre::D3DDEVICEINFO_T *> >
PUBLIC	??0?$vector@U_D3DDISPLAYMODE@@V?$allocator@U_D3DDISPLAYMODE@@@std@@@std@@QAE@XZ ; std::vector<_D3DDISPLAYMODE,std::allocator<_D3DDISPLAYMODE> >::vector<_D3DDISPLAYMODE,std::allocator<_D3DDISPLAYMODE> >
;	COMDAT xdata$x
xdata$x	SEGMENT
__unwindtable$??0D3DADAPTER_T@Ogre@@QAE@XZ DD 0ffffffffH
	DD	FLAT:__unwindfunclet$??0D3DADAPTER_T@Ogre@@QAE@XZ$0
	DD	00H
	DD	FLAT:__unwindfunclet$??0D3DADAPTER_T@Ogre@@QAE@XZ$1
__ehfuncinfo$??0D3DADAPTER_T@Ogre@@QAE@XZ DD 019930522H
	DD	02H
	DD	FLAT:__unwindtable$??0D3DADAPTER_T@Ogre@@QAE@XZ
	DD	2 DUP(00H)
	DD	2 DUP(00H)
	DD	00H
	DD	00H
; Function compile flags: /Odtp
xdata$x	ENDS
;	COMDAT ??0D3DADAPTER_T@Ogre@@QAE@XZ
_TEXT	SEGMENT
_this$ = -16						; size = 4
__$EHRec$ = -12						; size = 12
??0D3DADAPTER_T@Ogre@@QAE@XZ PROC			; Ogre::D3DADAPTER_T::D3DADAPTER_T, COMDAT
; _this$ = ecx
	push	ebp
	mov	ebp, esp
	push	-1
	push	__ehhandler$??0D3DADAPTER_T@Ogre@@QAE@XZ
	mov	eax, DWORD PTR fs:0
	push	eax
	push	ecx
	mov	eax, DWORD PTR ___security_cookie
	xor	eax, ebp
	push	eax
	lea	eax, DWORD PTR __$EHRec$[ebp]
	mov	DWORD PTR fs:0, eax
	mov	DWORD PTR _this$[ebp], ecx
	mov	ecx, DWORD PTR _this$[ebp]
	add	ecx, 1104				; 00000450H
	call	??0?$vector@U_D3DDISPLAYMODE@@V?$allocator@U_D3DDISPLAYMODE@@@std@@@std@@QAE@XZ ; std::vector<_D3DDISPLAYMODE,std::allocator<_D3DDISPLAYMODE> >::vector<_D3DDISPLAYMODE,std::allocator<_D3DDISPLAYMODE> >
	mov	DWORD PTR __$EHRec$[ebp+8], 0
	mov	ecx, DWORD PTR _this$[ebp]
	add	ecx, 1128				; 00000468H
	call	??0?$vector@PAUD3DDEVICEINFO_T@Ogre@@V?$allocator@PAUD3DDEVICEINFO_T@Ogre@@@std@@@std@@QAE@XZ ; std::vector<Ogre::D3DDEVICEINFO_T *,std::allocator<Ogre::D3DDEVICEINFO_T *> >::vector<Ogre::D3DDEVICEINFO_T *,std::allocator<Ogre::D3DDEVICEINFO_T *> >
	mov	BYTE PTR __$EHRec$[ebp+8], 1
	mov	DWORD PTR __$EHRec$[ebp+8], -1
	mov	eax, DWORD PTR _this$[ebp]
	mov	ecx, DWORD PTR __$EHRec$[ebp]
	mov	DWORD PTR fs:0, ecx
	pop	ecx
	mov	esp, ebp
	pop	ebp
	ret	0
_TEXT	ENDS
;	COMDAT text$x
text$x	SEGMENT
__unwindfunclet$??0D3DADAPTER_T@Ogre@@QAE@XZ$0:
	mov	ecx, DWORD PTR _this$[ebp]
	add	ecx, 1104				; 00000450H
	jmp	??1?$vector@U_D3DDISPLAYMODE@@V?$allocator@U_D3DDISPLAYMODE@@@std@@@std@@QAE@XZ ; std::vector<_D3DDISPLAYMODE,std::allocator<_D3DDISPLAYMODE> >::~vector<_D3DDISPLAYMODE,std::allocator<_D3DDISPLAYMODE> >
__unwindfunclet$??0D3DADAPTER_T@Ogre@@QAE@XZ$1:
	mov	ecx, DWORD PTR _this$[ebp]
	add	ecx, 1128				; 00000468H
	jmp	??1?$vector@PAUD3DDEVICEINFO_T@Ogre@@V?$allocator@PAUD3DDEVICEINFO_T@Ogre@@@std@@@std@@QAE@XZ ; std::vector<Ogre::D3DDEVICEINFO_T *,std::allocator<Ogre::D3DDEVICEINFO_T *> >::~vector<Ogre::D3DDEVICEINFO_T *,std::allocator<Ogre::D3DDEVICEINFO_T *> >
__ehhandler$??0D3DADAPTER_T@Ogre@@QAE@XZ:
	mov	edx, DWORD PTR [esp+8]
	lea	eax, DWORD PTR [edx+12]
	mov	ecx, DWORD PTR [edx-8]
	xor	ecx, eax
	call	@__security_check_cookie@4
	mov	eax, OFFSET __ehfuncinfo$??0D3DADAPTER_T@Ogre@@QAE@XZ
	jmp	___CxxFrameHandler3
text$x	ENDS
??0D3DADAPTER_T@Ogre@@QAE@XZ ENDP			; Ogre::D3DADAPTER_T::D3DADAPTER_T
PUBLIC	?push_back@?$vector@PAUD3DDEVICEINFO_T@Ogre@@V?$allocator@PAUD3DDEVICEINFO_T@Ogre@@@std@@@std@@QAEXABQAUD3DDEVICEINFO_T@Ogre@@@Z ; std::vector<Ogre::D3DDEVICEINFO_T *,std::allocator<Ogre::D3DDEVICEINFO_T *> >::push_back
PUBLIC	?empty@?$vector@PAUD3DDEVCOMBO_T@Ogre@@V?$allocator@PAUD3DDEVCOMBO_T@Ogre@@@std@@@std@@QBE_NXZ ; std::vector<Ogre::D3DDEVCOMBO_T *,std::allocator<Ogre::D3DDEVCOMBO_T *> >::empty
PUBLIC	?EnumerateDeviceCombo@D3DEnumeration@Ogre@@AAEXPAUD3DDEVICEINFO_T@2@AAV?$vector@W4_D3DFORMAT@@V?$allocator@W4_D3DFORMAT@@@std@@@std@@@Z ; Ogre::D3DEnumeration::EnumerateDeviceCombo
PUBLIC	??0D3DDEVICEINFO_T@Ogre@@QAE@XZ			; Ogre::D3DDEVICEINFO_T::D3DDEVICEINFO_T
xdata$x	SEGMENT
__unwindtable$?EnumerateDevices@D3DEnumeration@Ogre@@AAEXPAUD3DADAPTER_T@2@AAV?$vector@W4_D3DFORMAT@@V?$allocator@W4_D3DFORMAT@@@std@@@std@@@Z DD 0ffffffffH
	DD	FLAT:__unwindfunclet$?EnumerateDevices@D3DEnumeration@Ogre@@AAEXPAUD3DADAPTER_T@2@AAV?$vector@W4_D3DFORMAT@@V?$allocator@W4_D3DFORMAT@@@std@@@std@@@Z$0
__ehfuncinfo$?EnumerateDevices@D3DEnumeration@Ogre@@AAEXPAUD3DADAPTER_T@2@AAV?$vector@W4_D3DFORMAT@@V?$allocator@W4_D3DFORMAT@@@std@@@std@@@Z DD 019930522H
	DD	01H
	DD	FLAT:__unwindtable$?EnumerateDevices@D3DEnumeration@Ogre@@AAEXPAUD3DADAPTER_T@2@AAV?$vector@W4_D3DFORMAT@@V?$allocator@W4_D3DFORMAT@@@std@@@std@@@Z
	DD	2 DUP(00H)
	DD	2 DUP(00H)
	DD	00H
	DD	00H
; Function compile flags: /Odtp
xdata$x	ENDS
_TEXT	SEGMENT
tv139 = -68						; size = 4
tv94 = -64						; size = 4
tv73 = -60						; size = 4
_this$ = -56						; size = 4
$T141504 = -52						; size = 4
$T141503 = -48						; size = 4
$T141500 = -44						; size = 4
$T141499 = -40						; size = 4
$T141496 = -36						; size = 4
$T141495 = -32						; size = 4
_pdevinfo$128841 = -28					; size = 4
_idt$128837 = -24					; size = 4
_devtypes$ = -20					; size = 8
__$EHRec$ = -12						; size = 12
_padapter$ = 8						; size = 4
_formatarray$ = 12					; size = 4
?EnumerateDevices@D3DEnumeration@Ogre@@AAEXPAUD3DADAPTER_T@2@AAV?$vector@W4_D3DFORMAT@@V?$allocator@W4_D3DFORMAT@@@std@@@std@@@Z PROC ; Ogre::D3DEnumeration::EnumerateDevices
; _this$ = ecx

; 243  : 	{

	push	ebp
	mov	ebp, esp
	push	-1
	push	__ehhandler$?EnumerateDevices@D3DEnumeration@Ogre@@AAEXPAUD3DADAPTER_T@2@AAV?$vector@W4_D3DFORMAT@@V?$allocator@W4_D3DFORMAT@@@std@@@std@@@Z
	mov	eax, DWORD PTR fs:0
	push	eax
	sub	esp, 56					; 00000038H
	mov	eax, DWORD PTR ___security_cookie
	xor	eax, ebp
	push	eax
	lea	eax, DWORD PTR __$EHRec$[ebp]
	mov	DWORD PTR fs:0, eax
	mov	DWORD PTR _this$[ebp], ecx

; 244  : 		const D3DDEVTYPE devtypes[] = { D3DDEVTYPE_HAL, D3DDEVTYPE_REF };

	mov	DWORD PTR _devtypes$[ebp], 1
	mov	DWORD PTR _devtypes$[ebp+4], 2

; 245  : 
; 246  : 		for( UINT32 idt=0; idt<ARRAY_ELEMENTS(devtypes); idt++ )

	mov	DWORD PTR _idt$128837[ebp], 0
	jmp	SHORT $LN6@EnumerateD
$LN5@EnumerateD:
	mov	eax, DWORD PTR _idt$128837[ebp]
	add	eax, 1
	mov	DWORD PTR _idt$128837[ebp], eax
$LN6@EnumerateD:
	cmp	DWORD PTR _idt$128837[ebp], 2
	jae	$LN7@EnumerateD

; 247  : 		{
; 248  : 			D3DDEVICEINFO_T *pdevinfo = new D3DDEVICEINFO_T;

	push	336					; 00000150H
	call	??2@YAPAXI@Z				; operator new
	add	esp, 4
	mov	DWORD PTR $T141496[ebp], eax
	mov	DWORD PTR __$EHRec$[ebp+8], 0
	cmp	DWORD PTR $T141496[ebp], 0
	je	SHORT $LN9@EnumerateD
	mov	ecx, DWORD PTR $T141496[ebp]
	call	??0D3DDEVICEINFO_T@Ogre@@QAE@XZ
	mov	DWORD PTR tv73[ebp], eax
	jmp	SHORT $LN10@EnumerateD
$LN9@EnumerateD:
	mov	DWORD PTR tv73[ebp], 0
$LN10@EnumerateD:
	mov	ecx, DWORD PTR tv73[ebp]
	mov	DWORD PTR $T141495[ebp], ecx
	mov	DWORD PTR __$EHRec$[ebp+8], -1
	mov	edx, DWORD PTR $T141495[ebp]
	mov	DWORD PTR _pdevinfo$128841[ebp], edx

; 249  : 
; 250  : 			pdevinfo->iadapter = padapter->iadapter;

	mov	eax, DWORD PTR _pdevinfo$128841[ebp]
	mov	ecx, DWORD PTR _padapter$[ebp]
	mov	edx, DWORD PTR [ecx]
	mov	DWORD PTR [eax], edx

; 251  : 			pdevinfo->type = devtypes[idt];

	mov	eax, DWORD PTR _pdevinfo$128841[ebp]
	mov	ecx, DWORD PTR _idt$128837[ebp]
	mov	edx, DWORD PTR _devtypes$[ebp+ecx*4]
	mov	DWORD PTR [eax+4], edx

; 252  : 
; 253  : 			if( FAILED( m_pD3D->GetDeviceCaps(pdevinfo->iadapter, pdevinfo->type, &pdevinfo->caps) ) )

	mov	eax, DWORD PTR _pdevinfo$128841[ebp]
	add	eax, 8
	push	eax
	mov	ecx, DWORD PTR _pdevinfo$128841[ebp]
	mov	edx, DWORD PTR [ecx+4]
	push	edx
	mov	eax, DWORD PTR _pdevinfo$128841[ebp]
	mov	ecx, DWORD PTR [eax]
	push	ecx
	mov	edx, DWORD PTR _this$[ebp]
	mov	eax, DWORD PTR [edx+92]
	mov	ecx, DWORD PTR _this$[ebp]
	mov	edx, DWORD PTR [ecx+92]
	mov	eax, DWORD PTR [eax]
	push	edx
	mov	ecx, DWORD PTR [eax+56]
	call	ecx
	test	eax, eax
	jge	SHORT $LN3@EnumerateD

; 254  : 			{
; 255  : 				delete(pdevinfo);

	mov	edx, DWORD PTR _pdevinfo$128841[ebp]
	mov	DWORD PTR $T141500[ebp], edx
	mov	eax, DWORD PTR $T141500[ebp]
	mov	DWORD PTR $T141499[ebp], eax
	cmp	DWORD PTR $T141499[ebp], 0
	je	SHORT $LN11@EnumerateD
	push	1
	mov	ecx, DWORD PTR $T141499[ebp]
	call	??_GD3DDEVICEINFO_T@Ogre@@QAEPAXI@Z
	mov	DWORD PTR tv94[ebp], eax
	jmp	SHORT $LN12@EnumerateD
$LN11@EnumerateD:
	mov	DWORD PTR tv94[ebp], 0
$LN12@EnumerateD:

; 256  : 				continue;

	jmp	$LN5@EnumerateD
$LN3@EnumerateD:

; 257  : 			}
; 258  : 
; 259  : 			// Get info for each devicecombo on this device
; 260  : 			EnumerateDeviceCombo( pdevinfo, formatarray );

	mov	ecx, DWORD PTR _formatarray$[ebp]
	push	ecx
	mov	edx, DWORD PTR _pdevinfo$128841[ebp]
	push	edx
	mov	ecx, DWORD PTR _this$[ebp]
	call	?EnumerateDeviceCombo@D3DEnumeration@Ogre@@AAEXPAUD3DDEVICEINFO_T@2@AAV?$vector@W4_D3DFORMAT@@V?$allocator@W4_D3DFORMAT@@@std@@@std@@@Z ; Ogre::D3DEnumeration::EnumerateDeviceCombo

; 261  : 
; 262  : 			if( pdevinfo->devcombo.empty() ) delete(pdevinfo);

	mov	ecx, DWORD PTR _pdevinfo$128841[ebp]
	add	ecx, 312				; 00000138H
	call	?empty@?$vector@PAUD3DDEVCOMBO_T@Ogre@@V?$allocator@PAUD3DDEVCOMBO_T@Ogre@@@std@@@std@@QBE_NXZ ; std::vector<Ogre::D3DDEVCOMBO_T *,std::allocator<Ogre::D3DDEVCOMBO_T *> >::empty
	movzx	eax, al
	test	eax, eax
	je	SHORT $LN2@EnumerateD
	mov	ecx, DWORD PTR _pdevinfo$128841[ebp]
	mov	DWORD PTR $T141504[ebp], ecx
	mov	edx, DWORD PTR $T141504[ebp]
	mov	DWORD PTR $T141503[ebp], edx
	cmp	DWORD PTR $T141503[ebp], 0
	je	SHORT $LN13@EnumerateD
	push	1
	mov	ecx, DWORD PTR $T141503[ebp]
	call	??_GD3DDEVICEINFO_T@Ogre@@QAEPAXI@Z
	mov	DWORD PTR tv139[ebp], eax
	jmp	SHORT $LN14@EnumerateD
$LN13@EnumerateD:
	mov	DWORD PTR tv139[ebp], 0
$LN14@EnumerateD:

; 263  : 			else padapter->devinfo.push_back( pdevinfo );

	jmp	SHORT $LN1@EnumerateD
$LN2@EnumerateD:
	lea	eax, DWORD PTR _pdevinfo$128841[ebp]
	push	eax
	mov	ecx, DWORD PTR _padapter$[ebp]
	add	ecx, 1128				; 00000468H
	call	?push_back@?$vector@PAUD3DDEVICEINFO_T@Ogre@@V?$allocator@PAUD3DDEVICEINFO_T@Ogre@@@std@@@std@@QAEXABQAUD3DDEVICEINFO_T@Ogre@@@Z ; std::vector<Ogre::D3DDEVICEINFO_T *,std::allocator<Ogre::D3DDEVICEINFO_T *> >::push_back
$LN1@EnumerateD:
	jmp	$LN5@EnumerateD
$LN7@EnumerateD:

; 264  : 		}
; 265  : 	}

	mov	ecx, DWORD PTR __$EHRec$[ebp]
	mov	DWORD PTR fs:0, ecx
	pop	ecx
	mov	esp, ebp
	pop	ebp
	ret	8
_TEXT	ENDS
text$x	SEGMENT
__unwindfunclet$?EnumerateDevices@D3DEnumeration@Ogre@@AAEXPAUD3DADAPTER_T@2@AAV?$vector@W4_D3DFORMAT@@V?$allocator@W4_D3DFORMAT@@@std@@@std@@@Z$0:
	mov	eax, DWORD PTR $T141496[ebp]
	push	eax
	call	??3@YAXPAX@Z				; operator delete
	pop	ecx
	ret	0
__ehhandler$?EnumerateDevices@D3DEnumeration@Ogre@@AAEXPAUD3DADAPTER_T@2@AAV?$vector@W4_D3DFORMAT@@V?$allocator@W4_D3DFORMAT@@@std@@@std@@@Z:
	mov	edx, DWORD PTR [esp+8]
	lea	eax, DWORD PTR [edx+12]
	mov	ecx, DWORD PTR [edx-60]
	xor	ecx, eax
	call	@__security_check_cookie@4
	mov	eax, OFFSET __ehfuncinfo$?EnumerateDevices@D3DEnumeration@Ogre@@AAEXPAUD3DADAPTER_T@2@AAV?$vector@W4_D3DFORMAT@@V?$allocator@W4_D3DFORMAT@@@std@@@std@@@Z
	jmp	___CxxFrameHandler3
text$x	ENDS
?EnumerateDevices@D3DEnumeration@Ogre@@AAEXPAUD3DADAPTER_T@2@AAV?$vector@W4_D3DFORMAT@@V?$allocator@W4_D3DFORMAT@@@std@@@std@@@Z ENDP ; Ogre::D3DEnumeration::EnumerateDevices
PUBLIC	??0?$vector@PAUD3DDEVCOMBO_T@Ogre@@V?$allocator@PAUD3DDEVCOMBO_T@Ogre@@@std@@@std@@QAE@XZ ; std::vector<Ogre::D3DDEVCOMBO_T *,std::allocator<Ogre::D3DDEVCOMBO_T *> >::vector<Ogre::D3DDEVCOMBO_T *,std::allocator<Ogre::D3DDEVCOMBO_T *> >
;	COMDAT xdata$x
xdata$x	SEGMENT
__unwindtable$??0D3DDEVICEINFO_T@Ogre@@QAE@XZ DD 0ffffffffH
	DD	FLAT:__unwindfunclet$??0D3DDEVICEINFO_T@Ogre@@QAE@XZ$0
__ehfuncinfo$??0D3DDEVICEINFO_T@Ogre@@QAE@XZ DD 019930522H
	DD	01H
	DD	FLAT:__unwindtable$??0D3DDEVICEINFO_T@Ogre@@QAE@XZ
	DD	2 DUP(00H)
	DD	2 DUP(00H)
	DD	00H
	DD	00H
; Function compile flags: /Odtp
xdata$x	ENDS
;	COMDAT ??0D3DDEVICEINFO_T@Ogre@@QAE@XZ
_TEXT	SEGMENT
_this$ = -16						; size = 4
__$EHRec$ = -12						; size = 12
??0D3DDEVICEINFO_T@Ogre@@QAE@XZ PROC			; Ogre::D3DDEVICEINFO_T::D3DDEVICEINFO_T, COMDAT
; _this$ = ecx
	push	ebp
	mov	ebp, esp
	push	-1
	push	__ehhandler$??0D3DDEVICEINFO_T@Ogre@@QAE@XZ
	mov	eax, DWORD PTR fs:0
	push	eax
	push	ecx
	mov	eax, DWORD PTR ___security_cookie
	xor	eax, ebp
	push	eax
	lea	eax, DWORD PTR __$EHRec$[ebp]
	mov	DWORD PTR fs:0, eax
	mov	DWORD PTR _this$[ebp], ecx
	mov	ecx, DWORD PTR _this$[ebp]
	add	ecx, 312				; 00000138H
	call	??0?$vector@PAUD3DDEVCOMBO_T@Ogre@@V?$allocator@PAUD3DDEVCOMBO_T@Ogre@@@std@@@std@@QAE@XZ ; std::vector<Ogre::D3DDEVCOMBO_T *,std::allocator<Ogre::D3DDEVCOMBO_T *> >::vector<Ogre::D3DDEVCOMBO_T *,std::allocator<Ogre::D3DDEVCOMBO_T *> >
	mov	DWORD PTR __$EHRec$[ebp+8], 0
	mov	DWORD PTR __$EHRec$[ebp+8], -1
	mov	eax, DWORD PTR _this$[ebp]
	mov	ecx, DWORD PTR __$EHRec$[ebp]
	mov	DWORD PTR fs:0, ecx
	pop	ecx
	mov	esp, ebp
	pop	ebp
	ret	0
_TEXT	ENDS
;	COMDAT text$x
text$x	SEGMENT
__unwindfunclet$??0D3DDEVICEINFO_T@Ogre@@QAE@XZ$0:
	mov	ecx, DWORD PTR _this$[ebp]
	add	ecx, 312				; 00000138H
	jmp	??1?$vector@PAUD3DDEVCOMBO_T@Ogre@@V?$allocator@PAUD3DDEVCOMBO_T@Ogre@@@std@@@std@@QAE@XZ ; std::vector<Ogre::D3DDEVCOMBO_T *,std::allocator<Ogre::D3DDEVCOMBO_T *> >::~vector<Ogre::D3DDEVCOMBO_T *,std::allocator<Ogre::D3DDEVCOMBO_T *> >
__ehhandler$??0D3DDEVICEINFO_T@Ogre@@QAE@XZ:
	mov	edx, DWORD PTR [esp+8]
	lea	eax, DWORD PTR [edx+12]
	mov	ecx, DWORD PTR [edx-8]
	xor	ecx, eax
	call	@__security_check_cookie@4
	mov	eax, OFFSET __ehfuncinfo$??0D3DDEVICEINFO_T@Ogre@@QAE@XZ
	jmp	___CxxFrameHandler3
text$x	ENDS
??0D3DDEVICEINFO_T@Ogre@@QAE@XZ ENDP			; Ogre::D3DDEVICEINFO_T::D3DDEVICEINFO_T
PUBLIC	?push_back@?$vector@PAUD3DDEVCOMBO_T@Ogre@@V?$allocator@PAUD3DDEVCOMBO_T@Ogre@@@std@@@std@@QAEXABQAUD3DDEVCOMBO_T@Ogre@@@Z ; std::vector<Ogre::D3DDEVCOMBO_T *,std::allocator<Ogre::D3DDEVCOMBO_T *> >::push_back
PUBLIC	?ComputeDeviceCombo@D3DEnumeration@Ogre@@AAEPAUD3DDEVCOMBO_T@2@PAUD3DDEVICEINFO_T@2@W4_D3DFORMAT@@1H@Z ; Ogre::D3DEnumeration::ComputeDeviceCombo
; Function compile flags: /Odtp
_TEXT	SEGMENT
_this$ = -60						; size = 4
_pcombo$128882 = -56					; size = 4
_iwin$128878 = -52					; size = 4
_bkfmt$128876 = -48					; size = 4
_ibk$128872 = -44					; size = 4
_dispformat$128871 = -40				; size = 4
_idisp$128867 = -36					; size = 4
_bkbuffmt$ = -32					; size = 24
_iswindow$ = -8						; size = 8
_pdevice$ = 8						; size = 4
_formatarray$ = 12					; size = 4
?EnumerateDeviceCombo@D3DEnumeration@Ogre@@AAEXPAUD3DDEVICEINFO_T@2@AAV?$vector@W4_D3DFORMAT@@V?$allocator@W4_D3DFORMAT@@@std@@@std@@@Z PROC ; Ogre::D3DEnumeration::EnumerateDeviceCombo
; _this$ = ecx

; 268  : 	{

	push	ebp
	mov	ebp, esp
	sub	esp, 60					; 0000003cH
	mov	DWORD PTR _this$[ebp], ecx

; 269  : 		const D3DFORMAT bkbuffmt[] = { D3DFMT_A8R8G8B8, D3DFMT_X8R8G8B8, D3DFMT_A2R10G10B10, 

	mov	DWORD PTR _bkbuffmt$[ebp], 21		; 00000015H
	mov	DWORD PTR _bkbuffmt$[ebp+4], 22		; 00000016H
	mov	DWORD PTR _bkbuffmt$[ebp+8], 35		; 00000023H

; 270  : 			D3DFMT_R5G6B5, D3DFMT_A1R5G5B5, D3DFMT_X1R5G5B5 };

	mov	DWORD PTR _bkbuffmt$[ebp+12], 23	; 00000017H
	mov	DWORD PTR _bkbuffmt$[ebp+16], 25	; 00000019H
	mov	DWORD PTR _bkbuffmt$[ebp+20], 24	; 00000018H

; 271  : 		BOOL  iswindow[] = { FALSE, TRUE };

	mov	DWORD PTR _iswindow$[ebp], 0
	mov	DWORD PTR _iswindow$[ebp+4], 1

; 272  : 
; 273  : 		for( UINT32 idisp=0; idisp<formatarray.size(); idisp++)

	mov	DWORD PTR _idisp$128867[ebp], 0
	jmp	SHORT $LN11@EnumerateD@2
$LN10@EnumerateD@2:
	mov	eax, DWORD PTR _idisp$128867[ebp]
	add	eax, 1
	mov	DWORD PTR _idisp$128867[ebp], eax
$LN11@EnumerateD@2:
	mov	ecx, DWORD PTR _formatarray$[ebp]
	call	?size@?$vector@W4_D3DFORMAT@@V?$allocator@W4_D3DFORMAT@@@std@@@std@@QBEIXZ ; std::vector<enum _D3DFORMAT,std::allocator<enum _D3DFORMAT> >::size
	cmp	DWORD PTR _idisp$128867[ebp], eax
	jae	$LN12@EnumerateD@2

; 274  : 		{
; 275  : 			D3DFORMAT dispformat = formatarray[idisp];

	mov	ecx, DWORD PTR _idisp$128867[ebp]
	push	ecx
	mov	ecx, DWORD PTR _formatarray$[ebp]
	call	??A?$vector@W4_D3DFORMAT@@V?$allocator@W4_D3DFORMAT@@@std@@@std@@QAEAAW4_D3DFORMAT@@I@Z ; std::vector<enum _D3DFORMAT,std::allocator<enum _D3DFORMAT> >::operator[]
	mov	edx, DWORD PTR [eax]
	mov	DWORD PTR _dispformat$128871[ebp], edx

; 276  : 
; 277  : 			for( UINT32 ibk=0; ibk<ARRAY_ELEMENTS(bkbuffmt); ibk++ )

	mov	DWORD PTR _ibk$128872[ebp], 0
	jmp	SHORT $LN8@EnumerateD@2
$LN7@EnumerateD@2:
	mov	eax, DWORD PTR _ibk$128872[ebp]
	add	eax, 1
	mov	DWORD PTR _ibk$128872[ebp], eax
$LN8@EnumerateD@2:
	cmp	DWORD PTR _ibk$128872[ebp], 6
	jae	SHORT $LN6@EnumerateD@2

; 278  : 			{
; 279  : 				D3DFORMAT bkfmt = bkbuffmt[ibk];

	mov	ecx, DWORD PTR _ibk$128872[ebp]
	mov	edx, DWORD PTR _bkbuffmt$[ebp+ecx*4]
	mov	DWORD PTR _bkfmt$128876[ebp], edx

; 280  : 				if( AlphaChannelBits(bkfmt) < m_MinAlphaChannelBits ) continue;

	mov	eax, DWORD PTR _bkfmt$128876[ebp]
	push	eax
	call	?AlphaChannelBits@Ogre@@YAIW4_D3DFORMAT@@@Z ; Ogre::AlphaChannelBits
	add	esp, 4
	mov	ecx, DWORD PTR _this$[ebp]
	cmp	eax, DWORD PTR [ecx+64]
	jae	SHORT $LN5@EnumerateD@2
	jmp	SHORT $LN7@EnumerateD@2
$LN5@EnumerateD@2:

; 281  : 
; 282  : 				for( UINT32 iwin=0; iwin<ARRAY_ELEMENTS(iswindow); iwin++ )

	mov	DWORD PTR _iwin$128878[ebp], 0
	jmp	SHORT $LN4@EnumerateD@2
$LN3@EnumerateD@2:
	mov	edx, DWORD PTR _iwin$128878[ebp]
	add	edx, 1
	mov	DWORD PTR _iwin$128878[ebp], edx
$LN4@EnumerateD@2:
	cmp	DWORD PTR _iwin$128878[ebp], 2
	jae	SHORT $LN2@EnumerateD@2

; 283  : 				{
; 284  : 					D3DDEVCOMBO_T *pcombo = ComputeDeviceCombo( pdevice, dispformat, bkfmt, iswindow[iwin] );

	mov	eax, DWORD PTR _iwin$128878[ebp]
	mov	ecx, DWORD PTR _iswindow$[ebp+eax*4]
	push	ecx
	mov	edx, DWORD PTR _bkfmt$128876[ebp]
	push	edx
	mov	eax, DWORD PTR _dispformat$128871[ebp]
	push	eax
	mov	ecx, DWORD PTR _pdevice$[ebp]
	push	ecx
	mov	ecx, DWORD PTR _this$[ebp]
	call	?ComputeDeviceCombo@D3DEnumeration@Ogre@@AAEPAUD3DDEVCOMBO_T@2@PAUD3DDEVICEINFO_T@2@W4_D3DFORMAT@@1H@Z ; Ogre::D3DEnumeration::ComputeDeviceCombo
	mov	DWORD PTR _pcombo$128882[ebp], eax

; 285  : 					if( pcombo ) pdevice->devcombo.push_back( pcombo );

	cmp	DWORD PTR _pcombo$128882[ebp], 0
	je	SHORT $LN1@EnumerateD@2
	lea	edx, DWORD PTR _pcombo$128882[ebp]
	push	edx
	mov	ecx, DWORD PTR _pdevice$[ebp]
	add	ecx, 312				; 00000138H
	call	?push_back@?$vector@PAUD3DDEVCOMBO_T@Ogre@@V?$allocator@PAUD3DDEVCOMBO_T@Ogre@@@std@@@std@@QAEXABQAUD3DDEVCOMBO_T@Ogre@@@Z ; std::vector<Ogre::D3DDEVCOMBO_T *,std::allocator<Ogre::D3DDEVCOMBO_T *> >::push_back
$LN1@EnumerateD@2:

; 286  : 				}

	jmp	SHORT $LN3@EnumerateD@2
$LN2@EnumerateD@2:

; 287  : 			}

	jmp	$LN7@EnumerateD@2
$LN6@EnumerateD@2:

; 288  : 		}

	jmp	$LN10@EnumerateD@2
$LN12@EnumerateD@2:

; 289  : 	}

	mov	esp, ebp
	pop	ebp
	ret	8
?EnumerateDeviceCombo@D3DEnumeration@Ogre@@AAEXPAUD3DDEVICEINFO_T@2@AAV?$vector@W4_D3DFORMAT@@V?$allocator@W4_D3DFORMAT@@@std@@@std@@@Z ENDP ; Ogre::D3DEnumeration::EnumerateDeviceCombo
; Function compile flags: /Odtp
tv64 = -4						; size = 4
_fmt$ = 8						; size = 4
?AlphaChannelBits@Ogre@@YAIW4_D3DFORMAT@@@Z PROC	; Ogre::AlphaChannelBits

; 44   : 	{

	push	ebp
	mov	ebp, esp
	push	ecx

; 45   : 		switch( fmt )

	mov	eax, DWORD PTR _fmt$[ebp]
	mov	DWORD PTR tv64[ebp], eax
	mov	ecx, DWORD PTR tv64[ebp]
	sub	ecx, 20					; 00000014H
	mov	DWORD PTR tv64[ebp], ecx
	cmp	DWORD PTR tv64[ebp], 15			; 0000000fH
	ja	SHORT $LN1@AlphaChann
	mov	edx, DWORD PTR tv64[ebp]
	jmp	DWORD PTR $LN18@AlphaChann[edx*4]
$LN13@AlphaChann:

; 46   : 		{
; 47   : 		case D3DFMT_R8G8B8:
; 48   : 			return 0;

	xor	eax, eax
	jmp	SHORT $LN16@AlphaChann
$LN12@AlphaChann:

; 49   : 		case D3DFMT_A8R8G8B8:
; 50   : 			return 8;

	mov	eax, 8
	jmp	SHORT $LN16@AlphaChann
$LN11@AlphaChann:

; 51   : 		case D3DFMT_X8R8G8B8:
; 52   : 			return 0;

	xor	eax, eax
	jmp	SHORT $LN16@AlphaChann
$LN10@AlphaChann:

; 53   : 		case D3DFMT_R5G6B5:
; 54   : 			return 0;

	xor	eax, eax
	jmp	SHORT $LN16@AlphaChann
$LN9@AlphaChann:

; 55   : 		case D3DFMT_X1R5G5B5:
; 56   : 			return 0;

	xor	eax, eax
	jmp	SHORT $LN16@AlphaChann
$LN8@AlphaChann:

; 57   : 		case D3DFMT_A1R5G5B5:
; 58   : 			return 1;

	mov	eax, 1
	jmp	SHORT $LN16@AlphaChann
$LN7@AlphaChann:

; 59   : 		case D3DFMT_A4R4G4B4:
; 60   : 			return 4;

	mov	eax, 4
	jmp	SHORT $LN16@AlphaChann
$LN6@AlphaChann:

; 61   : 		case D3DFMT_R3G3B2:
; 62   : 			return 0;

	xor	eax, eax
	jmp	SHORT $LN16@AlphaChann
$LN5@AlphaChann:

; 63   : 		case D3DFMT_A8R3G3B2:
; 64   : 			return 8;

	mov	eax, 8
	jmp	SHORT $LN16@AlphaChann
$LN4@AlphaChann:

; 65   : 		case D3DFMT_X4R4G4B4:
; 66   : 			return 0;

	xor	eax, eax
	jmp	SHORT $LN16@AlphaChann
$LN3@AlphaChann:

; 67   : 		case D3DFMT_A2B10G10R10:
; 68   : 			return 2;

	mov	eax, 2
	jmp	SHORT $LN16@AlphaChann
$LN2@AlphaChann:

; 69   : 		case D3DFMT_A2R10G10B10:
; 70   : 			return 2;

	mov	eax, 2
	jmp	SHORT $LN16@AlphaChann
$LN1@AlphaChann:

; 71   : 		default:
; 72   : 			return 0;

	xor	eax, eax
$LN16@AlphaChann:

; 73   : 		}
; 74   : 	}

	mov	esp, ebp
	pop	ebp
	ret	0
	npad	1
$LN18@AlphaChann:
	DD	$LN13@AlphaChann
	DD	$LN12@AlphaChann
	DD	$LN11@AlphaChann
	DD	$LN10@AlphaChann
	DD	$LN9@AlphaChann
	DD	$LN8@AlphaChann
	DD	$LN7@AlphaChann
	DD	$LN6@AlphaChann
	DD	$LN1@AlphaChann
	DD	$LN5@AlphaChann
	DD	$LN4@AlphaChann
	DD	$LN3@AlphaChann
	DD	$LN1@AlphaChann
	DD	$LN1@AlphaChann
	DD	$LN1@AlphaChann
	DD	$LN2@AlphaChann
?AlphaChannelBits@Ogre@@YAIW4_D3DFORMAT@@@Z ENDP	; Ogre::AlphaChannelBits
_TEXT	ENDS
PUBLIC	?Dismiss@ScopeGuardImplBase@Ogre@@QBEXXZ	; Ogre::ScopeGuardImplBase::Dismiss
PUBLIC	?BuildPresentIntervalList@D3DEnumeration@Ogre@@AAEXPAUD3DDEVICEINFO_T@2@PAUD3DDEVCOMBO_T@2@@Z ; Ogre::D3DEnumeration::BuildPresentIntervalList
PUBLIC	?empty@?$vector@W4VERTPROCESS_T@Ogre@@V?$allocator@W4VERTPROCESS_T@Ogre@@@std@@@std@@QBE_NXZ ; std::vector<enum Ogre::VERTPROCESS_T,std::allocator<enum Ogre::VERTPROCESS_T> >::empty
PUBLIC	?BuildVertexProcessingTypeList@D3DEnumeration@Ogre@@AAEXPAUD3DDEVICEINFO_T@2@PAUD3DDEVCOMBO_T@2@@Z ; Ogre::D3DEnumeration::BuildVertexProcessingTypeList
PUBLIC	?BuildDSMSConflictList@D3DEnumeration@Ogre@@AAEXPAUD3DDEVCOMBO_T@2@@Z ; Ogre::D3DEnumeration::BuildDSMSConflictList
PUBLIC	?empty@?$vector@W4_D3DMULTISAMPLE_TYPE@@V?$allocator@W4_D3DMULTISAMPLE_TYPE@@@std@@@std@@QBE_NXZ ; std::vector<enum _D3DMULTISAMPLE_TYPE,std::allocator<enum _D3DMULTISAMPLE_TYPE> >::empty
PUBLIC	?BuildMultiSampleTypeList@D3DEnumeration@Ogre@@AAEXPAUD3DDEVCOMBO_T@2@@Z ; Ogre::D3DEnumeration::BuildMultiSampleTypeList
PUBLIC	??1?$PtrScopeGuardImpl@UD3DDEVCOMBO_T@Ogre@@@Ogre@@QAE@XZ ; Ogre::PtrScopeGuardImpl<Ogre::D3DDEVCOMBO_T>::~PtrScopeGuardImpl<Ogre::D3DDEVCOMBO_T>
PUBLIC	?empty@?$vector@W4_D3DFORMAT@@V?$allocator@W4_D3DFORMAT@@@std@@@std@@QBE_NXZ ; std::vector<enum _D3DFORMAT,std::allocator<enum _D3DFORMAT> >::empty
PUBLIC	?BuildDepthStencilFormatList@D3DEnumeration@Ogre@@AAEXPAUD3DDEVCOMBO_T@2@@Z ; Ogre::D3DEnumeration::BuildDepthStencilFormatList
PUBLIC	??$MakePtrGuard@UD3DDEVCOMBO_T@Ogre@@@Ogre@@YA?AV?$PtrScopeGuardImpl@UD3DDEVCOMBO_T@Ogre@@@0@PAUD3DDEVCOMBO_T@0@@Z ; Ogre::MakePtrGuard<Ogre::D3DDEVCOMBO_T>
PUBLIC	??0D3DDEVCOMBO_T@Ogre@@QAE@XZ			; Ogre::D3DDEVCOMBO_T::D3DDEVCOMBO_T
xdata$x	SEGMENT
__unwindtable$?ComputeDeviceCombo@D3DEnumeration@Ogre@@AAEPAUD3DDEVCOMBO_T@2@PAUD3DDEVICEINFO_T@2@W4_D3DFORMAT@@1H@Z DD 0ffffffffH
	DD	FLAT:__unwindfunclet$?ComputeDeviceCombo@D3DEnumeration@Ogre@@AAEPAUD3DDEVCOMBO_T@2@PAUD3DDEVICEINFO_T@2@W4_D3DFORMAT@@1H@Z$0
	DD	0ffffffffH
	DD	FLAT:__unwindfunclet$?ComputeDeviceCombo@D3DEnumeration@Ogre@@AAEPAUD3DDEVCOMBO_T@2@PAUD3DDEVICEINFO_T@2@W4_D3DFORMAT@@1H@Z$1
__ehfuncinfo$?ComputeDeviceCombo@D3DEnumeration@Ogre@@AAEPAUD3DDEVCOMBO_T@2@PAUD3DDEVICEINFO_T@2@W4_D3DFORMAT@@1H@Z DD 019930522H
	DD	02H
	DD	FLAT:__unwindtable$?ComputeDeviceCombo@D3DEnumeration@Ogre@@AAEPAUD3DDEVCOMBO_T@2@PAUD3DDEVICEINFO_T@2@W4_D3DFORMAT@@1H@Z
	DD	2 DUP(00H)
	DD	2 DUP(00H)
	DD	00H
	DD	00H
; Function compile flags: /Odtp
xdata$x	ENDS
_TEXT	SEGMENT
tv92 = -60						; size = 4
_this$ = -56						; size = 4
$T141532 = -52						; size = 4
$T141531 = -48						; size = 4
$T141530 = -44						; size = 4
$T141529 = -40						; size = 4
$T141526 = -36						; size = 4
$T141525 = -32						; size = 4
_comboguard$ = -28					; size = 4
_$S1$ = -24						; size = 8
_pcombo$ = -16						; size = 4
__$EHRec$ = -12						; size = 12
_pdevice$ = 8						; size = 4
_dispformat$ = 12					; size = 4
_bkbufformat$ = 16					; size = 4
_iswindow$ = 20						; size = 4
?ComputeDeviceCombo@D3DEnumeration@Ogre@@AAEPAUD3DDEVCOMBO_T@2@PAUD3DDEVICEINFO_T@2@W4_D3DFORMAT@@1H@Z PROC ; Ogre::D3DEnumeration::ComputeDeviceCombo
; _this$ = ecx

; 292  : 	{

	push	ebp
	mov	ebp, esp
	push	-1
	push	__ehhandler$?ComputeDeviceCombo@D3DEnumeration@Ogre@@AAEPAUD3DDEVCOMBO_T@2@PAUD3DDEVICEINFO_T@2@W4_D3DFORMAT@@1H@Z
	mov	eax, DWORD PTR fs:0
	push	eax
	sub	esp, 48					; 00000030H
	mov	eax, DWORD PTR ___security_cookie
	xor	eax, ebp
	push	eax
	lea	eax, DWORD PTR __$EHRec$[ebp]
	mov	DWORD PTR fs:0, eax
	mov	DWORD PTR _this$[ebp], ecx

; 293  : 		if( iswindow && m_RequireFullscreen ) return NULL;

	cmp	DWORD PTR _iswindow$[ebp], 0
	je	SHORT $LN7@ComputeDev
	mov	eax, DWORD PTR _this$[ebp]
	cmp	DWORD PTR [eax+88], 0
	je	SHORT $LN7@ComputeDev
	xor	eax, eax
	jmp	$LN8@ComputeDev
$LN7@ComputeDev:

; 294  : 		if( !iswindow && m_RequireWindowed ) return NULL;

	cmp	DWORD PTR _iswindow$[ebp], 0
	jne	SHORT $LN6@ComputeDev
	mov	ecx, DWORD PTR _this$[ebp]
	cmp	DWORD PTR [ecx+84], 0
	je	SHORT $LN6@ComputeDev
	xor	eax, eax
	jmp	$LN8@ComputeDev
$LN6@ComputeDev:

; 295  : 
; 296  : 		if( FAILED(m_pD3D->CheckDeviceType(pdevice->iadapter, pdevice->type, dispformat, bkbufformat, iswindow)) )

	mov	edx, DWORD PTR _iswindow$[ebp]
	push	edx
	mov	eax, DWORD PTR _bkbufformat$[ebp]
	push	eax
	mov	ecx, DWORD PTR _dispformat$[ebp]
	push	ecx
	mov	edx, DWORD PTR _pdevice$[ebp]
	mov	eax, DWORD PTR [edx+4]
	push	eax
	mov	ecx, DWORD PTR _pdevice$[ebp]
	mov	edx, DWORD PTR [ecx]
	push	edx
	mov	eax, DWORD PTR _this$[ebp]
	mov	ecx, DWORD PTR [eax+92]
	mov	edx, DWORD PTR _this$[ebp]
	mov	eax, DWORD PTR [edx+92]
	mov	ecx, DWORD PTR [ecx]
	push	eax
	mov	edx, DWORD PTR [ecx+36]
	call	edx
	test	eax, eax
	jge	SHORT $LN5@ComputeDev

; 297  : 		{
; 298  : 			return NULL;

	xor	eax, eax
	jmp	$LN8@ComputeDev
$LN5@ComputeDev:

; 299  : 		}
; 300  : 
; 301  : 		D3DDEVCOMBO_T *pcombo = new D3DDEVCOMBO_T;

	push	164					; 000000a4H
	call	??2@YAPAXI@Z				; operator new
	add	esp, 4
	mov	DWORD PTR $T141526[ebp], eax
	mov	DWORD PTR __$EHRec$[ebp+8], 0
	cmp	DWORD PTR $T141526[ebp], 0
	je	SHORT $LN10@ComputeDev
	mov	ecx, DWORD PTR $T141526[ebp]
	call	??0D3DDEVCOMBO_T@Ogre@@QAE@XZ
	mov	DWORD PTR tv92[ebp], eax
	jmp	SHORT $LN11@ComputeDev
$LN10@ComputeDev:
	mov	DWORD PTR tv92[ebp], 0
$LN11@ComputeDev:
	mov	eax, DWORD PTR tv92[ebp]
	mov	DWORD PTR $T141525[ebp], eax
	mov	DWORD PTR __$EHRec$[ebp+8], -1
	mov	ecx, DWORD PTR $T141525[ebp]
	mov	DWORD PTR _pcombo$[ebp], ecx

; 302  : 		ScopeGuard comboguard = MakePtrGuard( pcombo );

	mov	edx, DWORD PTR _pcombo$[ebp]
	push	edx
	lea	eax, DWORD PTR _$S1$[ebp]
	push	eax
	call	??$MakePtrGuard@UD3DDEVCOMBO_T@Ogre@@@Ogre@@YA?AV?$PtrScopeGuardImpl@UD3DDEVCOMBO_T@Ogre@@@0@PAUD3DDEVCOMBO_T@0@@Z ; Ogre::MakePtrGuard<Ogre::D3DDEVCOMBO_T>
	add	esp, 8
	mov	DWORD PTR __$EHRec$[ebp+8], 1
	lea	ecx, DWORD PTR _$S1$[ebp]
	mov	DWORD PTR _comboguard$[ebp], ecx

; 303  : 
; 304  : 		pcombo->iadapter = pdevice->iadapter;

	mov	edx, DWORD PTR _pcombo$[ebp]
	mov	eax, DWORD PTR _pdevice$[ebp]
	mov	ecx, DWORD PTR [eax]
	mov	DWORD PTR [edx], ecx

; 305  : 		pcombo->devtype = pdevice->type;

	mov	edx, DWORD PTR _pcombo$[ebp]
	mov	eax, DWORD PTR _pdevice$[ebp]
	mov	ecx, DWORD PTR [eax+4]
	mov	DWORD PTR [edx+4], ecx

; 306  : 		pcombo->adapterfmt = dispformat;

	mov	edx, DWORD PTR _pcombo$[ebp]
	mov	eax, DWORD PTR _dispformat$[ebp]
	mov	DWORD PTR [edx+8], eax

; 307  : 		pcombo->backbuffmt = bkbufformat;

	mov	ecx, DWORD PTR _pcombo$[ebp]
	mov	edx, DWORD PTR _bkbufformat$[ebp]
	mov	DWORD PTR [ecx+12], edx

; 308  : 		pcombo->iswindowed = iswindow;

	mov	eax, DWORD PTR _pcombo$[ebp]
	mov	ecx, DWORD PTR _iswindow$[ebp]
	mov	DWORD PTR [eax+16], ecx

; 309  : 
; 310  : 		if( m_UseDepthBuf )

	mov	edx, DWORD PTR _this$[ebp]
	cmp	DWORD PTR [edx+76], 0
	je	SHORT $LN4@ComputeDev

; 311  : 		{
; 312  : 			BuildDepthStencilFormatList( pcombo );

	mov	eax, DWORD PTR _pcombo$[ebp]
	push	eax
	mov	ecx, DWORD PTR _this$[ebp]
	call	?BuildDepthStencilFormatList@D3DEnumeration@Ogre@@AAEXPAUD3DDEVCOMBO_T@2@@Z ; Ogre::D3DEnumeration::BuildDepthStencilFormatList

; 313  : 			if( pcombo->dsfmts.empty() )return NULL;

	mov	ecx, DWORD PTR _pcombo$[ebp]
	add	ecx, 20					; 00000014H
	call	?empty@?$vector@W4_D3DFORMAT@@V?$allocator@W4_D3DFORMAT@@@std@@@std@@QBE_NXZ ; std::vector<enum _D3DFORMAT,std::allocator<enum _D3DFORMAT> >::empty
	movzx	ecx, al
	test	ecx, ecx
	je	SHORT $LN4@ComputeDev
	mov	DWORD PTR $T141529[ebp], 0
	mov	DWORD PTR __$EHRec$[ebp+8], -1
	lea	ecx, DWORD PTR _$S1$[ebp]
	call	??1?$PtrScopeGuardImpl@UD3DDEVCOMBO_T@Ogre@@@Ogre@@QAE@XZ ; Ogre::PtrScopeGuardImpl<Ogre::D3DDEVCOMBO_T>::~PtrScopeGuardImpl<Ogre::D3DDEVCOMBO_T>
	mov	eax, DWORD PTR $T141529[ebp]
	jmp	$LN8@ComputeDev
$LN4@ComputeDev:

; 314  : 		}
; 315  : 
; 316  : 		BuildMultiSampleTypeList( pcombo );

	mov	edx, DWORD PTR _pcombo$[ebp]
	push	edx
	mov	ecx, DWORD PTR _this$[ebp]
	call	?BuildMultiSampleTypeList@D3DEnumeration@Ogre@@AAEXPAUD3DDEVCOMBO_T@2@@Z ; Ogre::D3DEnumeration::BuildMultiSampleTypeList

; 317  : 		if( pcombo->mstypes.empty() )return NULL;

	mov	ecx, DWORD PTR _pcombo$[ebp]
	add	ecx, 44					; 0000002cH
	call	?empty@?$vector@W4_D3DMULTISAMPLE_TYPE@@V?$allocator@W4_D3DMULTISAMPLE_TYPE@@@std@@@std@@QBE_NXZ ; std::vector<enum _D3DMULTISAMPLE_TYPE,std::allocator<enum _D3DMULTISAMPLE_TYPE> >::empty
	movzx	eax, al
	test	eax, eax
	je	SHORT $LN2@ComputeDev
	mov	DWORD PTR $T141530[ebp], 0
	mov	DWORD PTR __$EHRec$[ebp+8], -1
	lea	ecx, DWORD PTR _$S1$[ebp]
	call	??1?$PtrScopeGuardImpl@UD3DDEVCOMBO_T@Ogre@@@Ogre@@QAE@XZ ; Ogre::PtrScopeGuardImpl<Ogre::D3DDEVCOMBO_T>::~PtrScopeGuardImpl<Ogre::D3DDEVCOMBO_T>
	mov	eax, DWORD PTR $T141530[ebp]
	jmp	SHORT $LN8@ComputeDev
$LN2@ComputeDev:

; 318  : 
; 319  : 		BuildDSMSConflictList( pcombo );

	mov	ecx, DWORD PTR _pcombo$[ebp]
	push	ecx
	mov	ecx, DWORD PTR _this$[ebp]
	call	?BuildDSMSConflictList@D3DEnumeration@Ogre@@AAEXPAUD3DDEVCOMBO_T@2@@Z ; Ogre::D3DEnumeration::BuildDSMSConflictList

; 320  : 		BuildVertexProcessingTypeList( pdevice, pcombo );

	mov	edx, DWORD PTR _pcombo$[ebp]
	push	edx
	mov	eax, DWORD PTR _pdevice$[ebp]
	push	eax
	mov	ecx, DWORD PTR _this$[ebp]
	call	?BuildVertexProcessingTypeList@D3DEnumeration@Ogre@@AAEXPAUD3DDEVICEINFO_T@2@PAUD3DDEVCOMBO_T@2@@Z ; Ogre::D3DEnumeration::BuildVertexProcessingTypeList

; 321  : 		if( pcombo->vptypes.empty() ) return NULL;

	mov	ecx, DWORD PTR _pcombo$[ebp]
	add	ecx, 116				; 00000074H
	call	?empty@?$vector@W4VERTPROCESS_T@Ogre@@V?$allocator@W4VERTPROCESS_T@Ogre@@@std@@@std@@QBE_NXZ ; std::vector<enum Ogre::VERTPROCESS_T,std::allocator<enum Ogre::VERTPROCESS_T> >::empty
	movzx	ecx, al
	test	ecx, ecx
	je	SHORT $LN1@ComputeDev
	mov	DWORD PTR $T141531[ebp], 0
	mov	DWORD PTR __$EHRec$[ebp+8], -1
	lea	ecx, DWORD PTR _$S1$[ebp]
	call	??1?$PtrScopeGuardImpl@UD3DDEVCOMBO_T@Ogre@@@Ogre@@QAE@XZ ; Ogre::PtrScopeGuardImpl<Ogre::D3DDEVCOMBO_T>::~PtrScopeGuardImpl<Ogre::D3DDEVCOMBO_T>
	mov	eax, DWORD PTR $T141531[ebp]
	jmp	SHORT $LN8@ComputeDev
$LN1@ComputeDev:

; 322  : 
; 323  : 		BuildPresentIntervalList( pdevice, pcombo );

	mov	edx, DWORD PTR _pcombo$[ebp]
	push	edx
	mov	eax, DWORD PTR _pdevice$[ebp]
	push	eax
	mov	ecx, DWORD PTR _this$[ebp]
	call	?BuildPresentIntervalList@D3DEnumeration@Ogre@@AAEXPAUD3DDEVICEINFO_T@2@PAUD3DDEVCOMBO_T@2@@Z ; Ogre::D3DEnumeration::BuildPresentIntervalList

; 324  : 
; 325  : 		comboguard.Dismiss();

	mov	ecx, DWORD PTR _comboguard$[ebp]
	call	?Dismiss@ScopeGuardImplBase@Ogre@@QBEXXZ ; Ogre::ScopeGuardImplBase::Dismiss

; 326  : 		return pcombo;

	mov	ecx, DWORD PTR _pcombo$[ebp]
	mov	DWORD PTR $T141532[ebp], ecx
	mov	DWORD PTR __$EHRec$[ebp+8], -1
	lea	ecx, DWORD PTR _$S1$[ebp]
	call	??1?$PtrScopeGuardImpl@UD3DDEVCOMBO_T@Ogre@@@Ogre@@QAE@XZ ; Ogre::PtrScopeGuardImpl<Ogre::D3DDEVCOMBO_T>::~PtrScopeGuardImpl<Ogre::D3DDEVCOMBO_T>
	mov	eax, DWORD PTR $T141532[ebp]
$LN8@ComputeDev:

; 327  : 	}

	mov	ecx, DWORD PTR __$EHRec$[ebp]
	mov	DWORD PTR fs:0, ecx
	pop	ecx
	mov	esp, ebp
	pop	ebp
	ret	16					; 00000010H
_TEXT	ENDS
text$x	SEGMENT
__unwindfunclet$?ComputeDeviceCombo@D3DEnumeration@Ogre@@AAEPAUD3DDEVCOMBO_T@2@PAUD3DDEVICEINFO_T@2@W4_D3DFORMAT@@1H@Z$0:
	mov	eax, DWORD PTR $T141526[ebp]
	push	eax
	call	??3@YAXPAX@Z				; operator delete
	pop	ecx
	ret	0
__unwindfunclet$?ComputeDeviceCombo@D3DEnumeration@Ogre@@AAEPAUD3DDEVCOMBO_T@2@PAUD3DDEVICEINFO_T@2@W4_D3DFORMAT@@1H@Z$1:
	lea	ecx, DWORD PTR _$S1$[ebp]
	jmp	??1?$PtrScopeGuardImpl@UD3DDEVCOMBO_T@Ogre@@@Ogre@@QAE@XZ ; Ogre::PtrScopeGuardImpl<Ogre::D3DDEVCOMBO_T>::~PtrScopeGuardImpl<Ogre::D3DDEVCOMBO_T>
__ehhandler$?ComputeDeviceCombo@D3DEnumeration@Ogre@@AAEPAUD3DDEVCOMBO_T@2@PAUD3DDEVICEINFO_T@2@W4_D3DFORMAT@@1H@Z:
	mov	edx, DWORD PTR [esp+8]
	lea	eax, DWORD PTR [edx+12]
	mov	ecx, DWORD PTR [edx-52]
	xor	ecx, eax
	call	@__security_check_cookie@4
	mov	eax, OFFSET __ehfuncinfo$?ComputeDeviceCombo@D3DEnumeration@Ogre@@AAEPAUD3DDEVCOMBO_T@2@PAUD3DDEVICEINFO_T@2@W4_D3DFORMAT@@1H@Z
	jmp	___CxxFrameHandler3
text$x	ENDS
?ComputeDeviceCombo@D3DEnumeration@Ogre@@AAEPAUD3DDEVCOMBO_T@2@PAUD3DDEVICEINFO_T@2@W4_D3DFORMAT@@1H@Z ENDP ; Ogre::D3DEnumeration::ComputeDeviceCombo
; Function compile flags: /Odtp
; File i:\svnroot\client\ogremain\ogrescopeguard.h
;	COMDAT ?Dismiss@ScopeGuardImplBase@Ogre@@QBEXXZ
_TEXT	SEGMENT
_this$ = -4						; size = 4
?Dismiss@ScopeGuardImplBase@Ogre@@QBEXXZ PROC		; Ogre::ScopeGuardImplBase::Dismiss, COMDAT
; _this$ = ecx

; 59   : 		{

	push	ebp
	mov	ebp, esp
	push	ecx
	mov	DWORD PTR _this$[ebp], ecx

; 60   : 			dismissed_ = true;

	mov	eax, DWORD PTR _this$[ebp]
	mov	BYTE PTR [eax], 1

; 61   : 		}

	mov	esp, ebp
	pop	ebp
	ret	0
?Dismiss@ScopeGuardImplBase@Ogre@@QBEXXZ ENDP		; Ogre::ScopeGuardImplBase::Dismiss
_TEXT	ENDS
PUBLIC	??0?$vector@W4VERTPROCESS_T@Ogre@@V?$allocator@W4VERTPROCESS_T@Ogre@@@std@@@std@@QAE@XZ ; std::vector<enum Ogre::VERTPROCESS_T,std::allocator<enum Ogre::VERTPROCESS_T> >::vector<enum Ogre::VERTPROCESS_T,std::allocator<enum Ogre::VERTPROCESS_T> >
PUBLIC	??0?$vector@UD3DSMSCONFLICT_T@Ogre@@V?$allocator@UD3DSMSCONFLICT_T@Ogre@@@std@@@std@@QAE@XZ ; std::vector<Ogre::D3DSMSCONFLICT_T,std::allocator<Ogre::D3DSMSCONFLICT_T> >::vector<Ogre::D3DSMSCONFLICT_T,std::allocator<Ogre::D3DSMSCONFLICT_T> >
PUBLIC	??0?$vector@IV?$allocator@I@std@@@std@@QAE@XZ	; std::vector<unsigned int,std::allocator<unsigned int> >::vector<unsigned int,std::allocator<unsigned int> >
PUBLIC	??0?$vector@W4_D3DMULTISAMPLE_TYPE@@V?$allocator@W4_D3DMULTISAMPLE_TYPE@@@std@@@std@@QAE@XZ ; std::vector<enum _D3DMULTISAMPLE_TYPE,std::allocator<enum _D3DMULTISAMPLE_TYPE> >::vector<enum _D3DMULTISAMPLE_TYPE,std::allocator<enum _D3DMULTISAMPLE_TYPE> >
;	COMDAT xdata$x
xdata$x	SEGMENT
__ehfuncinfo$??0D3DDEVCOMBO_T@Ogre@@QAE@XZ DD 019930522H
	DD	06H
	DD	FLAT:__unwindtable$??0D3DDEVCOMBO_T@Ogre@@QAE@XZ
	DD	2 DUP(00H)
	DD	2 DUP(00H)
	DD	00H
	DD	00H
__unwindtable$??0D3DDEVCOMBO_T@Ogre@@QAE@XZ DD 0ffffffffH
	DD	FLAT:__unwindfunclet$??0D3DDEVCOMBO_T@Ogre@@QAE@XZ$0
	DD	00H
	DD	FLAT:__unwindfunclet$??0D3DDEVCOMBO_T@Ogre@@QAE@XZ$1
	DD	01H
	DD	FLAT:__unwindfunclet$??0D3DDEVCOMBO_T@Ogre@@QAE@XZ$2
	DD	02H
	DD	FLAT:__unwindfunclet$??0D3DDEVCOMBO_T@Ogre@@QAE@XZ$3
	DD	03H
	DD	FLAT:__unwindfunclet$??0D3DDEVCOMBO_T@Ogre@@QAE@XZ$4
	DD	04H
	DD	FLAT:__unwindfunclet$??0D3DDEVCOMBO_T@Ogre@@QAE@XZ$5
; Function compile flags: /Odtp
xdata$x	ENDS
;	COMDAT ??0D3DDEVCOMBO_T@Ogre@@QAE@XZ
_TEXT	SEGMENT
_this$ = -16						; size = 4
__$EHRec$ = -12						; size = 12
??0D3DDEVCOMBO_T@Ogre@@QAE@XZ PROC			; Ogre::D3DDEVCOMBO_T::D3DDEVCOMBO_T, COMDAT
; _this$ = ecx
	push	ebp
	mov	ebp, esp
	push	-1
	push	__ehhandler$??0D3DDEVCOMBO_T@Ogre@@QAE@XZ
	mov	eax, DWORD PTR fs:0
	push	eax
	push	ecx
	mov	eax, DWORD PTR ___security_cookie
	xor	eax, ebp
	push	eax
	lea	eax, DWORD PTR __$EHRec$[ebp]
	mov	DWORD PTR fs:0, eax
	mov	DWORD PTR _this$[ebp], ecx
	mov	ecx, DWORD PTR _this$[ebp]
	add	ecx, 20					; 00000014H
	call	??0?$vector@W4_D3DFORMAT@@V?$allocator@W4_D3DFORMAT@@@std@@@std@@QAE@XZ ; std::vector<enum _D3DFORMAT,std::allocator<enum _D3DFORMAT> >::vector<enum _D3DFORMAT,std::allocator<enum _D3DFORMAT> >
	mov	DWORD PTR __$EHRec$[ebp+8], 0
	mov	ecx, DWORD PTR _this$[ebp]
	add	ecx, 44					; 0000002cH
	call	??0?$vector@W4_D3DMULTISAMPLE_TYPE@@V?$allocator@W4_D3DMULTISAMPLE_TYPE@@@std@@@std@@QAE@XZ ; std::vector<enum _D3DMULTISAMPLE_TYPE,std::allocator<enum _D3DMULTISAMPLE_TYPE> >::vector<enum _D3DMULTISAMPLE_TYPE,std::allocator<enum _D3DMULTISAMPLE_TYPE> >
	mov	BYTE PTR __$EHRec$[ebp+8], 1
	mov	ecx, DWORD PTR _this$[ebp]
	add	ecx, 68					; 00000044H
	call	??0?$vector@IV?$allocator@I@std@@@std@@QAE@XZ ; std::vector<unsigned int,std::allocator<unsigned int> >::vector<unsigned int,std::allocator<unsigned int> >
	mov	BYTE PTR __$EHRec$[ebp+8], 2
	mov	ecx, DWORD PTR _this$[ebp]
	add	ecx, 92					; 0000005cH
	call	??0?$vector@UD3DSMSCONFLICT_T@Ogre@@V?$allocator@UD3DSMSCONFLICT_T@Ogre@@@std@@@std@@QAE@XZ ; std::vector<Ogre::D3DSMSCONFLICT_T,std::allocator<Ogre::D3DSMSCONFLICT_T> >::vector<Ogre::D3DSMSCONFLICT_T,std::allocator<Ogre::D3DSMSCONFLICT_T> >
	mov	BYTE PTR __$EHRec$[ebp+8], 3
	mov	ecx, DWORD PTR _this$[ebp]
	add	ecx, 116				; 00000074H
	call	??0?$vector@W4VERTPROCESS_T@Ogre@@V?$allocator@W4VERTPROCESS_T@Ogre@@@std@@@std@@QAE@XZ ; std::vector<enum Ogre::VERTPROCESS_T,std::allocator<enum Ogre::VERTPROCESS_T> >::vector<enum Ogre::VERTPROCESS_T,std::allocator<enum Ogre::VERTPROCESS_T> >
	mov	BYTE PTR __$EHRec$[ebp+8], 4
	mov	ecx, DWORD PTR _this$[ebp]
	add	ecx, 140				; 0000008cH
	call	??0?$vector@IV?$allocator@I@std@@@std@@QAE@XZ ; std::vector<unsigned int,std::allocator<unsigned int> >::vector<unsigned int,std::allocator<unsigned int> >
	mov	BYTE PTR __$EHRec$[ebp+8], 5
	mov	DWORD PTR __$EHRec$[ebp+8], -1
	mov	eax, DWORD PTR _this$[ebp]
	mov	ecx, DWORD PTR __$EHRec$[ebp]
	mov	DWORD PTR fs:0, ecx
	pop	ecx
	mov	esp, ebp
	pop	ebp
	ret	0
_TEXT	ENDS
;	COMDAT text$x
text$x	SEGMENT
__unwindfunclet$??0D3DDEVCOMBO_T@Ogre@@QAE@XZ$0:
	mov	ecx, DWORD PTR _this$[ebp]
	add	ecx, 20					; 00000014H
	jmp	??1?$vector@W4_D3DFORMAT@@V?$allocator@W4_D3DFORMAT@@@std@@@std@@QAE@XZ ; std::vector<enum _D3DFORMAT,std::allocator<enum _D3DFORMAT> >::~vector<enum _D3DFORMAT,std::allocator<enum _D3DFORMAT> >
__unwindfunclet$??0D3DDEVCOMBO_T@Ogre@@QAE@XZ$1:
	mov	ecx, DWORD PTR _this$[ebp]
	add	ecx, 44					; 0000002cH
	jmp	??1?$vector@W4_D3DMULTISAMPLE_TYPE@@V?$allocator@W4_D3DMULTISAMPLE_TYPE@@@std@@@std@@QAE@XZ ; std::vector<enum _D3DMULTISAMPLE_TYPE,std::allocator<enum _D3DMULTISAMPLE_TYPE> >::~vector<enum _D3DMULTISAMPLE_TYPE,std::allocator<enum _D3DMULTISAMPLE_TYPE> >
__unwindfunclet$??0D3DDEVCOMBO_T@Ogre@@QAE@XZ$2:
	mov	ecx, DWORD PTR _this$[ebp]
	add	ecx, 68					; 00000044H
	jmp	??1?$vector@IV?$allocator@I@std@@@std@@QAE@XZ ; std::vector<unsigned int,std::allocator<unsigned int> >::~vector<unsigned int,std::allocator<unsigned int> >
__unwindfunclet$??0D3DDEVCOMBO_T@Ogre@@QAE@XZ$3:
	mov	ecx, DWORD PTR _this$[ebp]
	add	ecx, 92					; 0000005cH
	jmp	??1?$vector@UD3DSMSCONFLICT_T@Ogre@@V?$allocator@UD3DSMSCONFLICT_T@Ogre@@@std@@@std@@QAE@XZ ; std::vector<Ogre::D3DSMSCONFLICT_T,std::allocator<Ogre::D3DSMSCONFLICT_T> >::~vector<Ogre::D3DSMSCONFLICT_T,std::allocator<Ogre::D3DSMSCONFLICT_T> >
__unwindfunclet$??0D3DDEVCOMBO_T@Ogre@@QAE@XZ$4:
	mov	ecx, DWORD PTR _this$[ebp]
	add	ecx, 116				; 00000074H
	jmp	??1?$vector@W4VERTPROCESS_T@Ogre@@V?$allocator@W4VERTPROCESS_T@Ogre@@@std@@@std@@QAE@XZ ; std::vector<enum Ogre::VERTPROCESS_T,std::allocator<enum Ogre::VERTPROCESS_T> >::~vector<enum Ogre::VERTPROCESS_T,std::allocator<enum Ogre::VERTPROCESS_T> >
__unwindfunclet$??0D3DDEVCOMBO_T@Ogre@@QAE@XZ$5:
	mov	ecx, DWORD PTR _this$[ebp]
	add	ecx, 140				; 0000008cH
	jmp	??1?$vector@IV?$allocator@I@std@@@std@@QAE@XZ ; std::vector<unsigned int,std::allocator<unsigned int> >::~vector<unsigned int,std::allocator<unsigned int> >
__ehhandler$??0D3DDEVCOMBO_T@Ogre@@QAE@XZ:
	mov	edx, DWORD PTR [esp+8]
	lea	eax, DWORD PTR [edx+12]
	mov	ecx, DWORD PTR [edx-8]
	xor	ecx, eax
	call	@__security_check_cookie@4
	mov	eax, OFFSET __ehfuncinfo$??0D3DDEVCOMBO_T@Ogre@@QAE@XZ
	jmp	___CxxFrameHandler3
text$x	ENDS
??0D3DDEVCOMBO_T@Ogre@@QAE@XZ ENDP			; Ogre::D3DDEVCOMBO_T::D3DDEVCOMBO_T
; Function compile flags: /Odtp
; File i:\svnroot\client\plugins\rendersystem_d3d9\ogred3d9driverenum.cpp
_TEXT	SEGMENT
_this$ = -36						; size = 4
_dsf$128945 = -32					; size = 4
_idsf$128941 = -28					; size = 4
_dsfarray$ = -24					; size = 24
_pcombo$ = 8						; size = 4
?BuildDepthStencilFormatList@D3DEnumeration@Ogre@@AAEXPAUD3DDEVCOMBO_T@2@@Z PROC ; Ogre::D3DEnumeration::BuildDepthStencilFormatList
; _this$ = ecx

; 330  : 	{

	push	ebp
	mov	ebp, esp
	sub	esp, 36					; 00000024H
	mov	DWORD PTR _this$[ebp], ecx

; 331  : 		const D3DFORMAT dsfarray[] = 
; 332  : 		{
; 333  : 			D3DFMT_D16,

	mov	DWORD PTR _dsfarray$[ebp], 80		; 00000050H

; 334  : 				D3DFMT_D15S1,

	mov	DWORD PTR _dsfarray$[ebp+4], 73		; 00000049H

; 335  : 				D3DFMT_D24X8,

	mov	DWORD PTR _dsfarray$[ebp+8], 77		; 0000004dH

; 336  : 				D3DFMT_D24S8,

	mov	DWORD PTR _dsfarray$[ebp+12], 75	; 0000004bH

; 337  : 				D3DFMT_D24X4S4,

	mov	DWORD PTR _dsfarray$[ebp+16], 79	; 0000004fH

; 338  : 				D3DFMT_D32,

	mov	DWORD PTR _dsfarray$[ebp+20], 71	; 00000047H

; 339  : 		};
; 340  : 
; 341  : 		for( UINT idsf=0; idsf<ARRAY_ELEMENTS(dsfarray); idsf++ )

	mov	DWORD PTR _idsf$128941[ebp], 0
	jmp	SHORT $LN7@BuildDepth
$LN6@BuildDepth:
	mov	eax, DWORD PTR _idsf$128941[ebp]
	add	eax, 1
	mov	DWORD PTR _idsf$128941[ebp], eax
$LN7@BuildDepth:
	cmp	DWORD PTR _idsf$128941[ebp], 6
	jae	$LN8@BuildDepth

; 342  : 		{
; 343  : 			D3DFORMAT dsf = dsfarray[idsf];

	mov	ecx, DWORD PTR _idsf$128941[ebp]
	mov	edx, DWORD PTR _dsfarray$[ebp+ecx*4]
	mov	DWORD PTR _dsf$128945[ebp], edx

; 344  : 			if( DepthBits(dsf) < this->m_MinDepthBits ) continue;

	mov	eax, DWORD PTR _dsf$128945[ebp]
	push	eax
	call	?DepthBits@Ogre@@YAIW4_D3DFORMAT@@@Z	; Ogre::DepthBits
	add	esp, 4
	mov	ecx, DWORD PTR _this$[ebp]
	cmp	eax, DWORD PTR [ecx+68]
	jae	SHORT $LN4@BuildDepth
	jmp	SHORT $LN6@BuildDepth
$LN4@BuildDepth:

; 345  : 			if( StencilBits(dsf) < this->m_MinStencilBits ) continue;

	mov	edx, DWORD PTR _dsf$128945[ebp]
	push	edx
	call	?StencilBits@Ogre@@YAIW4_D3DFORMAT@@@Z	; Ogre::StencilBits
	add	esp, 4
	mov	ecx, DWORD PTR _this$[ebp]
	cmp	eax, DWORD PTR [ecx+72]
	jae	SHORT $LN3@BuildDepth
	jmp	SHORT $LN6@BuildDepth
$LN3@BuildDepth:

; 346  : 
; 347  : 			if( SUCCEEDED(m_pD3D->CheckDeviceFormat(pcombo->iadapter, pcombo->devtype, pcombo->adapterfmt, 
; 348  : 				D3DUSAGE_DEPTHSTENCIL, D3DRTYPE_SURFACE, dsf)) )

	mov	edx, DWORD PTR _dsf$128945[ebp]
	push	edx
	push	1
	push	2
	mov	eax, DWORD PTR _pcombo$[ebp]
	mov	ecx, DWORD PTR [eax+8]
	push	ecx
	mov	edx, DWORD PTR _pcombo$[ebp]
	mov	eax, DWORD PTR [edx+4]
	push	eax
	mov	ecx, DWORD PTR _pcombo$[ebp]
	mov	edx, DWORD PTR [ecx]
	push	edx
	mov	eax, DWORD PTR _this$[ebp]
	mov	ecx, DWORD PTR [eax+92]
	mov	edx, DWORD PTR _this$[ebp]
	mov	eax, DWORD PTR [edx+92]
	mov	ecx, DWORD PTR [ecx]
	push	eax
	mov	edx, DWORD PTR [ecx+40]
	call	edx
	test	eax, eax
	jl	SHORT $LN2@BuildDepth

; 349  : 			{
; 350  : 				if( SUCCEEDED(m_pD3D->CheckDepthStencilMatch(pcombo->iadapter, pcombo->devtype, pcombo->adapterfmt, 
; 351  : 					pcombo->backbuffmt, dsf)) )

	mov	eax, DWORD PTR _dsf$128945[ebp]
	push	eax
	mov	ecx, DWORD PTR _pcombo$[ebp]
	mov	edx, DWORD PTR [ecx+12]
	push	edx
	mov	eax, DWORD PTR _pcombo$[ebp]
	mov	ecx, DWORD PTR [eax+8]
	push	ecx
	mov	edx, DWORD PTR _pcombo$[ebp]
	mov	eax, DWORD PTR [edx+4]
	push	eax
	mov	ecx, DWORD PTR _pcombo$[ebp]
	mov	edx, DWORD PTR [ecx]
	push	edx
	mov	eax, DWORD PTR _this$[ebp]
	mov	ecx, DWORD PTR [eax+92]
	mov	edx, DWORD PTR _this$[ebp]
	mov	eax, DWORD PTR [edx+92]
	mov	ecx, DWORD PTR [ecx]
	push	eax
	mov	edx, DWORD PTR [ecx+48]
	call	edx
	test	eax, eax
	jl	SHORT $LN2@BuildDepth

; 352  : 				{
; 353  : 					pcombo->dsfmts.push_back( dsf );

	lea	eax, DWORD PTR _dsf$128945[ebp]
	push	eax
	mov	ecx, DWORD PTR _pcombo$[ebp]
	add	ecx, 20					; 00000014H
	call	?push_back@?$vector@W4_D3DFORMAT@@V?$allocator@W4_D3DFORMAT@@@std@@@std@@QAEXABW4_D3DFORMAT@@@Z ; std::vector<enum _D3DFORMAT,std::allocator<enum _D3DFORMAT> >::push_back
$LN2@BuildDepth:

; 354  : 				}
; 355  : 			}

	jmp	$LN6@BuildDepth
$LN8@BuildDepth:

; 356  : 		}
; 357  : 	}

	mov	esp, ebp
	pop	ebp
	ret	4
?BuildDepthStencilFormatList@D3DEnumeration@Ogre@@AAEXPAUD3DDEVCOMBO_T@2@@Z ENDP ; Ogre::D3DEnumeration::BuildDepthStencilFormatList
; Function compile flags: /Odtp
tv64 = -4						; size = 4
_fmt$ = 8						; size = 4
?DepthBits@Ogre@@YAIW4_D3DFORMAT@@@Z PROC		; Ogre::DepthBits

; 77   : 	{

	push	ebp
	mov	ebp, esp
	push	ecx

; 78   : 		switch( fmt )

	mov	eax, DWORD PTR _fmt$[ebp]
	mov	DWORD PTR tv64[ebp], eax
	mov	ecx, DWORD PTR tv64[ebp]
	sub	ecx, 71					; 00000047H
	mov	DWORD PTR tv64[ebp], ecx
	cmp	DWORD PTR tv64[ebp], 9
	ja	SHORT $LN1@DepthBits
	mov	edx, DWORD PTR tv64[ebp]
	jmp	DWORD PTR $LN12@DepthBits[edx*4]
$LN7@DepthBits:

; 79   : 		{
; 80   : 		case D3DFMT_D16:
; 81   : 			return 16;

	mov	eax, 16					; 00000010H
	jmp	SHORT $LN10@DepthBits
$LN6@DepthBits:

; 82   : 		case D3DFMT_D15S1:
; 83   : 			return 15;

	mov	eax, 15					; 0000000fH
	jmp	SHORT $LN10@DepthBits
$LN5@DepthBits:

; 84   : 		case D3DFMT_D24X8:
; 85   : 			return 24;

	mov	eax, 24					; 00000018H
	jmp	SHORT $LN10@DepthBits
$LN4@DepthBits:

; 86   : 		case D3DFMT_D24S8:
; 87   : 			return 24;

	mov	eax, 24					; 00000018H
	jmp	SHORT $LN10@DepthBits
$LN3@DepthBits:

; 88   : 		case D3DFMT_D24X4S4:
; 89   : 			return 24;

	mov	eax, 24					; 00000018H
	jmp	SHORT $LN10@DepthBits
$LN2@DepthBits:

; 90   : 		case D3DFMT_D32:
; 91   : 			return 32;

	mov	eax, 32					; 00000020H
	jmp	SHORT $LN10@DepthBits
$LN1@DepthBits:

; 92   : 		default:
; 93   : 			return 0;

	xor	eax, eax
$LN10@DepthBits:

; 94   : 		}
; 95   : 	}

	mov	esp, ebp
	pop	ebp
	ret	0
	npad	1
$LN12@DepthBits:
	DD	$LN2@DepthBits
	DD	$LN1@DepthBits
	DD	$LN6@DepthBits
	DD	$LN1@DepthBits
	DD	$LN4@DepthBits
	DD	$LN1@DepthBits
	DD	$LN5@DepthBits
	DD	$LN1@DepthBits
	DD	$LN3@DepthBits
	DD	$LN7@DepthBits
?DepthBits@Ogre@@YAIW4_D3DFORMAT@@@Z ENDP		; Ogre::DepthBits
; Function compile flags: /Odtp
tv64 = -4						; size = 4
_fmt$ = 8						; size = 4
?StencilBits@Ogre@@YAIW4_D3DFORMAT@@@Z PROC		; Ogre::StencilBits

; 105  : 	{

	push	ebp
	mov	ebp, esp
	push	ecx

; 106  : 		switch( fmt )

	mov	eax, DWORD PTR _fmt$[ebp]
	mov	DWORD PTR tv64[ebp], eax
	mov	ecx, DWORD PTR tv64[ebp]
	sub	ecx, 71					; 00000047H
	mov	DWORD PTR tv64[ebp], ecx
	cmp	DWORD PTR tv64[ebp], 9
	ja	SHORT $LN1@StencilBit
	mov	edx, DWORD PTR tv64[ebp]
	jmp	DWORD PTR $LN12@StencilBit[edx*4]
$LN7@StencilBit:

; 107  : 		{
; 108  : 		case D3DFMT_D16:
; 109  : 			return 0;

	xor	eax, eax
	jmp	SHORT $LN10@StencilBit
$LN6@StencilBit:

; 110  : 		case D3DFMT_D15S1:
; 111  : 			return 1;

	mov	eax, 1
	jmp	SHORT $LN10@StencilBit
$LN5@StencilBit:

; 112  : 		case D3DFMT_D24X8:
; 113  : 			return 0;

	xor	eax, eax
	jmp	SHORT $LN10@StencilBit
$LN4@StencilBit:

; 114  : 		case D3DFMT_D24S8:
; 115  : 			return 8;

	mov	eax, 8
	jmp	SHORT $LN10@StencilBit
$LN3@StencilBit:

; 116  : 		case D3DFMT_D24X4S4:
; 117  : 			return 4;

	mov	eax, 4
	jmp	SHORT $LN10@StencilBit
$LN2@StencilBit:

; 118  : 		case D3DFMT_D32:
; 119  : 			return 0;

	xor	eax, eax
	jmp	SHORT $LN10@StencilBit
$LN1@StencilBit:

; 120  : 		default:
; 121  : 			return 0;

	xor	eax, eax
$LN10@StencilBit:

; 122  : 		}
; 123  : 	}

	mov	esp, ebp
	pop	ebp
	ret	0
	npad	2
$LN12@StencilBit:
	DD	$LN2@StencilBit
	DD	$LN1@StencilBit
	DD	$LN6@StencilBit
	DD	$LN1@StencilBit
	DD	$LN4@StencilBit
	DD	$LN1@StencilBit
	DD	$LN5@StencilBit
	DD	$LN1@StencilBit
	DD	$LN3@StencilBit
	DD	$LN7@StencilBit
?StencilBits@Ogre@@YAIW4_D3DFORMAT@@@Z ENDP		; Ogre::StencilBits
_TEXT	ENDS
PUBLIC	?push_back@?$vector@IV?$allocator@I@std@@@std@@QAEXABI@Z ; std::vector<unsigned int,std::allocator<unsigned int> >::push_back
PUBLIC	?push_back@?$vector@W4_D3DMULTISAMPLE_TYPE@@V?$allocator@W4_D3DMULTISAMPLE_TYPE@@@std@@@std@@QAEXABW4_D3DMULTISAMPLE_TYPE@@@Z ; std::vector<enum _D3DMULTISAMPLE_TYPE,std::allocator<enum _D3DMULTISAMPLE_TYPE> >::push_back
; Function compile flags: /Odtp
_TEXT	SEGMENT
_this$ = -92						; size = 4
$T141561 = -88						; size = 4
_imst$128959 = -84					; size = 4
_msType$ = -80						; size = 4
_msQuality$ = -76					; size = 4
_msTypeArray$ = -72					; size = 68
_pcombo$ = 8						; size = 4
?BuildMultiSampleTypeList@D3DEnumeration@Ogre@@AAEXPAUD3DDEVCOMBO_T@2@@Z PROC ; Ogre::D3DEnumeration::BuildMultiSampleTypeList
; _this$ = ecx

; 360  : 	{

	push	ebp
	mov	ebp, esp
	sub	esp, 92					; 0000005cH
	mov	DWORD PTR _this$[ebp], ecx

; 361  : 		const D3DMULTISAMPLE_TYPE msTypeArray[] = { 
; 362  : 			D3DMULTISAMPLE_NONE,

	mov	DWORD PTR _msTypeArray$[ebp], 0

; 363  : 				D3DMULTISAMPLE_NONMASKABLE,

	mov	DWORD PTR _msTypeArray$[ebp+4], 1

; 364  : 				D3DMULTISAMPLE_2_SAMPLES,

	mov	DWORD PTR _msTypeArray$[ebp+8], 2

; 365  : 				D3DMULTISAMPLE_3_SAMPLES,

	mov	DWORD PTR _msTypeArray$[ebp+12], 3

; 366  : 				D3DMULTISAMPLE_4_SAMPLES,

	mov	DWORD PTR _msTypeArray$[ebp+16], 4

; 367  : 				D3DMULTISAMPLE_5_SAMPLES,

	mov	DWORD PTR _msTypeArray$[ebp+20], 5

; 368  : 				D3DMULTISAMPLE_6_SAMPLES,

	mov	DWORD PTR _msTypeArray$[ebp+24], 6

; 369  : 				D3DMULTISAMPLE_7_SAMPLES,

	mov	DWORD PTR _msTypeArray$[ebp+28], 7

; 370  : 				D3DMULTISAMPLE_8_SAMPLES,

	mov	DWORD PTR _msTypeArray$[ebp+32], 8

; 371  : 				D3DMULTISAMPLE_9_SAMPLES,

	mov	DWORD PTR _msTypeArray$[ebp+36], 9

; 372  : 				D3DMULTISAMPLE_10_SAMPLES,

	mov	DWORD PTR _msTypeArray$[ebp+40], 10	; 0000000aH

; 373  : 				D3DMULTISAMPLE_11_SAMPLES,

	mov	DWORD PTR _msTypeArray$[ebp+44], 11	; 0000000bH

; 374  : 				D3DMULTISAMPLE_12_SAMPLES,

	mov	DWORD PTR _msTypeArray$[ebp+48], 12	; 0000000cH

; 375  : 				D3DMULTISAMPLE_13_SAMPLES,

	mov	DWORD PTR _msTypeArray$[ebp+52], 13	; 0000000dH

; 376  : 				D3DMULTISAMPLE_14_SAMPLES,

	mov	DWORD PTR _msTypeArray$[ebp+56], 14	; 0000000eH

; 377  : 				D3DMULTISAMPLE_15_SAMPLES,

	mov	DWORD PTR _msTypeArray$[ebp+60], 15	; 0000000fH

; 378  : 				D3DMULTISAMPLE_16_SAMPLES,

	mov	DWORD PTR _msTypeArray$[ebp+64], 16	; 00000010H

; 379  : 		};
; 380  : 
; 381  : 		D3DMULTISAMPLE_TYPE msType;
; 382  : 		DWORD msQuality;
; 383  : 		for( UINT imst = 0; imst < ARRAY_ELEMENTS(msTypeArray); imst++ )

	mov	DWORD PTR _imst$128959[ebp], 0
	jmp	SHORT $LN4@BuildMulti
$LN3@BuildMulti:
	mov	eax, DWORD PTR _imst$128959[ebp]
	add	eax, 1
	mov	DWORD PTR _imst$128959[ebp], eax
$LN4@BuildMulti:
	cmp	DWORD PTR _imst$128959[ebp], 17		; 00000011H
	jae	SHORT $LN5@BuildMulti

; 384  : 		{
; 385  : 			msType = msTypeArray[imst];

	mov	ecx, DWORD PTR _imst$128959[ebp]
	mov	edx, DWORD PTR _msTypeArray$[ebp+ecx*4]
	mov	DWORD PTR _msType$[ebp], edx

; 386  : 			if (SUCCEEDED(m_pD3D->CheckDeviceMultiSampleType(pcombo->iadapter, pcombo->devtype, 
; 387  : 				pcombo->backbuffmt, pcombo->iswindowed, msType, &msQuality)))

	lea	eax, DWORD PTR _msQuality$[ebp]
	push	eax
	mov	ecx, DWORD PTR _msType$[ebp]
	push	ecx
	mov	edx, DWORD PTR _pcombo$[ebp]
	mov	eax, DWORD PTR [edx+16]
	push	eax
	mov	ecx, DWORD PTR _pcombo$[ebp]
	mov	edx, DWORD PTR [ecx+12]
	push	edx
	mov	eax, DWORD PTR _pcombo$[ebp]
	mov	ecx, DWORD PTR [eax+4]
	push	ecx
	mov	edx, DWORD PTR _pcombo$[ebp]
	mov	eax, DWORD PTR [edx]
	push	eax
	mov	ecx, DWORD PTR _this$[ebp]
	mov	edx, DWORD PTR [ecx+92]
	mov	eax, DWORD PTR _this$[ebp]
	mov	ecx, DWORD PTR [eax+92]
	mov	edx, DWORD PTR [edx]
	push	ecx
	mov	eax, DWORD PTR [edx+44]
	call	eax
	test	eax, eax
	jl	SHORT $LN1@BuildMulti

; 388  : 			{
; 389  : 				pcombo->mstypes.push_back( msType );

	lea	ecx, DWORD PTR _msType$[ebp]
	push	ecx
	mov	ecx, DWORD PTR _pcombo$[ebp]
	add	ecx, 44					; 0000002cH
	call	?push_back@?$vector@W4_D3DMULTISAMPLE_TYPE@@V?$allocator@W4_D3DMULTISAMPLE_TYPE@@@std@@@std@@QAEXABW4_D3DMULTISAMPLE_TYPE@@@Z ; std::vector<enum _D3DMULTISAMPLE_TYPE,std::allocator<enum _D3DMULTISAMPLE_TYPE> >::push_back

; 390  : 				pcombo->msqualitys.push_back( msQuality );

	mov	edx, DWORD PTR _msQuality$[ebp]
	mov	DWORD PTR $T141561[ebp], edx
	lea	eax, DWORD PTR $T141561[ebp]
	push	eax
	mov	ecx, DWORD PTR _pcombo$[ebp]
	add	ecx, 68					; 00000044H
	call	?push_back@?$vector@IV?$allocator@I@std@@@std@@QAEXABI@Z ; std::vector<unsigned int,std::allocator<unsigned int> >::push_back
$LN1@BuildMulti:

; 391  : 			}

	jmp	SHORT $LN3@BuildMulti
$LN5@BuildMulti:

; 392  : 		}
; 393  : 	}

	mov	esp, ebp
	pop	ebp
	ret	4
?BuildMultiSampleTypeList@D3DEnumeration@Ogre@@AAEXPAUD3DDEVCOMBO_T@2@@Z ENDP ; Ogre::D3DEnumeration::BuildMultiSampleTypeList
_TEXT	ENDS
PUBLIC	?push_back@?$vector@UD3DSMSCONFLICT_T@Ogre@@V?$allocator@UD3DSMSCONFLICT_T@Ogre@@@std@@@std@@QAEXABUD3DSMSCONFLICT_T@Ogre@@@Z ; std::vector<Ogre::D3DSMSCONFLICT_T,std::allocator<Ogre::D3DSMSCONFLICT_T> >::push_back
PUBLIC	??A?$vector@W4_D3DMULTISAMPLE_TYPE@@V?$allocator@W4_D3DMULTISAMPLE_TYPE@@@std@@@std@@QAEAAW4_D3DMULTISAMPLE_TYPE@@I@Z ; std::vector<enum _D3DMULTISAMPLE_TYPE,std::allocator<enum _D3DMULTISAMPLE_TYPE> >::operator[]
PUBLIC	?size@?$vector@W4_D3DMULTISAMPLE_TYPE@@V?$allocator@W4_D3DMULTISAMPLE_TYPE@@@std@@@std@@QBEIXZ ; std::vector<enum _D3DMULTISAMPLE_TYPE,std::allocator<enum _D3DMULTISAMPLE_TYPE> >::size
; Function compile flags: /Odtp
_TEXT	SEGMENT
_this$ = -28						; size = 4
_msType$128980 = -24					; size = 4
_ims$128976 = -20					; size = 4
_dsFmt$128975 = -16					; size = 4
_ids$128971 = -12					; size = 4
_conflict$ = -8						; size = 8
_pcombo$ = 8						; size = 4
?BuildDSMSConflictList@D3DEnumeration@Ogre@@AAEXPAUD3DDEVCOMBO_T@2@@Z PROC ; Ogre::D3DEnumeration::BuildDSMSConflictList
; _this$ = ecx

; 397  : 	{

	push	ebp
	mov	ebp, esp
	sub	esp, 28					; 0000001cH
	mov	DWORD PTR _this$[ebp], ecx

; 398  : 		D3DSMSCONFLICT_T conflict;
; 399  : 
; 400  : 		for( SIZE_T ids = 0; ids < pcombo->dsfmts.size(); ids++ )

	mov	DWORD PTR _ids$128971[ebp], 0
	jmp	SHORT $LN7@BuildDSMSC
$LN6@BuildDSMSC:
	mov	eax, DWORD PTR _ids$128971[ebp]
	add	eax, 1
	mov	DWORD PTR _ids$128971[ebp], eax
$LN7@BuildDSMSC:
	mov	ecx, DWORD PTR _pcombo$[ebp]
	add	ecx, 20					; 00000014H
	call	?size@?$vector@W4_D3DFORMAT@@V?$allocator@W4_D3DFORMAT@@@std@@@std@@QBEIXZ ; std::vector<enum _D3DFORMAT,std::allocator<enum _D3DFORMAT> >::size
	cmp	DWORD PTR _ids$128971[ebp], eax
	jae	$LN8@BuildDSMSC

; 401  : 		{
; 402  : 			D3DFORMAT dsFmt = pcombo->dsfmts[ids];

	mov	ecx, DWORD PTR _ids$128971[ebp]
	push	ecx
	mov	ecx, DWORD PTR _pcombo$[ebp]
	add	ecx, 20					; 00000014H
	call	??A?$vector@W4_D3DFORMAT@@V?$allocator@W4_D3DFORMAT@@@std@@@std@@QAEAAW4_D3DFORMAT@@I@Z ; std::vector<enum _D3DFORMAT,std::allocator<enum _D3DFORMAT> >::operator[]
	mov	edx, DWORD PTR [eax]
	mov	DWORD PTR _dsFmt$128975[ebp], edx

; 403  : 			for( SIZE_T ims = 0; ims < pcombo->mstypes.size(); ims++ )

	mov	DWORD PTR _ims$128976[ebp], 0
	jmp	SHORT $LN4@BuildDSMSC
$LN3@BuildDSMSC:
	mov	eax, DWORD PTR _ims$128976[ebp]
	add	eax, 1
	mov	DWORD PTR _ims$128976[ebp], eax
$LN4@BuildDSMSC:
	mov	ecx, DWORD PTR _pcombo$[ebp]
	add	ecx, 44					; 0000002cH
	call	?size@?$vector@W4_D3DMULTISAMPLE_TYPE@@V?$allocator@W4_D3DMULTISAMPLE_TYPE@@@std@@@std@@QBEIXZ ; std::vector<enum _D3DMULTISAMPLE_TYPE,std::allocator<enum _D3DMULTISAMPLE_TYPE> >::size
	cmp	DWORD PTR _ims$128976[ebp], eax
	jae	SHORT $LN2@BuildDSMSC

; 404  : 			{
; 405  : 				D3DMULTISAMPLE_TYPE msType = pcombo->mstypes[ims];

	mov	ecx, DWORD PTR _ims$128976[ebp]
	push	ecx
	mov	ecx, DWORD PTR _pcombo$[ebp]
	add	ecx, 44					; 0000002cH
	call	??A?$vector@W4_D3DMULTISAMPLE_TYPE@@V?$allocator@W4_D3DMULTISAMPLE_TYPE@@@std@@@std@@QAEAAW4_D3DMULTISAMPLE_TYPE@@I@Z ; std::vector<enum _D3DMULTISAMPLE_TYPE,std::allocator<enum _D3DMULTISAMPLE_TYPE> >::operator[]
	mov	edx, DWORD PTR [eax]
	mov	DWORD PTR _msType$128980[ebp], edx

; 406  : 				if( FAILED( m_pD3D->CheckDeviceMultiSampleType( pcombo->iadapter, pcombo->devtype,
; 407  : 					dsFmt, pcombo->iswindowed, msType, NULL ) ) )

	push	0
	mov	eax, DWORD PTR _msType$128980[ebp]
	push	eax
	mov	ecx, DWORD PTR _pcombo$[ebp]
	mov	edx, DWORD PTR [ecx+16]
	push	edx
	mov	eax, DWORD PTR _dsFmt$128975[ebp]
	push	eax
	mov	ecx, DWORD PTR _pcombo$[ebp]
	mov	edx, DWORD PTR [ecx+4]
	push	edx
	mov	eax, DWORD PTR _pcombo$[ebp]
	mov	ecx, DWORD PTR [eax]
	push	ecx
	mov	edx, DWORD PTR _this$[ebp]
	mov	eax, DWORD PTR [edx+92]
	mov	ecx, DWORD PTR _this$[ebp]
	mov	edx, DWORD PTR [ecx+92]
	mov	eax, DWORD PTR [eax]
	push	edx
	mov	ecx, DWORD PTR [eax+44]
	call	ecx
	test	eax, eax
	jge	SHORT $LN1@BuildDSMSC

; 408  : 				{
; 409  : 					conflict.dsfmt = dsFmt;

	mov	edx, DWORD PTR _dsFmt$128975[ebp]
	mov	DWORD PTR _conflict$[ebp], edx

; 410  : 					conflict.mstype = msType;

	mov	eax, DWORD PTR _msType$128980[ebp]
	mov	DWORD PTR _conflict$[ebp+4], eax

; 411  : 					pcombo->conflicts.push_back( conflict );

	lea	ecx, DWORD PTR _conflict$[ebp]
	push	ecx
	mov	ecx, DWORD PTR _pcombo$[ebp]
	add	ecx, 92					; 0000005cH
	call	?push_back@?$vector@UD3DSMSCONFLICT_T@Ogre@@V?$allocator@UD3DSMSCONFLICT_T@Ogre@@@std@@@std@@QAEXABUD3DSMSCONFLICT_T@Ogre@@@Z ; std::vector<Ogre::D3DSMSCONFLICT_T,std::allocator<Ogre::D3DSMSCONFLICT_T> >::push_back
$LN1@BuildDSMSC:

; 412  : 				}
; 413  : 			}

	jmp	SHORT $LN3@BuildDSMSC
$LN2@BuildDSMSC:

; 414  : 		}

	jmp	$LN6@BuildDSMSC
$LN8@BuildDSMSC:

; 415  : 	}

	mov	esp, ebp
	pop	ebp
	ret	4
?BuildDSMSConflictList@D3DEnumeration@Ogre@@AAEXPAUD3DDEVCOMBO_T@2@@Z ENDP ; Ogre::D3DEnumeration::BuildDSMSConflictList
_TEXT	ENDS
PUBLIC	?push_back@?$vector@W4VERTPROCESS_T@Ogre@@V?$allocator@W4VERTPROCESS_T@Ogre@@@std@@@std@@QAEXABW4VERTPROCESS_T@Ogre@@@Z ; std::vector<enum Ogre::VERTPROCESS_T,std::allocator<enum Ogre::VERTPROCESS_T> >::push_back
PUBLIC	?ConfirmDevice@D3DEnumeration@Ogre@@AAEXPAUD3DDEVICEINFO_T@2@PAUD3DDEVCOMBO_T@2@W4VERTPROCESS_T@2@@Z ; Ogre::D3DEnumeration::ConfirmDevice
; Function compile flags: /Odtp
_TEXT	SEGMENT
_this$ = -4						; size = 4
_pdevice$ = 8						; size = 4
_pcombo$ = 12						; size = 4
_vpt$ = 16						; size = 4
?ConfirmDevice@D3DEnumeration@Ogre@@AAEXPAUD3DDEVICEINFO_T@2@PAUD3DDEVCOMBO_T@2@W4VERTPROCESS_T@2@@Z PROC ; Ogre::D3DEnumeration::ConfirmDevice
; _this$ = ecx

; 418  : 	{

	push	ebp
	mov	ebp, esp
	push	ecx
	mov	DWORD PTR _this$[ebp], ecx

; 419  : 		if( m_ConfirmDeviceCallback && 
; 420  : 			m_ConfirmDeviceCallback(&pdevice->caps, vpt, pcombo->adapterfmt, pcombo->backbuffmt) )

	mov	eax, DWORD PTR _this$[ebp]
	cmp	DWORD PTR [eax+48], 0
	je	SHORT $LN2@ConfirmDev
	mov	ecx, DWORD PTR _pcombo$[ebp]
	mov	edx, DWORD PTR [ecx+12]
	push	edx
	mov	eax, DWORD PTR _pcombo$[ebp]
	mov	ecx, DWORD PTR [eax+8]
	push	ecx
	mov	edx, DWORD PTR _vpt$[ebp]
	push	edx
	mov	eax, DWORD PTR _pdevice$[ebp]
	add	eax, 8
	push	eax
	mov	ecx, DWORD PTR _this$[ebp]
	mov	edx, DWORD PTR [ecx+48]
	call	edx
	add	esp, 16					; 00000010H
	test	eax, eax
	je	SHORT $LN2@ConfirmDev

; 421  : 		{
; 422  : 			pcombo->vptypes.push_back( vpt );

	lea	eax, DWORD PTR _vpt$[ebp]
	push	eax
	mov	ecx, DWORD PTR _pcombo$[ebp]
	add	ecx, 116				; 00000074H
	call	?push_back@?$vector@W4VERTPROCESS_T@Ogre@@V?$allocator@W4VERTPROCESS_T@Ogre@@@std@@@std@@QAEXABW4VERTPROCESS_T@Ogre@@@Z ; std::vector<enum Ogre::VERTPROCESS_T,std::allocator<enum Ogre::VERTPROCESS_T> >::push_back
$LN2@ConfirmDev:

; 423  : 		}
; 424  : 	}

	mov	esp, ebp
	pop	ebp
	ret	12					; 0000000cH
?ConfirmDevice@D3DEnumeration@Ogre@@AAEXPAUD3DDEVICEINFO_T@2@PAUD3DDEVCOMBO_T@2@W4VERTPROCESS_T@2@@Z ENDP ; Ogre::D3DEnumeration::ConfirmDevice
; Function compile flags: /Odtp
_this$ = -4						; size = 4
_pdevice$ = 8						; size = 4
_pcombo$ = 12						; size = 4
?BuildVertexProcessingTypeList@D3DEnumeration@Ogre@@AAEXPAUD3DDEVICEINFO_T@2@PAUD3DDEVCOMBO_T@2@@Z PROC ; Ogre::D3DEnumeration::BuildVertexProcessingTypeList
; _this$ = ecx

; 427  : 	{

	push	ebp
	mov	ebp, esp
	push	ecx
	mov	DWORD PTR _this$[ebp], ecx

; 428  : 		if( (pdevice->caps.DevCaps & D3DDEVCAPS_HWTRANSFORMANDLIGHT) != 0 )

	mov	eax, DWORD PTR _pdevice$[ebp]
	mov	ecx, DWORD PTR [eax+36]
	and	ecx, 65536				; 00010000H
	je	SHORT $LN3@BuildVerte

; 429  : 		{
; 430  : 			if( (pdevice->caps.DevCaps&D3DDEVCAPS_PUREDEVICE) != 0 ) ConfirmDevice( pdevice, pcombo, PURE_HARDWARE_VP );

	mov	edx, DWORD PTR _pdevice$[ebp]
	mov	eax, DWORD PTR [edx+36]
	and	eax, 1048576				; 00100000H
	je	SHORT $LN2@BuildVerte
	push	3
	mov	ecx, DWORD PTR _pcombo$[ebp]
	push	ecx
	mov	edx, DWORD PTR _pdevice$[ebp]
	push	edx
	mov	ecx, DWORD PTR _this$[ebp]
	call	?ConfirmDevice@D3DEnumeration@Ogre@@AAEXPAUD3DDEVICEINFO_T@2@PAUD3DDEVCOMBO_T@2@W4VERTPROCESS_T@2@@Z ; Ogre::D3DEnumeration::ConfirmDevice
$LN2@BuildVerte:

; 431  : 			ConfirmDevice( pdevice, pcombo, HARDWARE_VP );

	push	2
	mov	eax, DWORD PTR _pcombo$[ebp]
	push	eax
	mov	ecx, DWORD PTR _pdevice$[ebp]
	push	ecx
	mov	ecx, DWORD PTR _this$[ebp]
	call	?ConfirmDevice@D3DEnumeration@Ogre@@AAEXPAUD3DDEVICEINFO_T@2@PAUD3DDEVCOMBO_T@2@W4VERTPROCESS_T@2@@Z ; Ogre::D3DEnumeration::ConfirmDevice

; 432  : 			if( m_UseMixedVP ) ConfirmDevice( pdevice, pcombo, MIXED_VP );

	mov	edx, DWORD PTR _this$[ebp]
	cmp	DWORD PTR [edx+80], 0
	je	SHORT $LN3@BuildVerte
	push	1
	mov	eax, DWORD PTR _pcombo$[ebp]
	push	eax
	mov	ecx, DWORD PTR _pdevice$[ebp]
	push	ecx
	mov	ecx, DWORD PTR _this$[ebp]
	call	?ConfirmDevice@D3DEnumeration@Ogre@@AAEXPAUD3DDEVICEINFO_T@2@PAUD3DDEVCOMBO_T@2@W4VERTPROCESS_T@2@@Z ; Ogre::D3DEnumeration::ConfirmDevice
$LN3@BuildVerte:

; 433  : 		}
; 434  : 		ConfirmDevice( pdevice, pcombo, SOFTWARE_VP );

	push	0
	mov	edx, DWORD PTR _pcombo$[ebp]
	push	edx
	mov	eax, DWORD PTR _pdevice$[ebp]
	push	eax
	mov	ecx, DWORD PTR _this$[ebp]
	call	?ConfirmDevice@D3DEnumeration@Ogre@@AAEXPAUD3DDEVICEINFO_T@2@PAUD3DDEVCOMBO_T@2@W4VERTPROCESS_T@2@@Z ; Ogre::D3DEnumeration::ConfirmDevice

; 435  : 	}

	mov	esp, ebp
	pop	ebp
	ret	8
?BuildVertexProcessingTypeList@D3DEnumeration@Ogre@@AAEXPAUD3DDEVICEINFO_T@2@PAUD3DDEVCOMBO_T@2@@Z ENDP ; Ogre::D3DEnumeration::BuildVertexProcessingTypeList
; Function compile flags: /Odtp
_this$ = -36						; size = 4
_pi$129008 = -32					; size = 4
_ipi$129004 = -28					; size = 4
_piArray$ = -24						; size = 24
_pdevice$ = 8						; size = 4
_pcombo$ = 12						; size = 4
?BuildPresentIntervalList@D3DEnumeration@Ogre@@AAEXPAUD3DDEVICEINFO_T@2@PAUD3DDEVCOMBO_T@2@@Z PROC ; Ogre::D3DEnumeration::BuildPresentIntervalList
; _this$ = ecx

; 438  : 	{

	push	ebp
	mov	ebp, esp
	sub	esp, 36					; 00000024H
	mov	DWORD PTR _this$[ebp], ecx

; 439  : 		const UINT piArray[] = { 
; 440  : 			D3DPRESENT_INTERVAL_IMMEDIATE,

	mov	DWORD PTR _piArray$[ebp], -2147483648	; 80000000H

; 441  : 				D3DPRESENT_INTERVAL_DEFAULT,

	mov	DWORD PTR _piArray$[ebp+4], 0

; 442  : 				D3DPRESENT_INTERVAL_ONE,

	mov	DWORD PTR _piArray$[ebp+8], 1

; 443  : 				D3DPRESENT_INTERVAL_TWO,

	mov	DWORD PTR _piArray$[ebp+12], 2

; 444  : 				D3DPRESENT_INTERVAL_THREE,

	mov	DWORD PTR _piArray$[ebp+16], 4

; 445  : 				D3DPRESENT_INTERVAL_FOUR,

	mov	DWORD PTR _piArray$[ebp+20], 8

; 446  : 		};
; 447  : 
; 448  : 		for( UINT ipi = 0; ipi < ARRAY_ELEMENTS(piArray); ipi++ )

	mov	DWORD PTR _ipi$129004[ebp], 0
	jmp	SHORT $LN8@BuildPrese
$LN7@BuildPrese:
	mov	eax, DWORD PTR _ipi$129004[ebp]
	add	eax, 1
	mov	DWORD PTR _ipi$129004[ebp], eax
$LN8@BuildPrese:
	cmp	DWORD PTR _ipi$129004[ebp], 6
	jae	SHORT $LN9@BuildPrese

; 449  : 		{
; 450  : 			UINT pi = piArray[ipi];

	mov	ecx, DWORD PTR _ipi$129004[ebp]
	mov	edx, DWORD PTR _piArray$[ebp+ecx*4]
	mov	DWORD PTR _pi$129008[ebp], edx

; 451  : 			if( pcombo->iswindowed )

	mov	eax, DWORD PTR _pcombo$[ebp]
	cmp	DWORD PTR [eax+16], 0
	je	SHORT $LN5@BuildPrese

; 452  : 			{
; 453  : 				if( pi == D3DPRESENT_INTERVAL_TWO ||
; 454  : 					pi == D3DPRESENT_INTERVAL_THREE ||
; 455  : 					pi == D3DPRESENT_INTERVAL_FOUR )

	cmp	DWORD PTR _pi$129008[ebp], 2
	je	SHORT $LN3@BuildPrese
	cmp	DWORD PTR _pi$129008[ebp], 4
	je	SHORT $LN3@BuildPrese
	cmp	DWORD PTR _pi$129008[ebp], 8
	jne	SHORT $LN5@BuildPrese
$LN3@BuildPrese:

; 456  : 				{
; 457  : 					// These intervals are not supported in windowed mode.
; 458  : 					continue;

	jmp	SHORT $LN7@BuildPrese
$LN5@BuildPrese:

; 459  : 				}
; 460  : 			}
; 461  : 			// Note that D3DPRESENT_INTERVAL_DEFAULT is zero, so you
; 462  : 			// can't do a caps check for it -- it is always available.
; 463  : 			if( pi == D3DPRESENT_INTERVAL_DEFAULT || (pdevice->caps.PresentationIntervals & pi) )

	cmp	DWORD PTR _pi$129008[ebp], 0
	je	SHORT $LN1@BuildPrese
	mov	ecx, DWORD PTR _pdevice$[ebp]
	mov	edx, DWORD PTR [ecx+28]
	and	edx, DWORD PTR _pi$129008[ebp]
	je	SHORT $LN2@BuildPrese
$LN1@BuildPrese:

; 464  : 			{
; 465  : 				pcombo->intervals.push_back( pi );

	lea	eax, DWORD PTR _pi$129008[ebp]
	push	eax
	mov	ecx, DWORD PTR _pcombo$[ebp]
	add	ecx, 140				; 0000008cH
	call	?push_back@?$vector@IV?$allocator@I@std@@@std@@QAEXABI@Z ; std::vector<unsigned int,std::allocator<unsigned int> >::push_back
$LN2@BuildPrese:

; 466  : 			}

	jmp	SHORT $LN7@BuildPrese
$LN9@BuildPrese:

; 467  : 		}
; 468  : 	}

	mov	esp, ebp
	pop	ebp
	ret	8
?BuildPresentIntervalList@D3DEnumeration@Ogre@@AAEXPAUD3DDEVICEINFO_T@2@PAUD3DDEVCOMBO_T@2@@Z ENDP ; Ogre::D3DEnumeration::BuildPresentIntervalList
_TEXT	ENDS
PUBLIC	??$IsValueInArray@W4VERTPROCESS_T@Ogre@@@Ogre@@YA_NW4VERTPROCESS_T@0@AAV?$vector@W4VERTPROCESS_T@Ogre@@V?$allocator@W4VERTPROCESS_T@Ogre@@@std@@@std@@@Z ; Ogre::IsValueInArray<enum Ogre::VERTPROCESS_T>
PUBLIC	?FindBestWindowMode@D3DEnumeration@Ogre@@AAEXABUInitDesc@RenderSystem@2@@Z ; Ogre::D3DEnumeration::FindBestWindowMode
PUBLIC	?FindBestFullscreenMode@D3DEnumeration@Ogre@@AAEXABUInitDesc@RenderSystem@2@@Z ; Ogre::D3DEnumeration::FindBestFullscreenMode
PUBLIC	?ChooseD3DSettings@D3DEnumeration@Ogre@@QAEABUD3DSETTING_T@2@ABUInitDesc@RenderSystem@2@@Z ; Ogre::D3DEnumeration::ChooseD3DSettings
EXTRN	__imp_?LogMessage@Ogre@@YAXPBDZZ:PROC
EXTRN	__imp_?LogSetCurParam@Ogre@@YAXPBDHI@Z:PROC
EXTRN	__imp__exit:PROC
EXTRN	__imp__MessageBoxA@16:PROC
; Function compile flags: /Odtp
_TEXT	SEGMENT
_this$ = -16						; size = 4
_pdevice$129032 = -12					; size = 4
_idev$129028 = -8					; size = 4
_brefrast$ = -1						; size = 1
_desc$ = 8						; size = 4
?ChooseD3DSettings@D3DEnumeration@Ogre@@QAEABUD3DSETTING_T@2@ABUInitDesc@RenderSystem@2@@Z PROC ; Ogre::D3DEnumeration::ChooseD3DSettings
; _this$ = ecx

; 481  : 	{

	push	ebp
	mov	ebp, esp
	sub	esp, 16					; 00000010H
	mov	DWORD PTR _this$[ebp], ecx

; 482  : 		assert( desc.adapter < int(m_Adapters.size()) );
; 483  : 		m_Settings.padapter = m_Adapters[desc.adapter];

	mov	eax, DWORD PTR _desc$[ebp]
	mov	ecx, DWORD PTR [eax]
	push	ecx
	mov	ecx, DWORD PTR _this$[ebp]
	add	ecx, 24					; 00000018H
	call	??A?$vector@PAUD3DADAPTER_T@Ogre@@V?$allocator@PAUD3DADAPTER_T@Ogre@@@std@@@std@@QAEAAPAUD3DADAPTER_T@Ogre@@I@Z ; std::vector<Ogre::D3DADAPTER_T *,std::allocator<Ogre::D3DADAPTER_T *> >::operator[]
	mov	edx, DWORD PTR _this$[ebp]
	mov	eax, DWORD PTR [eax]
	mov	DWORD PTR [edx+96], eax

; 484  : 
; 485  : 		bool brefrast = desc.brefrast;

	mov	ecx, DWORD PTR _desc$[ebp]
	mov	dl, BYTE PTR [ecx+4]
	mov	BYTE PTR _brefrast$[ebp], dl

; 486  : 		if(desc.debug_ps) brefrast = true;

	mov	eax, DWORD PTR _desc$[ebp]
	movzx	ecx, BYTE PTR [eax+8]
	test	ecx, ecx
	je	SHORT $LN16@ChooseD3DS
	mov	BYTE PTR _brefrast$[ebp], 1
$LN16@ChooseD3DS:

; 487  : 
; 488  : 		for( SIZE_T idev=0; idev<m_Settings.padapter->devinfo.size(); idev++ )

	mov	DWORD PTR _idev$129028[ebp], 0
	jmp	SHORT $LN15@ChooseD3DS
$LN14@ChooseD3DS:
	mov	edx, DWORD PTR _idev$129028[ebp]
	add	edx, 1
	mov	DWORD PTR _idev$129028[ebp], edx
$LN15@ChooseD3DS:
	mov	eax, DWORD PTR _this$[ebp]
	mov	ecx, DWORD PTR [eax+96]
	add	ecx, 1128				; 00000468H
	call	?size@?$vector@PAUD3DDEVICEINFO_T@Ogre@@V?$allocator@PAUD3DDEVICEINFO_T@Ogre@@@std@@@std@@QBEIXZ ; std::vector<Ogre::D3DDEVICEINFO_T *,std::allocator<Ogre::D3DDEVICEINFO_T *> >::size
	cmp	DWORD PTR _idev$129028[ebp], eax
	jae	SHORT $LN13@ChooseD3DS

; 489  : 		{
; 490  : 			D3DDEVICEINFO_T *pdevice = m_Settings.padapter->devinfo[idev];

	mov	ecx, DWORD PTR _idev$129028[ebp]
	push	ecx
	mov	edx, DWORD PTR _this$[ebp]
	mov	ecx, DWORD PTR [edx+96]
	add	ecx, 1128				; 00000468H
	call	??A?$vector@PAUD3DDEVICEINFO_T@Ogre@@V?$allocator@PAUD3DDEVICEINFO_T@Ogre@@@std@@@std@@QAEAAPAUD3DDEVICEINFO_T@Ogre@@I@Z ; std::vector<Ogre::D3DDEVICEINFO_T *,std::allocator<Ogre::D3DDEVICEINFO_T *> >::operator[]
	mov	eax, DWORD PTR [eax]
	mov	DWORD PTR _pdevice$129032[ebp], eax

; 491  : 			if( brefrast && pdevice->type==D3DDEVTYPE_REF ||
; 492  : 				!brefrast && pdevice->type==D3DDEVTYPE_HAL )

	movzx	ecx, BYTE PTR _brefrast$[ebp]
	test	ecx, ecx
	je	SHORT $LN10@ChooseD3DS
	mov	edx, DWORD PTR _pdevice$129032[ebp]
	cmp	DWORD PTR [edx+4], 2
	je	SHORT $LN11@ChooseD3DS
$LN10@ChooseD3DS:
	movzx	eax, BYTE PTR _brefrast$[ebp]
	test	eax, eax
	jne	SHORT $LN12@ChooseD3DS
	mov	ecx, DWORD PTR _pdevice$129032[ebp]
	cmp	DWORD PTR [ecx+4], 1
	jne	SHORT $LN12@ChooseD3DS
$LN11@ChooseD3DS:

; 493  : 			{
; 494  : 				m_Settings.pdevice = pdevice;

	mov	edx, DWORD PTR _this$[ebp]
	mov	eax, DWORD PTR _pdevice$129032[ebp]
	mov	DWORD PTR [edx+100], eax

; 495  : 				break;

	jmp	SHORT $LN13@ChooseD3DS
$LN12@ChooseD3DS:

; 496  : 			}
; 497  : 		}

	jmp	SHORT $LN14@ChooseD3DS
$LN13@ChooseD3DS:

; 498  : 
; 499  : 		if(m_Settings.pdevice == NULL)

	mov	ecx, DWORD PTR _this$[ebp]
	cmp	DWORD PTR [ecx+100], 0
	jne	SHORT $LN9@ChooseD3DS

; 500  : 		{
; 501  : 			MessageBox((HWND)desc.hwnd, "3DDirectX9.0c", "", MB_OK);

	push	0
	push	OFFSET $SG129038
	push	OFFSET $SG129039
	mov	edx, DWORD PTR _desc$[ebp]
	mov	eax, DWORD PTR [edx+40]
	push	eax
	call	DWORD PTR __imp__MessageBoxA@16

; 502  : 			exit(3);

	push	3
	call	DWORD PTR __imp__exit
$LN9@ChooseD3DS:

; 503  : 		}
; 504  : 
; 505  : 		if( desc.bfullscreen ) 

	mov	ecx, DWORD PTR _desc$[ebp]
	movzx	edx, BYTE PTR [ecx+5]
	test	edx, edx
	je	SHORT $LN8@ChooseD3DS

; 506  : 			FindBestFullscreenMode( desc );

	mov	eax, DWORD PTR _desc$[ebp]
	push	eax
	mov	ecx, DWORD PTR _this$[ebp]
	call	?FindBestFullscreenMode@D3DEnumeration@Ogre@@AAEXABUInitDesc@RenderSystem@2@@Z ; Ogre::D3DEnumeration::FindBestFullscreenMode

; 507  : 		else 

	jmp	SHORT $LN7@ChooseD3DS
$LN8@ChooseD3DS:

; 508  : 			FindBestWindowMode( desc );

	mov	ecx, DWORD PTR _desc$[ebp]
	push	ecx
	mov	ecx, DWORD PTR _this$[ebp]
	call	?FindBestWindowMode@D3DEnumeration@Ogre@@AAEXABUInitDesc@RenderSystem@2@@Z ; Ogre::D3DEnumeration::FindBestWindowMode
$LN7@ChooseD3DS:

; 509  : 
; 510  : 		if(desc.debug_vs) m_Settings.vptype = SOFTWARE_VP;

	mov	edx, DWORD PTR _desc$[ebp]
	movzx	eax, BYTE PTR [edx+7]
	test	eax, eax
	je	SHORT $LN6@ChooseD3DS
	mov	ecx, DWORD PTR _this$[ebp]
	mov	DWORD PTR [ecx+120], 0

; 511  : 		else

	jmp	SHORT $LN5@ChooseD3DS
$LN6@ChooseD3DS:

; 512  : 		{
; 513  : 			if(IsValueInArray(PURE_HARDWARE_VP, m_Settings.pdevcombo->vptypes)) m_Settings.vptype = PURE_HARDWARE_VP;

	mov	edx, DWORD PTR _this$[ebp]
	mov	eax, DWORD PTR [edx+104]
	add	eax, 116				; 00000074H
	push	eax
	push	3
	call	??$IsValueInArray@W4VERTPROCESS_T@Ogre@@@Ogre@@YA_NW4VERTPROCESS_T@0@AAV?$vector@W4VERTPROCESS_T@Ogre@@V?$allocator@W4VERTPROCESS_T@Ogre@@@std@@@std@@@Z ; Ogre::IsValueInArray<enum Ogre::VERTPROCESS_T>
	add	esp, 8
	movzx	ecx, al
	test	ecx, ecx
	je	SHORT $LN4@ChooseD3DS
	mov	edx, DWORD PTR _this$[ebp]
	mov	DWORD PTR [edx+120], 3
	jmp	SHORT $LN5@ChooseD3DS
$LN4@ChooseD3DS:

; 514  : 			else if(IsValueInArray(HARDWARE_VP, m_Settings.pdevcombo->vptypes)) m_Settings.vptype = HARDWARE_VP;

	mov	eax, DWORD PTR _this$[ebp]
	mov	ecx, DWORD PTR [eax+104]
	add	ecx, 116				; 00000074H
	push	ecx
	push	2
	call	??$IsValueInArray@W4VERTPROCESS_T@Ogre@@@Ogre@@YA_NW4VERTPROCESS_T@0@AAV?$vector@W4VERTPROCESS_T@Ogre@@V?$allocator@W4VERTPROCESS_T@Ogre@@@std@@@std@@@Z ; Ogre::IsValueInArray<enum Ogre::VERTPROCESS_T>
	add	esp, 8
	movzx	edx, al
	test	edx, edx
	je	SHORT $LN2@ChooseD3DS
	mov	eax, DWORD PTR _this$[ebp]
	mov	DWORD PTR [eax+120], 2
	jmp	SHORT $LN5@ChooseD3DS
$LN2@ChooseD3DS:

; 515  : 			else m_Settings.vptype = SOFTWARE_VP;

	mov	ecx, DWORD PTR _this$[ebp]
	mov	DWORD PTR [ecx+120], 0
$LN5@ChooseD3DS:

; 516  : 		}
; 517  : 
; 518  : 		LOG_INFO("Choose D3DSettings: dispmode=(%d,%d,%d), dsformat=%d, interval=%d, msquality=%d, mstype=%d, vptype=%d", m_Settings.dispmode.Format, m_Settings.dispmode.Width, m_Settings.dispmode.Height, 
; 519  : 			m_Settings.dsformat, m_Settings.interval, m_Settings.msquality, m_Settings.mstype, m_Settings.vptype);

	push	2
	push	518					; 00000206H
	push	OFFSET $SG129057
	call	DWORD PTR __imp_?LogSetCurParam@Ogre@@YAXPBDHI@Z
	add	esp, 12					; 0000000cH
	mov	edx, DWORD PTR _this$[ebp]
	mov	eax, DWORD PTR [edx+120]
	push	eax
	mov	ecx, DWORD PTR _this$[ebp]
	mov	edx, DWORD PTR [ecx+112]
	push	edx
	mov	eax, DWORD PTR _this$[ebp]
	mov	ecx, DWORD PTR [eax+116]
	push	ecx
	mov	edx, DWORD PTR _this$[ebp]
	mov	eax, DWORD PTR [edx+124]
	push	eax
	mov	ecx, DWORD PTR _this$[ebp]
	mov	edx, DWORD PTR [ecx+108]
	push	edx
	mov	eax, DWORD PTR _this$[ebp]
	mov	ecx, DWORD PTR [eax+132]
	push	ecx
	mov	edx, DWORD PTR _this$[ebp]
	mov	eax, DWORD PTR [edx+128]
	push	eax
	mov	ecx, DWORD PTR _this$[ebp]
	mov	edx, DWORD PTR [ecx+140]
	push	edx
	push	OFFSET $SG129058
	call	DWORD PTR __imp_?LogMessage@Ogre@@YAXPBDZZ
	add	esp, 36					; 00000024H

; 520  : 		return m_Settings;

	mov	eax, DWORD PTR _this$[ebp]
	add	eax, 96					; 00000060H
$LN18@ChooseD3DS:

; 521  : 	}

	mov	esp, ebp
	pop	ebp
	ret	4
?ChooseD3DSettings@D3DEnumeration@Ogre@@QAEABUD3DSETTING_T@2@ABUInitDesc@RenderSystem@2@@Z ENDP ; Ogre::D3DEnumeration::ChooseD3DSettings
_TEXT	ENDS
PUBLIC	?MultiSampleConvert@Ogre@@YA?AW4_D3DMULTISAMPLE_TYPE@@H@Z ; Ogre::MultiSampleConvert
; Function compile flags: /Odtp
_TEXT	SEGMENT
_mstype$ = -4						; size = 4
_multisample$ = 8					; size = 4
?MultiSampleConvert@Ogre@@YA?AW4_D3DMULTISAMPLE_TYPE@@H@Z PROC ; Ogre::MultiSampleConvert

; 589  : 	{

	push	ebp
	mov	ebp, esp
	push	ecx

; 590  : 		D3DMULTISAMPLE_TYPE mstype;
; 591  : 
; 592  : 		if(multisample == 1) mstype = D3DMULTISAMPLE_2_SAMPLES;

	cmp	DWORD PTR _multisample$[ebp], 1
	jne	SHORT $LN8@MultiSampl
	mov	DWORD PTR _mstype$[ebp], 2
	jmp	SHORT $LN7@MultiSampl
$LN8@MultiSampl:

; 593  : 		else if(multisample == 2) mstype = D3DMULTISAMPLE_4_SAMPLES;

	cmp	DWORD PTR _multisample$[ebp], 2
	jne	SHORT $LN6@MultiSampl
	mov	DWORD PTR _mstype$[ebp], 4
	jmp	SHORT $LN7@MultiSampl
$LN6@MultiSampl:

; 594  : 		else if(multisample == 3) mstype = D3DMULTISAMPLE_8_SAMPLES;

	cmp	DWORD PTR _multisample$[ebp], 3
	jne	SHORT $LN4@MultiSampl
	mov	DWORD PTR _mstype$[ebp], 8
	jmp	SHORT $LN7@MultiSampl
$LN4@MultiSampl:

; 595  : 		else if(multisample == 4) mstype = D3DMULTISAMPLE_16_SAMPLES;

	cmp	DWORD PTR _multisample$[ebp], 4
	jne	SHORT $LN2@MultiSampl
	mov	DWORD PTR _mstype$[ebp], 16		; 00000010H
	jmp	SHORT $LN7@MultiSampl
$LN2@MultiSampl:

; 596  : 		else mstype = D3DMULTISAMPLE_NONE;

	mov	DWORD PTR _mstype$[ebp], 0
$LN7@MultiSampl:

; 597  : 
; 598  : 		return mstype;

	mov	eax, DWORD PTR _mstype$[ebp]

; 599  : 	}

	mov	esp, ebp
	pop	ebp
	ret	0
?MultiSampleConvert@Ogre@@YA?AW4_D3DMULTISAMPLE_TYPE@@H@Z ENDP ; Ogre::MultiSampleConvert
_TEXT	ENDS
PUBLIC	?GetRenderTargetFormat@D3DEnumeration@Ogre@@QAE_NAAW4_D3DFORMAT@@AAW4_D3DMULTISAMPLE_TYPE@@W43@HHH@Z ; Ogre::D3DEnumeration::GetRenderTargetFormat
; Function compile flags: /Odtp
_TEXT	SEGMENT
_this$ = -16						; size = 4
_pcombo$129163 = -12					; size = 4
_icombo$129159 = -8					; size = 4
_pbestcombo$ = -4					; size = 4
_dsfmt$ = 8						; size = 4
_mstype$ = 12						; size = 4
_colorfmt$ = 16						; size = 4
_depthbits$ = 20					; size = 4
_stencilbits$ = 24					; size = 4
_multisample$ = 28					; size = 4
?GetRenderTargetFormat@D3DEnumeration@Ogre@@QAE_NAAW4_D3DFORMAT@@AAW4_D3DMULTISAMPLE_TYPE@@W43@HHH@Z PROC ; Ogre::D3DEnumeration::GetRenderTargetFormat
; _this$ = ecx

; 632  : 	{

	push	ebp
	mov	ebp, esp
	sub	esp, 16					; 00000010H
	mov	DWORD PTR _this$[ebp], ecx

; 633  : 		D3DDEVCOMBO_T *pbestcombo = NULL;

	mov	DWORD PTR _pbestcombo$[ebp], 0

; 634  : 		for( SIZE_T icombo=0; icombo<m_Settings.pdevice->devcombo.size(); icombo++ )

	mov	DWORD PTR _icombo$129159[ebp], 0
	jmp	SHORT $LN9@GetRenderT
$LN8@GetRenderT:
	mov	eax, DWORD PTR _icombo$129159[ebp]
	add	eax, 1
	mov	DWORD PTR _icombo$129159[ebp], eax
$LN9@GetRenderT:
	mov	ecx, DWORD PTR _this$[ebp]
	mov	ecx, DWORD PTR [ecx+100]
	add	ecx, 312				; 00000138H
	call	?size@?$vector@PAUD3DDEVCOMBO_T@Ogre@@V?$allocator@PAUD3DDEVCOMBO_T@Ogre@@@std@@@std@@QBEIXZ ; std::vector<Ogre::D3DDEVCOMBO_T *,std::allocator<Ogre::D3DDEVCOMBO_T *> >::size
	cmp	DWORD PTR _icombo$129159[ebp], eax
	jae	SHORT $LN7@GetRenderT

; 635  : 		{
; 636  : 			D3DDEVCOMBO_T *pcombo = m_Settings.pdevice->devcombo[icombo];

	mov	edx, DWORD PTR _icombo$129159[ebp]
	push	edx
	mov	eax, DWORD PTR _this$[ebp]
	mov	ecx, DWORD PTR [eax+100]
	add	ecx, 312				; 00000138H
	call	??A?$vector@PAUD3DDEVCOMBO_T@Ogre@@V?$allocator@PAUD3DDEVCOMBO_T@Ogre@@@std@@@std@@QAEAAPAUD3DDEVCOMBO_T@Ogre@@I@Z ; std::vector<Ogre::D3DDEVCOMBO_T *,std::allocator<Ogre::D3DDEVCOMBO_T *> >::operator[]
	mov	ecx, DWORD PTR [eax]
	mov	DWORD PTR _pcombo$129163[ebp], ecx

; 637  : 			if( !pcombo->iswindowed ) continue;

	mov	edx, DWORD PTR _pcombo$129163[ebp]
	cmp	DWORD PTR [edx+16], 0
	jne	SHORT $LN6@GetRenderT
	jmp	SHORT $LN8@GetRenderT
$LN6@GetRenderT:

; 638  : 			if(pcombo->adapterfmt != colorfmt) continue;

	mov	eax, DWORD PTR _pcombo$129163[ebp]
	mov	ecx, DWORD PTR [eax+8]
	cmp	ecx, DWORD PTR _colorfmt$[ebp]
	je	SHORT $LN5@GetRenderT
	jmp	SHORT $LN8@GetRenderT
$LN5@GetRenderT:

; 639  : 
; 640  : 			if( pbestcombo == NULL ) pbestcombo = pcombo;

	cmp	DWORD PTR _pbestcombo$[ebp], 0
	jne	SHORT $LN4@GetRenderT
	mov	edx, DWORD PTR _pcombo$129163[ebp]
	mov	DWORD PTR _pbestcombo$[ebp], edx
	jmp	SHORT $LN3@GetRenderT
$LN4@GetRenderT:

; 641  : 			else if( pcombo->adapterfmt == pcombo->backbuffmt )

	mov	eax, DWORD PTR _pcombo$129163[ebp]
	mov	ecx, DWORD PTR _pcombo$129163[ebp]
	mov	edx, DWORD PTR [eax+8]
	cmp	edx, DWORD PTR [ecx+12]
	jne	SHORT $LN3@GetRenderT

; 642  : 			{
; 643  : 				pbestcombo = pcombo;

	mov	eax, DWORD PTR _pcombo$129163[ebp]
	mov	DWORD PTR _pbestcombo$[ebp], eax

; 644  : 				break;

	jmp	SHORT $LN7@GetRenderT
$LN3@GetRenderT:

; 645  : 			}
; 646  : 		}

	jmp	SHORT $LN8@GetRenderT
$LN7@GetRenderT:

; 647  : 
; 648  : 		if(pbestcombo == NULL) return false;

	cmp	DWORD PTR _pbestcombo$[ebp], 0
	jne	SHORT $LN1@GetRenderT
	xor	al, al
	jmp	SHORT $LN10@GetRenderT
$LN1@GetRenderT:

; 649  : 
; 650  : 		GetBestDSFmtAndMSType(dsfmt, mstype, pbestcombo, depthbits, stencilbits, multisample);

	mov	ecx, DWORD PTR _multisample$[ebp]
	push	ecx
	mov	edx, DWORD PTR _stencilbits$[ebp]
	push	edx
	mov	eax, DWORD PTR _depthbits$[ebp]
	push	eax
	mov	ecx, DWORD PTR _pbestcombo$[ebp]
	push	ecx
	mov	edx, DWORD PTR _mstype$[ebp]
	push	edx
	mov	eax, DWORD PTR _dsfmt$[ebp]
	push	eax
	call	?GetBestDSFmtAndMSType@Ogre@@YAXAAW4_D3DFORMAT@@AAW4_D3DMULTISAMPLE_TYPE@@PAUD3DDEVCOMBO_T@1@HHH@Z ; Ogre::GetBestDSFmtAndMSType
	add	esp, 24					; 00000018H

; 651  : 		return true;

	mov	al, 1
$LN10@GetRenderT:

; 652  : 	}

	mov	esp, ebp
	pop	ebp
	ret	24					; 00000018H
?GetRenderTargetFormat@D3DEnumeration@Ogre@@QAE_NAAW4_D3DFORMAT@@AAW4_D3DMULTISAMPLE_TYPE@@W43@HHH@Z ENDP ; Ogre::D3DEnumeration::GetRenderTargetFormat
_TEXT	ENDS
PUBLIC	??$IsValueInArray@W4_D3DMULTISAMPLE_TYPE@@@Ogre@@YA_NW4_D3DMULTISAMPLE_TYPE@@AAV?$vector@W4_D3DMULTISAMPLE_TYPE@@V?$allocator@W4_D3DMULTISAMPLE_TYPE@@@std@@@std@@@Z ; Ogre::IsValueInArray<enum _D3DMULTISAMPLE_TYPE>
; Function compile flags: /Odtp
_TEXT	SEGMENT
_dsfmt$ = 8						; size = 4
_mstype$ = 12						; size = 4
_pcombo$ = 16						; size = 4
_depthbits$ = 20					; size = 4
_stencilbits$ = 24					; size = 4
_multisample$ = 28					; size = 4
?GetBestDSFmtAndMSType@Ogre@@YAXAAW4_D3DFORMAT@@AAW4_D3DMULTISAMPLE_TYPE@@PAUD3DDEVCOMBO_T@1@HHH@Z PROC ; Ogre::GetBestDSFmtAndMSType

; 602  : 	{

	push	ebp
	mov	ebp, esp
$LN13@GetBestDSF:

; 603  : 		while(multisample > 0)

	cmp	DWORD PTR _multisample$[ebp], 0
	jle	SHORT $LN10@GetBestDSF

; 604  : 		{
; 605  : 			mstype = MultiSampleConvert(multisample);

	mov	eax, DWORD PTR _multisample$[ebp]
	push	eax
	call	?MultiSampleConvert@Ogre@@YA?AW4_D3DMULTISAMPLE_TYPE@@H@Z ; Ogre::MultiSampleConvert
	add	esp, 4
	mov	ecx, DWORD PTR _mstype$[ebp]
	mov	DWORD PTR [ecx], eax

; 606  : 			if(IsValueInArray(mstype, pcombo->mstypes)) break;

	mov	edx, DWORD PTR _pcombo$[ebp]
	add	edx, 44					; 0000002cH
	push	edx
	mov	eax, DWORD PTR _mstype$[ebp]
	mov	ecx, DWORD PTR [eax]
	push	ecx
	call	??$IsValueInArray@W4_D3DMULTISAMPLE_TYPE@@@Ogre@@YA_NW4_D3DMULTISAMPLE_TYPE@@AAV?$vector@W4_D3DMULTISAMPLE_TYPE@@V?$allocator@W4_D3DMULTISAMPLE_TYPE@@@std@@@std@@@Z ; Ogre::IsValueInArray<enum _D3DMULTISAMPLE_TYPE>
	add	esp, 8
	movzx	edx, al
	test	edx, edx
	je	SHORT $LN11@GetBestDSF
	jmp	SHORT $LN10@GetBestDSF
$LN11@GetBestDSF:

; 607  : 			multisample--;

	mov	eax, DWORD PTR _multisample$[ebp]
	sub	eax, 1
	mov	DWORD PTR _multisample$[ebp], eax

; 608  : 		}

	jmp	SHORT $LN13@GetBestDSF
$LN10@GetBestDSF:

; 609  : 
; 610  : 		for(;;)
; 611  : 		{
; 612  : 			dsfmt = GetProperDSFmt(mstype, pcombo, depthbits, stencilbits);

	mov	ecx, DWORD PTR _stencilbits$[ebp]
	push	ecx
	mov	edx, DWORD PTR _depthbits$[ebp]
	push	edx
	mov	eax, DWORD PTR _pcombo$[ebp]
	push	eax
	mov	ecx, DWORD PTR _mstype$[ebp]
	mov	edx, DWORD PTR [ecx]
	push	edx
	call	?GetProperDSFmt@Ogre@@YA?AW4_D3DFORMAT@@W4_D3DMULTISAMPLE_TYPE@@PAUD3DDEVCOMBO_T@1@HH@Z ; Ogre::GetProperDSFmt
	add	esp, 16					; 00000010H
	mov	ecx, DWORD PTR _dsfmt$[ebp]
	mov	DWORD PTR [ecx], eax

; 613  : 			if(dsfmt == D3DFMT_UNKNOWN)

	mov	edx, DWORD PTR _dsfmt$[ebp]
	cmp	DWORD PTR [edx], 0
	jne	SHORT $LN8@GetBestDSF

; 614  : 			{
; 615  : 				if(depthbits == 32) 

	cmp	DWORD PTR _depthbits$[ebp], 32		; 00000020H
	jne	SHORT $LN7@GetBestDSF

; 616  : 					depthbits = 24;

	mov	DWORD PTR _depthbits$[ebp], 24		; 00000018H
	jmp	SHORT $LN6@GetBestDSF
$LN7@GetBestDSF:

; 617  : 				else if(depthbits == 24) 

	cmp	DWORD PTR _depthbits$[ebp], 24		; 00000018H
	jne	SHORT $LN5@GetBestDSF

; 618  : 					depthbits = 16;

	mov	DWORD PTR _depthbits$[ebp], 16		; 00000010H
	jmp	SHORT $LN6@GetBestDSF
$LN5@GetBestDSF:

; 619  : 				else if(mstype != D3DMULTISAMPLE_NONE)

	mov	eax, DWORD PTR _mstype$[ebp]
	cmp	DWORD PTR [eax], 0
	je	SHORT $LN3@GetBestDSF

; 620  : 					mstype = D3DMULTISAMPLE_NONE;

	mov	ecx, DWORD PTR _mstype$[ebp]
	mov	DWORD PTR [ecx], 0

; 621  : 				else

	jmp	SHORT $LN6@GetBestDSF
$LN3@GetBestDSF:

; 622  : 				{
; 623  : 					dsfmt = D3DFMT_D16;

	mov	edx, DWORD PTR _dsfmt$[ebp]
	mov	DWORD PTR [edx], 80			; 00000050H

; 624  : 					break;

	jmp	SHORT $LN14@GetBestDSF
$LN6@GetBestDSF:

; 625  : 				}

	jmp	SHORT $LN1@GetBestDSF
$LN8@GetBestDSF:

; 626  : 			}
; 627  : 			else break;

	jmp	SHORT $LN14@GetBestDSF
$LN1@GetBestDSF:
	jmp	SHORT $LN10@GetBestDSF
$LN14@GetBestDSF:

; 628  : 		}
; 629  : 	}

	pop	ebp
	ret	0
?GetBestDSFmtAndMSType@Ogre@@YAXAAW4_D3DFORMAT@@AAW4_D3DMULTISAMPLE_TYPE@@PAUD3DDEVCOMBO_T@1@HHH@Z ENDP ; Ogre::GetBestDSFmtAndMSType
; Function compile flags: /Odtp
_fmt$129082 = -16					; size = 4
_i$129078 = -12						; size = 4
_bestfmt$ = -8						; size = 4
_okfmt$ = -4						; size = 4
_mstype$ = 8						; size = 4
_pcombo$ = 12						; size = 4
_depthbits$ = 16					; size = 4
_stencilbits$ = 20					; size = 4
?GetProperDSFmt@Ogre@@YA?AW4_D3DFORMAT@@W4_D3DMULTISAMPLE_TYPE@@PAUD3DDEVCOMBO_T@1@HH@Z PROC ; Ogre::GetProperDSFmt

; 533  : 	{

	push	ebp
	mov	ebp, esp
	sub	esp, 16					; 00000010H

; 534  : 		D3DFORMAT bestfmt = D3DFMT_UNKNOWN;

	mov	DWORD PTR _bestfmt$[ebp], 0

; 535  : 		D3DFORMAT okfmt = D3DFMT_UNKNOWN;

	mov	DWORD PTR _okfmt$[ebp], 0

; 536  : 
; 537  : 		for(size_t i=0; i<pcombo->dsfmts.size(); i++)

	mov	DWORD PTR _i$129078[ebp], 0
	jmp	SHORT $LN25@GetProperD
$LN24@GetProperD:
	mov	eax, DWORD PTR _i$129078[ebp]
	add	eax, 1
	mov	DWORD PTR _i$129078[ebp], eax
$LN25@GetProperD:
	mov	ecx, DWORD PTR _pcombo$[ebp]
	add	ecx, 20					; 00000014H
	call	?size@?$vector@W4_D3DFORMAT@@V?$allocator@W4_D3DFORMAT@@@std@@@std@@QBEIXZ ; std::vector<enum _D3DFORMAT,std::allocator<enum _D3DFORMAT> >::size
	cmp	DWORD PTR _i$129078[ebp], eax
	jae	$LN23@GetProperD

; 538  : 		{
; 539  : 			D3DFORMAT fmt = pcombo->dsfmts[i];

	mov	ecx, DWORD PTR _i$129078[ebp]
	push	ecx
	mov	ecx, DWORD PTR _pcombo$[ebp]
	add	ecx, 20					; 00000014H
	call	??A?$vector@W4_D3DFORMAT@@V?$allocator@W4_D3DFORMAT@@@std@@@std@@QAEAAW4_D3DFORMAT@@I@Z ; std::vector<enum _D3DFORMAT,std::allocator<enum _D3DFORMAT> >::operator[]
	mov	edx, DWORD PTR [eax]
	mov	DWORD PTR _fmt$129082[ebp], edx

; 540  : 			if(IsConflicted(mstype, fmt, pcombo)) continue;

	mov	eax, DWORD PTR _pcombo$[ebp]
	push	eax
	mov	ecx, DWORD PTR _fmt$129082[ebp]
	push	ecx
	mov	edx, DWORD PTR _mstype$[ebp]
	push	edx
	call	?IsConflicted@Ogre@@YA_NW4_D3DMULTISAMPLE_TYPE@@W4_D3DFORMAT@@PAUD3DDEVCOMBO_T@1@@Z ; Ogre::IsConflicted
	add	esp, 12					; 0000000cH
	movzx	eax, al
	test	eax, eax
	je	SHORT $LN22@GetProperD
	jmp	SHORT $LN24@GetProperD
$LN22@GetProperD:

; 541  : 
; 542  : 			if(fmt == D3DFMT_D16)

	cmp	DWORD PTR _fmt$129082[ebp], 80		; 00000050H
	jne	SHORT $LN21@GetProperD

; 543  : 			{
; 544  : 				if(stencilbits == 0)

	cmp	DWORD PTR _stencilbits$[ebp], 0
	jne	SHORT $LN20@GetProperD

; 545  : 				{
; 546  : 					if(depthbits == 16) bestfmt = fmt;

	cmp	DWORD PTR _depthbits$[ebp], 16		; 00000010H
	jne	SHORT $LN19@GetProperD
	mov	ecx, DWORD PTR _fmt$129082[ebp]
	mov	DWORD PTR _bestfmt$[ebp], ecx
$LN19@GetProperD:

; 547  : 					okfmt = fmt;

	mov	edx, DWORD PTR _fmt$129082[ebp]
	mov	DWORD PTR _okfmt$[ebp], edx
$LN20@GetProperD:

; 548  : 				}
; 549  : 			}

	jmp	SHORT $LN18@GetProperD
$LN21@GetProperD:

; 550  : 			else if(fmt == D3DFMT_D32)

	cmp	DWORD PTR _fmt$129082[ebp], 71		; 00000047H
	jne	SHORT $LN17@GetProperD

; 551  : 			{
; 552  : 				if(stencilbits==0)

	cmp	DWORD PTR _stencilbits$[ebp], 0
	jne	SHORT $LN16@GetProperD

; 553  : 				{
; 554  : 					if(depthbits == 32) bestfmt = fmt;

	cmp	DWORD PTR _depthbits$[ebp], 32		; 00000020H
	jne	SHORT $LN15@GetProperD
	mov	eax, DWORD PTR _fmt$129082[ebp]
	mov	DWORD PTR _bestfmt$[ebp], eax
$LN15@GetProperD:

; 555  : 					okfmt = fmt;

	mov	ecx, DWORD PTR _fmt$129082[ebp]
	mov	DWORD PTR _okfmt$[ebp], ecx
$LN16@GetProperD:

; 556  : 				}
; 557  : 			}

	jmp	SHORT $LN18@GetProperD
$LN17@GetProperD:

; 558  : 			else if(fmt == D3DFMT_D15S1)

	cmp	DWORD PTR _fmt$129082[ebp], 73		; 00000049H
	jne	SHORT $LN13@GetProperD

; 559  : 			{
; 560  : 				if(stencilbits == 1)

	cmp	DWORD PTR _stencilbits$[ebp], 1
	jne	SHORT $LN12@GetProperD

; 561  : 				{
; 562  : 					if(depthbits == 16) bestfmt = fmt;

	cmp	DWORD PTR _depthbits$[ebp], 16		; 00000010H
	jne	SHORT $LN11@GetProperD
	mov	edx, DWORD PTR _fmt$129082[ebp]
	mov	DWORD PTR _bestfmt$[ebp], edx
$LN11@GetProperD:

; 563  : 					okfmt = fmt;

	mov	eax, DWORD PTR _fmt$129082[ebp]
	mov	DWORD PTR _okfmt$[ebp], eax
$LN12@GetProperD:

; 564  : 				}
; 565  : 			}

	jmp	SHORT $LN18@GetProperD
$LN13@GetProperD:

; 566  : 			else if(fmt == D3DFMT_D24S8)

	cmp	DWORD PTR _fmt$129082[ebp], 75		; 0000004bH
	jne	SHORT $LN9@GetProperD

; 567  : 			{
; 568  : 				if(stencilbits == 8)

	cmp	DWORD PTR _stencilbits$[ebp], 8
	jne	SHORT $LN8@GetProperD

; 569  : 				{
; 570  : 					if(depthbits == 24) bestfmt = fmt;

	cmp	DWORD PTR _depthbits$[ebp], 24		; 00000018H
	jne	SHORT $LN7@GetProperD
	mov	ecx, DWORD PTR _fmt$129082[ebp]
	mov	DWORD PTR _bestfmt$[ebp], ecx
$LN7@GetProperD:

; 571  : 					okfmt = fmt;

	mov	edx, DWORD PTR _fmt$129082[ebp]
	mov	DWORD PTR _okfmt$[ebp], edx
$LN8@GetProperD:

; 572  : 				}
; 573  : 			}

	jmp	SHORT $LN18@GetProperD
$LN9@GetProperD:

; 574  : 			else if(fmt == D3DFMT_D24X8)

	cmp	DWORD PTR _fmt$129082[ebp], 77		; 0000004dH
	jne	SHORT $LN18@GetProperD

; 575  : 			{
; 576  : 				if(stencilbits == 0)

	cmp	DWORD PTR _stencilbits$[ebp], 0
	jne	SHORT $LN18@GetProperD

; 577  : 				{
; 578  : 					if(depthbits == 24) bestfmt = fmt;

	cmp	DWORD PTR _depthbits$[ebp], 24		; 00000018H
	jne	SHORT $LN3@GetProperD
	mov	eax, DWORD PTR _fmt$129082[ebp]
	mov	DWORD PTR _bestfmt$[ebp], eax
$LN3@GetProperD:

; 579  : 					okfmt = fmt;

	mov	ecx, DWORD PTR _fmt$129082[ebp]
	mov	DWORD PTR _okfmt$[ebp], ecx
$LN18@GetProperD:

; 580  : 				}
; 581  : 			}
; 582  : 		}

	jmp	$LN24@GetProperD
$LN23@GetProperD:

; 583  : 
; 584  : 		if(bestfmt != D3DFMT_UNKNOWN) return bestfmt;

	cmp	DWORD PTR _bestfmt$[ebp], 0
	je	SHORT $LN2@GetProperD
	mov	eax, DWORD PTR _bestfmt$[ebp]
	jmp	SHORT $LN26@GetProperD
	jmp	SHORT $LN26@GetProperD
$LN2@GetProperD:

; 585  : 		else return okfmt;

	mov	eax, DWORD PTR _okfmt$[ebp]
$LN26@GetProperD:

; 586  : 	}

	mov	esp, ebp
	pop	ebp
	ret	0
?GetProperDSFmt@Ogre@@YA?AW4_D3DFORMAT@@W4_D3DMULTISAMPLE_TYPE@@PAUD3DDEVCOMBO_T@1@HH@Z ENDP ; Ogre::GetProperDSFmt
_TEXT	ENDS
PUBLIC	??A?$vector@UD3DSMSCONFLICT_T@Ogre@@V?$allocator@UD3DSMSCONFLICT_T@Ogre@@@std@@@std@@QAEAAUD3DSMSCONFLICT_T@Ogre@@I@Z ; std::vector<Ogre::D3DSMSCONFLICT_T,std::allocator<Ogre::D3DSMSCONFLICT_T> >::operator[]
PUBLIC	?size@?$vector@UD3DSMSCONFLICT_T@Ogre@@V?$allocator@UD3DSMSCONFLICT_T@Ogre@@@std@@@std@@QBEIXZ ; std::vector<Ogre::D3DSMSCONFLICT_T,std::allocator<Ogre::D3DSMSCONFLICT_T> >::size
; Function compile flags: /Odtp
_TEXT	SEGMENT
_obj$129068 = -8					; size = 4
_i$129064 = -4						; size = 4
_mstype$ = 8						; size = 4
_dsfmt$ = 12						; size = 4
_pcombo$ = 16						; size = 4
?IsConflicted@Ogre@@YA_NW4_D3DMULTISAMPLE_TYPE@@W4_D3DFORMAT@@PAUD3DDEVCOMBO_T@1@@Z PROC ; Ogre::IsConflicted

; 524  : 	{

	push	ebp
	mov	ebp, esp
	sub	esp, 8

; 525  : 		for(size_t i=0; i<pcombo->conflicts.size(); i++)

	mov	DWORD PTR _i$129064[ebp], 0
	jmp	SHORT $LN4@IsConflict
$LN3@IsConflict:
	mov	eax, DWORD PTR _i$129064[ebp]
	add	eax, 1
	mov	DWORD PTR _i$129064[ebp], eax
$LN4@IsConflict:
	mov	ecx, DWORD PTR _pcombo$[ebp]
	add	ecx, 92					; 0000005cH
	call	?size@?$vector@UD3DSMSCONFLICT_T@Ogre@@V?$allocator@UD3DSMSCONFLICT_T@Ogre@@@std@@@std@@QBEIXZ ; std::vector<Ogre::D3DSMSCONFLICT_T,std::allocator<Ogre::D3DSMSCONFLICT_T> >::size
	cmp	DWORD PTR _i$129064[ebp], eax
	jae	SHORT $LN2@IsConflict

; 526  : 		{
; 527  : 			D3DSMSCONFLICT_T &obj = pcombo->conflicts[i];

	mov	ecx, DWORD PTR _i$129064[ebp]
	push	ecx
	mov	ecx, DWORD PTR _pcombo$[ebp]
	add	ecx, 92					; 0000005cH
	call	??A?$vector@UD3DSMSCONFLICT_T@Ogre@@V?$allocator@UD3DSMSCONFLICT_T@Ogre@@@std@@@std@@QAEAAUD3DSMSCONFLICT_T@Ogre@@I@Z ; std::vector<Ogre::D3DSMSCONFLICT_T,std::allocator<Ogre::D3DSMSCONFLICT_T> >::operator[]
	mov	DWORD PTR _obj$129068[ebp], eax

; 528  : 			if(mstype==obj.mstype && dsfmt==obj.dsfmt) return true;

	mov	edx, DWORD PTR _obj$129068[ebp]
	mov	eax, DWORD PTR _mstype$[ebp]
	cmp	eax, DWORD PTR [edx+4]
	jne	SHORT $LN1@IsConflict
	mov	ecx, DWORD PTR _obj$129068[ebp]
	mov	edx, DWORD PTR _dsfmt$[ebp]
	cmp	edx, DWORD PTR [ecx]
	jne	SHORT $LN1@IsConflict
	mov	al, 1
	jmp	SHORT $LN5@IsConflict
$LN1@IsConflict:

; 529  : 		}

	jmp	SHORT $LN3@IsConflict
$LN2@IsConflict:

; 530  : 		return false;

	xor	al, al
$LN5@IsConflict:

; 531  : 	}

	mov	esp, ebp
	pop	ebp
	ret	0
?IsConflicted@Ogre@@YA_NW4_D3DMULTISAMPLE_TYPE@@W4_D3DFORMAT@@PAUD3DDEVCOMBO_T@1@@Z ENDP ; Ogre::IsConflicted
; Function compile flags: /Odtp
_this$ = -32						; size = 4
_pcombo$129180 = -28					; size = 4
_icombo$129176 = -24					; size = 4
_pbestcombo$ = -20					; size = 4
_desktopmode$ = -16					; size = 16
_desc$ = 8						; size = 4
?FindBestWindowMode@D3DEnumeration@Ogre@@AAEXABUInitDesc@RenderSystem@2@@Z PROC ; Ogre::D3DEnumeration::FindBestWindowMode
; _this$ = ecx

; 655  : 	{

	push	ebp
	mov	ebp, esp
	sub	esp, 32					; 00000020H
	mov	DWORD PTR _this$[ebp], ecx

; 656  : 		D3DDISPLAYMODE desktopmode;
; 657  : 		m_pD3D->GetAdapterDisplayMode( 0, &desktopmode );

	lea	eax, DWORD PTR _desktopmode$[ebp]
	push	eax
	push	0
	mov	ecx, DWORD PTR _this$[ebp]
	mov	edx, DWORD PTR [ecx+92]
	mov	eax, DWORD PTR _this$[ebp]
	mov	ecx, DWORD PTR [eax+92]
	mov	edx, DWORD PTR [edx]
	push	ecx
	mov	eax, DWORD PTR [edx+32]
	call	eax

; 658  : 
; 659  : 		D3DDEVCOMBO_T *pbestcombo = NULL;

	mov	DWORD PTR _pbestcombo$[ebp], 0

; 660  : 		for( SIZE_T icombo=0; icombo<m_Settings.pdevice->devcombo.size(); icombo++ )

	mov	DWORD PTR _icombo$129176[ebp], 0
	jmp	SHORT $LN10@FindBestWi
$LN9@FindBestWi:
	mov	ecx, DWORD PTR _icombo$129176[ebp]
	add	ecx, 1
	mov	DWORD PTR _icombo$129176[ebp], ecx
$LN10@FindBestWi:
	mov	edx, DWORD PTR _this$[ebp]
	mov	ecx, DWORD PTR [edx+100]
	add	ecx, 312				; 00000138H
	call	?size@?$vector@PAUD3DDEVCOMBO_T@Ogre@@V?$allocator@PAUD3DDEVCOMBO_T@Ogre@@@std@@@std@@QBEIXZ ; std::vector<Ogre::D3DDEVCOMBO_T *,std::allocator<Ogre::D3DDEVCOMBO_T *> >::size
	cmp	DWORD PTR _icombo$129176[ebp], eax
	jae	SHORT $LN8@FindBestWi

; 661  : 		{
; 662  : 			D3DDEVCOMBO_T *pcombo = m_Settings.pdevice->devcombo[icombo];

	mov	eax, DWORD PTR _icombo$129176[ebp]
	push	eax
	mov	ecx, DWORD PTR _this$[ebp]
	mov	ecx, DWORD PTR [ecx+100]
	add	ecx, 312				; 00000138H
	call	??A?$vector@PAUD3DDEVCOMBO_T@Ogre@@V?$allocator@PAUD3DDEVCOMBO_T@Ogre@@@std@@@std@@QAEAAPAUD3DDEVCOMBO_T@Ogre@@I@Z ; std::vector<Ogre::D3DDEVCOMBO_T *,std::allocator<Ogre::D3DDEVCOMBO_T *> >::operator[]
	mov	edx, DWORD PTR [eax]
	mov	DWORD PTR _pcombo$129180[ebp], edx

; 663  : 			if( !pcombo->iswindowed ) continue;

	mov	eax, DWORD PTR _pcombo$129180[ebp]
	cmp	DWORD PTR [eax+16], 0
	jne	SHORT $LN7@FindBestWi
	jmp	SHORT $LN9@FindBestWi
$LN7@FindBestWi:

; 664  : 			if( pcombo->adapterfmt != desktopmode.Format ) continue;

	mov	ecx, DWORD PTR _pcombo$129180[ebp]
	mov	edx, DWORD PTR [ecx+8]
	cmp	edx, DWORD PTR _desktopmode$[ebp+12]
	je	SHORT $LN6@FindBestWi
	jmp	SHORT $LN9@FindBestWi
$LN6@FindBestWi:

; 665  : 
; 666  : 			if( pbestcombo == NULL ) pbestcombo = pcombo;

	cmp	DWORD PTR _pbestcombo$[ebp], 0
	jne	SHORT $LN5@FindBestWi
	mov	eax, DWORD PTR _pcombo$129180[ebp]
	mov	DWORD PTR _pbestcombo$[ebp], eax
	jmp	SHORT $LN4@FindBestWi
$LN5@FindBestWi:

; 667  : 			else if( pcombo->adapterfmt == pcombo->backbuffmt )

	mov	ecx, DWORD PTR _pcombo$129180[ebp]
	mov	edx, DWORD PTR _pcombo$129180[ebp]
	mov	eax, DWORD PTR [ecx+8]
	cmp	eax, DWORD PTR [edx+12]
	jne	SHORT $LN4@FindBestWi

; 668  : 			{
; 669  : 				pbestcombo = pcombo;

	mov	ecx, DWORD PTR _pcombo$129180[ebp]
	mov	DWORD PTR _pbestcombo$[ebp], ecx

; 670  : 				break;

	jmp	SHORT $LN8@FindBestWi
$LN4@FindBestWi:

; 671  : 			}
; 672  : 		}

	jmp	SHORT $LN9@FindBestWi
$LN8@FindBestWi:

; 673  : 
; 674  : 		m_Settings.pdevcombo = pbestcombo;

	mov	edx, DWORD PTR _this$[ebp]
	mov	eax, DWORD PTR _pbestcombo$[ebp]
	mov	DWORD PTR [edx+104], eax

; 675  : 		m_Settings.dispmode = desktopmode;

	mov	ecx, DWORD PTR _this$[ebp]
	add	ecx, 128				; 00000080H
	mov	edx, DWORD PTR _desktopmode$[ebp]
	mov	DWORD PTR [ecx], edx
	mov	eax, DWORD PTR _desktopmode$[ebp+4]
	mov	DWORD PTR [ecx+4], eax
	mov	edx, DWORD PTR _desktopmode$[ebp+8]
	mov	DWORD PTR [ecx+8], edx
	mov	eax, DWORD PTR _desktopmode$[ebp+12]
	mov	DWORD PTR [ecx+12], eax

; 676  : 
; 677  : 		GetBestDSFmtAndMSType(m_Settings.dsformat, m_Settings.mstype, m_Settings.pdevcombo, desc.depthbits, desc.stencilbits, desc.multisample);

	mov	ecx, DWORD PTR _desc$[ebp]
	mov	edx, DWORD PTR [ecx+36]
	push	edx
	mov	eax, DWORD PTR _desc$[ebp]
	mov	ecx, DWORD PTR [eax+32]
	push	ecx
	mov	edx, DWORD PTR _desc$[ebp]
	mov	eax, DWORD PTR [edx+28]
	push	eax
	mov	ecx, DWORD PTR _this$[ebp]
	mov	edx, DWORD PTR [ecx+104]
	push	edx
	mov	eax, DWORD PTR _this$[ebp]
	add	eax, 112				; 00000070H
	push	eax
	mov	ecx, DWORD PTR _this$[ebp]
	add	ecx, 108				; 0000006cH
	push	ecx
	call	?GetBestDSFmtAndMSType@Ogre@@YAXAAW4_D3DFORMAT@@AAW4_D3DMULTISAMPLE_TYPE@@PAUD3DDEVCOMBO_T@1@HHH@Z ; Ogre::GetBestDSFmtAndMSType
	add	esp, 24					; 00000018H

; 678  : 	
; 679  : 		if(desc.sync_refresh) 

	mov	edx, DWORD PTR _desc$[ebp]
	movzx	eax, BYTE PTR [edx+11]
	test	eax, eax
	je	SHORT $LN2@FindBestWi

; 680  : 			m_Settings.interval = D3DPRESENT_INTERVAL_ONE;

	mov	ecx, DWORD PTR _this$[ebp]
	mov	DWORD PTR [ecx+124], 1

; 681  : 		else 

	jmp	SHORT $LN1@FindBestWi
$LN2@FindBestWi:

; 682  : 			m_Settings.interval = D3DPRESENT_INTERVAL_IMMEDIATE;

	mov	edx, DWORD PTR _this$[ebp]
	mov	DWORD PTR [edx+124], -2147483648	; 80000000H
$LN1@FindBestWi:

; 683  : 
; 684  : 		m_Settings.msquality = 0;

	mov	eax, DWORD PTR _this$[ebp]
	mov	DWORD PTR [eax+116], 0

; 685  : 	}

	mov	esp, ebp
	pop	ebp
	ret	4
?FindBestWindowMode@D3DEnumeration@Ogre@@AAEXABUInitDesc@RenderSystem@2@@Z ENDP ; Ogre::D3DEnumeration::FindBestWindowMode
; Function compile flags: /Odtp
tv130 = -56						; size = 4
_this$ = -52						; size = 4
_tmpmode$129216 = -48					; size = 4
_imode$129212 = -44					; size = 4
_bmatch_format$129200 = -40				; size = 4
_bmatch_bb$129201 = -36					; size = 4
_pcombo$129198 = -32					; size = 4
_icombo$129194 = -28					; size = 4
_pbestcombo$ = -24					; size = 4
_pbestmode$ = -20					; size = 4
_desktopmode$ = -16					; size = 16
_desc$ = 8						; size = 4
?FindBestFullscreenMode@D3DEnumeration@Ogre@@AAEXABUInitDesc@RenderSystem@2@@Z PROC ; Ogre::D3DEnumeration::FindBestFullscreenMode
; _this$ = ecx

; 688  : 	{

	push	ebp
	mov	ebp, esp
	sub	esp, 56					; 00000038H
	mov	DWORD PTR _this$[ebp], ecx

; 689  : 		D3DDISPLAYMODE desktopmode;
; 690  : 		m_pD3D->GetAdapterDisplayMode( desc.adapter, &desktopmode );

	lea	eax, DWORD PTR _desktopmode$[ebp]
	push	eax
	mov	ecx, DWORD PTR _desc$[ebp]
	mov	edx, DWORD PTR [ecx]
	push	edx
	mov	eax, DWORD PTR _this$[ebp]
	mov	ecx, DWORD PTR [eax+92]
	mov	edx, DWORD PTR _this$[ebp]
	mov	eax, DWORD PTR [edx+92]
	mov	ecx, DWORD PTR [ecx]
	push	eax
	mov	edx, DWORD PTR [ecx+32]
	call	edx

; 691  : 
; 692  : 		D3DDEVCOMBO_T *pbestcombo = NULL;

	mov	DWORD PTR _pbestcombo$[ebp], 0

; 693  : 		for( SIZE_T icombo=0; icombo<m_Settings.pdevice->devcombo.size(); icombo++ )

	mov	DWORD PTR _icombo$129194[ebp], 0
	jmp	SHORT $LN26@FindBestFu
$LN25@FindBestFu:
	mov	eax, DWORD PTR _icombo$129194[ebp]
	add	eax, 1
	mov	DWORD PTR _icombo$129194[ebp], eax
$LN26@FindBestFu:
	mov	ecx, DWORD PTR _this$[ebp]
	mov	ecx, DWORD PTR [ecx+100]
	add	ecx, 312				; 00000138H
	call	?size@?$vector@PAUD3DDEVCOMBO_T@Ogre@@V?$allocator@PAUD3DDEVCOMBO_T@Ogre@@@std@@@std@@QBEIXZ ; std::vector<Ogre::D3DDEVCOMBO_T *,std::allocator<Ogre::D3DDEVCOMBO_T *> >::size
	cmp	DWORD PTR _icombo$129194[ebp], eax
	jae	$LN24@FindBestFu

; 694  : 		{
; 695  : 			D3DDEVCOMBO_T *pcombo = m_Settings.pdevice->devcombo[icombo];

	mov	edx, DWORD PTR _icombo$129194[ebp]
	push	edx
	mov	eax, DWORD PTR _this$[ebp]
	mov	ecx, DWORD PTR [eax+100]
	add	ecx, 312				; 00000138H
	call	??A?$vector@PAUD3DDEVCOMBO_T@Ogre@@V?$allocator@PAUD3DDEVCOMBO_T@Ogre@@@std@@@std@@QAEAAPAUD3DDEVCOMBO_T@Ogre@@I@Z ; std::vector<Ogre::D3DDEVCOMBO_T *,std::allocator<Ogre::D3DDEVCOMBO_T *> >::operator[]
	mov	ecx, DWORD PTR [eax]
	mov	DWORD PTR _pcombo$129198[ebp], ecx

; 696  : 			if( pcombo->iswindowed ) continue;

	mov	edx, DWORD PTR _pcombo$129198[ebp]
	cmp	DWORD PTR [edx+16], 0
	je	SHORT $LN23@FindBestFu
	jmp	SHORT $LN25@FindBestFu
$LN23@FindBestFu:

; 697  : 
; 698  : 			BOOL bmatch_format = (ColorChannelBits(pcombo->backbuffmt)==desc.colorbits && AlphaChannelBits(pcombo->backbuffmt)==desc.alphabits);

	mov	eax, DWORD PTR _pcombo$129198[ebp]
	mov	ecx, DWORD PTR [eax+12]
	push	ecx
	call	?ColorChannelBits@Ogre@@YAIW4_D3DFORMAT@@@Z ; Ogre::ColorChannelBits
	add	esp, 4
	mov	edx, DWORD PTR _desc$[ebp]
	cmp	eax, DWORD PTR [edx+20]
	jne	SHORT $LN29@FindBestFu
	mov	eax, DWORD PTR _pcombo$129198[ebp]
	mov	ecx, DWORD PTR [eax+12]
	push	ecx
	call	?AlphaChannelBits@Ogre@@YAIW4_D3DFORMAT@@@Z ; Ogre::AlphaChannelBits
	add	esp, 4
	mov	edx, DWORD PTR _desc$[ebp]
	cmp	eax, DWORD PTR [edx+24]
	jne	SHORT $LN29@FindBestFu
	mov	DWORD PTR tv130[ebp], 1
	jmp	SHORT $LN30@FindBestFu
$LN29@FindBestFu:
	mov	DWORD PTR tv130[ebp], 0
$LN30@FindBestFu:
	mov	eax, DWORD PTR tv130[ebp]
	mov	DWORD PTR _bmatch_format$129200[ebp], eax

; 699  : 			BOOL bmatch_bb = (pcombo->backbuffmt==pcombo->adapterfmt);

	mov	ecx, DWORD PTR _pcombo$129198[ebp]
	mov	edx, DWORD PTR _pcombo$129198[ebp]
	mov	eax, DWORD PTR [ecx+12]
	xor	ecx, ecx
	cmp	eax, DWORD PTR [edx+8]
	sete	cl
	mov	DWORD PTR _bmatch_bb$129201[ebp], ecx

; 700  : 
; 701  : 			if( pbestcombo == NULL ) pbestcombo = pcombo;

	cmp	DWORD PTR _pbestcombo$[ebp], 0
	jne	SHORT $LN22@FindBestFu
	mov	edx, DWORD PTR _pcombo$129198[ebp]
	mov	DWORD PTR _pbestcombo$[ebp], edx

; 702  : 			else 

	jmp	SHORT $LN21@FindBestFu
$LN22@FindBestFu:

; 703  : 			{
; 704  : 				if( ColorChannelBits(pbestcombo->backbuffmt)!=desc.colorbits || AlphaChannelBits(pbestcombo->backbuffmt)!=desc.alphabits )

	mov	eax, DWORD PTR _pbestcombo$[ebp]
	mov	ecx, DWORD PTR [eax+12]
	push	ecx
	call	?ColorChannelBits@Ogre@@YAIW4_D3DFORMAT@@@Z ; Ogre::ColorChannelBits
	add	esp, 4
	mov	edx, DWORD PTR _desc$[ebp]
	cmp	eax, DWORD PTR [edx+20]
	jne	SHORT $LN19@FindBestFu
	mov	eax, DWORD PTR _pbestcombo$[ebp]
	mov	ecx, DWORD PTR [eax+12]
	push	ecx
	call	?AlphaChannelBits@Ogre@@YAIW4_D3DFORMAT@@@Z ; Ogre::AlphaChannelBits
	add	esp, 4
	mov	edx, DWORD PTR _desc$[ebp]
	cmp	eax, DWORD PTR [edx+24]
	je	SHORT $LN20@FindBestFu
$LN19@FindBestFu:

; 705  : 				{
; 706  : 					if( bmatch_format ) pbestcombo = pcombo;

	cmp	DWORD PTR _bmatch_format$129200[ebp], 0
	je	SHORT $LN18@FindBestFu
	mov	eax, DWORD PTR _pcombo$129198[ebp]
	mov	DWORD PTR _pbestcombo$[ebp], eax
$LN18@FindBestFu:

; 707  : 				}

	jmp	SHORT $LN21@FindBestFu
$LN20@FindBestFu:

; 708  : 				else if( pbestcombo->backbuffmt != pbestcombo->adapterfmt )

	mov	ecx, DWORD PTR _pbestcombo$[ebp]
	mov	edx, DWORD PTR _pbestcombo$[ebp]
	mov	eax, DWORD PTR [ecx+12]
	cmp	eax, DWORD PTR [edx+8]
	je	SHORT $LN21@FindBestFu

; 709  : 				{
; 710  : 					if( bmatch_bb ) pbestcombo = pcombo;

	cmp	DWORD PTR _bmatch_bb$129201[ebp], 0
	je	SHORT $LN21@FindBestFu
	mov	ecx, DWORD PTR _pcombo$129198[ebp]
	mov	DWORD PTR _pbestcombo$[ebp], ecx
$LN21@FindBestFu:

; 711  : 				}
; 712  : 			}
; 713  : 		}

	jmp	$LN25@FindBestFu
$LN24@FindBestFu:

; 714  : 		m_Settings.pdevcombo = pbestcombo;

	mov	edx, DWORD PTR _this$[ebp]
	mov	eax, DWORD PTR _pbestcombo$[ebp]
	mov	DWORD PTR [edx+104], eax

; 715  : 		if( pbestcombo == NULL ) return;

	cmp	DWORD PTR _pbestcombo$[ebp], 0
	jne	SHORT $LN14@FindBestFu
	jmp	$LN27@FindBestFu
$LN14@FindBestFu:

; 716  : 
; 717  : 		//find a best display mode
; 718  : 		D3DDISPLAYMODE *pbestmode = NULL;

	mov	DWORD PTR _pbestmode$[ebp], 0

; 719  : 		for( SIZE_T imode=0; imode<m_Settings.padapter->modes.size(); imode++ )

	mov	DWORD PTR _imode$129212[ebp], 0
	jmp	SHORT $LN13@FindBestFu
$LN12@FindBestFu:
	mov	ecx, DWORD PTR _imode$129212[ebp]
	add	ecx, 1
	mov	DWORD PTR _imode$129212[ebp], ecx
$LN13@FindBestFu:
	mov	edx, DWORD PTR _this$[ebp]
	mov	ecx, DWORD PTR [edx+96]
	add	ecx, 1104				; 00000450H
	call	?size@?$vector@U_D3DDISPLAYMODE@@V?$allocator@U_D3DDISPLAYMODE@@@std@@@std@@QBEIXZ ; std::vector<_D3DDISPLAYMODE,std::allocator<_D3DDISPLAYMODE> >::size
	cmp	DWORD PTR _imode$129212[ebp], eax
	jae	$LN11@FindBestFu

; 720  : 		{
; 721  : 			D3DDISPLAYMODE &tmpmode = m_Settings.padapter->modes[imode];

	mov	eax, DWORD PTR _imode$129212[ebp]
	push	eax
	mov	ecx, DWORD PTR _this$[ebp]
	mov	ecx, DWORD PTR [ecx+96]
	add	ecx, 1104				; 00000450H
	call	??A?$vector@U_D3DDISPLAYMODE@@V?$allocator@U_D3DDISPLAYMODE@@@std@@@std@@QAEAAU_D3DDISPLAYMODE@@I@Z ; std::vector<_D3DDISPLAYMODE,std::allocator<_D3DDISPLAYMODE> >::operator[]
	mov	DWORD PTR _tmpmode$129216[ebp], eax

; 722  : 			if( pbestmode == NULL ) pbestmode = &tmpmode;

	cmp	DWORD PTR _pbestmode$[ebp], 0
	jne	SHORT $LN10@FindBestFu
	mov	edx, DWORD PTR _tmpmode$129216[ebp]
	mov	DWORD PTR _pbestmode$[ebp], edx
	jmp	SHORT $LN9@FindBestFu
$LN10@FindBestFu:

; 723  : 			else if( pbestmode->Width!=desc.width || pbestmode->Height!=desc.height || pbestmode->RefreshRate!=desktopmode.RefreshRate )

	mov	eax, DWORD PTR _pbestmode$[ebp]
	mov	ecx, DWORD PTR _desc$[ebp]
	mov	edx, DWORD PTR [eax]
	cmp	edx, DWORD PTR [ecx+12]
	jne	SHORT $LN7@FindBestFu
	mov	eax, DWORD PTR _pbestmode$[ebp]
	mov	ecx, DWORD PTR _desc$[ebp]
	mov	edx, DWORD PTR [eax+4]
	cmp	edx, DWORD PTR [ecx+16]
	jne	SHORT $LN7@FindBestFu
	mov	eax, DWORD PTR _pbestmode$[ebp]
	mov	ecx, DWORD PTR [eax+8]
	cmp	ecx, DWORD PTR _desktopmode$[ebp+8]
	je	SHORT $LN8@FindBestFu
$LN7@FindBestFu:

; 724  : 			{
; 725  : 				if( tmpmode.Width==desc.width&&tmpmode.Height==desc.height&&tmpmode.RefreshRate==desktopmode.RefreshRate )

	mov	edx, DWORD PTR _tmpmode$129216[ebp]
	mov	eax, DWORD PTR _desc$[ebp]
	mov	ecx, DWORD PTR [edx]
	cmp	ecx, DWORD PTR [eax+12]
	jne	SHORT $LN6@FindBestFu
	mov	edx, DWORD PTR _tmpmode$129216[ebp]
	mov	eax, DWORD PTR _desc$[ebp]
	mov	ecx, DWORD PTR [edx+4]
	cmp	ecx, DWORD PTR [eax+16]
	jne	SHORT $LN6@FindBestFu
	mov	edx, DWORD PTR _tmpmode$129216[ebp]
	mov	eax, DWORD PTR [edx+8]
	cmp	eax, DWORD PTR _desktopmode$[ebp+8]
	jne	SHORT $LN6@FindBestFu

; 726  : 					pbestmode = &tmpmode;

	mov	ecx, DWORD PTR _tmpmode$129216[ebp]
	mov	DWORD PTR _pbestmode$[ebp], ecx
$LN6@FindBestFu:

; 727  : 			}

	jmp	SHORT $LN9@FindBestFu
$LN8@FindBestFu:

; 728  : 			else if( pbestmode->Format != pbestcombo->adapterfmt )

	mov	edx, DWORD PTR _pbestmode$[ebp]
	mov	eax, DWORD PTR _pbestcombo$[ebp]
	mov	ecx, DWORD PTR [edx+12]
	cmp	ecx, DWORD PTR [eax+8]
	je	SHORT $LN9@FindBestFu

; 729  : 			{
; 730  : 				if( tmpmode.Format == pbestcombo->adapterfmt ) pbestmode = &tmpmode;

	mov	edx, DWORD PTR _tmpmode$129216[ebp]
	mov	eax, DWORD PTR _pbestcombo$[ebp]
	mov	ecx, DWORD PTR [edx+12]
	cmp	ecx, DWORD PTR [eax+8]
	jne	SHORT $LN9@FindBestFu
	mov	edx, DWORD PTR _tmpmode$129216[ebp]
	mov	DWORD PTR _pbestmode$[ebp], edx
$LN9@FindBestFu:

; 731  : 			}
; 732  : 		}

	jmp	$LN12@FindBestFu
$LN11@FindBestFu:

; 733  : 
; 734  : 		m_Settings.dispmode = *pbestmode;

	mov	eax, DWORD PTR _pbestmode$[ebp]
	mov	ecx, DWORD PTR _this$[ebp]
	add	ecx, 128				; 00000080H
	mov	edx, DWORD PTR [eax]
	mov	DWORD PTR [ecx], edx
	mov	edx, DWORD PTR [eax+4]
	mov	DWORD PTR [ecx+4], edx
	mov	edx, DWORD PTR [eax+8]
	mov	DWORD PTR [ecx+8], edx
	mov	eax, DWORD PTR [eax+12]
	mov	DWORD PTR [ecx+12], eax

; 735  : 
; 736  : 		if(desc.sync_refresh) 

	mov	ecx, DWORD PTR _desc$[ebp]
	movzx	edx, BYTE PTR [ecx+11]
	test	edx, edx
	je	SHORT $LN2@FindBestFu

; 737  : 			m_Settings.interval = D3DPRESENT_INTERVAL_ONE;

	mov	eax, DWORD PTR _this$[ebp]
	mov	DWORD PTR [eax+124], 1

; 738  : 		else 

	jmp	SHORT $LN1@FindBestFu
$LN2@FindBestFu:

; 739  : 			m_Settings.interval = D3DPRESENT_INTERVAL_IMMEDIATE;

	mov	ecx, DWORD PTR _this$[ebp]
	mov	DWORD PTR [ecx+124], -2147483648	; 80000000H
$LN1@FindBestFu:

; 740  : 
; 741  : 		m_Settings.msquality = 0;

	mov	edx, DWORD PTR _this$[ebp]
	mov	DWORD PTR [edx+116], 0
$LN27@FindBestFu:

; 742  : 	}

	mov	esp, ebp
	pop	ebp
	ret	4
?FindBestFullscreenMode@D3DEnumeration@Ogre@@AAEXABUInitDesc@RenderSystem@2@@Z ENDP ; Ogre::D3DEnumeration::FindBestFullscreenMode
_TEXT	ENDS
PUBLIC	??1?$_Vector_val@W4_D3DFORMAT@@V?$allocator@W4_D3DFORMAT@@@std@@@std@@QAE@XZ ; std::_Vector_val<enum _D3DFORMAT,std::allocator<enum _D3DFORMAT> >::~_Vector_val<enum _D3DFORMAT,std::allocator<enum _D3DFORMAT> >
PUBLIC	?_Buy@?$vector@W4_D3DFORMAT@@V?$allocator@W4_D3DFORMAT@@@std@@@std@@IAE_NI@Z ; std::vector<enum _D3DFORMAT,std::allocator<enum _D3DFORMAT> >::_Buy
PUBLIC	??0?$_Vector_val@W4_D3DFORMAT@@V?$allocator@W4_D3DFORMAT@@@std@@@std@@IAE@V?$allocator@W4_D3DFORMAT@@@1@@Z ; std::_Vector_val<enum _D3DFORMAT,std::allocator<enum _D3DFORMAT> >::_Vector_val<enum _D3DFORMAT,std::allocator<enum _D3DFORMAT> >
PUBLIC	??0?$allocator@W4_D3DFORMAT@@@std@@QAE@XZ	; std::allocator<enum _D3DFORMAT>::allocator<enum _D3DFORMAT>
;	COMDAT xdata$x
; File d:\program files (x86)\microsoft visual studio 9.0\vc\include\vector
xdata$x	SEGMENT
__unwindtable$??0?$vector@W4_D3DFORMAT@@V?$allocator@W4_D3DFORMAT@@@std@@@std@@QAE@XZ DD 0ffffffffH
	DD	FLAT:__unwindfunclet$??0?$vector@W4_D3DFORMAT@@V?$allocator@W4_D3DFORMAT@@@std@@@std@@QAE@XZ$0
__ehfuncinfo$??0?$vector@W4_D3DFORMAT@@V?$allocator@W4_D3DFORMAT@@@std@@@std@@QAE@XZ DD 019930522H
	DD	01H
	DD	FLAT:__unwindtable$??0?$vector@W4_D3DFORMAT@@V?$allocator@W4_D3DFORMAT@@@std@@@std@@QAE@XZ
	DD	2 DUP(00H)
	DD	2 DUP(00H)
	DD	00H
	DD	00H
; Function compile flags: /Odtp
xdata$x	ENDS
;	COMDAT ??0?$vector@W4_D3DFORMAT@@V?$allocator@W4_D3DFORMAT@@@std@@@std@@QAE@XZ
_TEXT	SEGMENT
_this$ = -20						; size = 4
$T141577 = -16						; size = 4
__$EHRec$ = -12						; size = 12
??0?$vector@W4_D3DFORMAT@@V?$allocator@W4_D3DFORMAT@@@std@@@std@@QAE@XZ PROC ; std::vector<enum _D3DFORMAT,std::allocator<enum _D3DFORMAT> >::vector<enum _D3DFORMAT,std::allocator<enum _D3DFORMAT> >, COMDAT
; _this$ = ecx

; 470  : 		{	// construct empty vector

	push	ebp
	mov	ebp, esp
	push	-1
	push	__ehhandler$??0?$vector@W4_D3DFORMAT@@V?$allocator@W4_D3DFORMAT@@@std@@@std@@QAE@XZ
	mov	eax, DWORD PTR fs:0
	push	eax
	sub	esp, 8
	mov	eax, DWORD PTR ___security_cookie
	xor	eax, ebp
	push	eax
	lea	eax, DWORD PTR __$EHRec$[ebp]
	mov	DWORD PTR fs:0, eax
	mov	DWORD PTR _this$[ebp], ecx
	push	ecx
	mov	ecx, esp
	mov	DWORD PTR $T141577[ebp], esp
	call	??0?$allocator@W4_D3DFORMAT@@@std@@QAE@XZ ; std::allocator<enum _D3DFORMAT>::allocator<enum _D3DFORMAT>
	mov	ecx, DWORD PTR _this$[ebp]
	call	??0?$_Vector_val@W4_D3DFORMAT@@V?$allocator@W4_D3DFORMAT@@@std@@@std@@IAE@V?$allocator@W4_D3DFORMAT@@@1@@Z ; std::_Vector_val<enum _D3DFORMAT,std::allocator<enum _D3DFORMAT> >::_Vector_val<enum _D3DFORMAT,std::allocator<enum _D3DFORMAT> >
	mov	DWORD PTR __$EHRec$[ebp+8], 0

; 471  : 		_Buy(0);

	push	0
	mov	ecx, DWORD PTR _this$[ebp]
	call	?_Buy@?$vector@W4_D3DFORMAT@@V?$allocator@W4_D3DFORMAT@@@std@@@std@@IAE_NI@Z ; std::vector<enum _D3DFORMAT,std::allocator<enum _D3DFORMAT> >::_Buy

; 472  : 		}

	mov	DWORD PTR __$EHRec$[ebp+8], -1
	mov	eax, DWORD PTR _this$[ebp]
	mov	ecx, DWORD PTR __$EHRec$[ebp]
	mov	DWORD PTR fs:0, ecx
	pop	ecx
	mov	esp, ebp
	pop	ebp
	ret	0
_TEXT	ENDS
;	COMDAT text$x
text$x	SEGMENT
__unwindfunclet$??0?$vector@W4_D3DFORMAT@@V?$allocator@W4_D3DFORMAT@@@std@@@std@@QAE@XZ$0:
	mov	ecx, DWORD PTR _this$[ebp]
	jmp	??1?$_Vector_val@W4_D3DFORMAT@@V?$allocator@W4_D3DFORMAT@@@std@@@std@@QAE@XZ
__ehhandler$??0?$vector@W4_D3DFORMAT@@V?$allocator@W4_D3DFORMAT@@@std@@@std@@QAE@XZ:
	mov	edx, DWORD PTR [esp+8]
	lea	eax, DWORD PTR [edx+12]
	mov	ecx, DWORD PTR [edx-12]
	xor	ecx, eax
	call	@__security_check_cookie@4
	mov	eax, OFFSET __ehfuncinfo$??0?$vector@W4_D3DFORMAT@@V?$allocator@W4_D3DFORMAT@@@std@@@std@@QAE@XZ
	jmp	___CxxFrameHandler3
text$x	ENDS
??0?$vector@W4_D3DFORMAT@@V?$allocator@W4_D3DFORMAT@@@std@@@std@@QAE@XZ ENDP ; std::vector<enum _D3DFORMAT,std::allocator<enum _D3DFORMAT> >::vector<enum _D3DFORMAT,std::allocator<enum _D3DFORMAT> >
PUBLIC	?_Tidy@?$vector@W4_D3DFORMAT@@V?$allocator@W4_D3DFORMAT@@@std@@@std@@IAEXXZ ; std::vector<enum _D3DFORMAT,std::allocator<enum _D3DFORMAT> >::_Tidy
;	COMDAT xdata$x
xdata$x	SEGMENT
__unwindtable$??1?$vector@W4_D3DFORMAT@@V?$allocator@W4_D3DFORMAT@@@std@@@std@@QAE@XZ DD 0ffffffffH
	DD	FLAT:__unwindfunclet$??1?$vector@W4_D3DFORMAT@@V?$allocator@W4_D3DFORMAT@@@std@@@std@@QAE@XZ$0
__ehfuncinfo$??1?$vector@W4_D3DFORMAT@@V?$allocator@W4_D3DFORMAT@@@std@@@std@@QAE@XZ DD 019930522H
	DD	01H
	DD	FLAT:__unwindtable$??1?$vector@W4_D3DFORMAT@@V?$allocator@W4_D3DFORMAT@@@std@@@std@@QAE@XZ
	DD	2 DUP(00H)
	DD	2 DUP(00H)
	DD	00H
	DD	00H
; Function compile flags: /Odtp
xdata$x	ENDS
;	COMDAT ??1?$vector@W4_D3DFORMAT@@V?$allocator@W4_D3DFORMAT@@@std@@@std@@QAE@XZ
_TEXT	SEGMENT
_this$ = -16						; size = 4
__$EHRec$ = -12						; size = 12
??1?$vector@W4_D3DFORMAT@@V?$allocator@W4_D3DFORMAT@@@std@@@std@@QAE@XZ PROC ; std::vector<enum _D3DFORMAT,std::allocator<enum _D3DFORMAT> >::~vector<enum _D3DFORMAT,std::allocator<enum _D3DFORMAT> >, COMDAT
; _this$ = ecx

; 558  : 		{	// destroy the object

	push	ebp
	mov	ebp, esp
	push	-1
	push	__ehhandler$??1?$vector@W4_D3DFORMAT@@V?$allocator@W4_D3DFORMAT@@@std@@@std@@QAE@XZ
	mov	eax, DWORD PTR fs:0
	push	eax
	push	ecx
	mov	eax, DWORD PTR ___security_cookie
	xor	eax, ebp
	push	eax
	lea	eax, DWORD PTR __$EHRec$[ebp]
	mov	DWORD PTR fs:0, eax
	mov	DWORD PTR _this$[ebp], ecx
	mov	DWORD PTR __$EHRec$[ebp+8], 0

; 559  : 		_Tidy();

	mov	ecx, DWORD PTR _this$[ebp]
	call	?_Tidy@?$vector@W4_D3DFORMAT@@V?$allocator@W4_D3DFORMAT@@@std@@@std@@IAEXXZ ; std::vector<enum _D3DFORMAT,std::allocator<enum _D3DFORMAT> >::_Tidy

; 560  : 		}

	mov	DWORD PTR __$EHRec$[ebp+8], -1
	mov	ecx, DWORD PTR _this$[ebp]
	call	??1?$_Vector_val@W4_D3DFORMAT@@V?$allocator@W4_D3DFORMAT@@@std@@@std@@QAE@XZ
	mov	ecx, DWORD PTR __$EHRec$[ebp]
	mov	DWORD PTR fs:0, ecx
	pop	ecx
	mov	esp, ebp
	pop	ebp
	ret	0
_TEXT	ENDS
;	COMDAT text$x
text$x	SEGMENT
__unwindfunclet$??1?$vector@W4_D3DFORMAT@@V?$allocator@W4_D3DFORMAT@@@std@@@std@@QAE@XZ$0:
	mov	ecx, DWORD PTR _this$[ebp]
	jmp	??1?$_Vector_val@W4_D3DFORMAT@@V?$allocator@W4_D3DFORMAT@@@std@@@std@@QAE@XZ
__ehhandler$??1?$vector@W4_D3DFORMAT@@V?$allocator@W4_D3DFORMAT@@@std@@@std@@QAE@XZ:
	mov	edx, DWORD PTR [esp+8]
	lea	eax, DWORD PTR [edx+12]
	mov	ecx, DWORD PTR [edx-8]
	xor	ecx, eax
	call	@__security_check_cookie@4
	mov	eax, OFFSET __ehfuncinfo$??1?$vector@W4_D3DFORMAT@@V?$allocator@W4_D3DFORMAT@@@std@@@std@@QAE@XZ
	jmp	___CxxFrameHandler3
text$x	ENDS
??1?$vector@W4_D3DFORMAT@@V?$allocator@W4_D3DFORMAT@@@std@@@std@@QAE@XZ ENDP ; std::vector<enum _D3DFORMAT,std::allocator<enum _D3DFORMAT> >::~vector<enum _D3DFORMAT,std::allocator<enum _D3DFORMAT> >
; Function compile flags: /Odtp
;	COMDAT ?size@?$vector@W4_D3DFORMAT@@V?$allocator@W4_D3DFORMAT@@@std@@@std@@QBEIXZ
_TEXT	SEGMENT
_this$ = -4						; size = 4
?size@?$vector@W4_D3DFORMAT@@V?$allocator@W4_D3DFORMAT@@@std@@@std@@QBEIXZ PROC ; std::vector<enum _D3DFORMAT,std::allocator<enum _D3DFORMAT> >::size, COMDAT
; _this$ = ecx

; 725  : 		{	// return length of sequence

	push	ebp
	mov	ebp, esp
	push	ecx
	mov	DWORD PTR _this$[ebp], ecx

; 726  : 		return (_Mylast - _Myfirst);

	mov	eax, DWORD PTR _this$[ebp]
	mov	ecx, DWORD PTR _this$[ebp]
	mov	eax, DWORD PTR [eax+16]
	sub	eax, DWORD PTR [ecx+12]
	sar	eax, 2

; 727  : 		}

	mov	esp, ebp
	pop	ebp
	ret	0
?size@?$vector@W4_D3DFORMAT@@V?$allocator@W4_D3DFORMAT@@@std@@@std@@QBEIXZ ENDP ; std::vector<enum _D3DFORMAT,std::allocator<enum _D3DFORMAT> >::size
; Function compile flags: /Odtp
_TEXT	ENDS
;	COMDAT ?empty@?$vector@W4_D3DFORMAT@@V?$allocator@W4_D3DFORMAT@@@std@@@std@@QBE_NXZ
_TEXT	SEGMENT
_this$ = -4						; size = 4
?empty@?$vector@W4_D3DFORMAT@@V?$allocator@W4_D3DFORMAT@@@std@@@std@@QBE_NXZ PROC ; std::vector<enum _D3DFORMAT,std::allocator<enum _D3DFORMAT> >::empty, COMDAT
; _this$ = ecx

; 735  : 		{	// test if sequence is empty

	push	ebp
	mov	ebp, esp
	push	ecx
	mov	DWORD PTR _this$[ebp], ecx

; 736  : 		return (size() == 0);

	mov	ecx, DWORD PTR _this$[ebp]
	call	?size@?$vector@W4_D3DFORMAT@@V?$allocator@W4_D3DFORMAT@@@std@@@std@@QBEIXZ ; std::vector<enum _D3DFORMAT,std::allocator<enum _D3DFORMAT> >::size
	neg	eax
	sbb	eax, eax
	add	eax, 1

; 737  : 		}

	mov	esp, ebp
	pop	ebp
	ret	0
?empty@?$vector@W4_D3DFORMAT@@V?$allocator@W4_D3DFORMAT@@@std@@@std@@QBE_NXZ ENDP ; std::vector<enum _D3DFORMAT,std::allocator<enum _D3DFORMAT> >::empty
_TEXT	ENDS
EXTRN	__imp___invalid_parameter_noinfo:PROC
; Function compile flags: /Odtp
;	COMDAT ??A?$vector@W4_D3DFORMAT@@V?$allocator@W4_D3DFORMAT@@@std@@@std@@QAEAAW4_D3DFORMAT@@I@Z
_TEXT	SEGMENT
_this$ = -4						; size = 4
__Pos$ = 8						; size = 4
??A?$vector@W4_D3DFORMAT@@V?$allocator@W4_D3DFORMAT@@@std@@@std@@QAEAAW4_D3DFORMAT@@I@Z PROC ; std::vector<enum _D3DFORMAT,std::allocator<enum _D3DFORMAT> >::operator[], COMDAT
; _this$ = ecx

; 774  : 		{	// subscript mutable sequence

	push	ebp
	mov	ebp, esp
	push	ecx
	mov	DWORD PTR _this$[ebp], ecx

; 775  : 
; 776  :  #if _HAS_ITERATOR_DEBUGGING
; 777  : 		if (size() <= _Pos)
; 778  : 			{
; 779  : 			_DEBUG_ERROR("vector subscript out of range");
; 780  : 			_SCL_SECURE_OUT_OF_RANGE;
; 781  : 			}
; 782  :  #endif /* _HAS_ITERATOR_DEBUGGING */
; 783  : 		_SCL_SECURE_VALIDATE_RANGE(_Pos < size());

	mov	ecx, DWORD PTR _this$[ebp]
	call	?size@?$vector@W4_D3DFORMAT@@V?$allocator@W4_D3DFORMAT@@@std@@@std@@QBEIXZ ; std::vector<enum _D3DFORMAT,std::allocator<enum _D3DFORMAT> >::size
	cmp	DWORD PTR __Pos$[ebp], eax
	jb	SHORT $LN1@operator
	call	DWORD PTR __imp___invalid_parameter_noinfo
$LN1@operator:

; 784  : 
; 785  : 		return (*(_Myfirst + _Pos));

	mov	eax, DWORD PTR _this$[ebp]
	mov	ecx, DWORD PTR [eax+12]
	mov	edx, DWORD PTR __Pos$[ebp]
	lea	eax, DWORD PTR [ecx+edx*4]

; 786  : 		}

	mov	esp, ebp
	pop	ebp
	ret	4
??A?$vector@W4_D3DFORMAT@@V?$allocator@W4_D3DFORMAT@@@std@@@std@@QAEAAW4_D3DFORMAT@@I@Z ENDP ; std::vector<enum _D3DFORMAT,std::allocator<enum _D3DFORMAT> >::operator[]
_TEXT	ENDS
PUBLIC	?insert@?$vector@W4_D3DFORMAT@@V?$allocator@W4_D3DFORMAT@@@std@@@std@@QAE?AV?$_Vector_iterator@W4_D3DFORMAT@@V?$allocator@W4_D3DFORMAT@@@std@@@2@V?$_Vector_const_iterator@W4_D3DFORMAT@@V?$allocator@W4_D3DFORMAT@@@std@@@2@ABW4_D3DFORMAT@@@Z ; std::vector<enum _D3DFORMAT,std::allocator<enum _D3DFORMAT> >::insert
PUBLIC	?end@?$vector@W4_D3DFORMAT@@V?$allocator@W4_D3DFORMAT@@@std@@@std@@QAE?AV?$_Vector_iterator@W4_D3DFORMAT@@V?$allocator@W4_D3DFORMAT@@@std@@@2@XZ ; std::vector<enum _D3DFORMAT,std::allocator<enum _D3DFORMAT> >::end
PUBLIC	?_Ufill@?$vector@W4_D3DFORMAT@@V?$allocator@W4_D3DFORMAT@@@std@@@std@@IAEPAW4_D3DFORMAT@@PAW43@IABW43@@Z ; std::vector<enum _D3DFORMAT,std::allocator<enum _D3DFORMAT> >::_Ufill
PUBLIC	?capacity@?$vector@W4_D3DFORMAT@@V?$allocator@W4_D3DFORMAT@@@std@@@std@@QBEIXZ ; std::vector<enum _D3DFORMAT,std::allocator<enum _D3DFORMAT> >::capacity
; Function compile flags: /Odtp
;	COMDAT ?push_back@?$vector@W4_D3DFORMAT@@V?$allocator@W4_D3DFORMAT@@@std@@@std@@QAEXABW4_D3DFORMAT@@@Z
_TEXT	SEGMENT
_this$ = -28						; size = 4
$T141604 = -24						; size = 8
$T141603 = -16						; size = 8
$T141602 = -8						; size = 8
__Val$ = 8						; size = 4
?push_back@?$vector@W4_D3DFORMAT@@V?$allocator@W4_D3DFORMAT@@@std@@@std@@QAEXABW4_D3DFORMAT@@@Z PROC ; std::vector<enum _D3DFORMAT,std::allocator<enum _D3DFORMAT> >::push_back, COMDAT
; _this$ = ecx

; 809  : 		{	// insert element at end

	push	ebp
	mov	ebp, esp
	sub	esp, 28					; 0000001cH
	push	esi
	mov	DWORD PTR _this$[ebp], ecx

; 810  : 		if (size() < capacity())

	mov	ecx, DWORD PTR _this$[ebp]
	call	?size@?$vector@W4_D3DFORMAT@@V?$allocator@W4_D3DFORMAT@@@std@@@std@@QBEIXZ ; std::vector<enum _D3DFORMAT,std::allocator<enum _D3DFORMAT> >::size
	mov	esi, eax
	mov	ecx, DWORD PTR _this$[ebp]
	call	?capacity@?$vector@W4_D3DFORMAT@@V?$allocator@W4_D3DFORMAT@@@std@@@std@@QBEIXZ ; std::vector<enum _D3DFORMAT,std::allocator<enum _D3DFORMAT> >::capacity
	cmp	esi, eax
	jae	SHORT $LN2@push_back

; 811  : 
; 812  :  #if _HAS_ITERATOR_DEBUGGING
; 813  : 			{ // room at end, construct it there
; 814  : 			_Orphan_range(_Mylast, _Mylast);
; 815  : 			_Mylast = _Ufill(_Mylast, 1, _Val);
; 816  : 			}
; 817  : 
; 818  :  #else /* _HAS_ITERATOR_DEBUGGING */
; 819  : 			_Mylast = _Ufill(_Mylast, 1, _Val);

	mov	eax, DWORD PTR __Val$[ebp]
	push	eax
	push	1
	mov	ecx, DWORD PTR _this$[ebp]
	mov	edx, DWORD PTR [ecx+16]
	push	edx
	mov	ecx, DWORD PTR _this$[ebp]
	call	?_Ufill@?$vector@W4_D3DFORMAT@@V?$allocator@W4_D3DFORMAT@@@std@@@std@@IAEPAW4_D3DFORMAT@@PAW43@IABW43@@Z ; std::vector<enum _D3DFORMAT,std::allocator<enum _D3DFORMAT> >::_Ufill
	mov	ecx, DWORD PTR _this$[ebp]
	mov	DWORD PTR [ecx+16], eax

; 820  :  #endif /* _HAS_ITERATOR_DEBUGGING */
; 821  : 
; 822  : 		else

	jmp	SHORT $LN3@push_back
$LN2@push_back:

; 823  : 			insert(end(), _Val);

	lea	edx, DWORD PTR $T141603[ebp]
	push	edx
	mov	ecx, DWORD PTR _this$[ebp]
	call	?end@?$vector@W4_D3DFORMAT@@V?$allocator@W4_D3DFORMAT@@@std@@@std@@QAE?AV?$_Vector_iterator@W4_D3DFORMAT@@V?$allocator@W4_D3DFORMAT@@@std@@@2@XZ ; std::vector<enum _D3DFORMAT,std::allocator<enum _D3DFORMAT> >::end
	mov	ecx, DWORD PTR [eax]
	mov	edx, DWORD PTR [eax+4]
	mov	DWORD PTR $T141602[ebp], ecx
	mov	DWORD PTR $T141602[ebp+4], edx
	mov	eax, DWORD PTR __Val$[ebp]
	push	eax
	mov	ecx, DWORD PTR $T141602[ebp+4]
	push	ecx
	mov	edx, DWORD PTR $T141602[ebp]
	push	edx
	lea	eax, DWORD PTR $T141604[ebp]
	push	eax
	mov	ecx, DWORD PTR _this$[ebp]
	call	?insert@?$vector@W4_D3DFORMAT@@V?$allocator@W4_D3DFORMAT@@@std@@@std@@QAE?AV?$_Vector_iterator@W4_D3DFORMAT@@V?$allocator@W4_D3DFORMAT@@@std@@@2@V?$_Vector_const_iterator@W4_D3DFORMAT@@V?$allocator@W4_D3DFORMAT@@@std@@@2@ABW4_D3DFORMAT@@@Z ; std::vector<enum _D3DFORMAT,std::allocator<enum _D3DFORMAT> >::insert
$LN3@push_back:

; 824  : 		}

	pop	esi
	mov	esp, ebp
	pop	ebp
	ret	4
?push_back@?$vector@W4_D3DFORMAT@@V?$allocator@W4_D3DFORMAT@@@std@@@std@@QAEXABW4_D3DFORMAT@@@Z ENDP ; std::vector<enum _D3DFORMAT,std::allocator<enum _D3DFORMAT> >::push_back
_TEXT	ENDS
PUBLIC	??1?$_Vector_val@W4_D3DMULTISAMPLE_TYPE@@V?$allocator@W4_D3DMULTISAMPLE_TYPE@@@std@@@std@@QAE@XZ ; std::_Vector_val<enum _D3DMULTISAMPLE_TYPE,std::allocator<enum _D3DMULTISAMPLE_TYPE> >::~_Vector_val<enum _D3DMULTISAMPLE_TYPE,std::allocator<enum _D3DMULTISAMPLE_TYPE> >
PUBLIC	?_Buy@?$vector@W4_D3DMULTISAMPLE_TYPE@@V?$allocator@W4_D3DMULTISAMPLE_TYPE@@@std@@@std@@IAE_NI@Z ; std::vector<enum _D3DMULTISAMPLE_TYPE,std::allocator<enum _D3DMULTISAMPLE_TYPE> >::_Buy
PUBLIC	??0?$_Vector_val@W4_D3DMULTISAMPLE_TYPE@@V?$allocator@W4_D3DMULTISAMPLE_TYPE@@@std@@@std@@IAE@V?$allocator@W4_D3DMULTISAMPLE_TYPE@@@1@@Z ; std::_Vector_val<enum _D3DMULTISAMPLE_TYPE,std::allocator<enum _D3DMULTISAMPLE_TYPE> >::_Vector_val<enum _D3DMULTISAMPLE_TYPE,std::allocator<enum _D3DMULTISAMPLE_TYPE> >
PUBLIC	??0?$allocator@W4_D3DMULTISAMPLE_TYPE@@@std@@QAE@XZ ; std::allocator<enum _D3DMULTISAMPLE_TYPE>::allocator<enum _D3DMULTISAMPLE_TYPE>
;	COMDAT xdata$x
xdata$x	SEGMENT
__unwindtable$??0?$vector@W4_D3DMULTISAMPLE_TYPE@@V?$allocator@W4_D3DMULTISAMPLE_TYPE@@@std@@@std@@QAE@XZ DD 0ffffffffH
	DD	FLAT:__unwindfunclet$??0?$vector@W4_D3DMULTISAMPLE_TYPE@@V?$allocator@W4_D3DMULTISAMPLE_TYPE@@@std@@@std@@QAE@XZ$0
__ehfuncinfo$??0?$vector@W4_D3DMULTISAMPLE_TYPE@@V?$allocator@W4_D3DMULTISAMPLE_TYPE@@@std@@@std@@QAE@XZ DD 019930522H
	DD	01H
	DD	FLAT:__unwindtable$??0?$vector@W4_D3DMULTISAMPLE_TYPE@@V?$allocator@W4_D3DMULTISAMPLE_TYPE@@@std@@@std@@QAE@XZ
	DD	2 DUP(00H)
	DD	2 DUP(00H)
	DD	00H
	DD	00H
; Function compile flags: /Odtp
xdata$x	ENDS
;	COMDAT ??0?$vector@W4_D3DMULTISAMPLE_TYPE@@V?$allocator@W4_D3DMULTISAMPLE_TYPE@@@std@@@std@@QAE@XZ
_TEXT	SEGMENT
_this$ = -20						; size = 4
$T141607 = -16						; size = 4
__$EHRec$ = -12						; size = 12
??0?$vector@W4_D3DMULTISAMPLE_TYPE@@V?$allocator@W4_D3DMULTISAMPLE_TYPE@@@std@@@std@@QAE@XZ PROC ; std::vector<enum _D3DMULTISAMPLE_TYPE,std::allocator<enum _D3DMULTISAMPLE_TYPE> >::vector<enum _D3DMULTISAMPLE_TYPE,std::allocator<enum _D3DMULTISAMPLE_TYPE> >, COMDAT
; _this$ = ecx

; 470  : 		{	// construct empty vector

	push	ebp
	mov	ebp, esp
	push	-1
	push	__ehhandler$??0?$vector@W4_D3DMULTISAMPLE_TYPE@@V?$allocator@W4_D3DMULTISAMPLE_TYPE@@@std@@@std@@QAE@XZ
	mov	eax, DWORD PTR fs:0
	push	eax
	sub	esp, 8
	mov	eax, DWORD PTR ___security_cookie
	xor	eax, ebp
	push	eax
	lea	eax, DWORD PTR __$EHRec$[ebp]
	mov	DWORD PTR fs:0, eax
	mov	DWORD PTR _this$[ebp], ecx
	push	ecx
	mov	ecx, esp
	mov	DWORD PTR $T141607[ebp], esp
	call	??0?$allocator@W4_D3DMULTISAMPLE_TYPE@@@std@@QAE@XZ ; std::allocator<enum _D3DMULTISAMPLE_TYPE>::allocator<enum _D3DMULTISAMPLE_TYPE>
	mov	ecx, DWORD PTR _this$[ebp]
	call	??0?$_Vector_val@W4_D3DMULTISAMPLE_TYPE@@V?$allocator@W4_D3DMULTISAMPLE_TYPE@@@std@@@std@@IAE@V?$allocator@W4_D3DMULTISAMPLE_TYPE@@@1@@Z ; std::_Vector_val<enum _D3DMULTISAMPLE_TYPE,std::allocator<enum _D3DMULTISAMPLE_TYPE> >::_Vector_val<enum _D3DMULTISAMPLE_TYPE,std::allocator<enum _D3DMULTISAMPLE_TYPE> >
	mov	DWORD PTR __$EHRec$[ebp+8], 0

; 471  : 		_Buy(0);

	push	0
	mov	ecx, DWORD PTR _this$[ebp]
	call	?_Buy@?$vector@W4_D3DMULTISAMPLE_TYPE@@V?$allocator@W4_D3DMULTISAMPLE_TYPE@@@std@@@std@@IAE_NI@Z ; std::vector<enum _D3DMULTISAMPLE_TYPE,std::allocator<enum _D3DMULTISAMPLE_TYPE> >::_Buy

; 472  : 		}

	mov	DWORD PTR __$EHRec$[ebp+8], -1
	mov	eax, DWORD PTR _this$[ebp]
	mov	ecx, DWORD PTR __$EHRec$[ebp]
	mov	DWORD PTR fs:0, ecx
	pop	ecx
	mov	esp, ebp
	pop	ebp
	ret	0
_TEXT	ENDS
;	COMDAT text$x
text$x	SEGMENT
__unwindfunclet$??0?$vector@W4_D3DMULTISAMPLE_TYPE@@V?$allocator@W4_D3DMULTISAMPLE_TYPE@@@std@@@std@@QAE@XZ$0:
	mov	ecx, DWORD PTR _this$[ebp]
	jmp	??1?$_Vector_val@W4_D3DMULTISAMPLE_TYPE@@V?$allocator@W4_D3DMULTISAMPLE_TYPE@@@std@@@std@@QAE@XZ
__ehhandler$??0?$vector@W4_D3DMULTISAMPLE_TYPE@@V?$allocator@W4_D3DMULTISAMPLE_TYPE@@@std@@@std@@QAE@XZ:
	mov	edx, DWORD PTR [esp+8]
	lea	eax, DWORD PTR [edx+12]
	mov	ecx, DWORD PTR [edx-12]
	xor	ecx, eax
	call	@__security_check_cookie@4
	mov	eax, OFFSET __ehfuncinfo$??0?$vector@W4_D3DMULTISAMPLE_TYPE@@V?$allocator@W4_D3DMULTISAMPLE_TYPE@@@std@@@std@@QAE@XZ
	jmp	___CxxFrameHandler3
text$x	ENDS
??0?$vector@W4_D3DMULTISAMPLE_TYPE@@V?$allocator@W4_D3DMULTISAMPLE_TYPE@@@std@@@std@@QAE@XZ ENDP ; std::vector<enum _D3DMULTISAMPLE_TYPE,std::allocator<enum _D3DMULTISAMPLE_TYPE> >::vector<enum _D3DMULTISAMPLE_TYPE,std::allocator<enum _D3DMULTISAMPLE_TYPE> >
PUBLIC	?_Tidy@?$vector@W4_D3DMULTISAMPLE_TYPE@@V?$allocator@W4_D3DMULTISAMPLE_TYPE@@@std@@@std@@IAEXXZ ; std::vector<enum _D3DMULTISAMPLE_TYPE,std::allocator<enum _D3DMULTISAMPLE_TYPE> >::_Tidy
;	COMDAT xdata$x
xdata$x	SEGMENT
__unwindtable$??1?$vector@W4_D3DMULTISAMPLE_TYPE@@V?$allocator@W4_D3DMULTISAMPLE_TYPE@@@std@@@std@@QAE@XZ DD 0ffffffffH
	DD	FLAT:__unwindfunclet$??1?$vector@W4_D3DMULTISAMPLE_TYPE@@V?$allocator@W4_D3DMULTISAMPLE_TYPE@@@std@@@std@@QAE@XZ$0
__ehfuncinfo$??1?$vector@W4_D3DMULTISAMPLE_TYPE@@V?$allocator@W4_D3DMULTISAMPLE_TYPE@@@std@@@std@@QAE@XZ DD 019930522H
	DD	01H
	DD	FLAT:__unwindtable$??1?$vector@W4_D3DMULTISAMPLE_TYPE@@V?$allocator@W4_D3DMULTISAMPLE_TYPE@@@std@@@std@@QAE@XZ
	DD	2 DUP(00H)
	DD	2 DUP(00H)
	DD	00H
	DD	00H
; Function compile flags: /Odtp
xdata$x	ENDS
;	COMDAT ??1?$vector@W4_D3DMULTISAMPLE_TYPE@@V?$allocator@W4_D3DMULTISAMPLE_TYPE@@@std@@@std@@QAE@XZ
_TEXT	SEGMENT
_this$ = -16						; size = 4
__$EHRec$ = -12						; size = 12
??1?$vector@W4_D3DMULTISAMPLE_TYPE@@V?$allocator@W4_D3DMULTISAMPLE_TYPE@@@std@@@std@@QAE@XZ PROC ; std::vector<enum _D3DMULTISAMPLE_TYPE,std::allocator<enum _D3DMULTISAMPLE_TYPE> >::~vector<enum _D3DMULTISAMPLE_TYPE,std::allocator<enum _D3DMULTISAMPLE_TYPE> >, COMDAT
; _this$ = ecx

; 558  : 		{	// destroy the object

	push	ebp
	mov	ebp, esp
	push	-1
	push	__ehhandler$??1?$vector@W4_D3DMULTISAMPLE_TYPE@@V?$allocator@W4_D3DMULTISAMPLE_TYPE@@@std@@@std@@QAE@XZ
	mov	eax, DWORD PTR fs:0
	push	eax
	push	ecx
	mov	eax, DWORD PTR ___security_cookie
	xor	eax, ebp
	push	eax
	lea	eax, DWORD PTR __$EHRec$[ebp]
	mov	DWORD PTR fs:0, eax
	mov	DWORD PTR _this$[ebp], ecx
	mov	DWORD PTR __$EHRec$[ebp+8], 0

; 559  : 		_Tidy();

	mov	ecx, DWORD PTR _this$[ebp]
	call	?_Tidy@?$vector@W4_D3DMULTISAMPLE_TYPE@@V?$allocator@W4_D3DMULTISAMPLE_TYPE@@@std@@@std@@IAEXXZ ; std::vector<enum _D3DMULTISAMPLE_TYPE,std::allocator<enum _D3DMULTISAMPLE_TYPE> >::_Tidy

; 560  : 		}

	mov	DWORD PTR __$EHRec$[ebp+8], -1
	mov	ecx, DWORD PTR _this$[ebp]
	call	??1?$_Vector_val@W4_D3DMULTISAMPLE_TYPE@@V?$allocator@W4_D3DMULTISAMPLE_TYPE@@@std@@@std@@QAE@XZ
	mov	ecx, DWORD PTR __$EHRec$[ebp]
	mov	DWORD PTR fs:0, ecx
	pop	ecx
	mov	esp, ebp
	pop	ebp
	ret	0
_TEXT	ENDS
;	COMDAT text$x
text$x	SEGMENT
__unwindfunclet$??1?$vector@W4_D3DMULTISAMPLE_TYPE@@V?$allocator@W4_D3DMULTISAMPLE_TYPE@@@std@@@std@@QAE@XZ$0:
	mov	ecx, DWORD PTR _this$[ebp]
	jmp	??1?$_Vector_val@W4_D3DMULTISAMPLE_TYPE@@V?$allocator@W4_D3DMULTISAMPLE_TYPE@@@std@@@std@@QAE@XZ
__ehhandler$??1?$vector@W4_D3DMULTISAMPLE_TYPE@@V?$allocator@W4_D3DMULTISAMPLE_TYPE@@@std@@@std@@QAE@XZ:
	mov	edx, DWORD PTR [esp+8]
	lea	eax, DWORD PTR [edx+12]
	mov	ecx, DWORD PTR [edx-8]
	xor	ecx, eax
	call	@__security_check_cookie@4
	mov	eax, OFFSET __ehfuncinfo$??1?$vector@W4_D3DMULTISAMPLE_TYPE@@V?$allocator@W4_D3DMULTISAMPLE_TYPE@@@std@@@std@@QAE@XZ
	jmp	___CxxFrameHandler3
text$x	ENDS
??1?$vector@W4_D3DMULTISAMPLE_TYPE@@V?$allocator@W4_D3DMULTISAMPLE_TYPE@@@std@@@std@@QAE@XZ ENDP ; std::vector<enum _D3DMULTISAMPLE_TYPE,std::allocator<enum _D3DMULTISAMPLE_TYPE> >::~vector<enum _D3DMULTISAMPLE_TYPE,std::allocator<enum _D3DMULTISAMPLE_TYPE> >
; Function compile flags: /Odtp
;	COMDAT ?size@?$vector@W4_D3DMULTISAMPLE_TYPE@@V?$allocator@W4_D3DMULTISAMPLE_TYPE@@@std@@@std@@QBEIXZ
_TEXT	SEGMENT
_this$ = -4						; size = 4
?size@?$vector@W4_D3DMULTISAMPLE_TYPE@@V?$allocator@W4_D3DMULTISAMPLE_TYPE@@@std@@@std@@QBEIXZ PROC ; std::vector<enum _D3DMULTISAMPLE_TYPE,std::allocator<enum _D3DMULTISAMPLE_TYPE> >::size, COMDAT
; _this$ = ecx

; 725  : 		{	// return length of sequence

	push	ebp
	mov	ebp, esp
	push	ecx
	mov	DWORD PTR _this$[ebp], ecx

; 726  : 		return (_Mylast - _Myfirst);

	mov	eax, DWORD PTR _this$[ebp]
	mov	ecx, DWORD PTR _this$[ebp]
	mov	eax, DWORD PTR [eax+16]
	sub	eax, DWORD PTR [ecx+12]
	sar	eax, 2

; 727  : 		}

	mov	esp, ebp
	pop	ebp
	ret	0
?size@?$vector@W4_D3DMULTISAMPLE_TYPE@@V?$allocator@W4_D3DMULTISAMPLE_TYPE@@@std@@@std@@QBEIXZ ENDP ; std::vector<enum _D3DMULTISAMPLE_TYPE,std::allocator<enum _D3DMULTISAMPLE_TYPE> >::size
; Function compile flags: /Odtp
_TEXT	ENDS
;	COMDAT ?empty@?$vector@W4_D3DMULTISAMPLE_TYPE@@V?$allocator@W4_D3DMULTISAMPLE_TYPE@@@std@@@std@@QBE_NXZ
_TEXT	SEGMENT
_this$ = -4						; size = 4
?empty@?$vector@W4_D3DMULTISAMPLE_TYPE@@V?$allocator@W4_D3DMULTISAMPLE_TYPE@@@std@@@std@@QBE_NXZ PROC ; std::vector<enum _D3DMULTISAMPLE_TYPE,std::allocator<enum _D3DMULTISAMPLE_TYPE> >::empty, COMDAT
; _this$ = ecx

; 735  : 		{	// test if sequence is empty

	push	ebp
	mov	ebp, esp
	push	ecx
	mov	DWORD PTR _this$[ebp], ecx

; 736  : 		return (size() == 0);

	mov	ecx, DWORD PTR _this$[ebp]
	call	?size@?$vector@W4_D3DMULTISAMPLE_TYPE@@V?$allocator@W4_D3DMULTISAMPLE_TYPE@@@std@@@std@@QBEIXZ ; std::vector<enum _D3DMULTISAMPLE_TYPE,std::allocator<enum _D3DMULTISAMPLE_TYPE> >::size
	neg	eax
	sbb	eax, eax
	add	eax, 1

; 737  : 		}

	mov	esp, ebp
	pop	ebp
	ret	0
?empty@?$vector@W4_D3DMULTISAMPLE_TYPE@@V?$allocator@W4_D3DMULTISAMPLE_TYPE@@@std@@@std@@QBE_NXZ ENDP ; std::vector<enum _D3DMULTISAMPLE_TYPE,std::allocator<enum _D3DMULTISAMPLE_TYPE> >::empty
; Function compile flags: /Odtp
_TEXT	ENDS
;	COMDAT ??A?$vector@W4_D3DMULTISAMPLE_TYPE@@V?$allocator@W4_D3DMULTISAMPLE_TYPE@@@std@@@std@@QAEAAW4_D3DMULTISAMPLE_TYPE@@I@Z
_TEXT	SEGMENT
_this$ = -4						; size = 4
__Pos$ = 8						; size = 4
??A?$vector@W4_D3DMULTISAMPLE_TYPE@@V?$allocator@W4_D3DMULTISAMPLE_TYPE@@@std@@@std@@QAEAAW4_D3DMULTISAMPLE_TYPE@@I@Z PROC ; std::vector<enum _D3DMULTISAMPLE_TYPE,std::allocator<enum _D3DMULTISAMPLE_TYPE> >::operator[], COMDAT
; _this$ = ecx

; 774  : 		{	// subscript mutable sequence

	push	ebp
	mov	ebp, esp
	push	ecx
	mov	DWORD PTR _this$[ebp], ecx

; 775  : 
; 776  :  #if _HAS_ITERATOR_DEBUGGING
; 777  : 		if (size() <= _Pos)
; 778  : 			{
; 779  : 			_DEBUG_ERROR("vector subscript out of range");
; 780  : 			_SCL_SECURE_OUT_OF_RANGE;
; 781  : 			}
; 782  :  #endif /* _HAS_ITERATOR_DEBUGGING */
; 783  : 		_SCL_SECURE_VALIDATE_RANGE(_Pos < size());

	mov	ecx, DWORD PTR _this$[ebp]
	call	?size@?$vector@W4_D3DMULTISAMPLE_TYPE@@V?$allocator@W4_D3DMULTISAMPLE_TYPE@@@std@@@std@@QBEIXZ ; std::vector<enum _D3DMULTISAMPLE_TYPE,std::allocator<enum _D3DMULTISAMPLE_TYPE> >::size
	cmp	DWORD PTR __Pos$[ebp], eax
	jb	SHORT $LN1@operator@2
	call	DWORD PTR __imp___invalid_parameter_noinfo
$LN1@operator@2:

; 784  : 
; 785  : 		return (*(_Myfirst + _Pos));

	mov	eax, DWORD PTR _this$[ebp]
	mov	ecx, DWORD PTR [eax+12]
	mov	edx, DWORD PTR __Pos$[ebp]
	lea	eax, DWORD PTR [ecx+edx*4]

; 786  : 		}

	mov	esp, ebp
	pop	ebp
	ret	4
??A?$vector@W4_D3DMULTISAMPLE_TYPE@@V?$allocator@W4_D3DMULTISAMPLE_TYPE@@@std@@@std@@QAEAAW4_D3DMULTISAMPLE_TYPE@@I@Z ENDP ; std::vector<enum _D3DMULTISAMPLE_TYPE,std::allocator<enum _D3DMULTISAMPLE_TYPE> >::operator[]
_TEXT	ENDS
PUBLIC	?insert@?$vector@W4_D3DMULTISAMPLE_TYPE@@V?$allocator@W4_D3DMULTISAMPLE_TYPE@@@std@@@std@@QAE?AV?$_Vector_iterator@W4_D3DMULTISAMPLE_TYPE@@V?$allocator@W4_D3DMULTISAMPLE_TYPE@@@std@@@2@V?$_Vector_const_iterator@W4_D3DMULTISAMPLE_TYPE@@V?$allocator@W4_D3DMULTISAMPLE_TYPE@@@std@@@2@ABW4_D3DMULTISAMPLE_TYPE@@@Z ; std::vector<enum _D3DMULTISAMPLE_TYPE,std::allocator<enum _D3DMULTISAMPLE_TYPE> >::insert
PUBLIC	?end@?$vector@W4_D3DMULTISAMPLE_TYPE@@V?$allocator@W4_D3DMULTISAMPLE_TYPE@@@std@@@std@@QAE?AV?$_Vector_iterator@W4_D3DMULTISAMPLE_TYPE@@V?$allocator@W4_D3DMULTISAMPLE_TYPE@@@std@@@2@XZ ; std::vector<enum _D3DMULTISAMPLE_TYPE,std::allocator<enum _D3DMULTISAMPLE_TYPE> >::end
PUBLIC	?_Ufill@?$vector@W4_D3DMULTISAMPLE_TYPE@@V?$allocator@W4_D3DMULTISAMPLE_TYPE@@@std@@@std@@IAEPAW4_D3DMULTISAMPLE_TYPE@@PAW43@IABW43@@Z ; std::vector<enum _D3DMULTISAMPLE_TYPE,std::allocator<enum _D3DMULTISAMPLE_TYPE> >::_Ufill
PUBLIC	?capacity@?$vector@W4_D3DMULTISAMPLE_TYPE@@V?$allocator@W4_D3DMULTISAMPLE_TYPE@@@std@@@std@@QBEIXZ ; std::vector<enum _D3DMULTISAMPLE_TYPE,std::allocator<enum _D3DMULTISAMPLE_TYPE> >::capacity
; Function compile flags: /Odtp
;	COMDAT ?push_back@?$vector@W4_D3DMULTISAMPLE_TYPE@@V?$allocator@W4_D3DMULTISAMPLE_TYPE@@@std@@@std@@QAEXABW4_D3DMULTISAMPLE_TYPE@@@Z
_TEXT	SEGMENT
_this$ = -28						; size = 4
$T141634 = -24						; size = 8
$T141633 = -16						; size = 8
$T141632 = -8						; size = 8
__Val$ = 8						; size = 4
?push_back@?$vector@W4_D3DMULTISAMPLE_TYPE@@V?$allocator@W4_D3DMULTISAMPLE_TYPE@@@std@@@std@@QAEXABW4_D3DMULTISAMPLE_TYPE@@@Z PROC ; std::vector<enum _D3DMULTISAMPLE_TYPE,std::allocator<enum _D3DMULTISAMPLE_TYPE> >::push_back, COMDAT
; _this$ = ecx

; 809  : 		{	// insert element at end

	push	ebp
	mov	ebp, esp
	sub	esp, 28					; 0000001cH
	push	esi
	mov	DWORD PTR _this$[ebp], ecx

; 810  : 		if (size() < capacity())

	mov	ecx, DWORD PTR _this$[ebp]
	call	?size@?$vector@W4_D3DMULTISAMPLE_TYPE@@V?$allocator@W4_D3DMULTISAMPLE_TYPE@@@std@@@std@@QBEIXZ ; std::vector<enum _D3DMULTISAMPLE_TYPE,std::allocator<enum _D3DMULTISAMPLE_TYPE> >::size
	mov	esi, eax
	mov	ecx, DWORD PTR _this$[ebp]
	call	?capacity@?$vector@W4_D3DMULTISAMPLE_TYPE@@V?$allocator@W4_D3DMULTISAMPLE_TYPE@@@std@@@std@@QBEIXZ ; std::vector<enum _D3DMULTISAMPLE_TYPE,std::allocator<enum _D3DMULTISAMPLE_TYPE> >::capacity
	cmp	esi, eax
	jae	SHORT $LN2@push_back@2

; 811  : 
; 812  :  #if _HAS_ITERATOR_DEBUGGING
; 813  : 			{ // room at end, construct it there
; 814  : 			_Orphan_range(_Mylast, _Mylast);
; 815  : 			_Mylast = _Ufill(_Mylast, 1, _Val);
; 816  : 			}
; 817  : 
; 818  :  #else /* _HAS_ITERATOR_DEBUGGING */
; 819  : 			_Mylast = _Ufill(_Mylast, 1, _Val);

	mov	eax, DWORD PTR __Val$[ebp]
	push	eax
	push	1
	mov	ecx, DWORD PTR _this$[ebp]
	mov	edx, DWORD PTR [ecx+16]
	push	edx
	mov	ecx, DWORD PTR _this$[ebp]
	call	?_Ufill@?$vector@W4_D3DMULTISAMPLE_TYPE@@V?$allocator@W4_D3DMULTISAMPLE_TYPE@@@std@@@std@@IAEPAW4_D3DMULTISAMPLE_TYPE@@PAW43@IABW43@@Z ; std::vector<enum _D3DMULTISAMPLE_TYPE,std::allocator<enum _D3DMULTISAMPLE_TYPE> >::_Ufill
	mov	ecx, DWORD PTR _this$[ebp]
	mov	DWORD PTR [ecx+16], eax

; 820  :  #endif /* _HAS_ITERATOR_DEBUGGING */
; 821  : 
; 822  : 		else

	jmp	SHORT $LN3@push_back@2
$LN2@push_back@2:

; 823  : 			insert(end(), _Val);

	lea	edx, DWORD PTR $T141633[ebp]
	push	edx
	mov	ecx, DWORD PTR _this$[ebp]
	call	?end@?$vector@W4_D3DMULTISAMPLE_TYPE@@V?$allocator@W4_D3DMULTISAMPLE_TYPE@@@std@@@std@@QAE?AV?$_Vector_iterator@W4_D3DMULTISAMPLE_TYPE@@V?$allocator@W4_D3DMULTISAMPLE_TYPE@@@std@@@2@XZ ; std::vector<enum _D3DMULTISAMPLE_TYPE,std::allocator<enum _D3DMULTISAMPLE_TYPE> >::end
	mov	ecx, DWORD PTR [eax]
	mov	edx, DWORD PTR [eax+4]
	mov	DWORD PTR $T141632[ebp], ecx
	mov	DWORD PTR $T141632[ebp+4], edx
	mov	eax, DWORD PTR __Val$[ebp]
	push	eax
	mov	ecx, DWORD PTR $T141632[ebp+4]
	push	ecx
	mov	edx, DWORD PTR $T141632[ebp]
	push	edx
	lea	eax, DWORD PTR $T141634[ebp]
	push	eax
	mov	ecx, DWORD PTR _this$[ebp]
	call	?insert@?$vector@W4_D3DMULTISAMPLE_TYPE@@V?$allocator@W4_D3DMULTISAMPLE_TYPE@@@std@@@std@@QAE?AV?$_Vector_iterator@W4_D3DMULTISAMPLE_TYPE@@V?$allocator@W4_D3DMULTISAMPLE_TYPE@@@std@@@2@V?$_Vector_const_iterator@W4_D3DMULTISAMPLE_TYPE@@V?$allocator@W4_D3DMULTISAMPLE_TYPE@@@std@@@2@ABW4_D3DMULTISAMPLE_TYPE@@@Z ; std::vector<enum _D3DMULTISAMPLE_TYPE,std::allocator<enum _D3DMULTISAMPLE_TYPE> >::insert
$LN3@push_back@2:

; 824  : 		}

	pop	esi
	mov	esp, ebp
	pop	ebp
	ret	4
?push_back@?$vector@W4_D3DMULTISAMPLE_TYPE@@V?$allocator@W4_D3DMULTISAMPLE_TYPE@@@std@@@std@@QAEXABW4_D3DMULTISAMPLE_TYPE@@@Z ENDP ; std::vector<enum _D3DMULTISAMPLE_TYPE,std::allocator<enum _D3DMULTISAMPLE_TYPE> >::push_back
_TEXT	ENDS
PUBLIC	??1?$_Vector_val@IV?$allocator@I@std@@@std@@QAE@XZ ; std::_Vector_val<unsigned int,std::allocator<unsigned int> >::~_Vector_val<unsigned int,std::allocator<unsigned int> >
PUBLIC	?_Buy@?$vector@IV?$allocator@I@std@@@std@@IAE_NI@Z ; std::vector<unsigned int,std::allocator<unsigned int> >::_Buy
PUBLIC	??0?$_Vector_val@IV?$allocator@I@std@@@std@@IAE@V?$allocator@I@1@@Z ; std::_Vector_val<unsigned int,std::allocator<unsigned int> >::_Vector_val<unsigned int,std::allocator<unsigned int> >
PUBLIC	??0?$allocator@I@std@@QAE@XZ			; std::allocator<unsigned int>::allocator<unsigned int>
;	COMDAT xdata$x
xdata$x	SEGMENT
__unwindtable$??0?$vector@IV?$allocator@I@std@@@std@@QAE@XZ DD 0ffffffffH
	DD	FLAT:__unwindfunclet$??0?$vector@IV?$allocator@I@std@@@std@@QAE@XZ$0
__ehfuncinfo$??0?$vector@IV?$allocator@I@std@@@std@@QAE@XZ DD 019930522H
	DD	01H
	DD	FLAT:__unwindtable$??0?$vector@IV?$allocator@I@std@@@std@@QAE@XZ
	DD	2 DUP(00H)
	DD	2 DUP(00H)
	DD	00H
	DD	00H
; Function compile flags: /Odtp
xdata$x	ENDS
;	COMDAT ??0?$vector@IV?$allocator@I@std@@@std@@QAE@XZ
_TEXT	SEGMENT
_this$ = -20						; size = 4
$T141637 = -16						; size = 4
__$EHRec$ = -12						; size = 12
??0?$vector@IV?$allocator@I@std@@@std@@QAE@XZ PROC	; std::vector<unsigned int,std::allocator<unsigned int> >::vector<unsigned int,std::allocator<unsigned int> >, COMDAT
; _this$ = ecx

; 470  : 		{	// construct empty vector

	push	ebp
	mov	ebp, esp
	push	-1
	push	__ehhandler$??0?$vector@IV?$allocator@I@std@@@std@@QAE@XZ
	mov	eax, DWORD PTR fs:0
	push	eax
	sub	esp, 8
	mov	eax, DWORD PTR ___security_cookie
	xor	eax, ebp
	push	eax
	lea	eax, DWORD PTR __$EHRec$[ebp]
	mov	DWORD PTR fs:0, eax
	mov	DWORD PTR _this$[ebp], ecx
	push	ecx
	mov	ecx, esp
	mov	DWORD PTR $T141637[ebp], esp
	call	??0?$allocator@I@std@@QAE@XZ		; std::allocator<unsigned int>::allocator<unsigned int>
	mov	ecx, DWORD PTR _this$[ebp]
	call	??0?$_Vector_val@IV?$allocator@I@std@@@std@@IAE@V?$allocator@I@1@@Z ; std::_Vector_val<unsigned int,std::allocator<unsigned int> >::_Vector_val<unsigned int,std::allocator<unsigned int> >
	mov	DWORD PTR __$EHRec$[ebp+8], 0

; 471  : 		_Buy(0);

	push	0
	mov	ecx, DWORD PTR _this$[ebp]
	call	?_Buy@?$vector@IV?$allocator@I@std@@@std@@IAE_NI@Z ; std::vector<unsigned int,std::allocator<unsigned int> >::_Buy

; 472  : 		}

	mov	DWORD PTR __$EHRec$[ebp+8], -1
	mov	eax, DWORD PTR _this$[ebp]
	mov	ecx, DWORD PTR __$EHRec$[ebp]
	mov	DWORD PTR fs:0, ecx
	pop	ecx
	mov	esp, ebp
	pop	ebp
	ret	0
_TEXT	ENDS
;	COMDAT text$x
text$x	SEGMENT
__unwindfunclet$??0?$vector@IV?$allocator@I@std@@@std@@QAE@XZ$0:
	mov	ecx, DWORD PTR _this$[ebp]
	jmp	??1?$_Vector_val@IV?$allocator@I@std@@@std@@QAE@XZ
__ehhandler$??0?$vector@IV?$allocator@I@std@@@std@@QAE@XZ:
	mov	edx, DWORD PTR [esp+8]
	lea	eax, DWORD PTR [edx+12]
	mov	ecx, DWORD PTR [edx-12]
	xor	ecx, eax
	call	@__security_check_cookie@4
	mov	eax, OFFSET __ehfuncinfo$??0?$vector@IV?$allocator@I@std@@@std@@QAE@XZ
	jmp	___CxxFrameHandler3
text$x	ENDS
??0?$vector@IV?$allocator@I@std@@@std@@QAE@XZ ENDP	; std::vector<unsigned int,std::allocator<unsigned int> >::vector<unsigned int,std::allocator<unsigned int> >
PUBLIC	?_Tidy@?$vector@IV?$allocator@I@std@@@std@@IAEXXZ ; std::vector<unsigned int,std::allocator<unsigned int> >::_Tidy
;	COMDAT xdata$x
xdata$x	SEGMENT
__unwindtable$??1?$vector@IV?$allocator@I@std@@@std@@QAE@XZ DD 0ffffffffH
	DD	FLAT:__unwindfunclet$??1?$vector@IV?$allocator@I@std@@@std@@QAE@XZ$0
__ehfuncinfo$??1?$vector@IV?$allocator@I@std@@@std@@QAE@XZ DD 019930522H
	DD	01H
	DD	FLAT:__unwindtable$??1?$vector@IV?$allocator@I@std@@@std@@QAE@XZ
	DD	2 DUP(00H)
	DD	2 DUP(00H)
	DD	00H
	DD	00H
; Function compile flags: /Odtp
xdata$x	ENDS
;	COMDAT ??1?$vector@IV?$allocator@I@std@@@std@@QAE@XZ
_TEXT	SEGMENT
_this$ = -16						; size = 4
__$EHRec$ = -12						; size = 12
??1?$vector@IV?$allocator@I@std@@@std@@QAE@XZ PROC	; std::vector<unsigned int,std::allocator<unsigned int> >::~vector<unsigned int,std::allocator<unsigned int> >, COMDAT
; _this$ = ecx

; 558  : 		{	// destroy the object

	push	ebp
	mov	ebp, esp
	push	-1
	push	__ehhandler$??1?$vector@IV?$allocator@I@std@@@std@@QAE@XZ
	mov	eax, DWORD PTR fs:0
	push	eax
	push	ecx
	mov	eax, DWORD PTR ___security_cookie
	xor	eax, ebp
	push	eax
	lea	eax, DWORD PTR __$EHRec$[ebp]
	mov	DWORD PTR fs:0, eax
	mov	DWORD PTR _this$[ebp], ecx
	mov	DWORD PTR __$EHRec$[ebp+8], 0

; 559  : 		_Tidy();

	mov	ecx, DWORD PTR _this$[ebp]
	call	?_Tidy@?$vector@IV?$allocator@I@std@@@std@@IAEXXZ ; std::vector<unsigned int,std::allocator<unsigned int> >::_Tidy

; 560  : 		}

	mov	DWORD PTR __$EHRec$[ebp+8], -1
	mov	ecx, DWORD PTR _this$[ebp]
	call	??1?$_Vector_val@IV?$allocator@I@std@@@std@@QAE@XZ
	mov	ecx, DWORD PTR __$EHRec$[ebp]
	mov	DWORD PTR fs:0, ecx
	pop	ecx
	mov	esp, ebp
	pop	ebp
	ret	0
_TEXT	ENDS
;	COMDAT text$x
text$x	SEGMENT
__unwindfunclet$??1?$vector@IV?$allocator@I@std@@@std@@QAE@XZ$0:
	mov	ecx, DWORD PTR _this$[ebp]
	jmp	??1?$_Vector_val@IV?$allocator@I@std@@@std@@QAE@XZ
__ehhandler$??1?$vector@IV?$allocator@I@std@@@std@@QAE@XZ:
	mov	edx, DWORD PTR [esp+8]
	lea	eax, DWORD PTR [edx+12]
	mov	ecx, DWORD PTR [edx-8]
	xor	ecx, eax
	call	@__security_check_cookie@4
	mov	eax, OFFSET __ehfuncinfo$??1?$vector@IV?$allocator@I@std@@@std@@QAE@XZ
	jmp	___CxxFrameHandler3
text$x	ENDS
??1?$vector@IV?$allocator@I@std@@@std@@QAE@XZ ENDP	; std::vector<unsigned int,std::allocator<unsigned int> >::~vector<unsigned int,std::allocator<unsigned int> >
PUBLIC	?insert@?$vector@IV?$allocator@I@std@@@std@@QAE?AV?$_Vector_iterator@IV?$allocator@I@std@@@2@V?$_Vector_const_iterator@IV?$allocator@I@std@@@2@ABI@Z ; std::vector<unsigned int,std::allocator<unsigned int> >::insert
PUBLIC	?end@?$vector@IV?$allocator@I@std@@@std@@QAE?AV?$_Vector_iterator@IV?$allocator@I@std@@@2@XZ ; std::vector<unsigned int,std::allocator<unsigned int> >::end
PUBLIC	?_Ufill@?$vector@IV?$allocator@I@std@@@std@@IAEPAIPAIIABI@Z ; std::vector<unsigned int,std::allocator<unsigned int> >::_Ufill
PUBLIC	?capacity@?$vector@IV?$allocator@I@std@@@std@@QBEIXZ ; std::vector<unsigned int,std::allocator<unsigned int> >::capacity
PUBLIC	?size@?$vector@IV?$allocator@I@std@@@std@@QBEIXZ ; std::vector<unsigned int,std::allocator<unsigned int> >::size
; Function compile flags: /Odtp
;	COMDAT ?push_back@?$vector@IV?$allocator@I@std@@@std@@QAEXABI@Z
_TEXT	SEGMENT
_this$ = -28						; size = 4
$T141658 = -24						; size = 8
$T141657 = -16						; size = 8
$T141656 = -8						; size = 8
__Val$ = 8						; size = 4
?push_back@?$vector@IV?$allocator@I@std@@@std@@QAEXABI@Z PROC ; std::vector<unsigned int,std::allocator<unsigned int> >::push_back, COMDAT
; _this$ = ecx

; 809  : 		{	// insert element at end

	push	ebp
	mov	ebp, esp
	sub	esp, 28					; 0000001cH
	push	esi
	mov	DWORD PTR _this$[ebp], ecx

; 810  : 		if (size() < capacity())

	mov	ecx, DWORD PTR _this$[ebp]
	call	?size@?$vector@IV?$allocator@I@std@@@std@@QBEIXZ ; std::vector<unsigned int,std::allocator<unsigned int> >::size
	mov	esi, eax
	mov	ecx, DWORD PTR _this$[ebp]
	call	?capacity@?$vector@IV?$allocator@I@std@@@std@@QBEIXZ ; std::vector<unsigned int,std::allocator<unsigned int> >::capacity
	cmp	esi, eax
	jae	SHORT $LN2@push_back@3

; 811  : 
; 812  :  #if _HAS_ITERATOR_DEBUGGING
; 813  : 			{ // room at end, construct it there
; 814  : 			_Orphan_range(_Mylast, _Mylast);
; 815  : 			_Mylast = _Ufill(_Mylast, 1, _Val);
; 816  : 			}
; 817  : 
; 818  :  #else /* _HAS_ITERATOR_DEBUGGING */
; 819  : 			_Mylast = _Ufill(_Mylast, 1, _Val);

	mov	eax, DWORD PTR __Val$[ebp]
	push	eax
	push	1
	mov	ecx, DWORD PTR _this$[ebp]
	mov	edx, DWORD PTR [ecx+16]
	push	edx
	mov	ecx, DWORD PTR _this$[ebp]
	call	?_Ufill@?$vector@IV?$allocator@I@std@@@std@@IAEPAIPAIIABI@Z ; std::vector<unsigned int,std::allocator<unsigned int> >::_Ufill
	mov	ecx, DWORD PTR _this$[ebp]
	mov	DWORD PTR [ecx+16], eax

; 820  :  #endif /* _HAS_ITERATOR_DEBUGGING */
; 821  : 
; 822  : 		else

	jmp	SHORT $LN3@push_back@3
$LN2@push_back@3:

; 823  : 			insert(end(), _Val);

	lea	edx, DWORD PTR $T141657[ebp]
	push	edx
	mov	ecx, DWORD PTR _this$[ebp]
	call	?end@?$vector@IV?$allocator@I@std@@@std@@QAE?AV?$_Vector_iterator@IV?$allocator@I@std@@@2@XZ ; std::vector<unsigned int,std::allocator<unsigned int> >::end
	mov	ecx, DWORD PTR [eax]
	mov	edx, DWORD PTR [eax+4]
	mov	DWORD PTR $T141656[ebp], ecx
	mov	DWORD PTR $T141656[ebp+4], edx
	mov	eax, DWORD PTR __Val$[ebp]
	push	eax
	mov	ecx, DWORD PTR $T141656[ebp+4]
	push	ecx
	mov	edx, DWORD PTR $T141656[ebp]
	push	edx
	lea	eax, DWORD PTR $T141658[ebp]
	push	eax
	mov	ecx, DWORD PTR _this$[ebp]
	call	?insert@?$vector@IV?$allocator@I@std@@@std@@QAE?AV?$_Vector_iterator@IV?$allocator@I@std@@@2@V?$_Vector_const_iterator@IV?$allocator@I@std@@@2@ABI@Z ; std::vector<unsigned int,std::allocator<unsigned int> >::insert
$LN3@push_back@3:

; 824  : 		}

	pop	esi
	mov	esp, ebp
	pop	ebp
	ret	4
?push_back@?$vector@IV?$allocator@I@std@@@std@@QAEXABI@Z ENDP ; std::vector<unsigned int,std::allocator<unsigned int> >::push_back
_TEXT	ENDS
PUBLIC	??1?$_Vector_val@UD3DSMSCONFLICT_T@Ogre@@V?$allocator@UD3DSMSCONFLICT_T@Ogre@@@std@@@std@@QAE@XZ ; std::_Vector_val<Ogre::D3DSMSCONFLICT_T,std::allocator<Ogre::D3DSMSCONFLICT_T> >::~_Vector_val<Ogre::D3DSMSCONFLICT_T,std::allocator<Ogre::D3DSMSCONFLICT_T> >
PUBLIC	?_Buy@?$vector@UD3DSMSCONFLICT_T@Ogre@@V?$allocator@UD3DSMSCONFLICT_T@Ogre@@@std@@@std@@IAE_NI@Z ; std::vector<Ogre::D3DSMSCONFLICT_T,std::allocator<Ogre::D3DSMSCONFLICT_T> >::_Buy
PUBLIC	??0?$_Vector_val@UD3DSMSCONFLICT_T@Ogre@@V?$allocator@UD3DSMSCONFLICT_T@Ogre@@@std@@@std@@IAE@V?$allocator@UD3DSMSCONFLICT_T@Ogre@@@1@@Z ; std::_Vector_val<Ogre::D3DSMSCONFLICT_T,std::allocator<Ogre::D3DSMSCONFLICT_T> >::_Vector_val<Ogre::D3DSMSCONFLICT_T,std::allocator<Ogre::D3DSMSCONFLICT_T> >
PUBLIC	??0?$allocator@UD3DSMSCONFLICT_T@Ogre@@@std@@QAE@XZ ; std::allocator<Ogre::D3DSMSCONFLICT_T>::allocator<Ogre::D3DSMSCONFLICT_T>
;	COMDAT xdata$x
xdata$x	SEGMENT
__unwindtable$??0?$vector@UD3DSMSCONFLICT_T@Ogre@@V?$allocator@UD3DSMSCONFLICT_T@Ogre@@@std@@@std@@QAE@XZ DD 0ffffffffH
	DD	FLAT:__unwindfunclet$??0?$vector@UD3DSMSCONFLICT_T@Ogre@@V?$allocator@UD3DSMSCONFLICT_T@Ogre@@@std@@@std@@QAE@XZ$0
__ehfuncinfo$??0?$vector@UD3DSMSCONFLICT_T@Ogre@@V?$allocator@UD3DSMSCONFLICT_T@Ogre@@@std@@@std@@QAE@XZ DD 019930522H
	DD	01H
	DD	FLAT:__unwindtable$??0?$vector@UD3DSMSCONFLICT_T@Ogre@@V?$allocator@UD3DSMSCONFLICT_T@Ogre@@@std@@@std@@QAE@XZ
	DD	2 DUP(00H)
	DD	2 DUP(00H)
	DD	00H
	DD	00H
; Function compile flags: /Odtp
xdata$x	ENDS
;	COMDAT ??0?$vector@UD3DSMSCONFLICT_T@Ogre@@V?$allocator@UD3DSMSCONFLICT_T@Ogre@@@std@@@std@@QAE@XZ
_TEXT	SEGMENT
_this$ = -20						; size = 4
$T141661 = -16						; size = 4
__$EHRec$ = -12						; size = 12
??0?$vector@UD3DSMSCONFLICT_T@Ogre@@V?$allocator@UD3DSMSCONFLICT_T@Ogre@@@std@@@std@@QAE@XZ PROC ; std::vector<Ogre::D3DSMSCONFLICT_T,std::allocator<Ogre::D3DSMSCONFLICT_T> >::vector<Ogre::D3DSMSCONFLICT_T,std::allocator<Ogre::D3DSMSCONFLICT_T> >, COMDAT
; _this$ = ecx

; 470  : 		{	// construct empty vector

	push	ebp
	mov	ebp, esp
	push	-1
	push	__ehhandler$??0?$vector@UD3DSMSCONFLICT_T@Ogre@@V?$allocator@UD3DSMSCONFLICT_T@Ogre@@@std@@@std@@QAE@XZ
	mov	eax, DWORD PTR fs:0
	push	eax
	sub	esp, 8
	mov	eax, DWORD PTR ___security_cookie
	xor	eax, ebp
	push	eax
	lea	eax, DWORD PTR __$EHRec$[ebp]
	mov	DWORD PTR fs:0, eax
	mov	DWORD PTR _this$[ebp], ecx
	push	ecx
	mov	ecx, esp
	mov	DWORD PTR $T141661[ebp], esp
	call	??0?$allocator@UD3DSMSCONFLICT_T@Ogre@@@std@@QAE@XZ ; std::allocator<Ogre::D3DSMSCONFLICT_T>::allocator<Ogre::D3DSMSCONFLICT_T>
	mov	ecx, DWORD PTR _this$[ebp]
	call	??0?$_Vector_val@UD3DSMSCONFLICT_T@Ogre@@V?$allocator@UD3DSMSCONFLICT_T@Ogre@@@std@@@std@@IAE@V?$allocator@UD3DSMSCONFLICT_T@Ogre@@@1@@Z ; std::_Vector_val<Ogre::D3DSMSCONFLICT_T,std::allocator<Ogre::D3DSMSCONFLICT_T> >::_Vector_val<Ogre::D3DSMSCONFLICT_T,std::allocator<Ogre::D3DSMSCONFLICT_T> >
	mov	DWORD PTR __$EHRec$[ebp+8], 0

; 471  : 		_Buy(0);

	push	0
	mov	ecx, DWORD PTR _this$[ebp]
	call	?_Buy@?$vector@UD3DSMSCONFLICT_T@Ogre@@V?$allocator@UD3DSMSCONFLICT_T@Ogre@@@std@@@std@@IAE_NI@Z ; std::vector<Ogre::D3DSMSCONFLICT_T,std::allocator<Ogre::D3DSMSCONFLICT_T> >::_Buy

; 472  : 		}

	mov	DWORD PTR __$EHRec$[ebp+8], -1
	mov	eax, DWORD PTR _this$[ebp]
	mov	ecx, DWORD PTR __$EHRec$[ebp]
	mov	DWORD PTR fs:0, ecx
	pop	ecx
	mov	esp, ebp
	pop	ebp
	ret	0
_TEXT	ENDS
;	COMDAT text$x
text$x	SEGMENT
__unwindfunclet$??0?$vector@UD3DSMSCONFLICT_T@Ogre@@V?$allocator@UD3DSMSCONFLICT_T@Ogre@@@std@@@std@@QAE@XZ$0:
	mov	ecx, DWORD PTR _this$[ebp]
	jmp	??1?$_Vector_val@UD3DSMSCONFLICT_T@Ogre@@V?$allocator@UD3DSMSCONFLICT_T@Ogre@@@std@@@std@@QAE@XZ
__ehhandler$??0?$vector@UD3DSMSCONFLICT_T@Ogre@@V?$allocator@UD3DSMSCONFLICT_T@Ogre@@@std@@@std@@QAE@XZ:
	mov	edx, DWORD PTR [esp+8]
	lea	eax, DWORD PTR [edx+12]
	mov	ecx, DWORD PTR [edx-12]
	xor	ecx, eax
	call	@__security_check_cookie@4
	mov	eax, OFFSET __ehfuncinfo$??0?$vector@UD3DSMSCONFLICT_T@Ogre@@V?$allocator@UD3DSMSCONFLICT_T@Ogre@@@std@@@std@@QAE@XZ
	jmp	___CxxFrameHandler3
text$x	ENDS
??0?$vector@UD3DSMSCONFLICT_T@Ogre@@V?$allocator@UD3DSMSCONFLICT_T@Ogre@@@std@@@std@@QAE@XZ ENDP ; std::vector<Ogre::D3DSMSCONFLICT_T,std::allocator<Ogre::D3DSMSCONFLICT_T> >::vector<Ogre::D3DSMSCONFLICT_T,std::allocator<Ogre::D3DSMSCONFLICT_T> >
PUBLIC	?_Tidy@?$vector@UD3DSMSCONFLICT_T@Ogre@@V?$allocator@UD3DSMSCONFLICT_T@Ogre@@@std@@@std@@IAEXXZ ; std::vector<Ogre::D3DSMSCONFLICT_T,std::allocator<Ogre::D3DSMSCONFLICT_T> >::_Tidy
;	COMDAT xdata$x
xdata$x	SEGMENT
__unwindtable$??1?$vector@UD3DSMSCONFLICT_T@Ogre@@V?$allocator@UD3DSMSCONFLICT_T@Ogre@@@std@@@std@@QAE@XZ DD 0ffffffffH
	DD	FLAT:__unwindfunclet$??1?$vector@UD3DSMSCONFLICT_T@Ogre@@V?$allocator@UD3DSMSCONFLICT_T@Ogre@@@std@@@std@@QAE@XZ$0
__ehfuncinfo$??1?$vector@UD3DSMSCONFLICT_T@Ogre@@V?$allocator@UD3DSMSCONFLICT_T@Ogre@@@std@@@std@@QAE@XZ DD 019930522H
	DD	01H
	DD	FLAT:__unwindtable$??1?$vector@UD3DSMSCONFLICT_T@Ogre@@V?$allocator@UD3DSMSCONFLICT_T@Ogre@@@std@@@std@@QAE@XZ
	DD	2 DUP(00H)
	DD	2 DUP(00H)
	DD	00H
	DD	00H
; Function compile flags: /Odtp
xdata$x	ENDS
;	COMDAT ??1?$vector@UD3DSMSCONFLICT_T@Ogre@@V?$allocator@UD3DSMSCONFLICT_T@Ogre@@@std@@@std@@QAE@XZ
_TEXT	SEGMENT
_this$ = -16						; size = 4
__$EHRec$ = -12						; size = 12
??1?$vector@UD3DSMSCONFLICT_T@Ogre@@V?$allocator@UD3DSMSCONFLICT_T@Ogre@@@std@@@std@@QAE@XZ PROC ; std::vector<Ogre::D3DSMSCONFLICT_T,std::allocator<Ogre::D3DSMSCONFLICT_T> >::~vector<Ogre::D3DSMSCONFLICT_T,std::allocator<Ogre::D3DSMSCONFLICT_T> >, COMDAT
; _this$ = ecx

; 558  : 		{	// destroy the object

	push	ebp
	mov	ebp, esp
	push	-1
	push	__ehhandler$??1?$vector@UD3DSMSCONFLICT_T@Ogre@@V?$allocator@UD3DSMSCONFLICT_T@Ogre@@@std@@@std@@QAE@XZ
	mov	eax, DWORD PTR fs:0
	push	eax
	push	ecx
	mov	eax, DWORD PTR ___security_cookie
	xor	eax, ebp
	push	eax
	lea	eax, DWORD PTR __$EHRec$[ebp]
	mov	DWORD PTR fs:0, eax
	mov	DWORD PTR _this$[ebp], ecx
	mov	DWORD PTR __$EHRec$[ebp+8], 0

; 559  : 		_Tidy();

	mov	ecx, DWORD PTR _this$[ebp]
	call	?_Tidy@?$vector@UD3DSMSCONFLICT_T@Ogre@@V?$allocator@UD3DSMSCONFLICT_T@Ogre@@@std@@@std@@IAEXXZ ; std::vector<Ogre::D3DSMSCONFLICT_T,std::allocator<Ogre::D3DSMSCONFLICT_T> >::_Tidy

; 560  : 		}

	mov	DWORD PTR __$EHRec$[ebp+8], -1
	mov	ecx, DWORD PTR _this$[ebp]
	call	??1?$_Vector_val@UD3DSMSCONFLICT_T@Ogre@@V?$allocator@UD3DSMSCONFLICT_T@Ogre@@@std@@@std@@QAE@XZ
	mov	ecx, DWORD PTR __$EHRec$[ebp]
	mov	DWORD PTR fs:0, ecx
	pop	ecx
	mov	esp, ebp
	pop	ebp
	ret	0
_TEXT	ENDS
;	COMDAT text$x
text$x	SEGMENT
__unwindfunclet$??1?$vector@UD3DSMSCONFLICT_T@Ogre@@V?$allocator@UD3DSMSCONFLICT_T@Ogre@@@std@@@std@@QAE@XZ$0:
	mov	ecx, DWORD PTR _this$[ebp]
	jmp	??1?$_Vector_val@UD3DSMSCONFLICT_T@Ogre@@V?$allocator@UD3DSMSCONFLICT_T@Ogre@@@std@@@std@@QAE@XZ
__ehhandler$??1?$vector@UD3DSMSCONFLICT_T@Ogre@@V?$allocator@UD3DSMSCONFLICT_T@Ogre@@@std@@@std@@QAE@XZ:
	mov	edx, DWORD PTR [esp+8]
	lea	eax, DWORD PTR [edx+12]
	mov	ecx, DWORD PTR [edx-8]
	xor	ecx, eax
	call	@__security_check_cookie@4
	mov	eax, OFFSET __ehfuncinfo$??1?$vector@UD3DSMSCONFLICT_T@Ogre@@V?$allocator@UD3DSMSCONFLICT_T@Ogre@@@std@@@std@@QAE@XZ
	jmp	___CxxFrameHandler3
text$x	ENDS
??1?$vector@UD3DSMSCONFLICT_T@Ogre@@V?$allocator@UD3DSMSCONFLICT_T@Ogre@@@std@@@std@@QAE@XZ ENDP ; std::vector<Ogre::D3DSMSCONFLICT_T,std::allocator<Ogre::D3DSMSCONFLICT_T> >::~vector<Ogre::D3DSMSCONFLICT_T,std::allocator<Ogre::D3DSMSCONFLICT_T> >
; Function compile flags: /Odtp
;	COMDAT ?size@?$vector@UD3DSMSCONFLICT_T@Ogre@@V?$allocator@UD3DSMSCONFLICT_T@Ogre@@@std@@@std@@QBEIXZ
_TEXT	SEGMENT
_this$ = -4						; size = 4
?size@?$vector@UD3DSMSCONFLICT_T@Ogre@@V?$allocator@UD3DSMSCONFLICT_T@Ogre@@@std@@@std@@QBEIXZ PROC ; std::vector<Ogre::D3DSMSCONFLICT_T,std::allocator<Ogre::D3DSMSCONFLICT_T> >::size, COMDAT
; _this$ = ecx

; 725  : 		{	// return length of sequence

	push	ebp
	mov	ebp, esp
	push	ecx
	mov	DWORD PTR _this$[ebp], ecx

; 726  : 		return (_Mylast - _Myfirst);

	mov	eax, DWORD PTR _this$[ebp]
	mov	ecx, DWORD PTR _this$[ebp]
	mov	eax, DWORD PTR [eax+16]
	sub	eax, DWORD PTR [ecx+12]
	sar	eax, 3

; 727  : 		}

	mov	esp, ebp
	pop	ebp
	ret	0
?size@?$vector@UD3DSMSCONFLICT_T@Ogre@@V?$allocator@UD3DSMSCONFLICT_T@Ogre@@@std@@@std@@QBEIXZ ENDP ; std::vector<Ogre::D3DSMSCONFLICT_T,std::allocator<Ogre::D3DSMSCONFLICT_T> >::size
; Function compile flags: /Odtp
_TEXT	ENDS
;	COMDAT ??A?$vector@UD3DSMSCONFLICT_T@Ogre@@V?$allocator@UD3DSMSCONFLICT_T@Ogre@@@std@@@std@@QAEAAUD3DSMSCONFLICT_T@Ogre@@I@Z
_TEXT	SEGMENT
_this$ = -4						; size = 4
__Pos$ = 8						; size = 4
??A?$vector@UD3DSMSCONFLICT_T@Ogre@@V?$allocator@UD3DSMSCONFLICT_T@Ogre@@@std@@@std@@QAEAAUD3DSMSCONFLICT_T@Ogre@@I@Z PROC ; std::vector<Ogre::D3DSMSCONFLICT_T,std::allocator<Ogre::D3DSMSCONFLICT_T> >::operator[], COMDAT
; _this$ = ecx

; 774  : 		{	// subscript mutable sequence

	push	ebp
	mov	ebp, esp
	push	ecx
	mov	DWORD PTR _this$[ebp], ecx

; 775  : 
; 776  :  #if _HAS_ITERATOR_DEBUGGING
; 777  : 		if (size() <= _Pos)
; 778  : 			{
; 779  : 			_DEBUG_ERROR("vector subscript out of range");
; 780  : 			_SCL_SECURE_OUT_OF_RANGE;
; 781  : 			}
; 782  :  #endif /* _HAS_ITERATOR_DEBUGGING */
; 783  : 		_SCL_SECURE_VALIDATE_RANGE(_Pos < size());

	mov	ecx, DWORD PTR _this$[ebp]
	call	?size@?$vector@UD3DSMSCONFLICT_T@Ogre@@V?$allocator@UD3DSMSCONFLICT_T@Ogre@@@std@@@std@@QBEIXZ ; std::vector<Ogre::D3DSMSCONFLICT_T,std::allocator<Ogre::D3DSMSCONFLICT_T> >::size
	cmp	DWORD PTR __Pos$[ebp], eax
	jb	SHORT $LN1@operator@3
	call	DWORD PTR __imp___invalid_parameter_noinfo
$LN1@operator@3:

; 784  : 
; 785  : 		return (*(_Myfirst + _Pos));

	mov	eax, DWORD PTR _this$[ebp]
	mov	ecx, DWORD PTR [eax+12]
	mov	edx, DWORD PTR __Pos$[ebp]
	lea	eax, DWORD PTR [ecx+edx*8]

; 786  : 		}

	mov	esp, ebp
	pop	ebp
	ret	4
??A?$vector@UD3DSMSCONFLICT_T@Ogre@@V?$allocator@UD3DSMSCONFLICT_T@Ogre@@@std@@@std@@QAEAAUD3DSMSCONFLICT_T@Ogre@@I@Z ENDP ; std::vector<Ogre::D3DSMSCONFLICT_T,std::allocator<Ogre::D3DSMSCONFLICT_T> >::operator[]
_TEXT	ENDS
PUBLIC	?insert@?$vector@UD3DSMSCONFLICT_T@Ogre@@V?$allocator@UD3DSMSCONFLICT_T@Ogre@@@std@@@std@@QAE?AV?$_Vector_iterator@UD3DSMSCONFLICT_T@Ogre@@V?$allocator@UD3DSMSCONFLICT_T@Ogre@@@std@@@2@V?$_Vector_const_iterator@UD3DSMSCONFLICT_T@Ogre@@V?$allocator@UD3DSMSCONFLICT_T@Ogre@@@std@@@2@ABUD3DSMSCONFLICT_T@Ogre@@@Z ; std::vector<Ogre::D3DSMSCONFLICT_T,std::allocator<Ogre::D3DSMSCONFLICT_T> >::insert
PUBLIC	?end@?$vector@UD3DSMSCONFLICT_T@Ogre@@V?$allocator@UD3DSMSCONFLICT_T@Ogre@@@std@@@std@@QAE?AV?$_Vector_iterator@UD3DSMSCONFLICT_T@Ogre@@V?$allocator@UD3DSMSCONFLICT_T@Ogre@@@std@@@2@XZ ; std::vector<Ogre::D3DSMSCONFLICT_T,std::allocator<Ogre::D3DSMSCONFLICT_T> >::end
PUBLIC	?_Ufill@?$vector@UD3DSMSCONFLICT_T@Ogre@@V?$allocator@UD3DSMSCONFLICT_T@Ogre@@@std@@@std@@IAEPAUD3DSMSCONFLICT_T@Ogre@@PAU34@IABU34@@Z ; std::vector<Ogre::D3DSMSCONFLICT_T,std::allocator<Ogre::D3DSMSCONFLICT_T> >::_Ufill
PUBLIC	?capacity@?$vector@UD3DSMSCONFLICT_T@Ogre@@V?$allocator@UD3DSMSCONFLICT_T@Ogre@@@std@@@std@@QBEIXZ ; std::vector<Ogre::D3DSMSCONFLICT_T,std::allocator<Ogre::D3DSMSCONFLICT_T> >::capacity
; Function compile flags: /Odtp
;	COMDAT ?push_back@?$vector@UD3DSMSCONFLICT_T@Ogre@@V?$allocator@UD3DSMSCONFLICT_T@Ogre@@@std@@@std@@QAEXABUD3DSMSCONFLICT_T@Ogre@@@Z
_TEXT	SEGMENT
_this$ = -28						; size = 4
$T141686 = -24						; size = 8
$T141685 = -16						; size = 8
$T141684 = -8						; size = 8
__Val$ = 8						; size = 4
?push_back@?$vector@UD3DSMSCONFLICT_T@Ogre@@V?$allocator@UD3DSMSCONFLICT_T@Ogre@@@std@@@std@@QAEXABUD3DSMSCONFLICT_T@Ogre@@@Z PROC ; std::vector<Ogre::D3DSMSCONFLICT_T,std::allocator<Ogre::D3DSMSCONFLICT_T> >::push_back, COMDAT
; _this$ = ecx

; 809  : 		{	// insert element at end

	push	ebp
	mov	ebp, esp
	sub	esp, 28					; 0000001cH
	push	esi
	mov	DWORD PTR _this$[ebp], ecx

; 810  : 		if (size() < capacity())

	mov	ecx, DWORD PTR _this$[ebp]
	call	?size@?$vector@UD3DSMSCONFLICT_T@Ogre@@V?$allocator@UD3DSMSCONFLICT_T@Ogre@@@std@@@std@@QBEIXZ ; std::vector<Ogre::D3DSMSCONFLICT_T,std::allocator<Ogre::D3DSMSCONFLICT_T> >::size
	mov	esi, eax
	mov	ecx, DWORD PTR _this$[ebp]
	call	?capacity@?$vector@UD3DSMSCONFLICT_T@Ogre@@V?$allocator@UD3DSMSCONFLICT_T@Ogre@@@std@@@std@@QBEIXZ ; std::vector<Ogre::D3DSMSCONFLICT_T,std::allocator<Ogre::D3DSMSCONFLICT_T> >::capacity
	cmp	esi, eax
	jae	SHORT $LN2@push_back@4

; 811  : 
; 812  :  #if _HAS_ITERATOR_DEBUGGING
; 813  : 			{ // room at end, construct it there
; 814  : 			_Orphan_range(_Mylast, _Mylast);
; 815  : 			_Mylast = _Ufill(_Mylast, 1, _Val);
; 816  : 			}
; 817  : 
; 818  :  #else /* _HAS_ITERATOR_DEBUGGING */
; 819  : 			_Mylast = _Ufill(_Mylast, 1, _Val);

	mov	eax, DWORD PTR __Val$[ebp]
	push	eax
	push	1
	mov	ecx, DWORD PTR _this$[ebp]
	mov	edx, DWORD PTR [ecx+16]
	push	edx
	mov	ecx, DWORD PTR _this$[ebp]
	call	?_Ufill@?$vector@UD3DSMSCONFLICT_T@Ogre@@V?$allocator@UD3DSMSCONFLICT_T@Ogre@@@std@@@std@@IAEPAUD3DSMSCONFLICT_T@Ogre@@PAU34@IABU34@@Z ; std::vector<Ogre::D3DSMSCONFLICT_T,std::allocator<Ogre::D3DSMSCONFLICT_T> >::_Ufill
	mov	ecx, DWORD PTR _this$[ebp]
	mov	DWORD PTR [ecx+16], eax

; 820  :  #endif /* _HAS_ITERATOR_DEBUGGING */
; 821  : 
; 822  : 		else

	jmp	SHORT $LN3@push_back@4
$LN2@push_back@4:

; 823  : 			insert(end(), _Val);

	lea	edx, DWORD PTR $T141685[ebp]
	push	edx
	mov	ecx, DWORD PTR _this$[ebp]
	call	?end@?$vector@UD3DSMSCONFLICT_T@Ogre@@V?$allocator@UD3DSMSCONFLICT_T@Ogre@@@std@@@std@@QAE?AV?$_Vector_iterator@UD3DSMSCONFLICT_T@Ogre@@V?$allocator@UD3DSMSCONFLICT_T@Ogre@@@std@@@2@XZ ; std::vector<Ogre::D3DSMSCONFLICT_T,std::allocator<Ogre::D3DSMSCONFLICT_T> >::end
	mov	ecx, DWORD PTR [eax]
	mov	edx, DWORD PTR [eax+4]
	mov	DWORD PTR $T141684[ebp], ecx
	mov	DWORD PTR $T141684[ebp+4], edx
	mov	eax, DWORD PTR __Val$[ebp]
	push	eax
	mov	ecx, DWORD PTR $T141684[ebp+4]
	push	ecx
	mov	edx, DWORD PTR $T141684[ebp]
	push	edx
	lea	eax, DWORD PTR $T141686[ebp]
	push	eax
	mov	ecx, DWORD PTR _this$[ebp]
	call	?insert@?$vector@UD3DSMSCONFLICT_T@Ogre@@V?$allocator@UD3DSMSCONFLICT_T@Ogre@@@std@@@std@@QAE?AV?$_Vector_iterator@UD3DSMSCONFLICT_T@Ogre@@V?$allocator@UD3DSMSCONFLICT_T@Ogre@@@std@@@2@V?$_Vector_const_iterator@UD3DSMSCONFLICT_T@Ogre@@V?$allocator@UD3DSMSCONFLICT_T@Ogre@@@std@@@2@ABUD3DSMSCONFLICT_T@Ogre@@@Z ; std::vector<Ogre::D3DSMSCONFLICT_T,std::allocator<Ogre::D3DSMSCONFLICT_T> >::insert
$LN3@push_back@4:

; 824  : 		}

	pop	esi
	mov	esp, ebp
	pop	ebp
	ret	4
?push_back@?$vector@UD3DSMSCONFLICT_T@Ogre@@V?$allocator@UD3DSMSCONFLICT_T@Ogre@@@std@@@std@@QAEXABUD3DSMSCONFLICT_T@Ogre@@@Z ENDP ; std::vector<Ogre::D3DSMSCONFLICT_T,std::allocator<Ogre::D3DSMSCONFLICT_T> >::push_back
_TEXT	ENDS
PUBLIC	??1?$_Vector_val@W4VERTPROCESS_T@Ogre@@V?$allocator@W4VERTPROCESS_T@Ogre@@@std@@@std@@QAE@XZ ; std::_Vector_val<enum Ogre::VERTPROCESS_T,std::allocator<enum Ogre::VERTPROCESS_T> >::~_Vector_val<enum Ogre::VERTPROCESS_T,std::allocator<enum Ogre::VERTPROCESS_T> >
PUBLIC	?_Buy@?$vector@W4VERTPROCESS_T@Ogre@@V?$allocator@W4VERTPROCESS_T@Ogre@@@std@@@std@@IAE_NI@Z ; std::vector<enum Ogre::VERTPROCESS_T,std::allocator<enum Ogre::VERTPROCESS_T> >::_Buy
PUBLIC	??0?$_Vector_val@W4VERTPROCESS_T@Ogre@@V?$allocator@W4VERTPROCESS_T@Ogre@@@std@@@std@@IAE@V?$allocator@W4VERTPROCESS_T@Ogre@@@1@@Z ; std::_Vector_val<enum Ogre::VERTPROCESS_T,std::allocator<enum Ogre::VERTPROCESS_T> >::_Vector_val<enum Ogre::VERTPROCESS_T,std::allocator<enum Ogre::VERTPROCESS_T> >
PUBLIC	??0?$allocator@W4VERTPROCESS_T@Ogre@@@std@@QAE@XZ ; std::allocator<enum Ogre::VERTPROCESS_T>::allocator<enum Ogre::VERTPROCESS_T>
;	COMDAT xdata$x
xdata$x	SEGMENT
__unwindtable$??0?$vector@W4VERTPROCESS_T@Ogre@@V?$allocator@W4VERTPROCESS_T@Ogre@@@std@@@std@@QAE@XZ DD 0ffffffffH
	DD	FLAT:__unwindfunclet$??0?$vector@W4VERTPROCESS_T@Ogre@@V?$allocator@W4VERTPROCESS_T@Ogre@@@std@@@std@@QAE@XZ$0
__ehfuncinfo$??0?$vector@W4VERTPROCESS_T@Ogre@@V?$allocator@W4VERTPROCESS_T@Ogre@@@std@@@std@@QAE@XZ DD 019930522H
	DD	01H
	DD	FLAT:__unwindtable$??0?$vector@W4VERTPROCESS_T@Ogre@@V?$allocator@W4VERTPROCESS_T@Ogre@@@std@@@std@@QAE@XZ
	DD	2 DUP(00H)
	DD	2 DUP(00H)
	DD	00H
	DD	00H
; Function compile flags: /Odtp
xdata$x	ENDS
;	COMDAT ??0?$vector@W4VERTPROCESS_T@Ogre@@V?$allocator@W4VERTPROCESS_T@Ogre@@@std@@@std@@QAE@XZ
_TEXT	SEGMENT
_this$ = -20						; size = 4
$T141689 = -16						; size = 4
__$EHRec$ = -12						; size = 12
??0?$vector@W4VERTPROCESS_T@Ogre@@V?$allocator@W4VERTPROCESS_T@Ogre@@@std@@@std@@QAE@XZ PROC ; std::vector<enum Ogre::VERTPROCESS_T,std::allocator<enum Ogre::VERTPROCESS_T> >::vector<enum Ogre::VERTPROCESS_T,std::allocator<enum Ogre::VERTPROCESS_T> >, COMDAT
; _this$ = ecx

; 470  : 		{	// construct empty vector

	push	ebp
	mov	ebp, esp
	push	-1
	push	__ehhandler$??0?$vector@W4VERTPROCESS_T@Ogre@@V?$allocator@W4VERTPROCESS_T@Ogre@@@std@@@std@@QAE@XZ
	mov	eax, DWORD PTR fs:0
	push	eax
	sub	esp, 8
	mov	eax, DWORD PTR ___security_cookie
	xor	eax, ebp
	push	eax
	lea	eax, DWORD PTR __$EHRec$[ebp]
	mov	DWORD PTR fs:0, eax
	mov	DWORD PTR _this$[ebp], ecx
	push	ecx
	mov	ecx, esp
	mov	DWORD PTR $T141689[ebp], esp
	call	??0?$allocator@W4VERTPROCESS_T@Ogre@@@std@@QAE@XZ ; std::allocator<enum Ogre::VERTPROCESS_T>::allocator<enum Ogre::VERTPROCESS_T>
	mov	ecx, DWORD PTR _this$[ebp]
	call	??0?$_Vector_val@W4VERTPROCESS_T@Ogre@@V?$allocator@W4VERTPROCESS_T@Ogre@@@std@@@std@@IAE@V?$allocator@W4VERTPROCESS_T@Ogre@@@1@@Z ; std::_Vector_val<enum Ogre::VERTPROCESS_T,std::allocator<enum Ogre::VERTPROCESS_T> >::_Vector_val<enum Ogre::VERTPROCESS_T,std::allocator<enum Ogre::VERTPROCESS_T> >
	mov	DWORD PTR __$EHRec$[ebp+8], 0

; 471  : 		_Buy(0);

	push	0
	mov	ecx, DWORD PTR _this$[ebp]
	call	?_Buy@?$vector@W4VERTPROCESS_T@Ogre@@V?$allocator@W4VERTPROCESS_T@Ogre@@@std@@@std@@IAE_NI@Z ; std::vector<enum Ogre::VERTPROCESS_T,std::allocator<enum Ogre::VERTPROCESS_T> >::_Buy

; 472  : 		}

	mov	DWORD PTR __$EHRec$[ebp+8], -1
	mov	eax, DWORD PTR _this$[ebp]
	mov	ecx, DWORD PTR __$EHRec$[ebp]
	mov	DWORD PTR fs:0, ecx
	pop	ecx
	mov	esp, ebp
	pop	ebp
	ret	0
_TEXT	ENDS
;	COMDAT text$x
text$x	SEGMENT
__unwindfunclet$??0?$vector@W4VERTPROCESS_T@Ogre@@V?$allocator@W4VERTPROCESS_T@Ogre@@@std@@@std@@QAE@XZ$0:
	mov	ecx, DWORD PTR _this$[ebp]
	jmp	??1?$_Vector_val@W4VERTPROCESS_T@Ogre@@V?$allocator@W4VERTPROCESS_T@Ogre@@@std@@@std@@QAE@XZ
__ehhandler$??0?$vector@W4VERTPROCESS_T@Ogre@@V?$allocator@W4VERTPROCESS_T@Ogre@@@std@@@std@@QAE@XZ:
	mov	edx, DWORD PTR [esp+8]
	lea	eax, DWORD PTR [edx+12]
	mov	ecx, DWORD PTR [edx-12]
	xor	ecx, eax
	call	@__security_check_cookie@4
	mov	eax, OFFSET __ehfuncinfo$??0?$vector@W4VERTPROCESS_T@Ogre@@V?$allocator@W4VERTPROCESS_T@Ogre@@@std@@@std@@QAE@XZ
	jmp	___CxxFrameHandler3
text$x	ENDS
??0?$vector@W4VERTPROCESS_T@Ogre@@V?$allocator@W4VERTPROCESS_T@Ogre@@@std@@@std@@QAE@XZ ENDP ; std::vector<enum Ogre::VERTPROCESS_T,std::allocator<enum Ogre::VERTPROCESS_T> >::vector<enum Ogre::VERTPROCESS_T,std::allocator<enum Ogre::VERTPROCESS_T> >
PUBLIC	?_Tidy@?$vector@W4VERTPROCESS_T@Ogre@@V?$allocator@W4VERTPROCESS_T@Ogre@@@std@@@std@@IAEXXZ ; std::vector<enum Ogre::VERTPROCESS_T,std::allocator<enum Ogre::VERTPROCESS_T> >::_Tidy
;	COMDAT xdata$x
xdata$x	SEGMENT
__unwindtable$??1?$vector@W4VERTPROCESS_T@Ogre@@V?$allocator@W4VERTPROCESS_T@Ogre@@@std@@@std@@QAE@XZ DD 0ffffffffH
	DD	FLAT:__unwindfunclet$??1?$vector@W4VERTPROCESS_T@Ogre@@V?$allocator@W4VERTPROCESS_T@Ogre@@@std@@@std@@QAE@XZ$0
__ehfuncinfo$??1?$vector@W4VERTPROCESS_T@Ogre@@V?$allocator@W4VERTPROCESS_T@Ogre@@@std@@@std@@QAE@XZ DD 019930522H
	DD	01H
	DD	FLAT:__unwindtable$??1?$vector@W4VERTPROCESS_T@Ogre@@V?$allocator@W4VERTPROCESS_T@Ogre@@@std@@@std@@QAE@XZ
	DD	2 DUP(00H)
	DD	2 DUP(00H)
	DD	00H
	DD	00H
; Function compile flags: /Odtp
xdata$x	ENDS
;	COMDAT ??1?$vector@W4VERTPROCESS_T@Ogre@@V?$allocator@W4VERTPROCESS_T@Ogre@@@std@@@std@@QAE@XZ
_TEXT	SEGMENT
_this$ = -16						; size = 4
__$EHRec$ = -12						; size = 12
??1?$vector@W4VERTPROCESS_T@Ogre@@V?$allocator@W4VERTPROCESS_T@Ogre@@@std@@@std@@QAE@XZ PROC ; std::vector<enum Ogre::VERTPROCESS_T,std::allocator<enum Ogre::VERTPROCESS_T> >::~vector<enum Ogre::VERTPROCESS_T,std::allocator<enum Ogre::VERTPROCESS_T> >, COMDAT
; _this$ = ecx

; 558  : 		{	// destroy the object

	push	ebp
	mov	ebp, esp
	push	-1
	push	__ehhandler$??1?$vector@W4VERTPROCESS_T@Ogre@@V?$allocator@W4VERTPROCESS_T@Ogre@@@std@@@std@@QAE@XZ
	mov	eax, DWORD PTR fs:0
	push	eax
	push	ecx
	mov	eax, DWORD PTR ___security_cookie
	xor	eax, ebp
	push	eax
	lea	eax, DWORD PTR __$EHRec$[ebp]
	mov	DWORD PTR fs:0, eax
	mov	DWORD PTR _this$[ebp], ecx
	mov	DWORD PTR __$EHRec$[ebp+8], 0

; 559  : 		_Tidy();

	mov	ecx, DWORD PTR _this$[ebp]
	call	?_Tidy@?$vector@W4VERTPROCESS_T@Ogre@@V?$allocator@W4VERTPROCESS_T@Ogre@@@std@@@std@@IAEXXZ ; std::vector<enum Ogre::VERTPROCESS_T,std::allocator<enum Ogre::VERTPROCESS_T> >::_Tidy

; 560  : 		}

	mov	DWORD PTR __$EHRec$[ebp+8], -1
	mov	ecx, DWORD PTR _this$[ebp]
	call	??1?$_Vector_val@W4VERTPROCESS_T@Ogre@@V?$allocator@W4VERTPROCESS_T@Ogre@@@std@@@std@@QAE@XZ
	mov	ecx, DWORD PTR __$EHRec$[ebp]
	mov	DWORD PTR fs:0, ecx
	pop	ecx
	mov	esp, ebp
	pop	ebp
	ret	0
_TEXT	ENDS
;	COMDAT text$x
text$x	SEGMENT
__unwindfunclet$??1?$vector@W4VERTPROCESS_T@Ogre@@V?$allocator@W4VERTPROCESS_T@Ogre@@@std@@@std@@QAE@XZ$0:
	mov	ecx, DWORD PTR _this$[ebp]
	jmp	??1?$_Vector_val@W4VERTPROCESS_T@Ogre@@V?$allocator@W4VERTPROCESS_T@Ogre@@@std@@@std@@QAE@XZ
__ehhandler$??1?$vector@W4VERTPROCESS_T@Ogre@@V?$allocator@W4VERTPROCESS_T@Ogre@@@std@@@std@@QAE@XZ:
	mov	edx, DWORD PTR [esp+8]
	lea	eax, DWORD PTR [edx+12]
	mov	ecx, DWORD PTR [edx-8]
	xor	ecx, eax
	call	@__security_check_cookie@4
	mov	eax, OFFSET __ehfuncinfo$??1?$vector@W4VERTPROCESS_T@Ogre@@V?$allocator@W4VERTPROCESS_T@Ogre@@@std@@@std@@QAE@XZ
	jmp	___CxxFrameHandler3
text$x	ENDS
??1?$vector@W4VERTPROCESS_T@Ogre@@V?$allocator@W4VERTPROCESS_T@Ogre@@@std@@@std@@QAE@XZ ENDP ; std::vector<enum Ogre::VERTPROCESS_T,std::allocator<enum Ogre::VERTPROCESS_T> >::~vector<enum Ogre::VERTPROCESS_T,std::allocator<enum Ogre::VERTPROCESS_T> >
PUBLIC	?size@?$vector@W4VERTPROCESS_T@Ogre@@V?$allocator@W4VERTPROCESS_T@Ogre@@@std@@@std@@QBEIXZ ; std::vector<enum Ogre::VERTPROCESS_T,std::allocator<enum Ogre::VERTPROCESS_T> >::size
; Function compile flags: /Odtp
;	COMDAT ?empty@?$vector@W4VERTPROCESS_T@Ogre@@V?$allocator@W4VERTPROCESS_T@Ogre@@@std@@@std@@QBE_NXZ
_TEXT	SEGMENT
_this$ = -4						; size = 4
?empty@?$vector@W4VERTPROCESS_T@Ogre@@V?$allocator@W4VERTPROCESS_T@Ogre@@@std@@@std@@QBE_NXZ PROC ; std::vector<enum Ogre::VERTPROCESS_T,std::allocator<enum Ogre::VERTPROCESS_T> >::empty, COMDAT
; _this$ = ecx

; 735  : 		{	// test if sequence is empty

	push	ebp
	mov	ebp, esp
	push	ecx
	mov	DWORD PTR _this$[ebp], ecx

; 736  : 		return (size() == 0);

	mov	ecx, DWORD PTR _this$[ebp]
	call	?size@?$vector@W4VERTPROCESS_T@Ogre@@V?$allocator@W4VERTPROCESS_T@Ogre@@@std@@@std@@QBEIXZ ; std::vector<enum Ogre::VERTPROCESS_T,std::allocator<enum Ogre::VERTPROCESS_T> >::size
	neg	eax
	sbb	eax, eax
	add	eax, 1

; 737  : 		}

	mov	esp, ebp
	pop	ebp
	ret	0
?empty@?$vector@W4VERTPROCESS_T@Ogre@@V?$allocator@W4VERTPROCESS_T@Ogre@@@std@@@std@@QBE_NXZ ENDP ; std::vector<enum Ogre::VERTPROCESS_T,std::allocator<enum Ogre::VERTPROCESS_T> >::empty
_TEXT	ENDS
PUBLIC	?insert@?$vector@W4VERTPROCESS_T@Ogre@@V?$allocator@W4VERTPROCESS_T@Ogre@@@std@@@std@@QAE?AV?$_Vector_iterator@W4VERTPROCESS_T@Ogre@@V?$allocator@W4VERTPROCESS_T@Ogre@@@std@@@2@V?$_Vector_const_iterator@W4VERTPROCESS_T@Ogre@@V?$allocator@W4VERTPROCESS_T@Ogre@@@std@@@2@ABW4VERTPROCESS_T@Ogre@@@Z ; std::vector<enum Ogre::VERTPROCESS_T,std::allocator<enum Ogre::VERTPROCESS_T> >::insert
PUBLIC	?end@?$vector@W4VERTPROCESS_T@Ogre@@V?$allocator@W4VERTPROCESS_T@Ogre@@@std@@@std@@QAE?AV?$_Vector_iterator@W4VERTPROCESS_T@Ogre@@V?$allocator@W4VERTPROCESS_T@Ogre@@@std@@@2@XZ ; std::vector<enum Ogre::VERTPROCESS_T,std::allocator<enum Ogre::VERTPROCESS_T> >::end
PUBLIC	?_Ufill@?$vector@W4VERTPROCESS_T@Ogre@@V?$allocator@W4VERTPROCESS_T@Ogre@@@std@@@std@@IAEPAW4VERTPROCESS_T@Ogre@@PAW434@IABW434@@Z ; std::vector<enum Ogre::VERTPROCESS_T,std::allocator<enum Ogre::VERTPROCESS_T> >::_Ufill
PUBLIC	?capacity@?$vector@W4VERTPROCESS_T@Ogre@@V?$allocator@W4VERTPROCESS_T@Ogre@@@std@@@std@@QBEIXZ ; std::vector<enum Ogre::VERTPROCESS_T,std::allocator<enum Ogre::VERTPROCESS_T> >::capacity
; Function compile flags: /Odtp
;	COMDAT ?push_back@?$vector@W4VERTPROCESS_T@Ogre@@V?$allocator@W4VERTPROCESS_T@Ogre@@@std@@@std@@QAEXABW4VERTPROCESS_T@Ogre@@@Z
_TEXT	SEGMENT
_this$ = -28						; size = 4
$T141712 = -24						; size = 8
$T141711 = -16						; size = 8
$T141710 = -8						; size = 8
__Val$ = 8						; size = 4
?push_back@?$vector@W4VERTPROCESS_T@Ogre@@V?$allocator@W4VERTPROCESS_T@Ogre@@@std@@@std@@QAEXABW4VERTPROCESS_T@Ogre@@@Z PROC ; std::vector<enum Ogre::VERTPROCESS_T,std::allocator<enum Ogre::VERTPROCESS_T> >::push_back, COMDAT
; _this$ = ecx

; 809  : 		{	// insert element at end

	push	ebp
	mov	ebp, esp
	sub	esp, 28					; 0000001cH
	push	esi
	mov	DWORD PTR _this$[ebp], ecx

; 810  : 		if (size() < capacity())

	mov	ecx, DWORD PTR _this$[ebp]
	call	?size@?$vector@W4VERTPROCESS_T@Ogre@@V?$allocator@W4VERTPROCESS_T@Ogre@@@std@@@std@@QBEIXZ ; std::vector<enum Ogre::VERTPROCESS_T,std::allocator<enum Ogre::VERTPROCESS_T> >::size
	mov	esi, eax
	mov	ecx, DWORD PTR _this$[ebp]
	call	?capacity@?$vector@W4VERTPROCESS_T@Ogre@@V?$allocator@W4VERTPROCESS_T@Ogre@@@std@@@std@@QBEIXZ ; std::vector<enum Ogre::VERTPROCESS_T,std::allocator<enum Ogre::VERTPROCESS_T> >::capacity
	cmp	esi, eax
	jae	SHORT $LN2@push_back@5

; 811  : 
; 812  :  #if _HAS_ITERATOR_DEBUGGING
; 813  : 			{ // room at end, construct it there
; 814  : 			_Orphan_range(_Mylast, _Mylast);
; 815  : 			_Mylast = _Ufill(_Mylast, 1, _Val);
; 816  : 			}
; 817  : 
; 818  :  #else /* _HAS_ITERATOR_DEBUGGING */
; 819  : 			_Mylast = _Ufill(_Mylast, 1, _Val);

	mov	eax, DWORD PTR __Val$[ebp]
	push	eax
	push	1
	mov	ecx, DWORD PTR _this$[ebp]
	mov	edx, DWORD PTR [ecx+16]
	push	edx
	mov	ecx, DWORD PTR _this$[ebp]
	call	?_Ufill@?$vector@W4VERTPROCESS_T@Ogre@@V?$allocator@W4VERTPROCESS_T@Ogre@@@std@@@std@@IAEPAW4VERTPROCESS_T@Ogre@@PAW434@IABW434@@Z ; std::vector<enum Ogre::VERTPROCESS_T,std::allocator<enum Ogre::VERTPROCESS_T> >::_Ufill
	mov	ecx, DWORD PTR _this$[ebp]
	mov	DWORD PTR [ecx+16], eax

; 820  :  #endif /* _HAS_ITERATOR_DEBUGGING */
; 821  : 
; 822  : 		else

	jmp	SHORT $LN3@push_back@5
$LN2@push_back@5:

; 823  : 			insert(end(), _Val);

	lea	edx, DWORD PTR $T141711[ebp]
	push	edx
	mov	ecx, DWORD PTR _this$[ebp]
	call	?end@?$vector@W4VERTPROCESS_T@Ogre@@V?$allocator@W4VERTPROCESS_T@Ogre@@@std@@@std@@QAE?AV?$_Vector_iterator@W4VERTPROCESS_T@Ogre@@V?$allocator@W4VERTPROCESS_T@Ogre@@@std@@@2@XZ ; std::vector<enum Ogre::VERTPROCESS_T,std::allocator<enum Ogre::VERTPROCESS_T> >::end
	mov	ecx, DWORD PTR [eax]
	mov	edx, DWORD PTR [eax+4]
	mov	DWORD PTR $T141710[ebp], ecx
	mov	DWORD PTR $T141710[ebp+4], edx
	mov	eax, DWORD PTR __Val$[ebp]
	push	eax
	mov	ecx, DWORD PTR $T141710[ebp+4]
	push	ecx
	mov	edx, DWORD PTR $T141710[ebp]
	push	edx
	lea	eax, DWORD PTR $T141712[ebp]
	push	eax
	mov	ecx, DWORD PTR _this$[ebp]
	call	?insert@?$vector@W4VERTPROCESS_T@Ogre@@V?$allocator@W4VERTPROCESS_T@Ogre@@@std@@@std@@QAE?AV?$_Vector_iterator@W4VERTPROCESS_T@Ogre@@V?$allocator@W4VERTPROCESS_T@Ogre@@@std@@@2@V?$_Vector_const_iterator@W4VERTPROCESS_T@Ogre@@V?$allocator@W4VERTPROCESS_T@Ogre@@@std@@@2@ABW4VERTPROCESS_T@Ogre@@@Z ; std::vector<enum Ogre::VERTPROCESS_T,std::allocator<enum Ogre::VERTPROCESS_T> >::insert
$LN3@push_back@5:

; 824  : 		}

	pop	esi
	mov	esp, ebp
	pop	ebp
	ret	4
?push_back@?$vector@W4VERTPROCESS_T@Ogre@@V?$allocator@W4VERTPROCESS_T@Ogre@@@std@@@std@@QAEXABW4VERTPROCESS_T@Ogre@@@Z ENDP ; std::vector<enum Ogre::VERTPROCESS_T,std::allocator<enum Ogre::VERTPROCESS_T> >::push_back
_TEXT	ENDS
PUBLIC	??1?$_Vector_val@PAUD3DDEVCOMBO_T@Ogre@@V?$allocator@PAUD3DDEVCOMBO_T@Ogre@@@std@@@std@@QAE@XZ ; std::_Vector_val<Ogre::D3DDEVCOMBO_T *,std::allocator<Ogre::D3DDEVCOMBO_T *> >::~_Vector_val<Ogre::D3DDEVCOMBO_T *,std::allocator<Ogre::D3DDEVCOMBO_T *> >
PUBLIC	?_Buy@?$vector@PAUD3DDEVCOMBO_T@Ogre@@V?$allocator@PAUD3DDEVCOMBO_T@Ogre@@@std@@@std@@IAE_NI@Z ; std::vector<Ogre::D3DDEVCOMBO_T *,std::allocator<Ogre::D3DDEVCOMBO_T *> >::_Buy
PUBLIC	??0?$_Vector_val@PAUD3DDEVCOMBO_T@Ogre@@V?$allocator@PAUD3DDEVCOMBO_T@Ogre@@@std@@@std@@IAE@V?$allocator@PAUD3DDEVCOMBO_T@Ogre@@@1@@Z ; std::_Vector_val<Ogre::D3DDEVCOMBO_T *,std::allocator<Ogre::D3DDEVCOMBO_T *> >::_Vector_val<Ogre::D3DDEVCOMBO_T *,std::allocator<Ogre::D3DDEVCOMBO_T *> >
PUBLIC	??0?$allocator@PAUD3DDEVCOMBO_T@Ogre@@@std@@QAE@XZ ; std::allocator<Ogre::D3DDEVCOMBO_T *>::allocator<Ogre::D3DDEVCOMBO_T *>
;	COMDAT xdata$x
xdata$x	SEGMENT
__unwindtable$??0?$vector@PAUD3DDEVCOMBO_T@Ogre@@V?$allocator@PAUD3DDEVCOMBO_T@Ogre@@@std@@@std@@QAE@XZ DD 0ffffffffH
	DD	FLAT:__unwindfunclet$??0?$vector@PAUD3DDEVCOMBO_T@Ogre@@V?$allocator@PAUD3DDEVCOMBO_T@Ogre@@@std@@@std@@QAE@XZ$0
__ehfuncinfo$??0?$vector@PAUD3DDEVCOMBO_T@Ogre@@V?$allocator@PAUD3DDEVCOMBO_T@Ogre@@@std@@@std@@QAE@XZ DD 019930522H
	DD	01H
	DD	FLAT:__unwindtable$??0?$vector@PAUD3DDEVCOMBO_T@Ogre@@V?$allocator@PAUD3DDEVCOMBO_T@Ogre@@@std@@@std@@QAE@XZ
	DD	2 DUP(00H)
	DD	2 DUP(00H)
	DD	00H
	DD	00H
; Function compile flags: /Odtp
xdata$x	ENDS
;	COMDAT ??0?$vector@PAUD3DDEVCOMBO_T@Ogre@@V?$allocator@PAUD3DDEVCOMBO_T@Ogre@@@std@@@std@@QAE@XZ
_TEXT	SEGMENT
_this$ = -20						; size = 4
$T141715 = -16						; size = 4
__$EHRec$ = -12						; size = 12
??0?$vector@PAUD3DDEVCOMBO_T@Ogre@@V?$allocator@PAUD3DDEVCOMBO_T@Ogre@@@std@@@std@@QAE@XZ PROC ; std::vector<Ogre::D3DDEVCOMBO_T *,std::allocator<Ogre::D3DDEVCOMBO_T *> >::vector<Ogre::D3DDEVCOMBO_T *,std::allocator<Ogre::D3DDEVCOMBO_T *> >, COMDAT
; _this$ = ecx

; 470  : 		{	// construct empty vector

	push	ebp
	mov	ebp, esp
	push	-1
	push	__ehhandler$??0?$vector@PAUD3DDEVCOMBO_T@Ogre@@V?$allocator@PAUD3DDEVCOMBO_T@Ogre@@@std@@@std@@QAE@XZ
	mov	eax, DWORD PTR fs:0
	push	eax
	sub	esp, 8
	mov	eax, DWORD PTR ___security_cookie
	xor	eax, ebp
	push	eax
	lea	eax, DWORD PTR __$EHRec$[ebp]
	mov	DWORD PTR fs:0, eax
	mov	DWORD PTR _this$[ebp], ecx
	push	ecx
	mov	ecx, esp
	mov	DWORD PTR $T141715[ebp], esp
	call	??0?$allocator@PAUD3DDEVCOMBO_T@Ogre@@@std@@QAE@XZ ; std::allocator<Ogre::D3DDEVCOMBO_T *>::allocator<Ogre::D3DDEVCOMBO_T *>
	mov	ecx, DWORD PTR _this$[ebp]
	call	??0?$_Vector_val@PAUD3DDEVCOMBO_T@Ogre@@V?$allocator@PAUD3DDEVCOMBO_T@Ogre@@@std@@@std@@IAE@V?$allocator@PAUD3DDEVCOMBO_T@Ogre@@@1@@Z ; std::_Vector_val<Ogre::D3DDEVCOMBO_T *,std::allocator<Ogre::D3DDEVCOMBO_T *> >::_Vector_val<Ogre::D3DDEVCOMBO_T *,std::allocator<Ogre::D3DDEVCOMBO_T *> >
	mov	DWORD PTR __$EHRec$[ebp+8], 0

; 471  : 		_Buy(0);

	push	0
	mov	ecx, DWORD PTR _this$[ebp]
	call	?_Buy@?$vector@PAUD3DDEVCOMBO_T@Ogre@@V?$allocator@PAUD3DDEVCOMBO_T@Ogre@@@std@@@std@@IAE_NI@Z ; std::vector<Ogre::D3DDEVCOMBO_T *,std::allocator<Ogre::D3DDEVCOMBO_T *> >::_Buy

; 472  : 		}

	mov	DWORD PTR __$EHRec$[ebp+8], -1
	mov	eax, DWORD PTR _this$[ebp]
	mov	ecx, DWORD PTR __$EHRec$[ebp]
	mov	DWORD PTR fs:0, ecx
	pop	ecx
	mov	esp, ebp
	pop	ebp
	ret	0
_TEXT	ENDS
;	COMDAT text$x
text$x	SEGMENT
__unwindfunclet$??0?$vector@PAUD3DDEVCOMBO_T@Ogre@@V?$allocator@PAUD3DDEVCOMBO_T@Ogre@@@std@@@std@@QAE@XZ$0:
	mov	ecx, DWORD PTR _this$[ebp]
	jmp	??1?$_Vector_val@PAUD3DDEVCOMBO_T@Ogre@@V?$allocator@PAUD3DDEVCOMBO_T@Ogre@@@std@@@std@@QAE@XZ
__ehhandler$??0?$vector@PAUD3DDEVCOMBO_T@Ogre@@V?$allocator@PAUD3DDEVCOMBO_T@Ogre@@@std@@@std@@QAE@XZ:
	mov	edx, DWORD PTR [esp+8]
	lea	eax, DWORD PTR [edx+12]
	mov	ecx, DWORD PTR [edx-12]
	xor	ecx, eax
	call	@__security_check_cookie@4
	mov	eax, OFFSET __ehfuncinfo$??0?$vector@PAUD3DDEVCOMBO_T@Ogre@@V?$allocator@PAUD3DDEVCOMBO_T@Ogre@@@std@@@std@@QAE@XZ
	jmp	___CxxFrameHandler3
text$x	ENDS
??0?$vector@PAUD3DDEVCOMBO_T@Ogre@@V?$allocator@PAUD3DDEVCOMBO_T@Ogre@@@std@@@std@@QAE@XZ ENDP ; std::vector<Ogre::D3DDEVCOMBO_T *,std::allocator<Ogre::D3DDEVCOMBO_T *> >::vector<Ogre::D3DDEVCOMBO_T *,std::allocator<Ogre::D3DDEVCOMBO_T *> >
PUBLIC	?_Tidy@?$vector@PAUD3DDEVCOMBO_T@Ogre@@V?$allocator@PAUD3DDEVCOMBO_T@Ogre@@@std@@@std@@IAEXXZ ; std::vector<Ogre::D3DDEVCOMBO_T *,std::allocator<Ogre::D3DDEVCOMBO_T *> >::_Tidy
;	COMDAT xdata$x
xdata$x	SEGMENT
__unwindtable$??1?$vector@PAUD3DDEVCOMBO_T@Ogre@@V?$allocator@PAUD3DDEVCOMBO_T@Ogre@@@std@@@std@@QAE@XZ DD 0ffffffffH
	DD	FLAT:__unwindfunclet$??1?$vector@PAUD3DDEVCOMBO_T@Ogre@@V?$allocator@PAUD3DDEVCOMBO_T@Ogre@@@std@@@std@@QAE@XZ$0
__ehfuncinfo$??1?$vector@PAUD3DDEVCOMBO_T@Ogre@@V?$allocator@PAUD3DDEVCOMBO_T@Ogre@@@std@@@std@@QAE@XZ DD 019930522H
	DD	01H
	DD	FLAT:__unwindtable$??1?$vector@PAUD3DDEVCOMBO_T@Ogre@@V?$allocator@PAUD3DDEVCOMBO_T@Ogre@@@std@@@std@@QAE@XZ
	DD	2 DUP(00H)
	DD	2 DUP(00H)
	DD	00H
	DD	00H
; Function compile flags: /Odtp
xdata$x	ENDS
;	COMDAT ??1?$vector@PAUD3DDEVCOMBO_T@Ogre@@V?$allocator@PAUD3DDEVCOMBO_T@Ogre@@@std@@@std@@QAE@XZ
_TEXT	SEGMENT
_this$ = -16						; size = 4
__$EHRec$ = -12						; size = 12
??1?$vector@PAUD3DDEVCOMBO_T@Ogre@@V?$allocator@PAUD3DDEVCOMBO_T@Ogre@@@std@@@std@@QAE@XZ PROC ; std::vector<Ogre::D3DDEVCOMBO_T *,std::allocator<Ogre::D3DDEVCOMBO_T *> >::~vector<Ogre::D3DDEVCOMBO_T *,std::allocator<Ogre::D3DDEVCOMBO_T *> >, COMDAT
; _this$ = ecx

; 558  : 		{	// destroy the object

	push	ebp
	mov	ebp, esp
	push	-1
	push	__ehhandler$??1?$vector@PAUD3DDEVCOMBO_T@Ogre@@V?$allocator@PAUD3DDEVCOMBO_T@Ogre@@@std@@@std@@QAE@XZ
	mov	eax, DWORD PTR fs:0
	push	eax
	push	ecx
	mov	eax, DWORD PTR ___security_cookie
	xor	eax, ebp
	push	eax
	lea	eax, DWORD PTR __$EHRec$[ebp]
	mov	DWORD PTR fs:0, eax
	mov	DWORD PTR _this$[ebp], ecx
	mov	DWORD PTR __$EHRec$[ebp+8], 0

; 559  : 		_Tidy();

	mov	ecx, DWORD PTR _this$[ebp]
	call	?_Tidy@?$vector@PAUD3DDEVCOMBO_T@Ogre@@V?$allocator@PAUD3DDEVCOMBO_T@Ogre@@@std@@@std@@IAEXXZ ; std::vector<Ogre::D3DDEVCOMBO_T *,std::allocator<Ogre::D3DDEVCOMBO_T *> >::_Tidy

; 560  : 		}

	mov	DWORD PTR __$EHRec$[ebp+8], -1
	mov	ecx, DWORD PTR _this$[ebp]
	call	??1?$_Vector_val@PAUD3DDEVCOMBO_T@Ogre@@V?$allocator@PAUD3DDEVCOMBO_T@Ogre@@@std@@@std@@QAE@XZ
	mov	ecx, DWORD PTR __$EHRec$[ebp]
	mov	DWORD PTR fs:0, ecx
	pop	ecx
	mov	esp, ebp
	pop	ebp
	ret	0
_TEXT	ENDS
;	COMDAT text$x
text$x	SEGMENT
__unwindfunclet$??1?$vector@PAUD3DDEVCOMBO_T@Ogre@@V?$allocator@PAUD3DDEVCOMBO_T@Ogre@@@std@@@std@@QAE@XZ$0:
	mov	ecx, DWORD PTR _this$[ebp]
	jmp	??1?$_Vector_val@PAUD3DDEVCOMBO_T@Ogre@@V?$allocator@PAUD3DDEVCOMBO_T@Ogre@@@std@@@std@@QAE@XZ
__ehhandler$??1?$vector@PAUD3DDEVCOMBO_T@Ogre@@V?$allocator@PAUD3DDEVCOMBO_T@Ogre@@@std@@@std@@QAE@XZ:
	mov	edx, DWORD PTR [esp+8]
	lea	eax, DWORD PTR [edx+12]
	mov	ecx, DWORD PTR [edx-8]
	xor	ecx, eax
	call	@__security_check_cookie@4
	mov	eax, OFFSET __ehfuncinfo$??1?$vector@PAUD3DDEVCOMBO_T@Ogre@@V?$allocator@PAUD3DDEVCOMBO_T@Ogre@@@std@@@std@@QAE@XZ
	jmp	___CxxFrameHandler3
text$x	ENDS
??1?$vector@PAUD3DDEVCOMBO_T@Ogre@@V?$allocator@PAUD3DDEVCOMBO_T@Ogre@@@std@@@std@@QAE@XZ ENDP ; std::vector<Ogre::D3DDEVCOMBO_T *,std::allocator<Ogre::D3DDEVCOMBO_T *> >::~vector<Ogre::D3DDEVCOMBO_T *,std::allocator<Ogre::D3DDEVCOMBO_T *> >
; Function compile flags: /Odtp
;	COMDAT ?size@?$vector@PAUD3DDEVCOMBO_T@Ogre@@V?$allocator@PAUD3DDEVCOMBO_T@Ogre@@@std@@@std@@QBEIXZ
_TEXT	SEGMENT
_this$ = -4						; size = 4
?size@?$vector@PAUD3DDEVCOMBO_T@Ogre@@V?$allocator@PAUD3DDEVCOMBO_T@Ogre@@@std@@@std@@QBEIXZ PROC ; std::vector<Ogre::D3DDEVCOMBO_T *,std::allocator<Ogre::D3DDEVCOMBO_T *> >::size, COMDAT
; _this$ = ecx

; 725  : 		{	// return length of sequence

	push	ebp
	mov	ebp, esp
	push	ecx
	mov	DWORD PTR _this$[ebp], ecx

; 726  : 		return (_Mylast - _Myfirst);

	mov	eax, DWORD PTR _this$[ebp]
	mov	ecx, DWORD PTR _this$[ebp]
	mov	eax, DWORD PTR [eax+16]
	sub	eax, DWORD PTR [ecx+12]
	sar	eax, 2

; 727  : 		}

	mov	esp, ebp
	pop	ebp
	ret	0
?size@?$vector@PAUD3DDEVCOMBO_T@Ogre@@V?$allocator@PAUD3DDEVCOMBO_T@Ogre@@@std@@@std@@QBEIXZ ENDP ; std::vector<Ogre::D3DDEVCOMBO_T *,std::allocator<Ogre::D3DDEVCOMBO_T *> >::size
; Function compile flags: /Odtp
_TEXT	ENDS
;	COMDAT ?empty@?$vector@PAUD3DDEVCOMBO_T@Ogre@@V?$allocator@PAUD3DDEVCOMBO_T@Ogre@@@std@@@std@@QBE_NXZ
_TEXT	SEGMENT
_this$ = -4						; size = 4
?empty@?$vector@PAUD3DDEVCOMBO_T@Ogre@@V?$allocator@PAUD3DDEVCOMBO_T@Ogre@@@std@@@std@@QBE_NXZ PROC ; std::vector<Ogre::D3DDEVCOMBO_T *,std::allocator<Ogre::D3DDEVCOMBO_T *> >::empty, COMDAT
; _this$ = ecx

; 735  : 		{	// test if sequence is empty

	push	ebp
	mov	ebp, esp
	push	ecx
	mov	DWORD PTR _this$[ebp], ecx

; 736  : 		return (size() == 0);

	mov	ecx, DWORD PTR _this$[ebp]
	call	?size@?$vector@PAUD3DDEVCOMBO_T@Ogre@@V?$allocator@PAUD3DDEVCOMBO_T@Ogre@@@std@@@std@@QBEIXZ ; std::vector<Ogre::D3DDEVCOMBO_T *,std::allocator<Ogre::D3DDEVCOMBO_T *> >::size
	neg	eax
	sbb	eax, eax
	add	eax, 1

; 737  : 		}

	mov	esp, ebp
	pop	ebp
	ret	0
?empty@?$vector@PAUD3DDEVCOMBO_T@Ogre@@V?$allocator@PAUD3DDEVCOMBO_T@Ogre@@@std@@@std@@QBE_NXZ ENDP ; std::vector<Ogre::D3DDEVCOMBO_T *,std::allocator<Ogre::D3DDEVCOMBO_T *> >::empty
; Function compile flags: /Odtp
_TEXT	ENDS
;	COMDAT ??A?$vector@PAUD3DDEVCOMBO_T@Ogre@@V?$allocator@PAUD3DDEVCOMBO_T@Ogre@@@std@@@std@@QAEAAPAUD3DDEVCOMBO_T@Ogre@@I@Z
_TEXT	SEGMENT
_this$ = -4						; size = 4
__Pos$ = 8						; size = 4
??A?$vector@PAUD3DDEVCOMBO_T@Ogre@@V?$allocator@PAUD3DDEVCOMBO_T@Ogre@@@std@@@std@@QAEAAPAUD3DDEVCOMBO_T@Ogre@@I@Z PROC ; std::vector<Ogre::D3DDEVCOMBO_T *,std::allocator<Ogre::D3DDEVCOMBO_T *> >::operator[], COMDAT
; _this$ = ecx

; 774  : 		{	// subscript mutable sequence

	push	ebp
	mov	ebp, esp
	push	ecx
	mov	DWORD PTR _this$[ebp], ecx

; 775  : 
; 776  :  #if _HAS_ITERATOR_DEBUGGING
; 777  : 		if (size() <= _Pos)
; 778  : 			{
; 779  : 			_DEBUG_ERROR("vector subscript out of range");
; 780  : 			_SCL_SECURE_OUT_OF_RANGE;
; 781  : 			}
; 782  :  #endif /* _HAS_ITERATOR_DEBUGGING */
; 783  : 		_SCL_SECURE_VALIDATE_RANGE(_Pos < size());

	mov	ecx, DWORD PTR _this$[ebp]
	call	?size@?$vector@PAUD3DDEVCOMBO_T@Ogre@@V?$allocator@PAUD3DDEVCOMBO_T@Ogre@@@std@@@std@@QBEIXZ ; std::vector<Ogre::D3DDEVCOMBO_T *,std::allocator<Ogre::D3DDEVCOMBO_T *> >::size
	cmp	DWORD PTR __Pos$[ebp], eax
	jb	SHORT $LN1@operator@4
	call	DWORD PTR __imp___invalid_parameter_noinfo
$LN1@operator@4:

; 784  : 
; 785  : 		return (*(_Myfirst + _Pos));

	mov	eax, DWORD PTR _this$[ebp]
	mov	ecx, DWORD PTR [eax+12]
	mov	edx, DWORD PTR __Pos$[ebp]
	lea	eax, DWORD PTR [ecx+edx*4]

; 786  : 		}

	mov	esp, ebp
	pop	ebp
	ret	4
??A?$vector@PAUD3DDEVCOMBO_T@Ogre@@V?$allocator@PAUD3DDEVCOMBO_T@Ogre@@@std@@@std@@QAEAAPAUD3DDEVCOMBO_T@Ogre@@I@Z ENDP ; std::vector<Ogre::D3DDEVCOMBO_T *,std::allocator<Ogre::D3DDEVCOMBO_T *> >::operator[]
_TEXT	ENDS
PUBLIC	?insert@?$vector@PAUD3DDEVCOMBO_T@Ogre@@V?$allocator@PAUD3DDEVCOMBO_T@Ogre@@@std@@@std@@QAE?AV?$_Vector_iterator@PAUD3DDEVCOMBO_T@Ogre@@V?$allocator@PAUD3DDEVCOMBO_T@Ogre@@@std@@@2@V?$_Vector_const_iterator@PAUD3DDEVCOMBO_T@Ogre@@V?$allocator@PAUD3DDEVCOMBO_T@Ogre@@@std@@@2@ABQAUD3DDEVCOMBO_T@Ogre@@@Z ; std::vector<Ogre::D3DDEVCOMBO_T *,std::allocator<Ogre::D3DDEVCOMBO_T *> >::insert
PUBLIC	?end@?$vector@PAUD3DDEVCOMBO_T@Ogre@@V?$allocator@PAUD3DDEVCOMBO_T@Ogre@@@std@@@std@@QAE?AV?$_Vector_iterator@PAUD3DDEVCOMBO_T@Ogre@@V?$allocator@PAUD3DDEVCOMBO_T@Ogre@@@std@@@2@XZ ; std::vector<Ogre::D3DDEVCOMBO_T *,std::allocator<Ogre::D3DDEVCOMBO_T *> >::end
PUBLIC	?_Ufill@?$vector@PAUD3DDEVCOMBO_T@Ogre@@V?$allocator@PAUD3DDEVCOMBO_T@Ogre@@@std@@@std@@IAEPAPAUD3DDEVCOMBO_T@Ogre@@PAPAU34@IABQAU34@@Z ; std::vector<Ogre::D3DDEVCOMBO_T *,std::allocator<Ogre::D3DDEVCOMBO_T *> >::_Ufill
PUBLIC	?capacity@?$vector@PAUD3DDEVCOMBO_T@Ogre@@V?$allocator@PAUD3DDEVCOMBO_T@Ogre@@@std@@@std@@QBEIXZ ; std::vector<Ogre::D3DDEVCOMBO_T *,std::allocator<Ogre::D3DDEVCOMBO_T *> >::capacity
; Function compile flags: /Odtp
;	COMDAT ?push_back@?$vector@PAUD3DDEVCOMBO_T@Ogre@@V?$allocator@PAUD3DDEVCOMBO_T@Ogre@@@std@@@std@@QAEXABQAUD3DDEVCOMBO_T@Ogre@@@Z
_TEXT	SEGMENT
_this$ = -28						; size = 4
$T141742 = -24						; size = 8
$T141741 = -16						; size = 8
$T141740 = -8						; size = 8
__Val$ = 8						; size = 4
?push_back@?$vector@PAUD3DDEVCOMBO_T@Ogre@@V?$allocator@PAUD3DDEVCOMBO_T@Ogre@@@std@@@std@@QAEXABQAUD3DDEVCOMBO_T@Ogre@@@Z PROC ; std::vector<Ogre::D3DDEVCOMBO_T *,std::allocator<Ogre::D3DDEVCOMBO_T *> >::push_back, COMDAT
; _this$ = ecx

; 809  : 		{	// insert element at end

	push	ebp
	mov	ebp, esp
	sub	esp, 28					; 0000001cH
	push	esi
	mov	DWORD PTR _this$[ebp], ecx

; 810  : 		if (size() < capacity())

	mov	ecx, DWORD PTR _this$[ebp]
	call	?size@?$vector@PAUD3DDEVCOMBO_T@Ogre@@V?$allocator@PAUD3DDEVCOMBO_T@Ogre@@@std@@@std@@QBEIXZ ; std::vector<Ogre::D3DDEVCOMBO_T *,std::allocator<Ogre::D3DDEVCOMBO_T *> >::size
	mov	esi, eax
	mov	ecx, DWORD PTR _this$[ebp]
	call	?capacity@?$vector@PAUD3DDEVCOMBO_T@Ogre@@V?$allocator@PAUD3DDEVCOMBO_T@Ogre@@@std@@@std@@QBEIXZ ; std::vector<Ogre::D3DDEVCOMBO_T *,std::allocator<Ogre::D3DDEVCOMBO_T *> >::capacity
	cmp	esi, eax
	jae	SHORT $LN2@push_back@6

; 811  : 
; 812  :  #if _HAS_ITERATOR_DEBUGGING
; 813  : 			{ // room at end, construct it there
; 814  : 			_Orphan_range(_Mylast, _Mylast);
; 815  : 			_Mylast = _Ufill(_Mylast, 1, _Val);
; 816  : 			}
; 817  : 
; 818  :  #else /* _HAS_ITERATOR_DEBUGGING */
; 819  : 			_Mylast = _Ufill(_Mylast, 1, _Val);

	mov	eax, DWORD PTR __Val$[ebp]
	push	eax
	push	1
	mov	ecx, DWORD PTR _this$[ebp]
	mov	edx, DWORD PTR [ecx+16]
	push	edx
	mov	ecx, DWORD PTR _this$[ebp]
	call	?_Ufill@?$vector@PAUD3DDEVCOMBO_T@Ogre@@V?$allocator@PAUD3DDEVCOMBO_T@Ogre@@@std@@@std@@IAEPAPAUD3DDEVCOMBO_T@Ogre@@PAPAU34@IABQAU34@@Z ; std::vector<Ogre::D3DDEVCOMBO_T *,std::allocator<Ogre::D3DDEVCOMBO_T *> >::_Ufill
	mov	ecx, DWORD PTR _this$[ebp]
	mov	DWORD PTR [ecx+16], eax

; 820  :  #endif /* _HAS_ITERATOR_DEBUGGING */
; 821  : 
; 822  : 		else

	jmp	SHORT $LN3@push_back@6
$LN2@push_back@6:

; 823  : 			insert(end(), _Val);

	lea	edx, DWORD PTR $T141741[ebp]
	push	edx
	mov	ecx, DWORD PTR _this$[ebp]
	call	?end@?$vector@PAUD3DDEVCOMBO_T@Ogre@@V?$allocator@PAUD3DDEVCOMBO_T@Ogre@@@std@@@std@@QAE?AV?$_Vector_iterator@PAUD3DDEVCOMBO_T@Ogre@@V?$allocator@PAUD3DDEVCOMBO_T@Ogre@@@std@@@2@XZ ; std::vector<Ogre::D3DDEVCOMBO_T *,std::allocator<Ogre::D3DDEVCOMBO_T *> >::end
	mov	ecx, DWORD PTR [eax]
