; Listing generated by Microsoft (R) Optimizing Compiler Version 15.00.30729.01 

	TITLE	i:\svnroot\client\Plugins\RenderSystem_D3D9\OgreD3DMaterialTemplate.cpp
	.686P
	.XMM
	include listing.inc
	.model	flat

INCLUDELIB MSVCRT
INCLUDELIB OLDNAMES

PUBLIC	?_Value@?$_Is_swap_move@U_Swap_move_tag@std@@@std@@2_NB ; std::_Is_swap_move<std::_Swap_move_tag>::_Value
PUBLIC	?collate@?$_Locbase@H@std@@2HB			; std::_Locbase<int>::collate
PUBLIC	?ctype@?$_Locbase@H@std@@2HB			; std::_Locbase<int>::ctype
PUBLIC	?monetary@?$_Locbase@H@std@@2HB			; std::_Locbase<int>::monetary
PUBLIC	?numeric@?$_Locbase@H@std@@2HB			; std::_Locbase<int>::numeric
PUBLIC	?time@?$_Locbase@H@std@@2HB			; std::_Locbase<int>::time
PUBLIC	?messages@?$_Locbase@H@std@@2HB			; std::_Locbase<int>::messages
PUBLIC	?all@?$_Locbase@H@std@@2HB			; std::_Locbase<int>::all
PUBLIC	?none@?$_Locbase@H@std@@2HB			; std::_Locbase<int>::none
PUBLIC	?skipws@?$_Iosb@H@std@@2W4_Fmtflags@12@B	; std::_Iosb<int>::skipws
PUBLIC	?unitbuf@?$_Iosb@H@std@@2W4_Fmtflags@12@B	; std::_Iosb<int>::unitbuf
PUBLIC	?uppercase@?$_Iosb@H@std@@2W4_Fmtflags@12@B	; std::_Iosb<int>::uppercase
PUBLIC	?showbase@?$_Iosb@H@std@@2W4_Fmtflags@12@B	; std::_Iosb<int>::showbase
PUBLIC	?showpoint@?$_Iosb@H@std@@2W4_Fmtflags@12@B	; std::_Iosb<int>::showpoint
PUBLIC	?showpos@?$_Iosb@H@std@@2W4_Fmtflags@12@B	; std::_Iosb<int>::showpos
PUBLIC	?left@?$_Iosb@H@std@@2W4_Fmtflags@12@B		; std::_Iosb<int>::left
PUBLIC	?right@?$_Iosb@H@std@@2W4_Fmtflags@12@B		; std::_Iosb<int>::right
PUBLIC	?internal@?$_Iosb@H@std@@2W4_Fmtflags@12@B	; std::_Iosb<int>::internal
PUBLIC	?dec@?$_Iosb@H@std@@2W4_Fmtflags@12@B		; std::_Iosb<int>::dec
PUBLIC	?oct@?$_Iosb@H@std@@2W4_Fmtflags@12@B		; std::_Iosb<int>::oct
PUBLIC	?hex@?$_Iosb@H@std@@2W4_Fmtflags@12@B		; std::_Iosb<int>::hex
PUBLIC	?scientific@?$_Iosb@H@std@@2W4_Fmtflags@12@B	; std::_Iosb<int>::scientific
PUBLIC	?fixed@?$_Iosb@H@std@@2W4_Fmtflags@12@B		; std::_Iosb<int>::fixed
PUBLIC	?hexfloat@?$_Iosb@H@std@@2W4_Fmtflags@12@B	; std::_Iosb<int>::hexfloat
PUBLIC	?boolalpha@?$_Iosb@H@std@@2W4_Fmtflags@12@B	; std::_Iosb<int>::boolalpha
PUBLIC	?_Stdio@?$_Iosb@H@std@@2W4_Fmtflags@12@B	; std::_Iosb<int>::_Stdio
PUBLIC	?adjustfield@?$_Iosb@H@std@@2W4_Fmtflags@12@B	; std::_Iosb<int>::adjustfield
PUBLIC	?basefield@?$_Iosb@H@std@@2W4_Fmtflags@12@B	; std::_Iosb<int>::basefield
PUBLIC	?floatfield@?$_Iosb@H@std@@2W4_Fmtflags@12@B	; std::_Iosb<int>::floatfield
PUBLIC	?goodbit@?$_Iosb@H@std@@2W4_Iostate@12@B	; std::_Iosb<int>::goodbit
PUBLIC	?eofbit@?$_Iosb@H@std@@2W4_Iostate@12@B		; std::_Iosb<int>::eofbit
PUBLIC	?failbit@?$_Iosb@H@std@@2W4_Iostate@12@B	; std::_Iosb<int>::failbit
PUBLIC	?badbit@?$_Iosb@H@std@@2W4_Iostate@12@B		; std::_Iosb<int>::badbit
PUBLIC	?_Hardfail@?$_Iosb@H@std@@2W4_Iostate@12@B	; std::_Iosb<int>::_Hardfail
PUBLIC	?in@?$_Iosb@H@std@@2W4_Openmode@12@B		; std::_Iosb<int>::in
PUBLIC	?out@?$_Iosb@H@std@@2W4_Openmode@12@B		; std::_Iosb<int>::out
PUBLIC	?ate@?$_Iosb@H@std@@2W4_Openmode@12@B		; std::_Iosb<int>::ate
PUBLIC	?app@?$_Iosb@H@std@@2W4_Openmode@12@B		; std::_Iosb<int>::app
PUBLIC	?trunc@?$_Iosb@H@std@@2W4_Openmode@12@B		; std::_Iosb<int>::trunc
PUBLIC	?_Nocreate@?$_Iosb@H@std@@2W4_Openmode@12@B	; std::_Iosb<int>::_Nocreate
PUBLIC	?_Noreplace@?$_Iosb@H@std@@2W4_Openmode@12@B	; std::_Iosb<int>::_Noreplace
PUBLIC	?binary@?$_Iosb@H@std@@2W4_Openmode@12@B	; std::_Iosb<int>::binary
PUBLIC	?beg@?$_Iosb@H@std@@2W4_Seekdir@12@B		; std::_Iosb<int>::beg
PUBLIC	?cur@?$_Iosb@H@std@@2W4_Seekdir@12@B		; std::_Iosb<int>::cur
PUBLIC	?end@?$_Iosb@H@std@@2W4_Seekdir@12@B		; std::_Iosb<int>::end
PUBLIC	?value@?$integral_constant@_N$0A@@tr1@std@@2_NB	; std::tr1::integral_constant<bool,0>::value
PUBLIC	?value@?$integral_constant@_N$00@tr1@std@@2_NB	; std::tr1::integral_constant<bool,1>::value
;	COMDAT ?value@?$integral_constant@_N$00@tr1@std@@2_NB
CONST	SEGMENT
?value@?$integral_constant@_N$00@tr1@std@@2_NB DB 01H	; std::tr1::integral_constant<bool,1>::value
CONST	ENDS
;	COMDAT ?value@?$integral_constant@_N$0A@@tr1@std@@2_NB
CONST	SEGMENT
?value@?$integral_constant@_N$0A@@tr1@std@@2_NB DB 00H	; std::tr1::integral_constant<bool,0>::value
CONST	ENDS
;	COMDAT ?end@?$_Iosb@H@std@@2W4_Seekdir@12@B
CONST	SEGMENT
?end@?$_Iosb@H@std@@2W4_Seekdir@12@B DD 02H		; std::_Iosb<int>::end
CONST	ENDS
;	COMDAT ?cur@?$_Iosb@H@std@@2W4_Seekdir@12@B
CONST	SEGMENT
?cur@?$_Iosb@H@std@@2W4_Seekdir@12@B DD 01H		; std::_Iosb<int>::cur
CONST	ENDS
;	COMDAT ?beg@?$_Iosb@H@std@@2W4_Seekdir@12@B
CONST	SEGMENT
?beg@?$_Iosb@H@std@@2W4_Seekdir@12@B DD 00H		; std::_Iosb<int>::beg
CONST	ENDS
;	COMDAT ?binary@?$_Iosb@H@std@@2W4_Openmode@12@B
CONST	SEGMENT
?binary@?$_Iosb@H@std@@2W4_Openmode@12@B DD 020H	; std::_Iosb<int>::binary
CONST	ENDS
;	COMDAT ?_Noreplace@?$_Iosb@H@std@@2W4_Openmode@12@B
CONST	SEGMENT
?_Noreplace@?$_Iosb@H@std@@2W4_Openmode@12@B DD 080H	; std::_Iosb<int>::_Noreplace
CONST	ENDS
;	COMDAT ?_Nocreate@?$_Iosb@H@std@@2W4_Openmode@12@B
CONST	SEGMENT
?_Nocreate@?$_Iosb@H@std@@2W4_Openmode@12@B DD 040H	; std::_Iosb<int>::_Nocreate
CONST	ENDS
;	COMDAT ?trunc@?$_Iosb@H@std@@2W4_Openmode@12@B
CONST	SEGMENT
?trunc@?$_Iosb@H@std@@2W4_Openmode@12@B DD 010H		; std::_Iosb<int>::trunc
CONST	ENDS
;	COMDAT ?app@?$_Iosb@H@std@@2W4_Openmode@12@B
CONST	SEGMENT
?app@?$_Iosb@H@std@@2W4_Openmode@12@B DD 08H		; std::_Iosb<int>::app
CONST	ENDS
;	COMDAT ?ate@?$_Iosb@H@std@@2W4_Openmode@12@B
CONST	SEGMENT
?ate@?$_Iosb@H@std@@2W4_Openmode@12@B DD 04H		; std::_Iosb<int>::ate
CONST	ENDS
;	COMDAT ?out@?$_Iosb@H@std@@2W4_Openmode@12@B
CONST	SEGMENT
?out@?$_Iosb@H@std@@2W4_Openmode@12@B DD 02H		; std::_Iosb<int>::out
CONST	ENDS
;	COMDAT ?in@?$_Iosb@H@std@@2W4_Openmode@12@B
CONST	SEGMENT
?in@?$_Iosb@H@std@@2W4_Openmode@12@B DD 01H		; std::_Iosb<int>::in
CONST	ENDS
;	COMDAT ?_Hardfail@?$_Iosb@H@std@@2W4_Iostate@12@B
CONST	SEGMENT
?_Hardfail@?$_Iosb@H@std@@2W4_Iostate@12@B DD 010H	; std::_Iosb<int>::_Hardfail
CONST	ENDS
;	COMDAT ?badbit@?$_Iosb@H@std@@2W4_Iostate@12@B
CONST	SEGMENT
?badbit@?$_Iosb@H@std@@2W4_Iostate@12@B DD 04H		; std::_Iosb<int>::badbit
CONST	ENDS
;	COMDAT ?failbit@?$_Iosb@H@std@@2W4_Iostate@12@B
CONST	SEGMENT
?failbit@?$_Iosb@H@std@@2W4_Iostate@12@B DD 02H		; std::_Iosb<int>::failbit
CONST	ENDS
;	COMDAT ?eofbit@?$_Iosb@H@std@@2W4_Iostate@12@B
CONST	SEGMENT
?eofbit@?$_Iosb@H@std@@2W4_Iostate@12@B DD 01H		; std::_Iosb<int>::eofbit
CONST	ENDS
;	COMDAT ?goodbit@?$_Iosb@H@std@@2W4_Iostate@12@B
CONST	SEGMENT
?goodbit@?$_Iosb@H@std@@2W4_Iostate@12@B DD 00H		; std::_Iosb<int>::goodbit
CONST	ENDS
;	COMDAT ?floatfield@?$_Iosb@H@std@@2W4_Fmtflags@12@B
CONST	SEGMENT
?floatfield@?$_Iosb@H@std@@2W4_Fmtflags@12@B DD 03000H	; std::_Iosb<int>::floatfield
CONST	ENDS
;	COMDAT ?basefield@?$_Iosb@H@std@@2W4_Fmtflags@12@B
CONST	SEGMENT
?basefield@?$_Iosb@H@std@@2W4_Fmtflags@12@B DD 0e00H	; std::_Iosb<int>::basefield
CONST	ENDS
;	COMDAT ?adjustfield@?$_Iosb@H@std@@2W4_Fmtflags@12@B
CONST	SEGMENT
?adjustfield@?$_Iosb@H@std@@2W4_Fmtflags@12@B DD 01c0H	; std::_Iosb<int>::adjustfield
CONST	ENDS
;	COMDAT ?_Stdio@?$_Iosb@H@std@@2W4_Fmtflags@12@B
CONST	SEGMENT
?_Stdio@?$_Iosb@H@std@@2W4_Fmtflags@12@B DD 08000H	; std::_Iosb<int>::_Stdio
CONST	ENDS
;	COMDAT ?boolalpha@?$_Iosb@H@std@@2W4_Fmtflags@12@B
CONST	SEGMENT
?boolalpha@?$_Iosb@H@std@@2W4_Fmtflags@12@B DD 04000H	; std::_Iosb<int>::boolalpha
CONST	ENDS
;	COMDAT ?hexfloat@?$_Iosb@H@std@@2W4_Fmtflags@12@B
CONST	SEGMENT
?hexfloat@?$_Iosb@H@std@@2W4_Fmtflags@12@B DD 03000H	; std::_Iosb<int>::hexfloat
CONST	ENDS
;	COMDAT ?fixed@?$_Iosb@H@std@@2W4_Fmtflags@12@B
CONST	SEGMENT
?fixed@?$_Iosb@H@std@@2W4_Fmtflags@12@B DD 02000H	; std::_Iosb<int>::fixed
CONST	ENDS
;	COMDAT ?scientific@?$_Iosb@H@std@@2W4_Fmtflags@12@B
CONST	SEGMENT
?scientific@?$_Iosb@H@std@@2W4_Fmtflags@12@B DD 01000H	; std::_Iosb<int>::scientific
CONST	ENDS
;	COMDAT ?hex@?$_Iosb@H@std@@2W4_Fmtflags@12@B
CONST	SEGMENT
?hex@?$_Iosb@H@std@@2W4_Fmtflags@12@B DD 0800H		; std::_Iosb<int>::hex
CONST	ENDS
;	COMDAT ?oct@?$_Iosb@H@std@@2W4_Fmtflags@12@B
CONST	SEGMENT
?oct@?$_Iosb@H@std@@2W4_Fmtflags@12@B DD 0400H		; std::_Iosb<int>::oct
CONST	ENDS
;	COMDAT ?dec@?$_Iosb@H@std@@2W4_Fmtflags@12@B
CONST	SEGMENT
?dec@?$_Iosb@H@std@@2W4_Fmtflags@12@B DD 0200H		; std::_Iosb<int>::dec
CONST	ENDS
;	COMDAT ?internal@?$_Iosb@H@std@@2W4_Fmtflags@12@B
CONST	SEGMENT
?internal@?$_Iosb@H@std@@2W4_Fmtflags@12@B DD 0100H	; std::_Iosb<int>::internal
CONST	ENDS
;	COMDAT ?right@?$_Iosb@H@std@@2W4_Fmtflags@12@B
CONST	SEGMENT
?right@?$_Iosb@H@std@@2W4_Fmtflags@12@B DD 080H		; std::_Iosb<int>::right
CONST	ENDS
;	COMDAT ?left@?$_Iosb@H@std@@2W4_Fmtflags@12@B
CONST	SEGMENT
?left@?$_Iosb@H@std@@2W4_Fmtflags@12@B DD 040H		; std::_Iosb<int>::left
CONST	ENDS
;	COMDAT ?showpos@?$_Iosb@H@std@@2W4_Fmtflags@12@B
CONST	SEGMENT
?showpos@?$_Iosb@H@std@@2W4_Fmtflags@12@B DD 020H	; std::_Iosb<int>::showpos
CONST	ENDS
;	COMDAT ?showpoint@?$_Iosb@H@std@@2W4_Fmtflags@12@B
CONST	SEGMENT
?showpoint@?$_Iosb@H@std@@2W4_Fmtflags@12@B DD 010H	; std::_Iosb<int>::showpoint
CONST	ENDS
;	COMDAT ?showbase@?$_Iosb@H@std@@2W4_Fmtflags@12@B
CONST	SEGMENT
?showbase@?$_Iosb@H@std@@2W4_Fmtflags@12@B DD 08H	; std::_Iosb<int>::showbase
CONST	ENDS
;	COMDAT ?uppercase@?$_Iosb@H@std@@2W4_Fmtflags@12@B
CONST	SEGMENT
?uppercase@?$_Iosb@H@std@@2W4_Fmtflags@12@B DD 04H	; std::_Iosb<int>::uppercase
CONST	ENDS
;	COMDAT ?unitbuf@?$_Iosb@H@std@@2W4_Fmtflags@12@B
CONST	SEGMENT
?unitbuf@?$_Iosb@H@std@@2W4_Fmtflags@12@B DD 02H	; std::_Iosb<int>::unitbuf
CONST	ENDS
;	COMDAT ?skipws@?$_Iosb@H@std@@2W4_Fmtflags@12@B
CONST	SEGMENT
?skipws@?$_Iosb@H@std@@2W4_Fmtflags@12@B DD 01H		; std::_Iosb<int>::skipws
CONST	ENDS
;	COMDAT ?none@?$_Locbase@H@std@@2HB
CONST	SEGMENT
?none@?$_Locbase@H@std@@2HB DD 00H			; std::_Locbase<int>::none
CONST	ENDS
;	COMDAT ?all@?$_Locbase@H@std@@2HB
CONST	SEGMENT
?all@?$_Locbase@H@std@@2HB DD 03fH			; std::_Locbase<int>::all
CONST	ENDS
;	COMDAT ?messages@?$_Locbase@H@std@@2HB
CONST	SEGMENT
?messages@?$_Locbase@H@std@@2HB DD 020H			; std::_Locbase<int>::messages
CONST	ENDS
;	COMDAT ?time@?$_Locbase@H@std@@2HB
CONST	SEGMENT
?time@?$_Locbase@H@std@@2HB DD 010H			; std::_Locbase<int>::time
CONST	ENDS
;	COMDAT ?numeric@?$_Locbase@H@std@@2HB
CONST	SEGMENT
?numeric@?$_Locbase@H@std@@2HB DD 08H			; std::_Locbase<int>::numeric
CONST	ENDS
;	COMDAT ?monetary@?$_Locbase@H@std@@2HB
CONST	SEGMENT
?monetary@?$_Locbase@H@std@@2HB DD 04H			; std::_Locbase<int>::monetary
CONST	ENDS
;	COMDAT ?ctype@?$_Locbase@H@std@@2HB
CONST	SEGMENT
?ctype@?$_Locbase@H@std@@2HB DD 02H			; std::_Locbase<int>::ctype
CONST	ENDS
;	COMDAT ?collate@?$_Locbase@H@std@@2HB
CONST	SEGMENT
?collate@?$_Locbase@H@std@@2HB DD 01H			; std::_Locbase<int>::collate
CONST	ENDS
;	COMDAT ?_Value@?$_Is_swap_move@U_Swap_move_tag@std@@@std@@2_NB
CONST	SEGMENT
?_Value@?$_Is_swap_move@U_Swap_move_tag@std@@@std@@2_NB DB 01H ; std::_Is_swap_move<std::_Swap_move_tag>::_Value
CONST	ENDS
_DATA	SEGMENT
__bad_alloc_Message DD FLAT:$SG5714
_DATA	ENDS
CONST	SEGMENT
$SG5714	DB	'bad allocation', 00H
	ORG $+1
_MAX_FLOAT DD	07f7fffffr			; 3.40282e+038
_ONE_PI	DD	040490fd0r			; 3.14159
_EPSILON DD	03727c5acr			; 1e-005
_RADS_PER_DEG DD 03c8efa35r			; 0.0174533
_DEGS_PER_RAD DD 042652ee1r			; 57.2958
$SG146125 DB	'Technique', 00H
	ORG $+2
$SG146131 DB	'lod', 00H
$SG146132 DB	'usage', 00H
	ORG $+2
$SG146134 DB	'name', 00H
	ORG $+3
$SG146135 DB	'%s_%s', 00H
	ORG $+2
$SG146139 DB	'shaders\test\simple.fx', 00H
	ORG $+1
$SG146157 DB	'shaders\test\', 00H
	ORG $+2
$SG146158 DB	'%s%s.fx', 00H
$SG146167 DB	'vsh', 00H
$SG146168 DB	'psh', 00H
$SG146170 DB	'shaders\test\', 00H
	ORG $+2
$SG146171 DB	'%s%s_%s.%s', 00H
	ORG $+1
$SG146568 DB	'shaders\test\', 00H
	ORG $+2
$SG146569 DB	'%s%s.fx', 00H
$SG146833 DB	'shaders\test\', 00H
	ORG $+2
$SG146834 DB	'%s%s.fx', 00H
$SG147075 DB	'wb', 00H
	ORG $+1
$SG147076 DB	'shadercache.dat', 00H
$SG147080 DB	'wb', 00H
	ORG $+1
$SG147081 DB	'shadercache.dat', 00H
$SG147111 DB	'ShaderEnvKeys.sek', 00H
	ORG $+2
$SG147114 DB	'.\OgreD3DMaterialTemplate.cpp', 00H
	ORG $+2
$SG147115 DB	'begin to load ShaderEnvKeys files', 00H
	ORG $+2
$SG147129 DB	'.\OgreD3DMaterialTemplate.cpp', 00H
	ORG $+2
$SG147130 DB	'end load ShaderEnvKeys, time=%d', 00H
$SG147138 DB	'wb', 00H
	ORG $+1
$SG147139 DB	'ShaderEnvKeys.sek', 00H
	ORG $+2
$SG147157 DB	'.\OgreD3DMaterialTemplate.cpp', 00H
	ORG $+2
$SG147158 DB	'MaxLightNum %d ', 00H
$SG147159 DB	'.\OgreD3DMaterialTemplate.cpp', 00H
	ORG $+2
$SG147160 DB	'MaxSkinNum %d ', 00H
	ORG $+1
$SG147171 DB	'shadercache.dat', 00H
$SG147173 DB	'.\OgreD3DMaterialTemplate.cpp', 00H
	ORG $+2
$SG147174 DB	'shadercache.dat', 00H
$SG147175 DB	'Open shader file failed: %s', 00H
$SG147180 DB	'shadercache.dat', 00H
$SG147182 DB	'.\OgreD3DMaterialTemplate.cpp', 00H
	ORG $+2
$SG147183 DB	'shadercache.dat', 00H
$SG147184 DB	'Open shader file failed: %s', 00H
$SG147202 DB	'.\OgreD3DMaterialTemplate.cpp', 00H
	ORG $+2
$SG147203 DB	'nativeCanUse is false.', 00H
	ORG $+1
$SG147213 DB	'db/shadercache.dat', 00H
	ORG $+1
$SG147215 DB	'.\OgreD3DMaterialTemplate.cpp', 00H
	ORG $+2
$SG147216 DB	'db/shadercache.dat', 00H
	ORG $+1
$SG147217 DB	'Open shader file failed: %s', 00H
$SG147222 DB	'db/shadercache.dat', 00H
	ORG $+1
$SG147224 DB	'.\OgreD3DMaterialTemplate.cpp', 00H
	ORG $+2
$SG147225 DB	'db/shadercache.dat', 00H
	ORG $+1
$SG147226 DB	'Open shader file failed: %s', 00H
$SG147228 DB	'.\OgreD3DMaterialTemplate.cpp', 00H
	ORG $+2
$SG147229 DB	'begin to load shadercache files', 00H
$SG147249 DB	'.\OgreD3DMaterialTemplate.cpp', 00H
	ORG $+2
$SG147250 DB	'end load shadercache, time=%d', 00H
	ORG $+2
$SG147252 DB	'.\OgreD3DMaterialTemplate.cpp', 00H
	ORG $+2
$SG147253 DB	'end compile  shadercache, time=%d', 00H
	ORG $+2
$SG147254 DB	'.\OgreD3DMaterialTemplate.cpp', 00H
	ORG $+2
$SG147255 DB	'EffectNum %d ', 00H
	ORG $+2
$SG147257 DB	'.\OgreD3DMaterialTemplate.cpp', 00H
	ORG $+2
$SG147258 DB	'EffectCompileTime %d ', 00H
	ORG $+2
$SG147259 DB	'.\OgreD3DMaterialTemplate.cpp', 00H
	ORG $+2
$SG147260 DB	'StdEffectNum %d ', 00H
	ORG $+3
$SG147261 DB	'.\OgreD3DMaterialTemplate.cpp', 00H
	ORG $+2
$SG147262 DB	'BorderEffectNum %d', 00H
	ORG $+1
$SG147263 DB	'.\OgreD3DMaterialTemplate.cpp', 00H
	ORG $+2
$SG147264 DB	'VSNum %d ', 00H
	ORG $+2
$SG147266 DB	'.\OgreD3DMaterialTemplate.cpp', 00H
	ORG $+2
$SG147267 DB	'VSCompileTime %d ', 00H
	ORG $+2
$SG147268 DB	'.\OgreD3DMaterialTemplate.cpp', 00H
	ORG $+2
$SG147269 DB	'StdVSNum %d ', 00H
	ORG $+3
$SG147270 DB	'.\OgreD3DMaterialTemplate.cpp', 00H
	ORG $+2
$SG147271 DB	'BorderVSNum %d', 00H
	ORG $+1
$SG147272 DB	'.\OgreD3DMaterialTemplate.cpp', 00H
	ORG $+2
$SG147273 DB	'PSNum %d ', 00H
	ORG $+2
$SG147275 DB	'.\OgreD3DMaterialTemplate.cpp', 00H
	ORG $+2
$SG147276 DB	'PSCompileTime %d ', 00H
	ORG $+2
$SG147277 DB	'.\OgreD3DMaterialTemplate.cpp', 00H
	ORG $+2
$SG147278 DB	'StdPSNum %d ', 00H
	ORG $+3
$SG147279 DB	'.\OgreD3DMaterialTemplate.cpp', 00H
	ORG $+2
$SG147280 DB	'BorderPSNum %d', 00H
	ORG $+1
$SG147281 DB	'.\OgreD3DMaterialTemplate.cpp', 00H
	ORG $+2
$SG147282 DB	'ProcessParams %d ', 00H
	ORG $+2
$SG147283 DB	'.\OgreD3DMaterialTemplate.cpp', 00H
	ORG $+2
$SG147284 DB	'CacheTechnique %d ', 00H
	ORG $+1
$SG147285 DB	'.\OgreD3DMaterialTemplate.cpp', 00H
	ORG $+2
$SG147286 DB	'CacheParamHandle %d ', 00H
CONST	ENDS
PUBLIC	??1?$vector@PAUTechCache@D3DMaterialTemplate@Ogre@@V?$allocator@PAUTechCache@D3DMaterialTemplate@Ogre@@@std@@@std@@QAE@XZ ; std::vector<Ogre::D3DMaterialTemplate::TechCache *,std::allocator<Ogre::D3DMaterialTemplate::TechCache *> >::~vector<Ogre::D3DMaterialTemplate::TechCache *,std::allocator<Ogre::D3DMaterialTemplate::TechCache *> >
PUBLIC	??1?$map@TShaderEnvKey2@Ogre@@PAVD3DShaderTechnique@2@U?$less@TShaderEnvKey2@Ogre@@@std@@V?$allocator@U?$pair@$$CBTShaderEnvKey2@Ogre@@PAVD3DShaderTechnique@2@@std@@@5@@std@@QAE@XZ ; std::map<Ogre::ShaderEnvKey2,Ogre::D3DShaderTechnique *,std::less<Ogre::ShaderEnvKey2>,std::allocator<std::pair<Ogre::ShaderEnvKey2 const ,Ogre::D3DShaderTechnique *> > >::~map<Ogre::ShaderEnvKey2,Ogre::D3DShaderTechnique *,std::less<Ogre::ShaderEnvKey2>,std::allocator<std::pair<Ogre::ShaderEnvKey2 const ,Ogre::D3DShaderTechnique *> > >
PUBLIC	??1?$map@VFixedString@Ogre@@PAVCompiledShaderGroup@2@U?$less@VFixedString@Ogre@@@std@@V?$allocator@U?$pair@$$CBVFixedString@Ogre@@PAVCompiledShaderGroup@2@@std@@@5@@std@@QAE@XZ ; std::map<Ogre::FixedString,Ogre::CompiledShaderGroup *,std::less<Ogre::FixedString>,std::allocator<std::pair<Ogre::FixedString const ,Ogre::CompiledShaderGroup *> > >::~map<Ogre::FixedString,Ogre::CompiledShaderGroup *,std::less<Ogre::FixedString>,std::allocator<std::pair<Ogre::FixedString const ,Ogre::CompiledShaderGroup *> > >
PUBLIC	??0?$vector@PAUTechCache@D3DMaterialTemplate@Ogre@@V?$allocator@PAUTechCache@D3DMaterialTemplate@Ogre@@@std@@@std@@QAE@XZ ; std::vector<Ogre::D3DMaterialTemplate::TechCache *,std::allocator<Ogre::D3DMaterialTemplate::TechCache *> >::vector<Ogre::D3DMaterialTemplate::TechCache *,std::allocator<Ogre::D3DMaterialTemplate::TechCache *> >
PUBLIC	??0?$map@TShaderEnvKey2@Ogre@@PAVD3DShaderTechnique@2@U?$less@TShaderEnvKey2@Ogre@@@std@@V?$allocator@U?$pair@$$CBTShaderEnvKey2@Ogre@@PAVD3DShaderTechnique@2@@std@@@5@@std@@QAE@XZ ; std::map<Ogre::ShaderEnvKey2,Ogre::D3DShaderTechnique *,std::less<Ogre::ShaderEnvKey2>,std::allocator<std::pair<Ogre::ShaderEnvKey2 const ,Ogre::D3DShaderTechnique *> > >::map<Ogre::ShaderEnvKey2,Ogre::D3DShaderTechnique *,std::less<Ogre::ShaderEnvKey2>,std::allocator<std::pair<Ogre::ShaderEnvKey2 const ,Ogre::D3DShaderTechnique *> > >
PUBLIC	??0?$map@VFixedString@Ogre@@PAVCompiledShaderGroup@2@U?$less@VFixedString@Ogre@@@std@@V?$allocator@U?$pair@$$CBVFixedString@Ogre@@PAVCompiledShaderGroup@2@@std@@@5@@std@@QAE@XZ ; std::map<Ogre::FixedString,Ogre::CompiledShaderGroup *,std::less<Ogre::FixedString>,std::allocator<std::pair<Ogre::FixedString const ,Ogre::CompiledShaderGroup *> > >::map<Ogre::FixedString,Ogre::CompiledShaderGroup *,std::less<Ogre::FixedString>,std::allocator<std::pair<Ogre::FixedString const ,Ogre::CompiledShaderGroup *> > >
PUBLIC	??_7D3DMaterialTemplate@Ogre@@6B@		; Ogre::D3DMaterialTemplate::`vftable'
PUBLIC	??0D3DMaterialTemplate@Ogre@@QAE@PAVD3D9RenderSystem@1@ABVFixedString@1@@Z ; Ogre::D3DMaterialTemplate::D3DMaterialTemplate
PUBLIC	??_R4D3DMaterialTemplate@Ogre@@6B@		; Ogre::D3DMaterialTemplate::`RTTI Complete Object Locator'
PUBLIC	??_R0?AVD3DMaterialTemplate@Ogre@@@8		; Ogre::D3DMaterialTemplate `RTTI Type Descriptor'
PUBLIC	??_R3D3DMaterialTemplate@Ogre@@8		; Ogre::D3DMaterialTemplate::`RTTI Class Hierarchy Descriptor'
PUBLIC	??_R2D3DMaterialTemplate@Ogre@@8		; Ogre::D3DMaterialTemplate::`RTTI Base Class Array'
PUBLIC	??_R1A@?0A@EA@D3DMaterialTemplate@Ogre@@8	; Ogre::D3DMaterialTemplate::`RTTI Base Class Descriptor at (0,-1,0,64)'
PUBLIC	??_R1A@?0A@EA@MaterialTemplate@Ogre@@8		; Ogre::MaterialTemplate::`RTTI Base Class Descriptor at (0,-1,0,64)'
PUBLIC	??_R0?AVMaterialTemplate@Ogre@@@8		; Ogre::MaterialTemplate `RTTI Type Descriptor'
PUBLIC	??_R3MaterialTemplate@Ogre@@8			; Ogre::MaterialTemplate::`RTTI Class Hierarchy Descriptor'
PUBLIC	??_R2MaterialTemplate@Ogre@@8			; Ogre::MaterialTemplate::`RTTI Base Class Array'
PUBLIC	?init@D3DMaterialTemplate@Ogre@@UAE_NVXMLNode@2@@Z ; Ogre::D3DMaterialTemplate::init
PUBLIC	?compileAllShaders@D3DMaterialTemplate@Ogre@@UAEXXZ ; Ogre::D3DMaterialTemplate::compileAllShaders
PUBLIC	?getShaderTechnique@D3DMaterialTemplate@Ogre@@UAEPAVShaderTechnique@2@ABUShaderEnvFlags@2@ABUMaterialMacro@2@IW4RenderUsage@2@@Z ; Ogre::D3DMaterialTemplate::getShaderTechnique
PUBLIC	?getRequiredParams@D3DMaterialTemplate@Ogre@@UAEIPAW4ShaderParamUsage@2@IABUShaderEnvFlags@2@ABUMaterialMacro@2@IW4RenderUsage@2@@Z ; Ogre::D3DMaterialTemplate::getRequiredParams
EXTRN	__imp_??1LockSection@Ogre@@QAE@XZ:PROC
EXTRN	__imp_??1MaterialTemplate@Ogre@@UAE@XZ:PROC
EXTRN	__imp_??0LockSection@Ogre@@QAE@XZ:PROC
EXTRN	__imp_??0MaterialTemplate@Ogre@@QAE@ABVFixedString@1@@Z:PROC
EXTRN	___security_cookie:DWORD
EXTRN	___CxxFrameHandler3:PROC
EXTRN	@__security_check_cookie@4:PROC
EXTRN	??_7type_info@@6B@:QWORD			; type_info::`vftable'
EXTRN	??_ED3DMaterialTemplate@Ogre@@UAEPAXI@Z:PROC	; Ogre::D3DMaterialTemplate::`vector deleting destructor'
;	COMDAT ??_R2MaterialTemplate@Ogre@@8
; File i:\svnroot\client\plugins\rendersystem_d3d9\ogred3dmaterialtemplate.cpp
rdata$r	SEGMENT
??_R2MaterialTemplate@Ogre@@8 DD FLAT:??_R1A@?0A@EA@MaterialTemplate@Ogre@@8 ; Ogre::MaterialTemplate::`RTTI Base Class Array'
rdata$r	ENDS
;	COMDAT ??_R3MaterialTemplate@Ogre@@8
rdata$r	SEGMENT
??_R3MaterialTemplate@Ogre@@8 DD 00H			; Ogre::MaterialTemplate::`RTTI Class Hierarchy Descriptor'
	DD	00H
	DD	01H
	DD	FLAT:??_R2MaterialTemplate@Ogre@@8
rdata$r	ENDS
;	COMDAT ??_R0?AVMaterialTemplate@Ogre@@@8
_DATA	SEGMENT
??_R0?AVMaterialTemplate@Ogre@@@8 DD FLAT:??_7type_info@@6B@ ; Ogre::MaterialTemplate `RTTI Type Descriptor'
	DD	00H
	DB	'.?AVMaterialTemplate@Ogre@@', 00H
_DATA	ENDS
;	COMDAT ??_R1A@?0A@EA@MaterialTemplate@Ogre@@8
rdata$r	SEGMENT
??_R1A@?0A@EA@MaterialTemplate@Ogre@@8 DD FLAT:??_R0?AVMaterialTemplate@Ogre@@@8 ; Ogre::MaterialTemplate::`RTTI Base Class Descriptor at (0,-1,0,64)'
	DD	00H
	DD	00H
	DD	0ffffffffH
	DD	00H
	DD	040H
	DD	FLAT:??_R3MaterialTemplate@Ogre@@8
rdata$r	ENDS
;	COMDAT ??_R1A@?0A@EA@D3DMaterialTemplate@Ogre@@8
rdata$r	SEGMENT
??_R1A@?0A@EA@D3DMaterialTemplate@Ogre@@8 DD FLAT:??_R0?AVD3DMaterialTemplate@Ogre@@@8 ; Ogre::D3DMaterialTemplate::`RTTI Base Class Descriptor at (0,-1,0,64)'
	DD	01H
	DD	00H
	DD	0ffffffffH
	DD	00H
	DD	040H
	DD	FLAT:??_R3D3DMaterialTemplate@Ogre@@8
rdata$r	ENDS
;	COMDAT ??_R2D3DMaterialTemplate@Ogre@@8
rdata$r	SEGMENT
??_R2D3DMaterialTemplate@Ogre@@8 DD FLAT:??_R1A@?0A@EA@D3DMaterialTemplate@Ogre@@8 ; Ogre::D3DMaterialTemplate::`RTTI Base Class Array'
	DD	FLAT:??_R1A@?0A@EA@MaterialTemplate@Ogre@@8
rdata$r	ENDS
;	COMDAT ??_R3D3DMaterialTemplate@Ogre@@8
rdata$r	SEGMENT
??_R3D3DMaterialTemplate@Ogre@@8 DD 00H			; Ogre::D3DMaterialTemplate::`RTTI Class Hierarchy Descriptor'
	DD	00H
	DD	02H
	DD	FLAT:??_R2D3DMaterialTemplate@Ogre@@8
rdata$r	ENDS
;	COMDAT ??_R0?AVD3DMaterialTemplate@Ogre@@@8
_DATA	SEGMENT
??_R0?AVD3DMaterialTemplate@Ogre@@@8 DD FLAT:??_7type_info@@6B@ ; Ogre::D3DMaterialTemplate `RTTI Type Descriptor'
	DD	00H
	DB	'.?AVD3DMaterialTemplate@Ogre@@', 00H
_DATA	ENDS
;	COMDAT ??_R4D3DMaterialTemplate@Ogre@@6B@
rdata$r	SEGMENT
??_R4D3DMaterialTemplate@Ogre@@6B@ DD 00H		; Ogre::D3DMaterialTemplate::`RTTI Complete Object Locator'
	DD	00H
	DD	00H
	DD	FLAT:??_R0?AVD3DMaterialTemplate@Ogre@@@8
	DD	FLAT:??_R3D3DMaterialTemplate@Ogre@@8
rdata$r	ENDS
;	COMDAT ??_7D3DMaterialTemplate@Ogre@@6B@
CONST	SEGMENT
??_7D3DMaterialTemplate@Ogre@@6B@ DD FLAT:??_R4D3DMaterialTemplate@Ogre@@6B@ ; Ogre::D3DMaterialTemplate::`vftable'
	DD	FLAT:??_ED3DMaterialTemplate@Ogre@@UAEPAXI@Z
	DD	FLAT:?init@D3DMaterialTemplate@Ogre@@UAE_NVXMLNode@2@@Z
	DD	FLAT:?compileAllShaders@D3DMaterialTemplate@Ogre@@UAEXXZ
	DD	FLAT:?getShaderTechnique@D3DMaterialTemplate@Ogre@@UAEPAVShaderTechnique@2@ABUShaderEnvFlags@2@ABUMaterialMacro@2@IW4RenderUsage@2@@Z
	DD	FLAT:?getRequiredParams@D3DMaterialTemplate@Ogre@@UAEIPAW4ShaderParamUsage@2@IABUShaderEnvFlags@2@ABUMaterialMacro@2@IW4RenderUsage@2@@Z
CONST	ENDS
xdata$x	SEGMENT
__ehfuncinfo$??0D3DMaterialTemplate@Ogre@@QAE@PAVD3D9RenderSystem@1@ABVFixedString@1@@Z DD 019930522H
	DD	05H
	DD	FLAT:__unwindtable$??0D3DMaterialTemplate@Ogre@@QAE@PAVD3D9RenderSystem@1@ABVFixedString@1@@Z
	DD	2 DUP(00H)
	DD	2 DUP(00H)
	DD	00H
	DD	00H
__unwindtable$??0D3DMaterialTemplate@Ogre@@QAE@PAVD3D9RenderSystem@1@ABVFixedString@1@@Z DD 0ffffffffH
	DD	FLAT:__unwindfunclet$??0D3DMaterialTemplate@Ogre@@QAE@PAVD3D9RenderSystem@1@ABVFixedString@1@@Z$0
	DD	00H
	DD	FLAT:__unwindfunclet$??0D3DMaterialTemplate@Ogre@@QAE@PAVD3D9RenderSystem@1@ABVFixedString@1@@Z$1
	DD	01H
	DD	FLAT:__unwindfunclet$??0D3DMaterialTemplate@Ogre@@QAE@PAVD3D9RenderSystem@1@ABVFixedString@1@@Z$2
	DD	02H
	DD	FLAT:__unwindfunclet$??0D3DMaterialTemplate@Ogre@@QAE@PAVD3D9RenderSystem@1@ABVFixedString@1@@Z$3
	DD	03H
	DD	FLAT:__unwindfunclet$??0D3DMaterialTemplate@Ogre@@QAE@PAVD3D9RenderSystem@1@ABVFixedString@1@@Z$4
; Function compile flags: /Odtp
xdata$x	ENDS
_TEXT	SEGMENT
_this$ = -16						; size = 4
__$EHRec$ = -12						; size = 12
_prs$ = 8						; size = 4
_name$ = 12						; size = 4
??0D3DMaterialTemplate@Ogre@@QAE@PAVD3D9RenderSystem@1@ABVFixedString@1@@Z PROC ; Ogre::D3DMaterialTemplate::D3DMaterialTemplate
; _this$ = ecx

; 13   : 	{

	push	ebp
	mov	ebp, esp
	push	-1
	push	__ehhandler$??0D3DMaterialTemplate@Ogre@@QAE@PAVD3D9RenderSystem@1@ABVFixedString@1@@Z
	mov	eax, DWORD PTR fs:0
	push	eax
	push	ecx
	mov	eax, DWORD PTR ___security_cookie
	xor	eax, ebp
	push	eax
	lea	eax, DWORD PTR __$EHRec$[ebp]
	mov	DWORD PTR fs:0, eax
	mov	DWORD PTR _this$[ebp], ecx
	mov	eax, DWORD PTR _name$[ebp]
	push	eax
	mov	ecx, DWORD PTR _this$[ebp]
	call	DWORD PTR __imp_??0MaterialTemplate@Ogre@@QAE@ABVFixedString@1@@Z
	mov	DWORD PTR __$EHRec$[ebp+8], 0
	mov	ecx, DWORD PTR _this$[ebp]
	mov	DWORD PTR [ecx], OFFSET ??_7D3DMaterialTemplate@Ogre@@6B@
	mov	edx, DWORD PTR _this$[ebp]
	mov	DWORD PTR [edx+64], 0
	mov	eax, DWORD PTR _this$[ebp]
	mov	ecx, DWORD PTR _prs$[ebp]
	mov	DWORD PTR [eax+68], ecx
	mov	ecx, DWORD PTR _this$[ebp]
	add	ecx, 72					; 00000048H
	call	DWORD PTR __imp_??0LockSection@Ogre@@QAE@XZ
	mov	BYTE PTR __$EHRec$[ebp+8], 1
	mov	ecx, DWORD PTR _this$[ebp]
	add	ecx, 76					; 0000004cH
	call	??0?$map@VFixedString@Ogre@@PAVCompiledShaderGroup@2@U?$less@VFixedString@Ogre@@@std@@V?$allocator@U?$pair@$$CBVFixedString@Ogre@@PAVCompiledShaderGroup@2@@std@@@5@@std@@QAE@XZ ; std::map<Ogre::FixedString,Ogre::CompiledShaderGroup *,std::less<Ogre::FixedString>,std::allocator<std::pair<Ogre::FixedString const ,Ogre::CompiledShaderGroup *> > >::map<Ogre::FixedString,Ogre::CompiledShaderGroup *,std::less<Ogre::FixedString>,std::allocator<std::pair<Ogre::FixedString const ,Ogre::CompiledShaderGroup *> > >
	mov	BYTE PTR __$EHRec$[ebp+8], 2
	mov	ecx, DWORD PTR _this$[ebp]
	add	ecx, 108				; 0000006cH
	call	??0?$map@TShaderEnvKey2@Ogre@@PAVD3DShaderTechnique@2@U?$less@TShaderEnvKey2@Ogre@@@std@@V?$allocator@U?$pair@$$CBTShaderEnvKey2@Ogre@@PAVD3DShaderTechnique@2@@std@@@5@@std@@QAE@XZ ; std::map<Ogre::ShaderEnvKey2,Ogre::D3DShaderTechnique *,std::less<Ogre::ShaderEnvKey2>,std::allocator<std::pair<Ogre::ShaderEnvKey2 const ,Ogre::D3DShaderTechnique *> > >::map<Ogre::ShaderEnvKey2,Ogre::D3DShaderTechnique *,std::less<Ogre::ShaderEnvKey2>,std::allocator<std::pair<Ogre::ShaderEnvKey2 const ,Ogre::D3DShaderTechnique *> > >
	mov	BYTE PTR __$EHRec$[ebp+8], 3
	mov	ecx, DWORD PTR _this$[ebp]
	add	ecx, 140				; 0000008cH
	call	??0?$vector@PAUTechCache@D3DMaterialTemplate@Ogre@@V?$allocator@PAUTechCache@D3DMaterialTemplate@Ogre@@@std@@@std@@QAE@XZ ; std::vector<Ogre::D3DMaterialTemplate::TechCache *,std::allocator<Ogre::D3DMaterialTemplate::TechCache *> >::vector<Ogre::D3DMaterialTemplate::TechCache *,std::allocator<Ogre::D3DMaterialTemplate::TechCache *> >
	mov	BYTE PTR __$EHRec$[ebp+8], 4

; 14   : 	}

	mov	DWORD PTR __$EHRec$[ebp+8], -1
	mov	eax, DWORD PTR _this$[ebp]
	mov	ecx, DWORD PTR __$EHRec$[ebp]
	mov	DWORD PTR fs:0, ecx
	pop	ecx
	mov	esp, ebp
	pop	ebp
	ret	8
_TEXT	ENDS
text$x	SEGMENT
__unwindfunclet$??0D3DMaterialTemplate@Ogre@@QAE@PAVD3D9RenderSystem@1@ABVFixedString@1@@Z$0:
	mov	ecx, DWORD PTR _this$[ebp]
	jmp	DWORD PTR __imp_??1MaterialTemplate@Ogre@@UAE@XZ
__unwindfunclet$??0D3DMaterialTemplate@Ogre@@QAE@PAVD3D9RenderSystem@1@ABVFixedString@1@@Z$1:
	mov	ecx, DWORD PTR _this$[ebp]
	add	ecx, 72					; 00000048H
	jmp	DWORD PTR __imp_??1LockSection@Ogre@@QAE@XZ
__unwindfunclet$??0D3DMaterialTemplate@Ogre@@QAE@PAVD3D9RenderSystem@1@ABVFixedString@1@@Z$2:
	mov	ecx, DWORD PTR _this$[ebp]
	add	ecx, 76					; 0000004cH
	jmp	??1?$map@VFixedString@Ogre@@PAVCompiledShaderGroup@2@U?$less@VFixedString@Ogre@@@std@@V?$allocator@U?$pair@$$CBVFixedString@Ogre@@PAVCompiledShaderGroup@2@@std@@@5@@std@@QAE@XZ
__unwindfunclet$??0D3DMaterialTemplate@Ogre@@QAE@PAVD3D9RenderSystem@1@ABVFixedString@1@@Z$3:
	mov	ecx, DWORD PTR _this$[ebp]
	add	ecx, 108				; 0000006cH
	jmp	??1?$map@TShaderEnvKey2@Ogre@@PAVD3DShaderTechnique@2@U?$less@TShaderEnvKey2@Ogre@@@std@@V?$allocator@U?$pair@$$CBTShaderEnvKey2@Ogre@@PAVD3DShaderTechnique@2@@std@@@5@@std@@QAE@XZ
__unwindfunclet$??0D3DMaterialTemplate@Ogre@@QAE@PAVD3D9RenderSystem@1@ABVFixedString@1@@Z$4:
	mov	ecx, DWORD PTR _this$[ebp]
	add	ecx, 140				; 0000008cH
	jmp	??1?$vector@PAUTechCache@D3DMaterialTemplate@Ogre@@V?$allocator@PAUTechCache@D3DMaterialTemplate@Ogre@@@std@@@std@@QAE@XZ ; std::vector<Ogre::D3DMaterialTemplate::TechCache *,std::allocator<Ogre::D3DMaterialTemplate::TechCache *> >::~vector<Ogre::D3DMaterialTemplate::TechCache *,std::allocator<Ogre::D3DMaterialTemplate::TechCache *> >
__ehhandler$??0D3DMaterialTemplate@Ogre@@QAE@PAVD3D9RenderSystem@1@ABVFixedString@1@@Z:
	mov	edx, DWORD PTR [esp+8]
	lea	eax, DWORD PTR [edx+12]
	mov	ecx, DWORD PTR [edx-8]
	xor	ecx, eax
	call	@__security_check_cookie@4
	mov	eax, OFFSET __ehfuncinfo$??0D3DMaterialTemplate@Ogre@@QAE@PAVD3D9RenderSystem@1@ABVFixedString@1@@Z
	jmp	___CxxFrameHandler3
text$x	ENDS
??0D3DMaterialTemplate@Ogre@@QAE@PAVD3D9RenderSystem@1@ABVFixedString@1@@Z ENDP ; Ogre::D3DMaterialTemplate::D3DMaterialTemplate
PUBLIC	??1D3DMaterialTemplate@Ogre@@UAE@XZ		; Ogre::D3DMaterialTemplate::~D3DMaterialTemplate
EXTRN	??3@YAXPAX@Z:PROC				; operator delete
; Function compile flags: /Odtp
;	COMDAT ??_GD3DMaterialTemplate@Ogre@@UAEPAXI@Z
_TEXT	SEGMENT
_this$ = -4						; size = 4
___flags$ = 8						; size = 4
??_GD3DMaterialTemplate@Ogre@@UAEPAXI@Z PROC		; Ogre::D3DMaterialTemplate::`scalar deleting destructor', COMDAT
; _this$ = ecx
	push	ebp
	mov	ebp, esp
	push	ecx
	mov	DWORD PTR _this$[ebp], ecx
	mov	ecx, DWORD PTR _this$[ebp]
	call	??1D3DMaterialTemplate@Ogre@@UAE@XZ	; Ogre::D3DMaterialTemplate::~D3DMaterialTemplate
	mov	eax, DWORD PTR ___flags$[ebp]
	and	eax, 1
	je	SHORT $LN1@scalar
	mov	ecx, DWORD PTR _this$[ebp]
	push	ecx
	call	??3@YAXPAX@Z				; operator delete
	add	esp, 4
$LN1@scalar:
	mov	eax, DWORD PTR _this$[ebp]
	mov	esp, ebp
	pop	ebp
	ret	4
??_GD3DMaterialTemplate@Ogre@@UAEPAXI@Z ENDP		; Ogre::D3DMaterialTemplate::`scalar deleting destructor'
_TEXT	ENDS
PUBLIC	??1?$_Tree@V?$_Tmap_traits@VFixedString@Ogre@@PAVCompiledShaderGroup@2@U?$less@VFixedString@Ogre@@@std@@V?$allocator@U?$pair@$$CBVFixedString@Ogre@@PAVCompiledShaderGroup@2@@std@@@5@$0A@@std@@@std@@QAE@XZ ; std::_Tree<std::_Tmap_traits<Ogre::FixedString,Ogre::CompiledShaderGroup *,std::less<Ogre::FixedString>,std::allocator<std::pair<Ogre::FixedString const ,Ogre::CompiledShaderGroup *> >,0> >::~_Tree<std::_Tmap_traits<Ogre::FixedString,Ogre::CompiledShaderGroup *,std::less<Ogre::FixedString>,std::allocator<std::pair<Ogre::FixedString const ,Ogre::CompiledShaderGroup *> >,0> >
;	COMDAT xdata$x
xdata$x	SEGMENT
__unwindtable$??1?$map@VFixedString@Ogre@@PAVCompiledShaderGroup@2@U?$less@VFixedString@Ogre@@@std@@V?$allocator@U?$pair@$$CBVFixedString@Ogre@@PAVCompiledShaderGroup@2@@std@@@5@@std@@QAE@XZ DD 0ffffffffH
	DD	FLAT:__unwindfunclet$??1?$map@VFixedString@Ogre@@PAVCompiledShaderGroup@2@U?$less@VFixedString@Ogre@@@std@@V?$allocator@U?$pair@$$CBVFixedString@Ogre@@PAVCompiledShaderGroup@2@@std@@@5@@std@@QAE@XZ$0
__ehfuncinfo$??1?$map@VFixedString@Ogre@@PAVCompiledShaderGroup@2@U?$less@VFixedString@Ogre@@@std@@V?$allocator@U?$pair@$$CBVFixedString@Ogre@@PAVCompiledShaderGroup@2@@std@@@5@@std@@QAE@XZ DD 019930522H
	DD	01H
	DD	FLAT:__unwindtable$??1?$map@VFixedString@Ogre@@PAVCompiledShaderGroup@2@U?$less@VFixedString@Ogre@@@std@@V?$allocator@U?$pair@$$CBVFixedString@Ogre@@PAVCompiledShaderGroup@2@@std@@@5@@std@@QAE@XZ
	DD	2 DUP(00H)
	DD	2 DUP(00H)
	DD	00H
	DD	00H
; Function compile flags: /Odtp
xdata$x	ENDS
;	COMDAT ??1?$map@VFixedString@Ogre@@PAVCompiledShaderGroup@2@U?$less@VFixedString@Ogre@@@std@@V?$allocator@U?$pair@$$CBVFixedString@Ogre@@PAVCompiledShaderGroup@2@@std@@@5@@std@@QAE@XZ
_TEXT	SEGMENT
_this$ = -16						; size = 4
__$EHRec$ = -12						; size = 12
??1?$map@VFixedString@Ogre@@PAVCompiledShaderGroup@2@U?$less@VFixedString@Ogre@@@std@@V?$allocator@U?$pair@$$CBVFixedString@Ogre@@PAVCompiledShaderGroup@2@@std@@@5@@std@@QAE@XZ PROC ; std::map<Ogre::FixedString,Ogre::CompiledShaderGroup *,std::less<Ogre::FixedString>,std::allocator<std::pair<Ogre::FixedString const ,Ogre::CompiledShaderGroup *> > >::~map<Ogre::FixedString,Ogre::CompiledShaderGroup *,std::less<Ogre::FixedString>,std::allocator<std::pair<Ogre::FixedString const ,Ogre::CompiledShaderGroup *> > >, COMDAT
; _this$ = ecx
	push	ebp
	mov	ebp, esp
	push	-1
	push	__ehhandler$??1?$map@VFixedString@Ogre@@PAVCompiledShaderGroup@2@U?$less@VFixedString@Ogre@@@std@@V?$allocator@U?$pair@$$CBVFixedString@Ogre@@PAVCompiledShaderGroup@2@@std@@@5@@std@@QAE@XZ
	mov	eax, DWORD PTR fs:0
	push	eax
	push	ecx
	mov	eax, DWORD PTR ___security_cookie
	xor	eax, ebp
	push	eax
	lea	eax, DWORD PTR __$EHRec$[ebp]
	mov	DWORD PTR fs:0, eax
	mov	DWORD PTR _this$[ebp], ecx
	mov	DWORD PTR __$EHRec$[ebp+8], 0
	mov	DWORD PTR __$EHRec$[ebp+8], -1
	mov	ecx, DWORD PTR _this$[ebp]
	call	??1?$_Tree@V?$_Tmap_traits@VFixedString@Ogre@@PAVCompiledShaderGroup@2@U?$less@VFixedString@Ogre@@@std@@V?$allocator@U?$pair@$$CBVFixedString@Ogre@@PAVCompiledShaderGroup@2@@std@@@5@$0A@@std@@@std@@QAE@XZ ; std::_Tree<std::_Tmap_traits<Ogre::FixedString,Ogre::CompiledShaderGroup *,std::less<Ogre::FixedString>,std::allocator<std::pair<Ogre::FixedString const ,Ogre::CompiledShaderGroup *> >,0> >::~_Tree<std::_Tmap_traits<Ogre::FixedString,Ogre::CompiledShaderGroup *,std::less<Ogre::FixedString>,std::allocator<std::pair<Ogre::FixedString const ,Ogre::CompiledShaderGroup *> >,0> >
	mov	ecx, DWORD PTR __$EHRec$[ebp]
	mov	DWORD PTR fs:0, ecx
	pop	ecx
	mov	esp, ebp
	pop	ebp
	ret	0
_TEXT	ENDS
;	COMDAT text$x
text$x	SEGMENT
__unwindfunclet$??1?$map@VFixedString@Ogre@@PAVCompiledShaderGroup@2@U?$less@VFixedString@Ogre@@@std@@V?$allocator@U?$pair@$$CBVFixedString@Ogre@@PAVCompiledShaderGroup@2@@std@@@5@@std@@QAE@XZ$0:
	mov	ecx, DWORD PTR _this$[ebp]
	jmp	??1?$_Tree@V?$_Tmap_traits@VFixedString@Ogre@@PAVCompiledShaderGroup@2@U?$less@VFixedString@Ogre@@@std@@V?$allocator@U?$pair@$$CBVFixedString@Ogre@@PAVCompiledShaderGroup@2@@std@@@5@$0A@@std@@@std@@QAE@XZ ; std::_Tree<std::_Tmap_traits<Ogre::FixedString,Ogre::CompiledShaderGroup *,std::less<Ogre::FixedString>,std::allocator<std::pair<Ogre::FixedString const ,Ogre::CompiledShaderGroup *> >,0> >::~_Tree<std::_Tmap_traits<Ogre::FixedString,Ogre::CompiledShaderGroup *,std::less<Ogre::FixedString>,std::allocator<std::pair<Ogre::FixedString const ,Ogre::CompiledShaderGroup *> >,0> >
__ehhandler$??1?$map@VFixedString@Ogre@@PAVCompiledShaderGroup@2@U?$less@VFixedString@Ogre@@@std@@V?$allocator@U?$pair@$$CBVFixedString@Ogre@@PAVCompiledShaderGroup@2@@std@@@5@@std@@QAE@XZ:
	mov	edx, DWORD PTR [esp+8]
	lea	eax, DWORD PTR [edx+12]
	mov	ecx, DWORD PTR [edx-8]
	xor	ecx, eax
	call	@__security_check_cookie@4
	mov	eax, OFFSET __ehfuncinfo$??1?$map@VFixedString@Ogre@@PAVCompiledShaderGroup@2@U?$less@VFixedString@Ogre@@@std@@V?$allocator@U?$pair@$$CBVFixedString@Ogre@@PAVCompiledShaderGroup@2@@std@@@5@@std@@QAE@XZ
	jmp	___CxxFrameHandler3
text$x	ENDS
??1?$map@VFixedString@Ogre@@PAVCompiledShaderGroup@2@U?$less@VFixedString@Ogre@@@std@@V?$allocator@U?$pair@$$CBVFixedString@Ogre@@PAVCompiledShaderGroup@2@@std@@@5@@std@@QAE@XZ ENDP ; std::map<Ogre::FixedString,Ogre::CompiledShaderGroup *,std::less<Ogre::FixedString>,std::allocator<std::pair<Ogre::FixedString const ,Ogre::CompiledShaderGroup *> > >::~map<Ogre::FixedString,Ogre::CompiledShaderGroup *,std::less<Ogre::FixedString>,std::allocator<std::pair<Ogre::FixedString const ,Ogre::CompiledShaderGroup *> > >
PUBLIC	??1?$_Tree@V?$_Tmap_traits@TShaderEnvKey2@Ogre@@PAVD3DShaderTechnique@2@U?$less@TShaderEnvKey2@Ogre@@@std@@V?$allocator@U?$pair@$$CBTShaderEnvKey2@Ogre@@PAVD3DShaderTechnique@2@@std@@@5@$0A@@std@@@std@@QAE@XZ ; std::_Tree<std::_Tmap_traits<Ogre::ShaderEnvKey2,Ogre::D3DShaderTechnique *,std::less<Ogre::ShaderEnvKey2>,std::allocator<std::pair<Ogre::ShaderEnvKey2 const ,Ogre::D3DShaderTechnique *> >,0> >::~_Tree<std::_Tmap_traits<Ogre::ShaderEnvKey2,Ogre::D3DShaderTechnique *,std::less<Ogre::ShaderEnvKey2>,std::allocator<std::pair<Ogre::ShaderEnvKey2 const ,Ogre::D3DShaderTechnique *> >,0> >
;	COMDAT xdata$x
xdata$x	SEGMENT
__unwindtable$??1?$map@TShaderEnvKey2@Ogre@@PAVD3DShaderTechnique@2@U?$less@TShaderEnvKey2@Ogre@@@std@@V?$allocator@U?$pair@$$CBTShaderEnvKey2@Ogre@@PAVD3DShaderTechnique@2@@std@@@5@@std@@QAE@XZ DD 0ffffffffH
	DD	FLAT:__unwindfunclet$??1?$map@TShaderEnvKey2@Ogre@@PAVD3DShaderTechnique@2@U?$less@TShaderEnvKey2@Ogre@@@std@@V?$allocator@U?$pair@$$CBTShaderEnvKey2@Ogre@@PAVD3DShaderTechnique@2@@std@@@5@@std@@QAE@XZ$0
__ehfuncinfo$??1?$map@TShaderEnvKey2@Ogre@@PAVD3DShaderTechnique@2@U?$less@TShaderEnvKey2@Ogre@@@std@@V?$allocator@U?$pair@$$CBTShaderEnvKey2@Ogre@@PAVD3DShaderTechnique@2@@std@@@5@@std@@QAE@XZ DD 019930522H
	DD	01H
	DD	FLAT:__unwindtable$??1?$map@TShaderEnvKey2@Ogre@@PAVD3DShaderTechnique@2@U?$less@TShaderEnvKey2@Ogre@@@std@@V?$allocator@U?$pair@$$CBTShaderEnvKey2@Ogre@@PAVD3DShaderTechnique@2@@std@@@5@@std@@QAE@XZ
	DD	2 DUP(00H)
	DD	2 DUP(00H)
	DD	00H
	DD	00H
; Function compile flags: /Odtp
xdata$x	ENDS
;	COMDAT ??1?$map@TShaderEnvKey2@Ogre@@PAVD3DShaderTechnique@2@U?$less@TShaderEnvKey2@Ogre@@@std@@V?$allocator@U?$pair@$$CBTShaderEnvKey2@Ogre@@PAVD3DShaderTechnique@2@@std@@@5@@std@@QAE@XZ
_TEXT	SEGMENT
_this$ = -16						; size = 4
__$EHRec$ = -12						; size = 12
??1?$map@TShaderEnvKey2@Ogre@@PAVD3DShaderTechnique@2@U?$less@TShaderEnvKey2@Ogre@@@std@@V?$allocator@U?$pair@$$CBTShaderEnvKey2@Ogre@@PAVD3DShaderTechnique@2@@std@@@5@@std@@QAE@XZ PROC ; std::map<Ogre::ShaderEnvKey2,Ogre::D3DShaderTechnique *,std::less<Ogre::ShaderEnvKey2>,std::allocator<std::pair<Ogre::ShaderEnvKey2 const ,Ogre::D3DShaderTechnique *> > >::~map<Ogre::ShaderEnvKey2,Ogre::D3DShaderTechnique *,std::less<Ogre::ShaderEnvKey2>,std::allocator<std::pair<Ogre::ShaderEnvKey2 const ,Ogre::D3DShaderTechnique *> > >, COMDAT
; _this$ = ecx
	push	ebp
	mov	ebp, esp
	push	-1
	push	__ehhandler$??1?$map@TShaderEnvKey2@Ogre@@PAVD3DShaderTechnique@2@U?$less@TShaderEnvKey2@Ogre@@@std@@V?$allocator@U?$pair@$$CBTShaderEnvKey2@Ogre@@PAVD3DShaderTechnique@2@@std@@@5@@std@@QAE@XZ
	mov	eax, DWORD PTR fs:0
	push	eax
	push	ecx
	mov	eax, DWORD PTR ___security_cookie
	xor	eax, ebp
	push	eax
	lea	eax, DWORD PTR __$EHRec$[ebp]
	mov	DWORD PTR fs:0, eax
	mov	DWORD PTR _this$[ebp], ecx
	mov	DWORD PTR __$EHRec$[ebp+8], 0
	mov	DWORD PTR __$EHRec$[ebp+8], -1
	mov	ecx, DWORD PTR _this$[ebp]
	call	??1?$_Tree@V?$_Tmap_traits@TShaderEnvKey2@Ogre@@PAVD3DShaderTechnique@2@U?$less@TShaderEnvKey2@Ogre@@@std@@V?$allocator@U?$pair@$$CBTShaderEnvKey2@Ogre@@PAVD3DShaderTechnique@2@@std@@@5@$0A@@std@@@std@@QAE@XZ ; std::_Tree<std::_Tmap_traits<Ogre::ShaderEnvKey2,Ogre::D3DShaderTechnique *,std::less<Ogre::ShaderEnvKey2>,std::allocator<std::pair<Ogre::ShaderEnvKey2 const ,Ogre::D3DShaderTechnique *> >,0> >::~_Tree<std::_Tmap_traits<Ogre::ShaderEnvKey2,Ogre::D3DShaderTechnique *,std::less<Ogre::ShaderEnvKey2>,std::allocator<std::pair<Ogre::ShaderEnvKey2 const ,Ogre::D3DShaderTechnique *> >,0> >
	mov	ecx, DWORD PTR __$EHRec$[ebp]
	mov	DWORD PTR fs:0, ecx
	pop	ecx
	mov	esp, ebp
	pop	ebp
	ret	0
_TEXT	ENDS
;	COMDAT text$x
text$x	SEGMENT
__unwindfunclet$??1?$map@TShaderEnvKey2@Ogre@@PAVD3DShaderTechnique@2@U?$less@TShaderEnvKey2@Ogre@@@std@@V?$allocator@U?$pair@$$CBTShaderEnvKey2@Ogre@@PAVD3DShaderTechnique@2@@std@@@5@@std@@QAE@XZ$0:
	mov	ecx, DWORD PTR _this$[ebp]
	jmp	??1?$_Tree@V?$_Tmap_traits@TShaderEnvKey2@Ogre@@PAVD3DShaderTechnique@2@U?$less@TShaderEnvKey2@Ogre@@@std@@V?$allocator@U?$pair@$$CBTShaderEnvKey2@Ogre@@PAVD3DShaderTechnique@2@@std@@@5@$0A@@std@@@std@@QAE@XZ ; std::_Tree<std::_Tmap_traits<Ogre::ShaderEnvKey2,Ogre::D3DShaderTechnique *,std::less<Ogre::ShaderEnvKey2>,std::allocator<std::pair<Ogre::ShaderEnvKey2 const ,Ogre::D3DShaderTechnique *> >,0> >::~_Tree<std::_Tmap_traits<Ogre::ShaderEnvKey2,Ogre::D3DShaderTechnique *,std::less<Ogre::ShaderEnvKey2>,std::allocator<std::pair<Ogre::ShaderEnvKey2 const ,Ogre::D3DShaderTechnique *> >,0> >
__ehhandler$??1?$map@TShaderEnvKey2@Ogre@@PAVD3DShaderTechnique@2@U?$less@TShaderEnvKey2@Ogre@@@std@@V?$allocator@U?$pair@$$CBTShaderEnvKey2@Ogre@@PAVD3DShaderTechnique@2@@std@@@5@@std@@QAE@XZ:
	mov	edx, DWORD PTR [esp+8]
	lea	eax, DWORD PTR [edx+12]
	mov	ecx, DWORD PTR [edx-8]
	xor	ecx, eax
	call	@__security_check_cookie@4
	mov	eax, OFFSET __ehfuncinfo$??1?$map@TShaderEnvKey2@Ogre@@PAVD3DShaderTechnique@2@U?$less@TShaderEnvKey2@Ogre@@@std@@V?$allocator@U?$pair@$$CBTShaderEnvKey2@Ogre@@PAVD3DShaderTechnique@2@@std@@@5@@std@@QAE@XZ
	jmp	___CxxFrameHandler3
text$x	ENDS
??1?$map@TShaderEnvKey2@Ogre@@PAVD3DShaderTechnique@2@U?$less@TShaderEnvKey2@Ogre@@@std@@V?$allocator@U?$pair@$$CBTShaderEnvKey2@Ogre@@PAVD3DShaderTechnique@2@@std@@@5@@std@@QAE@XZ ENDP ; std::map<Ogre::ShaderEnvKey2,Ogre::D3DShaderTechnique *,std::less<Ogre::ShaderEnvKey2>,std::allocator<std::pair<Ogre::ShaderEnvKey2 const ,Ogre::D3DShaderTechnique *> > >::~map<Ogre::ShaderEnvKey2,Ogre::D3DShaderTechnique *,std::less<Ogre::ShaderEnvKey2>,std::allocator<std::pair<Ogre::ShaderEnvKey2 const ,Ogre::D3DShaderTechnique *> > >
PUBLIC	??Citerator@?$_Tree@V?$_Tmap_traits@TShaderEnvKey2@Ogre@@PAVD3DShaderTechnique@2@U?$less@TShaderEnvKey2@Ogre@@@std@@V?$allocator@U?$pair@$$CBTShaderEnvKey2@Ogre@@PAVD3DShaderTechnique@2@@std@@@5@$0A@@std@@@std@@QBEPAU?$pair@$$CBTShaderEnvKey2@Ogre@@PAVD3DShaderTechnique@2@@2@XZ ; std::_Tree<std::_Tmap_traits<Ogre::ShaderEnvKey2,Ogre::D3DShaderTechnique *,std::less<Ogre::ShaderEnvKey2>,std::allocator<std::pair<Ogre::ShaderEnvKey2 const ,Ogre::D3DShaderTechnique *> >,0> >::iterator::operator->
PUBLIC	??9const_iterator@?$_Tree@V?$_Tmap_traits@TShaderEnvKey2@Ogre@@PAVD3DShaderTechnique@2@U?$less@TShaderEnvKey2@Ogre@@@std@@V?$allocator@U?$pair@$$CBTShaderEnvKey2@Ogre@@PAVD3DShaderTechnique@2@@std@@@5@$0A@@std@@@std@@QBE_NABV012@@Z ; std::_Tree<std::_Tmap_traits<Ogre::ShaderEnvKey2,Ogre::D3DShaderTechnique *,std::less<Ogre::ShaderEnvKey2>,std::allocator<std::pair<Ogre::ShaderEnvKey2 const ,Ogre::D3DShaderTechnique *> >,0> >::const_iterator::operator!=
PUBLIC	?end@?$_Tree@V?$_Tmap_traits@TShaderEnvKey2@Ogre@@PAVD3DShaderTechnique@2@U?$less@TShaderEnvKey2@Ogre@@@std@@V?$allocator@U?$pair@$$CBTShaderEnvKey2@Ogre@@PAVD3DShaderTechnique@2@@std@@@5@$0A@@std@@@std@@QAE?AViterator@12@XZ ; std::_Tree<std::_Tmap_traits<Ogre::ShaderEnvKey2,Ogre::D3DShaderTechnique *,std::less<Ogre::ShaderEnvKey2>,std::allocator<std::pair<Ogre::ShaderEnvKey2 const ,Ogre::D3DShaderTechnique *> >,0> >::end
PUBLIC	??Eiterator@?$_Tree@V?$_Tmap_traits@TShaderEnvKey2@Ogre@@PAVD3DShaderTechnique@2@U?$less@TShaderEnvKey2@Ogre@@@std@@V?$allocator@U?$pair@$$CBTShaderEnvKey2@Ogre@@PAVD3DShaderTechnique@2@@std@@@5@$0A@@std@@@std@@QAE?AV012@H@Z ; std::_Tree<std::_Tmap_traits<Ogre::ShaderEnvKey2,Ogre::D3DShaderTechnique *,std::less<Ogre::ShaderEnvKey2>,std::allocator<std::pair<Ogre::ShaderEnvKey2 const ,Ogre::D3DShaderTechnique *> >,0> >::iterator::operator++
PUBLIC	?begin@?$_Tree@V?$_Tmap_traits@TShaderEnvKey2@Ogre@@PAVD3DShaderTechnique@2@U?$less@TShaderEnvKey2@Ogre@@@std@@V?$allocator@U?$pair@$$CBTShaderEnvKey2@Ogre@@PAVD3DShaderTechnique@2@@std@@@5@$0A@@std@@@std@@QAE?AViterator@12@XZ ; std::_Tree<std::_Tmap_traits<Ogre::ShaderEnvKey2,Ogre::D3DShaderTechnique *,std::less<Ogre::ShaderEnvKey2>,std::allocator<std::pair<Ogre::ShaderEnvKey2 const ,Ogre::D3DShaderTechnique *> >,0> >::begin
PUBLIC	??_GCompiledShaderGroup@Ogre@@QAEPAXI@Z		; Ogre::CompiledShaderGroup::`scalar deleting destructor'
PUBLIC	??Citerator@?$_Tree@V?$_Tmap_traits@VFixedString@Ogre@@PAVCompiledShaderGroup@2@U?$less@VFixedString@Ogre@@@std@@V?$allocator@U?$pair@$$CBVFixedString@Ogre@@PAVCompiledShaderGroup@2@@std@@@5@$0A@@std@@@std@@QBEPAU?$pair@$$CBVFixedString@Ogre@@PAVCompiledShaderGroup@2@@2@XZ ; std::_Tree<std::_Tmap_traits<Ogre::FixedString,Ogre::CompiledShaderGroup *,std::less<Ogre::FixedString>,std::allocator<std::pair<Ogre::FixedString const ,Ogre::CompiledShaderGroup *> >,0> >::iterator::operator->
PUBLIC	??9const_iterator@?$_Tree@V?$_Tmap_traits@VFixedString@Ogre@@PAVCompiledShaderGroup@2@U?$less@VFixedString@Ogre@@@std@@V?$allocator@U?$pair@$$CBVFixedString@Ogre@@PAVCompiledShaderGroup@2@@std@@@5@$0A@@std@@@std@@QBE_NABV012@@Z ; std::_Tree<std::_Tmap_traits<Ogre::FixedString,Ogre::CompiledShaderGroup *,std::less<Ogre::FixedString>,std::allocator<std::pair<Ogre::FixedString const ,Ogre::CompiledShaderGroup *> >,0> >::const_iterator::operator!=
PUBLIC	?end@?$_Tree@V?$_Tmap_traits@VFixedString@Ogre@@PAVCompiledShaderGroup@2@U?$less@VFixedString@Ogre@@@std@@V?$allocator@U?$pair@$$CBVFixedString@Ogre@@PAVCompiledShaderGroup@2@@std@@@5@$0A@@std@@@std@@QAE?AViterator@12@XZ ; std::_Tree<std::_Tmap_traits<Ogre::FixedString,Ogre::CompiledShaderGroup *,std::less<Ogre::FixedString>,std::allocator<std::pair<Ogre::FixedString const ,Ogre::CompiledShaderGroup *> >,0> >::end
PUBLIC	??Eiterator@?$_Tree@V?$_Tmap_traits@VFixedString@Ogre@@PAVCompiledShaderGroup@2@U?$less@VFixedString@Ogre@@@std@@V?$allocator@U?$pair@$$CBVFixedString@Ogre@@PAVCompiledShaderGroup@2@@std@@@5@$0A@@std@@@std@@QAE?AV012@H@Z ; std::_Tree<std::_Tmap_traits<Ogre::FixedString,Ogre::CompiledShaderGroup *,std::less<Ogre::FixedString>,std::allocator<std::pair<Ogre::FixedString const ,Ogre::CompiledShaderGroup *> >,0> >::iterator::operator++
PUBLIC	?begin@?$_Tree@V?$_Tmap_traits@VFixedString@Ogre@@PAVCompiledShaderGroup@2@U?$less@VFixedString@Ogre@@@std@@V?$allocator@U?$pair@$$CBVFixedString@Ogre@@PAVCompiledShaderGroup@2@@std@@@5@$0A@@std@@@std@@QAE?AViterator@12@XZ ; std::_Tree<std::_Tmap_traits<Ogre::FixedString,Ogre::CompiledShaderGroup *,std::less<Ogre::FixedString>,std::allocator<std::pair<Ogre::FixedString const ,Ogre::CompiledShaderGroup *> >,0> >::begin
xdata$x	SEGMENT
__ehfuncinfo$??1D3DMaterialTemplate@Ogre@@UAE@XZ DD 019930522H
	DD	05H
	DD	FLAT:__unwindtable$??1D3DMaterialTemplate@Ogre@@UAE@XZ
	DD	2 DUP(00H)
	DD	2 DUP(00H)
	DD	00H
	DD	00H
__unwindtable$??1D3DMaterialTemplate@Ogre@@UAE@XZ DD 0ffffffffH
	DD	FLAT:__unwindfunclet$??1D3DMaterialTemplate@Ogre@@UAE@XZ$0
	DD	00H
	DD	FLAT:__unwindfunclet$??1D3DMaterialTemplate@Ogre@@UAE@XZ$1
	DD	01H
	DD	FLAT:__unwindfunclet$??1D3DMaterialTemplate@Ogre@@UAE@XZ$2
	DD	02H
	DD	FLAT:__unwindfunclet$??1D3DMaterialTemplate@Ogre@@UAE@XZ$3
	DD	03H
	DD	FLAT:__unwindfunclet$??1D3DMaterialTemplate@Ogre@@UAE@XZ$4
; Function compile flags: /Odtp
xdata$x	ENDS
_TEXT	SEGMENT
tv203 = -100						; size = 4
tv197 = -96						; size = 4
tv152 = -92						; size = 4
_this$ = -88						; size = 4
$T159074 = -84						; size = 4
$T159073 = -80						; size = 4
$T159070 = -76						; size = 4
$T159069 = -72						; size = 4
$T159068 = -68						; size = 8
$T159067 = -60						; size = 8
$T159064 = -52						; size = 4
$T159063 = -48						; size = 4
$T159062 = -44						; size = 8
$T159061 = -36						; size = 8
_iter2$ = -28						; size = 8
_iter$ = -20						; size = 8
__$EHRec$ = -12						; size = 12
??1D3DMaterialTemplate@Ogre@@UAE@XZ PROC		; Ogre::D3DMaterialTemplate::~D3DMaterialTemplate
; _this$ = ecx

; 17   : 	{

	push	ebp
	mov	ebp, esp
	push	-1
	push	__ehhandler$??1D3DMaterialTemplate@Ogre@@UAE@XZ
	mov	eax, DWORD PTR fs:0
	push	eax
	sub	esp, 88					; 00000058H
	mov	eax, DWORD PTR ___security_cookie
	xor	eax, ebp
	push	eax
	lea	eax, DWORD PTR __$EHRec$[ebp]
	mov	DWORD PTR fs:0, eax
	mov	DWORD PTR _this$[ebp], ecx
	mov	eax, DWORD PTR _this$[ebp]
	mov	DWORD PTR [eax], OFFSET ??_7D3DMaterialTemplate@Ogre@@6B@
	mov	DWORD PTR __$EHRec$[ebp+8], 4

; 18   : 		std::map<FixedString, CompiledShaderGroup *>::iterator iter = m_ShaderGroups.begin();

	lea	ecx, DWORD PTR _iter$[ebp]
	push	ecx
	mov	ecx, DWORD PTR _this$[ebp]
	add	ecx, 76					; 0000004cH
	call	?begin@?$_Tree@V?$_Tmap_traits@VFixedString@Ogre@@PAVCompiledShaderGroup@2@U?$less@VFixedString@Ogre@@@std@@V?$allocator@U?$pair@$$CBVFixedString@Ogre@@PAVCompiledShaderGroup@2@@std@@@5@$0A@@std@@@std@@QAE?AViterator@12@XZ ; std::_Tree<std::_Tmap_traits<Ogre::FixedString,Ogre::CompiledShaderGroup *,std::less<Ogre::FixedString>,std::allocator<std::pair<Ogre::FixedString const ,Ogre::CompiledShaderGroup *> >,0> >::begin
	jmp	SHORT $LN6@D3DMateria
$LN5@D3DMateria:

; 19   : 		for(; iter!=m_ShaderGroups.end(); iter++)

	push	0
	lea	edx, DWORD PTR $T159061[ebp]
	push	edx
	lea	ecx, DWORD PTR _iter$[ebp]
	call	??Eiterator@?$_Tree@V?$_Tmap_traits@VFixedString@Ogre@@PAVCompiledShaderGroup@2@U?$less@VFixedString@Ogre@@@std@@V?$allocator@U?$pair@$$CBVFixedString@Ogre@@PAVCompiledShaderGroup@2@@std@@@5@$0A@@std@@@std@@QAE?AV012@H@Z ; std::_Tree<std::_Tmap_traits<Ogre::FixedString,Ogre::CompiledShaderGroup *,std::less<Ogre::FixedString>,std::allocator<std::pair<Ogre::FixedString const ,Ogre::CompiledShaderGroup *> >,0> >::iterator::operator++
$LN6@D3DMateria:
	lea	eax, DWORD PTR $T159062[ebp]
	push	eax
	mov	ecx, DWORD PTR _this$[ebp]
	add	ecx, 76					; 0000004cH
	call	?end@?$_Tree@V?$_Tmap_traits@VFixedString@Ogre@@PAVCompiledShaderGroup@2@U?$less@VFixedString@Ogre@@@std@@V?$allocator@U?$pair@$$CBVFixedString@Ogre@@PAVCompiledShaderGroup@2@@std@@@5@$0A@@std@@@std@@QAE?AViterator@12@XZ ; std::_Tree<std::_Tmap_traits<Ogre::FixedString,Ogre::CompiledShaderGroup *,std::less<Ogre::FixedString>,std::allocator<std::pair<Ogre::FixedString const ,Ogre::CompiledShaderGroup *> >,0> >::end
	push	eax
	lea	ecx, DWORD PTR _iter$[ebp]
	call	??9const_iterator@?$_Tree@V?$_Tmap_traits@VFixedString@Ogre@@PAVCompiledShaderGroup@2@U?$less@VFixedString@Ogre@@@std@@V?$allocator@U?$pair@$$CBVFixedString@Ogre@@PAVCompiledShaderGroup@2@@std@@@5@$0A@@std@@@std@@QBE_NABV012@@Z ; std::_Tree<std::_Tmap_traits<Ogre::FixedString,Ogre::CompiledShaderGroup *,std::less<Ogre::FixedString>,std::allocator<std::pair<Ogre::FixedString const ,Ogre::CompiledShaderGroup *> >,0> >::const_iterator::operator!=
	movzx	ecx, al
	test	ecx, ecx
	je	SHORT $LN4@D3DMateria

; 20   : 		{
; 21   : 			delete iter->second;

	lea	ecx, DWORD PTR _iter$[ebp]
	call	??Citerator@?$_Tree@V?$_Tmap_traits@VFixedString@Ogre@@PAVCompiledShaderGroup@2@U?$less@VFixedString@Ogre@@@std@@V?$allocator@U?$pair@$$CBVFixedString@Ogre@@PAVCompiledShaderGroup@2@@std@@@5@$0A@@std@@@std@@QBEPAU?$pair@$$CBVFixedString@Ogre@@PAVCompiledShaderGroup@2@@2@XZ ; std::_Tree<std::_Tmap_traits<Ogre::FixedString,Ogre::CompiledShaderGroup *,std::less<Ogre::FixedString>,std::allocator<std::pair<Ogre::FixedString const ,Ogre::CompiledShaderGroup *> >,0> >::iterator::operator->
	mov	edx, DWORD PTR [eax+4]
	mov	DWORD PTR $T159064[ebp], edx
	mov	eax, DWORD PTR $T159064[ebp]
	mov	DWORD PTR $T159063[ebp], eax
	cmp	DWORD PTR $T159063[ebp], 0
	je	SHORT $LN9@D3DMateria
	push	1
	mov	ecx, DWORD PTR $T159063[ebp]
	call	??_GCompiledShaderGroup@Ogre@@QAEPAXI@Z
	mov	DWORD PTR tv152[ebp], eax
	jmp	SHORT $LN10@D3DMateria
$LN9@D3DMateria:
	mov	DWORD PTR tv152[ebp], 0
$LN10@D3DMateria:

; 22   : 		}

	jmp	SHORT $LN5@D3DMateria
$LN4@D3DMateria:

; 23   : 
; 24   : 		std::map<ShaderEnvKey2, D3DShaderTechnique *>::iterator iter2 = m_Techniques.begin();

	lea	ecx, DWORD PTR _iter2$[ebp]
	push	ecx
	mov	ecx, DWORD PTR _this$[ebp]
	add	ecx, 108				; 0000006cH
	call	?begin@?$_Tree@V?$_Tmap_traits@TShaderEnvKey2@Ogre@@PAVD3DShaderTechnique@2@U?$less@TShaderEnvKey2@Ogre@@@std@@V?$allocator@U?$pair@$$CBTShaderEnvKey2@Ogre@@PAVD3DShaderTechnique@2@@std@@@5@$0A@@std@@@std@@QAE?AViterator@12@XZ ; std::_Tree<std::_Tmap_traits<Ogre::ShaderEnvKey2,Ogre::D3DShaderTechnique *,std::less<Ogre::ShaderEnvKey2>,std::allocator<std::pair<Ogre::ShaderEnvKey2 const ,Ogre::D3DShaderTechnique *> >,0> >::begin
	jmp	SHORT $LN3@D3DMateria
$LN2@D3DMateria:

; 25   : 		for(; iter2!=m_Techniques.end(); iter2++)

	push	0
	lea	edx, DWORD PTR $T159067[ebp]
	push	edx
	lea	ecx, DWORD PTR _iter2$[ebp]
	call	??Eiterator@?$_Tree@V?$_Tmap_traits@TShaderEnvKey2@Ogre@@PAVD3DShaderTechnique@2@U?$less@TShaderEnvKey2@Ogre@@@std@@V?$allocator@U?$pair@$$CBTShaderEnvKey2@Ogre@@PAVD3DShaderTechnique@2@@std@@@5@$0A@@std@@@std@@QAE?AV012@H@Z ; std::_Tree<std::_Tmap_traits<Ogre::ShaderEnvKey2,Ogre::D3DShaderTechnique *,std::less<Ogre::ShaderEnvKey2>,std::allocator<std::pair<Ogre::ShaderEnvKey2 const ,Ogre::D3DShaderTechnique *> >,0> >::iterator::operator++
$LN3@D3DMateria:
	lea	eax, DWORD PTR $T159068[ebp]
	push	eax
	mov	ecx, DWORD PTR _this$[ebp]
	add	ecx, 108				; 0000006cH
	call	?end@?$_Tree@V?$_Tmap_traits@TShaderEnvKey2@Ogre@@PAVD3DShaderTechnique@2@U?$less@TShaderEnvKey2@Ogre@@@std@@V?$allocator@U?$pair@$$CBTShaderEnvKey2@Ogre@@PAVD3DShaderTechnique@2@@std@@@5@$0A@@std@@@std@@QAE?AViterator@12@XZ ; std::_Tree<std::_Tmap_traits<Ogre::ShaderEnvKey2,Ogre::D3DShaderTechnique *,std::less<Ogre::ShaderEnvKey2>,std::allocator<std::pair<Ogre::ShaderEnvKey2 const ,Ogre::D3DShaderTechnique *> >,0> >::end
	push	eax
	lea	ecx, DWORD PTR _iter2$[ebp]
	call	??9const_iterator@?$_Tree@V?$_Tmap_traits@TShaderEnvKey2@Ogre@@PAVD3DShaderTechnique@2@U?$less@TShaderEnvKey2@Ogre@@@std@@V?$allocator@U?$pair@$$CBTShaderEnvKey2@Ogre@@PAVD3DShaderTechnique@2@@std@@@5@$0A@@std@@@std@@QBE_NABV012@@Z ; std::_Tree<std::_Tmap_traits<Ogre::ShaderEnvKey2,Ogre::D3DShaderTechnique *,std::less<Ogre::ShaderEnvKey2>,std::allocator<std::pair<Ogre::ShaderEnvKey2 const ,Ogre::D3DShaderTechnique *> >,0> >::const_iterator::operator!=
	movzx	ecx, al
	test	ecx, ecx
	je	SHORT $LN1@D3DMateria

; 26   : 		{
; 27   : 			delete iter2->second;

	lea	ecx, DWORD PTR _iter2$[ebp]
	call	??Citerator@?$_Tree@V?$_Tmap_traits@TShaderEnvKey2@Ogre@@PAVD3DShaderTechnique@2@U?$less@TShaderEnvKey2@Ogre@@@std@@V?$allocator@U?$pair@$$CBTShaderEnvKey2@Ogre@@PAVD3DShaderTechnique@2@@std@@@5@$0A@@std@@@std@@QBEPAU?$pair@$$CBTShaderEnvKey2@Ogre@@PAVD3DShaderTechnique@2@@2@XZ ; std::_Tree<std::_Tmap_traits<Ogre::ShaderEnvKey2,Ogre::D3DShaderTechnique *,std::less<Ogre::ShaderEnvKey2>,std::allocator<std::pair<Ogre::ShaderEnvKey2 const ,Ogre::D3DShaderTechnique *> >,0> >::iterator::operator->
	mov	edx, DWORD PTR [eax+24]
	mov	DWORD PTR $T159070[ebp], edx
	mov	eax, DWORD PTR $T159070[ebp]
	mov	DWORD PTR $T159069[ebp], eax
	cmp	DWORD PTR $T159069[ebp], 0
	je	SHORT $LN11@D3DMateria
	push	1
	mov	ecx, DWORD PTR $T159069[ebp]
	mov	edx, DWORD PTR [ecx]
	mov	ecx, DWORD PTR $T159069[ebp]
	mov	eax, DWORD PTR [edx+60]
	call	eax
	mov	DWORD PTR tv197[ebp], eax
	jmp	SHORT $LN12@D3DMateria
$LN11@D3DMateria:
	mov	DWORD PTR tv197[ebp], 0
$LN12@D3DMateria:

; 28   : 		}

	jmp	SHORT $LN2@D3DMateria
$LN1@D3DMateria:

; 29   : 
; 30   : 		delete m_pEffectGroup;

	mov	ecx, DWORD PTR _this$[ebp]
	mov	edx, DWORD PTR [ecx+64]
	mov	DWORD PTR $T159074[ebp], edx
	mov	eax, DWORD PTR $T159074[ebp]
	mov	DWORD PTR $T159073[ebp], eax
	cmp	DWORD PTR $T159073[ebp], 0
	je	SHORT $LN13@D3DMateria
	push	1
	mov	ecx, DWORD PTR $T159073[ebp]
	call	??_GCompiledShaderGroup@Ogre@@QAEPAXI@Z
	mov	DWORD PTR tv203[ebp], eax
	jmp	SHORT $LN7@D3DMateria
$LN13@D3DMateria:
	mov	DWORD PTR tv203[ebp], 0
$LN7@D3DMateria:

; 31   : 	}

	mov	BYTE PTR __$EHRec$[ebp+8], 3
	mov	ecx, DWORD PTR _this$[ebp]
	add	ecx, 140				; 0000008cH
	call	??1?$vector@PAUTechCache@D3DMaterialTemplate@Ogre@@V?$allocator@PAUTechCache@D3DMaterialTemplate@Ogre@@@std@@@std@@QAE@XZ ; std::vector<Ogre::D3DMaterialTemplate::TechCache *,std::allocator<Ogre::D3DMaterialTemplate::TechCache *> >::~vector<Ogre::D3DMaterialTemplate::TechCache *,std::allocator<Ogre::D3DMaterialTemplate::TechCache *> >
	mov	BYTE PTR __$EHRec$[ebp+8], 2
	mov	ecx, DWORD PTR _this$[ebp]
	add	ecx, 108				; 0000006cH
	call	??1?$map@TShaderEnvKey2@Ogre@@PAVD3DShaderTechnique@2@U?$less@TShaderEnvKey2@Ogre@@@std@@V?$allocator@U?$pair@$$CBTShaderEnvKey2@Ogre@@PAVD3DShaderTechnique@2@@std@@@5@@std@@QAE@XZ
	mov	BYTE PTR __$EHRec$[ebp+8], 1
	mov	ecx, DWORD PTR _this$[ebp]
	add	ecx, 76					; 0000004cH
	call	??1?$map@VFixedString@Ogre@@PAVCompiledShaderGroup@2@U?$less@VFixedString@Ogre@@@std@@V?$allocator@U?$pair@$$CBVFixedString@Ogre@@PAVCompiledShaderGroup@2@@std@@@5@@std@@QAE@XZ
	mov	BYTE PTR __$EHRec$[ebp+8], 0
	mov	ecx, DWORD PTR _this$[ebp]
	add	ecx, 72					; 00000048H
	call	DWORD PTR __imp_??1LockSection@Ogre@@QAE@XZ
	mov	DWORD PTR __$EHRec$[ebp+8], -1
	mov	ecx, DWORD PTR _this$[ebp]
	call	DWORD PTR __imp_??1MaterialTemplate@Ogre@@UAE@XZ
	mov	ecx, DWORD PTR __$EHRec$[ebp]
	mov	DWORD PTR fs:0, ecx
	pop	ecx
	mov	esp, ebp
	pop	ebp
	ret	0
_TEXT	ENDS
text$x	SEGMENT
__unwindfunclet$??1D3DMaterialTemplate@Ogre@@UAE@XZ$0:
	mov	ecx, DWORD PTR _this$[ebp]
	jmp	DWORD PTR __imp_??1MaterialTemplate@Ogre@@UAE@XZ
__unwindfunclet$??1D3DMaterialTemplate@Ogre@@UAE@XZ$1:
	mov	ecx, DWORD PTR _this$[ebp]
	add	ecx, 72					; 00000048H
	jmp	DWORD PTR __imp_??1LockSection@Ogre@@QAE@XZ
__unwindfunclet$??1D3DMaterialTemplate@Ogre@@UAE@XZ$2:
	mov	ecx, DWORD PTR _this$[ebp]
	add	ecx, 76					; 0000004cH
	jmp	??1?$map@VFixedString@Ogre@@PAVCompiledShaderGroup@2@U?$less@VFixedString@Ogre@@@std@@V?$allocator@U?$pair@$$CBVFixedString@Ogre@@PAVCompiledShaderGroup@2@@std@@@5@@std@@QAE@XZ
__unwindfunclet$??1D3DMaterialTemplate@Ogre@@UAE@XZ$3:
	mov	ecx, DWORD PTR _this$[ebp]
	add	ecx, 108				; 0000006cH
	jmp	??1?$map@TShaderEnvKey2@Ogre@@PAVD3DShaderTechnique@2@U?$less@TShaderEnvKey2@Ogre@@@std@@V?$allocator@U?$pair@$$CBTShaderEnvKey2@Ogre@@PAVD3DShaderTechnique@2@@std@@@5@@std@@QAE@XZ
__unwindfunclet$??1D3DMaterialTemplate@Ogre@@UAE@XZ$4:
	mov	ecx, DWORD PTR _this$[ebp]
	add	ecx, 140				; 0000008cH
	jmp	??1?$vector@PAUTechCache@D3DMaterialTemplate@Ogre@@V?$allocator@PAUTechCache@D3DMaterialTemplate@Ogre@@@std@@@std@@QAE@XZ ; std::vector<Ogre::D3DMaterialTemplate::TechCache *,std::allocator<Ogre::D3DMaterialTemplate::TechCache *> >::~vector<Ogre::D3DMaterialTemplate::TechCache *,std::allocator<Ogre::D3DMaterialTemplate::TechCache *> >
__ehhandler$??1D3DMaterialTemplate@Ogre@@UAE@XZ:
	mov	edx, DWORD PTR [esp+8]
	lea	eax, DWORD PTR [edx+12]
	mov	ecx, DWORD PTR [edx-92]
	xor	ecx, eax
	call	@__security_check_cookie@4
	mov	eax, OFFSET __ehfuncinfo$??1D3DMaterialTemplate@Ogre@@UAE@XZ
	jmp	___CxxFrameHandler3
text$x	ENDS
??1D3DMaterialTemplate@Ogre@@UAE@XZ ENDP		; Ogre::D3DMaterialTemplate::~D3DMaterialTemplate
EXTRN	??1CompiledShaderGroup@Ogre@@QAE@XZ:PROC	; Ogre::CompiledShaderGroup::~CompiledShaderGroup
; Function compile flags: /Odtp
;	COMDAT ??_GCompiledShaderGroup@Ogre@@QAEPAXI@Z
_TEXT	SEGMENT
_this$ = -4						; size = 4
___flags$ = 8						; size = 4
??_GCompiledShaderGroup@Ogre@@QAEPAXI@Z PROC		; Ogre::CompiledShaderGroup::`scalar deleting destructor', COMDAT
; _this$ = ecx
	push	ebp
	mov	ebp, esp
	push	ecx
	mov	DWORD PTR _this$[ebp], ecx
	mov	ecx, DWORD PTR _this$[ebp]
	call	??1CompiledShaderGroup@Ogre@@QAE@XZ	; Ogre::CompiledShaderGroup::~CompiledShaderGroup
	mov	eax, DWORD PTR ___flags$[ebp]
	and	eax, 1
	je	SHORT $LN1@scalar@2
	mov	ecx, DWORD PTR _this$[ebp]
	push	ecx
	call	??3@YAXPAX@Z				; operator delete
	add	esp, 4
$LN1@scalar@2:
	mov	eax, DWORD PTR _this$[ebp]
	mov	esp, ebp
	pop	ebp
	ret	4
??_GCompiledShaderGroup@Ogre@@QAEPAXI@Z ENDP		; Ogre::CompiledShaderGroup::`scalar deleting destructor'
_TEXT	ENDS
PUBLIC	?getD3DDevice@D3D9RenderSystem@Ogre@@QAEPAUIDirect3DDevice9@@XZ ; Ogre::D3D9RenderSystem::getD3DDevice
PUBLIC	?push_back@?$vector@PAUTechCache@D3DMaterialTemplate@Ogre@@V?$allocator@PAUTechCache@D3DMaterialTemplate@Ogre@@@std@@@std@@QAEXABQAUTechCache@D3DMaterialTemplate@Ogre@@@Z ; std::vector<Ogre::D3DMaterialTemplate::TechCache *,std::allocator<Ogre::D3DMaterialTemplate::TechCache *> >::push_back
PUBLIC	??0TechCache@D3DMaterialTemplate@Ogre@@QAE@XZ	; Ogre::D3DMaterialTemplate::TechCache::TechCache
PUBLIC	__$ArrayPad$
EXTRN	_D3DXCreateEffectFromFileA@32:PROC
EXTRN	?m_pEffect@D3DTech@Ogre@@2PAUID3DXEffect@@A:DWORD ; Ogre::D3DTech::m_pEffect
EXTRN	?m_pDevice@D3DTech@Ogre@@2PAUIDirect3DDevice9@@A:DWORD ; Ogre::D3DTech::m_pDevice
EXTRN	__imp_?iterateChild@XMLNode@Ogre@@QAE?AV12@V12@@Z:PROC
EXTRN	?CreateD3DTech@Ogre@@YAPAVD3DTech@1@PBD@Z:PROC	; Ogre::CreateD3DTech
EXTRN	__imp__sprintf:PROC
EXTRN	__imp_??BFixedString@Ogre@@QBEPBDXZ:PROC
EXTRN	__imp_?attribToString@XMLNode@Ogre@@QAEPBDPBD@Z:PROC
EXTRN	__imp_?attribToInt@XMLNode@Ogre@@QAEHPBD@Z:PROC
EXTRN	??2@YAPAXI@Z:PROC				; operator new
EXTRN	_strcmp:PROC
EXTRN	__imp_?getName@XMLNode@Ogre@@QAEPBDXZ:PROC
EXTRN	__imp_?isNull@XMLNode@Ogre@@QAE_NXZ:PROC
EXTRN	__imp_?iterateChild@XMLNode@Ogre@@QAE?AV12@XZ:PROC
EXTRN	__imp_?init@MaterialTemplate@Ogre@@UAE_NVXMLNode@2@@Z:PROC
xdata$x	SEGMENT
__unwindtable$?init@D3DMaterialTemplate@Ogre@@UAE_NVXMLNode@2@@Z DD 0ffffffffH
	DD	FLAT:__unwindfunclet$?init@D3DMaterialTemplate@Ogre@@UAE_NVXMLNode@2@@Z$0
__ehfuncinfo$?init@D3DMaterialTemplate@Ogre@@UAE_NVXMLNode@2@@Z DD 019930522H
	DD	01H
	DD	FLAT:__unwindtable$?init@D3DMaterialTemplate@Ogre@@UAE_NVXMLNode@2@@Z
	DD	2 DUP(00H)
	DD	2 DUP(00H)
	DD	00H
	DD	00H
; Function compile flags: /Odtp
xdata$x	ENDS
_TEXT	SEGMENT
tv92 = -308						; size = 4
_this$ = -304						; size = 4
$T159094 = -300						; size = 4
$T159091 = -296						; size = 4
$T159090 = -292						; size = 4
_hr$146138 = -288					; size = 4
_pcache$146126 = -284					; size = 4
_name$146123 = -280					; size = 4
_buffer$ = -276						; size = 256
__$ArrayPad$ = -20					; size = 4
_cur$ = -16						; size = 4
__$EHRec$ = -12						; size = 12
_node$ = 8						; size = 4
?init@D3DMaterialTemplate@Ogre@@UAE_NVXMLNode@2@@Z PROC	; Ogre::D3DMaterialTemplate::init
; _this$ = ecx

; 34   : 	{

	push	ebp
	mov	ebp, esp
	push	-1
	push	__ehhandler$?init@D3DMaterialTemplate@Ogre@@UAE_NVXMLNode@2@@Z
	mov	eax, DWORD PTR fs:0
	push	eax
	sub	esp, 296				; 00000128H
	mov	eax, DWORD PTR ___security_cookie
	xor	eax, ebp
	mov	DWORD PTR __$ArrayPad$[ebp], eax
	push	eax
	lea	eax, DWORD PTR __$EHRec$[ebp]
	mov	DWORD PTR fs:0, eax
	mov	DWORD PTR _this$[ebp], ecx

; 35   : 		if(!MaterialTemplate::init(node)) return false;

	mov	eax, DWORD PTR _node$[ebp]
	push	eax
	mov	ecx, DWORD PTR _this$[ebp]
	call	DWORD PTR __imp_?init@MaterialTemplate@Ogre@@UAE_NVXMLNode@2@@Z
	movzx	ecx, al
	test	ecx, ecx
	jne	SHORT $LN6@init
	xor	al, al
	jmp	$LN7@init
$LN6@init:

; 36   : 
; 37   : 		char buffer[256];
; 38   : 		XMLNode cur = node.iterateChild();

	lea	edx, DWORD PTR _cur$[ebp]
	push	edx
	lea	ecx, DWORD PTR _node$[ebp]
	call	DWORD PTR __imp_?iterateChild@XMLNode@Ogre@@QAE?AV12@XZ
$LN5@init:

; 39   : 		while(!cur.isNull())

	lea	ecx, DWORD PTR _cur$[ebp]
	call	DWORD PTR __imp_?isNull@XMLNode@Ogre@@QAE_NXZ
	movzx	eax, al
	test	eax, eax
	jne	$LN4@init

; 40   : 		{
; 41   : 			const char *name = cur.getName();

	lea	ecx, DWORD PTR _cur$[ebp]
	call	DWORD PTR __imp_?getName@XMLNode@Ogre@@QAEPBDXZ
	mov	DWORD PTR _name$146123[ebp], eax

; 42   : 			if(strcmp(name, "Technique") == 0)

	push	OFFSET $SG146125
	mov	ecx, DWORD PTR _name$146123[ebp]
	push	ecx
	call	_strcmp
	add	esp, 8
	test	eax, eax
	jne	$LN3@init

; 43   : 			{
; 44   : 				TechCache *pcache = new TechCache;

	push	48					; 00000030H
	call	??2@YAPAXI@Z				; operator new
	add	esp, 4
	mov	DWORD PTR $T159091[ebp], eax
	mov	DWORD PTR __$EHRec$[ebp+8], 0
	cmp	DWORD PTR $T159091[ebp], 0
	je	SHORT $LN9@init
	mov	ecx, DWORD PTR $T159091[ebp]
	call	??0TechCache@D3DMaterialTemplate@Ogre@@QAE@XZ
	mov	DWORD PTR tv92[ebp], eax
	jmp	SHORT $LN10@init
$LN9@init:
	mov	DWORD PTR tv92[ebp], 0
$LN10@init:
	mov	edx, DWORD PTR tv92[ebp]
	mov	DWORD PTR $T159090[ebp], edx
	mov	DWORD PTR __$EHRec$[ebp+8], -1
	mov	eax, DWORD PTR $T159090[ebp]
	mov	DWORD PTR _pcache$146126[ebp], eax

; 45   : 				pcache->lod = cur.attribToInt("lod");

	push	OFFSET $SG146131
	lea	ecx, DWORD PTR _cur$[ebp]
	call	DWORD PTR __imp_?attribToInt@XMLNode@Ogre@@QAEHPBD@Z
	mov	ecx, DWORD PTR _pcache$146126[ebp]
	mov	DWORD PTR [ecx], eax

; 46   : 				pcache->usage = cur.attribToInt("usage");

	push	OFFSET $SG146132
	lea	ecx, DWORD PTR _cur$[ebp]
	call	DWORD PTR __imp_?attribToInt@XMLNode@Ogre@@QAEHPBD@Z
	mov	edx, DWORD PTR _pcache$146126[ebp]
	mov	DWORD PTR [edx+4], eax

; 47   : 
; 48   : 				sprintf(buffer, "%s_%s", (const char *)m_Name, cur.attribToString("name"));

	push	OFFSET $SG146134
	lea	ecx, DWORD PTR _cur$[ebp]
	call	DWORD PTR __imp_?attribToString@XMLNode@Ogre@@QAEPBDPBD@Z
	push	eax
	mov	ecx, DWORD PTR _this$[ebp]
	add	ecx, 36					; 00000024H
	call	DWORD PTR __imp_??BFixedString@Ogre@@QBEPBDXZ
	push	eax
	push	OFFSET $SG146135
	lea	eax, DWORD PTR _buffer$[ebp]
	push	eax
	call	DWORD PTR __imp__sprintf
	add	esp, 16					; 00000010H

; 49   : 				
; 50   : 				pcache->proto = CreateD3DTech(buffer);

	lea	ecx, DWORD PTR _buffer$[ebp]
	push	ecx
	call	?CreateD3DTech@Ogre@@YAPAVD3DTech@1@PBD@Z ; Ogre::CreateD3DTech
	add	esp, 4
	mov	edx, DWORD PTR _pcache$146126[ebp]
	mov	DWORD PTR [edx+44], eax

; 51   : 				pcache->proto->m_pMtlTemplate = this;

	mov	eax, DWORD PTR _pcache$146126[ebp]
	mov	ecx, DWORD PTR [eax+44]
	mov	edx, DWORD PTR _this$[ebp]
	mov	DWORD PTR [ecx+8], edx

; 52   : 
; 53   : 				m_TechCache.push_back(pcache);

	lea	eax, DWORD PTR _pcache$146126[ebp]
	push	eax
	mov	ecx, DWORD PTR _this$[ebp]
	add	ecx, 140				; 0000008cH
	call	?push_back@?$vector@PAUTechCache@D3DMaterialTemplate@Ogre@@V?$allocator@PAUTechCache@D3DMaterialTemplate@Ogre@@@std@@@std@@QAEXABQAUTechCache@D3DMaterialTemplate@Ogre@@@Z ; std::vector<Ogre::D3DMaterialTemplate::TechCache *,std::allocator<Ogre::D3DMaterialTemplate::TechCache *> >::push_back
$LN3@init:

; 54   : 			}
; 55   : 
; 56   : 			cur = node.iterateChild(cur);

	mov	ecx, DWORD PTR _cur$[ebp]
	push	ecx
	lea	edx, DWORD PTR $T159094[ebp]
	push	edx
	lea	ecx, DWORD PTR _node$[ebp]
	call	DWORD PTR __imp_?iterateChild@XMLNode@Ogre@@QAE?AV12@V12@@Z
	mov	eax, DWORD PTR [eax]
	mov	DWORD PTR _cur$[ebp], eax

; 57   : 		}

	jmp	$LN5@init
$LN4@init:

; 58   : 
; 59   : 		D3DTech::m_pDevice = m_pRS->getD3DDevice();

	mov	ecx, DWORD PTR _this$[ebp]
	mov	ecx, DWORD PTR [ecx+68]
	call	?getD3DDevice@D3D9RenderSystem@Ogre@@QAEPAUIDirect3DDevice9@@XZ ; Ogre::D3D9RenderSystem::getD3DDevice
	mov	DWORD PTR ?m_pDevice@D3DTech@Ogre@@2PAUIDirect3DDevice9@@A, eax ; Ogre::D3DTech::m_pDevice

; 60   : 		if(D3DTech::m_pEffect == NULL)

	cmp	DWORD PTR ?m_pEffect@D3DTech@Ogre@@2PAUID3DXEffect@@A, 0 ; Ogre::D3DTech::m_pEffect
	jne	SHORT $LN2@init

; 61   : 		{
; 62   : 			HRESULT hr = D3DXCreateEffectFromFile(D3DTech::m_pDevice, "shaders\\test\\simple.fx", NULL, NULL, 0, NULL, &D3DTech::m_pEffect, NULL);

	push	0
	push	OFFSET ?m_pEffect@D3DTech@Ogre@@2PAUID3DXEffect@@A ; Ogre::D3DTech::m_pEffect
	push	0
	push	0
	push	0
	push	0
	push	OFFSET $SG146139
	mov	edx, DWORD PTR ?m_pDevice@D3DTech@Ogre@@2PAUIDirect3DDevice9@@A ; Ogre::D3DTech::m_pDevice
	push	edx
	call	_D3DXCreateEffectFromFileA@32
	mov	DWORD PTR _hr$146138[ebp], eax

; 63   : 			if(FAILED(hr))

	cmp	DWORD PTR _hr$146138[ebp], 0
	jge	SHORT $LN2@init

; 64   : 			{
; 65   : 				hr = hr;

	mov	eax, DWORD PTR _hr$146138[ebp]
	mov	DWORD PTR _hr$146138[ebp], eax
$LN2@init:

; 66   : 			}
; 67   : 		}
; 68   : 		return true;

	mov	al, 1
$LN7@init:

; 69   : 	}

	mov	ecx, DWORD PTR __$EHRec$[ebp]
	mov	DWORD PTR fs:0, ecx
	pop	ecx
	mov	ecx, DWORD PTR __$ArrayPad$[ebp]
	xor	ecx, ebp
	call	@__security_check_cookie@4
	mov	esp, ebp
	pop	ebp
	ret	4
_TEXT	ENDS
text$x	SEGMENT
__unwindfunclet$?init@D3DMaterialTemplate@Ogre@@UAE_NVXMLNode@2@@Z$0:
	mov	eax, DWORD PTR $T159091[ebp]
	push	eax
	call	??3@YAXPAX@Z				; operator delete
	pop	ecx
	ret	0
__ehhandler$?init@D3DMaterialTemplate@Ogre@@UAE_NVXMLNode@2@@Z:
	mov	edx, DWORD PTR [esp+8]
	lea	eax, DWORD PTR [edx+12]
	mov	ecx, DWORD PTR [edx-300]
	xor	ecx, eax
	call	@__security_check_cookie@4
	mov	ecx, DWORD PTR [edx-8]
	xor	ecx, eax
	call	@__security_check_cookie@4
	mov	eax, OFFSET __ehfuncinfo$?init@D3DMaterialTemplate@Ogre@@UAE_NVXMLNode@2@@Z
	jmp	___CxxFrameHandler3
text$x	ENDS
?init@D3DMaterialTemplate@Ogre@@UAE_NVXMLNode@2@@Z ENDP	; Ogre::D3DMaterialTemplate::init
; Function compile flags: /Odtp
; File i:\svnroot\client\plugins\rendersystem_d3d9\ogred3d9rendersystem.h
;	COMDAT ?getD3DDevice@D3D9RenderSystem@Ogre@@QAEPAUIDirect3DDevice9@@XZ
_TEXT	SEGMENT
_this$ = -4						; size = 4
?getD3DDevice@D3D9RenderSystem@Ogre@@QAEPAUIDirect3DDevice9@@XZ PROC ; Ogre::D3D9RenderSystem::getD3DDevice, COMDAT
; _this$ = ecx

; 44   : 		{

	push	ebp
	mov	ebp, esp
	push	ecx
	mov	DWORD PTR _this$[ebp], ecx

; 45   : 			return m_pd3dDevice;

	mov	eax, DWORD PTR _this$[ebp]
	mov	eax, DWORD PTR [eax+104]

; 46   : 		}

	mov	esp, ebp
	pop	ebp
	ret	0
?getD3DDevice@D3D9RenderSystem@Ogre@@QAEPAUIDirect3DDevice9@@XZ ENDP ; Ogre::D3D9RenderSystem::getD3DDevice
_TEXT	ENDS
PUBLIC	??1?$map@TShaderEnvKey@Ogre@@PAVD3DTech@2@U?$less@TShaderEnvKey@Ogre@@@std@@V?$allocator@U?$pair@$$CBTShaderEnvKey@Ogre@@PAVD3DTech@2@@std@@@5@@std@@QAE@XZ ; std::map<Ogre::ShaderEnvKey,Ogre::D3DTech *,std::less<Ogre::ShaderEnvKey>,std::allocator<std::pair<Ogre::ShaderEnvKey const ,Ogre::D3DTech *> > >::~map<Ogre::ShaderEnvKey,Ogre::D3DTech *,std::less<Ogre::ShaderEnvKey>,std::allocator<std::pair<Ogre::ShaderEnvKey const ,Ogre::D3DTech *> > >
PUBLIC	??0?$map@TShaderEnvKey@Ogre@@PAVD3DTech@2@U?$less@TShaderEnvKey@Ogre@@@std@@V?$allocator@U?$pair@$$CBTShaderEnvKey@Ogre@@PAVD3DTech@2@@std@@@5@@std@@QAE@XZ ; std::map<Ogre::ShaderEnvKey,Ogre::D3DTech *,std::less<Ogre::ShaderEnvKey>,std::allocator<std::pair<Ogre::ShaderEnvKey const ,Ogre::D3DTech *> > >::map<Ogre::ShaderEnvKey,Ogre::D3DTech *,std::less<Ogre::ShaderEnvKey>,std::allocator<std::pair<Ogre::ShaderEnvKey const ,Ogre::D3DTech *> > >
EXTRN	__imp_??1FixedString@Ogre@@QAE@XZ:PROC
EXTRN	__imp_??0FixedString@Ogre@@QAE@XZ:PROC
;	COMDAT xdata$x
xdata$x	SEGMENT
__unwindtable$??0TechCache@D3DMaterialTemplate@Ogre@@QAE@XZ DD 0ffffffffH
	DD	FLAT:__unwindfunclet$??0TechCache@D3DMaterialTemplate@Ogre@@QAE@XZ$0
	DD	00H
	DD	FLAT:__unwindfunclet$??0TechCache@D3DMaterialTemplate@Ogre@@QAE@XZ$1
__ehfuncinfo$??0TechCache@D3DMaterialTemplate@Ogre@@QAE@XZ DD 019930522H
	DD	02H
	DD	FLAT:__unwindtable$??0TechCache@D3DMaterialTemplate@Ogre@@QAE@XZ
	DD	2 DUP(00H)
	DD	2 DUP(00H)
	DD	00H
	DD	00H
; Function compile flags: /Odtp
xdata$x	ENDS
;	COMDAT ??0TechCache@D3DMaterialTemplate@Ogre@@QAE@XZ
_TEXT	SEGMENT
_this$ = -16						; size = 4
__$EHRec$ = -12						; size = 12
??0TechCache@D3DMaterialTemplate@Ogre@@QAE@XZ PROC	; Ogre::D3DMaterialTemplate::TechCache::TechCache, COMDAT
; _this$ = ecx
	push	ebp
	mov	ebp, esp
	push	-1
	push	__ehhandler$??0TechCache@D3DMaterialTemplate@Ogre@@QAE@XZ
	mov	eax, DWORD PTR fs:0
	push	eax
	push	ecx
	mov	eax, DWORD PTR ___security_cookie
	xor	eax, ebp
	push	eax
	lea	eax, DWORD PTR __$EHRec$[ebp]
	mov	DWORD PTR fs:0, eax
	mov	DWORD PTR _this$[ebp], ecx
	mov	ecx, DWORD PTR _this$[ebp]
	add	ecx, 8
	call	DWORD PTR __imp_??0FixedString@Ogre@@QAE@XZ
	mov	DWORD PTR __$EHRec$[ebp+8], 0
	mov	ecx, DWORD PTR _this$[ebp]
	add	ecx, 12					; 0000000cH
	call	??0?$map@TShaderEnvKey@Ogre@@PAVD3DTech@2@U?$less@TShaderEnvKey@Ogre@@@std@@V?$allocator@U?$pair@$$CBTShaderEnvKey@Ogre@@PAVD3DTech@2@@std@@@5@@std@@QAE@XZ ; std::map<Ogre::ShaderEnvKey,Ogre::D3DTech *,std::less<Ogre::ShaderEnvKey>,std::allocator<std::pair<Ogre::ShaderEnvKey const ,Ogre::D3DTech *> > >::map<Ogre::ShaderEnvKey,Ogre::D3DTech *,std::less<Ogre::ShaderEnvKey>,std::allocator<std::pair<Ogre::ShaderEnvKey const ,Ogre::D3DTech *> > >
	mov	BYTE PTR __$EHRec$[ebp+8], 1
	mov	DWORD PTR __$EHRec$[ebp+8], -1
	mov	eax, DWORD PTR _this$[ebp]
	mov	ecx, DWORD PTR __$EHRec$[ebp]
	mov	DWORD PTR fs:0, ecx
	pop	ecx
	mov	esp, ebp
	pop	ebp
	ret	0
_TEXT	ENDS
;	COMDAT text$x
text$x	SEGMENT
__unwindfunclet$??0TechCache@D3DMaterialTemplate@Ogre@@QAE@XZ$0:
	mov	ecx, DWORD PTR _this$[ebp]
	add	ecx, 8
	jmp	DWORD PTR __imp_??1FixedString@Ogre@@QAE@XZ
__unwindfunclet$??0TechCache@D3DMaterialTemplate@Ogre@@QAE@XZ$1:
	mov	ecx, DWORD PTR _this$[ebp]
	add	ecx, 12					; 0000000cH
	jmp	??1?$map@TShaderEnvKey@Ogre@@PAVD3DTech@2@U?$less@TShaderEnvKey@Ogre@@@std@@V?$allocator@U?$pair@$$CBTShaderEnvKey@Ogre@@PAVD3DTech@2@@std@@@5@@std@@QAE@XZ
__ehhandler$??0TechCache@D3DMaterialTemplate@Ogre@@QAE@XZ:
	mov	edx, DWORD PTR [esp+8]
	lea	eax, DWORD PTR [edx+12]
	mov	ecx, DWORD PTR [edx-8]
	xor	ecx, eax
	call	@__security_check_cookie@4
	mov	eax, OFFSET __ehfuncinfo$??0TechCache@D3DMaterialTemplate@Ogre@@QAE@XZ
	jmp	___CxxFrameHandler3
text$x	ENDS
??0TechCache@D3DMaterialTemplate@Ogre@@QAE@XZ ENDP	; Ogre::D3DMaterialTemplate::TechCache::TechCache
PUBLIC	??1?$_Tree@V?$_Tmap_traits@TShaderEnvKey@Ogre@@PAVD3DTech@2@U?$less@TShaderEnvKey@Ogre@@@std@@V?$allocator@U?$pair@$$CBTShaderEnvKey@Ogre@@PAVD3DTech@2@@std@@@5@$0A@@std@@@std@@QAE@XZ ; std::_Tree<std::_Tmap_traits<Ogre::ShaderEnvKey,Ogre::D3DTech *,std::less<Ogre::ShaderEnvKey>,std::allocator<std::pair<Ogre::ShaderEnvKey const ,Ogre::D3DTech *> >,0> >::~_Tree<std::_Tmap_traits<Ogre::ShaderEnvKey,Ogre::D3DTech *,std::less<Ogre::ShaderEnvKey>,std::allocator<std::pair<Ogre::ShaderEnvKey const ,Ogre::D3DTech *> >,0> >
;	COMDAT xdata$x
xdata$x	SEGMENT
__unwindtable$??1?$map@TShaderEnvKey@Ogre@@PAVD3DTech@2@U?$less@TShaderEnvKey@Ogre@@@std@@V?$allocator@U?$pair@$$CBTShaderEnvKey@Ogre@@PAVD3DTech@2@@std@@@5@@std@@QAE@XZ DD 0ffffffffH
	DD	FLAT:__unwindfunclet$??1?$map@TShaderEnvKey@Ogre@@PAVD3DTech@2@U?$less@TShaderEnvKey@Ogre@@@std@@V?$allocator@U?$pair@$$CBTShaderEnvKey@Ogre@@PAVD3DTech@2@@std@@@5@@std@@QAE@XZ$0
__ehfuncinfo$??1?$map@TShaderEnvKey@Ogre@@PAVD3DTech@2@U?$less@TShaderEnvKey@Ogre@@@std@@V?$allocator@U?$pair@$$CBTShaderEnvKey@Ogre@@PAVD3DTech@2@@std@@@5@@std@@QAE@XZ DD 019930522H
	DD	01H
	DD	FLAT:__unwindtable$??1?$map@TShaderEnvKey@Ogre@@PAVD3DTech@2@U?$less@TShaderEnvKey@Ogre@@@std@@V?$allocator@U?$pair@$$CBTShaderEnvKey@Ogre@@PAVD3DTech@2@@std@@@5@@std@@QAE@XZ
	DD	2 DUP(00H)
	DD	2 DUP(00H)
	DD	00H
	DD	00H
; Function compile flags: /Odtp
xdata$x	ENDS
;	COMDAT ??1?$map@TShaderEnvKey@Ogre@@PAVD3DTech@2@U?$less@TShaderEnvKey@Ogre@@@std@@V?$allocator@U?$pair@$$CBTShaderEnvKey@Ogre@@PAVD3DTech@2@@std@@@5@@std@@QAE@XZ
_TEXT	SEGMENT
_this$ = -16						; size = 4
__$EHRec$ = -12						; size = 12
??1?$map@TShaderEnvKey@Ogre@@PAVD3DTech@2@U?$less@TShaderEnvKey@Ogre@@@std@@V?$allocator@U?$pair@$$CBTShaderEnvKey@Ogre@@PAVD3DTech@2@@std@@@5@@std@@QAE@XZ PROC ; std::map<Ogre::ShaderEnvKey,Ogre::D3DTech *,std::less<Ogre::ShaderEnvKey>,std::allocator<std::pair<Ogre::ShaderEnvKey const ,Ogre::D3DTech *> > >::~map<Ogre::ShaderEnvKey,Ogre::D3DTech *,std::less<Ogre::ShaderEnvKey>,std::allocator<std::pair<Ogre::ShaderEnvKey const ,Ogre::D3DTech *> > >, COMDAT
; _this$ = ecx
	push	ebp
	mov	ebp, esp
	push	-1
	push	__ehhandler$??1?$map@TShaderEnvKey@Ogre@@PAVD3DTech@2@U?$less@TShaderEnvKey@Ogre@@@std@@V?$allocator@U?$pair@$$CBTShaderEnvKey@Ogre@@PAVD3DTech@2@@std@@@5@@std@@QAE@XZ
	mov	eax, DWORD PTR fs:0
	push	eax
	push	ecx
	mov	eax, DWORD PTR ___security_cookie
	xor	eax, ebp
	push	eax
	lea	eax, DWORD PTR __$EHRec$[ebp]
	mov	DWORD PTR fs:0, eax
	mov	DWORD PTR _this$[ebp], ecx
	mov	DWORD PTR __$EHRec$[ebp+8], 0
	mov	DWORD PTR __$EHRec$[ebp+8], -1
	mov	ecx, DWORD PTR _this$[ebp]
	call	??1?$_Tree@V?$_Tmap_traits@TShaderEnvKey@Ogre@@PAVD3DTech@2@U?$less@TShaderEnvKey@Ogre@@@std@@V?$allocator@U?$pair@$$CBTShaderEnvKey@Ogre@@PAVD3DTech@2@@std@@@5@$0A@@std@@@std@@QAE@XZ ; std::_Tree<std::_Tmap_traits<Ogre::ShaderEnvKey,Ogre::D3DTech *,std::less<Ogre::ShaderEnvKey>,std::allocator<std::pair<Ogre::ShaderEnvKey const ,Ogre::D3DTech *> >,0> >::~_Tree<std::_Tmap_traits<Ogre::ShaderEnvKey,Ogre::D3DTech *,std::less<Ogre::ShaderEnvKey>,std::allocator<std::pair<Ogre::ShaderEnvKey const ,Ogre::D3DTech *> >,0> >
	mov	ecx, DWORD PTR __$EHRec$[ebp]
	mov	DWORD PTR fs:0, ecx
	pop	ecx
	mov	esp, ebp
	pop	ebp
	ret	0
_TEXT	ENDS
;	COMDAT text$x
text$x	SEGMENT
__unwindfunclet$??1?$map@TShaderEnvKey@Ogre@@PAVD3DTech@2@U?$less@TShaderEnvKey@Ogre@@@std@@V?$allocator@U?$pair@$$CBTShaderEnvKey@Ogre@@PAVD3DTech@2@@std@@@5@@std@@QAE@XZ$0:
	mov	ecx, DWORD PTR _this$[ebp]
	jmp	??1?$_Tree@V?$_Tmap_traits@TShaderEnvKey@Ogre@@PAVD3DTech@2@U?$less@TShaderEnvKey@Ogre@@@std@@V?$allocator@U?$pair@$$CBTShaderEnvKey@Ogre@@PAVD3DTech@2@@std@@@5@$0A@@std@@@std@@QAE@XZ ; std::_Tree<std::_Tmap_traits<Ogre::ShaderEnvKey,Ogre::D3DTech *,std::less<Ogre::ShaderEnvKey>,std::allocator<std::pair<Ogre::ShaderEnvKey const ,Ogre::D3DTech *> >,0> >::~_Tree<std::_Tmap_traits<Ogre::ShaderEnvKey,Ogre::D3DTech *,std::less<Ogre::ShaderEnvKey>,std::allocator<std::pair<Ogre::ShaderEnvKey const ,Ogre::D3DTech *> >,0> >
__ehhandler$??1?$map@TShaderEnvKey@Ogre@@PAVD3DTech@2@U?$less@TShaderEnvKey@Ogre@@@std@@V?$allocator@U?$pair@$$CBTShaderEnvKey@Ogre@@PAVD3DTech@2@@std@@@5@@std@@QAE@XZ:
	mov	edx, DWORD PTR [esp+8]
	lea	eax, DWORD PTR [edx+12]
	mov	ecx, DWORD PTR [edx-8]
	xor	ecx, eax
	call	@__security_check_cookie@4
	mov	eax, OFFSET __ehfuncinfo$??1?$map@TShaderEnvKey@Ogre@@PAVD3DTech@2@U?$less@TShaderEnvKey@Ogre@@@std@@V?$allocator@U?$pair@$$CBTShaderEnvKey@Ogre@@PAVD3DTech@2@@std@@@5@@std@@QAE@XZ
	jmp	___CxxFrameHandler3
text$x	ENDS
??1?$map@TShaderEnvKey@Ogre@@PAVD3DTech@2@U?$less@TShaderEnvKey@Ogre@@@std@@V?$allocator@U?$pair@$$CBTShaderEnvKey@Ogre@@PAVD3DTech@2@@std@@@5@@std@@QAE@XZ ENDP ; std::map<Ogre::ShaderEnvKey,Ogre::D3DTech *,std::less<Ogre::ShaderEnvKey>,std::allocator<std::pair<Ogre::ShaderEnvKey const ,Ogre::D3DTech *> > >::~map<Ogre::ShaderEnvKey,Ogre::D3DTech *,std::less<Ogre::ShaderEnvKey>,std::allocator<std::pair<Ogre::ShaderEnvKey const ,Ogre::D3DTech *> > >
PUBLIC	??A?$map@VFixedString@Ogre@@PAVCompiledShaderGroup@2@U?$less@VFixedString@Ogre@@@std@@V?$allocator@U?$pair@$$CBVFixedString@Ogre@@PAVCompiledShaderGroup@2@@std@@@5@@std@@QAEAAPAVCompiledShaderGroup@Ogre@@ABVFixedString@3@@Z ; std::map<Ogre::FixedString,Ogre::CompiledShaderGroup *,std::less<Ogre::FixedString>,std::allocator<std::pair<Ogre::FixedString const ,Ogre::CompiledShaderGroup *> > >::operator[]
PUBLIC	?find@?$_Tree@V?$_Tmap_traits@VFixedString@Ogre@@PAVCompiledShaderGroup@2@U?$less@VFixedString@Ogre@@@std@@V?$allocator@U?$pair@$$CBVFixedString@Ogre@@PAVCompiledShaderGroup@2@@std@@@5@$0A@@std@@@std@@QAE?AViterator@12@ABVFixedString@Ogre@@@Z ; std::_Tree<std::_Tmap_traits<Ogre::FixedString,Ogre::CompiledShaderGroup *,std::less<Ogre::FixedString>,std::allocator<std::pair<Ogre::FixedString const ,Ogre::CompiledShaderGroup *> >,0> >::find
PUBLIC	__$ArrayPad$
PUBLIC	?getCompiledVSPS@D3DMaterialTemplate@Ogre@@QAEPAVCompiledShader@2@W4COMPILED_TYPE@2@PBDABUShaderEnvFlags@2@ABUMaterialMacro@2@@Z ; Ogre::D3DMaterialTemplate::getCompiledVSPS
EXTRN	?getCompiledShader@CompiledShaderGroup@Ogre@@QAEPAVCompiledShader@2@ABUShaderEnvFlags@2@ABUMaterialMacro@2@@Z:PROC ; Ogre::CompiledShaderGroup::getCompiledShader
EXTRN	??0CompiledShaderGroup@Ogre@@QAE@W4COMPILED_TYPE@1@PAVD3DMaterialTemplate@1@ABVFixedString@1@@Z:PROC ; Ogre::CompiledShaderGroup::CompiledShaderGroup
EXTRN	__imp_??0FixedString@Ogre@@QAE@PBD@Z:PROC
xdata$x	SEGMENT
__ehfuncinfo$?getCompiledVSPS@D3DMaterialTemplate@Ogre@@QAEPAVCompiledShader@2@W4COMPILED_TYPE@2@PBDABUShaderEnvFlags@2@ABUMaterialMacro@2@@Z DD 019930522H
	DD	05H
	DD	FLAT:__unwindtable$?getCompiledVSPS@D3DMaterialTemplate@Ogre@@QAEPAVCompiledShader@2@W4COMPILED_TYPE@2@PBDABUShaderEnvFlags@2@ABUMaterialMacro@2@@Z
	DD	2 DUP(00H)
	DD	2 DUP(00H)
	DD	00H
	DD	00H
__unwindtable$?getCompiledVSPS@D3DMaterialTemplate@Ogre@@QAEPAVCompiledShader@2@W4COMPILED_TYPE@2@PBDABUShaderEnvFlags@2@ABUMaterialMacro@2@@Z DD 0ffffffffH
	DD	FLAT:__unwindfunclet$?getCompiledVSPS@D3DMaterialTemplate@Ogre@@QAEPAVCompiledShader@2@W4COMPILED_TYPE@2@PBDABUShaderEnvFlags@2@ABUMaterialMacro@2@@Z$0
	DD	00H
	DD	FLAT:__unwindfunclet$?getCompiledVSPS@D3DMaterialTemplate@Ogre@@QAEPAVCompiledShader@2@W4COMPILED_TYPE@2@PBDABUShaderEnvFlags@2@ABUMaterialMacro@2@@Z$1
	DD	0ffffffffH
	DD	FLAT:__unwindfunclet$?getCompiledVSPS@D3DMaterialTemplate@Ogre@@QAEPAVCompiledShader@2@W4COMPILED_TYPE@2@PBDABUShaderEnvFlags@2@ABUMaterialMacro@2@@Z$1
	DD	0ffffffffH
	DD	FLAT:__unwindfunclet$?getCompiledVSPS@D3DMaterialTemplate@Ogre@@QAEPAVCompiledShader@2@W4COMPILED_TYPE@2@PBDABUShaderEnvFlags@2@ABUMaterialMacro@2@@Z$2
	DD	03H
	DD	FLAT:__unwindfunclet$?getCompiledVSPS@D3DMaterialTemplate@Ogre@@QAEPAVCompiledShader@2@W4COMPILED_TYPE@2@PBDABUShaderEnvFlags@2@ABUMaterialMacro@2@@Z$3
; Function compile flags: /Odtp
; File i:\svnroot\client\plugins\rendersystem_d3d9\ogred3dmaterialtemplate.cpp
xdata$x	ENDS
_TEXT	SEGMENT
tv191 = -604						; size = 4
tv131 = -600						; size = 4
tv93 = -596						; size = 4
_this$ = -592						; size = 4
$T159137 = -588						; size = 4
$T159135 = -584						; size = 4
$T159132 = -580						; size = 4
$T159131 = -576						; size = 4
$T159130 = -572						; size = 8
$T159125 = -564						; size = 4
$T159124 = -560						; size = 4
$T159123 = -556						; size = 4
_pgroup$146173 = -552					; size = 4
_path$146165 = -548					; size = 256
_pexten$146166 = -292					; size = 4
_pathstr$146172 = -288					; size = 4
_iter$146187 = -284					; size = 8
_path$146155 = -276					; size = 256
__$ArrayPad$ = -16					; size = 4
__$EHRec$ = -12						; size = 12
_type$ = 8						; size = 4
_name$ = 12						; size = 4
_env$ = 16						; size = 4
_macros$ = 20						; size = 4
?getCompiledVSPS@D3DMaterialTemplate@Ogre@@QAEPAVCompiledShader@2@W4COMPILED_TYPE@2@PBDABUShaderEnvFlags@2@ABUMaterialMacro@2@@Z PROC ; Ogre::D3DMaterialTemplate::getCompiledVSPS
; _this$ = ecx

; 72   : 	{

	push	ebp
	mov	ebp, esp
	push	-1
	push	__ehhandler$?getCompiledVSPS@D3DMaterialTemplate@Ogre@@QAEPAVCompiledShader@2@W4COMPILED_TYPE@2@PBDABUShaderEnvFlags@2@ABUMaterialMacro@2@@Z
	mov	eax, DWORD PTR fs:0
	push	eax
	sub	esp, 592				; 00000250H
	mov	eax, DWORD PTR ___security_cookie
	xor	eax, ebp
	mov	DWORD PTR __$ArrayPad$[ebp], eax
	push	eax
	lea	eax, DWORD PTR __$EHRec$[ebp]
	mov	DWORD PTR fs:0, eax
	mov	DWORD PTR _this$[ebp], ecx
	mov	DWORD PTR $T159137[ebp], 0

; 73   : 		if(type == COMPILED_EFFECT)

	cmp	DWORD PTR _type$[ebp], 0
	jne	$LN5@getCompile

; 74   : 		{
; 75   : 			if(m_pEffectGroup == NULL)

	mov	eax, DWORD PTR _this$[ebp]
	cmp	DWORD PTR [eax+64], 0
	jne	$LN4@getCompile

; 76   : 			{
; 77   : 				char path[256];
; 78   : 				sprintf(path, "%s%s.fx", OGRE_SHADER_PATH, (const char *)m_Name);

	mov	ecx, DWORD PTR _this$[ebp]
	add	ecx, 36					; 00000024H
	call	DWORD PTR __imp_??BFixedString@Ogre@@QBEPBDXZ
	push	eax
	push	OFFSET $SG146157
	push	OFFSET $SG146158
	lea	ecx, DWORD PTR _path$146155[ebp]
	push	ecx
	call	DWORD PTR __imp__sprintf
	add	esp, 16					; 00000010H

; 79   : 				m_pEffectGroup = new CompiledShaderGroup(COMPILED_EFFECT, this, path);

	push	72					; 00000048H
	call	??2@YAPAXI@Z				; operator new
	add	esp, 4
	mov	DWORD PTR $T159124[ebp], eax
	mov	DWORD PTR __$EHRec$[ebp+8], 0
	cmp	DWORD PTR $T159124[ebp], 0
	je	SHORT $LN8@getCompile
	lea	edx, DWORD PTR _path$146155[ebp]
	push	edx
	lea	ecx, DWORD PTR $T159125[ebp]
	call	DWORD PTR __imp_??0FixedString@Ogre@@QAE@PBD@Z
	mov	BYTE PTR __$EHRec$[ebp+8], 1
	mov	eax, DWORD PTR $T159137[ebp]
	or	eax, 1
	mov	DWORD PTR $T159137[ebp], eax
	lea	ecx, DWORD PTR $T159125[ebp]
	push	ecx
	mov	edx, DWORD PTR _this$[ebp]
	push	edx
	push	0
	mov	ecx, DWORD PTR $T159124[ebp]
	call	??0CompiledShaderGroup@Ogre@@QAE@W4COMPILED_TYPE@1@PAVD3DMaterialTemplate@1@ABVFixedString@1@@Z ; Ogre::CompiledShaderGroup::CompiledShaderGroup
	mov	DWORD PTR tv93[ebp], eax
	jmp	SHORT $LN9@getCompile
$LN8@getCompile:
	mov	DWORD PTR tv93[ebp], 0
$LN9@getCompile:
	mov	eax, DWORD PTR tv93[ebp]
	mov	DWORD PTR $T159123[ebp], eax
	mov	DWORD PTR __$EHRec$[ebp+8], 2
	mov	ecx, DWORD PTR _this$[ebp]
	mov	edx, DWORD PTR $T159123[ebp]
	mov	DWORD PTR [ecx+64], edx
	mov	DWORD PTR __$EHRec$[ebp+8], -1
	mov	eax, DWORD PTR $T159137[ebp]
	and	eax, 1
	je	SHORT $LN4@getCompile
	and	DWORD PTR $T159137[ebp], -2		; fffffffeH
	lea	ecx, DWORD PTR $T159125[ebp]
	call	DWORD PTR __imp_??1FixedString@Ogre@@QAE@XZ
$LN4@getCompile:

; 80   : 			}
; 81   : 			return m_pEffectGroup->getCompiledShader(env, macros);

	mov	ecx, DWORD PTR _macros$[ebp]
	push	ecx
	mov	edx, DWORD PTR _env$[ebp]
	push	edx
	mov	eax, DWORD PTR _this$[ebp]
	mov	ecx, DWORD PTR [eax+64]
	call	?getCompiledShader@CompiledShaderGroup@Ogre@@QAEPAVCompiledShader@2@ABUShaderEnvFlags@2@ABUMaterialMacro@2@@Z ; Ogre::CompiledShaderGroup::getCompiledShader
	jmp	$LN6@getCompile

; 82   : 		}
; 83   : 		else

	jmp	$LN6@getCompile
$LN5@getCompile:

; 84   : 		{
; 85   : 			char path[256];
; 86   : 			const char *pexten = type==COMPILED_VS?"vsh":"psh";

	cmp	DWORD PTR _type$[ebp], 1
	jne	SHORT $LN10@getCompile
	mov	DWORD PTR tv131[ebp], OFFSET $SG146167
	jmp	SHORT $LN11@getCompile
$LN10@getCompile:
	mov	DWORD PTR tv131[ebp], OFFSET $SG146168
$LN11@getCompile:
	mov	ecx, DWORD PTR tv131[ebp]
	mov	DWORD PTR _pexten$146166[ebp], ecx

; 87   : 			sprintf(path, "%s%s_%s.%s", OGRE_SHADER_PATH, (const char *)m_Name, name, pexten);

	mov	edx, DWORD PTR _pexten$146166[ebp]
	push	edx
	mov	eax, DWORD PTR _name$[ebp]
	push	eax
	mov	ecx, DWORD PTR _this$[ebp]
	add	ecx, 36					; 00000024H
	call	DWORD PTR __imp_??BFixedString@Ogre@@QBEPBDXZ
	push	eax
	push	OFFSET $SG146170
	push	OFFSET $SG146171
	lea	ecx, DWORD PTR _path$146165[ebp]
	push	ecx
	call	DWORD PTR __imp__sprintf
	add	esp, 24					; 00000018H

; 88   : 			FixedString pathstr(path);

	lea	edx, DWORD PTR _path$146165[ebp]
	push	edx
	lea	ecx, DWORD PTR _pathstr$146172[ebp]
	call	DWORD PTR __imp_??0FixedString@Ogre@@QAE@PBD@Z
	mov	DWORD PTR __$EHRec$[ebp+8], 3

; 89   : 
; 90   : 			CompiledShaderGroup *pgroup = NULL;

	mov	DWORD PTR _pgroup$146173[ebp], 0

; 91   : 			std::map<FixedString, CompiledShaderGroup *>::iterator iter = m_ShaderGroups.find(pathstr);

	lea	eax, DWORD PTR _pathstr$146172[ebp]
	push	eax
	lea	ecx, DWORD PTR _iter$146187[ebp]
	push	ecx
	mov	ecx, DWORD PTR _this$[ebp]
	add	ecx, 76					; 0000004cH
	call	?find@?$_Tree@V?$_Tmap_traits@VFixedString@Ogre@@PAVCompiledShaderGroup@2@U?$less@VFixedString@Ogre@@@std@@V?$allocator@U?$pair@$$CBVFixedString@Ogre@@PAVCompiledShaderGroup@2@@std@@@5@$0A@@std@@@std@@QAE?AViterator@12@ABVFixedString@Ogre@@@Z ; std::_Tree<std::_Tmap_traits<Ogre::FixedString,Ogre::CompiledShaderGroup *,std::less<Ogre::FixedString>,std::allocator<std::pair<Ogre::FixedString const ,Ogre::CompiledShaderGroup *> >,0> >::find

; 92   : 			if(iter != m_ShaderGroups.end())

	lea	edx, DWORD PTR $T159130[ebp]
	push	edx
	mov	ecx, DWORD PTR _this$[ebp]
	add	ecx, 76					; 0000004cH
	call	?end@?$_Tree@V?$_Tmap_traits@VFixedString@Ogre@@PAVCompiledShaderGroup@2@U?$less@VFixedString@Ogre@@@std@@V?$allocator@U?$pair@$$CBVFixedString@Ogre@@PAVCompiledShaderGroup@2@@std@@@5@$0A@@std@@@std@@QAE?AViterator@12@XZ ; std::_Tree<std::_Tmap_traits<Ogre::FixedString,Ogre::CompiledShaderGroup *,std::less<Ogre::FixedString>,std::allocator<std::pair<Ogre::FixedString const ,Ogre::CompiledShaderGroup *> >,0> >::end
	push	eax
	lea	ecx, DWORD PTR _iter$146187[ebp]
	call	??9const_iterator@?$_Tree@V?$_Tmap_traits@VFixedString@Ogre@@PAVCompiledShaderGroup@2@U?$less@VFixedString@Ogre@@@std@@V?$allocator@U?$pair@$$CBVFixedString@Ogre@@PAVCompiledShaderGroup@2@@std@@@5@$0A@@std@@@std@@QBE_NABV012@@Z ; std::_Tree<std::_Tmap_traits<Ogre::FixedString,Ogre::CompiledShaderGroup *,std::less<Ogre::FixedString>,std::allocator<std::pair<Ogre::FixedString const ,Ogre::CompiledShaderGroup *> >,0> >::const_iterator::operator!=
	movzx	eax, al
	test	eax, eax
	je	SHORT $LN2@getCompile

; 93   : 			{
; 94   : 				pgroup = iter->second;

	lea	ecx, DWORD PTR _iter$146187[ebp]
	call	??Citerator@?$_Tree@V?$_Tmap_traits@VFixedString@Ogre@@PAVCompiledShaderGroup@2@U?$less@VFixedString@Ogre@@@std@@V?$allocator@U?$pair@$$CBVFixedString@Ogre@@PAVCompiledShaderGroup@2@@std@@@5@$0A@@std@@@std@@QBEPAU?$pair@$$CBVFixedString@Ogre@@PAVCompiledShaderGroup@2@@2@XZ ; std::_Tree<std::_Tmap_traits<Ogre::FixedString,Ogre::CompiledShaderGroup *,std::less<Ogre::FixedString>,std::allocator<std::pair<Ogre::FixedString const ,Ogre::CompiledShaderGroup *> >,0> >::iterator::operator->
	mov	ecx, DWORD PTR [eax+4]
	mov	DWORD PTR _pgroup$146173[ebp], ecx

; 95   : 			}
; 96   : 			else

	jmp	$LN1@getCompile
$LN2@getCompile:

; 97   : 			{
; 98   : 				pgroup = new CompiledShaderGroup(type, this, pathstr);

	push	72					; 00000048H
	call	??2@YAPAXI@Z				; operator new
	add	esp, 4
	mov	DWORD PTR $T159132[ebp], eax
	mov	BYTE PTR __$EHRec$[ebp+8], 4
	cmp	DWORD PTR $T159132[ebp], 0
	je	SHORT $LN12@getCompile
	lea	edx, DWORD PTR _pathstr$146172[ebp]
	push	edx
	mov	eax, DWORD PTR _this$[ebp]
	push	eax
	mov	ecx, DWORD PTR _type$[ebp]
	push	ecx
	mov	ecx, DWORD PTR $T159132[ebp]
	call	??0CompiledShaderGroup@Ogre@@QAE@W4COMPILED_TYPE@1@PAVD3DMaterialTemplate@1@ABVFixedString@1@@Z ; Ogre::CompiledShaderGroup::CompiledShaderGroup
	mov	DWORD PTR tv191[ebp], eax
	jmp	SHORT $LN13@getCompile
$LN12@getCompile:
	mov	DWORD PTR tv191[ebp], 0
$LN13@getCompile:
	mov	edx, DWORD PTR tv191[ebp]
	mov	DWORD PTR $T159131[ebp], edx
	mov	BYTE PTR __$EHRec$[ebp+8], 3
	mov	eax, DWORD PTR $T159131[ebp]
	mov	DWORD PTR _pgroup$146173[ebp], eax

; 99   : 
; 100  : 				m_ShaderGroups[pathstr] = pgroup;

	lea	ecx, DWORD PTR _pathstr$146172[ebp]
	push	ecx
	mov	ecx, DWORD PTR _this$[ebp]
	add	ecx, 76					; 0000004cH
	call	??A?$map@VFixedString@Ogre@@PAVCompiledShaderGroup@2@U?$less@VFixedString@Ogre@@@std@@V?$allocator@U?$pair@$$CBVFixedString@Ogre@@PAVCompiledShaderGroup@2@@std@@@5@@std@@QAEAAPAVCompiledShaderGroup@Ogre@@ABVFixedString@3@@Z ; std::map<Ogre::FixedString,Ogre::CompiledShaderGroup *,std::less<Ogre::FixedString>,std::allocator<std::pair<Ogre::FixedString const ,Ogre::CompiledShaderGroup *> > >::operator[]
	mov	edx, DWORD PTR _pgroup$146173[ebp]
	mov	DWORD PTR [eax], edx
$LN1@getCompile:

; 101  : 			}
; 102  : 
; 103  : 			return pgroup->getCompiledShader(env, macros);

	mov	eax, DWORD PTR _macros$[ebp]
	push	eax
	mov	ecx, DWORD PTR _env$[ebp]
	push	ecx
	mov	ecx, DWORD PTR _pgroup$146173[ebp]
	call	?getCompiledShader@CompiledShaderGroup@Ogre@@QAEPAVCompiledShader@2@ABUShaderEnvFlags@2@ABUMaterialMacro@2@@Z ; Ogre::CompiledShaderGroup::getCompiledShader
	mov	DWORD PTR $T159135[ebp], eax
	mov	DWORD PTR __$EHRec$[ebp+8], -1
	lea	ecx, DWORD PTR _pathstr$146172[ebp]
	call	DWORD PTR __imp_??1FixedString@Ogre@@QAE@XZ
	mov	eax, DWORD PTR $T159135[ebp]
$LN6@getCompile:

; 104  : 		}
; 105  : 	}

	mov	ecx, DWORD PTR __$EHRec$[ebp]
	mov	DWORD PTR fs:0, ecx
	pop	ecx
	mov	ecx, DWORD PTR __$ArrayPad$[ebp]
	xor	ecx, ebp
	call	@__security_check_cookie@4
	mov	esp, ebp
	pop	ebp
	ret	16					; 00000010H
_TEXT	ENDS
text$x	SEGMENT
__unwindfunclet$?getCompiledVSPS@D3DMaterialTemplate@Ogre@@QAEPAVCompiledShader@2@W4COMPILED_TYPE@2@PBDABUShaderEnvFlags@2@ABUMaterialMacro@2@@Z$0:
	mov	eax, DWORD PTR $T159124[ebp]
	push	eax
	call	??3@YAXPAX@Z				; operator delete
	pop	ecx
	ret	0
__unwindfunclet$?getCompiledVSPS@D3DMaterialTemplate@Ogre@@QAEPAVCompiledShader@2@W4COMPILED_TYPE@2@PBDABUShaderEnvFlags@2@ABUMaterialMacro@2@@Z$1:
	mov	eax, DWORD PTR $T159137[ebp]
	and	eax, 1
	je	$LN16@getCompile
	and	DWORD PTR $T159137[ebp], -2		; fffffffeH
	lea	ecx, DWORD PTR $T159125[ebp]
	jmp	DWORD PTR __imp_??1FixedString@Ogre@@QAE@XZ
$LN16@getCompile:
	ret	0
__unwindfunclet$?getCompiledVSPS@D3DMaterialTemplate@Ogre@@QAEPAVCompiledShader@2@W4COMPILED_TYPE@2@PBDABUShaderEnvFlags@2@ABUMaterialMacro@2@@Z$2:
	lea	ecx, DWORD PTR _pathstr$146172[ebp]
	jmp	DWORD PTR __imp_??1FixedString@Ogre@@QAE@XZ
__unwindfunclet$?getCompiledVSPS@D3DMaterialTemplate@Ogre@@QAEPAVCompiledShader@2@W4COMPILED_TYPE@2@PBDABUShaderEnvFlags@2@ABUMaterialMacro@2@@Z$3:
	mov	eax, DWORD PTR $T159132[ebp]
	push	eax
	call	??3@YAXPAX@Z				; operator delete
	pop	ecx
	ret	0
__ehhandler$?getCompiledVSPS@D3DMaterialTemplate@Ogre@@QAEPAVCompiledShader@2@W4COMPILED_TYPE@2@PBDABUShaderEnvFlags@2@ABUMaterialMacro@2@@Z:
	mov	edx, DWORD PTR [esp+8]
	lea	eax, DWORD PTR [edx+12]
	mov	ecx, DWORD PTR [edx-596]
	xor	ecx, eax
	call	@__security_check_cookie@4
	mov	ecx, DWORD PTR [edx-4]
	xor	ecx, eax
	call	@__security_check_cookie@4
	mov	eax, OFFSET __ehfuncinfo$?getCompiledVSPS@D3DMaterialTemplate@Ogre@@QAEPAVCompiledShader@2@W4COMPILED_TYPE@2@PBDABUShaderEnvFlags@2@ABUMaterialMacro@2@@Z
	jmp	___CxxFrameHandler3
text$x	ENDS
?getCompiledVSPS@D3DMaterialTemplate@Ogre@@QAEPAVCompiledShader@2@W4COMPILED_TYPE@2@PBDABUShaderEnvFlags@2@ABUMaterialMacro@2@@Z ENDP ; Ogre::D3DMaterialTemplate::getCompiledVSPS
PUBLIC	??A?$map@TShaderEnvKey2@Ogre@@PAVD3DShaderTechnique@2@U?$less@TShaderEnvKey2@Ogre@@@std@@V?$allocator@U?$pair@$$CBTShaderEnvKey2@Ogre@@PAVD3DShaderTechnique@2@@std@@@5@@std@@QAEAAPAVD3DShaderTechnique@Ogre@@ABTShaderEnvKey2@3@@Z ; std::map<Ogre::ShaderEnvKey2,Ogre::D3DShaderTechnique *,std::less<Ogre::ShaderEnvKey2>,std::allocator<std::pair<Ogre::ShaderEnvKey2 const ,Ogre::D3DShaderTechnique *> > >::operator[]
PUBLIC	?find@?$_Tree@V?$_Tmap_traits@TShaderEnvKey2@Ogre@@PAVD3DShaderTechnique@2@U?$less@TShaderEnvKey2@Ogre@@@std@@V?$allocator@U?$pair@$$CBTShaderEnvKey2@Ogre@@PAVD3DShaderTechnique@2@@std@@@5@$0A@@std@@@std@@QAE?AViterator@12@ABTShaderEnvKey2@Ogre@@@Z ; std::_Tree<std::_Tmap_traits<Ogre::ShaderEnvKey2,Ogre::D3DShaderTechnique *,std::less<Ogre::ShaderEnvKey2>,std::allocator<std::pair<Ogre::ShaderEnvKey2 const ,Ogre::D3DShaderTechnique *> >,0> >::find
PUBLIC	??0ShaderEnvKey2@Ogre@@QAE@XZ			; Ogre::ShaderEnvKey2::ShaderEnvKey2
PUBLIC	?getShaderTechnique_old@D3DMaterialTemplate@Ogre@@QAEPAVShaderTechnique@2@ABUShaderEnvFlags@2@ABUMaterialMacro@2@IW4RenderUsage@2@@Z ; Ogre::D3DMaterialTemplate::getShaderTechnique_old
EXTRN	??0D3DShaderTechnique@Ogre@@QAE@PAVD3DMaterialTemplate@1@ABUShaderEnvFlags@1@ABUMaterialMacro@1@IW4RenderUsage@1@@Z:PROC ; Ogre::D3DShaderTechnique::D3DShaderTechnique
EXTRN	__imp_??1LockFunctor@Ogre@@QAE@XZ:PROC
EXTRN	__imp_??0LockFunctor@Ogre@@QAE@PAVLockSection@1@@Z:PROC
xdata$x	SEGMENT
__unwindtable$?getShaderTechnique_old@D3DMaterialTemplate@Ogre@@QAEPAVShaderTechnique@2@ABUShaderEnvFlags@2@ABUMaterialMacro@2@IW4RenderUsage@2@@Z DD 0ffffffffH
	DD	FLAT:__unwindfunclet$?getShaderTechnique_old@D3DMaterialTemplate@Ogre@@QAEPAVShaderTechnique@2@ABUShaderEnvFlags@2@ABUMaterialMacro@2@IW4RenderUsage@2@@Z$0
	DD	00H
	DD	FLAT:__unwindfunclet$?getShaderTechnique_old@D3DMaterialTemplate@Ogre@@QAEPAVShaderTechnique@2@ABUShaderEnvFlags@2@ABUMaterialMacro@2@IW4RenderUsage@2@@Z$1
__ehfuncinfo$?getShaderTechnique_old@D3DMaterialTemplate@Ogre@@QAEPAVShaderTechnique@2@ABUShaderEnvFlags@2@ABUMaterialMacro@2@IW4RenderUsage@2@@Z DD 019930522H
	DD	02H
	DD	FLAT:__unwindtable$?getShaderTechnique_old@D3DMaterialTemplate@Ogre@@QAEPAVShaderTechnique@2@ABUShaderEnvFlags@2@ABUMaterialMacro@2@IW4RenderUsage@2@@Z
	DD	2 DUP(00H)
	DD	2 DUP(00H)
	DD	00H
	DD	00H
; Function compile flags: /Odtp
xdata$x	ENDS
_TEXT	SEGMENT
tv155 = -84						; size = 4
_this$ = -80						; size = 4
$T159154 = -76						; size = 4
$T159151 = -72						; size = 4
$T159150 = -68						; size = 4
$T159149 = -64						; size = 4
$T159148 = -60						; size = 8
_lockfunc$ = -52					; size = 4
_ptech$ = -48						; size = 4
_key$ = -44						; size = 24
_iter$ = -20						; size = 8
__$EHRec$ = -12						; size = 12
_env$ = 8						; size = 4
_macros$ = 12						; size = 4
_lod$ = 16						; size = 4
_usage$ = 20						; size = 4
?getShaderTechnique_old@D3DMaterialTemplate@Ogre@@QAEPAVShaderTechnique@2@ABUShaderEnvFlags@2@ABUMaterialMacro@2@IW4RenderUsage@2@@Z PROC ; Ogre::D3DMaterialTemplate::getShaderTechnique_old
; _this$ = ecx

; 108  : 	{

	push	ebp
	mov	ebp, esp
	push	-1
	push	__ehhandler$?getShaderTechnique_old@D3DMaterialTemplate@Ogre@@QAEPAVShaderTechnique@2@ABUShaderEnvFlags@2@ABUMaterialMacro@2@IW4RenderUsage@2@@Z
	mov	eax, DWORD PTR fs:0
	push	eax
	sub	esp, 72					; 00000048H
	mov	eax, DWORD PTR ___security_cookie
	xor	eax, ebp
	push	eax
	lea	eax, DWORD PTR __$EHRec$[ebp]
	mov	DWORD PTR fs:0, eax
	mov	DWORD PTR _this$[ebp], ecx

; 109  : 		ShaderEnvKey2 key;

	lea	ecx, DWORD PTR _key$[ebp]
	call	??0ShaderEnvKey2@Ogre@@QAE@XZ		; Ogre::ShaderEnvKey2::ShaderEnvKey2

; 110  : 		key.env = env;

	mov	eax, DWORD PTR _env$[ebp]
	mov	ecx, DWORD PTR [eax]
	mov	edx, DWORD PTR [eax+4]
	mov	DWORD PTR _key$[ebp], ecx
	mov	DWORD PTR _key$[ebp+4], edx

; 111  : 		key.macros = macros;

	mov	eax, DWORD PTR _macros$[ebp]
	mov	ecx, DWORD PTR [eax]
	mov	edx, DWORD PTR [eax+4]
	mov	DWORD PTR _key$[ebp+8], ecx
	mov	DWORD PTR _key$[ebp+12], edx

; 112  : 		key.tmp = (usage<<16)|lod;

	mov	eax, DWORD PTR _usage$[ebp]
	shl	eax, 16					; 00000010H
	or	eax, DWORD PTR _lod$[ebp]
	xor	ecx, ecx
	mov	DWORD PTR _key$[ebp+16], eax
	mov	DWORD PTR _key$[ebp+20], ecx

; 113  : 
; 114  : 		LockFunctor lockfunc(&m_TechMapLock);

	mov	edx, DWORD PTR _this$[ebp]
	add	edx, 72					; 00000048H
	push	edx
	lea	ecx, DWORD PTR _lockfunc$[ebp]
	call	DWORD PTR __imp_??0LockFunctor@Ogre@@QAE@PAVLockSection@1@@Z
	mov	DWORD PTR __$EHRec$[ebp+8], 0

; 115  : 		std::map<ShaderEnvKey2, D3DShaderTechnique *>::iterator iter = m_Techniques.find(key);

	lea	eax, DWORD PTR _key$[ebp]
	push	eax
	lea	ecx, DWORD PTR _iter$[ebp]
	push	ecx
	mov	ecx, DWORD PTR _this$[ebp]
	add	ecx, 108				; 0000006cH
	call	?find@?$_Tree@V?$_Tmap_traits@TShaderEnvKey2@Ogre@@PAVD3DShaderTechnique@2@U?$less@TShaderEnvKey2@Ogre@@@std@@V?$allocator@U?$pair@$$CBTShaderEnvKey2@Ogre@@PAVD3DShaderTechnique@2@@std@@@5@$0A@@std@@@std@@QAE?AViterator@12@ABTShaderEnvKey2@Ogre@@@Z ; std::_Tree<std::_Tmap_traits<Ogre::ShaderEnvKey2,Ogre::D3DShaderTechnique *,std::less<Ogre::ShaderEnvKey2>,std::allocator<std::pair<Ogre::ShaderEnvKey2 const ,Ogre::D3DShaderTechnique *> >,0> >::find

; 116  : 		if(iter != m_Techniques.end())

	lea	edx, DWORD PTR $T159148[ebp]
	push	edx
	mov	ecx, DWORD PTR _this$[ebp]
	add	ecx, 108				; 0000006cH
	call	?end@?$_Tree@V?$_Tmap_traits@TShaderEnvKey2@Ogre@@PAVD3DShaderTechnique@2@U?$less@TShaderEnvKey2@Ogre@@@std@@V?$allocator@U?$pair@$$CBTShaderEnvKey2@Ogre@@PAVD3DShaderTechnique@2@@std@@@5@$0A@@std@@@std@@QAE?AViterator@12@XZ ; std::_Tree<std::_Tmap_traits<Ogre::ShaderEnvKey2,Ogre::D3DShaderTechnique *,std::less<Ogre::ShaderEnvKey2>,std::allocator<std::pair<Ogre::ShaderEnvKey2 const ,Ogre::D3DShaderTechnique *> >,0> >::end
	push	eax
	lea	ecx, DWORD PTR _iter$[ebp]
	call	??9const_iterator@?$_Tree@V?$_Tmap_traits@TShaderEnvKey2@Ogre@@PAVD3DShaderTechnique@2@U?$less@TShaderEnvKey2@Ogre@@@std@@V?$allocator@U?$pair@$$CBTShaderEnvKey2@Ogre@@PAVD3DShaderTechnique@2@@std@@@5@$0A@@std@@@std@@QBE_NABV012@@Z ; std::_Tree<std::_Tmap_traits<Ogre::ShaderEnvKey2,Ogre::D3DShaderTechnique *,std::less<Ogre::ShaderEnvKey2>,std::allocator<std::pair<Ogre::ShaderEnvKey2 const ,Ogre::D3DShaderTechnique *> >,0> >::const_iterator::operator!=
	movzx	eax, al
	test	eax, eax
	je	SHORT $LN1@getShaderT

; 117  : 		{
; 118  : 			return iter->second;

	lea	ecx, DWORD PTR _iter$[ebp]
	call	??Citerator@?$_Tree@V?$_Tmap_traits@TShaderEnvKey2@Ogre@@PAVD3DShaderTechnique@2@U?$less@TShaderEnvKey2@Ogre@@@std@@V?$allocator@U?$pair@$$CBTShaderEnvKey2@Ogre@@PAVD3DShaderTechnique@2@@std@@@5@$0A@@std@@@std@@QBEPAU?$pair@$$CBTShaderEnvKey2@Ogre@@PAVD3DShaderTechnique@2@@2@XZ ; std::_Tree<std::_Tmap_traits<Ogre::ShaderEnvKey2,Ogre::D3DShaderTechnique *,std::less<Ogre::ShaderEnvKey2>,std::allocator<std::pair<Ogre::ShaderEnvKey2 const ,Ogre::D3DShaderTechnique *> >,0> >::iterator::operator->
	mov	ecx, DWORD PTR [eax+24]
	mov	DWORD PTR $T159149[ebp], ecx
	mov	DWORD PTR __$EHRec$[ebp+8], -1
	lea	ecx, DWORD PTR _lockfunc$[ebp]
	call	DWORD PTR __imp_??1LockFunctor@Ogre@@QAE@XZ
	mov	eax, DWORD PTR $T159149[ebp]
	jmp	SHORT $LN2@getShaderT
$LN1@getShaderT:

; 119  : 		}
; 120  : 
; 121  : 		D3DShaderTechnique *ptech = new D3DShaderTechnique(this, env, macros, lod, usage);

	push	256					; 00000100H
	call	??2@YAPAXI@Z				; operator new
	add	esp, 4
	mov	DWORD PTR $T159151[ebp], eax
	mov	BYTE PTR __$EHRec$[ebp+8], 1
	cmp	DWORD PTR $T159151[ebp], 0
	je	SHORT $LN4@getShaderT
	mov	edx, DWORD PTR _usage$[ebp]
	push	edx
	mov	eax, DWORD PTR _lod$[ebp]
	push	eax
	mov	ecx, DWORD PTR _macros$[ebp]
	push	ecx
	mov	edx, DWORD PTR _env$[ebp]
	push	edx
	mov	eax, DWORD PTR _this$[ebp]
	push	eax
	mov	ecx, DWORD PTR $T159151[ebp]
	call	??0D3DShaderTechnique@Ogre@@QAE@PAVD3DMaterialTemplate@1@ABUShaderEnvFlags@1@ABUMaterialMacro@1@IW4RenderUsage@1@@Z ; Ogre::D3DShaderTechnique::D3DShaderTechnique
	mov	DWORD PTR tv155[ebp], eax
	jmp	SHORT $LN5@getShaderT
$LN4@getShaderT:
	mov	DWORD PTR tv155[ebp], 0
$LN5@getShaderT:
	mov	ecx, DWORD PTR tv155[ebp]
	mov	DWORD PTR $T159150[ebp], ecx
	mov	BYTE PTR __$EHRec$[ebp+8], 0
	mov	edx, DWORD PTR $T159150[ebp]
	mov	DWORD PTR _ptech$[ebp], edx

; 122  : 		m_Techniques[key] = ptech;

	lea	eax, DWORD PTR _key$[ebp]
	push	eax
	mov	ecx, DWORD PTR _this$[ebp]
	add	ecx, 108				; 0000006cH
	call	??A?$map@TShaderEnvKey2@Ogre@@PAVD3DShaderTechnique@2@U?$less@TShaderEnvKey2@Ogre@@@std@@V?$allocator@U?$pair@$$CBTShaderEnvKey2@Ogre@@PAVD3DShaderTechnique@2@@std@@@5@@std@@QAEAAPAVD3DShaderTechnique@Ogre@@ABTShaderEnvKey2@3@@Z ; std::map<Ogre::ShaderEnvKey2,Ogre::D3DShaderTechnique *,std::less<Ogre::ShaderEnvKey2>,std::allocator<std::pair<Ogre::ShaderEnvKey2 const ,Ogre::D3DShaderTechnique *> > >::operator[]
	mov	ecx, DWORD PTR _ptech$[ebp]
	mov	DWORD PTR [eax], ecx

; 123  : 		return ptech;

	mov	edx, DWORD PTR _ptech$[ebp]
	mov	DWORD PTR $T159154[ebp], edx
	mov	DWORD PTR __$EHRec$[ebp+8], -1
	lea	ecx, DWORD PTR _lockfunc$[ebp]
	call	DWORD PTR __imp_??1LockFunctor@Ogre@@QAE@XZ
	mov	eax, DWORD PTR $T159154[ebp]
$LN2@getShaderT:

; 124  : 	}

	mov	ecx, DWORD PTR __$EHRec$[ebp]
	mov	DWORD PTR fs:0, ecx
	pop	ecx
	mov	esp, ebp
	pop	ebp
	ret	16					; 00000010H
_TEXT	ENDS
text$x	SEGMENT
__unwindfunclet$?getShaderTechnique_old@D3DMaterialTemplate@Ogre@@QAEPAVShaderTechnique@2@ABUShaderEnvFlags@2@ABUMaterialMacro@2@IW4RenderUsage@2@@Z$0:
	lea	ecx, DWORD PTR _lockfunc$[ebp]
	jmp	DWORD PTR __imp_??1LockFunctor@Ogre@@QAE@XZ
__unwindfunclet$?getShaderTechnique_old@D3DMaterialTemplate@Ogre@@QAEPAVShaderTechnique@2@ABUShaderEnvFlags@2@ABUMaterialMacro@2@IW4RenderUsage@2@@Z$1:
	mov	eax, DWORD PTR $T159151[ebp]
	push	eax
	call	??3@YAXPAX@Z				; operator delete
	pop	ecx
	ret	0
__ehhandler$?getShaderTechnique_old@D3DMaterialTemplate@Ogre@@QAEPAVShaderTechnique@2@ABUShaderEnvFlags@2@ABUMaterialMacro@2@IW4RenderUsage@2@@Z:
	mov	edx, DWORD PTR [esp+8]
	lea	eax, DWORD PTR [edx+12]
	mov	ecx, DWORD PTR [edx-76]
	xor	ecx, eax
	call	@__security_check_cookie@4
	mov	eax, OFFSET __ehfuncinfo$?getShaderTechnique_old@D3DMaterialTemplate@Ogre@@QAEPAVShaderTechnique@2@ABUShaderEnvFlags@2@ABUMaterialMacro@2@IW4RenderUsage@2@@Z
	jmp	___CxxFrameHandler3
text$x	ENDS
?getShaderTechnique_old@D3DMaterialTemplate@Ogre@@QAEPAVShaderTechnique@2@ABUShaderEnvFlags@2@ABUMaterialMacro@2@IW4RenderUsage@2@@Z ENDP ; Ogre::D3DMaterialTemplate::getShaderTechnique_old
; Function compile flags: /Odtp
; File i:\svnroot\client\plugins\rendersystem_d3d9\ogred3dmaterialtemplate.h
;	COMDAT ??0ShaderEnvKey2@Ogre@@QAE@XZ
_TEXT	SEGMENT
_this$ = -4						; size = 4
??0ShaderEnvKey2@Ogre@@QAE@XZ PROC			; Ogre::ShaderEnvKey2::ShaderEnvKey2, COMDAT
; _this$ = ecx

; 52   : 		ShaderEnvKey2()

	push	ebp
	mov	ebp, esp
	push	ecx
	mov	DWORD PTR _this$[ebp], ecx

; 53   : 		{
; 54   : 			keydata[0] = keydata[1] = keydata[2] = 0;

	mov	eax, DWORD PTR _this$[ebp]
	mov	DWORD PTR [eax+16], 0
	mov	DWORD PTR [eax+20], 0
	mov	ecx, DWORD PTR _this$[ebp]
	mov	DWORD PTR [ecx+8], 0
	mov	DWORD PTR [ecx+12], 0
	mov	edx, DWORD PTR _this$[ebp]
	mov	DWORD PTR [edx], 0
	mov	DWORD PTR [edx+4], 0

; 55   : 		}

	mov	eax, DWORD PTR _this$[ebp]
	mov	esp, ebp
	pop	ebp
	ret	0
??0ShaderEnvKey2@Ogre@@QAE@XZ ENDP			; Ogre::ShaderEnvKey2::ShaderEnvKey2
_TEXT	ENDS
PUBLIC	?getRequiredParams_old@D3DMaterialTemplate@Ogre@@QAEIPAW4ShaderParamUsage@2@IABUShaderEnvFlags@2@ABUMaterialMacro@2@IW4RenderUsage@2@@Z ; Ogre::D3DMaterialTemplate::getRequiredParams_old
xdata$x	SEGMENT
__unwindtable$?getRequiredParams_old@D3DMaterialTemplate@Ogre@@QAEIPAW4ShaderParamUsage@2@IABUShaderEnvFlags@2@ABUMaterialMacro@2@IW4RenderUsage@2@@Z DD 0ffffffffH
	DD	FLAT:__unwindfunclet$?getRequiredParams_old@D3DMaterialTemplate@Ogre@@QAEIPAW4ShaderParamUsage@2@IABUShaderEnvFlags@2@ABUMaterialMacro@2@IW4RenderUsage@2@@Z$0
__ehfuncinfo$?getRequiredParams_old@D3DMaterialTemplate@Ogre@@QAEIPAW4ShaderParamUsage@2@IABUShaderEnvFlags@2@ABUMaterialMacro@2@IW4RenderUsage@2@@Z DD 019930522H
	DD	01H
	DD	FLAT:__unwindtable$?getRequiredParams_old@D3DMaterialTemplate@Ogre@@QAEIPAW4ShaderParamUsage@2@IABUShaderEnvFlags@2@ABUMaterialMacro@2@IW4RenderUsage@2@@Z
	DD	2 DUP(00H)
	DD	2 DUP(00H)
	DD	00H
	DD	00H
; Function compile flags: /Odtp
; File i:\svnroot\client\plugins\rendersystem_d3d9\ogred3dmaterialtemplate.cpp
xdata$x	ENDS
_TEXT	SEGMENT
tv145 = -80						; size = 4
_this$ = -76						; size = 4
$T159166 = -72						; size = 4
$T159165 = -68						; size = 4
$T159164 = -64						; size = 8
_i$146261 = -56						; size = 4
_count$146260 = -52					; size = 4
_lockfunc$ = -48					; size = 4
_key$ = -44						; size = 24
_iter$ = -20						; size = 8
__$EHRec$ = -12						; size = 12
_pbuf$ = 8						; size = 4
_maxbuf$ = 12						; size = 4
_env$ = 16						; size = 4
_macros$ = 20						; size = 4
_lod$ = 24						; size = 4
_usage$ = 28						; size = 4
?getRequiredParams_old@D3DMaterialTemplate@Ogre@@QAEIPAW4ShaderParamUsage@2@IABUShaderEnvFlags@2@ABUMaterialMacro@2@IW4RenderUsage@2@@Z PROC ; Ogre::D3DMaterialTemplate::getRequiredParams_old
; _this$ = ecx

; 127  : 	{

	push	ebp
	mov	ebp, esp
	push	-1
	push	__ehhandler$?getRequiredParams_old@D3DMaterialTemplate@Ogre@@QAEIPAW4ShaderParamUsage@2@IABUShaderEnvFlags@2@ABUMaterialMacro@2@IW4RenderUsage@2@@Z
	mov	eax, DWORD PTR fs:0
	push	eax
	sub	esp, 68					; 00000044H
	mov	eax, DWORD PTR ___security_cookie
	xor	eax, ebp
	push	eax
	lea	eax, DWORD PTR __$EHRec$[ebp]
	mov	DWORD PTR fs:0, eax
	mov	DWORD PTR _this$[ebp], ecx

; 128  : 		ShaderEnvKey2 key;

	lea	ecx, DWORD PTR _key$[ebp]
	call	??0ShaderEnvKey2@Ogre@@QAE@XZ		; Ogre::ShaderEnvKey2::ShaderEnvKey2

; 129  : 		key.env = env;

	mov	eax, DWORD PTR _env$[ebp]
	mov	ecx, DWORD PTR [eax]
	mov	edx, DWORD PTR [eax+4]
	mov	DWORD PTR _key$[ebp], ecx
	mov	DWORD PTR _key$[ebp+4], edx

; 130  : 		key.macros = macros;

	mov	eax, DWORD PTR _macros$[ebp]
	mov	ecx, DWORD PTR [eax]
	mov	edx, DWORD PTR [eax+4]
	mov	DWORD PTR _key$[ebp+8], ecx
	mov	DWORD PTR _key$[ebp+12], edx

; 131  : 		key.tmp = (usage<<16)|lod;

	mov	eax, DWORD PTR _usage$[ebp]
	shl	eax, 16					; 00000010H
	or	eax, DWORD PTR _lod$[ebp]
	xor	ecx, ecx
	mov	DWORD PTR _key$[ebp+16], eax
	mov	DWORD PTR _key$[ebp+20], ecx

; 132  : 
; 133  : 		LockFunctor lockfunc(&m_TechMapLock);

	mov	edx, DWORD PTR _this$[ebp]
	add	edx, 72					; 00000048H
	push	edx
	lea	ecx, DWORD PTR _lockfunc$[ebp]
	call	DWORD PTR __imp_??0LockFunctor@Ogre@@QAE@PAVLockSection@1@@Z
	mov	DWORD PTR __$EHRec$[ebp+8], 0

; 134  : 		std::map<ShaderEnvKey2, D3DShaderTechnique *>::iterator iter = m_Techniques.find(key);

	lea	eax, DWORD PTR _key$[ebp]
	push	eax
	lea	ecx, DWORD PTR _iter$[ebp]
	push	ecx
	mov	ecx, DWORD PTR _this$[ebp]
	add	ecx, 108				; 0000006cH
	call	?find@?$_Tree@V?$_Tmap_traits@TShaderEnvKey2@Ogre@@PAVD3DShaderTechnique@2@U?$less@TShaderEnvKey2@Ogre@@@std@@V?$allocator@U?$pair@$$CBTShaderEnvKey2@Ogre@@PAVD3DShaderTechnique@2@@std@@@5@$0A@@std@@@std@@QAE?AViterator@12@ABTShaderEnvKey2@Ogre@@@Z ; std::_Tree<std::_Tmap_traits<Ogre::ShaderEnvKey2,Ogre::D3DShaderTechnique *,std::less<Ogre::ShaderEnvKey2>,std::allocator<std::pair<Ogre::ShaderEnvKey2 const ,Ogre::D3DShaderTechnique *> >,0> >::find

; 135  : 		if(iter != m_Techniques.end())

	lea	edx, DWORD PTR $T159164[ebp]
	push	edx
	mov	ecx, DWORD PTR _this$[ebp]
	add	ecx, 108				; 0000006cH
	call	?end@?$_Tree@V?$_Tmap_traits@TShaderEnvKey2@Ogre@@PAVD3DShaderTechnique@2@U?$less@TShaderEnvKey2@Ogre@@@std@@V?$allocator@U?$pair@$$CBTShaderEnvKey2@Ogre@@PAVD3DShaderTechnique@2@@std@@@5@$0A@@std@@@std@@QAE?AViterator@12@XZ ; std::_Tree<std::_Tmap_traits<Ogre::ShaderEnvKey2,Ogre::D3DShaderTechnique *,std::less<Ogre::ShaderEnvKey2>,std::allocator<std::pair<Ogre::ShaderEnvKey2 const ,Ogre::D3DShaderTechnique *> >,0> >::end
	push	eax
	lea	ecx, DWORD PTR _iter$[ebp]
	call	??9const_iterator@?$_Tree@V?$_Tmap_traits@TShaderEnvKey2@Ogre@@PAVD3DShaderTechnique@2@U?$less@TShaderEnvKey2@Ogre@@@std@@V?$allocator@U?$pair@$$CBTShaderEnvKey2@Ogre@@PAVD3DShaderTechnique@2@@std@@@5@$0A@@std@@@std@@QBE_NABV012@@Z ; std::_Tree<std::_Tmap_traits<Ogre::ShaderEnvKey2,Ogre::D3DShaderTechnique *,std::less<Ogre::ShaderEnvKey2>,std::allocator<std::pair<Ogre::ShaderEnvKey2 const ,Ogre::D3DShaderTechnique *> >,0> >::const_iterator::operator!=
	movzx	eax, al
	test	eax, eax
	je	SHORT $LN5@getRequire

; 136  : 		{
; 137  : 			return iter->second->getRequiredParams(pbuf, maxbuf);

	lea	ecx, DWORD PTR _iter$[ebp]
	call	??Citerator@?$_Tree@V?$_Tmap_traits@TShaderEnvKey2@Ogre@@PAVD3DShaderTechnique@2@U?$less@TShaderEnvKey2@Ogre@@@std@@V?$allocator@U?$pair@$$CBTShaderEnvKey2@Ogre@@PAVD3DShaderTechnique@2@@std@@@5@$0A@@std@@@std@@QBEPAU?$pair@$$CBTShaderEnvKey2@Ogre@@PAVD3DShaderTechnique@2@@2@XZ ; std::_Tree<std::_Tmap_traits<Ogre::ShaderEnvKey2,Ogre::D3DShaderTechnique *,std::less<Ogre::ShaderEnvKey2>,std::allocator<std::pair<Ogre::ShaderEnvKey2 const ,Ogre::D3DShaderTechnique *> >,0> >::iterator::operator->
	mov	ecx, DWORD PTR [eax+24]
	mov	DWORD PTR tv145[ebp], ecx
	mov	edx, DWORD PTR _maxbuf$[ebp]
	push	edx
	mov	eax, DWORD PTR _pbuf$[ebp]
	push	eax
	mov	ecx, DWORD PTR tv145[ebp]
	mov	edx, DWORD PTR [ecx]
	mov	ecx, DWORD PTR tv145[ebp]
	mov	eax, DWORD PTR [edx+56]
	call	eax
	mov	DWORD PTR $T159165[ebp], eax
	mov	DWORD PTR __$EHRec$[ebp+8], -1
	lea	ecx, DWORD PTR _lockfunc$[ebp]
	call	DWORD PTR __imp_??1LockFunctor@Ogre@@QAE@XZ
	mov	eax, DWORD PTR $T159165[ebp]
	jmp	SHORT $LN6@getRequire

; 138  : 		}
; 139  : 		else

	jmp	SHORT $LN4@getRequire
$LN5@getRequire:

; 140  : 		{
; 141  : 			size_t count = 0;

	mov	DWORD PTR _count$146260[ebp], 0

; 142  : 			for(int i=SPU_INSTANCE_PARAM; i<SPU_ENV_PARAM_END; i++)

	mov	DWORD PTR _i$146261[ebp], 0
	jmp	SHORT $LN3@getRequire
$LN2@getRequire:
	mov	ecx, DWORD PTR _i$146261[ebp]
	add	ecx, 1
	mov	DWORD PTR _i$146261[ebp], ecx
$LN3@getRequire:
	cmp	DWORD PTR _i$146261[ebp], 48		; 00000030H
	jge	SHORT $LN1@getRequire

; 143  : 			{
; 144  : 				pbuf[count++] = (ShaderParamUsage)i;

	mov	edx, DWORD PTR _count$146260[ebp]
	mov	eax, DWORD PTR _pbuf$[ebp]
	mov	ecx, DWORD PTR _i$146261[ebp]
	mov	DWORD PTR [eax+edx*4], ecx
	mov	edx, DWORD PTR _count$146260[ebp]
	add	edx, 1
	mov	DWORD PTR _count$146260[ebp], edx

; 145  : 			}

	jmp	SHORT $LN2@getRequire
$LN1@getRequire:

; 146  : 
; 147  : 			assert(count < maxbuf);
; 148  : 			return count;

	mov	eax, DWORD PTR _count$146260[ebp]
	mov	DWORD PTR $T159166[ebp], eax
	mov	DWORD PTR __$EHRec$[ebp+8], -1
	lea	ecx, DWORD PTR _lockfunc$[ebp]
	call	DWORD PTR __imp_??1LockFunctor@Ogre@@QAE@XZ
	mov	eax, DWORD PTR $T159166[ebp]
	jmp	SHORT $LN6@getRequire
$LN4@getRequire:

; 149  : 		}
; 150  : 	}

	mov	DWORD PTR __$EHRec$[ebp+8], -1
	lea	ecx, DWORD PTR _lockfunc$[ebp]
	call	DWORD PTR __imp_??1LockFunctor@Ogre@@QAE@XZ
$LN6@getRequire:
	mov	ecx, DWORD PTR __$EHRec$[ebp]
	mov	DWORD PTR fs:0, ecx
	pop	ecx
	mov	esp, ebp
	pop	ebp
	ret	24					; 00000018H
_TEXT	ENDS
text$x	SEGMENT
__unwindfunclet$?getRequiredParams_old@D3DMaterialTemplate@Ogre@@QAEIPAW4ShaderParamUsage@2@IABUShaderEnvFlags@2@ABUMaterialMacro@2@IW4RenderUsage@2@@Z$0:
	lea	ecx, DWORD PTR _lockfunc$[ebp]
	jmp	DWORD PTR __imp_??1LockFunctor@Ogre@@QAE@XZ
__ehhandler$?getRequiredParams_old@D3DMaterialTemplate@Ogre@@QAEIPAW4ShaderParamUsage@2@IABUShaderEnvFlags@2@ABUMaterialMacro@2@IW4RenderUsage@2@@Z:
	mov	edx, DWORD PTR [esp+8]
	lea	eax, DWORD PTR [edx+12]
	mov	ecx, DWORD PTR [edx-72]
	xor	ecx, eax
	call	@__security_check_cookie@4
	mov	eax, OFFSET __ehfuncinfo$?getRequiredParams_old@D3DMaterialTemplate@Ogre@@QAEIPAW4ShaderParamUsage@2@IABUShaderEnvFlags@2@ABUMaterialMacro@2@IW4RenderUsage@2@@Z
	jmp	___CxxFrameHandler3
text$x	ENDS
?getRequiredParams_old@D3DMaterialTemplate@Ogre@@QAEIPAW4ShaderParamUsage@2@IABUShaderEnvFlags@2@ABUMaterialMacro@2@IW4RenderUsage@2@@Z ENDP ; Ogre::D3DMaterialTemplate::getRequiredParams_old
PUBLIC	??A?$vector@PAUTechCache@D3DMaterialTemplate@Ogre@@V?$allocator@PAUTechCache@D3DMaterialTemplate@Ogre@@@std@@@std@@QAEAAPAUTechCache@D3DMaterialTemplate@Ogre@@I@Z ; std::vector<Ogre::D3DMaterialTemplate::TechCache *,std::allocator<Ogre::D3DMaterialTemplate::TechCache *> >::operator[]
PUBLIC	?size@?$vector@PAUTechCache@D3DMaterialTemplate@Ogre@@V?$allocator@PAUTechCache@D3DMaterialTemplate@Ogre@@@std@@@std@@QBEIXZ ; std::vector<Ogre::D3DMaterialTemplate::TechCache *,std::allocator<Ogre::D3DMaterialTemplate::TechCache *> >::size
PUBLIC	?findTechCache@D3DMaterialTemplate@Ogre@@AAEPAUTechCache@12@IW4RenderUsage@2@@Z ; Ogre::D3DMaterialTemplate::findTechCache
; Function compile flags: /Odtp
_TEXT	SEGMENT
_this$ = -12						; size = 4
_pcache$146277 = -8					; size = 4
_i$146273 = -4						; size = 4
_lod$ = 8						; size = 4
_usage$ = 12						; size = 4
?findTechCache@D3DMaterialTemplate@Ogre@@AAEPAUTechCache@12@IW4RenderUsage@2@@Z PROC ; Ogre::D3DMaterialTemplate::findTechCache
; _this$ = ecx

; 153  : 	{

	push	ebp
	mov	ebp, esp
	sub	esp, 12					; 0000000cH
	mov	DWORD PTR _this$[ebp], ecx

; 154  : 		for(size_t i=0; i<m_TechCache.size(); i++)

	mov	DWORD PTR _i$146273[ebp], 0
	jmp	SHORT $LN4@findTechCa
$LN3@findTechCa:
	mov	eax, DWORD PTR _i$146273[ebp]
	add	eax, 1
	mov	DWORD PTR _i$146273[ebp], eax
$LN4@findTechCa:
	mov	ecx, DWORD PTR _this$[ebp]
	add	ecx, 140				; 0000008cH
	call	?size@?$vector@PAUTechCache@D3DMaterialTemplate@Ogre@@V?$allocator@PAUTechCache@D3DMaterialTemplate@Ogre@@@std@@@std@@QBEIXZ ; std::vector<Ogre::D3DMaterialTemplate::TechCache *,std::allocator<Ogre::D3DMaterialTemplate::TechCache *> >::size
	cmp	DWORD PTR _i$146273[ebp], eax
	jae	SHORT $LN2@findTechCa

; 155  : 		{
; 156  : 			TechCache *pcache = m_TechCache[i];

	mov	ecx, DWORD PTR _i$146273[ebp]
	push	ecx
	mov	ecx, DWORD PTR _this$[ebp]
	add	ecx, 140				; 0000008cH
	call	??A?$vector@PAUTechCache@D3DMaterialTemplate@Ogre@@V?$allocator@PAUTechCache@D3DMaterialTemplate@Ogre@@@std@@@std@@QAEAAPAUTechCache@D3DMaterialTemplate@Ogre@@I@Z ; std::vector<Ogre::D3DMaterialTemplate::TechCache *,std::allocator<Ogre::D3DMaterialTemplate::TechCache *> >::operator[]
	mov	edx, DWORD PTR [eax]
	mov	DWORD PTR _pcache$146277[ebp], edx

; 157  : 			if(pcache->lod==lod && (pcache->usage&(1<<usage))!=0) //!!!lod

	mov	eax, DWORD PTR _pcache$146277[ebp]
	mov	ecx, DWORD PTR [eax]
	cmp	ecx, DWORD PTR _lod$[ebp]
	jne	SHORT $LN1@findTechCa
	mov	edx, 1
	mov	ecx, DWORD PTR _usage$[ebp]
	shl	edx, cl
	mov	eax, DWORD PTR _pcache$146277[ebp]
	and	edx, DWORD PTR [eax+4]
	je	SHORT $LN1@findTechCa

; 158  : 			{
; 159  : 				return m_TechCache[i];

	mov	ecx, DWORD PTR _i$146273[ebp]
	push	ecx
	mov	ecx, DWORD PTR _this$[ebp]
	add	ecx, 140				; 0000008cH
	call	??A?$vector@PAUTechCache@D3DMaterialTemplate@Ogre@@V?$allocator@PAUTechCache@D3DMaterialTemplate@Ogre@@@std@@@std@@QAEAAPAUTechCache@D3DMaterialTemplate@Ogre@@I@Z ; std::vector<Ogre::D3DMaterialTemplate::TechCache *,std::allocator<Ogre::D3DMaterialTemplate::TechCache *> >::operator[]
	mov	eax, DWORD PTR [eax]
	jmp	SHORT $LN5@findTechCa
$LN1@findTechCa:

; 160  : 			}
; 161  : 		}

	jmp	SHORT $LN3@findTechCa
$LN2@findTechCa:

; 162  : 		//assert(0);
; 163  : 		return NULL;

	xor	eax, eax
$LN5@findTechCa:

; 164  : 	}

	mov	esp, ebp
	pop	ebp
	ret	8
?findTechCache@D3DMaterialTemplate@Ogre@@AAEPAUTechCache@12@IW4RenderUsage@2@@Z ENDP ; Ogre::D3DMaterialTemplate::findTechCache
_TEXT	ENDS
PUBLIC	??A?$map@TShaderEnvKey@Ogre@@PAVD3DTech@2@U?$less@TShaderEnvKey@Ogre@@@std@@V?$allocator@U?$pair@$$CBTShaderEnvKey@Ogre@@PAVD3DTech@2@@std@@@5@@std@@QAEAAPAVD3DTech@Ogre@@ABTShaderEnvKey@3@@Z ; std::map<Ogre::ShaderEnvKey,Ogre::D3DTech *,std::less<Ogre::ShaderEnvKey>,std::allocator<std::pair<Ogre::ShaderEnvKey const ,Ogre::D3DTech *> > >::operator[]
PUBLIC	??Eiterator@?$_Tree@V?$_Tmap_traits@TShaderEnvKey@Ogre@@PAVD3DTech@2@U?$less@TShaderEnvKey@Ogre@@@std@@V?$allocator@U?$pair@$$CBTShaderEnvKey@Ogre@@PAVD3DTech@2@@std@@@5@$0A@@std@@@std@@QAE?AV012@H@Z ; std::_Tree<std::_Tmap_traits<Ogre::ShaderEnvKey,Ogre::D3DTech *,std::less<Ogre::ShaderEnvKey>,std::allocator<std::pair<Ogre::ShaderEnvKey const ,Ogre::D3DTech *> >,0> >::iterator::operator++
PUBLIC	?begin@?$_Tree@V?$_Tmap_traits@TShaderEnvKey@Ogre@@PAVD3DTech@2@U?$less@TShaderEnvKey@Ogre@@@std@@V?$allocator@U?$pair@$$CBTShaderEnvKey@Ogre@@PAVD3DTech@2@@std@@@5@$0A@@std@@@std@@QAE?AViterator@12@XZ ; std::_Tree<std::_Tmap_traits<Ogre::ShaderEnvKey,Ogre::D3DTech *,std::less<Ogre::ShaderEnvKey>,std::allocator<std::pair<Ogre::ShaderEnvKey const ,Ogre::D3DTech *> >,0> >::begin
PUBLIC	??Citerator@?$_Tree@V?$_Tmap_traits@TShaderEnvKey@Ogre@@PAVD3DTech@2@U?$less@TShaderEnvKey@Ogre@@@std@@V?$allocator@U?$pair@$$CBTShaderEnvKey@Ogre@@PAVD3DTech@2@@std@@@5@$0A@@std@@@std@@QBEPAU?$pair@$$CBTShaderEnvKey@Ogre@@PAVD3DTech@2@@2@XZ ; std::_Tree<std::_Tmap_traits<Ogre::ShaderEnvKey,Ogre::D3DTech *,std::less<Ogre::ShaderEnvKey>,std::allocator<std::pair<Ogre::ShaderEnvKey const ,Ogre::D3DTech *> >,0> >::iterator::operator->
PUBLIC	??9const_iterator@?$_Tree@V?$_Tmap_traits@TShaderEnvKey@Ogre@@PAVD3DTech@2@U?$less@TShaderEnvKey@Ogre@@@std@@V?$allocator@U?$pair@$$CBTShaderEnvKey@Ogre@@PAVD3DTech@2@@std@@@5@$0A@@std@@@std@@QBE_NABV012@@Z ; std::_Tree<std::_Tmap_traits<Ogre::ShaderEnvKey,Ogre::D3DTech *,std::less<Ogre::ShaderEnvKey>,std::allocator<std::pair<Ogre::ShaderEnvKey const ,Ogre::D3DTech *> >,0> >::const_iterator::operator!=
PUBLIC	?end@?$_Tree@V?$_Tmap_traits@TShaderEnvKey@Ogre@@PAVD3DTech@2@U?$less@TShaderEnvKey@Ogre@@@std@@V?$allocator@U?$pair@$$CBTShaderEnvKey@Ogre@@PAVD3DTech@2@@std@@@5@$0A@@std@@@std@@QAE?AViterator@12@XZ ; std::_Tree<std::_Tmap_traits<Ogre::ShaderEnvKey,Ogre::D3DTech *,std::less<Ogre::ShaderEnvKey>,std::allocator<std::pair<Ogre::ShaderEnvKey const ,Ogre::D3DTech *> >,0> >::end
PUBLIC	?find@?$_Tree@V?$_Tmap_traits@TShaderEnvKey@Ogre@@PAVD3DTech@2@U?$less@TShaderEnvKey@Ogre@@@std@@V?$allocator@U?$pair@$$CBTShaderEnvKey@Ogre@@PAVD3DTech@2@@std@@@5@$0A@@std@@@std@@QAE?AViterator@12@ABTShaderEnvKey@Ogre@@@Z ; std::_Tree<std::_Tmap_traits<Ogre::ShaderEnvKey,Ogre::D3DTech *,std::less<Ogre::ShaderEnvKey>,std::allocator<std::pair<Ogre::ShaderEnvKey const ,Ogre::D3DTech *> >,0> >::find
PUBLIC	??0ShaderEnvKey@Ogre@@QAE@XZ			; Ogre::ShaderEnvKey::ShaderEnvKey
PUBLIC	?empty@?$vector@PAUTechCache@D3DMaterialTemplate@Ogre@@V?$allocator@PAUTechCache@D3DMaterialTemplate@Ogre@@@std@@@std@@QBE_NXZ ; std::vector<Ogre::D3DMaterialTemplate::TechCache *,std::allocator<Ogre::D3DMaterialTemplate::TechCache *> >::empty
EXTRN	?isEqual@D3DTech@Ogre@@QAE_NPAV12@@Z:PROC	; Ogre::D3DTech::isEqual
xdata$x	SEGMENT
__unwindtable$?getShaderTechnique@D3DMaterialTemplate@Ogre@@UAEPAVShaderTechnique@2@ABUShaderEnvFlags@2@ABUMaterialMacro@2@IW4RenderUsage@2@@Z DD 0ffffffffH
	DD	FLAT:__unwindfunclet$?getShaderTechnique@D3DMaterialTemplate@Ogre@@UAEPAVShaderTechnique@2@ABUShaderEnvFlags@2@ABUMaterialMacro@2@IW4RenderUsage@2@@Z$0
__ehfuncinfo$?getShaderTechnique@D3DMaterialTemplate@Ogre@@UAEPAVShaderTechnique@2@ABUShaderEnvFlags@2@ABUMaterialMacro@2@IW4RenderUsage@2@@Z DD 019930522H
	DD	01H
	DD	FLAT:__unwindtable$?getShaderTechnique@D3DMaterialTemplate@Ogre@@UAEPAVShaderTechnique@2@ABUShaderEnvFlags@2@ABUMaterialMacro@2@IW4RenderUsage@2@@Z
	DD	2 DUP(00H)
	DD	2 DUP(00H)
	DD	00H
	DD	00H
; Function compile flags: /Odtp
xdata$x	ENDS
_TEXT	SEGMENT
tv228 = -108						; size = 4
_this$ = -104						; size = 4
$T159184 = -100						; size = 4
$T159183 = -96						; size = 4
$T159180 = -92						; size = 4
$T159179 = -88						; size = 4
$T159178 = -84						; size = 8
$T159177 = -76						; size = 8
$T159176 = -68						; size = 8
$T159175 = -60						; size = 4
$T159174 = -56						; size = 8
_pcache$ = -48						; size = 4
_lockfunc$ = -44					; size = 4
_ptmp$ = -40						; size = 4
_key$ = -36						; size = 16
_iter$ = -20						; size = 8
__$EHRec$ = -12						; size = 12
_env$ = 8						; size = 4
_macros$ = 12						; size = 4
_lod$ = 16						; size = 4
_usage$ = 20						; size = 4
?getShaderTechnique@D3DMaterialTemplate@Ogre@@UAEPAVShaderTechnique@2@ABUShaderEnvFlags@2@ABUMaterialMacro@2@IW4RenderUsage@2@@Z PROC ; Ogre::D3DMaterialTemplate::getShaderTechnique
; _this$ = ecx

; 167  : 	{

	push	ebp
	mov	ebp, esp
	push	-1
	push	__ehhandler$?getShaderTechnique@D3DMaterialTemplate@Ogre@@UAEPAVShaderTechnique@2@ABUShaderEnvFlags@2@ABUMaterialMacro@2@IW4RenderUsage@2@@Z
	mov	eax, DWORD PTR fs:0
	push	eax
	sub	esp, 96					; 00000060H
	push	esi
	mov	eax, DWORD PTR ___security_cookie
	xor	eax, ebp
	push	eax
	lea	eax, DWORD PTR __$EHRec$[ebp]
	mov	DWORD PTR fs:0, eax
	mov	DWORD PTR _this$[ebp], ecx

; 168  : 		if(m_TechCache.empty()) return getShaderTechnique_old(env, macros, lod, usage);

	mov	ecx, DWORD PTR _this$[ebp]
	add	ecx, 140				; 0000008cH
	call	?empty@?$vector@PAUTechCache@D3DMaterialTemplate@Ogre@@V?$allocator@PAUTechCache@D3DMaterialTemplate@Ogre@@@std@@@std@@QBE_NXZ ; std::vector<Ogre::D3DMaterialTemplate::TechCache *,std::allocator<Ogre::D3DMaterialTemplate::TechCache *> >::empty
	movzx	eax, al
	test	eax, eax
	je	SHORT $LN7@getShaderT@2
	mov	ecx, DWORD PTR _usage$[ebp]
	push	ecx
	mov	edx, DWORD PTR _lod$[ebp]
	push	edx
	mov	eax, DWORD PTR _macros$[ebp]
	push	eax
	mov	ecx, DWORD PTR _env$[ebp]
	push	ecx
	mov	ecx, DWORD PTR _this$[ebp]
	call	?getShaderTechnique_old@D3DMaterialTemplate@Ogre@@QAEPAVShaderTechnique@2@ABUShaderEnvFlags@2@ABUMaterialMacro@2@IW4RenderUsage@2@@Z ; Ogre::D3DMaterialTemplate::getShaderTechnique_old
	jmp	$LN8@getShaderT@2
$LN7@getShaderT@2:

; 169  : 
; 170  : 		ShaderEnvKey key;

	lea	ecx, DWORD PTR _key$[ebp]
	call	??0ShaderEnvKey@Ogre@@QAE@XZ		; Ogre::ShaderEnvKey::ShaderEnvKey

; 171  : 		key.env = env;

	mov	edx, DWORD PTR _env$[ebp]
	mov	eax, DWORD PTR [edx]
	mov	ecx, DWORD PTR [edx+4]
	mov	DWORD PTR _key$[ebp], eax
	mov	DWORD PTR _key$[ebp+4], ecx

; 172  : 		key.macros = macros;

	mov	edx, DWORD PTR _macros$[ebp]
	mov	eax, DWORD PTR [edx]
	mov	ecx, DWORD PTR [edx+4]
	mov	DWORD PTR _key$[ebp+8], eax
	mov	DWORD PTR _key$[ebp+12], ecx

; 173  : 
; 174  : 		TechCache *pcache = findTechCache(lod, usage);

	mov	edx, DWORD PTR _usage$[ebp]
	push	edx
	mov	eax, DWORD PTR _lod$[ebp]
	push	eax
	mov	ecx, DWORD PTR _this$[ebp]
	call	?findTechCache@D3DMaterialTemplate@Ogre@@AAEPAUTechCache@12@IW4RenderUsage@2@@Z ; Ogre::D3DMaterialTemplate::findTechCache
	mov	DWORD PTR _pcache$[ebp], eax

; 175  : 		if(pcache == NULL)

	cmp	DWORD PTR _pcache$[ebp], 0
	jne	SHORT $LN6@getShaderT@2

; 176  : 		{
; 177  : 			return NULL;

	xor	eax, eax
	jmp	$LN8@getShaderT@2
$LN6@getShaderT@2:

; 178  : 		}
; 179  : 
; 180  : 		LockFunctor lockfunc(&m_TechMapLock);

	mov	ecx, DWORD PTR _this$[ebp]
	add	ecx, 72					; 00000048H
	push	ecx
	lea	ecx, DWORD PTR _lockfunc$[ebp]
	call	DWORD PTR __imp_??0LockFunctor@Ogre@@QAE@PAVLockSection@1@@Z
	mov	DWORD PTR __$EHRec$[ebp+8], 0

; 181  : 		std::map<ShaderEnvKey, D3DTech *>::iterator iter = pcache->techmap.find(key);

	lea	edx, DWORD PTR _key$[ebp]
	push	edx
	lea	eax, DWORD PTR _iter$[ebp]
	push	eax
	mov	ecx, DWORD PTR _pcache$[ebp]
	add	ecx, 12					; 0000000cH
	call	?find@?$_Tree@V?$_Tmap_traits@TShaderEnvKey@Ogre@@PAVD3DTech@2@U?$less@TShaderEnvKey@Ogre@@@std@@V?$allocator@U?$pair@$$CBTShaderEnvKey@Ogre@@PAVD3DTech@2@@std@@@5@$0A@@std@@@std@@QAE?AViterator@12@ABTShaderEnvKey@Ogre@@@Z ; std::_Tree<std::_Tmap_traits<Ogre::ShaderEnvKey,Ogre::D3DTech *,std::less<Ogre::ShaderEnvKey>,std::allocator<std::pair<Ogre::ShaderEnvKey const ,Ogre::D3DTech *> >,0> >::find

; 182  : 		if(iter != pcache->techmap.end())

	lea	ecx, DWORD PTR $T159174[ebp]
	push	ecx
	mov	ecx, DWORD PTR _pcache$[ebp]
	add	ecx, 12					; 0000000cH
	call	?end@?$_Tree@V?$_Tmap_traits@TShaderEnvKey@Ogre@@PAVD3DTech@2@U?$less@TShaderEnvKey@Ogre@@@std@@V?$allocator@U?$pair@$$CBTShaderEnvKey@Ogre@@PAVD3DTech@2@@std@@@5@$0A@@std@@@std@@QAE?AViterator@12@XZ ; std::_Tree<std::_Tmap_traits<Ogre::ShaderEnvKey,Ogre::D3DTech *,std::less<Ogre::ShaderEnvKey>,std::allocator<std::pair<Ogre::ShaderEnvKey const ,Ogre::D3DTech *> >,0> >::end
	push	eax
	lea	ecx, DWORD PTR _iter$[ebp]
	call	??9const_iterator@?$_Tree@V?$_Tmap_traits@TShaderEnvKey@Ogre@@PAVD3DTech@2@U?$less@TShaderEnvKey@Ogre@@@std@@V?$allocator@U?$pair@$$CBTShaderEnvKey@Ogre@@PAVD3DTech@2@@std@@@5@$0A@@std@@@std@@QBE_NABV012@@Z ; std::_Tree<std::_Tmap_traits<Ogre::ShaderEnvKey,Ogre::D3DTech *,std::less<Ogre::ShaderEnvKey>,std::allocator<std::pair<Ogre::ShaderEnvKey const ,Ogre::D3DTech *> >,0> >::const_iterator::operator!=
	movzx	edx, al
	test	edx, edx
	je	SHORT $LN5@getShaderT@2

; 183  : 		{
; 184  : 			return iter->second;

	lea	ecx, DWORD PTR _iter$[ebp]
	call	??Citerator@?$_Tree@V?$_Tmap_traits@TShaderEnvKey@Ogre@@PAVD3DTech@2@U?$less@TShaderEnvKey@Ogre@@@std@@V?$allocator@U?$pair@$$CBTShaderEnvKey@Ogre@@PAVD3DTech@2@@std@@@5@$0A@@std@@@std@@QBEPAU?$pair@$$CBTShaderEnvKey@Ogre@@PAVD3DTech@2@@2@XZ ; std::_Tree<std::_Tmap_traits<Ogre::ShaderEnvKey,Ogre::D3DTech *,std::less<Ogre::ShaderEnvKey>,std::allocator<std::pair<Ogre::ShaderEnvKey const ,Ogre::D3DTech *> >,0> >::iterator::operator->
	mov	eax, DWORD PTR [eax+16]
	mov	DWORD PTR $T159175[ebp], eax
	mov	DWORD PTR __$EHRec$[ebp+8], -1
	lea	ecx, DWORD PTR _lockfunc$[ebp]
	call	DWORD PTR __imp_??1LockFunctor@Ogre@@QAE@XZ
	mov	eax, DWORD PTR $T159175[ebp]
	jmp	$LN8@getShaderT@2
$LN5@getShaderT@2:

; 185  : 		}
; 186  : 
; 187  : 		D3DTech *ptmp = pcache->proto->clone();

	mov	ecx, DWORD PTR _pcache$[ebp]
	mov	edx, DWORD PTR [ecx+44]
	mov	eax, DWORD PTR _pcache$[ebp]
	mov	ecx, DWORD PTR [eax+44]
	mov	edx, DWORD PTR [edx]
	mov	eax, DWORD PTR [edx+64]
	call	eax
	mov	DWORD PTR _ptmp$[ebp], eax

; 188  : 		ptmp->m_pMtlTemplate = this;

	mov	ecx, DWORD PTR _ptmp$[ebp]
	mov	edx, DWORD PTR _this$[ebp]
	mov	DWORD PTR [ecx+8], edx

; 189  : 		ptmp->init(env, macros);

	mov	eax, DWORD PTR _macros$[ebp]
	push	eax
	mov	ecx, DWORD PTR _env$[ebp]
	push	ecx
	mov	edx, DWORD PTR _ptmp$[ebp]
	mov	eax, DWORD PTR [edx]
	mov	ecx, DWORD PTR _ptmp$[ebp]
	mov	edx, DWORD PTR [eax+68]
	call	edx

; 190  : 		for(iter=pcache->techmap.begin(); iter!=pcache->techmap.end(); iter++)

	lea	eax, DWORD PTR $T159176[ebp]
	push	eax
	mov	ecx, DWORD PTR _pcache$[ebp]
	add	ecx, 12					; 0000000cH
	call	?begin@?$_Tree@V?$_Tmap_traits@TShaderEnvKey@Ogre@@PAVD3DTech@2@U?$less@TShaderEnvKey@Ogre@@@std@@V?$allocator@U?$pair@$$CBTShaderEnvKey@Ogre@@PAVD3DTech@2@@std@@@5@$0A@@std@@@std@@QAE?AViterator@12@XZ ; std::_Tree<std::_Tmap_traits<Ogre::ShaderEnvKey,Ogre::D3DTech *,std::less<Ogre::ShaderEnvKey>,std::allocator<std::pair<Ogre::ShaderEnvKey const ,Ogre::D3DTech *> >,0> >::begin
	mov	ecx, DWORD PTR [eax]
	mov	edx, DWORD PTR [eax+4]
	mov	DWORD PTR _iter$[ebp], ecx
	mov	DWORD PTR _iter$[ebp+4], edx
	jmp	SHORT $LN4@getShaderT@2
$LN3@getShaderT@2:
	push	0
	lea	eax, DWORD PTR $T159177[ebp]
	push	eax
	lea	ecx, DWORD PTR _iter$[ebp]
	call	??Eiterator@?$_Tree@V?$_Tmap_traits@TShaderEnvKey@Ogre@@PAVD3DTech@2@U?$less@TShaderEnvKey@Ogre@@@std@@V?$allocator@U?$pair@$$CBTShaderEnvKey@Ogre@@PAVD3DTech@2@@std@@@5@$0A@@std@@@std@@QAE?AV012@H@Z ; std::_Tree<std::_Tmap_traits<Ogre::ShaderEnvKey,Ogre::D3DTech *,std::less<Ogre::ShaderEnvKey>,std::allocator<std::pair<Ogre::ShaderEnvKey const ,Ogre::D3DTech *> >,0> >::iterator::operator++
$LN4@getShaderT@2:
	lea	ecx, DWORD PTR $T159178[ebp]
	push	ecx
	mov	ecx, DWORD PTR _pcache$[ebp]
	add	ecx, 12					; 0000000cH
	call	?end@?$_Tree@V?$_Tmap_traits@TShaderEnvKey@Ogre@@PAVD3DTech@2@U?$less@TShaderEnvKey@Ogre@@@std@@V?$allocator@U?$pair@$$CBTShaderEnvKey@Ogre@@PAVD3DTech@2@@std@@@5@$0A@@std@@@std@@QAE?AViterator@12@XZ ; std::_Tree<std::_Tmap_traits<Ogre::ShaderEnvKey,Ogre::D3DTech *,std::less<Ogre::ShaderEnvKey>,std::allocator<std::pair<Ogre::ShaderEnvKey const ,Ogre::D3DTech *> >,0> >::end
	push	eax
	lea	ecx, DWORD PTR _iter$[ebp]
	call	??9const_iterator@?$_Tree@V?$_Tmap_traits@TShaderEnvKey@Ogre@@PAVD3DTech@2@U?$less@TShaderEnvKey@Ogre@@@std@@V?$allocator@U?$pair@$$CBTShaderEnvKey@Ogre@@PAVD3DTech@2@@std@@@5@$0A@@std@@@std@@QBE_NABV012@@Z ; std::_Tree<std::_Tmap_traits<Ogre::ShaderEnvKey,Ogre::D3DTech *,std::less<Ogre::ShaderEnvKey>,std::allocator<std::pair<Ogre::ShaderEnvKey const ,Ogre::D3DTech *> >,0> >::const_iterator::operator!=
	movzx	edx, al
	test	edx, edx
	je	$LN2@getShaderT@2

; 191  : 		{
; 192  : 			if(ptmp->isEqual(iter->second))

	lea	ecx, DWORD PTR _iter$[ebp]
	call	??Citerator@?$_Tree@V?$_Tmap_traits@TShaderEnvKey@Ogre@@PAVD3DTech@2@U?$less@TShaderEnvKey@Ogre@@@std@@V?$allocator@U?$pair@$$CBTShaderEnvKey@Ogre@@PAVD3DTech@2@@std@@@5@$0A@@std@@@std@@QBEPAU?$pair@$$CBTShaderEnvKey@Ogre@@PAVD3DTech@2@@2@XZ ; std::_Tree<std::_Tmap_traits<Ogre::ShaderEnvKey,Ogre::D3DTech *,std::less<Ogre::ShaderEnvKey>,std::allocator<std::pair<Ogre::ShaderEnvKey const ,Ogre::D3DTech *> >,0> >::iterator::operator->
	mov	eax, DWORD PTR [eax+16]
	push	eax
	mov	ecx, DWORD PTR _ptmp$[ebp]
	call	?isEqual@D3DTech@Ogre@@QAE_NPAV12@@Z	; Ogre::D3DTech::isEqual
	movzx	ecx, al
	test	ecx, ecx
	je	SHORT $LN1@getShaderT@2

; 193  : 			{
; 194  : 				pcache->techmap[key] = iter->second;

	lea	ecx, DWORD PTR _iter$[ebp]
	call	??Citerator@?$_Tree@V?$_Tmap_traits@TShaderEnvKey@Ogre@@PAVD3DTech@2@U?$less@TShaderEnvKey@Ogre@@@std@@V?$allocator@U?$pair@$$CBTShaderEnvKey@Ogre@@PAVD3DTech@2@@std@@@5@$0A@@std@@@std@@QBEPAU?$pair@$$CBTShaderEnvKey@Ogre@@PAVD3DTech@2@@2@XZ ; std::_Tree<std::_Tmap_traits<Ogre::ShaderEnvKey,Ogre::D3DTech *,std::less<Ogre::ShaderEnvKey>,std::allocator<std::pair<Ogre::ShaderEnvKey const ,Ogre::D3DTech *> >,0> >::iterator::operator->
	mov	esi, eax
	lea	edx, DWORD PTR _key$[ebp]
	push	edx
	mov	ecx, DWORD PTR _pcache$[ebp]
	add	ecx, 12					; 0000000cH
	call	??A?$map@TShaderEnvKey@Ogre@@PAVD3DTech@2@U?$less@TShaderEnvKey@Ogre@@@std@@V?$allocator@U?$pair@$$CBTShaderEnvKey@Ogre@@PAVD3DTech@2@@std@@@5@@std@@QAEAAPAVD3DTech@Ogre@@ABTShaderEnvKey@3@@Z ; std::map<Ogre::ShaderEnvKey,Ogre::D3DTech *,std::less<Ogre::ShaderEnvKey>,std::allocator<std::pair<Ogre::ShaderEnvKey const ,Ogre::D3DTech *> > >::operator[]
	mov	ecx, DWORD PTR [esi+16]
	mov	DWORD PTR [eax], ecx

; 195  : 				delete ptmp;

	mov	edx, DWORD PTR _ptmp$[ebp]
	mov	DWORD PTR $T159180[ebp], edx
	mov	eax, DWORD PTR $T159180[ebp]
	mov	DWORD PTR $T159179[ebp], eax
	cmp	DWORD PTR $T159179[ebp], 0
	je	SHORT $LN10@getShaderT@2
	push	1
	mov	ecx, DWORD PTR $T159179[ebp]
	mov	edx, DWORD PTR [ecx]
	mov	ecx, DWORD PTR $T159179[ebp]
	mov	eax, DWORD PTR [edx+60]
	call	eax
	mov	DWORD PTR tv228[ebp], eax
	jmp	SHORT $LN11@getShaderT@2
$LN10@getShaderT@2:
	mov	DWORD PTR tv228[ebp], 0
$LN11@getShaderT@2:

; 196  : 				return iter->second;

	lea	ecx, DWORD PTR _iter$[ebp]
	call	??Citerator@?$_Tree@V?$_Tmap_traits@TShaderEnvKey@Ogre@@PAVD3DTech@2@U?$less@TShaderEnvKey@Ogre@@@std@@V?$allocator@U?$pair@$$CBTShaderEnvKey@Ogre@@PAVD3DTech@2@@std@@@5@$0A@@std@@@std@@QBEPAU?$pair@$$CBTShaderEnvKey@Ogre@@PAVD3DTech@2@@2@XZ ; std::_Tree<std::_Tmap_traits<Ogre::ShaderEnvKey,Ogre::D3DTech *,std::less<Ogre::ShaderEnvKey>,std::allocator<std::pair<Ogre::ShaderEnvKey const ,Ogre::D3DTech *> >,0> >::iterator::operator->
	mov	ecx, DWORD PTR [eax+16]
	mov	DWORD PTR $T159183[ebp], ecx
	mov	DWORD PTR __$EHRec$[ebp+8], -1
	lea	ecx, DWORD PTR _lockfunc$[ebp]
	call	DWORD PTR __imp_??1LockFunctor@Ogre@@QAE@XZ
	mov	eax, DWORD PTR $T159183[ebp]
	jmp	SHORT $LN8@getShaderT@2
$LN1@getShaderT@2:

; 197  : 			}
; 198  : 		}

	jmp	$LN3@getShaderT@2
$LN2@getShaderT@2:

; 199  : 
; 200  : 		pcache->techmap[key] = ptmp;

	lea	edx, DWORD PTR _key$[ebp]
	push	edx
	mov	ecx, DWORD PTR _pcache$[ebp]
	add	ecx, 12					; 0000000cH
	call	??A?$map@TShaderEnvKey@Ogre@@PAVD3DTech@2@U?$less@TShaderEnvKey@Ogre@@@std@@V?$allocator@U?$pair@$$CBTShaderEnvKey@Ogre@@PAVD3DTech@2@@std@@@5@@std@@QAEAAPAVD3DTech@Ogre@@ABTShaderEnvKey@3@@Z ; std::map<Ogre::ShaderEnvKey,Ogre::D3DTech *,std::less<Ogre::ShaderEnvKey>,std::allocator<std::pair<Ogre::ShaderEnvKey const ,Ogre::D3DTech *> > >::operator[]
	mov	ecx, DWORD PTR _ptmp$[ebp]
	mov	DWORD PTR [eax], ecx

; 201  : 		return ptmp;

	mov	edx, DWORD PTR _ptmp$[ebp]
	mov	DWORD PTR $T159184[ebp], edx
	mov	DWORD PTR __$EHRec$[ebp+8], -1
	lea	ecx, DWORD PTR _lockfunc$[ebp]
	call	DWORD PTR __imp_??1LockFunctor@Ogre@@QAE@XZ
	mov	eax, DWORD PTR $T159184[ebp]
$LN8@getShaderT@2:

; 202  : 	}

	mov	ecx, DWORD PTR __$EHRec$[ebp]
	mov	DWORD PTR fs:0, ecx
	pop	ecx
	pop	esi
	mov	esp, ebp
	pop	ebp
	ret	16					; 00000010H
_TEXT	ENDS
text$x	SEGMENT
__unwindfunclet$?getShaderTechnique@D3DMaterialTemplate@Ogre@@UAEPAVShaderTechnique@2@ABUShaderEnvFlags@2@ABUMaterialMacro@2@IW4RenderUsage@2@@Z$0:
	lea	ecx, DWORD PTR _lockfunc$[ebp]
	jmp	DWORD PTR __imp_??1LockFunctor@Ogre@@QAE@XZ
__ehhandler$?getShaderTechnique@D3DMaterialTemplate@Ogre@@UAEPAVShaderTechnique@2@ABUShaderEnvFlags@2@ABUMaterialMacro@2@IW4RenderUsage@2@@Z:
	mov	edx, DWORD PTR [esp+8]
	lea	eax, DWORD PTR [edx+12]
	mov	ecx, DWORD PTR [edx-104]
	xor	ecx, eax
	call	@__security_check_cookie@4
	mov	eax, OFFSET __ehfuncinfo$?getShaderTechnique@D3DMaterialTemplate@Ogre@@UAEPAVShaderTechnique@2@ABUShaderEnvFlags@2@ABUMaterialMacro@2@IW4RenderUsage@2@@Z
	jmp	___CxxFrameHandler3
text$x	ENDS
?getShaderTechnique@D3DMaterialTemplate@Ogre@@UAEPAVShaderTechnique@2@ABUShaderEnvFlags@2@ABUMaterialMacro@2@IW4RenderUsage@2@@Z ENDP ; Ogre::D3DMaterialTemplate::getShaderTechnique
; Function compile flags: /Odtp
; File i:\svnroot\client\ogremain\ogrematerialtemplate.h
;	COMDAT ??0ShaderEnvKey@Ogre@@QAE@XZ
_TEXT	SEGMENT
_this$ = -4						; size = 4
??0ShaderEnvKey@Ogre@@QAE@XZ PROC			; Ogre::ShaderEnvKey::ShaderEnvKey, COMDAT
; _this$ = ecx

; 23   : 		ShaderEnvKey()

	push	ebp
	mov	ebp, esp
	push	ecx
	mov	DWORD PTR _this$[ebp], ecx

; 24   : 		{
; 25   : 			keydata[0] = keydata[1] = 0;

	mov	eax, DWORD PTR _this$[ebp]
	mov	DWORD PTR [eax+8], 0
	mov	DWORD PTR [eax+12], 0
	mov	ecx, DWORD PTR _this$[ebp]
	mov	DWORD PTR [ecx], 0
	mov	DWORD PTR [ecx+4], 0

; 26   : 		}

	mov	eax, DWORD PTR _this$[ebp]
	mov	esp, ebp
	pop	ebp
	ret	0
??0ShaderEnvKey@Ogre@@QAE@XZ ENDP			; Ogre::ShaderEnvKey::ShaderEnvKey
_TEXT	ENDS
xdata$x	SEGMENT
__unwindtable$?getRequiredParams@D3DMaterialTemplate@Ogre@@UAEIPAW4ShaderParamUsage@2@IABUShaderEnvFlags@2@ABUMaterialMacro@2@IW4RenderUsage@2@@Z DD 0ffffffffH
	DD	FLAT:__unwindfunclet$?getRequiredParams@D3DMaterialTemplate@Ogre@@UAEIPAW4ShaderParamUsage@2@IABUShaderEnvFlags@2@ABUMaterialMacro@2@IW4RenderUsage@2@@Z$0
__ehfuncinfo$?getRequiredParams@D3DMaterialTemplate@Ogre@@UAEIPAW4ShaderParamUsage@2@IABUShaderEnvFlags@2@ABUMaterialMacro@2@IW4RenderUsage@2@@Z DD 019930522H
	DD	01H
	DD	FLAT:__unwindtable$?getRequiredParams@D3DMaterialTemplate@Ogre@@UAEIPAW4ShaderParamUsage@2@IABUShaderEnvFlags@2@ABUMaterialMacro@2@IW4RenderUsage@2@@Z
	DD	2 DUP(00H)
	DD	2 DUP(00H)
	DD	00H
	DD	00H
; Function compile flags: /Odtp
; File i:\svnroot\client\plugins\rendersystem_d3d9\ogred3dmaterialtemplate.cpp
xdata$x	ENDS
_TEXT	SEGMENT
tv168 = -76						; size = 4
_this$ = -72						; size = 4
$T159195 = -68						; size = 4
$T159194 = -64						; size = 4
$T159193 = -60						; size = 8
_i$146476 = -52						; size = 4
_count$146475 = -48					; size = 4
_pcache$ = -44						; size = 4
_lockfunc$ = -40					; size = 4
_key$ = -36						; size = 16
_iter$ = -20						; size = 8
__$EHRec$ = -12						; size = 12
_pbuf$ = 8						; size = 4
_maxbuf$ = 12						; size = 4
_env$ = 16						; size = 4
_macros$ = 20						; size = 4
_lod$ = 24						; size = 4
_usage$ = 28						; size = 4
?getRequiredParams@D3DMaterialTemplate@Ogre@@UAEIPAW4ShaderParamUsage@2@IABUShaderEnvFlags@2@ABUMaterialMacro@2@IW4RenderUsage@2@@Z PROC ; Ogre::D3DMaterialTemplate::getRequiredParams
; _this$ = ecx

; 205  : 	{

	push	ebp
	mov	ebp, esp
	push	-1
	push	__ehhandler$?getRequiredParams@D3DMaterialTemplate@Ogre@@UAEIPAW4ShaderParamUsage@2@IABUShaderEnvFlags@2@ABUMaterialMacro@2@IW4RenderUsage@2@@Z
	mov	eax, DWORD PTR fs:0
	push	eax
	sub	esp, 64					; 00000040H
	mov	eax, DWORD PTR ___security_cookie
	xor	eax, ebp
	push	eax
	lea	eax, DWORD PTR __$EHRec$[ebp]
	mov	DWORD PTR fs:0, eax
	mov	DWORD PTR _this$[ebp], ecx

; 206  : 		if(m_TechCache.empty()) return getRequiredParams_old(pbuf, maxbuf, env, macros, lod, usage);

	mov	ecx, DWORD PTR _this$[ebp]
	add	ecx, 140				; 0000008cH
	call	?empty@?$vector@PAUTechCache@D3DMaterialTemplate@Ogre@@V?$allocator@PAUTechCache@D3DMaterialTemplate@Ogre@@@std@@@std@@QBE_NXZ ; std::vector<Ogre::D3DMaterialTemplate::TechCache *,std::allocator<Ogre::D3DMaterialTemplate::TechCache *> >::empty
	movzx	eax, al
	test	eax, eax
	je	SHORT $LN7@getRequire@2
	mov	ecx, DWORD PTR _usage$[ebp]
	push	ecx
	mov	edx, DWORD PTR _lod$[ebp]
	push	edx
	mov	eax, DWORD PTR _macros$[ebp]
	push	eax
	mov	ecx, DWORD PTR _env$[ebp]
	push	ecx
	mov	edx, DWORD PTR _maxbuf$[ebp]
	push	edx
	mov	eax, DWORD PTR _pbuf$[ebp]
	push	eax
	mov	ecx, DWORD PTR _this$[ebp]
	call	?getRequiredParams_old@D3DMaterialTemplate@Ogre@@QAEIPAW4ShaderParamUsage@2@IABUShaderEnvFlags@2@ABUMaterialMacro@2@IW4RenderUsage@2@@Z ; Ogre::D3DMaterialTemplate::getRequiredParams_old
	jmp	$LN8@getRequire@2
$LN7@getRequire@2:

; 207  : 
; 208  : 		ShaderEnvKey key;

	lea	ecx, DWORD PTR _key$[ebp]
	call	??0ShaderEnvKey@Ogre@@QAE@XZ		; Ogre::ShaderEnvKey::ShaderEnvKey

; 209  : 		key.env = env;

	mov	ecx, DWORD PTR _env$[ebp]
	mov	edx, DWORD PTR [ecx]
	mov	eax, DWORD PTR [ecx+4]
	mov	DWORD PTR _key$[ebp], edx
	mov	DWORD PTR _key$[ebp+4], eax

; 210  : 		key.macros = macros;

	mov	ecx, DWORD PTR _macros$[ebp]
	mov	edx, DWORD PTR [ecx]
	mov	eax, DWORD PTR [ecx+4]
	mov	DWORD PTR _key$[ebp+8], edx
	mov	DWORD PTR _key$[ebp+12], eax

; 211  : 
; 212  : 		TechCache *pcache = findTechCache(lod, usage);

	mov	ecx, DWORD PTR _usage$[ebp]
	push	ecx
	mov	edx, DWORD PTR _lod$[ebp]
	push	edx
	mov	ecx, DWORD PTR _this$[ebp]
	call	?findTechCache@D3DMaterialTemplate@Ogre@@AAEPAUTechCache@12@IW4RenderUsage@2@@Z ; Ogre::D3DMaterialTemplate::findTechCache
	mov	DWORD PTR _pcache$[ebp], eax

; 213  : 		if(pcache == NULL) return getRequiredParams_old(pbuf, maxbuf, env, macros, lod, usage);

	cmp	DWORD PTR _pcache$[ebp], 0
	jne	SHORT $LN6@getRequire@2
	mov	eax, DWORD PTR _usage$[ebp]
	push	eax
	mov	ecx, DWORD PTR _lod$[ebp]
	push	ecx
	mov	edx, DWORD PTR _macros$[ebp]
	push	edx
	mov	eax, DWORD PTR _env$[ebp]
	push	eax
	mov	ecx, DWORD PTR _maxbuf$[ebp]
	push	ecx
	mov	edx, DWORD PTR _pbuf$[ebp]
	push	edx
	mov	ecx, DWORD PTR _this$[ebp]
	call	?getRequiredParams_old@D3DMaterialTemplate@Ogre@@QAEIPAW4ShaderParamUsage@2@IABUShaderEnvFlags@2@ABUMaterialMacro@2@IW4RenderUsage@2@@Z ; Ogre::D3DMaterialTemplate::getRequiredParams_old
	jmp	$LN8@getRequire@2
$LN6@getRequire@2:

; 214  : 
; 215  : 		LockFunctor lockfunc(&m_TechMapLock);

	mov	eax, DWORD PTR _this$[ebp]
	add	eax, 72					; 00000048H
	push	eax
	lea	ecx, DWORD PTR _lockfunc$[ebp]
	call	DWORD PTR __imp_??0LockFunctor@Ogre@@QAE@PAVLockSection@1@@Z
	mov	DWORD PTR __$EHRec$[ebp+8], 0

; 216  : 		std::map<ShaderEnvKey, D3DTech *>::iterator iter = pcache->techmap.find(key);

	lea	ecx, DWORD PTR _key$[ebp]
	push	ecx
	lea	edx, DWORD PTR _iter$[ebp]
	push	edx
	mov	ecx, DWORD PTR _pcache$[ebp]
	add	ecx, 12					; 0000000cH
	call	?find@?$_Tree@V?$_Tmap_traits@TShaderEnvKey@Ogre@@PAVD3DTech@2@U?$less@TShaderEnvKey@Ogre@@@std@@V?$allocator@U?$pair@$$CBTShaderEnvKey@Ogre@@PAVD3DTech@2@@std@@@5@$0A@@std@@@std@@QAE?AViterator@12@ABTShaderEnvKey@Ogre@@@Z ; std::_Tree<std::_Tmap_traits<Ogre::ShaderEnvKey,Ogre::D3DTech *,std::less<Ogre::ShaderEnvKey>,std::allocator<std::pair<Ogre::ShaderEnvKey const ,Ogre::D3DTech *> >,0> >::find

; 217  : 		if(iter != pcache->techmap.end())

	lea	eax, DWORD PTR $T159193[ebp]
	push	eax
	mov	ecx, DWORD PTR _pcache$[ebp]
	add	ecx, 12					; 0000000cH
	call	?end@?$_Tree@V?$_Tmap_traits@TShaderEnvKey@Ogre@@PAVD3DTech@2@U?$less@TShaderEnvKey@Ogre@@@std@@V?$allocator@U?$pair@$$CBTShaderEnvKey@Ogre@@PAVD3DTech@2@@std@@@5@$0A@@std@@@std@@QAE?AViterator@12@XZ ; std::_Tree<std::_Tmap_traits<Ogre::ShaderEnvKey,Ogre::D3DTech *,std::less<Ogre::ShaderEnvKey>,std::allocator<std::pair<Ogre::ShaderEnvKey const ,Ogre::D3DTech *> >,0> >::end
	push	eax
	lea	ecx, DWORD PTR _iter$[ebp]
	call	??9const_iterator@?$_Tree@V?$_Tmap_traits@TShaderEnvKey@Ogre@@PAVD3DTech@2@U?$less@TShaderEnvKey@Ogre@@@std@@V?$allocator@U?$pair@$$CBTShaderEnvKey@Ogre@@PAVD3DTech@2@@std@@@5@$0A@@std@@@std@@QBE_NABV012@@Z ; std::_Tree<std::_Tmap_traits<Ogre::ShaderEnvKey,Ogre::D3DTech *,std::less<Ogre::ShaderEnvKey>,std::allocator<std::pair<Ogre::ShaderEnvKey const ,Ogre::D3DTech *> >,0> >::const_iterator::operator!=
	movzx	ecx, al
	test	ecx, ecx
	je	SHORT $LN5@getRequire@2

; 218  : 		{
; 219  : 			return iter->second->getRequiredParams(pbuf, maxbuf);

	lea	ecx, DWORD PTR _iter$[ebp]
	call	??Citerator@?$_Tree@V?$_Tmap_traits@TShaderEnvKey@Ogre@@PAVD3DTech@2@U?$less@TShaderEnvKey@Ogre@@@std@@V?$allocator@U?$pair@$$CBTShaderEnvKey@Ogre@@PAVD3DTech@2@@std@@@5@$0A@@std@@@std@@QBEPAU?$pair@$$CBTShaderEnvKey@Ogre@@PAVD3DTech@2@@2@XZ ; std::_Tree<std::_Tmap_traits<Ogre::ShaderEnvKey,Ogre::D3DTech *,std::less<Ogre::ShaderEnvKey>,std::allocator<std::pair<Ogre::ShaderEnvKey const ,Ogre::D3DTech *> >,0> >::iterator::operator->
	mov	edx, DWORD PTR [eax+16]
	mov	DWORD PTR tv168[ebp], edx
	mov	eax, DWORD PTR _maxbuf$[ebp]
	push	eax
	mov	ecx, DWORD PTR _pbuf$[ebp]
	push	ecx
	mov	edx, DWORD PTR tv168[ebp]
	mov	eax, DWORD PTR [edx]
	mov	ecx, DWORD PTR tv168[ebp]
	mov	edx, DWORD PTR [eax+56]
	call	edx
	mov	DWORD PTR $T159194[ebp], eax
	mov	DWORD PTR __$EHRec$[ebp+8], -1
	lea	ecx, DWORD PTR _lockfunc$[ebp]
	call	DWORD PTR __imp_??1LockFunctor@Ogre@@QAE@XZ
	mov	eax, DWORD PTR $T159194[ebp]
	jmp	SHORT $LN8@getRequire@2

; 220  : 		}
; 221  : 		else

	jmp	SHORT $LN4@getRequire@2
$LN5@getRequire@2:

; 222  : 		{
; 223  : 			size_t count = 0;

	mov	DWORD PTR _count$146475[ebp], 0

; 224  : 			for(int i=SPU_INSTANCE_PARAM; i<SPU_ENV_PARAM_END; i++)

	mov	DWORD PTR _i$146476[ebp], 0
	jmp	SHORT $LN3@getRequire@2
$LN2@getRequire@2:
	mov	eax, DWORD PTR _i$146476[ebp]
	add	eax, 1
	mov	DWORD PTR _i$146476[ebp], eax
$LN3@getRequire@2:
	cmp	DWORD PTR _i$146476[ebp], 48		; 00000030H
	jge	SHORT $LN1@getRequire@2

; 225  : 			{
; 226  : 				pbuf[count++] = (ShaderParamUsage)i;

	mov	ecx, DWORD PTR _count$146475[ebp]
	mov	edx, DWORD PTR _pbuf$[ebp]
	mov	eax, DWORD PTR _i$146476[ebp]
	mov	DWORD PTR [edx+ecx*4], eax
	mov	ecx, DWORD PTR _count$146475[ebp]
	add	ecx, 1
	mov	DWORD PTR _count$146475[ebp], ecx

; 227  : 			}

	jmp	SHORT $LN2@getRequire@2
$LN1@getRequire@2:

; 228  : 
; 229  : 			assert(count < maxbuf);
; 230  : 			return count;

	mov	edx, DWORD PTR _count$146475[ebp]
	mov	DWORD PTR $T159195[ebp], edx
	mov	DWORD PTR __$EHRec$[ebp+8], -1
	lea	ecx, DWORD PTR _lockfunc$[ebp]
	call	DWORD PTR __imp_??1LockFunctor@Ogre@@QAE@XZ
	mov	eax, DWORD PTR $T159195[ebp]
	jmp	SHORT $LN8@getRequire@2
$LN4@getRequire@2:

; 231  : 		}
; 232  : 
; 233  : 		/*ShaderEnvKey2 key;
; 234  : 		key.env = env;
; 235  : 		key.macros = macros;
; 236  : 		key.tmp = (usage<<16)|lod;
; 237  : 
; 238  : 		LockFunctor lockfunc(&m_TechMapLock);
; 239  : 		std::map<ShaderEnvKey2, D3DShaderTechnique *>::iterator iter = m_Techniques.find(key);
; 240  : 		if(iter != m_Techniques.end())
; 241  : 		{
; 242  : 			return iter->second->getRequiredParams(pbuf, maxbuf);
; 243  : 		}
; 244  : 		else
; 245  : 		{
; 246  : 			size_t count = 0;
; 247  : 			for(int i=SPU_INSTANCE_PARAM; i<SPU_ENV_PARAM_END; i++)
; 248  : 			{
; 249  : 				pbuf[count++] = (ShaderParamUsage)i;
; 250  : 			}
; 251  : 
; 252  : 			assert(count < maxbuf);
; 253  : 			return count;
; 254  : 		}*/
; 255  : 
; 256  : 
; 257  : 		//ShaderEnvKey2 key;
; 258  : 		//key.env = env;
; 259  : 		//key.macros = macros;
; 260  : 		//key.tmp = (usage<<16)|lod;
; 261  : 
; 262  : 		//LockFunctor lockfunc(&m_TechMapLock);
; 263  : 		//std::map<ShaderEnvKey2, D3DShaderTechnique *>::iterator iter = m_Techniques.find(key);
; 264  : 		//if(iter != m_Techniques.end())
; 265  : 		//{
; 266  : 		//	return iter->second->getRequiredParams(pbuf, maxbuf);
; 267  : 		//}
; 268  : 		//else return 0;
; 269  : 
; 270  : 		/*
; 271  : 		ShaderEnvKey key;
; 272  : 		key.env = env;
; 273  : 		key.macros = macro;	
; 274  : 
; 275  : 		D3D9Shader *pshader = NULL;
; 276  : 		D3D9ShaderTableIter iter = m_Shaders.find(key);
; 277  : 		if(iter != m_Shaders.end())
; 278  : 		{
; 279  : 			pshader = iter->second;
; 280  : 
; 281  : 			if (pshader == NULL)
; 282  : 				return 0;
; 283  : 
; 284  : 			ShaderTechnique *ptech = pshader->getTechnique(lod, usage);
; 285  : 			if(ptech == NULL) return 0;
; 286  : 			else return ptech->getRequiredParams(pbuf, maxbuf);
; 287  : 		}
; 288  : 		else
; 289  : 		{
; 290  : 			size_t count = 0;
; 291  : 			for(int i=SPU_INSTANCE_PARAM; i<SPU_ENV_PARAM_END; i++)
; 292  : 			{
; 293  : 				pbuf[count++] = (ShaderParamUsage)i;
; 294  : 			}
; 295  : 
; 296  : 			assert(count < maxbuf);
; 297  : 			return count;
; 298  : 		}*/
; 299  : 	}

	mov	DWORD PTR __$EHRec$[ebp+8], -1
	lea	ecx, DWORD PTR _lockfunc$[ebp]
	call	DWORD PTR __imp_??1LockFunctor@Ogre@@QAE@XZ
$LN8@getRequire@2:
	mov	ecx, DWORD PTR __$EHRec$[ebp]
	mov	DWORD PTR fs:0, ecx
	pop	ecx
	mov	esp, ebp
	pop	ebp
	ret	24					; 00000018H
_TEXT	ENDS
text$x	SEGMENT
__unwindfunclet$?getRequiredParams@D3DMaterialTemplate@Ogre@@UAEIPAW4ShaderParamUsage@2@IABUShaderEnvFlags@2@ABUMaterialMacro@2@IW4RenderUsage@2@@Z$0:
	lea	ecx, DWORD PTR _lockfunc$[ebp]
	jmp	DWORD PTR __imp_??1LockFunctor@Ogre@@QAE@XZ
__ehhandler$?getRequiredParams@D3DMaterialTemplate@Ogre@@UAEIPAW4ShaderParamUsage@2@IABUShaderEnvFlags@2@ABUMaterialMacro@2@IW4RenderUsage@2@@Z:
	mov	edx, DWORD PTR [esp+8]
	lea	eax, DWORD PTR [edx+12]
	mov	ecx, DWORD PTR [edx-68]
	xor	ecx, eax
	call	@__security_check_cookie@4
	mov	eax, OFFSET __ehfuncinfo$?getRequiredParams@D3DMaterialTemplate@Ogre@@UAEIPAW4ShaderParamUsage@2@IABUShaderEnvFlags@2@ABUMaterialMacro@2@IW4RenderUsage@2@@Z
	jmp	___CxxFrameHandler3
text$x	ENDS
?getRequiredParams@D3DMaterialTemplate@Ogre@@UAEIPAW4ShaderParamUsage@2@IABUShaderEnvFlags@2@ABUMaterialMacro@2@IW4RenderUsage@2@@Z ENDP ; Ogre::D3DMaterialTemplate::getRequiredParams
PUBLIC	?onLostDevice@D3DMaterialTemplate@Ogre@@QAEXXZ	; Ogre::D3DMaterialTemplate::onLostDevice
EXTRN	?onLostDevice@CompiledShaderGroup@Ogre@@QAEXXZ:PROC ; Ogre::CompiledShaderGroup::onLostDevice
; Function compile flags: /Odtp
_TEXT	SEGMENT
_this$ = -28						; size = 4
$T159203 = -24						; size = 8
$T159202 = -16						; size = 8
_iter$ = -8						; size = 8
?onLostDevice@D3DMaterialTemplate@Ogre@@QAEXXZ PROC	; Ogre::D3DMaterialTemplate::onLostDevice
; _this$ = ecx

; 302  : 	{

	push	ebp
	mov	ebp, esp
	sub	esp, 28					; 0000001cH
	mov	DWORD PTR _this$[ebp], ecx

; 303  : 		if (m_pEffectGroup)

	mov	eax, DWORD PTR _this$[ebp]
	cmp	DWORD PTR [eax+64], 0
	je	SHORT $LN4@onLostDevi

; 304  : 			m_pEffectGroup->onLostDevice();

	mov	ecx, DWORD PTR _this$[ebp]
	mov	ecx, DWORD PTR [ecx+64]
	call	?onLostDevice@CompiledShaderGroup@Ogre@@QAEXXZ ; Ogre::CompiledShaderGroup::onLostDevice
$LN4@onLostDevi:

; 305  : 
; 306  : 		std::map<FixedString, CompiledShaderGroup *>::iterator iter = m_ShaderGroups.begin();

	lea	edx, DWORD PTR _iter$[ebp]
	push	edx
	mov	ecx, DWORD PTR _this$[ebp]
	add	ecx, 76					; 0000004cH
	call	?begin@?$_Tree@V?$_Tmap_traits@VFixedString@Ogre@@PAVCompiledShaderGroup@2@U?$less@VFixedString@Ogre@@@std@@V?$allocator@U?$pair@$$CBVFixedString@Ogre@@PAVCompiledShaderGroup@2@@std@@@5@$0A@@std@@@std@@QAE?AViterator@12@XZ ; std::_Tree<std::_Tmap_traits<Ogre::FixedString,Ogre::CompiledShaderGroup *,std::less<Ogre::FixedString>,std::allocator<std::pair<Ogre::FixedString const ,Ogre::CompiledShaderGroup *> >,0> >::begin
	jmp	SHORT $LN3@onLostDevi
$LN2@onLostDevi:

; 307  : 		for(; iter!=m_ShaderGroups.end(); iter++)

	push	0
	lea	eax, DWORD PTR $T159202[ebp]
	push	eax
	lea	ecx, DWORD PTR _iter$[ebp]
	call	??Eiterator@?$_Tree@V?$_Tmap_traits@VFixedString@Ogre@@PAVCompiledShaderGroup@2@U?$less@VFixedString@Ogre@@@std@@V?$allocator@U?$pair@$$CBVFixedString@Ogre@@PAVCompiledShaderGroup@2@@std@@@5@$0A@@std@@@std@@QAE?AV012@H@Z ; std::_Tree<std::_Tmap_traits<Ogre::FixedString,Ogre::CompiledShaderGroup *,std::less<Ogre::FixedString>,std::allocator<std::pair<Ogre::FixedString const ,Ogre::CompiledShaderGroup *> >,0> >::iterator::operator++
$LN3@onLostDevi:
	lea	ecx, DWORD PTR $T159203[ebp]
	push	ecx
	mov	ecx, DWORD PTR _this$[ebp]
	add	ecx, 76					; 0000004cH
	call	?end@?$_Tree@V?$_Tmap_traits@VFixedString@Ogre@@PAVCompiledShaderGroup@2@U?$less@VFixedString@Ogre@@@std@@V?$allocator@U?$pair@$$CBVFixedString@Ogre@@PAVCompiledShaderGroup@2@@std@@@5@$0A@@std@@@std@@QAE?AViterator@12@XZ ; std::_Tree<std::_Tmap_traits<Ogre::FixedString,Ogre::CompiledShaderGroup *,std::less<Ogre::FixedString>,std::allocator<std::pair<Ogre::FixedString const ,Ogre::CompiledShaderGroup *> >,0> >::end
	push	eax
	lea	ecx, DWORD PTR _iter$[ebp]
	call	??9const_iterator@?$_Tree@V?$_Tmap_traits@VFixedString@Ogre@@PAVCompiledShaderGroup@2@U?$less@VFixedString@Ogre@@@std@@V?$allocator@U?$pair@$$CBVFixedString@Ogre@@PAVCompiledShaderGroup@2@@std@@@5@$0A@@std@@@std@@QBE_NABV012@@Z ; std::_Tree<std::_Tmap_traits<Ogre::FixedString,Ogre::CompiledShaderGroup *,std::less<Ogre::FixedString>,std::allocator<std::pair<Ogre::FixedString const ,Ogre::CompiledShaderGroup *> >,0> >::const_iterator::operator!=
	movzx	edx, al
	test	edx, edx
	je	SHORT $LN5@onLostDevi

; 308  : 		{
; 309  : 			iter->second->onLostDevice();

	lea	ecx, DWORD PTR _iter$[ebp]
	call	??Citerator@?$_Tree@V?$_Tmap_traits@VFixedString@Ogre@@PAVCompiledShaderGroup@2@U?$less@VFixedString@Ogre@@@std@@V?$allocator@U?$pair@$$CBVFixedString@Ogre@@PAVCompiledShaderGroup@2@@std@@@5@$0A@@std@@@std@@QBEPAU?$pair@$$CBVFixedString@Ogre@@PAVCompiledShaderGroup@2@@2@XZ ; std::_Tree<std::_Tmap_traits<Ogre::FixedString,Ogre::CompiledShaderGroup *,std::less<Ogre::FixedString>,std::allocator<std::pair<Ogre::FixedString const ,Ogre::CompiledShaderGroup *> >,0> >::iterator::operator->
	mov	ecx, DWORD PTR [eax+4]
	call	?onLostDevice@CompiledShaderGroup@Ogre@@QAEXXZ ; Ogre::CompiledShaderGroup::onLostDevice
	jmp	SHORT $LN2@onLostDevi
$LN5@onLostDevi:

; 310  : 		}
; 311  : 	}

	mov	esp, ebp
	pop	ebp
	ret	0
?onLostDevice@D3DMaterialTemplate@Ogre@@QAEXXZ ENDP	; Ogre::D3DMaterialTemplate::onLostDevice
_TEXT	ENDS
PUBLIC	?onResetDevice@D3DMaterialTemplate@Ogre@@QAE_NXZ ; Ogre::D3DMaterialTemplate::onResetDevice
EXTRN	?onResetDevice@CompiledShaderGroup@Ogre@@QAE_NXZ:PROC ; Ogre::CompiledShaderGroup::onResetDevice
; Function compile flags: /Odtp
_TEXT	SEGMENT
_this$ = -28						; size = 4
$T159206 = -24						; size = 8
$T159205 = -16						; size = 8
_iter$ = -8						; size = 8
?onResetDevice@D3DMaterialTemplate@Ogre@@QAE_NXZ PROC	; Ogre::D3DMaterialTemplate::onResetDevice
; _this$ = ecx

; 314  : 	{

	push	ebp
	mov	ebp, esp
	sub	esp, 28					; 0000001cH
	mov	DWORD PTR _this$[ebp], ecx

; 315  : 		if (m_pEffectGroup)

	mov	eax, DWORD PTR _this$[ebp]
	cmp	DWORD PTR [eax+64], 0
	je	SHORT $LN6@onResetDev

; 316  : 		{
; 317  : 			if(!m_pEffectGroup->onResetDevice()) return false;

	mov	ecx, DWORD PTR _this$[ebp]
	mov	ecx, DWORD PTR [ecx+64]
	call	?onResetDevice@CompiledShaderGroup@Ogre@@QAE_NXZ ; Ogre::CompiledShaderGroup::onResetDevice
	movzx	edx, al
	test	edx, edx
	jne	SHORT $LN6@onResetDev
	xor	al, al
	jmp	SHORT $LN7@onResetDev
$LN6@onResetDev:

; 318  : 		}
; 319  : 
; 320  : 		std::map<FixedString, CompiledShaderGroup *>::iterator iter = m_ShaderGroups.begin();

	lea	eax, DWORD PTR _iter$[ebp]
	push	eax
	mov	ecx, DWORD PTR _this$[ebp]
	add	ecx, 76					; 0000004cH
	call	?begin@?$_Tree@V?$_Tmap_traits@VFixedString@Ogre@@PAVCompiledShaderGroup@2@U?$less@VFixedString@Ogre@@@std@@V?$allocator@U?$pair@$$CBVFixedString@Ogre@@PAVCompiledShaderGroup@2@@std@@@5@$0A@@std@@@std@@QAE?AViterator@12@XZ ; std::_Tree<std::_Tmap_traits<Ogre::FixedString,Ogre::CompiledShaderGroup *,std::less<Ogre::FixedString>,std::allocator<std::pair<Ogre::FixedString const ,Ogre::CompiledShaderGroup *> >,0> >::begin
	jmp	SHORT $LN4@onResetDev
$LN3@onResetDev:

; 321  : 		for(; iter!=m_ShaderGroups.end(); iter++)

	push	0
	lea	ecx, DWORD PTR $T159205[ebp]
	push	ecx
	lea	ecx, DWORD PTR _iter$[ebp]
	call	??Eiterator@?$_Tree@V?$_Tmap_traits@VFixedString@Ogre@@PAVCompiledShaderGroup@2@U?$less@VFixedString@Ogre@@@std@@V?$allocator@U?$pair@$$CBVFixedString@Ogre@@PAVCompiledShaderGroup@2@@std@@@5@$0A@@std@@@std@@QAE?AV012@H@Z ; std::_Tree<std::_Tmap_traits<Ogre::FixedString,Ogre::CompiledShaderGroup *,std::less<Ogre::FixedString>,std::allocator<std::pair<Ogre::FixedString const ,Ogre::CompiledShaderGroup *> >,0> >::iterator::operator++
$LN4@onResetDev:
	lea	edx, DWORD PTR $T159206[ebp]
	push	edx
	mov	ecx, DWORD PTR _this$[ebp]
	add	ecx, 76					; 0000004cH
	call	?end@?$_Tree@V?$_Tmap_traits@VFixedString@Ogre@@PAVCompiledShaderGroup@2@U?$less@VFixedString@Ogre@@@std@@V?$allocator@U?$pair@$$CBVFixedString@Ogre@@PAVCompiledShaderGroup@2@@std@@@5@$0A@@std@@@std@@QAE?AViterator@12@XZ ; std::_Tree<std::_Tmap_traits<Ogre::FixedString,Ogre::CompiledShaderGroup *,std::less<Ogre::FixedString>,std::allocator<std::pair<Ogre::FixedString const ,Ogre::CompiledShaderGroup *> >,0> >::end
	push	eax
	lea	ecx, DWORD PTR _iter$[ebp]
	call	??9const_iterator@?$_Tree@V?$_Tmap_traits@VFixedString@Ogre@@PAVCompiledShaderGroup@2@U?$less@VFixedString@Ogre@@@std@@V?$allocator@U?$pair@$$CBVFixedString@Ogre@@PAVCompiledShaderGroup@2@@std@@@5@$0A@@std@@@std@@QBE_NABV012@@Z ; std::_Tree<std::_Tmap_traits<Ogre::FixedString,Ogre::CompiledShaderGroup *,std::less<Ogre::FixedString>,std::allocator<std::pair<Ogre::FixedString const ,Ogre::CompiledShaderGroup *> >,0> >::const_iterator::operator!=
	movzx	eax, al
	test	eax, eax
	je	SHORT $LN2@onResetDev

; 322  : 		{
; 323  : 			if(!iter->second->onResetDevice()) return false;

	lea	ecx, DWORD PTR _iter$[ebp]
	call	??Citerator@?$_Tree@V?$_Tmap_traits@VFixedString@Ogre@@PAVCompiledShaderGroup@2@U?$less@VFixedString@Ogre@@@std@@V?$allocator@U?$pair@$$CBVFixedString@Ogre@@PAVCompiledShaderGroup@2@@std@@@5@$0A@@std@@@std@@QBEPAU?$pair@$$CBVFixedString@Ogre@@PAVCompiledShaderGroup@2@@2@XZ ; std::_Tree<std::_Tmap_traits<Ogre::FixedString,Ogre::CompiledShaderGroup *,std::less<Ogre::FixedString>,std::allocator<std::pair<Ogre::FixedString const ,Ogre::CompiledShaderGroup *> >,0> >::iterator::operator->
	mov	ecx, DWORD PTR [eax+4]
	call	?onResetDevice@CompiledShaderGroup@Ogre@@QAE_NXZ ; Ogre::CompiledShaderGroup::onResetDevice
	movzx	ecx, al
	test	ecx, ecx
	jne	SHORT $LN1@onResetDev
	xor	al, al
	jmp	SHORT $LN7@onResetDev
$LN1@onResetDev:

; 324  : 		}

	jmp	SHORT $LN3@onResetDev
$LN2@onResetDev:

; 325  : 
; 326  : 		return true;

	mov	al, 1
$LN7@onResetDev:

; 327  : 	}

	mov	esp, ebp
	pop	ebp
	ret	0
?onResetDevice@D3DMaterialTemplate@Ogre@@QAE_NXZ ENDP	; Ogre::D3DMaterialTemplate::onResetDevice
_TEXT	ENDS
EXTRN	?compileAllShaders@CompiledShaderGroup@Ogre@@QAEXXZ:PROC ; Ogre::CompiledShaderGroup::compileAllShaders
; Function compile flags: /Odtp
_TEXT	SEGMENT
_this$ = -28						; size = 4
$T159209 = -24						; size = 8
$T159208 = -16						; size = 8
_iterEffectGroup$ = -8					; size = 8
?compileAllShaders@D3DMaterialTemplate@Ogre@@UAEXXZ PROC ; Ogre::D3DMaterialTemplate::compileAllShaders
; _this$ = ecx

; 330  : 	{

	push	ebp
	mov	ebp, esp
	sub	esp, 28					; 0000001cH
	mov	DWORD PTR _this$[ebp], ecx

; 331  : 		if (m_pEffectGroup)

	mov	eax, DWORD PTR _this$[ebp]
	cmp	DWORD PTR [eax+64], 0
	je	SHORT $LN4@compileAll

; 332  : 		{
; 333  : 			m_pEffectGroup->compileAllShaders();

	mov	ecx, DWORD PTR _this$[ebp]
	mov	ecx, DWORD PTR [ecx+64]
	call	?compileAllShaders@CompiledShaderGroup@Ogre@@QAEXXZ ; Ogre::CompiledShaderGroup::compileAllShaders
$LN4@compileAll:

; 334  : 		}
; 335  : 
; 336  : 		std::map<FixedString, CompiledShaderGroup *>::iterator iterEffectGroup =
; 337  : 			m_ShaderGroups.begin();

	lea	edx, DWORD PTR _iterEffectGroup$[ebp]
	push	edx
	mov	ecx, DWORD PTR _this$[ebp]
	add	ecx, 76					; 0000004cH
	call	?begin@?$_Tree@V?$_Tmap_traits@VFixedString@Ogre@@PAVCompiledShaderGroup@2@U?$less@VFixedString@Ogre@@@std@@V?$allocator@U?$pair@$$CBVFixedString@Ogre@@PAVCompiledShaderGroup@2@@std@@@5@$0A@@std@@@std@@QAE?AViterator@12@XZ ; std::_Tree<std::_Tmap_traits<Ogre::FixedString,Ogre::CompiledShaderGroup *,std::less<Ogre::FixedString>,std::allocator<std::pair<Ogre::FixedString const ,Ogre::CompiledShaderGroup *> >,0> >::begin
	jmp	SHORT $LN3@compileAll
$LN2@compileAll:

; 338  : 		for (; iterEffectGroup!=m_ShaderGroups.end(); iterEffectGroup++)

	push	0
	lea	eax, DWORD PTR $T159208[ebp]
	push	eax
	lea	ecx, DWORD PTR _iterEffectGroup$[ebp]
	call	??Eiterator@?$_Tree@V?$_Tmap_traits@VFixedString@Ogre@@PAVCompiledShaderGroup@2@U?$less@VFixedString@Ogre@@@std@@V?$allocator@U?$pair@$$CBVFixedString@Ogre@@PAVCompiledShaderGroup@2@@std@@@5@$0A@@std@@@std@@QAE?AV012@H@Z ; std::_Tree<std::_Tmap_traits<Ogre::FixedString,Ogre::CompiledShaderGroup *,std::less<Ogre::FixedString>,std::allocator<std::pair<Ogre::FixedString const ,Ogre::CompiledShaderGroup *> >,0> >::iterator::operator++
$LN3@compileAll:
	lea	ecx, DWORD PTR $T159209[ebp]
	push	ecx
	mov	ecx, DWORD PTR _this$[ebp]
	add	ecx, 76					; 0000004cH
	call	?end@?$_Tree@V?$_Tmap_traits@VFixedString@Ogre@@PAVCompiledShaderGroup@2@U?$less@VFixedString@Ogre@@@std@@V?$allocator@U?$pair@$$CBVFixedString@Ogre@@PAVCompiledShaderGroup@2@@std@@@5@$0A@@std@@@std@@QAE?AViterator@12@XZ ; std::_Tree<std::_Tmap_traits<Ogre::FixedString,Ogre::CompiledShaderGroup *,std::less<Ogre::FixedString>,std::allocator<std::pair<Ogre::FixedString const ,Ogre::CompiledShaderGroup *> >,0> >::end
	push	eax
	lea	ecx, DWORD PTR _iterEffectGroup$[ebp]
	call	??9const_iterator@?$_Tree@V?$_Tmap_traits@VFixedString@Ogre@@PAVCompiledShaderGroup@2@U?$less@VFixedString@Ogre@@@std@@V?$allocator@U?$pair@$$CBVFixedString@Ogre@@PAVCompiledShaderGroup@2@@std@@@5@$0A@@std@@@std@@QBE_NABV012@@Z ; std::_Tree<std::_Tmap_traits<Ogre::FixedString,Ogre::CompiledShaderGroup *,std::less<Ogre::FixedString>,std::allocator<std::pair<Ogre::FixedString const ,Ogre::CompiledShaderGroup *> >,0> >::const_iterator::operator!=
	movzx	edx, al
	test	edx, edx
	je	SHORT $LN5@compileAll

; 339  : 		{
; 340  : 			iterEffectGroup->second->compileAllShaders();

	lea	ecx, DWORD PTR _iterEffectGroup$[ebp]
	call	??Citerator@?$_Tree@V?$_Tmap_traits@VFixedString@Ogre@@PAVCompiledShaderGroup@2@U?$less@VFixedString@Ogre@@@std@@V?$allocator@U?$pair@$$CBVFixedString@Ogre@@PAVCompiledShaderGroup@2@@std@@@5@$0A@@std@@@std@@QBEPAU?$pair@$$CBVFixedString@Ogre@@PAVCompiledShaderGroup@2@@2@XZ ; std::_Tree<std::_Tmap_traits<Ogre::FixedString,Ogre::CompiledShaderGroup *,std::less<Ogre::FixedString>,std::allocator<std::pair<Ogre::FixedString const ,Ogre::CompiledShaderGroup *> >,0> >::iterator::operator->
	mov	ecx, DWORD PTR [eax+4]
	call	?compileAllShaders@CompiledShaderGroup@Ogre@@QAEXXZ ; Ogre::CompiledShaderGroup::compileAllShaders
	jmp	SHORT $LN2@compileAll
$LN5@compileAll:

; 341  : 		}
; 342  : 	}

	mov	esp, ebp
	pop	ebp
	ret	0
?compileAllShaders@D3DMaterialTemplate@Ogre@@UAEXXZ ENDP ; Ogre::D3DMaterialTemplate::compileAllShaders
_TEXT	ENDS
PUBLIC	?push_back@?$vector@PAVCompiledShader@Ogre@@V?$allocator@PAVCompiledShader@Ogre@@@std@@@std@@QAEXABQAVCompiledShader@Ogre@@@Z ; std::vector<Ogre::CompiledShader *,std::allocator<Ogre::CompiledShader *> >::push_back
PUBLIC	??A?$map@TShaderEnvKey@Ogre@@PAVCompiledShader@2@U?$less@TShaderEnvKey@Ogre@@@std@@V?$allocator@U?$pair@$$CBTShaderEnvKey@Ogre@@PAVCompiledShader@2@@std@@@5@@std@@QAEAAPAVCompiledShader@Ogre@@ABTShaderEnvKey@3@@Z ; std::map<Ogre::ShaderEnvKey,Ogre::CompiledShader *,std::less<Ogre::ShaderEnvKey>,std::allocator<std::pair<Ogre::ShaderEnvKey const ,Ogre::CompiledShader *> > >::operator[]
PUBLIC	??A?$vector@DV?$allocator@D@std@@@std@@QAEAADI@Z ; std::vector<char,std::allocator<char> >::operator[]
PUBLIC	?resize@?$vector@DV?$allocator@D@std@@@std@@QAEXI@Z ; std::vector<char,std::allocator<char> >::resize
PUBLIC	__$ArrayPad$
PUBLIC	?loadCompiledShaders@D3DMaterialTemplate@Ogre@@QAEXPAU_iobuf@@AAVCMd5@@@Z ; Ogre::D3DMaterialTemplate::loadCompiledShaders
EXTRN	??_U@YAPAXI@Z:PROC				; operator new[]
EXTRN	??0CompiledShader@Ogre@@QAE@PAVD3DMaterialTemplate@1@W4COMPILED_TYPE@1@@Z:PROC ; Ogre::CompiledShader::CompiledShader
EXTRN	?Append@CMd5@@QAEXPBEI@Z:PROC			; CMd5::Append
EXTRN	__imp__fread:PROC
xdata$x	SEGMENT
__ehfuncinfo$?loadCompiledShaders@D3DMaterialTemplate@Ogre@@QAEXPAU_iobuf@@AAVCMd5@@@Z DD 019930522H
	DD	07H
	DD	FLAT:__unwindtable$?loadCompiledShaders@D3DMaterialTemplate@Ogre@@QAEXPAU_iobuf@@AAVCMd5@@@Z
	DD	2 DUP(00H)
	DD	2 DUP(00H)
	DD	00H
	DD	00H
__unwindtable$?loadCompiledShaders@D3DMaterialTemplate@Ogre@@QAEXPAU_iobuf@@AAVCMd5@@@Z DD 0ffffffffH
	DD	FLAT:__unwindfunclet$?loadCompiledShaders@D3DMaterialTemplate@Ogre@@QAEXPAU_iobuf@@AAVCMd5@@@Z$0
	DD	00H
	DD	FLAT:__unwindfunclet$?loadCompiledShaders@D3DMaterialTemplate@Ogre@@QAEXPAU_iobuf@@AAVCMd5@@@Z$1
	DD	0ffffffffH
	DD	FLAT:__unwindfunclet$?loadCompiledShaders@D3DMaterialTemplate@Ogre@@QAEXPAU_iobuf@@AAVCMd5@@@Z$1
	DD	0ffffffffH
	DD	FLAT:__unwindfunclet$?loadCompiledShaders@D3DMaterialTemplate@Ogre@@QAEXPAU_iobuf@@AAVCMd5@@@Z$2
	DD	0ffffffffH
	DD	FLAT:__unwindfunclet$?loadCompiledShaders@D3DMaterialTemplate@Ogre@@QAEXPAU_iobuf@@AAVCMd5@@@Z$3
	DD	04H
	DD	FLAT:__unwindfunclet$?loadCompiledShaders@D3DMaterialTemplate@Ogre@@QAEXPAU_iobuf@@AAVCMd5@@@Z$4
	DD	04H
	DD	FLAT:__unwindfunclet$?loadCompiledShaders@D3DMaterialTemplate@Ogre@@QAEXPAU_iobuf@@AAVCMd5@@@Z$5
; Function compile flags: /Odtp
xdata$x	ENDS
_TEXT	SEGMENT
tv290 = -444						; size = 4
tv240 = -440						; size = 4
tv141 = -436						; size = 4
tv130 = -432						; size = 4
_this$ = -428						; size = 4
$T159231 = -424						; size = 4
$T159227 = -420						; size = 4
$T159226 = -416						; size = 4
$T159223 = -412						; size = 4
$T159222 = -408						; size = 4
$T159221 = -404						; size = 4
$T159218 = -400						; size = 4
$T159217 = -396						; size = 4
$T159214 = -392						; size = 4
$T159213 = -388						; size = 4
$T159212 = -384						; size = 4
_bufferSize$146633 = -380				; size = 4
_newShader$146623 = -376				; size = 4
_key$146628 = -372					; size = 16
_bufferKey$146631 = -356				; size = 4
_j$146619 = -352					; size = 4
_compiledShaderNum$146617 = -348			; size = 4
_shaderGroup$146612 = -344				; size = 4
_name$146606 = -340					; size = 4
_pathstr$146611 = -336					; size = 4
_type$146600 = -332					; size = 4
_nameLength$146604 = -328				; size = 4
_compiledType$146601 = -324				; size = 4
_i$146596 = -320					; size = 4
_bufferSize$146588 = -316				; size = 4
_newShader$146579 = -312				; size = 4
_key$146584 = -308					; size = 16
_bufferKey$146586 = -292				; size = 4
_i$146575 = -288					; size = 4
_path$146566 = -284					; size = 256
__$ArrayPad$ = -24					; size = 4
_numShaderGroups$ = -20					; size = 4
_numEffectCompiledShader$ = -16				; size = 4
__$EHRec$ = -12						; size = 12
_fp$ = 8						; size = 4
_md5$ = 12						; size = 4
?loadCompiledShaders@D3DMaterialTemplate@Ogre@@QAEXPAU_iobuf@@AAVCMd5@@@Z PROC ; Ogre::D3DMaterialTemplate::loadCompiledShaders
; _this$ = ecx

; 345  : 	{

	push	ebp
	mov	ebp, esp
	push	-1
	push	__ehhandler$?loadCompiledShaders@D3DMaterialTemplate@Ogre@@QAEXPAU_iobuf@@AAVCMd5@@@Z
	mov	eax, DWORD PTR fs:0
	push	eax
	sub	esp, 432				; 000001b0H
	mov	eax, DWORD PTR ___security_cookie
	xor	eax, ebp
	mov	DWORD PTR __$ArrayPad$[ebp], eax
	push	eax
	lea	eax, DWORD PTR __$EHRec$[ebp]
	mov	DWORD PTR fs:0, eax
	mov	DWORD PTR _this$[ebp], ecx
	mov	DWORD PTR $T159231[ebp], 0

; 346  : 		// m_pEffectGroup
; 347  : 		uint numEffectCompiledShader = 0;

	mov	DWORD PTR _numEffectCompiledShader$[ebp], 0

; 348  : 		fread(&numEffectCompiledShader, sizeof(numEffectCompiledShader), 1, fp);

	mov	eax, DWORD PTR _fp$[ebp]
	push	eax
	push	1
	push	4
	lea	ecx, DWORD PTR _numEffectCompiledShader$[ebp]
	push	ecx
	call	DWORD PTR __imp__fread
	add	esp, 16					; 00000010H

; 349  : 
; 350  : 		// md5
; 351  : 		md5.Append((unsigned char*)&numEffectCompiledShader, sizeof(uint));

	push	4
	lea	edx, DWORD PTR _numEffectCompiledShader$[ebp]
	push	edx
	mov	ecx, DWORD PTR _md5$[ebp]
	call	?Append@CMd5@@QAEXPBEI@Z		; CMd5::Append

; 352  : 
; 353  : 		if (numEffectCompiledShader > 0)

	cmp	DWORD PTR _numEffectCompiledShader$[ebp], 0
	jbe	$LN11@loadCompil

; 354  : 		{
; 355  : 			char path[256];
; 356  : 			sprintf(path, "%s%s.fx", OGRE_SHADER_PATH, (const char *)m_Name);

	mov	ecx, DWORD PTR _this$[ebp]
	add	ecx, 36					; 00000024H
	call	DWORD PTR __imp_??BFixedString@Ogre@@QBEPBDXZ
	push	eax
	push	OFFSET $SG146568
	push	OFFSET $SG146569
	lea	eax, DWORD PTR _path$146566[ebp]
	push	eax
	call	DWORD PTR __imp__sprintf
	add	esp, 16					; 00000010H

; 357  : 
; 358  : 			m_pEffectGroup = new CompiledShaderGroup(COMPILED_EFFECT, this, path);

	push	72					; 00000048H
	call	??2@YAPAXI@Z				; operator new
	add	esp, 4
	mov	DWORD PTR $T159213[ebp], eax
	mov	DWORD PTR __$EHRec$[ebp+8], 0
	cmp	DWORD PTR $T159213[ebp], 0
	je	SHORT $LN14@loadCompil
	lea	ecx, DWORD PTR _path$146566[ebp]
	push	ecx
	lea	ecx, DWORD PTR $T159214[ebp]
	call	DWORD PTR __imp_??0FixedString@Ogre@@QAE@PBD@Z
	mov	BYTE PTR __$EHRec$[ebp+8], 1
	mov	edx, DWORD PTR $T159231[ebp]
	or	edx, 1
	mov	DWORD PTR $T159231[ebp], edx
	lea	eax, DWORD PTR $T159214[ebp]
	push	eax
	mov	ecx, DWORD PTR _this$[ebp]
	push	ecx
	push	0
	mov	ecx, DWORD PTR $T159213[ebp]
	call	??0CompiledShaderGroup@Ogre@@QAE@W4COMPILED_TYPE@1@PAVD3DMaterialTemplate@1@ABVFixedString@1@@Z ; Ogre::CompiledShaderGroup::CompiledShaderGroup
	mov	DWORD PTR tv130[ebp], eax
	jmp	SHORT $LN15@loadCompil
$LN14@loadCompil:
	mov	DWORD PTR tv130[ebp], 0
$LN15@loadCompil:
	mov	edx, DWORD PTR tv130[ebp]
	mov	DWORD PTR $T159212[ebp], edx
	mov	DWORD PTR __$EHRec$[ebp+8], 2
	mov	eax, DWORD PTR _this$[ebp]
	mov	ecx, DWORD PTR $T159212[ebp]
	mov	DWORD PTR [eax+64], ecx
	mov	DWORD PTR __$EHRec$[ebp+8], -1
	mov	edx, DWORD PTR $T159231[ebp]
	and	edx, 1
	je	SHORT $LN25@loadCompil
	and	DWORD PTR $T159231[ebp], -2		; fffffffeH
	lea	ecx, DWORD PTR $T159214[ebp]
	call	DWORD PTR __imp_??1FixedString@Ogre@@QAE@XZ
$LN25@loadCompil:

; 359  : 
; 360  : 			for (int i=0; i<numEffectCompiledShader; i++)

	mov	DWORD PTR _i$146575[ebp], 0
	jmp	SHORT $LN10@loadCompil
$LN9@loadCompil:
	mov	eax, DWORD PTR _i$146575[ebp]
	add	eax, 1
	mov	DWORD PTR _i$146575[ebp], eax
$LN10@loadCompil:
	mov	ecx, DWORD PTR _i$146575[ebp]
	cmp	ecx, DWORD PTR _numEffectCompiledShader$[ebp]
	jae	$LN8@loadCompil

; 361  : 			{
; 362  : 				CompiledShader *newShader = new CompiledShader(this, COMPILED_EFFECT);

	push	368					; 00000170H
	call	??2@YAPAXI@Z				; operator new
	add	esp, 4
	mov	DWORD PTR $T159218[ebp], eax
	mov	DWORD PTR __$EHRec$[ebp+8], 3
	cmp	DWORD PTR $T159218[ebp], 0
	je	SHORT $LN16@loadCompil
	push	0
	mov	edx, DWORD PTR _this$[ebp]
	push	edx
	mov	ecx, DWORD PTR $T159218[ebp]
	call	??0CompiledShader@Ogre@@QAE@PAVD3DMaterialTemplate@1@W4COMPILED_TYPE@1@@Z ; Ogre::CompiledShader::CompiledShader
	mov	DWORD PTR tv141[ebp], eax
	jmp	SHORT $LN17@loadCompil
$LN16@loadCompil:
	mov	DWORD PTR tv141[ebp], 0
$LN17@loadCompil:
	mov	eax, DWORD PTR tv141[ebp]
	mov	DWORD PTR $T159217[ebp], eax
	mov	DWORD PTR __$EHRec$[ebp+8], -1
	mov	ecx, DWORD PTR $T159217[ebp]
	mov	DWORD PTR _newShader$146579[ebp], ecx

; 363  : 
; 364  : 				ShaderEnvKey key;

	lea	ecx, DWORD PTR _key$146584[ebp]
	call	??0ShaderEnvKey@Ogre@@QAE@XZ		; Ogre::ShaderEnvKey::ShaderEnvKey

; 365  : 				fread(&key, sizeof(key), 1, fp);

	mov	edx, DWORD PTR _fp$[ebp]
	push	edx
	push	1
	push	16					; 00000010H
	lea	eax, DWORD PTR _key$146584[ebp]
	push	eax
	call	DWORD PTR __imp__fread
	add	esp, 16					; 00000010H

; 366  : 
; 367  : 				// md5
; 368  : 				md5.Append((unsigned char*)&key, sizeof(key));

	push	16					; 00000010H
	lea	ecx, DWORD PTR _key$146584[ebp]
	push	ecx
	mov	ecx, DWORD PTR _md5$[ebp]
	call	?Append@CMd5@@QAEXPBEI@Z		; CMd5::Append

; 369  : 
; 370  : 				uint bufferKey = 0;

	mov	DWORD PTR _bufferKey$146586[ebp], 0

; 371  : 				fread(&bufferKey, sizeof(bufferKey), 1, fp);

	mov	edx, DWORD PTR _fp$[ebp]
	push	edx
	push	1
	push	4
	lea	eax, DWORD PTR _bufferKey$146586[ebp]
	push	eax
	call	DWORD PTR __imp__fread
	add	esp, 16					; 00000010H

; 372  : 				newShader->m_BufferKey = bufferKey;

	mov	ecx, DWORD PTR _newShader$146579[ebp]
	mov	edx, DWORD PTR _bufferKey$146586[ebp]
	mov	DWORD PTR [ecx+40], edx

; 373  : 
; 374  : 				// md5
; 375  : 				md5.Append((unsigned char*)&bufferKey, sizeof(bufferKey));

	push	4
	lea	eax, DWORD PTR _bufferKey$146586[ebp]
	push	eax
	mov	ecx, DWORD PTR _md5$[ebp]
	call	?Append@CMd5@@QAEXPBEI@Z		; CMd5::Append

; 376  : 
; 377  : 				uint bufferSize = 0;

	mov	DWORD PTR _bufferSize$146588[ebp], 0

; 378  : 				fread(&bufferSize, sizeof(bufferSize), 1, fp);

	mov	ecx, DWORD PTR _fp$[ebp]
	push	ecx
	push	1
	push	4
	lea	edx, DWORD PTR _bufferSize$146588[ebp]
	push	edx
	call	DWORD PTR __imp__fread
	add	esp, 16					; 00000010H

; 379  : 
; 380  : 				// md5
; 381  : 				md5.Append((unsigned char*)&bufferSize, sizeof(bufferSize));

	push	4
	lea	eax, DWORD PTR _bufferSize$146588[ebp]
	push	eax
	mov	ecx, DWORD PTR _md5$[ebp]
	call	?Append@CMd5@@QAEXPBEI@Z		; CMd5::Append

; 382  : 				
; 383  : 				newShader->m_CompiledBuf.resize(bufferSize);

	mov	ecx, DWORD PTR _bufferSize$146588[ebp]
	push	ecx
	mov	ecx, DWORD PTR _newShader$146579[ebp]
	add	ecx, 16					; 00000010H
	call	?resize@?$vector@DV?$allocator@D@std@@@std@@QAEXI@Z ; std::vector<char,std::allocator<char> >::resize

; 384  : 				fread(&(newShader->m_CompiledBuf[0]), bufferSize*sizeof(char), 1, fp);

	mov	edx, DWORD PTR _fp$[ebp]
	push	edx
	push	1
	mov	eax, DWORD PTR _bufferSize$146588[ebp]
	push	eax
	push	0
	mov	ecx, DWORD PTR _newShader$146579[ebp]
	add	ecx, 16					; 00000010H
	call	??A?$vector@DV?$allocator@D@std@@@std@@QAEAADI@Z ; std::vector<char,std::allocator<char> >::operator[]
	push	eax
	call	DWORD PTR __imp__fread
	add	esp, 16					; 00000010H

; 385  : 
; 386  : 				// md5
; 387  : 				md5.Append((unsigned char*)&(newShader->m_CompiledBuf[0]), bufferSize*sizeof(char));

	mov	ecx, DWORD PTR _bufferSize$146588[ebp]
	push	ecx
	push	0
	mov	ecx, DWORD PTR _newShader$146579[ebp]
	add	ecx, 16					; 00000010H
	call	??A?$vector@DV?$allocator@D@std@@@std@@QAEAADI@Z ; std::vector<char,std::allocator<char> >::operator[]
	push	eax
	mov	ecx, DWORD PTR _md5$[ebp]
	call	?Append@CMd5@@QAEXPBEI@Z		; CMd5::Append

; 388  : 
; 389  : 				//if (newShader->hasID(9876))
; 390  : 				//	newShader->create();
; 391  : 
; 392  : 				m_pEffectGroup->m_MacroShaderMap[key] = newShader;

	lea	edx, DWORD PTR _key$146584[ebp]
	push	edx
	mov	eax, DWORD PTR _this$[ebp]
	mov	ecx, DWORD PTR [eax+64]
	add	ecx, 36					; 00000024H
	call	??A?$map@TShaderEnvKey@Ogre@@PAVCompiledShader@2@U?$less@TShaderEnvKey@Ogre@@@std@@V?$allocator@U?$pair@$$CBTShaderEnvKey@Ogre@@PAVCompiledShader@2@@std@@@5@@std@@QAEAAPAVCompiledShader@Ogre@@ABTShaderEnvKey@3@@Z ; std::map<Ogre::ShaderEnvKey,Ogre::CompiledShader *,std::less<Ogre::ShaderEnvKey>,std::allocator<std::pair<Ogre::ShaderEnvKey const ,Ogre::CompiledShader *> > >::operator[]
	mov	ecx, DWORD PTR _newShader$146579[ebp]
	mov	DWORD PTR [eax], ecx

; 393  : 				m_pEffectGroup->m_Shaders.push_back(newShader);

	lea	edx, DWORD PTR _newShader$146579[ebp]
	push	edx
	mov	eax, DWORD PTR _this$[ebp]
	mov	ecx, DWORD PTR [eax+64]
	add	ecx, 12					; 0000000cH
	call	?push_back@?$vector@PAVCompiledShader@Ogre@@V?$allocator@PAVCompiledShader@Ogre@@@std@@@std@@QAEXABQAVCompiledShader@Ogre@@@Z ; std::vector<Ogre::CompiledShader *,std::allocator<Ogre::CompiledShader *> >::push_back

; 394  : 			}

	jmp	$LN9@loadCompil
$LN8@loadCompil:

; 395  : 		}
; 396  : 		else

	jmp	SHORT $LN7@loadCompil
$LN11@loadCompil:

; 397  : 		{
; 398  : 			m_pEffectGroup = 0;

	mov	ecx, DWORD PTR _this$[ebp]
	mov	DWORD PTR [ecx+64], 0
$LN7@loadCompil:

; 399  : 		}
; 400  : 
; 401  : 		// m_ShaderGroups
; 402  : 		uint numShaderGroups = 0;

	mov	DWORD PTR _numShaderGroups$[ebp], 0

; 403  : 		fread(&numShaderGroups, sizeof(numShaderGroups), 1, fp);

	mov	edx, DWORD PTR _fp$[ebp]
	push	edx
	push	1
	push	4
	lea	eax, DWORD PTR _numShaderGroups$[ebp]
	push	eax
	call	DWORD PTR __imp__fread
	add	esp, 16					; 00000010H

; 404  : 
; 405  : 		// md5
; 406  : 		md5.Append((unsigned char*)&numShaderGroups, sizeof(numShaderGroups));

	push	4
	lea	ecx, DWORD PTR _numShaderGroups$[ebp]
	push	ecx
	mov	ecx, DWORD PTR _md5$[ebp]
	call	?Append@CMd5@@QAEXPBEI@Z		; CMd5::Append

; 407  : 
; 408  : 		for (int i=0; i<numShaderGroups; i++)

	mov	DWORD PTR _i$146596[ebp], 0
	jmp	SHORT $LN6@loadCompil
$LN5@loadCompil:
	mov	edx, DWORD PTR _i$146596[ebp]
	add	edx, 1
	mov	DWORD PTR _i$146596[ebp], edx
$LN6@loadCompil:
	mov	eax, DWORD PTR _i$146596[ebp]
	cmp	eax, DWORD PTR _numShaderGroups$[ebp]
	jae	$LN12@loadCompil

; 409  : 		{
; 410  : 			uint type;
; 411  : 			fread(&type, sizeof(type), 1, fp);

	mov	ecx, DWORD PTR _fp$[ebp]
	push	ecx
	push	1
	push	4
	lea	edx, DWORD PTR _type$146600[ebp]
	push	edx
	call	DWORD PTR __imp__fread
	add	esp, 16					; 00000010H

; 412  : 			COMPILED_TYPE compiledType = (COMPILED_TYPE)type;

	mov	eax, DWORD PTR _type$146600[ebp]
	mov	DWORD PTR _compiledType$146601[ebp], eax

; 413  : 
; 414  : 			// md5
; 415  : 			md5.Append((unsigned char*)&type, sizeof(type));

	push	4
	lea	ecx, DWORD PTR _type$146600[ebp]
	push	ecx
	mov	ecx, DWORD PTR _md5$[ebp]
	call	?Append@CMd5@@QAEXPBEI@Z		; CMd5::Append

; 416  : 
; 417  : 			// pathname
; 418  : 			UINT nameLength;
; 419  : 			fread(&nameLength, sizeof(nameLength), 1, fp);

	mov	edx, DWORD PTR _fp$[ebp]
	push	edx
	push	1
	push	4
	lea	eax, DWORD PTR _nameLength$146604[ebp]
	push	eax
	call	DWORD PTR __imp__fread
	add	esp, 16					; 00000010H

; 420  : 
; 421  : 			// md5
; 422  : 			md5.Append((unsigned char*)&nameLength, sizeof(nameLength));

	push	4
	lea	ecx, DWORD PTR _nameLength$146604[ebp]
	push	ecx
	mov	ecx, DWORD PTR _md5$[ebp]
	call	?Append@CMd5@@QAEXPBEI@Z		; CMd5::Append

; 423  : 
; 424  : 			char *name = new char[nameLength+1];

	mov	edx, DWORD PTR _nameLength$146604[ebp]
	add	edx, 1
	push	edx
	call	??_U@YAPAXI@Z				; operator new[]
	add	esp, 4
	mov	DWORD PTR $T159221[ebp], eax
	mov	eax, DWORD PTR $T159221[ebp]
	mov	DWORD PTR _name$146606[ebp], eax

; 425  : 			fread(name, nameLength, 1, fp);	

	mov	ecx, DWORD PTR _fp$[ebp]
	push	ecx
	push	1
	mov	edx, DWORD PTR _nameLength$146604[ebp]
	push	edx
	mov	eax, DWORD PTR _name$146606[ebp]
	push	eax
	call	DWORD PTR __imp__fread
	add	esp, 16					; 00000010H

; 426  : 
; 427  : 			// md5
; 428  : 			md5.Append((unsigned char*)name, nameLength*sizeof(char));

	mov	ecx, DWORD PTR _nameLength$146604[ebp]
	push	ecx
	mov	edx, DWORD PTR _name$146606[ebp]
	push	edx
	mov	ecx, DWORD PTR _md5$[ebp]
	call	?Append@CMd5@@QAEXPBEI@Z		; CMd5::Append

; 429  : 
; 430  : 			name[nameLength] = '\0';

	mov	eax, DWORD PTR _name$146606[ebp]
	add	eax, DWORD PTR _nameLength$146604[ebp]
	mov	BYTE PTR [eax], 0

; 431  : 			FixedString pathstr(name);

	mov	ecx, DWORD PTR _name$146606[ebp]
	push	ecx
	lea	ecx, DWORD PTR _pathstr$146611[ebp]
	call	DWORD PTR __imp_??0FixedString@Ogre@@QAE@PBD@Z
	mov	DWORD PTR __$EHRec$[ebp+8], 4

; 432  : 
; 433  : 			CompiledShaderGroup *shaderGroup = new CompiledShaderGroup(compiledType, this, pathstr);

	push	72					; 00000048H
	call	??2@YAPAXI@Z				; operator new
	add	esp, 4
	mov	DWORD PTR $T159223[ebp], eax
	mov	BYTE PTR __$EHRec$[ebp+8], 5
	cmp	DWORD PTR $T159223[ebp], 0
	je	SHORT $LN18@loadCompil
	lea	edx, DWORD PTR _pathstr$146611[ebp]
	push	edx
	mov	eax, DWORD PTR _this$[ebp]
	push	eax
	mov	ecx, DWORD PTR _compiledType$146601[ebp]
	push	ecx
	mov	ecx, DWORD PTR $T159223[ebp]
	call	??0CompiledShaderGroup@Ogre@@QAE@W4COMPILED_TYPE@1@PAVD3DMaterialTemplate@1@ABVFixedString@1@@Z ; Ogre::CompiledShaderGroup::CompiledShaderGroup
	mov	DWORD PTR tv240[ebp], eax
	jmp	SHORT $LN19@loadCompil
$LN18@loadCompil:
	mov	DWORD PTR tv240[ebp], 0
$LN19@loadCompil:
	mov	edx, DWORD PTR tv240[ebp]
	mov	DWORD PTR $T159222[ebp], edx
	mov	BYTE PTR __$EHRec$[ebp+8], 4
	mov	eax, DWORD PTR $T159222[ebp]
	mov	DWORD PTR _shaderGroup$146612[ebp], eax

; 434  : 
; 435  : 			uint compiledShaderNum;
; 436  : 			fread(&compiledShaderNum, sizeof(compiledShaderNum), 1, fp);

	mov	ecx, DWORD PTR _fp$[ebp]
	push	ecx
	push	1
	push	4
	lea	edx, DWORD PTR _compiledShaderNum$146617[ebp]
	push	edx
	call	DWORD PTR __imp__fread
	add	esp, 16					; 00000010H

; 437  : 
; 438  : 			// md5
; 439  : 			md5.Append((unsigned char*)&compiledShaderNum, sizeof(compiledShaderNum));

	push	4
	lea	eax, DWORD PTR _compiledShaderNum$146617[ebp]
	push	eax
	mov	ecx, DWORD PTR _md5$[ebp]
	call	?Append@CMd5@@QAEXPBEI@Z		; CMd5::Append

; 440  : 
; 441  : 			for (int j=0; j<compiledShaderNum; j++)

	mov	DWORD PTR _j$146619[ebp], 0
	jmp	SHORT $LN3@loadCompil
$LN2@loadCompil:
	mov	ecx, DWORD PTR _j$146619[ebp]
	add	ecx, 1
	mov	DWORD PTR _j$146619[ebp], ecx
$LN3@loadCompil:
	mov	edx, DWORD PTR _j$146619[ebp]
	cmp	edx, DWORD PTR _compiledShaderNum$146617[ebp]
	jae	$LN1@loadCompil

; 442  : 			{
; 443  : 				CompiledShader *newShader = new CompiledShader(this, compiledType);

	push	368					; 00000170H
	call	??2@YAPAXI@Z				; operator new
	add	esp, 4
	mov	DWORD PTR $T159227[ebp], eax
	mov	BYTE PTR __$EHRec$[ebp+8], 6
	cmp	DWORD PTR $T159227[ebp], 0
	je	SHORT $LN20@loadCompil
	mov	eax, DWORD PTR _compiledType$146601[ebp]
	push	eax
	mov	ecx, DWORD PTR _this$[ebp]
	push	ecx
	mov	ecx, DWORD PTR $T159227[ebp]
	call	??0CompiledShader@Ogre@@QAE@PAVD3DMaterialTemplate@1@W4COMPILED_TYPE@1@@Z ; Ogre::CompiledShader::CompiledShader
	mov	DWORD PTR tv290[ebp], eax
	jmp	SHORT $LN21@loadCompil
$LN20@loadCompil:
	mov	DWORD PTR tv290[ebp], 0
$LN21@loadCompil:
	mov	edx, DWORD PTR tv290[ebp]
	mov	DWORD PTR $T159226[ebp], edx
	mov	BYTE PTR __$EHRec$[ebp+8], 4
	mov	eax, DWORD PTR $T159226[ebp]
	mov	DWORD PTR _newShader$146623[ebp], eax

; 444  : 
; 445  : 				ShaderEnvKey key;

	lea	ecx, DWORD PTR _key$146628[ebp]
	call	??0ShaderEnvKey@Ogre@@QAE@XZ		; Ogre::ShaderEnvKey::ShaderEnvKey

; 446  : 				fread(&key, sizeof(ShaderEnvKey), 1, fp);

	mov	ecx, DWORD PTR _fp$[ebp]
	push	ecx
	push	1
	push	16					; 00000010H
	lea	edx, DWORD PTR _key$146628[ebp]
	push	edx
	call	DWORD PTR __imp__fread
	add	esp, 16					; 00000010H

; 447  : 
; 448  : 				// md5
; 449  : 				md5.Append((unsigned char*)&key, sizeof(key));

	push	16					; 00000010H
	lea	eax, DWORD PTR _key$146628[ebp]
	push	eax
	mov	ecx, DWORD PTR _md5$[ebp]
	call	?Append@CMd5@@QAEXPBEI@Z		; CMd5::Append

; 450  : 				
; 451  : 				uint bufferKey = 0;

	mov	DWORD PTR _bufferKey$146631[ebp], 0

; 452  : 				fread(&bufferKey, sizeof(bufferKey), 1, fp);

	mov	ecx, DWORD PTR _fp$[ebp]
	push	ecx
	push	1
	push	4
	lea	edx, DWORD PTR _bufferKey$146631[ebp]
	push	edx
	call	DWORD PTR __imp__fread
	add	esp, 16					; 00000010H

; 453  : 				// md5
; 454  : 				md5.Append((unsigned char*)&bufferKey, sizeof(bufferKey));

	push	4
	lea	eax, DWORD PTR _bufferKey$146631[ebp]
	push	eax
	mov	ecx, DWORD PTR _md5$[ebp]
	call	?Append@CMd5@@QAEXPBEI@Z		; CMd5::Append

; 455  : 				newShader->m_BufferKey = bufferKey;

	mov	ecx, DWORD PTR _newShader$146623[ebp]
	mov	edx, DWORD PTR _bufferKey$146631[ebp]
	mov	DWORD PTR [ecx+40], edx

; 456  : 
; 457  : 				uint bufferSize = 0;

	mov	DWORD PTR _bufferSize$146633[ebp], 0

; 458  : 				fread(&bufferSize, sizeof(bufferSize), 1, fp);

	mov	eax, DWORD PTR _fp$[ebp]
	push	eax
	push	1
	push	4
	lea	ecx, DWORD PTR _bufferSize$146633[ebp]
	push	ecx
	call	DWORD PTR __imp__fread
	add	esp, 16					; 00000010H

; 459  : 				// md5
; 460  : 				md5.Append((unsigned char*)&bufferSize, sizeof(bufferSize));

	push	4
	lea	edx, DWORD PTR _bufferSize$146633[ebp]
	push	edx
	mov	ecx, DWORD PTR _md5$[ebp]
	call	?Append@CMd5@@QAEXPBEI@Z		; CMd5::Append

; 461  : 
; 462  : 				newShader->m_CompiledBuf.resize(bufferSize);

	mov	eax, DWORD PTR _bufferSize$146633[ebp]
	push	eax
	mov	ecx, DWORD PTR _newShader$146623[ebp]
	add	ecx, 16					; 00000010H
	call	?resize@?$vector@DV?$allocator@D@std@@@std@@QAEXI@Z ; std::vector<char,std::allocator<char> >::resize

; 463  : 				fread(&newShader->m_CompiledBuf[0], bufferSize*sizeof(char), 1, fp);

	mov	ecx, DWORD PTR _fp$[ebp]
	push	ecx
	push	1
	mov	edx, DWORD PTR _bufferSize$146633[ebp]
	push	edx
	push	0
	mov	ecx, DWORD PTR _newShader$146623[ebp]
	add	ecx, 16					; 00000010H
	call	??A?$vector@DV?$allocator@D@std@@@std@@QAEAADI@Z ; std::vector<char,std::allocator<char> >::operator[]
	push	eax
	call	DWORD PTR __imp__fread
	add	esp, 16					; 00000010H

; 464  : 				// md5
; 465  : 				md5.Append((unsigned char*)&newShader->m_CompiledBuf[0], bufferSize*sizeof(char));

	mov	eax, DWORD PTR _bufferSize$146633[ebp]
	push	eax
	push	0
	mov	ecx, DWORD PTR _newShader$146623[ebp]
	add	ecx, 16					; 00000010H
	call	??A?$vector@DV?$allocator@D@std@@@std@@QAEAADI@Z ; std::vector<char,std::allocator<char> >::operator[]
	push	eax
	mov	ecx, DWORD PTR _md5$[ebp]
	call	?Append@CMd5@@QAEXPBEI@Z		; CMd5::Append

; 466  : 				
; 467  : 				//if (newShader->hasID(9876))
; 468  : 				//	newShader->create();
; 469  : 
; 470  : 				shaderGroup->m_Shaders.push_back(newShader);

	lea	ecx, DWORD PTR _newShader$146623[ebp]
	push	ecx
	mov	ecx, DWORD PTR _shaderGroup$146612[ebp]
	add	ecx, 12					; 0000000cH
	call	?push_back@?$vector@PAVCompiledShader@Ogre@@V?$allocator@PAVCompiledShader@Ogre@@@std@@@std@@QAEXABQAVCompiledShader@Ogre@@@Z ; std::vector<Ogre::CompiledShader *,std::allocator<Ogre::CompiledShader *> >::push_back

; 471  : 				shaderGroup->m_MacroShaderMap[key] = newShader;

	lea	edx, DWORD PTR _key$146628[ebp]
	push	edx
	mov	ecx, DWORD PTR _shaderGroup$146612[ebp]
	add	ecx, 36					; 00000024H
	call	??A?$map@TShaderEnvKey@Ogre@@PAVCompiledShader@2@U?$less@TShaderEnvKey@Ogre@@@std@@V?$allocator@U?$pair@$$CBTShaderEnvKey@Ogre@@PAVCompiledShader@2@@std@@@5@@std@@QAEAAPAVCompiledShader@Ogre@@ABTShaderEnvKey@3@@Z ; std::map<Ogre::ShaderEnvKey,Ogre::CompiledShader *,std::less<Ogre::ShaderEnvKey>,std::allocator<std::pair<Ogre::ShaderEnvKey const ,Ogre::CompiledShader *> > >::operator[]
	mov	ecx, DWORD PTR _newShader$146623[ebp]
	mov	DWORD PTR [eax], ecx

; 472  : 			}

	jmp	$LN2@loadCompil
$LN1@loadCompil:

; 473  : 
; 474  : 			m_ShaderGroups[pathstr] = shaderGroup;

	lea	edx, DWORD PTR _pathstr$146611[ebp]
	push	edx
	mov	ecx, DWORD PTR _this$[ebp]
	add	ecx, 76					; 0000004cH
	call	??A?$map@VFixedString@Ogre@@PAVCompiledShaderGroup@2@U?$less@VFixedString@Ogre@@@std@@V?$allocator@U?$pair@$$CBVFixedString@Ogre@@PAVCompiledShaderGroup@2@@std@@@5@@std@@QAEAAPAVCompiledShaderGroup@Ogre@@ABVFixedString@3@@Z ; std::map<Ogre::FixedString,Ogre::CompiledShaderGroup *,std::less<Ogre::FixedString>,std::allocator<std::pair<Ogre::FixedString const ,Ogre::CompiledShaderGroup *> > >::operator[]
	mov	ecx, DWORD PTR _shaderGroup$146612[ebp]
	mov	DWORD PTR [eax], ecx

; 475  : 		}

	mov	DWORD PTR __$EHRec$[ebp+8], -1
	lea	ecx, DWORD PTR _pathstr$146611[ebp]
	call	DWORD PTR __imp_??1FixedString@Ogre@@QAE@XZ
	jmp	$LN5@loadCompil
$LN12@loadCompil:

; 476  : 	}

	mov	ecx, DWORD PTR __$EHRec$[ebp]
	mov	DWORD PTR fs:0, ecx
	pop	ecx
	mov	ecx, DWORD PTR __$ArrayPad$[ebp]
	xor	ecx, ebp
	call	@__security_check_cookie@4
	mov	esp, ebp
	pop	ebp
	ret	8
_TEXT	ENDS
text$x	SEGMENT
__unwindfunclet$?loadCompiledShaders@D3DMaterialTemplate@Ogre@@QAEXPAU_iobuf@@AAVCMd5@@@Z$0:
	mov	eax, DWORD PTR $T159213[ebp]
	push	eax
	call	??3@YAXPAX@Z				; operator delete
	pop	ecx
	ret	0
__unwindfunclet$?loadCompiledShaders@D3DMaterialTemplate@Ogre@@QAEXPAU_iobuf@@AAVCMd5@@@Z$1:
	mov	eax, DWORD PTR $T159231[ebp]
	and	eax, 1
	je	$LN24@loadCompil
	and	DWORD PTR $T159231[ebp], -2		; fffffffeH
	lea	ecx, DWORD PTR $T159214[ebp]
	jmp	DWORD PTR __imp_??1FixedString@Ogre@@QAE@XZ
$LN24@loadCompil:
	ret	0
__unwindfunclet$?loadCompiledShaders@D3DMaterialTemplate@Ogre@@QAEXPAU_iobuf@@AAVCMd5@@@Z$2:
	mov	eax, DWORD PTR $T159218[ebp]
	push	eax
	call	??3@YAXPAX@Z				; operator delete
	pop	ecx
	ret	0
__unwindfunclet$?loadCompiledShaders@D3DMaterialTemplate@Ogre@@QAEXPAU_iobuf@@AAVCMd5@@@Z$3:
	lea	ecx, DWORD PTR _pathstr$146611[ebp]
	jmp	DWORD PTR __imp_??1FixedString@Ogre@@QAE@XZ
__unwindfunclet$?loadCompiledShaders@D3DMaterialTemplate@Ogre@@QAEXPAU_iobuf@@AAVCMd5@@@Z$4:
	mov	eax, DWORD PTR $T159223[ebp]
	push	eax
	call	??3@YAXPAX@Z				; operator delete
	pop	ecx
	ret	0
__unwindfunclet$?loadCompiledShaders@D3DMaterialTemplate@Ogre@@QAEXPAU_iobuf@@AAVCMd5@@@Z$5:
	mov	eax, DWORD PTR $T159227[ebp]
	push	eax
	call	??3@YAXPAX@Z				; operator delete
	pop	ecx
	ret	0
__ehhandler$?loadCompiledShaders@D3DMaterialTemplate@Ogre@@QAEXPAU_iobuf@@AAVCMd5@@@Z:
	mov	edx, DWORD PTR [esp+8]
	lea	eax, DWORD PTR [edx+12]
	mov	ecx, DWORD PTR [edx-436]
	xor	ecx, eax
	call	@__security_check_cookie@4
	mov	ecx, DWORD PTR [edx-12]
	xor	ecx, eax
	call	@__security_check_cookie@4
	mov	eax, OFFSET __ehfuncinfo$?loadCompiledShaders@D3DMaterialTemplate@Ogre@@QAEXPAU_iobuf@@AAVCMd5@@@Z
	jmp	___CxxFrameHandler3
text$x	ENDS
?loadCompiledShaders@D3DMaterialTemplate@Ogre@@QAEXPAU_iobuf@@AAVCMd5@@@Z ENDP ; Ogre::D3DMaterialTemplate::loadCompiledShaders
PUBLIC	?size@?$_Tree@V?$_Tmap_traits@VFixedString@Ogre@@PAVCompiledShaderGroup@2@U?$less@VFixedString@Ogre@@@std@@V?$allocator@U?$pair@$$CBVFixedString@Ogre@@PAVCompiledShaderGroup@2@@std@@@5@$0A@@std@@@std@@QBEIXZ ; std::_Tree<std::_Tmap_traits<Ogre::FixedString,Ogre::CompiledShaderGroup *,std::less<Ogre::FixedString>,std::allocator<std::pair<Ogre::FixedString const ,Ogre::CompiledShaderGroup *> >,0> >::size
PUBLIC	?size@?$vector@DV?$allocator@D@std@@@std@@QBEIXZ ; std::vector<char,std::allocator<char> >::size
PUBLIC	??A?$vector@TShaderEnvKey@Ogre@@V?$allocator@TShaderEnvKey@Ogre@@@std@@@std@@QAEAATShaderEnvKey@Ogre@@I@Z ; std::vector<Ogre::ShaderEnvKey,std::allocator<Ogre::ShaderEnvKey> >::operator[]
PUBLIC	?size@?$vector@TShaderEnvKey@Ogre@@V?$allocator@TShaderEnvKey@Ogre@@@std@@@std@@QBEIXZ ; std::vector<Ogre::ShaderEnvKey,std::allocator<Ogre::ShaderEnvKey> >::size
PUBLIC	??A?$vector@PAVCompiledShader@Ogre@@V?$allocator@PAVCompiledShader@Ogre@@@std@@@std@@QAEAAPAVCompiledShader@Ogre@@I@Z ; std::vector<Ogre::CompiledShader *,std::allocator<Ogre::CompiledShader *> >::operator[]
PUBLIC	?size@?$vector@PAVCompiledShader@Ogre@@V?$allocator@PAVCompiledShader@Ogre@@@std@@@std@@QBEIXZ ; std::vector<Ogre::CompiledShader *,std::allocator<Ogre::CompiledShader *> >::size
PUBLIC	?saveCompiledShaders@D3DMaterialTemplate@Ogre@@QAEXPAU_iobuf@@AAVCMd5@@@Z ; Ogre::D3DMaterialTemplate::saveCompiledShaders
EXTRN	__imp_?length@FixedString@Ogre@@QBEIXZ:PROC
EXTRN	__imp_??0FixedString@Ogre@@QAE@ABV01@@Z:PROC
EXTRN	__imp__fwrite:PROC
xdata$x	SEGMENT
__unwindtable$?saveCompiledShaders@D3DMaterialTemplate@Ogre@@QAEXPAU_iobuf@@AAVCMd5@@@Z DD 0ffffffffH
	DD	FLAT:__unwindfunclet$?saveCompiledShaders@D3DMaterialTemplate@Ogre@@QAEXPAU_iobuf@@AAVCMd5@@@Z$0
__ehfuncinfo$?saveCompiledShaders@D3DMaterialTemplate@Ogre@@QAEXPAU_iobuf@@AAVCMd5@@@Z DD 019930522H
	DD	01H
	DD	FLAT:__unwindtable$?saveCompiledShaders@D3DMaterialTemplate@Ogre@@QAEXPAU_iobuf@@AAVCMd5@@@Z
	DD	2 DUP(00H)
	DD	2 DUP(00H)
	DD	00H
	DD	00H
; Function compile flags: /Odtp
xdata$x	ENDS
_TEXT	SEGMENT
_this$ = -152						; size = 4
$T159245 = -148						; size = 8
$T159244 = -140						; size = 8
_key$146718 = -132					; size = 16
_i$146714 = -112					; size = 4
_len$146722 = -108					; size = 4
_shader$146710 = -104					; size = 4
_keyNum$146711 = -100					; size = 4
_bufferKey$146720 = -96					; size = 4
_i$146706 = -92						; size = 4
_compiledShaderNum$146704 = -88				; size = 4
_shaderGroup$146691 = -84				; size = 4
_type$146692 = -80					; size = 4
_nameLength$146696 = -76				; size = 4
_pathName$146695 = -72					; size = 4
_key$146659 = -68					; size = 16
_i$146655 = -52						; size = 4
_len$146663 = -48					; size = 4
_shader$146651 = -44					; size = 4
_keyNum$146652 = -40					; size = 4
_bufferKey$146661 = -36					; size = 4
_i$146647 = -32						; size = 4
_numShaderGroups$ = -28					; size = 4
_numEffectCompiledShader$ = -24				; size = 4
_iter$ = -20						; size = 8
__$EHRec$ = -12						; size = 12
_fp$ = 8						; size = 4
_md5$ = 12						; size = 4
?saveCompiledShaders@D3DMaterialTemplate@Ogre@@QAEXPAU_iobuf@@AAVCMd5@@@Z PROC ; Ogre::D3DMaterialTemplate::saveCompiledShaders
; _this$ = ecx

; 479  : 	{

	push	ebp
	mov	ebp, esp
	push	-1
	push	__ehhandler$?saveCompiledShaders@D3DMaterialTemplate@Ogre@@QAEXPAU_iobuf@@AAVCMd5@@@Z
	mov	eax, DWORD PTR fs:0
	push	eax
	sub	esp, 140				; 0000008cH
	mov	eax, DWORD PTR ___security_cookie
	xor	eax, ebp
	push	eax
	lea	eax, DWORD PTR __$EHRec$[ebp]
	mov	DWORD PTR fs:0, eax
	mov	DWORD PTR _this$[ebp], ecx

; 480  : 		//
; 481  : 		// m_pEffectGroup
; 482  : 		//
; 483  : 		uint numEffectCompiledShader = 0;

	mov	DWORD PTR _numEffectCompiledShader$[ebp], 0

; 484  : 
; 485  : 		if (m_pEffectGroup)

	mov	eax, DWORD PTR _this$[ebp]
	cmp	DWORD PTR [eax+64], 0
	je	SHORT $LN16@saveCompil

; 486  : 		{
; 487  : 			numEffectCompiledShader = (uint)m_pEffectGroup->m_Shaders.size();

	mov	ecx, DWORD PTR _this$[ebp]
	mov	ecx, DWORD PTR [ecx+64]
	add	ecx, 12					; 0000000cH
	call	?size@?$vector@PAVCompiledShader@Ogre@@V?$allocator@PAVCompiledShader@Ogre@@@std@@@std@@QBEIXZ ; std::vector<Ogre::CompiledShader *,std::allocator<Ogre::CompiledShader *> >::size
	mov	DWORD PTR _numEffectCompiledShader$[ebp], eax
$LN16@saveCompil:

; 488  : 		}
; 489  : 
; 490  : 		fwrite(&numEffectCompiledShader, sizeof(numEffectCompiledShader), 1, fp);

	mov	edx, DWORD PTR _fp$[ebp]
	push	edx
	push	1
	push	4
	lea	eax, DWORD PTR _numEffectCompiledShader$[ebp]
	push	eax
	call	DWORD PTR __imp__fwrite
	add	esp, 16					; 00000010H

; 491  : 		// md5
; 492  : 		md5.Append((unsigned char*)&numEffectCompiledShader, sizeof(numEffectCompiledShader));

	push	4
	lea	ecx, DWORD PTR _numEffectCompiledShader$[ebp]
	push	ecx
	mov	ecx, DWORD PTR _md5$[ebp]
	call	?Append@CMd5@@QAEXPBEI@Z		; CMd5::Append

; 493  : 
; 494  : 		for (int i=0; i<numEffectCompiledShader; i++)

	mov	DWORD PTR _i$146647[ebp], 0
	jmp	SHORT $LN15@saveCompil
$LN14@saveCompil:
	mov	edx, DWORD PTR _i$146647[ebp]
	add	edx, 1
	mov	DWORD PTR _i$146647[ebp], edx
$LN15@saveCompil:
	mov	eax, DWORD PTR _i$146647[ebp]
	cmp	eax, DWORD PTR _numEffectCompiledShader$[ebp]
	jae	$LN13@saveCompil

; 495  : 		{
; 496  : 			CompiledShader *shader = m_pEffectGroup->m_Shaders[i];

	mov	ecx, DWORD PTR _i$146647[ebp]
	push	ecx
	mov	edx, DWORD PTR _this$[ebp]
	mov	ecx, DWORD PTR [edx+64]
	add	ecx, 12					; 0000000cH
	call	??A?$vector@PAVCompiledShader@Ogre@@V?$allocator@PAVCompiledShader@Ogre@@@std@@@std@@QAEAAPAVCompiledShader@Ogre@@I@Z ; std::vector<Ogre::CompiledShader *,std::allocator<Ogre::CompiledShader *> >::operator[]
	mov	eax, DWORD PTR [eax]
	mov	DWORD PTR _shader$146651[ebp], eax

; 497  : 
; 498  : 			// shaderKey
; 499  : 			int keyNum = shader->mShaderEnvKeys.size();

	mov	ecx, DWORD PTR _shader$146651[ebp]
	add	ecx, 340				; 00000154H
	call	?size@?$vector@TShaderEnvKey@Ogre@@V?$allocator@TShaderEnvKey@Ogre@@@std@@@std@@QBEIXZ ; std::vector<Ogre::ShaderEnvKey,std::allocator<Ogre::ShaderEnvKey> >::size
	mov	DWORD PTR _keyNum$146652[ebp], eax

; 500  : 			fwrite(&keyNum, sizeof(int), 1, fp);

	mov	ecx, DWORD PTR _fp$[ebp]
	push	ecx
	push	1
	push	4
	lea	edx, DWORD PTR _keyNum$146652[ebp]
	push	edx
	call	DWORD PTR __imp__fwrite
	add	esp, 16					; 00000010H

; 501  : 			md5.Append((unsigned char*)&keyNum, sizeof(keyNum));

	push	4
	lea	eax, DWORD PTR _keyNum$146652[ebp]
	push	eax
	mov	ecx, DWORD PTR _md5$[ebp]
	call	?Append@CMd5@@QAEXPBEI@Z		; CMd5::Append

; 502  : 
; 503  : 			for (int i=0; i<keyNum; i++)

	mov	DWORD PTR _i$146655[ebp], 0
	jmp	SHORT $LN12@saveCompil
$LN11@saveCompil:
	mov	ecx, DWORD PTR _i$146655[ebp]
	add	ecx, 1
	mov	DWORD PTR _i$146655[ebp], ecx
$LN12@saveCompil:
	mov	edx, DWORD PTR _i$146655[ebp]
	cmp	edx, DWORD PTR _keyNum$146652[ebp]
	jge	SHORT $LN10@saveCompil

; 504  : 			{
; 505  : 				ShaderEnvKey key = shader->mShaderEnvKeys[i];

	mov	eax, DWORD PTR _i$146655[ebp]
	push	eax
	mov	ecx, DWORD PTR _shader$146651[ebp]
	add	ecx, 340				; 00000154H
	call	??A?$vector@TShaderEnvKey@Ogre@@V?$allocator@TShaderEnvKey@Ogre@@@std@@@std@@QAEAATShaderEnvKey@Ogre@@I@Z ; std::vector<Ogre::ShaderEnvKey,std::allocator<Ogre::ShaderEnvKey> >::operator[]
	mov	ecx, DWORD PTR [eax]
	mov	DWORD PTR _key$146659[ebp], ecx
	mov	edx, DWORD PTR [eax+4]
	mov	DWORD PTR _key$146659[ebp+4], edx
	mov	ecx, DWORD PTR [eax+8]
	mov	DWORD PTR _key$146659[ebp+8], ecx
	mov	edx, DWORD PTR [eax+12]
	mov	DWORD PTR _key$146659[ebp+12], edx

; 506  : 				fwrite(&key, sizeof(key), 1, fp);

	mov	eax, DWORD PTR _fp$[ebp]
	push	eax
	push	1
	push	16					; 00000010H
	lea	ecx, DWORD PTR _key$146659[ebp]
	push	ecx
	call	DWORD PTR __imp__fwrite
	add	esp, 16					; 00000010H

; 507  : 				// md5
; 508  : 				md5.Append((unsigned char*)&key, sizeof(key));

	push	16					; 00000010H
	lea	edx, DWORD PTR _key$146659[ebp]
	push	edx
	mov	ecx, DWORD PTR _md5$[ebp]
	call	?Append@CMd5@@QAEXPBEI@Z		; CMd5::Append

; 509  : 			}

	jmp	SHORT $LN11@saveCompil
$LN10@saveCompil:

; 510  : 
; 511  : 			uint bufferKey = shader->m_BufferKey;

	mov	eax, DWORD PTR _shader$146651[ebp]
	mov	ecx, DWORD PTR [eax+40]
	mov	DWORD PTR _bufferKey$146661[ebp], ecx

; 512  : 			fwrite(&bufferKey, sizeof(bufferKey), 1, fp);

	mov	edx, DWORD PTR _fp$[ebp]
	push	edx
	push	1
	push	4
	lea	eax, DWORD PTR _bufferKey$146661[ebp]
	push	eax
	call	DWORD PTR __imp__fwrite
	add	esp, 16					; 00000010H

; 513  : 			// md5
; 514  : 			md5.Append((unsigned char*)&bufferKey, sizeof(bufferKey));

	push	4
	lea	ecx, DWORD PTR _bufferKey$146661[ebp]
	push	ecx
	mov	ecx, DWORD PTR _md5$[ebp]
	call	?Append@CMd5@@QAEXPBEI@Z		; CMd5::Append

; 515  : 
; 516  : 			uint len = shader->m_CompiledBuf.size();

	mov	ecx, DWORD PTR _shader$146651[ebp]
	add	ecx, 16					; 00000010H
	call	?size@?$vector@DV?$allocator@D@std@@@std@@QBEIXZ ; std::vector<char,std::allocator<char> >::size
	mov	DWORD PTR _len$146663[ebp], eax

; 517  : 			fwrite(&len, sizeof(len), 1, fp);

	mov	edx, DWORD PTR _fp$[ebp]
	push	edx
	push	1
	push	4
	lea	eax, DWORD PTR _len$146663[ebp]
	push	eax
	call	DWORD PTR __imp__fwrite
	add	esp, 16					; 00000010H

; 518  : 			// md5
; 519  : 			md5.Append((unsigned char*)&len, sizeof(len));

	push	4
	lea	ecx, DWORD PTR _len$146663[ebp]
	push	ecx
	mov	ecx, DWORD PTR _md5$[ebp]
	call	?Append@CMd5@@QAEXPBEI@Z		; CMd5::Append

; 520  : 
; 521  : 			fwrite(&shader->m_CompiledBuf[0], len*sizeof(char), 1, fp);

	mov	edx, DWORD PTR _fp$[ebp]
	push	edx
	push	1
	mov	eax, DWORD PTR _len$146663[ebp]
	push	eax
	push	0
	mov	ecx, DWORD PTR _shader$146651[ebp]
	add	ecx, 16					; 00000010H
	call	??A?$vector@DV?$allocator@D@std@@@std@@QAEAADI@Z ; std::vector<char,std::allocator<char> >::operator[]
	push	eax
	call	DWORD PTR __imp__fwrite
	add	esp, 16					; 00000010H

; 522  : 			// md5
; 523  : 			md5.Append((unsigned char*)&shader->m_CompiledBuf[0], len*sizeof(char));

	mov	ecx, DWORD PTR _len$146663[ebp]
	push	ecx
	push	0
	mov	ecx, DWORD PTR _shader$146651[ebp]
	add	ecx, 16					; 00000010H
	call	??A?$vector@DV?$allocator@D@std@@@std@@QAEAADI@Z ; std::vector<char,std::allocator<char> >::operator[]
	push	eax
	mov	ecx, DWORD PTR _md5$[ebp]
	call	?Append@CMd5@@QAEXPBEI@Z		; CMd5::Append

; 524  : 		}

	jmp	$LN14@saveCompil
$LN13@saveCompil:

; 525  : 
; 526  : 		//
; 527  : 		// m_ShaderGroups
; 528  : 		//
; 529  : 		uint numShaderGroups = (uint)m_ShaderGroups.size();

	mov	ecx, DWORD PTR _this$[ebp]
	add	ecx, 76					; 0000004cH
	call	?size@?$_Tree@V?$_Tmap_traits@VFixedString@Ogre@@PAVCompiledShaderGroup@2@U?$less@VFixedString@Ogre@@@std@@V?$allocator@U?$pair@$$CBVFixedString@Ogre@@PAVCompiledShaderGroup@2@@std@@@5@$0A@@std@@@std@@QBEIXZ ; std::_Tree<std::_Tmap_traits<Ogre::FixedString,Ogre::CompiledShaderGroup *,std::less<Ogre::FixedString>,std::allocator<std::pair<Ogre::FixedString const ,Ogre::CompiledShaderGroup *> >,0> >::size
	mov	DWORD PTR _numShaderGroups$[ebp], eax

; 530  : 		fwrite(&numShaderGroups, sizeof(numShaderGroups), 1, fp);

	mov	edx, DWORD PTR _fp$[ebp]
	push	edx
	push	1
	push	4
	lea	eax, DWORD PTR _numShaderGroups$[ebp]
	push	eax
	call	DWORD PTR __imp__fwrite
	add	esp, 16					; 00000010H

; 531  : 		// md5
; 532  : 		md5.Append((unsigned char*)&numShaderGroups, sizeof(numShaderGroups));

	push	4
	lea	ecx, DWORD PTR _numShaderGroups$[ebp]
	push	ecx
	mov	ecx, DWORD PTR _md5$[ebp]
	call	?Append@CMd5@@QAEXPBEI@Z		; CMd5::Append

; 533  : 
; 534  : 		std::map<FixedString, CompiledShaderGroup *>::iterator iter = m_ShaderGroups.begin();

	lea	edx, DWORD PTR _iter$[ebp]
	push	edx
	mov	ecx, DWORD PTR _this$[ebp]
	add	ecx, 76					; 0000004cH
	call	?begin@?$_Tree@V?$_Tmap_traits@VFixedString@Ogre@@PAVCompiledShaderGroup@2@U?$less@VFixedString@Ogre@@@std@@V?$allocator@U?$pair@$$CBVFixedString@Ogre@@PAVCompiledShaderGroup@2@@std@@@5@$0A@@std@@@std@@QAE?AViterator@12@XZ ; std::_Tree<std::_Tmap_traits<Ogre::FixedString,Ogre::CompiledShaderGroup *,std::less<Ogre::FixedString>,std::allocator<std::pair<Ogre::FixedString const ,Ogre::CompiledShaderGroup *> >,0> >::begin
	jmp	SHORT $LN9@saveCompil
$LN8@saveCompil:

; 535  : 		for (; iter!=m_ShaderGroups.end(); iter++)

	push	0
	lea	eax, DWORD PTR $T159244[ebp]
	push	eax
	lea	ecx, DWORD PTR _iter$[ebp]
	call	??Eiterator@?$_Tree@V?$_Tmap_traits@VFixedString@Ogre@@PAVCompiledShaderGroup@2@U?$less@VFixedString@Ogre@@@std@@V?$allocator@U?$pair@$$CBVFixedString@Ogre@@PAVCompiledShaderGroup@2@@std@@@5@$0A@@std@@@std@@QAE?AV012@H@Z ; std::_Tree<std::_Tmap_traits<Ogre::FixedString,Ogre::CompiledShaderGroup *,std::less<Ogre::FixedString>,std::allocator<std::pair<Ogre::FixedString const ,Ogre::CompiledShaderGroup *> >,0> >::iterator::operator++
$LN9@saveCompil:
	lea	ecx, DWORD PTR $T159245[ebp]
	push	ecx
	mov	ecx, DWORD PTR _this$[ebp]
	add	ecx, 76					; 0000004cH
	call	?end@?$_Tree@V?$_Tmap_traits@VFixedString@Ogre@@PAVCompiledShaderGroup@2@U?$less@VFixedString@Ogre@@@std@@V?$allocator@U?$pair@$$CBVFixedString@Ogre@@PAVCompiledShaderGroup@2@@std@@@5@$0A@@std@@@std@@QAE?AViterator@12@XZ ; std::_Tree<std::_Tmap_traits<Ogre::FixedString,Ogre::CompiledShaderGroup *,std::less<Ogre::FixedString>,std::allocator<std::pair<Ogre::FixedString const ,Ogre::CompiledShaderGroup *> >,0> >::end
	push	eax
	lea	ecx, DWORD PTR _iter$[ebp]
	call	??9const_iterator@?$_Tree@V?$_Tmap_traits@VFixedString@Ogre@@PAVCompiledShaderGroup@2@U?$less@VFixedString@Ogre@@@std@@V?$allocator@U?$pair@$$CBVFixedString@Ogre@@PAVCompiledShaderGroup@2@@std@@@5@$0A@@std@@@std@@QBE_NABV012@@Z ; std::_Tree<std::_Tmap_traits<Ogre::FixedString,Ogre::CompiledShaderGroup *,std::less<Ogre::FixedString>,std::allocator<std::pair<Ogre::FixedString const ,Ogre::CompiledShaderGroup *> >,0> >::const_iterator::operator!=
	movzx	edx, al
	test	edx, edx
	je	$LN17@saveCompil

; 536  : 		{
; 537  : 			CompiledShaderGroup *shaderGroup = iter->second;

	lea	ecx, DWORD PTR _iter$[ebp]
	call	??Citerator@?$_Tree@V?$_Tmap_traits@VFixedString@Ogre@@PAVCompiledShaderGroup@2@U?$less@VFixedString@Ogre@@@std@@V?$allocator@U?$pair@$$CBVFixedString@Ogre@@PAVCompiledShaderGroup@2@@std@@@5@$0A@@std@@@std@@QBEPAU?$pair@$$CBVFixedString@Ogre@@PAVCompiledShaderGroup@2@@2@XZ ; std::_Tree<std::_Tmap_traits<Ogre::FixedString,Ogre::CompiledShaderGroup *,std::less<Ogre::FixedString>,std::allocator<std::pair<Ogre::FixedString const ,Ogre::CompiledShaderGroup *> >,0> >::iterator::operator->
	mov	eax, DWORD PTR [eax+4]
	mov	DWORD PTR _shaderGroup$146691[ebp], eax

; 538  : 
; 539  : 			uint type = (uint)shaderGroup->m_Type;

	mov	ecx, DWORD PTR _shaderGroup$146691[ebp]
	mov	edx, DWORD PTR [ecx]
	mov	DWORD PTR _type$146692[ebp], edx

; 540  : 			fwrite(&type, sizeof(type), 1, fp);

	mov	eax, DWORD PTR _fp$[ebp]
	push	eax
	push	1
	push	4
	lea	ecx, DWORD PTR _type$146692[ebp]
	push	ecx
	call	DWORD PTR __imp__fwrite
	add	esp, 16					; 00000010H

; 541  : 
; 542  : 			// md5
; 543  : 			md5.Append((unsigned char*)&type, sizeof(type));

	push	4
	lea	edx, DWORD PTR _type$146692[ebp]
	push	edx
	mov	ecx, DWORD PTR _md5$[ebp]
	call	?Append@CMd5@@QAEXPBEI@Z		; CMd5::Append

; 544  : 
; 545  : 			// pathname
; 546  : 			FixedString pathName = shaderGroup->m_Path;

	mov	eax, DWORD PTR _shaderGroup$146691[ebp]
	add	eax, 8
	push	eax
	lea	ecx, DWORD PTR _pathName$146695[ebp]
	call	DWORD PTR __imp_??0FixedString@Ogre@@QAE@ABV01@@Z
	mov	DWORD PTR __$EHRec$[ebp+8], 0

; 547  : 			UINT nameLength = pathName.length();

	lea	ecx, DWORD PTR _pathName$146695[ebp]
	call	DWORD PTR __imp_?length@FixedString@Ogre@@QBEIXZ
	mov	DWORD PTR _nameLength$146696[ebp], eax

; 548  : 			fwrite(&nameLength, sizeof(nameLength), 1, fp);

	mov	ecx, DWORD PTR _fp$[ebp]
	push	ecx
	push	1
	push	4
	lea	edx, DWORD PTR _nameLength$146696[ebp]
	push	edx
	call	DWORD PTR __imp__fwrite
	add	esp, 16					; 00000010H

; 549  : 			// md5
; 550  : 			md5.Append((unsigned char*)&nameLength, sizeof(nameLength));

	push	4
	lea	eax, DWORD PTR _nameLength$146696[ebp]
	push	eax
	mov	ecx, DWORD PTR _md5$[ebp]
	call	?Append@CMd5@@QAEXPBEI@Z		; CMd5::Append

; 551  : 			fwrite((const char *)((const char*)pathName), nameLength*sizeof(char), 1, fp);

	mov	ecx, DWORD PTR _fp$[ebp]
	push	ecx
	push	1
	mov	edx, DWORD PTR _nameLength$146696[ebp]
	push	edx
	lea	ecx, DWORD PTR _pathName$146695[ebp]
	call	DWORD PTR __imp_??BFixedString@Ogre@@QBEPBDXZ
	push	eax
	call	DWORD PTR __imp__fwrite
	add	esp, 16					; 00000010H

; 552  : 			// md5
; 553  : 			md5.Append((unsigned char*)((const char*)pathName), nameLength*sizeof(char));

	mov	eax, DWORD PTR _nameLength$146696[ebp]
	push	eax
	lea	ecx, DWORD PTR _pathName$146695[ebp]
	call	DWORD PTR __imp_??BFixedString@Ogre@@QBEPBDXZ
	push	eax
	mov	ecx, DWORD PTR _md5$[ebp]
	call	?Append@CMd5@@QAEXPBEI@Z		; CMd5::Append

; 554  : 
; 555  : 			uint compiledShaderNum = shaderGroup->m_Shaders.size();

	mov	ecx, DWORD PTR _shaderGroup$146691[ebp]
	add	ecx, 12					; 0000000cH
	call	?size@?$vector@PAVCompiledShader@Ogre@@V?$allocator@PAVCompiledShader@Ogre@@@std@@@std@@QBEIXZ ; std::vector<Ogre::CompiledShader *,std::allocator<Ogre::CompiledShader *> >::size
	mov	DWORD PTR _compiledShaderNum$146704[ebp], eax

; 556  : 			fwrite(&compiledShaderNum, sizeof(compiledShaderNum), 1, fp);

	mov	ecx, DWORD PTR _fp$[ebp]
	push	ecx
	push	1
	push	4
	lea	edx, DWORD PTR _compiledShaderNum$146704[ebp]
	push	edx
	call	DWORD PTR __imp__fwrite
	add	esp, 16					; 00000010H

; 557  : 			// md5
; 558  : 			md5.Append((unsigned char*)&compiledShaderNum, sizeof(compiledShaderNum));

	push	4
	lea	eax, DWORD PTR _compiledShaderNum$146704[ebp]
	push	eax
	mov	ecx, DWORD PTR _md5$[ebp]
	call	?Append@CMd5@@QAEXPBEI@Z		; CMd5::Append

; 559  : 
; 560  : 			for (int i=0; i<compiledShaderNum; i++)

	mov	DWORD PTR _i$146706[ebp], 0
	jmp	SHORT $LN6@saveCompil
$LN5@saveCompil:
	mov	ecx, DWORD PTR _i$146706[ebp]
	add	ecx, 1
	mov	DWORD PTR _i$146706[ebp], ecx
$LN6@saveCompil:
	mov	edx, DWORD PTR _i$146706[ebp]
	cmp	edx, DWORD PTR _compiledShaderNum$146704[ebp]
	jae	$LN4@saveCompil

; 561  : 			{
; 562  : 				CompiledShader *shader = shaderGroup->m_Shaders[i];

	mov	eax, DWORD PTR _i$146706[ebp]
	push	eax
	mov	ecx, DWORD PTR _shaderGroup$146691[ebp]
	add	ecx, 12					; 0000000cH
	call	??A?$vector@PAVCompiledShader@Ogre@@V?$allocator@PAVCompiledShader@Ogre@@@std@@@std@@QAEAAPAVCompiledShader@Ogre@@I@Z ; std::vector<Ogre::CompiledShader *,std::allocator<Ogre::CompiledShader *> >::operator[]
	mov	ecx, DWORD PTR [eax]
	mov	DWORD PTR _shader$146710[ebp], ecx

; 563  : 
; 564  : 				// shaderKey
; 565  : 				int keyNum = shader->mShaderEnvKeys.size();

	mov	ecx, DWORD PTR _shader$146710[ebp]
	add	ecx, 340				; 00000154H
	call	?size@?$vector@TShaderEnvKey@Ogre@@V?$allocator@TShaderEnvKey@Ogre@@@std@@@std@@QBEIXZ ; std::vector<Ogre::ShaderEnvKey,std::allocator<Ogre::ShaderEnvKey> >::size
	mov	DWORD PTR _keyNum$146711[ebp], eax

; 566  : 				fwrite(&keyNum, sizeof(int), 1, fp);

	mov	edx, DWORD PTR _fp$[ebp]
	push	edx
	push	1
	push	4
	lea	eax, DWORD PTR _keyNum$146711[ebp]
	push	eax
	call	DWORD PTR __imp__fwrite
	add	esp, 16					; 00000010H

; 567  : 				md5.Append((unsigned char*)&keyNum, sizeof(keyNum));

	push	4
	lea	ecx, DWORD PTR _keyNum$146711[ebp]
	push	ecx
	mov	ecx, DWORD PTR _md5$[ebp]
	call	?Append@CMd5@@QAEXPBEI@Z		; CMd5::Append

; 568  : 
; 569  : 				for (int i=0; i<keyNum; i++)

	mov	DWORD PTR _i$146714[ebp], 0
	jmp	SHORT $LN3@saveCompil
$LN2@saveCompil:
	mov	edx, DWORD PTR _i$146714[ebp]
	add	edx, 1
	mov	DWORD PTR _i$146714[ebp], edx
$LN3@saveCompil:
	mov	eax, DWORD PTR _i$146714[ebp]
	cmp	eax, DWORD PTR _keyNum$146711[ebp]
	jge	SHORT $LN1@saveCompil

; 570  : 				{
; 571  : 					ShaderEnvKey key = shader->mShaderEnvKeys[i];

	mov	ecx, DWORD PTR _i$146714[ebp]
	push	ecx
	mov	ecx, DWORD PTR _shader$146710[ebp]
	add	ecx, 340				; 00000154H
	call	??A?$vector@TShaderEnvKey@Ogre@@V?$allocator@TShaderEnvKey@Ogre@@@std@@@std@@QAEAATShaderEnvKey@Ogre@@I@Z ; std::vector<Ogre::ShaderEnvKey,std::allocator<Ogre::ShaderEnvKey> >::operator[]
	mov	edx, DWORD PTR [eax]
	mov	DWORD PTR _key$146718[ebp], edx
	mov	ecx, DWORD PTR [eax+4]
	mov	DWORD PTR _key$146718[ebp+4], ecx
	mov	edx, DWORD PTR [eax+8]
	mov	DWORD PTR _key$146718[ebp+8], edx
	mov	eax, DWORD PTR [eax+12]
	mov	DWORD PTR _key$146718[ebp+12], eax

; 572  : 					fwrite(&key, sizeof(key), 1, fp);

	mov	ecx, DWORD PTR _fp$[ebp]
	push	ecx
	push	1
	push	16					; 00000010H
	lea	edx, DWORD PTR _key$146718[ebp]
	push	edx
	call	DWORD PTR __imp__fwrite
	add	esp, 16					; 00000010H

; 573  : 					// dm5
; 574  : 					md5.Append((unsigned char*)&key, sizeof(key));

	push	16					; 00000010H
	lea	eax, DWORD PTR _key$146718[ebp]
	push	eax
	mov	ecx, DWORD PTR _md5$[ebp]
	call	?Append@CMd5@@QAEXPBEI@Z		; CMd5::Append

; 575  : 				}

	jmp	SHORT $LN2@saveCompil
$LN1@saveCompil:

; 576  : 
; 577  : 				uint bufferKey = shader->m_BufferKey;

	mov	ecx, DWORD PTR _shader$146710[ebp]
	mov	edx, DWORD PTR [ecx+40]
	mov	DWORD PTR _bufferKey$146720[ebp], edx

; 578  : 				fwrite(&bufferKey, sizeof(bufferKey), 1, fp);

	mov	eax, DWORD PTR _fp$[ebp]
	push	eax
	push	1
	push	4
	lea	ecx, DWORD PTR _bufferKey$146720[ebp]
	push	ecx
	call	DWORD PTR __imp__fwrite
	add	esp, 16					; 00000010H

; 579  : 				// md5
; 580  : 				md5.Append((unsigned char*)&bufferKey, sizeof(bufferKey));

	push	4
	lea	edx, DWORD PTR _bufferKey$146720[ebp]
	push	edx
	mov	ecx, DWORD PTR _md5$[ebp]
	call	?Append@CMd5@@QAEXPBEI@Z		; CMd5::Append

; 581  : 
; 582  : 				uint len = shader->m_CompiledBuf.size();

	mov	ecx, DWORD PTR _shader$146710[ebp]
	add	ecx, 16					; 00000010H
	call	?size@?$vector@DV?$allocator@D@std@@@std@@QBEIXZ ; std::vector<char,std::allocator<char> >::size
	mov	DWORD PTR _len$146722[ebp], eax

; 583  : 				fwrite(&len, sizeof(len), 1, fp);

	mov	eax, DWORD PTR _fp$[ebp]
	push	eax
	push	1
	push	4
	lea	ecx, DWORD PTR _len$146722[ebp]
	push	ecx
	call	DWORD PTR __imp__fwrite
	add	esp, 16					; 00000010H

; 584  : 				// md5
; 585  : 				md5.Append((unsigned char*)&len, sizeof(len));

	push	4
	lea	edx, DWORD PTR _len$146722[ebp]
	push	edx
	mov	ecx, DWORD PTR _md5$[ebp]
	call	?Append@CMd5@@QAEXPBEI@Z		; CMd5::Append

; 586  : 
; 587  : 				fwrite(&shader->m_CompiledBuf[0], len*sizeof(char), 1, fp);

	mov	eax, DWORD PTR _fp$[ebp]
	push	eax
	push	1
	mov	ecx, DWORD PTR _len$146722[ebp]
	push	ecx
	push	0
	mov	ecx, DWORD PTR _shader$146710[ebp]
	add	ecx, 16					; 00000010H
	call	??A?$vector@DV?$allocator@D@std@@@std@@QAEAADI@Z ; std::vector<char,std::allocator<char> >::operator[]
	push	eax
	call	DWORD PTR __imp__fwrite
	add	esp, 16					; 00000010H

; 588  : 				// md5
; 589  : 				md5.Append((unsigned char*)&shader->m_CompiledBuf[0], len*sizeof(char));

	mov	edx, DWORD PTR _len$146722[ebp]
	push	edx
	push	0
	mov	ecx, DWORD PTR _shader$146710[ebp]
	add	ecx, 16					; 00000010H
	call	??A?$vector@DV?$allocator@D@std@@@std@@QAEAADI@Z ; std::vector<char,std::allocator<char> >::operator[]
	push	eax
	mov	ecx, DWORD PTR _md5$[ebp]
	call	?Append@CMd5@@QAEXPBEI@Z		; CMd5::Append

; 590  : 			}

	jmp	$LN5@saveCompil
$LN4@saveCompil:

; 591  : 		}

	mov	DWORD PTR __$EHRec$[ebp+8], -1
	lea	ecx, DWORD PTR _pathName$146695[ebp]
	call	DWORD PTR __imp_??1FixedString@Ogre@@QAE@XZ
	jmp	$LN8@saveCompil
$LN17@saveCompil:

; 592  : 	}

	mov	ecx, DWORD PTR __$EHRec$[ebp]
	mov	DWORD PTR fs:0, ecx
	pop	ecx
	mov	esp, ebp
	pop	ebp
	ret	8
_TEXT	ENDS
text$x	SEGMENT
__unwindfunclet$?saveCompiledShaders@D3DMaterialTemplate@Ogre@@QAEXPAU_iobuf@@AAVCMd5@@@Z$0:
	lea	ecx, DWORD PTR _pathName$146695[ebp]
	jmp	DWORD PTR __imp_??1FixedString@Ogre@@QAE@XZ
__ehhandler$?saveCompiledShaders@D3DMaterialTemplate@Ogre@@QAEXPAU_iobuf@@AAVCMd5@@@Z:
	mov	edx, DWORD PTR [esp+8]
	lea	eax, DWORD PTR [edx+12]
	mov	ecx, DWORD PTR [edx-144]
	xor	ecx, eax
	call	@__security_check_cookie@4
	mov	eax, OFFSET __ehfuncinfo$?saveCompiledShaders@D3DMaterialTemplate@Ogre@@QAEXPAU_iobuf@@AAVCMd5@@@Z
	jmp	___CxxFrameHandler3
text$x	ENDS
?saveCompiledShaders@D3DMaterialTemplate@Ogre@@QAEXPAU_iobuf@@AAVCMd5@@@Z ENDP ; Ogre::D3DMaterialTemplate::saveCompiledShaders
PUBLIC	?push_back@?$vector@UShaderEnv@Ogre@@V?$allocator@UShaderEnv@Ogre@@@std@@@std@@QAEXABUShaderEnv@Ogre@@@Z ; std::vector<Ogre::ShaderEnv,std::allocator<Ogre::ShaderEnv> >::push_back
PUBLIC	??0ShaderEnv@Ogre@@QAE@XZ			; Ogre::ShaderEnv::ShaderEnv
PUBLIC	?loadShaderEnvKeysFromDataStream@D3DMaterialTemplate@Ogre@@QAEXPAVDataStream@2@@Z ; Ogre::D3DMaterialTemplate::loadShaderEnvKeysFromDataStream
; Function compile flags: /Odtp
_TEXT	SEGMENT
_this$ = -132						; size = 4
_key$146764 = -128					; size = 16
_env$146765 = -112					; size = 24
_k$146760 = -88						; size = 4
_keyNum$146758 = -84					; size = 4
_j$146754 = -80						; size = 4
_compiledShaderNum$146753 = -76				; size = 4
_Type$146751 = -72					; size = 4
_i$146747 = -68						; size = 4
_key$146743 = -64					; size = 16
_env$146744 = -48					; size = 24
_i$146739 = -20						; size = 4
_keyNum$146737 = -16					; size = 4
_i$146733 = -12						; size = 4
_numShaderGroups$ = -8					; size = 4
_numEffectCompiledShader$ = -4				; size = 4
_ds$ = 8						; size = 4
?loadShaderEnvKeysFromDataStream@D3DMaterialTemplate@Ogre@@QAEXPAVDataStream@2@@Z PROC ; Ogre::D3DMaterialTemplate::loadShaderEnvKeysFromDataStream
; _this$ = ecx

; 595  : 	{

	push	ebp
	mov	ebp, esp
	sub	esp, 132				; 00000084H
	mov	DWORD PTR _this$[ebp], ecx

; 596  : 		// m_pEffectGroup
; 597  : 		uint numEffectCompiledShader = 0;

	mov	DWORD PTR _numEffectCompiledShader$[ebp], 0

; 598  : 		ds->read((void*)&numEffectCompiledShader, sizeof(numEffectCompiledShader));

	push	4
	lea	eax, DWORD PTR _numEffectCompiledShader$[ebp]
	push	eax
	mov	ecx, DWORD PTR _ds$[ebp]
	mov	edx, DWORD PTR [ecx]
	mov	ecx, DWORD PTR _ds$[ebp]
	mov	eax, DWORD PTR [edx+4]
	call	eax

; 599  : 
; 600  : 		for (int i=0; i<numEffectCompiledShader; i++)

	mov	DWORD PTR _i$146733[ebp], 0
	jmp	SHORT $LN15@loadShader
$LN14@loadShader:
	mov	ecx, DWORD PTR _i$146733[ebp]
	add	ecx, 1
	mov	DWORD PTR _i$146733[ebp], ecx
$LN15@loadShader:
	mov	edx, DWORD PTR _i$146733[ebp]
	cmp	edx, DWORD PTR _numEffectCompiledShader$[ebp]
	jae	$LN13@loadShader

; 601  : 		{
; 602  : 			int keyNum = 0;

	mov	DWORD PTR _keyNum$146737[ebp], 0

; 603  : 			ds->read((void*)&keyNum, sizeof(keyNum));

	push	4
	lea	eax, DWORD PTR _keyNum$146737[ebp]
	push	eax
	mov	ecx, DWORD PTR _ds$[ebp]
	mov	edx, DWORD PTR [ecx]
	mov	ecx, DWORD PTR _ds$[ebp]
	mov	eax, DWORD PTR [edx+4]
	call	eax

; 604  : 			//m_ShaderEnvs.resize(keyNum);
; 605  : 
; 606  : 			for (int i=0; i<keyNum; i++)

	mov	DWORD PTR _i$146739[ebp], 0
	jmp	SHORT $LN12@loadShader
$LN11@loadShader:
	mov	ecx, DWORD PTR _i$146739[ebp]
	add	ecx, 1
	mov	DWORD PTR _i$146739[ebp], ecx
$LN12@loadShader:
	mov	edx, DWORD PTR _i$146739[ebp]
	cmp	edx, DWORD PTR _keyNum$146737[ebp]
	jge	SHORT $LN10@loadShader

; 607  : 			{
; 608  : 				ShaderEnvKey key;

	lea	ecx, DWORD PTR _key$146743[ebp]
	call	??0ShaderEnvKey@Ogre@@QAE@XZ		; Ogre::ShaderEnvKey::ShaderEnvKey

; 609  : 				ds->read(&key, sizeof(key));

	push	16					; 00000010H
	lea	eax, DWORD PTR _key$146743[ebp]
	push	eax
	mov	ecx, DWORD PTR _ds$[ebp]
	mov	edx, DWORD PTR [ecx]
	mov	ecx, DWORD PTR _ds$[ebp]
	mov	eax, DWORD PTR [edx+4]
	call	eax

; 610  : 
; 611  : 				ShaderEnv env;

	lea	ecx, DWORD PTR _env$146744[ebp]
	call	??0ShaderEnv@Ogre@@QAE@XZ

; 612  : 				env.Type = 0;

	mov	DWORD PTR _env$146744[ebp], 0

; 613  : 				env.key = key;

	mov	ecx, DWORD PTR _key$146743[ebp]
	mov	DWORD PTR _env$146744[ebp+8], ecx
	mov	edx, DWORD PTR _key$146743[ebp+4]
	mov	DWORD PTR _env$146744[ebp+12], edx
	mov	eax, DWORD PTR _key$146743[ebp+8]
	mov	DWORD PTR _env$146744[ebp+16], eax
	mov	ecx, DWORD PTR _key$146743[ebp+12]
	mov	DWORD PTR _env$146744[ebp+20], ecx

; 614  : 
; 615  : 				m_ShaderEnvs.push_back(env);

	lea	edx, DWORD PTR _env$146744[ebp]
	push	edx
	mov	ecx, DWORD PTR _this$[ebp]
	add	ecx, 12					; 0000000cH
	call	?push_back@?$vector@UShaderEnv@Ogre@@V?$allocator@UShaderEnv@Ogre@@@std@@@std@@QAEXABUShaderEnv@Ogre@@@Z ; std::vector<Ogre::ShaderEnv,std::allocator<Ogre::ShaderEnv> >::push_back

; 616  : 			}

	jmp	SHORT $LN11@loadShader
$LN10@loadShader:

; 617  : 		}

	jmp	$LN14@loadShader
$LN13@loadShader:

; 618  : 
; 619  : 		//
; 620  : 		// m_ShaderGroups
; 621  : 		//
; 622  : 
; 623  : 		uint numShaderGroups = 0;

	mov	DWORD PTR _numShaderGroups$[ebp], 0

; 624  : 		ds->read((void*)&numShaderGroups, sizeof(numShaderGroups));

	push	4
	lea	eax, DWORD PTR _numShaderGroups$[ebp]
	push	eax
	mov	ecx, DWORD PTR _ds$[ebp]
	mov	edx, DWORD PTR [ecx]
	mov	ecx, DWORD PTR _ds$[ebp]
	mov	eax, DWORD PTR [edx+4]
	call	eax

; 625  : 
; 626  : 		for (int i=0; i<numShaderGroups; i++)

	mov	DWORD PTR _i$146747[ebp], 0
	jmp	SHORT $LN9@loadShader
$LN8@loadShader:
	mov	ecx, DWORD PTR _i$146747[ebp]
	add	ecx, 1
	mov	DWORD PTR _i$146747[ebp], ecx
$LN9@loadShader:
	mov	edx, DWORD PTR _i$146747[ebp]
	cmp	edx, DWORD PTR _numShaderGroups$[ebp]
	jae	$LN16@loadShader

; 627  : 		{
; 628  : 			uint Type = 1;

	mov	DWORD PTR _Type$146751[ebp], 1

; 629  : 			ds->read((void*)&Type, sizeof(Type));

	push	4
	lea	eax, DWORD PTR _Type$146751[ebp]
	push	eax
	mov	ecx, DWORD PTR _ds$[ebp]
	mov	edx, DWORD PTR [ecx]
	mov	ecx, DWORD PTR _ds$[ebp]
	mov	eax, DWORD PTR [edx+4]
	call	eax

; 630  : 
; 631  : 			uint compiledShaderNum;
; 632  : 			ds->read(&compiledShaderNum, sizeof(compiledShaderNum));

	push	4
	lea	ecx, DWORD PTR _compiledShaderNum$146753[ebp]
	push	ecx
	mov	edx, DWORD PTR _ds$[ebp]
	mov	eax, DWORD PTR [edx]
	mov	ecx, DWORD PTR _ds$[ebp]
	mov	edx, DWORD PTR [eax+4]
	call	edx

; 633  : 
; 634  : 			for (int j=0; j<compiledShaderNum; j++)

	mov	DWORD PTR _j$146754[ebp], 0
	jmp	SHORT $LN6@loadShader
$LN5@loadShader:
	mov	eax, DWORD PTR _j$146754[ebp]
	add	eax, 1
	mov	DWORD PTR _j$146754[ebp], eax
$LN6@loadShader:
	mov	ecx, DWORD PTR _j$146754[ebp]
	cmp	ecx, DWORD PTR _compiledShaderNum$146753[ebp]
	jae	$LN4@loadShader

; 635  : 			{
; 636  : 				int keyNum = 0;

	mov	DWORD PTR _keyNum$146758[ebp], 0

; 637  : 				ds->read((void*)&keyNum, sizeof(keyNum));

	push	4
	lea	edx, DWORD PTR _keyNum$146758[ebp]
	push	edx
	mov	eax, DWORD PTR _ds$[ebp]
	mov	edx, DWORD PTR [eax]
	mov	ecx, DWORD PTR _ds$[ebp]
	mov	eax, DWORD PTR [edx+4]
	call	eax

; 638  : 
; 639  : 				for (int k=0; k<keyNum; k++)

	mov	DWORD PTR _k$146760[ebp], 0
	jmp	SHORT $LN3@loadShader
$LN2@loadShader:
	mov	ecx, DWORD PTR _k$146760[ebp]
	add	ecx, 1
	mov	DWORD PTR _k$146760[ebp], ecx
$LN3@loadShader:
	mov	edx, DWORD PTR _k$146760[ebp]
	cmp	edx, DWORD PTR _keyNum$146758[ebp]
	jge	SHORT $LN1@loadShader

; 640  : 				{
; 641  : 					ShaderEnvKey key;

	lea	ecx, DWORD PTR _key$146764[ebp]
	call	??0ShaderEnvKey@Ogre@@QAE@XZ		; Ogre::ShaderEnvKey::ShaderEnvKey

; 642  : 					ds->read(&key, sizeof(key));

	push	16					; 00000010H
	lea	eax, DWORD PTR _key$146764[ebp]
	push	eax
	mov	ecx, DWORD PTR _ds$[ebp]
	mov	edx, DWORD PTR [ecx]
	mov	ecx, DWORD PTR _ds$[ebp]
	mov	eax, DWORD PTR [edx+4]
	call	eax

; 643  : 
; 644  : 					ShaderEnv env;

	lea	ecx, DWORD PTR _env$146765[ebp]
	call	??0ShaderEnv@Ogre@@QAE@XZ

; 645  : 					env.Type = Type;

	mov	ecx, DWORD PTR _Type$146751[ebp]
	mov	DWORD PTR _env$146765[ebp], ecx

; 646  : 					env.key = key;

	mov	edx, DWORD PTR _key$146764[ebp]
	mov	DWORD PTR _env$146765[ebp+8], edx
	mov	eax, DWORD PTR _key$146764[ebp+4]
	mov	DWORD PTR _env$146765[ebp+12], eax
	mov	ecx, DWORD PTR _key$146764[ebp+8]
	mov	DWORD PTR _env$146765[ebp+16], ecx
	mov	edx, DWORD PTR _key$146764[ebp+12]
	mov	DWORD PTR _env$146765[ebp+20], edx

; 647  : 
; 648  : 					m_ShaderEnvs.push_back(env);

	lea	eax, DWORD PTR _env$146765[ebp]
	push	eax
	mov	ecx, DWORD PTR _this$[ebp]
	add	ecx, 12					; 0000000cH
	call	?push_back@?$vector@UShaderEnv@Ogre@@V?$allocator@UShaderEnv@Ogre@@@std@@@std@@QAEXABUShaderEnv@Ogre@@@Z ; std::vector<Ogre::ShaderEnv,std::allocator<Ogre::ShaderEnv> >::push_back

; 649  : 				}	

	jmp	SHORT $LN2@loadShader
$LN1@loadShader:

; 650  : 			}

	jmp	$LN5@loadShader
$LN4@loadShader:

; 651  : 		}

	jmp	$LN8@loadShader
$LN16@loadShader:

; 652  : 	}

	mov	esp, ebp
	pop	ebp
	ret	4
?loadShaderEnvKeysFromDataStream@D3DMaterialTemplate@Ogre@@QAEXPAVDataStream@2@@Z ENDP ; Ogre::D3DMaterialTemplate::loadShaderEnvKeysFromDataStream
; Function compile flags: /Odtp
_TEXT	ENDS
;	COMDAT ??0ShaderEnv@Ogre@@QAE@XZ
_TEXT	SEGMENT
_this$ = -4						; size = 4
??0ShaderEnv@Ogre@@QAE@XZ PROC				; Ogre::ShaderEnv::ShaderEnv, COMDAT
; _this$ = ecx
	push	ebp
	mov	ebp, esp
	push	ecx
	mov	DWORD PTR _this$[ebp], ecx
	mov	ecx, DWORD PTR _this$[ebp]
	add	ecx, 8
	call	??0ShaderEnvKey@Ogre@@QAE@XZ		; Ogre::ShaderEnvKey::ShaderEnvKey
	mov	eax, DWORD PTR _this$[ebp]
	mov	esp, ebp
	pop	ebp
	ret	0
??0ShaderEnv@Ogre@@QAE@XZ ENDP				; Ogre::ShaderEnv::ShaderEnv
_TEXT	ENDS
PUBLIC	?saveShaderEnvKeys@D3DMaterialTemplate@Ogre@@QAEXPAU_iobuf@@@Z ; Ogre::D3DMaterialTemplate::saveShaderEnvKeys
; Function compile flags: /Odtp
_TEXT	SEGMENT
_this$ = -116						; size = 4
$T159256 = -112						; size = 8
$T159255 = -104						; size = 8
_key$146824 = -96					; size = 16
_i$146820 = -76						; size = 4
_shader$146817 = -72					; size = 4
_keyNum$146818 = -68					; size = 4
_i$146813 = -64						; size = 4
_compiledShaderNum$146812 = -60				; size = 4
_shaderGroup$146809 = -56				; size = 4
_type$146810 = -52					; size = 4
_key$146786 = -48					; size = 16
_i$146782 = -32						; size = 4
_shader$146779 = -28					; size = 4
_keyNum$146780 = -24					; size = 4
_i$146775 = -20						; size = 4
_numShaderGroups$ = -16					; size = 4
_numEffectCompiledShader$ = -12				; size = 4
_iter$ = -8						; size = 8
_fp$ = 8						; size = 4
?saveShaderEnvKeys@D3DMaterialTemplate@Ogre@@QAEXPAU_iobuf@@@Z PROC ; Ogre::D3DMaterialTemplate::saveShaderEnvKeys
; _this$ = ecx

; 655  : 	{

	push	ebp
	mov	ebp, esp
	sub	esp, 116				; 00000074H
	mov	DWORD PTR _this$[ebp], ecx

; 656  : 		//
; 657  : 		// m_pEffectGroup
; 658  : 		//
; 659  : 		uint numEffectCompiledShader = 0;

	mov	DWORD PTR _numEffectCompiledShader$[ebp], 0

; 660  : 
; 661  : 		if (m_pEffectGroup)

	mov	eax, DWORD PTR _this$[ebp]
	cmp	DWORD PTR [eax+64], 0
	je	SHORT $LN16@saveShader

; 662  : 		{
; 663  : 			numEffectCompiledShader = (uint)m_pEffectGroup->m_Shaders.size();

	mov	ecx, DWORD PTR _this$[ebp]
	mov	ecx, DWORD PTR [ecx+64]
	add	ecx, 12					; 0000000cH
	call	?size@?$vector@PAVCompiledShader@Ogre@@V?$allocator@PAVCompiledShader@Ogre@@@std@@@std@@QBEIXZ ; std::vector<Ogre::CompiledShader *,std::allocator<Ogre::CompiledShader *> >::size
	mov	DWORD PTR _numEffectCompiledShader$[ebp], eax
$LN16@saveShader:

; 664  : 		}
; 665  : 		fwrite(&numEffectCompiledShader, sizeof(numEffectCompiledShader), 1, fp);

	mov	edx, DWORD PTR _fp$[ebp]
	push	edx
	push	1
	push	4
	lea	eax, DWORD PTR _numEffectCompiledShader$[ebp]
	push	eax
	call	DWORD PTR __imp__fwrite
	add	esp, 16					; 00000010H

; 666  : 
; 667  : 		for (int i=0; i<numEffectCompiledShader; i++)

	mov	DWORD PTR _i$146775[ebp], 0
	jmp	SHORT $LN15@saveShader
$LN14@saveShader:
	mov	ecx, DWORD PTR _i$146775[ebp]
	add	ecx, 1
	mov	DWORD PTR _i$146775[ebp], ecx
$LN15@saveShader:
	mov	edx, DWORD PTR _i$146775[ebp]
	cmp	edx, DWORD PTR _numEffectCompiledShader$[ebp]
	jae	$LN13@saveShader

; 668  : 		{
; 669  : 			CompiledShader *shader = m_pEffectGroup->m_Shaders[i];

	mov	eax, DWORD PTR _i$146775[ebp]
	push	eax
	mov	ecx, DWORD PTR _this$[ebp]
	mov	ecx, DWORD PTR [ecx+64]
	add	ecx, 12					; 0000000cH
	call	??A?$vector@PAVCompiledShader@Ogre@@V?$allocator@PAVCompiledShader@Ogre@@@std@@@std@@QAEAAPAVCompiledShader@Ogre@@I@Z ; std::vector<Ogre::CompiledShader *,std::allocator<Ogre::CompiledShader *> >::operator[]
	mov	edx, DWORD PTR [eax]
	mov	DWORD PTR _shader$146779[ebp], edx

; 670  : 
; 671  : 			// shaderKey
; 672  : 			int keyNum = shader->mShaderEnvKeys.size();

	mov	ecx, DWORD PTR _shader$146779[ebp]
	add	ecx, 340				; 00000154H
	call	?size@?$vector@TShaderEnvKey@Ogre@@V?$allocator@TShaderEnvKey@Ogre@@@std@@@std@@QBEIXZ ; std::vector<Ogre::ShaderEnvKey,std::allocator<Ogre::ShaderEnvKey> >::size
	mov	DWORD PTR _keyNum$146780[ebp], eax

; 673  : 			fwrite(&keyNum, sizeof(int), 1, fp);

	mov	eax, DWORD PTR _fp$[ebp]
	push	eax
	push	1
	push	4
	lea	ecx, DWORD PTR _keyNum$146780[ebp]
	push	ecx
	call	DWORD PTR __imp__fwrite
	add	esp, 16					; 00000010H

; 674  : 
; 675  : 			for (int i=0; i<keyNum; i++)

	mov	DWORD PTR _i$146782[ebp], 0
	jmp	SHORT $LN12@saveShader
$LN11@saveShader:
	mov	edx, DWORD PTR _i$146782[ebp]
	add	edx, 1
	mov	DWORD PTR _i$146782[ebp], edx
$LN12@saveShader:
	mov	eax, DWORD PTR _i$146782[ebp]
	cmp	eax, DWORD PTR _keyNum$146780[ebp]
	jge	SHORT $LN10@saveShader

; 676  : 			{
; 677  : 				ShaderEnvKey key = shader->mShaderEnvKeys[i];

	mov	ecx, DWORD PTR _i$146782[ebp]
	push	ecx
	mov	ecx, DWORD PTR _shader$146779[ebp]
	add	ecx, 340				; 00000154H
	call	??A?$vector@TShaderEnvKey@Ogre@@V?$allocator@TShaderEnvKey@Ogre@@@std@@@std@@QAEAATShaderEnvKey@Ogre@@I@Z ; std::vector<Ogre::ShaderEnvKey,std::allocator<Ogre::ShaderEnvKey> >::operator[]
	mov	edx, DWORD PTR [eax]
	mov	DWORD PTR _key$146786[ebp], edx
	mov	ecx, DWORD PTR [eax+4]
	mov	DWORD PTR _key$146786[ebp+4], ecx
	mov	edx, DWORD PTR [eax+8]
	mov	DWORD PTR _key$146786[ebp+8], edx
	mov	eax, DWORD PTR [eax+12]
	mov	DWORD PTR _key$146786[ebp+12], eax

; 678  : 				fwrite(&key, sizeof(key), 1, fp);

	mov	ecx, DWORD PTR _fp$[ebp]
	push	ecx
	push	1
	push	16					; 00000010H
	lea	edx, DWORD PTR _key$146786[ebp]
	push	edx
	call	DWORD PTR __imp__fwrite
	add	esp, 16					; 00000010H

; 679  : 			}

	jmp	SHORT $LN11@saveShader
$LN10@saveShader:

; 680  : 		}

	jmp	$LN14@saveShader
$LN13@saveShader:

; 681  : 
; 682  : 		//
; 683  : 		// m_ShaderGroups
; 684  : 		//
; 685  : 		uint numShaderGroups = (uint)m_ShaderGroups.size();

	mov	ecx, DWORD PTR _this$[ebp]
	add	ecx, 76					; 0000004cH
	call	?size@?$_Tree@V?$_Tmap_traits@VFixedString@Ogre@@PAVCompiledShaderGroup@2@U?$less@VFixedString@Ogre@@@std@@V?$allocator@U?$pair@$$CBVFixedString@Ogre@@PAVCompiledShaderGroup@2@@std@@@5@$0A@@std@@@std@@QBEIXZ ; std::_Tree<std::_Tmap_traits<Ogre::FixedString,Ogre::CompiledShaderGroup *,std::less<Ogre::FixedString>,std::allocator<std::pair<Ogre::FixedString const ,Ogre::CompiledShaderGroup *> >,0> >::size
	mov	DWORD PTR _numShaderGroups$[ebp], eax

; 686  : 		fwrite(&numShaderGroups, sizeof(numShaderGroups), 1, fp);

	mov	eax, DWORD PTR _fp$[ebp]
	push	eax
	push	1
	push	4
	lea	ecx, DWORD PTR _numShaderGroups$[ebp]
	push	ecx
	call	DWORD PTR __imp__fwrite
	add	esp, 16					; 00000010H

; 687  : 
; 688  : 		std::map<FixedString, CompiledShaderGroup *>::iterator iter = m_ShaderGroups.begin();

	lea	edx, DWORD PTR _iter$[ebp]
	push	edx
	mov	ecx, DWORD PTR _this$[ebp]
	add	ecx, 76					; 0000004cH
	call	?begin@?$_Tree@V?$_Tmap_traits@VFixedString@Ogre@@PAVCompiledShaderGroup@2@U?$less@VFixedString@Ogre@@@std@@V?$allocator@U?$pair@$$CBVFixedString@Ogre@@PAVCompiledShaderGroup@2@@std@@@5@$0A@@std@@@std@@QAE?AViterator@12@XZ ; std::_Tree<std::_Tmap_traits<Ogre::FixedString,Ogre::CompiledShaderGroup *,std::less<Ogre::FixedString>,std::allocator<std::pair<Ogre::FixedString const ,Ogre::CompiledShaderGroup *> >,0> >::begin
	jmp	SHORT $LN9@saveShader
$LN8@saveShader:

; 689  : 		for (; iter!=m_ShaderGroups.end(); iter++)

	push	0
	lea	eax, DWORD PTR $T159255[ebp]
	push	eax
	lea	ecx, DWORD PTR _iter$[ebp]
	call	??Eiterator@?$_Tree@V?$_Tmap_traits@VFixedString@Ogre@@PAVCompiledShaderGroup@2@U?$less@VFixedString@Ogre@@@std@@V?$allocator@U?$pair@$$CBVFixedString@Ogre@@PAVCompiledShaderGroup@2@@std@@@5@$0A@@std@@@std@@QAE?AV012@H@Z ; std::_Tree<std::_Tmap_traits<Ogre::FixedString,Ogre::CompiledShaderGroup *,std::less<Ogre::FixedString>,std::allocator<std::pair<Ogre::FixedString const ,Ogre::CompiledShaderGroup *> >,0> >::iterator::operator++
$LN9@saveShader:
	lea	ecx, DWORD PTR $T159256[ebp]
	push	ecx
	mov	ecx, DWORD PTR _this$[ebp]
	add	ecx, 76					; 0000004cH
	call	?end@?$_Tree@V?$_Tmap_traits@VFixedString@Ogre@@PAVCompiledShaderGroup@2@U?$less@VFixedString@Ogre@@@std@@V?$allocator@U?$pair@$$CBVFixedString@Ogre@@PAVCompiledShaderGroup@2@@std@@@5@$0A@@std@@@std@@QAE?AViterator@12@XZ ; std::_Tree<std::_Tmap_traits<Ogre::FixedString,Ogre::CompiledShaderGroup *,std::less<Ogre::FixedString>,std::allocator<std::pair<Ogre::FixedString const ,Ogre::CompiledShaderGroup *> >,0> >::end
	push	eax
	lea	ecx, DWORD PTR _iter$[ebp]
	call	??9const_iterator@?$_Tree@V?$_Tmap_traits@VFixedString@Ogre@@PAVCompiledShaderGroup@2@U?$less@VFixedString@Ogre@@@std@@V?$allocator@U?$pair@$$CBVFixedString@Ogre@@PAVCompiledShaderGroup@2@@std@@@5@$0A@@std@@@std@@QBE_NABV012@@Z ; std::_Tree<std::_Tmap_traits<Ogre::FixedString,Ogre::CompiledShaderGroup *,std::less<Ogre::FixedString>,std::allocator<std::pair<Ogre::FixedString const ,Ogre::CompiledShaderGroup *> >,0> >::const_iterator::operator!=
	movzx	edx, al
	test	edx, edx
	je	$LN17@saveShader

; 690  : 		{
; 691  : 			CompiledShaderGroup *shaderGroup = iter->second;

	lea	ecx, DWORD PTR _iter$[ebp]
	call	??Citerator@?$_Tree@V?$_Tmap_traits@VFixedString@Ogre@@PAVCompiledShaderGroup@2@U?$less@VFixedString@Ogre@@@std@@V?$allocator@U?$pair@$$CBVFixedString@Ogre@@PAVCompiledShaderGroup@2@@std@@@5@$0A@@std@@@std@@QBEPAU?$pair@$$CBVFixedString@Ogre@@PAVCompiledShaderGroup@2@@2@XZ ; std::_Tree<std::_Tmap_traits<Ogre::FixedString,Ogre::CompiledShaderGroup *,std::less<Ogre::FixedString>,std::allocator<std::pair<Ogre::FixedString const ,Ogre::CompiledShaderGroup *> >,0> >::iterator::operator->
	mov	eax, DWORD PTR [eax+4]
	mov	DWORD PTR _shaderGroup$146809[ebp], eax

; 692  : 
; 693  : 			// COMPILED_TYPE
; 694  : 			uint type = (uint)shaderGroup->m_Type;

	mov	ecx, DWORD PTR _shaderGroup$146809[ebp]
	mov	edx, DWORD PTR [ecx]
	mov	DWORD PTR _type$146810[ebp], edx

; 695  : 			fwrite(&type, sizeof(type), 1, fp);

	mov	eax, DWORD PTR _fp$[ebp]
	push	eax
	push	1
	push	4
	lea	ecx, DWORD PTR _type$146810[ebp]
	push	ecx
	call	DWORD PTR __imp__fwrite
	add	esp, 16					; 00000010H

; 696  : 
; 697  : 			uint compiledShaderNum = shaderGroup->m_Shaders.size();

	mov	ecx, DWORD PTR _shaderGroup$146809[ebp]
	add	ecx, 12					; 0000000cH
	call	?size@?$vector@PAVCompiledShader@Ogre@@V?$allocator@PAVCompiledShader@Ogre@@@std@@@std@@QBEIXZ ; std::vector<Ogre::CompiledShader *,std::allocator<Ogre::CompiledShader *> >::size
	mov	DWORD PTR _compiledShaderNum$146812[ebp], eax

; 698  : 			fwrite(&compiledShaderNum, sizeof(compiledShaderNum), 1, fp);

	mov	edx, DWORD PTR _fp$[ebp]
	push	edx
	push	1
	push	4
	lea	eax, DWORD PTR _compiledShaderNum$146812[ebp]
	push	eax
	call	DWORD PTR __imp__fwrite
	add	esp, 16					; 00000010H

; 699  : 
; 700  : 			for (int i=0; i<compiledShaderNum; i++)

	mov	DWORD PTR _i$146813[ebp], 0
	jmp	SHORT $LN6@saveShader
$LN5@saveShader:
	mov	ecx, DWORD PTR _i$146813[ebp]
	add	ecx, 1
	mov	DWORD PTR _i$146813[ebp], ecx
$LN6@saveShader:
	mov	edx, DWORD PTR _i$146813[ebp]
	cmp	edx, DWORD PTR _compiledShaderNum$146812[ebp]
	jae	$LN4@saveShader

; 701  : 			{
; 702  : 				CompiledShader *shader = shaderGroup->m_Shaders[i];

	mov	eax, DWORD PTR _i$146813[ebp]
	push	eax
	mov	ecx, DWORD PTR _shaderGroup$146809[ebp]
	add	ecx, 12					; 0000000cH
	call	??A?$vector@PAVCompiledShader@Ogre@@V?$allocator@PAVCompiledShader@Ogre@@@std@@@std@@QAEAAPAVCompiledShader@Ogre@@I@Z ; std::vector<Ogre::CompiledShader *,std::allocator<Ogre::CompiledShader *> >::operator[]
	mov	ecx, DWORD PTR [eax]
	mov	DWORD PTR _shader$146817[ebp], ecx

; 703  : 
; 704  : 				// shaderKey
; 705  : 				int keyNum = shader->mShaderEnvKeys.size();

	mov	ecx, DWORD PTR _shader$146817[ebp]
	add	ecx, 340				; 00000154H
	call	?size@?$vector@TShaderEnvKey@Ogre@@V?$allocator@TShaderEnvKey@Ogre@@@std@@@std@@QBEIXZ ; std::vector<Ogre::ShaderEnvKey,std::allocator<Ogre::ShaderEnvKey> >::size
	mov	DWORD PTR _keyNum$146818[ebp], eax

; 706  : 				fwrite(&keyNum, sizeof(int), 1, fp);

	mov	edx, DWORD PTR _fp$[ebp]
	push	edx
	push	1
	push	4
	lea	eax, DWORD PTR _keyNum$146818[ebp]
	push	eax
	call	DWORD PTR __imp__fwrite
	add	esp, 16					; 00000010H

; 707  : 
; 708  : 				for (int i=0; i<keyNum; i++)

	mov	DWORD PTR _i$146820[ebp], 0
	jmp	SHORT $LN3@saveShader
$LN2@saveShader:
	mov	ecx, DWORD PTR _i$146820[ebp]
	add	ecx, 1
	mov	DWORD PTR _i$146820[ebp], ecx
$LN3@saveShader:
	mov	edx, DWORD PTR _i$146820[ebp]
	cmp	edx, DWORD PTR _keyNum$146818[ebp]
	jge	SHORT $LN1@saveShader

; 709  : 				{
; 710  : 					ShaderEnvKey key = shader->mShaderEnvKeys[i];

	mov	eax, DWORD PTR _i$146820[ebp]
	push	eax
	mov	ecx, DWORD PTR _shader$146817[ebp]
	add	ecx, 340				; 00000154H
	call	??A?$vector@TShaderEnvKey@Ogre@@V?$allocator@TShaderEnvKey@Ogre@@@std@@@std@@QAEAATShaderEnvKey@Ogre@@I@Z ; std::vector<Ogre::ShaderEnvKey,std::allocator<Ogre::ShaderEnvKey> >::operator[]
	mov	ecx, DWORD PTR [eax]
	mov	DWORD PTR _key$146824[ebp], ecx
	mov	edx, DWORD PTR [eax+4]
	mov	DWORD PTR _key$146824[ebp+4], edx
	mov	ecx, DWORD PTR [eax+8]
	mov	DWORD PTR _key$146824[ebp+8], ecx
	mov	edx, DWORD PTR [eax+12]
	mov	DWORD PTR _key$146824[ebp+12], edx

; 711  : 					fwrite(&key, sizeof(key), 1, fp);

	mov	eax, DWORD PTR _fp$[ebp]
	push	eax
	push	1
	push	16					; 00000010H
	lea	ecx, DWORD PTR _key$146824[ebp]
	push	ecx
	call	DWORD PTR __imp__fwrite
	add	esp, 16					; 00000010H

; 712  : 				}		

	jmp	SHORT $LN2@saveShader
$LN1@saveShader:

; 713  : 			}

	jmp	$LN5@saveShader
$LN4@saveShader:

; 714  : 		}

	jmp	$LN8@saveShader
$LN17@saveShader:

; 715  : 	}

	mov	esp, ebp
	pop	ebp
	ret	4
?saveShaderEnvKeys@D3DMaterialTemplate@Ogre@@QAEXPAU_iobuf@@@Z ENDP ; Ogre::D3DMaterialTemplate::saveShaderEnvKeys
_TEXT	ENDS
PUBLIC	?addShaderKey@CompiledShader@Ogre@@QAEXTShaderEnvKey@2@@Z ; Ogre::CompiledShader::addShaderKey
PUBLIC	__$ArrayPad$
PUBLIC	?loadCompiledShadersFromDataStream@D3DMaterialTemplate@Ogre@@QAEXPAVDataStream@2@@Z ; Ogre::D3DMaterialTemplate::loadCompiledShadersFromDataStream
EXTRN	??_V@YAXPAX@Z:PROC				; operator delete[]
xdata$x	SEGMENT
__ehfuncinfo$?loadCompiledShadersFromDataStream@D3DMaterialTemplate@Ogre@@QAEXPAVDataStream@2@@Z DD 019930522H
	DD	07H
	DD	FLAT:__unwindtable$?loadCompiledShadersFromDataStream@D3DMaterialTemplate@Ogre@@QAEXPAVDataStream@2@@Z
	DD	2 DUP(00H)
	DD	2 DUP(00H)
	DD	00H
	DD	00H
__unwindtable$?loadCompiledShadersFromDataStream@D3DMaterialTemplate@Ogre@@QAEXPAVDataStream@2@@Z DD 0ffffffffH
	DD	FLAT:__unwindfunclet$?loadCompiledShadersFromDataStream@D3DMaterialTemplate@Ogre@@QAEXPAVDataStream@2@@Z$0
	DD	00H
	DD	FLAT:__unwindfunclet$?loadCompiledShadersFromDataStream@D3DMaterialTemplate@Ogre@@QAEXPAVDataStream@2@@Z$1
	DD	0ffffffffH
	DD	FLAT:__unwindfunclet$?loadCompiledShadersFromDataStream@D3DMaterialTemplate@Ogre@@QAEXPAVDataStream@2@@Z$1
	DD	0ffffffffH
	DD	FLAT:__unwindfunclet$?loadCompiledShadersFromDataStream@D3DMaterialTemplate@Ogre@@QAEXPAVDataStream@2@@Z$2
	DD	0ffffffffH
	DD	FLAT:__unwindfunclet$?loadCompiledShadersFromDataStream@D3DMaterialTemplate@Ogre@@QAEXPAVDataStream@2@@Z$3
	DD	04H
	DD	FLAT:__unwindfunclet$?loadCompiledShadersFromDataStream@D3DMaterialTemplate@Ogre@@QAEXPAVDataStream@2@@Z$4
	DD	04H
	DD	FLAT:__unwindfunclet$?loadCompiledShadersFromDataStream@D3DMaterialTemplate@Ogre@@QAEXPAVDataStream@2@@Z$5
; Function compile flags: /Odtp
xdata$x	ENDS
_TEXT	SEGMENT
tv244 = -464						; size = 4
tv228 = -460						; size = 4
tv139 = -456						; size = 4
tv128 = -452						; size = 4
_this$ = -448						; size = 4
$T159279 = -444						; size = 4
$T159275 = -440						; size = 4
$T159274 = -436						; size = 4
$T159271 = -432						; size = 4
$T159270 = -428						; size = 4
$T159269 = -424						; size = 4
$T159268 = -420						; size = 4
$T159265 = -416						; size = 4
$T159264 = -412						; size = 4
$T159261 = -408						; size = 4
$T159260 = -404						; size = 4
$T159259 = -400						; size = 4
_key$146893 = -396					; size = 16
_i$146889 = -380					; size = 4
_bufferSize$146895 = -376				; size = 4
_numKeys$146888 = -372					; size = 4
_newShader$146883 = -368				; size = 4
_bufferKey$146894 = -364				; size = 4
_j$146879 = -360					; size = 4
_compiledShaderNum$146878 = -356			; size = 4
_shaderGroup$146873 = -352				; size = 4
_name$146868 = -348					; size = 4
_pathstr$146871 = -344					; size = 4
_type$146864 = -340					; size = 4
_nameLength$146867 = -336				; size = 4
_compiledType$146865 = -332				; size = 4
_i$146860 = -328					; size = 4
_key$146854 = -324					; size = 16
_i$146850 = -308					; size = 4
_bufferSize$146856 = -304				; size = 4
_numKeys$146849 = -300					; size = 4
_newShader$146844 = -296				; size = 4
_bufferKey$146855 = -292				; size = 4
_i$146840 = -288					; size = 4
_path$146831 = -284					; size = 256
__$ArrayPad$ = -24					; size = 4
_numShaderGroups$ = -20					; size = 4
_numEffectCompiledShader$ = -16				; size = 4
__$EHRec$ = -12						; size = 12
_ds$ = 8						; size = 4
?loadCompiledShadersFromDataStream@D3DMaterialTemplate@Ogre@@QAEXPAVDataStream@2@@Z PROC ; Ogre::D3DMaterialTemplate::loadCompiledShadersFromDataStream
; _this$ = ecx

; 718  : 	{

	push	ebp
	mov	ebp, esp
	push	-1
	push	__ehhandler$?loadCompiledShadersFromDataStream@D3DMaterialTemplate@Ogre@@QAEXPAVDataStream@2@@Z
	mov	eax, DWORD PTR fs:0
	push	eax
	sub	esp, 452				; 000001c4H
	mov	eax, DWORD PTR ___security_cookie
	xor	eax, ebp
	mov	DWORD PTR __$ArrayPad$[ebp], eax
	push	eax
	lea	eax, DWORD PTR __$EHRec$[ebp]
	mov	DWORD PTR fs:0, eax
	mov	DWORD PTR _this$[ebp], ecx
	mov	DWORD PTR $T159279[ebp], 0

; 719  : 		//
; 720  : 		// m_pEffectGroup
; 721  : 		//
; 722  : 
; 723  : 		uint numEffectCompiledShader = 0;

	mov	DWORD PTR _numEffectCompiledShader$[ebp], 0

; 724  : 		ds->read(&numEffectCompiledShader, sizeof(numEffectCompiledShader));

	push	4
	lea	eax, DWORD PTR _numEffectCompiledShader$[ebp]
	push	eax
	mov	ecx, DWORD PTR _ds$[ebp]
	mov	edx, DWORD PTR [ecx]
	mov	ecx, DWORD PTR _ds$[ebp]
	mov	eax, DWORD PTR [edx+4]
	call	eax

; 725  : 
; 726  : 		if (numEffectCompiledShader > 0)

	cmp	DWORD PTR _numEffectCompiledShader$[ebp], 0
	jbe	$LN17@loadCompil@2

; 727  : 		{
; 728  : 			char path[256];
; 729  : 			sprintf(path, "%s%s.fx", OGRE_SHADER_PATH, (const char *)m_Name);

	mov	ecx, DWORD PTR _this$[ebp]
	add	ecx, 36					; 00000024H
	call	DWORD PTR __imp_??BFixedString@Ogre@@QBEPBDXZ
	push	eax
	push	OFFSET $SG146833
	push	OFFSET $SG146834
	lea	ecx, DWORD PTR _path$146831[ebp]
	push	ecx
	call	DWORD PTR __imp__sprintf
	add	esp, 16					; 00000010H

; 730  : 
; 731  : 			m_pEffectGroup = new CompiledShaderGroup(COMPILED_EFFECT, this, path);

	push	72					; 00000048H
	call	??2@YAPAXI@Z				; operator new
	add	esp, 4
	mov	DWORD PTR $T159260[ebp], eax
	mov	DWORD PTR __$EHRec$[ebp+8], 0
	cmp	DWORD PTR $T159260[ebp], 0
	je	SHORT $LN20@loadCompil@2
	lea	edx, DWORD PTR _path$146831[ebp]
	push	edx
	lea	ecx, DWORD PTR $T159261[ebp]
	call	DWORD PTR __imp_??0FixedString@Ogre@@QAE@PBD@Z
	mov	BYTE PTR __$EHRec$[ebp+8], 1
	mov	eax, DWORD PTR $T159279[ebp]
	or	eax, 1
	mov	DWORD PTR $T159279[ebp], eax
	lea	ecx, DWORD PTR $T159261[ebp]
	push	ecx
	mov	edx, DWORD PTR _this$[ebp]
	push	edx
	push	0
	mov	ecx, DWORD PTR $T159260[ebp]
	call	??0CompiledShaderGroup@Ogre@@QAE@W4COMPILED_TYPE@1@PAVD3DMaterialTemplate@1@ABVFixedString@1@@Z ; Ogre::CompiledShaderGroup::CompiledShaderGroup
	mov	DWORD PTR tv128[ebp], eax
	jmp	SHORT $LN21@loadCompil@2
$LN20@loadCompil@2:
	mov	DWORD PTR tv128[ebp], 0
$LN21@loadCompil@2:
	mov	eax, DWORD PTR tv128[ebp]
	mov	DWORD PTR $T159259[ebp], eax
	mov	DWORD PTR __$EHRec$[ebp+8], 2
	mov	ecx, DWORD PTR _this$[ebp]
	mov	edx, DWORD PTR $T159259[ebp]
	mov	DWORD PTR [ecx+64], edx
	mov	DWORD PTR __$EHRec$[ebp+8], -1
	mov	eax, DWORD PTR $T159279[ebp]
	and	eax, 1
	je	SHORT $LN31@loadCompil@2
	and	DWORD PTR $T159279[ebp], -2		; fffffffeH
	lea	ecx, DWORD PTR $T159261[ebp]
	call	DWORD PTR __imp_??1FixedString@Ogre@@QAE@XZ
$LN31@loadCompil@2:

; 732  : 
; 733  : 			for (int i=0; i<numEffectCompiledShader; i++)

	mov	DWORD PTR _i$146840[ebp], 0
	jmp	SHORT $LN16@loadCompil@2
$LN15@loadCompil@2:
	mov	ecx, DWORD PTR _i$146840[ebp]
	add	ecx, 1
	mov	DWORD PTR _i$146840[ebp], ecx
$LN16@loadCompil@2:
	mov	edx, DWORD PTR _i$146840[ebp]
	cmp	edx, DWORD PTR _numEffectCompiledShader$[ebp]
	jae	$LN14@loadCompil@2

; 734  : 			{
; 735  : 				CompiledShader *newShader = new CompiledShader(this, COMPILED_EFFECT);

	push	368					; 00000170H
	call	??2@YAPAXI@Z				; operator new
	add	esp, 4
	mov	DWORD PTR $T159265[ebp], eax
	mov	DWORD PTR __$EHRec$[ebp+8], 3
	cmp	DWORD PTR $T159265[ebp], 0
	je	SHORT $LN22@loadCompil@2
	push	0
	mov	eax, DWORD PTR _this$[ebp]
	push	eax
	mov	ecx, DWORD PTR $T159265[ebp]
	call	??0CompiledShader@Ogre@@QAE@PAVD3DMaterialTemplate@1@W4COMPILED_TYPE@1@@Z ; Ogre::CompiledShader::CompiledShader
	mov	DWORD PTR tv139[ebp], eax
	jmp	SHORT $LN23@loadCompil@2
$LN22@loadCompil@2:
	mov	DWORD PTR tv139[ebp], 0
$LN23@loadCompil@2:
	mov	ecx, DWORD PTR tv139[ebp]
	mov	DWORD PTR $T159264[ebp], ecx
	mov	DWORD PTR __$EHRec$[ebp+8], -1
	mov	edx, DWORD PTR $T159264[ebp]
	mov	DWORD PTR _newShader$146844[ebp], edx

; 736  : 
; 737  : 				// ShaderKey
; 738  : 				int numKeys;
; 739  : 				ds->read(&numKeys, sizeof(numKeys));

	push	4
	lea	eax, DWORD PTR _numKeys$146849[ebp]
	push	eax
	mov	ecx, DWORD PTR _ds$[ebp]
	mov	edx, DWORD PTR [ecx]
	mov	ecx, DWORD PTR _ds$[ebp]
	mov	eax, DWORD PTR [edx+4]
	call	eax

; 740  : 
; 741  : 				for (int i=0; i<numKeys; i++)

	mov	DWORD PTR _i$146850[ebp], 0
	jmp	SHORT $LN13@loadCompil@2
$LN12@loadCompil@2:
	mov	ecx, DWORD PTR _i$146850[ebp]
	add	ecx, 1
	mov	DWORD PTR _i$146850[ebp], ecx
$LN13@loadCompil@2:
	mov	edx, DWORD PTR _i$146850[ebp]
	cmp	edx, DWORD PTR _numKeys$146849[ebp]
	jge	SHORT $LN11@loadCompil@2

; 742  : 				{
; 743  : 					ShaderEnvKey key;

	lea	ecx, DWORD PTR _key$146854[ebp]
	call	??0ShaderEnvKey@Ogre@@QAE@XZ		; Ogre::ShaderEnvKey::ShaderEnvKey

; 744  : 					ds->read(&key, sizeof(key));

	push	16					; 00000010H
	lea	eax, DWORD PTR _key$146854[ebp]
	push	eax
	mov	ecx, DWORD PTR _ds$[ebp]
	mov	edx, DWORD PTR [ecx]
	mov	ecx, DWORD PTR _ds$[ebp]
	mov	eax, DWORD PTR [edx+4]
	call	eax

; 745  : 					newShader->addShaderKey(key);

	sub	esp, 16					; 00000010H
	mov	ecx, esp
	mov	edx, DWORD PTR _key$146854[ebp]
	mov	DWORD PTR [ecx], edx
	mov	eax, DWORD PTR _key$146854[ebp+4]
	mov	DWORD PTR [ecx+4], eax
	mov	edx, DWORD PTR _key$146854[ebp+8]
	mov	DWORD PTR [ecx+8], edx
	mov	eax, DWORD PTR _key$146854[ebp+12]
	mov	DWORD PTR [ecx+12], eax
	mov	ecx, DWORD PTR _newShader$146844[ebp]
	call	?addShaderKey@CompiledShader@Ogre@@QAEXTShaderEnvKey@2@@Z ; Ogre::CompiledShader::addShaderKey

; 746  : 					
; 747  : 					m_pEffectGroup->m_MacroShaderMap[key] = newShader;

	lea	ecx, DWORD PTR _key$146854[ebp]
	push	ecx
	mov	edx, DWORD PTR _this$[ebp]
	mov	ecx, DWORD PTR [edx+64]
	add	ecx, 36					; 00000024H
	call	??A?$map@TShaderEnvKey@Ogre@@PAVCompiledShader@2@U?$less@TShaderEnvKey@Ogre@@@std@@V?$allocator@U?$pair@$$CBTShaderEnvKey@Ogre@@PAVCompiledShader@2@@std@@@5@@std@@QAEAAPAVCompiledShader@Ogre@@ABTShaderEnvKey@3@@Z ; std::map<Ogre::ShaderEnvKey,Ogre::CompiledShader *,std::less<Ogre::ShaderEnvKey>,std::allocator<std::pair<Ogre::ShaderEnvKey const ,Ogre::CompiledShader *> > >::operator[]
	mov	ecx, DWORD PTR _newShader$146844[ebp]
	mov	DWORD PTR [eax], ecx

; 748  : 				}

	jmp	$LN12@loadCompil@2
$LN11@loadCompil@2:

; 749  : 
; 750  : 				uint bufferKey = 0;

	mov	DWORD PTR _bufferKey$146855[ebp], 0

; 751  : 				ds->read(&bufferKey, sizeof(bufferKey));

	push	4
	lea	edx, DWORD PTR _bufferKey$146855[ebp]
	push	edx
	mov	eax, DWORD PTR _ds$[ebp]
	mov	edx, DWORD PTR [eax]
	mov	ecx, DWORD PTR _ds$[ebp]
	mov	eax, DWORD PTR [edx+4]
	call	eax

; 752  : 				newShader->m_BufferKey = bufferKey;

	mov	ecx, DWORD PTR _newShader$146844[ebp]
	mov	edx, DWORD PTR _bufferKey$146855[ebp]
	mov	DWORD PTR [ecx+40], edx

; 753  : 
; 754  : 				uint bufferSize = 0;

	mov	DWORD PTR _bufferSize$146856[ebp], 0

; 755  : 				ds->read(&bufferSize, sizeof(bufferSize));

	push	4
	lea	eax, DWORD PTR _bufferSize$146856[ebp]
	push	eax
	mov	ecx, DWORD PTR _ds$[ebp]
	mov	edx, DWORD PTR [ecx]
	mov	ecx, DWORD PTR _ds$[ebp]
	mov	eax, DWORD PTR [edx+4]
	call	eax

; 756  : 
; 757  : 				newShader->m_CompiledBuf.resize(bufferSize);

	mov	ecx, DWORD PTR _bufferSize$146856[ebp]
	push	ecx
	mov	ecx, DWORD PTR _newShader$146844[ebp]
	add	ecx, 16					; 00000010H
	call	?resize@?$vector@DV?$allocator@D@std@@@std@@QAEXI@Z ; std::vector<char,std::allocator<char> >::resize

; 758  : 				ds->read(&newShader->m_CompiledBuf[0], bufferSize*sizeof(char));

	mov	edx, DWORD PTR _bufferSize$146856[ebp]
	push	edx
	push	0
	mov	ecx, DWORD PTR _newShader$146844[ebp]
	add	ecx, 16					; 00000010H
	call	??A?$vector@DV?$allocator@D@std@@@std@@QAEAADI@Z ; std::vector<char,std::allocator<char> >::operator[]
	push	eax
	mov	eax, DWORD PTR _ds$[ebp]
	mov	edx, DWORD PTR [eax]
	mov	ecx, DWORD PTR _ds$[ebp]
	mov	eax, DWORD PTR [edx+4]
	call	eax

; 759  : 
; 760  : 				m_pEffectGroup->m_Shaders.push_back(newShader);

	lea	ecx, DWORD PTR _newShader$146844[ebp]
	push	ecx
	mov	edx, DWORD PTR _this$[ebp]
	mov	ecx, DWORD PTR [edx+64]
	add	ecx, 12					; 0000000cH
	call	?push_back@?$vector@PAVCompiledShader@Ogre@@V?$allocator@PAVCompiledShader@Ogre@@@std@@@std@@QAEXABQAVCompiledShader@Ogre@@@Z ; std::vector<Ogre::CompiledShader *,std::allocator<Ogre::CompiledShader *> >::push_back

; 761  : 			}

	jmp	$LN15@loadCompil@2
$LN14@loadCompil@2:

; 762  : 		}
; 763  : 		else

	jmp	SHORT $LN10@loadCompil@2
$LN17@loadCompil@2:

; 764  : 		{
; 765  : 			m_pEffectGroup = 0;

	mov	eax, DWORD PTR _this$[ebp]
	mov	DWORD PTR [eax+64], 0
$LN10@loadCompil@2:

; 766  : 		}
; 767  : 
; 768  : 		//
; 769  : 		// m_ShaderGroups
; 770  : 		//
; 771  : 
; 772  : 		uint numShaderGroups = 0;

	mov	DWORD PTR _numShaderGroups$[ebp], 0

; 773  : 		ds->read(&numShaderGroups, sizeof(numShaderGroups));

	push	4
	lea	ecx, DWORD PTR _numShaderGroups$[ebp]
	push	ecx
	mov	edx, DWORD PTR _ds$[ebp]
	mov	eax, DWORD PTR [edx]
	mov	ecx, DWORD PTR _ds$[ebp]
	mov	edx, DWORD PTR [eax+4]
	call	edx

; 774  : 
; 775  : 		for (int i=0; i<numShaderGroups; i++)

	mov	DWORD PTR _i$146860[ebp], 0
	jmp	SHORT $LN9@loadCompil@2
$LN8@loadCompil@2:
	mov	eax, DWORD PTR _i$146860[ebp]
	add	eax, 1
	mov	DWORD PTR _i$146860[ebp], eax
$LN9@loadCompil@2:
	mov	ecx, DWORD PTR _i$146860[ebp]
	cmp	ecx, DWORD PTR _numShaderGroups$[ebp]
	jae	$LN18@loadCompil@2

; 776  : 		{
; 777  : 			uint type;
; 778  : 			ds->read(&type, sizeof(type));

	push	4
	lea	edx, DWORD PTR _type$146864[ebp]
	push	edx
	mov	eax, DWORD PTR _ds$[ebp]
	mov	edx, DWORD PTR [eax]
	mov	ecx, DWORD PTR _ds$[ebp]
	mov	eax, DWORD PTR [edx+4]
	call	eax

; 779  : 			COMPILED_TYPE compiledType = (COMPILED_TYPE)type;

	mov	ecx, DWORD PTR _type$146864[ebp]
	mov	DWORD PTR _compiledType$146865[ebp], ecx

; 780  : 
; 781  : 			// pathname
; 782  : 			UINT nameLength;
; 783  : 			ds->read(&nameLength, sizeof(nameLength));

	push	4
	lea	edx, DWORD PTR _nameLength$146867[ebp]
	push	edx
	mov	eax, DWORD PTR _ds$[ebp]
	mov	edx, DWORD PTR [eax]
	mov	ecx, DWORD PTR _ds$[ebp]
	mov	eax, DWORD PTR [edx+4]
	call	eax

; 784  : 
; 785  : 			char *name = new char[nameLength+1];

	mov	ecx, DWORD PTR _nameLength$146867[ebp]
	add	ecx, 1
	push	ecx
	call	??_U@YAPAXI@Z				; operator new[]
	add	esp, 4
	mov	DWORD PTR $T159268[ebp], eax
	mov	edx, DWORD PTR $T159268[ebp]
	mov	DWORD PTR _name$146868[ebp], edx

; 786  : 			ds->read(name, nameLength);	

	mov	eax, DWORD PTR _nameLength$146867[ebp]
	push	eax
	mov	ecx, DWORD PTR _name$146868[ebp]
	push	ecx
	mov	edx, DWORD PTR _ds$[ebp]
	mov	eax, DWORD PTR [edx]
	mov	ecx, DWORD PTR _ds$[ebp]
	mov	edx, DWORD PTR [eax+4]
	call	edx

; 787  : 
; 788  : 			name[nameLength] = '\0';

	mov	eax, DWORD PTR _name$146868[ebp]
	add	eax, DWORD PTR _nameLength$146867[ebp]
	mov	BYTE PTR [eax], 0

; 789  : 			FixedString pathstr(name);

	mov	ecx, DWORD PTR _name$146868[ebp]
	push	ecx
	lea	ecx, DWORD PTR _pathstr$146871[ebp]
	call	DWORD PTR __imp_??0FixedString@Ogre@@QAE@PBD@Z
	mov	DWORD PTR __$EHRec$[ebp+8], 4

; 790  : 			delete [] name;

	mov	edx, DWORD PTR _name$146868[ebp]
	mov	DWORD PTR $T159269[ebp], edx
	mov	eax, DWORD PTR $T159269[ebp]
	push	eax
	call	??_V@YAXPAX@Z				; operator delete[]
	add	esp, 4

; 791  : 
; 792  : 			CompiledShaderGroup *shaderGroup = new CompiledShaderGroup(compiledType, this, pathstr);

	push	72					; 00000048H
	call	??2@YAPAXI@Z				; operator new
	add	esp, 4
	mov	DWORD PTR $T159271[ebp], eax
	mov	BYTE PTR __$EHRec$[ebp+8], 5
	cmp	DWORD PTR $T159271[ebp], 0
	je	SHORT $LN24@loadCompil@2
	lea	ecx, DWORD PTR _pathstr$146871[ebp]
	push	ecx
	mov	edx, DWORD PTR _this$[ebp]
	push	edx
	mov	eax, DWORD PTR _compiledType$146865[ebp]
	push	eax
	mov	ecx, DWORD PTR $T159271[ebp]
	call	??0CompiledShaderGroup@Ogre@@QAE@W4COMPILED_TYPE@1@PAVD3DMaterialTemplate@1@ABVFixedString@1@@Z ; Ogre::CompiledShaderGroup::CompiledShaderGroup
	mov	DWORD PTR tv228[ebp], eax
	jmp	SHORT $LN25@loadCompil@2
$LN24@loadCompil@2:
	mov	DWORD PTR tv228[ebp], 0
$LN25@loadCompil@2:
	mov	ecx, DWORD PTR tv228[ebp]
	mov	DWORD PTR $T159270[ebp], ecx
	mov	BYTE PTR __$EHRec$[ebp+8], 4
	mov	edx, DWORD PTR $T159270[ebp]
	mov	DWORD PTR _shaderGroup$146873[ebp], edx

; 793  : 
; 794  : 			uint compiledShaderNum;
; 795  : 			ds->read(&compiledShaderNum, sizeof(compiledShaderNum));

	push	4
	lea	eax, DWORD PTR _compiledShaderNum$146878[ebp]
	push	eax
	mov	ecx, DWORD PTR _ds$[ebp]
	mov	edx, DWORD PTR [ecx]
	mov	ecx, DWORD PTR _ds$[ebp]
	mov	eax, DWORD PTR [edx+4]
	call	eax

; 796  : 
; 797  : 			for (int j=0; j<compiledShaderNum; j++)

	mov	DWORD PTR _j$146879[ebp], 0
	jmp	SHORT $LN6@loadCompil@2
$LN5@loadCompil@2:
	mov	ecx, DWORD PTR _j$146879[ebp]
	add	ecx, 1
	mov	DWORD PTR _j$146879[ebp], ecx
$LN6@loadCompil@2:
	mov	edx, DWORD PTR _j$146879[ebp]
	cmp	edx, DWORD PTR _compiledShaderNum$146878[ebp]
	jae	$LN4@loadCompil@2

; 798  : 			{
; 799  : 				CompiledShader *newShader = new CompiledShader(this, compiledType);

	push	368					; 00000170H
	call	??2@YAPAXI@Z				; operator new
	add	esp, 4
	mov	DWORD PTR $T159275[ebp], eax
	mov	BYTE PTR __$EHRec$[ebp+8], 6
	cmp	DWORD PTR $T159275[ebp], 0
	je	SHORT $LN26@loadCompil@2
	mov	eax, DWORD PTR _compiledType$146865[ebp]
	push	eax
	mov	ecx, DWORD PTR _this$[ebp]
	push	ecx
	mov	ecx, DWORD PTR $T159275[ebp]
	call	??0CompiledShader@Ogre@@QAE@PAVD3DMaterialTemplate@1@W4COMPILED_TYPE@1@@Z ; Ogre::CompiledShader::CompiledShader
	mov	DWORD PTR tv244[ebp], eax
	jmp	SHORT $LN27@loadCompil@2
$LN26@loadCompil@2:
	mov	DWORD PTR tv244[ebp], 0
$LN27@loadCompil@2:
	mov	edx, DWORD PTR tv244[ebp]
	mov	DWORD PTR $T159274[ebp], edx
	mov	BYTE PTR __$EHRec$[ebp+8], 4
	mov	eax, DWORD PTR $T159274[ebp]
	mov	DWORD PTR _newShader$146883[ebp], eax

; 800  : 
; 801  : 				// ShaderKey
; 802  : 				int numKeys;
; 803  : 				ds->read(&numKeys, sizeof(numKeys));

	push	4
	lea	ecx, DWORD PTR _numKeys$146888[ebp]
	push	ecx
	mov	edx, DWORD PTR _ds$[ebp]
	mov	eax, DWORD PTR [edx]
	mov	ecx, DWORD PTR _ds$[ebp]
	mov	edx, DWORD PTR [eax+4]
	call	edx

; 804  : 
; 805  : 				for (int i=0; i<numKeys; i++)

	mov	DWORD PTR _i$146889[ebp], 0
	jmp	SHORT $LN3@loadCompil@2
$LN2@loadCompil@2:
	mov	eax, DWORD PTR _i$146889[ebp]
	add	eax, 1
	mov	DWORD PTR _i$146889[ebp], eax
$LN3@loadCompil@2:
	mov	ecx, DWORD PTR _i$146889[ebp]
	cmp	ecx, DWORD PTR _numKeys$146888[ebp]
	jge	SHORT $LN1@loadCompil@2

; 806  : 				{
; 807  : 					ShaderEnvKey key;

	lea	ecx, DWORD PTR _key$146893[ebp]
	call	??0ShaderEnvKey@Ogre@@QAE@XZ		; Ogre::ShaderEnvKey::ShaderEnvKey

; 808  : 					ds->read(&key, sizeof(key));

	push	16					; 00000010H
	lea	edx, DWORD PTR _key$146893[ebp]
	push	edx
	mov	eax, DWORD PTR _ds$[ebp]
	mov	edx, DWORD PTR [eax]
	mov	ecx, DWORD PTR _ds$[ebp]
	mov	eax, DWORD PTR [edx+4]
	call	eax

; 809  : 					newShader->addShaderKey(key);

	sub	esp, 16					; 00000010H
	mov	ecx, esp
	mov	edx, DWORD PTR _key$146893[ebp]
	mov	DWORD PTR [ecx], edx
	mov	eax, DWORD PTR _key$146893[ebp+4]
	mov	DWORD PTR [ecx+4], eax
	mov	edx, DWORD PTR _key$146893[ebp+8]
	mov	DWORD PTR [ecx+8], edx
	mov	eax, DWORD PTR _key$146893[ebp+12]
	mov	DWORD PTR [ecx+12], eax
	mov	ecx, DWORD PTR _newShader$146883[ebp]
	call	?addShaderKey@CompiledShader@Ogre@@QAEXTShaderEnvKey@2@@Z ; Ogre::CompiledShader::addShaderKey

; 810  : 
; 811  : 					shaderGroup->m_MacroShaderMap[key] = newShader;

	lea	ecx, DWORD PTR _key$146893[ebp]
	push	ecx
	mov	ecx, DWORD PTR _shaderGroup$146873[ebp]
	add	ecx, 36					; 00000024H
	call	??A?$map@TShaderEnvKey@Ogre@@PAVCompiledShader@2@U?$less@TShaderEnvKey@Ogre@@@std@@V?$allocator@U?$pair@$$CBTShaderEnvKey@Ogre@@PAVCompiledShader@2@@std@@@5@@std@@QAEAAPAVCompiledShader@Ogre@@ABTShaderEnvKey@3@@Z ; std::map<Ogre::ShaderEnvKey,Ogre::CompiledShader *,std::less<Ogre::ShaderEnvKey>,std::allocator<std::pair<Ogre::ShaderEnvKey const ,Ogre::CompiledShader *> > >::operator[]
	mov	edx, DWORD PTR _newShader$146883[ebp]
	mov	DWORD PTR [eax], edx

; 812  : 				}

	jmp	$LN2@loadCompil@2
$LN1@loadCompil@2:

; 813  : 
; 814  : 				uint bufferKey = 0;

	mov	DWORD PTR _bufferKey$146894[ebp], 0

; 815  : 				ds->read(&bufferKey, sizeof(bufferKey));

	push	4
	lea	eax, DWORD PTR _bufferKey$146894[ebp]
	push	eax
	mov	ecx, DWORD PTR _ds$[ebp]
	mov	edx, DWORD PTR [ecx]
	mov	ecx, DWORD PTR _ds$[ebp]
	mov	eax, DWORD PTR [edx+4]
	call	eax

; 816  : 				newShader->m_BufferKey = bufferKey;

	mov	ecx, DWORD PTR _newShader$146883[ebp]
	mov	edx, DWORD PTR _bufferKey$146894[ebp]
	mov	DWORD PTR [ecx+40], edx

; 817  : 
