; Listing generated by Microsoft (R) Optimizing Compiler Version 15.00.30729.01 

	TITLE	i:\svnroot\client\Plugins\RenderSystem_D3D9\OgreD3D9HardwarePixelBuffer.cpp
	.686P
	.XMM
	include listing.inc
	.model	flat

INCLUDELIB MSVCRT
INCLUDELIB OLDNAMES

PUBLIC	?_Value@?$_Is_swap_move@U_Swap_move_tag@std@@@std@@2_NB ; std::_Is_swap_move<std::_Swap_move_tag>::_Value
PUBLIC	?collate@?$_Locbase@H@std@@2HB			; std::_Locbase<int>::collate
PUBLIC	?ctype@?$_Locbase@H@std@@2HB			; std::_Locbase<int>::ctype
PUBLIC	?monetary@?$_Locbase@H@std@@2HB			; std::_Locbase<int>::monetary
PUBLIC	?numeric@?$_Locbase@H@std@@2HB			; std::_Locbase<int>::numeric
PUBLIC	?time@?$_Locbase@H@std@@2HB			; std::_Locbase<int>::time
PUBLIC	?messages@?$_Locbase@H@std@@2HB			; std::_Locbase<int>::messages
PUBLIC	?all@?$_Locbase@H@std@@2HB			; std::_Locbase<int>::all
PUBLIC	?none@?$_Locbase@H@std@@2HB			; std::_Locbase<int>::none
PUBLIC	?skipws@?$_Iosb@H@std@@2W4_Fmtflags@12@B	; std::_Iosb<int>::skipws
PUBLIC	?unitbuf@?$_Iosb@H@std@@2W4_Fmtflags@12@B	; std::_Iosb<int>::unitbuf
PUBLIC	?uppercase@?$_Iosb@H@std@@2W4_Fmtflags@12@B	; std::_Iosb<int>::uppercase
PUBLIC	?showbase@?$_Iosb@H@std@@2W4_Fmtflags@12@B	; std::_Iosb<int>::showbase
PUBLIC	?showpoint@?$_Iosb@H@std@@2W4_Fmtflags@12@B	; std::_Iosb<int>::showpoint
PUBLIC	?showpos@?$_Iosb@H@std@@2W4_Fmtflags@12@B	; std::_Iosb<int>::showpos
PUBLIC	?left@?$_Iosb@H@std@@2W4_Fmtflags@12@B		; std::_Iosb<int>::left
PUBLIC	?right@?$_Iosb@H@std@@2W4_Fmtflags@12@B		; std::_Iosb<int>::right
PUBLIC	?internal@?$_Iosb@H@std@@2W4_Fmtflags@12@B	; std::_Iosb<int>::internal
PUBLIC	?dec@?$_Iosb@H@std@@2W4_Fmtflags@12@B		; std::_Iosb<int>::dec
PUBLIC	?oct@?$_Iosb@H@std@@2W4_Fmtflags@12@B		; std::_Iosb<int>::oct
PUBLIC	?hex@?$_Iosb@H@std@@2W4_Fmtflags@12@B		; std::_Iosb<int>::hex
PUBLIC	?scientific@?$_Iosb@H@std@@2W4_Fmtflags@12@B	; std::_Iosb<int>::scientific
PUBLIC	?fixed@?$_Iosb@H@std@@2W4_Fmtflags@12@B		; std::_Iosb<int>::fixed
PUBLIC	?hexfloat@?$_Iosb@H@std@@2W4_Fmtflags@12@B	; std::_Iosb<int>::hexfloat
PUBLIC	?boolalpha@?$_Iosb@H@std@@2W4_Fmtflags@12@B	; std::_Iosb<int>::boolalpha
PUBLIC	?_Stdio@?$_Iosb@H@std@@2W4_Fmtflags@12@B	; std::_Iosb<int>::_Stdio
PUBLIC	?adjustfield@?$_Iosb@H@std@@2W4_Fmtflags@12@B	; std::_Iosb<int>::adjustfield
PUBLIC	?basefield@?$_Iosb@H@std@@2W4_Fmtflags@12@B	; std::_Iosb<int>::basefield
PUBLIC	?floatfield@?$_Iosb@H@std@@2W4_Fmtflags@12@B	; std::_Iosb<int>::floatfield
PUBLIC	?goodbit@?$_Iosb@H@std@@2W4_Iostate@12@B	; std::_Iosb<int>::goodbit
PUBLIC	?eofbit@?$_Iosb@H@std@@2W4_Iostate@12@B		; std::_Iosb<int>::eofbit
PUBLIC	?failbit@?$_Iosb@H@std@@2W4_Iostate@12@B	; std::_Iosb<int>::failbit
PUBLIC	?badbit@?$_Iosb@H@std@@2W4_Iostate@12@B		; std::_Iosb<int>::badbit
PUBLIC	?_Hardfail@?$_Iosb@H@std@@2W4_Iostate@12@B	; std::_Iosb<int>::_Hardfail
PUBLIC	?in@?$_Iosb@H@std@@2W4_Openmode@12@B		; std::_Iosb<int>::in
PUBLIC	?out@?$_Iosb@H@std@@2W4_Openmode@12@B		; std::_Iosb<int>::out
PUBLIC	?ate@?$_Iosb@H@std@@2W4_Openmode@12@B		; std::_Iosb<int>::ate
PUBLIC	?app@?$_Iosb@H@std@@2W4_Openmode@12@B		; std::_Iosb<int>::app
PUBLIC	?trunc@?$_Iosb@H@std@@2W4_Openmode@12@B		; std::_Iosb<int>::trunc
PUBLIC	?_Nocreate@?$_Iosb@H@std@@2W4_Openmode@12@B	; std::_Iosb<int>::_Nocreate
PUBLIC	?_Noreplace@?$_Iosb@H@std@@2W4_Openmode@12@B	; std::_Iosb<int>::_Noreplace
PUBLIC	?binary@?$_Iosb@H@std@@2W4_Openmode@12@B	; std::_Iosb<int>::binary
PUBLIC	?beg@?$_Iosb@H@std@@2W4_Seekdir@12@B		; std::_Iosb<int>::beg
PUBLIC	?cur@?$_Iosb@H@std@@2W4_Seekdir@12@B		; std::_Iosb<int>::cur
PUBLIC	?end@?$_Iosb@H@std@@2W4_Seekdir@12@B		; std::_Iosb<int>::end
PUBLIC	?value@?$integral_constant@_N$0A@@tr1@std@@2_NB	; std::tr1::integral_constant<bool,0>::value
PUBLIC	?value@?$integral_constant@_N$00@tr1@std@@2_NB	; std::tr1::integral_constant<bool,1>::value
;	COMDAT ?value@?$integral_constant@_N$00@tr1@std@@2_NB
CONST	SEGMENT
?value@?$integral_constant@_N$00@tr1@std@@2_NB DB 01H	; std::tr1::integral_constant<bool,1>::value
CONST	ENDS
;	COMDAT ?value@?$integral_constant@_N$0A@@tr1@std@@2_NB
CONST	SEGMENT
?value@?$integral_constant@_N$0A@@tr1@std@@2_NB DB 00H	; std::tr1::integral_constant<bool,0>::value
CONST	ENDS
;	COMDAT ?end@?$_Iosb@H@std@@2W4_Seekdir@12@B
CONST	SEGMENT
?end@?$_Iosb@H@std@@2W4_Seekdir@12@B DD 02H		; std::_Iosb<int>::end
CONST	ENDS
;	COMDAT ?cur@?$_Iosb@H@std@@2W4_Seekdir@12@B
CONST	SEGMENT
?cur@?$_Iosb@H@std@@2W4_Seekdir@12@B DD 01H		; std::_Iosb<int>::cur
CONST	ENDS
;	COMDAT ?beg@?$_Iosb@H@std@@2W4_Seekdir@12@B
CONST	SEGMENT
?beg@?$_Iosb@H@std@@2W4_Seekdir@12@B DD 00H		; std::_Iosb<int>::beg
CONST	ENDS
;	COMDAT ?binary@?$_Iosb@H@std@@2W4_Openmode@12@B
CONST	SEGMENT
?binary@?$_Iosb@H@std@@2W4_Openmode@12@B DD 020H	; std::_Iosb<int>::binary
CONST	ENDS
;	COMDAT ?_Noreplace@?$_Iosb@H@std@@2W4_Openmode@12@B
CONST	SEGMENT
?_Noreplace@?$_Iosb@H@std@@2W4_Openmode@12@B DD 080H	; std::_Iosb<int>::_Noreplace
CONST	ENDS
;	COMDAT ?_Nocreate@?$_Iosb@H@std@@2W4_Openmode@12@B
CONST	SEGMENT
?_Nocreate@?$_Iosb@H@std@@2W4_Openmode@12@B DD 040H	; std::_Iosb<int>::_Nocreate
CONST	ENDS
;	COMDAT ?trunc@?$_Iosb@H@std@@2W4_Openmode@12@B
CONST	SEGMENT
?trunc@?$_Iosb@H@std@@2W4_Openmode@12@B DD 010H		; std::_Iosb<int>::trunc
CONST	ENDS
;	COMDAT ?app@?$_Iosb@H@std@@2W4_Openmode@12@B
CONST	SEGMENT
?app@?$_Iosb@H@std@@2W4_Openmode@12@B DD 08H		; std::_Iosb<int>::app
CONST	ENDS
;	COMDAT ?ate@?$_Iosb@H@std@@2W4_Openmode@12@B
CONST	SEGMENT
?ate@?$_Iosb@H@std@@2W4_Openmode@12@B DD 04H		; std::_Iosb<int>::ate
CONST	ENDS
;	COMDAT ?out@?$_Iosb@H@std@@2W4_Openmode@12@B
CONST	SEGMENT
?out@?$_Iosb@H@std@@2W4_Openmode@12@B DD 02H		; std::_Iosb<int>::out
CONST	ENDS
;	COMDAT ?in@?$_Iosb@H@std@@2W4_Openmode@12@B
CONST	SEGMENT
?in@?$_Iosb@H@std@@2W4_Openmode@12@B DD 01H		; std::_Iosb<int>::in
CONST	ENDS
;	COMDAT ?_Hardfail@?$_Iosb@H@std@@2W4_Iostate@12@B
CONST	SEGMENT
?_Hardfail@?$_Iosb@H@std@@2W4_Iostate@12@B DD 010H	; std::_Iosb<int>::_Hardfail
CONST	ENDS
;	COMDAT ?badbit@?$_Iosb@H@std@@2W4_Iostate@12@B
CONST	SEGMENT
?badbit@?$_Iosb@H@std@@2W4_Iostate@12@B DD 04H		; std::_Iosb<int>::badbit
CONST	ENDS
;	COMDAT ?failbit@?$_Iosb@H@std@@2W4_Iostate@12@B
CONST	SEGMENT
?failbit@?$_Iosb@H@std@@2W4_Iostate@12@B DD 02H		; std::_Iosb<int>::failbit
CONST	ENDS
;	COMDAT ?eofbit@?$_Iosb@H@std@@2W4_Iostate@12@B
CONST	SEGMENT
?eofbit@?$_Iosb@H@std@@2W4_Iostate@12@B DD 01H		; std::_Iosb<int>::eofbit
CONST	ENDS
;	COMDAT ?goodbit@?$_Iosb@H@std@@2W4_Iostate@12@B
CONST	SEGMENT
?goodbit@?$_Iosb@H@std@@2W4_Iostate@12@B DD 00H		; std::_Iosb<int>::goodbit
CONST	ENDS
;	COMDAT ?floatfield@?$_Iosb@H@std@@2W4_Fmtflags@12@B
CONST	SEGMENT
?floatfield@?$_Iosb@H@std@@2W4_Fmtflags@12@B DD 03000H	; std::_Iosb<int>::floatfield
CONST	ENDS
;	COMDAT ?basefield@?$_Iosb@H@std@@2W4_Fmtflags@12@B
CONST	SEGMENT
?basefield@?$_Iosb@H@std@@2W4_Fmtflags@12@B DD 0e00H	; std::_Iosb<int>::basefield
CONST	ENDS
;	COMDAT ?adjustfield@?$_Iosb@H@std@@2W4_Fmtflags@12@B
CONST	SEGMENT
?adjustfield@?$_Iosb@H@std@@2W4_Fmtflags@12@B DD 01c0H	; std::_Iosb<int>::adjustfield
CONST	ENDS
;	COMDAT ?_Stdio@?$_Iosb@H@std@@2W4_Fmtflags@12@B
CONST	SEGMENT
?_Stdio@?$_Iosb@H@std@@2W4_Fmtflags@12@B DD 08000H	; std::_Iosb<int>::_Stdio
CONST	ENDS
;	COMDAT ?boolalpha@?$_Iosb@H@std@@2W4_Fmtflags@12@B
CONST	SEGMENT
?boolalpha@?$_Iosb@H@std@@2W4_Fmtflags@12@B DD 04000H	; std::_Iosb<int>::boolalpha
CONST	ENDS
;	COMDAT ?hexfloat@?$_Iosb@H@std@@2W4_Fmtflags@12@B
CONST	SEGMENT
?hexfloat@?$_Iosb@H@std@@2W4_Fmtflags@12@B DD 03000H	; std::_Iosb<int>::hexfloat
CONST	ENDS
;	COMDAT ?fixed@?$_Iosb@H@std@@2W4_Fmtflags@12@B
CONST	SEGMENT
?fixed@?$_Iosb@H@std@@2W4_Fmtflags@12@B DD 02000H	; std::_Iosb<int>::fixed
CONST	ENDS
;	COMDAT ?scientific@?$_Iosb@H@std@@2W4_Fmtflags@12@B
CONST	SEGMENT
?scientific@?$_Iosb@H@std@@2W4_Fmtflags@12@B DD 01000H	; std::_Iosb<int>::scientific
CONST	ENDS
;	COMDAT ?hex@?$_Iosb@H@std@@2W4_Fmtflags@12@B
CONST	SEGMENT
?hex@?$_Iosb@H@std@@2W4_Fmtflags@12@B DD 0800H		; std::_Iosb<int>::hex
CONST	ENDS
;	COMDAT ?oct@?$_Iosb@H@std@@2W4_Fmtflags@12@B
CONST	SEGMENT
?oct@?$_Iosb@H@std@@2W4_Fmtflags@12@B DD 0400H		; std::_Iosb<int>::oct
CONST	ENDS
;	COMDAT ?dec@?$_Iosb@H@std@@2W4_Fmtflags@12@B
CONST	SEGMENT
?dec@?$_Iosb@H@std@@2W4_Fmtflags@12@B DD 0200H		; std::_Iosb<int>::dec
CONST	ENDS
;	COMDAT ?internal@?$_Iosb@H@std@@2W4_Fmtflags@12@B
CONST	SEGMENT
?internal@?$_Iosb@H@std@@2W4_Fmtflags@12@B DD 0100H	; std::_Iosb<int>::internal
CONST	ENDS
;	COMDAT ?right@?$_Iosb@H@std@@2W4_Fmtflags@12@B
CONST	SEGMENT
?right@?$_Iosb@H@std@@2W4_Fmtflags@12@B DD 080H		; std::_Iosb<int>::right
CONST	ENDS
;	COMDAT ?left@?$_Iosb@H@std@@2W4_Fmtflags@12@B
CONST	SEGMENT
?left@?$_Iosb@H@std@@2W4_Fmtflags@12@B DD 040H		; std::_Iosb<int>::left
CONST	ENDS
;	COMDAT ?showpos@?$_Iosb@H@std@@2W4_Fmtflags@12@B
CONST	SEGMENT
?showpos@?$_Iosb@H@std@@2W4_Fmtflags@12@B DD 020H	; std::_Iosb<int>::showpos
CONST	ENDS
;	COMDAT ?showpoint@?$_Iosb@H@std@@2W4_Fmtflags@12@B
CONST	SEGMENT
?showpoint@?$_Iosb@H@std@@2W4_Fmtflags@12@B DD 010H	; std::_Iosb<int>::showpoint
CONST	ENDS
;	COMDAT ?showbase@?$_Iosb@H@std@@2W4_Fmtflags@12@B
CONST	SEGMENT
?showbase@?$_Iosb@H@std@@2W4_Fmtflags@12@B DD 08H	; std::_Iosb<int>::showbase
CONST	ENDS
;	COMDAT ?uppercase@?$_Iosb@H@std@@2W4_Fmtflags@12@B
CONST	SEGMENT
?uppercase@?$_Iosb@H@std@@2W4_Fmtflags@12@B DD 04H	; std::_Iosb<int>::uppercase
CONST	ENDS
;	COMDAT ?unitbuf@?$_Iosb@H@std@@2W4_Fmtflags@12@B
CONST	SEGMENT
?unitbuf@?$_Iosb@H@std@@2W4_Fmtflags@12@B DD 02H	; std::_Iosb<int>::unitbuf
CONST	ENDS
;	COMDAT ?skipws@?$_Iosb@H@std@@2W4_Fmtflags@12@B
CONST	SEGMENT
?skipws@?$_Iosb@H@std@@2W4_Fmtflags@12@B DD 01H		; std::_Iosb<int>::skipws
CONST	ENDS
;	COMDAT ?none@?$_Locbase@H@std@@2HB
CONST	SEGMENT
?none@?$_Locbase@H@std@@2HB DD 00H			; std::_Locbase<int>::none
CONST	ENDS
;	COMDAT ?all@?$_Locbase@H@std@@2HB
CONST	SEGMENT
?all@?$_Locbase@H@std@@2HB DD 03fH			; std::_Locbase<int>::all
CONST	ENDS
;	COMDAT ?messages@?$_Locbase@H@std@@2HB
CONST	SEGMENT
?messages@?$_Locbase@H@std@@2HB DD 020H			; std::_Locbase<int>::messages
CONST	ENDS
;	COMDAT ?time@?$_Locbase@H@std@@2HB
CONST	SEGMENT
?time@?$_Locbase@H@std@@2HB DD 010H			; std::_Locbase<int>::time
CONST	ENDS
;	COMDAT ?numeric@?$_Locbase@H@std@@2HB
CONST	SEGMENT
?numeric@?$_Locbase@H@std@@2HB DD 08H			; std::_Locbase<int>::numeric
CONST	ENDS
;	COMDAT ?monetary@?$_Locbase@H@std@@2HB
CONST	SEGMENT
?monetary@?$_Locbase@H@std@@2HB DD 04H			; std::_Locbase<int>::monetary
CONST	ENDS
;	COMDAT ?ctype@?$_Locbase@H@std@@2HB
CONST	SEGMENT
?ctype@?$_Locbase@H@std@@2HB DD 02H			; std::_Locbase<int>::ctype
CONST	ENDS
;	COMDAT ?collate@?$_Locbase@H@std@@2HB
CONST	SEGMENT
?collate@?$_Locbase@H@std@@2HB DD 01H			; std::_Locbase<int>::collate
CONST	ENDS
;	COMDAT ?_Value@?$_Is_swap_move@U_Swap_move_tag@std@@@std@@2_NB
CONST	SEGMENT
?_Value@?$_Is_swap_move@U_Swap_move_tag@std@@@std@@2_NB DB 01H ; std::_Is_swap_move<std::_Swap_move_tag>::_Value
CONST	ENDS
_DATA	SEGMENT
__bad_alloc_Message DD FLAT:$SG5714
_DATA	ENDS
CONST	SEGMENT
$SG5714	DB	'bad allocation', 00H
$SG138357 DB	00H
$SG137748 DB	'.\OgreD3D9HardwarePixelBuffer.cpp', 00H
$SG138408 DB	00H
$SG138429 DB	00H
$SG137749 DB	'D3D9PixelBufferPool--releasePixelBufferSysTexture--51', 00H
	ORG $+2
$SG137925 DB	'.\OgreD3D9HardwarePixelBuffer.cpp', 00H
	ORG $+2
$SG137926 DB	'check texture params error: w=%d, h=%d, f=%d, u=%d, p=%d'
	DB	00H
	ORG $+3
$SG138178 DB	'.\OgreD3D9HardwarePixelBuffer.cpp', 00H
	ORG $+2
$SG138179 DB	'failed to dump texture: %s', 00H
	ORG $+1
$SG138189 DB	'.\OgreD3D9HardwarePixelBuffer.cpp', 00H
	ORG $+2
$SG138190 DB	'failed to dump texture: %s', 00H
	ORG $+1
$SG138358 DB	'.\OgreD3D9HardwarePixelBuffer.cpp', 00H
	ORG $+2
$SG138359 DB	'D3D9HardwarePixelBufferManager::requireDSBuffer--', 0b4H
	DB	0b4H, 0bdH, 0a8H, 0c4H, 0a3H, 0b0H, 0e5H, 0c9H, 0eeH, 0b6H, 0c8H
	DB	0bbH, 0baH, 0b4H, 0e6H, 0caH, 0a7H, 0b0H, 0dcH, 0a3H, 0acH, 0b4H
	DB	0edH, 0ceH, 0f3H, 0c2H, 0ebH, '%s--631', 00H
	ORG $+3
$SG138362 DB	'.\OgreD3D9HardwarePixelBuffer.cpp', 00H
	ORG $+6
$SG138363 DB	'D3D9HardwarePixelBufferManager::requireDSBuffer--', 0b4H
	DB	0b4H, 0bdH, 0a8H, 0c4H, 0a3H, 0b0H, 0e5H, 0c9H, 0eeH, 0b6H, 0c8H
	DB	0bbH, 0baH, 0b4H, 0e6H, 0caH, 0a7H, 0b0H, 0dcH, 0a3H, 0acH, 0b4H
	DB	0edH, 0ceH, 0f3H, 0c2H, 0ebH, '%s--635', 00H
	ORG $+3
$SG138382 DB	'D3D_OK', 00H
	ORG $+1
$SG138389 DB	'D3DERR_NOTAVAILABLE', 00H
$SG138396 DB	'D3DERR_INVALIDCALL', 00H
	ORG $+1
$SG138403 DB	'D3DERR_OUTOFVIDEOMEMORY', 00H
$SG138407 DB	'E_OUTOFMEMORY ', 00H
	ORG $+1
$SG138430 DB	'.\OgreD3D9HardwarePixelBuffer.cpp', 00H
	ORG $+6
$SG138431 DB	'D3D9HardwarePixelBufferManager::requireRenderTarget--', 0b4H
	DB	0b4H, 0bdH, 0a8H, 0e4H, 0d6H, 0c8H, 0beH, 0c4H, 0bfH, 0b1H, 0eaH
	DB	0caH, 0a7H, 0b0H, 0dcH, 0a3H, 0acH, 0b4H, 0edH, 0ceH, 0f3H, 0c2H
	DB	0ebH, '%s--712', 00H
	ORG $+3
$SG138434 DB	'.\OgreD3D9HardwarePixelBuffer.cpp', 00H
	ORG $+6
$SG138435 DB	'D3D9HardwarePixelBufferManager::requireRenderTarget--', 0b4H
	DB	0b4H, 0bdH, 0a8H, 0e4H, 0d6H, 0c8H, 0beH, 0c4H, 0bfH, 0b1H, 0eaH
	DB	0caH, 0a7H, 0b0H, 0dcH, 0a3H, 0acH, 0b4H, 0edH, 0ceH, 0f3H, 0c2H
	DB	0ebH, '%s--716', 00H
CONST	ENDS
PUBLIC	??1?$vector@PAVD3D9TextureRenderTarget@Ogre@@V?$allocator@PAVD3D9TextureRenderTarget@Ogre@@@std@@@std@@QAE@XZ ; std::vector<Ogre::D3D9TextureRenderTarget *,std::allocator<Ogre::D3D9TextureRenderTarget *> >::~vector<Ogre::D3D9TextureRenderTarget *,std::allocator<Ogre::D3D9TextureRenderTarget *> >
PUBLIC	??1?$vector@PAUIDirect3DBaseTexture9@@V?$allocator@PAUIDirect3DBaseTexture9@@@std@@@std@@QAE@XZ ; std::vector<IDirect3DBaseTexture9 *,std::allocator<IDirect3DBaseTexture9 *> >::~vector<IDirect3DBaseTexture9 *,std::allocator<IDirect3DBaseTexture9 *> >
PUBLIC	?getSupportedParam@D3D9PixelBufferPool@Ogre@@QAE_NW4HardwareBufferUsage@2@ABUTextureDesc@2@@Z ; Ogre::D3D9PixelBufferPool::getSupportedParam
PUBLIC	??0?$vector@PAVD3D9TextureRenderTarget@Ogre@@V?$allocator@PAVD3D9TextureRenderTarget@Ogre@@@std@@@std@@QAE@XZ ; std::vector<Ogre::D3D9TextureRenderTarget *,std::allocator<Ogre::D3D9TextureRenderTarget *> >::vector<Ogre::D3D9TextureRenderTarget *,std::allocator<Ogre::D3D9TextureRenderTarget *> >
PUBLIC	??0?$vector@PAUIDirect3DBaseTexture9@@V?$allocator@PAUIDirect3DBaseTexture9@@@std@@@std@@QAE@XZ ; std::vector<IDirect3DBaseTexture9 *,std::allocator<IDirect3DBaseTexture9 *> >::vector<IDirect3DBaseTexture9 *,std::allocator<IDirect3DBaseTexture9 *> >
PUBLIC	??_7D3D9PixelBufferPool@Ogre@@6B@		; Ogre::D3D9PixelBufferPool::`vftable'
PUBLIC	??0D3D9PixelBufferPool@Ogre@@QAE@PAVD3D9RenderSystem@1@W4HardwareBufferUsage@1@ABUTextureDesc@1@@Z ; Ogre::D3D9PixelBufferPool::D3D9PixelBufferPool
PUBLIC	??_R4D3D9PixelBufferPool@Ogre@@6B@		; Ogre::D3D9PixelBufferPool::`RTTI Complete Object Locator'
PUBLIC	??_R0?AVD3D9PixelBufferPool@Ogre@@@8		; Ogre::D3D9PixelBufferPool `RTTI Type Descriptor'
PUBLIC	??_R3D3D9PixelBufferPool@Ogre@@8		; Ogre::D3D9PixelBufferPool::`RTTI Class Hierarchy Descriptor'
PUBLIC	??_R2D3D9PixelBufferPool@Ogre@@8		; Ogre::D3D9PixelBufferPool::`RTTI Base Class Array'
PUBLIC	??_R1A@?0A@EA@D3D9PixelBufferPool@Ogre@@8	; Ogre::D3D9PixelBufferPool::`RTTI Base Class Descriptor at (0,-1,0,64)'
PUBLIC	??_R1A@?0A@EA@HardwarePixelBufferPool@Ogre@@8	; Ogre::HardwarePixelBufferPool::`RTTI Base Class Descriptor at (0,-1,0,64)'
PUBLIC	??_R0?AVHardwarePixelBufferPool@Ogre@@@8	; Ogre::HardwarePixelBufferPool `RTTI Type Descriptor'
PUBLIC	??_R3HardwarePixelBufferPool@Ogre@@8		; Ogre::HardwarePixelBufferPool::`RTTI Class Hierarchy Descriptor'
PUBLIC	??_R2HardwarePixelBufferPool@Ogre@@8		; Ogre::HardwarePixelBufferPool::`RTTI Base Class Array'
PUBLIC	?newPixelBuffer@D3D9PixelBufferPool@Ogre@@UAEPAVHardwarePixelBuffer@2@XZ ; Ogre::D3D9PixelBufferPool::newPixelBuffer
PUBLIC	?lock@D3D9PixelBufferPool@Ogre@@UAEPAXPAVHardwarePixelBuffer@2@IW4HardwareBufferLockOpt@2@AAULockResult@2@@Z ; Ogre::D3D9PixelBufferPool::lock
PUBLIC	?unlock@D3D9PixelBufferPool@Ogre@@UAEXPAVHardwarePixelBuffer@2@I@Z ; Ogre::D3D9PixelBufferPool::unlock
PUBLIC	?loadSurfaceData@D3D9PixelBufferPool@Ogre@@UAEXPAVHardwarePixelBuffer@2@IPAVSurfaceData@2@@Z ; Ogre::D3D9PixelBufferPool::loadSurfaceData
PUBLIC	?createRenderTarget@D3D9PixelBufferPool@Ogre@@UAEPAVTextureRenderTarget@2@PAVHardwarePixelBuffer@2@IHH@Z ; Ogre::D3D9PixelBufferPool::createRenderTarget
PUBLIC	?createDepthStencil@D3D9PixelBufferPool@Ogre@@UAEPAVTextureRenderTarget@2@PAVHardwarePixelBuffer@2@I@Z ; Ogre::D3D9PixelBufferPool::createDepthStencil
EXTRN	__imp_??1HardwarePixelBufferPool@Ogre@@UAE@XZ:PROC
EXTRN	__imp_??0HardwarePixelBufferPool@Ogre@@QAE@W4HardwareBufferUsage@1@ABUTextureDesc@1@@Z:PROC
EXTRN	___security_cookie:DWORD
EXTRN	___CxxFrameHandler3:PROC
EXTRN	@__security_check_cookie@4:PROC
EXTRN	??_7type_info@@6B@:QWORD			; type_info::`vftable'
EXTRN	??_ED3D9PixelBufferPool@Ogre@@UAEPAXI@Z:PROC	; Ogre::D3D9PixelBufferPool::`vector deleting destructor'
;	COMDAT ??_R2HardwarePixelBufferPool@Ogre@@8
; File i:\svnroot\client\plugins\rendersystem_d3d9\ogred3d9hardwarepixelbuffer.cpp
rdata$r	SEGMENT
??_R2HardwarePixelBufferPool@Ogre@@8 DD FLAT:??_R1A@?0A@EA@HardwarePixelBufferPool@Ogre@@8 ; Ogre::HardwarePixelBufferPool::`RTTI Base Class Array'
rdata$r	ENDS
;	COMDAT ??_R3HardwarePixelBufferPool@Ogre@@8
rdata$r	SEGMENT
??_R3HardwarePixelBufferPool@Ogre@@8 DD 00H		; Ogre::HardwarePixelBufferPool::`RTTI Class Hierarchy Descriptor'
	DD	00H
	DD	01H
	DD	FLAT:??_R2HardwarePixelBufferPool@Ogre@@8
rdata$r	ENDS
;	COMDAT ??_R0?AVHardwarePixelBufferPool@Ogre@@@8
_DATA	SEGMENT
??_R0?AVHardwarePixelBufferPool@Ogre@@@8 DD FLAT:??_7type_info@@6B@ ; Ogre::HardwarePixelBufferPool `RTTI Type Descriptor'
	DD	00H
	DB	'.?AVHardwarePixelBufferPool@Ogre@@', 00H
_DATA	ENDS
;	COMDAT ??_R1A@?0A@EA@HardwarePixelBufferPool@Ogre@@8
rdata$r	SEGMENT
??_R1A@?0A@EA@HardwarePixelBufferPool@Ogre@@8 DD FLAT:??_R0?AVHardwarePixelBufferPool@Ogre@@@8 ; Ogre::HardwarePixelBufferPool::`RTTI Base Class Descriptor at (0,-1,0,64)'
	DD	00H
	DD	00H
	DD	0ffffffffH
	DD	00H
	DD	040H
	DD	FLAT:??_R3HardwarePixelBufferPool@Ogre@@8
rdata$r	ENDS
;	COMDAT ??_R1A@?0A@EA@D3D9PixelBufferPool@Ogre@@8
rdata$r	SEGMENT
??_R1A@?0A@EA@D3D9PixelBufferPool@Ogre@@8 DD FLAT:??_R0?AVD3D9PixelBufferPool@Ogre@@@8 ; Ogre::D3D9PixelBufferPool::`RTTI Base Class Descriptor at (0,-1,0,64)'
	DD	01H
	DD	00H
	DD	0ffffffffH
	DD	00H
	DD	040H
	DD	FLAT:??_R3D3D9PixelBufferPool@Ogre@@8
rdata$r	ENDS
;	COMDAT ??_R2D3D9PixelBufferPool@Ogre@@8
rdata$r	SEGMENT
??_R2D3D9PixelBufferPool@Ogre@@8 DD FLAT:??_R1A@?0A@EA@D3D9PixelBufferPool@Ogre@@8 ; Ogre::D3D9PixelBufferPool::`RTTI Base Class Array'
	DD	FLAT:??_R1A@?0A@EA@HardwarePixelBufferPool@Ogre@@8
rdata$r	ENDS
;	COMDAT ??_R3D3D9PixelBufferPool@Ogre@@8
rdata$r	SEGMENT
??_R3D3D9PixelBufferPool@Ogre@@8 DD 00H			; Ogre::D3D9PixelBufferPool::`RTTI Class Hierarchy Descriptor'
	DD	00H
	DD	02H
	DD	FLAT:??_R2D3D9PixelBufferPool@Ogre@@8
rdata$r	ENDS
;	COMDAT ??_R0?AVD3D9PixelBufferPool@Ogre@@@8
_DATA	SEGMENT
??_R0?AVD3D9PixelBufferPool@Ogre@@@8 DD FLAT:??_7type_info@@6B@ ; Ogre::D3D9PixelBufferPool `RTTI Type Descriptor'
	DD	00H
	DB	'.?AVD3D9PixelBufferPool@Ogre@@', 00H
_DATA	ENDS
;	COMDAT ??_R4D3D9PixelBufferPool@Ogre@@6B@
rdata$r	SEGMENT
??_R4D3D9PixelBufferPool@Ogre@@6B@ DD 00H		; Ogre::D3D9PixelBufferPool::`RTTI Complete Object Locator'
	DD	00H
	DD	00H
	DD	FLAT:??_R0?AVD3D9PixelBufferPool@Ogre@@@8
	DD	FLAT:??_R3D3D9PixelBufferPool@Ogre@@8
rdata$r	ENDS
;	COMDAT ??_7D3D9PixelBufferPool@Ogre@@6B@
CONST	SEGMENT
??_7D3D9PixelBufferPool@Ogre@@6B@ DD FLAT:??_R4D3D9PixelBufferPool@Ogre@@6B@ ; Ogre::D3D9PixelBufferPool::`vftable'
	DD	FLAT:??_ED3D9PixelBufferPool@Ogre@@UAEPAXI@Z
	DD	FLAT:?newPixelBuffer@D3D9PixelBufferPool@Ogre@@UAEPAVHardwarePixelBuffer@2@XZ
	DD	FLAT:?lock@D3D9PixelBufferPool@Ogre@@UAEPAXPAVHardwarePixelBuffer@2@IW4HardwareBufferLockOpt@2@AAULockResult@2@@Z
	DD	FLAT:?unlock@D3D9PixelBufferPool@Ogre@@UAEXPAVHardwarePixelBuffer@2@I@Z
	DD	FLAT:?loadSurfaceData@D3D9PixelBufferPool@Ogre@@UAEXPAVHardwarePixelBuffer@2@IPAVSurfaceData@2@@Z
	DD	FLAT:?createRenderTarget@D3D9PixelBufferPool@Ogre@@UAEPAVTextureRenderTarget@2@PAVHardwarePixelBuffer@2@IHH@Z
	DD	FLAT:?createDepthStencil@D3D9PixelBufferPool@Ogre@@UAEPAVTextureRenderTarget@2@PAVHardwarePixelBuffer@2@I@Z
CONST	ENDS
xdata$x	SEGMENT
__unwindtable$??0D3D9PixelBufferPool@Ogre@@QAE@PAVD3D9RenderSystem@1@W4HardwareBufferUsage@1@ABUTextureDesc@1@@Z DD 0ffffffffH
	DD	FLAT:__unwindfunclet$??0D3D9PixelBufferPool@Ogre@@QAE@PAVD3D9RenderSystem@1@W4HardwareBufferUsage@1@ABUTextureDesc@1@@Z$0
	DD	00H
	DD	FLAT:__unwindfunclet$??0D3D9PixelBufferPool@Ogre@@QAE@PAVD3D9RenderSystem@1@W4HardwareBufferUsage@1@ABUTextureDesc@1@@Z$1
	DD	01H
	DD	FLAT:__unwindfunclet$??0D3D9PixelBufferPool@Ogre@@QAE@PAVD3D9RenderSystem@1@W4HardwareBufferUsage@1@ABUTextureDesc@1@@Z$2
__ehfuncinfo$??0D3D9PixelBufferPool@Ogre@@QAE@PAVD3D9RenderSystem@1@W4HardwareBufferUsage@1@ABUTextureDesc@1@@Z DD 019930522H
	DD	03H
	DD	FLAT:__unwindtable$??0D3D9PixelBufferPool@Ogre@@QAE@PAVD3D9RenderSystem@1@W4HardwareBufferUsage@1@ABUTextureDesc@1@@Z
	DD	2 DUP(00H)
	DD	2 DUP(00H)
	DD	00H
	DD	00H
; Function compile flags: /Odtp
xdata$x	ENDS
_TEXT	SEGMENT
_this$ = -16						; size = 4
__$EHRec$ = -12						; size = 12
_prs$ = 8						; size = 4
_usage$ = 12						; size = 4
_desc$ = 16						; size = 4
??0D3D9PixelBufferPool@Ogre@@QAE@PAVD3D9RenderSystem@1@W4HardwareBufferUsage@1@ABUTextureDesc@1@@Z PROC ; Ogre::D3D9PixelBufferPool::D3D9PixelBufferPool
; _this$ = ecx

; 14   : 	{

	push	ebp
	mov	ebp, esp
	push	-1
	push	__ehhandler$??0D3D9PixelBufferPool@Ogre@@QAE@PAVD3D9RenderSystem@1@W4HardwareBufferUsage@1@ABUTextureDesc@1@@Z
	mov	eax, DWORD PTR fs:0
	push	eax
	push	ecx
	mov	eax, DWORD PTR ___security_cookie
	xor	eax, ebp
	push	eax
	lea	eax, DWORD PTR __$EHRec$[ebp]
	mov	DWORD PTR fs:0, eax
	mov	DWORD PTR _this$[ebp], ecx
	mov	eax, DWORD PTR _desc$[ebp]
	push	eax
	mov	ecx, DWORD PTR _usage$[ebp]
	push	ecx
	mov	ecx, DWORD PTR _this$[ebp]
	call	DWORD PTR __imp_??0HardwarePixelBufferPool@Ogre@@QAE@W4HardwareBufferUsage@1@ABUTextureDesc@1@@Z
	mov	DWORD PTR __$EHRec$[ebp+8], 0
	mov	edx, DWORD PTR _this$[ebp]
	mov	DWORD PTR [edx], OFFSET ??_7D3D9PixelBufferPool@Ogre@@6B@
	mov	eax, DWORD PTR _this$[ebp]
	mov	ecx, DWORD PTR _prs$[ebp]
	mov	DWORD PTR [eax+92], ecx
	mov	edx, DWORD PTR _this$[ebp]
	mov	BYTE PTR [edx+132], 0
	mov	ecx, DWORD PTR _this$[ebp]
	add	ecx, 136				; 00000088H
	call	??0?$vector@PAUIDirect3DBaseTexture9@@V?$allocator@PAUIDirect3DBaseTexture9@@@std@@@std@@QAE@XZ ; std::vector<IDirect3DBaseTexture9 *,std::allocator<IDirect3DBaseTexture9 *> >::vector<IDirect3DBaseTexture9 *,std::allocator<IDirect3DBaseTexture9 *> >
	mov	BYTE PTR __$EHRec$[ebp+8], 1
	mov	ecx, DWORD PTR _this$[ebp]
	add	ecx, 160				; 000000a0H
	call	??0?$vector@PAVD3D9TextureRenderTarget@Ogre@@V?$allocator@PAVD3D9TextureRenderTarget@Ogre@@@std@@@std@@QAE@XZ ; std::vector<Ogre::D3D9TextureRenderTarget *,std::allocator<Ogre::D3D9TextureRenderTarget *> >::vector<Ogre::D3D9TextureRenderTarget *,std::allocator<Ogre::D3D9TextureRenderTarget *> >
	mov	BYTE PTR __$EHRec$[ebp+8], 2

; 15   : 		getSupportedParam(usage, desc);

	mov	eax, DWORD PTR _desc$[ebp]
	push	eax
	mov	ecx, DWORD PTR _usage$[ebp]
	push	ecx
	mov	ecx, DWORD PTR _this$[ebp]
	call	?getSupportedParam@D3D9PixelBufferPool@Ogre@@QAE_NW4HardwareBufferUsage@2@ABUTextureDesc@2@@Z ; Ogre::D3D9PixelBufferPool::getSupportedParam

; 16   : 	}

	mov	DWORD PTR __$EHRec$[ebp+8], -1
	mov	eax, DWORD PTR _this$[ebp]
	mov	ecx, DWORD PTR __$EHRec$[ebp]
	mov	DWORD PTR fs:0, ecx
	pop	ecx
	mov	esp, ebp
	pop	ebp
	ret	12					; 0000000cH
_TEXT	ENDS
text$x	SEGMENT
__unwindfunclet$??0D3D9PixelBufferPool@Ogre@@QAE@PAVD3D9RenderSystem@1@W4HardwareBufferUsage@1@ABUTextureDesc@1@@Z$0:
	mov	ecx, DWORD PTR _this$[ebp]
	jmp	DWORD PTR __imp_??1HardwarePixelBufferPool@Ogre@@UAE@XZ
__unwindfunclet$??0D3D9PixelBufferPool@Ogre@@QAE@PAVD3D9RenderSystem@1@W4HardwareBufferUsage@1@ABUTextureDesc@1@@Z$1:
	mov	ecx, DWORD PTR _this$[ebp]
	add	ecx, 136				; 00000088H
	jmp	??1?$vector@PAUIDirect3DBaseTexture9@@V?$allocator@PAUIDirect3DBaseTexture9@@@std@@@std@@QAE@XZ ; std::vector<IDirect3DBaseTexture9 *,std::allocator<IDirect3DBaseTexture9 *> >::~vector<IDirect3DBaseTexture9 *,std::allocator<IDirect3DBaseTexture9 *> >
__unwindfunclet$??0D3D9PixelBufferPool@Ogre@@QAE@PAVD3D9RenderSystem@1@W4HardwareBufferUsage@1@ABUTextureDesc@1@@Z$2:
	mov	ecx, DWORD PTR _this$[ebp]
	add	ecx, 160				; 000000a0H
	jmp	??1?$vector@PAVD3D9TextureRenderTarget@Ogre@@V?$allocator@PAVD3D9TextureRenderTarget@Ogre@@@std@@@std@@QAE@XZ ; std::vector<Ogre::D3D9TextureRenderTarget *,std::allocator<Ogre::D3D9TextureRenderTarget *> >::~vector<Ogre::D3D9TextureRenderTarget *,std::allocator<Ogre::D3D9TextureRenderTarget *> >
__ehhandler$??0D3D9PixelBufferPool@Ogre@@QAE@PAVD3D9RenderSystem@1@W4HardwareBufferUsage@1@ABUTextureDesc@1@@Z:
	mov	edx, DWORD PTR [esp+8]
	lea	eax, DWORD PTR [edx+12]
	mov	ecx, DWORD PTR [edx-8]
	xor	ecx, eax
	call	@__security_check_cookie@4
	mov	eax, OFFSET __ehfuncinfo$??0D3D9PixelBufferPool@Ogre@@QAE@PAVD3D9RenderSystem@1@W4HardwareBufferUsage@1@ABUTextureDesc@1@@Z
	jmp	___CxxFrameHandler3
text$x	ENDS
??0D3D9PixelBufferPool@Ogre@@QAE@PAVD3D9RenderSystem@1@W4HardwareBufferUsage@1@ABUTextureDesc@1@@Z ENDP ; Ogre::D3D9PixelBufferPool::D3D9PixelBufferPool
PUBLIC	??1D3D9PixelBufferPool@Ogre@@UAE@XZ		; Ogre::D3D9PixelBufferPool::~D3D9PixelBufferPool
EXTRN	??3@YAXPAX@Z:PROC				; operator delete
; Function compile flags: /Odtp
;	COMDAT ??_GD3D9PixelBufferPool@Ogre@@UAEPAXI@Z
_TEXT	SEGMENT
_this$ = -4						; size = 4
___flags$ = 8						; size = 4
??_GD3D9PixelBufferPool@Ogre@@UAEPAXI@Z PROC		; Ogre::D3D9PixelBufferPool::`scalar deleting destructor', COMDAT
; _this$ = ecx
	push	ebp
	mov	ebp, esp
	push	ecx
	mov	DWORD PTR _this$[ebp], ecx
	mov	ecx, DWORD PTR _this$[ebp]
	call	??1D3D9PixelBufferPool@Ogre@@UAE@XZ	; Ogre::D3D9PixelBufferPool::~D3D9PixelBufferPool
	mov	eax, DWORD PTR ___flags$[ebp]
	and	eax, 1
	je	SHORT $LN1@scalar
	mov	ecx, DWORD PTR _this$[ebp]
	push	ecx
	call	??3@YAXPAX@Z				; operator delete
	add	esp, 4
$LN1@scalar:
	mov	eax, DWORD PTR _this$[ebp]
	mov	esp, ebp
	pop	ebp
	ret	4
??_GD3D9PixelBufferPool@Ogre@@UAEPAXI@Z ENDP		; Ogre::D3D9PixelBufferPool::`scalar deleting destructor'
_TEXT	ENDS
PUBLIC	??D?$_Vector_iterator@PAVHardwarePixelBuffer@Ogre@@V?$allocator@PAVHardwarePixelBuffer@Ogre@@@std@@@std@@QBEAAPAVHardwarePixelBuffer@Ogre@@XZ ; std::_Vector_iterator<Ogre::HardwarePixelBuffer *,std::allocator<Ogre::HardwarePixelBuffer *> >::operator*
PUBLIC	??9?$_Vector_const_iterator@PAVHardwarePixelBuffer@Ogre@@V?$allocator@PAVHardwarePixelBuffer@Ogre@@@std@@@std@@QBE_NABV01@@Z ; std::_Vector_const_iterator<Ogre::HardwarePixelBuffer *,std::allocator<Ogre::HardwarePixelBuffer *> >::operator!=
PUBLIC	?end@?$vector@PAVHardwarePixelBuffer@Ogre@@V?$allocator@PAVHardwarePixelBuffer@Ogre@@@std@@@std@@QAE?AV?$_Vector_iterator@PAVHardwarePixelBuffer@Ogre@@V?$allocator@PAVHardwarePixelBuffer@Ogre@@@std@@@2@XZ ; std::vector<Ogre::HardwarePixelBuffer *,std::allocator<Ogre::HardwarePixelBuffer *> >::end
PUBLIC	??E?$_Vector_iterator@PAVHardwarePixelBuffer@Ogre@@V?$allocator@PAVHardwarePixelBuffer@Ogre@@@std@@@std@@QAEAAV01@XZ ; std::_Vector_iterator<Ogre::HardwarePixelBuffer *,std::allocator<Ogre::HardwarePixelBuffer *> >::operator++
PUBLIC	?begin@?$vector@PAVHardwarePixelBuffer@Ogre@@V?$allocator@PAVHardwarePixelBuffer@Ogre@@@std@@@std@@QAE?AV?$_Vector_iterator@PAVHardwarePixelBuffer@Ogre@@V?$allocator@PAVHardwarePixelBuffer@Ogre@@@std@@@2@XZ ; std::vector<Ogre::HardwarePixelBuffer *,std::allocator<Ogre::HardwarePixelBuffer *> >::begin
EXTRN	__imp_??1LockFunctor@Ogre@@QAE@XZ:PROC
EXTRN	__imp_?deleteThis@HardwarePixelBuffer@Ogre@@QAEXXZ:PROC
EXTRN	__imp_??0LockFunctor@Ogre@@QAE@PAVLockSection@1@@Z:PROC
xdata$x	SEGMENT
__ehfuncinfo$??1D3D9PixelBufferPool@Ogre@@UAE@XZ DD 019930522H
	DD	05H
	DD	FLAT:__unwindtable$??1D3D9PixelBufferPool@Ogre@@UAE@XZ
	DD	2 DUP(00H)
	DD	2 DUP(00H)
	DD	00H
	DD	00H
__unwindtable$??1D3D9PixelBufferPool@Ogre@@UAE@XZ DD 0ffffffffH
	DD	FLAT:__unwindfunclet$??1D3D9PixelBufferPool@Ogre@@UAE@XZ$0
	DD	00H
	DD	FLAT:__unwindfunclet$??1D3D9PixelBufferPool@Ogre@@UAE@XZ$1
	DD	01H
	DD	FLAT:__unwindfunclet$??1D3D9PixelBufferPool@Ogre@@UAE@XZ$2
	DD	02H
	DD	FLAT:__unwindfunclet$??1D3D9PixelBufferPool@Ogre@@UAE@XZ$3
	DD	02H
	DD	FLAT:__unwindfunclet$??1D3D9PixelBufferPool@Ogre@@UAE@XZ$4
; Function compile flags: /Odtp
xdata$x	ENDS
_TEXT	SEGMENT
_this$ = -56						; size = 4
$T146670 = -52						; size = 8
$T146669 = -44						; size = 8
_iter$137726 = -36					; size = 8
_locker$137721 = -28					; size = 4
_iter$137715 = -24					; size = 8
_locker$137552 = -16					; size = 4
__$EHRec$ = -12						; size = 12
??1D3D9PixelBufferPool@Ogre@@UAE@XZ PROC		; Ogre::D3D9PixelBufferPool::~D3D9PixelBufferPool
; _this$ = ecx

; 19   : 	{

	push	ebp
	mov	ebp, esp
	push	-1
	push	__ehhandler$??1D3D9PixelBufferPool@Ogre@@UAE@XZ
	mov	eax, DWORD PTR fs:0
	push	eax
	sub	esp, 44					; 0000002cH
	mov	eax, DWORD PTR ___security_cookie
	xor	eax, ebp
	push	eax
	lea	eax, DWORD PTR __$EHRec$[ebp]
	mov	DWORD PTR fs:0, eax
	mov	DWORD PTR _this$[ebp], ecx
	mov	eax, DWORD PTR _this$[ebp]
	mov	DWORD PTR [eax], OFFSET ??_7D3D9PixelBufferPool@Ogre@@6B@
	mov	DWORD PTR __$EHRec$[ebp+8], 2

; 20   : 		{
; 21   : 			LockFunctor locker(&m_FreeBufferMutex);

	mov	ecx, DWORD PTR _this$[ebp]
	add	ecx, 84					; 00000054H
	push	ecx
	lea	ecx, DWORD PTR _locker$137552[ebp]
	call	DWORD PTR __imp_??0LockFunctor@Ogre@@QAE@PAVLockSection@1@@Z
	mov	BYTE PTR __$EHRec$[ebp+8], 3

; 22   : 			for (std::vector<HardwarePixelBuffer *>::iterator iter = m_FreeBuffers.begin();

	lea	edx, DWORD PTR _iter$137715[ebp]
	push	edx
	mov	ecx, DWORD PTR _this$[ebp]
	add	ecx, 36					; 00000024H
	call	?begin@?$vector@PAVHardwarePixelBuffer@Ogre@@V?$allocator@PAVHardwarePixelBuffer@Ogre@@@std@@@std@@QAE?AV?$_Vector_iterator@PAVHardwarePixelBuffer@Ogre@@V?$allocator@PAVHardwarePixelBuffer@Ogre@@@std@@@2@XZ ; std::vector<Ogre::HardwarePixelBuffer *,std::allocator<Ogre::HardwarePixelBuffer *> >::begin
	jmp	SHORT $LN6@D3D9PixelB
$LN5@D3D9PixelB:

; 23   : 				iter != m_FreeBuffers.end(); ++iter)

	lea	ecx, DWORD PTR _iter$137715[ebp]
	call	??E?$_Vector_iterator@PAVHardwarePixelBuffer@Ogre@@V?$allocator@PAVHardwarePixelBuffer@Ogre@@@std@@@std@@QAEAAV01@XZ ; std::_Vector_iterator<Ogre::HardwarePixelBuffer *,std::allocator<Ogre::HardwarePixelBuffer *> >::operator++
$LN6@D3D9PixelB:
	lea	eax, DWORD PTR $T146669[ebp]
	push	eax
	mov	ecx, DWORD PTR _this$[ebp]
	add	ecx, 36					; 00000024H
	call	?end@?$vector@PAVHardwarePixelBuffer@Ogre@@V?$allocator@PAVHardwarePixelBuffer@Ogre@@@std@@@std@@QAE?AV?$_Vector_iterator@PAVHardwarePixelBuffer@Ogre@@V?$allocator@PAVHardwarePixelBuffer@Ogre@@@std@@@2@XZ ; std::vector<Ogre::HardwarePixelBuffer *,std::allocator<Ogre::HardwarePixelBuffer *> >::end
	push	eax
	lea	ecx, DWORD PTR _iter$137715[ebp]
	call	??9?$_Vector_const_iterator@PAVHardwarePixelBuffer@Ogre@@V?$allocator@PAVHardwarePixelBuffer@Ogre@@@std@@@std@@QBE_NABV01@@Z ; std::_Vector_const_iterator<Ogre::HardwarePixelBuffer *,std::allocator<Ogre::HardwarePixelBuffer *> >::operator!=
	movzx	ecx, al
	test	ecx, ecx
	je	SHORT $LN4@D3D9PixelB

; 24   : 			{
; 25   : 				(*iter)->deleteThis();

	lea	ecx, DWORD PTR _iter$137715[ebp]
	call	??D?$_Vector_iterator@PAVHardwarePixelBuffer@Ogre@@V?$allocator@PAVHardwarePixelBuffer@Ogre@@@std@@@std@@QBEAAPAVHardwarePixelBuffer@Ogre@@XZ ; std::_Vector_iterator<Ogre::HardwarePixelBuffer *,std::allocator<Ogre::HardwarePixelBuffer *> >::operator*
	mov	ecx, DWORD PTR [eax]
	call	DWORD PTR __imp_?deleteThis@HardwarePixelBuffer@Ogre@@QAEXXZ

; 26   : 			}

	jmp	SHORT $LN5@D3D9PixelB
$LN4@D3D9PixelB:

; 27   : 		}

	mov	BYTE PTR __$EHRec$[ebp+8], 2
	lea	ecx, DWORD PTR _locker$137552[ebp]
	call	DWORD PTR __imp_??1LockFunctor@Ogre@@QAE@XZ

; 28   : 
; 29   : 		{
; 30   : 			LockFunctor locker(&m_UsedBufferMutex);

	mov	edx, DWORD PTR _this$[ebp]
	add	edx, 88					; 00000058H
	push	edx
	lea	ecx, DWORD PTR _locker$137721[ebp]
	call	DWORD PTR __imp_??0LockFunctor@Ogre@@QAE@PAVLockSection@1@@Z
	mov	BYTE PTR __$EHRec$[ebp+8], 4

; 31   : 			for (std::vector<HardwarePixelBuffer *>::iterator iter = m_UsedBuffers.begin();

	lea	eax, DWORD PTR _iter$137726[ebp]
	push	eax
	mov	ecx, DWORD PTR _this$[ebp]
	add	ecx, 60					; 0000003cH
	call	?begin@?$vector@PAVHardwarePixelBuffer@Ogre@@V?$allocator@PAVHardwarePixelBuffer@Ogre@@@std@@@std@@QAE?AV?$_Vector_iterator@PAVHardwarePixelBuffer@Ogre@@V?$allocator@PAVHardwarePixelBuffer@Ogre@@@std@@@2@XZ ; std::vector<Ogre::HardwarePixelBuffer *,std::allocator<Ogre::HardwarePixelBuffer *> >::begin
	jmp	SHORT $LN3@D3D9PixelB
$LN2@D3D9PixelB:

; 32   : 				iter != m_UsedBuffers.end(); ++iter)

	lea	ecx, DWORD PTR _iter$137726[ebp]
	call	??E?$_Vector_iterator@PAVHardwarePixelBuffer@Ogre@@V?$allocator@PAVHardwarePixelBuffer@Ogre@@@std@@@std@@QAEAAV01@XZ ; std::_Vector_iterator<Ogre::HardwarePixelBuffer *,std::allocator<Ogre::HardwarePixelBuffer *> >::operator++
$LN3@D3D9PixelB:
	lea	ecx, DWORD PTR $T146670[ebp]
	push	ecx
	mov	ecx, DWORD PTR _this$[ebp]
	add	ecx, 60					; 0000003cH
	call	?end@?$vector@PAVHardwarePixelBuffer@Ogre@@V?$allocator@PAVHardwarePixelBuffer@Ogre@@@std@@@std@@QAE?AV?$_Vector_iterator@PAVHardwarePixelBuffer@Ogre@@V?$allocator@PAVHardwarePixelBuffer@Ogre@@@std@@@2@XZ ; std::vector<Ogre::HardwarePixelBuffer *,std::allocator<Ogre::HardwarePixelBuffer *> >::end
	push	eax
	lea	ecx, DWORD PTR _iter$137726[ebp]
	call	??9?$_Vector_const_iterator@PAVHardwarePixelBuffer@Ogre@@V?$allocator@PAVHardwarePixelBuffer@Ogre@@@std@@@std@@QBE_NABV01@@Z ; std::_Vector_const_iterator<Ogre::HardwarePixelBuffer *,std::allocator<Ogre::HardwarePixelBuffer *> >::operator!=
	movzx	edx, al
	test	edx, edx
	je	SHORT $LN1@D3D9PixelB

; 33   : 			{
; 34   : 				(*iter)->deleteThis();

	lea	ecx, DWORD PTR _iter$137726[ebp]
	call	??D?$_Vector_iterator@PAVHardwarePixelBuffer@Ogre@@V?$allocator@PAVHardwarePixelBuffer@Ogre@@@std@@@std@@QBEAAPAVHardwarePixelBuffer@Ogre@@XZ ; std::_Vector_iterator<Ogre::HardwarePixelBuffer *,std::allocator<Ogre::HardwarePixelBuffer *> >::operator*
	mov	ecx, DWORD PTR [eax]
	call	DWORD PTR __imp_?deleteThis@HardwarePixelBuffer@Ogre@@QAEXXZ

; 35   : 			}

	jmp	SHORT $LN2@D3D9PixelB
$LN1@D3D9PixelB:

; 36   : 		}

	mov	BYTE PTR __$EHRec$[ebp+8], 2
	lea	ecx, DWORD PTR _locker$137721[ebp]
	call	DWORD PTR __imp_??1LockFunctor@Ogre@@QAE@XZ

; 37   : 
; 38   : 		assert(m_Targets.size() == 0);
; 39   : 	}

	mov	BYTE PTR __$EHRec$[ebp+8], 1
	mov	ecx, DWORD PTR _this$[ebp]
	add	ecx, 160				; 000000a0H
	call	??1?$vector@PAVD3D9TextureRenderTarget@Ogre@@V?$allocator@PAVD3D9TextureRenderTarget@Ogre@@@std@@@std@@QAE@XZ ; std::vector<Ogre::D3D9TextureRenderTarget *,std::allocator<Ogre::D3D9TextureRenderTarget *> >::~vector<Ogre::D3D9TextureRenderTarget *,std::allocator<Ogre::D3D9TextureRenderTarget *> >
	mov	BYTE PTR __$EHRec$[ebp+8], 0
	mov	ecx, DWORD PTR _this$[ebp]
	add	ecx, 136				; 00000088H
	call	??1?$vector@PAUIDirect3DBaseTexture9@@V?$allocator@PAUIDirect3DBaseTexture9@@@std@@@std@@QAE@XZ ; std::vector<IDirect3DBaseTexture9 *,std::allocator<IDirect3DBaseTexture9 *> >::~vector<IDirect3DBaseTexture9 *,std::allocator<IDirect3DBaseTexture9 *> >
	mov	DWORD PTR __$EHRec$[ebp+8], -1
	mov	ecx, DWORD PTR _this$[ebp]
	call	DWORD PTR __imp_??1HardwarePixelBufferPool@Ogre@@UAE@XZ
	mov	ecx, DWORD PTR __$EHRec$[ebp]
	mov	DWORD PTR fs:0, ecx
	pop	ecx
	mov	esp, ebp
	pop	ebp
	ret	0
_TEXT	ENDS
text$x	SEGMENT
__unwindfunclet$??1D3D9PixelBufferPool@Ogre@@UAE@XZ$0:
	mov	ecx, DWORD PTR _this$[ebp]
	jmp	DWORD PTR __imp_??1HardwarePixelBufferPool@Ogre@@UAE@XZ
__unwindfunclet$??1D3D9PixelBufferPool@Ogre@@UAE@XZ$1:
	mov	ecx, DWORD PTR _this$[ebp]
	add	ecx, 136				; 00000088H
	jmp	??1?$vector@PAUIDirect3DBaseTexture9@@V?$allocator@PAUIDirect3DBaseTexture9@@@std@@@std@@QAE@XZ ; std::vector<IDirect3DBaseTexture9 *,std::allocator<IDirect3DBaseTexture9 *> >::~vector<IDirect3DBaseTexture9 *,std::allocator<IDirect3DBaseTexture9 *> >
__unwindfunclet$??1D3D9PixelBufferPool@Ogre@@UAE@XZ$2:
	mov	ecx, DWORD PTR _this$[ebp]
	add	ecx, 160				; 000000a0H
	jmp	??1?$vector@PAVD3D9TextureRenderTarget@Ogre@@V?$allocator@PAVD3D9TextureRenderTarget@Ogre@@@std@@@std@@QAE@XZ ; std::vector<Ogre::D3D9TextureRenderTarget *,std::allocator<Ogre::D3D9TextureRenderTarget *> >::~vector<Ogre::D3D9TextureRenderTarget *,std::allocator<Ogre::D3D9TextureRenderTarget *> >
__unwindfunclet$??1D3D9PixelBufferPool@Ogre@@UAE@XZ$3:
	lea	ecx, DWORD PTR _locker$137552[ebp]
	jmp	DWORD PTR __imp_??1LockFunctor@Ogre@@QAE@XZ
__unwindfunclet$??1D3D9PixelBufferPool@Ogre@@UAE@XZ$4:
	lea	ecx, DWORD PTR _locker$137721[ebp]
	jmp	DWORD PTR __imp_??1LockFunctor@Ogre@@QAE@XZ
__ehhandler$??1D3D9PixelBufferPool@Ogre@@UAE@XZ:
	mov	edx, DWORD PTR [esp+8]
	lea	eax, DWORD PTR [edx+12]
	mov	ecx, DWORD PTR [edx-48]
	xor	ecx, eax
	call	@__security_check_cookie@4
	mov	eax, OFFSET __ehfuncinfo$??1D3D9PixelBufferPool@Ogre@@UAE@XZ
	jmp	___CxxFrameHandler3
text$x	ENDS
??1D3D9PixelBufferPool@Ogre@@UAE@XZ ENDP		; Ogre::D3D9PixelBufferPool::~D3D9PixelBufferPool
PUBLIC	?createPixelBufferSysTexture@D3D9PixelBufferPool@Ogre@@QAEXPAVD3D9HardwarePixelBuffer@2@@Z ; Ogre::D3D9PixelBufferPool::createPixelBufferSysTexture
EXTRN	__imp_?getMemorySize@PixelUtil@Ogre@@SAIIIIW4PixelFormat@2@@Z:PROC
EXTRN	?toPixelFormat@D3D9RenderSystem@Ogre@@QAE?AW4PixelFormat@2@W4_D3DFORMAT@@@Z:PROC ; Ogre::D3D9RenderSystem::toPixelFormat
EXTRN	?createTexture@D3D9RenderSystem@Ogre@@QAEPAUIDirect3DBaseTexture9@@W4_D3DRESOURCETYPE@@W4_D3DFORMAT@@KW4_D3DPOOL@@IIII@Z:PROC ; Ogre::D3D9RenderSystem::createTexture
; Function compile flags: /Odtp
_TEXT	SEGMENT
_this$ = -12						; size = 4
_texmem$ = -8						; size = 4
_pfmt$ = -4						; size = 4
_pd3dbuf$ = 8						; size = 4
?createPixelBufferSysTexture@D3D9PixelBufferPool@Ogre@@QAEXPAVD3D9HardwarePixelBuffer@2@@Z PROC ; Ogre::D3D9PixelBufferPool::createPixelBufferSysTexture
; _this$ = ecx

; 42   : 	{

	push	ebp
	mov	ebp, esp
	sub	esp, 12					; 0000000cH
	mov	DWORD PTR _this$[ebp], ecx

; 43   : 		assert(pd3dbuf->m_pSysTex == NULL);
; 44   : 		pd3dbuf->m_pSysTex = m_pRS->createTexture(m_Type, m_Format, m_Usage, m_Pool, m_Width, m_Height, m_Depth, m_MipLevels);

	mov	eax, DWORD PTR _this$[ebp]
	mov	ecx, DWORD PTR [eax+124]
	push	ecx
	mov	edx, DWORD PTR _this$[ebp]
	mov	eax, DWORD PTR [edx+120]
	push	eax
	mov	ecx, DWORD PTR _this$[ebp]
	mov	edx, DWORD PTR [ecx+116]
	push	edx
	mov	eax, DWORD PTR _this$[ebp]
	mov	ecx, DWORD PTR [eax+112]
	push	ecx
	mov	edx, DWORD PTR _this$[ebp]
	mov	eax, DWORD PTR [edx+108]
	push	eax
	mov	ecx, DWORD PTR _this$[ebp]
	mov	edx, DWORD PTR [ecx+104]
	push	edx
	mov	eax, DWORD PTR _this$[ebp]
	mov	ecx, DWORD PTR [eax+100]
	push	ecx
	mov	edx, DWORD PTR _this$[ebp]
	mov	eax, DWORD PTR [edx+96]
	push	eax
	mov	ecx, DWORD PTR _this$[ebp]
	mov	ecx, DWORD PTR [ecx+92]
	call	?createTexture@D3D9RenderSystem@Ogre@@QAEPAUIDirect3DBaseTexture9@@W4_D3DRESOURCETYPE@@W4_D3DFORMAT@@KW4_D3DPOOL@@IIII@Z ; Ogre::D3D9RenderSystem::createTexture
	mov	edx, DWORD PTR _pd3dbuf$[ebp]
	mov	DWORD PTR [edx+20], eax

; 45   : 
; 46   : 		m_pRS->m_RenderStats.ntexture++;

	mov	eax, DWORD PTR _this$[ebp]
	mov	ecx, DWORD PTR [eax+92]
	mov	edx, DWORD PTR [ecx+8]
	add	edx, 1
	mov	eax, DWORD PTR _this$[ebp]
	mov	ecx, DWORD PTR [eax+92]
	mov	DWORD PTR [ecx+8], edx

; 47   : 		PixelFormat pfmt = m_pRS->toPixelFormat(m_Format);

	mov	edx, DWORD PTR _this$[ebp]
	mov	eax, DWORD PTR [edx+100]
	push	eax
	mov	ecx, DWORD PTR _this$[ebp]
	mov	ecx, DWORD PTR [ecx+92]
	call	?toPixelFormat@D3D9RenderSystem@Ogre@@QAE?AW4PixelFormat@2@W4_D3DFORMAT@@@Z ; Ogre::D3D9RenderSystem::toPixelFormat
	mov	DWORD PTR _pfmt$[ebp], eax

; 48   : 		size_t texmem = PixelUtil::getMemorySize(m_Width, m_Height, m_Depth, pfmt);

	mov	edx, DWORD PTR _pfmt$[ebp]
	push	edx
	mov	eax, DWORD PTR _this$[ebp]
	mov	ecx, DWORD PTR [eax+120]
	push	ecx
	mov	edx, DWORD PTR _this$[ebp]
	mov	eax, DWORD PTR [edx+116]
	push	eax
	mov	ecx, DWORD PTR _this$[ebp]
	mov	edx, DWORD PTR [ecx+112]
	push	edx
	call	DWORD PTR __imp_?getMemorySize@PixelUtil@Ogre@@SAIIIIW4PixelFormat@2@@Z
	add	esp, 16					; 00000010H
	mov	DWORD PTR _texmem$[ebp], eax

; 49   : 		if(m_MipLevels != 1) texmem += texmem*3/8;

	mov	eax, DWORD PTR _this$[ebp]
	cmp	DWORD PTR [eax+124], 1
	je	SHORT $LN1@createPixe
	mov	ecx, DWORD PTR _texmem$[ebp]
	imul	ecx, 3
	shr	ecx, 3
	add	ecx, DWORD PTR _texmem$[ebp]
	mov	DWORD PTR _texmem$[ebp], ecx
$LN1@createPixe:

; 50   : 		m_pRS->m_RenderStats.texmem += texmem;

	mov	edx, DWORD PTR _this$[ebp]
	mov	eax, DWORD PTR [edx+92]
	mov	ecx, DWORD PTR [eax+4]
	add	ecx, DWORD PTR _texmem$[ebp]
	mov	edx, DWORD PTR _this$[ebp]
	mov	eax, DWORD PTR [edx+92]
	mov	DWORD PTR [eax+4], ecx

; 51   : 	}

	mov	esp, ebp
	pop	ebp
	ret	4
?createPixelBufferSysTexture@D3D9PixelBufferPool@Ogre@@QAEXPAVD3D9HardwarePixelBuffer@2@@Z ENDP ; Ogre::D3D9PixelBufferPool::createPixelBufferSysTexture
_TEXT	ENDS
PUBLIC	?releasePixelBufferSysTexture@D3D9PixelBufferPool@Ogre@@QAEXPAVD3D9HardwarePixelBuffer@2@@Z ; Ogre::D3D9PixelBufferPool::releasePixelBufferSysTexture
EXTRN	__imp_?LogMessage@Ogre@@YAXPBDZZ:PROC
EXTRN	__imp_?LogSetCurParam@Ogre@@YAXPBDHI@Z:PROC
; Function compile flags: /Odtp
_TEXT	SEGMENT
_this$ = -12						; size = 4
_texmem$ = -8						; size = 4
_pfmt$ = -4						; size = 4
_pd3dbuffer$ = 8					; size = 4
?releasePixelBufferSysTexture@D3D9PixelBufferPool@Ogre@@QAEXPAVD3D9HardwarePixelBuffer@2@@Z PROC ; Ogre::D3D9PixelBufferPool::releasePixelBufferSysTexture
; _this$ = ecx

; 54   : 	{

	push	ebp
	mov	ebp, esp
	sub	esp, 12					; 0000000cH
	mov	DWORD PTR _this$[ebp], ecx

; 55   : 		if(pd3dbuffer->m_pSysTex)

	mov	eax, DWORD PTR _pd3dbuffer$[ebp]
	cmp	DWORD PTR [eax+20], 0
	je	SHORT $LN3@releasePix

; 56   : 		{
; 57   : 			if ( FAILED( pd3dbuffer->m_pSysTex->Release() ) )

	mov	ecx, DWORD PTR _pd3dbuffer$[ebp]
	mov	edx, DWORD PTR [ecx+20]
	mov	eax, DWORD PTR _pd3dbuffer$[ebp]
	mov	ecx, DWORD PTR [eax+20]
	mov	edx, DWORD PTR [edx]
	push	ecx
	mov	eax, DWORD PTR [edx+8]
	call	eax
	test	eax, eax
	jge	SHORT $LN2@releasePix

; 58   : 			{
; 59   : 				LOG_PRIVATE( "D3D9PixelBufferPool--releasePixelBufferSysTexture--51" );

	push	64					; 00000040H
	push	59					; 0000003bH
	push	OFFSET $SG137748
	call	DWORD PTR __imp_?LogSetCurParam@Ogre@@YAXPBDHI@Z
	add	esp, 12					; 0000000cH
	push	OFFSET $SG137749
	call	DWORD PTR __imp_?LogMessage@Ogre@@YAXPBDZZ
	add	esp, 4
$LN2@releasePix:

; 60   : 			}
; 61   : 
; 62   : 			pd3dbuffer->m_pSysTex = NULL;

	mov	ecx, DWORD PTR _pd3dbuffer$[ebp]
	mov	DWORD PTR [ecx+20], 0
$LN3@releasePix:

; 63   : 		}
; 64   : 		pd3dbuffer->m_DataInvalid = true;

	mov	edx, DWORD PTR _pd3dbuffer$[ebp]
	mov	BYTE PTR [edx+4], 1

; 65   : 
; 66   : 		m_pRS->m_RenderStats.ntexture--;

	mov	eax, DWORD PTR _this$[ebp]
	mov	ecx, DWORD PTR [eax+92]
	mov	edx, DWORD PTR [ecx+8]
	sub	edx, 1
	mov	eax, DWORD PTR _this$[ebp]
	mov	ecx, DWORD PTR [eax+92]
	mov	DWORD PTR [ecx+8], edx

; 67   : 		PixelFormat pfmt = m_pRS->toPixelFormat(m_Format);

	mov	edx, DWORD PTR _this$[ebp]
	mov	eax, DWORD PTR [edx+100]
	push	eax
	mov	ecx, DWORD PTR _this$[ebp]
	mov	ecx, DWORD PTR [ecx+92]
	call	?toPixelFormat@D3D9RenderSystem@Ogre@@QAE?AW4PixelFormat@2@W4_D3DFORMAT@@@Z ; Ogre::D3D9RenderSystem::toPixelFormat
	mov	DWORD PTR _pfmt$[ebp], eax

; 68   : 		size_t texmem = PixelUtil::getMemorySize(m_Width, m_Height, m_Depth, pfmt);

	mov	edx, DWORD PTR _pfmt$[ebp]
	push	edx
	mov	eax, DWORD PTR _this$[ebp]
	mov	ecx, DWORD PTR [eax+120]
	push	ecx
	mov	edx, DWORD PTR _this$[ebp]
	mov	eax, DWORD PTR [edx+116]
	push	eax
	mov	ecx, DWORD PTR _this$[ebp]
	mov	edx, DWORD PTR [ecx+112]
	push	edx
	call	DWORD PTR __imp_?getMemorySize@PixelUtil@Ogre@@SAIIIIW4PixelFormat@2@@Z
	add	esp, 16					; 00000010H
	mov	DWORD PTR _texmem$[ebp], eax

; 69   : 		if(m_MipLevels != 1) texmem += texmem*3/8;

	mov	eax, DWORD PTR _this$[ebp]
	cmp	DWORD PTR [eax+124], 1
	je	SHORT $LN1@releasePix
	mov	ecx, DWORD PTR _texmem$[ebp]
	imul	ecx, 3
	shr	ecx, 3
	add	ecx, DWORD PTR _texmem$[ebp]
	mov	DWORD PTR _texmem$[ebp], ecx
$LN1@releasePix:

; 70   : 		m_pRS->m_RenderStats.texmem -= texmem;

	mov	edx, DWORD PTR _this$[ebp]
	mov	eax, DWORD PTR [edx+92]
	mov	ecx, DWORD PTR [eax+4]
	sub	ecx, DWORD PTR _texmem$[ebp]
	mov	edx, DWORD PTR _this$[ebp]
	mov	eax, DWORD PTR [edx+92]
	mov	DWORD PTR [eax+4], ecx

; 71   : 	}

	mov	esp, ebp
	pop	ebp
	ret	4
?releasePixelBufferSysTexture@D3D9PixelBufferPool@Ogre@@QAEXPAVD3D9HardwarePixelBuffer@2@@Z ENDP ; Ogre::D3D9PixelBufferPool::releasePixelBufferSysTexture
_TEXT	ENDS
PUBLIC	?onLostDevice@D3D9PixelBufferPool@Ogre@@QAEXXZ	; Ogre::D3D9PixelBufferPool::onLostDevice
xdata$x	SEGMENT
__unwindtable$?onLostDevice@D3D9PixelBufferPool@Ogre@@QAEXXZ DD 0ffffffffH
	DD	FLAT:__unwindfunclet$?onLostDevice@D3D9PixelBufferPool@Ogre@@QAEXXZ$0
	DD	0ffffffffH
	DD	FLAT:__unwindfunclet$?onLostDevice@D3D9PixelBufferPool@Ogre@@QAEXXZ$1
__ehfuncinfo$?onLostDevice@D3D9PixelBufferPool@Ogre@@QAEXXZ DD 019930522H
	DD	02H
	DD	FLAT:__unwindtable$?onLostDevice@D3D9PixelBufferPool@Ogre@@QAEXXZ
	DD	2 DUP(00H)
	DD	2 DUP(00H)
	DD	00H
	DD	00H
; Function compile flags: /Odtp
xdata$x	ENDS
_TEXT	SEGMENT
_this$ = -56						; size = 4
$T146684 = -52						; size = 8
$T146683 = -44						; size = 8
_iter$137774 = -36					; size = 8
_locker$137769 = -28					; size = 4
_iter$137762 = -24					; size = 8
_locker$137757 = -16					; size = 4
__$EHRec$ = -12						; size = 12
?onLostDevice@D3D9PixelBufferPool@Ogre@@QAEXXZ PROC	; Ogre::D3D9PixelBufferPool::onLostDevice
; _this$ = ecx

; 74   : 	{

	push	ebp
	mov	ebp, esp
	push	-1
	push	__ehhandler$?onLostDevice@D3D9PixelBufferPool@Ogre@@QAEXXZ
	mov	eax, DWORD PTR fs:0
	push	eax
	sub	esp, 44					; 0000002cH
	mov	eax, DWORD PTR ___security_cookie
	xor	eax, ebp
	push	eax
	lea	eax, DWORD PTR __$EHRec$[ebp]
	mov	DWORD PTR fs:0, eax
	mov	DWORD PTR _this$[ebp], ecx

; 75   : 		if(m_Pool != D3DPOOL_DEFAULT)

	mov	eax, DWORD PTR _this$[ebp]
	cmp	DWORD PTR [eax+108], 0
	je	SHORT $LN7@onLostDevi

; 76   : 		{
; 77   : 			return;

	jmp	$LN8@onLostDevi
$LN7@onLostDevi:

; 78   : 		}
; 79   : 
; 80   : 		{
; 81   : 			LockFunctor locker(&m_FreeBufferMutex);

	mov	ecx, DWORD PTR _this$[ebp]
	add	ecx, 84					; 00000054H
	push	ecx
	lea	ecx, DWORD PTR _locker$137757[ebp]
	call	DWORD PTR __imp_??0LockFunctor@Ogre@@QAE@PAVLockSection@1@@Z
	mov	DWORD PTR __$EHRec$[ebp+8], 0

; 82   : 			for (std::vector<HardwarePixelBuffer *>::iterator iter = m_FreeBuffers.begin();

	lea	edx, DWORD PTR _iter$137762[ebp]
	push	edx
	mov	ecx, DWORD PTR _this$[ebp]
	add	ecx, 36					; 00000024H
	call	?begin@?$vector@PAVHardwarePixelBuffer@Ogre@@V?$allocator@PAVHardwarePixelBuffer@Ogre@@@std@@@std@@QAE?AV?$_Vector_iterator@PAVHardwarePixelBuffer@Ogre@@V?$allocator@PAVHardwarePixelBuffer@Ogre@@@std@@@2@XZ ; std::vector<Ogre::HardwarePixelBuffer *,std::allocator<Ogre::HardwarePixelBuffer *> >::begin
	jmp	SHORT $LN6@onLostDevi
$LN5@onLostDevi:

; 83   : 				iter != m_FreeBuffers.end(); ++iter)

	lea	ecx, DWORD PTR _iter$137762[ebp]
	call	??E?$_Vector_iterator@PAVHardwarePixelBuffer@Ogre@@V?$allocator@PAVHardwarePixelBuffer@Ogre@@@std@@@std@@QAEAAV01@XZ ; std::_Vector_iterator<Ogre::HardwarePixelBuffer *,std::allocator<Ogre::HardwarePixelBuffer *> >::operator++
$LN6@onLostDevi:
	lea	eax, DWORD PTR $T146683[ebp]
	push	eax
	mov	ecx, DWORD PTR _this$[ebp]
	add	ecx, 36					; 00000024H
	call	?end@?$vector@PAVHardwarePixelBuffer@Ogre@@V?$allocator@PAVHardwarePixelBuffer@Ogre@@@std@@@std@@QAE?AV?$_Vector_iterator@PAVHardwarePixelBuffer@Ogre@@V?$allocator@PAVHardwarePixelBuffer@Ogre@@@std@@@2@XZ ; std::vector<Ogre::HardwarePixelBuffer *,std::allocator<Ogre::HardwarePixelBuffer *> >::end
	push	eax
	lea	ecx, DWORD PTR _iter$137762[ebp]
	call	??9?$_Vector_const_iterator@PAVHardwarePixelBuffer@Ogre@@V?$allocator@PAVHardwarePixelBuffer@Ogre@@@std@@@std@@QBE_NABV01@@Z ; std::_Vector_const_iterator<Ogre::HardwarePixelBuffer *,std::allocator<Ogre::HardwarePixelBuffer *> >::operator!=
	movzx	ecx, al
	test	ecx, ecx
	je	SHORT $LN4@onLostDevi

; 84   : 			{
; 85   : 				releasePixelBufferSysTexture(static_cast<D3D9HardwarePixelBuffer *>(*iter));

	lea	ecx, DWORD PTR _iter$137762[ebp]
	call	??D?$_Vector_iterator@PAVHardwarePixelBuffer@Ogre@@V?$allocator@PAVHardwarePixelBuffer@Ogre@@@std@@@std@@QBEAAPAVHardwarePixelBuffer@Ogre@@XZ ; std::_Vector_iterator<Ogre::HardwarePixelBuffer *,std::allocator<Ogre::HardwarePixelBuffer *> >::operator*
	mov	edx, DWORD PTR [eax]
	push	edx
	mov	ecx, DWORD PTR _this$[ebp]
	call	?releasePixelBufferSysTexture@D3D9PixelBufferPool@Ogre@@QAEXPAVD3D9HardwarePixelBuffer@2@@Z ; Ogre::D3D9PixelBufferPool::releasePixelBufferSysTexture

; 86   : 			}

	jmp	SHORT $LN5@onLostDevi
$LN4@onLostDevi:

; 87   : 		}

	mov	DWORD PTR __$EHRec$[ebp+8], -1
	lea	ecx, DWORD PTR _locker$137757[ebp]
	call	DWORD PTR __imp_??1LockFunctor@Ogre@@QAE@XZ

; 88   : 
; 89   : 		{
; 90   : 			LockFunctor locker(&m_UsedBufferMutex);

	mov	eax, DWORD PTR _this$[ebp]
	add	eax, 88					; 00000058H
	push	eax
	lea	ecx, DWORD PTR _locker$137769[ebp]
	call	DWORD PTR __imp_??0LockFunctor@Ogre@@QAE@PAVLockSection@1@@Z
	mov	DWORD PTR __$EHRec$[ebp+8], 1

; 91   : 			for (std::vector<HardwarePixelBuffer *>::iterator iter = m_UsedBuffers.begin();

	lea	ecx, DWORD PTR _iter$137774[ebp]
	push	ecx
	mov	ecx, DWORD PTR _this$[ebp]
	add	ecx, 60					; 0000003cH
	call	?begin@?$vector@PAVHardwarePixelBuffer@Ogre@@V?$allocator@PAVHardwarePixelBuffer@Ogre@@@std@@@std@@QAE?AV?$_Vector_iterator@PAVHardwarePixelBuffer@Ogre@@V?$allocator@PAVHardwarePixelBuffer@Ogre@@@std@@@2@XZ ; std::vector<Ogre::HardwarePixelBuffer *,std::allocator<Ogre::HardwarePixelBuffer *> >::begin
	jmp	SHORT $LN3@onLostDevi
$LN2@onLostDevi:

; 92   : 				iter != m_UsedBuffers.end(); ++iter)

	lea	ecx, DWORD PTR _iter$137774[ebp]
	call	??E?$_Vector_iterator@PAVHardwarePixelBuffer@Ogre@@V?$allocator@PAVHardwarePixelBuffer@Ogre@@@std@@@std@@QAEAAV01@XZ ; std::_Vector_iterator<Ogre::HardwarePixelBuffer *,std::allocator<Ogre::HardwarePixelBuffer *> >::operator++
$LN3@onLostDevi:
	lea	edx, DWORD PTR $T146684[ebp]
	push	edx
	mov	ecx, DWORD PTR _this$[ebp]
	add	ecx, 60					; 0000003cH
	call	?end@?$vector@PAVHardwarePixelBuffer@Ogre@@V?$allocator@PAVHardwarePixelBuffer@Ogre@@@std@@@std@@QAE?AV?$_Vector_iterator@PAVHardwarePixelBuffer@Ogre@@V?$allocator@PAVHardwarePixelBuffer@Ogre@@@std@@@2@XZ ; std::vector<Ogre::HardwarePixelBuffer *,std::allocator<Ogre::HardwarePixelBuffer *> >::end
	push	eax
	lea	ecx, DWORD PTR _iter$137774[ebp]
	call	??9?$_Vector_const_iterator@PAVHardwarePixelBuffer@Ogre@@V?$allocator@PAVHardwarePixelBuffer@Ogre@@@std@@@std@@QBE_NABV01@@Z ; std::_Vector_const_iterator<Ogre::HardwarePixelBuffer *,std::allocator<Ogre::HardwarePixelBuffer *> >::operator!=
	movzx	eax, al
	test	eax, eax
	je	SHORT $LN1@onLostDevi

; 93   : 			{
; 94   : 				releasePixelBufferSysTexture(static_cast<D3D9HardwarePixelBuffer *>(*iter));

	lea	ecx, DWORD PTR _iter$137774[ebp]
	call	??D?$_Vector_iterator@PAVHardwarePixelBuffer@Ogre@@V?$allocator@PAVHardwarePixelBuffer@Ogre@@@std@@@std@@QBEAAPAVHardwarePixelBuffer@Ogre@@XZ ; std::_Vector_iterator<Ogre::HardwarePixelBuffer *,std::allocator<Ogre::HardwarePixelBuffer *> >::operator*
	mov	ecx, DWORD PTR [eax]
	push	ecx
	mov	ecx, DWORD PTR _this$[ebp]
	call	?releasePixelBufferSysTexture@D3D9PixelBufferPool@Ogre@@QAEXPAVD3D9HardwarePixelBuffer@2@@Z ; Ogre::D3D9PixelBufferPool::releasePixelBufferSysTexture

; 95   : 			}

	jmp	SHORT $LN2@onLostDevi
$LN1@onLostDevi:

; 96   : 		}

	mov	DWORD PTR __$EHRec$[ebp+8], -1
	lea	ecx, DWORD PTR _locker$137769[ebp]
	call	DWORD PTR __imp_??1LockFunctor@Ogre@@QAE@XZ
$LN8@onLostDevi:

; 97   : 	}

	mov	ecx, DWORD PTR __$EHRec$[ebp]
	mov	DWORD PTR fs:0, ecx
	pop	ecx
	mov	esp, ebp
	pop	ebp
	ret	0
_TEXT	ENDS
text$x	SEGMENT
__unwindfunclet$?onLostDevice@D3D9PixelBufferPool@Ogre@@QAEXXZ$0:
	lea	ecx, DWORD PTR _locker$137757[ebp]
	jmp	DWORD PTR __imp_??1LockFunctor@Ogre@@QAE@XZ
__unwindfunclet$?onLostDevice@D3D9PixelBufferPool@Ogre@@QAEXXZ$1:
	lea	ecx, DWORD PTR _locker$137769[ebp]
	jmp	DWORD PTR __imp_??1LockFunctor@Ogre@@QAE@XZ
__ehhandler$?onLostDevice@D3D9PixelBufferPool@Ogre@@QAEXXZ:
	mov	edx, DWORD PTR [esp+8]
	lea	eax, DWORD PTR [edx+12]
	mov	ecx, DWORD PTR [edx-48]
	xor	ecx, eax
	call	@__security_check_cookie@4
	mov	eax, OFFSET __ehfuncinfo$?onLostDevice@D3D9PixelBufferPool@Ogre@@QAEXXZ
	jmp	___CxxFrameHandler3
text$x	ENDS
?onLostDevice@D3D9PixelBufferPool@Ogre@@QAEXXZ ENDP	; Ogre::D3D9PixelBufferPool::onLostDevice
PUBLIC	?onResetDevice@D3D9PixelBufferPool@Ogre@@QAE_NXZ ; Ogre::D3D9PixelBufferPool::onResetDevice
xdata$x	SEGMENT
__unwindtable$?onResetDevice@D3D9PixelBufferPool@Ogre@@QAE_NXZ DD 0ffffffffH
	DD	FLAT:__unwindfunclet$?onResetDevice@D3D9PixelBufferPool@Ogre@@QAE_NXZ$0
	DD	0ffffffffH
	DD	FLAT:__unwindfunclet$?onResetDevice@D3D9PixelBufferPool@Ogre@@QAE_NXZ$1
__ehfuncinfo$?onResetDevice@D3D9PixelBufferPool@Ogre@@QAE_NXZ DD 019930522H
	DD	02H
	DD	FLAT:__unwindtable$?onResetDevice@D3D9PixelBufferPool@Ogre@@QAE_NXZ
	DD	2 DUP(00H)
	DD	2 DUP(00H)
	DD	00H
	DD	00H
; Function compile flags: /Odtp
xdata$x	ENDS
_TEXT	SEGMENT
_this$ = -64						; size = 4
$T146695 = -57						; size = 1
$T146694 = -56						; size = 8
$T146693 = -45						; size = 1
$T146692 = -44						; size = 8
_iter$137805 = -36					; size = 8
_locker$137800 = -28					; size = 4
_iter$137790 = -24					; size = 8
_locker$137785 = -16					; size = 4
__$EHRec$ = -12						; size = 12
?onResetDevice@D3D9PixelBufferPool@Ogre@@QAE_NXZ PROC	; Ogre::D3D9PixelBufferPool::onResetDevice
; _this$ = ecx

; 100  : 	{

	push	ebp
	mov	ebp, esp
	push	-1
	push	__ehhandler$?onResetDevice@D3D9PixelBufferPool@Ogre@@QAE_NXZ
	mov	eax, DWORD PTR fs:0
	push	eax
	sub	esp, 52					; 00000034H
	mov	eax, DWORD PTR ___security_cookie
	xor	eax, ebp
	push	eax
	lea	eax, DWORD PTR __$EHRec$[ebp]
	mov	DWORD PTR fs:0, eax
	mov	DWORD PTR _this$[ebp], ecx

; 101  : 		if(m_Pool != D3DPOOL_DEFAULT)

	mov	eax, DWORD PTR _this$[ebp]
	cmp	DWORD PTR [eax+108], 0
	je	SHORT $LN9@onResetDev

; 102  : 		{
; 103  : 			return true;

	mov	al, 1
	jmp	$LN10@onResetDev
$LN9@onResetDev:

; 104  : 		}
; 105  : 
; 106  : 		{
; 107  : 			LockFunctor locker(&m_FreeBufferMutex);

	mov	ecx, DWORD PTR _this$[ebp]
	add	ecx, 84					; 00000054H
	push	ecx
	lea	ecx, DWORD PTR _locker$137785[ebp]
	call	DWORD PTR __imp_??0LockFunctor@Ogre@@QAE@PAVLockSection@1@@Z
	mov	DWORD PTR __$EHRec$[ebp+8], 0

; 108  : 			for (std::vector<HardwarePixelBuffer *>::iterator iter = m_FreeBuffers.begin();

	lea	edx, DWORD PTR _iter$137790[ebp]
	push	edx
	mov	ecx, DWORD PTR _this$[ebp]
	add	ecx, 36					; 00000024H
	call	?begin@?$vector@PAVHardwarePixelBuffer@Ogre@@V?$allocator@PAVHardwarePixelBuffer@Ogre@@@std@@@std@@QAE?AV?$_Vector_iterator@PAVHardwarePixelBuffer@Ogre@@V?$allocator@PAVHardwarePixelBuffer@Ogre@@@std@@@2@XZ ; std::vector<Ogre::HardwarePixelBuffer *,std::allocator<Ogre::HardwarePixelBuffer *> >::begin
	jmp	SHORT $LN8@onResetDev
$LN7@onResetDev:

; 109  : 				iter != m_FreeBuffers.end(); ++iter)

	lea	ecx, DWORD PTR _iter$137790[ebp]
	call	??E?$_Vector_iterator@PAVHardwarePixelBuffer@Ogre@@V?$allocator@PAVHardwarePixelBuffer@Ogre@@@std@@@std@@QAEAAV01@XZ ; std::_Vector_iterator<Ogre::HardwarePixelBuffer *,std::allocator<Ogre::HardwarePixelBuffer *> >::operator++
$LN8@onResetDev:
	lea	eax, DWORD PTR $T146692[ebp]
	push	eax
	mov	ecx, DWORD PTR _this$[ebp]
	add	ecx, 36					; 00000024H
	call	?end@?$vector@PAVHardwarePixelBuffer@Ogre@@V?$allocator@PAVHardwarePixelBuffer@Ogre@@@std@@@std@@QAE?AV?$_Vector_iterator@PAVHardwarePixelBuffer@Ogre@@V?$allocator@PAVHardwarePixelBuffer@Ogre@@@std@@@2@XZ ; std::vector<Ogre::HardwarePixelBuffer *,std::allocator<Ogre::HardwarePixelBuffer *> >::end
	push	eax
	lea	ecx, DWORD PTR _iter$137790[ebp]
	call	??9?$_Vector_const_iterator@PAVHardwarePixelBuffer@Ogre@@V?$allocator@PAVHardwarePixelBuffer@Ogre@@@std@@@std@@QBE_NABV01@@Z ; std::_Vector_const_iterator<Ogre::HardwarePixelBuffer *,std::allocator<Ogre::HardwarePixelBuffer *> >::operator!=
	movzx	ecx, al
	test	ecx, ecx
	je	SHORT $LN6@onResetDev

; 110  : 			{
; 111  : 				createPixelBufferSysTexture(static_cast<D3D9HardwarePixelBuffer *>(*iter));

	lea	ecx, DWORD PTR _iter$137790[ebp]
	call	??D?$_Vector_iterator@PAVHardwarePixelBuffer@Ogre@@V?$allocator@PAVHardwarePixelBuffer@Ogre@@@std@@@std@@QBEAAPAVHardwarePixelBuffer@Ogre@@XZ ; std::_Vector_iterator<Ogre::HardwarePixelBuffer *,std::allocator<Ogre::HardwarePixelBuffer *> >::operator*
	mov	edx, DWORD PTR [eax]
	push	edx
	mov	ecx, DWORD PTR _this$[ebp]
	call	?createPixelBufferSysTexture@D3D9PixelBufferPool@Ogre@@QAEXPAVD3D9HardwarePixelBuffer@2@@Z ; Ogre::D3D9PixelBufferPool::createPixelBufferSysTexture

; 112  : 				if(static_cast<D3D9HardwarePixelBuffer *>(*iter)->m_pSysTex == NULL)

	lea	ecx, DWORD PTR _iter$137790[ebp]
	call	??D?$_Vector_iterator@PAVHardwarePixelBuffer@Ogre@@V?$allocator@PAVHardwarePixelBuffer@Ogre@@@std@@@std@@QBEAAPAVHardwarePixelBuffer@Ogre@@XZ ; std::_Vector_iterator<Ogre::HardwarePixelBuffer *,std::allocator<Ogre::HardwarePixelBuffer *> >::operator*
	mov	eax, DWORD PTR [eax]
	cmp	DWORD PTR [eax+20], 0
	jne	SHORT $LN5@onResetDev

; 113  : 				{
; 114  : 					return false;

	mov	BYTE PTR $T146693[ebp], 0
	mov	DWORD PTR __$EHRec$[ebp+8], -1
	lea	ecx, DWORD PTR _locker$137785[ebp]
	call	DWORD PTR __imp_??1LockFunctor@Ogre@@QAE@XZ
	mov	al, BYTE PTR $T146693[ebp]
	jmp	$LN10@onResetDev
$LN5@onResetDev:

; 115  : 				}
; 116  : 			}

	jmp	SHORT $LN7@onResetDev
$LN6@onResetDev:

; 117  : 		}

	mov	DWORD PTR __$EHRec$[ebp+8], -1
	lea	ecx, DWORD PTR _locker$137785[ebp]
	call	DWORD PTR __imp_??1LockFunctor@Ogre@@QAE@XZ

; 118  : 
; 119  : 		{
; 120  : 			LockFunctor locker(&m_UsedBufferMutex);

	mov	ecx, DWORD PTR _this$[ebp]
	add	ecx, 88					; 00000058H
	push	ecx
	lea	ecx, DWORD PTR _locker$137800[ebp]
	call	DWORD PTR __imp_??0LockFunctor@Ogre@@QAE@PAVLockSection@1@@Z
	mov	DWORD PTR __$EHRec$[ebp+8], 1

; 121  : 			for (std::vector<HardwarePixelBuffer *>::iterator iter = m_UsedBuffers.begin();

	lea	edx, DWORD PTR _iter$137805[ebp]
	push	edx
	mov	ecx, DWORD PTR _this$[ebp]
	add	ecx, 60					; 0000003cH
	call	?begin@?$vector@PAVHardwarePixelBuffer@Ogre@@V?$allocator@PAVHardwarePixelBuffer@Ogre@@@std@@@std@@QAE?AV?$_Vector_iterator@PAVHardwarePixelBuffer@Ogre@@V?$allocator@PAVHardwarePixelBuffer@Ogre@@@std@@@2@XZ ; std::vector<Ogre::HardwarePixelBuffer *,std::allocator<Ogre::HardwarePixelBuffer *> >::begin
	jmp	SHORT $LN4@onResetDev
$LN3@onResetDev:

; 122  : 				iter != m_UsedBuffers.end(); ++iter)

	lea	ecx, DWORD PTR _iter$137805[ebp]
	call	??E?$_Vector_iterator@PAVHardwarePixelBuffer@Ogre@@V?$allocator@PAVHardwarePixelBuffer@Ogre@@@std@@@std@@QAEAAV01@XZ ; std::_Vector_iterator<Ogre::HardwarePixelBuffer *,std::allocator<Ogre::HardwarePixelBuffer *> >::operator++
$LN4@onResetDev:
	lea	eax, DWORD PTR $T146694[ebp]
	push	eax
	mov	ecx, DWORD PTR _this$[ebp]
	add	ecx, 60					; 0000003cH
	call	?end@?$vector@PAVHardwarePixelBuffer@Ogre@@V?$allocator@PAVHardwarePixelBuffer@Ogre@@@std@@@std@@QAE?AV?$_Vector_iterator@PAVHardwarePixelBuffer@Ogre@@V?$allocator@PAVHardwarePixelBuffer@Ogre@@@std@@@2@XZ ; std::vector<Ogre::HardwarePixelBuffer *,std::allocator<Ogre::HardwarePixelBuffer *> >::end
	push	eax
	lea	ecx, DWORD PTR _iter$137805[ebp]
	call	??9?$_Vector_const_iterator@PAVHardwarePixelBuffer@Ogre@@V?$allocator@PAVHardwarePixelBuffer@Ogre@@@std@@@std@@QBE_NABV01@@Z ; std::_Vector_const_iterator<Ogre::HardwarePixelBuffer *,std::allocator<Ogre::HardwarePixelBuffer *> >::operator!=
	movzx	ecx, al
	test	ecx, ecx
	je	SHORT $LN2@onResetDev

; 123  : 			{
; 124  : 				createPixelBufferSysTexture(static_cast<D3D9HardwarePixelBuffer *>(*iter));

	lea	ecx, DWORD PTR _iter$137805[ebp]
	call	??D?$_Vector_iterator@PAVHardwarePixelBuffer@Ogre@@V?$allocator@PAVHardwarePixelBuffer@Ogre@@@std@@@std@@QBEAAPAVHardwarePixelBuffer@Ogre@@XZ ; std::_Vector_iterator<Ogre::HardwarePixelBuffer *,std::allocator<Ogre::HardwarePixelBuffer *> >::operator*
	mov	edx, DWORD PTR [eax]
	push	edx
	mov	ecx, DWORD PTR _this$[ebp]
	call	?createPixelBufferSysTexture@D3D9PixelBufferPool@Ogre@@QAEXPAVD3D9HardwarePixelBuffer@2@@Z ; Ogre::D3D9PixelBufferPool::createPixelBufferSysTexture

; 125  : 				if(static_cast<D3D9HardwarePixelBuffer *>(*iter)->m_pSysTex == NULL)

	lea	ecx, DWORD PTR _iter$137805[ebp]
	call	??D?$_Vector_iterator@PAVHardwarePixelBuffer@Ogre@@V?$allocator@PAVHardwarePixelBuffer@Ogre@@@std@@@std@@QBEAAPAVHardwarePixelBuffer@Ogre@@XZ ; std::_Vector_iterator<Ogre::HardwarePixelBuffer *,std::allocator<Ogre::HardwarePixelBuffer *> >::operator*
	mov	eax, DWORD PTR [eax]
	cmp	DWORD PTR [eax+20], 0
	jne	SHORT $LN1@onResetDev

; 126  : 				{
; 127  : 					return false;

	mov	BYTE PTR $T146695[ebp], 0
	mov	DWORD PTR __$EHRec$[ebp+8], -1
	lea	ecx, DWORD PTR _locker$137800[ebp]
	call	DWORD PTR __imp_??1LockFunctor@Ogre@@QAE@XZ
	mov	al, BYTE PTR $T146695[ebp]
	jmp	SHORT $LN10@onResetDev
$LN1@onResetDev:

; 128  : 				}
; 129  : 			}

	jmp	SHORT $LN3@onResetDev
$LN2@onResetDev:

; 130  : 		}

	mov	DWORD PTR __$EHRec$[ebp+8], -1
	lea	ecx, DWORD PTR _locker$137800[ebp]
	call	DWORD PTR __imp_??1LockFunctor@Ogre@@QAE@XZ

; 131  : 
; 132  : 		return true;

	mov	al, 1
$LN10@onResetDev:

; 133  : 	}

	mov	ecx, DWORD PTR __$EHRec$[ebp]
	mov	DWORD PTR fs:0, ecx
	pop	ecx
	mov	esp, ebp
	pop	ebp
	ret	0
_TEXT	ENDS
text$x	SEGMENT
__unwindfunclet$?onResetDevice@D3D9PixelBufferPool@Ogre@@QAE_NXZ$0:
	lea	ecx, DWORD PTR _locker$137785[ebp]
	jmp	DWORD PTR __imp_??1LockFunctor@Ogre@@QAE@XZ
__unwindfunclet$?onResetDevice@D3D9PixelBufferPool@Ogre@@QAE_NXZ$1:
	lea	ecx, DWORD PTR _locker$137800[ebp]
	jmp	DWORD PTR __imp_??1LockFunctor@Ogre@@QAE@XZ
__ehhandler$?onResetDevice@D3D9PixelBufferPool@Ogre@@QAE_NXZ:
	mov	edx, DWORD PTR [esp+8]
	lea	eax, DWORD PTR [edx+12]
	mov	ecx, DWORD PTR [edx-56]
	xor	ecx, eax
	call	@__security_check_cookie@4
	mov	eax, OFFSET __ehfuncinfo$?onResetDevice@D3D9PixelBufferPool@Ogre@@QAE_NXZ
	jmp	___CxxFrameHandler3
text$x	ENDS
?onResetDevice@D3D9PixelBufferPool@Ogre@@QAE_NXZ ENDP	; Ogre::D3D9PixelBufferPool::onResetDevice
PUBLIC	??0D3D9HardwarePixelBuffer@Ogre@@QAE@XZ		; Ogre::D3D9HardwarePixelBuffer::D3D9HardwarePixelBuffer
EXTRN	??2@YAPAXI@Z:PROC				; operator new
xdata$x	SEGMENT
__unwindtable$?newPixelBuffer@D3D9PixelBufferPool@Ogre@@UAEPAVHardwarePixelBuffer@2@XZ DD 0ffffffffH
	DD	FLAT:__unwindfunclet$?newPixelBuffer@D3D9PixelBufferPool@Ogre@@UAEPAVHardwarePixelBuffer@2@XZ$0
__ehfuncinfo$?newPixelBuffer@D3D9PixelBufferPool@Ogre@@UAEPAVHardwarePixelBuffer@2@XZ DD 019930522H
	DD	01H
	DD	FLAT:__unwindtable$?newPixelBuffer@D3D9PixelBufferPool@Ogre@@UAEPAVHardwarePixelBuffer@2@XZ
	DD	2 DUP(00H)
	DD	2 DUP(00H)
	DD	00H
	DD	00H
; Function compile flags: /Odtp
xdata$x	ENDS
_TEXT	SEGMENT
tv71 = -32						; size = 4
_this$ = -28						; size = 4
$T146704 = -24						; size = 4
$T146703 = -20						; size = 4
_pd3dbuf$ = -16						; size = 4
__$EHRec$ = -12						; size = 12
?newPixelBuffer@D3D9PixelBufferPool@Ogre@@UAEPAVHardwarePixelBuffer@2@XZ PROC ; Ogre::D3D9PixelBufferPool::newPixelBuffer
; _this$ = ecx

; 136  : 	{

	push	ebp
	mov	ebp, esp
	push	-1
	push	__ehhandler$?newPixelBuffer@D3D9PixelBufferPool@Ogre@@UAEPAVHardwarePixelBuffer@2@XZ
	mov	eax, DWORD PTR fs:0
	push	eax
	sub	esp, 20					; 00000014H
	mov	eax, DWORD PTR ___security_cookie
	xor	eax, ebp
	push	eax
	lea	eax, DWORD PTR __$EHRec$[ebp]
	mov	DWORD PTR fs:0, eax
	mov	DWORD PTR _this$[ebp], ecx

; 137  : 		D3D9HardwarePixelBuffer *pd3dbuf = new D3D9HardwarePixelBuffer;

	push	24					; 00000018H
	call	??2@YAPAXI@Z				; operator new
	add	esp, 4
	mov	DWORD PTR $T146704[ebp], eax
	mov	DWORD PTR __$EHRec$[ebp+8], 0
	cmp	DWORD PTR $T146704[ebp], 0
	je	SHORT $LN3@newPixelBu
	mov	ecx, DWORD PTR $T146704[ebp]
	call	??0D3D9HardwarePixelBuffer@Ogre@@QAE@XZ	; Ogre::D3D9HardwarePixelBuffer::D3D9HardwarePixelBuffer
	mov	DWORD PTR tv71[ebp], eax
	jmp	SHORT $LN4@newPixelBu
$LN3@newPixelBu:
	mov	DWORD PTR tv71[ebp], 0
$LN4@newPixelBu:
	mov	eax, DWORD PTR tv71[ebp]
	mov	DWORD PTR $T146703[ebp], eax
	mov	DWORD PTR __$EHRec$[ebp+8], -1
	mov	ecx, DWORD PTR $T146703[ebp]
	mov	DWORD PTR _pd3dbuf$[ebp], ecx

; 138  : 		createPixelBufferSysTexture(pd3dbuf);

	mov	edx, DWORD PTR _pd3dbuf$[ebp]
	push	edx
	mov	ecx, DWORD PTR _this$[ebp]
	call	?createPixelBufferSysTexture@D3D9PixelBufferPool@Ogre@@QAEXPAVD3D9HardwarePixelBuffer@2@@Z ; Ogre::D3D9PixelBufferPool::createPixelBufferSysTexture

; 139  : 
; 140  : 		return pd3dbuf;

	mov	eax, DWORD PTR _pd3dbuf$[ebp]

; 141  : 	}

	mov	ecx, DWORD PTR __$EHRec$[ebp]
	mov	DWORD PTR fs:0, ecx
	pop	ecx
	mov	esp, ebp
	pop	ebp
	ret	0
_TEXT	ENDS
text$x	SEGMENT
__unwindfunclet$?newPixelBuffer@D3D9PixelBufferPool@Ogre@@UAEPAVHardwarePixelBuffer@2@XZ$0:
	mov	eax, DWORD PTR $T146704[ebp]
	push	eax
	call	??3@YAXPAX@Z				; operator delete
	pop	ecx
	ret	0
__ehhandler$?newPixelBuffer@D3D9PixelBufferPool@Ogre@@UAEPAVHardwarePixelBuffer@2@XZ:
	mov	edx, DWORD PTR [esp+8]
	lea	eax, DWORD PTR [edx+12]
	mov	ecx, DWORD PTR [edx-24]
	xor	ecx, eax
	call	@__security_check_cookie@4
	mov	eax, OFFSET __ehfuncinfo$?newPixelBuffer@D3D9PixelBufferPool@Ogre@@UAEPAVHardwarePixelBuffer@2@XZ
	jmp	___CxxFrameHandler3
text$x	ENDS
?newPixelBuffer@D3D9PixelBufferPool@Ogre@@UAEPAVHardwarePixelBuffer@2@XZ ENDP ; Ogre::D3D9PixelBufferPool::newPixelBuffer
PUBLIC	??_7D3D9HardwarePixelBuffer@Ogre@@6B@		; Ogre::D3D9HardwarePixelBuffer::`vftable'
PUBLIC	??_R4D3D9HardwarePixelBuffer@Ogre@@6B@		; Ogre::D3D9HardwarePixelBuffer::`RTTI Complete Object Locator'
PUBLIC	??_R0?AVD3D9HardwarePixelBuffer@Ogre@@@8	; Ogre::D3D9HardwarePixelBuffer `RTTI Type Descriptor'
PUBLIC	??_R3D3D9HardwarePixelBuffer@Ogre@@8		; Ogre::D3D9HardwarePixelBuffer::`RTTI Class Hierarchy Descriptor'
PUBLIC	??_R2D3D9HardwarePixelBuffer@Ogre@@8		; Ogre::D3D9HardwarePixelBuffer::`RTTI Base Class Array'
PUBLIC	??_R1A@?0A@EA@D3D9HardwarePixelBuffer@Ogre@@8	; Ogre::D3D9HardwarePixelBuffer::`RTTI Base Class Descriptor at (0,-1,0,64)'
PUBLIC	??_R1A@?0A@EA@HardwarePixelBuffer@Ogre@@8	; Ogre::HardwarePixelBuffer::`RTTI Base Class Descriptor at (0,-1,0,64)'
PUBLIC	??_R0?AVHardwarePixelBuffer@Ogre@@@8		; Ogre::HardwarePixelBuffer `RTTI Type Descriptor'
PUBLIC	??_R3HardwarePixelBuffer@Ogre@@8		; Ogre::HardwarePixelBuffer::`RTTI Class Hierarchy Descriptor'
PUBLIC	??_R2HardwarePixelBuffer@Ogre@@8		; Ogre::HardwarePixelBuffer::`RTTI Base Class Array'
PUBLIC	?getColorBit@D3D9HardwarePixelBuffer@Ogre@@UAEXPAK@Z ; Ogre::D3D9HardwarePixelBuffer::getColorBit
PUBLIC	?dumpToDDS@D3D9HardwarePixelBuffer@Ogre@@UAEXPBD@Z ; Ogre::D3D9HardwarePixelBuffer::dumpToDDS
PUBLIC	?dumpToBuffer@D3D9HardwarePixelBuffer@Ogre@@UAEPAXPBDAAI@Z ; Ogre::D3D9HardwarePixelBuffer::dumpToBuffer
EXTRN	__imp_??1HardwarePixelBuffer@Ogre@@MAE@XZ:PROC
EXTRN	__imp_??0HardwarePixelBuffer@Ogre@@IAE@XZ:PROC
EXTRN	??_ED3D9HardwarePixelBuffer@Ogre@@EAEPAXI@Z:PROC ; Ogre::D3D9HardwarePixelBuffer::`vector deleting destructor'
;	COMDAT ??_R2HardwarePixelBuffer@Ogre@@8
; File i:\svnroot\client\plugins\rendersystem_d3d9\ogred3d9hardwarepixelbuffer.h
rdata$r	SEGMENT
??_R2HardwarePixelBuffer@Ogre@@8 DD FLAT:??_R1A@?0A@EA@HardwarePixelBuffer@Ogre@@8 ; Ogre::HardwarePixelBuffer::`RTTI Base Class Array'
rdata$r	ENDS
;	COMDAT ??_R3HardwarePixelBuffer@Ogre@@8
rdata$r	SEGMENT
??_R3HardwarePixelBuffer@Ogre@@8 DD 00H			; Ogre::HardwarePixelBuffer::`RTTI Class Hierarchy Descriptor'
	DD	00H
	DD	01H
	DD	FLAT:??_R2HardwarePixelBuffer@Ogre@@8
rdata$r	ENDS
;	COMDAT ??_R0?AVHardwarePixelBuffer@Ogre@@@8
_DATA	SEGMENT
??_R0?AVHardwarePixelBuffer@Ogre@@@8 DD FLAT:??_7type_info@@6B@ ; Ogre::HardwarePixelBuffer `RTTI Type Descriptor'
	DD	00H
	DB	'.?AVHardwarePixelBuffer@Ogre@@', 00H
_DATA	ENDS
;	COMDAT ??_R1A@?0A@EA@HardwarePixelBuffer@Ogre@@8
rdata$r	SEGMENT
??_R1A@?0A@EA@HardwarePixelBuffer@Ogre@@8 DD FLAT:??_R0?AVHardwarePixelBuffer@Ogre@@@8 ; Ogre::HardwarePixelBuffer::`RTTI Base Class Descriptor at (0,-1,0,64)'
	DD	00H
	DD	00H
	DD	0ffffffffH
	DD	00H
	DD	040H
	DD	FLAT:??_R3HardwarePixelBuffer@Ogre@@8
rdata$r	ENDS
;	COMDAT ??_R1A@?0A@EA@D3D9HardwarePixelBuffer@Ogre@@8
rdata$r	SEGMENT
??_R1A@?0A@EA@D3D9HardwarePixelBuffer@Ogre@@8 DD FLAT:??_R0?AVD3D9HardwarePixelBuffer@Ogre@@@8 ; Ogre::D3D9HardwarePixelBuffer::`RTTI Base Class Descriptor at (0,-1,0,64)'
	DD	01H
	DD	00H
	DD	0ffffffffH
	DD	00H
	DD	040H
	DD	FLAT:??_R3D3D9HardwarePixelBuffer@Ogre@@8
rdata$r	ENDS
;	COMDAT ??_R2D3D9HardwarePixelBuffer@Ogre@@8
rdata$r	SEGMENT
??_R2D3D9HardwarePixelBuffer@Ogre@@8 DD FLAT:??_R1A@?0A@EA@D3D9HardwarePixelBuffer@Ogre@@8 ; Ogre::D3D9HardwarePixelBuffer::`RTTI Base Class Array'
	DD	FLAT:??_R1A@?0A@EA@HardwarePixelBuffer@Ogre@@8
rdata$r	ENDS
;	COMDAT ??_R3D3D9HardwarePixelBuffer@Ogre@@8
rdata$r	SEGMENT
??_R3D3D9HardwarePixelBuffer@Ogre@@8 DD 00H		; Ogre::D3D9HardwarePixelBuffer::`RTTI Class Hierarchy Descriptor'
	DD	00H
	DD	02H
	DD	FLAT:??_R2D3D9HardwarePixelBuffer@Ogre@@8
rdata$r	ENDS
;	COMDAT ??_R0?AVD3D9HardwarePixelBuffer@Ogre@@@8
_DATA	SEGMENT
??_R0?AVD3D9HardwarePixelBuffer@Ogre@@@8 DD FLAT:??_7type_info@@6B@ ; Ogre::D3D9HardwarePixelBuffer `RTTI Type Descriptor'
	DD	00H
	DB	'.?AVD3D9HardwarePixelBuffer@Ogre@@', 00H
_DATA	ENDS
;	COMDAT ??_R4D3D9HardwarePixelBuffer@Ogre@@6B@
rdata$r	SEGMENT
??_R4D3D9HardwarePixelBuffer@Ogre@@6B@ DD 00H		; Ogre::D3D9HardwarePixelBuffer::`RTTI Complete Object Locator'
	DD	00H
	DD	00H
	DD	FLAT:??_R0?AVD3D9HardwarePixelBuffer@Ogre@@@8
	DD	FLAT:??_R3D3D9HardwarePixelBuffer@Ogre@@8
rdata$r	ENDS
;	COMDAT ??_7D3D9HardwarePixelBuffer@Ogre@@6B@
CONST	SEGMENT
??_7D3D9HardwarePixelBuffer@Ogre@@6B@ DD FLAT:??_R4D3D9HardwarePixelBuffer@Ogre@@6B@ ; Ogre::D3D9HardwarePixelBuffer::`vftable'
	DD	FLAT:?getColorBit@D3D9HardwarePixelBuffer@Ogre@@UAEXPAK@Z
	DD	FLAT:?dumpToDDS@D3D9HardwarePixelBuffer@Ogre@@UAEXPBD@Z
	DD	FLAT:?dumpToBuffer@D3D9HardwarePixelBuffer@Ogre@@UAEPAXPBDAAI@Z
	DD	FLAT:??_ED3D9HardwarePixelBuffer@Ogre@@EAEPAXI@Z
CONST	ENDS
;	COMDAT xdata$x
xdata$x	SEGMENT
__unwindtable$??0D3D9HardwarePixelBuffer@Ogre@@QAE@XZ DD 0ffffffffH
	DD	FLAT:__unwindfunclet$??0D3D9HardwarePixelBuffer@Ogre@@QAE@XZ$0
__ehfuncinfo$??0D3D9HardwarePixelBuffer@Ogre@@QAE@XZ DD 019930522H
	DD	01H
	DD	FLAT:__unwindtable$??0D3D9HardwarePixelBuffer@Ogre@@QAE@XZ
	DD	2 DUP(00H)
	DD	2 DUP(00H)
	DD	00H
	DD	00H
; Function compile flags: /Odtp
xdata$x	ENDS
;	COMDAT ??0D3D9HardwarePixelBuffer@Ogre@@QAE@XZ
_TEXT	SEGMENT
_this$ = -16						; size = 4
__$EHRec$ = -12						; size = 12
??0D3D9HardwarePixelBuffer@Ogre@@QAE@XZ PROC		; Ogre::D3D9HardwarePixelBuffer::D3D9HardwarePixelBuffer, COMDAT
; _this$ = ecx

; 60   : 		{

	push	ebp
	mov	ebp, esp
	push	-1
	push	__ehhandler$??0D3D9HardwarePixelBuffer@Ogre@@QAE@XZ
	mov	eax, DWORD PTR fs:0
	push	eax
	push	ecx
	mov	eax, DWORD PTR ___security_cookie
	xor	eax, ebp
	push	eax
	lea	eax, DWORD PTR __$EHRec$[ebp]
	mov	DWORD PTR fs:0, eax
	mov	DWORD PTR _this$[ebp], ecx
	mov	ecx, DWORD PTR _this$[ebp]
	call	DWORD PTR __imp_??0HardwarePixelBuffer@Ogre@@IAE@XZ
	mov	DWORD PTR __$EHRec$[ebp+8], 0
	mov	eax, DWORD PTR _this$[ebp]
	mov	DWORD PTR [eax], OFFSET ??_7D3D9HardwarePixelBuffer@Ogre@@6B@
	mov	ecx, DWORD PTR _this$[ebp]
	mov	DWORD PTR [ecx+20], 0

; 61   : 		}

	mov	DWORD PTR __$EHRec$[ebp+8], -1
	mov	eax, DWORD PTR _this$[ebp]
	mov	ecx, DWORD PTR __$EHRec$[ebp]
	mov	DWORD PTR fs:0, ecx
	pop	ecx
	mov	esp, ebp
	pop	ebp
	ret	0
_TEXT	ENDS
;	COMDAT text$x
text$x	SEGMENT
__unwindfunclet$??0D3D9HardwarePixelBuffer@Ogre@@QAE@XZ$0:
	mov	ecx, DWORD PTR _this$[ebp]
	jmp	DWORD PTR __imp_??1HardwarePixelBuffer@Ogre@@MAE@XZ
__ehhandler$??0D3D9HardwarePixelBuffer@Ogre@@QAE@XZ:
	mov	edx, DWORD PTR [esp+8]
	lea	eax, DWORD PTR [edx+12]
	mov	ecx, DWORD PTR [edx-8]
	xor	ecx, eax
	call	@__security_check_cookie@4
	mov	eax, OFFSET __ehfuncinfo$??0D3D9HardwarePixelBuffer@Ogre@@QAE@XZ
	jmp	___CxxFrameHandler3
text$x	ENDS
??0D3D9HardwarePixelBuffer@Ogre@@QAE@XZ ENDP		; Ogre::D3D9HardwarePixelBuffer::D3D9HardwarePixelBuffer
PUBLIC	??1D3D9HardwarePixelBuffer@Ogre@@EAE@XZ		; Ogre::D3D9HardwarePixelBuffer::~D3D9HardwarePixelBuffer
; Function compile flags: /Odtp
;	COMDAT ??_GD3D9HardwarePixelBuffer@Ogre@@EAEPAXI@Z
_TEXT	SEGMENT
_this$ = -4						; size = 4
___flags$ = 8						; size = 4
??_GD3D9HardwarePixelBuffer@Ogre@@EAEPAXI@Z PROC	; Ogre::D3D9HardwarePixelBuffer::`scalar deleting destructor', COMDAT
; _this$ = ecx
	push	ebp
	mov	ebp, esp
	push	ecx
	mov	DWORD PTR _this$[ebp], ecx
	mov	ecx, DWORD PTR _this$[ebp]
	call	??1D3D9HardwarePixelBuffer@Ogre@@EAE@XZ	; Ogre::D3D9HardwarePixelBuffer::~D3D9HardwarePixelBuffer
	mov	eax, DWORD PTR ___flags$[ebp]
	and	eax, 1
	je	SHORT $LN1@scalar@2
	mov	ecx, DWORD PTR _this$[ebp]
	push	ecx
	call	??3@YAXPAX@Z				; operator delete
	add	esp, 4
$LN1@scalar@2:
	mov	eax, DWORD PTR _this$[ebp]
	mov	esp, ebp
	pop	ebp
	ret	4
??_GD3D9HardwarePixelBuffer@Ogre@@EAEPAXI@Z ENDP	; Ogre::D3D9HardwarePixelBuffer::`scalar deleting destructor'
_TEXT	ENDS
EXTRN	?lockOpt2D3DFlags@D3D9RenderSystem@Ogre@@QAEKW4HardwareBufferLockOpt@2@K@Z:PROC ; Ogre::D3D9RenderSystem::lockOpt2D3DFlags
; Function compile flags: /Odtp
; File i:\svnroot\client\plugins\rendersystem_d3d9\ogred3d9hardwarepixelbuffer.cpp
_TEXT	SEGMENT
_this$ = -52						; size = 4
_lockedrect$137850 = -48				; size = 8
_lockedbox$137844 = -40					; size = 12
_lockedrect$137838 = -28				; size = 8
_hr$ = -20						; size = 4
_face$ = -16						; size = 4
_psystex$ = -12						; size = 4
_flags$ = -8						; size = 4
_level$ = -4						; size = 4
_pbuf$ = 8						; size = 4
_index$ = 12						; size = 4
_lockopt$ = 16						; size = 4
_result$ = 20						; size = 4
?lock@D3D9PixelBufferPool@Ogre@@UAEPAXPAVHardwarePixelBuffer@2@IW4HardwareBufferLockOpt@2@AAULockResult@2@@Z PROC ; Ogre::D3D9PixelBufferPool::lock
; _this$ = ecx

; 144  : 	{

	push	ebp
	mov	ebp, esp
	sub	esp, 52					; 00000034H
	mov	DWORD PTR _this$[ebp], ecx

; 145  : 		IDirect3DBaseTexture9 *psystex = static_cast<D3D9HardwarePixelBuffer *>(pbuf)->m_pSysTex;

	mov	eax, DWORD PTR _pbuf$[ebp]
	mov	ecx, DWORD PTR [eax+20]
	mov	DWORD PTR _psystex$[ebp], ecx

; 146  : 		if(psystex == NULL) return NULL;

	cmp	DWORD PTR _psystex$[ebp], 0
	jne	SHORT $LN9@lock
	xor	eax, eax
	jmp	$LN10@lock
$LN9@lock:

; 147  : 
; 148  : 		DWORD flags = m_pRS->lockOpt2D3DFlags(lockopt, m_Usage);

	mov	edx, DWORD PTR _this$[ebp]
	mov	eax, DWORD PTR [edx+104]
	push	eax
	mov	ecx, DWORD PTR _lockopt$[ebp]
	push	ecx
	mov	edx, DWORD PTR _this$[ebp]
	mov	ecx, DWORD PTR [edx+92]
	call	?lockOpt2D3DFlags@D3D9RenderSystem@Ogre@@QAEKW4HardwareBufferLockOpt@2@K@Z ; Ogre::D3D9RenderSystem::lockOpt2D3DFlags
	mov	DWORD PTR _flags$[ebp], eax

; 149  : 		HRESULT hr;
; 150  : 		uint face = index >> 16;

	mov	eax, DWORD PTR _index$[ebp]
	shr	eax, 16					; 00000010H
	mov	DWORD PTR _face$[ebp], eax

; 151  : 		uint level = index & 0xffff;

	mov	ecx, DWORD PTR _index$[ebp]
	and	ecx, 65535				; 0000ffffH
	mov	DWORD PTR _level$[ebp], ecx

; 152  : 
; 153  : 		if( m_Type == D3DRTYPE_TEXTURE )

	mov	edx, DWORD PTR _this$[ebp]
	cmp	DWORD PTR [edx+96], 3
	jne	SHORT $LN8@lock

; 154  : 		{
; 155  : 			D3DLOCKED_RECT lockedrect;
; 156  : 			hr = static_cast<IDirect3DTexture9 *>(psystex)->LockRect(level, &lockedrect, NULL, flags );

	mov	eax, DWORD PTR _flags$[ebp]
	push	eax
	push	0
	lea	ecx, DWORD PTR _lockedrect$137838[ebp]
	push	ecx
	mov	edx, DWORD PTR _level$[ebp]
	push	edx
	mov	eax, DWORD PTR _psystex$[ebp]
	mov	ecx, DWORD PTR [eax]
	mov	edx, DWORD PTR _psystex$[ebp]
	push	edx
	mov	eax, DWORD PTR [ecx+76]
	call	eax
	mov	DWORD PTR _hr$[ebp], eax

; 157  : 
; 158  : 			if( SUCCEEDED(hr) )

	cmp	DWORD PTR _hr$[ebp], 0
	jl	SHORT $LN7@lock

; 159  : 			{
; 160  : 				result.rowpitch = lockedrect.Pitch;

	mov	ecx, DWORD PTR _result$[ebp]
	mov	edx, DWORD PTR _lockedrect$137838[ebp]
	mov	DWORD PTR [ecx+4], edx

; 161  : 				return lockedrect.pBits;

	mov	eax, DWORD PTR _lockedrect$137838[ebp+4]
	jmp	$LN10@lock
$LN7@lock:

; 162  : 			}
; 163  : 		}

	jmp	$LN6@lock
$LN8@lock:

; 164  : 		else if( m_Type == D3DRTYPE_VOLUMETEXTURE )

	mov	eax, DWORD PTR _this$[ebp]
	cmp	DWORD PTR [eax+96], 4
	jne	SHORT $LN5@lock

; 165  : 		{
; 166  : 			D3DLOCKED_BOX lockedbox;
; 167  : 			hr = static_cast<IDirect3DVolumeTexture9 *>(psystex)->LockBox(level, &lockedbox, NULL, flags);

	mov	ecx, DWORD PTR _flags$[ebp]
	push	ecx
	push	0
	lea	edx, DWORD PTR _lockedbox$137844[ebp]
	push	edx
	mov	eax, DWORD PTR _level$[ebp]
	push	eax
	mov	ecx, DWORD PTR _psystex$[ebp]
	mov	edx, DWORD PTR [ecx]
	mov	eax, DWORD PTR _psystex$[ebp]
	push	eax
	mov	ecx, DWORD PTR [edx+76]
	call	ecx
	mov	DWORD PTR _hr$[ebp], eax

; 168  : 
; 169  : 			if(SUCCEEDED(hr))

	cmp	DWORD PTR _hr$[ebp], 0
	jl	SHORT $LN4@lock

; 170  : 			{
; 171  : 				result.rowpitch = lockedbox.RowPitch;

	mov	edx, DWORD PTR _result$[ebp]
	mov	eax, DWORD PTR _lockedbox$137844[ebp]
	mov	DWORD PTR [edx+4], eax

; 172  : 				result.slicepitch = lockedbox.SlicePitch;

	mov	ecx, DWORD PTR _result$[ebp]
	mov	edx, DWORD PTR _lockedbox$137844[ebp+4]
	mov	DWORD PTR [ecx+8], edx

; 173  : 				return lockedbox.pBits;

	mov	eax, DWORD PTR _lockedbox$137844[ebp+8]
	jmp	SHORT $LN10@lock
$LN4@lock:

; 174  : 			}
; 175  : 		}

	jmp	SHORT $LN6@lock
$LN5@lock:

; 176  : 		else if( m_Type == D3DRTYPE_CUBETEXTURE )

	mov	eax, DWORD PTR _this$[ebp]
	cmp	DWORD PTR [eax+96], 5
	jne	SHORT $LN6@lock

; 177  : 		{
; 178  : 			D3DLOCKED_RECT lockedrect;
; 179  : 			hr = ((IDirect3DCubeTexture9 *)psystex)->LockRect( (D3DCUBEMAP_FACES)face, level, &lockedrect, NULL, flags );

	mov	ecx, DWORD PTR _flags$[ebp]
	push	ecx
	push	0
	lea	edx, DWORD PTR _lockedrect$137850[ebp]
	push	edx
	mov	eax, DWORD PTR _level$[ebp]
	push	eax
	mov	ecx, DWORD PTR _face$[ebp]
	push	ecx
	mov	edx, DWORD PTR _psystex$[ebp]
	mov	eax, DWORD PTR [edx]
	mov	ecx, DWORD PTR _psystex$[ebp]
	push	ecx
	mov	edx, DWORD PTR [eax+76]
	call	edx
	mov	DWORD PTR _hr$[ebp], eax

; 180  : 
; 181  : 			if( SUCCEEDED(hr) )

	cmp	DWORD PTR _hr$[ebp], 0
	jl	SHORT $LN6@lock

; 182  : 			{
; 183  : 				result.rowpitch = lockedrect.Pitch;

	mov	eax, DWORD PTR _result$[ebp]
	mov	ecx, DWORD PTR _lockedrect$137850[ebp]
	mov	DWORD PTR [eax+4], ecx

; 184  : 				return lockedrect.pBits;

	mov	eax, DWORD PTR _lockedrect$137850[ebp+4]
	jmp	SHORT $LN10@lock
$LN6@lock:

; 185  : 			}
; 186  : 		}
; 187  : 
; 188  : 		return NULL;

	xor	eax, eax
$LN10@lock:

; 189  : 	}

	mov	esp, ebp
	pop	ebp
	ret	16					; 00000010H
?lock@D3D9PixelBufferPool@Ogre@@UAEPAXPAVHardwarePixelBuffer@2@IW4HardwareBufferLockOpt@2@AAULockResult@2@@Z ENDP ; Ogre::D3D9PixelBufferPool::lock
; Function compile flags: /Odtp
_this$ = -16						; size = 4
_face$ = -12						; size = 4
_psystex$ = -8						; size = 4
_level$ = -4						; size = 4
_pbuf$ = 8						; size = 4
_index$ = 12						; size = 4
?unlock@D3D9PixelBufferPool@Ogre@@UAEXPAVHardwarePixelBuffer@2@I@Z PROC ; Ogre::D3D9PixelBufferPool::unlock
; _this$ = ecx

; 192  : 	{

	push	ebp
	mov	ebp, esp
	sub	esp, 16					; 00000010H
	mov	DWORD PTR _this$[ebp], ecx

; 193  : 		IDirect3DBaseTexture9 *psystex = static_cast<D3D9HardwarePixelBuffer *>(pbuf)->m_pSysTex;

	mov	eax, DWORD PTR _pbuf$[ebp]
	mov	ecx, DWORD PTR [eax+20]
	mov	DWORD PTR _psystex$[ebp], ecx

; 194  : 		if(psystex == NULL) return;

	cmp	DWORD PTR _psystex$[ebp], 0
	jne	SHORT $LN6@unlock
	jmp	SHORT $LN7@unlock
$LN6@unlock:

; 195  : 
; 196  : 		uint face = index >> 16;

	mov	edx, DWORD PTR _index$[ebp]
	shr	edx, 16					; 00000010H
	mov	DWORD PTR _face$[ebp], edx

; 197  : 		uint level = index & 0xffff;

	mov	eax, DWORD PTR _index$[ebp]
	and	eax, 65535				; 0000ffffH
	mov	DWORD PTR _level$[ebp], eax

; 198  : 
; 199  : 		if( m_Type == D3DRTYPE_TEXTURE )

	mov	ecx, DWORD PTR _this$[ebp]
	cmp	DWORD PTR [ecx+96], 3
	jne	SHORT $LN5@unlock

; 200  : 		{
; 201  : 			static_cast<IDirect3DTexture9 *>(psystex)->UnlockRect( level );

	mov	edx, DWORD PTR _level$[ebp]
	push	edx
	mov	eax, DWORD PTR _psystex$[ebp]
	mov	ecx, DWORD PTR [eax]
	mov	edx, DWORD PTR _psystex$[ebp]
	push	edx
	mov	eax, DWORD PTR [ecx+80]
	call	eax
	jmp	SHORT $LN7@unlock
$LN5@unlock:

; 202  : 		}
; 203  : 		else if( m_Type == D3DRTYPE_VOLUMETEXTURE )

	mov	ecx, DWORD PTR _this$[ebp]
	cmp	DWORD PTR [ecx+96], 4
	jne	SHORT $LN3@unlock

; 204  : 		{
; 205  : 			static_cast<IDirect3DVolumeTexture9 *>(psystex)->UnlockBox( level );

	mov	edx, DWORD PTR _level$[ebp]
	push	edx
	mov	eax, DWORD PTR _psystex$[ebp]
	mov	ecx, DWORD PTR [eax]
	mov	edx, DWORD PTR _psystex$[ebp]
	push	edx
	mov	eax, DWORD PTR [ecx+80]
	call	eax
	jmp	SHORT $LN7@unlock
$LN3@unlock:

; 206  : 		}
; 207  : 		else if( m_Type == D3DRTYPE_CUBETEXTURE )

	mov	ecx, DWORD PTR _this$[ebp]
	cmp	DWORD PTR [ecx+96], 5
	jne	SHORT $LN7@unlock

; 208  : 		{
; 209  : 			static_cast<IDirect3DCubeTexture9 *>(psystex)->UnlockRect( (D3DCUBEMAP_FACES)face, level );

	mov	edx, DWORD PTR _level$[ebp]
	push	edx
	mov	eax, DWORD PTR _face$[ebp]
	push	eax
	mov	ecx, DWORD PTR _psystex$[ebp]
	mov	edx, DWORD PTR [ecx]
	mov	eax, DWORD PTR _psystex$[ebp]
	push	eax
	mov	ecx, DWORD PTR [edx+80]
	call	ecx
$LN7@unlock:

; 210  : 		}
; 211  : 	}

	mov	esp, ebp
	pop	ebp
	ret	8
?unlock@D3D9PixelBufferPool@Ogre@@UAEXPAVHardwarePixelBuffer@2@I@Z ENDP ; Ogre::D3D9PixelBufferPool::unlock
_TEXT	ENDS
EXTRN	_D3DXLoadVolumeFromMemory@44:PROC
EXTRN	_D3DXLoadSurfaceFromMemory@40:PROC
EXTRN	__imp_?getBits@SurfaceData@Ogre@@QAEPAXXZ:PROC
EXTRN	?fromPixelFormat@D3D9RenderSystem@Ogre@@QAE?AW4_D3DFORMAT@@W4PixelFormat@2@@Z:PROC ; Ogre::D3D9RenderSystem::fromPixelFormat
; Function compile flags: /Odtp
_TEXT	SEGMENT
_this$ = -88						; size = 4
_psurface$137899 = -84					; size = 4
_srcrect$137902 = -80					; size = 16
_pvolume$137893 = -64					; size = 4
_srcbox$137895 = -60					; size = 24
_psurface$137887 = -36					; size = 4
_srcrect$137889 = -32					; size = 16
_srcfmt$ = -16						; size = 4
_face$ = -12						; size = 4
_psystex$ = -8						; size = 4
_level$ = -4						; size = 4
_pbuf$ = 8						; size = 4
_index$ = 12						; size = 4
_psurfdata$ = 16					; size = 4
?loadSurfaceData@D3D9PixelBufferPool@Ogre@@UAEXPAVHardwarePixelBuffer@2@IPAVSurfaceData@2@@Z PROC ; Ogre::D3D9PixelBufferPool::loadSurfaceData
; _this$ = ecx

; 214  : 	{

	push	ebp
	mov	ebp, esp
	sub	esp, 88					; 00000058H
	mov	DWORD PTR _this$[ebp], ecx

; 215  : 		IDirect3DBaseTexture9 *psystex = static_cast<D3D9HardwarePixelBuffer *>(pbuf)->m_pSysTex;

	mov	eax, DWORD PTR _pbuf$[ebp]
	mov	ecx, DWORD PTR [eax+20]
	mov	DWORD PTR _psystex$[ebp], ecx

; 216  : 		if(psystex == NULL) return;

	cmp	DWORD PTR _psystex$[ebp], 0
	jne	SHORT $LN7@loadSurfac
	jmp	$LN8@loadSurfac
$LN7@loadSurfac:

; 217  : 
; 218  : 		uint face = index >> 16;

	mov	edx, DWORD PTR _index$[ebp]
	shr	edx, 16					; 00000010H
	mov	DWORD PTR _face$[ebp], edx

; 219  : 		uint level = index & 0xffff;

	mov	eax, DWORD PTR _index$[ebp]
	and	eax, 65535				; 0000ffffH
	mov	DWORD PTR _level$[ebp], eax

; 220  : 		D3DFORMAT srcfmt = m_pRS->fromPixelFormat(psurfdata->m_Format);

	mov	ecx, DWORD PTR _psurfdata$[ebp]
	mov	edx, DWORD PTR [ecx+8]
	push	edx
	mov	eax, DWORD PTR _this$[ebp]
	mov	ecx, DWORD PTR [eax+92]
	call	?fromPixelFormat@D3D9RenderSystem@Ogre@@QAE?AW4_D3DFORMAT@@W4PixelFormat@2@@Z ; Ogre::D3D9RenderSystem::fromPixelFormat
	mov	DWORD PTR _srcfmt$[ebp], eax

; 221  : 
; 222  : 		if(m_Type == D3DRTYPE_TEXTURE)

	mov	ecx, DWORD PTR _this$[ebp]
	cmp	DWORD PTR [ecx+96], 3
	jne	SHORT $LN6@loadSurfac

; 223  : 		{
; 224  : 			IDirect3DSurface9 *psurface;
; 225  : 			static_cast<IDirect3DTexture9 *>(psystex)->GetSurfaceLevel(level, &psurface);

	lea	edx, DWORD PTR _psurface$137887[ebp]
	push	edx
	mov	eax, DWORD PTR _level$[ebp]
	push	eax
	mov	ecx, DWORD PTR _psystex$[ebp]
	mov	edx, DWORD PTR [ecx]
	mov	eax, DWORD PTR _psystex$[ebp]
	push	eax
	mov	ecx, DWORD PTR [edx+72]
	call	ecx

; 226  : 			RECT srcrect;
; 227  : 			srcrect.left = srcrect.top = 0;

	mov	DWORD PTR _srcrect$137889[ebp+4], 0
	mov	edx, DWORD PTR _srcrect$137889[ebp+4]
	mov	DWORD PTR _srcrect$137889[ebp], edx

; 228  : 			srcrect.right = psurfdata->m_Width;

	mov	eax, DWORD PTR _psurfdata$[ebp]
	mov	ecx, DWORD PTR [eax+12]
	mov	DWORD PTR _srcrect$137889[ebp+8], ecx

; 229  : 			srcrect.bottom = psurfdata->m_Height;

	mov	edx, DWORD PTR _psurfdata$[ebp]
	mov	eax, DWORD PTR [edx+16]
	mov	DWORD PTR _srcrect$137889[ebp+12], eax

; 230  : 			D3DXLoadSurfaceFromMemory(psurface, NULL, NULL, psurfdata->getBits(), srcfmt, psurfdata->m_RowPitch, NULL, &srcrect, D3DX_DEFAULT, 0);

	push	0
	push	-1
	lea	ecx, DWORD PTR _srcrect$137889[ebp]
	push	ecx
	push	0
	mov	edx, DWORD PTR _psurfdata$[ebp]
	mov	eax, DWORD PTR [edx+28]
	push	eax
	mov	ecx, DWORD PTR _srcfmt$[ebp]
	push	ecx
	mov	ecx, DWORD PTR _psurfdata$[ebp]
	call	DWORD PTR __imp_?getBits@SurfaceData@Ogre@@QAEPAXXZ
	push	eax
	push	0
	push	0
	mov	edx, DWORD PTR _psurface$137887[ebp]
	push	edx
	call	_D3DXLoadSurfaceFromMemory@40

; 231  : 			psurface->Release();

	mov	eax, DWORD PTR _psurface$137887[ebp]
	mov	ecx, DWORD PTR [eax]
	mov	edx, DWORD PTR _psurface$137887[ebp]
	push	edx
	mov	eax, DWORD PTR [ecx+8]
	call	eax
	jmp	$LN8@loadSurfac
$LN6@loadSurfac:

; 232  : 		}
; 233  : 		else if(m_Type == D3DRTYPE_VOLUMETEXTURE)

	mov	ecx, DWORD PTR _this$[ebp]
	cmp	DWORD PTR [ecx+96], 4
	jne	$LN4@loadSurfac

; 234  : 		{
; 235  : 			IDirect3DVolume9 *pvolume;
; 236  : 			static_cast<IDirect3DVolumeTexture9 *>(psystex)->GetVolumeLevel(level, &pvolume);

	lea	edx, DWORD PTR _pvolume$137893[ebp]
	push	edx
	mov	eax, DWORD PTR _level$[ebp]
	push	eax
	mov	ecx, DWORD PTR _psystex$[ebp]
	mov	edx, DWORD PTR [ecx]
	mov	eax, DWORD PTR _psystex$[ebp]
	push	eax
	mov	ecx, DWORD PTR [edx+72]
	call	ecx

; 237  : 			D3DBOX srcbox;
; 238  : 			srcbox.Left = srcbox.Top = srcbox.Front = 0;

	mov	DWORD PTR _srcbox$137895[ebp+16], 0
	mov	edx, DWORD PTR _srcbox$137895[ebp+16]
	mov	DWORD PTR _srcbox$137895[ebp+4], edx
	mov	eax, DWORD PTR _srcbox$137895[ebp+4]
	mov	DWORD PTR _srcbox$137895[ebp], eax

; 239  : 			srcbox.Right = psurfdata->m_Width;

	mov	ecx, DWORD PTR _psurfdata$[ebp]
	mov	edx, DWORD PTR [ecx+12]
	mov	DWORD PTR _srcbox$137895[ebp+8], edx

; 240  : 			srcbox.Bottom = psurfdata->m_Height;

	mov	eax, DWORD PTR _psurfdata$[ebp]
	mov	ecx, DWORD PTR [eax+16]
	mov	DWORD PTR _srcbox$137895[ebp+12], ecx

; 241  : 			srcbox.Back = psurfdata->m_Depth;

	mov	edx, DWORD PTR _psurfdata$[ebp]
	mov	eax, DWORD PTR [edx+20]
	mov	DWORD PTR _srcbox$137895[ebp+20], eax

; 242  : 			D3DXLoadVolumeFromMemory(pvolume, NULL, NULL, psurfdata->getBits(), srcfmt, psurfdata->m_RowPitch, psurfdata->m_SlicePitch, NULL, &srcbox, D3DX_DEFAULT, 0);

	push	0
	push	-1
	lea	ecx, DWORD PTR _srcbox$137895[ebp]
	push	ecx
	push	0
	mov	edx, DWORD PTR _psurfdata$[ebp]
	mov	eax, DWORD PTR [edx+32]
	push	eax
	mov	ecx, DWORD PTR _psurfdata$[ebp]
	mov	edx, DWORD PTR [ecx+28]
	push	edx
	mov	eax, DWORD PTR _srcfmt$[ebp]
	push	eax
	mov	ecx, DWORD PTR _psurfdata$[ebp]
	call	DWORD PTR __imp_?getBits@SurfaceData@Ogre@@QAEPAXXZ
	push	eax
	push	0
	push	0
	mov	ecx, DWORD PTR _pvolume$137893[ebp]
	push	ecx
	call	_D3DXLoadVolumeFromMemory@44

; 243  : 			pvolume->Release();

	mov	edx, DWORD PTR _pvolume$137893[ebp]
	mov	eax, DWORD PTR [edx]
	mov	ecx, DWORD PTR _pvolume$137893[ebp]
	push	ecx
	mov	edx, DWORD PTR [eax+8]
	call	edx
	jmp	SHORT $LN8@loadSurfac
$LN4@loadSurfac:

; 244  : 		}
; 245  : 		else if(m_Type == D3DRTYPE_CUBETEXTURE)

	mov	eax, DWORD PTR _this$[ebp]
	cmp	DWORD PTR [eax+96], 5
	jne	SHORT $LN8@loadSurfac

; 246  : 		{
; 247  : 			IDirect3DSurface9 *psurface;
; 248  : 			static_cast<IDirect3DCubeTexture9 *>(psystex)->GetCubeMapSurface((D3DCUBEMAP_FACES)face, level, &psurface);

	lea	ecx, DWORD PTR _psurface$137899[ebp]
	push	ecx
	mov	edx, DWORD PTR _level$[ebp]
	push	edx
	mov	eax, DWORD PTR _face$[ebp]
	push	eax
	mov	ecx, DWORD PTR _psystex$[ebp]
	mov	edx, DWORD PTR [ecx]
	mov	eax, DWORD PTR _psystex$[ebp]
	push	eax
	mov	ecx, DWORD PTR [edx+72]
	call	ecx

; 249  : 			RECT srcrect;
; 250  : 			srcrect.left = srcrect.top = 0;

	mov	DWORD PTR _srcrect$137902[ebp+4], 0
	mov	edx, DWORD PTR _srcrect$137902[ebp+4]
	mov	DWORD PTR _srcrect$137902[ebp], edx

; 251  : 			srcrect.right = psurfdata->m_Width;

	mov	eax, DWORD PTR _psurfdata$[ebp]
	mov	ecx, DWORD PTR [eax+12]
	mov	DWORD PTR _srcrect$137902[ebp+8], ecx

; 252  : 			srcrect.bottom = psurfdata->m_Width;

	mov	edx, DWORD PTR _psurfdata$[ebp]
	mov	eax, DWORD PTR [edx+12]
	mov	DWORD PTR _srcrect$137902[ebp+12], eax

; 253  : 			D3DXLoadSurfaceFromMemory(psurface, NULL, NULL, psurfdata->getBits(), srcfmt, psurfdata->m_RowPitch, NULL, &srcrect, D3DX_DEFAULT, 0);

	push	0
	push	-1
	lea	ecx, DWORD PTR _srcrect$137902[ebp]
	push	ecx
	push	0
	mov	edx, DWORD PTR _psurfdata$[ebp]
	mov	eax, DWORD PTR [edx+28]
	push	eax
	mov	ecx, DWORD PTR _srcfmt$[ebp]
	push	ecx
	mov	ecx, DWORD PTR _psurfdata$[ebp]
	call	DWORD PTR __imp_?getBits@SurfaceData@Ogre@@QAEPAXXZ
	push	eax
	push	0
	push	0
	mov	edx, DWORD PTR _psurface$137899[ebp]
	push	edx
	call	_D3DXLoadSurfaceFromMemory@40

; 254  : 			psurface->Release();

	mov	eax, DWORD PTR _psurface$137899[ebp]
	mov	ecx, DWORD PTR [eax]
	mov	edx, DWORD PTR _psurface$137899[ebp]
	push	edx
	mov	eax, DWORD PTR [ecx+8]
	call	eax
$LN8@loadSurfac:

; 255  : 		}
; 256  : 		else
; 257  : 		{
; 258  : 			assert(0);
; 259  : 		}
; 260  : 	}

	mov	esp, ebp
	pop	ebp
	ret	12					; 0000000cH
?loadSurfaceData@D3D9PixelBufferPool@Ogre@@UAEXPAVHardwarePixelBuffer@2@IPAVSurfaceData@2@@Z ENDP ; Ogre::D3D9PixelBufferPool::loadSurfaceData
_TEXT	ENDS
PUBLIC	?getD3DDevice@D3D9RenderSystem@Ogre@@QAEPAUIDirect3DDevice9@@XZ ; Ogre::D3D9RenderSystem::getD3DDevice
EXTRN	?isFormatSupported@D3D9RenderSystem@Ogre@@QAE_NW4_D3DFORMAT@@KW4_D3DRESOURCETYPE@@@Z:PROC ; Ogre::D3D9RenderSystem::isFormatSupported
EXTRN	_D3DXCheckVolumeTextureRequirements@32:PROC
EXTRN	_D3DXCheckCubeTextureRequirements@24:PROC
EXTRN	_D3DXCheckTextureRequirements@28:PROC
EXTRN	?hbu2PoolUsage@D3D9RenderSystem@Ogre@@QAEXAAKAAW4_D3DPOOL@@W4HardwareBufferUsage@2@@Z:PROC ; Ogre::D3D9RenderSystem::hbu2PoolUsage
; Function compile flags: /Odtp
_TEXT	SEGMENT
tv93 = -16						; size = 4
_this$ = -12						; size = 4
_hr$ = -8						; size = 4
_pure_usage$ = -4					; size = 4
_usage$ = 8						; size = 4
_desc$ = 12						; size = 4
?getSupportedParam@D3D9PixelBufferPool@Ogre@@QAE_NW4HardwareBufferUsage@2@ABUTextureDesc@2@@Z PROC ; Ogre::D3D9PixelBufferPool::getSupportedParam
; _this$ = ecx

; 263  : 	{

	push	ebp
	mov	ebp, esp
	sub	esp, 16					; 00000010H
	mov	DWORD PTR _this$[ebp], ecx

; 264  : 		m_pRS->hbu2PoolUsage(m_Usage, m_Pool, usage);

	mov	eax, DWORD PTR _usage$[ebp]
	push	eax
	mov	ecx, DWORD PTR _this$[ebp]
	add	ecx, 108				; 0000006cH
	push	ecx
	mov	edx, DWORD PTR _this$[ebp]
	add	edx, 104				; 00000068H
	push	edx
	mov	eax, DWORD PTR _this$[ebp]
	mov	ecx, DWORD PTR [eax+92]
	call	?hbu2PoolUsage@D3D9RenderSystem@Ogre@@QAEXAAKAAW4_D3DPOOL@@W4HardwareBufferUsage@2@@Z ; Ogre::D3D9RenderSystem::hbu2PoolUsage

; 265  : 		if(m_bAutoMipmap) m_Usage |= D3DUSAGE_AUTOGENMIPMAP;

	mov	ecx, DWORD PTR _this$[ebp]
	movzx	edx, BYTE PTR [ecx+132]
	test	edx, edx
	je	SHORT $LN12@getSupport
	mov	eax, DWORD PTR _this$[ebp]
	mov	ecx, DWORD PTR [eax+104]
	or	ecx, 1024				; 00000400H
	mov	edx, DWORD PTR _this$[ebp]
	mov	DWORD PTR [edx+104], ecx
$LN12@getSupport:

; 266  : 
; 267  : 		m_Format = m_pRS->fromPixelFormat(desc.format);

	mov	eax, DWORD PTR _desc$[ebp]
	mov	ecx, DWORD PTR [eax+20]
	push	ecx
	mov	edx, DWORD PTR _this$[ebp]
	mov	ecx, DWORD PTR [edx+92]
	call	?fromPixelFormat@D3D9RenderSystem@Ogre@@QAE?AW4_D3DFORMAT@@W4PixelFormat@2@@Z ; Ogre::D3D9RenderSystem::fromPixelFormat
	mov	ecx, DWORD PTR _this$[ebp]
	mov	DWORD PTR [ecx+100], eax

; 268  : 		m_Width = desc.width;

	mov	edx, DWORD PTR _this$[ebp]
	mov	eax, DWORD PTR _desc$[ebp]
	mov	ecx, DWORD PTR [eax+4]
	mov	DWORD PTR [edx+112], ecx

; 269  : 		m_Height = desc.height;

	mov	edx, DWORD PTR _this$[ebp]
	mov	eax, DWORD PTR _desc$[ebp]
	mov	ecx, DWORD PTR [eax+8]
	mov	DWORD PTR [edx+116], ecx

; 270  : 		m_Depth = desc.depth;

	mov	edx, DWORD PTR _this$[ebp]
	mov	eax, DWORD PTR _desc$[ebp]
	mov	ecx, DWORD PTR [eax+12]
	mov	DWORD PTR [edx+120], ecx

; 271  : 		m_MipLevels = desc.nmipmap;

	mov	edx, DWORD PTR _this$[ebp]
	mov	eax, DWORD PTR _desc$[ebp]
	mov	ecx, DWORD PTR [eax+16]
	mov	DWORD PTR [edx+124], ecx

; 272  : 
; 273  : 		DWORD pure_usage = m_Usage & ~(D3DUSAGE_AUTOGENMIPMAP|D3DUSAGE_DYNAMIC);

	mov	edx, DWORD PTR _this$[ebp]
	mov	eax, DWORD PTR [edx+104]
	and	eax, -1537				; fffff9ffH
	mov	DWORD PTR _pure_usage$[ebp], eax

; 274  : 		HRESULT hr;
; 275  : 		switch(desc.type)

	mov	ecx, DWORD PTR _desc$[ebp]
	mov	edx, DWORD PTR [ecx]
	mov	DWORD PTR tv93[ebp], edx
	cmp	DWORD PTR tv93[ebp], 0
	je	SHORT $LN9@getSupport
	cmp	DWORD PTR tv93[ebp], 1
	je	$LN7@getSupport
	cmp	DWORD PTR tv93[ebp], 2
	je	SHORT $LN8@getSupport
	jmp	$LN10@getSupport
$LN9@getSupport:

; 276  : 		{
; 277  : 		case TEXTURE_2D:
; 278  : 			m_Type = D3DRTYPE_TEXTURE;

	mov	eax, DWORD PTR _this$[ebp]
	mov	DWORD PTR [eax+96], 3

; 279  : 			hr = D3DXCheckTextureRequirements(m_pRS->getD3DDevice(), &m_Width, &m_Height, &m_MipLevels, pure_usage, &m_Format, m_Pool);

	mov	ecx, DWORD PTR _this$[ebp]
	mov	edx, DWORD PTR [ecx+108]
	push	edx
	mov	eax, DWORD PTR _this$[ebp]
	add	eax, 100				; 00000064H
	push	eax
	mov	ecx, DWORD PTR _pure_usage$[ebp]
	push	ecx
	mov	edx, DWORD PTR _this$[ebp]
	add	edx, 124				; 0000007cH
	push	edx
	mov	eax, DWORD PTR _this$[ebp]
	add	eax, 116				; 00000074H
	push	eax
	mov	ecx, DWORD PTR _this$[ebp]
	add	ecx, 112				; 00000070H
	push	ecx
	mov	edx, DWORD PTR _this$[ebp]
	mov	ecx, DWORD PTR [edx+92]
	call	?getD3DDevice@D3D9RenderSystem@Ogre@@QAEPAUIDirect3DDevice9@@XZ ; Ogre::D3D9RenderSystem::getD3DDevice
	push	eax
	call	_D3DXCheckTextureRequirements@28
	mov	DWORD PTR _hr$[ebp], eax

; 280  : 			break;

	jmp	$LN10@getSupport
$LN8@getSupport:

; 281  : 		case TEXTURE_CUBE:
; 282  : 			m_Type = D3DRTYPE_CUBETEXTURE;

	mov	eax, DWORD PTR _this$[ebp]
	mov	DWORD PTR [eax+96], 5

; 283  : 			hr = D3DXCheckCubeTextureRequirements(m_pRS->getD3DDevice(), &m_Width, &m_MipLevels, pure_usage, &m_Format, m_Pool);

	mov	ecx, DWORD PTR _this$[ebp]
	mov	edx, DWORD PTR [ecx+108]
	push	edx
	mov	eax, DWORD PTR _this$[ebp]
	add	eax, 100				; 00000064H
	push	eax
	mov	ecx, DWORD PTR _pure_usage$[ebp]
	push	ecx
	mov	edx, DWORD PTR _this$[ebp]
	add	edx, 124				; 0000007cH
	push	edx
	mov	eax, DWORD PTR _this$[ebp]
	add	eax, 112				; 00000070H
	push	eax
	mov	ecx, DWORD PTR _this$[ebp]
	mov	ecx, DWORD PTR [ecx+92]
	call	?getD3DDevice@D3D9RenderSystem@Ogre@@QAEPAUIDirect3DDevice9@@XZ ; Ogre::D3D9RenderSystem::getD3DDevice
	push	eax
	call	_D3DXCheckCubeTextureRequirements@24
	mov	DWORD PTR _hr$[ebp], eax

; 284  : 			break;

	jmp	SHORT $LN10@getSupport
$LN7@getSupport:

; 285  : 		case TEXTURE_VOLUME:
; 286  : 			m_Type = D3DRTYPE_VOLUMETEXTURE;

	mov	edx, DWORD PTR _this$[ebp]
	mov	DWORD PTR [edx+96], 4

; 287  : 			hr = D3DXCheckVolumeTextureRequirements(m_pRS->getD3DDevice(), &m_Width, &m_Height, &m_Depth, &m_MipLevels, pure_usage, &m_Format, m_Pool);

	mov	eax, DWORD PTR _this$[ebp]
	mov	ecx, DWORD PTR [eax+108]
	push	ecx
	mov	edx, DWORD PTR _this$[ebp]
	add	edx, 100				; 00000064H
	push	edx
	mov	eax, DWORD PTR _pure_usage$[ebp]
	push	eax
	mov	ecx, DWORD PTR _this$[ebp]
	add	ecx, 124				; 0000007cH
	push	ecx
	mov	edx, DWORD PTR _this$[ebp]
	add	edx, 120				; 00000078H
	push	edx
	mov	eax, DWORD PTR _this$[ebp]
	add	eax, 116				; 00000074H
	push	eax
	mov	ecx, DWORD PTR _this$[ebp]
	add	ecx, 112				; 00000070H
	push	ecx
	mov	edx, DWORD PTR _this$[ebp]
	mov	ecx, DWORD PTR [edx+92]
	call	?getD3DDevice@D3D9RenderSystem@Ogre@@QAEPAUIDirect3DDevice9@@XZ ; Ogre::D3D9RenderSystem::getD3DDevice
	push	eax
	call	_D3DXCheckVolumeTextureRequirements@32
	mov	DWORD PTR _hr$[ebp], eax
$LN10@getSupport:

; 288  : 			break;
; 289  : 		default:
; 290  : 			assert(0);
; 291  : 			break;
; 292  : 		}
; 293  : 
; 294  : 		if(FAILED(hr))

	cmp	DWORD PTR _hr$[ebp], 0
	jge	SHORT $LN5@getSupport

; 295  : 		{
; 296  : 			LOG_WARNING("check texture params error: w=%d, h=%d, f=%d, u=%d, p=%d", m_Width, m_Height, m_Format, pure_usage, m_Pool);

	push	4
	push	296					; 00000128H
	push	OFFSET $SG137925
	call	DWORD PTR __imp_?LogSetCurParam@Ogre@@YAXPBDHI@Z
	add	esp, 12					; 0000000cH
	mov	eax, DWORD PTR _this$[ebp]
	mov	ecx, DWORD PTR [eax+108]
	push	ecx
	mov	edx, DWORD PTR _pure_usage$[ebp]
	push	edx
	mov	eax, DWORD PTR _this$[ebp]
	mov	ecx, DWORD PTR [eax+100]
	push	ecx
	mov	edx, DWORD PTR _this$[ebp]
	mov	eax, DWORD PTR [edx+116]
	push	eax
	mov	ecx, DWORD PTR _this$[ebp]
	mov	edx, DWORD PTR [ecx+112]
	push	edx
	push	OFFSET $SG137926
	call	DWORD PTR __imp_?LogMessage@Ogre@@YAXPBDZZ
	add	esp, 24					; 00000018H

; 297  : 			return false;

	xor	al, al
	jmp	$LN13@getSupport
$LN5@getSupport:

; 298  : 		}
; 299  : 
; 300  : 		if(m_Usage & D3DUSAGE_DYNAMIC)

	mov	eax, DWORD PTR _this$[ebp]
	mov	ecx, DWORD PTR [eax+104]
	and	ecx, 512				; 00000200H
	je	SHORT $LN4@getSupport

; 301  : 		{
; 302  : 			if(!m_pRS->isFormatSupported(m_Format, pure_usage|D3DUSAGE_DYNAMIC, m_Type)) m_Usage &= ~D3DUSAGE_DYNAMIC;

	mov	edx, DWORD PTR _this$[ebp]
	mov	eax, DWORD PTR [edx+96]
	push	eax
	mov	ecx, DWORD PTR _pure_usage$[ebp]
	or	ecx, 512				; 00000200H
	push	ecx
	mov	edx, DWORD PTR _this$[ebp]
	mov	eax, DWORD PTR [edx+100]
	push	eax
	mov	ecx, DWORD PTR _this$[ebp]
	mov	ecx, DWORD PTR [ecx+92]
	call	?isFormatSupported@D3D9RenderSystem@Ogre@@QAE_NW4_D3DFORMAT@@KW4_D3DRESOURCETYPE@@@Z ; Ogre::D3D9RenderSystem::isFormatSupported
	movzx	edx, al
	test	edx, edx
	jne	SHORT $LN4@getSupport
	mov	eax, DWORD PTR _this$[ebp]
	mov	ecx, DWORD PTR [eax+104]
	and	ecx, -513				; fffffdffH
	mov	edx, DWORD PTR _this$[ebp]
	mov	DWORD PTR [edx+104], ecx
$LN4@getSupport:

; 303  : 		}
; 304  : 
; 305  : 		if(m_Usage & D3DUSAGE_AUTOGENMIPMAP)

	mov	eax, DWORD PTR _this$[ebp]
	mov	ecx, DWORD PTR [eax+104]
	and	ecx, 1024				; 00000400H
	je	SHORT $LN2@getSupport

; 306  : 		{
; 307  : 			if(!m_pRS->isFormatSupported(m_Format, pure_usage|D3DUSAGE_AUTOGENMIPMAP, m_Type)) m_Usage &= ~D3DUSAGE_AUTOGENMIPMAP;

	mov	edx, DWORD PTR _this$[ebp]
	mov	eax, DWORD PTR [edx+96]
	push	eax
	mov	ecx, DWORD PTR _pure_usage$[ebp]
	or	ecx, 1024				; 00000400H
	push	ecx
	mov	edx, DWORD PTR _this$[ebp]
	mov	eax, DWORD PTR [edx+100]
	push	eax
	mov	ecx, DWORD PTR _this$[ebp]
	mov	ecx, DWORD PTR [ecx+92]
	call	?isFormatSupported@D3D9RenderSystem@Ogre@@QAE_NW4_D3DFORMAT@@KW4_D3DRESOURCETYPE@@@Z ; Ogre::D3D9RenderSystem::isFormatSupported
	movzx	edx, al
	test	edx, edx
	jne	SHORT $LN2@getSupport
	mov	eax, DWORD PTR _this$[ebp]
	mov	ecx, DWORD PTR [eax+104]
	and	ecx, -1025				; fffffbffH
	mov	edx, DWORD PTR _this$[ebp]
	mov	DWORD PTR [edx+104], ecx
$LN2@getSupport:

; 308  : 		}
; 309  : 
; 310  : 		return true;

	mov	al, 1
$LN13@getSupport:

; 311  : 	}

	mov	esp, ebp
	pop	ebp
	ret	8
?getSupportedParam@D3D9PixelBufferPool@Ogre@@QAE_NW4HardwareBufferUsage@2@ABUTextureDesc@2@@Z ENDP ; Ogre::D3D9PixelBufferPool::getSupportedParam
; Function compile flags: /Odtp
; File i:\svnroot\client\plugins\rendersystem_d3d9\ogred3d9rendersystem.h
_TEXT	ENDS
;	COMDAT ?getD3DDevice@D3D9RenderSystem@Ogre@@QAEPAUIDirect3DDevice9@@XZ
_TEXT	SEGMENT
_this$ = -4						; size = 4
?getD3DDevice@D3D9RenderSystem@Ogre@@QAEPAUIDirect3DDevice9@@XZ PROC ; Ogre::D3D9RenderSystem::getD3DDevice, COMDAT
; _this$ = ecx

; 44   : 		{

	push	ebp
	mov	ebp, esp
	push	ecx
	mov	DWORD PTR _this$[ebp], ecx

; 45   : 			return m_pd3dDevice;

	mov	eax, DWORD PTR _this$[ebp]
	mov	eax, DWORD PTR [eax+104]

; 46   : 		}

	mov	esp, ebp
	pop	ebp
	ret	0
?getD3DDevice@D3D9RenderSystem@Ogre@@QAEPAUIDirect3DDevice9@@XZ ENDP ; Ogre::D3D9RenderSystem::getD3DDevice
_TEXT	ENDS
PUBLIC	?push_back@?$vector@PAVD3D9TextureRenderTarget@Ogre@@V?$allocator@PAVD3D9TextureRenderTarget@Ogre@@@std@@@std@@QAEXABQAVD3D9TextureRenderTarget@Ogre@@@Z ; std::vector<Ogre::D3D9TextureRenderTarget *,std::allocator<Ogre::D3D9TextureRenderTarget *> >::push_back
PUBLIC	??0D3D9TextureRenderTarget@Ogre@@QAE@PAVD3D9RenderSystem@1@PAVD3D9HardwarePixelBuffer@1@IHW4RenderTargetType@01@H@Z ; Ogre::D3D9TextureRenderTarget::D3D9TextureRenderTarget
PUBLIC	?getSysTexture@D3D9HardwarePixelBuffer@Ogre@@QAEPAUIDirect3DBaseTexture9@@XZ ; Ogre::D3D9HardwarePixelBuffer::getSysTexture
EXTRN	__imp_??3MemoryDelegation@Ogre@@SAXPAXI@Z:PROC
EXTRN	__imp_??2MemoryDelegation@Ogre@@SAPAXI@Z:PROC
xdata$x	SEGMENT
__unwindtable$?createRenderTarget@D3D9PixelBufferPool@Ogre@@UAEPAVTextureRenderTarget@2@PAVHardwarePixelBuffer@2@IHH@Z DD 0ffffffffH
	DD	FLAT:__unwindfunclet$?createRenderTarget@D3D9PixelBufferPool@Ogre@@UAEPAVTextureRenderTarget@2@PAVHardwarePixelBuffer@2@IHH@Z$0
__ehfuncinfo$?createRenderTarget@D3D9PixelBufferPool@Ogre@@UAEPAVTextureRenderTarget@2@PAVHardwarePixelBuffer@2@IHH@Z DD 019930522H
	DD	01H
	DD	FLAT:__unwindtable$?createRenderTarget@D3D9PixelBufferPool@Ogre@@UAEPAVTextureRenderTarget@2@PAVHardwarePixelBuffer@2@IHH@Z
	DD	2 DUP(00H)
	DD	2 DUP(00H)
	DD	00H
	DD	00H
; Function compile flags: /Odtp
; File i:\svnroot\client\plugins\rendersystem_d3d9\ogred3d9hardwarepixelbuffer.cpp
xdata$x	ENDS
_TEXT	SEGMENT
tv86 = -36						; size = 4
_this$ = -32						; size = 4
$T146731 = -28						; size = 4
$T146730 = -24						; size = 4
_pd3dbuf$ = -20						; size = 4
_ptarget$ = -16						; size = 4
__$EHRec$ = -12						; size = 12
_pbuf$ = 8						; size = 4
_index$ = 12						; size = 4
_depthbits$ = 16					; size = 4
_multisample$ = 20					; size = 4
?createRenderTarget@D3D9PixelBufferPool@Ogre@@UAEPAVTextureRenderTarget@2@PAVHardwarePixelBuffer@2@IHH@Z PROC ; Ogre::D3D9PixelBufferPool::createRenderTarget
; _this$ = ecx

; 315  : 	{

	push	ebp
	mov	ebp, esp
	push	-1
	push	__ehhandler$?createRenderTarget@D3D9PixelBufferPool@Ogre@@UAEPAVTextureRenderTarget@2@PAVHardwarePixelBuffer@2@IHH@Z
	mov	eax, DWORD PTR fs:0
	push	eax
	sub	esp, 24					; 00000018H
	mov	eax, DWORD PTR ___security_cookie
	xor	eax, ebp
	push	eax
	lea	eax, DWORD PTR __$EHRec$[ebp]
	mov	DWORD PTR fs:0, eax
	mov	DWORD PTR _this$[ebp], ecx

; 316  : 		D3D9HardwarePixelBuffer *pd3dbuf = static_cast<D3D9HardwarePixelBuffer *>(pbuf);

	mov	eax, DWORD PTR _pbuf$[ebp]
	mov	DWORD PTR _pd3dbuf$[ebp], eax

; 317  : 		if(pd3dbuf->getSysTexture() == NULL) return NULL;

	mov	ecx, DWORD PTR _pd3dbuf$[ebp]
	call	?getSysTexture@D3D9HardwarePixelBuffer@Ogre@@QAEPAUIDirect3DBaseTexture9@@XZ ; Ogre::D3D9HardwarePixelBuffer::getSysTexture
	test	eax, eax
	jne	SHORT $LN1@createRend
	xor	eax, eax
	jmp	SHORT $LN2@createRend
$LN1@createRend:

; 318  : 
; 319  : 		D3D9TextureRenderTarget *ptarget = new D3D9TextureRenderTarget(m_pRS, pd3dbuf, index, depthbits, 
; 320  : 											D3D9TextureRenderTarget::Normal_RenderTarget, multisample );

	push	92					; 0000005cH
	call	DWORD PTR __imp_??2MemoryDelegation@Ogre@@SAPAXI@Z
	add	esp, 4
	mov	DWORD PTR $T146731[ebp], eax
	mov	DWORD PTR __$EHRec$[ebp+8], 0
	cmp	DWORD PTR $T146731[ebp], 0
	je	SHORT $LN4@createRend
	mov	ecx, DWORD PTR _multisample$[ebp]
	push	ecx
	push	0
	mov	edx, DWORD PTR _depthbits$[ebp]
	push	edx
	mov	eax, DWORD PTR _index$[ebp]
	push	eax
	mov	ecx, DWORD PTR _pd3dbuf$[ebp]
	push	ecx
	mov	edx, DWORD PTR _this$[ebp]
	mov	eax, DWORD PTR [edx+92]
	push	eax
	mov	ecx, DWORD PTR $T146731[ebp]
	call	??0D3D9TextureRenderTarget@Ogre@@QAE@PAVD3D9RenderSystem@1@PAVD3D9HardwarePixelBuffer@1@IHW4RenderTargetType@01@H@Z ; Ogre::D3D9TextureRenderTarget::D3D9TextureRenderTarget
	mov	DWORD PTR tv86[ebp], eax
	jmp	SHORT $LN5@createRend
$LN4@createRend:
	mov	DWORD PTR tv86[ebp], 0
$LN5@createRend:
	mov	ecx, DWORD PTR tv86[ebp]
	mov	DWORD PTR $T146730[ebp], ecx
	mov	DWORD PTR __$EHRec$[ebp+8], -1
	mov	edx, DWORD PTR $T146730[ebp]
	mov	DWORD PTR _ptarget$[ebp], edx

; 321  : 		ptarget->m_pPool = this;

	mov	eax, DWORD PTR _ptarget$[ebp]
	mov	ecx, DWORD PTR _this$[ebp]
	mov	DWORD PTR [eax+12], ecx

; 322  : 		m_Targets.push_back(ptarget);

	lea	edx, DWORD PTR _ptarget$[ebp]
	push	edx
	mov	ecx, DWORD PTR _this$[ebp]
	add	ecx, 160				; 000000a0H
	call	?push_back@?$vector@PAVD3D9TextureRenderTarget@Ogre@@V?$allocator@PAVD3D9TextureRenderTarget@Ogre@@@std@@@std@@QAEXABQAVD3D9TextureRenderTarget@Ogre@@@Z ; std::vector<Ogre::D3D9TextureRenderTarget *,std::allocator<Ogre::D3D9TextureRenderTarget *> >::push_back

; 323  : 		return ptarget;

	mov	eax, DWORD PTR _ptarget$[ebp]
$LN2@createRend:

; 324  : 	}

	mov	ecx, DWORD PTR __$EHRec$[ebp]
	mov	DWORD PTR fs:0, ecx
	pop	ecx
	mov	esp, ebp
	pop	ebp
	ret	16					; 00000010H
_TEXT	ENDS
text$x	SEGMENT
__unwindfunclet$?createRenderTarget@D3D9PixelBufferPool@Ogre@@UAEPAVTextureRenderTarget@2@PAVHardwarePixelBuffer@2@IHH@Z$0:
	push	92					; 0000005cH
	mov	eax, DWORD PTR $T146731[ebp]
	push	eax
	call	DWORD PTR __imp_??3MemoryDelegation@Ogre@@SAXPAXI@Z
	add	esp, 8
	ret	0
__ehhandler$?createRenderTarget@D3D9PixelBufferPool@Ogre@@UAEPAVTextureRenderTarget@2@PAVHardwarePixelBuffer@2@IHH@Z:
	mov	edx, DWORD PTR [esp+8]
	lea	eax, DWORD PTR [edx+12]
	mov	ecx, DWORD PTR [edx-28]
	xor	ecx, eax
	call	@__security_check_cookie@4
	mov	eax, OFFSET __ehfuncinfo$?createRenderTarget@D3D9PixelBufferPool@Ogre@@UAEPAVTextureRenderTarget@2@PAVHardwarePixelBuffer@2@IHH@Z
	jmp	___CxxFrameHandler3
text$x	ENDS
?createRenderTarget@D3D9PixelBufferPool@Ogre@@UAEPAVTextureRenderTarget@2@PAVHardwarePixelBuffer@2@IHH@Z ENDP ; Ogre::D3D9PixelBufferPool::createRenderTarget
; Function compile flags: /Odtp
; File i:\svnroot\client\plugins\rendersystem_d3d9\ogred3d9hardwarepixelbuffer.h
;	COMDAT ?getSysTexture@D3D9HardwarePixelBuffer@Ogre@@QAEPAUIDirect3DBaseTexture9@@XZ
_TEXT	SEGMENT
_this$ = -4						; size = 4
?getSysTexture@D3D9HardwarePixelBuffer@Ogre@@QAEPAUIDirect3DBaseTexture9@@XZ PROC ; Ogre::D3D9HardwarePixelBuffer::getSysTexture, COMDAT
; _this$ = ecx

; 76   : 		IDirect3DBaseTexture9 *getSysTexture(){ return m_pSysTex; }

	push	ebp
	mov	ebp, esp
	push	ecx
	mov	DWORD PTR _this$[ebp], ecx
	mov	eax, DWORD PTR _this$[ebp]
	mov	eax, DWORD PTR [eax+20]
	mov	esp, ebp
	pop	ebp
	ret	0
?getSysTexture@D3D9HardwarePixelBuffer@Ogre@@QAEPAUIDirect3DBaseTexture9@@XZ ENDP ; Ogre::D3D9HardwarePixelBuffer::getSysTexture
_TEXT	ENDS
xdata$x	SEGMENT
__unwindtable$?createDepthStencil@D3D9PixelBufferPool@Ogre@@UAEPAVTextureRenderTarget@2@PAVHardwarePixelBuffer@2@I@Z DD 0ffffffffH
	DD	FLAT:__unwindfunclet$?createDepthStencil@D3D9PixelBufferPool@Ogre@@UAEPAVTextureRenderTarget@2@PAVHardwarePixelBuffer@2@I@Z$0
__ehfuncinfo$?createDepthStencil@D3D9PixelBufferPool@Ogre@@UAEPAVTextureRenderTarget@2@PAVHardwarePixelBuffer@2@I@Z DD 019930522H
	DD	01H
	DD	FLAT:__unwindtable$?createDepthStencil@D3D9PixelBufferPool@Ogre@@UAEPAVTextureRenderTarget@2@PAVHardwarePixelBuffer@2@I@Z
	DD	2 DUP(00H)
	DD	2 DUP(00H)
	DD	00H
	DD	00H
; Function compile flags: /Odtp
; File i:\svnroot\client\plugins\rendersystem_d3d9\ogred3d9hardwarepixelbuffer.cpp
xdata$x	ENDS
_TEXT	SEGMENT
tv86 = -36						; size = 4
_this$ = -32						; size = 4
$T146743 = -28						; size = 4
$T146742 = -24						; size = 4
_pd3dbuf$ = -20						; size = 4
_ptarget$ = -16						; size = 4
__$EHRec$ = -12						; size = 12
_pbuf$ = 8						; size = 4
_index$ = 12						; size = 4
?createDepthStencil@D3D9PixelBufferPool@Ogre@@UAEPAVTextureRenderTarget@2@PAVHardwarePixelBuffer@2@I@Z PROC ; Ogre::D3D9PixelBufferPool::createDepthStencil
; _this$ = ecx

; 327  : 	{

	push	ebp
	mov	ebp, esp
	push	-1
	push	__ehhandler$?createDepthStencil@D3D9PixelBufferPool@Ogre@@UAEPAVTextureRenderTarget@2@PAVHardwarePixelBuffer@2@I@Z
	mov	eax, DWORD PTR fs:0
	push	eax
	sub	esp, 24					; 00000018H
	mov	eax, DWORD PTR ___security_cookie
	xor	eax, ebp
	push	eax
	lea	eax, DWORD PTR __$EHRec$[ebp]
	mov	DWORD PTR fs:0, eax
	mov	DWORD PTR _this$[ebp], ecx

; 328  : 		D3D9HardwarePixelBuffer *pd3dbuf = static_cast<D3D9HardwarePixelBuffer *>(pbuf);

	mov	eax, DWORD PTR _pbuf$[ebp]
	mov	DWORD PTR _pd3dbuf$[ebp], eax

; 329  : 		if(pd3dbuf->getSysTexture() == NULL) return NULL;

	mov	ecx, DWORD PTR _pd3dbuf$[ebp]
	call	?getSysTexture@D3D9HardwarePixelBuffer@Ogre@@QAEPAUIDirect3DBaseTexture9@@XZ ; Ogre::D3D9HardwarePixelBuffer::getSysTexture
	test	eax, eax
	jne	SHORT $LN1@createDept
	xor	eax, eax
	jmp	SHORT $LN2@createDept
$LN1@createDept:

; 330  : 
; 331  : 		D3D9TextureRenderTarget *ptarget = new D3D9TextureRenderTarget(m_pRS, pd3dbuf, index, 0, D3D9TextureRenderTarget::DepthStencil_RenderTarget);

	push	92					; 0000005cH
	call	DWORD PTR __imp_??2MemoryDelegation@Ogre@@SAPAXI@Z
	add	esp, 4
	mov	DWORD PTR $T146743[ebp], eax
	mov	DWORD PTR __$EHRec$[ebp+8], 0
	cmp	DWORD PTR $T146743[ebp], 0
	je	SHORT $LN4@createDept
	push	0
	push	1
	push	0
	mov	ecx, DWORD PTR _index$[ebp]
	push	ecx
	mov	edx, DWORD PTR _pd3dbuf$[ebp]
	push	edx
	mov	eax, DWORD PTR _this$[ebp]
	mov	ecx, DWORD PTR [eax+92]
	push	ecx
	mov	ecx, DWORD PTR $T146743[ebp]
	call	??0D3D9TextureRenderTarget@Ogre@@QAE@PAVD3D9RenderSystem@1@PAVD3D9HardwarePixelBuffer@1@IHW4RenderTargetType@01@H@Z ; Ogre::D3D9TextureRenderTarget::D3D9TextureRenderTarget
	mov	DWORD PTR tv86[ebp], eax
	jmp	SHORT $LN5@createDept
$LN4@createDept:
	mov	DWORD PTR tv86[ebp], 0
$LN5@createDept:
	mov	edx, DWORD PTR tv86[ebp]
	mov	DWORD PTR $T146742[ebp], edx
	mov	DWORD PTR __$EHRec$[ebp+8], -1
	mov	eax, DWORD PTR $T146742[ebp]
	mov	DWORD PTR _ptarget$[ebp], eax

; 332  : 		ptarget->m_pPool = this;

	mov	ecx, DWORD PTR _ptarget$[ebp]
	mov	edx, DWORD PTR _this$[ebp]
	mov	DWORD PTR [ecx+12], edx

; 333  : 		m_Targets.push_back(ptarget);

	lea	eax, DWORD PTR _ptarget$[ebp]
	push	eax
	mov	ecx, DWORD PTR _this$[ebp]
	add	ecx, 160				; 000000a0H
	call	?push_back@?$vector@PAVD3D9TextureRenderTarget@Ogre@@V?$allocator@PAVD3D9TextureRenderTarget@Ogre@@@std@@@std@@QAEXABQAVD3D9TextureRenderTarget@Ogre@@@Z ; std::vector<Ogre::D3D9TextureRenderTarget *,std::allocator<Ogre::D3D9TextureRenderTarget *> >::push_back

; 334  : 		return ptarget;

	mov	eax, DWORD PTR _ptarget$[ebp]
$LN2@createDept:

; 335  : 	}

	mov	ecx, DWORD PTR __$EHRec$[ebp]
	mov	DWORD PTR fs:0, ecx
	pop	ecx
	mov	esp, ebp
	pop	ebp
	ret	8
_TEXT	ENDS
text$x	SEGMENT
__unwindfunclet$?createDepthStencil@D3D9PixelBufferPool@Ogre@@UAEPAVTextureRenderTarget@2@PAVHardwarePixelBuffer@2@I@Z$0:
	push	92					; 0000005cH
	mov	eax, DWORD PTR $T146743[ebp]
	push	eax
	call	DWORD PTR __imp_??3MemoryDelegation@Ogre@@SAXPAXI@Z
	add	esp, 8
	ret	0
__ehhandler$?createDepthStencil@D3D9PixelBufferPool@Ogre@@UAEPAVTextureRenderTarget@2@PAVHardwarePixelBuffer@2@I@Z:
	mov	edx, DWORD PTR [esp+8]
	lea	eax, DWORD PTR [edx+12]
	mov	ecx, DWORD PTR [edx-28]
	xor	ecx, eax
	call	@__security_check_cookie@4
	mov	eax, OFFSET __ehfuncinfo$?createDepthStencil@D3D9PixelBufferPool@Ogre@@UAEPAVTextureRenderTarget@2@PAVHardwarePixelBuffer@2@I@Z
	jmp	___CxxFrameHandler3
text$x	ENDS
?createDepthStencil@D3D9PixelBufferPool@Ogre@@UAEPAVTextureRenderTarget@2@PAVHardwarePixelBuffer@2@I@Z ENDP ; Ogre::D3D9PixelBufferPool::createDepthStencil
PUBLIC	?resize@?$vector@PAVD3D9TextureRenderTarget@Ogre@@V?$allocator@PAVD3D9TextureRenderTarget@Ogre@@@std@@@std@@QAEXI@Z ; std::vector<Ogre::D3D9TextureRenderTarget *,std::allocator<Ogre::D3D9TextureRenderTarget *> >::resize
PUBLIC	?size@?$vector@PAVD3D9TextureRenderTarget@Ogre@@V?$allocator@PAVD3D9TextureRenderTarget@Ogre@@@std@@@std@@QBEIXZ ; std::vector<Ogre::D3D9TextureRenderTarget *,std::allocator<Ogre::D3D9TextureRenderTarget *> >::size
PUBLIC	??$remove@V?$_Vector_iterator@PAVD3D9TextureRenderTarget@Ogre@@V?$allocator@PAVD3D9TextureRenderTarget@Ogre@@@std@@@std@@PAVD3D9TextureRenderTarget@Ogre@@@std@@YA?AV?$_Vector_iterator@PAVD3D9TextureRenderTarget@Ogre@@V?$allocator@PAVD3D9TextureRenderTarget@Ogre@@@std@@@0@V10@0ABQAVD3D9TextureRenderTarget@Ogre@@@Z ; std::remove<std::_Vector_iterator<Ogre::D3D9TextureRenderTarget *,std::allocator<Ogre::D3D9TextureRenderTarget *> >,Ogre::D3D9TextureRenderTarget *>
PUBLIC	?begin@?$vector@PAVD3D9TextureRenderTarget@Ogre@@V?$allocator@PAVD3D9TextureRenderTarget@Ogre@@@std@@@std@@QAE?AV?$_Vector_iterator@PAVD3D9TextureRenderTarget@Ogre@@V?$allocator@PAVD3D9TextureRenderTarget@Ogre@@@std@@@2@XZ ; std::vector<Ogre::D3D9TextureRenderTarget *,std::allocator<Ogre::D3D9TextureRenderTarget *> >::begin
PUBLIC	?end@?$vector@PAVD3D9TextureRenderTarget@Ogre@@V?$allocator@PAVD3D9TextureRenderTarget@Ogre@@@std@@@std@@QAE?AV?$_Vector_iterator@PAVD3D9TextureRenderTarget@Ogre@@V?$allocator@PAVD3D9TextureRenderTarget@Ogre@@@std@@@2@XZ ; std::vector<Ogre::D3D9TextureRenderTarget *,std::allocator<Ogre::D3D9TextureRenderTarget *> >::end
PUBLIC	?releaseRenderTarget@D3D9PixelBufferPool@Ogre@@QAEXPAVD3D9TextureRenderTarget@2@@Z ; Ogre::D3D9PixelBufferPool::releaseRenderTarget
; Function compile flags: /Odtp
_TEXT	SEGMENT
tv93 = -40						; size = 4
_this$ = -36						; size = 4
$T146756 = -32						; size = 4
$T146755 = -28						; size = 4
$T146754 = -24						; size = 8
$T146753 = -16						; size = 8
$T146752 = -8						; size = 8
_ptarget$ = 8						; size = 4
?releaseRenderTarget@D3D9PixelBufferPool@Ogre@@QAEXPAVD3D9TextureRenderTarget@2@@Z PROC ; Ogre::D3D9PixelBufferPool::releaseRenderTarget
; _this$ = ecx

; 338  : 	{

	push	ebp
	mov	ebp, esp
	sub	esp, 40					; 00000028H
	mov	DWORD PTR _this$[ebp], ecx

; 339  : 		assert(std::find(m_Targets.begin(), m_Targets.end(), ptarget) != m_Targets.end());
; 340  : 		std::remove(m_Targets.begin(), m_Targets.end(), ptarget);

	lea	eax, DWORD PTR _ptarget$[ebp]
	push	eax
	lea	ecx, DWORD PTR $T146752[ebp]
	push	ecx
	mov	ecx, DWORD PTR _this$[ebp]
	add	ecx, 160				; 000000a0H
	call	?end@?$vector@PAVD3D9TextureRenderTarget@Ogre@@V?$allocator@PAVD3D9TextureRenderTarget@Ogre@@@std@@@std@@QAE?AV?$_Vector_iterator@PAVD3D9TextureRenderTarget@Ogre@@V?$allocator@PAVD3D9TextureRenderTarget@Ogre@@@std@@@2@XZ ; std::vector<Ogre::D3D9TextureRenderTarget *,std::allocator<Ogre::D3D9TextureRenderTarget *> >::end
	mov	edx, DWORD PTR [eax+4]
	push	edx
	mov	eax, DWORD PTR [eax]
	push	eax
	lea	ecx, DWORD PTR $T146753[ebp]
	push	ecx
	mov	ecx, DWORD PTR _this$[ebp]
	add	ecx, 160				; 000000a0H
	call	?begin@?$vector@PAVD3D9TextureRenderTarget@Ogre@@V?$allocator@PAVD3D9TextureRenderTarget@Ogre@@@std@@@std@@QAE?AV?$_Vector_iterator@PAVD3D9TextureRenderTarget@Ogre@@V?$allocator@PAVD3D9TextureRenderTarget@Ogre@@@std@@@2@XZ ; std::vector<Ogre::D3D9TextureRenderTarget *,std::allocator<Ogre::D3D9TextureRenderTarget *> >::begin
	mov	edx, DWORD PTR [eax+4]
	push	edx
	mov	eax, DWORD PTR [eax]
	push	eax
	lea	ecx, DWORD PTR $T146754[ebp]
	push	ecx
	call	??$remove@V?$_Vector_iterator@PAVD3D9TextureRenderTarget@Ogre@@V?$allocator@PAVD3D9TextureRenderTarget@Ogre@@@std@@@std@@PAVD3D9TextureRenderTarget@Ogre@@@std@@YA?AV?$_Vector_iterator@PAVD3D9TextureRenderTarget@Ogre@@V?$allocator@PAVD3D9TextureRenderTarget@Ogre@@@std@@@0@V10@0ABQAVD3D9TextureRenderTarget@Ogre@@@Z ; std::remove<std::_Vector_iterator<Ogre::D3D9TextureRenderTarget *,std::allocator<Ogre::D3D9TextureRenderTarget *> >,Ogre::D3D9TextureRenderTarget *>
	add	esp, 24					; 00000018H

; 341  : 		m_Targets.resize(m_Targets.size()-1);

	mov	ecx, DWORD PTR _this$[ebp]
	add	ecx, 160				; 000000a0H
	call	?size@?$vector@PAVD3D9TextureRenderTarget@Ogre@@V?$allocator@PAVD3D9TextureRenderTarget@Ogre@@@std@@@std@@QBEIXZ ; std::vector<Ogre::D3D9TextureRenderTarget *,std::allocator<Ogre::D3D9TextureRenderTarget *> >::size
	sub	eax, 1
	push	eax
	mov	ecx, DWORD PTR _this$[ebp]
	add	ecx, 160				; 000000a0H
	call	?resize@?$vector@PAVD3D9TextureRenderTarget@Ogre@@V?$allocator@PAVD3D9TextureRenderTarget@Ogre@@@std@@@std@@QAEXI@Z ; std::vector<Ogre::D3D9TextureRenderTarget *,std::allocator<Ogre::D3D9TextureRenderTarget *> >::resize

; 342  : 
; 343  : 		delete ptarget;

	mov	edx, DWORD PTR _ptarget$[ebp]
	mov	DWORD PTR $T146756[ebp], edx
	mov	eax, DWORD PTR $T146756[ebp]
	mov	DWORD PTR $T146755[ebp], eax
	cmp	DWORD PTR $T146755[ebp], 0
	je	SHORT $LN3@releaseRen
	push	1
	mov	ecx, DWORD PTR $T146755[ebp]
	mov	edx, DWORD PTR [ecx]
	mov	ecx, DWORD PTR $T146755[ebp]
	mov	eax, DWORD PTR [edx+20]
	call	eax
	mov	DWORD PTR tv93[ebp], eax
	jmp	SHORT $LN1@releaseRen
$LN3@releaseRen:
	mov	DWORD PTR tv93[ebp], 0
$LN1@releaseRen:

; 344  : 	}

	mov	esp, ebp
	pop	ebp
	ret	4
?releaseRenderTarget@D3D9PixelBufferPool@Ogre@@QAEXPAVD3D9TextureRenderTarget@2@@Z ENDP ; Ogre::D3D9PixelBufferPool::releaseRenderTarget
_TEXT	ENDS
PUBLIC	?getSurfaceSize@D3D9PixelBufferPool@Ogre@@QAEXIAAI0@Z ; Ogre::D3D9PixelBufferPool::getSurfaceSize
; Function compile flags: /Odtp
_TEXT	SEGMENT
_this$ = -8						; size = 4
_level$ = -4						; size = 4
_index$ = 8						; size = 4
_width$ = 12						; size = 4
_height$ = 16						; size = 4
?getSurfaceSize@D3D9PixelBufferPool@Ogre@@QAEXIAAI0@Z PROC ; Ogre::D3D9PixelBufferPool::getSurfaceSize
; _this$ = ecx

; 347  : 	{

	push	ebp
	mov	ebp, esp
	sub	esp, 8
	mov	DWORD PTR _this$[ebp], ecx

; 348  : 		uint level = index & 0xffff;

	mov	eax, DWORD PTR _index$[ebp]
	and	eax, 65535				; 0000ffffH
	mov	DWORD PTR _level$[ebp], eax

; 349  : 		width = m_Width >> level;

	mov	ecx, DWORD PTR _this$[ebp]
	mov	edx, DWORD PTR [ecx+112]
	mov	ecx, DWORD PTR _level$[ebp]
	shr	edx, cl
	mov	eax, DWORD PTR _width$[ebp]
	mov	DWORD PTR [eax], edx

; 350  : 		if(width == 0) width = 1;

	mov	ecx, DWORD PTR _width$[ebp]
	cmp	DWORD PTR [ecx], 0
	jne	SHORT $LN2@getSurface
	mov	edx, DWORD PTR _width$[ebp]
	mov	DWORD PTR [edx], 1
$LN2@getSurface:

; 351  : 
; 352  : 		height = m_Height >> level;

	mov	eax, DWORD PTR _this$[ebp]
	mov	edx, DWORD PTR [eax+116]
	mov	ecx, DWORD PTR _level$[ebp]
	shr	edx, cl
	mov	eax, DWORD PTR _height$[ebp]
	mov	DWORD PTR [eax], edx

; 353  : 		if(height == 0) height = 1;

	mov	ecx, DWORD PTR _height$[ebp]
	cmp	DWORD PTR [ecx], 0
	jne	SHORT $LN3@getSurface
	mov	edx, DWORD PTR _height$[ebp]
	mov	DWORD PTR [edx], 1
$LN3@getSurface:

; 354  : 	}

	mov	esp, ebp
	pop	ebp
	ret	12					; 0000000cH
?getSurfaceSize@D3D9PixelBufferPool@Ogre@@QAEXIAAI0@Z ENDP ; Ogre::D3D9PixelBufferPool::getSurfaceSize
_TEXT	ENDS
PUBLIC	?getSurface@D3D9PixelBufferPool@Ogre@@QAEPAUIDirect3DSurface9@@PAVHardwarePixelBuffer@2@I@Z ; Ogre::D3D9PixelBufferPool::getSurface
; Function compile flags: /Odtp
_TEXT	SEGMENT
_this$ = -20						; size = 4
_face$ = -16						; size = 4
_psurface$ = -12					; size = 4
_psystex$ = -8						; size = 4
_level$ = -4						; size = 4
_pbuf$ = 8						; size = 4
_index$ = 12						; size = 4
?getSurface@D3D9PixelBufferPool@Ogre@@QAEPAUIDirect3DSurface9@@PAVHardwarePixelBuffer@2@I@Z PROC ; Ogre::D3D9PixelBufferPool::getSurface
; _this$ = ecx

; 357  : 	{

	push	ebp
	mov	ebp, esp
	sub	esp, 20					; 00000014H
	mov	DWORD PTR _this$[ebp], ecx

; 358  : 		IDirect3DBaseTexture9 *psystex = static_cast<D3D9HardwarePixelBuffer *>(pbuf)->m_pSysTex;

	mov	eax, DWORD PTR _pbuf$[ebp]
	mov	ecx, DWORD PTR [eax+20]
	mov	DWORD PTR _psystex$[ebp], ecx

; 359  : 		if(psystex == NULL) return NULL;

	cmp	DWORD PTR _psystex$[ebp], 0
	jne	SHORT $LN6@getSurface@2
	xor	eax, eax
	jmp	SHORT $LN7@getSurface@2
$LN6@getSurface@2:

; 360  : 
; 361  : 		uint face = index >> 16;

	mov	edx, DWORD PTR _index$[ebp]
	shr	edx, 16					; 00000010H
	mov	DWORD PTR _face$[ebp], edx

; 362  : 		uint level = index & 0xffff;

	mov	eax, DWORD PTR _index$[ebp]
	and	eax, 65535				; 0000ffffH
	mov	DWORD PTR _level$[ebp], eax

; 363  : 
; 364  : 		IDirect3DSurface9 *psurface = NULL;

	mov	DWORD PTR _psurface$[ebp], 0

; 365  : 
; 366  : 		if(m_Type == D3DRTYPE_TEXTURE)

	mov	ecx, DWORD PTR _this$[ebp]
	cmp	DWORD PTR [ecx+96], 3
	jne	SHORT $LN5@getSurface@2

; 367  : 		{
; 368  : 			static_cast<IDirect3DTexture9 *>(psystex)->GetSurfaceLevel(level, &psurface);

	lea	edx, DWORD PTR _psurface$[ebp]
	push	edx
	mov	eax, DWORD PTR _level$[ebp]
	push	eax
	mov	ecx, DWORD PTR _psystex$[ebp]
	mov	edx, DWORD PTR [ecx]
	mov	eax, DWORD PTR _psystex$[ebp]
	push	eax
	mov	ecx, DWORD PTR [edx+72]
	call	ecx
	jmp	SHORT $LN4@getSurface@2
$LN5@getSurface@2:

; 369  : 		}
; 370  : 		else if(m_Type == D3DRTYPE_VOLUMETEXTURE)

	mov	edx, DWORD PTR _this$[ebp]
	cmp	DWORD PTR [edx+96], 4
	jne	SHORT $LN3@getSurface@2
	jmp	SHORT $LN4@getSurface@2
$LN3@getSurface@2:

; 371  : 		{
; 372  : 			assert(0);
; 373  : 		}
; 374  : 		else if(m_Type == D3DRTYPE_CUBETEXTURE)

	mov	eax, DWORD PTR _this$[ebp]
	cmp	DWORD PTR [eax+96], 5
	jne	SHORT $LN4@getSurface@2

; 375  : 		{
; 376  : 			static_cast<IDirect3DCubeTexture9 *>(psystex)->GetCubeMapSurface((D3DCUBEMAP_FACES)face, level, &psurface);

	lea	ecx, DWORD PTR _psurface$[ebp]
	push	ecx
	mov	edx, DWORD PTR _level$[ebp]
	push	edx
	mov	eax, DWORD PTR _face$[ebp]
	push	eax
	mov	ecx, DWORD PTR _psystex$[ebp]
	mov	edx, DWORD PTR [ecx]
	mov	eax, DWORD PTR _psystex$[ebp]
	push	eax
	mov	ecx, DWORD PTR [edx+72]
	call	ecx
$LN4@getSurface@2:

; 377  : 		}
; 378  : 
; 379  : 		return psurface;

	mov	eax, DWORD PTR _psurface$[ebp]
$LN7@getSurface@2:

; 380  : 	}

	mov	esp, ebp
	pop	ebp
	ret	8
?getSurface@D3D9PixelBufferPool@Ogre@@QAEPAUIDirect3DSurface9@@PAVHardwarePixelBuffer@2@I@Z ENDP ; Ogre::D3D9PixelBufferPool::getSurface
_TEXT	ENDS
xdata$x	SEGMENT
__unwindtable$??1D3D9HardwarePixelBuffer@Ogre@@EAE@XZ DD 0ffffffffH
	DD	FLAT:__unwindfunclet$??1D3D9HardwarePixelBuffer@Ogre@@EAE@XZ$0
__ehfuncinfo$??1D3D9HardwarePixelBuffer@Ogre@@EAE@XZ DD 019930522H
	DD	01H
	DD	FLAT:__unwindtable$??1D3D9HardwarePixelBuffer@Ogre@@EAE@XZ
	DD	2 DUP(00H)
	DD	2 DUP(00H)
	DD	00H
	DD	00H
; Function compile flags: /Odtp
xdata$x	ENDS
_TEXT	SEGMENT
_this$ = -16						; size = 4
__$EHRec$ = -12						; size = 12
??1D3D9HardwarePixelBuffer@Ogre@@EAE@XZ PROC		; Ogre::D3D9HardwarePixelBuffer::~D3D9HardwarePixelBuffer
; _this$ = ecx

; 383  : 	{

	push	ebp
	mov	ebp, esp
	push	-1
	push	__ehhandler$??1D3D9HardwarePixelBuffer@Ogre@@EAE@XZ
	mov	eax, DWORD PTR fs:0
	push	eax
	push	ecx
	mov	eax, DWORD PTR ___security_cookie
	xor	eax, ebp
	push	eax
	lea	eax, DWORD PTR __$EHRec$[ebp]
	mov	DWORD PTR fs:0, eax
	mov	DWORD PTR _this$[ebp], ecx
	mov	eax, DWORD PTR _this$[ebp]
	mov	DWORD PTR [eax], OFFSET ??_7D3D9HardwarePixelBuffer@Ogre@@6B@
	mov	DWORD PTR __$EHRec$[ebp+8], 0

; 384  : 		static_cast<D3D9PixelBufferPool *>(m_pPool)->releasePixelBufferSysTexture(this);

	mov	ecx, DWORD PTR _this$[ebp]
	push	ecx
	mov	edx, DWORD PTR _this$[ebp]
	mov	ecx, DWORD PTR [edx+12]
	call	?releasePixelBufferSysTexture@D3D9PixelBufferPool@Ogre@@QAEXPAVD3D9HardwarePixelBuffer@2@@Z ; Ogre::D3D9PixelBufferPool::releasePixelBufferSysTexture

; 385  : 	}

	mov	DWORD PTR __$EHRec$[ebp+8], -1
	mov	ecx, DWORD PTR _this$[ebp]
	call	DWORD PTR __imp_??1HardwarePixelBuffer@Ogre@@MAE@XZ
	mov	ecx, DWORD PTR __$EHRec$[ebp]
	mov	DWORD PTR fs:0, ecx
	pop	ecx
	mov	esp, ebp
	pop	ebp
	ret	0
_TEXT	ENDS
text$x	SEGMENT
__unwindfunclet$??1D3D9HardwarePixelBuffer@Ogre@@EAE@XZ$0:
	mov	ecx, DWORD PTR _this$[ebp]
	jmp	DWORD PTR __imp_??1HardwarePixelBuffer@Ogre@@MAE@XZ
__ehhandler$??1D3D9HardwarePixelBuffer@Ogre@@EAE@XZ:
	mov	edx, DWORD PTR [esp+8]
	lea	eax, DWORD PTR [edx+12]
	mov	ecx, DWORD PTR [edx-8]
	xor	ecx, eax
	call	@__security_check_cookie@4
	mov	eax, OFFSET __ehfuncinfo$??1D3D9HardwarePixelBuffer@Ogre@@EAE@XZ
	jmp	___CxxFrameHandler3
text$x	ENDS
??1D3D9HardwarePixelBuffer@Ogre@@EAE@XZ ENDP		; Ogre::D3D9HardwarePixelBuffer::~D3D9HardwarePixelBuffer
EXTRN	_D3DXSaveTextureToFileA@16:PROC
; Function compile flags: /Odtp
_TEXT	SEGMENT
_this$ = -8						; size = 4
_hr$ = -4						; size = 4
_path$ = 8						; size = 4
?dumpToDDS@D3D9HardwarePixelBuffer@Ogre@@UAEXPBD@Z PROC	; Ogre::D3D9HardwarePixelBuffer::dumpToDDS
; _this$ = ecx

; 388  : 	{

	push	ebp
	mov	ebp, esp
	sub	esp, 8
	mov	DWORD PTR _this$[ebp], ecx

; 389  : 		HRESULT hr = D3DXSaveTextureToFile(path, D3DXIFF_DDS, m_pSysTex, NULL);

	push	0
	mov	eax, DWORD PTR _this$[ebp]
	mov	ecx, DWORD PTR [eax+20]
	push	ecx
	push	4
	mov	edx, DWORD PTR _path$[ebp]
	push	edx
	call	_D3DXSaveTextureToFileA@16
	mov	DWORD PTR _hr$[ebp], eax

; 390  : 		if(FAILED(hr))

	cmp	DWORD PTR _hr$[ebp], 0
	jge	SHORT $LN2@dumpToDDS

; 391  : 		{
; 392  : 			LOG_SEVERE("failed to dump texture: %s", path);

	push	8
	push	392					; 00000188H
	push	OFFSET $SG138178
	call	DWORD PTR __imp_?LogSetCurParam@Ogre@@YAXPBDHI@Z
	add	esp, 12					; 0000000cH
	mov	eax, DWORD PTR _path$[ebp]
	push	eax
	push	OFFSET $SG138179
	call	DWORD PTR __imp_?LogMessage@Ogre@@YAXPBDZZ
	add	esp, 8
$LN2@dumpToDDS:

; 393  : 		}
; 394  : 	}

	mov	esp, ebp
	pop	ebp
	ret	4
?dumpToDDS@D3D9HardwarePixelBuffer@Ogre@@UAEXPBD@Z ENDP	; Ogre::D3D9HardwarePixelBuffer::dumpToDDS
_TEXT	ENDS
EXTRN	_memcpy:PROC
EXTRN	__imp__malloc:PROC
EXTRN	_D3DXSaveTextureToFileInMemory@16:PROC
; Function compile flags: /Odtp
_TEXT	SEGMENT
_this$ = -16						; size = 4
_hr$ = -12						; size = 4
_pbuf$ = -8						; size = 4
_pBuffer$ = -4						; size = 4
_ext$ = 8						; size = 4
_buflen$ = 12						; size = 4
?dumpToBuffer@D3D9HardwarePixelBuffer@Ogre@@UAEPAXPBDAAI@Z PROC ; Ogre::D3D9HardwarePixelBuffer::dumpToBuffer
; _this$ = ecx

; 397  : 	{

	push	ebp
	mov	ebp, esp
	sub	esp, 16					; 00000010H
	mov	DWORD PTR _this$[ebp], ecx

; 398  : 		ID3DXBuffer *pBuffer = NULL;

	mov	DWORD PTR _pBuffer$[ebp], 0

; 399  : 		HRESULT hr = D3DXSaveTextureToFileInMemory(&pBuffer, D3DXIFF_BMP, m_pSysTex, NULL);

	push	0
	mov	eax, DWORD PTR _this$[ebp]
	mov	ecx, DWORD PTR [eax+20]
	push	ecx
	push	0
	lea	edx, DWORD PTR _pBuffer$[ebp]
	push	edx
	call	_D3DXSaveTextureToFileInMemory@16
	mov	DWORD PTR _hr$[ebp], eax

; 400  : 		if(hr != S_OK)

	cmp	DWORD PTR _hr$[ebp], 0
	je	SHORT $LN1@dumpToBuff

; 401  : 		{
; 402  : 			LOG_SEVERE("failed to dump texture: %s", ext);

	push	8
	push	402					; 00000192H
	push	OFFSET $SG138189
	call	DWORD PTR __imp_?LogSetCurParam@Ogre@@YAXPBDHI@Z
	add	esp, 12					; 0000000cH
	mov	eax, DWORD PTR _ext$[ebp]
	push	eax
	push	OFFSET $SG138190
	call	DWORD PTR __imp_?LogMessage@Ogre@@YAXPBDZZ
	add	esp, 8

; 403  : 			return NULL;

	xor	eax, eax
	jmp	SHORT $LN2@dumpToBuff
$LN1@dumpToBuff:

; 404  : 		}
; 405  : 
; 406  : 		buflen = pBuffer->GetBufferSize();

	mov	ecx, DWORD PTR _pBuffer$[ebp]
	mov	edx, DWORD PTR [ecx]
	mov	eax, DWORD PTR _pBuffer$[ebp]
	push	eax
	mov	ecx, DWORD PTR [edx+16]
	call	ecx
	mov	edx, DWORD PTR _buflen$[ebp]
	mov	DWORD PTR [edx], eax

; 407  : 		void *pbuf = malloc(buflen);

	mov	eax, DWORD PTR _buflen$[ebp]
	mov	ecx, DWORD PTR [eax]
	push	ecx
	call	DWORD PTR __imp__malloc
	add	esp, 4
	mov	DWORD PTR _pbuf$[ebp], eax

; 408  : 		memcpy(pbuf, pBuffer->GetBufferPointer(), buflen);

	mov	edx, DWORD PTR _buflen$[ebp]
	mov	eax, DWORD PTR [edx]
	push	eax
	mov	ecx, DWORD PTR _pBuffer$[ebp]
	mov	edx, DWORD PTR [ecx]
	mov	eax, DWORD PTR _pBuffer$[ebp]
	push	eax
	mov	ecx, DWORD PTR [edx+12]
	call	ecx
	push	eax
	mov	edx, DWORD PTR _pbuf$[ebp]
	push	edx
	call	_memcpy
	add	esp, 12					; 0000000cH

; 409  : 
; 410  : 		return pbuf;

	mov	eax, DWORD PTR _pbuf$[ebp]
$LN2@dumpToBuff:

; 411  : 	}

	mov	esp, ebp
	pop	ebp
	ret	8
?dumpToBuffer@D3D9HardwarePixelBuffer@Ogre@@UAEPAXPBDAAI@Z ENDP ; Ogre::D3D9HardwarePixelBuffer::dumpToBuffer
_TEXT	ENDS
PUBLIC	?getSurface@D3D9HardwarePixelBuffer@Ogre@@QAEPAUIDirect3DSurface9@@I@Z ; Ogre::D3D9HardwarePixelBuffer::getSurface
EXTRN	_D3DXLoadSurfaceFromSurface@32:PROC
; Function compile flags: /Odtp
_TEXT	SEGMENT
_this$ = -72						; size = 4
_pBackSurface1$ = -68					; size = 4
_pBackSurface$ = -64					; size = 4
_lockedRect$ = -60					; size = 8
_rcSurface$ = -52					; size = 16
_Bcaksurfdesc$ = -36					; size = 32
_img$ = -4						; size = 4
_pBits$ = 8						; size = 4
?getColorBit@D3D9HardwarePixelBuffer@Ogre@@UAEXPAK@Z PROC ; Ogre::D3D9HardwarePixelBuffer::getColorBit
; _this$ = ecx

; 413  : 	{

	push	ebp
	mov	ebp, esp
	sub	esp, 72					; 00000048H
	mov	DWORD PTR _this$[ebp], ecx

; 414  : 		IDirect3DSurface9*	pBackSurface1 = getSurface(0);

	push	0
	mov	ecx, DWORD PTR _this$[ebp]
	call	?getSurface@D3D9HardwarePixelBuffer@Ogre@@QAEPAUIDirect3DSurface9@@I@Z ; Ogre::D3D9HardwarePixelBuffer::getSurface
	mov	DWORD PTR _pBackSurface1$[ebp], eax

; 415  : 		//if (FAILED(static_cast<IDirect3DTexture9 *>(m_pSysTex)->GetSurfaceLevel(0, &pBackSurface)))
; 416  : 		//{
; 417  : 		//	return;
; 418  : 		//}
; 419  : 		D3DSURFACE_DESC Bcaksurfdesc;
; 420  : 		pBackSurface1->GetDesc(&Bcaksurfdesc);

	lea	eax, DWORD PTR _Bcaksurfdesc$[ebp]
	push	eax
	mov	ecx, DWORD PTR _pBackSurface1$[ebp]
	mov	edx, DWORD PTR [ecx]
	mov	eax, DWORD PTR _pBackSurface1$[ebp]
	push	eax
	mov	ecx, DWORD PTR [edx+48]
	call	ecx

; 421  : 		IDirect3DSurface9*	pBackSurface = NULL;

	mov	DWORD PTR _pBackSurface$[ebp], 0

; 422  : 		static_cast<D3D9PixelBufferPool *>(m_pPool)->m_pRS->m_pd3dDevice->CreateOffscreenPlainSurface( Bcaksurfdesc.Width, Bcaksurfdesc.Height, D3DFMT_A8R8G8B8, D3DPOOL_DEFAULT, &pBackSurface, NULL);

	push	0
	lea	edx, DWORD PTR _pBackSurface$[ebp]
	push	edx
	push	0
	push	21					; 00000015H
	mov	eax, DWORD PTR _Bcaksurfdesc$[ebp+28]
	push	eax
	mov	ecx, DWORD PTR _Bcaksurfdesc$[ebp+24]
	push	ecx
	mov	edx, DWORD PTR _this$[ebp]
	mov	eax, DWORD PTR [edx+12]
	mov	ecx, DWORD PTR [eax+92]
	mov	edx, DWORD PTR [ecx+104]
	mov	eax, DWORD PTR _this$[ebp]
	mov	ecx, DWORD PTR [eax+12]
	mov	eax, DWORD PTR [ecx+92]
	mov	ecx, DWORD PTR [eax+104]
	mov	edx, DWORD PTR [edx]
	push	ecx
	mov	eax, DWORD PTR [edx+144]
	call	eax

; 423  : 		D3DXLoadSurfaceFromSurface( pBackSurface, NULL, NULL, pBackSurface1, NULL, NULL, D3DX_FILTER_NONE, 0);

	push	0
	push	1
	push	0
	push	0
	mov	ecx, DWORD PTR _pBackSurface1$[ebp]
	push	ecx
	push	0
	push	0
	mov	edx, DWORD PTR _pBackSurface$[ebp]
	push	edx
	call	_D3DXLoadSurfaceFromSurface@32

; 424  : 		//if( FAILED( D3DXSaveSurfaceToFile( "absd.jpg", D3DXIFF_JPG, pBackSurface, NULL, NULL ) ) )
; 425  : 		//{
; 426  : 		//	return;
; 427  : 		//}
; 428  : 		//D3D9HardwarePixelBufferManager::getSingleton().m_pRS->
; 429  : 		D3DLOCKED_RECT lockedRect;
; 430  : 		RECT rcSurface = {0, 0, Bcaksurfdesc.Width, Bcaksurfdesc.Height};

	mov	DWORD PTR _rcSurface$[ebp], 0
	mov	DWORD PTR _rcSurface$[ebp+4], 0
	mov	eax, DWORD PTR _Bcaksurfdesc$[ebp+24]
	mov	DWORD PTR _rcSurface$[ebp+8], eax
	mov	ecx, DWORD PTR _Bcaksurfdesc$[ebp+28]
	mov	DWORD PTR _rcSurface$[ebp+12], ecx

; 431  : 		if (FAILED(pBackSurface->LockRect( &lockedRect, 0, 0)))

	push	0
	push	0
	lea	edx, DWORD PTR _lockedRect$[ebp]
	push	edx
	mov	eax, DWORD PTR _pBackSurface$[ebp]
	mov	ecx, DWORD PTR [eax]
	mov	edx, DWORD PTR _pBackSurface$[ebp]
	push	edx
	mov	eax, DWORD PTR [ecx+52]
	call	eax
	test	eax, eax
	jge	SHORT $LN1@getColorBi

; 432  : 		{
; 433  : 			pBackSurface->Release();

	mov	ecx, DWORD PTR _pBackSurface$[ebp]
	mov	edx, DWORD PTR [ecx]
	mov	eax, DWORD PTR _pBackSurface$[ebp]
	push	eax
	mov	ecx, DWORD PTR [edx+8]
	call	ecx

; 434  : 			pBackSurface1->Release();

	mov	edx, DWORD PTR _pBackSurface1$[ebp]
	mov	eax, DWORD PTR [edx]
	mov	ecx, DWORD PTR _pBackSurface1$[ebp]
	push	ecx
	mov	edx, DWORD PTR [eax+8]
	call	edx

; 435  : 			return;

	jmp	SHORT $LN2@getColorBi
$LN1@getColorBi:

; 436  : 		}
; 437  : 		DWORD *img = (DWORD *)lockedRect.pBits;

	mov	eax, DWORD PTR _lockedRect$[ebp+4]
	mov	DWORD PTR _img$[ebp], eax

; 438  : 		memcpy( pBits, img, 4 * Bcaksurfdesc.Width*Bcaksurfdesc.Height );//4

	mov	ecx, DWORD PTR _Bcaksurfdesc$[ebp+24]
	shl	ecx, 2
	imul	ecx, DWORD PTR _Bcaksurfdesc$[ebp+28]
	push	ecx
	mov	edx, DWORD PTR _img$[ebp]
	push	edx
	mov	eax, DWORD PTR _pBits$[ebp]
	push	eax
	call	_memcpy
	add	esp, 12					; 0000000cH

; 439  : 		//for ( int i = 0; i < Bcaksurfdesc.Height; i++ )
; 440  : 		//{
; 441  : 		//	memcpy( pBits, img, 4 * Bcaksurfdesc.Width );//4
; 442  : 		//	pBits= pBits + Bcaksurfdesc.Width;
; 443  : 		//	img = img + lockedRect.Pitch / 4;
; 444  : 		//}
; 445  : 		pBackSurface->UnlockRect();

	mov	ecx, DWORD PTR _pBackSurface$[ebp]
	mov	edx, DWORD PTR [ecx]
	mov	eax, DWORD PTR _pBackSurface$[ebp]
	push	eax
	mov	ecx, DWORD PTR [edx+56]
	call	ecx

; 446  : 		pBackSurface->Release();

	mov	edx, DWORD PTR _pBackSurface$[ebp]
	mov	eax, DWORD PTR [edx]
	mov	ecx, DWORD PTR _pBackSurface$[ebp]
	push	ecx
	mov	edx, DWORD PTR [eax+8]
	call	edx

; 447  : 		pBackSurface1->Release();

	mov	eax, DWORD PTR _pBackSurface1$[ebp]
	mov	ecx, DWORD PTR [eax]
	mov	edx, DWORD PTR _pBackSurface1$[ebp]
	push	edx
	mov	eax, DWORD PTR [ecx+8]
	call	eax
$LN2@getColorBi:

; 448  : 	}

	mov	esp, ebp
	pop	ebp
	ret	4
?getColorBit@D3D9HardwarePixelBuffer@Ogre@@UAEXPAK@Z ENDP ; Ogre::D3D9HardwarePixelBuffer::getColorBit
; Function compile flags: /Odtp
; File i:\svnroot\client\plugins\rendersystem_d3d9\ogred3d9hardwarepixelbuffer.h
_TEXT	ENDS
;	COMDAT ?getSurface@D3D9HardwarePixelBuffer@Ogre@@QAEPAUIDirect3DSurface9@@I@Z
_TEXT	SEGMENT
_this$ = -4						; size = 4
_index$ = 8						; size = 4
?getSurface@D3D9HardwarePixelBuffer@Ogre@@QAEPAUIDirect3DSurface9@@I@Z PROC ; Ogre::D3D9HardwarePixelBuffer::getSurface, COMDAT
; _this$ = ecx

; 67   : 		{

	push	ebp
	mov	ebp, esp
	push	ecx
	mov	DWORD PTR _this$[ebp], ecx

; 68   : 			return static_cast<D3D9PixelBufferPool *>(m_pPool)->getSurface(this, index);

	mov	eax, DWORD PTR _index$[ebp]
	push	eax
	mov	ecx, DWORD PTR _this$[ebp]
	push	ecx
	mov	edx, DWORD PTR _this$[ebp]
	mov	ecx, DWORD PTR [edx+12]
	call	?getSurface@D3D9PixelBufferPool@Ogre@@QAEPAUIDirect3DSurface9@@PAVHardwarePixelBuffer@2@I@Z ; Ogre::D3D9PixelBufferPool::getSurface

; 69   : 		}

	mov	esp, ebp
	pop	ebp
	ret	4
?getSurface@D3D9HardwarePixelBuffer@Ogre@@QAEPAUIDirect3DSurface9@@I@Z ENDP ; Ogre::D3D9HardwarePixelBuffer::getSurface
_TEXT	ENDS
PUBLIC	?requireOrReleaseDSBuffer@D3D9TextureRenderTarget@Ogre@@QAEX_N@Z ; Ogre::D3D9TextureRenderTarget::requireOrReleaseDSBuffer
PUBLIC	?requireOrReleaseRenderTarget@D3D9TextureRenderTarget@Ogre@@QAEX_N@Z ; Ogre::D3D9TextureRenderTarget::requireOrReleaseRenderTarget
PUBLIC	??_7D3D9TextureRenderTarget@Ogre@@6B@		; Ogre::D3D9TextureRenderTarget::`vftable'
PUBLIC	??_R4D3D9TextureRenderTarget@Ogre@@6B@		; Ogre::D3D9TextureRenderTarget::`RTTI Complete Object Locator'
PUBLIC	??_R0?AVD3D9TextureRenderTarget@Ogre@@@8	; Ogre::D3D9TextureRenderTarget `RTTI Type Descriptor'
PUBLIC	??_R3D3D9TextureRenderTarget@Ogre@@8		; Ogre::D3D9TextureRenderTarget::`RTTI Class Hierarchy Descriptor'
PUBLIC	??_R2D3D9TextureRenderTarget@Ogre@@8		; Ogre::D3D9TextureRenderTarget::`RTTI Base Class Array'
PUBLIC	??_R1A@?0A@EA@D3D9TextureRenderTarget@Ogre@@8	; Ogre::D3D9TextureRenderTarget::`RTTI Base Class Descriptor at (0,-1,0,64)'
PUBLIC	??_R1A@?0A@EA@TextureRenderTarget@Ogre@@8	; Ogre::TextureRenderTarget::`RTTI Base Class Descriptor at (0,-1,0,64)'
PUBLIC	??_R0?AVTextureRenderTarget@Ogre@@@8		; Ogre::TextureRenderTarget `RTTI Type Descriptor'
PUBLIC	??_R3TextureRenderTarget@Ogre@@8		; Ogre::TextureRenderTarget::`RTTI Class Hierarchy Descriptor'
PUBLIC	??_R2TextureRenderTarget@Ogre@@8		; Ogre::TextureRenderTarget::`RTTI Base Class Array'
PUBLIC	??_R1A@?0A@EA@RenderTarget@Ogre@@8		; Ogre::RenderTarget::`RTTI Base Class Descriptor at (0,-1,0,64)'
PUBLIC	??_R0?AVRenderTarget@Ogre@@@8			; Ogre::RenderTarget `RTTI Type Descriptor'
PUBLIC	??_R3RenderTarget@Ogre@@8			; Ogre::RenderTarget::`RTTI Class Hierarchy Descriptor'
PUBLIC	??_R2RenderTarget@Ogre@@8			; Ogre::RenderTarget::`RTTI Base Class Array'
PUBLIC	??_R1A@?0A@EA@BaseObject@Ogre@@8		; Ogre::BaseObject::`RTTI Base Class Descriptor at (0,-1,0,64)'
PUBLIC	??_R0?AVBaseObject@Ogre@@@8			; Ogre::BaseObject `RTTI Type Descriptor'
PUBLIC	??_R3BaseObject@Ogre@@8				; Ogre::BaseObject::`RTTI Class Hierarchy Descriptor'
PUBLIC	??_R2BaseObject@Ogre@@8				; Ogre::BaseObject::`RTTI Base Class Array'
PUBLIC	??_R13?0A@EA@MemoryDelegation@Ogre@@8		; Ogre::MemoryDelegation::`RTTI Base Class Descriptor at (4,-1,0,64)'
PUBLIC	??_R0?AVMemoryDelegation@Ogre@@@8		; Ogre::MemoryDelegation `RTTI Type Descriptor'
PUBLIC	??_R3MemoryDelegation@Ogre@@8			; Ogre::MemoryDelegation::`RTTI Class Hierarchy Descriptor'
PUBLIC	??_R2MemoryDelegation@Ogre@@8			; Ogre::MemoryDelegation::`RTTI Base Class Array'
PUBLIC	??_R1A@?0A@EA@MemoryDelegation@Ogre@@8		; Ogre::MemoryDelegation::`RTTI Base Class Descriptor at (0,-1,0,64)'
PUBLIC	?deleteThis@D3D9TextureRenderTarget@Ogre@@UAEXXZ ; Ogre::D3D9TextureRenderTarget::deleteThis
PUBLIC	?getSize@D3D9TextureRenderTarget@Ogre@@UAEXAAI0@Z ; Ogre::D3D9TextureRenderTarget::getSize
PUBLIC	?beginScene@D3D9TextureRenderTarget@Ogre@@UAE_NXZ ; Ogre::D3D9TextureRenderTarget::beginScene
PUBLIC	?endScene@D3D9TextureRenderTarget@Ogre@@UAEXXZ	; Ogre::D3D9TextureRenderTarget::endScene
PUBLIC	?isSuccessCreateRenderTarget@D3D9TextureRenderTarget@Ogre@@UAE_NXZ ; Ogre::D3D9TextureRenderTarget::isSuccessCreateRenderTarget
PUBLIC	?isSuccessCreateDSBuffer@D3D9TextureRenderTarget@Ogre@@UAE_NXZ ; Ogre::D3D9TextureRenderTarget::isSuccessCreateDSBuffer
PUBLIC	?setStretchRect@D3D9TextureRenderTarget@Ogre@@UAEXHHHHHHHH@Z ; Ogre::D3D9TextureRenderTarget::setStretchRect
PUBLIC	?getColorTexture@D3D9TextureRenderTarget@Ogre@@UAEPAVHardwarePixelBuffer@2@XZ ; Ogre::D3D9TextureRenderTarget::getColorTexture
EXTRN	__imp_??1TextureRenderTarget@Ogre@@UAE@XZ:PROC
EXTRN	?getProperTargetColorFormat@D3D9RenderSystem@Ogre@@QAE_NAAW4_D3DFORMAT@@W4_D3DMULTISAMPLE_TYPE@@W43@@Z:PROC ; Ogre::D3D9RenderSystem::getProperTargetColorFormat
EXTRN	?getProperTargetDepthFormat@D3D9RenderSystem@Ogre@@QAE_NAAW4_D3DFORMAT@@W4_D3DMULTISAMPLE_TYPE@@W43@H@Z:PROC ; Ogre::D3D9RenderSystem::getProperTargetDepthFormat
EXTRN	?MultiSampleConvert@Ogre@@YA?AW4_D3DMULTISAMPLE_TYPE@@H@Z:PROC ; Ogre::MultiSampleConvert
EXTRN	__imp_?addRef@HardwarePixelBuffer@Ogre@@QAEXXZ:PROC
EXTRN	__imp_??0TextureRenderTarget@Ogre@@QAE@XZ:PROC
EXTRN	?getRTTI@TextureRenderTarget@Ogre@@UBEPBVRuntimeClass@2@XZ:PROC ; Ogre::TextureRenderTarget::getRTTI
EXTRN	?release@BaseObject@Ogre@@UAEXXZ:PROC		; Ogre::BaseObject::release
EXTRN	?addRef@BaseObject@Ogre@@UAEXXZ:PROC		; Ogre::BaseObject::addRef
EXTRN	?getRefCount@BaseObject@Ogre@@UAEHXZ:PROC	; Ogre::BaseObject::getRefCount
EXTRN	?_serialize@BaseObject@Ogre@@UAEXAAVArchive@2@H@Z:PROC ; Ogre::BaseObject::_serialize
EXTRN	??_ED3D9TextureRenderTarget@Ogre@@UAEPAXI@Z:PROC ; Ogre::D3D9TextureRenderTarget::`vector deleting destructor'
;	COMDAT ??_R1A@?0A@EA@MemoryDelegation@Ogre@@8
; File i:\svnroot\client\plugins\rendersystem_d3d9\ogred3d9hardwarepixelbuffer.cpp
rdata$r	SEGMENT
??_R1A@?0A@EA@MemoryDelegation@Ogre@@8 DD FLAT:??_R0?AVMemoryDelegation@Ogre@@@8 ; Ogre::MemoryDelegation::`RTTI Base Class Descriptor at (0,-1,0,64)'
	DD	00H
	DD	00H
	DD	0ffffffffH
	DD	00H
	DD	040H
	DD	FLAT:??_R3MemoryDelegation@Ogre@@8
rdata$r	ENDS
;	COMDAT ??_R2MemoryDelegation@Ogre@@8
rdata$r	SEGMENT
??_R2MemoryDelegation@Ogre@@8 DD FLAT:??_R1A@?0A@EA@MemoryDelegation@Ogre@@8 ; Ogre::MemoryDelegation::`RTTI Base Class Array'
rdata$r	ENDS
;	COMDAT ??_R3MemoryDelegation@Ogre@@8
rdata$r	SEGMENT
??_R3MemoryDelegation@Ogre@@8 DD 00H			; Ogre::MemoryDelegation::`RTTI Class Hierarchy Descriptor'
	DD	00H
	DD	01H
	DD	FLAT:??_R2MemoryDelegation@Ogre@@8
rdata$r	ENDS
;	COMDAT ??_R0?AVMemoryDelegation@Ogre@@@8
_DATA	SEGMENT
??_R0?AVMemoryDelegation@Ogre@@@8 DD FLAT:??_7type_info@@6B@ ; Ogre::MemoryDelegation `RTTI Type Descriptor'
	DD	00H
	DB	'.?AVMemoryDelegation@Ogre@@', 00H
_DATA	ENDS
;	COMDAT ??_R13?0A@EA@MemoryDelegation@Ogre@@8
rdata$r	SEGMENT
??_R13?0A@EA@MemoryDelegation@Ogre@@8 DD FLAT:??_R0?AVMemoryDelegation@Ogre@@@8 ; Ogre::MemoryDelegation::`RTTI Base Class Descriptor at (4,-1,0,64)'
	DD	00H
	DD	04H
	DD	0ffffffffH
	DD	00H
	DD	040H
	DD	FLAT:??_R3MemoryDelegation@Ogre@@8
rdata$r	ENDS
;	COMDAT ??_R2BaseObject@Ogre@@8
rdata$r	SEGMENT
??_R2BaseObject@Ogre@@8 DD FLAT:??_R1A@?0A@EA@BaseObject@Ogre@@8 ; Ogre::BaseObject::`RTTI Base Class Array'
	DD	FLAT:??_R13?0A@EA@MemoryDelegation@Ogre@@8
rdata$r	ENDS
;	COMDAT ??_R3BaseObject@Ogre@@8
rdata$r	SEGMENT
??_R3BaseObject@Ogre@@8 DD 00H				; Ogre::BaseObject::`RTTI Class Hierarchy Descriptor'
	DD	00H
	DD	02H
	DD	FLAT:??_R2BaseObject@Ogre@@8
rdata$r	ENDS
;	COMDAT ??_R0?AVBaseObject@Ogre@@@8
_DATA	SEGMENT
??_R0?AVBaseObject@Ogre@@@8 DD FLAT:??_7type_info@@6B@	; Ogre::BaseObject `RTTI Type Descriptor'
	DD	00H
	DB	'.?AVBaseObject@Ogre@@', 00H
_DATA	ENDS
;	COMDAT ??_R1A@?0A@EA@BaseObject@Ogre@@8
rdata$r	SEGMENT
??_R1A@?0A@EA@BaseObject@Ogre@@8 DD FLAT:??_R0?AVBaseObject@Ogre@@@8 ; Ogre::BaseObject::`RTTI Base Class Descriptor at (0,-1,0,64)'
	DD	01H
	DD	00H
	DD	0ffffffffH
	DD	00H
	DD	040H
	DD	FLAT:??_R3BaseObject@Ogre@@8
rdata$r	ENDS
;	COMDAT ??_R2RenderTarget@Ogre@@8
rdata$r	SEGMENT
??_R2RenderTarget@Ogre@@8 DD FLAT:??_R1A@?0A@EA@RenderTarget@Ogre@@8 ; Ogre::RenderTarget::`RTTI Base Class Array'
	DD	FLAT:??_R1A@?0A@EA@BaseObject@Ogre@@8
	DD	FLAT:??_R13?0A@EA@MemoryDelegation@Ogre@@8
rdata$r	ENDS
;	COMDAT ??_R3RenderTarget@Ogre@@8
rdata$r	SEGMENT
??_R3RenderTarget@Ogre@@8 DD 00H			; Ogre::RenderTarget::`RTTI Class Hierarchy Descriptor'
	DD	00H
	DD	03H
	DD	FLAT:??_R2RenderTarget@Ogre@@8
rdata$r	ENDS
;	COMDAT ??_R0?AVRenderTarget@Ogre@@@8
_DATA	SEGMENT
??_R0?AVRenderTarget@Ogre@@@8 DD FLAT:??_7type_info@@6B@ ; Ogre::RenderTarget `RTTI Type Descriptor'
	DD	00H
	DB	'.?AVRenderTarget@Ogre@@', 00H
_DATA	ENDS
;	COMDAT ??_R1A@?0A@EA@RenderTarget@Ogre@@8
rdata$r	SEGMENT
??_R1A@?0A@EA@RenderTarget@Ogre@@8 DD FLAT:??_R0?AVRenderTarget@Ogre@@@8 ; Ogre::RenderTarget::`RTTI Base Class Descriptor at (0,-1,0,64)'
	DD	02H
	DD	00H
	DD	0ffffffffH
	DD	00H
	DD	040H
	DD	FLAT:??_R3RenderTarget@Ogre@@8
rdata$r	ENDS
;	COMDAT ??_R2TextureRenderTarget@Ogre@@8
rdata$r	SEGMENT
??_R2TextureRenderTarget@Ogre@@8 DD FLAT:??_R1A@?0A@EA@TextureRenderTarget@Ogre@@8 ; Ogre::TextureRenderTarget::`RTTI Base Class Array'
	DD	FLAT:??_R1A@?0A@EA@RenderTarget@Ogre@@8
	DD	FLAT:??_R1A@?0A@EA@BaseObject@Ogre@@8
	DD	FLAT:??_R13?0A@EA@MemoryDelegation@Ogre@@8
rdata$r	ENDS
;	COMDAT ??_R3TextureRenderTarget@Ogre@@8
rdata$r	SEGMENT
??_R3TextureRenderTarget@Ogre@@8 DD 00H			; Ogre::TextureRenderTarget::`RTTI Class Hierarchy Descriptor'
	DD	00H
	DD	04H
	DD	FLAT:??_R2TextureRenderTarget@Ogre@@8
rdata$r	ENDS
;	COMDAT ??_R0?AVTextureRenderTarget@Ogre@@@8
_DATA	SEGMENT
??_R0?AVTextureRenderTarget@Ogre@@@8 DD FLAT:??_7type_info@@6B@ ; Ogre::TextureRenderTarget `RTTI Type Descriptor'
	DD	00H
	DB	'.?AVTextureRenderTarget@Ogre@@', 00H
_DATA	ENDS
;	COMDAT ??_R1A@?0A@EA@TextureRenderTarget@Ogre@@8
rdata$r	SEGMENT
??_R1A@?0A@EA@TextureRenderTarget@Ogre@@8 DD FLAT:??_R0?AVTextureRenderTarget@Ogre@@@8 ; Ogre::TextureRenderTarget::`RTTI Base Class Descriptor at (0,-1,0,64)'
	DD	03H
	DD	00H
	DD	0ffffffffH
	DD	00H
	DD	040H
	DD	FLAT:??_R3TextureRenderTarget@Ogre@@8
rdata$r	ENDS
;	COMDAT ??_R1A@?0A@EA@D3D9TextureRenderTarget@Ogre@@8
rdata$r	SEGMENT
??_R1A@?0A@EA@D3D9TextureRenderTarget@Ogre@@8 DD FLAT:??_R0?AVD3D9TextureRenderTarget@Ogre@@@8 ; Ogre::D3D9TextureRenderTarget::`RTTI Base Class Descriptor at (0,-1,0,64)'
	DD	04H
	DD	00H
	DD	0ffffffffH
	DD	00H
	DD	040H
	DD	FLAT:??_R3D3D9TextureRenderTarget@Ogre@@8
rdata$r	ENDS
;	COMDAT ??_R2D3D9TextureRenderTarget@Ogre@@8
rdata$r	SEGMENT
??_R2D3D9TextureRenderTarget@Ogre@@8 DD FLAT:??_R1A@?0A@EA@D3D9TextureRenderTarget@Ogre@@8 ; Ogre::D3D9TextureRenderTarget::`RTTI Base Class Array'
	DD	FLAT:??_R1A@?0A@EA@TextureRenderTarget@Ogre@@8
	DD	FLAT:??_R1A@?0A@EA@RenderTarget@Ogre@@8
	DD	FLAT:??_R1A@?0A@EA@BaseObject@Ogre@@8
	DD	FLAT:??_R13?0A@EA@MemoryDelegation@Ogre@@8
rdata$r	ENDS
;	COMDAT ??_R3D3D9TextureRenderTarget@Ogre@@8
rdata$r	SEGMENT
??_R3D3D9TextureRenderTarget@Ogre@@8 DD 00H		; Ogre::D3D9TextureRenderTarget::`RTTI Class Hierarchy Descriptor'
	DD	00H
	DD	05H
	DD	FLAT:??_R2D3D9TextureRenderTarget@Ogre@@8
rdata$r	ENDS
;	COMDAT ??_R0?AVD3D9TextureRenderTarget@Ogre@@@8
_DATA	SEGMENT
??_R0?AVD3D9TextureRenderTarget@Ogre@@@8 DD FLAT:??_7type_info@@6B@ ; Ogre::D3D9TextureRenderTarget `RTTI Type Descriptor'
	DD	00H
	DB	'.?AVD3D9TextureRenderTarget@Ogre@@', 00H
_DATA	ENDS
;	COMDAT ??_R4D3D9TextureRenderTarget@Ogre@@6B@
rdata$r	SEGMENT
??_R4D3D9TextureRenderTarget@Ogre@@6B@ DD 00H		; Ogre::D3D9TextureRenderTarget::`RTTI Complete Object Locator'
	DD	00H
	DD	00H
	DD	FLAT:??_R0?AVD3D9TextureRenderTarget@Ogre@@@8
	DD	FLAT:??_R3D3D9TextureRenderTarget@Ogre@@8
rdata$r	ENDS
;	COMDAT ??_7D3D9TextureRenderTarget@Ogre@@6B@
CONST	SEGMENT
??_7D3D9TextureRenderTarget@Ogre@@6B@ DD FLAT:??_R4D3D9TextureRenderTarget@Ogre@@6B@ ; Ogre::D3D9TextureRenderTarget::`vftable'
	DD	FLAT:?getRTTI@TextureRenderTarget@Ogre@@UBEPBVRuntimeClass@2@XZ
	DD	FLAT:?release@BaseObject@Ogre@@UAEXXZ
	DD	FLAT:?addRef@BaseObject@Ogre@@UAEXXZ
	DD	FLAT:?getRefCount@BaseObject@Ogre@@UAEHXZ
	DD	FLAT:?_serialize@BaseObject@Ogre@@UAEXAAVArchive@2@H@Z
	DD	FLAT:??_ED3D9TextureRenderTarget@Ogre@@UAEPAXI@Z
	DD	FLAT:?deleteThis@D3D9TextureRenderTarget@Ogre@@UAEXXZ
	DD	FLAT:?getSize@D3D9TextureRenderTarget@Ogre@@UAEXAAI0@Z
	DD	FLAT:?beginScene@D3D9TextureRenderTarget@Ogre@@UAE_NXZ
	DD	FLAT:?endScene@D3D9TextureRenderTarget@Ogre@@UAEXXZ
	DD	FLAT:?isSuccessCreateRenderTarget@D3D9TextureRenderTarget@Ogre@@UAE_NXZ
	DD	FLAT:?isSuccessCreateDSBuffer@D3D9TextureRenderTarget@Ogre@@UAE_NXZ
	DD	FLAT:?setStretchRect@D3D9TextureRenderTarget@Ogre@@UAEXHHHHHHHH@Z
	DD	FLAT:?getColorTexture@D3D9TextureRenderTarget@Ogre@@UAEPAVHardwarePixelBuffer@2@XZ
CONST	ENDS
xdata$x	SEGMENT
__unwindtable$??0D3D9TextureRenderTarget@Ogre@@QAE@PAVD3D9RenderSystem@1@PAVD3D9HardwarePixelBuffer@1@IHW4RenderTargetType@01@H@Z DD 0ffffffffH
	DD	FLAT:__unwindfunclet$??0D3D9TextureRenderTarget@Ogre@@QAE@PAVD3D9RenderSystem@1@PAVD3D9HardwarePixelBuffer@1@IHW4RenderTargetType@01@H@Z$0
__ehfuncinfo$??0D3D9TextureRenderTarget@Ogre@@QAE@PAVD3D9RenderSystem@1@PAVD3D9HardwarePixelBuffer@1@IHW4RenderTargetType@01@H@Z DD 019930522H
	DD	01H
	DD	FLAT:__unwindtable$??0D3D9TextureRenderTarget@Ogre@@QAE@PAVD3D9RenderSystem@1@PAVD3D9HardwarePixelBuffer@1@IHW4RenderTargetType@01@H@Z
	DD	2 DUP(00H)
	DD	2 DUP(00H)
	DD	00H
	DD	00H
; Function compile flags: /Odtp
xdata$x	ENDS
_TEXT	SEGMENT
_this$ = -56						; size = 4
_i$138220 = -52						; size = 4
_surfdesc$ = -48					; size = 32
_psurface$ = -16					; size = 4
__$EHRec$ = -12						; size = 12
_prs$ = 8						; size = 4
_pbuf$ = 12						; size = 4
_index$ = 16						; size = 4
_depthbits$ = 20					; size = 4
_rttype$ = 24						; size = 4
_multisample$ = 28					; size = 4
??0D3D9TextureRenderTarget@Ogre@@QAE@PAVD3D9RenderSystem@1@PAVD3D9HardwarePixelBuffer@1@IHW4RenderTargetType@01@H@Z PROC ; Ogre::D3D9TextureRenderTarget::D3D9TextureRenderTarget
; _this$ = ecx

; 455  : 	{

	push	ebp
	mov	ebp, esp
	push	-1
	push	__ehhandler$??0D3D9TextureRenderTarget@Ogre@@QAE@PAVD3D9RenderSystem@1@PAVD3D9HardwarePixelBuffer@1@IHW4RenderTargetType@01@H@Z
	mov	eax, DWORD PTR fs:0
	push	eax
	sub	esp, 44					; 0000002cH
	mov	eax, DWORD PTR ___security_cookie
	xor	eax, ebp
	push	eax
	lea	eax, DWORD PTR __$EHRec$[ebp]
	mov	DWORD PTR fs:0, eax
	mov	DWORD PTR _this$[ebp], ecx
	mov	ecx, DWORD PTR _this$[ebp]
	call	DWORD PTR __imp_??0TextureRenderTarget@Ogre@@QAE@XZ
	mov	DWORD PTR __$EHRec$[ebp+8], 0
	mov	eax, DWORD PTR _this$[ebp]
	mov	DWORD PTR [eax], OFFSET ??_7D3D9TextureRenderTarget@Ogre@@6B@
	mov	ecx, DWORD PTR _this$[ebp]
	mov	edx, DWORD PTR _prs$[ebp]
	mov	DWORD PTR [ecx+16], edx
	mov	eax, DWORD PTR _this$[ebp]
	mov	ecx, DWORD PTR _pbuf$[ebp]
	mov	DWORD PTR [eax+20], ecx
	mov	edx, DWORD PTR _this$[ebp]
	mov	DWORD PTR [edx+24], 0
	mov	eax, DWORD PTR _this$[ebp]
	mov	ecx, DWORD PTR _index$[ebp]
	mov	DWORD PTR [eax+32], ecx
	xor	edx, edx
	cmp	DWORD PTR _depthbits$[ebp], 0
	setg	dl
	mov	eax, DWORD PTR _this$[ebp]
	mov	BYTE PTR [eax+56], dl
	mov	ecx, DWORD PTR _this$[ebp]
	mov	BYTE PTR [ecx+57], 0

; 456  : 		m_RenderTargetType = rttype;

	mov	edx, DWORD PTR _this$[ebp]
	mov	eax, DWORD PTR _rttype$[ebp]
	mov	DWORD PTR [edx+8], eax

; 457  : 		m_pColorBuf->addRef();

	mov	ecx, DWORD PTR _this$[ebp]
	mov	ecx, DWORD PTR [ecx+20]
	call	DWORD PTR __imp_?addRef@HardwarePixelBuffer@Ogre@@QAEXXZ

; 458  : 		IDirect3DSurface9 *psurface = m_pColorBuf->getSurface(m_SurfaceIndex);

	mov	edx, DWORD PTR _this$[ebp]
	mov	eax, DWORD PTR [edx+32]
	push	eax
	mov	ecx, DWORD PTR _this$[ebp]
	mov	ecx, DWORD PTR [ecx+20]
	call	?getSurface@D3D9HardwarePixelBuffer@Ogre@@QAEPAUIDirect3DSurface9@@I@Z ; Ogre::D3D9HardwarePixelBuffer::getSurface
	mov	DWORD PTR _psurface$[ebp], eax

; 459  : 		D3DSURFACE_DESC surfdesc;
; 460  : 		psurface->GetDesc(&surfdesc);

	lea	edx, DWORD PTR _surfdesc$[ebp]
	push	edx
	mov	eax, DWORD PTR _psurface$[ebp]
	mov	ecx, DWORD PTR [eax]
	mov	edx, DWORD PTR _psurface$[ebp]
	push	edx
	mov	eax, DWORD PTR [ecx+48]
	call	eax

; 461  : 		psurface->Release();

	mov	ecx, DWORD PTR _psurface$[ebp]
	mov	edx, DWORD PTR [ecx]
	mov	eax, DWORD PTR _psurface$[ebp]
	push	eax
	mov	ecx, DWORD PTR [edx+8]
	call	ecx

; 462  : 		m_Width = surfdesc.Width;

	mov	edx, DWORD PTR _this$[ebp]
	mov	eax, DWORD PTR _surfdesc$[ebp+24]
	mov	DWORD PTR [edx+36], eax

; 463  : 		m_Height = surfdesc.Height;

	mov	ecx, DWORD PTR _this$[ebp]
	mov	edx, DWORD PTR _surfdesc$[ebp+28]
	mov	DWORD PTR [ecx+40], edx

; 464  : 
; 465  : 		if(rttype == Normal_RenderTarget)

	cmp	DWORD PTR _rttype$[ebp], 0
	jne	$LN8@D3D9Textur

; 466  : 		{
; 467  : 			m_ColorFormat = surfdesc.Format;

	mov	eax, DWORD PTR _this$[ebp]
	mov	ecx, DWORD PTR _surfdesc$[ebp]
	mov	DWORD PTR [eax+44], ecx

; 468  : 
; 469  : 			for(int i=multisample; i>=0; i--)

	mov	edx, DWORD PTR _multisample$[ebp]
	mov	DWORD PTR _i$138220[ebp], edx
	jmp	SHORT $LN7@D3D9Textur
$LN6@D3D9Textur:
	mov	eax, DWORD PTR _i$138220[ebp]
	sub	eax, 1
	mov	DWORD PTR _i$138220[ebp], eax
$LN7@D3D9Textur:
	cmp	DWORD PTR _i$138220[ebp], 0
	jl	SHORT $LN5@D3D9Textur

; 470  : 			{
; 471  : 				m_MSType = MultiSampleConvert(i);

	mov	ecx, DWORD PTR _i$138220[ebp]
	push	ecx
	call	?MultiSampleConvert@Ogre@@YA?AW4_D3DMULTISAMPLE_TYPE@@H@Z ; Ogre::MultiSampleConvert
	add	esp, 4
	mov	edx, DWORD PTR _this$[ebp]
	mov	DWORD PTR [edx+52], eax

; 472  : 				if(m_pRS->getProperTargetDepthFormat(m_DSFormat, m_MSType, m_ColorFormat, depthbits)) break;

	mov	eax, DWORD PTR _depthbits$[ebp]
	push	eax
	mov	ecx, DWORD PTR _this$[ebp]
	mov	edx, DWORD PTR [ecx+44]
	push	edx
	mov	eax, DWORD PTR _this$[ebp]
	mov	ecx, DWORD PTR [eax+52]
	push	ecx
	mov	edx, DWORD PTR _this$[ebp]
	add	edx, 48					; 00000030H
	push	edx
	mov	eax, DWORD PTR _this$[ebp]
	mov	ecx, DWORD PTR [eax+16]
	call	?getProperTargetDepthFormat@D3D9RenderSystem@Ogre@@QAE_NAAW4_D3DFORMAT@@W4_D3DMULTISAMPLE_TYPE@@W43@H@Z ; Ogre::D3D9RenderSystem::getProperTargetDepthFormat
	movzx	ecx, al
	test	ecx, ecx
	je	SHORT $LN4@D3D9Textur
	jmp	SHORT $LN5@D3D9Textur
$LN4@D3D9Textur:

; 473  : 			}

	jmp	SHORT $LN6@D3D9Textur
$LN5@D3D9Textur:

; 474  : 			assert(m_DSFormat != D3DFMT_UNKNOWN);
; 475  : 
; 476  : 			if(m_MSType != D3DMULTISAMPLE_NONE)

	mov	edx, DWORD PTR _this$[ebp]
	cmp	DWORD PTR [edx+52], 0
	je	SHORT $LN3@D3D9Textur

; 477  : 			{
; 478  : 				requireOrReleaseRenderTarget(true);

	push	1
	mov	ecx, DWORD PTR _this$[ebp]
	call	?requireOrReleaseRenderTarget@D3D9TextureRenderTarget@Ogre@@QAEX_N@Z ; Ogre::D3D9TextureRenderTarget::requireOrReleaseRenderTarget

; 479  : 				requireOrReleaseRenderTarget(false);

	push	0
	mov	ecx, DWORD PTR _this$[ebp]
	call	?requireOrReleaseRenderTarget@D3D9TextureRenderTarget@Ogre@@QAEX_N@Z ; Ogre::D3D9TextureRenderTarget::requireOrReleaseRenderTarget
$LN3@D3D9Textur:

; 480  : 			}
; 481  : 
; 482  : 			if(m_HasZBuffer)

	mov	eax, DWORD PTR _this$[ebp]
	movzx	ecx, BYTE PTR [eax+56]
	test	ecx, ecx
	je	SHORT $LN2@D3D9Textur

; 483  : 			{
; 484  : 				requireOrReleaseDSBuffer(true);

	push	1
	mov	ecx, DWORD PTR _this$[ebp]
	call	?requireOrReleaseDSBuffer@D3D9TextureRenderTarget@Ogre@@QAEX_N@Z ; Ogre::D3D9TextureRenderTarget::requireOrReleaseDSBuffer

; 485  : 				requireOrReleaseDSBuffer(false);

	push	0
	mov	ecx, DWORD PTR _this$[ebp]
	call	?requireOrReleaseDSBuffer@D3D9TextureRenderTarget@Ogre@@QAEX_N@Z ; Ogre::D3D9TextureRenderTarget::requireOrReleaseDSBuffer
$LN2@D3D9Textur:

; 486  : 			}
; 487  : 		}
; 488  : 		else

	jmp	SHORT $LN9@D3D9Textur
$LN8@D3D9Textur:

; 489  : 		{
; 490  : 			m_MSType = D3DMULTISAMPLE_NONE;

	mov	edx, DWORD PTR _this$[ebp]
	mov	DWORD PTR [edx+52], 0

; 491  : 			m_DSFormat = surfdesc.Format;

	mov	eax, DWORD PTR _this$[ebp]
	mov	ecx, DWORD PTR _surfdesc$[ebp]
	mov	DWORD PTR [eax+48], ecx

; 492  : 			m_pRS->getProperTargetColorFormat(m_ColorFormat, m_MSType, m_DSFormat);

	mov	edx, DWORD PTR _this$[ebp]
	mov	eax, DWORD PTR [edx+48]
	push	eax
	mov	ecx, DWORD PTR _this$[ebp]
	mov	edx, DWORD PTR [ecx+52]
	push	edx
	mov	eax, DWORD PTR _this$[ebp]
	add	eax, 44					; 0000002cH
	push	eax
	mov	ecx, DWORD PTR _this$[ebp]
	mov	ecx, DWORD PTR [ecx+16]
	call	?getProperTargetColorFormat@D3D9RenderSystem@Ogre@@QAE_NAAW4_D3DFORMAT@@W4_D3DMULTISAMPLE_TYPE@@W43@@Z ; Ogre::D3D9RenderSystem::getProperTargetColorFormat

; 493  : 
; 494  : 			requireOrReleaseRenderTarget(true);

	push	1
	mov	ecx, DWORD PTR _this$[ebp]
	call	?requireOrReleaseRenderTarget@D3D9TextureRenderTarget@Ogre@@QAEX_N@Z ; Ogre::D3D9TextureRenderTarget::requireOrReleaseRenderTarget

; 495  : 			requireOrReleaseRenderTarget(false);

	push	0
	mov	ecx, DWORD PTR _this$[ebp]
	call	?requireOrReleaseRenderTarget@D3D9TextureRenderTarget@Ogre@@QAEX_N@Z ; Ogre::D3D9TextureRenderTarget::requireOrReleaseRenderTarget
$LN9@D3D9Textur:

; 496  : 		}
; 497  : 	}

	mov	DWORD PTR __$EHRec$[ebp+8], -1
	mov	eax, DWORD PTR _this$[ebp]
	mov	ecx, DWORD PTR __$EHRec$[ebp]
	mov	DWORD PTR fs:0, ecx
	pop	ecx
	mov	esp, ebp
	pop	ebp
	ret	24					; 00000018H
_TEXT	ENDS
text$x	SEGMENT
__unwindfunclet$??0D3D9TextureRenderTarget@Ogre@@QAE@PAVD3D9RenderSystem@1@PAVD3D9HardwarePixelBuffer@1@IHW4RenderTargetType@01@H@Z$0:
	mov	ecx, DWORD PTR _this$[ebp]
	jmp	DWORD PTR __imp_??1TextureRenderTarget@Ogre@@UAE@XZ
__ehhandler$??0D3D9TextureRenderTarget@Ogre@@QAE@PAVD3D9RenderSystem@1@PAVD3D9HardwarePixelBuffer@1@IHW4RenderTargetType@01@H@Z:
	mov	edx, DWORD PTR [esp+8]
	lea	eax, DWORD PTR [edx+12]
	mov	ecx, DWORD PTR [edx-48]
	xor	ecx, eax
	call	@__security_check_cookie@4
	mov	eax, OFFSET __ehfuncinfo$??0D3D9TextureRenderTarget@Ogre@@QAE@PAVD3D9RenderSystem@1@PAVD3D9HardwarePixelBuffer@1@IHW4RenderTargetType@01@H@Z
	jmp	___CxxFrameHandler3
text$x	ENDS
??0D3D9TextureRenderTarget@Ogre@@QAE@PAVD3D9RenderSystem@1@PAVD3D9HardwarePixelBuffer@1@IHW4RenderTargetType@01@H@Z ENDP ; Ogre::D3D9TextureRenderTarget::D3D9TextureRenderTarget
; Function compile flags: /Odtp
; File i:\svnroot\client\plugins\rendersystem_d3d9\ogred3d9hardwarepixelbuffer.h
;	COMDAT ?getSize@D3D9TextureRenderTarget@Ogre@@UAEXAAI0@Z
_TEXT	SEGMENT
_this$ = -4						; size = 4
_width$ = 8						; size = 4
_height$ = 12						; size = 4
?getSize@D3D9TextureRenderTarget@Ogre@@UAEXAAI0@Z PROC	; Ogre::D3D9TextureRenderTarget::getSize, COMDAT
; _this$ = ecx

; 100  : 		{

	push	ebp
	mov	ebp, esp
	push	ecx
	mov	DWORD PTR _this$[ebp], ecx

; 101  : 			width = m_Width;

	mov	eax, DWORD PTR _width$[ebp]
	mov	ecx, DWORD PTR _this$[ebp]
	mov	edx, DWORD PTR [ecx+36]
	mov	DWORD PTR [eax], edx

; 102  : 			height = m_Height;

	mov	eax, DWORD PTR _height$[ebp]
	mov	ecx, DWORD PTR _this$[ebp]
	mov	edx, DWORD PTR [ecx+40]
	mov	DWORD PTR [eax], edx

; 103  : 		}

	mov	esp, ebp
	pop	ebp
	ret	8
?getSize@D3D9TextureRenderTarget@Ogre@@UAEXAAI0@Z ENDP	; Ogre::D3D9TextureRenderTarget::getSize
; Function compile flags: /Odtp
_TEXT	ENDS
;	COMDAT ?getColorTexture@D3D9TextureRenderTarget@Ogre@@UAEPAVHardwarePixelBuffer@2@XZ
_TEXT	SEGMENT
_this$ = -4						; size = 4
?getColorTexture@D3D9TextureRenderTarget@Ogre@@UAEPAVHardwarePixelBuffer@2@XZ PROC ; Ogre::D3D9TextureRenderTarget::getColorTexture, COMDAT
; _this$ = ecx

; 106  : 		{

	push	ebp
	mov	ebp, esp
	push	ecx
	mov	DWORD PTR _this$[ebp], ecx

; 107  : 			return m_pColorBuf;

	mov	eax, DWORD PTR _this$[ebp]
	mov	eax, DWORD PTR [eax+20]

; 108  : 		}

	mov	esp, ebp
	pop	ebp
	ret	0
?getColorTexture@D3D9TextureRenderTarget@Ogre@@UAEPAVHardwarePixelBuffer@2@XZ ENDP ; Ogre::D3D9TextureRenderTarget::getColorTexture
; Function compile flags: /Odtp
_TEXT	ENDS
;	COMDAT ?deleteThis@D3D9TextureRenderTarget@Ogre@@UAEXXZ
_TEXT	SEGMENT
_this$ = -4						; size = 4
?deleteThis@D3D9TextureRenderTarget@Ogre@@UAEXXZ PROC	; Ogre::D3D9TextureRenderTarget::deleteThis, COMDAT
; _this$ = ecx

; 111  : 		{

	push	ebp
	mov	ebp, esp
	push	ecx
	mov	DWORD PTR _this$[ebp], ecx

; 112  : 			m_pPool->releaseRenderTarget(this);

	mov	eax, DWORD PTR _this$[ebp]
	push	eax
	mov	ecx, DWORD PTR _this$[ebp]
	mov	ecx, DWORD PTR [ecx+12]
	call	?releaseRenderTarget@D3D9PixelBufferPool@Ogre@@QAEXPAVD3D9TextureRenderTarget@2@@Z ; Ogre::D3D9PixelBufferPool::releaseRenderTarget

; 113  : 		}

	mov	esp, ebp
	pop	ebp
	ret	0
?deleteThis@D3D9TextureRenderTarget@Ogre@@UAEXXZ ENDP	; Ogre::D3D9TextureRenderTarget::deleteThis
_TEXT	ENDS
PUBLIC	??1D3D9TextureRenderTarget@Ogre@@UAE@XZ		; Ogre::D3D9TextureRenderTarget::~D3D9TextureRenderTarget
; Function compile flags: /Odtp
;	COMDAT ??_GD3D9TextureRenderTarget@Ogre@@UAEPAXI@Z
_TEXT	SEGMENT
_this$ = -4						; size = 4
___flags$ = 8						; size = 4
??_GD3D9TextureRenderTarget@Ogre@@UAEPAXI@Z PROC	; Ogre::D3D9TextureRenderTarget::`scalar deleting destructor', COMDAT
; _this$ = ecx
	push	ebp
	mov	ebp, esp
	push	ecx
	mov	DWORD PTR _this$[ebp], ecx
	mov	ecx, DWORD PTR _this$[ebp]
	call	??1D3D9TextureRenderTarget@Ogre@@UAE@XZ	; Ogre::D3D9TextureRenderTarget::~D3D9TextureRenderTarget
	mov	eax, DWORD PTR ___flags$[ebp]
	and	eax, 1
	je	SHORT $LN1@scalar@3
	push	92					; 0000005cH
	mov	ecx, DWORD PTR _this$[ebp]
	push	ecx
	call	DWORD PTR __imp_??3MemoryDelegation@Ogre@@SAXPAXI@Z
	add	esp, 8
$LN1@scalar@3:
	mov	eax, DWORD PTR _this$[ebp]
	mov	esp, ebp
	pop	ebp
	ret	4
??_GD3D9TextureRenderTarget@Ogre@@UAEPAXI@Z ENDP	; Ogre::D3D9TextureRenderTarget::`scalar deleting destructor'
_TEXT	ENDS
EXTRN	__imp_?release@HardwarePixelBuffer@Ogre@@QAEXXZ:PROC
xdata$x	SEGMENT
__unwindtable$??1D3D9TextureRenderTarget@Ogre@@UAE@XZ DD 0ffffffffH
	DD	FLAT:__unwindfunclet$??1D3D9TextureRenderTarget@Ogre@@UAE@XZ$0
__ehfuncinfo$??1D3D9TextureRenderTarget@Ogre@@UAE@XZ DD 019930522H
	DD	01H
	DD	FLAT:__unwindtable$??1D3D9TextureRenderTarget@Ogre@@UAE@XZ
	DD	2 DUP(00H)
	DD	2 DUP(00H)
	DD	00H
	DD	00H
; Function compile flags: /Odtp
; File i:\svnroot\client\plugins\rendersystem_d3d9\ogred3d9hardwarepixelbuffer.cpp
xdata$x	ENDS
_TEXT	SEGMENT
_this$ = -16						; size = 4
__$EHRec$ = -12						; size = 12
??1D3D9TextureRenderTarget@Ogre@@UAE@XZ PROC		; Ogre::D3D9TextureRenderTarget::~D3D9TextureRenderTarget
; _this$ = ecx

; 500  : 	{

	push	ebp
	mov	ebp, esp
	push	-1
	push	__ehhandler$??1D3D9TextureRenderTarget@Ogre@@UAE@XZ
	mov	eax, DWORD PTR fs:0
	push	eax
	push	ecx
	mov	eax, DWORD PTR ___security_cookie
	xor	eax, ebp
	push	eax
	lea	eax, DWORD PTR __$EHRec$[ebp]
	mov	DWORD PTR fs:0, eax
	mov	DWORD PTR _this$[ebp], ecx
	mov	eax, DWORD PTR _this$[ebp]
	mov	DWORD PTR [eax], OFFSET ??_7D3D9TextureRenderTarget@Ogre@@6B@
	mov	DWORD PTR __$EHRec$[ebp+8], 0

; 501  : 		OGRE_RELEASE(m_pColorBuf);

	mov	ecx, DWORD PTR _this$[ebp]
	cmp	DWORD PTR [ecx+20], 0
	je	SHORT $LN2@D3D9Textur@2
	mov	edx, DWORD PTR _this$[ebp]
	mov	ecx, DWORD PTR [edx+20]
	call	DWORD PTR __imp_?release@HardwarePixelBuffer@Ogre@@QAEXXZ
	mov	eax, DWORD PTR _this$[ebp]
	mov	DWORD PTR [eax+20], 0
$LN2@D3D9Textur@2:

; 502  : 	}

	mov	DWORD PTR __$EHRec$[ebp+8], -1
	mov	ecx, DWORD PTR _this$[ebp]
	call	DWORD PTR __imp_??1TextureRenderTarget@Ogre@@UAE@XZ
	mov	ecx, DWORD PTR __$EHRec$[ebp]
	mov	DWORD PTR fs:0, ecx
	pop	ecx
	mov	esp, ebp
	pop	ebp
	ret	0
_TEXT	ENDS
text$x	SEGMENT
__unwindfunclet$??1D3D9TextureRenderTarget@Ogre@@UAE@XZ$0:
	mov	ecx, DWORD PTR _this$[ebp]
	jmp	DWORD PTR __imp_??1TextureRenderTarget@Ogre@@UAE@XZ
__ehhandler$??1D3D9TextureRenderTarget@Ogre@@UAE@XZ:
	mov	edx, DWORD PTR [esp+8]
	lea	eax, DWORD PTR [edx+12]
	mov	ecx, DWORD PTR [edx-8]
	xor	ecx, eax
	call	@__security_check_cookie@4
	mov	eax, OFFSET __ehfuncinfo$??1D3D9TextureRenderTarget@Ogre@@UAE@XZ
	jmp	___CxxFrameHandler3
text$x	ENDS
??1D3D9TextureRenderTarget@Ogre@@UAE@XZ ENDP		; Ogre::D3D9TextureRenderTarget::~D3D9TextureRenderTarget
PUBLIC	?hasRenderTarget@D3D9HardwarePixelBufferManager@Ogre@@QAE_NIIW4_D3DFORMAT@@W4_D3DMULTISAMPLE_TYPE@@@Z ; Ogre::D3D9HardwarePixelBufferManager::hasRenderTarget
EXTRN	__imp_?getSingletonPtr@?$Singleton@VHardwarePixelBufferManager@Ogre@@@Ogre@@SAPAVHardwarePixelBufferManager@2@XZ:PROC
; Function compile flags: /Odtp
_TEXT	SEGMENT
_this$ = -8						; size = 4
_pmgr$ = -4						; size = 4
?isSuccessCreateRenderTarget@D3D9TextureRenderTarget@Ogre@@UAE_NXZ PROC ; Ogre::D3D9TextureRenderTarget::isSuccessCreateRenderTarget
; _this$ = ecx

; 505  : 	{

	push	ebp
	mov	ebp, esp
	sub	esp, 8
	mov	DWORD PTR _this$[ebp], ecx

; 506  : 		D3D9HardwarePixelBufferManager *pmgr = static_cast<D3D9HardwarePixelBufferManager *>(HardwarePixelBufferManager::getSingletonPtr());

	call	DWORD PTR __imp_?getSingletonPtr@?$Singleton@VHardwarePixelBufferManager@Ogre@@@Ogre@@SAPAVHardwarePixelBufferManager@2@XZ
	mov	DWORD PTR _pmgr$[ebp], eax

; 507  : 		return pmgr->hasRenderTarget( m_Width, m_Height, m_DSFormat, m_MSType );

	mov	eax, DWORD PTR _this$[ebp]
	mov	ecx, DWORD PTR [eax+52]
	push	ecx
	mov	edx, DWORD PTR _this$[ebp]
	mov	eax, DWORD PTR [edx+48]
	push	eax
	mov	ecx, DWORD PTR _this$[ebp]
	mov	edx, DWORD PTR [ecx+40]
	push	edx
	mov	eax, DWORD PTR _this$[ebp]
	mov	ecx, DWORD PTR [eax+36]
	push	ecx
	mov	ecx, DWORD PTR _pmgr$[ebp]
	call	?hasRenderTarget@D3D9HardwarePixelBufferManager@Ogre@@QAE_NIIW4_D3DFORMAT@@W4_D3DMULTISAMPLE_TYPE@@@Z ; Ogre::D3D9HardwarePixelBufferManager::hasRenderTarget

; 508  : 	}

	mov	esp, ebp
	pop	ebp
	ret	0
?isSuccessCreateRenderTarget@D3D9TextureRenderTarget@Ogre@@UAE_NXZ ENDP ; Ogre::D3D9TextureRenderTarget::isSuccessCreateRenderTarget
_TEXT	ENDS
PUBLIC	?hasDSBuffer@D3D9HardwarePixelBufferManager@Ogre@@QAE_NIIW4_D3DFORMAT@@W4_D3DMULTISAMPLE_TYPE@@@Z ; Ogre::D3D9HardwarePixelBufferManager::hasDSBuffer
; Function compile flags: /Odtp
_TEXT	SEGMENT
_this$ = -8						; size = 4
_pmgr$ = -4						; size = 4
?isSuccessCreateDSBuffer@D3D9TextureRenderTarget@Ogre@@UAE_NXZ PROC ; Ogre::D3D9TextureRenderTarget::isSuccessCreateDSBuffer
; _this$ = ecx

; 511  : 	{

	push	ebp
	mov	ebp, esp
	sub	esp, 8
	mov	DWORD PTR _this$[ebp], ecx

; 512  : 		D3D9HardwarePixelBufferManager *pmgr = static_cast<D3D9HardwarePixelBufferManager *>(HardwarePixelBufferManager::getSingletonPtr());

	call	DWORD PTR __imp_?getSingletonPtr@?$Singleton@VHardwarePixelBufferManager@Ogre@@@Ogre@@SAPAVHardwarePixelBufferManager@2@XZ
	mov	DWORD PTR _pmgr$[ebp], eax

; 513  : 		return pmgr->hasDSBuffer( m_Width, m_Height, m_DSFormat, m_MSType );

	mov	eax, DWORD PTR _this$[ebp]
	mov	ecx, DWORD PTR [eax+52]
	push	ecx
	mov	edx, DWORD PTR _this$[ebp]
	mov	eax, DWORD PTR [edx+48]
	push	eax
	mov	ecx, DWORD PTR _this$[ebp]
	mov	edx, DWORD PTR [ecx+40]
	push	edx
	mov	eax, DWORD PTR _this$[ebp]
	mov	ecx, DWORD PTR [eax+36]
	push	ecx
	mov	ecx, DWORD PTR _pmgr$[ebp]
	call	?hasDSBuffer@D3D9HardwarePixelBufferManager@Ogre@@QAE_NIIW4_D3DFORMAT@@W4_D3DMULTISAMPLE_TYPE@@@Z ; Ogre::D3D9HardwarePixelBufferManager::hasDSBuffer

; 514  : 	}

	mov	esp, ebp
	pop	ebp
	ret	0
?isSuccessCreateDSBuffer@D3D9TextureRenderTarget@Ogre@@UAE_NXZ ENDP ; Ogre::D3D9TextureRenderTarget::isSuccessCreateDSBuffer
_TEXT	ENDS
PUBLIC	?releaseDSBuffer@D3D9HardwarePixelBufferManager@Ogre@@QAEXPAUIDirect3DSurface9@@@Z ; Ogre::D3D9HardwarePixelBufferManager::releaseDSBuffer
PUBLIC	?requireDSBuffer@D3D9HardwarePixelBufferManager@Ogre@@QAEPAUIDirect3DSurface9@@IIW4_D3DFORMAT@@W4_D3DMULTISAMPLE_TYPE@@@Z ; Ogre::D3D9HardwarePixelBufferManager::requireDSBuffer
; Function compile flags: /Odtp
_TEXT	SEGMENT
_this$ = -8						; size = 4
_pmgr$ = -4						; size = 4
_require$ = 8						; size = 1
?requireOrReleaseDSBuffer@D3D9TextureRenderTarget@Ogre@@QAEX_N@Z PROC ; Ogre::D3D9TextureRenderTarget::requireOrReleaseDSBuffer
; _this$ = ecx

; 517  : 	{

	push	ebp
	mov	ebp, esp
	sub	esp, 8
	mov	DWORD PTR _this$[ebp], ecx

; 518  : 		D3D9HardwarePixelBufferManager *pmgr = static_cast<D3D9HardwarePixelBufferManager *>(HardwarePixelBufferManager::getSingletonPtr());

	call	DWORD PTR __imp_?getSingletonPtr@?$Singleton@VHardwarePixelBufferManager@Ogre@@@Ogre@@SAPAVHardwarePixelBufferManager@2@XZ
	mov	DWORD PTR _pmgr$[ebp], eax

; 519  : 
; 520  : 		if(require)	m_pDSBuf = pmgr->requireDSBuffer(m_Width, m_Height, m_DSFormat, m_MSType);

	movzx	eax, BYTE PTR _require$[ebp]
	test	eax, eax
	je	SHORT $LN2@requireOrR
	mov	ecx, DWORD PTR _this$[ebp]
	mov	edx, DWORD PTR [ecx+52]
	push	edx
	mov	eax, DWORD PTR _this$[ebp]
	mov	ecx, DWORD PTR [eax+48]
	push	ecx
	mov	edx, DWORD PTR _this$[ebp]
	mov	eax, DWORD PTR [edx+40]
	push	eax
	mov	ecx, DWORD PTR _this$[ebp]
	mov	edx, DWORD PTR [ecx+36]
	push	edx
	mov	ecx, DWORD PTR _pmgr$[ebp]
	call	?requireDSBuffer@D3D9HardwarePixelBufferManager@Ogre@@QAEPAUIDirect3DSurface9@@IIW4_D3DFORMAT@@W4_D3DMULTISAMPLE_TYPE@@@Z ; Ogre::D3D9HardwarePixelBufferManager::requireDSBuffer
	mov	ecx, DWORD PTR _this$[ebp]
	mov	DWORD PTR [ecx+24], eax

; 521  : 		else

	jmp	SHORT $LN3@requireOrR
$LN2@requireOrR:

; 522  : 		{
; 523  : 			pmgr->releaseDSBuffer(m_pDSBuf);

	mov	edx, DWORD PTR _this$[ebp]
	mov	eax, DWORD PTR [edx+24]
	push	eax
	mov	ecx, DWORD PTR _pmgr$[ebp]
	call	?releaseDSBuffer@D3D9HardwarePixelBufferManager@Ogre@@QAEXPAUIDirect3DSurface9@@@Z ; Ogre::D3D9HardwarePixelBufferManager::releaseDSBuffer

; 524  : 			m_pDSBuf = NULL;

	mov	ecx, DWORD PTR _this$[ebp]
	mov	DWORD PTR [ecx+24], 0
$LN3@requireOrR:

; 525  : 		}
; 526  : 	}

	mov	esp, ebp
	pop	ebp
	ret	4
?requireOrReleaseDSBuffer@D3D9TextureRenderTarget@Ogre@@QAEX_N@Z ENDP ; Ogre::D3D9TextureRenderTarget::requireOrReleaseDSBuffer
_TEXT	ENDS
PUBLIC	?releaseRenderTarget@D3D9HardwarePixelBufferManager@Ogre@@QAEXPAUIDirect3DSurface9@@@Z ; Ogre::D3D9HardwarePixelBufferManager::releaseRenderTarget
PUBLIC	?requireRenderTarget@D3D9HardwarePixelBufferManager@Ogre@@QAEPAUIDirect3DSurface9@@IIW4_D3DFORMAT@@W4_D3DMULTISAMPLE_TYPE@@@Z ; Ogre::D3D9HardwarePixelBufferManager::requireRenderTarget
; Function compile flags: /Odtp
_TEXT	SEGMENT
_this$ = -8						; size = 4
_pmgr$ = -4						; size = 4
_require$ = 8						; size = 1
?requireOrReleaseRenderTarget@D3D9TextureRenderTarget@Ogre@@QAEX_N@Z PROC ; Ogre::D3D9TextureRenderTarget::requireOrReleaseRenderTarget
; _this$ = ecx

; 529  : 	{

	push	ebp
	mov	ebp, esp
	sub	esp, 8
	mov	DWORD PTR _this$[ebp], ecx

; 530  : 		D3D9HardwarePixelBufferManager *pmgr = static_cast<D3D9HardwarePixelBufferManager *>(HardwarePixelBufferManager::getSingletonPtr());

	call	DWORD PTR __imp_?getSingletonPtr@?$Singleton@VHardwarePixelBufferManager@Ogre@@@Ogre@@SAPAVHardwarePixelBufferManager@2@XZ
	mov	DWORD PTR _pmgr$[ebp], eax

; 531  : 
; 532  : 		if(require)	m_pRenderTarget = pmgr->requireRenderTarget(m_Width, m_Height, m_ColorFormat, m_MSType);

	movzx	eax, BYTE PTR _require$[ebp]
	test	eax, eax
	je	SHORT $LN2@requireOrR@2
	mov	ecx, DWORD PTR _this$[ebp]
	mov	edx, DWORD PTR [ecx+52]
	push	edx
	mov	eax, DWORD PTR _this$[ebp]
	mov	ecx, DWORD PTR [eax+44]
	push	ecx
	mov	edx, DWORD PTR _this$[ebp]
	mov	eax, DWORD PTR [edx+40]
	push	eax
	mov	ecx, DWORD PTR _this$[ebp]
	mov	edx, DWORD PTR [ecx+36]
	push	edx
	mov	ecx, DWORD PTR _pmgr$[ebp]
	call	?requireRenderTarget@D3D9HardwarePixelBufferManager@Ogre@@QAEPAUIDirect3DSurface9@@IIW4_D3DFORMAT@@W4_D3DMULTISAMPLE_TYPE@@@Z ; Ogre::D3D9HardwarePixelBufferManager::requireRenderTarget
	mov	ecx, DWORD PTR _this$[ebp]
	mov	DWORD PTR [ecx+28], eax

; 533  : 		else

	jmp	SHORT $LN3@requireOrR@2
$LN2@requireOrR@2:

; 534  : 		{
; 535  : 			pmgr->releaseRenderTarget(m_pRenderTarget);

	mov	edx, DWORD PTR _this$[ebp]
	mov	eax, DWORD PTR [edx+28]
	push	eax
	mov	ecx, DWORD PTR _pmgr$[ebp]
	call	?releaseRenderTarget@D3D9HardwarePixelBufferManager@Ogre@@QAEXPAUIDirect3DSurface9@@@Z ; Ogre::D3D9HardwarePixelBufferManager::releaseRenderTarget

; 536  : 			m_pRenderTarget = NULL;

	mov	ecx, DWORD PTR _this$[ebp]
	mov	DWORD PTR [ecx+28], 0
$LN3@requireOrR@2:

; 537  : 		}
; 538  : 	}

	mov	esp, ebp
	pop	ebp
	ret	4
?requireOrReleaseRenderTarget@D3D9TextureRenderTarget@Ogre@@QAEX_N@Z ENDP ; Ogre::D3D9TextureRenderTarget::requireOrReleaseRenderTarget
_TEXT	ENDS
EXTRN	?getColorBuffer@D3DRenderWindow@Ogre@@QAEPAUIDirect3DSurface9@@XZ:PROC ; Ogre::D3DRenderWindow::getColorBuffer
; Function compile flags: /Odtp
_TEXT	SEGMENT
tv229 = -52						; size = 4
tv211 = -48						; size = 4
tv180 = -44						; size = 4
tv171 = -40						; size = 4
tv143 = -36						; size = 4
tv89 = -32						; size = 4
tv74 = -28						; size = 4
_this$ = -24						; size = 4
_pSurf$138281 = -20					; size = 4
_hr$138278 = -16					; size = 4
_psurface$138277 = -12					; size = 4
_window$138275 = -8					; size = 4
_pSurf$138271 = -4					; size = 4
?beginScene@D3D9TextureRenderTarget@Ogre@@UAE_NXZ PROC	; Ogre::D3D9TextureRenderTarget::beginScene
; _this$ = ecx

; 541  : 	{

	push	ebp
	mov	ebp, esp
	sub	esp, 52					; 00000034H
	mov	DWORD PTR _this$[ebp], ecx

; 542  : 		if(m_RenderTargetType == Normal_RenderTarget)

	mov	eax, DWORD PTR _this$[ebp]
	cmp	DWORD PTR [eax+8], 0
	jne	$LN9@beginScene

; 543  : 		{
; 544  : 			if(m_MSType != D3DMULTISAMPLE_NONE) //multisamplerendertarget

	mov	ecx, DWORD PTR _this$[ebp]
	cmp	DWORD PTR [ecx+52], 0
	je	SHORT $LN8@beginScene

; 545  : 			{
; 546  : 				requireOrReleaseRenderTarget(true);

	push	1
	mov	ecx, DWORD PTR _this$[ebp]
	call	?requireOrReleaseRenderTarget@D3D9TextureRenderTarget@Ogre@@QAEX_N@Z ; Ogre::D3D9TextureRenderTarget::requireOrReleaseRenderTarget

; 547  : 				m_pRS->getD3DDevice()->SetRenderTarget(0, m_pRenderTarget);

	mov	edx, DWORD PTR _this$[ebp]
	mov	ecx, DWORD PTR [edx+16]
	call	?getD3DDevice@D3D9RenderSystem@Ogre@@QAEPAUIDirect3DDevice9@@XZ ; Ogre::D3D9RenderSystem::getD3DDevice
	mov	DWORD PTR tv74[ebp], eax
	mov	eax, DWORD PTR _this$[ebp]
	mov	ecx, DWORD PTR [eax+28]
	push	ecx
	push	0
	mov	edx, DWORD PTR tv74[ebp]
	push	edx
	mov	eax, DWORD PTR tv74[ebp]
	mov	ecx, DWORD PTR [eax]
	mov	edx, DWORD PTR [ecx+148]
	call	edx

; 548  : 			}
; 549  : 			else

	jmp	SHORT $LN7@beginScene
$LN8@beginScene:

; 550  : 			{
; 551  : 				IDirect3DSurface9* pSurf;
; 552  : 				pSurf = m_pColorBuf->getSurface(m_SurfaceIndex);

	mov	eax, DWORD PTR _this$[ebp]
	mov	ecx, DWORD PTR [eax+32]
	push	ecx
	mov	edx, DWORD PTR _this$[ebp]
	mov	ecx, DWORD PTR [edx+20]
	call	?getSurface@D3D9HardwarePixelBuffer@Ogre@@QAEPAUIDirect3DSurface9@@I@Z ; Ogre::D3D9HardwarePixelBuffer::getSurface
	mov	DWORD PTR _pSurf$138271[ebp], eax

; 553  : 				m_pRS->getD3DDevice()->SetRenderTarget(0, pSurf);

	mov	eax, DWORD PTR _this$[ebp]
	mov	ecx, DWORD PTR [eax+16]
	call	?getD3DDevice@D3D9RenderSystem@Ogre@@QAEPAUIDirect3DDevice9@@XZ ; Ogre::D3D9RenderSystem::getD3DDevice
	mov	DWORD PTR tv89[ebp], eax
	mov	ecx, DWORD PTR _pSurf$138271[ebp]
	push	ecx
	push	0
	mov	edx, DWORD PTR tv89[ebp]
	push	edx
	mov	eax, DWORD PTR tv89[ebp]
	mov	ecx, DWORD PTR [eax]
	mov	edx, DWORD PTR [ecx+148]
	call	edx

; 554  : 				SAFE_RELEASE(pSurf);

	cmp	DWORD PTR _pSurf$138271[ebp], 0
	je	SHORT $LN7@beginScene
	mov	eax, DWORD PTR _pSurf$138271[ebp]
	mov	ecx, DWORD PTR [eax]
	mov	edx, DWORD PTR _pSurf$138271[ebp]
	push	edx
	mov	eax, DWORD PTR [ecx+8]
	call	eax
	mov	DWORD PTR _pSurf$138271[ebp], 0
$LN7@beginScene:

; 555  : 			}
; 556  : 			
; 557  : 			if(m_HasZBuffer)

	mov	ecx, DWORD PTR _this$[ebp]
	movzx	edx, BYTE PTR [ecx+56]
	test	edx, edx
	je	SHORT $LN5@beginScene

; 558  : 			{
; 559  : 				requireOrReleaseDSBuffer(true);

	push	1
	mov	ecx, DWORD PTR _this$[ebp]
	call	?requireOrReleaseDSBuffer@D3D9TextureRenderTarget@Ogre@@QAEX_N@Z ; Ogre::D3D9TextureRenderTarget::requireOrReleaseDSBuffer

; 560  : 				m_pRS->getD3DDevice()->SetDepthStencilSurface(m_pDSBuf);

	mov	eax, DWORD PTR _this$[ebp]
	mov	ecx, DWORD PTR [eax+16]
	call	?getD3DDevice@D3D9RenderSystem@Ogre@@QAEPAUIDirect3DDevice9@@XZ ; Ogre::D3D9RenderSystem::getD3DDevice
	mov	DWORD PTR tv143[ebp], eax
	mov	ecx, DWORD PTR _this$[ebp]
	mov	edx, DWORD PTR [ecx+24]
	push	edx
	mov	eax, DWORD PTR tv143[ebp]
	push	eax
	mov	ecx, DWORD PTR tv143[ebp]
	mov	edx, DWORD PTR [ecx]
	mov	eax, DWORD PTR [edx+156]
	call	eax
$LN5@beginScene:

; 561  : 			}
; 562  : 			if( m_bStretch )

	mov	ecx, DWORD PTR _this$[ebp]
	movzx	edx, BYTE PTR [ecx+57]
	test	edx, edx
	je	$LN4@beginScene

; 563  : 			{
; 564  : 				D3DRenderWindow* window = (D3DRenderWindow*)m_pRS->getMainWindow();

	mov	eax, DWORD PTR _this$[ebp]
	mov	ecx, DWORD PTR [eax+16]
	mov	edx, DWORD PTR _this$[ebp]
	mov	eax, DWORD PTR [edx+16]
	mov	edx, DWORD PTR [ecx]
	mov	ecx, eax
	mov	eax, DWORD PTR [edx+32]
	call	eax
	mov	DWORD PTR _window$138275[ebp], eax

; 565  : 				IDirect3DSurface9* psurface = NULL;

	mov	DWORD PTR _psurface$138277[ebp], 0

; 566  : 				m_pRS->getD3DDevice()->GetRenderTarget(0,&psurface);

	mov	ecx, DWORD PTR _this$[ebp]
	mov	ecx, DWORD PTR [ecx+16]
	call	?getD3DDevice@D3D9RenderSystem@Ogre@@QAEPAUIDirect3DDevice9@@XZ ; Ogre::D3D9RenderSystem::getD3DDevice
	mov	DWORD PTR tv171[ebp], eax
	lea	edx, DWORD PTR _psurface$138277[ebp]
	push	edx
	push	0
	mov	eax, DWORD PTR tv171[ebp]
	push	eax
	mov	ecx, DWORD PTR tv171[ebp]
	mov	edx, DWORD PTR [ecx]
	mov	eax, DWORD PTR [edx+152]
	call	eax

; 567  : 				HRESULT hr = m_pRS->getD3DDevice()->StretchRect( window->getColorBuffer(), &m_StretchSrcRect, psurface, &m_StretchDestRect, D3DTEXF_POINT );

	mov	ecx, DWORD PTR _this$[ebp]
	mov	ecx, DWORD PTR [ecx+16]
	call	?getD3DDevice@D3D9RenderSystem@Ogre@@QAEPAUIDirect3DDevice9@@XZ ; Ogre::D3D9RenderSystem::getD3DDevice
	mov	DWORD PTR tv180[ebp], eax
	push	1
	mov	edx, DWORD PTR _this$[ebp]
	add	edx, 76					; 0000004cH
	push	edx
	mov	eax, DWORD PTR _psurface$138277[ebp]
	push	eax
	mov	ecx, DWORD PTR _this$[ebp]
	add	ecx, 60					; 0000003cH
	push	ecx
	mov	ecx, DWORD PTR _window$138275[ebp]
	call	?getColorBuffer@D3DRenderWindow@Ogre@@QAEPAUIDirect3DSurface9@@XZ ; Ogre::D3DRenderWindow::getColorBuffer
	push	eax
	mov	edx, DWORD PTR tv180[ebp]
	push	edx
	mov	eax, DWORD PTR tv180[ebp]
	mov	ecx, DWORD PTR [eax]
	mov	edx, DWORD PTR [ecx+136]
	call	edx
	mov	DWORD PTR _hr$138278[ebp], eax

; 568  : 				SAFE_RELEASE(psurface);

	cmp	DWORD PTR _psurface$138277[ebp], 0
	je	SHORT $LN3@beginScene
	mov	eax, DWORD PTR _psurface$138277[ebp]
	mov	ecx, DWORD PTR [eax]
	mov	edx, DWORD PTR _psurface$138277[ebp]
	push	edx
	mov	eax, DWORD PTR [ecx+8]
	call	eax
	mov	DWORD PTR _psurface$138277[ebp], 0
$LN3@beginScene:

; 569  : 				m_bStretch = false;

	mov	ecx, DWORD PTR _this$[ebp]
	mov	BYTE PTR [ecx+57], 0
$LN4@beginScene:

; 570  : 			}
; 571  : 		}
; 572  : 		else

	jmp	$LN2@beginScene
$LN9@beginScene:

; 573  : 		{
; 574  : 			IDirect3DSurface9* pSurf;
; 575  : 			pSurf = m_pColorBuf->getSurface(m_SurfaceIndex);

	mov	edx, DWORD PTR _this$[ebp]
	mov	eax, DWORD PTR [edx+32]
	push	eax
	mov	ecx, DWORD PTR _this$[ebp]
	mov	ecx, DWORD PTR [ecx+20]
	call	?getSurface@D3D9HardwarePixelBuffer@Ogre@@QAEPAUIDirect3DSurface9@@I@Z ; Ogre::D3D9HardwarePixelBuffer::getSurface
	mov	DWORD PTR _pSurf$138281[ebp], eax

; 576  : 			m_pRS->getD3DDevice()->SetDepthStencilSurface(pSurf);

	mov	edx, DWORD PTR _this$[ebp]
	mov	ecx, DWORD PTR [edx+16]
	call	?getD3DDevice@D3D9RenderSystem@Ogre@@QAEPAUIDirect3DDevice9@@XZ ; Ogre::D3D9RenderSystem::getD3DDevice
	mov	DWORD PTR tv211[ebp], eax
	mov	eax, DWORD PTR _pSurf$138281[ebp]
	push	eax
	mov	ecx, DWORD PTR tv211[ebp]
	push	ecx
	mov	edx, DWORD PTR tv211[ebp]
	mov	eax, DWORD PTR [edx]
	mov	ecx, DWORD PTR [eax+156]
	call	ecx

; 577  : 			SAFE_RELEASE(pSurf);

	cmp	DWORD PTR _pSurf$138281[ebp], 0
	je	SHORT $LN1@beginScene
	mov	edx, DWORD PTR _pSurf$138281[ebp]
	mov	eax, DWORD PTR [edx]
	mov	ecx, DWORD PTR _pSurf$138281[ebp]
	push	ecx
	mov	edx, DWORD PTR [eax+8]
	call	edx
	mov	DWORD PTR _pSurf$138281[ebp], 0
$LN1@beginScene:

; 578  : 
; 579  : 			requireOrReleaseRenderTarget(true);

	push	1
	mov	ecx, DWORD PTR _this$[ebp]
	call	?requireOrReleaseRenderTarget@D3D9TextureRenderTarget@Ogre@@QAEX_N@Z ; Ogre::D3D9TextureRenderTarget::requireOrReleaseRenderTarget

; 580  : 			m_pRS->getD3DDevice()->SetRenderTarget(0,m_pRenderTarget);

	mov	eax, DWORD PTR _this$[ebp]
	mov	ecx, DWORD PTR [eax+16]
	call	?getD3DDevice@D3D9RenderSystem@Ogre@@QAEPAUIDirect3DDevice9@@XZ ; Ogre::D3D9RenderSystem::getD3DDevice
	mov	DWORD PTR tv229[ebp], eax
	mov	ecx, DWORD PTR _this$[ebp]
	mov	edx, DWORD PTR [ecx+28]
	push	edx
	push	0
	mov	eax, DWORD PTR tv229[ebp]
	push	eax
	mov	ecx, DWORD PTR tv229[ebp]
	mov	edx, DWORD PTR [ecx]
	mov	eax, DWORD PTR [edx+148]
	call	eax
$LN2@beginScene:

; 581  : 		}
; 582  : 
; 583  : 		return true;

	mov	al, 1

; 584  : 	}

	mov	esp, ebp
	pop	ebp
	ret	0
?beginScene@D3D9TextureRenderTarget@Ogre@@UAE_NXZ ENDP	; Ogre::D3D9TextureRenderTarget::beginScene
; Function compile flags: /Odtp
tv77 = -12						; size = 4
_this$ = -8						; size = 4
_psurface$138288 = -4					; size = 4
?endScene@D3D9TextureRenderTarget@Ogre@@UAEXXZ PROC	; Ogre::D3D9TextureRenderTarget::endScene
; _this$ = ecx

; 587  : 	{

	push	ebp
	mov	ebp, esp
	sub	esp, 12					; 0000000cH
	mov	DWORD PTR _this$[ebp], ecx

; 588  : 		if(m_RenderTargetType == Normal_RenderTarget)

	mov	eax, DWORD PTR _this$[ebp]
	cmp	DWORD PTR [eax+8], 0
	jne	SHORT $LN4@endScene

; 589  : 		{
; 590  : 			if(m_MSType != D3DMULTISAMPLE_NONE)

	mov	ecx, DWORD PTR _this$[ebp]
	cmp	DWORD PTR [ecx+52], 0
	je	SHORT $LN3@endScene

; 591  : 			{
; 592  : 				IDirect3DSurface9 *psurface = m_pColorBuf->getSurface(m_SurfaceIndex);

	mov	edx, DWORD PTR _this$[ebp]
	mov	eax, DWORD PTR [edx+32]
	push	eax
	mov	ecx, DWORD PTR _this$[ebp]
	mov	ecx, DWORD PTR [ecx+20]
	call	?getSurface@D3D9HardwarePixelBuffer@Ogre@@QAEPAUIDirect3DSurface9@@I@Z ; Ogre::D3D9HardwarePixelBuffer::getSurface
	mov	DWORD PTR _psurface$138288[ebp], eax

; 593  : 				m_pRS->getD3DDevice()->StretchRect(m_pRenderTarget, NULL, psurface, NULL, D3DTEXF_POINT);

	mov	edx, DWORD PTR _this$[ebp]
	mov	ecx, DWORD PTR [edx+16]
	call	?getD3DDevice@D3D9RenderSystem@Ogre@@QAEPAUIDirect3DDevice9@@XZ ; Ogre::D3D9RenderSystem::getD3DDevice
	mov	DWORD PTR tv77[ebp], eax
	push	1
	push	0
	mov	eax, DWORD PTR _psurface$138288[ebp]
	push	eax
	push	0
	mov	ecx, DWORD PTR _this$[ebp]
	mov	edx, DWORD PTR [ecx+28]
	push	edx
	mov	eax, DWORD PTR tv77[ebp]
	push	eax
	mov	ecx, DWORD PTR tv77[ebp]
	mov	edx, DWORD PTR [ecx]
	mov	eax, DWORD PTR [edx+136]
	call	eax

; 594  : 				psurface->Release();

	mov	ecx, DWORD PTR _psurface$138288[ebp]
	mov	edx, DWORD PTR [ecx]
	mov	eax, DWORD PTR _psurface$138288[ebp]
	push	eax
	mov	ecx, DWORD PTR [edx+8]
	call	ecx

; 595  : 
; 596  : 				requireOrReleaseRenderTarget(false);	

	push	0
	mov	ecx, DWORD PTR _this$[ebp]
	call	?requireOrReleaseRenderTarget@D3D9TextureRenderTarget@Ogre@@QAEX_N@Z ; Ogre::D3D9TextureRenderTarget::requireOrReleaseRenderTarget
$LN3@endScene:

; 597  : 			}
; 598  : 
; 599  : 			if(m_HasZBuffer)

	mov	edx, DWORD PTR _this$[ebp]
	movzx	eax, BYTE PTR [edx+56]
	test	eax, eax
	je	SHORT $LN2@endScene

; 600  : 			{
; 601  : 				requireOrReleaseDSBuffer(false);

	push	0
	mov	ecx, DWORD PTR _this$[ebp]
	call	?requireOrReleaseDSBuffer@D3D9TextureRenderTarget@Ogre@@QAEX_N@Z ; Ogre::D3D9TextureRenderTarget::requireOrReleaseDSBuffer
$LN2@endScene:

; 602  : 			}
; 603  : 		}
; 604  : 		else

	jmp	SHORT $LN5@endScene
$LN4@endScene:

; 605  : 		{
; 606  : 			requireOrReleaseRenderTarget(false);

	push	0
	mov	ecx, DWORD PTR _this$[ebp]
	call	?requireOrReleaseRenderTarget@D3D9TextureRenderTarget@Ogre@@QAEX_N@Z ; Ogre::D3D9TextureRenderTarget::requireOrReleaseRenderTarget
$LN5@endScene:

; 607  : 		}
; 608  : 	}

	mov	esp, ebp
	pop	ebp
	ret	0
?endScene@D3D9TextureRenderTarget@Ogre@@UAEXXZ ENDP	; Ogre::D3D9TextureRenderTarget::endScene
; Function compile flags: /Odtp
_this$ = -4						; size = 4
_left$ = 8						; size = 4
_top$ = 12						; size = 4
_right$ = 16						; size = 4
_bottom$ = 20						; size = 4
_dLeft$ = 24						; size = 4
_dTop$ = 28						; size = 4
_dRight$ = 32						; size = 4
_dBottom$ = 36						; size = 4
?setStretchRect@D3D9TextureRenderTarget@Ogre@@UAEXHHHHHHHH@Z PROC ; Ogre::D3D9TextureRenderTarget::setStretchRect
; _this$ = ecx

; 610  : 	{

	push	ebp
	mov	ebp, esp
	push	ecx
	mov	DWORD PTR _this$[ebp], ecx

; 611  : 		m_bStretch = true;

	mov	eax, DWORD PTR _this$[ebp]
	mov	BYTE PTR [eax+57], 1

; 612  : 		m_StretchSrcRect.left = left;

	mov	ecx, DWORD PTR _this$[ebp]
	mov	edx, DWORD PTR _left$[ebp]
	mov	DWORD PTR [ecx+60], edx

; 613  : 		m_StretchSrcRect.top = top;

	mov	eax, DWORD PTR _this$[ebp]
	mov	ecx, DWORD PTR _top$[ebp]
	mov	DWORD PTR [eax+64], ecx

; 614  : 		m_StretchSrcRect.right = right;

	mov	edx, DWORD PTR _this$[ebp]
	mov	eax, DWORD PTR _right$[ebp]
	mov	DWORD PTR [edx+68], eax

; 615  : 		m_StretchSrcRect.bottom  = bottom;

	mov	ecx, DWORD PTR _this$[ebp]
	mov	edx, DWORD PTR _bottom$[ebp]
	mov	DWORD PTR [ecx+72], edx

; 616  : 		m_StretchDestRect.left = dLeft;

	mov	eax, DWORD PTR _this$[ebp]
	mov	ecx, DWORD PTR _dLeft$[ebp]
	mov	DWORD PTR [eax+76], ecx

; 617  : 		m_StretchDestRect.top = dTop;

	mov	edx, DWORD PTR _this$[ebp]
	mov	eax, DWORD PTR _dTop$[ebp]
	mov	DWORD PTR [edx+80], eax

; 618  : 		m_StretchDestRect.right = dRight;

	mov	ecx, DWORD PTR _this$[ebp]
	mov	edx, DWORD PTR _dRight$[ebp]
	mov	DWORD PTR [ecx+84], edx

; 619  : 		m_StretchDestRect.bottom = dBottom;

	mov	eax, DWORD PTR _this$[ebp]
	mov	ecx, DWORD PTR _dBottom$[ebp]
	mov	DWORD PTR [eax+88], ecx

; 620  : 	}

	mov	esp, ebp
	pop	ebp
	ret	32					; 00000020H
?setStretchRect@D3D9TextureRenderTarget@Ogre@@UAEXHHHHHHHH@Z ENDP ; Ogre::D3D9TextureRenderTarget::setStretchRect
_TEXT	ENDS
PUBLIC	??1?$vector@URTBuffer@D3D9HardwarePixelBufferManager@Ogre@@V?$allocator@URTBuffer@D3D9HardwarePixelBufferManager@Ogre@@@std@@@std@@QAE@XZ ; std::vector<Ogre::D3D9HardwarePixelBufferManager::RTBuffer,std::allocator<Ogre::D3D9HardwarePixelBufferManager::RTBuffer> >::~vector<Ogre::D3D9HardwarePixelBufferManager::RTBuffer,std::allocator<Ogre::D3D9HardwarePixelBufferManager::RTBuffer> >
PUBLIC	??1?$vector@UDSBuffer@D3D9HardwarePixelBufferManager@Ogre@@V?$allocator@UDSBuffer@D3D9HardwarePixelBufferManager@Ogre@@@std@@@std@@QAE@XZ ; std::vector<Ogre::D3D9HardwarePixelBufferManager::DSBuffer,std::allocator<Ogre::D3D9HardwarePixelBufferManager::DSBuffer> >::~vector<Ogre::D3D9HardwarePixelBufferManager::DSBuffer,std::allocator<Ogre::D3D9HardwarePixelBufferManager::DSBuffer> >
PUBLIC	??0?$vector@URTBuffer@D3D9HardwarePixelBufferManager@Ogre@@V?$allocator@URTBuffer@D3D9HardwarePixelBufferManager@Ogre@@@std@@@std@@QAE@XZ ; std::vector<Ogre::D3D9HardwarePixelBufferManager::RTBuffer,std::allocator<Ogre::D3D9HardwarePixelBufferManager::RTBuffer> >::vector<Ogre::D3D9HardwarePixelBufferManager::RTBuffer,std::allocator<Ogre::D3D9HardwarePixelBufferManager::RTBuffer> >
PUBLIC	??0?$vector@UDSBuffer@D3D9HardwarePixelBufferManager@Ogre@@V?$allocator@UDSBuffer@D3D9HardwarePixelBufferManager@Ogre@@@std@@@std@@QAE@XZ ; std::vector<Ogre::D3D9HardwarePixelBufferManager::DSBuffer,std::allocator<Ogre::D3D9HardwarePixelBufferManager::DSBuffer> >::vector<Ogre::D3D9HardwarePixelBufferManager::DSBuffer,std::allocator<Ogre::D3D9HardwarePixelBufferManager::DSBuffer> >
PUBLIC	??_7D3D9HardwarePixelBufferManager@Ogre@@6B@	; Ogre::D3D9HardwarePixelBufferManager::`vftable'
PUBLIC	??0D3D9HardwarePixelBufferManager@Ogre@@QAE@PAVD3D9RenderSystem@1@@Z ; Ogre::D3D9HardwarePixelBufferManager::D3D9HardwarePixelBufferManager
PUBLIC	??_R4D3D9HardwarePixelBufferManager@Ogre@@6B@	; Ogre::D3D9HardwarePixelBufferManager::`RTTI Complete Object Locator'
PUBLIC	??_R0?AVD3D9HardwarePixelBufferManager@Ogre@@@8	; Ogre::D3D9HardwarePixelBufferManager `RTTI Type Descriptor'
PUBLIC	??_R3D3D9HardwarePixelBufferManager@Ogre@@8	; Ogre::D3D9HardwarePixelBufferManager::`RTTI Class Hierarchy Descriptor'
PUBLIC	??_R2D3D9HardwarePixelBufferManager@Ogre@@8	; Ogre::D3D9HardwarePixelBufferManager::`RTTI Base Class Array'
PUBLIC	??_R1A@?0A@EA@D3D9HardwarePixelBufferManager@Ogre@@8 ; Ogre::D3D9HardwarePixelBufferManager::`RTTI Base Class Descriptor at (0,-1,0,64)'
PUBLIC	??_R1A@?0A@EA@HardwarePixelBufferManager@Ogre@@8 ; Ogre::HardwarePixelBufferManager::`RTTI Base Class Descriptor at (0,-1,0,64)'
PUBLIC	??_R0?AVHardwarePixelBufferManager@Ogre@@@8	; Ogre::HardwarePixelBufferManager `RTTI Type Descriptor'
PUBLIC	??_R3HardwarePixelBufferManager@Ogre@@8		; Ogre::HardwarePixelBufferManager::`RTTI Class Hierarchy Descriptor'
PUBLIC	??_R2HardwarePixelBufferManager@Ogre@@8		; Ogre::HardwarePixelBufferManager::`RTTI Base Class Array'
PUBLIC	??_R13?0A@EA@?$Singleton@VHardwarePixelBufferManager@Ogre@@@Ogre@@8 ; Ogre::Singleton<Ogre::HardwarePixelBufferManager>::`RTTI Base Class Descriptor at (4,-1,0,64)'
PUBLIC	??_R0?AV?$Singleton@VHardwarePixelBufferManager@Ogre@@@Ogre@@@8 ; Ogre::Singleton<Ogre::HardwarePixelBufferManager> `RTTI Type Descriptor'
PUBLIC	??_R3?$Singleton@VHardwarePixelBufferManager@Ogre@@@Ogre@@8 ; Ogre::Singleton<Ogre::HardwarePixelBufferManager>::`RTTI Class Hierarchy Descriptor'
PUBLIC	??_R2?$Singleton@VHardwarePixelBufferManager@Ogre@@@Ogre@@8 ; Ogre::Singleton<Ogre::HardwarePixelBufferManager>::`RTTI Base Class Array'
PUBLIC	??_R1A@?0A@EA@?$Singleton@VHardwarePixelBufferManager@Ogre@@@Ogre@@8 ; Ogre::Singleton<Ogre::HardwarePixelBufferManager>::`RTTI Base Class Descriptor at (0,-1,0,64)'
PUBLIC	?newPixelBufferPool@D3D9HardwarePixelBufferManager@Ogre@@UAEPAVHardwarePixelBufferPool@2@W4HardwareBufferUsage@2@ABUTextureDesc@2@@Z ; Ogre::D3D9HardwarePixelBufferManager::newPixelBufferPool
EXTRN	__imp_??1HardwarePixelBufferManager@Ogre@@UAE@XZ:PROC
EXTRN	__imp_??0HardwarePixelBufferManager@Ogre@@QAE@XZ:PROC
EXTRN	??_ED3D9HardwarePixelBufferManager@Ogre@@UAEPAXI@Z:PROC ; Ogre::D3D9HardwarePixelBufferManager::`vector deleting destructor'
;	COMDAT ??_R1A@?0A@EA@?$Singleton@VHardwarePixelBufferManager@Ogre@@@Ogre@@8
rdata$r	SEGMENT
??_R1A@?0A@EA@?$Singleton@VHardwarePixelBufferManager@Ogre@@@Ogre@@8 DD FLAT:??_R0?AV?$Singleton@VHardwarePixelBufferManager@Ogre@@@Ogre@@@8 ; Ogre::Singleton<Ogre::HardwarePixelBufferManager>::`RTTI Base Class Descriptor at (0,-1,0,64)'
	DD	00H
	DD	00H
	DD	0ffffffffH
	DD	00H
	DD	040H
	DD	FLAT:??_R3?$Singleton@VHardwarePixelBufferManager@Ogre@@@Ogre@@8
rdata$r	ENDS
;	COMDAT ??_R2?$Singleton@VHardwarePixelBufferManager@Ogre@@@Ogre@@8
rdata$r	SEGMENT
??_R2?$Singleton@VHardwarePixelBufferManager@Ogre@@@Ogre@@8 DD FLAT:??_R1A@?0A@EA@?$Singleton@VHardwarePixelBufferManager@Ogre@@@Ogre@@8 ; Ogre::Singleton<Ogre::HardwarePixelBufferManager>::`RTTI Base Class Array'
rdata$r	ENDS
;	COMDAT ??_R3?$Singleton@VHardwarePixelBufferManager@Ogre@@@Ogre@@8
rdata$r	SEGMENT
??_R3?$Singleton@VHardwarePixelBufferManager@Ogre@@@Ogre@@8 DD 00H ; Ogre::Singleton<Ogre::HardwarePixelBufferManager>::`RTTI Class Hierarchy Descriptor'
	DD	00H
	DD	01H
	DD	FLAT:??_R2?$Singleton@VHardwarePixelBufferManager@Ogre@@@Ogre@@8
rdata$r	ENDS
;	COMDAT ??_R0?AV?$Singleton@VHardwarePixelBufferManager@Ogre@@@Ogre@@@8
_DATA	SEGMENT
??_R0?AV?$Singleton@VHardwarePixelBufferManager@Ogre@@@Ogre@@@8 DD FLAT:??_7type_info@@6B@ ; Ogre::Singleton<Ogre::HardwarePixelBufferManager> `RTTI Type Descriptor'
	DD	00H
	DB	'.?AV?$Singleton@VHardwarePixelBufferManager@Ogre@@@Ogre@'
	DB	'@', 00H
_DATA	ENDS
;	COMDAT ??_R13?0A@EA@?$Singleton@VHardwarePixelBufferManager@Ogre@@@Ogre@@8
rdata$r	SEGMENT
??_R13?0A@EA@?$Singleton@VHardwarePixelBufferManager@Ogre@@@Ogre@@8 DD FLAT:??_R0?AV?$Singleton@VHardwarePixelBufferManager@Ogre@@@Ogre@@@8 ; Ogre::Singleton<Ogre::HardwarePixelBufferManager>::`RTTI Base Class Descriptor at (4,-1,0,64)'
	DD	00H
	DD	04H
	DD	0ffffffffH
	DD	00H
	DD	040H
	DD	FLAT:??_R3?$Singleton@VHardwarePixelBufferManager@Ogre@@@Ogre@@8
rdata$r	ENDS
;	COMDAT ??_R2HardwarePixelBufferManager@Ogre@@8
rdata$r	SEGMENT
??_R2HardwarePixelBufferManager@Ogre@@8 DD FLAT:??_R1A@?0A@EA@HardwarePixelBufferManager@Ogre@@8 ; Ogre::HardwarePixelBufferManager::`RTTI Base Class Array'
	DD	FLAT:??_R13?0A@EA@?$Singleton@VHardwarePixelBufferManager@Ogre@@@Ogre@@8
rdata$r	ENDS
;	COMDAT ??_R3HardwarePixelBufferManager@Ogre@@8
rdata$r	SEGMENT
??_R3HardwarePixelBufferManager@Ogre@@8 DD 00H		; Ogre::HardwarePixelBufferManager::`RTTI Class Hierarchy Descriptor'
	DD	00H
	DD	02H
	DD	FLAT:??_R2HardwarePixelBufferManager@Ogre@@8
rdata$r	ENDS
;	COMDAT ??_R0?AVHardwarePixelBufferManager@Ogre@@@8
_DATA	SEGMENT
??_R0?AVHardwarePixelBufferManager@Ogre@@@8 DD FLAT:??_7type_info@@6B@ ; Ogre::HardwarePixelBufferManager `RTTI Type Descriptor'
	DD	00H
	DB	'.?AVHardwarePixelBufferManager@Ogre@@', 00H
_DATA	ENDS
;	COMDAT ??_R1A@?0A@EA@HardwarePixelBufferManager@Ogre@@8
rdata$r	SEGMENT
??_R1A@?0A@EA@HardwarePixelBufferManager@Ogre@@8 DD FLAT:??_R0?AVHardwarePixelBufferManager@Ogre@@@8 ; Ogre::HardwarePixelBufferManager::`RTTI Base Class Descriptor at (0,-1,0,64)'
	DD	01H
	DD	00H
	DD	0ffffffffH
	DD	00H
	DD	040H
	DD	FLAT:??_R3HardwarePixelBufferManager@Ogre@@8
rdata$r	ENDS
;	COMDAT ??_R1A@?0A@EA@D3D9HardwarePixelBufferManager@Ogre@@8
rdata$r	SEGMENT
??_R1A@?0A@EA@D3D9HardwarePixelBufferManager@Ogre@@8 DD FLAT:??_R0?AVD3D9HardwarePixelBufferManager@Ogre@@@8 ; Ogre::D3D9HardwarePixelBufferManager::`RTTI Base Class Descriptor at (0,-1,0,64)'
	DD	02H
	DD	00H
	DD	0ffffffffH
	DD	00H
	DD	040H
	DD	FLAT:??_R3D3D9HardwarePixelBufferManager@Ogre@@8
rdata$r	ENDS
;	COMDAT ??_R2D3D9HardwarePixelBufferManager@Ogre@@8
rdata$r	SEGMENT
??_R2D3D9HardwarePixelBufferManager@Ogre@@8 DD FLAT:??_R1A@?0A@EA@D3D9HardwarePixelBufferManager@Ogre@@8 ; Ogre::D3D9HardwarePixelBufferManager::`RTTI Base Class Array'
	DD	FLAT:??_R1A@?0A@EA@HardwarePixelBufferManager@Ogre@@8
	DD	FLAT:??_R13?0A@EA@?$Singleton@VHardwarePixelBufferManager@Ogre@@@Ogre@@8
rdata$r	ENDS
;	COMDAT ??_R3D3D9HardwarePixelBufferManager@Ogre@@8
rdata$r	SEGMENT
??_R3D3D9HardwarePixelBufferManager@Ogre@@8 DD 00H	; Ogre::D3D9HardwarePixelBufferManager::`RTTI Class Hierarchy Descriptor'
	DD	00H
	DD	03H
	DD	FLAT:??_R2D3D9HardwarePixelBufferManager@Ogre@@8
rdata$r	ENDS
;	COMDAT ??_R0?AVD3D9HardwarePixelBufferManager@Ogre@@@8
_DATA	SEGMENT
??_R0?AVD3D9HardwarePixelBufferManager@Ogre@@@8 DD FLAT:??_7type_info@@6B@ ; Ogre::D3D9HardwarePixelBufferManager `RTTI Type Descriptor'
	DD	00H
	DB	'.?AVD3D9HardwarePixelBufferManager@Ogre@@', 00H
_DATA	ENDS
;	COMDAT ??_R4D3D9HardwarePixelBufferManager@Ogre@@6B@
rdata$r	SEGMENT
??_R4D3D9HardwarePixelBufferManager@Ogre@@6B@ DD 00H	; Ogre::D3D9HardwarePixelBufferManager::`RTTI Complete Object Locator'
	DD	00H
	DD	00H
	DD	FLAT:??_R0?AVD3D9HardwarePixelBufferManager@Ogre@@@8
	DD	FLAT:??_R3D3D9HardwarePixelBufferManager@Ogre@@8
rdata$r	ENDS
;	COMDAT ??_7D3D9HardwarePixelBufferManager@Ogre@@6B@
CONST	SEGMENT
??_7D3D9HardwarePixelBufferManager@Ogre@@6B@ DD FLAT:??_R4D3D9HardwarePixelBufferManager@Ogre@@6B@ ; Ogre::D3D9HardwarePixelBufferManager::`vftable'
	DD	FLAT:??_ED3D9HardwarePixelBufferManager@Ogre@@UAEPAXI@Z
	DD	FLAT:?newPixelBufferPool@D3D9HardwarePixelBufferManager@Ogre@@UAEPAVHardwarePixelBufferPool@2@W4HardwareBufferUsage@2@ABUTextureDesc@2@@Z
CONST	ENDS
xdata$x	SEGMENT
__unwindtable$??0D3D9HardwarePixelBufferManager@Ogre@@QAE@PAVD3D9RenderSystem@1@@Z DD 0ffffffffH
	DD	FLAT:__unwindfunclet$??0D3D9HardwarePixelBufferManager@Ogre@@QAE@PAVD3D9RenderSystem@1@@Z$0
	DD	00H
	DD	FLAT:__unwindfunclet$??0D3D9HardwarePixelBufferManager@Ogre@@QAE@PAVD3D9RenderSystem@1@@Z$1
	DD	01H
	DD	FLAT:__unwindfunclet$??0D3D9HardwarePixelBufferManager@Ogre@@QAE@PAVD3D9RenderSystem@1@@Z$2
__ehfuncinfo$??0D3D9HardwarePixelBufferManager@Ogre@@QAE@PAVD3D9RenderSystem@1@@Z DD 019930522H
	DD	03H
	DD	FLAT:__unwindtable$??0D3D9HardwarePixelBufferManager@Ogre@@QAE@PAVD3D9RenderSystem@1@@Z
	DD	2 DUP(00H)
	DD	2 DUP(00H)
	DD	00H
	DD	00H
; Function compile flags: /Odtp
xdata$x	ENDS
_TEXT	SEGMENT
_this$ = -16						; size = 4
__$EHRec$ = -12						; size = 12
_prs$ = 8						; size = 4
??0D3D9HardwarePixelBufferManager@Ogre@@QAE@PAVD3D9RenderSystem@1@@Z PROC ; Ogre::D3D9HardwarePixelBufferManager::D3D9HardwarePixelBufferManager
; _this$ = ecx

; 624  : 	{

	push	ebp
	mov	ebp, esp
	push	-1
	push	__ehhandler$??0D3D9HardwarePixelBufferManager@Ogre@@QAE@PAVD3D9RenderSystem@1@@Z
	mov	eax, DWORD PTR fs:0
	push	eax
	push	ecx
	mov	eax, DWORD PTR ___security_cookie
	xor	eax, ebp
	push	eax
	lea	eax, DWORD PTR __$EHRec$[ebp]
	mov	DWORD PTR fs:0, eax
	mov	DWORD PTR _this$[ebp], ecx
	mov	ecx, DWORD PTR _this$[ebp]
	call	DWORD PTR __imp_??0HardwarePixelBufferManager@Ogre@@QAE@XZ
	mov	DWORD PTR __$EHRec$[ebp+8], 0
	mov	eax, DWORD PTR _this$[ebp]
	mov	DWORD PTR [eax], OFFSET ??_7D3D9HardwarePixelBufferManager@Ogre@@6B@
	mov	ecx, DWORD PTR _this$[ebp]
	mov	edx, DWORD PTR _prs$[ebp]
	mov	DWORD PTR [ecx+40], edx
	mov	ecx, DWORD PTR _this$[ebp]
	add	ecx, 44					; 0000002cH
	call	??0?$vector@UDSBuffer@D3D9HardwarePixelBufferManager@Ogre@@V?$allocator@UDSBuffer@D3D9HardwarePixelBufferManager@Ogre@@@std@@@std@@QAE@XZ ; std::vector<Ogre::D3D9HardwarePixelBufferManager::DSBuffer,std::allocator<Ogre::D3D9HardwarePixelBufferManager::DSBuffer> >::vector<Ogre::D3D9HardwarePixelBufferManager::DSBuffer,std::allocator<Ogre::D3D9HardwarePixelBufferManager::DSBuffer> >
	mov	BYTE PTR __$EHRec$[ebp+8], 1
	mov	ecx, DWORD PTR _this$[ebp]
	add	ecx, 68					; 00000044H
	call	??0?$vector@URTBuffer@D3D9HardwarePixelBufferManager@Ogre@@V?$allocator@URTBuffer@D3D9HardwarePixelBufferManager@Ogre@@@std@@@std@@QAE@XZ ; std::vector<Ogre::D3D9HardwarePixelBufferManager::RTBuffer,std::allocator<Ogre::D3D9HardwarePixelBufferManager::RTBuffer> >::vector<Ogre::D3D9HardwarePixelBufferManager::RTBuffer,std::allocator<Ogre::D3D9HardwarePixelBufferManager::RTBuffer> >
	mov	BYTE PTR __$EHRec$[ebp+8], 2

; 625  : 	}

	mov	DWORD PTR __$EHRec$[ebp+8], -1
	mov	eax, DWORD PTR _this$[ebp]
	mov	ecx, DWORD PTR __$EHRec$[ebp]
	mov	DWORD PTR fs:0, ecx
	pop	ecx
	mov	esp, ebp
	pop	ebp
	ret	4
_TEXT	ENDS
text$x	SEGMENT
__unwindfunclet$??0D3D9HardwarePixelBufferManager@Ogre@@QAE@PAVD3D9RenderSystem@1@@Z$0:
	mov	ecx, DWORD PTR _this$[ebp]
	jmp	DWORD PTR __imp_??1HardwarePixelBufferManager@Ogre@@UAE@XZ
__unwindfunclet$??0D3D9HardwarePixelBufferManager@Ogre@@QAE@PAVD3D9RenderSystem@1@@Z$1:
	mov	ecx, DWORD PTR _this$[ebp]
	add	ecx, 44					; 0000002cH
	jmp	??1?$vector@UDSBuffer@D3D9HardwarePixelBufferManager@Ogre@@V?$allocator@UDSBuffer@D3D9HardwarePixelBufferManager@Ogre@@@std@@@std@@QAE@XZ ; std::vector<Ogre::D3D9HardwarePixelBufferManager::DSBuffer,std::allocator<Ogre::D3D9HardwarePixelBufferManager::DSBuffer> >::~vector<Ogre::D3D9HardwarePixelBufferManager::DSBuffer,std::allocator<Ogre::D3D9HardwarePixelBufferManager::DSBuffer> >
__unwindfunclet$??0D3D9HardwarePixelBufferManager@Ogre@@QAE@PAVD3D9RenderSystem@1@@Z$2:
	mov	ecx, DWORD PTR _this$[ebp]
	add	ecx, 68					; 00000044H
	jmp	??1?$vector@URTBuffer@D3D9HardwarePixelBufferManager@Ogre@@V?$allocator@URTBuffer@D3D9HardwarePixelBufferManager@Ogre@@@std@@@std@@QAE@XZ ; std::vector<Ogre::D3D9HardwarePixelBufferManager::RTBuffer,std::allocator<Ogre::D3D9HardwarePixelBufferManager::RTBuffer> >::~vector<Ogre::D3D9HardwarePixelBufferManager::RTBuffer,std::allocator<Ogre::D3D9HardwarePixelBufferManager::RTBuffer> >
__ehhandler$??0D3D9HardwarePixelBufferManager@Ogre@@QAE@PAVD3D9RenderSystem@1@@Z:
	mov	edx, DWORD PTR [esp+8]
	lea	eax, DWORD PTR [edx+12]
	mov	ecx, DWORD PTR [edx-8]
	xor	ecx, eax
	call	@__security_check_cookie@4
	mov	eax, OFFSET __ehfuncinfo$??0D3D9HardwarePixelBufferManager@Ogre@@QAE@PAVD3D9RenderSystem@1@@Z
	jmp	___CxxFrameHandler3
text$x	ENDS
??0D3D9HardwarePixelBufferManager@Ogre@@QAE@PAVD3D9RenderSystem@1@@Z ENDP ; Ogre::D3D9HardwarePixelBufferManager::D3D9HardwarePixelBufferManager
PUBLIC	??1D3D9HardwarePixelBufferManager@Ogre@@UAE@XZ	; Ogre::D3D9HardwarePixelBufferManager::~D3D9HardwarePixelBufferManager
; Function compile flags: /Odtp
;	COMDAT ??_GD3D9HardwarePixelBufferManager@Ogre@@UAEPAXI@Z
_TEXT	SEGMENT
_this$ = -4						; size = 4
___flags$ = 8						; size = 4
??_GD3D9HardwarePixelBufferManager@Ogre@@UAEPAXI@Z PROC	; Ogre::D3D9HardwarePixelBufferManager::`scalar deleting destructor', COMDAT
; _this$ = ecx
	push	ebp
	mov	ebp, esp
	push	ecx
	mov	DWORD PTR _this$[ebp], ecx
	mov	ecx, DWORD PTR _this$[ebp]
	call	??1D3D9HardwarePixelBufferManager@Ogre@@UAE@XZ ; Ogre::D3D9HardwarePixelBufferManager::~D3D9HardwarePixelBufferManager
	mov	eax, DWORD PTR ___flags$[ebp]
	and	eax, 1
	je	SHORT $LN1@scalar@4
	mov	ecx, DWORD PTR _this$[ebp]
	push	ecx
	call	??3@YAXPAX@Z				; operator delete
	add	esp, 4
$LN1@scalar@4:
	mov	eax, DWORD PTR _this$[ebp]
	mov	esp, ebp
	pop	ebp
	ret	4
??_GD3D9HardwarePixelBufferManager@Ogre@@UAEPAXI@Z ENDP	; Ogre::D3D9HardwarePixelBufferManager::`scalar deleting destructor'
_TEXT	ENDS
xdata$x	SEGMENT
__unwindtable$??1D3D9HardwarePixelBufferManager@Ogre@@UAE@XZ DD 0ffffffffH
	DD	FLAT:__unwindfunclet$??1D3D9HardwarePixelBufferManager@Ogre@@UAE@XZ$0
	DD	00H
	DD	FLAT:__unwindfunclet$??1D3D9HardwarePixelBufferManager@Ogre@@UAE@XZ$1
	DD	01H
	DD	FLAT:__unwindfunclet$??1D3D9HardwarePixelBufferManager@Ogre@@UAE@XZ$2
__ehfuncinfo$??1D3D9HardwarePixelBufferManager@Ogre@@UAE@XZ DD 019930522H
	DD	03H
	DD	FLAT:__unwindtable$??1D3D9HardwarePixelBufferManager@Ogre@@UAE@XZ
	DD	2 DUP(00H)
	DD	2 DUP(00H)
	DD	00H
	DD	00H
; Function compile flags: /Odtp
xdata$x	ENDS
_TEXT	SEGMENT
_this$ = -16						; size = 4
__$EHRec$ = -12						; size = 12
??1D3D9HardwarePixelBufferManager@Ogre@@UAE@XZ PROC	; Ogre::D3D9HardwarePixelBufferManager::~D3D9HardwarePixelBufferManager
; _this$ = ecx

; 628  : 	{

	push	ebp
	mov	ebp, esp
	push	-1
	push	__ehhandler$??1D3D9HardwarePixelBufferManager@Ogre@@UAE@XZ
	mov	eax, DWORD PTR fs:0
	push	eax
	push	ecx
	mov	eax, DWORD PTR ___security_cookie
	xor	eax, ebp
	push	eax
	lea	eax, DWORD PTR __$EHRec$[ebp]
	mov	DWORD PTR fs:0, eax
	mov	DWORD PTR _this$[ebp], ecx
	mov	eax, DWORD PTR _this$[ebp]
	mov	DWORD PTR [eax], OFFSET ??_7D3D9HardwarePixelBufferManager@Ogre@@6B@
	mov	DWORD PTR __$EHRec$[ebp+8], 2

; 629  : 	}

	mov	BYTE PTR __$EHRec$[ebp+8], 1
	mov	ecx, DWORD PTR _this$[ebp]
	add	ecx, 68					; 00000044H
	call	??1?$vector@URTBuffer@D3D9HardwarePixelBufferManager@Ogre@@V?$allocator@URTBuffer@D3D9HardwarePixelBufferManager@Ogre@@@std@@@std@@QAE@XZ ; std::vector<Ogre::D3D9HardwarePixelBufferManager::RTBuffer,std::allocator<Ogre::D3D9HardwarePixelBufferManager::RTBuffer> >::~vector<Ogre::D3D9HardwarePixelBufferManager::RTBuffer,std::allocator<Ogre::D3D9HardwarePixelBufferManager::RTBuffer> >
	mov	BYTE PTR __$EHRec$[ebp+8], 0
	mov	ecx, DWORD PTR _this$[ebp]
	add	ecx, 44					; 0000002cH
	call	??1?$vector@UDSBuffer@D3D9HardwarePixelBufferManager@Ogre@@V?$allocator@UDSBuffer@D3D9HardwarePixelBufferManager@Ogre@@@std@@@std@@QAE@XZ ; std::vector<Ogre::D3D9HardwarePixelBufferManager::DSBuffer,std::allocator<Ogre::D3D9HardwarePixelBufferManager::DSBuffer> >::~vector<Ogre::D3D9HardwarePixelBufferManager::DSBuffer,std::allocator<Ogre::D3D9HardwarePixelBufferManager::DSBuffer> >
	mov	DWORD PTR __$EHRec$[ebp+8], -1
	mov	ecx, DWORD PTR _this$[ebp]
	call	DWORD PTR __imp_??1HardwarePixelBufferManager@Ogre@@UAE@XZ
	mov	ecx, DWORD PTR __$EHRec$[ebp]
	mov	DWORD PTR fs:0, ecx
	pop	ecx
	mov	esp, ebp
	pop	ebp
	ret	0
_TEXT	ENDS
text$x	SEGMENT
__unwindfunclet$??1D3D9HardwarePixelBufferManager@Ogre@@UAE@XZ$0:
	mov	ecx, DWORD PTR _this$[ebp]
	jmp	DWORD PTR __imp_??1HardwarePixelBufferManager@Ogre@@UAE@XZ
__unwindfunclet$??1D3D9HardwarePixelBufferManager@Ogre@@UAE@XZ$1:
	mov	ecx, DWORD PTR _this$[ebp]
	add	ecx, 44					; 0000002cH
	jmp	??1?$vector@UDSBuffer@D3D9HardwarePixelBufferManager@Ogre@@V?$allocator@UDSBuffer@D3D9HardwarePixelBufferManager@Ogre@@@std@@@std@@QAE@XZ ; std::vector<Ogre::D3D9HardwarePixelBufferManager::DSBuffer,std::allocator<Ogre::D3D9HardwarePixelBufferManager::DSBuffer> >::~vector<Ogre::D3D9HardwarePixelBufferManager::DSBuffer,std::allocator<Ogre::D3D9HardwarePixelBufferManager::DSBuffer> >
__unwindfunclet$??1D3D9HardwarePixelBufferManager@Ogre@@UAE@XZ$2:
	mov	ecx, DWORD PTR _this$[ebp]
	add	ecx, 68					; 00000044H
	jmp	??1?$vector@URTBuffer@D3D9HardwarePixelBufferManager@Ogre@@V?$allocator@URTBuffer@D3D9HardwarePixelBufferManager@Ogre@@@std@@@std@@QAE@XZ ; std::vector<Ogre::D3D9HardwarePixelBufferManager::RTBuffer,std::allocator<Ogre::D3D9HardwarePixelBufferManager::RTBuffer> >::~vector<Ogre::D3D9HardwarePixelBufferManager::RTBuffer,std::allocator<Ogre::D3D9HardwarePixelBufferManager::RTBuffer> >
__ehhandler$??1D3D9HardwarePixelBufferManager@Ogre@@UAE@XZ:
	mov	edx, DWORD PTR [esp+8]
	lea	eax, DWORD PTR [edx+12]
	mov	ecx, DWORD PTR [edx-8]
	xor	ecx, eax
	call	@__security_check_cookie@4
	mov	eax, OFFSET __ehfuncinfo$??1D3D9HardwarePixelBufferManager@Ogre@@UAE@XZ
	jmp	___CxxFrameHandler3
text$x	ENDS
??1D3D9HardwarePixelBufferManager@Ogre@@UAE@XZ ENDP	; Ogre::D3D9HardwarePixelBufferManager::~D3D9HardwarePixelBufferManager
xdata$x	SEGMENT
__unwindtable$?newPixelBufferPool@D3D9HardwarePixelBufferManager@Ogre@@UAEPAVHardwarePixelBufferPool@2@W4HardwareBufferUsage@2@ABUTextureDesc@2@@Z DD 0ffffffffH
	DD	FLAT:__unwindfunclet$?newPixelBufferPool@D3D9HardwarePixelBufferManager@Ogre@@UAEPAVHardwarePixelBufferPool@2@W4HardwareBufferUsage@2@ABUTextureDesc@2@@Z$0
__ehfuncinfo$?newPixelBufferPool@D3D9HardwarePixelBufferManager@Ogre@@UAEPAVHardwarePixelBufferPool@2@W4HardwareBufferUsage@2@ABUTextureDesc@2@@Z DD 019930522H
	DD	01H
	DD	FLAT:__unwindtable$?newPixelBufferPool@D3D9HardwarePixelBufferManager@Ogre@@UAEPAVHardwarePixelBufferPool@2@W4HardwareBufferUsage@2@ABUTextureDesc@2@@Z
	DD	2 DUP(00H)
	DD	2 DUP(00H)
	DD	00H
	DD	00H
; Function compile flags: /Odtp
xdata$x	ENDS
_TEXT	SEGMENT
tv78 = -28						; size = 4
_this$ = -24						; size = 4
$T146819 = -20						; size = 4
$T146818 = -16						; size = 4
__$EHRec$ = -12						; size = 12
_usage$ = 8						; size = 4
_desc$ = 12						; size = 4
?newPixelBufferPool@D3D9HardwarePixelBufferManager@Ogre@@UAEPAVHardwarePixelBufferPool@2@W4HardwareBufferUsage@2@ABUTextureDesc@2@@Z PROC ; Ogre::D3D9HardwarePixelBufferManager::newPixelBufferPool
; _this$ = ecx

; 632  : 	{

	push	ebp
	mov	ebp, esp
	push	-1
	push	__ehhandler$?newPixelBufferPool@D3D9HardwarePixelBufferManager@Ogre@@UAEPAVHardwarePixelBufferPool@2@W4HardwareBufferUsage@2@ABUTextureDesc@2@@Z
	mov	eax, DWORD PTR fs:0
	push	eax
	sub	esp, 16					; 00000010H
	mov	eax, DWORD PTR ___security_cookie
	xor	eax, ebp
	push	eax
	lea	eax, DWORD PTR __$EHRec$[ebp]
	mov	DWORD PTR fs:0, eax
	mov	DWORD PTR _this$[ebp], ecx

; 633  : 		return new D3D9PixelBufferPool(m_pRS, usage, desc);

	push	184					; 000000b8H
	call	??2@YAPAXI@Z				; operator new
	add	esp, 4
	mov	DWORD PTR $T146819[ebp], eax
	mov	DWORD PTR __$EHRec$[ebp+8], 0
	cmp	DWORD PTR $T146819[ebp], 0
	je	SHORT $LN3@newPixelBu@2
	mov	eax, DWORD PTR _desc$[ebp]
	push	eax
	mov	ecx, DWORD PTR _usage$[ebp]
	push	ecx
	mov	edx, DWORD PTR _this$[ebp]
	mov	eax, DWORD PTR [edx+40]
	push	eax
	mov	ecx, DWORD PTR $T146819[ebp]
	call	??0D3D9PixelBufferPool@Ogre@@QAE@PAVD3D9RenderSystem@1@W4HardwareBufferUsage@1@ABUTextureDesc@1@@Z ; Ogre::D3D9PixelBufferPool::D3D9PixelBufferPool
	mov	DWORD PTR tv78[ebp], eax
	jmp	SHORT $LN4@newPixelBu@2
$LN3@newPixelBu@2:
	mov	DWORD PTR tv78[ebp], 0
$LN4@newPixelBu@2:
	mov	ecx, DWORD PTR tv78[ebp]
	mov	DWORD PTR $T146818[ebp], ecx
	mov	DWORD PTR __$EHRec$[ebp+8], -1
	mov	eax, DWORD PTR $T146818[ebp]

; 634  : 	}

	mov	ecx, DWORD PTR __$EHRec$[ebp]
	mov	DWORD PTR fs:0, ecx
	pop	ecx
	mov	esp, ebp
	pop	ebp
	ret	8
_TEXT	ENDS
text$x	SEGMENT
__unwindfunclet$?newPixelBufferPool@D3D9HardwarePixelBufferManager@Ogre@@UAEPAVHardwarePixelBufferPool@2@W4HardwareBufferUsage@2@ABUTextureDesc@2@@Z$0:
	mov	eax, DWORD PTR $T146819[ebp]
	push	eax
	call	??3@YAXPAX@Z				; operator delete
	pop	ecx
	ret	0
__ehhandler$?newPixelBufferPool@D3D9HardwarePixelBufferManager@Ogre@@UAEPAVHardwarePixelBufferPool@2@W4HardwareBufferUsage@2@ABUTextureDesc@2@@Z:
	mov	edx, DWORD PTR [esp+8]
	lea	eax, DWORD PTR [edx+12]
	mov	ecx, DWORD PTR [edx-20]
	xor	ecx, eax
	call	@__security_check_cookie@4
	mov	eax, OFFSET __ehfuncinfo$?newPixelBufferPool@D3D9HardwarePixelBufferManager@Ogre@@UAEPAVHardwarePixelBufferPool@2@W4HardwareBufferUsage@2@ABUTextureDesc@2@@Z
	jmp	___CxxFrameHandler3
text$x	ENDS
?newPixelBufferPool@D3D9HardwarePixelBufferManager@Ogre@@UAEPAVHardwarePixelBufferPool@2@W4HardwareBufferUsage@2@ABUTextureDesc@2@@Z ENDP ; Ogre::D3D9HardwarePixelBufferManager::newPixelBufferPool
PUBLIC	??A?$vector@UDSBuffer@D3D9HardwarePixelBufferManager@Ogre@@V?$allocator@UDSBuffer@D3D9HardwarePixelBufferManager@Ogre@@@std@@@std@@QAEAAUDSBuffer@D3D9HardwarePixelBufferManager@Ogre@@I@Z ; std::vector<Ogre::D3D9HardwarePixelBufferManager::DSBuffer,std::allocator<Ogre::D3D9HardwarePixelBufferManager::DSBuffer> >::operator[]
PUBLIC	?size@?$vector@UDSBuffer@D3D9HardwarePixelBufferManager@Ogre@@V?$allocator@UDSBuffer@D3D9HardwarePixelBufferManager@Ogre@@@std@@@std@@QBEIXZ ; std::vector<Ogre::D3D9HardwarePixelBufferManager::DSBuffer,std::allocator<Ogre::D3D9HardwarePixelBufferManager::DSBuffer> >::size
; Function compile flags: /Odtp
_TEXT	SEGMENT
_this$ = -12						; size = 4
_buf$138333 = -8					; size = 4
_i$138329 = -4						; size = 4
_width$ = 8						; size = 4
_height$ = 12						; size = 4
_format$ = 16						; size = 4
_mstype$ = 20						; size = 4
?hasDSBuffer@D3D9HardwarePixelBufferManager@Ogre@@QAE_NIIW4_D3DFORMAT@@W4_D3DMULTISAMPLE_TYPE@@@Z PROC ; Ogre::D3D9HardwarePixelBufferManager::hasDSBuffer
; _this$ = ecx

; 637  : 	{

	push	ebp
	mov	ebp, esp
	sub	esp, 12					; 0000000cH
	mov	DWORD PTR _this$[ebp], ecx

; 638  : 		for(size_t i=0; i<m_DSBuffers.size(); i++)

	mov	DWORD PTR _i$138329[ebp], 0
	jmp	SHORT $LN4@hasDSBuffe
$LN3@hasDSBuffe:
	mov	eax, DWORD PTR _i$138329[ebp]
	add	eax, 1
	mov	DWORD PTR _i$138329[ebp], eax
$LN4@hasDSBuffe:
	mov	ecx, DWORD PTR _this$[ebp]
	add	ecx, 44					; 0000002cH
	call	?size@?$vector@UDSBuffer@D3D9HardwarePixelBufferManager@Ogre@@V?$allocator@UDSBuffer@D3D9HardwarePixelBufferManager@Ogre@@@std@@@std@@QBEIXZ ; std::vector<Ogre::D3D9HardwarePixelBufferManager::DSBuffer,std::allocator<Ogre::D3D9HardwarePixelBufferManager::DSBuffer> >::size
	cmp	DWORD PTR _i$138329[ebp], eax
	jae	SHORT $LN2@hasDSBuffe

; 639  : 		{
; 640  : 			DSBuffer &buf = m_DSBuffers[i];

	mov	ecx, DWORD PTR _i$138329[ebp]
	push	ecx
	mov	ecx, DWORD PTR _this$[ebp]
	add	ecx, 44					; 0000002cH
	call	??A?$vector@UDSBuffer@D3D9HardwarePixelBufferManager@Ogre@@V?$allocator@UDSBuffer@D3D9HardwarePixelBufferManager@Ogre@@@std@@@std@@QAEAAUDSBuffer@D3D9HardwarePixelBufferManager@Ogre@@I@Z ; std::vector<Ogre::D3D9HardwarePixelBufferManager::DSBuffer,std::allocator<Ogre::D3D9HardwarePixelBufferManager::DSBuffer> >::operator[]
	mov	DWORD PTR _buf$138333[ebp], eax

; 641  : 			if( buf.width>=width && buf.height>=height && buf.format==format && buf.mstype==mstype )

	mov	edx, DWORD PTR _buf$138333[ebp]
	mov	eax, DWORD PTR [edx+4]
	cmp	eax, DWORD PTR _width$[ebp]
	jb	SHORT $LN1@hasDSBuffe
	mov	ecx, DWORD PTR _buf$138333[ebp]
	mov	edx, DWORD PTR [ecx+8]
	cmp	edx, DWORD PTR _height$[ebp]
	jb	SHORT $LN1@hasDSBuffe
	mov	eax, DWORD PTR _buf$138333[ebp]
	mov	ecx, DWORD PTR [eax+12]
	cmp	ecx, DWORD PTR _format$[ebp]
	jne	SHORT $LN1@hasDSBuffe
	mov	edx, DWORD PTR _buf$138333[ebp]
	mov	eax, DWORD PTR [edx+16]
	cmp	eax, DWORD PTR _mstype$[ebp]
	jne	SHORT $LN1@hasDSBuffe

; 642  : 			{
; 643  : 				return true;

	mov	al, 1
	jmp	SHORT $LN5@hasDSBuffe
$LN1@hasDSBuffe:

; 644  : 			}
; 645  : 		}

	jmp	SHORT $LN3@hasDSBuffe
$LN2@hasDSBuffe:

; 646  : 
; 647  : 		return false;

	xor	al, al
$LN5@hasDSBuffe:

; 648  : 
; 649  : 	}

	mov	esp, ebp
	pop	ebp
	ret	16					; 00000010H
?hasDSBuffer@D3D9HardwarePixelBufferManager@Ogre@@QAE_NIIW4_D3DFORMAT@@W4_D3DMULTISAMPLE_TYPE@@@Z ENDP ; Ogre::D3D9HardwarePixelBufferManager::hasDSBuffer
_TEXT	ENDS
PUBLIC	?push_back@?$vector@UDSBuffer@D3D9HardwarePixelBufferManager@Ogre@@V?$allocator@UDSBuffer@D3D9HardwarePixelBufferManager@Ogre@@@std@@@std@@QAEXABUDSBuffer@D3D9HardwarePixelBufferManager@Ogre@@@Z ; std::vector<Ogre::D3D9HardwarePixelBufferManager::DSBuffer,std::allocator<Ogre::D3D9HardwarePixelBufferManager::DSBuffer> >::push_back
PUBLIC	?getCreateRenderTargetErrcode@Ogre@@YAPBDJ@Z	; Ogre::getCreateRenderTargetErrcode
EXTRN	_strcmp:PROC
; Function compile flags: /Odtp
_TEXT	SEGMENT
_this$ = -48						; size = 4
_pszErrDesc$138355 = -44				; size = 4
_buf$138348 = -40					; size = 4
_i$138344 = -36						; size = 4
_obj$ = -32						; size = 24
_pd3dDevice$ = -8					; size = 4
_hrCreateDepthStencil$ = -4				; size = 4
_width$ = 8						; size = 4
_height$ = 12						; size = 4
_format$ = 16						; size = 4
_mstype$ = 20						; size = 4
?requireDSBuffer@D3D9HardwarePixelBufferManager@Ogre@@QAEPAUIDirect3DSurface9@@IIW4_D3DFORMAT@@W4_D3DMULTISAMPLE_TYPE@@@Z PROC ; Ogre::D3D9HardwarePixelBufferManager::requireDSBuffer
; _this$ = ecx

; 654  : 	{

	push	ebp
	mov	ebp, esp
	sub	esp, 48					; 00000030H
	mov	DWORD PTR _this$[ebp], ecx

; 655  : 		for(size_t i=0; i<m_DSBuffers.size(); i++)

	mov	DWORD PTR _i$138344[ebp], 0
	jmp	SHORT $LN7@requireDSB
$LN6@requireDSB:
	mov	eax, DWORD PTR _i$138344[ebp]
	add	eax, 1
	mov	DWORD PTR _i$138344[ebp], eax
$LN7@requireDSB:
	mov	ecx, DWORD PTR _this$[ebp]
	add	ecx, 44					; 0000002cH
	call	?size@?$vector@UDSBuffer@D3D9HardwarePixelBufferManager@Ogre@@V?$allocator@UDSBuffer@D3D9HardwarePixelBufferManager@Ogre@@@std@@@std@@QBEIXZ ; std::vector<Ogre::D3D9HardwarePixelBufferManager::DSBuffer,std::allocator<Ogre::D3D9HardwarePixelBufferManager::DSBuffer> >::size
	cmp	DWORD PTR _i$138344[ebp], eax
	jae	SHORT $LN5@requireDSB

; 656  : 		{
; 657  : 			DSBuffer &buf = m_DSBuffers[i];

	mov	ecx, DWORD PTR _i$138344[ebp]
	push	ecx
	mov	ecx, DWORD PTR _this$[ebp]
	add	ecx, 44					; 0000002cH
	call	??A?$vector@UDSBuffer@D3D9HardwarePixelBufferManager@Ogre@@V?$allocator@UDSBuffer@D3D9HardwarePixelBufferManager@Ogre@@@std@@@std@@QAEAAUDSBuffer@D3D9HardwarePixelBufferManager@Ogre@@I@Z ; std::vector<Ogre::D3D9HardwarePixelBufferManager::DSBuffer,std::allocator<Ogre::D3D9HardwarePixelBufferManager::DSBuffer> >::operator[]
	mov	DWORD PTR _buf$138348[ebp], eax

; 658  : 			if(buf.refcount==0 && buf.width>=width && buf.height>=height && buf.format==format && buf.mstype==mstype)

	mov	edx, DWORD PTR _buf$138348[ebp]
	cmp	DWORD PTR [edx+20], 0
	jne	SHORT $LN4@requireDSB
	mov	eax, DWORD PTR _buf$138348[ebp]
	mov	ecx, DWORD PTR [eax+4]
	cmp	ecx, DWORD PTR _width$[ebp]
	jb	SHORT $LN4@requireDSB
	mov	edx, DWORD PTR _buf$138348[ebp]
	mov	eax, DWORD PTR [edx+8]
	cmp	eax, DWORD PTR _height$[ebp]
	jb	SHORT $LN4@requireDSB
	mov	ecx, DWORD PTR _buf$138348[ebp]
	mov	edx, DWORD PTR [ecx+12]
	cmp	edx, DWORD PTR _format$[ebp]
	jne	SHORT $LN4@requireDSB
	mov	eax, DWORD PTR _buf$138348[ebp]
	mov	ecx, DWORD PTR [eax+16]
	cmp	ecx, DWORD PTR _mstype$[ebp]
	jne	SHORT $LN4@requireDSB

; 659  : 			{
; 660  : 				buf.refcount++;

	mov	edx, DWORD PTR _buf$138348[ebp]
	mov	eax, DWORD PTR [edx+20]
	add	eax, 1
	mov	ecx, DWORD PTR _buf$138348[ebp]
	mov	DWORD PTR [ecx+20], eax

; 661  : 				return buf.pbuf;

	mov	edx, DWORD PTR _buf$138348[ebp]
	mov	eax, DWORD PTR [edx]
	jmp	$LN8@requireDSB
$LN4@requireDSB:

; 662  : 			}
; 663  : 		}

	jmp	SHORT $LN6@requireDSB
$LN5@requireDSB:

; 664  : 
; 665  : 		DSBuffer obj;
; 666  : 		obj.width = width;

	mov	eax, DWORD PTR _width$[ebp]
	mov	DWORD PTR _obj$[ebp+4], eax

; 667  : 		obj.height = height;

	mov	ecx, DWORD PTR _height$[ebp]
	mov	DWORD PTR _obj$[ebp+8], ecx

; 668  : 		obj.format = format;

	mov	edx, DWORD PTR _format$[ebp]
	mov	DWORD PTR _obj$[ebp+12], edx

; 669  : 		obj.mstype = mstype;

	mov	eax, DWORD PTR _mstype$[ebp]
	mov	DWORD PTR _obj$[ebp+16], eax

; 670  : 		obj.refcount = 1;

	mov	DWORD PTR _obj$[ebp+20], 1

; 671  : 		
; 672  : 		IDirect3DDevice9* pd3dDevice = m_pRS->getD3DDevice();

	mov	ecx, DWORD PTR _this$[ebp]
	mov	ecx, DWORD PTR [ecx+40]
	call	?getD3DDevice@D3D9RenderSystem@Ogre@@QAEPAUIDirect3DDevice9@@XZ ; Ogre::D3D9RenderSystem::getD3DDevice
	mov	DWORD PTR _pd3dDevice$[ebp], eax

; 673  : 		HRESULT hrCreateDepthStencil = pd3dDevice->CreateDepthStencilSurface(width, height, format, mstype, 
; 674  : 																				0, true, &obj.pbuf, NULL);

	push	0
	lea	edx, DWORD PTR _obj$[ebp]
	push	edx
	push	1
	push	0
	mov	eax, DWORD PTR _mstype$[ebp]
	push	eax
	mov	ecx, DWORD PTR _format$[ebp]
	push	ecx
	mov	edx, DWORD PTR _height$[ebp]
	push	edx
	mov	eax, DWORD PTR _width$[ebp]
	push	eax
	mov	ecx, DWORD PTR _pd3dDevice$[ebp]
	mov	edx, DWORD PTR [ecx]
	mov	eax, DWORD PTR _pd3dDevice$[ebp]
	push	eax
	mov	ecx, DWORD PTR [edx+116]
	call	ecx
	mov	DWORD PTR _hrCreateDepthStencil$[ebp], eax

; 675  : 		if ( FAILED( hrCreateDepthStencil ) )

	cmp	DWORD PTR _hrCreateDepthStencil$[ebp], 0
	jge	SHORT $LN3@requireDSB

; 676  : 		{
; 677  : 			const char* pszErrDesc = getCreateRenderTargetErrcode( hrCreateDepthStencil );

	mov	edx, DWORD PTR _hrCreateDepthStencil$[ebp]
	push	edx
	call	?getCreateRenderTargetErrcode@Ogre@@YAPBDJ@Z ; Ogre::getCreateRenderTargetErrcode
	add	esp, 4
	mov	DWORD PTR _pszErrDesc$138355[ebp], eax

; 678  : 			if ( strcmp(pszErrDesc,"") !=0)

	push	OFFSET $SG138357
	mov	eax, DWORD PTR _pszErrDesc$138355[ebp]
	push	eax
	call	_strcmp
	add	esp, 8
	test	eax, eax
	je	SHORT $LN2@requireDSB

; 679  : 			{
; 680  : 				LOG_PRIVATE( "D3D9HardwarePixelBufferManager::requireDSBuffer--%s--631", pszErrDesc );

	push	64					; 00000040H
	push	680					; 000002a8H
	push	OFFSET $SG138358
	call	DWORD PTR __imp_?LogSetCurParam@Ogre@@YAXPBDHI@Z
	add	esp, 12					; 0000000cH
	mov	ecx, DWORD PTR _pszErrDesc$138355[ebp]
	push	ecx
	push	OFFSET $SG138359
	call	DWORD PTR __imp_?LogMessage@Ogre@@YAXPBDZZ
	add	esp, 8

; 681  : 			}
; 682  : 			else

	jmp	SHORT $LN1@requireDSB
$LN2@requireDSB:

; 683  : 			{
; 684  : 				LOG_PRIVATE( "D3D9HardwarePixelBufferManager::requireDSBuffer--%s--635", (int)hrCreateDepthStencil );

	push	64					; 00000040H
	push	684					; 000002acH
	push	OFFSET $SG138362
	call	DWORD PTR __imp_?LogSetCurParam@Ogre@@YAXPBDHI@Z
	add	esp, 12					; 0000000cH
	mov	edx, DWORD PTR _hrCreateDepthStencil$[ebp]
	push	edx
	push	OFFSET $SG138363
	call	DWORD PTR __imp_?LogMessage@Ogre@@YAXPBDZZ
	add	esp, 8
$LN1@requireDSB:

; 685  : 			}
; 686  : 			return NULL;

	xor	eax, eax
	jmp	SHORT $LN8@requireDSB
$LN3@requireDSB:

; 687  : 		}
; 688  : 
; 689  : 		m_DSBuffers.push_back(obj);

	lea	eax, DWORD PTR _obj$[ebp]
	push	eax
	mov	ecx, DWORD PTR _this$[ebp]
	add	ecx, 44					; 0000002cH
	call	?push_back@?$vector@UDSBuffer@D3D9HardwarePixelBufferManager@Ogre@@V?$allocator@UDSBuffer@D3D9HardwarePixelBufferManager@Ogre@@@std@@@std@@QAEXABUDSBuffer@D3D9HardwarePixelBufferManager@Ogre@@@Z ; std::vector<Ogre::D3D9HardwarePixelBufferManager::DSBuffer,std::allocator<Ogre::D3D9HardwarePixelBufferManager::DSBuffer> >::push_back

; 690  : 
; 691  : 		return obj.pbuf;

	mov	eax, DWORD PTR _obj$[ebp]
$LN8@requireDSB:

; 692  : 	}

	mov	esp, ebp
	pop	ebp
	ret	16					; 00000010H
?requireDSBuffer@D3D9HardwarePixelBufferManager@Ogre@@QAEPAUIDirect3DSurface9@@IIW4_D3DFORMAT@@W4_D3DMULTISAMPLE_TYPE@@@Z ENDP ; Ogre::D3D9HardwarePixelBufferManager::requireDSBuffer
_TEXT	ENDS
PUBLIC	??A?$vector@URTBuffer@D3D9HardwarePixelBufferManager@Ogre@@V?$allocator@URTBuffer@D3D9HardwarePixelBufferManager@Ogre@@@std@@@std@@QAEAAURTBuffer@D3D9HardwarePixelBufferManager@Ogre@@I@Z ; std::vector<Ogre::D3D9HardwarePixelBufferManager::RTBuffer,std::allocator<Ogre::D3D9HardwarePixelBufferManager::RTBuffer> >::operator[]
PUBLIC	?size@?$vector@URTBuffer@D3D9HardwarePixelBufferManager@Ogre@@V?$allocator@URTBuffer@D3D9HardwarePixelBufferManager@Ogre@@@std@@@std@@QBEIXZ ; std::vector<Ogre::D3D9HardwarePixelBufferManager::RTBuffer,std::allocator<Ogre::D3D9HardwarePixelBufferManager::RTBuffer> >::size
; Function compile flags: /Odtp
_TEXT	SEGMENT
_this$ = -12						; size = 4
_buf$138375 = -8					; size = 4
_i$138371 = -4						; size = 4
_width$ = 8						; size = 4
_height$ = 12						; size = 4
_format$ = 16						; size = 4
_mstype$ = 20						; size = 4
?hasRenderTarget@D3D9HardwarePixelBufferManager@Ogre@@QAE_NIIW4_D3DFORMAT@@W4_D3DMULTISAMPLE_TYPE@@@Z PROC ; Ogre::D3D9HardwarePixelBufferManager::hasRenderTarget
; _this$ = ecx

; 695  : 	{

	push	ebp
	mov	ebp, esp
	sub	esp, 12					; 0000000cH
	mov	DWORD PTR _this$[ebp], ecx

; 696  : 		for(size_t i=0; i<m_RenderTargets.size(); i++)

	mov	DWORD PTR _i$138371[ebp], 0
	jmp	SHORT $LN4@hasRenderT
$LN3@hasRenderT:
	mov	eax, DWORD PTR _i$138371[ebp]
	add	eax, 1
	mov	DWORD PTR _i$138371[ebp], eax
$LN4@hasRenderT:
	mov	ecx, DWORD PTR _this$[ebp]
	add	ecx, 68					; 00000044H
	call	?size@?$vector@URTBuffer@D3D9HardwarePixelBufferManager@Ogre@@V?$allocator@URTBuffer@D3D9HardwarePixelBufferManager@Ogre@@@std@@@std@@QBEIXZ ; std::vector<Ogre::D3D9HardwarePixelBufferManager::RTBuffer,std::allocator<Ogre::D3D9HardwarePixelBufferManager::RTBuffer> >::size
	cmp	DWORD PTR _i$138371[ebp], eax
	jae	SHORT $LN2@hasRenderT

; 697  : 		{
; 698  : 			RTBuffer &buf = m_RenderTargets[i];

	mov	ecx, DWORD PTR _i$138371[ebp]
	push	ecx
	mov	ecx, DWORD PTR _this$[ebp]
	add	ecx, 68					; 00000044H
	call	??A?$vector@URTBuffer@D3D9HardwarePixelBufferManager@Ogre@@V?$allocator@URTBuffer@D3D9HardwarePixelBufferManager@Ogre@@@std@@@std@@QAEAAURTBuffer@D3D9HardwarePixelBufferManager@Ogre@@I@Z ; std::vector<Ogre::D3D9HardwarePixelBufferManager::RTBuffer,std::allocator<Ogre::D3D9HardwarePixelBufferManager::RTBuffer> >::operator[]
	mov	DWORD PTR _buf$138375[ebp], eax

; 699  : 			if( buf.width>=width && buf.height>=height && buf.format==format && buf.mstype==mstype )

	mov	edx, DWORD PTR _buf$138375[ebp]
	mov	eax, DWORD PTR [edx+4]
	cmp	eax, DWORD PTR _width$[ebp]
	jb	SHORT $LN1@hasRenderT
	mov	ecx, DWORD PTR _buf$138375[ebp]
	mov	edx, DWORD PTR [ecx+8]
	cmp	edx, DWORD PTR _height$[ebp]
	jb	SHORT $LN1@hasRenderT
	mov	eax, DWORD PTR _buf$138375[ebp]
	mov	ecx, DWORD PTR [eax+12]
	cmp	ecx, DWORD PTR _format$[ebp]
	jne	SHORT $LN1@hasRenderT
	mov	edx, DWORD PTR _buf$138375[ebp]
	mov	eax, DWORD PTR [edx+16]
	cmp	eax, DWORD PTR _mstype$[ebp]
	jne	SHORT $LN1@hasRenderT

; 700  : 			{
; 701  : 				return true;

	mov	al, 1
	jmp	SHORT $LN5@hasRenderT
$LN1@hasRenderT:

; 702  : 			}
; 703  : 		}

	jmp	SHORT $LN3@hasRenderT
$LN2@hasRenderT:

; 704  : 
; 705  : 		return false;

	xor	al, al
$LN5@hasRenderT:

; 706  : 	}

	mov	esp, ebp
	pop	ebp
	ret	16					; 00000010H
?hasRenderTarget@D3D9HardwarePixelBufferManager@Ogre@@QAE_NIIW4_D3DFORMAT@@W4_D3DMULTISAMPLE_TYPE@@@Z ENDP ; Ogre::D3D9HardwarePixelBufferManager::hasRenderTarget
; Function compile flags: /Odtp
_hrResult$ = 8						; size = 4
?getCreateRenderTargetErrcode@Ogre@@YAPBDJ@Z PROC	; Ogre::getCreateRenderTargetErrcode

; 709  : 	{

	push	ebp
	mov	ebp, esp

; 710  : 		if ( hrResult == D3D_OK )

	cmp	DWORD PTR _hrResult$[ebp], 0
	jne	SHORT $LN9@getCreateR

; 711  : 		{
; 712  : 			return "D3D_OK"; 

	mov	eax, OFFSET $SG138382
	jmp	SHORT $LN10@getCreateR
	jmp	SHORT $LN8@getCreateR
$LN9@getCreateR:

; 713  : 		}
; 714  : 		else if( hrResult == D3DERR_NOTAVAILABLE )

	cmp	DWORD PTR _hrResult$[ebp], -2005530518	; 8876086aH
	jne	SHORT $LN7@getCreateR

; 715  : 		{
; 716  : 			return "D3DERR_NOTAVAILABLE";

	mov	eax, OFFSET $SG138389
	jmp	SHORT $LN10@getCreateR
	jmp	SHORT $LN8@getCreateR
$LN7@getCreateR:

; 717  : 		}
; 718  : 		else if ( hrResult == D3DERR_INVALIDCALL )

	cmp	DWORD PTR _hrResult$[ebp], -2005530516	; 8876086cH
	jne	SHORT $LN5@getCreateR

; 719  : 		{
; 720  : 			return "D3DERR_INVALIDCALL"; 

	mov	eax, OFFSET $SG138396
	jmp	SHORT $LN10@getCreateR
	jmp	SHORT $LN8@getCreateR
$LN5@getCreateR:

; 721  : 		}
; 722  : 		else if ( hrResult == D3DERR_OUTOFVIDEOMEMORY )

	cmp	DWORD PTR _hrResult$[ebp], -2005532292	; 8876017cH
	jne	SHORT $LN3@getCreateR

; 723  : 		{
; 724  : 			return "D3DERR_OUTOFVIDEOMEMORY";

	mov	eax, OFFSET $SG138403
	jmp	SHORT $LN10@getCreateR
	jmp	SHORT $LN8@getCreateR
$LN3@getCreateR:

; 725  : 		}
; 726  : 		else if ( hrResult == E_OUTOFMEMORY  )

	cmp	DWORD PTR _hrResult$[ebp], -2147024882	; 8007000eH
	jne	SHORT $LN8@getCreateR

; 727  : 		{
; 728  : 			return "E_OUTOFMEMORY ";

	mov	eax, OFFSET $SG138407
	jmp	SHORT $LN10@getCreateR
$LN8@getCreateR:

; 729  : 		}
; 730  : 
; 731  : 		return "";

	mov	eax, OFFSET $SG138408
$LN10@getCreateR:

; 732  : 	}

	pop	ebp
	ret	0
?getCreateRenderTargetErrcode@Ogre@@YAPBDJ@Z ENDP	; Ogre::getCreateRenderTargetErrcode
_TEXT	ENDS
PUBLIC	?push_back@?$vector@URTBuffer@D3D9HardwarePixelBufferManager@Ogre@@V?$allocator@URTBuffer@D3D9HardwarePixelBufferManager@Ogre@@@std@@@std@@QAEXABURTBuffer@D3D9HardwarePixelBufferManager@Ogre@@@Z ; std::vector<Ogre::D3D9HardwarePixelBufferManager::RTBuffer,std::allocator<Ogre::D3D9HardwarePixelBufferManager::RTBuffer> >::push_back
; Function compile flags: /Odtp
_TEXT	SEGMENT
_this$ = -48						; size = 4
_pszErrDesc$138427 = -44				; size = 4
_buf$138420 = -40					; size = 4
_i$138416 = -36						; size = 4
_obj$ = -32						; size = 24
_pd3dDevice$ = -8					; size = 4
_hrCreateRenderTarget$ = -4				; size = 4
_width$ = 8						; size = 4
_height$ = 12						; size = 4
_format$ = 16						; size = 4
_mstype$ = 20						; size = 4
?requireRenderTarget@D3D9HardwarePixelBufferManager@Ogre@@QAEPAUIDirect3DSurface9@@IIW4_D3DFORMAT@@W4_D3DMULTISAMPLE_TYPE@@@Z PROC ; Ogre::D3D9HardwarePixelBufferManager::requireRenderTarget
; _this$ = ecx

; 735  : 	{

	push	ebp
	mov	ebp, esp
	sub	esp, 48					; 00000030H
	mov	DWORD PTR _this$[ebp], ecx

; 736  : 		for(size_t i=0; i<m_RenderTargets.size(); i++)

	mov	DWORD PTR _i$138416[ebp], 0
	jmp	SHORT $LN7@requireRen
$LN6@requireRen:
	mov	eax, DWORD PTR _i$138416[ebp]
	add	eax, 1
	mov	DWORD PTR _i$138416[ebp], eax
$LN7@requireRen:
	mov	ecx, DWORD PTR _this$[ebp]
	add	ecx, 68					; 00000044H
	call	?size@?$vector@URTBuffer@D3D9HardwarePixelBufferManager@Ogre@@V?$allocator@URTBuffer@D3D9HardwarePixelBufferManager@Ogre@@@std@@@std@@QBEIXZ ; std::vector<Ogre::D3D9HardwarePixelBufferManager::RTBuffer,std::allocator<Ogre::D3D9HardwarePixelBufferManager::RTBuffer> >::size
	cmp	DWORD PTR _i$138416[ebp], eax
	jae	SHORT $LN5@requireRen

; 737  : 		{
; 738  : 			RTBuffer &buf = m_RenderTargets[i];

	mov	ecx, DWORD PTR _i$138416[ebp]
	push	ecx
	mov	ecx, DWORD PTR _this$[ebp]
	add	ecx, 68					; 00000044H
	call	??A?$vector@URTBuffer@D3D9HardwarePixelBufferManager@Ogre@@V?$allocator@URTBuffer@D3D9HardwarePixelBufferManager@Ogre@@@std@@@std@@QAEAAURTBuffer@D3D9HardwarePixelBufferManager@Ogre@@I@Z ; std::vector<Ogre::D3D9HardwarePixelBufferManager::RTBuffer,std::allocator<Ogre::D3D9HardwarePixelBufferManager::RTBuffer> >::operator[]
	mov	DWORD PTR _buf$138420[ebp], eax

; 739  : 			if(buf.refcount==0 && buf.width>=width && buf.height>=height && buf.format==format && buf.mstype==mstype)

	mov	edx, DWORD PTR _buf$138420[ebp]
	cmp	DWORD PTR [edx+20], 0
	jne	SHORT $LN4@requireRen
	mov	eax, DWORD PTR _buf$138420[ebp]
	mov	ecx, DWORD PTR [eax+4]
	cmp	ecx, DWORD PTR _width$[ebp]
	jb	SHORT $LN4@requireRen
	mov	edx, DWORD PTR _buf$138420[ebp]
	mov	eax, DWORD PTR [edx+8]
	cmp	eax, DWORD PTR _height$[ebp]
	jb	SHORT $LN4@requireRen
	mov	ecx, DWORD PTR _buf$138420[ebp]
	mov	edx, DWORD PTR [ecx+12]
	cmp	edx, DWORD PTR _format$[ebp]
	jne	SHORT $LN4@requireRen
	mov	eax, DWORD PTR _buf$138420[ebp]
	mov	ecx, DWORD PTR [eax+16]
	cmp	ecx, DWORD PTR _mstype$[ebp]
	jne	SHORT $LN4@requireRen

; 740  : 			{
; 741  : 				buf.refcount++;

	mov	edx, DWORD PTR _buf$138420[ebp]
	mov	eax, DWORD PTR [edx+20]
	add	eax, 1
	mov	ecx, DWORD PTR _buf$138420[ebp]
	mov	DWORD PTR [ecx+20], eax

; 742  : 				return buf.pbuf;

	mov	edx, DWORD PTR _buf$138420[ebp]
	mov	eax, DWORD PTR [edx]
	jmp	$LN8@requireRen
$LN4@requireRen:

; 743  : 			}
; 744  : 		}

	jmp	SHORT $LN6@requireRen
$LN5@requireRen:

; 745  : 
; 746  : 		RTBuffer obj;
; 747  : 		obj.width = width;

	mov	eax, DWORD PTR _width$[ebp]
	mov	DWORD PTR _obj$[ebp+4], eax

; 748  : 		obj.height = height;

	mov	ecx, DWORD PTR _height$[ebp]
	mov	DWORD PTR _obj$[ebp+8], ecx

; 749  : 		obj.format = format;

	mov	edx, DWORD PTR _format$[ebp]
	mov	DWORD PTR _obj$[ebp+12], edx

; 750  : 		obj.mstype = mstype;

	mov	eax, DWORD PTR _mstype$[ebp]
	mov	DWORD PTR _obj$[ebp+16], eax

; 751  : 		obj.refcount = 1;

	mov	DWORD PTR _obj$[ebp+20], 1

; 752  : 		
; 753  : 		IDirect3DDevice9* pd3dDevice = m_pRS->getD3DDevice();

	mov	ecx, DWORD PTR _this$[ebp]
	mov	ecx, DWORD PTR [ecx+40]
	call	?getD3DDevice@D3D9RenderSystem@Ogre@@QAEPAUIDirect3DDevice9@@XZ ; Ogre::D3D9RenderSystem::getD3DDevice
	mov	DWORD PTR _pd3dDevice$[ebp], eax

; 754  : 		HRESULT hrCreateRenderTarget = pd3dDevice->CreateRenderTarget( width,height, format, mstype, 0, 
; 755  : 																		false, &obj.pbuf,NULL );

	push	0
	lea	edx, DWORD PTR _obj$[ebp]
	push	edx
	push	0
	push	0
	mov	eax, DWORD PTR _mstype$[ebp]
	push	eax
	mov	ecx, DWORD PTR _format$[ebp]
	push	ecx
	mov	edx, DWORD PTR _height$[ebp]
	push	edx
	mov	eax, DWORD PTR _width$[ebp]
	push	eax
	mov	ecx, DWORD PTR _pd3dDevice$[ebp]
	mov	edx, DWORD PTR [ecx]
	mov	eax, DWORD PTR _pd3dDevice$[ebp]
	push	eax
	mov	ecx, DWORD PTR [edx+112]
	call	ecx
	mov	DWORD PTR _hrCreateRenderTarget$[ebp], eax

; 756  : 		if(FAILED( hrCreateRenderTarget ) ) //D3DFMT_A8R8G8B8

	cmp	DWORD PTR _hrCreateRenderTarget$[ebp], 0
	jge	SHORT $LN3@requireRen

; 757  : 		{
; 758  : 			const char* pszErrDesc = getCreateRenderTargetErrcode( hrCreateRenderTarget );

	mov	edx, DWORD PTR _hrCreateRenderTarget$[ebp]
	push	edx
	call	?getCreateRenderTargetErrcode@Ogre@@YAPBDJ@Z ; Ogre::getCreateRenderTargetErrcode
	add	esp, 4
	mov	DWORD PTR _pszErrDesc$138427[ebp], eax

; 759  : 			if ( strcmp(pszErrDesc,"") !=0)

	push	OFFSET $SG138429
	mov	eax, DWORD PTR _pszErrDesc$138427[ebp]
	push	eax
	call	_strcmp
	add	esp, 8
	test	eax, eax
	je	SHORT $LN2@requireRen

; 760  : 			{
; 761  : 				LOG_PRIVATE( "D3D9HardwarePixelBufferManager::requireRenderTarget--%s--712", pszErrDesc );

	push	64					; 00000040H
	push	761					; 000002f9H
	push	OFFSET $SG138430
	call	DWORD PTR __imp_?LogSetCurParam@Ogre@@YAXPBDHI@Z
	add	esp, 12					; 0000000cH
	mov	ecx, DWORD PTR _pszErrDesc$138427[ebp]
	push	ecx
	push	OFFSET $SG138431
	call	DWORD PTR __imp_?LogMessage@Ogre@@YAXPBDZZ
	add	esp, 8

; 762  : 			}
; 763  : 			else

	jmp	SHORT $LN1@requireRen
$LN2@requireRen:

; 764  : 			{
; 765  : 				LOG_PRIVATE( "D3D9HardwarePixelBufferManager::requireRenderTarget--%s--716", (int)hrCreateRenderTarget );

	push	64					; 00000040H
	push	765					; 000002fdH
	push	OFFSET $SG138434
	call	DWORD PTR __imp_?LogSetCurParam@Ogre@@YAXPBDHI@Z
	add	esp, 12					; 0000000cH
	mov	edx, DWORD PTR _hrCreateRenderTarget$[ebp]
	push	edx
	push	OFFSET $SG138435
	call	DWORD PTR __imp_?LogMessage@Ogre@@YAXPBDZZ
	add	esp, 8
$LN1@requireRen:

; 766  : 			}
; 767  : 			return NULL;

	xor	eax, eax
	jmp	SHORT $LN8@requireRen
$LN3@requireRen:

; 768  : 		}
; 769  : 
; 770  : 		m_RenderTargets.push_back(obj);

	lea	eax, DWORD PTR _obj$[ebp]
	push	eax
	mov	ecx, DWORD PTR _this$[ebp]
	add	ecx, 68					; 00000044H
	call	?push_back@?$vector@URTBuffer@D3D9HardwarePixelBufferManager@Ogre@@V?$allocator@URTBuffer@D3D9HardwarePixelBufferManager@Ogre@@@std@@@std@@QAEXABURTBuffer@D3D9HardwarePixelBufferManager@Ogre@@@Z ; std::vector<Ogre::D3D9HardwarePixelBufferManager::RTBuffer,std::allocator<Ogre::D3D9HardwarePixelBufferManager::RTBuffer> >::push_back

; 771  : 
; 772  : 		return obj.pbuf;

	mov	eax, DWORD PTR _obj$[ebp]
$LN8@requireRen:

; 773  : 	}

	mov	esp, ebp
	pop	ebp
	ret	16					; 00000010H
?requireRenderTarget@D3D9HardwarePixelBufferManager@Ogre@@QAEPAUIDirect3DSurface9@@IIW4_D3DFORMAT@@W4_D3DMULTISAMPLE_TYPE@@@Z ENDP ; Ogre::D3D9HardwarePixelBufferManager::requireRenderTarget
; Function compile flags: /Odtp
_this$ = -12						; size = 4
_buf$138444 = -8					; size = 4
_i$138440 = -4						; size = 4
_pbuf$ = 8						; size = 4
?releaseDSBuffer@D3D9HardwarePixelBufferManager@Ogre@@QAEXPAUIDirect3DSurface9@@@Z PROC ; Ogre::D3D9HardwarePixelBufferManager::releaseDSBuffer
; _this$ = ecx

; 778  : 	{

	push	ebp
	mov	ebp, esp
	sub	esp, 12					; 0000000cH
	mov	DWORD PTR _this$[ebp], ecx

; 779  : 		for(size_t i=0; i<m_DSBuffers.size(); i++)

	mov	DWORD PTR _i$138440[ebp], 0
	jmp	SHORT $LN4@releaseDSB
$LN3@releaseDSB:
	mov	eax, DWORD PTR _i$138440[ebp]
	add	eax, 1
	mov	DWORD PTR _i$138440[ebp], eax
$LN4@releaseDSB:
	mov	ecx, DWORD PTR _this$[ebp]
	add	ecx, 44					; 0000002cH
	call	?size@?$vector@UDSBuffer@D3D9HardwarePixelBufferManager@Ogre@@V?$allocator@UDSBuffer@D3D9HardwarePixelBufferManager@Ogre@@@std@@@std@@QBEIXZ ; std::vector<Ogre::D3D9HardwarePixelBufferManager::DSBuffer,std::allocator<Ogre::D3D9HardwarePixelBufferManager::DSBuffer> >::size
	cmp	DWORD PTR _i$138440[ebp], eax
	jae	SHORT $LN5@releaseDSB

; 780  : 		{
; 781  : 			DSBuffer &buf = m_DSBuffers[i];

	mov	ecx, DWORD PTR _i$138440[ebp]
	push	ecx
	mov	ecx, DWORD PTR _this$[ebp]
	add	ecx, 44					; 0000002cH
	call	??A?$vector@UDSBuffer@D3D9HardwarePixelBufferManager@Ogre@@V?$allocator@UDSBuffer@D3D9HardwarePixelBufferManager@Ogre@@@std@@@std@@QAEAAUDSBuffer@D3D9HardwarePixelBufferManager@Ogre@@I@Z ; std::vector<Ogre::D3D9HardwarePixelBufferManager::DSBuffer,std::allocator<Ogre::D3D9HardwarePixelBufferManager::DSBuffer> >::operator[]
	mov	DWORD PTR _buf$138444[ebp], eax

; 782  : 			if(buf.pbuf == pbuf)

	mov	edx, DWORD PTR _buf$138444[ebp]
	mov	eax, DWORD PTR [edx]
	cmp	eax, DWORD PTR _pbuf$[ebp]
	jne	SHORT $LN1@releaseDSB

; 783  : 			{
; 784  : 				buf.refcount--;

	mov	ecx, DWORD PTR _buf$138444[ebp]
	mov	edx, DWORD PTR [ecx+20]
	sub	edx, 1
	mov	eax, DWORD PTR _buf$138444[ebp]
	mov	DWORD PTR [eax+20], edx

; 785  : 				return;

	jmp	SHORT $LN5@releaseDSB
$LN1@releaseDSB:

; 786  : 			}
; 787  : 		}

	jmp	SHORT $LN3@releaseDSB
$LN5@releaseDSB:

; 788  : 		assert(0);
; 789  : 	}

	mov	esp, ebp
	pop	ebp
	ret	4
?releaseDSBuffer@D3D9HardwarePixelBufferManager@Ogre@@QAEXPAUIDirect3DSurface9@@@Z ENDP ; Ogre::D3D9HardwarePixelBufferManager::releaseDSBuffer
; Function compile flags: /Odtp
_this$ = -12						; size = 4
_buf$138455 = -8					; size = 4
_i$138451 = -4						; size = 4
_pbuf$ = 8						; size = 4
?releaseRenderTarget@D3D9HardwarePixelBufferManager@Ogre@@QAEXPAUIDirect3DSurface9@@@Z PROC ; Ogre::D3D9HardwarePixelBufferManager::releaseRenderTarget
; _this$ = ecx

; 792  : 	{

	push	ebp
	mov	ebp, esp
	sub	esp, 12					; 0000000cH
	mov	DWORD PTR _this$[ebp], ecx

; 793  : 		for(size_t i=0; i<m_RenderTargets.size(); i++)

	mov	DWORD PTR _i$138451[ebp], 0
	jmp	SHORT $LN4@releaseRen@2
$LN3@releaseRen@2:
	mov	eax, DWORD PTR _i$138451[ebp]
	add	eax, 1
	mov	DWORD PTR _i$138451[ebp], eax
$LN4@releaseRen@2:
	mov	ecx, DWORD PTR _this$[ebp]
	add	ecx, 68					; 00000044H
	call	?size@?$vector@URTBuffer@D3D9HardwarePixelBufferManager@Ogre@@V?$allocator@URTBuffer@D3D9HardwarePixelBufferManager@Ogre@@@std@@@std@@QBEIXZ ; std::vector<Ogre::D3D9HardwarePixelBufferManager::RTBuffer,std::allocator<Ogre::D3D9HardwarePixelBufferManager::RTBuffer> >::size
	cmp	DWORD PTR _i$138451[ebp], eax
	jae	SHORT $LN5@releaseRen@2

; 794  : 		{
; 795  : 			RTBuffer &buf = m_RenderTargets[i];

	mov	ecx, DWORD PTR _i$138451[ebp]
	push	ecx
	mov	ecx, DWORD PTR _this$[ebp]
	add	ecx, 68					; 00000044H
	call	??A?$vector@URTBuffer@D3D9HardwarePixelBufferManager@Ogre@@V?$allocator@URTBuffer@D3D9HardwarePixelBufferManager@Ogre@@@std@@@std@@QAEAAURTBuffer@D3D9HardwarePixelBufferManager@Ogre@@I@Z ; std::vector<Ogre::D3D9HardwarePixelBufferManager::RTBuffer,std::allocator<Ogre::D3D9HardwarePixelBufferManager::RTBuffer> >::operator[]
	mov	DWORD PTR _buf$138455[ebp], eax

; 796  : 			if(buf.pbuf == pbuf)

	mov	edx, DWORD PTR _buf$138455[ebp]
	mov	eax, DWORD PTR [edx]
	cmp	eax, DWORD PTR _pbuf$[ebp]
	jne	SHORT $LN1@releaseRen@2

; 797  : 			{
; 798  : 				buf.refcount--;

	mov	ecx, DWORD PTR _buf$138455[ebp]
	mov	edx, DWORD PTR [ecx+20]
	sub	edx, 1
	mov	eax, DWORD PTR _buf$138455[ebp]
	mov	DWORD PTR [eax+20], edx

; 799  : 				return;

	jmp	SHORT $LN5@releaseRen@2
$LN1@releaseRen@2:

; 800  : 			}
; 801  : 		}

	jmp	SHORT $LN3@releaseRen@2
$LN5@releaseRen@2:

; 802  : 		assert(0);
; 803  : 	}

	mov	esp, ebp
	pop	ebp
	ret	4
?releaseRenderTarget@D3D9HardwarePixelBufferManager@Ogre@@QAEXPAUIDirect3DSurface9@@@Z ENDP ; Ogre::D3D9HardwarePixelBufferManager::releaseRenderTarget
_TEXT	ENDS
PUBLIC	?resize@?$vector@URTBuffer@D3D9HardwarePixelBufferManager@Ogre@@V?$allocator@URTBuffer@D3D9HardwarePixelBufferManager@Ogre@@@std@@@std@@QAEXI@Z ; std::vector<Ogre::D3D9HardwarePixelBufferManager::RTBuffer,std::allocator<Ogre::D3D9HardwarePixelBufferManager::RTBuffer> >::resize
PUBLIC	?resize@?$vector@UDSBuffer@D3D9HardwarePixelBufferManager@Ogre@@V?$allocator@UDSBuffer@D3D9HardwarePixelBufferManager@Ogre@@@std@@@std@@QAEXI@Z ; std::vector<Ogre::D3D9HardwarePixelBufferManager::DSBuffer,std::allocator<Ogre::D3D9HardwarePixelBufferManager::DSBuffer> >::resize
PUBLIC	??Citerator@?$_Tree@V?$_Tmap_traits@IPAVHardwarePixelBufferPool@Ogre@@U?$less@I@std@@V?$allocator@U?$pair@$$CBIPAVHardwarePixelBufferPool@Ogre@@@std@@@4@$0A@@std@@@std@@QBEPAU?$pair@$$CBIPAVHardwarePixelBufferPool@Ogre@@@2@XZ ; std::_Tree<std::_Tmap_traits<unsigned int,Ogre::HardwarePixelBufferPool *,std::less<unsigned int>,std::allocator<std::pair<unsigned int const ,Ogre::HardwarePixelBufferPool *> >,0> >::iterator::operator->
PUBLIC	??9const_iterator@?$_Tree@V?$_Tmap_traits@IPAVHardwarePixelBufferPool@Ogre@@U?$less@I@std@@V?$allocator@U?$pair@$$CBIPAVHardwarePixelBufferPool@Ogre@@@std@@@4@$0A@@std@@@std@@QBE_NABV012@@Z ; std::_Tree<std::_Tmap_traits<unsigned int,Ogre::HardwarePixelBufferPool *,std::less<unsigned int>,std::allocator<std::pair<unsigned int const ,Ogre::HardwarePixelBufferPool *> >,0> >::const_iterator::operator!=
PUBLIC	?end@?$_Tree@V?$_Tmap_traits@IPAVHardwarePixelBufferPool@Ogre@@U?$less@I@std@@V?$allocator@U?$pair@$$CBIPAVHardwarePixelBufferPool@Ogre@@@std@@@4@$0A@@std@@@std@@QAE?AViterator@12@XZ ; std::_Tree<std::_Tmap_traits<unsigned int,Ogre::HardwarePixelBufferPool *,std::less<unsigned int>,std::allocator<std::pair<unsigned int const ,Ogre::HardwarePixelBufferPool *> >,0> >::end
PUBLIC	??Eiterator@?$_Tree@V?$_Tmap_traits@IPAVHardwarePixelBufferPool@Ogre@@U?$less@I@std@@V?$allocator@U?$pair@$$CBIPAVHardwarePixelBufferPool@Ogre@@@std@@@4@$0A@@std@@@std@@QAE?AV012@H@Z ; std::_Tree<std::_Tmap_traits<unsigned int,Ogre::HardwarePixelBufferPool *,std::less<unsigned int>,std::allocator<std::pair<unsigned int const ,Ogre::HardwarePixelBufferPool *> >,0> >::iterator::operator++
PUBLIC	?begin@?$_Tree@V?$_Tmap_traits@IPAVHardwarePixelBufferPool@Ogre@@U?$less@I@std@@V?$allocator@U?$pair@$$CBIPAVHardwarePixelBufferPool@Ogre@@@std@@@4@$0A@@std@@@std@@QAE?AViterator@12@XZ ; std::_Tree<std::_Tmap_traits<unsigned int,Ogre::HardwarePixelBufferPool *,std::less<unsigned int>,std::allocator<std::pair<unsigned int const ,Ogre::HardwarePixelBufferPool *> >,0> >::begin
PUBLIC	?onLostDevice@D3D9HardwarePixelBufferManager@Ogre@@QAEXXZ ; Ogre::D3D9HardwarePixelBufferManager::onLostDevice
; Function compile flags: /Odtp
_TEXT	SEGMENT
tv193 = -40						; size = 4
tv163 = -36						; size = 4
_this$ = -32						; size = 4
$T146836 = -28						; size = 8
$T146835 = -20						; size = 8
_i$ = -12						; size = 4
_iter$ = -8						; size = 8
?onLostDevice@D3D9HardwarePixelBufferManager@Ogre@@QAEXXZ PROC ; Ogre::D3D9HardwarePixelBufferManager::onLostDevice
; _this$ = ecx

; 808  : 	{

	push	ebp
	mov	ebp, esp
	sub	esp, 40					; 00000028H
	mov	DWORD PTR _this$[ebp], ecx

; 809  : 		std::map<uint, HardwarePixelBufferPool *>::iterator iter = m_Pools.begin();

	lea	eax, DWORD PTR _iter$[ebp]
	push	eax
	mov	ecx, DWORD PTR _this$[ebp]
	add	ecx, 4
	call	?begin@?$_Tree@V?$_Tmap_traits@IPAVHardwarePixelBufferPool@Ogre@@U?$less@I@std@@V?$allocator@U?$pair@$$CBIPAVHardwarePixelBufferPool@Ogre@@@std@@@4@$0A@@std@@@std@@QAE?AViterator@12@XZ ; std::_Tree<std::_Tmap_traits<unsigned int,Ogre::HardwarePixelBufferPool *,std::less<unsigned int>,std::allocator<std::pair<unsigned int const ,Ogre::HardwarePixelBufferPool *> >,0> >::begin
	jmp	SHORT $LN11@onLostDevi@2
$LN10@onLostDevi@2:

; 810  : 		for(; iter!=m_Pools.end(); iter++)

	push	0
	lea	ecx, DWORD PTR $T146835[ebp]
	push	ecx
	lea	ecx, DWORD PTR _iter$[ebp]
	call	??Eiterator@?$_Tree@V?$_Tmap_traits@IPAVHardwarePixelBufferPool@Ogre@@U?$less@I@std@@V?$allocator@U?$pair@$$CBIPAVHardwarePixelBufferPool@Ogre@@@std@@@4@$0A@@std@@@std@@QAE?AV012@H@Z ; std::_Tree<std::_Tmap_traits<unsigned int,Ogre::HardwarePixelBufferPool *,std::less<unsigned int>,std::allocator<std::pair<unsigned int const ,Ogre::HardwarePixelBufferPool *> >,0> >::iterator::operator++
$LN11@onLostDevi@2:
	lea	edx, DWORD PTR $T146836[ebp]
	push	edx
	mov	ecx, DWORD PTR _this$[ebp]
	add	ecx, 4
	call	?end@?$_Tree@V?$_Tmap_traits@IPAVHardwarePixelBufferPool@Ogre@@U?$less@I@std@@V?$allocator@U?$pair@$$CBIPAVHardwarePixelBufferPool@Ogre@@@std@@@4@$0A@@std@@@std@@QAE?AViterator@12@XZ ; std::_Tree<std::_Tmap_traits<unsigned int,Ogre::HardwarePixelBufferPool *,std::less<unsigned int>,std::allocator<std::pair<unsigned int const ,Ogre::HardwarePixelBufferPool *> >,0> >::end
	push	eax
	lea	ecx, DWORD PTR _iter$[ebp]
	call	??9const_iterator@?$_Tree@V?$_Tmap_traits@IPAVHardwarePixelBufferPool@Ogre@@U?$less@I@std@@V?$allocator@U?$pair@$$CBIPAVHardwarePixelBufferPool@Ogre@@@std@@@4@$0A@@std@@@std@@QBE_NABV012@@Z ; std::_Tree<std::_Tmap_traits<unsigned int,Ogre::HardwarePixelBufferPool *,std::less<unsigned int>,std::allocator<std::pair<unsigned int const ,Ogre::HardwarePixelBufferPool *> >,0> >::const_iterator::operator!=
	movzx	eax, al
	test	eax, eax
	je	SHORT $LN9@onLostDevi@2

; 811  : 		{
; 812  : 			static_cast<D3D9PixelBufferPool *>(iter->second)->onLostDevice();

	lea	ecx, DWORD PTR _iter$[ebp]
	call	??Citerator@?$_Tree@V?$_Tmap_traits@IPAVHardwarePixelBufferPool@Ogre@@U?$less@I@std@@V?$allocator@U?$pair@$$CBIPAVHardwarePixelBufferPool@Ogre@@@std@@@4@$0A@@std@@@std@@QBEPAU?$pair@$$CBIPAVHardwarePixelBufferPool@Ogre@@@2@XZ ; std::_Tree<std::_Tmap_traits<unsigned int,Ogre::HardwarePixelBufferPool *,std::less<unsigned int>,std::allocator<std::pair<unsigned int const ,Ogre::HardwarePixelBufferPool *> >,0> >::iterator::operator->
	mov	ecx, DWORD PTR [eax+4]
	call	?onLostDevice@D3D9PixelBufferPool@Ogre@@QAEXXZ ; Ogre::D3D9PixelBufferPool::onLostDevice

; 813  : 		}

	jmp	SHORT $LN10@onLostDevi@2
$LN9@onLostDevi@2:

; 814  : 		
; 815  : 		size_t i;
; 816  : 		for(i=0; i<m_DSBuffers.size(); i++)

	mov	DWORD PTR _i$[ebp], 0
	jmp	SHORT $LN8@onLostDevi@2
$LN7@onLostDevi@2:
	mov	ecx, DWORD PTR _i$[ebp]
	add	ecx, 1
	mov	DWORD PTR _i$[ebp], ecx
$LN8@onLostDevi@2:
	mov	ecx, DWORD PTR _this$[ebp]
	add	ecx, 44					; 0000002cH
	call	?size@?$vector@UDSBuffer@D3D9HardwarePixelBufferManager@Ogre@@V?$allocator@UDSBuffer@D3D9HardwarePixelBufferManager@Ogre@@@std@@@std@@QBEIXZ ; std::vector<Ogre::D3D9HardwarePixelBufferManager::DSBuffer,std::allocator<Ogre::D3D9HardwarePixelBufferManager::DSBuffer> >::size
	cmp	DWORD PTR _i$[ebp], eax
	jae	SHORT $LN6@onLostDevi@2

; 817  : 		{
; 818  : 			SAFE_RELEASE(m_DSBuffers[i].pbuf);

	mov	edx, DWORD PTR _i$[ebp]
	push	edx
	mov	ecx, DWORD PTR _this$[ebp]
	add	ecx, 44					; 0000002cH
	call	??A?$vector@UDSBuffer@D3D9HardwarePixelBufferManager@Ogre@@V?$allocator@UDSBuffer@D3D9HardwarePixelBufferManager@Ogre@@@std@@@std@@QAEAAUDSBuffer@D3D9HardwarePixelBufferManager@Ogre@@I@Z ; std::vector<Ogre::D3D9HardwarePixelBufferManager::DSBuffer,std::allocator<Ogre::D3D9HardwarePixelBufferManager::DSBuffer> >::operator[]
	cmp	DWORD PTR [eax], 0
	je	SHORT $LN5@onLostDevi@2
	mov	eax, DWORD PTR _i$[ebp]
	push	eax
	mov	ecx, DWORD PTR _this$[ebp]
	add	ecx, 44					; 0000002cH
	call	??A?$vector@UDSBuffer@D3D9HardwarePixelBufferManager@Ogre@@V?$allocator@UDSBuffer@D3D9HardwarePixelBufferManager@Ogre@@@std@@@std@@QAEAAUDSBuffer@D3D9HardwarePixelBufferManager@Ogre@@I@Z ; std::vector<Ogre::D3D9HardwarePixelBufferManager::DSBuffer,std::allocator<Ogre::D3D9HardwarePixelBufferManager::DSBuffer> >::operator[]
	mov	ecx, DWORD PTR [eax]
	mov	DWORD PTR tv163[ebp], ecx
	mov	edx, DWORD PTR tv163[ebp]
	mov	eax, DWORD PTR [edx]
	mov	ecx, DWORD PTR tv163[ebp]
	push	ecx
	mov	edx, DWORD PTR [eax+8]
	call	edx
	mov	eax, DWORD PTR _i$[ebp]
	push	eax
	mov	ecx, DWORD PTR _this$[ebp]
	add	ecx, 44					; 0000002cH
	call	??A?$vector@UDSBuffer@D3D9HardwarePixelBufferManager@Ogre@@V?$allocator@UDSBuffer@D3D9HardwarePixelBufferManager@Ogre@@@std@@@std@@QAEAAUDSBuffer@D3D9HardwarePixelBufferManager@Ogre@@I@Z ; std::vector<Ogre::D3D9HardwarePixelBufferManager::DSBuffer,std::allocator<Ogre::D3D9HardwarePixelBufferManager::DSBuffer> >::operator[]
	mov	DWORD PTR [eax], 0
$LN5@onLostDevi@2:

; 819  : 		}

	jmp	SHORT $LN7@onLostDevi@2
$LN6@onLostDevi@2:

; 820  : 		m_DSBuffers.resize(0);

	push	0
	mov	ecx, DWORD PTR _this$[ebp]
	add	ecx, 44					; 0000002cH
	call	?resize@?$vector@UDSBuffer@D3D9HardwarePixelBufferManager@Ogre@@V?$allocator@UDSBuffer@D3D9HardwarePixelBufferManager@Ogre@@@std@@@std@@QAEXI@Z ; std::vector<Ogre::D3D9HardwarePixelBufferManager::DSBuffer,std::allocator<Ogre::D3D9HardwarePixelBufferManager::DSBuffer> >::resize

; 821  : 
; 822  : 		for(i=0; i<m_RenderTargets.size(); i++)

	mov	DWORD PTR _i$[ebp], 0
	jmp	SHORT $LN4@onLostDevi@2
$LN3@onLostDevi@2:
	mov	ecx, DWORD PTR _i$[ebp]
	add	ecx, 1
	mov	DWORD PTR _i$[ebp], ecx
$LN4@onLostDevi@2:
	mov	ecx, DWORD PTR _this$[ebp]
	add	ecx, 68					; 00000044H
	call	?size@?$vector@URTBuffer@D3D9HardwarePixelBufferManager@Ogre@@V?$allocator@URTBuffer@D3D9HardwarePixelBufferManager@Ogre@@@std@@@std@@QBEIXZ ; std::vector<Ogre::D3D9HardwarePixelBufferManager::RTBuffer,std::allocator<Ogre::D3D9HardwarePixelBufferManager::RTBuffer> >::size
	cmp	DWORD PTR _i$[ebp], eax
	jae	SHORT $LN2@onLostDevi@2

; 823  : 		{
; 824  : 			SAFE_RELEASE(m_RenderTargets[i].pbuf);

	mov	edx, DWORD PTR _i$[ebp]
	push	edx
	mov	ecx, DWORD PTR _this$[ebp]
	add	ecx, 68					; 00000044H
	call	??A?$vector@URTBuffer@D3D9HardwarePixelBufferManager@Ogre@@V?$allocator@URTBuffer@D3D9HardwarePixelBufferManager@Ogre@@@std@@@std@@QAEAAURTBuffer@D3D9HardwarePixelBufferManager@Ogre@@I@Z ; std::vector<Ogre::D3D9HardwarePixelBufferManager::RTBuffer,std::allocator<Ogre::D3D9HardwarePixelBufferManager::RTBuffer> >::operator[]
	cmp	DWORD PTR [eax], 0
	je	SHORT $LN1@onLostDevi@2
	mov	eax, DWORD PTR _i$[ebp]
	push	eax
	mov	ecx, DWORD PTR _this$[ebp]
	add	ecx, 68					; 00000044H
	call	??A?$vector@URTBuffer@D3D9HardwarePixelBufferManager@Ogre@@V?$allocator@URTBuffer@D3D9HardwarePixelBufferManager@Ogre@@@std@@@std@@QAEAAURTBuffer@D3D9HardwarePixelBufferManager@Ogre@@I@Z ; std::vector<Ogre::D3D9HardwarePixelBufferManager::RTBuffer,std::allocator<Ogre::D3D9HardwarePixelBufferManager::RTBuffer> >::operator[]
	mov	ecx, DWORD PTR [eax]
	mov	DWORD PTR tv193[ebp], ecx
	mov	edx, DWORD PTR tv193[ebp]
	mov	eax, DWORD PTR [edx]
	mov	ecx, DWORD PTR tv193[ebp]
	push	ecx
	mov	edx, DWORD PTR [eax+8]
	call	edx
	mov	eax, DWORD PTR _i$[ebp]
	push	eax
	mov	ecx, DWORD PTR _this$[ebp]
	add	ecx, 68					; 00000044H
	call	??A?$vector@URTBuffer@D3D9HardwarePixelBufferManager@Ogre@@V?$allocator@URTBuffer@D3D9HardwarePixelBufferManager@Ogre@@@std@@@std@@QAEAAURTBuffer@D3D9HardwarePixelBufferManager@Ogre@@I@Z ; std::vector<Ogre::D3D9HardwarePixelBufferManager::RTBuffer,std::allocator<Ogre::D3D9HardwarePixelBufferManager::RTBuffer> >::operator[]
	mov	DWORD PTR [eax], 0
$LN1@onLostDevi@2:

; 825  : 		}

	jmp	SHORT $LN3@onLostDevi@2
$LN2@onLostDevi@2:

; 826  : 		m_RenderTargets.resize(0);

	push	0
	mov	ecx, DWORD PTR _this$[ebp]
	add	ecx, 68					; 00000044H
	call	?resize@?$vector@URTBuffer@D3D9HardwarePixelBufferManager@Ogre@@V?$allocator@URTBuffer@D3D9HardwarePixelBufferManager@Ogre@@@std@@@std@@QAEXI@Z ; std::vector<Ogre::D3D9HardwarePixelBufferManager::RTBuffer,std::allocator<Ogre::D3D9HardwarePixelBufferManager::RTBuffer> >::resize

; 827  : 	}

	mov	esp, ebp
	pop	ebp
	ret	0
?onLostDevice@D3D9HardwarePixelBufferManager@Ogre@@QAEXXZ ENDP ; Ogre::D3D9HardwarePixelBufferManager::onLostDevice
_TEXT	ENDS
PUBLIC	?onResetDevice@D3D9HardwarePixelBufferManager@Ogre@@QAE_NXZ ; Ogre::D3D9HardwarePixelBufferManager::onResetDevice
; Function compile flags: /Odtp
_TEXT	SEGMENT
_this$ = -28						; size = 4
$T146839 = -24						; size = 8
$T146838 = -16						; size = 8
_iter$ = -8						; size = 8
?onResetDevice@D3D9HardwarePixelBufferManager@Ogre@@QAE_NXZ PROC ; Ogre::D3D9HardwarePixelBufferManager::onResetDevice
; _this$ = ecx

; 830  : 	{

	push	ebp
	mov	ebp, esp
	sub	esp, 28					; 0000001cH
	mov	DWORD PTR _this$[ebp], ecx

; 831  : 		std::map<uint, HardwarePixelBufferPool *>::iterator iter = m_Pools.begin();

	lea	eax, DWORD PTR _iter$[ebp]
	push	eax
	mov	ecx, DWORD PTR _this$[ebp]
	add	ecx, 4
	call	?begin@?$_Tree@V?$_Tmap_traits@IPAVHardwarePixelBufferPool@Ogre@@U?$less@I@std@@V?$allocator@U?$pair@$$CBIPAVHardwarePixelBufferPool@Ogre@@@std@@@4@$0A@@std@@@std@@QAE?AViterator@12@XZ ; std::_Tree<std::_Tmap_traits<unsigned int,Ogre::HardwarePixelBufferPool *,std::less<unsigned int>,std::allocator<std::pair<unsigned int const ,Ogre::HardwarePixelBufferPool *> >,0> >::begin
	jmp	SHORT $LN4@onResetDev@2
$LN3@onResetDev@2:

; 832  : 		for(; iter!=m_Pools.end(); iter++)

	push	0
	lea	ecx, DWORD PTR $T146838[ebp]
	push	ecx
	lea	ecx, DWORD PTR _iter$[ebp]
	call	??Eiterator@?$_Tree@V?$_Tmap_traits@IPAVHardwarePixelBufferPool@Ogre@@U?$less@I@std@@V?$allocator@U?$pair@$$CBIPAVHardwarePixelBufferPool@Ogre@@@std@@@4@$0A@@std@@@std@@QAE?AV012@H@Z ; std::_Tree<std::_Tmap_traits<unsigned int,Ogre::HardwarePixelBufferPool *,std::less<unsigned int>,std::allocator<std::pair<unsigned int const ,Ogre::HardwarePixelBufferPool *> >,0> >::iterator::operator++
$LN4@onResetDev@2:
	lea	edx, DWORD PTR $T146839[ebp]
	push	edx
	mov	ecx, DWORD PTR _this$[ebp]
	add	ecx, 4
	call	?end@?$_Tree@V?$_Tmap_traits@IPAVHardwarePixelBufferPool@Ogre@@U?$less@I@std@@V?$allocator@U?$pair@$$CBIPAVHardwarePixelBufferPool@Ogre@@@std@@@4@$0A@@std@@@std@@QAE?AViterator@12@XZ ; std::_Tree<std::_Tmap_traits<unsigned int,Ogre::HardwarePixelBufferPool *,std::less<unsigned int>,std::allocator<std::pair<unsigned int const ,Ogre::HardwarePixelBufferPool *> >,0> >::end
	push	eax
	lea	ecx, DWORD PTR _iter$[ebp]
	call	??9const_iterator@?$_Tree@V?$_Tmap_traits@IPAVHardwarePixelBufferPool@Ogre@@U?$less@I@std@@V?$allocator@U?$pair@$$CBIPAVHardwarePixelBufferPool@Ogre@@@std@@@4@$0A@@std@@@std@@QBE_NABV012@@Z ; std::_Tree<std::_Tmap_traits<unsigned int,Ogre::HardwarePixelBufferPool *,std::less<unsigned int>,std::allocator<std::pair<unsigned int const ,Ogre::HardwarePixelBufferPool *> >,0> >::const_iterator::operator!=
	movzx	eax, al
	test	eax, eax
	je	SHORT $LN2@onResetDev@2

; 833  : 		{
; 834  : 			if(!static_cast<D3D9PixelBufferPool *>(iter->second)->onResetDevice())

	lea	ecx, DWORD PTR _iter$[ebp]
	call	??Citerator@?$_Tree@V?$_Tmap_traits@IPAVHardwarePixelBufferPool@Ogre@@U?$less@I@std@@V?$allocator@U?$pair@$$CBIPAVHardwarePixelBufferPool@Ogre@@@std@@@4@$0A@@std@@@std@@QBEPAU?$pair@$$CBIPAVHardwarePixelBufferPool@Ogre@@@2@XZ ; std::_Tree<std::_Tmap_traits<unsigned int,Ogre::HardwarePixelBufferPool *,std::less<unsigned int>,std::allocator<std::pair<unsigned int const ,Ogre::HardwarePixelBufferPool *> >,0> >::iterator::operator->
	mov	ecx, DWORD PTR [eax+4]
	call	?onResetDevice@D3D9PixelBufferPool@Ogre@@QAE_NXZ ; Ogre::D3D9PixelBufferPool::onResetDevice
	movzx	ecx, al
	test	ecx, ecx
	jne	SHORT $LN1@onResetDev@2

; 835  : 			{
; 836  : 				return false;

	xor	al, al
	jmp	SHORT $LN5@onResetDev@2
$LN1@onResetDev@2:

; 837  : 			}
; 838  : 		}

	jmp	SHORT $LN3@onResetDev@2
$LN2@onResetDev@2:

; 839  : 
; 840  : 		/*
; 841  : 		size_t i;
; 842  : 		for(i=0; i<m_DSBuffers.size(); i++)
; 843  : 		{
; 844  : 			m_pRS->getD3DDevice()->CreateDepthStencilSurface(m_DSBuffers[i].width, m_DSBuffers[i].height, 
; 845  : 				m_DSBuffers[i].format, m_DSBuffers[i].mstype, 0, true, &m_DSBuffers[i].pbuf, NULL);
; 846  : 		}
; 847  : 
; 848  : 		for(i=0; i<m_RenderTargets.size(); i++)
; 849  : 		{
; 850  : 			m_pRS->getD3DDevice()->CreateRenderTarget(m_RenderTargets[i].width,m_RenderTargets[i].height,
; 851  : 				m_RenderTargets[i].format,m_RenderTargets[i].mstype,0,false,&m_RenderTargets[i].pbuf,NULL);
; 852  : 		}*/
; 853  : 
; 854  : 		return true;

	mov	al, 1
$LN5@onResetDev@2:

; 855  : 	}

	mov	esp, ebp
	pop	ebp
	ret	0
?onResetDevice@D3D9HardwarePixelBufferManager@Ogre@@QAE_NXZ ENDP ; Ogre::D3D9HardwarePixelBufferManager::onResetDevice
_TEXT	ENDS
PUBLIC	??0?$_Vector_iterator@PAVHardwarePixelBuffer@Ogre@@V?$allocator@PAVHardwarePixelBuffer@Ogre@@@std@@@std@@QAE@PAPAVHardwarePixelBuffer@Ogre@@PBV_Container_base_aux@1@@Z ; std::_Vector_iterator<Ogre::HardwarePixelBuffer *,std::allocator<Ogre::HardwarePixelBuffer *> >::_Vector_iterator<Ogre::HardwarePixelBuffer *,std::allocator<Ogre::HardwarePixelBuffer *> >
; Function compile flags: /Odtp
; File d:\program files (x86)\microsoft visual studio 9.0\vc\include\vector
;	COMDAT ?begin@?$vector@PAVHardwarePixelBuffer@Ogre@@V?$allocator@PAVHardwarePixelBuffer@Ogre@@@std@@@std@@QAE?AV?$_Vector_iterator@PAVHardwarePixelBuffer@Ogre@@V?$allocator@PAVHardwarePixelBuffer@Ogre@@@std@@@2@XZ
_TEXT	SEGMENT
_this$ = -4						; size = 4
___$ReturnUdt$ = 8					; size = 4
?begin@?$vector@PAVHardwarePixelBuffer@Ogre@@V?$allocator@PAVHardwarePixelBuffer@Ogre@@@std@@@std@@QAE?AV?$_Vector_iterator@PAVHardwarePixelBuffer@Ogre@@V?$allocator@PAVHardwarePixelBuffer@Ogre@@@std@@@2@XZ PROC ; std::vector<Ogre::HardwarePixelBuffer *,std::allocator<Ogre::HardwarePixelBuffer *> >::begin, COMDAT
; _this$ = ecx

; 640  : 		{	// return iterator for beginning of mutable sequence

	push	ebp
	mov	ebp, esp
	push	ecx
	mov	DWORD PTR _this$[ebp], ecx

; 641  : 		return (iterator(_Myfirst, this));

	mov	eax, DWORD PTR _this$[ebp]
	push	eax
	mov	ecx, DWORD PTR _this$[ebp]
	mov	edx, DWORD PTR [ecx+12]
	push	edx
	mov	ecx, DWORD PTR ___$ReturnUdt$[ebp]
	call	??0?$_Vector_iterator@PAVHardwarePixelBuffer@Ogre@@V?$allocator@PAVHardwarePixelBuffer@Ogre@@@std@@@std@@QAE@PAPAVHardwarePixelBuffer@Ogre@@PBV_Container_base_aux@1@@Z ; std::_Vector_iterator<Ogre::HardwarePixelBuffer *,std::allocator<Ogre::HardwarePixelBuffer *> >::_Vector_iterator<Ogre::HardwarePixelBuffer *,std::allocator<Ogre::HardwarePixelBuffer *> >
	mov	eax, DWORD PTR ___$ReturnUdt$[ebp]

; 642  : 		}

	mov	esp, ebp
	pop	ebp
	ret	4
?begin@?$vector@PAVHardwarePixelBuffer@Ogre@@V?$allocator@PAVHardwarePixelBuffer@Ogre@@@std@@@std@@QAE?AV?$_Vector_iterator@PAVHardwarePixelBuffer@Ogre@@V?$allocator@PAVHardwarePixelBuffer@Ogre@@@std@@@2@XZ ENDP ; std::vector<Ogre::HardwarePixelBuffer *,std::allocator<Ogre::HardwarePixelBuffer *> >::begin
; Function compile flags: /Odtp
_TEXT	ENDS
;	COMDAT ?end@?$vector@PAVHardwarePixelBuffer@Ogre@@V?$allocator@PAVHardwarePixelBuffer@Ogre@@@std@@@std@@QAE?AV?$_Vector_iterator@PAVHardwarePixelBuffer@Ogre@@V?$allocator@PAVHardwarePixelBuffer@Ogre@@@std@@@2@XZ
_TEXT	SEGMENT
_this$ = -4						; size = 4
___$ReturnUdt$ = 8					; size = 4
