; Listing generated by Microsoft (R) Optimizing Compiler Version 15.00.30729.01 

	TITLE	i:\svnroot\client\Plugins\RenderSystem_D3D9\OgreD3D9ShaderManager.cpp
	.686P
	.XMM
	include listing.inc
	.model	flat

INCLUDELIB MSVCRT
INCLUDELIB OLDNAMES

PUBLIC	?_Value@?$_Is_swap_move@U_Swap_move_tag@std@@@std@@2_NB ; std::_Is_swap_move<std::_Swap_move_tag>::_Value
PUBLIC	?collate@?$_Locbase@H@std@@2HB			; std::_Locbase<int>::collate
PUBLIC	?ctype@?$_Locbase@H@std@@2HB			; std::_Locbase<int>::ctype
PUBLIC	?monetary@?$_Locbase@H@std@@2HB			; std::_Locbase<int>::monetary
PUBLIC	?numeric@?$_Locbase@H@std@@2HB			; std::_Locbase<int>::numeric
PUBLIC	?time@?$_Locbase@H@std@@2HB			; std::_Locbase<int>::time
PUBLIC	?messages@?$_Locbase@H@std@@2HB			; std::_Locbase<int>::messages
PUBLIC	?all@?$_Locbase@H@std@@2HB			; std::_Locbase<int>::all
PUBLIC	?none@?$_Locbase@H@std@@2HB			; std::_Locbase<int>::none
PUBLIC	?skipws@?$_Iosb@H@std@@2W4_Fmtflags@12@B	; std::_Iosb<int>::skipws
PUBLIC	?unitbuf@?$_Iosb@H@std@@2W4_Fmtflags@12@B	; std::_Iosb<int>::unitbuf
PUBLIC	?uppercase@?$_Iosb@H@std@@2W4_Fmtflags@12@B	; std::_Iosb<int>::uppercase
PUBLIC	?showbase@?$_Iosb@H@std@@2W4_Fmtflags@12@B	; std::_Iosb<int>::showbase
PUBLIC	?showpoint@?$_Iosb@H@std@@2W4_Fmtflags@12@B	; std::_Iosb<int>::showpoint
PUBLIC	?showpos@?$_Iosb@H@std@@2W4_Fmtflags@12@B	; std::_Iosb<int>::showpos
PUBLIC	?left@?$_Iosb@H@std@@2W4_Fmtflags@12@B		; std::_Iosb<int>::left
PUBLIC	?right@?$_Iosb@H@std@@2W4_Fmtflags@12@B		; std::_Iosb<int>::right
PUBLIC	?internal@?$_Iosb@H@std@@2W4_Fmtflags@12@B	; std::_Iosb<int>::internal
PUBLIC	?dec@?$_Iosb@H@std@@2W4_Fmtflags@12@B		; std::_Iosb<int>::dec
PUBLIC	?oct@?$_Iosb@H@std@@2W4_Fmtflags@12@B		; std::_Iosb<int>::oct
PUBLIC	?hex@?$_Iosb@H@std@@2W4_Fmtflags@12@B		; std::_Iosb<int>::hex
PUBLIC	?scientific@?$_Iosb@H@std@@2W4_Fmtflags@12@B	; std::_Iosb<int>::scientific
PUBLIC	?fixed@?$_Iosb@H@std@@2W4_Fmtflags@12@B		; std::_Iosb<int>::fixed
PUBLIC	?hexfloat@?$_Iosb@H@std@@2W4_Fmtflags@12@B	; std::_Iosb<int>::hexfloat
PUBLIC	?boolalpha@?$_Iosb@H@std@@2W4_Fmtflags@12@B	; std::_Iosb<int>::boolalpha
PUBLIC	?_Stdio@?$_Iosb@H@std@@2W4_Fmtflags@12@B	; std::_Iosb<int>::_Stdio
PUBLIC	?adjustfield@?$_Iosb@H@std@@2W4_Fmtflags@12@B	; std::_Iosb<int>::adjustfield
PUBLIC	?basefield@?$_Iosb@H@std@@2W4_Fmtflags@12@B	; std::_Iosb<int>::basefield
PUBLIC	?floatfield@?$_Iosb@H@std@@2W4_Fmtflags@12@B	; std::_Iosb<int>::floatfield
PUBLIC	?goodbit@?$_Iosb@H@std@@2W4_Iostate@12@B	; std::_Iosb<int>::goodbit
PUBLIC	?eofbit@?$_Iosb@H@std@@2W4_Iostate@12@B		; std::_Iosb<int>::eofbit
PUBLIC	?failbit@?$_Iosb@H@std@@2W4_Iostate@12@B	; std::_Iosb<int>::failbit
PUBLIC	?badbit@?$_Iosb@H@std@@2W4_Iostate@12@B		; std::_Iosb<int>::badbit
PUBLIC	?_Hardfail@?$_Iosb@H@std@@2W4_Iostate@12@B	; std::_Iosb<int>::_Hardfail
PUBLIC	?in@?$_Iosb@H@std@@2W4_Openmode@12@B		; std::_Iosb<int>::in
PUBLIC	?out@?$_Iosb@H@std@@2W4_Openmode@12@B		; std::_Iosb<int>::out
PUBLIC	?ate@?$_Iosb@H@std@@2W4_Openmode@12@B		; std::_Iosb<int>::ate
PUBLIC	?app@?$_Iosb@H@std@@2W4_Openmode@12@B		; std::_Iosb<int>::app
PUBLIC	?trunc@?$_Iosb@H@std@@2W4_Openmode@12@B		; std::_Iosb<int>::trunc
PUBLIC	?_Nocreate@?$_Iosb@H@std@@2W4_Openmode@12@B	; std::_Iosb<int>::_Nocreate
PUBLIC	?_Noreplace@?$_Iosb@H@std@@2W4_Openmode@12@B	; std::_Iosb<int>::_Noreplace
PUBLIC	?binary@?$_Iosb@H@std@@2W4_Openmode@12@B	; std::_Iosb<int>::binary
PUBLIC	?beg@?$_Iosb@H@std@@2W4_Seekdir@12@B		; std::_Iosb<int>::beg
PUBLIC	?cur@?$_Iosb@H@std@@2W4_Seekdir@12@B		; std::_Iosb<int>::cur
PUBLIC	?end@?$_Iosb@H@std@@2W4_Seekdir@12@B		; std::_Iosb<int>::end
PUBLIC	?value@?$integral_constant@_N$0A@@tr1@std@@2_NB	; std::tr1::integral_constant<bool,0>::value
PUBLIC	?value@?$integral_constant@_N$00@tr1@std@@2_NB	; std::tr1::integral_constant<bool,1>::value
PUBLIC	?ms_MaxLightNum@CompiledShader@Ogre@@2HA	; Ogre::CompiledShader::ms_MaxLightNum
PUBLIC	?ms_MaxSkinNum@CompiledShader@Ogre@@2HA		; Ogre::CompiledShader::ms_MaxSkinNum
PUBLIC	?ms_EffectNum@CompiledShader@Ogre@@2HA		; Ogre::CompiledShader::ms_EffectNum
PUBLIC	?ms_EffectMemorySize@CompiledShader@Ogre@@2HA	; Ogre::CompiledShader::ms_EffectMemorySize
PUBLIC	?ms_StdEffectNum@CompiledShader@Ogre@@2HA	; Ogre::CompiledShader::ms_StdEffectNum
PUBLIC	?ms_BorderEffectNum@CompiledShader@Ogre@@2HA	; Ogre::CompiledShader::ms_BorderEffectNum
PUBLIC	?ms_EffectCompileTime@CompiledShader@Ogre@@2HA	; Ogre::CompiledShader::ms_EffectCompileTime
PUBLIC	?ms_VSNum@CompiledShader@Ogre@@2HA		; Ogre::CompiledShader::ms_VSNum
PUBLIC	?ms_VSMemorySize@CompiledShader@Ogre@@2HA	; Ogre::CompiledShader::ms_VSMemorySize
PUBLIC	?ms_StdVSNum@CompiledShader@Ogre@@2HA		; Ogre::CompiledShader::ms_StdVSNum
PUBLIC	?ms_BorderVSNum@CompiledShader@Ogre@@2HA	; Ogre::CompiledShader::ms_BorderVSNum
PUBLIC	?ms_VSCompileTime@CompiledShader@Ogre@@2HA	; Ogre::CompiledShader::ms_VSCompileTime
PUBLIC	?ms_PSNum@CompiledShader@Ogre@@2HA		; Ogre::CompiledShader::ms_PSNum
PUBLIC	?ms_PSMemorySize@CompiledShader@Ogre@@2HA	; Ogre::CompiledShader::ms_PSMemorySize
PUBLIC	?ms_StdPSNum@CompiledShader@Ogre@@2HA		; Ogre::CompiledShader::ms_StdPSNum
PUBLIC	?ms_BorderPSNum@CompiledShader@Ogre@@2HA	; Ogre::CompiledShader::ms_BorderPSNum
PUBLIC	?ms_PSCompileTime@CompiledShader@Ogre@@2HA	; Ogre::CompiledShader::ms_PSCompileTime
PUBLIC	?ms_ProcessParamsTime@CompiledShader@Ogre@@2HA	; Ogre::CompiledShader::ms_ProcessParamsTime
PUBLIC	?ms_CacheTechniqueTime@CompiledShader@Ogre@@2HA	; Ogre::CompiledShader::ms_CacheTechniqueTime
PUBLIC	?ms_CacheParamHandleTime@CompiledShader@Ogre@@2HA ; Ogre::CompiledShader::ms_CacheParamHandleTime
_BSS	SEGMENT
?ms_MaxLightNum@CompiledShader@Ogre@@2HA DD 01H DUP (?)	; Ogre::CompiledShader::ms_MaxLightNum
?ms_MaxSkinNum@CompiledShader@Ogre@@2HA DD 01H DUP (?)	; Ogre::CompiledShader::ms_MaxSkinNum
?ms_EffectNum@CompiledShader@Ogre@@2HA DD 01H DUP (?)	; Ogre::CompiledShader::ms_EffectNum
?ms_EffectMemorySize@CompiledShader@Ogre@@2HA DD 01H DUP (?) ; Ogre::CompiledShader::ms_EffectMemorySize
?ms_StdEffectNum@CompiledShader@Ogre@@2HA DD 01H DUP (?) ; Ogre::CompiledShader::ms_StdEffectNum
?ms_BorderEffectNum@CompiledShader@Ogre@@2HA DD 01H DUP (?) ; Ogre::CompiledShader::ms_BorderEffectNum
?ms_EffectCompileTime@CompiledShader@Ogre@@2HA DD 01H DUP (?) ; Ogre::CompiledShader::ms_EffectCompileTime
?ms_VSNum@CompiledShader@Ogre@@2HA DD 01H DUP (?)	; Ogre::CompiledShader::ms_VSNum
?ms_VSMemorySize@CompiledShader@Ogre@@2HA DD 01H DUP (?) ; Ogre::CompiledShader::ms_VSMemorySize
?ms_StdVSNum@CompiledShader@Ogre@@2HA DD 01H DUP (?)	; Ogre::CompiledShader::ms_StdVSNum
?ms_BorderVSNum@CompiledShader@Ogre@@2HA DD 01H DUP (?)	; Ogre::CompiledShader::ms_BorderVSNum
?ms_VSCompileTime@CompiledShader@Ogre@@2HA DD 01H DUP (?) ; Ogre::CompiledShader::ms_VSCompileTime
?ms_PSNum@CompiledShader@Ogre@@2HA DD 01H DUP (?)	; Ogre::CompiledShader::ms_PSNum
?ms_PSMemorySize@CompiledShader@Ogre@@2HA DD 01H DUP (?) ; Ogre::CompiledShader::ms_PSMemorySize
?ms_StdPSNum@CompiledShader@Ogre@@2HA DD 01H DUP (?)	; Ogre::CompiledShader::ms_StdPSNum
?ms_BorderPSNum@CompiledShader@Ogre@@2HA DD 01H DUP (?)	; Ogre::CompiledShader::ms_BorderPSNum
?ms_PSCompileTime@CompiledShader@Ogre@@2HA DD 01H DUP (?) ; Ogre::CompiledShader::ms_PSCompileTime
?ms_ProcessParamsTime@CompiledShader@Ogre@@2HA DD 01H DUP (?) ; Ogre::CompiledShader::ms_ProcessParamsTime
?ms_CacheTechniqueTime@CompiledShader@Ogre@@2HA DD 01H DUP (?) ; Ogre::CompiledShader::ms_CacheTechniqueTime
?ms_CacheParamHandleTime@CompiledShader@Ogre@@2HA DD 01H DUP (?) ; Ogre::CompiledShader::ms_CacheParamHandleTime
_BSS	ENDS
;	COMDAT ?value@?$integral_constant@_N$00@tr1@std@@2_NB
CONST	SEGMENT
?value@?$integral_constant@_N$00@tr1@std@@2_NB DB 01H	; std::tr1::integral_constant<bool,1>::value
CONST	ENDS
;	COMDAT ?value@?$integral_constant@_N$0A@@tr1@std@@2_NB
CONST	SEGMENT
?value@?$integral_constant@_N$0A@@tr1@std@@2_NB DB 00H	; std::tr1::integral_constant<bool,0>::value
CONST	ENDS
;	COMDAT ?end@?$_Iosb@H@std@@2W4_Seekdir@12@B
CONST	SEGMENT
?end@?$_Iosb@H@std@@2W4_Seekdir@12@B DD 02H		; std::_Iosb<int>::end
CONST	ENDS
;	COMDAT ?cur@?$_Iosb@H@std@@2W4_Seekdir@12@B
CONST	SEGMENT
?cur@?$_Iosb@H@std@@2W4_Seekdir@12@B DD 01H		; std::_Iosb<int>::cur
CONST	ENDS
;	COMDAT ?beg@?$_Iosb@H@std@@2W4_Seekdir@12@B
CONST	SEGMENT
?beg@?$_Iosb@H@std@@2W4_Seekdir@12@B DD 00H		; std::_Iosb<int>::beg
CONST	ENDS
;	COMDAT ?binary@?$_Iosb@H@std@@2W4_Openmode@12@B
CONST	SEGMENT
?binary@?$_Iosb@H@std@@2W4_Openmode@12@B DD 020H	; std::_Iosb<int>::binary
CONST	ENDS
;	COMDAT ?_Noreplace@?$_Iosb@H@std@@2W4_Openmode@12@B
CONST	SEGMENT
?_Noreplace@?$_Iosb@H@std@@2W4_Openmode@12@B DD 080H	; std::_Iosb<int>::_Noreplace
CONST	ENDS
;	COMDAT ?_Nocreate@?$_Iosb@H@std@@2W4_Openmode@12@B
CONST	SEGMENT
?_Nocreate@?$_Iosb@H@std@@2W4_Openmode@12@B DD 040H	; std::_Iosb<int>::_Nocreate
CONST	ENDS
;	COMDAT ?trunc@?$_Iosb@H@std@@2W4_Openmode@12@B
CONST	SEGMENT
?trunc@?$_Iosb@H@std@@2W4_Openmode@12@B DD 010H		; std::_Iosb<int>::trunc
CONST	ENDS
;	COMDAT ?app@?$_Iosb@H@std@@2W4_Openmode@12@B
CONST	SEGMENT
?app@?$_Iosb@H@std@@2W4_Openmode@12@B DD 08H		; std::_Iosb<int>::app
CONST	ENDS
;	COMDAT ?ate@?$_Iosb@H@std@@2W4_Openmode@12@B
CONST	SEGMENT
?ate@?$_Iosb@H@std@@2W4_Openmode@12@B DD 04H		; std::_Iosb<int>::ate
CONST	ENDS
;	COMDAT ?out@?$_Iosb@H@std@@2W4_Openmode@12@B
CONST	SEGMENT
?out@?$_Iosb@H@std@@2W4_Openmode@12@B DD 02H		; std::_Iosb<int>::out
CONST	ENDS
;	COMDAT ?in@?$_Iosb@H@std@@2W4_Openmode@12@B
CONST	SEGMENT
?in@?$_Iosb@H@std@@2W4_Openmode@12@B DD 01H		; std::_Iosb<int>::in
CONST	ENDS
;	COMDAT ?_Hardfail@?$_Iosb@H@std@@2W4_Iostate@12@B
CONST	SEGMENT
?_Hardfail@?$_Iosb@H@std@@2W4_Iostate@12@B DD 010H	; std::_Iosb<int>::_Hardfail
CONST	ENDS
;	COMDAT ?badbit@?$_Iosb@H@std@@2W4_Iostate@12@B
CONST	SEGMENT
?badbit@?$_Iosb@H@std@@2W4_Iostate@12@B DD 04H		; std::_Iosb<int>::badbit
CONST	ENDS
;	COMDAT ?failbit@?$_Iosb@H@std@@2W4_Iostate@12@B
CONST	SEGMENT
?failbit@?$_Iosb@H@std@@2W4_Iostate@12@B DD 02H		; std::_Iosb<int>::failbit
CONST	ENDS
;	COMDAT ?eofbit@?$_Iosb@H@std@@2W4_Iostate@12@B
CONST	SEGMENT
?eofbit@?$_Iosb@H@std@@2W4_Iostate@12@B DD 01H		; std::_Iosb<int>::eofbit
CONST	ENDS
;	COMDAT ?goodbit@?$_Iosb@H@std@@2W4_Iostate@12@B
CONST	SEGMENT
?goodbit@?$_Iosb@H@std@@2W4_Iostate@12@B DD 00H		; std::_Iosb<int>::goodbit
CONST	ENDS
;	COMDAT ?floatfield@?$_Iosb@H@std@@2W4_Fmtflags@12@B
CONST	SEGMENT
?floatfield@?$_Iosb@H@std@@2W4_Fmtflags@12@B DD 03000H	; std::_Iosb<int>::floatfield
CONST	ENDS
;	COMDAT ?basefield@?$_Iosb@H@std@@2W4_Fmtflags@12@B
CONST	SEGMENT
?basefield@?$_Iosb@H@std@@2W4_Fmtflags@12@B DD 0e00H	; std::_Iosb<int>::basefield
CONST	ENDS
;	COMDAT ?adjustfield@?$_Iosb@H@std@@2W4_Fmtflags@12@B
CONST	SEGMENT
?adjustfield@?$_Iosb@H@std@@2W4_Fmtflags@12@B DD 01c0H	; std::_Iosb<int>::adjustfield
CONST	ENDS
;	COMDAT ?_Stdio@?$_Iosb@H@std@@2W4_Fmtflags@12@B
CONST	SEGMENT
?_Stdio@?$_Iosb@H@std@@2W4_Fmtflags@12@B DD 08000H	; std::_Iosb<int>::_Stdio
CONST	ENDS
;	COMDAT ?boolalpha@?$_Iosb@H@std@@2W4_Fmtflags@12@B
CONST	SEGMENT
?boolalpha@?$_Iosb@H@std@@2W4_Fmtflags@12@B DD 04000H	; std::_Iosb<int>::boolalpha
CONST	ENDS
;	COMDAT ?hexfloat@?$_Iosb@H@std@@2W4_Fmtflags@12@B
CONST	SEGMENT
?hexfloat@?$_Iosb@H@std@@2W4_Fmtflags@12@B DD 03000H	; std::_Iosb<int>::hexfloat
CONST	ENDS
;	COMDAT ?fixed@?$_Iosb@H@std@@2W4_Fmtflags@12@B
CONST	SEGMENT
?fixed@?$_Iosb@H@std@@2W4_Fmtflags@12@B DD 02000H	; std::_Iosb<int>::fixed
CONST	ENDS
;	COMDAT ?scientific@?$_Iosb@H@std@@2W4_Fmtflags@12@B
CONST	SEGMENT
?scientific@?$_Iosb@H@std@@2W4_Fmtflags@12@B DD 01000H	; std::_Iosb<int>::scientific
CONST	ENDS
;	COMDAT ?hex@?$_Iosb@H@std@@2W4_Fmtflags@12@B
CONST	SEGMENT
?hex@?$_Iosb@H@std@@2W4_Fmtflags@12@B DD 0800H		; std::_Iosb<int>::hex
CONST	ENDS
;	COMDAT ?oct@?$_Iosb@H@std@@2W4_Fmtflags@12@B
CONST	SEGMENT
?oct@?$_Iosb@H@std@@2W4_Fmtflags@12@B DD 0400H		; std::_Iosb<int>::oct
CONST	ENDS
;	COMDAT ?dec@?$_Iosb@H@std@@2W4_Fmtflags@12@B
CONST	SEGMENT
?dec@?$_Iosb@H@std@@2W4_Fmtflags@12@B DD 0200H		; std::_Iosb<int>::dec
CONST	ENDS
;	COMDAT ?internal@?$_Iosb@H@std@@2W4_Fmtflags@12@B
CONST	SEGMENT
?internal@?$_Iosb@H@std@@2W4_Fmtflags@12@B DD 0100H	; std::_Iosb<int>::internal
CONST	ENDS
;	COMDAT ?right@?$_Iosb@H@std@@2W4_Fmtflags@12@B
CONST	SEGMENT
?right@?$_Iosb@H@std@@2W4_Fmtflags@12@B DD 080H		; std::_Iosb<int>::right
CONST	ENDS
;	COMDAT ?left@?$_Iosb@H@std@@2W4_Fmtflags@12@B
CONST	SEGMENT
?left@?$_Iosb@H@std@@2W4_Fmtflags@12@B DD 040H		; std::_Iosb<int>::left
CONST	ENDS
;	COMDAT ?showpos@?$_Iosb@H@std@@2W4_Fmtflags@12@B
CONST	SEGMENT
?showpos@?$_Iosb@H@std@@2W4_Fmtflags@12@B DD 020H	; std::_Iosb<int>::showpos
CONST	ENDS
;	COMDAT ?showpoint@?$_Iosb@H@std@@2W4_Fmtflags@12@B
CONST	SEGMENT
?showpoint@?$_Iosb@H@std@@2W4_Fmtflags@12@B DD 010H	; std::_Iosb<int>::showpoint
CONST	ENDS
;	COMDAT ?showbase@?$_Iosb@H@std@@2W4_Fmtflags@12@B
CONST	SEGMENT
?showbase@?$_Iosb@H@std@@2W4_Fmtflags@12@B DD 08H	; std::_Iosb<int>::showbase
CONST	ENDS
;	COMDAT ?uppercase@?$_Iosb@H@std@@2W4_Fmtflags@12@B
CONST	SEGMENT
?uppercase@?$_Iosb@H@std@@2W4_Fmtflags@12@B DD 04H	; std::_Iosb<int>::uppercase
CONST	ENDS
;	COMDAT ?unitbuf@?$_Iosb@H@std@@2W4_Fmtflags@12@B
CONST	SEGMENT
?unitbuf@?$_Iosb@H@std@@2W4_Fmtflags@12@B DD 02H	; std::_Iosb<int>::unitbuf
CONST	ENDS
;	COMDAT ?skipws@?$_Iosb@H@std@@2W4_Fmtflags@12@B
CONST	SEGMENT
?skipws@?$_Iosb@H@std@@2W4_Fmtflags@12@B DD 01H		; std::_Iosb<int>::skipws
CONST	ENDS
;	COMDAT ?none@?$_Locbase@H@std@@2HB
CONST	SEGMENT
?none@?$_Locbase@H@std@@2HB DD 00H			; std::_Locbase<int>::none
CONST	ENDS
;	COMDAT ?all@?$_Locbase@H@std@@2HB
CONST	SEGMENT
?all@?$_Locbase@H@std@@2HB DD 03fH			; std::_Locbase<int>::all
CONST	ENDS
;	COMDAT ?messages@?$_Locbase@H@std@@2HB
CONST	SEGMENT
?messages@?$_Locbase@H@std@@2HB DD 020H			; std::_Locbase<int>::messages
CONST	ENDS
;	COMDAT ?time@?$_Locbase@H@std@@2HB
CONST	SEGMENT
?time@?$_Locbase@H@std@@2HB DD 010H			; std::_Locbase<int>::time
CONST	ENDS
;	COMDAT ?numeric@?$_Locbase@H@std@@2HB
CONST	SEGMENT
?numeric@?$_Locbase@H@std@@2HB DD 08H			; std::_Locbase<int>::numeric
CONST	ENDS
;	COMDAT ?monetary@?$_Locbase@H@std@@2HB
CONST	SEGMENT
?monetary@?$_Locbase@H@std@@2HB DD 04H			; std::_Locbase<int>::monetary
CONST	ENDS
;	COMDAT ?ctype@?$_Locbase@H@std@@2HB
CONST	SEGMENT
?ctype@?$_Locbase@H@std@@2HB DD 02H			; std::_Locbase<int>::ctype
CONST	ENDS
;	COMDAT ?collate@?$_Locbase@H@std@@2HB
CONST	SEGMENT
?collate@?$_Locbase@H@std@@2HB DD 01H			; std::_Locbase<int>::collate
CONST	ENDS
;	COMDAT ?_Value@?$_Is_swap_move@U_Swap_move_tag@std@@@std@@2_NB
CONST	SEGMENT
?_Value@?$_Is_swap_move@U_Swap_move_tag@std@@@std@@2_NB DB 01H ; std::_Is_swap_move<std::_Swap_move_tag>::_Value
CONST	ENDS
_DATA	SEGMENT
__bad_alloc_Message DD FLAT:$SG5714
	ORG $+4
_s_ParamNames DD FLAT:$SG144306
	DD	FLAT:$SG144307
	DD	FLAT:$SG144308
	DD	FLAT:$SG144309
	DD	FLAT:$SG144310
	DD	FLAT:$SG144311
	DD	FLAT:$SG144312
	DD	FLAT:$SG144313
	DD	FLAT:$SG144314
	DD	FLAT:$SG144315
	DD	FLAT:$SG144316
	DD	FLAT:$SG144317
	DD	FLAT:$SG144318
	DD	FLAT:$SG144319
	DD	FLAT:$SG144320
	DD	FLAT:$SG144321
	DD	FLAT:$SG144322
	DD	FLAT:$SG144323
	DD	FLAT:$SG144324
	DD	FLAT:$SG144325
	DD	FLAT:$SG144326
	DD	FLAT:$SG144327
	DD	FLAT:$SG144328
	DD	FLAT:$SG144329
	DD	FLAT:$SG144330
	DD	FLAT:$SG144331
	DD	FLAT:$SG144332
	DD	FLAT:$SG144333
	DD	FLAT:$SG144334
	DD	FLAT:$SG144335
	DD	FLAT:$SG144336
	DD	FLAT:$SG144337
	DD	FLAT:$SG144338
	DD	FLAT:$SG144339
	DD	FLAT:$SG144340
	DD	FLAT:$SG144341
	DD	FLAT:$SG144342
	DD	FLAT:$SG144343
	DD	FLAT:$SG144344
	DD	FLAT:$SG144345
	DD	FLAT:$SG144346
	DD	FLAT:$SG144347
	DD	FLAT:$SG144348
	DD	FLAT:$SG144349
	DD	FLAT:$SG144350
	DD	FLAT:$SG144351
	DD	FLAT:$SG144352
	DD	FLAT:$SG144353
_DATA	ENDS
CONST	SEGMENT
$SG5714	DB	'bad allocation', 00H
	ORG $+1
_MAX_FLOAT DD	07f7fffffr			; 3.40282e+038
_ONE_PI	DD	040490fd0r			; 3.14159
_EPSILON DD	03727c5acr			; 1e-005
_RADS_PER_DEG DD 03c8efa35r			; 0.0174533
_DEGS_PER_RAD DD 042652ee1r			; 57.2958
$SG144306 DB	'g_World', 00H
$SG144307 DB	'g_WorldView', 00H
$SG144308 DB	'g_WorldViewProj', 00H
$SG144309 DB	'DIRECTION', 00H
	ORG $+2
$SG144310 DB	'g_AmbientLight', 00H
	ORG $+1
$SG144311 DB	'g_Lights', 00H
	ORG $+3
$SG144312 DB	'g_SpecularColor', 00H
$SG144313 DB	'g_MorphRangePos', 00H
$SG144314 DB	'g_MorphRangeUV', 00H
	ORG $+1
$SG144315 DB	'MORPH_TIME', 00H
	ORG $+1
$SG144316 DB	'g_BoneTM', 00H
	ORG $+3
$SG144317 DB	'g_FogParam', 00H
	ORG $+1
$SG144318 DB	'g_DistFogColor', 00H
	ORG $+1
$SG144319 DB	'g_HeightFogColor', 00H
	ORG $+3
$SG144320 DB	'g_EyePos', 00H
	ORG $+3
$SG144321 DB	'g_EyePosModel', 00H
	ORG $+2
$SG144322 DB	'g_ShadowCenter', 00H
	ORG $+1
$SG144323 DB	'g_depthproj', 00H
$SG144324 DB	'g_depthtexture', 00H
	ORG $+1
$SG144325 DB	'g_shadowdensity', 00H
$SG144326 DB	'ShadowCubeMap', 00H
	ORG $+2
$SG144327 DB	'g_LightSCMPos', 00H
	ORG $+2
$SG144328 DB	'TERRAINDECAL', 00H
	ORG $+3
$SG144329 DB	'g_fTime', 00H
$SG144330 DB	'g_ReflectMap', 00H
	ORG $+3
$SG144331 DB	'REFLECT_MATRIX', 00H
	ORG $+1
$SG144332 DB	'g_FracMap', 00H
	ORG $+2
$SG144333 DB	'g_LightMap', 00H
	ORG $+1
$SG144334 DB	'LIGHTMAP_MATRIX', 00H
$SG144335 DB	'LIGHT_MULTIPLY', 00H
	ORG $+1
$SG144336 DB	'AMBLIGHT_MULTIPLY', 00H
	ORG $+2
$SG144337 DB	'WATERPARA', 00H
	ORG $+2
$SG144338 DB	'WATERCOLOR', 00H
	ORG $+1
$SG144339 DB	'WATERTURB', 00H
	ORG $+2
$SG144340 DB	'g_ModelTransparent', 00H
	ORG $+1
$SG144341 DB	'g_LightDir', 00H
	ORG $+1
$SG144342 DB	'DECAL_TEXTURE0', 00H
	ORG $+1
$SG144343 DB	'DECAL_TEXTURE1', 00H
	ORG $+1
$SG144344 DB	'DECAL_TEXTURE2', 00H
	ORG $+1
$SG144345 DB	'DECAL_TEXTURE3', 00H
	ORG $+1
$SG144346 DB	'DECAL_TEXTURE4', 00H
	ORG $+1
$SG144347 DB	'DECAL_TEXTURE5', 00H
	ORG $+1
$SG144348 DB	'DECAL_TEXTURE6', 00H
	ORG $+1
$SG144349 DB	'DECAL_TEXTURE7', 00H
	ORG $+1
$SG144350 DB	'DECAL_MATRIX', 00H
	ORG $+3
$SG144351 DB	'g_referencepoint', 00H
	ORG $+3
$SG144352 DB	'g_warfogparameter', 00H
	ORG $+2
$SG144353 DB	'g_warfogcolor', 00H
	ORG $+2
$SG144713 DB	'%d', 00H
	ORG $+1
$SG144718 DB	'NUM_LIGHTS', 00H
	ORG $+1
$SG144724 DB	'LIGHT%d_TYPE', 00H
	ORG $+3
$SG144725 DB	'LIGHT%d_SHADOW', 00H
	ORG $+1
$SG144726 DB	'LIGHT%d_SPECULAR', 00H
	ORG $+3
$SG144728 DB	'SKIN_MAXINFL', 00H
	ORG $+3
$SG144730 DB	'MORPH_POS', 00H
	ORG $+2
$SG144732 DB	'MORPH_UV0', 00H
	ORG $+2
$SG144734 DB	'FOG_DISTANCE', 00H
	ORG $+3
$SG144736 DB	'FOG_HEIGHT', 00H
	ORG $+1
$SG144738 DB	'LOG_SHADOWMAP', 00H
	ORG $+2
$SG144740 DB	'LIGHT_MAPPING', 00H
	ORG $+2
$SG144742 DB	'ATI_NV', 00H
	ORG $+1
$SG144744 DB	'TRANSPARENT', 00H
$SG144746 DB	'MRTENABLE', 00H
	ORG $+2
$SG144748 DB	'SHADERLEVEL', 00H
$SG144750 DB	'DECALBLENDMODE', 00H
	ORG $+1
$SG144752 DB	'MODEL_TRANSPARENT', 00H
	ORG $+2
$SG144761 DB	'stdmtl', 00H
	ORG $+1
$SG144763 DB	'border', 00H
	ORG $+1
$SG144767 DB	'stdmtl', 00H
	ORG $+1
$SG144769 DB	'border', 00H
	ORG $+1
$SG144773 DB	'stdmtl', 00H
	ORG $+1
$SG144775 DB	'border', 00H
	ORG $+1
$SG144935 DB	'lod', 00H
$SG144936 DB	'usage', 00H
	ORG $+2
$SG144946 DB	'vs', 00H
	ORG $+1
$SG144951 DB	'ps', 00H
	ORG $+1
$SG145247 DB	'vs_2_0', 00H
	ORG $+1
$SG145248 DB	'VSMain', 00H
	ORG $+1
$SG145250 DB	'ps_2_0', 00H
	ORG $+1
$SG145251 DB	'PSMain', 00H
CONST	ENDS
PUBLIC	??1?$vector@U_D3DXMACRO@@V?$allocator@U_D3DXMACRO@@@std@@@std@@QAE@XZ ; std::vector<_D3DXMACRO,std::allocator<_D3DXMACRO> >::~vector<_D3DXMACRO,std::allocator<_D3DXMACRO> >
PUBLIC	?push_back@?$vector@U_D3DXMACRO@@V?$allocator@U_D3DXMACRO@@@std@@@std@@QAEXABU_D3DXMACRO@@@Z ; std::vector<_D3DXMACRO,std::allocator<_D3DXMACRO> >::push_back
PUBLIC	??0?$vector@U_D3DXMACRO@@V?$allocator@U_D3DXMACRO@@@std@@@std@@QAE@XZ ; std::vector<_D3DXMACRO,std::allocator<_D3DXMACRO> >::vector<_D3DXMACRO,std::allocator<_D3DXMACRO> >
PUBLIC	??0ShaderMacroMgr@Ogre@@QAE@XZ			; Ogre::ShaderMacroMgr::ShaderMacroMgr
EXTRN	___security_cookie:DWORD
EXTRN	___CxxFrameHandler3:PROC
EXTRN	@__security_check_cookie@4:PROC
xdata$x	SEGMENT
__unwindtable$??0ShaderMacroMgr@Ogre@@QAE@XZ DD 0ffffffffH
	DD	FLAT:__unwindfunclet$??0ShaderMacroMgr@Ogre@@QAE@XZ$0
__ehfuncinfo$??0ShaderMacroMgr@Ogre@@QAE@XZ DD 019930522H
	DD	01H
	DD	FLAT:__unwindtable$??0ShaderMacroMgr@Ogre@@QAE@XZ
	DD	2 DUP(00H)
	DD	2 DUP(00H)
	DD	00H
	DD	00H
; Function compile flags: /Odtp
; File i:\svnroot\client\plugins\rendersystem_d3d9\ogred3d9shadermanager.cpp
xdata$x	ENDS
_TEXT	SEGMENT
_this$ = -16						; size = 4
__$EHRec$ = -12						; size = 12
??0ShaderMacroMgr@Ogre@@QAE@XZ PROC			; Ogre::ShaderMacroMgr::ShaderMacroMgr
; _this$ = ecx

; 85   : 	{

	push	ebp
	mov	ebp, esp
	push	-1
	push	__ehhandler$??0ShaderMacroMgr@Ogre@@QAE@XZ
	mov	eax, DWORD PTR fs:0
	push	eax
	push	ecx
	mov	eax, DWORD PTR ___security_cookie
	xor	eax, ebp
	push	eax
	lea	eax, DWORD PTR __$EHRec$[ebp]
	mov	DWORD PTR fs:0, eax
	mov	DWORD PTR _this$[ebp], ecx
	mov	ecx, DWORD PTR _this$[ebp]
	call	??0?$vector@U_D3DXMACRO@@V?$allocator@U_D3DXMACRO@@@std@@@std@@QAE@XZ ; std::vector<_D3DXMACRO,std::allocator<_D3DXMACRO> >::vector<_D3DXMACRO,std::allocator<_D3DXMACRO> >
	mov	DWORD PTR __$EHRec$[ebp+8], 0

; 86   : 		m_Tail.Definition = NULL;

	mov	eax, DWORD PTR _this$[ebp]
	mov	DWORD PTR [eax+28], 0

; 87   : 		m_Tail.Name = NULL;

	mov	ecx, DWORD PTR _this$[ebp]
	mov	DWORD PTR [ecx+24], 0

; 88   : 		m_Macros.push_back(m_Tail);

	mov	edx, DWORD PTR _this$[ebp]
	add	edx, 24					; 00000018H
	push	edx
	mov	ecx, DWORD PTR _this$[ebp]
	call	?push_back@?$vector@U_D3DXMACRO@@V?$allocator@U_D3DXMACRO@@@std@@@std@@QAEXABU_D3DXMACRO@@@Z ; std::vector<_D3DXMACRO,std::allocator<_D3DXMACRO> >::push_back

; 89   : 	}

	mov	DWORD PTR __$EHRec$[ebp+8], -1
	mov	eax, DWORD PTR _this$[ebp]
	mov	ecx, DWORD PTR __$EHRec$[ebp]
	mov	DWORD PTR fs:0, ecx
	pop	ecx
	mov	esp, ebp
	pop	ebp
	ret	0
_TEXT	ENDS
text$x	SEGMENT
__unwindfunclet$??0ShaderMacroMgr@Ogre@@QAE@XZ$0:
	mov	ecx, DWORD PTR _this$[ebp]
	jmp	??1?$vector@U_D3DXMACRO@@V?$allocator@U_D3DXMACRO@@@std@@@std@@QAE@XZ ; std::vector<_D3DXMACRO,std::allocator<_D3DXMACRO> >::~vector<_D3DXMACRO,std::allocator<_D3DXMACRO> >
__ehhandler$??0ShaderMacroMgr@Ogre@@QAE@XZ:
	mov	edx, DWORD PTR [esp+8]
	lea	eax, DWORD PTR [edx+12]
	mov	ecx, DWORD PTR [edx-8]
	xor	ecx, eax
	call	@__security_check_cookie@4
	mov	eax, OFFSET __ehfuncinfo$??0ShaderMacroMgr@Ogre@@QAE@XZ
	jmp	___CxxFrameHandler3
text$x	ENDS
??0ShaderMacroMgr@Ogre@@QAE@XZ ENDP			; Ogre::ShaderMacroMgr::ShaderMacroMgr
PUBLIC	??A?$vector@U_D3DXMACRO@@V?$allocator@U_D3DXMACRO@@@std@@@std@@QAEAAU_D3DXMACRO@@I@Z ; std::vector<_D3DXMACRO,std::allocator<_D3DXMACRO> >::operator[]
PUBLIC	?size@?$vector@U_D3DXMACRO@@V?$allocator@U_D3DXMACRO@@@std@@@std@@QBEIXZ ; std::vector<_D3DXMACRO,std::allocator<_D3DXMACRO> >::size
PUBLIC	??1ShaderMacroMgr@Ogre@@QAE@XZ			; Ogre::ShaderMacroMgr::~ShaderMacroMgr
EXTRN	__imp__free:PROC
xdata$x	SEGMENT
__unwindtable$??1ShaderMacroMgr@Ogre@@QAE@XZ DD 0ffffffffH
	DD	FLAT:__unwindfunclet$??1ShaderMacroMgr@Ogre@@QAE@XZ$0
__ehfuncinfo$??1ShaderMacroMgr@Ogre@@QAE@XZ DD 019930522H
	DD	01H
	DD	FLAT:__unwindtable$??1ShaderMacroMgr@Ogre@@QAE@XZ
	DD	2 DUP(00H)
	DD	2 DUP(00H)
	DD	00H
	DD	00H
; Function compile flags: /Odtp
xdata$x	ENDS
_TEXT	SEGMENT
_this$ = -20						; size = 4
_i$144694 = -16						; size = 4
__$EHRec$ = -12						; size = 12
??1ShaderMacroMgr@Ogre@@QAE@XZ PROC			; Ogre::ShaderMacroMgr::~ShaderMacroMgr
; _this$ = ecx

; 92   : 	{

	push	ebp
	mov	ebp, esp
	push	-1
	push	__ehhandler$??1ShaderMacroMgr@Ogre@@QAE@XZ
	mov	eax, DWORD PTR fs:0
	push	eax
	sub	esp, 8
	mov	eax, DWORD PTR ___security_cookie
	xor	eax, ebp
	push	eax
	lea	eax, DWORD PTR __$EHRec$[ebp]
	mov	DWORD PTR fs:0, eax
	mov	DWORD PTR _this$[ebp], ecx
	mov	DWORD PTR __$EHRec$[ebp+8], 0

; 93   : 		for(size_t i=0; i<m_Macros.size()-1; i++)

	mov	DWORD PTR _i$144694[ebp], 0
	jmp	SHORT $LN3@ShaderMacr
$LN2@ShaderMacr:
	mov	eax, DWORD PTR _i$144694[ebp]
	add	eax, 1
	mov	DWORD PTR _i$144694[ebp], eax
$LN3@ShaderMacr:
	mov	ecx, DWORD PTR _this$[ebp]
	call	?size@?$vector@U_D3DXMACRO@@V?$allocator@U_D3DXMACRO@@@std@@@std@@QBEIXZ ; std::vector<_D3DXMACRO,std::allocator<_D3DXMACRO> >::size
	sub	eax, 1
	cmp	DWORD PTR _i$144694[ebp], eax
	jae	SHORT $LN4@ShaderMacr

; 94   : 		{
; 95   : 			free((void *)m_Macros[i].Definition);

	mov	ecx, DWORD PTR _i$144694[ebp]
	push	ecx
	mov	ecx, DWORD PTR _this$[ebp]
	call	??A?$vector@U_D3DXMACRO@@V?$allocator@U_D3DXMACRO@@@std@@@std@@QAEAAU_D3DXMACRO@@I@Z ; std::vector<_D3DXMACRO,std::allocator<_D3DXMACRO> >::operator[]
	mov	edx, DWORD PTR [eax+4]
	push	edx
	call	DWORD PTR __imp__free
	add	esp, 4

; 96   : 			free((void *)m_Macros[i].Name);

	mov	eax, DWORD PTR _i$144694[ebp]
	push	eax
	mov	ecx, DWORD PTR _this$[ebp]
	call	??A?$vector@U_D3DXMACRO@@V?$allocator@U_D3DXMACRO@@@std@@@std@@QAEAAU_D3DXMACRO@@I@Z ; std::vector<_D3DXMACRO,std::allocator<_D3DXMACRO> >::operator[]
	mov	ecx, DWORD PTR [eax]
	push	ecx
	call	DWORD PTR __imp__free
	add	esp, 4
	jmp	SHORT $LN2@ShaderMacr
$LN4@ShaderMacr:

; 97   : 		}
; 98   : 	}

	mov	DWORD PTR __$EHRec$[ebp+8], -1
	mov	ecx, DWORD PTR _this$[ebp]
	call	??1?$vector@U_D3DXMACRO@@V?$allocator@U_D3DXMACRO@@@std@@@std@@QAE@XZ ; std::vector<_D3DXMACRO,std::allocator<_D3DXMACRO> >::~vector<_D3DXMACRO,std::allocator<_D3DXMACRO> >
	mov	ecx, DWORD PTR __$EHRec$[ebp]
	mov	DWORD PTR fs:0, ecx
	pop	ecx
	mov	esp, ebp
	pop	ebp
	ret	0
_TEXT	ENDS
text$x	SEGMENT
__unwindfunclet$??1ShaderMacroMgr@Ogre@@QAE@XZ$0:
	mov	ecx, DWORD PTR _this$[ebp]
	jmp	??1?$vector@U_D3DXMACRO@@V?$allocator@U_D3DXMACRO@@@std@@@std@@QAE@XZ ; std::vector<_D3DXMACRO,std::allocator<_D3DXMACRO> >::~vector<_D3DXMACRO,std::allocator<_D3DXMACRO> >
__ehhandler$??1ShaderMacroMgr@Ogre@@QAE@XZ:
	mov	edx, DWORD PTR [esp+8]
	lea	eax, DWORD PTR [edx+12]
	mov	ecx, DWORD PTR [edx-12]
	xor	ecx, eax
	call	@__security_check_cookie@4
	mov	eax, OFFSET __ehfuncinfo$??1ShaderMacroMgr@Ogre@@QAE@XZ
	jmp	___CxxFrameHandler3
text$x	ENDS
??1ShaderMacroMgr@Ogre@@QAE@XZ ENDP			; Ogre::ShaderMacroMgr::~ShaderMacroMgr
PUBLIC	??$_snprintf_s@$0BAA@@@YAHAAY0BAA@DIPBDZZ	; _snprintf_s<256>
PUBLIC	__$ArrayPad$
PUBLIC	?AddMacro@ShaderMacroMgr@Ogre@@QAEXPBDH@Z	; Ogre::ShaderMacroMgr::AddMacro
EXTRN	__imp___strdup:PROC
; Function compile flags: /Odtp
_TEXT	SEGMENT
_this$ = -276						; size = 4
_buffer$ = -272						; size = 256
__$ArrayPad$ = -12					; size = 4
_tmp$ = -8						; size = 8
_pname$ = 8						; size = 4
_value$ = 12						; size = 4
?AddMacro@ShaderMacroMgr@Ogre@@QAEXPBDH@Z PROC		; Ogre::ShaderMacroMgr::AddMacro
; _this$ = ecx

; 101  : 	{

	push	ebp
	mov	ebp, esp
	sub	esp, 276				; 00000114H
	mov	eax, DWORD PTR ___security_cookie
	xor	eax, ebp
	mov	DWORD PTR __$ArrayPad$[ebp], eax
	mov	DWORD PTR _this$[ebp], ecx

; 102  : 		char buffer[256];
; 103  : 		D3DXMACRO tmp;
; 104  : 
; 105  : 		tmp.Name = _strdup(pname);

	mov	eax, DWORD PTR _pname$[ebp]
	push	eax
	call	DWORD PTR __imp___strdup
	add	esp, 4
	mov	DWORD PTR _tmp$[ebp], eax

; 106  : 		_snprintf_s(buffer,sizeof(buffer), "%d", value);

	mov	ecx, DWORD PTR _value$[ebp]
	push	ecx
	push	OFFSET $SG144713
	push	256					; 00000100H
	lea	edx, DWORD PTR _buffer$[ebp]
	push	edx
	call	??$_snprintf_s@$0BAA@@@YAHAAY0BAA@DIPBDZZ ; _snprintf_s<256>
	add	esp, 16					; 00000010H

; 107  : 		tmp.Definition = _strdup(buffer);

	lea	eax, DWORD PTR _buffer$[ebp]
	push	eax
	call	DWORD PTR __imp___strdup
	add	esp, 4
	mov	DWORD PTR _tmp$[ebp+4], eax

; 108  : 
; 109  : 		m_Macros[m_Macros.size()-1] = tmp;

	mov	ecx, DWORD PTR _this$[ebp]
	call	?size@?$vector@U_D3DXMACRO@@V?$allocator@U_D3DXMACRO@@@std@@@std@@QBEIXZ ; std::vector<_D3DXMACRO,std::allocator<_D3DXMACRO> >::size
	sub	eax, 1
	push	eax
	mov	ecx, DWORD PTR _this$[ebp]
	call	??A?$vector@U_D3DXMACRO@@V?$allocator@U_D3DXMACRO@@@std@@@std@@QAEAAU_D3DXMACRO@@I@Z ; std::vector<_D3DXMACRO,std::allocator<_D3DXMACRO> >::operator[]
	mov	ecx, DWORD PTR _tmp$[ebp]
	mov	DWORD PTR [eax], ecx
	mov	edx, DWORD PTR _tmp$[ebp+4]
	mov	DWORD PTR [eax+4], edx

; 110  : 		m_Macros.push_back(m_Tail);

	mov	eax, DWORD PTR _this$[ebp]
	add	eax, 24					; 00000018H
	push	eax
	mov	ecx, DWORD PTR _this$[ebp]
	call	?push_back@?$vector@U_D3DXMACRO@@V?$allocator@U_D3DXMACRO@@@std@@@std@@QAEXABU_D3DXMACRO@@@Z ; std::vector<_D3DXMACRO,std::allocator<_D3DXMACRO> >::push_back

; 111  : 	}

	mov	ecx, DWORD PTR __$ArrayPad$[ebp]
	xor	ecx, ebp
	call	@__security_check_cookie@4
	mov	esp, ebp
	pop	ebp
	ret	8
?AddMacro@ShaderMacroMgr@Ogre@@QAEXPBDH@Z ENDP		; Ogre::ShaderMacroMgr::AddMacro
_TEXT	ENDS
PUBLIC	?GetEnvLightSpecular@Ogre@@YAHABUShaderEnvFlags@1@H@Z ; Ogre::GetEnvLightSpecular
PUBLIC	?GetEnvLightShadow@Ogre@@YAHABUShaderEnvFlags@1@H@Z ; Ogre::GetEnvLightShadow
PUBLIC	?GetEnvLightType@Ogre@@YAHABUShaderEnvFlags@1@H@Z ; Ogre::GetEnvLightType
PUBLIC	__$ArrayPad$
PUBLIC	?createFromShaderEnv@ShaderMacroMgr@Ogre@@QAEXABUShaderEnvFlags@2@@Z ; Ogre::ShaderMacroMgr::createFromShaderEnv
; Function compile flags: /Odtp
_TEXT	SEGMENT
_this$ = -268						; size = 4
_buffer$144723 = -264					; size = 256
__$ArrayPad$ = -8					; size = 4
_i$144719 = -4						; size = 4
_env$ = 8						; size = 4
?createFromShaderEnv@ShaderMacroMgr@Ogre@@QAEXABUShaderEnvFlags@2@@Z PROC ; Ogre::ShaderMacroMgr::createFromShaderEnv
; _this$ = ecx

; 114  : 	{

	push	ebp
	mov	ebp, esp
	sub	esp, 268				; 0000010cH
	mov	eax, DWORD PTR ___security_cookie
	xor	eax, ebp
	mov	DWORD PTR __$ArrayPad$[ebp], eax
	mov	DWORD PTR _this$[ebp], ecx

; 115  : 		AddMacro("NUM_LIGHTS", env.nlight);

	mov	eax, DWORD PTR _env$[ebp]
	mov	ecx, DWORD PTR [eax]
	and	ecx, 7
	push	ecx
	push	OFFSET $SG144718
	mov	ecx, DWORD PTR _this$[ebp]
	call	?AddMacro@ShaderMacroMgr@Ogre@@QAEXPBDH@Z ; Ogre::ShaderMacroMgr::AddMacro

; 116  : 
; 117  : 		for(int i=0; i<int(env.nlight); i++)

	mov	DWORD PTR _i$144719[ebp], 0
	jmp	SHORT $LN16@createFrom
$LN15@createFrom:
	mov	edx, DWORD PTR _i$144719[ebp]
	add	edx, 1
	mov	DWORD PTR _i$144719[ebp], edx
$LN16@createFrom:
	mov	eax, DWORD PTR _env$[ebp]
	mov	ecx, DWORD PTR [eax]
	and	ecx, 7
	cmp	DWORD PTR _i$144719[ebp], ecx
	jge	$LN14@createFrom

; 118  : 		{
; 119  : 			char buffer[256];
; 120  : 			_snprintf_s(buffer,sizeof(buffer), "LIGHT%d_TYPE", i);

	mov	edx, DWORD PTR _i$144719[ebp]
	push	edx
	push	OFFSET $SG144724
	push	256					; 00000100H
	lea	eax, DWORD PTR _buffer$144723[ebp]
	push	eax
	call	??$_snprintf_s@$0BAA@@@YAHAAY0BAA@DIPBDZZ ; _snprintf_s<256>
	add	esp, 16					; 00000010H

; 121  : 			AddMacro(buffer, GetEnvLightType(env, i));

	mov	ecx, DWORD PTR _i$144719[ebp]
	push	ecx
	mov	edx, DWORD PTR _env$[ebp]
	push	edx
	call	?GetEnvLightType@Ogre@@YAHABUShaderEnvFlags@1@H@Z ; Ogre::GetEnvLightType
	add	esp, 8
	push	eax
	lea	eax, DWORD PTR _buffer$144723[ebp]
	push	eax
	mov	ecx, DWORD PTR _this$[ebp]
	call	?AddMacro@ShaderMacroMgr@Ogre@@QAEXPBDH@Z ; Ogre::ShaderMacroMgr::AddMacro

; 122  : 			_snprintf_s(buffer,sizeof(buffer), "LIGHT%d_SHADOW", i);

	mov	ecx, DWORD PTR _i$144719[ebp]
	push	ecx
	push	OFFSET $SG144725
	push	256					; 00000100H
	lea	edx, DWORD PTR _buffer$144723[ebp]
	push	edx
	call	??$_snprintf_s@$0BAA@@@YAHAAY0BAA@DIPBDZZ ; _snprintf_s<256>
	add	esp, 16					; 00000010H

; 123  : 			AddMacro(buffer, GetEnvLightShadow(env, i));

	mov	eax, DWORD PTR _i$144719[ebp]
	push	eax
	mov	ecx, DWORD PTR _env$[ebp]
	push	ecx
	call	?GetEnvLightShadow@Ogre@@YAHABUShaderEnvFlags@1@H@Z ; Ogre::GetEnvLightShadow
	add	esp, 8
	push	eax
	lea	edx, DWORD PTR _buffer$144723[ebp]
	push	edx
	mov	ecx, DWORD PTR _this$[ebp]
	call	?AddMacro@ShaderMacroMgr@Ogre@@QAEXPBDH@Z ; Ogre::ShaderMacroMgr::AddMacro

; 124  : 			_snprintf_s(buffer,sizeof(buffer), "LIGHT%d_SPECULAR", i);

	mov	eax, DWORD PTR _i$144719[ebp]
	push	eax
	push	OFFSET $SG144726
	push	256					; 00000100H
	lea	ecx, DWORD PTR _buffer$144723[ebp]
	push	ecx
	call	??$_snprintf_s@$0BAA@@@YAHAAY0BAA@DIPBDZZ ; _snprintf_s<256>
	add	esp, 16					; 00000010H

; 125  : 			AddMacro(buffer, GetEnvLightSpecular(env, i));

	mov	edx, DWORD PTR _i$144719[ebp]
	push	edx
	mov	eax, DWORD PTR _env$[ebp]
	push	eax
	call	?GetEnvLightSpecular@Ogre@@YAHABUShaderEnvFlags@1@H@Z ; Ogre::GetEnvLightSpecular
	add	esp, 8
	push	eax
	lea	ecx, DWORD PTR _buffer$144723[ebp]
	push	ecx
	mov	ecx, DWORD PTR _this$[ebp]
	call	?AddMacro@ShaderMacroMgr@Ogre@@QAEXPBDH@Z ; Ogre::ShaderMacroMgr::AddMacro

; 126  : 		}

	jmp	$LN15@createFrom
$LN14@createFrom:

; 127  : 
; 128  : 		if(env.skin_maxinfl > 0) AddMacro("SKIN_MAXINFL", env.skin_maxinfl);

	mov	edx, DWORD PTR _env$[ebp]
	mov	eax, DWORD PTR [edx]
	shr	eax, 18					; 00000012H
	and	eax, 7
	jbe	SHORT $LN13@createFrom
	mov	ecx, DWORD PTR _env$[ebp]
	mov	edx, DWORD PTR [ecx]
	shr	edx, 18					; 00000012H
	and	edx, 7
	push	edx
	push	OFFSET $SG144728
	mov	ecx, DWORD PTR _this$[ebp]
	call	?AddMacro@ShaderMacroMgr@Ogre@@QAEXPBDH@Z ; Ogre::ShaderMacroMgr::AddMacro
$LN13@createFrom:

; 129  : 
; 130  : 		if(env.morph_pos > 0) AddMacro("MORPH_POS", env.morph_pos);

	mov	eax, DWORD PTR _env$[ebp]
	mov	ecx, DWORD PTR [eax]
	shr	ecx, 21					; 00000015H
	and	ecx, 1
	jbe	SHORT $LN12@createFrom
	mov	edx, DWORD PTR _env$[ebp]
	mov	eax, DWORD PTR [edx]
	shr	eax, 21					; 00000015H
	and	eax, 1
	push	eax
	push	OFFSET $SG144730
	mov	ecx, DWORD PTR _this$[ebp]
	call	?AddMacro@ShaderMacroMgr@Ogre@@QAEXPBDH@Z ; Ogre::ShaderMacroMgr::AddMacro
$LN12@createFrom:

; 131  : 
; 132  : 		if(env.morph_uv0 > 0) AddMacro("MORPH_UV0", env.morph_uv0);

	mov	ecx, DWORD PTR _env$[ebp]
	mov	edx, DWORD PTR [ecx]
	shr	edx, 22					; 00000016H
	and	edx, 1
	jbe	SHORT $LN11@createFrom
	mov	eax, DWORD PTR _env$[ebp]
	mov	ecx, DWORD PTR [eax]
	shr	ecx, 22					; 00000016H
	and	ecx, 1
	push	ecx
	push	OFFSET $SG144732
	mov	ecx, DWORD PTR _this$[ebp]
	call	?AddMacro@ShaderMacroMgr@Ogre@@QAEXPBDH@Z ; Ogre::ShaderMacroMgr::AddMacro
$LN11@createFrom:

; 133  : 
; 134  : 		if(env.distfog > 0) AddMacro("FOG_DISTANCE", env.distfog);

	mov	edx, DWORD PTR _env$[ebp]
	mov	eax, DWORD PTR [edx]
	shr	eax, 15					; 0000000fH
	and	eax, 1
	jbe	SHORT $LN10@createFrom
	mov	ecx, DWORD PTR _env$[ebp]
	mov	edx, DWORD PTR [ecx]
	shr	edx, 15					; 0000000fH
	and	edx, 1
	push	edx
	push	OFFSET $SG144734
	mov	ecx, DWORD PTR _this$[ebp]
	call	?AddMacro@ShaderMacroMgr@Ogre@@QAEXPBDH@Z ; Ogre::ShaderMacroMgr::AddMacro
$LN10@createFrom:

; 135  : 
; 136  : 		if(env.heightfog > 0) AddMacro("FOG_HEIGHT", env.heightfog);

	mov	eax, DWORD PTR _env$[ebp]
	mov	ecx, DWORD PTR [eax]
	shr	ecx, 16					; 00000010H
	and	ecx, 1
	jbe	SHORT $LN9@createFrom
	mov	edx, DWORD PTR _env$[ebp]
	mov	eax, DWORD PTR [edx]
	shr	eax, 16					; 00000010H
	and	eax, 1
	push	eax
	push	OFFSET $SG144736
	mov	ecx, DWORD PTR _this$[ebp]
	call	?AddMacro@ShaderMacroMgr@Ogre@@QAEXPBDH@Z ; Ogre::ShaderMacroMgr::AddMacro
$LN9@createFrom:

; 137  : 
; 138  : 		if(env.log_shadowmap > 0) AddMacro("LOG_SHADOWMAP", env.log_shadowmap);//非线性放缩shadowmap

	mov	ecx, DWORD PTR _env$[ebp]
	mov	edx, DWORD PTR [ecx]
	shr	edx, 17					; 00000011H
	and	edx, 1
	jbe	SHORT $LN8@createFrom
	mov	eax, DWORD PTR _env$[ebp]
	mov	ecx, DWORD PTR [eax]
	shr	ecx, 17					; 00000011H
	and	ecx, 1
	push	ecx
	push	OFFSET $SG144738
	mov	ecx, DWORD PTR _this$[ebp]
	call	?AddMacro@ShaderMacroMgr@Ogre@@QAEXPBDH@Z ; Ogre::ShaderMacroMgr::AddMacro
$LN8@createFrom:

; 139  : 
; 140  : 		if(env.lightmap > 0) AddMacro("LIGHT_MAPPING", env.lightmap);

	mov	edx, DWORD PTR _env$[ebp]
	mov	eax, DWORD PTR [edx]
	shr	eax, 24					; 00000018H
	and	eax, 15					; 0000000fH
	jbe	SHORT $LN7@createFrom
	mov	ecx, DWORD PTR _env$[ebp]
	mov	edx, DWORD PTR [ecx]
	shr	edx, 24					; 00000018H
	and	edx, 15					; 0000000fH
	push	edx
	push	OFFSET $SG144740
	mov	ecx, DWORD PTR _this$[ebp]
	call	?AddMacro@ShaderMacroMgr@Ogre@@QAEXPBDH@Z ; Ogre::ShaderMacroMgr::AddMacro
$LN7@createFrom:

; 141  : 
; 142  : 		if(env.vctype > 0) AddMacro("ATI_NV", env.vctype);

	mov	eax, DWORD PTR _env$[ebp]
	mov	ecx, DWORD PTR [eax]
	shr	ecx, 28					; 0000001cH
	and	ecx, 15					; 0000000fH
	jbe	SHORT $LN6@createFrom
	mov	edx, DWORD PTR _env$[ebp]
	mov	eax, DWORD PTR [edx]
	shr	eax, 28					; 0000001cH
	and	eax, 15					; 0000000fH
	push	eax
	push	OFFSET $SG144742
	mov	ecx, DWORD PTR _this$[ebp]
	call	?AddMacro@ShaderMacroMgr@Ogre@@QAEXPBDH@Z ; Ogre::ShaderMacroMgr::AddMacro
$LN6@createFrom:

; 143  : 
; 144  : 		if(env.transparent > 0) AddMacro("TRANSPARENT", env.transparent);

	mov	ecx, DWORD PTR _env$[ebp]
	mov	edx, DWORD PTR [ecx+4]
	and	edx, 15					; 0000000fH
	jbe	SHORT $LN5@createFrom
	mov	eax, DWORD PTR _env$[ebp]
	mov	ecx, DWORD PTR [eax+4]
	and	ecx, 15					; 0000000fH
	push	ecx
	push	OFFSET $SG144744
	mov	ecx, DWORD PTR _this$[ebp]
	call	?AddMacro@ShaderMacroMgr@Ogre@@QAEXPBDH@Z ; Ogre::ShaderMacroMgr::AddMacro
$LN5@createFrom:

; 145  : 
; 146  : 		if(env.mrt > 0) AddMacro("MRTENABLE", env.mrt);

	mov	edx, DWORD PTR _env$[ebp]
	mov	eax, DWORD PTR [edx+4]
	shr	eax, 4
	and	eax, 15					; 0000000fH
	jbe	SHORT $LN4@createFrom
	mov	ecx, DWORD PTR _env$[ebp]
	mov	edx, DWORD PTR [ecx+4]
	shr	edx, 4
	and	edx, 15					; 0000000fH
	push	edx
	push	OFFSET $SG144746
	mov	ecx, DWORD PTR _this$[ebp]
	call	?AddMacro@ShaderMacroMgr@Ogre@@QAEXPBDH@Z ; Ogre::ShaderMacroMgr::AddMacro
$LN4@createFrom:

; 147  : 
; 148  : 		if(env.shaderlevel > 0) AddMacro("SHADERLEVEL", env.shaderlevel);

	mov	eax, DWORD PTR _env$[ebp]
	mov	ecx, DWORD PTR [eax+4]
	shr	ecx, 8
	and	ecx, 15					; 0000000fH
	jbe	SHORT $LN3@createFrom
	mov	edx, DWORD PTR _env$[ebp]
	mov	eax, DWORD PTR [edx+4]
	shr	eax, 8
	and	eax, 15					; 0000000fH
	push	eax
	push	OFFSET $SG144748
	mov	ecx, DWORD PTR _this$[ebp]
	call	?AddMacro@ShaderMacroMgr@Ogre@@QAEXPBDH@Z ; Ogre::ShaderMacroMgr::AddMacro
$LN3@createFrom:

; 149  : 
; 150  : 		if(env.decalblendmode > 0) AddMacro("DECALBLENDMODE", env.decalblendmode);

	mov	ecx, DWORD PTR _env$[ebp]
	mov	edx, DWORD PTR [ecx+4]
	shr	edx, 12					; 0000000cH
	and	edx, 15					; 0000000fH
	jbe	SHORT $LN2@createFrom
	mov	eax, DWORD PTR _env$[ebp]
	mov	ecx, DWORD PTR [eax+4]
	shr	ecx, 12					; 0000000cH
	and	ecx, 15					; 0000000fH
	push	ecx
	push	OFFSET $SG144750
	mov	ecx, DWORD PTR _this$[ebp]
	call	?AddMacro@ShaderMacroMgr@Ogre@@QAEXPBDH@Z ; Ogre::ShaderMacroMgr::AddMacro
$LN2@createFrom:

; 151  : 
; 152  : 		if(env.model_xparent > 0) AddMacro("MODEL_TRANSPARENT", env.model_xparent);

	mov	edx, DWORD PTR _env$[ebp]
	mov	eax, DWORD PTR [edx]
	shr	eax, 23					; 00000017H
	and	eax, 1
	jbe	SHORT $LN17@createFrom
	mov	ecx, DWORD PTR _env$[ebp]
	mov	edx, DWORD PTR [ecx]
	shr	edx, 23					; 00000017H
	and	edx, 1
	push	edx
	push	OFFSET $SG144752
	mov	ecx, DWORD PTR _this$[ebp]
	call	?AddMacro@ShaderMacroMgr@Ogre@@QAEXPBDH@Z ; Ogre::ShaderMacroMgr::AddMacro
$LN17@createFrom:

; 153  : 		
; 154  : 		
; 155  : 	
; 156  : 	}

	mov	ecx, DWORD PTR __$ArrayPad$[ebp]
	xor	ecx, ebp
	call	@__security_check_cookie@4
	mov	esp, ebp
	pop	ebp
	ret	4
?createFromShaderEnv@ShaderMacroMgr@Ogre@@QAEXABUShaderEnvFlags@2@@Z ENDP ; Ogre::ShaderMacroMgr::createFromShaderEnv
; Function compile flags: /Odtp
; File i:\svnroot\client\ogremain\ogreshader.h
_TEXT	ENDS
;	COMDAT ?GetEnvLightType@Ogre@@YAHABUShaderEnvFlags@1@H@Z
_TEXT	SEGMENT
_flags$ = 8						; size = 4
_index$ = 12						; size = 4
?GetEnvLightType@Ogre@@YAHABUShaderEnvFlags@1@H@Z PROC	; Ogre::GetEnvLightType, COMDAT

; 100  : 	{

	push	ebp
	mov	ebp, esp

; 101  : 		if(index == 0) return flags.light0_type;

	cmp	DWORD PTR _index$[ebp], 0
	jne	SHORT $LN6@GetEnvLigh
	mov	eax, DWORD PTR _flags$[ebp]
	mov	eax, DWORD PTR [eax]
	shr	eax, 3
	and	eax, 1
	jmp	SHORT $LN7@GetEnvLigh
	jmp	SHORT $LN7@GetEnvLigh
$LN6@GetEnvLigh:

; 102  : 		else if(index == 1) return flags.light1_type;

	cmp	DWORD PTR _index$[ebp], 1
	jne	SHORT $LN4@GetEnvLigh
	mov	ecx, DWORD PTR _flags$[ebp]
	mov	eax, DWORD PTR [ecx]
	shr	eax, 6
	and	eax, 1
	jmp	SHORT $LN7@GetEnvLigh
	jmp	SHORT $LN7@GetEnvLigh
$LN4@GetEnvLigh:

; 103  : 		else if(index == 2) return flags.light2_type;

	cmp	DWORD PTR _index$[ebp], 2
	jne	SHORT $LN2@GetEnvLigh
	mov	edx, DWORD PTR _flags$[ebp]
	mov	eax, DWORD PTR [edx]
	shr	eax, 9
	and	eax, 1
	jmp	SHORT $LN7@GetEnvLigh
	jmp	SHORT $LN7@GetEnvLigh
$LN2@GetEnvLigh:

; 104  : 		else return flags.light3_type;

	mov	eax, DWORD PTR _flags$[ebp]
	mov	eax, DWORD PTR [eax]
	shr	eax, 12					; 0000000cH
	and	eax, 1
$LN7@GetEnvLigh:

; 105  : 	}

	pop	ebp
	ret	0
?GetEnvLightType@Ogre@@YAHABUShaderEnvFlags@1@H@Z ENDP	; Ogre::GetEnvLightType
; Function compile flags: /Odtp
_TEXT	ENDS
;	COMDAT ?GetEnvLightShadow@Ogre@@YAHABUShaderEnvFlags@1@H@Z
_TEXT	SEGMENT
_flags$ = 8						; size = 4
_index$ = 12						; size = 4
?GetEnvLightShadow@Ogre@@YAHABUShaderEnvFlags@1@H@Z PROC ; Ogre::GetEnvLightShadow, COMDAT

; 107  : 	{

	push	ebp
	mov	ebp, esp

; 108  : 		if(index == 0) return flags.light0_shadow;

	cmp	DWORD PTR _index$[ebp], 0
	jne	SHORT $LN6@GetEnvLigh@2
	mov	eax, DWORD PTR _flags$[ebp]
	mov	eax, DWORD PTR [eax]
	shr	eax, 4
	and	eax, 1
	jmp	SHORT $LN7@GetEnvLigh@2
	jmp	SHORT $LN7@GetEnvLigh@2
$LN6@GetEnvLigh@2:

; 109  : 		else if(index == 1) return flags.light1_shadow;

	cmp	DWORD PTR _index$[ebp], 1
	jne	SHORT $LN4@GetEnvLigh@2
	mov	ecx, DWORD PTR _flags$[ebp]
	mov	eax, DWORD PTR [ecx]
	shr	eax, 7
	and	eax, 1
	jmp	SHORT $LN7@GetEnvLigh@2
	jmp	SHORT $LN7@GetEnvLigh@2
$LN4@GetEnvLigh@2:

; 110  : 		else if(index == 2) return flags.light2_shadow;

	cmp	DWORD PTR _index$[ebp], 2
	jne	SHORT $LN2@GetEnvLigh@2
	mov	edx, DWORD PTR _flags$[ebp]
	mov	eax, DWORD PTR [edx]
	shr	eax, 10					; 0000000aH
	and	eax, 1
	jmp	SHORT $LN7@GetEnvLigh@2
	jmp	SHORT $LN7@GetEnvLigh@2
$LN2@GetEnvLigh@2:

; 111  : 		else return flags.light3_shadow;

	mov	eax, DWORD PTR _flags$[ebp]
	mov	eax, DWORD PTR [eax]
	shr	eax, 13					; 0000000dH
	and	eax, 1
$LN7@GetEnvLigh@2:

; 112  : 	}

	pop	ebp
	ret	0
?GetEnvLightShadow@Ogre@@YAHABUShaderEnvFlags@1@H@Z ENDP ; Ogre::GetEnvLightShadow
; Function compile flags: /Odtp
_TEXT	ENDS
;	COMDAT ?GetEnvLightSpecular@Ogre@@YAHABUShaderEnvFlags@1@H@Z
_TEXT	SEGMENT
_flags$ = 8						; size = 4
_index$ = 12						; size = 4
?GetEnvLightSpecular@Ogre@@YAHABUShaderEnvFlags@1@H@Z PROC ; Ogre::GetEnvLightSpecular, COMDAT

; 114  : 	{

	push	ebp
	mov	ebp, esp

; 115  : 		if(index == 0) return flags.light0_specular;

	cmp	DWORD PTR _index$[ebp], 0
	jne	SHORT $LN6@GetEnvLigh@3
	mov	eax, DWORD PTR _flags$[ebp]
	mov	eax, DWORD PTR [eax]
	shr	eax, 5
	and	eax, 1
	jmp	SHORT $LN7@GetEnvLigh@3
	jmp	SHORT $LN7@GetEnvLigh@3
$LN6@GetEnvLigh@3:

; 116  : 		else if(index == 1) return flags.light1_specular;

	cmp	DWORD PTR _index$[ebp], 1
	jne	SHORT $LN4@GetEnvLigh@3
	mov	ecx, DWORD PTR _flags$[ebp]
	mov	eax, DWORD PTR [ecx]
	shr	eax, 8
	and	eax, 1
	jmp	SHORT $LN7@GetEnvLigh@3
	jmp	SHORT $LN7@GetEnvLigh@3
$LN4@GetEnvLigh@3:

; 117  : 		else if(index == 2) return flags.light2_specular;

	cmp	DWORD PTR _index$[ebp], 2
	jne	SHORT $LN2@GetEnvLigh@3
	mov	edx, DWORD PTR _flags$[ebp]
	mov	eax, DWORD PTR [edx]
	shr	eax, 11					; 0000000bH
	and	eax, 1
	jmp	SHORT $LN7@GetEnvLigh@3
	jmp	SHORT $LN7@GetEnvLigh@3
$LN2@GetEnvLigh@3:

; 118  : 		else return flags.light3_specular;

	mov	eax, DWORD PTR _flags$[ebp]
	mov	eax, DWORD PTR [eax]
	shr	eax, 14					; 0000000eH
	and	eax, 1
$LN7@GetEnvLigh@3:

; 119  : 	}

	pop	ebp
	ret	0
?GetEnvLightSpecular@Ogre@@YAHABUShaderEnvFlags@1@H@Z ENDP ; Ogre::GetEnvLightSpecular
_TEXT	ENDS
PUBLIC	??1?$vector@TShaderEnvKey@Ogre@@V?$allocator@TShaderEnvKey@Ogre@@@std@@@std@@QAE@XZ ; std::vector<Ogre::ShaderEnvKey,std::allocator<Ogre::ShaderEnvKey> >::~vector<Ogre::ShaderEnvKey,std::allocator<Ogre::ShaderEnvKey> >
PUBLIC	??1?$vector@PAUTechniqueDesc@Ogre@@V?$allocator@PAUTechniqueDesc@Ogre@@@std@@@std@@QAE@XZ ; std::vector<Ogre::TechniqueDesc *,std::allocator<Ogre::TechniqueDesc *> >::~vector<Ogre::TechniqueDesc *,std::allocator<Ogre::TechniqueDesc *> >
PUBLIC	??1?$vector@DV?$allocator@D@std@@@std@@QAE@XZ	; std::vector<char,std::allocator<char> >::~vector<char,std::allocator<char> >
PUBLIC	?getD3DDevice@D3D9RenderSystem@Ogre@@QAEPAUIDirect3DDevice9@@XZ ; Ogre::D3D9RenderSystem::getD3DDevice
PUBLIC	??0?$vector@TShaderEnvKey@Ogre@@V?$allocator@TShaderEnvKey@Ogre@@@std@@@std@@QAE@XZ ; std::vector<Ogre::ShaderEnvKey,std::allocator<Ogre::ShaderEnvKey> >::vector<Ogre::ShaderEnvKey,std::allocator<Ogre::ShaderEnvKey> >
PUBLIC	??0?$vector@PAUTechniqueDesc@Ogre@@V?$allocator@PAUTechniqueDesc@Ogre@@@std@@@std@@QAE@XZ ; std::vector<Ogre::TechniqueDesc *,std::allocator<Ogre::TechniqueDesc *> >::vector<Ogre::TechniqueDesc *,std::allocator<Ogre::TechniqueDesc *> >
PUBLIC	??0?$vector@DV?$allocator@D@std@@@std@@QAE@XZ	; std::vector<char,std::allocator<char> >::vector<char,std::allocator<char> >
PUBLIC	??0CompiledShader@Ogre@@QAE@PAVD3DMaterialTemplate@1@W4COMPILED_TYPE@1@@Z ; Ogre::CompiledShader::CompiledShader
EXTRN	__imp_??8Ogre@@YA_NABVFixedString@0@PBD@Z:PROC
EXTRN	__imp_?getName@MaterialTemplate@Ogre@@QAEABVFixedString@2@XZ:PROC
EXTRN	__imp_?getSingletonPtr@?$Singleton@VRenderSystem@Ogre@@@Ogre@@SAPAVRenderSystem@2@XZ:PROC
xdata$x	SEGMENT
__unwindtable$??0CompiledShader@Ogre@@QAE@PAVD3DMaterialTemplate@1@W4COMPILED_TYPE@1@@Z DD 0ffffffffH
	DD	FLAT:__unwindfunclet$??0CompiledShader@Ogre@@QAE@PAVD3DMaterialTemplate@1@W4COMPILED_TYPE@1@@Z$0
	DD	00H
	DD	FLAT:__unwindfunclet$??0CompiledShader@Ogre@@QAE@PAVD3DMaterialTemplate@1@W4COMPILED_TYPE@1@@Z$1
	DD	01H
	DD	FLAT:__unwindfunclet$??0CompiledShader@Ogre@@QAE@PAVD3DMaterialTemplate@1@W4COMPILED_TYPE@1@@Z$2
__ehfuncinfo$??0CompiledShader@Ogre@@QAE@PAVD3DMaterialTemplate@1@W4COMPILED_TYPE@1@@Z DD 019930522H
	DD	03H
	DD	FLAT:__unwindtable$??0CompiledShader@Ogre@@QAE@PAVD3DMaterialTemplate@1@W4COMPILED_TYPE@1@@Z
	DD	2 DUP(00H)
	DD	2 DUP(00H)
	DD	00H
	DD	00H
; Function compile flags: /Odtp
; File i:\svnroot\client\plugins\rendersystem_d3d9\ogred3d9shadermanager.cpp
xdata$x	ENDS
_TEXT	SEGMENT
_this$ = -16						; size = 4
__$EHRec$ = -12						; size = 12
_createCompiledShader$ = 8				; size = 4
_type$ = 12						; size = 4
??0CompiledShader@Ogre@@QAE@PAVD3DMaterialTemplate@1@W4COMPILED_TYPE@1@@Z PROC ; Ogre::CompiledShader::CompiledShader
; _this$ = ecx

; 186  : 	{

	push	ebp
	mov	ebp, esp
	push	-1
	push	__ehhandler$??0CompiledShader@Ogre@@QAE@PAVD3DMaterialTemplate@1@W4COMPILED_TYPE@1@@Z
	mov	eax, DWORD PTR fs:0
	push	eax
	push	ecx
	mov	eax, DWORD PTR ___security_cookie
	xor	eax, ebp
	push	eax
	lea	eax, DWORD PTR __$EHRec$[ebp]
	mov	DWORD PTR fs:0, eax
	mov	DWORD PTR _this$[ebp], ecx
	mov	eax, DWORD PTR _this$[ebp]
	mov	ecx, DWORD PTR _createCompiledShader$[ebp]
	mov	DWORD PTR [eax], ecx
	mov	edx, DWORD PTR _this$[ebp]
	mov	eax, DWORD PTR _type$[ebp]
	mov	DWORD PTR [edx+4], eax
	mov	ecx, DWORD PTR _this$[ebp]
	mov	DWORD PTR [ecx+12], 0
	mov	ecx, DWORD PTR _this$[ebp]
	add	ecx, 16					; 00000010H
	call	??0?$vector@DV?$allocator@D@std@@@std@@QAE@XZ ; std::vector<char,std::allocator<char> >::vector<char,std::allocator<char> >
	mov	DWORD PTR __$EHRec$[ebp+8], 0
	mov	edx, DWORD PTR _this$[ebp]
	mov	DWORD PTR [edx+40], 0
	mov	eax, DWORD PTR _this$[ebp]
	mov	DWORD PTR [eax+44], 0
	mov	ecx, DWORD PTR _this$[ebp]
	mov	DWORD PTR [ecx+48], 0
	mov	edx, DWORD PTR _this$[ebp]
	mov	DWORD PTR [edx+52], 0
	mov	eax, DWORD PTR _this$[ebp]
	mov	DWORD PTR [eax+56], 0
	mov	ecx, DWORD PTR _this$[ebp]
	add	ecx, 316				; 0000013cH
	call	??0?$vector@PAUTechniqueDesc@Ogre@@V?$allocator@PAUTechniqueDesc@Ogre@@@std@@@std@@QAE@XZ ; std::vector<Ogre::TechniqueDesc *,std::allocator<Ogre::TechniqueDesc *> >::vector<Ogre::TechniqueDesc *,std::allocator<Ogre::TechniqueDesc *> >
	mov	BYTE PTR __$EHRec$[ebp+8], 1
	mov	ecx, DWORD PTR _this$[ebp]
	add	ecx, 340				; 00000154H
	call	??0?$vector@TShaderEnvKey@Ogre@@V?$allocator@TShaderEnvKey@Ogre@@@std@@@std@@QAE@XZ ; std::vector<Ogre::ShaderEnvKey,std::allocator<Ogre::ShaderEnvKey> >::vector<Ogre::ShaderEnvKey,std::allocator<Ogre::ShaderEnvKey> >
	mov	BYTE PTR __$EHRec$[ebp+8], 2

; 187  : 		m_pDevice = static_cast<D3D9RenderSystem *>(RenderSystem::getSingletonPtr())->getD3DDevice();

	call	DWORD PTR __imp_?getSingletonPtr@?$Singleton@VRenderSystem@Ogre@@@Ogre@@SAPAVRenderSystem@2@XZ
	mov	ecx, eax
	call	?getD3DDevice@D3D9RenderSystem@Ogre@@QAEPAUIDirect3DDevice9@@XZ ; Ogre::D3D9RenderSystem::getD3DDevice
	mov	ecx, DWORD PTR _this$[ebp]
	mov	DWORD PTR [ecx+8], eax

; 188  : 
; 189  : 		m_bCreated = false;

	mov	edx, DWORD PTR _this$[ebp]
	mov	BYTE PTR [edx+364], 0

; 190  : 		m_bAllCreated = false;

	mov	eax, DWORD PTR _this$[ebp]
	mov	BYTE PTR [eax+365], 0

; 191  : 
; 192  : 		if (type == COMPILED_EFFECT)

	cmp	DWORD PTR _type$[ebp], 0
	jne	SHORT $LN11@CompiledSh

; 193  : 		{
; 194  : 			ms_EffectNum++;

	mov	ecx, DWORD PTR ?ms_EffectNum@CompiledShader@Ogre@@2HA ; Ogre::CompiledShader::ms_EffectNum
	add	ecx, 1
	mov	DWORD PTR ?ms_EffectNum@CompiledShader@Ogre@@2HA, ecx ; Ogre::CompiledShader::ms_EffectNum

; 195  : 
; 196  : 			if (createCompiledShader->getName() == "stdmtl")

	push	OFFSET $SG144761
	mov	ecx, DWORD PTR _createCompiledShader$[ebp]
	call	DWORD PTR __imp_?getName@MaterialTemplate@Ogre@@QAEABVFixedString@2@XZ
	push	eax
	call	DWORD PTR __imp_??8Ogre@@YA_NABVFixedString@0@PBD@Z
	add	esp, 8
	movzx	edx, al
	test	edx, edx
	je	SHORT $LN10@CompiledSh

; 197  : 				ms_StdEffectNum++;

	mov	eax, DWORD PTR ?ms_StdEffectNum@CompiledShader@Ogre@@2HA ; Ogre::CompiledShader::ms_StdEffectNum
	add	eax, 1
	mov	DWORD PTR ?ms_StdEffectNum@CompiledShader@Ogre@@2HA, eax ; Ogre::CompiledShader::ms_StdEffectNum
$LN10@CompiledSh:

; 198  : 
; 199  : 			if (createCompiledShader->getName() == "border")

	push	OFFSET $SG144763
	mov	ecx, DWORD PTR _createCompiledShader$[ebp]
	call	DWORD PTR __imp_?getName@MaterialTemplate@Ogre@@QAEABVFixedString@2@XZ
	push	eax
	call	DWORD PTR __imp_??8Ogre@@YA_NABVFixedString@0@PBD@Z
	add	esp, 8
	movzx	ecx, al
	test	ecx, ecx
	je	SHORT $LN9@CompiledSh

; 200  : 				ms_BorderEffectNum++;

	mov	edx, DWORD PTR ?ms_BorderEffectNum@CompiledShader@Ogre@@2HA ; Ogre::CompiledShader::ms_BorderEffectNum
	add	edx, 1
	mov	DWORD PTR ?ms_BorderEffectNum@CompiledShader@Ogre@@2HA, edx ; Ogre::CompiledShader::ms_BorderEffectNum
$LN9@CompiledSh:

; 201  : 		}

	jmp	$LN12@CompiledSh
$LN11@CompiledSh:

; 202  : 		else if (type == COMPILED_VS)

	cmp	DWORD PTR _type$[ebp], 1
	jne	SHORT $LN7@CompiledSh

; 203  : 		{
; 204  : 			ms_VSNum++;

	mov	eax, DWORD PTR ?ms_VSNum@CompiledShader@Ogre@@2HA ; Ogre::CompiledShader::ms_VSNum
	add	eax, 1
	mov	DWORD PTR ?ms_VSNum@CompiledShader@Ogre@@2HA, eax ; Ogre::CompiledShader::ms_VSNum

; 205  : 
; 206  : 			if (createCompiledShader->getName() == "stdmtl")

	push	OFFSET $SG144767
	mov	ecx, DWORD PTR _createCompiledShader$[ebp]
	call	DWORD PTR __imp_?getName@MaterialTemplate@Ogre@@QAEABVFixedString@2@XZ
	push	eax
	call	DWORD PTR __imp_??8Ogre@@YA_NABVFixedString@0@PBD@Z
	add	esp, 8
	movzx	ecx, al
	test	ecx, ecx
	je	SHORT $LN6@CompiledSh

; 207  : 				ms_StdVSNum++;

	mov	edx, DWORD PTR ?ms_StdVSNum@CompiledShader@Ogre@@2HA ; Ogre::CompiledShader::ms_StdVSNum
	add	edx, 1
	mov	DWORD PTR ?ms_StdVSNum@CompiledShader@Ogre@@2HA, edx ; Ogre::CompiledShader::ms_StdVSNum
$LN6@CompiledSh:

; 208  : 
; 209  : 			if (createCompiledShader->getName() == "border")

	push	OFFSET $SG144769
	mov	ecx, DWORD PTR _createCompiledShader$[ebp]
	call	DWORD PTR __imp_?getName@MaterialTemplate@Ogre@@QAEABVFixedString@2@XZ
	push	eax
	call	DWORD PTR __imp_??8Ogre@@YA_NABVFixedString@0@PBD@Z
	add	esp, 8
	movzx	eax, al
	test	eax, eax
	je	SHORT $LN5@CompiledSh

; 210  : 				ms_BorderVSNum++;

	mov	ecx, DWORD PTR ?ms_BorderVSNum@CompiledShader@Ogre@@2HA ; Ogre::CompiledShader::ms_BorderVSNum
	add	ecx, 1
	mov	DWORD PTR ?ms_BorderVSNum@CompiledShader@Ogre@@2HA, ecx ; Ogre::CompiledShader::ms_BorderVSNum
$LN5@CompiledSh:

; 211  : 		}

	jmp	SHORT $LN12@CompiledSh
$LN7@CompiledSh:

; 212  : 		else if (type == COMPILED_PS)

	cmp	DWORD PTR _type$[ebp], 2
	jne	SHORT $LN12@CompiledSh

; 213  : 		{
; 214  : 			ms_PSNum++;

	mov	edx, DWORD PTR ?ms_PSNum@CompiledShader@Ogre@@2HA ; Ogre::CompiledShader::ms_PSNum
	add	edx, 1
	mov	DWORD PTR ?ms_PSNum@CompiledShader@Ogre@@2HA, edx ; Ogre::CompiledShader::ms_PSNum

; 215  : 
; 216  : 			if (createCompiledShader->getName() == "stdmtl")

	push	OFFSET $SG144773
	mov	ecx, DWORD PTR _createCompiledShader$[ebp]
	call	DWORD PTR __imp_?getName@MaterialTemplate@Ogre@@QAEABVFixedString@2@XZ
	push	eax
	call	DWORD PTR __imp_??8Ogre@@YA_NABVFixedString@0@PBD@Z
	add	esp, 8
	movzx	eax, al
	test	eax, eax
	je	SHORT $LN2@CompiledSh

; 217  : 				ms_StdPSNum++;

	mov	ecx, DWORD PTR ?ms_StdPSNum@CompiledShader@Ogre@@2HA ; Ogre::CompiledShader::ms_StdPSNum
	add	ecx, 1
	mov	DWORD PTR ?ms_StdPSNum@CompiledShader@Ogre@@2HA, ecx ; Ogre::CompiledShader::ms_StdPSNum
$LN2@CompiledSh:

; 218  : 
; 219  : 			if (createCompiledShader->getName() == "border")

	push	OFFSET $SG144775
	mov	ecx, DWORD PTR _createCompiledShader$[ebp]
	call	DWORD PTR __imp_?getName@MaterialTemplate@Ogre@@QAEABVFixedString@2@XZ
	push	eax
	call	DWORD PTR __imp_??8Ogre@@YA_NABVFixedString@0@PBD@Z
	add	esp, 8
	movzx	edx, al
	test	edx, edx
	je	SHORT $LN12@CompiledSh

; 220  : 				ms_BorderPSNum++;

	mov	eax, DWORD PTR ?ms_BorderPSNum@CompiledShader@Ogre@@2HA ; Ogre::CompiledShader::ms_BorderPSNum
	add	eax, 1
	mov	DWORD PTR ?ms_BorderPSNum@CompiledShader@Ogre@@2HA, eax ; Ogre::CompiledShader::ms_BorderPSNum
$LN12@CompiledSh:

; 221  : 		}
; 222  : 	}

	mov	DWORD PTR __$EHRec$[ebp+8], -1
	mov	eax, DWORD PTR _this$[ebp]
	mov	ecx, DWORD PTR __$EHRec$[ebp]
	mov	DWORD PTR fs:0, ecx
	pop	ecx
	mov	esp, ebp
	pop	ebp
	ret	8
_TEXT	ENDS
text$x	SEGMENT
__unwindfunclet$??0CompiledShader@Ogre@@QAE@PAVD3DMaterialTemplate@1@W4COMPILED_TYPE@1@@Z$0:
	mov	ecx, DWORD PTR _this$[ebp]
	add	ecx, 16					; 00000010H
	jmp	??1?$vector@DV?$allocator@D@std@@@std@@QAE@XZ ; std::vector<char,std::allocator<char> >::~vector<char,std::allocator<char> >
__unwindfunclet$??0CompiledShader@Ogre@@QAE@PAVD3DMaterialTemplate@1@W4COMPILED_TYPE@1@@Z$1:
	mov	ecx, DWORD PTR _this$[ebp]
	add	ecx, 316				; 0000013cH
	jmp	??1?$vector@PAUTechniqueDesc@Ogre@@V?$allocator@PAUTechniqueDesc@Ogre@@@std@@@std@@QAE@XZ ; std::vector<Ogre::TechniqueDesc *,std::allocator<Ogre::TechniqueDesc *> >::~vector<Ogre::TechniqueDesc *,std::allocator<Ogre::TechniqueDesc *> >
__unwindfunclet$??0CompiledShader@Ogre@@QAE@PAVD3DMaterialTemplate@1@W4COMPILED_TYPE@1@@Z$2:
	mov	ecx, DWORD PTR _this$[ebp]
	add	ecx, 340				; 00000154H
	jmp	??1?$vector@TShaderEnvKey@Ogre@@V?$allocator@TShaderEnvKey@Ogre@@@std@@@std@@QAE@XZ ; std::vector<Ogre::ShaderEnvKey,std::allocator<Ogre::ShaderEnvKey> >::~vector<Ogre::ShaderEnvKey,std::allocator<Ogre::ShaderEnvKey> >
__ehhandler$??0CompiledShader@Ogre@@QAE@PAVD3DMaterialTemplate@1@W4COMPILED_TYPE@1@@Z:
	mov	edx, DWORD PTR [esp+8]
	lea	eax, DWORD PTR [edx+12]
	mov	ecx, DWORD PTR [edx-8]
	xor	ecx, eax
	call	@__security_check_cookie@4
	mov	eax, OFFSET __ehfuncinfo$??0CompiledShader@Ogre@@QAE@PAVD3DMaterialTemplate@1@W4COMPILED_TYPE@1@@Z
	jmp	___CxxFrameHandler3
text$x	ENDS
??0CompiledShader@Ogre@@QAE@PAVD3DMaterialTemplate@1@W4COMPILED_TYPE@1@@Z ENDP ; Ogre::CompiledShader::CompiledShader
; Function compile flags: /Odtp
; File i:\svnroot\client\plugins\rendersystem_d3d9\ogred3d9rendersystem.h
;	COMDAT ?getD3DDevice@D3D9RenderSystem@Ogre@@QAEPAUIDirect3DDevice9@@XZ
_TEXT	SEGMENT
_this$ = -4						; size = 4
?getD3DDevice@D3D9RenderSystem@Ogre@@QAEPAUIDirect3DDevice9@@XZ PROC ; Ogre::D3D9RenderSystem::getD3DDevice, COMDAT
; _this$ = ecx

; 44   : 		{

	push	ebp
	mov	ebp, esp
	push	ecx
	mov	DWORD PTR _this$[ebp], ecx

; 45   : 			return m_pd3dDevice;

	mov	eax, DWORD PTR _this$[ebp]
	mov	eax, DWORD PTR [eax+104]

; 46   : 		}

	mov	esp, ebp
	pop	ebp
	ret	0
?getD3DDevice@D3D9RenderSystem@Ogre@@QAEPAUIDirect3DDevice9@@XZ ENDP ; Ogre::D3D9RenderSystem::getD3DDevice
_TEXT	ENDS
PUBLIC	??_GTechniqueDesc@Ogre@@QAEPAXI@Z		; Ogre::TechniqueDesc::`scalar deleting destructor'
PUBLIC	??A?$vector@PAUTechniqueDesc@Ogre@@V?$allocator@PAUTechniqueDesc@Ogre@@@std@@@std@@QAEAAPAUTechniqueDesc@Ogre@@I@Z ; std::vector<Ogre::TechniqueDesc *,std::allocator<Ogre::TechniqueDesc *> >::operator[]
PUBLIC	?size@?$vector@PAUTechniqueDesc@Ogre@@V?$allocator@PAUTechniqueDesc@Ogre@@@std@@@std@@QBEIXZ ; std::vector<Ogre::TechniqueDesc *,std::allocator<Ogre::TechniqueDesc *> >::size
PUBLIC	??1CompiledShader@Ogre@@QAE@XZ			; Ogre::CompiledShader::~CompiledShader
xdata$x	SEGMENT
__unwindtable$??1CompiledShader@Ogre@@QAE@XZ DD 0ffffffffH
	DD	FLAT:__unwindfunclet$??1CompiledShader@Ogre@@QAE@XZ$0
	DD	00H
	DD	FLAT:__unwindfunclet$??1CompiledShader@Ogre@@QAE@XZ$1
	DD	01H
	DD	FLAT:__unwindfunclet$??1CompiledShader@Ogre@@QAE@XZ$2
__ehfuncinfo$??1CompiledShader@Ogre@@QAE@XZ DD 019930522H
	DD	03H
	DD	FLAT:__unwindtable$??1CompiledShader@Ogre@@QAE@XZ
	DD	2 DUP(00H)
	DD	2 DUP(00H)
	DD	00H
	DD	00H
; Function compile flags: /Odtp
; File i:\svnroot\client\plugins\rendersystem_d3d9\ogred3d9shadermanager.cpp
xdata$x	ENDS
_TEXT	SEGMENT
tv185 = -32						; size = 4
_this$ = -28						; size = 4
$T157777 = -24						; size = 4
$T157776 = -20						; size = 4
_i$144784 = -16						; size = 4
__$EHRec$ = -12						; size = 12
??1CompiledShader@Ogre@@QAE@XZ PROC			; Ogre::CompiledShader::~CompiledShader
; _this$ = ecx

; 225  : 	{

	push	ebp
	mov	ebp, esp
	push	-1
	push	__ehhandler$??1CompiledShader@Ogre@@QAE@XZ
	mov	eax, DWORD PTR fs:0
	push	eax
	sub	esp, 20					; 00000014H
	mov	eax, DWORD PTR ___security_cookie
	xor	eax, ebp
	push	eax
	lea	eax, DWORD PTR __$EHRec$[ebp]
	mov	DWORD PTR fs:0, eax
	mov	DWORD PTR _this$[ebp], ecx
	mov	DWORD PTR __$EHRec$[ebp+8], 2

; 226  : 		SAFE_RELEASE(m_pBuffer);

	mov	eax, DWORD PTR _this$[ebp]
	cmp	DWORD PTR [eax+12], 0
	je	SHORT $LN8@CompiledSh@2
	mov	ecx, DWORD PTR _this$[ebp]
	mov	edx, DWORD PTR [ecx+12]
	mov	eax, DWORD PTR _this$[ebp]
	mov	ecx, DWORD PTR [eax+12]
	mov	edx, DWORD PTR [edx]
	push	ecx
	mov	eax, DWORD PTR [edx+8]
	call	eax
	mov	ecx, DWORD PTR _this$[ebp]
	mov	DWORD PTR [ecx+12], 0
$LN8@CompiledSh@2:

; 227  : 		SAFE_RELEASE(m_pEffect);

	mov	edx, DWORD PTR _this$[ebp]
	cmp	DWORD PTR [edx+44], 0
	je	SHORT $LN7@CompiledSh@2
	mov	eax, DWORD PTR _this$[ebp]
	mov	ecx, DWORD PTR [eax+44]
	mov	edx, DWORD PTR _this$[ebp]
	mov	eax, DWORD PTR [edx+44]
	mov	ecx, DWORD PTR [ecx]
	push	eax
	mov	edx, DWORD PTR [ecx+8]
	call	edx
	mov	eax, DWORD PTR _this$[ebp]
	mov	DWORD PTR [eax+44], 0
$LN7@CompiledSh@2:

; 228  : 		SAFE_RELEASE(m_pVS);

	mov	ecx, DWORD PTR _this$[ebp]
	cmp	DWORD PTR [ecx+48], 0
	je	SHORT $LN6@CompiledSh@2
	mov	edx, DWORD PTR _this$[ebp]
	mov	eax, DWORD PTR [edx+48]
	mov	ecx, DWORD PTR _this$[ebp]
	mov	edx, DWORD PTR [ecx+48]
	mov	eax, DWORD PTR [eax]
	push	edx
	mov	ecx, DWORD PTR [eax+8]
	call	ecx
	mov	edx, DWORD PTR _this$[ebp]
	mov	DWORD PTR [edx+48], 0
$LN6@CompiledSh@2:

; 229  : 		SAFE_RELEASE(m_pPS);

	mov	eax, DWORD PTR _this$[ebp]
	cmp	DWORD PTR [eax+52], 0
	je	SHORT $LN5@CompiledSh@2
	mov	ecx, DWORD PTR _this$[ebp]
	mov	edx, DWORD PTR [ecx+52]
	mov	eax, DWORD PTR _this$[ebp]
	mov	ecx, DWORD PTR [eax+52]
	mov	edx, DWORD PTR [edx]
	push	ecx
	mov	eax, DWORD PTR [edx+8]
	call	eax
	mov	ecx, DWORD PTR _this$[ebp]
	mov	DWORD PTR [ecx+52], 0
$LN5@CompiledSh@2:

; 230  : 		SAFE_RELEASE(m_pConst);

	mov	edx, DWORD PTR _this$[ebp]
	cmp	DWORD PTR [edx+56], 0
	je	SHORT $LN4@CompiledSh@2
	mov	eax, DWORD PTR _this$[ebp]
	mov	ecx, DWORD PTR [eax+56]
	mov	edx, DWORD PTR _this$[ebp]
	mov	eax, DWORD PTR [edx+56]
	mov	ecx, DWORD PTR [ecx]
	push	eax
	mov	edx, DWORD PTR [ecx+8]
	call	edx
	mov	eax, DWORD PTR _this$[ebp]
	mov	DWORD PTR [eax+56], 0
$LN4@CompiledSh@2:

; 231  : 
; 232  : 		for(size_t i=0; i<m_TechDesc.size(); i++)

	mov	DWORD PTR _i$144784[ebp], 0
	jmp	SHORT $LN3@CompiledSh@2
$LN2@CompiledSh@2:
	mov	ecx, DWORD PTR _i$144784[ebp]
	add	ecx, 1
	mov	DWORD PTR _i$144784[ebp], ecx
$LN3@CompiledSh@2:
	mov	ecx, DWORD PTR _this$[ebp]
	add	ecx, 316				; 0000013cH
	call	?size@?$vector@PAUTechniqueDesc@Ogre@@V?$allocator@PAUTechniqueDesc@Ogre@@@std@@@std@@QBEIXZ ; std::vector<Ogre::TechniqueDesc *,std::allocator<Ogre::TechniqueDesc *> >::size
	cmp	DWORD PTR _i$144784[ebp], eax
	jae	SHORT $LN9@CompiledSh@2

; 233  : 		{
; 234  : 			delete m_TechDesc[i];

	mov	edx, DWORD PTR _i$144784[ebp]
	push	edx
	mov	ecx, DWORD PTR _this$[ebp]
	add	ecx, 316				; 0000013cH
	call	??A?$vector@PAUTechniqueDesc@Ogre@@V?$allocator@PAUTechniqueDesc@Ogre@@@std@@@std@@QAEAAPAUTechniqueDesc@Ogre@@I@Z ; std::vector<Ogre::TechniqueDesc *,std::allocator<Ogre::TechniqueDesc *> >::operator[]
	mov	eax, DWORD PTR [eax]
	mov	DWORD PTR $T157777[ebp], eax
	mov	ecx, DWORD PTR $T157777[ebp]
	mov	DWORD PTR $T157776[ebp], ecx
	cmp	DWORD PTR $T157776[ebp], 0
	je	SHORT $LN11@CompiledSh@2
	push	1
	mov	ecx, DWORD PTR $T157776[ebp]
	call	??_GTechniqueDesc@Ogre@@QAEPAXI@Z
	mov	DWORD PTR tv185[ebp], eax
	jmp	SHORT $LN12@CompiledSh@2
$LN11@CompiledSh@2:
	mov	DWORD PTR tv185[ebp], 0
$LN12@CompiledSh@2:

; 235  : 		}

	jmp	SHORT $LN2@CompiledSh@2
$LN9@CompiledSh@2:

; 236  : 	}

	mov	BYTE PTR __$EHRec$[ebp+8], 1
	mov	ecx, DWORD PTR _this$[ebp]
	add	ecx, 340				; 00000154H
	call	??1?$vector@TShaderEnvKey@Ogre@@V?$allocator@TShaderEnvKey@Ogre@@@std@@@std@@QAE@XZ ; std::vector<Ogre::ShaderEnvKey,std::allocator<Ogre::ShaderEnvKey> >::~vector<Ogre::ShaderEnvKey,std::allocator<Ogre::ShaderEnvKey> >
	mov	BYTE PTR __$EHRec$[ebp+8], 0
	mov	ecx, DWORD PTR _this$[ebp]
	add	ecx, 316				; 0000013cH
	call	??1?$vector@PAUTechniqueDesc@Ogre@@V?$allocator@PAUTechniqueDesc@Ogre@@@std@@@std@@QAE@XZ ; std::vector<Ogre::TechniqueDesc *,std::allocator<Ogre::TechniqueDesc *> >::~vector<Ogre::TechniqueDesc *,std::allocator<Ogre::TechniqueDesc *> >
	mov	DWORD PTR __$EHRec$[ebp+8], -1
	mov	ecx, DWORD PTR _this$[ebp]
	add	ecx, 16					; 00000010H
	call	??1?$vector@DV?$allocator@D@std@@@std@@QAE@XZ ; std::vector<char,std::allocator<char> >::~vector<char,std::allocator<char> >
	mov	ecx, DWORD PTR __$EHRec$[ebp]
	mov	DWORD PTR fs:0, ecx
	pop	ecx
	mov	esp, ebp
	pop	ebp
	ret	0
_TEXT	ENDS
text$x	SEGMENT
__unwindfunclet$??1CompiledShader@Ogre@@QAE@XZ$0:
	mov	ecx, DWORD PTR _this$[ebp]
	add	ecx, 16					; 00000010H
	jmp	??1?$vector@DV?$allocator@D@std@@@std@@QAE@XZ ; std::vector<char,std::allocator<char> >::~vector<char,std::allocator<char> >
__unwindfunclet$??1CompiledShader@Ogre@@QAE@XZ$1:
	mov	ecx, DWORD PTR _this$[ebp]
	add	ecx, 316				; 0000013cH
	jmp	??1?$vector@PAUTechniqueDesc@Ogre@@V?$allocator@PAUTechniqueDesc@Ogre@@@std@@@std@@QAE@XZ ; std::vector<Ogre::TechniqueDesc *,std::allocator<Ogre::TechniqueDesc *> >::~vector<Ogre::TechniqueDesc *,std::allocator<Ogre::TechniqueDesc *> >
__unwindfunclet$??1CompiledShader@Ogre@@QAE@XZ$2:
	mov	ecx, DWORD PTR _this$[ebp]
	add	ecx, 340				; 00000154H
	jmp	??1?$vector@TShaderEnvKey@Ogre@@V?$allocator@TShaderEnvKey@Ogre@@@std@@@std@@QAE@XZ ; std::vector<Ogre::ShaderEnvKey,std::allocator<Ogre::ShaderEnvKey> >::~vector<Ogre::ShaderEnvKey,std::allocator<Ogre::ShaderEnvKey> >
__ehhandler$??1CompiledShader@Ogre@@QAE@XZ:
	mov	edx, DWORD PTR [esp+8]
	lea	eax, DWORD PTR [edx+12]
	mov	ecx, DWORD PTR [edx-24]
	xor	ecx, eax
	call	@__security_check_cookie@4
	mov	eax, OFFSET __ehfuncinfo$??1CompiledShader@Ogre@@QAE@XZ
	jmp	___CxxFrameHandler3
text$x	ENDS
??1CompiledShader@Ogre@@QAE@XZ ENDP			; Ogre::CompiledShader::~CompiledShader
PUBLIC	??1TechniqueDesc@Ogre@@QAE@XZ			; Ogre::TechniqueDesc::~TechniqueDesc
EXTRN	??3@YAXPAX@Z:PROC				; operator delete
; Function compile flags: /Odtp
;	COMDAT ??_GTechniqueDesc@Ogre@@QAEPAXI@Z
_TEXT	SEGMENT
_this$ = -4						; size = 4
___flags$ = 8						; size = 4
??_GTechniqueDesc@Ogre@@QAEPAXI@Z PROC			; Ogre::TechniqueDesc::`scalar deleting destructor', COMDAT
; _this$ = ecx
	push	ebp
	mov	ebp, esp
	push	ecx
	mov	DWORD PTR _this$[ebp], ecx
	mov	ecx, DWORD PTR _this$[ebp]
	call	??1TechniqueDesc@Ogre@@QAE@XZ
	mov	eax, DWORD PTR ___flags$[ebp]
	and	eax, 1
	je	SHORT $LN1@scalar
	mov	ecx, DWORD PTR _this$[ebp]
	push	ecx
	call	??3@YAXPAX@Z				; operator delete
	add	esp, 4
$LN1@scalar:
	mov	eax, DWORD PTR _this$[ebp]
	mov	esp, ebp
	pop	ebp
	ret	4
??_GTechniqueDesc@Ogre@@QAEPAXI@Z ENDP			; Ogre::TechniqueDesc::`scalar deleting destructor'
_TEXT	ENDS
PUBLIC	??1?$vector@UPassDesc@Ogre@@V?$allocator@UPassDesc@Ogre@@@std@@@std@@QAE@XZ ; std::vector<Ogre::PassDesc,std::allocator<Ogre::PassDesc> >::~vector<Ogre::PassDesc,std::allocator<Ogre::PassDesc> >
;	COMDAT xdata$x
xdata$x	SEGMENT
__unwindtable$??1TechniqueDesc@Ogre@@QAE@XZ DD 0ffffffffH
	DD	FLAT:__unwindfunclet$??1TechniqueDesc@Ogre@@QAE@XZ$0
__ehfuncinfo$??1TechniqueDesc@Ogre@@QAE@XZ DD 019930522H
	DD	01H
	DD	FLAT:__unwindtable$??1TechniqueDesc@Ogre@@QAE@XZ
	DD	2 DUP(00H)
	DD	2 DUP(00H)
	DD	00H
	DD	00H
; Function compile flags: /Odtp
xdata$x	ENDS
;	COMDAT ??1TechniqueDesc@Ogre@@QAE@XZ
_TEXT	SEGMENT
_this$ = -16						; size = 4
__$EHRec$ = -12						; size = 12
??1TechniqueDesc@Ogre@@QAE@XZ PROC			; Ogre::TechniqueDesc::~TechniqueDesc, COMDAT
; _this$ = ecx
	push	ebp
	mov	ebp, esp
	push	-1
	push	__ehhandler$??1TechniqueDesc@Ogre@@QAE@XZ
	mov	eax, DWORD PTR fs:0
	push	eax
	push	ecx
	mov	eax, DWORD PTR ___security_cookie
	xor	eax, ebp
	push	eax
	lea	eax, DWORD PTR __$EHRec$[ebp]
	mov	DWORD PTR fs:0, eax
	mov	DWORD PTR _this$[ebp], ecx
	mov	DWORD PTR __$EHRec$[ebp+8], 0
	mov	DWORD PTR __$EHRec$[ebp+8], -1
	mov	ecx, DWORD PTR _this$[ebp]
	add	ecx, 12					; 0000000cH
	call	??1?$vector@UPassDesc@Ogre@@V?$allocator@UPassDesc@Ogre@@@std@@@std@@QAE@XZ ; std::vector<Ogre::PassDesc,std::allocator<Ogre::PassDesc> >::~vector<Ogre::PassDesc,std::allocator<Ogre::PassDesc> >
	mov	ecx, DWORD PTR __$EHRec$[ebp]
	mov	DWORD PTR fs:0, ecx
	pop	ecx
	mov	esp, ebp
	pop	ebp
	ret	0
_TEXT	ENDS
;	COMDAT text$x
text$x	SEGMENT
__unwindfunclet$??1TechniqueDesc@Ogre@@QAE@XZ$0:
	mov	ecx, DWORD PTR _this$[ebp]
	add	ecx, 12					; 0000000cH
	jmp	??1?$vector@UPassDesc@Ogre@@V?$allocator@UPassDesc@Ogre@@@std@@@std@@QAE@XZ ; std::vector<Ogre::PassDesc,std::allocator<Ogre::PassDesc> >::~vector<Ogre::PassDesc,std::allocator<Ogre::PassDesc> >
__ehhandler$??1TechniqueDesc@Ogre@@QAE@XZ:
	mov	edx, DWORD PTR [esp+8]
	lea	eax, DWORD PTR [edx+12]
	mov	ecx, DWORD PTR [edx-8]
	xor	ecx, eax
	call	@__security_check_cookie@4
	mov	eax, OFFSET __ehfuncinfo$??1TechniqueDesc@Ogre@@QAE@XZ
	jmp	___CxxFrameHandler3
text$x	ENDS
??1TechniqueDesc@Ogre@@QAE@XZ ENDP			; Ogre::TechniqueDesc::~TechniqueDesc
PUBLIC	?getTechnique@CompiledShader@Ogre@@QAEPAUTechniqueDesc@2@IW4RenderUsage@2@@Z ; Ogre::CompiledShader::getTechnique
; Function compile flags: /Odtp
_TEXT	SEGMENT
_this$ = -20						; size = 4
_ptech$144807 = -16					; size = 4
_i$144803 = -12						; size = 4
_tech_usage$ = -8					; size = 4
_pbesttech$ = -4					; size = 4
_lod$ = 8						; size = 4
_renderusage$ = 12					; size = 4
?getTechnique@CompiledShader@Ogre@@QAEPAUTechniqueDesc@2@IW4RenderUsage@2@@Z PROC ; Ogre::CompiledShader::getTechnique
; _this$ = ecx

; 239  : 	{

	push	ebp
	mov	ebp, esp
	sub	esp, 20					; 00000014H
	mov	DWORD PTR _this$[ebp], ecx

; 240  : 		TechniqueDesc *pbesttech = NULL;

	mov	DWORD PTR _pbesttech$[ebp], 0

; 241  : 		size_t tech_usage = 1;

	mov	DWORD PTR _tech_usage$[ebp], 1

; 242  : 		tech_usage = tech_usage<<renderusage;

	mov	eax, DWORD PTR _tech_usage$[ebp]
	mov	ecx, DWORD PTR _renderusage$[ebp]
	shl	eax, cl
	mov	DWORD PTR _tech_usage$[ebp], eax

; 243  : 
; 244  : 		for(size_t i=0; i<m_TechDesc.size(); i++)

	mov	DWORD PTR _i$144803[ebp], 0
	jmp	SHORT $LN6@getTechniq
$LN5@getTechniq:
	mov	ecx, DWORD PTR _i$144803[ebp]
	add	ecx, 1
	mov	DWORD PTR _i$144803[ebp], ecx
$LN6@getTechniq:
	mov	ecx, DWORD PTR _this$[ebp]
	add	ecx, 316				; 0000013cH
	call	?size@?$vector@PAUTechniqueDesc@Ogre@@V?$allocator@PAUTechniqueDesc@Ogre@@@std@@@std@@QBEIXZ ; std::vector<Ogre::TechniqueDesc *,std::allocator<Ogre::TechniqueDesc *> >::size
	cmp	DWORD PTR _i$144803[ebp], eax
	jae	SHORT $LN4@getTechniq

; 245  : 		{
; 246  : 			TechniqueDesc *ptech = m_TechDesc[i];

	mov	edx, DWORD PTR _i$144803[ebp]
	push	edx
	mov	ecx, DWORD PTR _this$[ebp]
	add	ecx, 316				; 0000013cH
	call	??A?$vector@PAUTechniqueDesc@Ogre@@V?$allocator@PAUTechniqueDesc@Ogre@@@std@@@std@@QAEAAPAUTechniqueDesc@Ogre@@I@Z ; std::vector<Ogre::TechniqueDesc *,std::allocator<Ogre::TechniqueDesc *> >::operator[]
	mov	eax, DWORD PTR [eax]
	mov	DWORD PTR _ptech$144807[ebp], eax

; 247  : 			if(ptech->renderusage&tech_usage)

	mov	ecx, DWORD PTR _ptech$144807[ebp]
	mov	edx, DWORD PTR [ecx+8]
	and	edx, DWORD PTR _tech_usage$[ebp]
	je	SHORT $LN3@getTechniq

; 248  : 			{
; 249  : 				if(ptech->lod == lod)

	mov	eax, DWORD PTR _ptech$144807[ebp]
	mov	ecx, DWORD PTR [eax+4]
	cmp	ecx, DWORD PTR _lod$[ebp]
	jne	SHORT $LN2@getTechniq

; 250  : 					return ptech;

	mov	eax, DWORD PTR _ptech$144807[ebp]
	jmp	SHORT $LN7@getTechniq

; 251  : 				else 

	jmp	SHORT $LN3@getTechniq
$LN2@getTechniq:

; 252  : 					pbesttech = ptech;

	mov	edx, DWORD PTR _ptech$144807[ebp]
	mov	DWORD PTR _pbesttech$[ebp], edx
$LN3@getTechniq:

; 253  : 			}
; 254  : 		}

	jmp	SHORT $LN5@getTechniq
$LN4@getTechniq:

; 255  : 
; 256  : 		return pbesttech;

	mov	eax, DWORD PTR _pbesttech$[ebp]
$LN7@getTechniq:

; 257  : 	}

	mov	esp, ebp
	pop	ebp
	ret	8
?getTechnique@CompiledShader@Ogre@@QAEPAUTechniqueDesc@2@IW4RenderUsage@2@@Z ENDP ; Ogre::CompiledShader::getTechnique
_TEXT	ENDS
PUBLIC	?cacheParamHandle@CompiledShader@Ogre@@QAEXXZ	; Ogre::CompiledShader::cacheParamHandle
EXTRN	__imp_??BFixedString@Ogre@@QBEPBDXZ:PROC
EXTRN	__imp_?getParam@MaterialTemplate@Ogre@@QAEPAUParamDefine@12@I@Z:PROC
EXTRN	__imp_?getNumParam@MaterialTemplate@Ogre@@QAEIXZ:PROC
; Function compile flags: /Odtp
_TEXT	SEGMENT
_this$ = -16						; size = 4
_pname$144834 = -12					; size = 4
_pname$144824 = -8					; size = 4
_i$ = -4						; size = 4
?cacheParamHandle@CompiledShader@Ogre@@QAEXXZ PROC	; Ogre::CompiledShader::cacheParamHandle
; _this$ = ecx

; 260  : 	{

	push	ebp
	mov	ebp, esp
	sub	esp, 16					; 00000010H
	mov	DWORD PTR _this$[ebp], ecx

; 261  : 		size_t i;
; 262  : 
; 263  : 		assert(m_pMtlTemplate->getNumParam() <= ARRAY_ELEMENTS(m_MtlHandles));
; 264  : 		if(m_Type == COMPILED_EFFECT) //!!!effect会把所有的参数编译进去

	mov	eax, DWORD PTR _this$[ebp]
	cmp	DWORD PTR [eax+4], 0
	jne	$LN16@cacheParam

; 265  : 		{
; 266  : 			for(i=0; i<SPU_ENV_PARAM_END; i++)

	mov	DWORD PTR _i$[ebp], 0
	jmp	SHORT $LN15@cacheParam
$LN14@cacheParam:
	mov	ecx, DWORD PTR _i$[ebp]
	add	ecx, 1
	mov	DWORD PTR _i$[ebp], ecx
$LN15@cacheParam:
	cmp	DWORD PTR _i$[ebp], 48			; 00000030H
	jae	SHORT $LN13@cacheParam

; 267  : 			{
; 268  : 				if (m_pEffect)

	mov	edx, DWORD PTR _this$[ebp]
	cmp	DWORD PTR [edx+44], 0
	je	SHORT $LN12@cacheParam

; 269  : 					m_EnvHandles[i] = m_pEffect->GetParameterByName(NULL, s_ParamNames[i]);

	mov	eax, DWORD PTR _i$[ebp]
	mov	ecx, DWORD PTR _s_ParamNames[eax*4]
	push	ecx
	push	0
	mov	edx, DWORD PTR _this$[ebp]
	mov	eax, DWORD PTR [edx+44]
	mov	ecx, DWORD PTR _this$[ebp]
	mov	edx, DWORD PTR [ecx+44]
	mov	eax, DWORD PTR [eax]
	push	edx
	mov	ecx, DWORD PTR [eax+36]
	call	ecx
	mov	edx, DWORD PTR _i$[ebp]
	mov	ecx, DWORD PTR _this$[ebp]
	mov	DWORD PTR [ecx+edx*4+60], eax
$LN12@cacheParam:

; 270  : 			}

	jmp	SHORT $LN14@cacheParam
$LN13@cacheParam:

; 271  : 
; 272  : 			for(i=0; i<m_pMtlTemplate->getNumParam(); i++)

	mov	DWORD PTR _i$[ebp], 0
	jmp	SHORT $LN11@cacheParam
$LN10@cacheParam:
	mov	edx, DWORD PTR _i$[ebp]
	add	edx, 1
	mov	DWORD PTR _i$[ebp], edx
$LN11@cacheParam:
	mov	eax, DWORD PTR _this$[ebp]
	mov	ecx, DWORD PTR [eax]
	call	DWORD PTR __imp_?getNumParam@MaterialTemplate@Ogre@@QAEIXZ
	cmp	DWORD PTR _i$[ebp], eax
	jae	SHORT $LN9@cacheParam

; 273  : 			{
; 274  : 				const char *pname = (const char *)m_pMtlTemplate->getParam(i)->name;

	mov	ecx, DWORD PTR _i$[ebp]
	push	ecx
	mov	edx, DWORD PTR _this$[ebp]
	mov	ecx, DWORD PTR [edx]
	call	DWORD PTR __imp_?getParam@MaterialTemplate@Ogre@@QAEPAUParamDefine@12@I@Z
	mov	ecx, eax
	call	DWORD PTR __imp_??BFixedString@Ogre@@QBEPBDXZ
	mov	DWORD PTR _pname$144824[ebp], eax

; 275  : 				if (m_pEffect)

	mov	eax, DWORD PTR _this$[ebp]
	cmp	DWORD PTR [eax+44], 0
	je	SHORT $LN8@cacheParam

; 276  : 					m_MtlHandles[i] = m_pEffect->GetParameterByName(NULL, pname);

	mov	ecx, DWORD PTR _pname$144824[ebp]
	push	ecx
	push	0
	mov	edx, DWORD PTR _this$[ebp]
	mov	eax, DWORD PTR [edx+44]
	mov	ecx, DWORD PTR _this$[ebp]
	mov	edx, DWORD PTR [ecx+44]
	mov	eax, DWORD PTR [eax]
	push	edx
	mov	ecx, DWORD PTR [eax+36]
	call	ecx
	mov	edx, DWORD PTR _i$[ebp]
	mov	ecx, DWORD PTR _this$[ebp]
	mov	DWORD PTR [ecx+edx*4+252], eax
$LN8@cacheParam:

; 277  : 			}

	jmp	SHORT $LN10@cacheParam
$LN9@cacheParam:

; 278  : 		}
; 279  : 		else

	jmp	$LN17@cacheParam
$LN16@cacheParam:

; 280  : 		{
; 281  : 			for(i=0; i<SPU_ENV_PARAM_END; i++)

	mov	DWORD PTR _i$[ebp], 0
	jmp	SHORT $LN6@cacheParam
$LN5@cacheParam:
	mov	edx, DWORD PTR _i$[ebp]
	add	edx, 1
	mov	DWORD PTR _i$[ebp], edx
$LN6@cacheParam:
	cmp	DWORD PTR _i$[ebp], 48			; 00000030H
	jae	SHORT $LN4@cacheParam

; 282  : 			{
; 283  : 				m_EnvHandles[i] = m_pConst->GetConstantByName(NULL, s_ParamNames[i]);

	mov	eax, DWORD PTR _i$[ebp]
	mov	ecx, DWORD PTR _s_ParamNames[eax*4]
	push	ecx
	push	0
	mov	edx, DWORD PTR _this$[ebp]
	mov	eax, DWORD PTR [edx+56]
	mov	ecx, DWORD PTR _this$[ebp]
	mov	edx, DWORD PTR [ecx+56]
	mov	eax, DWORD PTR [eax]
	push	edx
	mov	ecx, DWORD PTR [eax+36]
	call	ecx
	mov	edx, DWORD PTR _i$[ebp]
	mov	ecx, DWORD PTR _this$[ebp]
	mov	DWORD PTR [ecx+edx*4+60], eax

; 284  : 			}

	jmp	SHORT $LN5@cacheParam
$LN4@cacheParam:

; 285  : 
; 286  : 			for(i=0; i<m_pMtlTemplate->getNumParam(); i++)

	mov	DWORD PTR _i$[ebp], 0
	jmp	SHORT $LN3@cacheParam
$LN2@cacheParam:
	mov	edx, DWORD PTR _i$[ebp]
	add	edx, 1
	mov	DWORD PTR _i$[ebp], edx
$LN3@cacheParam:
	mov	eax, DWORD PTR _this$[ebp]
	mov	ecx, DWORD PTR [eax]
	call	DWORD PTR __imp_?getNumParam@MaterialTemplate@Ogre@@QAEIXZ
	cmp	DWORD PTR _i$[ebp], eax
	jae	SHORT $LN17@cacheParam

; 287  : 			{
; 288  : 				const char *pname = (const char *)m_pMtlTemplate->getParam(i)->name;

	mov	ecx, DWORD PTR _i$[ebp]
	push	ecx
	mov	edx, DWORD PTR _this$[ebp]
	mov	ecx, DWORD PTR [edx]
	call	DWORD PTR __imp_?getParam@MaterialTemplate@Ogre@@QAEPAUParamDefine@12@I@Z
	mov	ecx, eax
	call	DWORD PTR __imp_??BFixedString@Ogre@@QBEPBDXZ
	mov	DWORD PTR _pname$144834[ebp], eax

; 289  : 				m_MtlHandles[i] = m_pConst->GetConstantByName(NULL, pname);

	mov	eax, DWORD PTR _pname$144834[ebp]
	push	eax
	push	0
	mov	ecx, DWORD PTR _this$[ebp]
	mov	edx, DWORD PTR [ecx+56]
	mov	eax, DWORD PTR _this$[ebp]
	mov	ecx, DWORD PTR [eax+56]
	mov	edx, DWORD PTR [edx]
	push	ecx
	mov	eax, DWORD PTR [edx+36]
	call	eax
	mov	ecx, DWORD PTR _i$[ebp]
	mov	edx, DWORD PTR _this$[ebp]
	mov	DWORD PTR [edx+ecx*4+252], eax

; 290  : 			}

	jmp	SHORT $LN2@cacheParam
$LN17@cacheParam:

; 291  : 		}
; 292  : 	}

	mov	esp, ebp
	pop	ebp
	ret	0
?cacheParamHandle@CompiledShader@Ogre@@QAEXXZ ENDP	; Ogre::CompiledShader::cacheParamHandle
_TEXT	ENDS
PUBLIC	?setConstant@CompiledShader@Ogre@@QAEXPBDPBXI@Z	; Ogre::CompiledShader::setConstant
; Function compile flags: /Odtp
_TEXT	SEGMENT
_this$ = -12						; size = 4
_h$144849 = -8						; size = 4
_h$144843 = -4						; size = 4
_pname$ = 8						; size = 4
_pdata$ = 12						; size = 4
_len$ = 16						; size = 4
?setConstant@CompiledShader@Ogre@@QAEXPBDPBXI@Z PROC	; Ogre::CompiledShader::setConstant
; _this$ = ecx

; 295  : 	{

	push	ebp
	mov	ebp, esp
	sub	esp, 12					; 0000000cH
	mov	DWORD PTR _this$[ebp], ecx

; 296  : 		if(m_Type == COMPILED_EFFECT)

	mov	eax, DWORD PTR _this$[ebp]
	cmp	DWORD PTR [eax+4], 0
	jne	SHORT $LN6@setConstan

; 297  : 		{
; 298  : 			D3DXHANDLE h = NULL; 

	mov	DWORD PTR _h$144843[ebp], 0

; 299  : 			if (m_pEffect)

	mov	ecx, DWORD PTR _this$[ebp]
	cmp	DWORD PTR [ecx+44], 0
	je	SHORT $LN5@setConstan

; 300  : 				h = m_pEffect->GetParameterByName(NULL, pname);

	mov	edx, DWORD PTR _pname$[ebp]
	push	edx
	push	0
	mov	eax, DWORD PTR _this$[ebp]
	mov	ecx, DWORD PTR [eax+44]
	mov	edx, DWORD PTR _this$[ebp]
	mov	eax, DWORD PTR [edx+44]
	mov	ecx, DWORD PTR [ecx]
	push	eax
	mov	edx, DWORD PTR [ecx+36]
	call	edx
	mov	DWORD PTR _h$144843[ebp], eax
$LN5@setConstan:

; 301  : 			if(h != NULL)

	cmp	DWORD PTR _h$144843[ebp], 0
	je	SHORT $LN4@setConstan

; 302  : 			{
; 303  : 				if (m_pEffect)

	mov	eax, DWORD PTR _this$[ebp]
	cmp	DWORD PTR [eax+44], 0
	je	SHORT $LN4@setConstan

; 304  : 					m_pEffect->SetValue(h, pdata, (UINT)len);

	mov	ecx, DWORD PTR _len$[ebp]
	push	ecx
	mov	edx, DWORD PTR _pdata$[ebp]
	push	edx
	mov	eax, DWORD PTR _h$144843[ebp]
	push	eax
	mov	ecx, DWORD PTR _this$[ebp]
	mov	edx, DWORD PTR [ecx+44]
	mov	eax, DWORD PTR _this$[ebp]
	mov	ecx, DWORD PTR [eax+44]
	mov	edx, DWORD PTR [edx]
	push	ecx
	mov	eax, DWORD PTR [edx+80]
	call	eax
$LN4@setConstan:

; 305  : 			}
; 306  : 		}
; 307  : 		else

	jmp	SHORT $LN7@setConstan
$LN6@setConstan:

; 308  : 		{
; 309  : 			D3DXHANDLE h = m_pConst->GetConstantByName(NULL, pname);

	mov	ecx, DWORD PTR _pname$[ebp]
	push	ecx
	push	0
	mov	edx, DWORD PTR _this$[ebp]
	mov	eax, DWORD PTR [edx+56]
	mov	ecx, DWORD PTR _this$[ebp]
	mov	edx, DWORD PTR [ecx+56]
	mov	eax, DWORD PTR [eax]
	push	edx
	mov	ecx, DWORD PTR [eax+36]
	call	ecx
	mov	DWORD PTR _h$144849[ebp], eax

; 310  : 			if(h != NULL) m_pConst->SetValue(m_pDevice, h, pdata, (UINT)len);

	cmp	DWORD PTR _h$144849[ebp], 0
	je	SHORT $LN7@setConstan
	mov	edx, DWORD PTR _len$[ebp]
	push	edx
	mov	eax, DWORD PTR _pdata$[ebp]
	push	eax
	mov	ecx, DWORD PTR _h$144849[ebp]
	push	ecx
	mov	edx, DWORD PTR _this$[ebp]
	mov	eax, DWORD PTR [edx+8]
	push	eax
	mov	ecx, DWORD PTR _this$[ebp]
	mov	edx, DWORD PTR [ecx+56]
	mov	eax, DWORD PTR _this$[ebp]
	mov	ecx, DWORD PTR [eax+56]
	mov	edx, DWORD PTR [edx]
	push	ecx
	mov	eax, DWORD PTR [edx+48]
	call	eax
$LN7@setConstan:

; 311  : 		}
; 312  : 	}

	mov	esp, ebp
	pop	ebp
	ret	12					; 0000000cH
?setConstant@CompiledShader@Ogre@@QAEXPBDPBXI@Z ENDP	; Ogre::CompiledShader::setConstant
_TEXT	ENDS
PUBLIC	?setConstant@CompiledShader@Ogre@@QAEXW4ShaderParamUsage@2@PBXI@Z ; Ogre::CompiledShader::setConstant
; Function compile flags: /Odtp
_TEXT	SEGMENT
_this$ = -64						; size = 4
_cdesc$144870 = -60					; size = 48
_count$144871 = -12					; size = 4
_i$144861 = -8						; size = 4
_h$ = -4						; size = 4
_usage$ = 8						; size = 4
_pdata$ = 12						; size = 4
_len$ = 16						; size = 4
?setConstant@CompiledShader@Ogre@@QAEXW4ShaderParamUsage@2@PBXI@Z PROC ; Ogre::CompiledShader::setConstant
; _this$ = ecx

; 315  : 	{

	push	ebp
	mov	ebp, esp
	sub	esp, 64					; 00000040H
	mov	DWORD PTR _this$[ebp], ecx

; 316  : 		D3DXHANDLE h;
; 317  : 		if(usage < SPU_ENV_PARAM_END) h = m_EnvHandles[usage];

	cmp	DWORD PTR _usage$[ebp], 48		; 00000030H
	jge	SHORT $LN13@setConstan@2
	mov	eax, DWORD PTR _usage$[ebp]
	mov	ecx, DWORD PTR _this$[ebp]
	mov	edx, DWORD PTR [ecx+eax*4+60]
	mov	DWORD PTR _h$[ebp], edx

; 318  : 		else

	jmp	SHORT $LN12@setConstan@2
$LN13@setConstan@2:

; 319  : 		{
; 320  : 			size_t i = usage - SPU_GENERAL_PARAM;

	mov	eax, DWORD PTR _usage$[ebp]
	sub	eax, 1000				; 000003e8H
	mov	DWORD PTR _i$144861[ebp], eax

; 321  : 			assert(i<ARRAY_ELEMENTS(m_MtlHandles));
; 322  : 			h = m_MtlHandles[i];

	mov	ecx, DWORD PTR _i$144861[ebp]
	mov	edx, DWORD PTR _this$[ebp]
	mov	eax, DWORD PTR [edx+ecx*4+252]
	mov	DWORD PTR _h$[ebp], eax
$LN12@setConstan@2:

; 323  : 		}
; 324  : 
; 325  : 		if(h == NULL) return;

	cmp	DWORD PTR _h$[ebp], 0
	jne	SHORT $LN11@setConstan@2
	jmp	$LN14@setConstan@2
$LN11@setConstan@2:

; 326  : 
; 327  : 		if(m_Type == COMPILED_EFFECT)

	mov	ecx, DWORD PTR _this$[ebp]
	cmp	DWORD PTR [ecx+4], 0
	jne	SHORT $LN10@setConstan@2

; 328  : 		{
; 329  : 			if (m_pEffect)

	mov	edx, DWORD PTR _this$[ebp]
	cmp	DWORD PTR [edx+44], 0
	je	SHORT $LN9@setConstan@2

; 330  : 				m_pEffect->SetValue(h, pdata, (UINT)len);

	mov	eax, DWORD PTR _len$[ebp]
	push	eax
	mov	ecx, DWORD PTR _pdata$[ebp]
	push	ecx
	mov	edx, DWORD PTR _h$[ebp]
	push	edx
	mov	eax, DWORD PTR _this$[ebp]
	mov	ecx, DWORD PTR [eax+44]
	mov	edx, DWORD PTR _this$[ebp]
	mov	eax, DWORD PTR [edx+44]
	mov	ecx, DWORD PTR [ecx]
	push	eax
	mov	edx, DWORD PTR [ecx+80]
	call	edx
$LN9@setConstan@2:

; 331  : 		}

	jmp	$LN14@setConstan@2
$LN10@setConstan@2:

; 332  : 		else if(m_Type == COMPILED_VS)

	mov	eax, DWORD PTR _this$[ebp]
	cmp	DWORD PTR [eax+4], 1
	jne	$LN7@setConstan@2

; 333  : 		{
; 334  : 			if(usage == SPU_LIGHTDATA) //!!!hack, 对这种结构数组以后再看怎么处理

	cmp	DWORD PTR _usage$[ebp], 5
	jne	SHORT $LN6@setConstan@2

; 335  : 			{
; 336  : 				D3DXCONSTANT_DESC cdesc;
; 337  : 				UINT count;
; 338  : 				if (m_pConst)

	mov	ecx, DWORD PTR _this$[ebp]
	cmp	DWORD PTR [ecx+56], 0
	je	SHORT $LN5@setConstan@2

; 339  : 				{
; 340  : 					m_pConst->GetConstantDesc(h, &cdesc, &count);

	lea	edx, DWORD PTR _count$144871[ebp]
	push	edx
	lea	eax, DWORD PTR _cdesc$144870[ebp]
	push	eax
	mov	ecx, DWORD PTR _h$[ebp]
	push	ecx
	mov	edx, DWORD PTR _this$[ebp]
	mov	eax, DWORD PTR [edx+56]
	mov	ecx, DWORD PTR _this$[ebp]
	mov	edx, DWORD PTR [ecx+56]
	mov	eax, DWORD PTR [eax]
	push	edx
	mov	ecx, DWORD PTR [eax+24]
	call	ecx

; 341  : 
; 342  : 					m_pDevice->SetVertexShaderConstantF(cdesc.RegisterIndex, (const float *)pdata, (UINT)len/16);

	mov	edx, DWORD PTR _len$[ebp]
	shr	edx, 4
	push	edx
	mov	eax, DWORD PTR _pdata$[ebp]
	push	eax
	mov	ecx, DWORD PTR _cdesc$144870[ebp+8]
	push	ecx
	mov	edx, DWORD PTR _this$[ebp]
	mov	eax, DWORD PTR [edx+8]
	mov	ecx, DWORD PTR _this$[ebp]
	mov	edx, DWORD PTR [ecx+8]
	mov	eax, DWORD PTR [eax]
	push	edx
	mov	ecx, DWORD PTR [eax+376]
	call	ecx
$LN5@setConstan@2:

; 343  : 				}
; 344  : 			}
; 345  : 			else

	jmp	SHORT $LN4@setConstan@2
$LN6@setConstan@2:

; 346  : 			{
; 347  : 				if (m_pConst)

	mov	edx, DWORD PTR _this$[ebp]
	cmp	DWORD PTR [edx+56], 0
	je	SHORT $LN4@setConstan@2

; 348  : 					m_pConst->SetValue(m_pDevice, h, pdata, (UINT)len);

	mov	eax, DWORD PTR _len$[ebp]
	push	eax
	mov	ecx, DWORD PTR _pdata$[ebp]
	push	ecx
	mov	edx, DWORD PTR _h$[ebp]
	push	edx
	mov	eax, DWORD PTR _this$[ebp]
	mov	ecx, DWORD PTR [eax+8]
	push	ecx
	mov	edx, DWORD PTR _this$[ebp]
	mov	eax, DWORD PTR [edx+56]
	mov	ecx, DWORD PTR _this$[ebp]
	mov	edx, DWORD PTR [ecx+56]
	mov	eax, DWORD PTR [eax]
	push	edx
	mov	ecx, DWORD PTR [eax+48]
	call	ecx
$LN4@setConstan@2:

; 349  : 			}
; 350  : 		}
; 351  : 		else

	jmp	SHORT $LN14@setConstan@2
$LN7@setConstan@2:

; 352  : 		{
; 353  : 			if (m_pConst)

	mov	edx, DWORD PTR _this$[ebp]
	cmp	DWORD PTR [edx+56], 0
	je	SHORT $LN14@setConstan@2

; 354  : 				m_pConst->SetValue(m_pDevice, h, pdata, (UINT)len);

	mov	eax, DWORD PTR _len$[ebp]
	push	eax
	mov	ecx, DWORD PTR _pdata$[ebp]
	push	ecx
	mov	edx, DWORD PTR _h$[ebp]
	push	edx
	mov	eax, DWORD PTR _this$[ebp]
	mov	ecx, DWORD PTR [eax+8]
	push	ecx
	mov	edx, DWORD PTR _this$[ebp]
	mov	eax, DWORD PTR [edx+56]
	mov	ecx, DWORD PTR _this$[ebp]
	mov	edx, DWORD PTR [ecx+56]
	mov	eax, DWORD PTR [eax]
	push	edx
	mov	ecx, DWORD PTR [eax+48]
	call	ecx
$LN14@setConstan@2:

; 355  : 		}
; 356  : 	}

	mov	esp, ebp
	pop	ebp
	ret	12					; 0000000cH
?setConstant@CompiledShader@Ogre@@QAEXW4ShaderParamUsage@2@PBXI@Z ENDP ; Ogre::CompiledShader::setConstant
_TEXT	ENDS
PUBLIC	?hasConstant@CompiledShader@Ogre@@QAE_NW4ShaderParamUsage@2@PBD@Z ; Ogre::CompiledShader::hasConstant
; Function compile flags: /Odtp
_TEXT	SEGMENT
_this$ = -12						; size = 4
_i$144889 = -8						; size = 4
_h$ = -4						; size = 4
_usage$ = 8						; size = 4
_htech$ = 12						; size = 4
?hasConstant@CompiledShader@Ogre@@QAE_NW4ShaderParamUsage@2@PBD@Z PROC ; Ogre::CompiledShader::hasConstant
; _this$ = ecx

; 359  : 	{

	push	ebp
	mov	ebp, esp
	sub	esp, 12					; 0000000cH
	mov	DWORD PTR _this$[ebp], ecx

; 360  : 		D3DXHANDLE h;
; 361  : 		if(usage < SPU_ENV_PARAM_END) h = m_EnvHandles[usage];

	cmp	DWORD PTR _usage$[ebp], 48		; 00000030H
	jge	SHORT $LN7@hasConstan
	mov	eax, DWORD PTR _usage$[ebp]
	mov	ecx, DWORD PTR _this$[ebp]
	mov	edx, DWORD PTR [ecx+eax*4+60]
	mov	DWORD PTR _h$[ebp], edx

; 362  : 		else

	jmp	SHORT $LN6@hasConstan
$LN7@hasConstan:

; 363  : 		{
; 364  : 			size_t i = usage - SPU_GENERAL_PARAM;

	mov	eax, DWORD PTR _usage$[ebp]
	sub	eax, 1000				; 000003e8H
	mov	DWORD PTR _i$144889[ebp], eax

; 365  : 			assert(i<ARRAY_ELEMENTS(m_MtlHandles));
; 366  : 			h = m_MtlHandles[i];

	mov	ecx, DWORD PTR _i$144889[ebp]
	mov	edx, DWORD PTR _this$[ebp]
	mov	eax, DWORD PTR [edx+ecx*4+252]
	mov	DWORD PTR _h$[ebp], eax
$LN6@hasConstan:

; 367  : 		}
; 368  : 
; 369  : 		if(h != NULL)

	cmp	DWORD PTR _h$[ebp], 0
	je	SHORT $LN5@hasConstan

; 370  : 		{
; 371  : 			if(m_Type == COMPILED_EFFECT)

	mov	ecx, DWORD PTR _this$[ebp]
	cmp	DWORD PTR [ecx+4], 0
	jne	SHORT $LN4@hasConstan

; 372  : 			{
; 373  : 				if (m_pEffect)

	mov	edx, DWORD PTR _this$[ebp]
	cmp	DWORD PTR [edx+44], 0
	je	SHORT $LN3@hasConstan

; 374  : 					return m_pEffect->IsParameterUsed(h, htech)==TRUE;

	mov	eax, DWORD PTR _htech$[ebp]
	push	eax
	mov	ecx, DWORD PTR _h$[ebp]
	push	ecx
	mov	edx, DWORD PTR _this$[ebp]
	mov	eax, DWORD PTR [edx+44]
	mov	ecx, DWORD PTR _this$[ebp]
	mov	edx, DWORD PTR [ecx+44]
	mov	eax, DWORD PTR [eax]
	push	edx
	mov	ecx, DWORD PTR [eax+248]
	call	ecx
	sub	eax, 1
	neg	eax
	sbb	eax, eax
	add	eax, 1
	jmp	SHORT $LN8@hasConstan
$LN3@hasConstan:

; 375  : 			}

	jmp	SHORT $LN2@hasConstan
$LN4@hasConstan:

; 376  : 			else return true;

	mov	al, 1
	jmp	SHORT $LN8@hasConstan
$LN2@hasConstan:
	jmp	SHORT $LN8@hasConstan
$LN5@hasConstan:

; 377  : 		}
; 378  : 		else return false;

	xor	al, al
$LN8@hasConstan:

; 379  : 	}

	mov	esp, ebp
	pop	ebp
	ret	8
?hasConstant@CompiledShader@Ogre@@QAE_NW4ShaderParamUsage@2@PBD@Z ENDP ; Ogre::CompiledShader::hasConstant
_TEXT	ENDS
PUBLIC	?push_back@?$vector@PAUTechniqueDesc@Ogre@@V?$allocator@PAUTechniqueDesc@Ogre@@@std@@@std@@QAEXABQAUTechniqueDesc@Ogre@@@Z ; std::vector<Ogre::TechniqueDesc *,std::allocator<Ogre::TechniqueDesc *> >::push_back
PUBLIC	??A?$vector@UPassDesc@Ogre@@V?$allocator@UPassDesc@Ogre@@@std@@@std@@QAEAAUPassDesc@Ogre@@I@Z ; std::vector<Ogre::PassDesc,std::allocator<Ogre::PassDesc> >::operator[]
PUBLIC	?resize@?$vector@UPassDesc@Ogre@@V?$allocator@UPassDesc@Ogre@@@std@@@std@@QAEXI@Z ; std::vector<Ogre::PassDesc,std::allocator<Ogre::PassDesc> >::resize
PUBLIC	??0TechniqueDesc@Ogre@@QAE@XZ			; Ogre::TechniqueDesc::TechniqueDesc
PUBLIC	?cacheTechnique@CompiledShader@Ogre@@QAEXXZ	; Ogre::CompiledShader::cacheTechnique
EXTRN	_strcpy:PROC
EXTRN	??2@YAPAXI@Z:PROC				; operator new
xdata$x	SEGMENT
__unwindtable$?cacheTechnique@CompiledShader@Ogre@@QAEXXZ DD 0ffffffffH
	DD	FLAT:__unwindfunclet$?cacheTechnique@CompiledShader@Ogre@@QAEXXZ$0
__ehfuncinfo$?cacheTechnique@CompiledShader@Ogre@@QAEXXZ DD 019930522H
	DD	01H
	DD	FLAT:__unwindtable$?cacheTechnique@CompiledShader@Ogre@@QAEXXZ
	DD	2 DUP(00H)
	DD	2 DUP(00H)
	DD	00H
	DD	00H
; Function compile flags: /Odtp
xdata$x	ENDS
_TEXT	SEGMENT
tv93 = -72						; size = 4
_this$ = -68						; size = 4
$T157805 = -64						; size = 4
$T157804 = -60						; size = 4
_psname$144950 = -56					; size = 4
_hpass$144944 = -52					; size = 4
_passdesc$144943 = -48					; size = 4
_vsname$144945 = -44					; size = 4
_ipass$144939 = -40					; size = 4
_techdesc$144937 = -36					; size = 12
_ptech$144930 = -24					; size = 4
_i$144923 = -20						; size = 4
_htech$ = -16						; size = 4
__$EHRec$ = -12						; size = 12
?cacheTechnique@CompiledShader@Ogre@@QAEXXZ PROC	; Ogre::CompiledShader::cacheTechnique
; _this$ = ecx

; 402  : 	{

	push	ebp
	mov	ebp, esp
	push	-1
	push	__ehhandler$?cacheTechnique@CompiledShader@Ogre@@QAEXXZ
	mov	eax, DWORD PTR fs:0
	push	eax
	sub	esp, 60					; 0000003cH
	mov	eax, DWORD PTR ___security_cookie
	xor	eax, ebp
	push	eax
	lea	eax, DWORD PTR __$EHRec$[ebp]
	mov	DWORD PTR fs:0, eax
	mov	DWORD PTR _this$[ebp], ecx

; 403  : 		if(m_Type != COMPILED_EFFECT) return;

	mov	eax, DWORD PTR _this$[ebp]
	cmp	DWORD PTR [eax+4], 0
	je	SHORT $LN15@cacheTechn
	jmp	$LN16@cacheTechn
$LN15@cacheTechn:

; 404  : 
; 405  : 		D3DXHANDLE htech = NULL;

	mov	DWORD PTR _htech$[ebp], 0

; 406  : 		for( int i=0; i<16; i++ )

	mov	DWORD PTR _i$144923[ebp], 0
	jmp	SHORT $LN14@cacheTechn
$LN13@cacheTechn:
	mov	ecx, DWORD PTR _i$144923[ebp]
	add	ecx, 1
	mov	DWORD PTR _i$144923[ebp], ecx
$LN14@cacheTechn:
	cmp	DWORD PTR _i$144923[ebp], 16		; 00000010H
	jge	$LN16@cacheTechn

; 407  : 		{
; 408  : 			if (!m_pEffect)

	mov	edx, DWORD PTR _this$[ebp]
	cmp	DWORD PTR [edx+44], 0
	jne	SHORT $LN11@cacheTechn

; 409  : 				return;

	jmp	$LN16@cacheTechn
$LN11@cacheTechn:

; 410  : 
; 411  : 			if (m_pEffect)

	mov	eax, DWORD PTR _this$[ebp]
	cmp	DWORD PTR [eax+44], 0
	je	SHORT $LN10@cacheTechn

; 412  : 				htech = m_pEffect->GetTechnique(i);

	mov	ecx, DWORD PTR _i$144923[ebp]
	push	ecx
	mov	edx, DWORD PTR _this$[ebp]
	mov	eax, DWORD PTR [edx+44]
	mov	ecx, DWORD PTR _this$[ebp]
	mov	edx, DWORD PTR [ecx+44]
	mov	eax, DWORD PTR [eax]
	push	edx
	mov	ecx, DWORD PTR [eax+48]
	call	ecx
	mov	DWORD PTR _htech$[ebp], eax
$LN10@cacheTechn:

; 413  : 			if( htech == NULL ) return;

	cmp	DWORD PTR _htech$[ebp], 0
	jne	SHORT $LN9@cacheTechn
	jmp	$LN16@cacheTechn
$LN9@cacheTechn:

; 414  : 
; 415  : 		//	if( SUCCEEDED(m_pEffect->ValidateTechnique(htech)) )//!!!need to check vs, ps_2_0 此函数很耗！！相当耗！！！
; 416  : 			{
; 417  : 				TechniqueDesc *ptech = new TechniqueDesc;

	push	36					; 00000024H
	call	??2@YAPAXI@Z				; operator new
	add	esp, 4
	mov	DWORD PTR $T157805[ebp], eax
	mov	DWORD PTR __$EHRec$[ebp+8], 0
	cmp	DWORD PTR $T157805[ebp], 0
	je	SHORT $LN18@cacheTechn
	mov	ecx, DWORD PTR $T157805[ebp]
	call	??0TechniqueDesc@Ogre@@QAE@XZ
	mov	DWORD PTR tv93[ebp], eax
	jmp	SHORT $LN19@cacheTechn
$LN18@cacheTechn:
	mov	DWORD PTR tv93[ebp], 0
$LN19@cacheTechn:
	mov	edx, DWORD PTR tv93[ebp]
	mov	DWORD PTR $T157804[ebp], edx
	mov	DWORD PTR __$EHRec$[ebp+8], -1
	mov	eax, DWORD PTR $T157804[ebp]
	mov	DWORD PTR _ptech$144930[ebp], eax

; 418  : 				ptech->htech = htech;

	mov	ecx, DWORD PTR _ptech$144930[ebp]
	mov	edx, DWORD PTR _htech$[ebp]
	mov	DWORD PTR [ecx], edx

; 419  : 				ptech->lod = GetTechniqueAnnotation(m_pEffect, htech, "lod");

	push	OFFSET $SG144935
	mov	eax, DWORD PTR _htech$[ebp]
	push	eax
	mov	ecx, DWORD PTR _this$[ebp]
	mov	edx, DWORD PTR [ecx+44]
	push	edx
	call	?GetTechniqueAnnotation@Ogre@@YAHPAUID3DXEffect@@PBD1@Z ; Ogre::GetTechniqueAnnotation
	add	esp, 12					; 0000000cH
	mov	ecx, DWORD PTR _ptech$144930[ebp]
	mov	DWORD PTR [ecx+4], eax

; 420  : 				ptech->renderusage = GetTechniqueAnnotation(m_pEffect, htech, "usage");

	push	OFFSET $SG144936
	mov	edx, DWORD PTR _htech$[ebp]
	push	edx
	mov	eax, DWORD PTR _this$[ebp]
	mov	ecx, DWORD PTR [eax+44]
	push	ecx
	call	?GetTechniqueAnnotation@Ogre@@YAHPAUID3DXEffect@@PBD1@Z ; Ogre::GetTechniqueAnnotation
	add	esp, 12					; 0000000cH
	mov	edx, DWORD PTR _ptech$144930[ebp]
	mov	DWORD PTR [edx+8], eax

; 421  : 
; 422  : 				D3DXTECHNIQUE_DESC techdesc;
; 423  : 				if (m_pEffect)

	mov	eax, DWORD PTR _this$[ebp]
	cmp	DWORD PTR [eax+44], 0
	je	SHORT $LN8@cacheTechn

; 424  : 					m_pEffect->GetTechniqueDesc(htech, &techdesc);

	lea	ecx, DWORD PTR _techdesc$144937[ebp]
	push	ecx
	mov	edx, DWORD PTR _htech$[ebp]
	push	edx
	mov	eax, DWORD PTR _this$[ebp]
	mov	ecx, DWORD PTR [eax+44]
	mov	edx, DWORD PTR _this$[ebp]
	mov	eax, DWORD PTR [edx+44]
	mov	ecx, DWORD PTR [ecx]
	push	eax
	mov	edx, DWORD PTR [ecx+20]
	call	edx
$LN8@cacheTechn:

; 425  : 				ptech->m_Pass.resize(techdesc.Passes);

	mov	eax, DWORD PTR _techdesc$144937[ebp+4]
	push	eax
	mov	ecx, DWORD PTR _ptech$144930[ebp]
	add	ecx, 12					; 0000000cH
	call	?resize@?$vector@UPassDesc@Ogre@@V?$allocator@UPassDesc@Ogre@@@std@@@std@@QAEXI@Z ; std::vector<Ogre::PassDesc,std::allocator<Ogre::PassDesc> >::resize

; 426  : 
; 427  : 				for(UINT ipass=0; ipass<techdesc.Passes; ipass++)

	mov	DWORD PTR _ipass$144939[ebp], 0
	jmp	SHORT $LN7@cacheTechn
$LN6@cacheTechn:
	mov	ecx, DWORD PTR _ipass$144939[ebp]
	add	ecx, 1
	mov	DWORD PTR _ipass$144939[ebp], ecx
$LN7@cacheTechn:
	mov	edx, DWORD PTR _ipass$144939[ebp]
	cmp	edx, DWORD PTR _techdesc$144937[ebp+4]
	jae	$LN5@cacheTechn

; 428  : 				{
; 429  : 					PassDesc &passdesc = ptech->m_Pass[ipass];

	mov	eax, DWORD PTR _ipass$144939[ebp]
	push	eax
	mov	ecx, DWORD PTR _ptech$144930[ebp]
	add	ecx, 12					; 0000000cH
	call	??A?$vector@UPassDesc@Ogre@@V?$allocator@UPassDesc@Ogre@@@std@@@std@@QAEAAUPassDesc@Ogre@@I@Z ; std::vector<Ogre::PassDesc,std::allocator<Ogre::PassDesc> >::operator[]
	mov	DWORD PTR _passdesc$144943[ebp], eax

; 430  : 					D3DXHANDLE hpass = m_pEffect->GetPass(htech, ipass);

	mov	ecx, DWORD PTR _ipass$144939[ebp]
	push	ecx
	mov	edx, DWORD PTR _htech$[ebp]
	push	edx
	mov	eax, DWORD PTR _this$[ebp]
	mov	ecx, DWORD PTR [eax+44]
	mov	edx, DWORD PTR _this$[ebp]
	mov	eax, DWORD PTR [edx+44]
	mov	ecx, DWORD PTR [ecx]
	push	eax
	mov	edx, DWORD PTR [ecx+56]
	call	edx
	mov	DWORD PTR _hpass$144944[ebp], eax

; 431  : 					const char *vsname = GetAnnotationStr(m_pEffect, hpass, "vs");

	push	OFFSET $SG144946
	mov	eax, DWORD PTR _hpass$144944[ebp]
	push	eax
	mov	ecx, DWORD PTR _this$[ebp]
	mov	edx, DWORD PTR [ecx+44]
	push	edx
	call	?GetAnnotationStr@Ogre@@YAPBDPAUID3DXEffect@@PBD1@Z ; Ogre::GetAnnotationStr
	add	esp, 12					; 0000000cH
	mov	DWORD PTR _vsname$144945[ebp], eax

; 432  : 					if(vsname)

	cmp	DWORD PTR _vsname$144945[ebp], 0
	je	SHORT $LN4@cacheTechn

; 433  : 					{
; 434  : 						assert(strlen(vsname) < sizeof(passdesc.vs));
; 435  : 						strcpy(passdesc.vs, vsname); //如果为空，表示vertexshader = NULL，使用固定管线

	mov	eax, DWORD PTR _vsname$144945[ebp]
	push	eax
	mov	ecx, DWORD PTR _passdesc$144943[ebp]
	push	ecx
	call	_strcpy
	add	esp, 8

; 436  : 					}
; 437  : 					else

	jmp	SHORT $LN3@cacheTechn
$LN4@cacheTechn:

; 438  : 					{
; 439  : 						passdesc.vs[0] = 1; //表示使用effect里面定义的vs, ps

	mov	edx, DWORD PTR _passdesc$144943[ebp]
	mov	BYTE PTR [edx], 1

; 440  : 						passdesc.vs[1] = 0;

	mov	eax, DWORD PTR _passdesc$144943[ebp]
	mov	BYTE PTR [eax+1], 0
$LN3@cacheTechn:

; 441  : 					}
; 442  : 
; 443  : 					const char *psname = GetAnnotationStr(m_pEffect, hpass, "ps");

	push	OFFSET $SG144951
	mov	ecx, DWORD PTR _hpass$144944[ebp]
	push	ecx
	mov	edx, DWORD PTR _this$[ebp]
	mov	eax, DWORD PTR [edx+44]
	push	eax
	call	?GetAnnotationStr@Ogre@@YAPBDPAUID3DXEffect@@PBD1@Z ; Ogre::GetAnnotationStr
	add	esp, 12					; 0000000cH
	mov	DWORD PTR _psname$144950[ebp], eax

; 444  : 					if(psname)

	cmp	DWORD PTR _psname$144950[ebp], 0
	je	SHORT $LN2@cacheTechn

; 445  : 					{
; 446  : 						assert(strlen(psname) < sizeof(passdesc.ps));
; 447  : 						strcpy(passdesc.ps, psname);

	mov	ecx, DWORD PTR _psname$144950[ebp]
	push	ecx
	mov	edx, DWORD PTR _passdesc$144943[ebp]
	add	edx, 16					; 00000010H
	push	edx
	call	_strcpy
	add	esp, 8

; 448  : 					}
; 449  : 					else

	jmp	SHORT $LN1@cacheTechn
$LN2@cacheTechn:

; 450  : 					{
; 451  : 						passdesc.ps[0] = 1;//表示使用effect里面定义的vs, ps

	mov	eax, DWORD PTR _passdesc$144943[ebp]
	mov	BYTE PTR [eax+16], 1

; 452  : 						passdesc.ps[1] = 0;

	mov	ecx, DWORD PTR _passdesc$144943[ebp]
	mov	BYTE PTR [ecx+17], 0
$LN1@cacheTechn:

; 453  : 					}
; 454  : 				}

	jmp	$LN6@cacheTechn
$LN5@cacheTechn:

; 455  : 
; 456  : 				m_TechDesc.push_back(ptech);

	lea	edx, DWORD PTR _ptech$144930[ebp]
	push	edx
	mov	ecx, DWORD PTR _this$[ebp]
	add	ecx, 316				; 0000013cH
	call	?push_back@?$vector@PAUTechniqueDesc@Ogre@@V?$allocator@PAUTechniqueDesc@Ogre@@@std@@@std@@QAEXABQAUTechniqueDesc@Ogre@@@Z ; std::vector<Ogre::TechniqueDesc *,std::allocator<Ogre::TechniqueDesc *> >::push_back
	jmp	$LN13@cacheTechn
$LN16@cacheTechn:

; 457  : 			}
; 458  : 		}
; 459  : 	}

	mov	ecx, DWORD PTR __$EHRec$[ebp]
	mov	DWORD PTR fs:0, ecx
	pop	ecx
	mov	esp, ebp
	pop	ebp
	ret	0
_TEXT	ENDS
text$x	SEGMENT
__unwindfunclet$?cacheTechnique@CompiledShader@Ogre@@QAEXXZ$0:
	mov	eax, DWORD PTR $T157805[ebp]
	push	eax
	call	??3@YAXPAX@Z				; operator delete
	pop	ecx
	ret	0
__ehhandler$?cacheTechnique@CompiledShader@Ogre@@QAEXXZ:
	mov	edx, DWORD PTR [esp+8]
	lea	eax, DWORD PTR [edx+12]
	mov	ecx, DWORD PTR [edx-64]
	xor	ecx, eax
	call	@__security_check_cookie@4
	mov	eax, OFFSET __ehfuncinfo$?cacheTechnique@CompiledShader@Ogre@@QAEXXZ
	jmp	___CxxFrameHandler3
text$x	ENDS
?cacheTechnique@CompiledShader@Ogre@@QAEXXZ ENDP	; Ogre::CompiledShader::cacheTechnique
; Function compile flags: /Odtp
_TEXT	SEGMENT
_i$ = -8						; size = 4
_h$ = -4						; size = 4
_peffect$ = 8						; size = 4
_htech$ = 12						; size = 4
_pname$ = 16						; size = 4
?GetTechniqueAnnotation@Ogre@@YAHPAUID3DXEffect@@PBD1@Z PROC ; Ogre::GetTechniqueAnnotation

; 382  : 	{

	push	ebp
	mov	ebp, esp
	sub	esp, 8

; 383  : 		D3DXHANDLE h = peffect->GetAnnotationByName(htech, pname);

	mov	eax, DWORD PTR _pname$[ebp]
	push	eax
	mov	ecx, DWORD PTR _htech$[ebp]
	push	ecx
	mov	edx, DWORD PTR _peffect$[ebp]
	mov	eax, DWORD PTR [edx]
	mov	ecx, DWORD PTR _peffect$[ebp]
	push	ecx
	mov	edx, DWORD PTR [eax+76]
	call	edx
	mov	DWORD PTR _h$[ebp], eax

; 384  : 		if(h == NULL) return 0;

	cmp	DWORD PTR _h$[ebp], 0
	jne	SHORT $LN3@GetTechniq
	xor	eax, eax
	jmp	SHORT $LN4@GetTechniq
$LN3@GetTechniq:

; 385  : 
; 386  : 		int i;
; 387  : 		if(SUCCEEDED(peffect->GetInt(h, &i))) return i;

	lea	eax, DWORD PTR _i$[ebp]
	push	eax
	mov	ecx, DWORD PTR _h$[ebp]
	push	ecx
	mov	edx, DWORD PTR _peffect$[ebp]
	mov	eax, DWORD PTR [edx]
	mov	ecx, DWORD PTR _peffect$[ebp]
	push	ecx
	mov	edx, DWORD PTR [eax+108]
	call	edx
	test	eax, eax
	jl	SHORT $LN2@GetTechniq
	mov	eax, DWORD PTR _i$[ebp]
	jmp	SHORT $LN4@GetTechniq
	jmp	SHORT $LN4@GetTechniq
$LN2@GetTechniq:

; 388  : 		else return 0;

	xor	eax, eax
$LN4@GetTechniq:

; 389  : 	}

	mov	esp, ebp
	pop	ebp
	ret	0
?GetTechniqueAnnotation@Ogre@@YAHPAUID3DXEffect@@PBD1@Z ENDP ; Ogre::GetTechniqueAnnotation
; Function compile flags: /Odtp
_pstr$ = -8						; size = 4
_h$ = -4						; size = 4
_peffect$ = 8						; size = 4
_htech$ = 12						; size = 4
_pname$ = 16						; size = 4
?GetAnnotationStr@Ogre@@YAPBDPAUID3DXEffect@@PBD1@Z PROC ; Ogre::GetAnnotationStr

; 392  : 	{

	push	ebp
	mov	ebp, esp
	sub	esp, 8

; 393  : 		D3DXHANDLE h = peffect->GetAnnotationByName(htech, pname);

	mov	eax, DWORD PTR _pname$[ebp]
	push	eax
	mov	ecx, DWORD PTR _htech$[ebp]
	push	ecx
	mov	edx, DWORD PTR _peffect$[ebp]
	mov	eax, DWORD PTR [edx]
	mov	ecx, DWORD PTR _peffect$[ebp]
	push	ecx
	mov	edx, DWORD PTR [eax+76]
	call	edx
	mov	DWORD PTR _h$[ebp], eax

; 394  : 		if(h == NULL) return NULL;

	cmp	DWORD PTR _h$[ebp], 0
	jne	SHORT $LN3@GetAnnotat
	xor	eax, eax
	jmp	SHORT $LN4@GetAnnotat
$LN3@GetAnnotat:

; 395  : 
; 396  : 		const char *pstr = NULL;

	mov	DWORD PTR _pstr$[ebp], 0

; 397  : 		if(SUCCEEDED(peffect->GetString(h, &pstr))) return pstr;

	lea	eax, DWORD PTR _pstr$[ebp]
	push	eax
	mov	ecx, DWORD PTR _h$[ebp]
	push	ecx
	mov	edx, DWORD PTR _peffect$[ebp]
	mov	eax, DWORD PTR [edx]
	mov	ecx, DWORD PTR _peffect$[ebp]
	push	ecx
	mov	edx, DWORD PTR [eax+204]
	call	edx
	test	eax, eax
	jl	SHORT $LN2@GetAnnotat
	mov	eax, DWORD PTR _pstr$[ebp]
	jmp	SHORT $LN4@GetAnnotat
	jmp	SHORT $LN4@GetAnnotat
$LN2@GetAnnotat:

; 398  : 		else return NULL;

	xor	eax, eax
$LN4@GetAnnotat:

; 399  : 	}

	mov	esp, ebp
	pop	ebp
	ret	0
?GetAnnotationStr@Ogre@@YAPBDPAUID3DXEffect@@PBD1@Z ENDP ; Ogre::GetAnnotationStr
_TEXT	ENDS
PUBLIC	??0?$vector@UPassDesc@Ogre@@V?$allocator@UPassDesc@Ogre@@@std@@@std@@QAE@XZ ; std::vector<Ogre::PassDesc,std::allocator<Ogre::PassDesc> >::vector<Ogre::PassDesc,std::allocator<Ogre::PassDesc> >
;	COMDAT xdata$x
xdata$x	SEGMENT
__unwindtable$??0TechniqueDesc@Ogre@@QAE@XZ DD 0ffffffffH
	DD	FLAT:__unwindfunclet$??0TechniqueDesc@Ogre@@QAE@XZ$0
__ehfuncinfo$??0TechniqueDesc@Ogre@@QAE@XZ DD 019930522H
	DD	01H
	DD	FLAT:__unwindtable$??0TechniqueDesc@Ogre@@QAE@XZ
	DD	2 DUP(00H)
	DD	2 DUP(00H)
	DD	00H
	DD	00H
; Function compile flags: /Odtp
xdata$x	ENDS
;	COMDAT ??0TechniqueDesc@Ogre@@QAE@XZ
_TEXT	SEGMENT
_this$ = -16						; size = 4
__$EHRec$ = -12						; size = 12
??0TechniqueDesc@Ogre@@QAE@XZ PROC			; Ogre::TechniqueDesc::TechniqueDesc, COMDAT
; _this$ = ecx
	push	ebp
	mov	ebp, esp
	push	-1
	push	__ehhandler$??0TechniqueDesc@Ogre@@QAE@XZ
	mov	eax, DWORD PTR fs:0
	push	eax
	push	ecx
	mov	eax, DWORD PTR ___security_cookie
	xor	eax, ebp
	push	eax
	lea	eax, DWORD PTR __$EHRec$[ebp]
	mov	DWORD PTR fs:0, eax
	mov	DWORD PTR _this$[ebp], ecx
	mov	ecx, DWORD PTR _this$[ebp]
	add	ecx, 12					; 0000000cH
	call	??0?$vector@UPassDesc@Ogre@@V?$allocator@UPassDesc@Ogre@@@std@@@std@@QAE@XZ ; std::vector<Ogre::PassDesc,std::allocator<Ogre::PassDesc> >::vector<Ogre::PassDesc,std::allocator<Ogre::PassDesc> >
	mov	DWORD PTR __$EHRec$[ebp+8], 0
	mov	DWORD PTR __$EHRec$[ebp+8], -1
	mov	eax, DWORD PTR _this$[ebp]
	mov	ecx, DWORD PTR __$EHRec$[ebp]
	mov	DWORD PTR fs:0, ecx
	pop	ecx
	mov	esp, ebp
	pop	ebp
	ret	0
_TEXT	ENDS
;	COMDAT text$x
text$x	SEGMENT
__unwindfunclet$??0TechniqueDesc@Ogre@@QAE@XZ$0:
	mov	ecx, DWORD PTR _this$[ebp]
	add	ecx, 12					; 0000000cH
	jmp	??1?$vector@UPassDesc@Ogre@@V?$allocator@UPassDesc@Ogre@@@std@@@std@@QAE@XZ ; std::vector<Ogre::PassDesc,std::allocator<Ogre::PassDesc> >::~vector<Ogre::PassDesc,std::allocator<Ogre::PassDesc> >
__ehhandler$??0TechniqueDesc@Ogre@@QAE@XZ:
	mov	edx, DWORD PTR [esp+8]
	lea	eax, DWORD PTR [edx+12]
	mov	ecx, DWORD PTR [edx-8]
	xor	ecx, eax
	call	@__security_check_cookie@4
	mov	eax, OFFSET __ehfuncinfo$??0TechniqueDesc@Ogre@@QAE@XZ
	jmp	___CxxFrameHandler3
text$x	ENDS
??0TechniqueDesc@Ogre@@QAE@XZ ENDP			; Ogre::TechniqueDesc::TechniqueDesc
PUBLIC	?paramUsage2Handle@CompiledShader@Ogre@@QAEPBDW4ShaderParamUsage@2@@Z ; Ogre::CompiledShader::paramUsage2Handle
; Function compile flags: /Odtp
_TEXT	SEGMENT
_this$ = -12						; size = 4
_i$144964 = -8						; size = 4
_h$ = -4						; size = 4
_usage$ = 8						; size = 4
?paramUsage2Handle@CompiledShader@Ogre@@QAEPBDW4ShaderParamUsage@2@@Z PROC ; Ogre::CompiledShader::paramUsage2Handle
; _this$ = ecx

; 462  : 	{

	push	ebp
	mov	ebp, esp
	sub	esp, 12					; 0000000cH
	mov	DWORD PTR _this$[ebp], ecx

; 463  : 		D3DXHANDLE h;
; 464  : 		if(usage < SPU_ENV_PARAM_END) h = m_EnvHandles[usage];

	cmp	DWORD PTR _usage$[ebp], 48		; 00000030H
	jge	SHORT $LN2@paramUsage
	mov	eax, DWORD PTR _usage$[ebp]
	mov	ecx, DWORD PTR _this$[ebp]
	mov	edx, DWORD PTR [ecx+eax*4+60]
	mov	DWORD PTR _h$[ebp], edx

; 465  : 		else

	jmp	SHORT $LN1@paramUsage
$LN2@paramUsage:

; 466  : 		{
; 467  : 			size_t i = usage - SPU_GENERAL_PARAM;

	mov	eax, DWORD PTR _usage$[ebp]
	sub	eax, 1000				; 000003e8H
	mov	DWORD PTR _i$144964[ebp], eax

; 468  : 			assert(i<ARRAY_ELEMENTS(m_MtlHandles));
; 469  : 			h = m_MtlHandles[i];

	mov	ecx, DWORD PTR _i$144964[ebp]
	mov	edx, DWORD PTR _this$[ebp]
	mov	eax, DWORD PTR [edx+ecx*4+252]
	mov	DWORD PTR _h$[ebp], eax
$LN1@paramUsage:

; 470  : 		}
; 471  : 
; 472  : 		return h;

	mov	eax, DWORD PTR _h$[ebp]

; 473  : 	}

	mov	esp, ebp
	pop	ebp
	ret	4
?paramUsage2Handle@CompiledShader@Ogre@@QAEPBDW4ShaderParamUsage@2@@Z ENDP ; Ogre::CompiledShader::paramUsage2Handle
_TEXT	ENDS
PUBLIC	?onLostDevice@CompiledShader@Ogre@@QAEXXZ	; Ogre::CompiledShader::onLostDevice
; Function compile flags: /Odtp
_TEXT	SEGMENT
_this$ = -4						; size = 4
?onLostDevice@CompiledShader@Ogre@@QAEXXZ PROC		; Ogre::CompiledShader::onLostDevice
; _this$ = ecx

; 476  : 	{

	push	ebp
	mov	ebp, esp
	push	ecx
	mov	DWORD PTR _this$[ebp], ecx

; 477  : 		if(m_Type == COMPILED_EFFECT)

	mov	eax, DWORD PTR _this$[ebp]
	cmp	DWORD PTR [eax+4], 0
	jne	SHORT $LN7@onLostDevi

; 478  : 		{
; 479  : 			if (m_pEffect)

	mov	ecx, DWORD PTR _this$[ebp]
	cmp	DWORD PTR [ecx+44], 0
	je	SHORT $LN6@onLostDevi

; 480  : 				m_pEffect->OnLostDevice();

	mov	edx, DWORD PTR _this$[ebp]
	mov	eax, DWORD PTR [edx+44]
	mov	ecx, DWORD PTR _this$[ebp]
	mov	edx, DWORD PTR [ecx+44]
	mov	eax, DWORD PTR [eax]
	push	edx
	mov	ecx, DWORD PTR [eax+276]
	call	ecx
$LN6@onLostDevi:

; 481  : 		}

	jmp	SHORT $LN8@onLostDevi
$LN7@onLostDevi:

; 482  : 		else if(m_Type == COMPILED_VS)

	mov	edx, DWORD PTR _this$[ebp]
	cmp	DWORD PTR [edx+4], 1
	jne	SHORT $LN4@onLostDevi

; 483  : 		{
; 484  : 			m_bCreated = false;

	mov	eax, DWORD PTR _this$[ebp]
	mov	BYTE PTR [eax+364], 0

; 485  : 			SAFE_RELEASE(m_pVS);

	mov	ecx, DWORD PTR _this$[ebp]
	cmp	DWORD PTR [ecx+48], 0
	je	SHORT $LN3@onLostDevi
	mov	edx, DWORD PTR _this$[ebp]
	mov	eax, DWORD PTR [edx+48]
	mov	ecx, DWORD PTR _this$[ebp]
	mov	edx, DWORD PTR [ecx+48]
	mov	eax, DWORD PTR [eax]
	push	edx
	mov	ecx, DWORD PTR [eax+8]
	call	ecx
	mov	edx, DWORD PTR _this$[ebp]
	mov	DWORD PTR [edx+48], 0
$LN3@onLostDevi:

; 486  : 		}
; 487  : 		else

	jmp	SHORT $LN8@onLostDevi
$LN4@onLostDevi:

; 488  : 		{
; 489  : 			m_bCreated = false;

	mov	eax, DWORD PTR _this$[ebp]
	mov	BYTE PTR [eax+364], 0

; 490  : 			SAFE_RELEASE(m_pPS);

	mov	ecx, DWORD PTR _this$[ebp]
	cmp	DWORD PTR [ecx+52], 0
	je	SHORT $LN8@onLostDevi
	mov	edx, DWORD PTR _this$[ebp]
	mov	eax, DWORD PTR [edx+52]
	mov	ecx, DWORD PTR _this$[ebp]
	mov	edx, DWORD PTR [ecx+52]
	mov	eax, DWORD PTR [eax]
	push	edx
	mov	ecx, DWORD PTR [eax+8]
	call	ecx
	mov	edx, DWORD PTR _this$[ebp]
	mov	DWORD PTR [edx+52], 0
$LN8@onLostDevi:

; 491  : 		}
; 492  : 	}

	mov	esp, ebp
	pop	ebp
	ret	0
?onLostDevice@CompiledShader@Ogre@@QAEXXZ ENDP		; Ogre::CompiledShader::onLostDevice
_TEXT	ENDS
PUBLIC	??A?$vector@DV?$allocator@D@std@@@std@@QAEAADI@Z ; std::vector<char,std::allocator<char> >::operator[]
PUBLIC	?size@?$vector@DV?$allocator@D@std@@@std@@QBEIXZ ; std::vector<char,std::allocator<char> >::size
PUBLIC	?onResetDevice@CompiledShader@Ogre@@QAE_NXZ	; Ogre::CompiledShader::onResetDevice
EXTRN	??_V@YAXPAX@Z:PROC				; operator delete[]
EXTRN	_D3DXGetShaderConstantTable@8:PROC
EXTRN	?createPixelShader@D3D9RenderSystem@Ogre@@QAEPAUIDirect3DPixelShader9@@PAXI@Z:PROC ; Ogre::D3D9RenderSystem::createPixelShader
EXTRN	?createVertexShader@D3D9RenderSystem@Ogre@@QAEPAUIDirect3DVertexShader9@@PAXI@Z:PROC ; Ogre::D3D9RenderSystem::createVertexShader
EXTRN	_memcpy:PROC
EXTRN	??_U@YAPAXI@Z:PROC				; operator new[]
; Function compile flags: /Odtp
_TEXT	SEGMENT
_this$ = -28						; size = 4
$T157828 = -24						; size = 4
$T157827 = -20						; size = 4
_buffer$ = -16						; size = 4
_bufferSize$ = -8					; size = 4
_prs$ = -4						; size = 4
?onResetDevice@CompiledShader@Ogre@@QAE_NXZ PROC	; Ogre::CompiledShader::onResetDevice
; _this$ = ecx

; 495  : 	{

	push	ebp
	mov	ebp, esp
	sub	esp, 28					; 0000001cH
	mov	DWORD PTR _this$[ebp], ecx

; 496  : 		D3D9RenderSystem *prs = static_cast<D3D9RenderSystem *>(RenderSystem::getSingletonPtr());

	call	DWORD PTR __imp_?getSingletonPtr@?$Singleton@VRenderSystem@Ogre@@@Ogre@@SAPAVRenderSystem@2@XZ
	mov	DWORD PTR _prs$[ebp], eax

; 497  : 
; 498  : 		HRESULT hr;
; 499  : 
; 500  : 		UINT bufferSize = m_CompiledBuf.size();

	mov	ecx, DWORD PTR _this$[ebp]
	add	ecx, 16					; 00000010H
	call	?size@?$vector@DV?$allocator@D@std@@@std@@QBEIXZ ; std::vector<char,std::allocator<char> >::size
	mov	DWORD PTR _bufferSize$[ebp], eax

; 501  : 		char *buffer = new char[bufferSize];

	mov	eax, DWORD PTR _bufferSize$[ebp]
	push	eax
	call	??_U@YAPAXI@Z				; operator new[]
	add	esp, 4
	mov	DWORD PTR $T157827[ebp], eax
	mov	ecx, DWORD PTR $T157827[ebp]
	mov	DWORD PTR _buffer$[ebp], ecx

; 502  : 		memcpy(buffer, &m_CompiledBuf[0], bufferSize*sizeof(char));

	mov	edx, DWORD PTR _bufferSize$[ebp]
	push	edx
	push	0
	mov	ecx, DWORD PTR _this$[ebp]
	add	ecx, 16					; 00000010H
	call	??A?$vector@DV?$allocator@D@std@@@std@@QAEAADI@Z ; std::vector<char,std::allocator<char> >::operator[]
	push	eax
	mov	eax, DWORD PTR _buffer$[ebp]
	push	eax
	call	_memcpy
	add	esp, 12					; 0000000cH

; 503  : 
; 504  : 		if (m_Type == COMPILED_EFFECT)

	mov	ecx, DWORD PTR _this$[ebp]
	cmp	DWORD PTR [ecx+4], 0
	jne	SHORT $LN7@onResetDev

; 505  : 		{
; 506  : 			if (m_pEffect)

	mov	edx, DWORD PTR _this$[ebp]
	cmp	DWORD PTR [edx+44], 0
	je	SHORT $LN6@onResetDev

; 507  : 				return SUCCEEDED(m_pEffect->OnResetDevice());

	mov	eax, DWORD PTR _this$[ebp]
	mov	ecx, DWORD PTR [eax+44]
	mov	edx, DWORD PTR _this$[ebp]
	mov	eax, DWORD PTR [edx+44]
	mov	ecx, DWORD PTR [ecx]
	push	eax
	mov	edx, DWORD PTR [ecx+280]
	call	edx
	xor	ecx, ecx
	test	eax, eax
	setge	cl
	mov	al, cl
	jmp	$LN8@onResetDev
$LN6@onResetDev:

; 508  : 		}

	jmp	SHORT $LN5@onResetDev
$LN7@onResetDev:

; 509  : 		else if (m_Type == COMPILED_VS)

	mov	edx, DWORD PTR _this$[ebp]
	cmp	DWORD PTR [edx+4], 1
	jne	SHORT $LN4@onResetDev

; 510  : 		{
; 511  : 			m_bCreated = true;

	mov	eax, DWORD PTR _this$[ebp]
	mov	BYTE PTR [eax+364], 1

; 512  : 			m_pVS = prs->createVertexShader(buffer, bufferSize);

	mov	ecx, DWORD PTR _bufferSize$[ebp]
	push	ecx
	mov	edx, DWORD PTR _buffer$[ebp]
	push	edx
	mov	ecx, DWORD PTR _prs$[ebp]
	call	?createVertexShader@D3D9RenderSystem@Ogre@@QAEPAUIDirect3DVertexShader9@@PAXI@Z ; Ogre::D3D9RenderSystem::createVertexShader
	mov	ecx, DWORD PTR _this$[ebp]
	mov	DWORD PTR [ecx+48], eax

; 513  : 		}
; 514  : 		else

	jmp	SHORT $LN5@onResetDev
$LN4@onResetDev:

; 515  : 		{
; 516  : 			m_bCreated = true;

	mov	edx, DWORD PTR _this$[ebp]
	mov	BYTE PTR [edx+364], 1

; 517  : 			m_pPS = prs->createPixelShader(buffer, bufferSize);

	mov	eax, DWORD PTR _bufferSize$[ebp]
	push	eax
	mov	ecx, DWORD PTR _buffer$[ebp]
	push	ecx
	mov	ecx, DWORD PTR _prs$[ebp]
	call	?createPixelShader@D3D9RenderSystem@Ogre@@QAEPAUIDirect3DPixelShader9@@PAXI@Z ; Ogre::D3D9RenderSystem::createPixelShader
	mov	edx, DWORD PTR _this$[ebp]
	mov	DWORD PTR [edx+52], eax
$LN5@onResetDev:

; 518  : 		}
; 519  : 
; 520  : 		if (m_pVS || m_pPS)

	mov	eax, DWORD PTR _this$[ebp]
	cmp	DWORD PTR [eax+48], 0
	jne	SHORT $LN1@onResetDev
	mov	ecx, DWORD PTR _this$[ebp]
	cmp	DWORD PTR [ecx+52], 0
	je	SHORT $LN2@onResetDev
$LN1@onResetDev:

; 521  : 		{
; 522  : 			D3DXGetShaderConstantTable((const DWORD *)buffer, &m_pConst);

	mov	edx, DWORD PTR _this$[ebp]
	add	edx, 56					; 00000038H
	push	edx
	mov	eax, DWORD PTR _buffer$[ebp]
	push	eax
	call	_D3DXGetShaderConstantTable@8
$LN2@onResetDev:

; 523  : 			assert(m_pConst);
; 524  : 		}
; 525  : 
; 526  : 		delete [] buffer;

	mov	ecx, DWORD PTR _buffer$[ebp]
	mov	DWORD PTR $T157828[ebp], ecx
	mov	edx, DWORD PTR $T157828[ebp]
	push	edx
	call	??_V@YAXPAX@Z				; operator delete[]
	add	esp, 4

; 527  : 
; 528  : 		cacheTechnique();

	mov	ecx, DWORD PTR _this$[ebp]
	call	?cacheTechnique@CompiledShader@Ogre@@QAEXXZ ; Ogre::CompiledShader::cacheTechnique

; 529  : 		cacheParamHandle();

	mov	ecx, DWORD PTR _this$[ebp]
	call	?cacheParamHandle@CompiledShader@Ogre@@QAEXXZ ; Ogre::CompiledShader::cacheParamHandle

; 530  : 
; 531  : 		return true;

	mov	al, 1
$LN8@onResetDev:

; 532  : 	}

	mov	esp, ebp
	pop	ebp
	ret	0
?onResetDevice@CompiledShader@Ogre@@QAE_NXZ ENDP	; Ogre::CompiledShader::onResetDevice
_TEXT	ENDS
PUBLIC	?create@CompiledShader@Ogre@@QAE_NXZ		; Ogre::CompiledShader::create
EXTRN	?createD3DXEffect@D3D9RenderSystem@Ogre@@QAEPAUID3DXEffect@@PAXI@Z:PROC ; Ogre::D3D9RenderSystem::createD3DXEffect
EXTRN	__imp__timeGetTime@0:PROC
; Function compile flags: /Odtp
_TEXT	SEGMENT
_this$ = -40						; size = 4
$T157831 = -36						; size = 4
$T157830 = -32						; size = 4
_buffer$ = -28						; size = 4
_tickParam$ = -24					; size = 4
_bufferSize$ = -20					; size = 4
_tick$ = -16						; size = 4
_tickCacheTechnique$ = -12				; size = 4
_prs$ = -8						; size = 4
_tickCacheParamHandleTime$ = -4				; size = 4
?create@CompiledShader@Ogre@@QAE_NXZ PROC		; Ogre::CompiledShader::create
; _this$ = ecx

; 535  : 	{

	push	ebp
	mov	ebp, esp
	sub	esp, 40					; 00000028H
	mov	DWORD PTR _this$[ebp], ecx

; 536  : 		if (m_bCreated)

	mov	eax, DWORD PTR _this$[ebp]
	movzx	ecx, BYTE PTR [eax+364]
	test	ecx, ecx
	je	SHORT $LN7@create

; 537  : 			return false;

	xor	al, al
	jmp	$LN8@create
$LN7@create:

; 538  : 
; 539  : 		D3D9RenderSystem *prs = static_cast<D3D9RenderSystem *>(RenderSystem::getSingletonPtr());

	call	DWORD PTR __imp_?getSingletonPtr@?$Singleton@VRenderSystem@Ogre@@@Ogre@@SAPAVRenderSystem@2@XZ
	mov	DWORD PTR _prs$[ebp], eax

; 540  : 
; 541  : 		UINT bufferSize = m_CompiledBuf.size();

	mov	ecx, DWORD PTR _this$[ebp]
	add	ecx, 16					; 00000010H
	call	?size@?$vector@DV?$allocator@D@std@@@std@@QBEIXZ ; std::vector<char,std::allocator<char> >::size
	mov	DWORD PTR _bufferSize$[ebp], eax

; 542  : 		char *buffer = new char[bufferSize];

	mov	edx, DWORD PTR _bufferSize$[ebp]
	push	edx
	call	??_U@YAPAXI@Z				; operator new[]
	add	esp, 4
	mov	DWORD PTR $T157830[ebp], eax
	mov	eax, DWORD PTR $T157830[ebp]
	mov	DWORD PTR _buffer$[ebp], eax

; 543  : 		memcpy(buffer, &m_CompiledBuf[0], bufferSize*sizeof(char));

	mov	ecx, DWORD PTR _bufferSize$[ebp]
	push	ecx
	push	0
	mov	ecx, DWORD PTR _this$[ebp]
	add	ecx, 16					; 00000010H
	call	??A?$vector@DV?$allocator@D@std@@@std@@QAEAADI@Z ; std::vector<char,std::allocator<char> >::operator[]
	push	eax
	mov	edx, DWORD PTR _buffer$[ebp]
	push	edx
	call	_memcpy
	add	esp, 12					; 0000000cH

; 544  : 
; 545  : 		uint tick = timeGetTime();

	call	DWORD PTR __imp__timeGetTime@0
	mov	DWORD PTR _tick$[ebp], eax

; 546  : 		if (m_Type == COMPILED_EFFECT)

	mov	eax, DWORD PTR _this$[ebp]
	cmp	DWORD PTR [eax+4], 0
	jne	SHORT $LN6@create

; 547  : 		{			
; 548  : 			m_pEffect = prs->createD3DXEffect(buffer, bufferSize);

	mov	ecx, DWORD PTR _bufferSize$[ebp]
	push	ecx
	mov	edx, DWORD PTR _buffer$[ebp]
	push	edx
	mov	ecx, DWORD PTR _prs$[ebp]
	call	?createD3DXEffect@D3D9RenderSystem@Ogre@@QAEPAUID3DXEffect@@PAXI@Z ; Ogre::D3D9RenderSystem::createD3DXEffect
	mov	ecx, DWORD PTR _this$[ebp]
	mov	DWORD PTR [ecx+44], eax

; 549  : 			ms_EffectCompileTime += timeGetTime() - tick;

	call	DWORD PTR __imp__timeGetTime@0
	sub	eax, DWORD PTR _tick$[ebp]
	add	eax, DWORD PTR ?ms_EffectCompileTime@CompiledShader@Ogre@@2HA ; Ogre::CompiledShader::ms_EffectCompileTime
	mov	DWORD PTR ?ms_EffectCompileTime@CompiledShader@Ogre@@2HA, eax ; Ogre::CompiledShader::ms_EffectCompileTime
	jmp	SHORT $LN5@create
$LN6@create:

; 550  : 		}
; 551  : 		else if (m_Type == COMPILED_VS)

	mov	edx, DWORD PTR _this$[ebp]
	cmp	DWORD PTR [edx+4], 1
	jne	SHORT $LN4@create

; 552  : 		{
; 553  : 			m_pVS = prs->createVertexShader(buffer, bufferSize);

	mov	eax, DWORD PTR _bufferSize$[ebp]
	push	eax
	mov	ecx, DWORD PTR _buffer$[ebp]
	push	ecx
	mov	ecx, DWORD PTR _prs$[ebp]
	call	?createVertexShader@D3D9RenderSystem@Ogre@@QAEPAUIDirect3DVertexShader9@@PAXI@Z ; Ogre::D3D9RenderSystem::createVertexShader
	mov	edx, DWORD PTR _this$[ebp]
	mov	DWORD PTR [edx+48], eax

; 554  : 			ms_VSCompileTime += timeGetTime() - tick;

	call	DWORD PTR __imp__timeGetTime@0
	sub	eax, DWORD PTR _tick$[ebp]
	add	eax, DWORD PTR ?ms_VSCompileTime@CompiledShader@Ogre@@2HA ; Ogre::CompiledShader::ms_VSCompileTime
	mov	DWORD PTR ?ms_VSCompileTime@CompiledShader@Ogre@@2HA, eax ; Ogre::CompiledShader::ms_VSCompileTime

; 555  : 		}
; 556  : 		else

	jmp	SHORT $LN5@create
$LN4@create:

; 557  : 		{
; 558  : 			m_pPS = prs->createPixelShader(buffer, bufferSize);

	mov	eax, DWORD PTR _bufferSize$[ebp]
	push	eax
	mov	ecx, DWORD PTR _buffer$[ebp]
	push	ecx
	mov	ecx, DWORD PTR _prs$[ebp]
	call	?createPixelShader@D3D9RenderSystem@Ogre@@QAEPAUIDirect3DPixelShader9@@PAXI@Z ; Ogre::D3D9RenderSystem::createPixelShader
	mov	edx, DWORD PTR _this$[ebp]
	mov	DWORD PTR [edx+52], eax

; 559  : 			ms_PSCompileTime += timeGetTime() - tick;

	call	DWORD PTR __imp__timeGetTime@0
	sub	eax, DWORD PTR _tick$[ebp]
	add	eax, DWORD PTR ?ms_PSCompileTime@CompiledShader@Ogre@@2HA ; Ogre::CompiledShader::ms_PSCompileTime
	mov	DWORD PTR ?ms_PSCompileTime@CompiledShader@Ogre@@2HA, eax ; Ogre::CompiledShader::ms_PSCompileTime
$LN5@create:

; 560  : 		}
; 561  : 
; 562  : 		assert(m_pEffect || m_pVS || m_pPS);
; 563  : 
; 564  : 		uint tickParam = timeGetTime();

	call	DWORD PTR __imp__timeGetTime@0
	mov	DWORD PTR _tickParam$[ebp], eax

; 565  : 
; 566  : 		if (m_pVS || m_pPS)

	mov	eax, DWORD PTR _this$[ebp]
	cmp	DWORD PTR [eax+48], 0
	jne	SHORT $LN1@create
	mov	ecx, DWORD PTR _this$[ebp]
	cmp	DWORD PTR [ecx+52], 0
	je	SHORT $LN2@create
$LN1@create:

; 567  : 		{
; 568  : 			D3DXGetShaderConstantTable((const DWORD *)buffer, &m_pConst);

	mov	edx, DWORD PTR _this$[ebp]
	add	edx, 56					; 00000038H
	push	edx
	mov	eax, DWORD PTR _buffer$[ebp]
	push	eax
	call	_D3DXGetShaderConstantTable@8
$LN2@create:

; 569  : 			assert(m_pConst);
; 570  : 		}
; 571  : 		
; 572  : 		delete [] buffer;

	mov	ecx, DWORD PTR _buffer$[ebp]
	mov	DWORD PTR $T157831[ebp], ecx
	mov	edx, DWORD PTR $T157831[ebp]
	push	edx
	call	??_V@YAXPAX@Z				; operator delete[]
	add	esp, 4

; 573  : 
; 574  : 		uint tickCacheTechnique = timeGetTime();

	call	DWORD PTR __imp__timeGetTime@0
	mov	DWORD PTR _tickCacheTechnique$[ebp], eax

; 575  : 		cacheTechnique();

	mov	ecx, DWORD PTR _this$[ebp]
	call	?cacheTechnique@CompiledShader@Ogre@@QAEXXZ ; Ogre::CompiledShader::cacheTechnique

; 576  : 		ms_CacheTechniqueTime += timeGetTime() - tickCacheTechnique;

	call	DWORD PTR __imp__timeGetTime@0
	sub	eax, DWORD PTR _tickCacheTechnique$[ebp]
	add	eax, DWORD PTR ?ms_CacheTechniqueTime@CompiledShader@Ogre@@2HA ; Ogre::CompiledShader::ms_CacheTechniqueTime
	mov	DWORD PTR ?ms_CacheTechniqueTime@CompiledShader@Ogre@@2HA, eax ; Ogre::CompiledShader::ms_CacheTechniqueTime

; 577  : 
; 578  : 		uint tickCacheParamHandleTime = timeGetTime();

	call	DWORD PTR __imp__timeGetTime@0
	mov	DWORD PTR _tickCacheParamHandleTime$[ebp], eax

; 579  : 		cacheParamHandle();

	mov	ecx, DWORD PTR _this$[ebp]
	call	?cacheParamHandle@CompiledShader@Ogre@@QAEXXZ ; Ogre::CompiledShader::cacheParamHandle

; 580  : 		ms_CacheParamHandleTime += timeGetTime() - tickCacheParamHandleTime;

	call	DWORD PTR __imp__timeGetTime@0
	sub	eax, DWORD PTR _tickCacheParamHandleTime$[ebp]
	add	eax, DWORD PTR ?ms_CacheParamHandleTime@CompiledShader@Ogre@@2HA ; Ogre::CompiledShader::ms_CacheParamHandleTime
	mov	DWORD PTR ?ms_CacheParamHandleTime@CompiledShader@Ogre@@2HA, eax ; Ogre::CompiledShader::ms_CacheParamHandleTime

; 581  : 
; 582  : 		m_bCreated = true;

	mov	eax, DWORD PTR _this$[ebp]
	mov	BYTE PTR [eax+364], 1

; 583  : 
; 584  : 		ms_ProcessParamsTime += timeGetTime() - tickParam;

	call	DWORD PTR __imp__timeGetTime@0
	sub	eax, DWORD PTR _tickParam$[ebp]
	add	eax, DWORD PTR ?ms_ProcessParamsTime@CompiledShader@Ogre@@2HA ; Ogre::CompiledShader::ms_ProcessParamsTime
	mov	DWORD PTR ?ms_ProcessParamsTime@CompiledShader@Ogre@@2HA, eax ; Ogre::CompiledShader::ms_ProcessParamsTime

; 585  : 
; 586  : 		return true;

	mov	al, 1
$LN8@create:

; 587  : 	}

	mov	esp, ebp
	pop	ebp
	ret	0
?create@CompiledShader@Ogre@@QAE_NXZ ENDP		; Ogre::CompiledShader::create
_TEXT	ENDS
PUBLIC	??1?$map@TShaderEnvKey@Ogre@@PAVCompiledShader@2@U?$less@TShaderEnvKey@Ogre@@@std@@V?$allocator@U?$pair@$$CBTShaderEnvKey@Ogre@@PAVCompiledShader@2@@std@@@5@@std@@QAE@XZ ; std::map<Ogre::ShaderEnvKey,Ogre::CompiledShader *,std::less<Ogre::ShaderEnvKey>,std::allocator<std::pair<Ogre::ShaderEnvKey const ,Ogre::CompiledShader *> > >::~map<Ogre::ShaderEnvKey,Ogre::CompiledShader *,std::less<Ogre::ShaderEnvKey>,std::allocator<std::pair<Ogre::ShaderEnvKey const ,Ogre::CompiledShader *> > >
PUBLIC	??1?$vector@PAVCompiledShader@Ogre@@V?$allocator@PAVCompiledShader@Ogre@@@std@@@std@@QAE@XZ ; std::vector<Ogre::CompiledShader *,std::allocator<Ogre::CompiledShader *> >::~vector<Ogre::CompiledShader *,std::allocator<Ogre::CompiledShader *> >
PUBLIC	??0?$map@TShaderEnvKey@Ogre@@PAVCompiledShader@2@U?$less@TShaderEnvKey@Ogre@@@std@@V?$allocator@U?$pair@$$CBTShaderEnvKey@Ogre@@PAVCompiledShader@2@@std@@@5@@std@@QAE@XZ ; std::map<Ogre::ShaderEnvKey,Ogre::CompiledShader *,std::less<Ogre::ShaderEnvKey>,std::allocator<std::pair<Ogre::ShaderEnvKey const ,Ogre::CompiledShader *> > >::map<Ogre::ShaderEnvKey,Ogre::CompiledShader *,std::less<Ogre::ShaderEnvKey>,std::allocator<std::pair<Ogre::ShaderEnvKey const ,Ogre::CompiledShader *> > >
PUBLIC	??0?$vector@PAVCompiledShader@Ogre@@V?$allocator@PAVCompiledShader@Ogre@@@std@@@std@@QAE@XZ ; std::vector<Ogre::CompiledShader *,std::allocator<Ogre::CompiledShader *> >::vector<Ogre::CompiledShader *,std::allocator<Ogre::CompiledShader *> >
PUBLIC	??0CompiledShaderGroup@Ogre@@QAE@W4COMPILED_TYPE@1@PAVD3DMaterialTemplate@1@ABVFixedString@1@@Z ; Ogre::CompiledShaderGroup::CompiledShaderGroup
EXTRN	__imp_??1FixedString@Ogre@@QAE@XZ:PROC
EXTRN	__imp_??0FixedString@Ogre@@QAE@ABV01@@Z:PROC
xdata$x	SEGMENT
__unwindtable$??0CompiledShaderGroup@Ogre@@QAE@W4COMPILED_TYPE@1@PAVD3DMaterialTemplate@1@ABVFixedString@1@@Z DD 0ffffffffH
	DD	FLAT:__unwindfunclet$??0CompiledShaderGroup@Ogre@@QAE@W4COMPILED_TYPE@1@PAVD3DMaterialTemplate@1@ABVFixedString@1@@Z$0
	DD	00H
	DD	FLAT:__unwindfunclet$??0CompiledShaderGroup@Ogre@@QAE@W4COMPILED_TYPE@1@PAVD3DMaterialTemplate@1@ABVFixedString@1@@Z$1
	DD	01H
	DD	FLAT:__unwindfunclet$??0CompiledShaderGroup@Ogre@@QAE@W4COMPILED_TYPE@1@PAVD3DMaterialTemplate@1@ABVFixedString@1@@Z$2
__ehfuncinfo$??0CompiledShaderGroup@Ogre@@QAE@W4COMPILED_TYPE@1@PAVD3DMaterialTemplate@1@ABVFixedString@1@@Z DD 019930522H
	DD	03H
	DD	FLAT:__unwindtable$??0CompiledShaderGroup@Ogre@@QAE@W4COMPILED_TYPE@1@PAVD3DMaterialTemplate@1@ABVFixedString@1@@Z
	DD	2 DUP(00H)
	DD	2 DUP(00H)
	DD	00H
	DD	00H
; Function compile flags: /Odtp
xdata$x	ENDS
_TEXT	SEGMENT
_this$ = -16						; size = 4
__$EHRec$ = -12						; size = 12
_type$ = 8						; size = 4
_pmtltemplate$ = 12					; size = 4
_path$ = 16						; size = 4
??0CompiledShaderGroup@Ogre@@QAE@W4COMPILED_TYPE@1@PAVD3DMaterialTemplate@1@ABVFixedString@1@@Z PROC ; Ogre::CompiledShaderGroup::CompiledShaderGroup
; _this$ = ecx

; 590  : 	{

	push	ebp
	mov	ebp, esp
	push	-1
	push	__ehhandler$??0CompiledShaderGroup@Ogre@@QAE@W4COMPILED_TYPE@1@PAVD3DMaterialTemplate@1@ABVFixedString@1@@Z
	mov	eax, DWORD PTR fs:0
	push	eax
	push	ecx
	mov	eax, DWORD PTR ___security_cookie
	xor	eax, ebp
	push	eax
	lea	eax, DWORD PTR __$EHRec$[ebp]
	mov	DWORD PTR fs:0, eax
	mov	DWORD PTR _this$[ebp], ecx
	mov	eax, DWORD PTR _this$[ebp]
	mov	ecx, DWORD PTR _type$[ebp]
	mov	DWORD PTR [eax], ecx
	mov	edx, DWORD PTR _this$[ebp]
	mov	eax, DWORD PTR _pmtltemplate$[ebp]
	mov	DWORD PTR [edx+4], eax
	mov	ecx, DWORD PTR _path$[ebp]
	push	ecx
	mov	ecx, DWORD PTR _this$[ebp]
	add	ecx, 8
	call	DWORD PTR __imp_??0FixedString@Ogre@@QAE@ABV01@@Z
	mov	DWORD PTR __$EHRec$[ebp+8], 0
	mov	ecx, DWORD PTR _this$[ebp]
	add	ecx, 12					; 0000000cH
	call	??0?$vector@PAVCompiledShader@Ogre@@V?$allocator@PAVCompiledShader@Ogre@@@std@@@std@@QAE@XZ ; std::vector<Ogre::CompiledShader *,std::allocator<Ogre::CompiledShader *> >::vector<Ogre::CompiledShader *,std::allocator<Ogre::CompiledShader *> >
	mov	BYTE PTR __$EHRec$[ebp+8], 1
	mov	ecx, DWORD PTR _this$[ebp]
	add	ecx, 36					; 00000024H
	call	??0?$map@TShaderEnvKey@Ogre@@PAVCompiledShader@2@U?$less@TShaderEnvKey@Ogre@@@std@@V?$allocator@U?$pair@$$CBTShaderEnvKey@Ogre@@PAVCompiledShader@2@@std@@@5@@std@@QAE@XZ ; std::map<Ogre::ShaderEnvKey,Ogre::CompiledShader *,std::less<Ogre::ShaderEnvKey>,std::allocator<std::pair<Ogre::ShaderEnvKey const ,Ogre::CompiledShader *> > >::map<Ogre::ShaderEnvKey,Ogre::CompiledShader *,std::less<Ogre::ShaderEnvKey>,std::allocator<std::pair<Ogre::ShaderEnvKey const ,Ogre::CompiledShader *> > >
	mov	BYTE PTR __$EHRec$[ebp+8], 2

; 591  : 		m_bCreatedAll = false;

	mov	edx, DWORD PTR _this$[ebp]
	mov	BYTE PTR [edx+68], 0

; 592  : 	}

	mov	DWORD PTR __$EHRec$[ebp+8], -1
	mov	eax, DWORD PTR _this$[ebp]
	mov	ecx, DWORD PTR __$EHRec$[ebp]
	mov	DWORD PTR fs:0, ecx
	pop	ecx
	mov	esp, ebp
	pop	ebp
	ret	12					; 0000000cH
_TEXT	ENDS
text$x	SEGMENT
__unwindfunclet$??0CompiledShaderGroup@Ogre@@QAE@W4COMPILED_TYPE@1@PAVD3DMaterialTemplate@1@ABVFixedString@1@@Z$0:
	mov	ecx, DWORD PTR _this$[ebp]
	add	ecx, 8
	jmp	DWORD PTR __imp_??1FixedString@Ogre@@QAE@XZ
__unwindfunclet$??0CompiledShaderGroup@Ogre@@QAE@W4COMPILED_TYPE@1@PAVD3DMaterialTemplate@1@ABVFixedString@1@@Z$1:
	mov	ecx, DWORD PTR _this$[ebp]
	add	ecx, 12					; 0000000cH
	jmp	??1?$vector@PAVCompiledShader@Ogre@@V?$allocator@PAVCompiledShader@Ogre@@@std@@@std@@QAE@XZ ; std::vector<Ogre::CompiledShader *,std::allocator<Ogre::CompiledShader *> >::~vector<Ogre::CompiledShader *,std::allocator<Ogre::CompiledShader *> >
__unwindfunclet$??0CompiledShaderGroup@Ogre@@QAE@W4COMPILED_TYPE@1@PAVD3DMaterialTemplate@1@ABVFixedString@1@@Z$2:
	mov	ecx, DWORD PTR _this$[ebp]
	add	ecx, 36					; 00000024H
	jmp	??1?$map@TShaderEnvKey@Ogre@@PAVCompiledShader@2@U?$less@TShaderEnvKey@Ogre@@@std@@V?$allocator@U?$pair@$$CBTShaderEnvKey@Ogre@@PAVCompiledShader@2@@std@@@5@@std@@QAE@XZ
__ehhandler$??0CompiledShaderGroup@Ogre@@QAE@W4COMPILED_TYPE@1@PAVD3DMaterialTemplate@1@ABVFixedString@1@@Z:
	mov	edx, DWORD PTR [esp+8]
	lea	eax, DWORD PTR [edx+12]
	mov	ecx, DWORD PTR [edx-8]
	xor	ecx, eax
	call	@__security_check_cookie@4
	mov	eax, OFFSET __ehfuncinfo$??0CompiledShaderGroup@Ogre@@QAE@W4COMPILED_TYPE@1@PAVD3DMaterialTemplate@1@ABVFixedString@1@@Z
	jmp	___CxxFrameHandler3
text$x	ENDS
??0CompiledShaderGroup@Ogre@@QAE@W4COMPILED_TYPE@1@PAVD3DMaterialTemplate@1@ABVFixedString@1@@Z ENDP ; Ogre::CompiledShaderGroup::CompiledShaderGroup
PUBLIC	??1?$_Tree@V?$_Tmap_traits@TShaderEnvKey@Ogre@@PAVCompiledShader@2@U?$less@TShaderEnvKey@Ogre@@@std@@V?$allocator@U?$pair@$$CBTShaderEnvKey@Ogre@@PAVCompiledShader@2@@std@@@5@$0A@@std@@@std@@QAE@XZ ; std::_Tree<std::_Tmap_traits<Ogre::ShaderEnvKey,Ogre::CompiledShader *,std::less<Ogre::ShaderEnvKey>,std::allocator<std::pair<Ogre::ShaderEnvKey const ,Ogre::CompiledShader *> >,0> >::~_Tree<std::_Tmap_traits<Ogre::ShaderEnvKey,Ogre::CompiledShader *,std::less<Ogre::ShaderEnvKey>,std::allocator<std::pair<Ogre::ShaderEnvKey const ,Ogre::CompiledShader *> >,0> >
;	COMDAT xdata$x
xdata$x	SEGMENT
__unwindtable$??1?$map@TShaderEnvKey@Ogre@@PAVCompiledShader@2@U?$less@TShaderEnvKey@Ogre@@@std@@V?$allocator@U?$pair@$$CBTShaderEnvKey@Ogre@@PAVCompiledShader@2@@std@@@5@@std@@QAE@XZ DD 0ffffffffH
	DD	FLAT:__unwindfunclet$??1?$map@TShaderEnvKey@Ogre@@PAVCompiledShader@2@U?$less@TShaderEnvKey@Ogre@@@std@@V?$allocator@U?$pair@$$CBTShaderEnvKey@Ogre@@PAVCompiledShader@2@@std@@@5@@std@@QAE@XZ$0
__ehfuncinfo$??1?$map@TShaderEnvKey@Ogre@@PAVCompiledShader@2@U?$less@TShaderEnvKey@Ogre@@@std@@V?$allocator@U?$pair@$$CBTShaderEnvKey@Ogre@@PAVCompiledShader@2@@std@@@5@@std@@QAE@XZ DD 019930522H
	DD	01H
	DD	FLAT:__unwindtable$??1?$map@TShaderEnvKey@Ogre@@PAVCompiledShader@2@U?$less@TShaderEnvKey@Ogre@@@std@@V?$allocator@U?$pair@$$CBTShaderEnvKey@Ogre@@PAVCompiledShader@2@@std@@@5@@std@@QAE@XZ
	DD	2 DUP(00H)
	DD	2 DUP(00H)
	DD	00H
	DD	00H
; Function compile flags: /Odtp
xdata$x	ENDS
;	COMDAT ??1?$map@TShaderEnvKey@Ogre@@PAVCompiledShader@2@U?$less@TShaderEnvKey@Ogre@@@std@@V?$allocator@U?$pair@$$CBTShaderEnvKey@Ogre@@PAVCompiledShader@2@@std@@@5@@std@@QAE@XZ
_TEXT	SEGMENT
_this$ = -16						; size = 4
__$EHRec$ = -12						; size = 12
??1?$map@TShaderEnvKey@Ogre@@PAVCompiledShader@2@U?$less@TShaderEnvKey@Ogre@@@std@@V?$allocator@U?$pair@$$CBTShaderEnvKey@Ogre@@PAVCompiledShader@2@@std@@@5@@std@@QAE@XZ PROC ; std::map<Ogre::ShaderEnvKey,Ogre::CompiledShader *,std::less<Ogre::ShaderEnvKey>,std::allocator<std::pair<Ogre::ShaderEnvKey const ,Ogre::CompiledShader *> > >::~map<Ogre::ShaderEnvKey,Ogre::CompiledShader *,std::less<Ogre::ShaderEnvKey>,std::allocator<std::pair<Ogre::ShaderEnvKey const ,Ogre::CompiledShader *> > >, COMDAT
; _this$ = ecx
	push	ebp
	mov	ebp, esp
	push	-1
	push	__ehhandler$??1?$map@TShaderEnvKey@Ogre@@PAVCompiledShader@2@U?$less@TShaderEnvKey@Ogre@@@std@@V?$allocator@U?$pair@$$CBTShaderEnvKey@Ogre@@PAVCompiledShader@2@@std@@@5@@std@@QAE@XZ
	mov	eax, DWORD PTR fs:0
	push	eax
	push	ecx
	mov	eax, DWORD PTR ___security_cookie
	xor	eax, ebp
	push	eax
	lea	eax, DWORD PTR __$EHRec$[ebp]
	mov	DWORD PTR fs:0, eax
	mov	DWORD PTR _this$[ebp], ecx
	mov	DWORD PTR __$EHRec$[ebp+8], 0
	mov	DWORD PTR __$EHRec$[ebp+8], -1
	mov	ecx, DWORD PTR _this$[ebp]
	call	??1?$_Tree@V?$_Tmap_traits@TShaderEnvKey@Ogre@@PAVCompiledShader@2@U?$less@TShaderEnvKey@Ogre@@@std@@V?$allocator@U?$pair@$$CBTShaderEnvKey@Ogre@@PAVCompiledShader@2@@std@@@5@$0A@@std@@@std@@QAE@XZ ; std::_Tree<std::_Tmap_traits<Ogre::ShaderEnvKey,Ogre::CompiledShader *,std::less<Ogre::ShaderEnvKey>,std::allocator<std::pair<Ogre::ShaderEnvKey const ,Ogre::CompiledShader *> >,0> >::~_Tree<std::_Tmap_traits<Ogre::ShaderEnvKey,Ogre::CompiledShader *,std::less<Ogre::ShaderEnvKey>,std::allocator<std::pair<Ogre::ShaderEnvKey const ,Ogre::CompiledShader *> >,0> >
	mov	ecx, DWORD PTR __$EHRec$[ebp]
	mov	DWORD PTR fs:0, ecx
	pop	ecx
	mov	esp, ebp
	pop	ebp
	ret	0
_TEXT	ENDS
;	COMDAT text$x
text$x	SEGMENT
__unwindfunclet$??1?$map@TShaderEnvKey@Ogre@@PAVCompiledShader@2@U?$less@TShaderEnvKey@Ogre@@@std@@V?$allocator@U?$pair@$$CBTShaderEnvKey@Ogre@@PAVCompiledShader@2@@std@@@5@@std@@QAE@XZ$0:
	mov	ecx, DWORD PTR _this$[ebp]
	jmp	??1?$_Tree@V?$_Tmap_traits@TShaderEnvKey@Ogre@@PAVCompiledShader@2@U?$less@TShaderEnvKey@Ogre@@@std@@V?$allocator@U?$pair@$$CBTShaderEnvKey@Ogre@@PAVCompiledShader@2@@std@@@5@$0A@@std@@@std@@QAE@XZ ; std::_Tree<std::_Tmap_traits<Ogre::ShaderEnvKey,Ogre::CompiledShader *,std::less<Ogre::ShaderEnvKey>,std::allocator<std::pair<Ogre::ShaderEnvKey const ,Ogre::CompiledShader *> >,0> >::~_Tree<std::_Tmap_traits<Ogre::ShaderEnvKey,Ogre::CompiledShader *,std::less<Ogre::ShaderEnvKey>,std::allocator<std::pair<Ogre::ShaderEnvKey const ,Ogre::CompiledShader *> >,0> >
__ehhandler$??1?$map@TShaderEnvKey@Ogre@@PAVCompiledShader@2@U?$less@TShaderEnvKey@Ogre@@@std@@V?$allocator@U?$pair@$$CBTShaderEnvKey@Ogre@@PAVCompiledShader@2@@std@@@5@@std@@QAE@XZ:
	mov	edx, DWORD PTR [esp+8]
	lea	eax, DWORD PTR [edx+12]
	mov	ecx, DWORD PTR [edx-8]
	xor	ecx, eax
	call	@__security_check_cookie@4
	mov	eax, OFFSET __ehfuncinfo$??1?$map@TShaderEnvKey@Ogre@@PAVCompiledShader@2@U?$less@TShaderEnvKey@Ogre@@@std@@V?$allocator@U?$pair@$$CBTShaderEnvKey@Ogre@@PAVCompiledShader@2@@std@@@5@@std@@QAE@XZ
	jmp	___CxxFrameHandler3
text$x	ENDS
??1?$map@TShaderEnvKey@Ogre@@PAVCompiledShader@2@U?$less@TShaderEnvKey@Ogre@@@std@@V?$allocator@U?$pair@$$CBTShaderEnvKey@Ogre@@PAVCompiledShader@2@@std@@@5@@std@@QAE@XZ ENDP ; std::map<Ogre::ShaderEnvKey,Ogre::CompiledShader *,std::less<Ogre::ShaderEnvKey>,std::allocator<std::pair<Ogre::ShaderEnvKey const ,Ogre::CompiledShader *> > >::~map<Ogre::ShaderEnvKey,Ogre::CompiledShader *,std::less<Ogre::ShaderEnvKey>,std::allocator<std::pair<Ogre::ShaderEnvKey const ,Ogre::CompiledShader *> > >
PUBLIC	??_GCompiledShader@Ogre@@QAEPAXI@Z		; Ogre::CompiledShader::`scalar deleting destructor'
PUBLIC	??A?$vector@PAVCompiledShader@Ogre@@V?$allocator@PAVCompiledShader@Ogre@@@std@@@std@@QAEAAPAVCompiledShader@Ogre@@I@Z ; std::vector<Ogre::CompiledShader *,std::allocator<Ogre::CompiledShader *> >::operator[]
PUBLIC	?size@?$vector@PAVCompiledShader@Ogre@@V?$allocator@PAVCompiledShader@Ogre@@@std@@@std@@QBEIXZ ; std::vector<Ogre::CompiledShader *,std::allocator<Ogre::CompiledShader *> >::size
PUBLIC	??1CompiledShaderGroup@Ogre@@QAE@XZ		; Ogre::CompiledShaderGroup::~CompiledShaderGroup
xdata$x	SEGMENT
__unwindtable$??1CompiledShaderGroup@Ogre@@QAE@XZ DD 0ffffffffH
	DD	FLAT:__unwindfunclet$??1CompiledShaderGroup@Ogre@@QAE@XZ$0
	DD	00H
	DD	FLAT:__unwindfunclet$??1CompiledShaderGroup@Ogre@@QAE@XZ$1
	DD	01H
	DD	FLAT:__unwindfunclet$??1CompiledShaderGroup@Ogre@@QAE@XZ$2
__ehfuncinfo$??1CompiledShaderGroup@Ogre@@QAE@XZ DD 019930522H
	DD	03H
	DD	FLAT:__unwindtable$??1CompiledShaderGroup@Ogre@@QAE@XZ
	DD	2 DUP(00H)
	DD	2 DUP(00H)
	DD	00H
	DD	00H
; Function compile flags: /Odtp
xdata$x	ENDS
_TEXT	SEGMENT
tv83 = -32						; size = 4
_this$ = -28						; size = 4
$T157851 = -24						; size = 4
$T157850 = -20						; size = 4
_i$145034 = -16						; size = 4
__$EHRec$ = -12						; size = 12
??1CompiledShaderGroup@Ogre@@QAE@XZ PROC		; Ogre::CompiledShaderGroup::~CompiledShaderGroup
; _this$ = ecx

; 595  : 	{

	push	ebp
	mov	ebp, esp
	push	-1
	push	__ehhandler$??1CompiledShaderGroup@Ogre@@QAE@XZ
	mov	eax, DWORD PTR fs:0
	push	eax
	sub	esp, 20					; 00000014H
	mov	eax, DWORD PTR ___security_cookie
	xor	eax, ebp
	push	eax
	lea	eax, DWORD PTR __$EHRec$[ebp]
	mov	DWORD PTR fs:0, eax
	mov	DWORD PTR _this$[ebp], ecx
	mov	DWORD PTR __$EHRec$[ebp+8], 2

; 596  : 		for(size_t i=0; i<m_Shaders.size(); i++)

	mov	DWORD PTR _i$145034[ebp], 0
	jmp	SHORT $LN3@CompiledSh@3
$LN2@CompiledSh@3:
	mov	eax, DWORD PTR _i$145034[ebp]
	add	eax, 1
	mov	DWORD PTR _i$145034[ebp], eax
$LN3@CompiledSh@3:
	mov	ecx, DWORD PTR _this$[ebp]
	add	ecx, 12					; 0000000cH
	call	?size@?$vector@PAVCompiledShader@Ogre@@V?$allocator@PAVCompiledShader@Ogre@@@std@@@std@@QBEIXZ ; std::vector<Ogre::CompiledShader *,std::allocator<Ogre::CompiledShader *> >::size
	cmp	DWORD PTR _i$145034[ebp], eax
	jae	SHORT $LN4@CompiledSh@3

; 597  : 		{
; 598  : 			delete m_Shaders[i];

	mov	ecx, DWORD PTR _i$145034[ebp]
	push	ecx
	mov	ecx, DWORD PTR _this$[ebp]
	add	ecx, 12					; 0000000cH
	call	??A?$vector@PAVCompiledShader@Ogre@@V?$allocator@PAVCompiledShader@Ogre@@@std@@@std@@QAEAAPAVCompiledShader@Ogre@@I@Z ; std::vector<Ogre::CompiledShader *,std::allocator<Ogre::CompiledShader *> >::operator[]
	mov	edx, DWORD PTR [eax]
	mov	DWORD PTR $T157851[ebp], edx
	mov	eax, DWORD PTR $T157851[ebp]
	mov	DWORD PTR $T157850[ebp], eax
	cmp	DWORD PTR $T157850[ebp], 0
	je	SHORT $LN6@CompiledSh@3
	push	1
	mov	ecx, DWORD PTR $T157850[ebp]
	call	??_GCompiledShader@Ogre@@QAEPAXI@Z
	mov	DWORD PTR tv83[ebp], eax
	jmp	SHORT $LN7@CompiledSh@3
$LN6@CompiledSh@3:
	mov	DWORD PTR tv83[ebp], 0
$LN7@CompiledSh@3:

; 599  : 		}

	jmp	SHORT $LN2@CompiledSh@3
$LN4@CompiledSh@3:

; 600  : 	}

	mov	BYTE PTR __$EHRec$[ebp+8], 1
	mov	ecx, DWORD PTR _this$[ebp]
	add	ecx, 36					; 00000024H
	call	??1?$map@TShaderEnvKey@Ogre@@PAVCompiledShader@2@U?$less@TShaderEnvKey@Ogre@@@std@@V?$allocator@U?$pair@$$CBTShaderEnvKey@Ogre@@PAVCompiledShader@2@@std@@@5@@std@@QAE@XZ
	mov	BYTE PTR __$EHRec$[ebp+8], 0
	mov	ecx, DWORD PTR _this$[ebp]
	add	ecx, 12					; 0000000cH
	call	??1?$vector@PAVCompiledShader@Ogre@@V?$allocator@PAVCompiledShader@Ogre@@@std@@@std@@QAE@XZ ; std::vector<Ogre::CompiledShader *,std::allocator<Ogre::CompiledShader *> >::~vector<Ogre::CompiledShader *,std::allocator<Ogre::CompiledShader *> >
	mov	DWORD PTR __$EHRec$[ebp+8], -1
	mov	ecx, DWORD PTR _this$[ebp]
	add	ecx, 8
	call	DWORD PTR __imp_??1FixedString@Ogre@@QAE@XZ
	mov	ecx, DWORD PTR __$EHRec$[ebp]
	mov	DWORD PTR fs:0, ecx
	pop	ecx
	mov	esp, ebp
	pop	ebp
	ret	0
_TEXT	ENDS
text$x	SEGMENT
__unwindfunclet$??1CompiledShaderGroup@Ogre@@QAE@XZ$0:
	mov	ecx, DWORD PTR _this$[ebp]
	add	ecx, 8
	jmp	DWORD PTR __imp_??1FixedString@Ogre@@QAE@XZ
__unwindfunclet$??1CompiledShaderGroup@Ogre@@QAE@XZ$1:
	mov	ecx, DWORD PTR _this$[ebp]
	add	ecx, 12					; 0000000cH
	jmp	??1?$vector@PAVCompiledShader@Ogre@@V?$allocator@PAVCompiledShader@Ogre@@@std@@@std@@QAE@XZ ; std::vector<Ogre::CompiledShader *,std::allocator<Ogre::CompiledShader *> >::~vector<Ogre::CompiledShader *,std::allocator<Ogre::CompiledShader *> >
__unwindfunclet$??1CompiledShaderGroup@Ogre@@QAE@XZ$2:
	mov	ecx, DWORD PTR _this$[ebp]
	add	ecx, 36					; 00000024H
	jmp	??1?$map@TShaderEnvKey@Ogre@@PAVCompiledShader@2@U?$less@TShaderEnvKey@Ogre@@@std@@V?$allocator@U?$pair@$$CBTShaderEnvKey@Ogre@@PAVCompiledShader@2@@std@@@5@@std@@QAE@XZ
__ehhandler$??1CompiledShaderGroup@Ogre@@QAE@XZ:
	mov	edx, DWORD PTR [esp+8]
	lea	eax, DWORD PTR [edx+12]
	mov	ecx, DWORD PTR [edx-24]
	xor	ecx, eax
	call	@__security_check_cookie@4
	mov	eax, OFFSET __ehfuncinfo$??1CompiledShaderGroup@Ogre@@QAE@XZ
	jmp	___CxxFrameHandler3
text$x	ENDS
??1CompiledShaderGroup@Ogre@@QAE@XZ ENDP		; Ogre::CompiledShaderGroup::~CompiledShaderGroup
; Function compile flags: /Odtp
;	COMDAT ??_GCompiledShader@Ogre@@QAEPAXI@Z
_TEXT	SEGMENT
_this$ = -4						; size = 4
___flags$ = 8						; size = 4
??_GCompiledShader@Ogre@@QAEPAXI@Z PROC			; Ogre::CompiledShader::`scalar deleting destructor', COMDAT
; _this$ = ecx
	push	ebp
	mov	ebp, esp
	push	ecx
	mov	DWORD PTR _this$[ebp], ecx
	mov	ecx, DWORD PTR _this$[ebp]
	call	??1CompiledShader@Ogre@@QAE@XZ		; Ogre::CompiledShader::~CompiledShader
	mov	eax, DWORD PTR ___flags$[ebp]
	and	eax, 1
	je	SHORT $LN1@scalar@2
	mov	ecx, DWORD PTR _this$[ebp]
	push	ecx
	call	??3@YAXPAX@Z				; operator delete
	add	esp, 4
$LN1@scalar@2:
	mov	eax, DWORD PTR _this$[ebp]
	mov	esp, ebp
	pop	ebp
	ret	4
??_GCompiledShader@Ogre@@QAEPAXI@Z ENDP			; Ogre::CompiledShader::`scalar deleting destructor'
_TEXT	ENDS
PUBLIC	?onLostDevice@CompiledShaderGroup@Ogre@@QAEXXZ	; Ogre::CompiledShaderGroup::onLostDevice
; Function compile flags: /Odtp
_TEXT	SEGMENT
_this$ = -8						; size = 4
_i$145047 = -4						; size = 4
?onLostDevice@CompiledShaderGroup@Ogre@@QAEXXZ PROC	; Ogre::CompiledShaderGroup::onLostDevice
; _this$ = ecx

; 603  : 	{

	push	ebp
	mov	ebp, esp
	sub	esp, 8
	mov	DWORD PTR _this$[ebp], ecx

; 604  : 		for(size_t i=0; i<m_Shaders.size(); i++)

	mov	DWORD PTR _i$145047[ebp], 0
	jmp	SHORT $LN3@onLostDevi@2
$LN2@onLostDevi@2:
	mov	eax, DWORD PTR _i$145047[ebp]
	add	eax, 1
	mov	DWORD PTR _i$145047[ebp], eax
$LN3@onLostDevi@2:
	mov	ecx, DWORD PTR _this$[ebp]
	add	ecx, 12					; 0000000cH
	call	?size@?$vector@PAVCompiledShader@Ogre@@V?$allocator@PAVCompiledShader@Ogre@@@std@@@std@@QBEIXZ ; std::vector<Ogre::CompiledShader *,std::allocator<Ogre::CompiledShader *> >::size
	cmp	DWORD PTR _i$145047[ebp], eax
	jae	SHORT $LN4@onLostDevi@2

; 605  : 		{
; 606  : 			m_Shaders[i]->onLostDevice();

	mov	ecx, DWORD PTR _i$145047[ebp]
	push	ecx
	mov	ecx, DWORD PTR _this$[ebp]
	add	ecx, 12					; 0000000cH
	call	??A?$vector@PAVCompiledShader@Ogre@@V?$allocator@PAVCompiledShader@Ogre@@@std@@@std@@QAEAAPAVCompiledShader@Ogre@@I@Z ; std::vector<Ogre::CompiledShader *,std::allocator<Ogre::CompiledShader *> >::operator[]
	mov	ecx, DWORD PTR [eax]
	call	?onLostDevice@CompiledShader@Ogre@@QAEXXZ ; Ogre::CompiledShader::onLostDevice
	jmp	SHORT $LN2@onLostDevi@2
$LN4@onLostDevi@2:

; 607  : 		}
; 608  : 	}

	mov	esp, ebp
	pop	ebp
	ret	0
?onLostDevice@CompiledShaderGroup@Ogre@@QAEXXZ ENDP	; Ogre::CompiledShaderGroup::onLostDevice
_TEXT	ENDS
PUBLIC	?onResetDevice@CompiledShaderGroup@Ogre@@QAE_NXZ ; Ogre::CompiledShaderGroup::onResetDevice
; Function compile flags: /Odtp
_TEXT	SEGMENT
_this$ = -8						; size = 4
_i$145054 = -4						; size = 4
?onResetDevice@CompiledShaderGroup@Ogre@@QAE_NXZ PROC	; Ogre::CompiledShaderGroup::onResetDevice
; _this$ = ecx

; 611  : 	{

	push	ebp
	mov	ebp, esp
	sub	esp, 8
	mov	DWORD PTR _this$[ebp], ecx

; 612  : 		for(size_t i=0; i<m_Shaders.size(); i++)

	mov	DWORD PTR _i$145054[ebp], 0
	jmp	SHORT $LN4@onResetDev@2
$LN3@onResetDev@2:
	mov	eax, DWORD PTR _i$145054[ebp]
	add	eax, 1
	mov	DWORD PTR _i$145054[ebp], eax
$LN4@onResetDev@2:
	mov	ecx, DWORD PTR _this$[ebp]
	add	ecx, 12					; 0000000cH
	call	?size@?$vector@PAVCompiledShader@Ogre@@V?$allocator@PAVCompiledShader@Ogre@@@std@@@std@@QBEIXZ ; std::vector<Ogre::CompiledShader *,std::allocator<Ogre::CompiledShader *> >::size
	cmp	DWORD PTR _i$145054[ebp], eax
	jae	SHORT $LN2@onResetDev@2

; 613  : 		{
; 614  : 			if(!m_Shaders[i]->onResetDevice()) return false;

	mov	ecx, DWORD PTR _i$145054[ebp]
	push	ecx
	mov	ecx, DWORD PTR _this$[ebp]
	add	ecx, 12					; 0000000cH
	call	??A?$vector@PAVCompiledShader@Ogre@@V?$allocator@PAVCompiledShader@Ogre@@@std@@@std@@QAEAAPAVCompiledShader@Ogre@@I@Z ; std::vector<Ogre::CompiledShader *,std::allocator<Ogre::CompiledShader *> >::operator[]
	mov	ecx, DWORD PTR [eax]
	call	?onResetDevice@CompiledShader@Ogre@@QAE_NXZ ; Ogre::CompiledShader::onResetDevice
	movzx	edx, al
	test	edx, edx
	jne	SHORT $LN1@onResetDev@2
	xor	al, al
	jmp	SHORT $LN5@onResetDev@2
$LN1@onResetDev@2:

; 615  : 		}

	jmp	SHORT $LN3@onResetDev@2
$LN2@onResetDev@2:

; 616  : 		return true;

	mov	al, 1
$LN5@onResetDev@2:

; 617  : 	}

	mov	esp, ebp
	pop	ebp
	ret	0
?onResetDevice@CompiledShaderGroup@Ogre@@QAE_NXZ ENDP	; Ogre::CompiledShaderGroup::onResetDevice
_TEXT	ENDS
PUBLIC	??Citerator@?$_Tree@V?$_Tmap_traits@TShaderEnvKey@Ogre@@PAVCompiledShader@2@U?$less@TShaderEnvKey@Ogre@@@std@@V?$allocator@U?$pair@$$CBTShaderEnvKey@Ogre@@PAVCompiledShader@2@@std@@@5@$0A@@std@@@std@@QBEPAU?$pair@$$CBTShaderEnvKey@Ogre@@PAVCompiledShader@2@@2@XZ ; std::_Tree<std::_Tmap_traits<Ogre::ShaderEnvKey,Ogre::CompiledShader *,std::less<Ogre::ShaderEnvKey>,std::allocator<std::pair<Ogre::ShaderEnvKey const ,Ogre::CompiledShader *> >,0> >::iterator::operator->
PUBLIC	??9const_iterator@?$_Tree@V?$_Tmap_traits@TShaderEnvKey@Ogre@@PAVCompiledShader@2@U?$less@TShaderEnvKey@Ogre@@@std@@V?$allocator@U?$pair@$$CBTShaderEnvKey@Ogre@@PAVCompiledShader@2@@std@@@5@$0A@@std@@@std@@QBE_NABV012@@Z ; std::_Tree<std::_Tmap_traits<Ogre::ShaderEnvKey,Ogre::CompiledShader *,std::less<Ogre::ShaderEnvKey>,std::allocator<std::pair<Ogre::ShaderEnvKey const ,Ogre::CompiledShader *> >,0> >::const_iterator::operator!=
PUBLIC	?end@?$_Tree@V?$_Tmap_traits@TShaderEnvKey@Ogre@@PAVCompiledShader@2@U?$less@TShaderEnvKey@Ogre@@@std@@V?$allocator@U?$pair@$$CBTShaderEnvKey@Ogre@@PAVCompiledShader@2@@std@@@5@$0A@@std@@@std@@QAE?AViterator@12@XZ ; std::_Tree<std::_Tmap_traits<Ogre::ShaderEnvKey,Ogre::CompiledShader *,std::less<Ogre::ShaderEnvKey>,std::allocator<std::pair<Ogre::ShaderEnvKey const ,Ogre::CompiledShader *> >,0> >::end
PUBLIC	?find@?$_Tree@V?$_Tmap_traits@TShaderEnvKey@Ogre@@PAVCompiledShader@2@U?$less@TShaderEnvKey@Ogre@@@std@@V?$allocator@U?$pair@$$CBTShaderEnvKey@Ogre@@PAVCompiledShader@2@@std@@@5@$0A@@std@@@std@@QAE?AViterator@12@ABTShaderEnvKey@Ogre@@@Z ; std::_Tree<std::_Tmap_traits<Ogre::ShaderEnvKey,Ogre::CompiledShader *,std::less<Ogre::ShaderEnvKey>,std::allocator<std::pair<Ogre::ShaderEnvKey const ,Ogre::CompiledShader *> >,0> >::find
PUBLIC	??0ShaderEnvKey@Ogre@@QAE@XZ			; Ogre::ShaderEnvKey::ShaderEnvKey
PUBLIC	?createCompiledShader@CompiledShaderGroup@Ogre@@QAEPAVCompiledShader@2@ABUShaderEnvFlags@2@ABUMaterialMacro@2@@Z ; Ogre::CompiledShaderGroup::createCompiledShader
PUBLIC	??A?$vector@UShaderEnv@Ogre@@V?$allocator@UShaderEnv@Ogre@@@std@@@std@@QAEAAUShaderEnv@Ogre@@I@Z ; std::vector<Ogre::ShaderEnv,std::allocator<Ogre::ShaderEnv> >::operator[]
PUBLIC	?size@?$vector@UShaderEnv@Ogre@@V?$allocator@UShaderEnv@Ogre@@@std@@@std@@QBEIXZ ; std::vector<Ogre::ShaderEnv,std::allocator<Ogre::ShaderEnv> >::size
PUBLIC	?getCompiledShader@CompiledShaderGroup@Ogre@@QAEPAVCompiledShader@2@ABUShaderEnvFlags@2@ABUMaterialMacro@2@@Z ; Ogre::CompiledShaderGroup::getCompiledShader
EXTRN	__imp_?isCompileShaderEnvKeys@Root@Ogre@@QAE_NXZ:PROC
EXTRN	__imp_?getSingleton@?$Singleton@VRoot@Ogre@@@Ogre@@SAAAVRoot@2@XZ:PROC
; Function compile flags: /Odtp
_TEXT	SEGMENT
_this$ = -88						; size = 4
$T157866 = -84						; size = 8
_shader$145079 = -76					; size = 4
_env$145077 = -72					; size = 24
_i$145072 = -44						; size = 4
_shaderEnvs$145071 = -40				; size = 4
_isCompileShaderEnvKeys$ = -33				; size = 1
_key$ = -32						; size = 16
_pShaderTemp$ = -12					; size = 4
_iter$ = -8						; size = 8
_env$ = 8						; size = 4
_macros$ = 12						; size = 4
?getCompiledShader@CompiledShaderGroup@Ogre@@QAEPAVCompiledShader@2@ABUShaderEnvFlags@2@ABUMaterialMacro@2@@Z PROC ; Ogre::CompiledShaderGroup::getCompiledShader
; _this$ = ecx

; 620  : 	{

	push	ebp
	mov	ebp, esp
	sub	esp, 88					; 00000058H
	mov	DWORD PTR _this$[ebp], ecx

; 621  : 		bool isCompileShaderEnvKeys = Root::getSingleton().isCompileShaderEnvKeys();

	call	DWORD PTR __imp_?getSingleton@?$Singleton@VRoot@Ogre@@@Ogre@@SAAAVRoot@2@XZ
	mov	ecx, eax
	call	DWORD PTR __imp_?isCompileShaderEnvKeys@Root@Ogre@@QAE_NXZ
	mov	BYTE PTR _isCompileShaderEnvKeys$[ebp], al

; 622  : 
; 623  : 		if (isCompileShaderEnvKeys)

	movzx	eax, BYTE PTR _isCompileShaderEnvKeys$[ebp]
	test	eax, eax
	je	$LN10@getCompile

; 624  : 		{
; 625  : 			if (!m_bCreatedAll)

	mov	ecx, DWORD PTR _this$[ebp]
	movzx	edx, BYTE PTR [ecx+68]
	test	edx, edx
	jne	$LN10@getCompile

; 626  : 			{
; 627  : 				std::vector<ShaderEnv> &shaderEnvs = m_pMtlTemplate->m_ShaderEnvs;

	mov	eax, DWORD PTR _this$[ebp]
	mov	ecx, DWORD PTR [eax+4]
	add	ecx, 12					; 0000000cH
	mov	DWORD PTR _shaderEnvs$145071[ebp], ecx

; 628  : 				for (int i=0; i<(int)shaderEnvs.size(); i++)

	mov	DWORD PTR _i$145072[ebp], 0
	jmp	SHORT $LN8@getCompile
$LN7@getCompile:
	mov	edx, DWORD PTR _i$145072[ebp]
	add	edx, 1
	mov	DWORD PTR _i$145072[ebp], edx
$LN8@getCompile:
	mov	ecx, DWORD PTR _shaderEnvs$145071[ebp]
	call	?size@?$vector@UShaderEnv@Ogre@@V?$allocator@UShaderEnv@Ogre@@@std@@@std@@QBEIXZ ; std::vector<Ogre::ShaderEnv,std::allocator<Ogre::ShaderEnv> >::size
	cmp	DWORD PTR _i$145072[ebp], eax
	jge	SHORT $LN6@getCompile

; 629  : 				{
; 630  : 					ShaderEnv env = shaderEnvs[i];

	mov	eax, DWORD PTR _i$145072[ebp]
	push	eax
	mov	ecx, DWORD PTR _shaderEnvs$145071[ebp]
	call	??A?$vector@UShaderEnv@Ogre@@V?$allocator@UShaderEnv@Ogre@@@std@@@std@@QAEAAUShaderEnv@Ogre@@I@Z ; std::vector<Ogre::ShaderEnv,std::allocator<Ogre::ShaderEnv> >::operator[]
	mov	ecx, DWORD PTR [eax]
	mov	DWORD PTR _env$145077[ebp], ecx
	mov	edx, DWORD PTR [eax+4]
	mov	DWORD PTR _env$145077[ebp+4], edx
	mov	ecx, DWORD PTR [eax+8]
	mov	DWORD PTR _env$145077[ebp+8], ecx
	mov	edx, DWORD PTR [eax+12]
	mov	DWORD PTR _env$145077[ebp+12], edx
	mov	ecx, DWORD PTR [eax+16]
	mov	DWORD PTR _env$145077[ebp+16], ecx
	mov	edx, DWORD PTR [eax+20]
	mov	DWORD PTR _env$145077[ebp+20], edx

; 631  : 					if (env.Type == m_Type)

	mov	eax, DWORD PTR _this$[ebp]
	mov	ecx, DWORD PTR _env$145077[ebp]
	cmp	ecx, DWORD PTR [eax]
	jne	SHORT $LN5@getCompile

; 632  : 					{
; 633  : 						CompiledShader *shader = NULL;

	mov	DWORD PTR _shader$145079[ebp], 0

; 634  : 						shader = createCompiledShader(env.key.env, env.key.macros);

	lea	edx, DWORD PTR _env$145077[ebp+16]
	push	edx
	lea	eax, DWORD PTR _env$145077[ebp+8]
	push	eax
	mov	ecx, DWORD PTR _this$[ebp]
	call	?createCompiledShader@CompiledShaderGroup@Ogre@@QAEPAVCompiledShader@2@ABUShaderEnvFlags@2@ABUMaterialMacro@2@@Z ; Ogre::CompiledShaderGroup::createCompiledShader
	mov	DWORD PTR _shader$145079[ebp], eax
$LN5@getCompile:

; 635  : 					}
; 636  : 				}

	jmp	SHORT $LN7@getCompile
$LN6@getCompile:

; 637  : 				m_bCreatedAll = true;

	mov	ecx, DWORD PTR _this$[ebp]
	mov	BYTE PTR [ecx+68], 1
$LN10@getCompile:

; 638  : 			}
; 639  : 		}
; 640  : 
; 641  : 		if (env.nlight > CompiledShader::ms_MaxLightNum)

	mov	edx, DWORD PTR _env$[ebp]
	mov	eax, DWORD PTR [edx]
	and	eax, 7
	cmp	eax, DWORD PTR ?ms_MaxLightNum@CompiledShader@Ogre@@2HA ; Ogre::CompiledShader::ms_MaxLightNum
	jbe	SHORT $LN4@getCompile

; 642  : 			CompiledShader::ms_MaxLightNum = env.nlight;

	mov	ecx, DWORD PTR _env$[ebp]
	mov	edx, DWORD PTR [ecx]
	and	edx, 7
	mov	DWORD PTR ?ms_MaxLightNum@CompiledShader@Ogre@@2HA, edx ; Ogre::CompiledShader::ms_MaxLightNum
$LN4@getCompile:

; 643  : 
; 644  : 		if (env.skin_maxinfl > CompiledShader::ms_MaxSkinNum)

	mov	eax, DWORD PTR _env$[ebp]
	mov	ecx, DWORD PTR [eax]
	shr	ecx, 18					; 00000012H
	and	ecx, 7
	cmp	ecx, DWORD PTR ?ms_MaxSkinNum@CompiledShader@Ogre@@2HA ; Ogre::CompiledShader::ms_MaxSkinNum
	jbe	SHORT $LN3@getCompile

; 645  : 			CompiledShader::ms_MaxSkinNum = env.skin_maxinfl;

	mov	edx, DWORD PTR _env$[ebp]
	mov	eax, DWORD PTR [edx]
	shr	eax, 18					; 00000012H
	and	eax, 7
	mov	DWORD PTR ?ms_MaxSkinNum@CompiledShader@Ogre@@2HA, eax ; Ogre::CompiledShader::ms_MaxSkinNum
$LN3@getCompile:

; 646  : 
; 647  : 		assert(sizeof(env)==8 && sizeof(macros)==8);
; 648  : 		ShaderEnvKey key;

	lea	ecx, DWORD PTR _key$[ebp]
	call	??0ShaderEnvKey@Ogre@@QAE@XZ		; Ogre::ShaderEnvKey::ShaderEnvKey

; 649  : 		key.env = env;

	mov	ecx, DWORD PTR _env$[ebp]
	mov	edx, DWORD PTR [ecx]
	mov	eax, DWORD PTR [ecx+4]
	mov	DWORD PTR _key$[ebp], edx
	mov	DWORD PTR _key$[ebp+4], eax

; 650  : 		key.macros = macros;

	mov	ecx, DWORD PTR _macros$[ebp]
	mov	edx, DWORD PTR [ecx]
	mov	eax, DWORD PTR [ecx+4]
	mov	DWORD PTR _key$[ebp+8], edx
	mov	DWORD PTR _key$[ebp+12], eax

; 651  : 
; 652  : 		std::map<ShaderEnvKey, CompiledShader *>::iterator iter = m_MacroShaderMap.find(key);

	lea	ecx, DWORD PTR _key$[ebp]
	push	ecx
	lea	edx, DWORD PTR _iter$[ebp]
	push	edx
	mov	ecx, DWORD PTR _this$[ebp]
	add	ecx, 36					; 00000024H
	call	?find@?$_Tree@V?$_Tmap_traits@TShaderEnvKey@Ogre@@PAVCompiledShader@2@U?$less@TShaderEnvKey@Ogre@@@std@@V?$allocator@U?$pair@$$CBTShaderEnvKey@Ogre@@PAVCompiledShader@2@@std@@@5@$0A@@std@@@std@@QAE?AViterator@12@ABTShaderEnvKey@Ogre@@@Z ; std::_Tree<std::_Tmap_traits<Ogre::ShaderEnvKey,Ogre::CompiledShader *,std::less<Ogre::ShaderEnvKey>,std::allocator<std::pair<Ogre::ShaderEnvKey const ,Ogre::CompiledShader *> >,0> >::find

; 653  : 		if(iter != m_MacroShaderMap.end())

	lea	eax, DWORD PTR $T157866[ebp]
	push	eax
	mov	ecx, DWORD PTR _this$[ebp]
	add	ecx, 36					; 00000024H
	call	?end@?$_Tree@V?$_Tmap_traits@TShaderEnvKey@Ogre@@PAVCompiledShader@2@U?$less@TShaderEnvKey@Ogre@@@std@@V?$allocator@U?$pair@$$CBTShaderEnvKey@Ogre@@PAVCompiledShader@2@@std@@@5@$0A@@std@@@std@@QAE?AViterator@12@XZ ; std::_Tree<std::_Tmap_traits<Ogre::ShaderEnvKey,Ogre::CompiledShader *,std::less<Ogre::ShaderEnvKey>,std::allocator<std::pair<Ogre::ShaderEnvKey const ,Ogre::CompiledShader *> >,0> >::end
	push	eax
	lea	ecx, DWORD PTR _iter$[ebp]
	call	??9const_iterator@?$_Tree@V?$_Tmap_traits@TShaderEnvKey@Ogre@@PAVCompiledShader@2@U?$less@TShaderEnvKey@Ogre@@@std@@V?$allocator@U?$pair@$$CBTShaderEnvKey@Ogre@@PAVCompiledShader@2@@std@@@5@$0A@@std@@@std@@QBE_NABV012@@Z ; std::_Tree<std::_Tmap_traits<Ogre::ShaderEnvKey,Ogre::CompiledShader *,std::less<Ogre::ShaderEnvKey>,std::allocator<std::pair<Ogre::ShaderEnvKey const ,Ogre::CompiledShader *> >,0> >::const_iterator::operator!=
	movzx	ecx, al
	test	ecx, ecx
	je	SHORT $LN2@getCompile

; 654  : 		{
; 655  : 			if (!iter->second->m_bCreated)

	lea	ecx, DWORD PTR _iter$[ebp]
	call	??Citerator@?$_Tree@V?$_Tmap_traits@TShaderEnvKey@Ogre@@PAVCompiledShader@2@U?$less@TShaderEnvKey@Ogre@@@std@@V?$allocator@U?$pair@$$CBTShaderEnvKey@Ogre@@PAVCompiledShader@2@@std@@@5@$0A@@std@@@std@@QBEPAU?$pair@$$CBTShaderEnvKey@Ogre@@PAVCompiledShader@2@@2@XZ ; std::_Tree<std::_Tmap_traits<Ogre::ShaderEnvKey,Ogre::CompiledShader *,std::less<Ogre::ShaderEnvKey>,std::allocator<std::pair<Ogre::ShaderEnvKey const ,Ogre::CompiledShader *> >,0> >::iterator::operator->
	mov	edx, DWORD PTR [eax+16]
	movzx	eax, BYTE PTR [edx+364]
	test	eax, eax
	jne	SHORT $LN1@getCompile

; 656  : 			{
; 657  : 				iter->second->create();

	lea	ecx, DWORD PTR _iter$[ebp]
	call	??Citerator@?$_Tree@V?$_Tmap_traits@TShaderEnvKey@Ogre@@PAVCompiledShader@2@U?$less@TShaderEnvKey@Ogre@@@std@@V?$allocator@U?$pair@$$CBTShaderEnvKey@Ogre@@PAVCompiledShader@2@@std@@@5@$0A@@std@@@std@@QBEPAU?$pair@$$CBTShaderEnvKey@Ogre@@PAVCompiledShader@2@@2@XZ ; std::_Tree<std::_Tmap_traits<Ogre::ShaderEnvKey,Ogre::CompiledShader *,std::less<Ogre::ShaderEnvKey>,std::allocator<std::pair<Ogre::ShaderEnvKey const ,Ogre::CompiledShader *> >,0> >::iterator::operator->
	mov	ecx, DWORD PTR [eax+16]
	call	?create@CompiledShader@Ogre@@QAE_NXZ	; Ogre::CompiledShader::create
$LN1@getCompile:

; 658  : 			}
; 659  : 
; 660  : 			return iter->second;	

	lea	ecx, DWORD PTR _iter$[ebp]
	call	??Citerator@?$_Tree@V?$_Tmap_traits@TShaderEnvKey@Ogre@@PAVCompiledShader@2@U?$less@TShaderEnvKey@Ogre@@@std@@V?$allocator@U?$pair@$$CBTShaderEnvKey@Ogre@@PAVCompiledShader@2@@std@@@5@$0A@@std@@@std@@QBEPAU?$pair@$$CBTShaderEnvKey@Ogre@@PAVCompiledShader@2@@2@XZ ; std::_Tree<std::_Tmap_traits<Ogre::ShaderEnvKey,Ogre::CompiledShader *,std::less<Ogre::ShaderEnvKey>,std::allocator<std::pair<Ogre::ShaderEnvKey const ,Ogre::CompiledShader *> >,0> >::iterator::operator->
	mov	eax, DWORD PTR [eax+16]
	jmp	SHORT $LN11@getCompile
$LN2@getCompile:

; 661  : 		}
; 662  : 
; 663  : 		//FixedString name = m_pMtlTemplate->getName();
; 664  : 		//if (name == "stdmtl")
; 665  : 		//{
; 666  : 		//	ShaderEnvFlags envFlag = env;
; 667  : 		//	for (int i=0; i<5; i++)
; 668  : 		//	{
; 669  : 		//		envFlag.nlight = i;
; 670  : 
; 671  : 		//		for (int j=0; j<6; j++)
; 672  : 		//		{
; 673  : 		//			envFlag.skin_maxinfl = j;
; 674  : 
; 675  : 		//			CompiledShader *pShaderEnv = createCompiledShader(envFlag, macros);
; 676  : 		//			if (pShaderEnv)
; 677  : 		//				pShaderEnv->m_bAllCreated = true;
; 678  : 		//		}
; 679  : 		//	}
; 680  : 		//}
; 681  : 
; 682  : 		CompiledShader *pShaderTemp = createCompiledShader(env, macros);

	mov	ecx, DWORD PTR _macros$[ebp]
	push	ecx
	mov	edx, DWORD PTR _env$[ebp]
	push	edx
	mov	ecx, DWORD PTR _this$[ebp]
	call	?createCompiledShader@CompiledShaderGroup@Ogre@@QAEPAVCompiledShader@2@ABUShaderEnvFlags@2@ABUMaterialMacro@2@@Z ; Ogre::CompiledShaderGroup::createCompiledShader
	mov	DWORD PTR _pShaderTemp$[ebp], eax

; 683  : 
; 684  : 		return pShaderTemp;

	mov	eax, DWORD PTR _pShaderTemp$[ebp]
$LN11@getCompile:

; 685  : 	}

	mov	esp, ebp
	pop	ebp
	ret	8
?getCompiledShader@CompiledShaderGroup@Ogre@@QAEPAVCompiledShader@2@ABUShaderEnvFlags@2@ABUMaterialMacro@2@@Z ENDP ; Ogre::CompiledShaderGroup::getCompiledShader
; Function compile flags: /Odtp
; File i:\svnroot\client\ogremain\ogrematerialtemplate.h
_TEXT	ENDS
;	COMDAT ??0ShaderEnvKey@Ogre@@QAE@XZ
_TEXT	SEGMENT
_this$ = -4						; size = 4
??0ShaderEnvKey@Ogre@@QAE@XZ PROC			; Ogre::ShaderEnvKey::ShaderEnvKey, COMDAT
; _this$ = ecx

; 23   : 		ShaderEnvKey()

	push	ebp
	mov	ebp, esp
	push	ecx
	mov	DWORD PTR _this$[ebp], ecx

; 24   : 		{
; 25   : 			keydata[0] = keydata[1] = 0;

	mov	eax, DWORD PTR _this$[ebp]
	mov	DWORD PTR [eax+8], 0
	mov	DWORD PTR [eax+12], 0
	mov	ecx, DWORD PTR _this$[ebp]
	mov	DWORD PTR [ecx], 0
	mov	DWORD PTR [ecx+4], 0

; 26   : 		}

	mov	eax, DWORD PTR _this$[ebp]
	mov	esp, ebp
	pop	ebp
	ret	0
??0ShaderEnvKey@Ogre@@QAE@XZ ENDP			; Ogre::ShaderEnvKey::ShaderEnvKey
_TEXT	ENDS
PUBLIC	?push_back@?$vector@PAVCompiledShader@Ogre@@V?$allocator@PAVCompiledShader@Ogre@@@std@@@std@@QAEXABQAVCompiledShader@Ogre@@@Z ; std::vector<Ogre::CompiledShader *,std::allocator<Ogre::CompiledShader *> >::push_back
PUBLIC	?addShaderKey@CompiledShader@Ogre@@QAEXTShaderEnvKey@2@@Z ; Ogre::CompiledShader::addShaderKey
PUBLIC	??A?$map@TShaderEnvKey@Ogre@@PAVCompiledShader@2@U?$less@TShaderEnvKey@Ogre@@@std@@V?$allocator@U?$pair@$$CBTShaderEnvKey@Ogre@@PAVCompiledShader@2@@std@@@5@@std@@QAEAAPAVCompiledShader@Ogre@@ABTShaderEnvKey@3@@Z ; std::map<Ogre::ShaderEnvKey,Ogre::CompiledShader *,std::less<Ogre::ShaderEnvKey>,std::allocator<std::pair<Ogre::ShaderEnvKey const ,Ogre::CompiledShader *> > >::operator[]
PUBLIC	?resize@?$vector@DV?$allocator@D@std@@@std@@QAEXI@Z ; std::vector<char,std::allocator<char> >::resize
PUBLIC	?GetMacros@ShaderMacroMgr@Ogre@@QAEPBU_D3DXMACRO@@XZ ; Ogre::ShaderMacroMgr::GetMacros
EXTRN	?createPixelShader@D3D9RenderSystem@Ogre@@QAEPAUIDirect3DPixelShader9@@PAUID3DXBuffer@@@Z:PROC ; Ogre::D3D9RenderSystem::createPixelShader
EXTRN	?createVertexShader@D3D9RenderSystem@Ogre@@QAEPAUIDirect3DVertexShader9@@PAUID3DXBuffer@@@Z:PROC ; Ogre::D3D9RenderSystem::createVertexShader
EXTRN	?createD3DXEffect@D3D9RenderSystem@Ogre@@QAEPAUID3DXEffect@@PAUID3DXBuffer@@@Z:PROC ; Ogre::D3D9RenderSystem::createD3DXEffect
EXTRN	_memcmp:PROC
EXTRN	__imp_?hash@StringUtil@Ogre@@SAIPBDIH@Z:PROC
EXTRN	?compileCode@D3D9RenderSystem@Ogre@@QAEPAUID3DXBuffer@@PBDIPBU_D3DXMACRO@@00PAPAUID3DXConstantTable@@@Z:PROC ; Ogre::D3D9RenderSystem::compileCode
xdata$x	SEGMENT
__unwindtable$?createCompiledShader@CompiledShaderGroup@Ogre@@QAEPAVCompiledShader@2@ABUShaderEnvFlags@2@ABUMaterialMacro@2@@Z DD 0ffffffffH
	DD	FLAT:__unwindfunclet$?createCompiledShader@CompiledShaderGroup@Ogre@@QAEPAVCompiledShader@2@ABUShaderEnvFlags@2@ABUMaterialMacro@2@@Z$0
	DD	0ffffffffH
	DD	FLAT:__unwindfunclet$?createCompiledShader@CompiledShaderGroup@Ogre@@QAEPAVCompiledShader@2@ABUShaderEnvFlags@2@ABUMaterialMacro@2@@Z$1
__ehfuncinfo$?createCompiledShader@CompiledShaderGroup@Ogre@@QAEPAVCompiledShader@2@ABUShaderEnvFlags@2@ABUMaterialMacro@2@@Z DD 019930522H
	DD	02H
	DD	FLAT:__unwindtable$?createCompiledShader@CompiledShaderGroup@Ogre@@QAEPAVCompiledShader@2@ABUShaderEnvFlags@2@ABUMaterialMacro@2@@Z
	DD	2 DUP(00H)
	DD	2 DUP(00H)
	DD	00H
	DD	00H
; Function compile flags: /Odtp
; File i:\svnroot\client\plugins\rendersystem_d3d9\ogred3d9shadermanager.cpp
xdata$x	ENDS
_TEXT	SEGMENT
tv298 = -148						; size = 4
tv195 = -144						; size = 4
tv77 = -140						; size = 4
_this$ = -136						; size = 4
$T157884 = -132						; size = 4
$T157883 = -128						; size = 4
$T157880 = -124						; size = 4
$T157879 = -120						; size = 4
$T157878 = -116						; size = 4
$T157875 = -112						; size = 4
$T157874 = -108						; size = 4
$T157871 = -104						; size = 4
$T157870 = -100						; size = 4
_bufferEqual$145265 = -93				; size = 1
_ptmp2$145262 = -92					; size = 4
_sizeEqual$145264 = -86					; size = 1
_keyEqual$145263 = -85					; size = 1
_i$145258 = -84						; size = 4
_i$145238 = -80						; size = 4
_bufferSize$ = -76					; size = 4
_ptmp$ = -72						; size = 4
_macromgr$ = -68					; size = 32
_key$ = -36						; size = 16
_prs$ = -16						; size = 4
__$EHRec$ = -12						; size = 12
_env$ = 8						; size = 4
_macros$ = 12						; size = 4
?createCompiledShader@CompiledShaderGroup@Ogre@@QAEPAVCompiledShader@2@ABUShaderEnvFlags@2@ABUMaterialMacro@2@@Z PROC ; Ogre::CompiledShaderGroup::createCompiledShader
; _this$ = ecx

; 688  : 	{

	push	ebp
	mov	ebp, esp
	push	-1
	push	__ehhandler$?createCompiledShader@CompiledShaderGroup@Ogre@@QAEPAVCompiledShader@2@ABUShaderEnvFlags@2@ABUMaterialMacro@2@@Z
	mov	eax, DWORD PTR fs:0
	push	eax
	sub	esp, 136				; 00000088H
	push	esi
	mov	eax, DWORD PTR ___security_cookie
	xor	eax, ebp
	push	eax
	lea	eax, DWORD PTR __$EHRec$[ebp]
	mov	DWORD PTR fs:0, eax
	mov	DWORD PTR _this$[ebp], ecx

; 689  : 		ShaderEnvKey key;

	lea	ecx, DWORD PTR _key$[ebp]
	call	??0ShaderEnvKey@Ogre@@QAE@XZ		; Ogre::ShaderEnvKey::ShaderEnvKey

; 690  : 		key.env = env;

	mov	eax, DWORD PTR _env$[ebp]
	mov	ecx, DWORD PTR [eax]
	mov	edx, DWORD PTR [eax+4]
	mov	DWORD PTR _key$[ebp], ecx
	mov	DWORD PTR _key$[ebp+4], edx

; 691  : 		key.macros = macros;

	mov	eax, DWORD PTR _macros$[ebp]
	mov	ecx, DWORD PTR [eax]
	mov	edx, DWORD PTR [eax+4]
	mov	DWORD PTR _key$[ebp+8], ecx
	mov	DWORD PTR _key$[ebp+12], edx

; 692  : 
; 693  : 		CompiledShader *ptmp = new CompiledShader(m_pMtlTemplate, m_Type);

	push	368					; 00000170H
	call	??2@YAPAXI@Z				; operator new
	add	esp, 4
	mov	DWORD PTR $T157871[ebp], eax
	mov	DWORD PTR __$EHRec$[ebp+8], 0
	cmp	DWORD PTR $T157871[ebp], 0
	je	SHORT $LN21@createComp
	mov	eax, DWORD PTR _this$[ebp]
	mov	ecx, DWORD PTR [eax]
	push	ecx
	mov	edx, DWORD PTR _this$[ebp]
	mov	eax, DWORD PTR [edx+4]
	push	eax
	mov	ecx, DWORD PTR $T157871[ebp]
	call	??0CompiledShader@Ogre@@QAE@PAVD3DMaterialTemplate@1@W4COMPILED_TYPE@1@@Z ; Ogre::CompiledShader::CompiledShader
	mov	DWORD PTR tv77[ebp], eax
	jmp	SHORT $LN22@createComp
$LN21@createComp:
	mov	DWORD PTR tv77[ebp], 0
$LN22@createComp:
	mov	ecx, DWORD PTR tv77[ebp]
	mov	DWORD PTR $T157870[ebp], ecx
	mov	DWORD PTR __$EHRec$[ebp+8], -1
	mov	edx, DWORD PTR $T157870[ebp]
	mov	DWORD PTR _ptmp$[ebp], edx

; 694  : 
; 695  : 		D3D9RenderSystem *prs = static_cast<D3D9RenderSystem *>(RenderSystem::getSingletonPtr());

	call	DWORD PTR __imp_?getSingletonPtr@?$Singleton@VRenderSystem@Ogre@@@Ogre@@SAPAVRenderSystem@2@XZ
	mov	DWORD PTR _prs$[ebp], eax

; 696  : 
; 697  : 		ShaderMacroMgr macromgr;

	lea	ecx, DWORD PTR _macromgr$[ebp]
	call	??0ShaderMacroMgr@Ogre@@QAE@XZ		; Ogre::ShaderMacroMgr::ShaderMacroMgr
	mov	DWORD PTR __$EHRec$[ebp+8], 1

; 698  : 		macromgr.createFromShaderEnv(env);

	mov	eax, DWORD PTR _env$[ebp]
	push	eax
	lea	ecx, DWORD PTR _macromgr$[ebp]
	call	?createFromShaderEnv@ShaderMacroMgr@Ogre@@QAEXABUShaderEnvFlags@2@@Z ; Ogre::ShaderMacroMgr::createFromShaderEnv

; 699  : 
; 700  : 		for(int i=0; i<MaterialMacro::MAX_MACRO; i++)

	mov	DWORD PTR _i$145238[ebp], 0
	jmp	SHORT $LN18@createComp
$LN17@createComp:
	mov	ecx, DWORD PTR _i$145238[ebp]
	add	ecx, 1
	mov	DWORD PTR _i$145238[ebp], ecx
$LN18@createComp:
	cmp	DWORD PTR _i$145238[ebp], 4
	jge	SHORT $LN16@createComp

; 701  : 		{
; 702  : 			if(macros.indices[i] > 0)

	mov	edx, DWORD PTR _macros$[ebp]
	add	edx, DWORD PTR _i$145238[ebp]
	movzx	eax, BYTE PTR [edx]
	test	eax, eax
	jle	SHORT $LN15@createComp

; 703  : 			{
; 704  : 				macromgr.AddMacro((const char *)m_pMtlTemplate->getParam(macros.indices[i]-1)->name, macros.value[i]);

	mov	ecx, DWORD PTR _macros$[ebp]
	add	ecx, DWORD PTR _i$145238[ebp]
	movzx	edx, BYTE PTR [ecx+4]
	push	edx
	mov	eax, DWORD PTR _macros$[ebp]
	add	eax, DWORD PTR _i$145238[ebp]
	movzx	ecx, BYTE PTR [eax]
	sub	ecx, 1
	push	ecx
	mov	edx, DWORD PTR _this$[ebp]
	mov	ecx, DWORD PTR [edx+4]
	call	DWORD PTR __imp_?getParam@MaterialTemplate@Ogre@@QAEPAUParamDefine@12@I@Z
	mov	ecx, eax
	call	DWORD PTR __imp_??BFixedString@Ogre@@QBEPBDXZ
	push	eax
	lea	ecx, DWORD PTR _macromgr$[ebp]
	call	?AddMacro@ShaderMacroMgr@Ogre@@QAEXPBDH@Z ; Ogre::ShaderMacroMgr::AddMacro
$LN15@createComp:

; 705  : 			}
; 706  : 		}

	jmp	SHORT $LN17@createComp
$LN16@createComp:

; 707  : 
; 708  : 		if(m_Type == COMPILED_EFFECT)

	mov	eax, DWORD PTR _this$[ebp]
	cmp	DWORD PTR [eax], 0
	jne	SHORT $LN14@createComp

; 709  : 		{
; 710  : 			ptmp->m_pBuffer = prs->compileCode(m_Path, 0, macromgr.GetMacros());

	push	0
	push	0
	push	0
	lea	ecx, DWORD PTR _macromgr$[ebp]
	call	?GetMacros@ShaderMacroMgr@Ogre@@QAEPBU_D3DXMACRO@@XZ ; Ogre::ShaderMacroMgr::GetMacros
	push	eax
	push	0
	mov	ecx, DWORD PTR _this$[ebp]
	add	ecx, 8
	call	DWORD PTR __imp_??BFixedString@Ogre@@QBEPBDXZ
	push	eax
	mov	ecx, DWORD PTR _prs$[ebp]
	call	?compileCode@D3D9RenderSystem@Ogre@@QAEPAUID3DXBuffer@@PBDIPBU_D3DXMACRO@@00PAPAUID3DXConstantTable@@@Z ; Ogre::D3D9RenderSystem::compileCode
	mov	ecx, DWORD PTR _ptmp$[ebp]
	mov	DWORD PTR [ecx+12], eax
	jmp	$LN13@createComp
$LN14@createComp:

; 711  : 		}
; 712  : 		else if(m_Type == COMPILED_VS)

	mov	edx, DWORD PTR _this$[ebp]
	cmp	DWORD PTR [edx], 1
	jne	SHORT $LN12@createComp

; 713  : 		{
; 714  : 			ptmp->m_pBuffer = prs->compileCode(m_Path, 0, macromgr.GetMacros(), "VSMain", "vs_2_0", &ptmp->m_pConst);

	mov	eax, DWORD PTR _ptmp$[ebp]
	add	eax, 56					; 00000038H
	push	eax
	push	OFFSET $SG145247
	push	OFFSET $SG145248
	lea	ecx, DWORD PTR _macromgr$[ebp]
	call	?GetMacros@ShaderMacroMgr@Ogre@@QAEPBU_D3DXMACRO@@XZ ; Ogre::ShaderMacroMgr::GetMacros
	push	eax
	push	0
	mov	ecx, DWORD PTR _this$[ebp]
	add	ecx, 8
	call	DWORD PTR __imp_??BFixedString@Ogre@@QBEPBDXZ
	push	eax
	mov	ecx, DWORD PTR _prs$[ebp]
	call	?compileCode@D3D9RenderSystem@Ogre@@QAEPAUID3DXBuffer@@PBDIPBU_D3DXMACRO@@00PAPAUID3DXConstantTable@@@Z ; Ogre::D3D9RenderSystem::compileCode
	mov	ecx, DWORD PTR _ptmp$[ebp]
	mov	DWORD PTR [ecx+12], eax

; 715  : 		}
; 716  : 		else

	jmp	SHORT $LN13@createComp
$LN12@createComp:

; 717  : 		{
; 718  : 			ptmp->m_pBuffer = prs->compileCode(m_Path, 0, macromgr.GetMacros(), "PSMain", "ps_2_0", &ptmp->m_pConst);

	mov	edx, DWORD PTR _ptmp$[ebp]
	add	edx, 56					; 00000038H
	push	edx
	push	OFFSET $SG145250
	push	OFFSET $SG145251
	lea	ecx, DWORD PTR _macromgr$[ebp]
	call	?GetMacros@ShaderMacroMgr@Ogre@@QAEPBU_D3DXMACRO@@XZ ; Ogre::ShaderMacroMgr::GetMacros
	push	eax
	push	0
	mov	ecx, DWORD PTR _this$[ebp]
	add	ecx, 8
	call	DWORD PTR __imp_??BFixedString@Ogre@@QBEPBDXZ
	push	eax
	mov	ecx, DWORD PTR _prs$[ebp]
	call	?compileCode@D3D9RenderSystem@Ogre@@QAEPAUID3DXBuffer@@PBDIPBU_D3DXMACRO@@00PAPAUID3DXConstantTable@@@Z ; Ogre::D3D9RenderSystem::compileCode
	mov	ecx, DWORD PTR _ptmp$[ebp]
	mov	DWORD PTR [ecx+12], eax
$LN13@createComp:

; 719  : 		}
; 720  : 
; 721  : 		if(ptmp->m_pBuffer == NULL)

	mov	edx, DWORD PTR _ptmp$[ebp]
	cmp	DWORD PTR [edx+12], 0
	jne	SHORT $LN10@createComp

; 722  : 		{
; 723  : 			delete ptmp;

	mov	eax, DWORD PTR _ptmp$[ebp]
	mov	DWORD PTR $T157875[ebp], eax
	mov	ecx, DWORD PTR $T157875[ebp]
	mov	DWORD PTR $T157874[ebp], ecx
	cmp	DWORD PTR $T157874[ebp], 0
	je	SHORT $LN23@createComp
	push	1
	mov	ecx, DWORD PTR $T157874[ebp]
	call	??_GCompiledShader@Ogre@@QAEPAXI@Z
	mov	DWORD PTR tv195[ebp], eax
	jmp	SHORT $LN24@createComp
$LN23@createComp:
	mov	DWORD PTR tv195[ebp], 0
$LN24@createComp:

; 724  : 			return NULL;

	mov	DWORD PTR $T157878[ebp], 0
	mov	DWORD PTR __$EHRec$[ebp+8], -1
	lea	ecx, DWORD PTR _macromgr$[ebp]
	call	??1ShaderMacroMgr@Ogre@@QAE@XZ		; Ogre::ShaderMacroMgr::~ShaderMacroMgr
	mov	eax, DWORD PTR $T157878[ebp]
	jmp	$LN19@createComp
$LN10@createComp:

; 725  : 		}
; 726  : 
; 727  : 		ptmp->m_BufferKey = StringUtil::hash((const char *)ptmp->m_pBuffer->GetBufferPointer(), 3, int(ptmp->m_pBuffer->GetBufferSize()));

	mov	edx, DWORD PTR _ptmp$[ebp]
	mov	eax, DWORD PTR [edx+12]
	mov	ecx, DWORD PTR _ptmp$[ebp]
	mov	edx, DWORD PTR [ecx+12]
	mov	eax, DWORD PTR [eax]
	push	edx
	mov	ecx, DWORD PTR [eax+16]
	call	ecx
	push	eax
	push	3
	mov	edx, DWORD PTR _ptmp$[ebp]
	mov	eax, DWORD PTR [edx+12]
	mov	ecx, DWORD PTR _ptmp$[ebp]
	mov	edx, DWORD PTR [ecx+12]
	mov	eax, DWORD PTR [eax]
	push	edx
	mov	ecx, DWORD PTR [eax+12]
	call	ecx
	push	eax
	call	DWORD PTR __imp_?hash@StringUtil@Ogre@@SAIPBDIH@Z
	add	esp, 12					; 0000000cH
	mov	edx, DWORD PTR _ptmp$[ebp]
	mov	DWORD PTR [edx+40], eax

; 728  : 
; 729  : 		// copy compiled buffer
; 730  : 		uint bufferSize = ptmp->m_pBuffer->GetBufferSize();

	mov	eax, DWORD PTR _ptmp$[ebp]
	mov	ecx, DWORD PTR [eax+12]
	mov	edx, DWORD PTR _ptmp$[ebp]
	mov	eax, DWORD PTR [edx+12]
	mov	ecx, DWORD PTR [ecx]
	push	eax
	mov	edx, DWORD PTR [ecx+16]
	call	edx
	mov	DWORD PTR _bufferSize$[ebp], eax

; 731  : 		ptmp->m_CompiledBuf.resize(bufferSize);

	mov	eax, DWORD PTR _bufferSize$[ebp]
	push	eax
	mov	ecx, DWORD PTR _ptmp$[ebp]
	add	ecx, 16					; 00000010H
	call	?resize@?$vector@DV?$allocator@D@std@@@std@@QAEXI@Z ; std::vector<char,std::allocator<char> >::resize

; 732  : 		memcpy(&ptmp->m_CompiledBuf[0], ptmp->m_pBuffer->GetBufferPointer(), bufferSize);

	mov	ecx, DWORD PTR _bufferSize$[ebp]
	push	ecx
	mov	edx, DWORD PTR _ptmp$[ebp]
	mov	eax, DWORD PTR [edx+12]
	mov	ecx, DWORD PTR _ptmp$[ebp]
	mov	edx, DWORD PTR [ecx+12]
	mov	eax, DWORD PTR [eax]
	push	edx
	mov	ecx, DWORD PTR [eax+12]
	call	ecx
	push	eax
	push	0
	mov	ecx, DWORD PTR _ptmp$[ebp]
	add	ecx, 16					; 00000010H
	call	??A?$vector@DV?$allocator@D@std@@@std@@QAEAADI@Z ; std::vector<char,std::allocator<char> >::operator[]
	push	eax
	call	_memcpy
	add	esp, 12					; 0000000cH

; 733  : 
; 734  : 		for(size_t i=0; i<m_Shaders.size(); i++)

	mov	DWORD PTR _i$145258[ebp], 0
	jmp	SHORT $LN9@createComp
$LN8@createComp:
	mov	edx, DWORD PTR _i$145258[ebp]
	add	edx, 1
	mov	DWORD PTR _i$145258[ebp], edx
$LN9@createComp:
	mov	ecx, DWORD PTR _this$[ebp]
	add	ecx, 12					; 0000000cH
	call	?size@?$vector@PAVCompiledShader@Ogre@@V?$allocator@PAVCompiledShader@Ogre@@@std@@@std@@QBEIXZ ; std::vector<Ogre::CompiledShader *,std::allocator<Ogre::CompiledShader *> >::size
	cmp	DWORD PTR _i$145258[ebp], eax
	jae	$LN7@createComp

; 735  : 		{
; 736  : 			CompiledShader *ptmp2 = m_Shaders[i];

	mov	eax, DWORD PTR _i$145258[ebp]
	push	eax
	mov	ecx, DWORD PTR _this$[ebp]
	add	ecx, 12					; 0000000cH
	call	??A?$vector@PAVCompiledShader@Ogre@@V?$allocator@PAVCompiledShader@Ogre@@@std@@@std@@QAEAAPAVCompiledShader@Ogre@@I@Z ; std::vector<Ogre::CompiledShader *,std::allocator<Ogre::CompiledShader *> >::operator[]
	mov	ecx, DWORD PTR [eax]
	mov	DWORD PTR _ptmp2$145262[ebp], ecx

; 737  : 			bool keyEqual = (ptmp->m_BufferKey==ptmp2->m_BufferKey);

	mov	edx, DWORD PTR _ptmp$[ebp]
	mov	eax, DWORD PTR _ptmp2$145262[ebp]
	mov	ecx, DWORD PTR [edx+40]
	xor	edx, edx
	cmp	ecx, DWORD PTR [eax+40]
	sete	dl
	mov	BYTE PTR _keyEqual$145263[ebp], dl

; 738  : 			bool sizeEqual = (ptmp->m_CompiledBuf.size() == ptmp2->m_CompiledBuf.size());

	mov	ecx, DWORD PTR _ptmp$[ebp]
	add	ecx, 16					; 00000010H
	call	?size@?$vector@DV?$allocator@D@std@@@std@@QBEIXZ ; std::vector<char,std::allocator<char> >::size
	mov	esi, eax
	mov	ecx, DWORD PTR _ptmp2$145262[ebp]
	add	ecx, 16					; 00000010H
	call	?size@?$vector@DV?$allocator@D@std@@@std@@QBEIXZ ; std::vector<char,std::allocator<char> >::size
	xor	ecx, ecx
	cmp	esi, eax
	sete	cl
	mov	BYTE PTR _sizeEqual$145264[ebp], cl

; 739  : 			bool bufferEqual = false;

	mov	BYTE PTR _bufferEqual$145265[ebp], 0

; 740  : 			if (keyEqual && sizeEqual)

	movzx	edx, BYTE PTR _keyEqual$145263[ebp]
	test	edx, edx
	je	SHORT $LN6@createComp
	movzx	eax, BYTE PTR _sizeEqual$145264[ebp]
	test	eax, eax
	je	SHORT $LN6@createComp

; 741  : 			{
; 742  : 				bufferEqual = (0 == memcmp(&ptmp->m_CompiledBuf[0],
; 743  : 					&ptmp2->m_CompiledBuf[0], ptmp->m_CompiledBuf.size()));

	mov	ecx, DWORD PTR _ptmp$[ebp]
	add	ecx, 16					; 00000010H
	call	?size@?$vector@DV?$allocator@D@std@@@std@@QBEIXZ ; std::vector<char,std::allocator<char> >::size
	push	eax
	push	0
	mov	ecx, DWORD PTR _ptmp2$145262[ebp]
	add	ecx, 16					; 00000010H
	call	??A?$vector@DV?$allocator@D@std@@@std@@QAEAADI@Z ; std::vector<char,std::allocator<char> >::operator[]
	push	eax
	push	0
	mov	ecx, DWORD PTR _ptmp$[ebp]
	add	ecx, 16					; 00000010H
	call	??A?$vector@DV?$allocator@D@std@@@std@@QAEAADI@Z ; std::vector<char,std::allocator<char> >::operator[]
	push	eax
	call	_memcmp
	add	esp, 12					; 0000000cH
	neg	eax
	sbb	eax, eax
	add	eax, 1
	mov	BYTE PTR _bufferEqual$145265[ebp], al
$LN6@createComp:

; 744  : 			}
; 745  : 			//bool sizeEqual = (ptmp->m_pBuffer->GetBufferSize()==ptmp2->m_pBuffer->GetBufferSize());
; 746  : 			//bool bufferEqual = (0 == memcmp(ptmp->m_pBuffer->GetBufferPointer(), 
; 747  : 			//	ptmp2->m_pBuffer->GetBufferPointer(), ptmp->m_pBuffer->GetBufferSize()));
; 748  : 
; 749  : 			if (keyEqual && sizeEqual && bufferEqual )

	movzx	ecx, BYTE PTR _keyEqual$145263[ebp]
	test	ecx, ecx
	je	$LN5@createComp
	movzx	edx, BYTE PTR _sizeEqual$145264[ebp]
	test	edx, edx
	je	$LN5@createComp
	movzx	eax, BYTE PTR _bufferEqual$145265[ebp]
	test	eax, eax
	je	$LN5@createComp

; 750  : 			{
; 751  : 				delete ptmp;

	mov	ecx, DWORD PTR _ptmp$[ebp]
	mov	DWORD PTR $T157880[ebp], ecx
	mov	edx, DWORD PTR $T157880[ebp]
	mov	DWORD PTR $T157879[ebp], edx
	cmp	DWORD PTR $T157879[ebp], 0
	je	SHORT $LN25@createComp
	push	1
	mov	ecx, DWORD PTR $T157879[ebp]
	call	??_GCompiledShader@Ogre@@QAEPAXI@Z
	mov	DWORD PTR tv298[ebp], eax
	jmp	SHORT $LN26@createComp
$LN25@createComp:
	mov	DWORD PTR tv298[ebp], 0
$LN26@createComp:

; 752  : 
; 753  : 				// m_Shaders.push_back(ptmp2);(不要这个，释放时会有问题)
; 754  : 				m_MacroShaderMap[key] = ptmp2;

	lea	eax, DWORD PTR _key$[ebp]
	push	eax
	mov	ecx, DWORD PTR _this$[ebp]
	add	ecx, 36					; 00000024H
	call	??A?$map@TShaderEnvKey@Ogre@@PAVCompiledShader@2@U?$less@TShaderEnvKey@Ogre@@@std@@V?$allocator@U?$pair@$$CBTShaderEnvKey@Ogre@@PAVCompiledShader@2@@std@@@5@@std@@QAEAAPAVCompiledShader@Ogre@@ABTShaderEnvKey@3@@Z ; std::map<Ogre::ShaderEnvKey,Ogre::CompiledShader *,std::less<Ogre::ShaderEnvKey>,std::allocator<std::pair<Ogre::ShaderEnvKey const ,Ogre::CompiledShader *> > >::operator[]
	mov	ecx, DWORD PTR _ptmp2$145262[ebp]
	mov	DWORD PTR [eax], ecx

; 755  : 				ptmp2->addShaderKey(key);

	sub	esp, 16					; 00000010H
	mov	edx, esp
	mov	eax, DWORD PTR _key$[ebp]
	mov	DWORD PTR [edx], eax
	mov	ecx, DWORD PTR _key$[ebp+4]
	mov	DWORD PTR [edx+4], ecx
	mov	eax, DWORD PTR _key$[ebp+8]
	mov	DWORD PTR [edx+8], eax
	mov	ecx, DWORD PTR _key$[ebp+12]
	mov	DWORD PTR [edx+12], ecx
	mov	ecx, DWORD PTR _ptmp2$145262[ebp]
	call	?addShaderKey@CompiledShader@Ogre@@QAEXTShaderEnvKey@2@@Z ; Ogre::CompiledShader::addShaderKey

; 756  : 
; 757  : 				return ptmp2;

	mov	edx, DWORD PTR _ptmp2$145262[ebp]
	mov	DWORD PTR $T157883[ebp], edx
	mov	DWORD PTR __$EHRec$[ebp+8], -1
	lea	ecx, DWORD PTR _macromgr$[ebp]
	call	??1ShaderMacroMgr@Ogre@@QAE@XZ		; Ogre::ShaderMacroMgr::~ShaderMacroMgr
	mov	eax, DWORD PTR $T157883[ebp]
	jmp	$LN19@createComp
$LN5@createComp:

; 758  : 			}
; 759  : 		}

	jmp	$LN8@createComp
$LN7@createComp:

; 760  : 
; 761  : 		if(m_Type == COMPILED_EFFECT)

	mov	eax, DWORD PTR _this$[ebp]
	cmp	DWORD PTR [eax], 0
	jne	SHORT $LN4@createComp

; 762  : 		{
; 763  : 			ptmp->m_pEffect = prs->createD3DXEffect(ptmp->m_pBuffer);

	mov	ecx, DWORD PTR _ptmp$[ebp]
	mov	edx, DWORD PTR [ecx+12]
	push	edx
	mov	ecx, DWORD PTR _prs$[ebp]
	call	?createD3DXEffect@D3D9RenderSystem@Ogre@@QAEPAUID3DXEffect@@PAUID3DXBuffer@@@Z ; Ogre::D3D9RenderSystem::createD3DXEffect
	mov	ecx, DWORD PTR _ptmp$[ebp]
	mov	DWORD PTR [ecx+44], eax
	jmp	SHORT $LN3@createComp
$LN4@createComp:

; 764  : 		}
; 765  : 		else if(m_Type == COMPILED_VS)

	mov	edx, DWORD PTR _this$[ebp]
	cmp	DWORD PTR [edx], 1
	jne	SHORT $LN2@createComp

; 766  : 		{
; 767  : 			ptmp->m_pVS = prs->createVertexShader(ptmp->m_pBuffer);

	mov	eax, DWORD PTR _ptmp$[ebp]
	mov	ecx, DWORD PTR [eax+12]
	push	ecx
	mov	ecx, DWORD PTR _prs$[ebp]
	call	?createVertexShader@D3D9RenderSystem@Ogre@@QAEPAUIDirect3DVertexShader9@@PAUID3DXBuffer@@@Z ; Ogre::D3D9RenderSystem::createVertexShader
	mov	edx, DWORD PTR _ptmp$[ebp]
	mov	DWORD PTR [edx+48], eax

; 768  : 		}
; 769  : 		else

	jmp	SHORT $LN3@createComp
$LN2@createComp:

; 770  : 		{
; 771  : 			ptmp->m_pPS = prs->createPixelShader(ptmp->m_pBuffer);

	mov	eax, DWORD PTR _ptmp$[ebp]
	mov	ecx, DWORD PTR [eax+12]
	push	ecx
	mov	ecx, DWORD PTR _prs$[ebp]
	call	?createPixelShader@D3D9RenderSystem@Ogre@@QAEPAUIDirect3DPixelShader9@@PAUID3DXBuffer@@@Z ; Ogre::D3D9RenderSystem::createPixelShader
	mov	edx, DWORD PTR _ptmp$[ebp]
	mov	DWORD PTR [edx+52], eax
$LN3@createComp:

; 772  : 		}
; 773  : 
; 774  : 		ptmp->cacheTechnique();

	mov	ecx, DWORD PTR _ptmp$[ebp]
	call	?cacheTechnique@CompiledShader@Ogre@@QAEXXZ ; Ogre::CompiledShader::cacheTechnique

; 775  : 		ptmp->cacheParamHandle();

	mov	ecx, DWORD PTR _ptmp$[ebp]
	call	?cacheParamHandle@CompiledShader@Ogre@@QAEXXZ ; Ogre::CompiledShader::cacheParamHandle

; 776  : 
; 777  : 		ptmp->m_bCreated = true;

	mov	eax, DWORD PTR _ptmp$[ebp]
	mov	BYTE PTR [eax+364], 1

; 778  : 
; 779  : 		ptmp->addShaderKey(key);

	sub	esp, 16					; 00000010H
	mov	ecx, esp
	mov	edx, DWORD PTR _key$[ebp]
	mov	DWORD PTR [ecx], edx
	mov	eax, DWORD PTR _key$[ebp+4]
	mov	DWORD PTR [ecx+4], eax
	mov	edx, DWORD PTR _key$[ebp+8]
	mov	DWORD PTR [ecx+8], edx
	mov	eax, DWORD PTR _key$[ebp+12]
	mov	DWORD PTR [ecx+12], eax
	mov	ecx, DWORD PTR _ptmp$[ebp]
	call	?addShaderKey@CompiledShader@Ogre@@QAEXTShaderEnvKey@2@@Z ; Ogre::CompiledShader::addShaderKey

; 780  : 
; 781  : 		m_MacroShaderMap[key] = ptmp;

	lea	ecx, DWORD PTR _key$[ebp]
	push	ecx
	mov	ecx, DWORD PTR _this$[ebp]
	add	ecx, 36					; 00000024H
	call	??A?$map@TShaderEnvKey@Ogre@@PAVCompiledShader@2@U?$less@TShaderEnvKey@Ogre@@@std@@V?$allocator@U?$pair@$$CBTShaderEnvKey@Ogre@@PAVCompiledShader@2@@std@@@5@@std@@QAEAAPAVCompiledShader@Ogre@@ABTShaderEnvKey@3@@Z ; std::map<Ogre::ShaderEnvKey,Ogre::CompiledShader *,std::less<Ogre::ShaderEnvKey>,std::allocator<std::pair<Ogre::ShaderEnvKey const ,Ogre::CompiledShader *> > >::operator[]
	mov	edx, DWORD PTR _ptmp$[ebp]
	mov	DWORD PTR [eax], edx

; 782  : 		m_Shaders.push_back(ptmp);

	lea	eax, DWORD PTR _ptmp$[ebp]
	push	eax
	mov	ecx, DWORD PTR _this$[ebp]
	add	ecx, 12					; 0000000cH
	call	?push_back@?$vector@PAVCompiledShader@Ogre@@V?$allocator@PAVCompiledShader@Ogre@@@std@@@std@@QAEXABQAVCompiledShader@Ogre@@@Z ; std::vector<Ogre::CompiledShader *,std::allocator<Ogre::CompiledShader *> >::push_back

; 783  : 
; 784  : 		return ptmp;

	mov	ecx, DWORD PTR _ptmp$[ebp]
	mov	DWORD PTR $T157884[ebp], ecx
	mov	DWORD PTR __$EHRec$[ebp+8], -1
	lea	ecx, DWORD PTR _macromgr$[ebp]
	call	??1ShaderMacroMgr@Ogre@@QAE@XZ		; Ogre::ShaderMacroMgr::~ShaderMacroMgr
	mov	eax, DWORD PTR $T157884[ebp]
$LN19@createComp:

; 785  : 	}

	mov	ecx, DWORD PTR __$EHRec$[ebp]
	mov	DWORD PTR fs:0, ecx
	pop	ecx
	pop	esi
	mov	esp, ebp
	pop	ebp
	ret	8
_TEXT	ENDS
text$x	SEGMENT
__unwindfunclet$?createCompiledShader@CompiledShaderGroup@Ogre@@QAEPAVCompiledShader@2@ABUShaderEnvFlags@2@ABUMaterialMacro@2@@Z$0:
	mov	eax, DWORD PTR $T157871[ebp]
	push	eax
	call	??3@YAXPAX@Z				; operator delete
	pop	ecx
	ret	0
__unwindfunclet$?createCompiledShader@CompiledShaderGroup@Ogre@@QAEPAVCompiledShader@2@ABUShaderEnvFlags@2@ABUMaterialMacro@2@@Z$1:
	lea	ecx, DWORD PTR _macromgr$[ebp]
	jmp	??1ShaderMacroMgr@Ogre@@QAE@XZ		; Ogre::ShaderMacroMgr::~ShaderMacroMgr
__ehhandler$?createCompiledShader@CompiledShaderGroup@Ogre@@QAEPAVCompiledShader@2@ABUShaderEnvFlags@2@ABUMaterialMacro@2@@Z:
	mov	edx, DWORD PTR [esp+8]
	lea	eax, DWORD PTR [edx+12]
	mov	ecx, DWORD PTR [edx-144]
	xor	ecx, eax
	call	@__security_check_cookie@4
	mov	eax, OFFSET __ehfuncinfo$?createCompiledShader@CompiledShaderGroup@Ogre@@QAEPAVCompiledShader@2@ABUShaderEnvFlags@2@ABUMaterialMacro@2@@Z
	jmp	___CxxFrameHandler3
text$x	ENDS
?createCompiledShader@CompiledShaderGroup@Ogre@@QAEPAVCompiledShader@2@ABUShaderEnvFlags@2@ABUMaterialMacro@2@@Z ENDP ; Ogre::CompiledShaderGroup::createCompiledShader
PUBLIC	?push_back@?$vector@TShaderEnvKey@Ogre@@V?$allocator@TShaderEnvKey@Ogre@@@std@@@std@@QAEXABTShaderEnvKey@Ogre@@@Z ; std::vector<Ogre::ShaderEnvKey,std::allocator<Ogre::ShaderEnvKey> >::push_back
PUBLIC	?hasShaderKey@CompiledShader@Ogre@@QAE_NTShaderEnvKey@2@@Z ; Ogre::CompiledShader::hasShaderKey
; Function compile flags: /Odtp
; File i:\svnroot\client\plugins\rendersystem_d3d9\ogred3d9shadermanager.h
;	COMDAT ?addShaderKey@CompiledShader@Ogre@@QAEXTShaderEnvKey@2@@Z
_TEXT	SEGMENT
_this$ = -4						; size = 4
_key$ = 8						; size = 16
?addShaderKey@CompiledShader@Ogre@@QAEXTShaderEnvKey@2@@Z PROC ; Ogre::CompiledShader::addShaderKey, COMDAT
; _this$ = ecx

; 47   : 		{

	push	ebp
	mov	ebp, esp
	push	ecx
	mov	DWORD PTR _this$[ebp], ecx

; 48   : 			if (!hasShaderKey(key))

	sub	esp, 16					; 00000010H
	mov	eax, esp
	mov	ecx, DWORD PTR _key$[ebp]
	mov	DWORD PTR [eax], ecx
	mov	edx, DWORD PTR _key$[ebp+4]
	mov	DWORD PTR [eax+4], edx
	mov	ecx, DWORD PTR _key$[ebp+8]
	mov	DWORD PTR [eax+8], ecx
	mov	edx, DWORD PTR _key$[ebp+12]
	mov	DWORD PTR [eax+12], edx
	mov	ecx, DWORD PTR _this$[ebp]
	call	?hasShaderKey@CompiledShader@Ogre@@QAE_NTShaderEnvKey@2@@Z ; Ogre::CompiledShader::hasShaderKey
	movzx	eax, al
	test	eax, eax
	jne	SHORT $LN2@addShaderK

; 49   : 			{
; 50   : 				mShaderEnvKeys.push_back(key);

	lea	ecx, DWORD PTR _key$[ebp]
	push	ecx
	mov	ecx, DWORD PTR _this$[ebp]
	add	ecx, 340				; 00000154H
	call	?push_back@?$vector@TShaderEnvKey@Ogre@@V?$allocator@TShaderEnvKey@Ogre@@@std@@@std@@QAEXABTShaderEnvKey@Ogre@@@Z ; std::vector<Ogre::ShaderEnvKey,std::allocator<Ogre::ShaderEnvKey> >::push_back
$LN2@addShaderK:

; 51   : 			}
; 52   : 		}

	mov	esp, ebp
	pop	ebp
	ret	16					; 00000010H
?addShaderKey@CompiledShader@Ogre@@QAEXTShaderEnvKey@2@@Z ENDP ; Ogre::CompiledShader::addShaderKey
_TEXT	ENDS
PUBLIC	??8Ogre@@YA_NABTShaderEnvKey@0@0@Z		; Ogre::operator==
PUBLIC	??A?$vector@TShaderEnvKey@Ogre@@V?$allocator@TShaderEnvKey@Ogre@@@std@@@std@@QAEAATShaderEnvKey@Ogre@@I@Z ; std::vector<Ogre::ShaderEnvKey,std::allocator<Ogre::ShaderEnvKey> >::operator[]
PUBLIC	?size@?$vector@TShaderEnvKey@Ogre@@V?$allocator@TShaderEnvKey@Ogre@@@std@@@std@@QBEIXZ ; std::vector<Ogre::ShaderEnvKey,std::allocator<Ogre::ShaderEnvKey> >::size
; Function compile flags: /Odtp
;	COMDAT ?hasShaderKey@CompiledShader@Ogre@@QAE_NTShaderEnvKey@2@@Z
_TEXT	SEGMENT
_this$ = -12						; size = 4
_i$133476 = -8						; size = 4
_bHas$ = -1						; size = 1
_key$ = 8						; size = 16
?hasShaderKey@CompiledShader@Ogre@@QAE_NTShaderEnvKey@2@@Z PROC ; Ogre::CompiledShader::hasShaderKey, COMDAT
; _this$ = ecx

; 55   : 		{

	push	ebp
	mov	ebp, esp
	sub	esp, 12					; 0000000cH
	mov	DWORD PTR _this$[ebp], ecx

; 56   : 			bool bHas = false;

	mov	BYTE PTR _bHas$[ebp], 0

; 57   : 
; 58   : 			for (int i=0; i<(int)mShaderEnvKeys.size(); i++)

	mov	DWORD PTR _i$133476[ebp], 0
	jmp	SHORT $LN4@hasShaderK
$LN3@hasShaderK:
	mov	eax, DWORD PTR _i$133476[ebp]
	add	eax, 1
	mov	DWORD PTR _i$133476[ebp], eax
$LN4@hasShaderK:
	mov	ecx, DWORD PTR _this$[ebp]
	add	ecx, 340				; 00000154H
	call	?size@?$vector@TShaderEnvKey@Ogre@@V?$allocator@TShaderEnvKey@Ogre@@@std@@@std@@QBEIXZ ; std::vector<Ogre::ShaderEnvKey,std::allocator<Ogre::ShaderEnvKey> >::size
	cmp	DWORD PTR _i$133476[ebp], eax
	jge	SHORT $LN2@hasShaderK

; 59   : 			{
; 60   : 				if (key == mShaderEnvKeys[i])

	mov	ecx, DWORD PTR _i$133476[ebp]
	push	ecx
	mov	ecx, DWORD PTR _this$[ebp]
	add	ecx, 340				; 00000154H
	call	??A?$vector@TShaderEnvKey@Ogre@@V?$allocator@TShaderEnvKey@Ogre@@@std@@@std@@QAEAATShaderEnvKey@Ogre@@I@Z ; std::vector<Ogre::ShaderEnvKey,std::allocator<Ogre::ShaderEnvKey> >::operator[]
	push	eax
	lea	edx, DWORD PTR _key$[ebp]
	push	edx
	call	??8Ogre@@YA_NABTShaderEnvKey@0@0@Z	; Ogre::operator==
	add	esp, 8
	movzx	eax, al
	test	eax, eax
	je	SHORT $LN1@hasShaderK

; 61   : 					bHas = true;

	mov	BYTE PTR _bHas$[ebp], 1
$LN1@hasShaderK:

; 62   : 			}

	jmp	SHORT $LN3@hasShaderK
$LN2@hasShaderK:

; 63   : 
; 64   : 			return bHas;

	mov	al, BYTE PTR _bHas$[ebp]

; 65   : 		}

	mov	esp, ebp
	pop	ebp
	ret	16					; 00000010H
?hasShaderKey@CompiledShader@Ogre@@QAE_NTShaderEnvKey@2@@Z ENDP ; Ogre::CompiledShader::hasShaderKey
; Function compile flags: /Odtp
; File i:\svnroot\client\plugins\rendersystem_d3d9\ogred3dmaterialtemplate.h
_TEXT	ENDS
;	COMDAT ??8Ogre@@YA_NABTShaderEnvKey@0@0@Z
_TEXT	SEGMENT
tv68 = -20						; size = 4
tv84 = -16						; size = 4
tv83 = -12						; size = 4
tv73 = -8						; size = 4
tv72 = -4						; size = 4
_key1$ = 8						; size = 4
_key2$ = 12						; size = 4
??8Ogre@@YA_NABTShaderEnvKey@0@0@Z PROC			; Ogre::operator==, COMDAT

; 37   : 	{

	push	ebp
	mov	ebp, esp
	sub	esp, 20					; 00000014H

; 38   : 		return key1.keydata[0] == key2.keydata[0] && 
; 39   : 			key1.keydata[1] == key2.keydata[1];

	mov	eax, DWORD PTR _key1$[ebp]
	mov	ecx, DWORD PTR _key2$[ebp]
	mov	DWORD PTR tv72[ebp], eax
	mov	DWORD PTR tv73[ebp], ecx
	mov	edx, DWORD PTR tv72[ebp]
	mov	eax, DWORD PTR tv73[ebp]
	mov	ecx, DWORD PTR [edx]
	cmp	ecx, DWORD PTR [eax]
	jne	SHORT $LN3@operator
	mov	edx, DWORD PTR tv72[ebp]
	mov	eax, DWORD PTR tv73[ebp]
	mov	ecx, DWORD PTR [edx+4]
	cmp	ecx, DWORD PTR [eax+4]
	jne	SHORT $LN3@operator
	mov	edx, DWORD PTR _key1$[ebp]
	mov	eax, DWORD PTR _key2$[ebp]
	mov	DWORD PTR tv83[ebp], edx
	mov	DWORD PTR tv84[ebp], eax
	mov	ecx, DWORD PTR tv83[ebp]
	mov	edx, DWORD PTR tv84[ebp]
	mov	eax, DWORD PTR [ecx+8]
	cmp	eax, DWORD PTR [edx+8]
	jne	SHORT $LN3@operator
	mov	ecx, DWORD PTR tv83[ebp]
	mov	edx, DWORD PTR tv84[ebp]
	mov	eax, DWORD PTR [ecx+12]
	cmp	eax, DWORD PTR [edx+12]
	jne	SHORT $LN3@operator
	mov	DWORD PTR tv68[ebp], 1
	jmp	SHORT $LN4@operator
$LN3@operator:
	mov	DWORD PTR tv68[ebp], 0
$LN4@operator:
	mov	al, BYTE PTR tv68[ebp]

; 40   : 	}

	mov	esp, ebp
	pop	ebp
	ret	0
??8Ogre@@YA_NABTShaderEnvKey@0@0@Z ENDP			; Ogre::operator==
; Function compile flags: /Odtp
; File i:\svnroot\client\plugins\rendersystem_d3d9\ogred3d9shadermanager.cpp
_TEXT	ENDS
;	COMDAT ?GetMacros@ShaderMacroMgr@Ogre@@QAEPBU_D3DXMACRO@@XZ
_TEXT	SEGMENT
_this$ = -4						; size = 4
?GetMacros@ShaderMacroMgr@Ogre@@QAEPBU_D3DXMACRO@@XZ PROC ; Ogre::ShaderMacroMgr::GetMacros, COMDAT
; _this$ = ecx

; 77   : 		const D3DXMACRO *GetMacros(){ return &m_Macros[0]; }

	push	ebp
	mov	ebp, esp
	push	ecx
	mov	DWORD PTR _this$[ebp], ecx
	push	0
	mov	ecx, DWORD PTR _this$[ebp]
	call	??A?$vector@U_D3DXMACRO@@V?$allocator@U_D3DXMACRO@@@std@@@std@@QAEAAU_D3DXMACRO@@I@Z ; std::vector<_D3DXMACRO,std::allocator<_D3DXMACRO> >::operator[]
	mov	esp, ebp
	pop	ebp
	ret	0
?GetMacros@ShaderMacroMgr@Ogre@@QAEPBU_D3DXMACRO@@XZ ENDP ; Ogre::ShaderMacroMgr::GetMacros
_TEXT	ENDS
PUBLIC	??Eiterator@?$_Tree@V?$_Tmap_traits@TShaderEnvKey@Ogre@@PAVCompiledShader@2@U?$less@TShaderEnvKey@Ogre@@@std@@V?$allocator@U?$pair@$$CBTShaderEnvKey@Ogre@@PAVCompiledShader@2@@std@@@5@$0A@@std@@@std@@QAE?AV012@H@Z ; std::_Tree<std::_Tmap_traits<Ogre::ShaderEnvKey,Ogre::CompiledShader *,std::less<Ogre::ShaderEnvKey>,std::allocator<std::pair<Ogre::ShaderEnvKey const ,Ogre::CompiledShader *> >,0> >::iterator::operator++
PUBLIC	?begin@?$_Tree@V?$_Tmap_traits@TShaderEnvKey@Ogre@@PAVCompiledShader@2@U?$less@TShaderEnvKey@Ogre@@@std@@V?$allocator@U?$pair@$$CBTShaderEnvKey@Ogre@@PAVCompiledShader@2@@std@@@5@$0A@@std@@@std@@QAE?AViterator@12@XZ ; std::_Tree<std::_Tmap_traits<Ogre::ShaderEnvKey,Ogre::CompiledShader *,std::less<Ogre::ShaderEnvKey>,std::allocator<std::pair<Ogre::ShaderEnvKey const ,Ogre::CompiledShader *> >,0> >::begin
PUBLIC	?compileAllShaders@CompiledShaderGroup@Ogre@@QAEXXZ ; Ogre::CompiledShaderGroup::compileAllShaders
; Function compile flags: /Odtp
_TEXT	SEGMENT
_this$ = -28						; size = 4
$T157903 = -24						; size = 8
$T157902 = -16						; size = 8
_iter$ = -8						; size = 8
?compileAllShaders@CompiledShaderGroup@Ogre@@QAEXXZ PROC ; Ogre::CompiledShaderGroup::compileAllShaders
; _this$ = ecx

; 788  : 	{

	push	ebp
	mov	ebp, esp
	sub	esp, 28					; 0000001cH
	mov	DWORD PTR _this$[ebp], ecx

; 789  : 		std::map<ShaderEnvKey, CompiledShader *>::iterator iter = m_MacroShaderMap.begin();

	lea	eax, DWORD PTR _iter$[ebp]
	push	eax
	mov	ecx, DWORD PTR _this$[ebp]
	add	ecx, 36					; 00000024H
	call	?begin@?$_Tree@V?$_Tmap_traits@TShaderEnvKey@Ogre@@PAVCompiledShader@2@U?$less@TShaderEnvKey@Ogre@@@std@@V?$allocator@U?$pair@$$CBTShaderEnvKey@Ogre@@PAVCompiledShader@2@@std@@@5@$0A@@std@@@std@@QAE?AViterator@12@XZ ; std::_Tree<std::_Tmap_traits<Ogre::ShaderEnvKey,Ogre::CompiledShader *,std::less<Ogre::ShaderEnvKey>,std::allocator<std::pair<Ogre::ShaderEnvKey const ,Ogre::CompiledShader *> >,0> >::begin
	jmp	SHORT $LN3@compileAll
$LN2@compileAll:

; 790  : 
; 791  : 		for (; iter!=m_MacroShaderMap.end(); iter++)

	push	0
	lea	ecx, DWORD PTR $T157902[ebp]
	push	ecx
	lea	ecx, DWORD PTR _iter$[ebp]
	call	??Eiterator@?$_Tree@V?$_Tmap_traits@TShaderEnvKey@Ogre@@PAVCompiledShader@2@U?$less@TShaderEnvKey@Ogre@@@std@@V?$allocator@U?$pair@$$CBTShaderEnvKey@Ogre@@PAVCompiledShader@2@@std@@@5@$0A@@std@@@std@@QAE?AV012@H@Z ; std::_Tree<std::_Tmap_traits<Ogre::ShaderEnvKey,Ogre::CompiledShader *,std::less<Ogre::ShaderEnvKey>,std::allocator<std::pair<Ogre::ShaderEnvKey const ,Ogre::CompiledShader *> >,0> >::iterator::operator++
$LN3@compileAll:
	lea	edx, DWORD PTR $T157903[ebp]
	push	edx
	mov	ecx, DWORD PTR _this$[ebp]
	add	ecx, 36					; 00000024H
	call	?end@?$_Tree@V?$_Tmap_traits@TShaderEnvKey@Ogre@@PAVCompiledShader@2@U?$less@TShaderEnvKey@Ogre@@@std@@V?$allocator@U?$pair@$$CBTShaderEnvKey@Ogre@@PAVCompiledShader@2@@std@@@5@$0A@@std@@@std@@QAE?AViterator@12@XZ ; std::_Tree<std::_Tmap_traits<Ogre::ShaderEnvKey,Ogre::CompiledShader *,std::less<Ogre::ShaderEnvKey>,std::allocator<std::pair<Ogre::ShaderEnvKey const ,Ogre::CompiledShader *> >,0> >::end
	push	eax
	lea	ecx, DWORD PTR _iter$[ebp]
	call	??9const_iterator@?$_Tree@V?$_Tmap_traits@TShaderEnvKey@Ogre@@PAVCompiledShader@2@U?$less@TShaderEnvKey@Ogre@@@std@@V?$allocator@U?$pair@$$CBTShaderEnvKey@Ogre@@PAVCompiledShader@2@@std@@@5@$0A@@std@@@std@@QBE_NABV012@@Z ; std::_Tree<std::_Tmap_traits<Ogre::ShaderEnvKey,Ogre::CompiledShader *,std::less<Ogre::ShaderEnvKey>,std::allocator<std::pair<Ogre::ShaderEnvKey const ,Ogre::CompiledShader *> >,0> >::const_iterator::operator!=
	movzx	eax, al
	test	eax, eax
	je	SHORT $LN4@compileAll

; 792  : 		{
; 793  : 			iter->second->create();

	lea	ecx, DWORD PTR _iter$[ebp]
	call	??Citerator@?$_Tree@V?$_Tmap_traits@TShaderEnvKey@Ogre@@PAVCompiledShader@2@U?$less@TShaderEnvKey@Ogre@@@std@@V?$allocator@U?$pair@$$CBTShaderEnvKey@Ogre@@PAVCompiledShader@2@@std@@@5@$0A@@std@@@std@@QBEPAU?$pair@$$CBTShaderEnvKey@Ogre@@PAVCompiledShader@2@@2@XZ ; std::_Tree<std::_Tmap_traits<Ogre::ShaderEnvKey,Ogre::CompiledShader *,std::less<Ogre::ShaderEnvKey>,std::allocator<std::pair<Ogre::ShaderEnvKey const ,Ogre::CompiledShader *> >,0> >::iterator::operator->
	mov	ecx, DWORD PTR [eax+16]
	call	?create@CompiledShader@Ogre@@QAE_NXZ	; Ogre::CompiledShader::create
	jmp	SHORT $LN2@compileAll
$LN4@compileAll:

; 794  : 		}
; 795  : 	}

	mov	esp, ebp
	pop	ebp
	ret	0
?compileAllShaders@CompiledShaderGroup@Ogre@@QAEXXZ ENDP ; Ogre::CompiledShaderGroup::compileAllShaders
_TEXT	ENDS
PUBLIC	??1?$vector@UPassData@D3DShaderTechnique@Ogre@@V?$allocator@UPassData@D3DShaderTechnique@Ogre@@@std@@@std@@QAE@XZ ; std::vector<Ogre::D3DShaderTechnique::PassData,std::allocator<Ogre::D3DShaderTechnique::PassData> >::~vector<Ogre::D3DShaderTechnique::PassData,std::allocator<Ogre::D3DShaderTechnique::PassData> >
PUBLIC	??1ShaderTechnique@Ogre@@MAE@XZ			; Ogre::ShaderTechnique::~ShaderTechnique
PUBLIC	??A?$vector@UPassData@D3DShaderTechnique@Ogre@@V?$allocator@UPassData@D3DShaderTechnique@Ogre@@@std@@@std@@QAEAAUPassData@D3DShaderTechnique@Ogre@@I@Z ; std::vector<Ogre::D3DShaderTechnique::PassData,std::allocator<Ogre::D3DShaderTechnique::PassData> >::operator[]
PUBLIC	?resize@?$vector@UPassData@D3DShaderTechnique@Ogre@@V?$allocator@UPassData@D3DShaderTechnique@Ogre@@@std@@@std@@QAEXI@Z ; std::vector<Ogre::D3DShaderTechnique::PassData,std::allocator<Ogre::D3DShaderTechnique::PassData> >::resize
PUBLIC	?size@?$vector@UPassDesc@Ogre@@V?$allocator@UPassDesc@Ogre@@@std@@@std@@QBEIXZ ; std::vector<Ogre::PassDesc,std::allocator<Ogre::PassDesc> >::size
PUBLIC	??0?$vector@UPassData@D3DShaderTechnique@Ogre@@V?$allocator@UPassData@D3DShaderTechnique@Ogre@@@std@@@std@@QAE@XZ ; std::vector<Ogre::D3DShaderTechnique::PassData,std::allocator<Ogre::D3DShaderTechnique::PassData> >::vector<Ogre::D3DShaderTechnique::PassData,std::allocator<Ogre::D3DShaderTechnique::PassData> >
PUBLIC	??_7D3DShaderTechnique@Ogre@@6B@		; Ogre::D3DShaderTechnique::`vftable'
PUBLIC	??0ShaderTechnique@Ogre@@QAE@XZ			; Ogre::ShaderTechnique::ShaderTechnique
PUBLIC	??0D3DShaderTechnique@Ogre@@QAE@PAVD3DMaterialTemplate@1@ABUShaderEnvFlags@1@ABUMaterialMacro@1@IW4RenderUsage@1@@Z ; Ogre::D3DShaderTechnique::D3DShaderTechnique
PUBLIC	??_R4D3DShaderTechnique@Ogre@@6B@		; Ogre::D3DShaderTechnique::`RTTI Complete Object Locator'
PUBLIC	??_R0?AVD3DShaderTechnique@Ogre@@@8		; Ogre::D3DShaderTechnique `RTTI Type Descriptor'
PUBLIC	??_R3D3DShaderTechnique@Ogre@@8			; Ogre::D3DShaderTechnique::`RTTI Class Hierarchy Descriptor'
PUBLIC	??_R2D3DShaderTechnique@Ogre@@8			; Ogre::D3DShaderTechnique::`RTTI Base Class Array'
PUBLIC	??_R1A@?0A@EA@D3DShaderTechnique@Ogre@@8	; Ogre::D3DShaderTechnique::`RTTI Base Class Descriptor at (0,-1,0,64)'
PUBLIC	??_R1A@?0A@EA@ShaderTechnique@Ogre@@8		; Ogre::ShaderTechnique::`RTTI Base Class Descriptor at (0,-1,0,64)'
PUBLIC	??_R0?AVShaderTechnique@Ogre@@@8		; Ogre::ShaderTechnique `RTTI Type Descriptor'
PUBLIC	??_R3ShaderTechnique@Ogre@@8			; Ogre::ShaderTechnique::`RTTI Class Hierarchy Descriptor'
PUBLIC	??_R2ShaderTechnique@Ogre@@8			; Ogre::ShaderTechnique::`RTTI Base Class Array'
PUBLIC	?begin@D3DShaderTechnique@Ogre@@UAEIXZ		; Ogre::D3DShaderTechnique::begin
PUBLIC	?end@D3DShaderTechnique@Ogre@@UAEXXZ		; Ogre::D3DShaderTechnique::end
PUBLIC	?beginPass@D3DShaderTechnique@Ogre@@UAEXI@Z	; Ogre::D3DShaderTechnique::beginPass
PUBLIC	?endPass@D3DShaderTechnique@Ogre@@UAEXXZ	; Ogre::D3DShaderTechnique::endPass
PUBLIC	?setConstant@D3DShaderTechnique@Ogre@@UAEXW4ShaderParamUsage@2@PBXI@Z ; Ogre::D3DShaderTechnique::setConstant
PUBLIC	?setConstant@D3DShaderTechnique@Ogre@@UAEXPBDPBXI@Z ; Ogre::D3DShaderTechnique::setConstant
PUBLIC	?setTexture@D3DShaderTechnique@Ogre@@UAEXW4ShaderParamUsage@2@PAVHardwarePixelBuffer@2@@Z ; Ogre::D3DShaderTechnique::setTexture
PUBLIC	?setTexture@D3DShaderTechnique@Ogre@@UAEXPBDPAVHardwarePixelBuffer@2@@Z ; Ogre::D3DShaderTechnique::setTexture
PUBLIC	?setStreamInput@D3DShaderTechnique@Ogre@@UAEXIPAPAVHardwareVertexBuffer@2@HPAI@Z ; Ogre::D3DShaderTechnique::setStreamInput
PUBLIC	?setStreamInput@D3DShaderTechnique@Ogre@@UAEXIPAVHardwareVertexBuffer@2@I@Z ; Ogre::D3DShaderTechnique::setStreamInput
PUBLIC	?setStreamInput@D3DShaderTechnique@Ogre@@UAEXIPAPAVHardwareVertexBuffer@2@PAI@Z ; Ogre::D3DShaderTechnique::setStreamInput
PUBLIC	?commitChanges@D3DShaderTechnique@Ogre@@UAEXXZ	; Ogre::D3DShaderTechnique::commitChanges
PUBLIC	?draw@D3DShaderTechnique@Ogre@@UAEXW4PrimitiveType@2@IIPAVHardwareIndexBuffer@2@II@Z ; Ogre::D3DShaderTechnique::draw
PUBLIC	?draw@D3DShaderTechnique@Ogre@@UAEXW4PrimitiveType@2@II@Z ; Ogre::D3DShaderTechnique::draw
PUBLIC	?getRequiredParams@D3DShaderTechnique@Ogre@@UAEIPAW4ShaderParamUsage@2@I@Z ; Ogre::D3DShaderTechnique::getRequiredParams
EXTRN	_memset:PROC
EXTRN	?getCompiledVSPS@D3DMaterialTemplate@Ogre@@QAEPAVCompiledShader@2@W4COMPILED_TYPE@2@PBDABUShaderEnvFlags@2@ABUMaterialMacro@2@@Z:PROC ; Ogre::D3DMaterialTemplate::getCompiledVSPS
EXTRN	??_7type_info@@6B@:QWORD			; type_info::`vftable'
EXTRN	??_ED3DShaderTechnique@Ogre@@UAEPAXI@Z:PROC	; Ogre::D3DShaderTechnique::`vector deleting destructor'
;	COMDAT ??_R2ShaderTechnique@Ogre@@8
rdata$r	SEGMENT
??_R2ShaderTechnique@Ogre@@8 DD FLAT:??_R1A@?0A@EA@ShaderTechnique@Ogre@@8 ; Ogre::ShaderTechnique::`RTTI Base Class Array'
rdata$r	ENDS
;	COMDAT ??_R3ShaderTechnique@Ogre@@8
rdata$r	SEGMENT
??_R3ShaderTechnique@Ogre@@8 DD 00H			; Ogre::ShaderTechnique::`RTTI Class Hierarchy Descriptor'
	DD	00H
	DD	01H
	DD	FLAT:??_R2ShaderTechnique@Ogre@@8
rdata$r	ENDS
;	COMDAT ??_R0?AVShaderTechnique@Ogre@@@8
_DATA	SEGMENT
??_R0?AVShaderTechnique@Ogre@@@8 DD FLAT:??_7type_info@@6B@ ; Ogre::ShaderTechnique `RTTI Type Descriptor'
	DD	00H
	DB	'.?AVShaderTechnique@Ogre@@', 00H
_DATA	ENDS
;	COMDAT ??_R1A@?0A@EA@ShaderTechnique@Ogre@@8
rdata$r	SEGMENT
??_R1A@?0A@EA@ShaderTechnique@Ogre@@8 DD FLAT:??_R0?AVShaderTechnique@Ogre@@@8 ; Ogre::ShaderTechnique::`RTTI Base Class Descriptor at (0,-1,0,64)'
	DD	00H
	DD	00H
	DD	0ffffffffH
	DD	00H
	DD	040H
	DD	FLAT:??_R3ShaderTechnique@Ogre@@8
rdata$r	ENDS
;	COMDAT ??_R1A@?0A@EA@D3DShaderTechnique@Ogre@@8
rdata$r	SEGMENT
??_R1A@?0A@EA@D3DShaderTechnique@Ogre@@8 DD FLAT:??_R0?AVD3DShaderTechnique@Ogre@@@8 ; Ogre::D3DShaderTechnique::`RTTI Base Class Descriptor at (0,-1,0,64)'
	DD	01H
	DD	00H
	DD	0ffffffffH
	DD	00H
	DD	040H
	DD	FLAT:??_R3D3DShaderTechnique@Ogre@@8
rdata$r	ENDS
;	COMDAT ??_R2D3DShaderTechnique@Ogre@@8
rdata$r	SEGMENT
??_R2D3DShaderTechnique@Ogre@@8 DD FLAT:??_R1A@?0A@EA@D3DShaderTechnique@Ogre@@8 ; Ogre::D3DShaderTechnique::`RTTI Base Class Array'
	DD	FLAT:??_R1A@?0A@EA@ShaderTechnique@Ogre@@8
rdata$r	ENDS
;	COMDAT ??_R3D3DShaderTechnique@Ogre@@8
rdata$r	SEGMENT
??_R3D3DShaderTechnique@Ogre@@8 DD 00H			; Ogre::D3DShaderTechnique::`RTTI Class Hierarchy Descriptor'
	DD	00H
	DD	02H
	DD	FLAT:??_R2D3DShaderTechnique@Ogre@@8
rdata$r	ENDS
;	COMDAT ??_R0?AVD3DShaderTechnique@Ogre@@@8
_DATA	SEGMENT
??_R0?AVD3DShaderTechnique@Ogre@@@8 DD FLAT:??_7type_info@@6B@ ; Ogre::D3DShaderTechnique `RTTI Type Descriptor'
	DD	00H
	DB	'.?AVD3DShaderTechnique@Ogre@@', 00H
_DATA	ENDS
;	COMDAT ??_R4D3DShaderTechnique@Ogre@@6B@
rdata$r	SEGMENT
??_R4D3DShaderTechnique@Ogre@@6B@ DD 00H		; Ogre::D3DShaderTechnique::`RTTI Complete Object Locator'
	DD	00H
	DD	00H
	DD	FLAT:??_R0?AVD3DShaderTechnique@Ogre@@@8
	DD	FLAT:??_R3D3DShaderTechnique@Ogre@@8
rdata$r	ENDS
;	COMDAT ??_7D3DShaderTechnique@Ogre@@6B@
CONST	SEGMENT
??_7D3DShaderTechnique@Ogre@@6B@ DD FLAT:??_R4D3DShaderTechnique@Ogre@@6B@ ; Ogre::D3DShaderTechnique::`vftable'
	DD	FLAT:?begin@D3DShaderTechnique@Ogre@@UAEIXZ
	DD	FLAT:?end@D3DShaderTechnique@Ogre@@UAEXXZ
	DD	FLAT:?beginPass@D3DShaderTechnique@Ogre@@UAEXI@Z
	DD	FLAT:?endPass@D3DShaderTechnique@Ogre@@UAEXXZ
	DD	FLAT:?setConstant@D3DShaderTechnique@Ogre@@UAEXW4ShaderParamUsage@2@PBXI@Z
	DD	FLAT:?setConstant@D3DShaderTechnique@Ogre@@UAEXPBDPBXI@Z
	DD	FLAT:?setTexture@D3DShaderTechnique@Ogre@@UAEXW4ShaderParamUsage@2@PAVHardwarePixelBuffer@2@@Z
	DD	FLAT:?setTexture@D3DShaderTechnique@Ogre@@UAEXPBDPAVHardwarePixelBuffer@2@@Z
	DD	FLAT:?setStreamInput@D3DShaderTechnique@Ogre@@UAEXIPAPAVHardwareVertexBuffer@2@HPAI@Z
	DD	FLAT:?setStreamInput@D3DShaderTechnique@Ogre@@UAEXIPAVHardwareVertexBuffer@2@I@Z
	DD	FLAT:?setStreamInput@D3DShaderTechnique@Ogre@@UAEXIPAPAVHardwareVertexBuffer@2@PAI@Z
	DD	FLAT:?commitChanges@D3DShaderTechnique@Ogre@@UAEXXZ
	DD	FLAT:?draw@D3DShaderTechnique@Ogre@@UAEXW4PrimitiveType@2@IIPAVHardwareIndexBuffer@2@II@Z
	DD	FLAT:?draw@D3DShaderTechnique@Ogre@@UAEXW4PrimitiveType@2@II@Z
	DD	FLAT:?getRequiredParams@D3DShaderTechnique@Ogre@@UAEIPAW4ShaderParamUsage@2@I@Z
	DD	FLAT:??_ED3DShaderTechnique@Ogre@@UAEPAXI@Z
CONST	ENDS
xdata$x	SEGMENT
__unwindtable$??0D3DShaderTechnique@Ogre@@QAE@PAVD3DMaterialTemplate@1@ABUShaderEnvFlags@1@ABUMaterialMacro@1@IW4RenderUsage@1@@Z DD 0ffffffffH
	DD	FLAT:__unwindfunclet$??0D3DShaderTechnique@Ogre@@QAE@PAVD3DMaterialTemplate@1@ABUShaderEnvFlags@1@ABUMaterialMacro@1@IW4RenderUsage@1@@Z$0
	DD	00H
	DD	FLAT:__unwindfunclet$??0D3DShaderTechnique@Ogre@@QAE@PAVD3DMaterialTemplate@1@ABUShaderEnvFlags@1@ABUMaterialMacro@1@IW4RenderUsage@1@@Z$1
__ehfuncinfo$??0D3DShaderTechnique@Ogre@@QAE@PAVD3DMaterialTemplate@1@ABUShaderEnvFlags@1@ABUMaterialMacro@1@IW4RenderUsage@1@@Z DD 019930522H
	DD	02H
	DD	FLAT:__unwindtable$??0D3DShaderTechnique@Ogre@@QAE@PAVD3DMaterialTemplate@1@ABUShaderEnvFlags@1@ABUMaterialMacro@1@IW4RenderUsage@1@@Z
	DD	2 DUP(00H)
	DD	2 DUP(00H)
	DD	00H
	DD	00H
; Function compile flags: /Odtp
xdata$x	ENDS
_TEXT	SEGMENT
_this$ = -48						; size = 4
_data$145334 = -44					; size = 4
_i$145330 = -40						; size = 4
_usage$145324 = -36					; size = 4
_data$145316 = -32					; size = 4
_desc$145317 = -28					; size = 4
_i$145312 = -24						; size = 4
_ptechdesc$ = -20					; size = 4
_npass$ = -16						; size = 4
__$EHRec$ = -12						; size = 12
_pmtltemplate$ = 8					; size = 4
_env$ = 12						; size = 4
_macros$ = 16						; size = 4
_lod$ = 20						; size = 4
_usage$ = 24						; size = 4
??0D3DShaderTechnique@Ogre@@QAE@PAVD3DMaterialTemplate@1@ABUShaderEnvFlags@1@ABUMaterialMacro@1@IW4RenderUsage@1@@Z PROC ; Ogre::D3DShaderTechnique::D3DShaderTechnique
; _this$ = ecx

; 799  : 	{

	push	ebp
	mov	ebp, esp
	push	-1
	push	__ehhandler$??0D3DShaderTechnique@Ogre@@QAE@PAVD3DMaterialTemplate@1@ABUShaderEnvFlags@1@ABUMaterialMacro@1@IW4RenderUsage@1@@Z
	mov	eax, DWORD PTR fs:0
	push	eax
	sub	esp, 36					; 00000024H
	mov	eax, DWORD PTR ___security_cookie
	xor	eax, ebp
	push	eax
	lea	eax, DWORD PTR __$EHRec$[ebp]
	mov	DWORD PTR fs:0, eax
	mov	DWORD PTR _this$[ebp], ecx
	mov	ecx, DWORD PTR _this$[ebp]
	call	??0ShaderTechnique@Ogre@@QAE@XZ
	mov	DWORD PTR __$EHRec$[ebp+8], 0
	mov	eax, DWORD PTR _this$[ebp]
	mov	DWORD PTR [eax], OFFSET ??_7D3DShaderTechnique@Ogre@@6B@
	mov	ecx, DWORD PTR _this$[ebp]
	mov	edx, DWORD PTR _pmtltemplate$[ebp]
	mov	DWORD PTR [ecx+4], edx
	mov	eax, DWORD PTR _this$[ebp]
	mov	DWORD PTR [eax+12], 0
	mov	ecx, DWORD PTR _this$[ebp]
	mov	DWORD PTR [ecx+220], 0
	mov	edx, DWORD PTR _this$[ebp]
	mov	DWORD PTR [edx+228], 0
	mov	ecx, DWORD PTR _this$[ebp]
	add	ecx, 232				; 000000e8H
	call	??0?$vector@UPassData@D3DShaderTechnique@Ogre@@V?$allocator@UPassData@D3DShaderTechnique@Ogre@@@std@@@std@@QAE@XZ ; std::vector<Ogre::D3DShaderTechnique::PassData,std::allocator<Ogre::D3DShaderTechnique::PassData> >::vector<Ogre::D3DShaderTechnique::PassData,std::allocator<Ogre::D3DShaderTechnique::PassData> >
	mov	BYTE PTR __$EHRec$[ebp+8], 1

; 800  : 		m_pEffect = pmtltemplate->getCompiledVSPS(COMPILED_EFFECT, NULL, env, macros);

	mov	eax, DWORD PTR _macros$[ebp]
	push	eax
	mov	ecx, DWORD PTR _env$[ebp]
	push	ecx
	push	0
	push	0
	mov	ecx, DWORD PTR _pmtltemplate$[ebp]
	call	?getCompiledVSPS@D3DMaterialTemplate@Ogre@@QAEPAVCompiledShader@2@W4COMPILED_TYPE@2@PBDABUShaderEnvFlags@2@ABUMaterialMacro@2@@Z ; Ogre::D3DMaterialTemplate::getCompiledVSPS
	mov	edx, DWORD PTR _this$[ebp]
	mov	DWORD PTR [edx+8], eax

; 801  : 		if(m_pEffect == NULL) 

	mov	eax, DWORD PTR _this$[ebp]
	cmp	DWORD PTR [eax+8], 0
	jne	SHORT $LN21@D3DShaderT

; 802  : 			return;

	jmp	$LN22@D3DShaderT
$LN21@D3DShaderT:

; 803  : 
; 804  : 		TechniqueDesc *ptechdesc = m_pEffect->getTechnique(lod, usage);

	mov	ecx, DWORD PTR _usage$[ebp]
	push	ecx
	mov	edx, DWORD PTR _lod$[ebp]
	push	edx
	mov	eax, DWORD PTR _this$[ebp]
	mov	ecx, DWORD PTR [eax+8]
	call	?getTechnique@CompiledShader@Ogre@@QAEPAUTechniqueDesc@2@IW4RenderUsage@2@@Z ; Ogre::CompiledShader::getTechnique
	mov	DWORD PTR _ptechdesc$[ebp], eax

; 805  : 		if(ptechdesc == NULL) 

	cmp	DWORD PTR _ptechdesc$[ebp], 0
	jne	SHORT $LN20@D3DShaderT

; 806  : 			return;

	jmp	$LN22@D3DShaderT
$LN20@D3DShaderT:

; 807  : 
; 808  : 		m_hTech = ptechdesc->htech;

	mov	ecx, DWORD PTR _this$[ebp]
	mov	edx, DWORD PTR _ptechdesc$[ebp]
	mov	eax, DWORD PTR [edx]
	mov	DWORD PTR [ecx+12], eax

; 809  : 		m_pDevice = m_pEffect->m_pDevice;

	mov	ecx, DWORD PTR _this$[ebp]
	mov	edx, DWORD PTR [ecx+8]
	mov	eax, DWORD PTR _this$[ebp]
	mov	ecx, DWORD PTR [edx+8]
	mov	DWORD PTR [eax+228], ecx

; 810  : 
; 811  : 		size_t npass = ptechdesc->m_Pass.size();

	mov	ecx, DWORD PTR _ptechdesc$[ebp]
	add	ecx, 12					; 0000000cH
	call	?size@?$vector@UPassDesc@Ogre@@V?$allocator@UPassDesc@Ogre@@@std@@@std@@QBEIXZ ; std::vector<Ogre::PassDesc,std::allocator<Ogre::PassDesc> >::size
	mov	DWORD PTR _npass$[ebp], eax

; 812  : 		m_AllPass.resize(npass);

	mov	edx, DWORD PTR _npass$[ebp]
	push	edx
	mov	ecx, DWORD PTR _this$[ebp]
	add	ecx, 232				; 000000e8H
	call	?resize@?$vector@UPassData@D3DShaderTechnique@Ogre@@V?$allocator@UPassData@D3DShaderTechnique@Ogre@@@std@@@std@@QAEXI@Z ; std::vector<Ogre::D3DShaderTechnique::PassData,std::allocator<Ogre::D3DShaderTechnique::PassData> >::resize

; 813  : 		memset(&m_AllPass[0], 0, npass*sizeof(PassData));

	mov	eax, DWORD PTR _npass$[ebp]
	imul	eax, 12					; 0000000cH
	push	eax
	push	0
	push	0
	mov	ecx, DWORD PTR _this$[ebp]
	add	ecx, 232				; 000000e8H
	call	??A?$vector@UPassData@D3DShaderTechnique@Ogre@@V?$allocator@UPassData@D3DShaderTechnique@Ogre@@@std@@@std@@QAEAAUPassData@D3DShaderTechnique@Ogre@@I@Z ; std::vector<Ogre::D3DShaderTechnique::PassData,std::allocator<Ogre::D3DShaderTechnique::PassData> >::operator[]
	push	eax
	call	_memset
	add	esp, 12					; 0000000cH

; 814  : 
; 815  : 		for(size_t i=0; i<npass; i++)

	mov	DWORD PTR _i$145312[ebp], 0
	jmp	SHORT $LN19@D3DShaderT
$LN18@D3DShaderT:
	mov	ecx, DWORD PTR _i$145312[ebp]
	add	ecx, 1
	mov	DWORD PTR _i$145312[ebp], ecx
$LN19@D3DShaderT:
	mov	edx, DWORD PTR _i$145312[ebp]
	cmp	edx, DWORD PTR _npass$[ebp]
	jae	$LN17@D3DShaderT

; 816  : 		{
; 817  : 			PassData &data = m_AllPass[i];

	mov	eax, DWORD PTR _i$145312[ebp]
	push	eax
	mov	ecx, DWORD PTR _this$[ebp]
	add	ecx, 232				; 000000e8H
	call	??A?$vector@UPassData@D3DShaderTechnique@Ogre@@V?$allocator@UPassData@D3DShaderTechnique@Ogre@@@std@@@std@@QAEAAUPassData@D3DShaderTechnique@Ogre@@I@Z ; std::vector<Ogre::D3DShaderTechnique::PassData,std::allocator<Ogre::D3DShaderTechnique::PassData> >::operator[]
	mov	DWORD PTR _data$145316[ebp], eax

; 818  : 			PassDesc &desc = ptechdesc->m_Pass[i];

	mov	ecx, DWORD PTR _i$145312[ebp]
	push	ecx
	mov	ecx, DWORD PTR _ptechdesc$[ebp]
	add	ecx, 12					; 0000000cH
	call	??A?$vector@UPassDesc@Ogre@@V?$allocator@UPassDesc@Ogre@@@std@@@std@@QAEAAUPassDesc@Ogre@@I@Z ; std::vector<Ogre::PassDesc,std::allocator<Ogre::PassDesc> >::operator[]
	mov	DWORD PTR _desc$145317[ebp], eax

; 819  : 
; 820  : 			if(desc.vs[0] == 1) 

	mov	edx, DWORD PTR _desc$145317[ebp]
	movsx	eax, BYTE PTR [edx]
	cmp	eax, 1
	jne	SHORT $LN16@D3DShaderT

; 821  : 				data.use_fx_vs = true; 

	mov	ecx, DWORD PTR _data$145316[ebp]
	mov	BYTE PTR [ecx+8], 1
	jmp	SHORT $LN15@D3DShaderT
$LN16@D3DShaderT:

; 822  : 			else if(desc.vs[0] != 0) 

	mov	edx, DWORD PTR _desc$145317[ebp]
	movsx	eax, BYTE PTR [edx]
	test	eax, eax
	je	SHORT $LN15@D3DShaderT

; 823  : 				data.vs = pmtltemplate->getCompiledVSPS(COMPILED_VS, desc.vs, env, macros);

	mov	ecx, DWORD PTR _macros$[ebp]
	push	ecx
	mov	edx, DWORD PTR _env$[ebp]
	push	edx
	mov	eax, DWORD PTR _desc$145317[ebp]
	push	eax
	push	1
	mov	ecx, DWORD PTR _pmtltemplate$[ebp]
	call	?getCompiledVSPS@D3DMaterialTemplate@Ogre@@QAEPAVCompiledShader@2@W4COMPILED_TYPE@2@PBDABUShaderEnvFlags@2@ABUMaterialMacro@2@@Z ; Ogre::D3DMaterialTemplate::getCompiledVSPS
	mov	ecx, DWORD PTR _data$145316[ebp]
	mov	DWORD PTR [ecx], eax
$LN15@D3DShaderT:

; 824  : 
; 825  : 			if(desc.ps[0] == 1) 

	mov	edx, DWORD PTR _desc$145317[ebp]
	movsx	eax, BYTE PTR [edx+16]
	cmp	eax, 1
	jne	SHORT $LN13@D3DShaderT

; 826  : 				data.use_fx_ps = true;

	mov	ecx, DWORD PTR _data$145316[ebp]
	mov	BYTE PTR [ecx+9], 1
	jmp	SHORT $LN12@D3DShaderT
$LN13@D3DShaderT:

; 827  : 			else if(desc.ps[0] != 0) 

	mov	edx, DWORD PTR _desc$145317[ebp]
	movsx	eax, BYTE PTR [edx+16]
	test	eax, eax
	je	SHORT $LN12@D3DShaderT

; 828  : 				data.ps = pmtltemplate->getCompiledVSPS(COMPILED_PS, desc.ps, env, macros);

	mov	ecx, DWORD PTR _macros$[ebp]
	push	ecx
	mov	edx, DWORD PTR _env$[ebp]
	push	edx
	mov	eax, DWORD PTR _desc$145317[ebp]
	add	eax, 16					; 00000010H
	push	eax
	push	2
	mov	ecx, DWORD PTR _pmtltemplate$[ebp]
	call	?getCompiledVSPS@D3DMaterialTemplate@Ogre@@QAEPAVCompiledShader@2@W4COMPILED_TYPE@2@PBDABUShaderEnvFlags@2@ABUMaterialMacro@2@@Z ; Ogre::D3DMaterialTemplate::getCompiledVSPS
	mov	ecx, DWORD PTR _data$145316[ebp]
	mov	DWORD PTR [ecx+4], eax
$LN12@D3DShaderT:

; 829  : 		}

	jmp	$LN18@D3DShaderT
$LN17@D3DShaderT:

; 830  : 
; 831  : 		for(ShaderParamUsage usage=SPU_INSTANCE_PARAM; usage<SPU_ENV_PARAM_END; usage=(ShaderParamUsage)(usage+1))

	mov	DWORD PTR _usage$145324[ebp], 0
	jmp	SHORT $LN10@D3DShaderT
$LN9@D3DShaderT:
	mov	edx, DWORD PTR _usage$145324[ebp]
	add	edx, 1
	mov	DWORD PTR _usage$145324[ebp], edx
$LN10@D3DShaderT:
	cmp	DWORD PTR _usage$145324[ebp], 48	; 00000030H
	jge	$LN22@D3DShaderT

; 832  : 		{
; 833  : 			if(m_pEffect->hasConstant(usage, ptechdesc->htech))

	mov	eax, DWORD PTR _ptechdesc$[ebp]
	mov	ecx, DWORD PTR [eax]
	push	ecx
	mov	edx, DWORD PTR _usage$145324[ebp]
	push	edx
	mov	eax, DWORD PTR _this$[ebp]
	mov	ecx, DWORD PTR [eax+8]
	call	?hasConstant@CompiledShader@Ogre@@QAE_NW4ShaderParamUsage@2@PBD@Z ; Ogre::CompiledShader::hasConstant
	movzx	ecx, al
	test	ecx, ecx
	je	SHORT $LN7@D3DShaderT

; 834  : 			{
; 835  : 				m_UsedParams[m_NumUsedParams++] = usage;

	mov	edx, DWORD PTR _this$[ebp]
	mov	eax, DWORD PTR [edx+220]
	mov	ecx, DWORD PTR _this$[ebp]
	mov	edx, DWORD PTR _usage$145324[ebp]
	mov	DWORD PTR [ecx+eax*4+28], edx
	mov	eax, DWORD PTR _this$[ebp]
	mov	ecx, DWORD PTR [eax+220]
	add	ecx, 1
	mov	edx, DWORD PTR _this$[ebp]
	mov	DWORD PTR [edx+220], ecx
$LN7@D3DShaderT:

; 836  : 			}
; 837  : 
; 838  : 			for(size_t i=0; i<npass; i++)

	mov	DWORD PTR _i$145330[ebp], 0
	jmp	SHORT $LN6@D3DShaderT
$LN5@D3DShaderT:
	mov	eax, DWORD PTR _i$145330[ebp]
	add	eax, 1
	mov	DWORD PTR _i$145330[ebp], eax
$LN6@D3DShaderT:
	mov	ecx, DWORD PTR _i$145330[ebp]
	cmp	ecx, DWORD PTR _npass$[ebp]
	jae	$LN4@D3DShaderT

; 839  : 			{
; 840  : 				PassData &data = m_AllPass[i];

	mov	edx, DWORD PTR _i$145330[ebp]
	push	edx
	mov	ecx, DWORD PTR _this$[ebp]
	add	ecx, 232				; 000000e8H
	call	??A?$vector@UPassData@D3DShaderTechnique@Ogre@@V?$allocator@UPassData@D3DShaderTechnique@Ogre@@@std@@@std@@QAEAAUPassData@D3DShaderTechnique@Ogre@@I@Z ; std::vector<Ogre::D3DShaderTechnique::PassData,std::allocator<Ogre::D3DShaderTechnique::PassData> >::operator[]
	mov	DWORD PTR _data$145334[ebp], eax

; 841  : 				if((data.vs&&data.vs->hasConstant(usage,NULL)) || (data.ps&&data.ps->hasConstant(usage,NULL)))

	mov	eax, DWORD PTR _data$145334[ebp]
	cmp	DWORD PTR [eax], 0
	je	SHORT $LN1@D3DShaderT
	push	0
	mov	ecx, DWORD PTR _usage$145324[ebp]
	push	ecx
	mov	edx, DWORD PTR _data$145334[ebp]
	mov	ecx, DWORD PTR [edx]
	call	?hasConstant@CompiledShader@Ogre@@QAE_NW4ShaderParamUsage@2@PBD@Z ; Ogre::CompiledShader::hasConstant
	movzx	eax, al
	test	eax, eax
	jne	SHORT $LN2@D3DShaderT
$LN1@D3DShaderT:
	mov	ecx, DWORD PTR _data$145334[ebp]
	cmp	DWORD PTR [ecx+4], 0
	je	SHORT $LN3@D3DShaderT
	push	0
	mov	edx, DWORD PTR _usage$145324[ebp]
	push	edx
	mov	eax, DWORD PTR _data$145334[ebp]
	mov	ecx, DWORD PTR [eax+4]
	call	?hasConstant@CompiledShader@Ogre@@QAE_NW4ShaderParamUsage@2@PBD@Z ; Ogre::CompiledShader::hasConstant
	movzx	ecx, al
	test	ecx, ecx
	je	SHORT $LN3@D3DShaderT
$LN2@D3DShaderT:

; 842  : 				{
; 843  : 					m_UsedParams[m_NumUsedParams++] = usage;

	mov	edx, DWORD PTR _this$[ebp]
	mov	eax, DWORD PTR [edx+220]
	mov	ecx, DWORD PTR _this$[ebp]
	mov	edx, DWORD PTR _usage$145324[ebp]
	mov	DWORD PTR [ecx+eax*4+28], edx
	mov	eax, DWORD PTR _this$[ebp]
	mov	ecx, DWORD PTR [eax+220]
	add	ecx, 1
	mov	edx, DWORD PTR _this$[ebp]
	mov	DWORD PTR [edx+220], ecx

; 844  : 					break;

	jmp	SHORT $LN4@D3DShaderT
$LN3@D3DShaderT:

; 845  : 				}
; 846  : 			}

	jmp	$LN5@D3DShaderT
$LN4@D3DShaderT:

; 847  : 		}

	jmp	$LN9@D3DShaderT
$LN22@D3DShaderT:

; 848  : 	}

	mov	DWORD PTR __$EHRec$[ebp+8], -1
	mov	eax, DWORD PTR _this$[ebp]
	mov	ecx, DWORD PTR __$EHRec$[ebp]
	mov	DWORD PTR fs:0, ecx
	pop	ecx
	mov	esp, ebp
	pop	ebp
	ret	20					; 00000014H
_TEXT	ENDS
text$x	SEGMENT
__unwindfunclet$??0D3DShaderTechnique@Ogre@@QAE@PAVD3DMaterialTemplate@1@ABUShaderEnvFlags@1@ABUMaterialMacro@1@IW4RenderUsage@1@@Z$0:
	mov	ecx, DWORD PTR _this$[ebp]
	jmp	??1ShaderTechnique@Ogre@@MAE@XZ		; Ogre::ShaderTechnique::~ShaderTechnique
__unwindfunclet$??0D3DShaderTechnique@Ogre@@QAE@PAVD3DMaterialTemplate@1@ABUShaderEnvFlags@1@ABUMaterialMacro@1@IW4RenderUsage@1@@Z$1:
	mov	ecx, DWORD PTR _this$[ebp]
	add	ecx, 232				; 000000e8H
	jmp	??1?$vector@UPassData@D3DShaderTechnique@Ogre@@V?$allocator@UPassData@D3DShaderTechnique@Ogre@@@std@@@std@@QAE@XZ ; std::vector<Ogre::D3DShaderTechnique::PassData,std::allocator<Ogre::D3DShaderTechnique::PassData> >::~vector<Ogre::D3DShaderTechnique::PassData,std::allocator<Ogre::D3DShaderTechnique::PassData> >
__ehhandler$??0D3DShaderTechnique@Ogre@@QAE@PAVD3DMaterialTemplate@1@ABUShaderEnvFlags@1@ABUMaterialMacro@1@IW4RenderUsage@1@@Z:
	mov	edx, DWORD PTR [esp+8]
	lea	eax, DWORD PTR [edx+12]
	mov	ecx, DWORD PTR [edx-40]
	xor	ecx, eax
	call	@__security_check_cookie@4
	mov	eax, OFFSET __ehfuncinfo$??0D3DShaderTechnique@Ogre@@QAE@PAVD3DMaterialTemplate@1@ABUShaderEnvFlags@1@ABUMaterialMacro@1@IW4RenderUsage@1@@Z
	jmp	___CxxFrameHandler3
text$x	ENDS
??0D3DShaderTechnique@Ogre@@QAE@PAVD3DMaterialTemplate@1@ABUShaderEnvFlags@1@ABUMaterialMacro@1@IW4RenderUsage@1@@Z ENDP ; Ogre::D3DShaderTechnique::D3DShaderTechnique
PUBLIC	??_7ShaderTechnique@Ogre@@6B@			; Ogre::ShaderTechnique::`vftable'
PUBLIC	??_R4ShaderTechnique@Ogre@@6B@			; Ogre::ShaderTechnique::`RTTI Complete Object Locator'
EXTRN	__purecall:PROC
EXTRN	??_EShaderTechnique@Ogre@@MAEPAXI@Z:PROC	; Ogre::ShaderTechnique::`vector deleting destructor'
;	COMDAT ??_R4ShaderTechnique@Ogre@@6B@
; File i:\svnroot\client\ogremain\ogreshader.h
rdata$r	SEGMENT
??_R4ShaderTechnique@Ogre@@6B@ DD 00H			; Ogre::ShaderTechnique::`RTTI Complete Object Locator'
	DD	00H
	DD	00H
	DD	FLAT:??_R0?AVShaderTechnique@Ogre@@@8
	DD	FLAT:??_R3ShaderTechnique@Ogre@@8
rdata$r	ENDS
;	COMDAT ??_7ShaderTechnique@Ogre@@6B@
CONST	SEGMENT
??_7ShaderTechnique@Ogre@@6B@ DD FLAT:??_R4ShaderTechnique@Ogre@@6B@ ; Ogre::ShaderTechnique::`vftable'
	DD	FLAT:__purecall
	DD	FLAT:__purecall
	DD	FLAT:__purecall
	DD	FLAT:__purecall
	DD	FLAT:__purecall
	DD	FLAT:__purecall
	DD	FLAT:__purecall
	DD	FLAT:__purecall
	DD	FLAT:__purecall
	DD	FLAT:__purecall
	DD	FLAT:__purecall
	DD	FLAT:__purecall
	DD	FLAT:__purecall
	DD	FLAT:__purecall
	DD	FLAT:__purecall
	DD	FLAT:??_EShaderTechnique@Ogre@@MAEPAXI@Z
; Function compile flags: /Odtp
CONST	ENDS
;	COMDAT ??1ShaderTechnique@Ogre@@MAE@XZ
_TEXT	SEGMENT
_this$ = -4						; size = 4
??1ShaderTechnique@Ogre@@MAE@XZ PROC			; Ogre::ShaderTechnique::~ShaderTechnique, COMDAT
; _this$ = ecx

; 195  : 		virtual ~ShaderTechnique(){}

	push	ebp
	mov	ebp, esp
	push	ecx
	mov	DWORD PTR _this$[ebp], ecx
	mov	eax, DWORD PTR _this$[ebp]
	mov	DWORD PTR [eax], OFFSET ??_7ShaderTechnique@Ogre@@6B@
	mov	esp, ebp
	pop	ebp
	ret	0
??1ShaderTechnique@Ogre@@MAE@XZ ENDP			; Ogre::ShaderTechnique::~ShaderTechnique
; Function compile flags: /Odtp
_TEXT	ENDS
;	COMDAT ??_GShaderTechnique@Ogre@@MAEPAXI@Z
_TEXT	SEGMENT
_this$ = -4						; size = 4
___flags$ = 8						; size = 4
??_GShaderTechnique@Ogre@@MAEPAXI@Z PROC		; Ogre::ShaderTechnique::`scalar deleting destructor', COMDAT
; _this$ = ecx
	push	ebp
	mov	ebp, esp
	push	ecx
	mov	DWORD PTR _this$[ebp], ecx
	mov	ecx, DWORD PTR _this$[ebp]
	call	??1ShaderTechnique@Ogre@@MAE@XZ		; Ogre::ShaderTechnique::~ShaderTechnique
	mov	eax, DWORD PTR ___flags$[ebp]
	and	eax, 1
	je	SHORT $LN1@scalar@3
	mov	ecx, DWORD PTR _this$[ebp]
	push	ecx
	call	??3@YAXPAX@Z				; operator delete
	add	esp, 4
$LN1@scalar@3:
	mov	eax, DWORD PTR _this$[ebp]
	mov	esp, ebp
	pop	ebp
	ret	4
??_GShaderTechnique@Ogre@@MAEPAXI@Z ENDP		; Ogre::ShaderTechnique::`scalar deleting destructor'
_TEXT	ENDS
PUBLIC	??1D3DShaderTechnique@Ogre@@UAE@XZ		; Ogre::D3DShaderTechnique::~D3DShaderTechnique
; Function compile flags: /Odtp
;	COMDAT ??_GD3DShaderTechnique@Ogre@@UAEPAXI@Z
_TEXT	SEGMENT
_this$ = -4						; size = 4
___flags$ = 8						; size = 4
??_GD3DShaderTechnique@Ogre@@UAEPAXI@Z PROC		; Ogre::D3DShaderTechnique::`scalar deleting destructor', COMDAT
; _this$ = ecx
	push	ebp
	mov	ebp, esp
	push	ecx
	mov	DWORD PTR _this$[ebp], ecx
	mov	ecx, DWORD PTR _this$[ebp]
	call	??1D3DShaderTechnique@Ogre@@UAE@XZ	; Ogre::D3DShaderTechnique::~D3DShaderTechnique
	mov	eax, DWORD PTR ___flags$[ebp]
	and	eax, 1
	je	SHORT $LN1@scalar@4
	mov	ecx, DWORD PTR _this$[ebp]
	push	ecx
	call	??3@YAXPAX@Z				; operator delete
	add	esp, 4
$LN1@scalar@4:
	mov	eax, DWORD PTR _this$[ebp]
	mov	esp, ebp
	pop	ebp
	ret	4
??_GD3DShaderTechnique@Ogre@@UAEPAXI@Z ENDP		; Ogre::D3DShaderTechnique::`scalar deleting destructor'
; Function compile flags: /Odtp
_TEXT	ENDS
;	COMDAT ??0ShaderTechnique@Ogre@@QAE@XZ
_TEXT	SEGMENT
_this$ = -4						; size = 4
??0ShaderTechnique@Ogre@@QAE@XZ PROC			; Ogre::ShaderTechnique::ShaderTechnique, COMDAT
; _this$ = ecx
	push	ebp
	mov	ebp, esp
	push	ecx
	mov	DWORD PTR _this$[ebp], ecx
	mov	eax, DWORD PTR _this$[ebp]
	mov	DWORD PTR [eax], OFFSET ??_7ShaderTechnique@Ogre@@6B@
	mov	eax, DWORD PTR _this$[ebp]
	mov	esp, ebp
	pop	ebp
	ret	0
??0ShaderTechnique@Ogre@@QAE@XZ ENDP			; Ogre::ShaderTechnique::ShaderTechnique
_TEXT	ENDS
xdata$x	SEGMENT
__unwindtable$??1D3DShaderTechnique@Ogre@@UAE@XZ DD 0ffffffffH
	DD	FLAT:__unwindfunclet$??1D3DShaderTechnique@Ogre@@UAE@XZ$0
	DD	00H
	DD	FLAT:__unwindfunclet$??1D3DShaderTechnique@Ogre@@UAE@XZ$1
__ehfuncinfo$??1D3DShaderTechnique@Ogre@@UAE@XZ DD 019930522H
	DD	02H
	DD	FLAT:__unwindtable$??1D3DShaderTechnique@Ogre@@UAE@XZ
	DD	2 DUP(00H)
	DD	2 DUP(00H)
	DD	00H
	DD	00H
; Function compile flags: /Odtp
; File i:\svnroot\client\plugins\rendersystem_d3d9\ogred3d9shadermanager.cpp
xdata$x	ENDS
_TEXT	SEGMENT
_this$ = -16						; size = 4
__$EHRec$ = -12						; size = 12
??1D3DShaderTechnique@Ogre@@UAE@XZ PROC			; Ogre::D3DShaderTechnique::~D3DShaderTechnique
; _this$ = ecx

; 851  : 	{

	push	ebp
	mov	ebp, esp
	push	-1
	push	__ehhandler$??1D3DShaderTechnique@Ogre@@UAE@XZ
	mov	eax, DWORD PTR fs:0
	push	eax
	push	ecx
	mov	eax, DWORD PTR ___security_cookie
	xor	eax, ebp
	push	eax
	lea	eax, DWORD PTR __$EHRec$[ebp]
	mov	DWORD PTR fs:0, eax
	mov	DWORD PTR _this$[ebp], ecx
	mov	eax, DWORD PTR _this$[ebp]
	mov	DWORD PTR [eax], OFFSET ??_7D3DShaderTechnique@Ogre@@6B@
	mov	DWORD PTR __$EHRec$[ebp+8], 1

; 852  : 	}

	mov	BYTE PTR __$EHRec$[ebp+8], 0
	mov	ecx, DWORD PTR _this$[ebp]
	add	ecx, 232				; 000000e8H
	call	??1?$vector@UPassData@D3DShaderTechnique@Ogre@@V?$allocator@UPassData@D3DShaderTechnique@Ogre@@@std@@@std@@QAE@XZ ; std::vector<Ogre::D3DShaderTechnique::PassData,std::allocator<Ogre::D3DShaderTechnique::PassData> >::~vector<Ogre::D3DShaderTechnique::PassData,std::allocator<Ogre::D3DShaderTechnique::PassData> >
	mov	DWORD PTR __$EHRec$[ebp+8], -1
	mov	ecx, DWORD PTR _this$[ebp]
	call	??1ShaderTechnique@Ogre@@MAE@XZ		; Ogre::ShaderTechnique::~ShaderTechnique
	mov	ecx, DWORD PTR __$EHRec$[ebp]
	mov	DWORD PTR fs:0, ecx
	pop	ecx
	mov	esp, ebp
	pop	ebp
	ret	0
_TEXT	ENDS
text$x	SEGMENT
__unwindfunclet$??1D3DShaderTechnique@Ogre@@UAE@XZ$0:
	mov	ecx, DWORD PTR _this$[ebp]
	jmp	??1ShaderTechnique@Ogre@@MAE@XZ		; Ogre::ShaderTechnique::~ShaderTechnique
__unwindfunclet$??1D3DShaderTechnique@Ogre@@UAE@XZ$1:
	mov	ecx, DWORD PTR _this$[ebp]
	add	ecx, 232				; 000000e8H
	jmp	??1?$vector@UPassData@D3DShaderTechnique@Ogre@@V?$allocator@UPassData@D3DShaderTechnique@Ogre@@@std@@@std@@QAE@XZ ; std::vector<Ogre::D3DShaderTechnique::PassData,std::allocator<Ogre::D3DShaderTechnique::PassData> >::~vector<Ogre::D3DShaderTechnique::PassData,std::allocator<Ogre::D3DShaderTechnique::PassData> >
__ehhandler$??1D3DShaderTechnique@Ogre@@UAE@XZ:
	mov	edx, DWORD PTR [esp+8]
	lea	eax, DWORD PTR [edx+12]
	mov	ecx, DWORD PTR [edx-8]
	xor	ecx, eax
	call	@__security_check_cookie@4
	mov	eax, OFFSET __ehfuncinfo$??1D3DShaderTechnique@Ogre@@UAE@XZ
	jmp	___CxxFrameHandler3
text$x	ENDS
??1D3DShaderTechnique@Ogre@@UAE@XZ ENDP			; Ogre::D3DShaderTechnique::~D3DShaderTechnique
; Function compile flags: /Odtp
_TEXT	SEGMENT
_this$ = -12						; size = 4
_npass$ = -8						; size = 4
_peffect$ = -4						; size = 4
?begin@D3DShaderTechnique@Ogre@@UAEIXZ PROC		; Ogre::D3DShaderTechnique::begin
; _this$ = ecx

; 855  : 	{

	push	ebp
	mov	ebp, esp
	sub	esp, 12					; 0000000cH
	mov	DWORD PTR _this$[ebp], ecx

; 856  : 		if(m_hTech == NULL) return 0;

	mov	eax, DWORD PTR _this$[ebp]
	cmp	DWORD PTR [eax+12], 0
	jne	SHORT $LN4@begin
	xor	eax, eax
	jmp	SHORT $LN5@begin
$LN4@begin:

; 857  : 
; 858  : 		ID3DXEffect *peffect = m_pEffect->m_pEffect;

	mov	ecx, DWORD PTR _this$[ebp]
	mov	edx, DWORD PTR [ecx+8]
	mov	eax, DWORD PTR [edx+44]
	mov	DWORD PTR _peffect$[ebp], eax

; 859  : 
; 860  : 		if (!peffect)

	cmp	DWORD PTR _peffect$[ebp], 0
	jne	SHORT $LN3@begin

; 861  : 			return 0;

	xor	eax, eax
	jmp	SHORT $LN5@begin
$LN3@begin:

; 862  : 
; 863  : 		peffect->SetTechnique(m_hTech);

	mov	ecx, DWORD PTR _this$[ebp]
	mov	edx, DWORD PTR [ecx+12]
	push	edx
	mov	eax, DWORD PTR _peffect$[ebp]
	mov	ecx, DWORD PTR [eax]
	mov	edx, DWORD PTR _peffect$[ebp]
	push	edx
	mov	eax, DWORD PTR [ecx+232]
	call	eax

; 864  : 
; 865  : 		UINT npass;
; 866  : 		if(FAILED(peffect->Begin(&npass, 0))) return 0;

	push	0
	lea	ecx, DWORD PTR _npass$[ebp]
	push	ecx
	mov	edx, DWORD PTR _peffect$[ebp]
	mov	eax, DWORD PTR [edx]
	mov	ecx, DWORD PTR _peffect$[ebp]
	push	ecx
	mov	edx, DWORD PTR [eax+252]
	call	edx
	test	eax, eax
	jge	SHORT $LN2@begin
	xor	eax, eax
	jmp	SHORT $LN5@begin
	jmp	SHORT $LN5@begin
$LN2@begin:

; 867  : 		else return npass;

	mov	eax, DWORD PTR _npass$[ebp]
$LN5@begin:

; 868  : 	}

	mov	esp, ebp
	pop	ebp
	ret	0
?begin@D3DShaderTechnique@Ogre@@UAEIXZ ENDP		; Ogre::D3DShaderTechnique::begin
; Function compile flags: /Odtp
_this$ = -4						; size = 4
?end@D3DShaderTechnique@Ogre@@UAEXXZ PROC		; Ogre::D3DShaderTechnique::end
; _this$ = ecx

; 871  : 	{

	push	ebp
	mov	ebp, esp
	push	ecx
	mov	DWORD PTR _this$[ebp], ecx

; 872  : 		if (!m_pEffect)

	mov	eax, DWORD PTR _this$[ebp]
	cmp	DWORD PTR [eax+8], 0
	jne	SHORT $LN2@end

; 873  : 			return;

	jmp	SHORT $LN3@end
$LN2@end:

; 874  : 
; 875  : 		if (!m_pEffect->m_pEffect)

	mov	ecx, DWORD PTR _this$[ebp]
	mov	edx, DWORD PTR [ecx+8]
	cmp	DWORD PTR [edx+44], 0
	jne	SHORT $LN1@end

; 876  : 			return;

	jmp	SHORT $LN3@end
$LN1@end:

; 877  : 
; 878  : 		m_pEffect->m_pEffect->End();

	mov	eax, DWORD PTR _this$[ebp]
	mov	ecx, DWORD PTR [eax+8]
	mov	edx, DWORD PTR [ecx+44]
	mov	eax, DWORD PTR _this$[ebp]
	mov	ecx, DWORD PTR [eax+8]
	mov	eax, DWORD PTR [ecx+44]
	mov	ecx, DWORD PTR [edx]
	push	eax
	mov	edx, DWORD PTR [ecx+268]
	call	edx
$LN3@end:

; 879  : 	}

	mov	esp, ebp
	pop	ebp
	ret	0
?end@D3DShaderTechnique@Ogre@@UAEXXZ ENDP		; Ogre::D3DShaderTechnique::end
; Function compile flags: /Odtp
_this$ = -8						; size = 4
_desc$ = -4						; size = 4
_ipass$ = 8						; size = 4
?beginPass@D3DShaderTechnique@Ogre@@UAEXI@Z PROC	; Ogre::D3DShaderTechnique::beginPass
; _this$ = ecx

; 882  : 	{

	push	ebp
	mov	ebp, esp
	sub	esp, 8
	mov	DWORD PTR _this$[ebp], ecx

; 883  : 		if (m_pEffect)

	mov	eax, DWORD PTR _this$[ebp]
	cmp	DWORD PTR [eax+8], 0
	je	SHORT $LN7@beginPass

; 884  : 			m_pEffect->m_pEffect->BeginPass((UINT)ipass);

	mov	ecx, DWORD PTR _ipass$[ebp]
	push	ecx
	mov	edx, DWORD PTR _this$[ebp]
	mov	eax, DWORD PTR [edx+8]
	mov	ecx, DWORD PTR [eax+44]
	mov	edx, DWORD PTR _this$[ebp]
	mov	eax, DWORD PTR [edx+8]
	mov	edx, DWORD PTR [eax+44]
	mov	eax, DWORD PTR [ecx]
	push	edx
	mov	ecx, DWORD PTR [eax+256]
	call	ecx
$LN7@beginPass:

; 885  : 
; 886  : 		m_CurPass = ipass;

	mov	edx, DWORD PTR _this$[ebp]
	mov	eax, DWORD PTR _ipass$[ebp]
	mov	DWORD PTR [edx+16], eax

; 887  : 
; 888  : 		PassData &desc = m_AllPass[ipass];

	mov	ecx, DWORD PTR _ipass$[ebp]
	push	ecx
	mov	ecx, DWORD PTR _this$[ebp]
	add	ecx, 232				; 000000e8H
	call	??A?$vector@UPassData@D3DShaderTechnique@Ogre@@V?$allocator@UPassData@D3DShaderTechnique@Ogre@@@std@@@std@@QAEAAUPassData@D3DShaderTechnique@Ogre@@I@Z ; std::vector<Ogre::D3DShaderTechnique::PassData,std::allocator<Ogre::D3DShaderTechnique::PassData> >::operator[]
	mov	DWORD PTR _desc$[ebp], eax

; 889  : 		if(!desc.use_fx_vs)

	mov	edx, DWORD PTR _desc$[ebp]
	movzx	eax, BYTE PTR [edx+8]
	test	eax, eax
	jne	SHORT $LN6@beginPass

; 890  : 		{
; 891  : 			if(desc.vs)

	mov	ecx, DWORD PTR _desc$[ebp]
	cmp	DWORD PTR [ecx], 0
	je	SHORT $LN5@beginPass

; 892  : 				m_pDevice->SetVertexShader(desc.vs->m_pVS);

	mov	edx, DWORD PTR _desc$[ebp]
	mov	eax, DWORD PTR [edx]
	mov	ecx, DWORD PTR [eax+48]
	push	ecx
	mov	edx, DWORD PTR _this$[ebp]
	mov	eax, DWORD PTR [edx+228]
	mov	ecx, DWORD PTR _this$[ebp]
	mov	edx, DWORD PTR [ecx+228]
	mov	eax, DWORD PTR [eax]
	push	edx
	mov	ecx, DWORD PTR [eax+368]
	call	ecx

; 893  : 			else

	jmp	SHORT $LN6@beginPass
$LN5@beginPass:

; 894  : 				m_pDevice->SetVertexShader(NULL);

	push	0
	mov	edx, DWORD PTR _this$[ebp]
	mov	eax, DWORD PTR [edx+228]
	mov	ecx, DWORD PTR _this$[ebp]
	mov	edx, DWORD PTR [ecx+228]
	mov	eax, DWORD PTR [eax]
	push	edx
	mov	ecx, DWORD PTR [eax+368]
	call	ecx
$LN6@beginPass:

; 895  : 		}
; 896  : 		
; 897  : 		if(!desc.use_fx_ps)

	mov	edx, DWORD PTR _desc$[ebp]
	movzx	eax, BYTE PTR [edx+9]
	test	eax, eax
	jne	SHORT $LN8@beginPass

; 898  : 		{
; 899  : 			if(desc.ps)

	mov	ecx, DWORD PTR _desc$[ebp]
	cmp	DWORD PTR [ecx+4], 0
	je	SHORT $LN2@beginPass

; 900  : 				m_pDevice->SetPixelShader(desc.ps->m_pPS);

	mov	edx, DWORD PTR _desc$[ebp]
	mov	eax, DWORD PTR [edx+4]
	mov	ecx, DWORD PTR [eax+52]
	push	ecx
	mov	edx, DWORD PTR _this$[ebp]
	mov	eax, DWORD PTR [edx+228]
	mov	ecx, DWORD PTR _this$[ebp]
	mov	edx, DWORD PTR [ecx+228]
	mov	eax, DWORD PTR [eax]
	push	edx
	mov	ecx, DWORD PTR [eax+428]
	call	ecx

; 901  : 			else

	jmp	SHORT $LN8@beginPass
$LN2@beginPass:

; 902  : 				m_pDevice->SetPixelShader(NULL);

	push	0
	mov	edx, DWORD PTR _this$[ebp]
	mov	eax, DWORD PTR [edx+228]
	mov	ecx, DWORD PTR _this$[ebp]
	mov	edx, DWORD PTR [ecx+228]
	mov	eax, DWORD PTR [eax]
	push	edx
	mov	ecx, DWORD PTR [eax+428]
	call	ecx
$LN8@beginPass:

; 903  : 		}
; 904  : 	}

	mov	esp, ebp
	pop	ebp
	ret	4
?beginPass@D3DShaderTechnique@Ogre@@UAEXI@Z ENDP	; Ogre::D3DShaderTechnique::beginPass
; Function compile flags: /Odtp
_this$ = -4						; size = 4
?endPass@D3DShaderTechnique@Ogre@@UAEXXZ PROC		; Ogre::D3DShaderTechnique::endPass
; _this$ = ecx

; 907  : 	{

	push	ebp
	mov	ebp, esp
	push	ecx
	mov	DWORD PTR _this$[ebp], ecx

; 908  : 		if (m_pEffect)

	mov	eax, DWORD PTR _this$[ebp]
	cmp	DWORD PTR [eax+8], 0
	je	SHORT $LN2@endPass

; 909  : 			m_pEffect->m_pEffect->EndPass();

	mov	ecx, DWORD PTR _this$[ebp]
	mov	edx, DWORD PTR [ecx+8]
	mov	eax, DWORD PTR [edx+44]
	mov	ecx, DWORD PTR _this$[ebp]
	mov	edx, DWORD PTR [ecx+8]
	mov	ecx, DWORD PTR [edx+44]
	mov	edx, DWORD PTR [eax]
	push	ecx
	mov	eax, DWORD PTR [edx+264]
	call	eax
$LN2@endPass:

; 910  : 	}

	mov	esp, ebp
	pop	ebp
	ret	0
?endPass@D3DShaderTechnique@Ogre@@UAEXXZ ENDP		; Ogre::D3DShaderTechnique::endPass
; Function compile flags: /Odtp
_this$ = -8						; size = 4
_desc$ = -4						; size = 4
_pname$ = 8						; size = 4
_pdata$ = 12						; size = 4
_nbytes$ = 16						; size = 4
?setConstant@D3DShaderTechnique@Ogre@@UAEXPBDPBXI@Z PROC ; Ogre::D3DShaderTechnique::setConstant
; _this$ = ecx

; 913  : 	{

	push	ebp
	mov	ebp, esp
	sub	esp, 8
	mov	DWORD PTR _this$[ebp], ecx

; 914  : 		if (m_pEffect)

	mov	eax, DWORD PTR _this$[ebp]
	cmp	DWORD PTR [eax+8], 0
	je	SHORT $LN3@setConstan@3

; 915  : 			m_pEffect->setConstant(pname, pdata, nbytes);

	mov	ecx, DWORD PTR _nbytes$[ebp]
	push	ecx
	mov	edx, DWORD PTR _pdata$[ebp]
	push	edx
	mov	eax, DWORD PTR _pname$[ebp]
	push	eax
	mov	ecx, DWORD PTR _this$[ebp]
	mov	ecx, DWORD PTR [ecx+8]
	call	?setConstant@CompiledShader@Ogre@@QAEXPBDPBXI@Z ; Ogre::CompiledShader::setConstant
$LN3@setConstan@3:

; 916  : 
; 917  : 		m_bDirty = true;

	mov	edx, DWORD PTR _this$[ebp]
	mov	BYTE PTR [edx+224], 1

; 918  : 
; 919  : 		PassData &desc = m_AllPass[m_CurPass];

	mov	eax, DWORD PTR _this$[ebp]
	mov	ecx, DWORD PTR [eax+16]
	push	ecx
	mov	ecx, DWORD PTR _this$[ebp]
	add	ecx, 232				; 000000e8H
	call	??A?$vector@UPassData@D3DShaderTechnique@Ogre@@V?$allocator@UPassData@D3DShaderTechnique@Ogre@@@std@@@std@@QAEAAUPassData@D3DShaderTechnique@Ogre@@I@Z ; std::vector<Ogre::D3DShaderTechnique::PassData,std::allocator<Ogre::D3DShaderTechnique::PassData> >::operator[]
	mov	DWORD PTR _desc$[ebp], eax

; 920  : 		if(desc.ps) desc.ps->setConstant(pname, pdata, nbytes);

	mov	edx, DWORD PTR _desc$[ebp]
	cmp	DWORD PTR [edx+4], 0
	je	SHORT $LN2@setConstan@3
	mov	eax, DWORD PTR _nbytes$[ebp]
	push	eax
	mov	ecx, DWORD PTR _pdata$[ebp]
	push	ecx
	mov	edx, DWORD PTR _pname$[ebp]
	push	edx
	mov	eax, DWORD PTR _desc$[ebp]
	mov	ecx, DWORD PTR [eax+4]
	call	?setConstant@CompiledShader@Ogre@@QAEXPBDPBXI@Z ; Ogre::CompiledShader::setConstant
$LN2@setConstan@3:

; 921  : 		if(desc.vs) desc.vs->setConstant(pname, pdata, nbytes);

	mov	ecx, DWORD PTR _desc$[ebp]
	cmp	DWORD PTR [ecx], 0
	je	SHORT $LN4@setConstan@3
	mov	edx, DWORD PTR _nbytes$[ebp]
	push	edx
	mov	eax, DWORD PTR _pdata$[ebp]
	push	eax
	mov	ecx, DWORD PTR _pname$[ebp]
	push	ecx
	mov	edx, DWORD PTR _desc$[ebp]
	mov	ecx, DWORD PTR [edx]
	call	?setConstant@CompiledShader@Ogre@@QAEXPBDPBXI@Z ; Ogre::CompiledShader::setConstant
$LN4@setConstan@3:

; 922  : 	}

	mov	esp, ebp
	pop	ebp
	ret	12					; 0000000cH
?setConstant@D3DShaderTechnique@Ogre@@UAEXPBDPBXI@Z ENDP ; Ogre::D3DShaderTechnique::setConstant
; Function compile flags: /Odtp
_this$ = -8						; size = 4
_desc$ = -4						; size = 4
_usage$ = 8						; size = 4
_pdata$ = 12						; size = 4
_nbytes$ = 16						; size = 4
?setConstant@D3DShaderTechnique@Ogre@@UAEXW4ShaderParamUsage@2@PBXI@Z PROC ; Ogre::D3DShaderTechnique::setConstant
; _this$ = ecx

; 925  : 	{

	push	ebp
	mov	ebp, esp
	sub	esp, 8
	mov	DWORD PTR _this$[ebp], ecx

; 926  : 		if (m_pEffect)

	mov	eax, DWORD PTR _this$[ebp]
	cmp	DWORD PTR [eax+8], 0
	je	SHORT $LN3@setConstan@4

; 927  : 			m_pEffect->setConstant(usage, pdata, nbytes);

	mov	ecx, DWORD PTR _nbytes$[ebp]
	push	ecx
	mov	edx, DWORD PTR _pdata$[ebp]
	push	edx
	mov	eax, DWORD PTR _usage$[ebp]
	push	eax
	mov	ecx, DWORD PTR _this$[ebp]
	mov	ecx, DWORD PTR [ecx+8]
	call	?setConstant@CompiledShader@Ogre@@QAEXW4ShaderParamUsage@2@PBXI@Z ; Ogre::CompiledShader::setConstant
$LN3@setConstan@4:

; 928  : 		m_bDirty = true;

	mov	edx, DWORD PTR _this$[ebp]
	mov	BYTE PTR [edx+224], 1

; 929  : 
; 930  : 		PassData &desc = m_AllPass[m_CurPass];

	mov	eax, DWORD PTR _this$[ebp]
	mov	ecx, DWORD PTR [eax+16]
	push	ecx
	mov	ecx, DWORD PTR _this$[ebp]
	add	ecx, 232				; 000000e8H
	call	??A?$vector@UPassData@D3DShaderTechnique@Ogre@@V?$allocator@UPassData@D3DShaderTechnique@Ogre@@@std@@@std@@QAEAAUPassData@D3DShaderTechnique@Ogre@@I@Z ; std::vector<Ogre::D3DShaderTechnique::PassData,std::allocator<Ogre::D3DShaderTechnique::PassData> >::operator[]
	mov	DWORD PTR _desc$[ebp], eax

; 931  : 		if(desc.ps) desc.ps->setConstant(usage, pdata, nbytes);

	mov	edx, DWORD PTR _desc$[ebp]
	cmp	DWORD PTR [edx+4], 0
	je	SHORT $LN2@setConstan@4
	mov	eax, DWORD PTR _nbytes$[ebp]
	push	eax
	mov	ecx, DWORD PTR _pdata$[ebp]
	push	ecx
	mov	edx, DWORD PTR _usage$[ebp]
	push	edx
	mov	eax, DWORD PTR _desc$[ebp]
	mov	ecx, DWORD PTR [eax+4]
	call	?setConstant@CompiledShader@Ogre@@QAEXW4ShaderParamUsage@2@PBXI@Z ; Ogre::CompiledShader::setConstant
$LN2@setConstan@4:

; 932  : 		if(desc.vs) desc.vs->setConstant(usage, pdata, nbytes);

	mov	ecx, DWORD PTR _desc$[ebp]
	cmp	DWORD PTR [ecx], 0
	je	SHORT $LN4@setConstan@4
	mov	edx, DWORD PTR _nbytes$[ebp]
	push	edx
	mov	eax, DWORD PTR _pdata$[ebp]
	push	eax
	mov	ecx, DWORD PTR _usage$[ebp]
	push	ecx
	mov	edx, DWORD PTR _desc$[ebp]
	mov	ecx, DWORD PTR [edx]
	call	?setConstant@CompiledShader@Ogre@@QAEXW4ShaderParamUsage@2@PBXI@Z ; Ogre::CompiledShader::setConstant
$LN4@setConstan@4:

; 933  : 	}

	mov	esp, ebp
	pop	ebp
	ret	12					; 0000000cH
?setConstant@D3DShaderTechnique@Ogre@@UAEXW4ShaderParamUsage@2@PBXI@Z ENDP ; Ogre::D3DShaderTechnique::setConstant
_TEXT	ENDS
PUBLIC	?getSysTexture@D3D9HardwarePixelBuffer@Ogre@@QAEPAUIDirect3DBaseTexture9@@XZ ; Ogre::D3D9HardwarePixelBuffer::getSysTexture
; Function compile flags: /Odtp
_TEXT	SEGMENT
_this$ = -16						; size = 4
_hr$ = -12						; size = 4
_hparam$ = -8						; size = 4
_peffect$ = -4						; size = 4
_pname$ = 8						; size = 4
_ptexture$ = 12						; size = 4
?setTexture@D3DShaderTechnique@Ogre@@UAEXPBDPAVHardwarePixelBuffer@2@@Z PROC ; Ogre::D3DShaderTechnique::setTexture
; _this$ = ecx

; 936  : 	{

	push	ebp
	mov	ebp, esp
	sub	esp, 16					; 00000010H
	mov	DWORD PTR _this$[ebp], ecx

; 937  : 		if (!m_pEffect)

	mov	eax, DWORD PTR _this$[ebp]
	cmp	DWORD PTR [eax+8], 0
	jne	SHORT $LN4@setTexture

; 938  : 			return;

	jmp	SHORT $LN5@setTexture
$LN4@setTexture:

; 939  : 
; 940  : 		ID3DXEffect *peffect = m_pEffect->m_pEffect;

	mov	ecx, DWORD PTR _this$[ebp]
	mov	edx, DWORD PTR [ecx+8]
	mov	eax, DWORD PTR [edx+44]
	mov	DWORD PTR _peffect$[ebp], eax

; 941  : 		D3DXHANDLE hparam = peffect->GetParameterByName(NULL, pname);

	mov	ecx, DWORD PTR _pname$[ebp]
	push	ecx
	push	0
	mov	edx, DWORD PTR _peffect$[ebp]
	mov	eax, DWORD PTR [edx]
	mov	ecx, DWORD PTR _peffect$[ebp]
	push	ecx
	mov	edx, DWORD PTR [eax+36]
	call	edx
	mov	DWORD PTR _hparam$[ebp], eax

; 942  : 		if(hparam == NULL) return;

	cmp	DWORD PTR _hparam$[ebp], 0
	jne	SHORT $LN3@setTexture
	jmp	SHORT $LN5@setTexture
$LN3@setTexture:

; 943  : 
; 944  : 		HRESULT hr;
; 945  : 		if(ptexture == NULL) hr = peffect->SetTexture(hparam, NULL);

	cmp	DWORD PTR _ptexture$[ebp], 0
	jne	SHORT $LN2@setTexture
	push	0
	mov	eax, DWORD PTR _hparam$[ebp]
	push	eax
	mov	ecx, DWORD PTR _peffect$[ebp]
	mov	edx, DWORD PTR [ecx]
	mov	eax, DWORD PTR _peffect$[ebp]
	push	eax
	mov	ecx, DWORD PTR [edx+208]
	call	ecx
	mov	DWORD PTR _hr$[ebp], eax
	jmp	SHORT $LN1@setTexture
$LN2@setTexture:

; 946  : 		else hr = peffect->SetTexture(hparam, static_cast<D3D9HardwarePixelBuffer *>(ptexture)->getSysTexture());

	mov	ecx, DWORD PTR _ptexture$[ebp]
	call	?getSysTexture@D3D9HardwarePixelBuffer@Ogre@@QAEPAUIDirect3DBaseTexture9@@XZ ; Ogre::D3D9HardwarePixelBuffer::getSysTexture
	push	eax
	mov	edx, DWORD PTR _hparam$[ebp]
	push	edx
	mov	eax, DWORD PTR _peffect$[ebp]
	mov	ecx, DWORD PTR [eax]
	mov	edx, DWORD PTR _peffect$[ebp]
	push	edx
	mov	eax, DWORD PTR [ecx+208]
	call	eax
	mov	DWORD PTR _hr$[ebp], eax
$LN1@setTexture:

; 947  : 		assert(SUCCEEDED(hr));
; 948  : 
; 949  : 		m_bDirty = true;

	mov	ecx, DWORD PTR _this$[ebp]
	mov	BYTE PTR [ecx+224], 1
$LN5@setTexture:

; 950  : 	}

	mov	esp, ebp
	pop	ebp
	ret	8
?setTexture@D3DShaderTechnique@Ogre@@UAEXPBDPAVHardwarePixelBuffer@2@@Z ENDP ; Ogre::D3DShaderTechnique::setTexture
; Function compile flags: /Odtp
; File i:\svnroot\client\plugins\rendersystem_d3d9\ogred3d9hardwarepixelbuffer.h
_TEXT	ENDS
;	COMDAT ?getSysTexture@D3D9HardwarePixelBuffer@Ogre@@QAEPAUIDirect3DBaseTexture9@@XZ
_TEXT	SEGMENT
_this$ = -4						; size = 4
?getSysTexture@D3D9HardwarePixelBuffer@Ogre@@QAEPAUIDirect3DBaseTexture9@@XZ PROC ; Ogre::D3D9HardwarePixelBuffer::getSysTexture, COMDAT
; _this$ = ecx

; 76   : 		IDirect3DBaseTexture9 *getSysTexture(){ return m_pSysTex; }

	push	ebp
	mov	ebp, esp
	push	ecx
	mov	DWORD PTR _this$[ebp], ecx
	mov	eax, DWORD PTR _this$[ebp]
	mov	eax, DWORD PTR [eax+20]
	mov	esp, ebp
	pop	ebp
	ret	0
?getSysTexture@D3D9HardwarePixelBuffer@Ogre@@QAEPAUIDirect3DBaseTexture9@@XZ ENDP ; Ogre::D3D9HardwarePixelBuffer::getSysTexture
; Function compile flags: /Odtp
; File i:\svnroot\client\plugins\rendersystem_d3d9\ogred3d9shadermanager.cpp
_TEXT	ENDS
_TEXT	SEGMENT
_this$ = -16						; size = 4
_hr$145422 = -12					; size = 4
_peffect$ = -8						; size = 4
_h$ = -4						; size = 4
_usage$ = 8						; size = 4
_ptexture$ = 12						; size = 4
?setTexture@D3DShaderTechnique@Ogre@@UAEXW4ShaderParamUsage@2@PAVHardwarePixelBuffer@2@@Z PROC ; Ogre::D3DShaderTechnique::setTexture
; _this$ = ecx

; 953  : 	{

	push	ebp
	mov	ebp, esp
	sub	esp, 16					; 00000010H
	mov	DWORD PTR _this$[ebp], ecx

; 954  : 		if (!m_pEffect)

	mov	eax, DWORD PTR _this$[ebp]
	cmp	DWORD PTR [eax+8], 0
	jne	SHORT $LN4@setTexture@2

; 955  : 			return;

	jmp	SHORT $LN5@setTexture@2
$LN4@setTexture@2:

; 956  : 
; 957  : 		ID3DXEffect *peffect = m_pEffect->m_pEffect;

	mov	ecx, DWORD PTR _this$[ebp]
	mov	edx, DWORD PTR [ecx+8]
	mov	eax, DWORD PTR [edx+44]
	mov	DWORD PTR _peffect$[ebp], eax

; 958  : 		D3DXHANDLE h = m_pEffect->paramUsage2Handle(usage);

	mov	ecx, DWORD PTR _usage$[ebp]
	push	ecx
	mov	edx, DWORD PTR _this$[ebp]
	mov	ecx, DWORD PTR [edx+8]
	call	?paramUsage2Handle@CompiledShader@Ogre@@QAEPBDW4ShaderParamUsage@2@@Z ; Ogre::CompiledShader::paramUsage2Handle
	mov	DWORD PTR _h$[ebp], eax

; 959  : 		if(h != NULL)	

	cmp	DWORD PTR _h$[ebp], 0
	je	SHORT $LN5@setTexture@2

; 960  : 		{
; 961  : 			HRESULT hr;
; 962  : 			if(ptexture == NULL) hr = peffect->SetTexture(h, NULL);

	cmp	DWORD PTR _ptexture$[ebp], 0
	jne	SHORT $LN2@setTexture@2
	push	0
	mov	eax, DWORD PTR _h$[ebp]
	push	eax
	mov	ecx, DWORD PTR _peffect$[ebp]
	mov	edx, DWORD PTR [ecx]
	mov	eax, DWORD PTR _peffect$[ebp]
	push	eax
	mov	ecx, DWORD PTR [edx+208]
	call	ecx
	mov	DWORD PTR _hr$145422[ebp], eax
	jmp	SHORT $LN1@setTexture@2
$LN2@setTexture@2:

; 963  : 			else hr = peffect->SetTexture(h, static_cast<D3D9HardwarePixelBuffer *>(ptexture)->getSysTexture());

	mov	ecx, DWORD PTR _ptexture$[ebp]
	call	?getSysTexture@D3D9HardwarePixelBuffer@Ogre@@QAEPAUIDirect3DBaseTexture9@@XZ ; Ogre::D3D9HardwarePixelBuffer::getSysTexture
	push	eax
	mov	edx, DWORD PTR _h$[ebp]
	push	edx
	mov	eax, DWORD PTR _peffect$[ebp]
	mov	ecx, DWORD PTR [eax]
	mov	edx, DWORD PTR _peffect$[ebp]
	push	edx
	mov	eax, DWORD PTR [ecx+208]
	call	eax
	mov	DWORD PTR _hr$145422[ebp], eax
$LN1@setTexture@2:

; 964  : 			assert(SUCCEEDED(hr));
; 965  : 
; 966  : 			m_bDirty = true;

	mov	ecx, DWORD PTR _this$[ebp]
	mov	BYTE PTR [ecx+224], 1
$LN5@setTexture@2:

; 967  : 		}
; 968  : 	}

	mov	esp, ebp
	pop	ebp
	ret	8
?setTexture@D3DShaderTechnique@Ogre@@UAEXW4ShaderParamUsage@2@PAVHardwarePixelBuffer@2@@Z ENDP ; Ogre::D3DShaderTechnique::setTexture
_TEXT	ENDS
PUBLIC	?getSysBuf@D3DVertexBufferPool@Ogre@@QAEPAUIDirect3DVertexBuffer9@@XZ ; Ogre::D3DVertexBufferPool::getSysBuf
EXTRN	__imp_?getStart@HardwareBuffer@Ogre@@QAEIXZ:PROC
EXTRN	__imp_?getPool@HardwareBuffer@Ogre@@QAEPAVHardwareBufferPool@2@XZ:PROC
; Function compile flags: /Odtp
_TEXT	SEGMENT
tv92 = -28						; size = 4
_this$ = -24						; size = 4
_pool$145441 = -20					; size = 4
_offset$145443 = -16					; size = 4
_pvb$145440 = -12					; size = 4
_i$145435 = -8						; size = 4
_pdevice$ = -4						; size = 4
_vertdecl$ = 8						; size = 4
_ppvb$ = 12						; size = 4
_poffsetbytes$ = 16					; size = 4
?setStreamInput@D3DShaderTechnique@Ogre@@UAEXIPAPAVHardwareVertexBuffer@2@PAI@Z PROC ; Ogre::D3DShaderTechnique::setStreamInput
; _this$ = ecx

; 971  : 	{

	push	ebp
	mov	ebp, esp
	sub	esp, 28					; 0000001cH
	mov	DWORD PTR _this$[ebp], ecx

; 972  : 		assert(ppvb!=NULL);
; 973  : 		IDirect3DDevice9 *pdevice = m_pDevice;

	mov	eax, DWORD PTR _this$[ebp]
	mov	ecx, DWORD PTR [eax+228]
	mov	DWORD PTR _pdevice$[ebp], ecx

; 974  : 
; 975  : 		for(int i=0; i<8; i++)

	mov	DWORD PTR _i$145435[ebp], 0
	jmp	SHORT $LN4@setStreamI
$LN3@setStreamI:
	mov	edx, DWORD PTR _i$145435[ebp]
	add	edx, 1
	mov	DWORD PTR _i$145435[ebp], edx
$LN4@setStreamI:
	cmp	DWORD PTR _i$145435[ebp], 8
	jge	$LN2@setStreamI

; 976  : 		{
; 977  : 			if(ppvb[i] == NULL)

	mov	eax, DWORD PTR _i$145435[ebp]
	mov	ecx, DWORD PTR _ppvb$[ebp]
	cmp	DWORD PTR [ecx+eax*4], 0
	jne	SHORT $LN1@setStreamI

; 978  : 			{
; 979  : 				pdevice->SetStreamSource(i, NULL, 0, 0);

	push	0
	push	0
	push	0
	mov	edx, DWORD PTR _i$145435[ebp]
	push	edx
	mov	eax, DWORD PTR _pdevice$[ebp]
	mov	ecx, DWORD PTR [eax]
	mov	edx, DWORD PTR _pdevice$[ebp]
	push	edx
	mov	eax, DWORD PTR [ecx+400]
	call	eax

; 980  : 				break;

	jmp	SHORT $LN2@setStreamI
$LN1@setStreamI:

; 981  : 			}
; 982  : 
; 983  : 			HardwareVertexBuffer *pvb = ppvb[i];

	mov	ecx, DWORD PTR _i$145435[ebp]
	mov	edx, DWORD PTR _ppvb$[ebp]
	mov	eax, DWORD PTR [edx+ecx*4]
	mov	DWORD PTR _pvb$145440[ebp], eax

; 984  : 			D3DVertexBufferPool *pool = static_cast<D3DVertexBufferPool *>(pvb->getPool());

	mov	ecx, DWORD PTR _pvb$145440[ebp]
	call	DWORD PTR __imp_?getPool@HardwareBuffer@Ogre@@QAEPAVHardwareBufferPool@2@XZ
	mov	DWORD PTR _pool$145441[ebp], eax

; 985  : 
; 986  : 			size_t offset = poffsetbytes==NULL?0:poffsetbytes[i];

	cmp	DWORD PTR _poffsetbytes$[ebp], 0
	jne	SHORT $LN7@setStreamI
	mov	DWORD PTR tv92[ebp], 0
	jmp	SHORT $LN8@setStreamI
$LN7@setStreamI:
	mov	ecx, DWORD PTR _i$145435[ebp]
	mov	edx, DWORD PTR _poffsetbytes$[ebp]
	mov	eax, DWORD PTR [edx+ecx*4]
	mov	DWORD PTR tv92[ebp], eax
$LN8@setStreamI:
	mov	ecx, DWORD PTR tv92[ebp]
	mov	DWORD PTR _offset$145443[ebp], ecx

; 987  : 
; 988  : 			assert(pvb->m_Stride > 0);
; 989  : 			pdevice->SetStreamSource(i, pool->getSysBuf(), (UINT)(pvb->getStart()+offset), (UINT)pvb->m_Stride);

	mov	edx, DWORD PTR _pvb$145440[ebp]
	mov	eax, DWORD PTR [edx+32]
	push	eax
	mov	ecx, DWORD PTR _pvb$145440[ebp]
	call	DWORD PTR __imp_?getStart@HardwareBuffer@Ogre@@QAEIXZ
	add	eax, DWORD PTR _offset$145443[ebp]
	push	eax
	mov	ecx, DWORD PTR _pool$145441[ebp]
	call	?getSysBuf@D3DVertexBufferPool@Ogre@@QAEPAUIDirect3DVertexBuffer9@@XZ ; Ogre::D3DVertexBufferPool::getSysBuf
	push	eax
	mov	ecx, DWORD PTR _i$145435[ebp]
	push	ecx
	mov	edx, DWORD PTR _pdevice$[ebp]
	mov	eax, DWORD PTR [edx]
	mov	ecx, DWORD PTR _pdevice$[ebp]
	push	ecx
	mov	edx, DWORD PTR [eax+400]
	call	edx

; 990  : 		}

	jmp	$LN3@setStreamI
$LN2@setStreamI:

; 991  : 
; 992  : 		pdevice->SetVertexDeclaration(((D3D9VertexDecl *)vertdecl)->m_pVertDecl);

	mov	eax, DWORD PTR _vertdecl$[ebp]
	mov	ecx, DWORD PTR [eax+28]
	push	ecx
	mov	edx, DWORD PTR _pdevice$[ebp]
	mov	eax, DWORD PTR [edx]
	mov	ecx, DWORD PTR _pdevice$[ebp]
	push	ecx
	mov	edx, DWORD PTR [eax+348]
	call	edx

; 993  : 	}

	mov	esp, ebp
	pop	ebp
	ret	12					; 0000000cH
?setStreamInput@D3DShaderTechnique@Ogre@@UAEXIPAPAVHardwareVertexBuffer@2@PAI@Z ENDP ; Ogre::D3DShaderTechnique::setStreamInput
; Function compile flags: /Odtp
; File i:\svnroot\client\plugins\rendersystem_d3d9\ogred3d9hardwarebuffer.h
_TEXT	ENDS
;	COMDAT ?getSysBuf@D3DVertexBufferPool@Ogre@@QAEPAUIDirect3DVertexBuffer9@@XZ
_TEXT	SEGMENT
_this$ = -4						; size = 4
?getSysBuf@D3DVertexBufferPool@Ogre@@QAEPAUIDirect3DVertexBuffer9@@XZ PROC ; Ogre::D3DVertexBufferPool::getSysBuf, COMDAT
; _this$ = ecx

; 37   : 		IDirect3DVertexBuffer9 *getSysBuf(){ return m_pSysBuf; }

	push	ebp
	mov	ebp, esp
	push	ecx
	mov	DWORD PTR _this$[ebp], ecx
	mov	eax, DWORD PTR _this$[ebp]
	mov	eax, DWORD PTR [eax+52]
	mov	esp, ebp
	pop	ebp
	ret	0
?getSysBuf@D3DVertexBufferPool@Ogre@@QAEPAUIDirect3DVertexBuffer9@@XZ ENDP ; Ogre::D3DVertexBufferPool::getSysBuf
; Function compile flags: /Odtp
; File i:\svnroot\client\plugins\rendersystem_d3d9\ogred3d9shadermanager.cpp
_TEXT	ENDS
_TEXT	SEGMENT
tv82 = -28						; size = 4
_this$ = -24						; size = 4
_pool$145462 = -20					; size = 4
_offset$145464 = -16					; size = 4
_pvb$145461 = -12					; size = 4
_i$145457 = -8						; size = 4
_pdevice$ = -4						; size = 4
_vertdecl$ = 8						; size = 4
_ppvb$ = 12						; size = 4
_nNumInstance$ = 16					; size = 4
_poffsetbytes$ = 20					; size = 4
?setStreamInput@D3DShaderTechnique@Ogre@@UAEXIPAPAVHardwareVertexBuffer@2@HPAI@Z PROC ; Ogre::D3DShaderTechnique::setStreamInput
; _this$ = ecx

; 996  : 	{

	push	ebp
	mov	ebp, esp
	sub	esp, 28					; 0000001cH
	mov	DWORD PTR _this$[ebp], ecx

; 997  : 		assert(ppvb!=NULL);
; 998  : 		IDirect3DDevice9 *pdevice = m_pDevice;

	mov	eax, DWORD PTR _this$[ebp]
	mov	ecx, DWORD PTR [eax+228]
	mov	DWORD PTR _pdevice$[ebp], ecx

; 999  : 
; 1000 : 		for(int i=0; i<2; i++)

	mov	DWORD PTR _i$145457[ebp], 0
	jmp	SHORT $LN3@setStreamI@2
$LN2@setStreamI@2:
	mov	edx, DWORD PTR _i$145457[ebp]
	add	edx, 1
	mov	DWORD PTR _i$145457[ebp], edx
$LN3@setStreamI@2:
	cmp	DWORD PTR _i$145457[ebp], 2
	jge	SHORT $LN1@setStreamI@2

; 1001 : 		{
; 1002 : 			HardwareVertexBuffer *pvb = ppvb[i];

	mov	eax, DWORD PTR _i$145457[ebp]
	mov	ecx, DWORD PTR _ppvb$[ebp]
	mov	edx, DWORD PTR [ecx+eax*4]
	mov	DWORD PTR _pvb$145461[ebp], edx

; 1003 : 			D3DVertexBufferPool *pool = static_cast<D3DVertexBufferPool *>(pvb->getPool());

	mov	ecx, DWORD PTR _pvb$145461[ebp]
	call	DWORD PTR __imp_?getPool@HardwareBuffer@Ogre@@QAEPAVHardwareBufferPool@2@XZ
	mov	DWORD PTR _pool$145462[ebp], eax

; 1004 : 
; 1005 : 			size_t offset = poffsetbytes==NULL?0:poffsetbytes[i];

	cmp	DWORD PTR _poffsetbytes$[ebp], 0
	jne	SHORT $LN6@setStreamI@2
	mov	DWORD PTR tv82[ebp], 0
	jmp	SHORT $LN7@setStreamI@2
$LN6@setStreamI@2:
	mov	eax, DWORD PTR _i$145457[ebp]
	mov	ecx, DWORD PTR _poffsetbytes$[ebp]
	mov	edx, DWORD PTR [ecx+eax*4]
	mov	DWORD PTR tv82[ebp], edx
$LN7@setStreamI@2:
	mov	eax, DWORD PTR tv82[ebp]
	mov	DWORD PTR _offset$145464[ebp], eax

; 1006 : 
; 1007 : 			assert(pvb->m_Stride > 0);
; 1008 : 			pdevice->SetStreamSource(i, pool->getSysBuf(), (UINT)(pvb->getStart()+offset), (UINT)pvb->m_Stride);

	mov	ecx, DWORD PTR _pvb$145461[ebp]
	mov	edx, DWORD PTR [ecx+32]
	push	edx
	mov	ecx, DWORD PTR _pvb$145461[ebp]
	call	DWORD PTR __imp_?getStart@HardwareBuffer@Ogre@@QAEIXZ
	add	eax, DWORD PTR _offset$145464[ebp]
	push	eax
	mov	ecx, DWORD PTR _pool$145462[ebp]
	call	?getSysBuf@D3DVertexBufferPool@Ogre@@QAEPAUIDirect3DVertexBuffer9@@XZ ; Ogre::D3DVertexBufferPool::getSysBuf
	push	eax
	mov	eax, DWORD PTR _i$145457[ebp]
	push	eax
	mov	ecx, DWORD PTR _pdevice$[ebp]
	mov	edx, DWORD PTR [ecx]
	mov	eax, DWORD PTR _pdevice$[ebp]
	push	eax
	mov	ecx, DWORD PTR [edx+400]
	call	ecx

; 1009 : 		}

	jmp	SHORT $LN2@setStreamI@2
$LN1@setStreamI@2:

; 1010 : 
; 1011 : 		pdevice->SetStreamSourceFreq(0,D3DSTREAMSOURCE_INDEXEDDATA | nNumInstance);

	mov	edx, DWORD PTR _nNumInstance$[ebp]
	or	edx, 1073741824				; 40000000H
	push	edx
	push	0
	mov	eax, DWORD PTR _pdevice$[ebp]
	mov	ecx, DWORD PTR [eax]
	mov	edx, DWORD PTR _pdevice$[ebp]
	push	edx
	mov	eax, DWORD PTR [ecx+408]
	call	eax

; 1012 : 
; 1013 : 		pdevice->SetStreamSourceFreq(1,D3DSTREAMSOURCE_INSTANCEDATA | 1ul);

	push	-2147483647				; 80000001H
	push	1
	mov	ecx, DWORD PTR _pdevice$[ebp]
	mov	edx, DWORD PTR [ecx]
	mov	eax, DWORD PTR _pdevice$[ebp]
	push	eax
	mov	ecx, DWORD PTR [edx+408]
	call	ecx

; 1014 : 
; 1015 : 		pdevice->SetVertexDeclaration(((D3D9VertexDecl *)vertdecl)->m_pVertDecl);

	mov	edx, DWORD PTR _vertdecl$[ebp]
	mov	eax, DWORD PTR [edx+28]
	push	eax
	mov	ecx, DWORD PTR _pdevice$[ebp]
	mov	edx, DWORD PTR [ecx]
	mov	eax, DWORD PTR _pdevice$[ebp]
	push	eax
	mov	ecx, DWORD PTR [edx+348]
	call	ecx

; 1016 : 	}

	mov	esp, ebp
	pop	ebp
	ret	16					; 00000010H
?setStreamInput@D3DShaderTechnique@Ogre@@UAEXIPAPAVHardwareVertexBuffer@2@HPAI@Z ENDP ; Ogre::D3DShaderTechnique::setStreamInput
; Function compile flags: /Odtp
_this$ = -12						; size = 4
_pool$ = -8						; size = 4
_pdevice$ = -4						; size = 4
_vertdecl$ = 8						; size = 4
_pvb$ = 12						; size = 4
_offset$ = 16						; size = 4
?setStreamInput@D3DShaderTechnique@Ogre@@UAEXIPAVHardwareVertexBuffer@2@I@Z PROC ; Ogre::D3DShaderTechnique::setStreamInput
; _this$ = ecx

; 1019 : 	{

	push	ebp
	mov	ebp, esp
	sub	esp, 12					; 0000000cH
	mov	DWORD PTR _this$[ebp], ecx

; 1020 : 		assert(pvb!=NULL);
; 1021 : 		IDirect3DDevice9 *pdevice = m_pDevice;

	mov	eax, DWORD PTR _this$[ebp]
	mov	ecx, DWORD PTR [eax+228]
	mov	DWORD PTR _pdevice$[ebp], ecx

; 1022 : 		D3DVertexBufferPool *pool = static_cast<D3DVertexBufferPool *>(pvb->getPool());

	mov	ecx, DWORD PTR _pvb$[ebp]
	call	DWORD PTR __imp_?getPool@HardwareBuffer@Ogre@@QAEPAVHardwareBufferPool@2@XZ
	mov	DWORD PTR _pool$[ebp], eax

; 1023 : 
; 1024 : 		assert(pvb->m_Stride > 0);
; 1025 : 		pdevice->SetStreamSource(0, pool->getSysBuf(), (UINT)(pvb->getStart()+offset), (UINT)pvb->m_Stride);

	mov	edx, DWORD PTR _pvb$[ebp]
	mov	eax, DWORD PTR [edx+32]
	push	eax
	mov	ecx, DWORD PTR _pvb$[ebp]
	call	DWORD PTR __imp_?getStart@HardwareBuffer@Ogre@@QAEIXZ
	add	eax, DWORD PTR _offset$[ebp]
	push	eax
	mov	ecx, DWORD PTR _pool$[ebp]
	call	?getSysBuf@D3DVertexBufferPool@Ogre@@QAEPAUIDirect3DVertexBuffer9@@XZ ; Ogre::D3DVertexBufferPool::getSysBuf
	push	eax
	push	0
	mov	ecx, DWORD PTR _pdevice$[ebp]
	mov	edx, DWORD PTR [ecx]
	mov	eax, DWORD PTR _pdevice$[ebp]
	push	eax
	mov	ecx, DWORD PTR [edx+400]
	call	ecx

; 1026 : 		pdevice->SetStreamSource(1, NULL, 0, 0);

	push	0
	push	0
	push	0
	push	1
	mov	edx, DWORD PTR _pdevice$[ebp]
	mov	eax, DWORD PTR [edx]
	mov	ecx, DWORD PTR _pdevice$[ebp]
	push	ecx
	mov	edx, DWORD PTR [eax+400]
	call	edx

; 1027 : 
; 1028 : 		pdevice->SetVertexDeclaration(((D3D9VertexDecl *)vertdecl)->m_pVertDecl);

	mov	eax, DWORD PTR _vertdecl$[ebp]
	mov	ecx, DWORD PTR [eax+28]
	push	ecx
	mov	edx, DWORD PTR _pdevice$[ebp]
	mov	eax, DWORD PTR [edx]
	mov	ecx, DWORD PTR _pdevice$[ebp]
	push	ecx
	mov	edx, DWORD PTR [eax+348]
	call	edx

; 1029 : 	}

	mov	esp, ebp
	pop	ebp
	ret	12					; 0000000cH
?setStreamInput@D3DShaderTechnique@Ogre@@UAEXIPAVHardwareVertexBuffer@2@I@Z ENDP ; Ogre::D3DShaderTechnique::setStreamInput
; Function compile flags: /Odtp
_this$ = -16						; size = 4
_pdevice$ = -12						; size = 4
_d3dprimtype$ = -8					; size = 4
_stats$ = -4						; size = 4
_primtype$ = 8						; size = 4
_start_vert$ = 12					; size = 4
_nprimitive$ = 16					; size = 4
?draw@D3DShaderTechnique@Ogre@@UAEXW4PrimitiveType@2@II@Z PROC ; Ogre::D3DShaderTechnique::draw
; _this$ = ecx

; 1054 : 	{

	push	ebp
	mov	ebp, esp
	sub	esp, 16					; 00000010H
	mov	DWORD PTR _this$[ebp], ecx

; 1055 : 		D3DPRIMITIVETYPE d3dprimtype = Topo2D3DPrim(primtype);

	mov	eax, DWORD PTR _primtype$[ebp]
	push	eax
	call	?Topo2D3DPrim@Ogre@@YA?AW4_D3DPRIMITIVETYPE@@W4PrimitiveType@1@@Z ; Ogre::Topo2D3DPrim
	add	esp, 4
	mov	DWORD PTR _d3dprimtype$[ebp], eax

; 1056 : 		IDirect3DDevice9 *pdevice = m_pDevice;

	mov	ecx, DWORD PTR _this$[ebp]
	mov	edx, DWORD PTR [ecx+228]
	mov	DWORD PTR _pdevice$[ebp], edx

; 1057 : 
; 1058 : 		commitChanges();

	mov	eax, DWORD PTR _this$[ebp]
	mov	edx, DWORD PTR [eax]
	mov	ecx, DWORD PTR _this$[ebp]
	mov	eax, DWORD PTR [edx+44]
	call	eax

; 1059 : 
; 1060 : 		pdevice->DrawPrimitive(d3dprimtype, (UINT)start_vert, (UINT)nprimitive);

	mov	ecx, DWORD PTR _nprimitive$[ebp]
	push	ecx
	mov	edx, DWORD PTR _start_vert$[ebp]
	push	edx
	mov	eax, DWORD PTR _d3dprimtype$[ebp]
	push	eax
	mov	ecx, DWORD PTR _pdevice$[ebp]
	mov	edx, DWORD PTR [ecx]
	mov	eax, DWORD PTR _pdevice$[ebp]
	push	eax
	mov	ecx, DWORD PTR [edx+324]
	call	ecx

; 1061 : 
; 1062 : 		RenderSystem::RenderStats &stats = static_cast<D3D9RenderSystem *>(RenderSystem::getSingletonPtr())->m_RenderStats;

	call	DWORD PTR __imp_?getSingletonPtr@?$Singleton@VRenderSystem@Ogre@@@Ogre@@SAPAVRenderSystem@2@XZ
	add	eax, 4
	mov	DWORD PTR _stats$[ebp], eax

; 1063 : 		stats.ndraw_d++;

	mov	edx, DWORD PTR _stats$[ebp]
	mov	eax, DWORD PTR [edx+28]
	add	eax, 1
	mov	ecx, DWORD PTR _stats$[ebp]
	mov	DWORD PTR [ecx+28], eax

; 1064 : 		stats.nprimitive_d += nprimitive;

	mov	edx, DWORD PTR _stats$[ebp]
	mov	eax, DWORD PTR [edx+24]
	add	eax, DWORD PTR _nprimitive$[ebp]
	mov	ecx, DWORD PTR _stats$[ebp]
	mov	DWORD PTR [ecx+24], eax

; 1065 : 	}

	mov	esp, ebp
	pop	ebp
	ret	12					; 0000000cH
?draw@D3DShaderTechnique@Ogre@@UAEXW4PrimitiveType@2@II@Z ENDP ; Ogre::D3DShaderTechnique::draw
; Function compile flags: /Odtp
tv64 = -4						; size = 4
_topo$ = 8						; size = 4
?Topo2D3DPrim@Ogre@@YA?AW4_D3DPRIMITIVETYPE@@W4PrimitiveType@1@@Z PROC ; Ogre::Topo2D3DPrim

; 1032 : 	{

	push	ebp
	mov	ebp, esp
	push	ecx

; 1033 : 		switch(topo)

	mov	eax, DWORD PTR _topo$[ebp]
	mov	DWORD PTR tv64[ebp], eax
	mov	ecx, DWORD PTR tv64[ebp]
	sub	ecx, 1
	mov	DWORD PTR tv64[ebp], ecx
	cmp	DWORD PTR tv64[ebp], 5
	ja	SHORT $LN1@Topo2D3DPr
	mov	edx, DWORD PTR tv64[ebp]
	jmp	DWORD PTR $LN12@Topo2D3DPr[edx*4]
$LN7@Topo2D3DPr:

; 1034 : 		{
; 1035 : 		case PRIM_POINTLIST:
; 1036 : 			return D3DPT_POINTLIST;

	mov	eax, 1
	jmp	SHORT $LN10@Topo2D3DPr
$LN6@Topo2D3DPr:

; 1037 : 		case PRIM_LINELIST:
; 1038 : 			return D3DPT_LINELIST;

	mov	eax, 2
	jmp	SHORT $LN10@Topo2D3DPr
$LN5@Topo2D3DPr:

; 1039 : 		case PRIM_LINESTRIP:
; 1040 : 			return D3DPT_LINESTRIP;

	mov	eax, 3
	jmp	SHORT $LN10@Topo2D3DPr
$LN4@Topo2D3DPr:

; 1041 : 		case PRIM_TRIANGLELIST:
; 1042 : 			return D3DPT_TRIANGLELIST;

	mov	eax, 4
	jmp	SHORT $LN10@Topo2D3DPr
$LN3@Topo2D3DPr:

; 1043 : 		case PRIM_TRIANGLESTRIP:
; 1044 : 			return D3DPT_TRIANGLESTRIP;

	mov	eax, 5
	jmp	SHORT $LN10@Topo2D3DPr
$LN2@Topo2D3DPr:

; 1045 : 		case PRIM_TRIANGLEFAN:
; 1046 : 			return D3DPT_TRIANGLEFAN;

	mov	eax, 6
	jmp	SHORT $LN10@Topo2D3DPr
$LN1@Topo2D3DPr:

; 1047 : 		default:
; 1048 : 			assert(0);
; 1049 : 			return D3DPT_POINTLIST;

	mov	eax, 1
$LN10@Topo2D3DPr:

; 1050 : 		}
; 1051 : 	}

	mov	esp, ebp
	pop	ebp
	ret	0
	npad	2
$LN12@Topo2D3DPr:
	DD	$LN7@Topo2D3DPr
	DD	$LN6@Topo2D3DPr
	DD	$LN5@Topo2D3DPr
	DD	$LN4@Topo2D3DPr
	DD	$LN3@Topo2D3DPr
	DD	$LN2@Topo2D3DPr
?Topo2D3DPrim@Ogre@@YA?AW4_D3DPRIMITIVETYPE@@W4PrimitiveType@1@@Z ENDP ; Ogre::Topo2D3DPrim
_TEXT	ENDS
PUBLIC	?getSysBuf@D3DIndexBufferPool@Ogre@@QAEPAUIDirect3DIndexBuffer9@@XZ ; Ogre::D3DIndexBufferPool::getSysBuf
EXTRN	__imp_?getStartIndex@HardwareIndexBuffer@Ogre@@QAEIXZ:PROC
; Function compile flags: /Odtp
_TEXT	SEGMENT
_this$ = -16						; size = 4
_pdevice$ = -12						; size = 4
_d3dprimtype$ = -8					; size = 4
_stats$ = -4						; size = 4
_primtype$ = 8						; size = 4
_start_vert$ = 12					; size = 4
_nprimitive$ = 16					; size = 4
_pib$ = 20						; size = 4
_refvert_start$ = 24					; size = 4
_refvert_num$ = 28					; size = 4
?draw@D3DShaderTechnique@Ogre@@UAEXW4PrimitiveType@2@IIPAVHardwareIndexBuffer@2@II@Z PROC ; Ogre::D3DShaderTechnique::draw
; _this$ = ecx

; 1068 : 	{

	push	ebp
	mov	ebp, esp
	sub	esp, 16					; 00000010H
