; Listing generated by Microsoft (R) Optimizing Compiler Version 15.00.30729.01 

	TITLE	i:\svnroot\client\Plugins\RenderSystem_D3D9\OgreD3DRenderWindow.cpp
	.686P
	.XMM
	include listing.inc
	.model	flat

INCLUDELIB MSVCRT
INCLUDELIB OLDNAMES

PUBLIC	?_Value@?$_Is_swap_move@U_Swap_move_tag@std@@@std@@2_NB ; std::_Is_swap_move<std::_Swap_move_tag>::_Value
PUBLIC	?collate@?$_Locbase@H@std@@2HB			; std::_Locbase<int>::collate
PUBLIC	?ctype@?$_Locbase@H@std@@2HB			; std::_Locbase<int>::ctype
PUBLIC	?monetary@?$_Locbase@H@std@@2HB			; std::_Locbase<int>::monetary
PUBLIC	?numeric@?$_Locbase@H@std@@2HB			; std::_Locbase<int>::numeric
PUBLIC	?time@?$_Locbase@H@std@@2HB			; std::_Locbase<int>::time
PUBLIC	?messages@?$_Locbase@H@std@@2HB			; std::_Locbase<int>::messages
PUBLIC	?all@?$_Locbase@H@std@@2HB			; std::_Locbase<int>::all
PUBLIC	?none@?$_Locbase@H@std@@2HB			; std::_Locbase<int>::none
PUBLIC	?skipws@?$_Iosb@H@std@@2W4_Fmtflags@12@B	; std::_Iosb<int>::skipws
PUBLIC	?unitbuf@?$_Iosb@H@std@@2W4_Fmtflags@12@B	; std::_Iosb<int>::unitbuf
PUBLIC	?uppercase@?$_Iosb@H@std@@2W4_Fmtflags@12@B	; std::_Iosb<int>::uppercase
PUBLIC	?showbase@?$_Iosb@H@std@@2W4_Fmtflags@12@B	; std::_Iosb<int>::showbase
PUBLIC	?showpoint@?$_Iosb@H@std@@2W4_Fmtflags@12@B	; std::_Iosb<int>::showpoint
PUBLIC	?showpos@?$_Iosb@H@std@@2W4_Fmtflags@12@B	; std::_Iosb<int>::showpos
PUBLIC	?left@?$_Iosb@H@std@@2W4_Fmtflags@12@B		; std::_Iosb<int>::left
PUBLIC	?right@?$_Iosb@H@std@@2W4_Fmtflags@12@B		; std::_Iosb<int>::right
PUBLIC	?internal@?$_Iosb@H@std@@2W4_Fmtflags@12@B	; std::_Iosb<int>::internal
PUBLIC	?dec@?$_Iosb@H@std@@2W4_Fmtflags@12@B		; std::_Iosb<int>::dec
PUBLIC	?oct@?$_Iosb@H@std@@2W4_Fmtflags@12@B		; std::_Iosb<int>::oct
PUBLIC	?hex@?$_Iosb@H@std@@2W4_Fmtflags@12@B		; std::_Iosb<int>::hex
PUBLIC	?scientific@?$_Iosb@H@std@@2W4_Fmtflags@12@B	; std::_Iosb<int>::scientific
PUBLIC	?fixed@?$_Iosb@H@std@@2W4_Fmtflags@12@B		; std::_Iosb<int>::fixed
PUBLIC	?hexfloat@?$_Iosb@H@std@@2W4_Fmtflags@12@B	; std::_Iosb<int>::hexfloat
PUBLIC	?boolalpha@?$_Iosb@H@std@@2W4_Fmtflags@12@B	; std::_Iosb<int>::boolalpha
PUBLIC	?_Stdio@?$_Iosb@H@std@@2W4_Fmtflags@12@B	; std::_Iosb<int>::_Stdio
PUBLIC	?adjustfield@?$_Iosb@H@std@@2W4_Fmtflags@12@B	; std::_Iosb<int>::adjustfield
PUBLIC	?basefield@?$_Iosb@H@std@@2W4_Fmtflags@12@B	; std::_Iosb<int>::basefield
PUBLIC	?floatfield@?$_Iosb@H@std@@2W4_Fmtflags@12@B	; std::_Iosb<int>::floatfield
PUBLIC	?goodbit@?$_Iosb@H@std@@2W4_Iostate@12@B	; std::_Iosb<int>::goodbit
PUBLIC	?eofbit@?$_Iosb@H@std@@2W4_Iostate@12@B		; std::_Iosb<int>::eofbit
PUBLIC	?failbit@?$_Iosb@H@std@@2W4_Iostate@12@B	; std::_Iosb<int>::failbit
PUBLIC	?badbit@?$_Iosb@H@std@@2W4_Iostate@12@B		; std::_Iosb<int>::badbit
PUBLIC	?_Hardfail@?$_Iosb@H@std@@2W4_Iostate@12@B	; std::_Iosb<int>::_Hardfail
PUBLIC	?in@?$_Iosb@H@std@@2W4_Openmode@12@B		; std::_Iosb<int>::in
PUBLIC	?out@?$_Iosb@H@std@@2W4_Openmode@12@B		; std::_Iosb<int>::out
PUBLIC	?ate@?$_Iosb@H@std@@2W4_Openmode@12@B		; std::_Iosb<int>::ate
PUBLIC	?app@?$_Iosb@H@std@@2W4_Openmode@12@B		; std::_Iosb<int>::app
PUBLIC	?trunc@?$_Iosb@H@std@@2W4_Openmode@12@B		; std::_Iosb<int>::trunc
PUBLIC	?_Nocreate@?$_Iosb@H@std@@2W4_Openmode@12@B	; std::_Iosb<int>::_Nocreate
PUBLIC	?_Noreplace@?$_Iosb@H@std@@2W4_Openmode@12@B	; std::_Iosb<int>::_Noreplace
PUBLIC	?binary@?$_Iosb@H@std@@2W4_Openmode@12@B	; std::_Iosb<int>::binary
PUBLIC	?beg@?$_Iosb@H@std@@2W4_Seekdir@12@B		; std::_Iosb<int>::beg
PUBLIC	?cur@?$_Iosb@H@std@@2W4_Seekdir@12@B		; std::_Iosb<int>::cur
PUBLIC	?end@?$_Iosb@H@std@@2W4_Seekdir@12@B		; std::_Iosb<int>::end
PUBLIC	?value@?$integral_constant@_N$0A@@tr1@std@@2_NB	; std::tr1::integral_constant<bool,0>::value
PUBLIC	?value@?$integral_constant@_N$00@tr1@std@@2_NB	; std::tr1::integral_constant<bool,1>::value
;	COMDAT ?value@?$integral_constant@_N$00@tr1@std@@2_NB
CONST	SEGMENT
?value@?$integral_constant@_N$00@tr1@std@@2_NB DB 01H	; std::tr1::integral_constant<bool,1>::value
CONST	ENDS
;	COMDAT ?value@?$integral_constant@_N$0A@@tr1@std@@2_NB
CONST	SEGMENT
?value@?$integral_constant@_N$0A@@tr1@std@@2_NB DB 00H	; std::tr1::integral_constant<bool,0>::value
CONST	ENDS
;	COMDAT ?end@?$_Iosb@H@std@@2W4_Seekdir@12@B
CONST	SEGMENT
?end@?$_Iosb@H@std@@2W4_Seekdir@12@B DD 02H		; std::_Iosb<int>::end
CONST	ENDS
;	COMDAT ?cur@?$_Iosb@H@std@@2W4_Seekdir@12@B
CONST	SEGMENT
?cur@?$_Iosb@H@std@@2W4_Seekdir@12@B DD 01H		; std::_Iosb<int>::cur
CONST	ENDS
;	COMDAT ?beg@?$_Iosb@H@std@@2W4_Seekdir@12@B
CONST	SEGMENT
?beg@?$_Iosb@H@std@@2W4_Seekdir@12@B DD 00H		; std::_Iosb<int>::beg
CONST	ENDS
;	COMDAT ?binary@?$_Iosb@H@std@@2W4_Openmode@12@B
CONST	SEGMENT
?binary@?$_Iosb@H@std@@2W4_Openmode@12@B DD 020H	; std::_Iosb<int>::binary
CONST	ENDS
;	COMDAT ?_Noreplace@?$_Iosb@H@std@@2W4_Openmode@12@B
CONST	SEGMENT
?_Noreplace@?$_Iosb@H@std@@2W4_Openmode@12@B DD 080H	; std::_Iosb<int>::_Noreplace
CONST	ENDS
;	COMDAT ?_Nocreate@?$_Iosb@H@std@@2W4_Openmode@12@B
CONST	SEGMENT
?_Nocreate@?$_Iosb@H@std@@2W4_Openmode@12@B DD 040H	; std::_Iosb<int>::_Nocreate
CONST	ENDS
;	COMDAT ?trunc@?$_Iosb@H@std@@2W4_Openmode@12@B
CONST	SEGMENT
?trunc@?$_Iosb@H@std@@2W4_Openmode@12@B DD 010H		; std::_Iosb<int>::trunc
CONST	ENDS
;	COMDAT ?app@?$_Iosb@H@std@@2W4_Openmode@12@B
CONST	SEGMENT
?app@?$_Iosb@H@std@@2W4_Openmode@12@B DD 08H		; std::_Iosb<int>::app
CONST	ENDS
;	COMDAT ?ate@?$_Iosb@H@std@@2W4_Openmode@12@B
CONST	SEGMENT
?ate@?$_Iosb@H@std@@2W4_Openmode@12@B DD 04H		; std::_Iosb<int>::ate
CONST	ENDS
;	COMDAT ?out@?$_Iosb@H@std@@2W4_Openmode@12@B
CONST	SEGMENT
?out@?$_Iosb@H@std@@2W4_Openmode@12@B DD 02H		; std::_Iosb<int>::out
CONST	ENDS
;	COMDAT ?in@?$_Iosb@H@std@@2W4_Openmode@12@B
CONST	SEGMENT
?in@?$_Iosb@H@std@@2W4_Openmode@12@B DD 01H		; std::_Iosb<int>::in
CONST	ENDS
;	COMDAT ?_Hardfail@?$_Iosb@H@std@@2W4_Iostate@12@B
CONST	SEGMENT
?_Hardfail@?$_Iosb@H@std@@2W4_Iostate@12@B DD 010H	; std::_Iosb<int>::_Hardfail
CONST	ENDS
;	COMDAT ?badbit@?$_Iosb@H@std@@2W4_Iostate@12@B
CONST	SEGMENT
?badbit@?$_Iosb@H@std@@2W4_Iostate@12@B DD 04H		; std::_Iosb<int>::badbit
CONST	ENDS
;	COMDAT ?failbit@?$_Iosb@H@std@@2W4_Iostate@12@B
CONST	SEGMENT
?failbit@?$_Iosb@H@std@@2W4_Iostate@12@B DD 02H		; std::_Iosb<int>::failbit
CONST	ENDS
;	COMDAT ?eofbit@?$_Iosb@H@std@@2W4_Iostate@12@B
CONST	SEGMENT
?eofbit@?$_Iosb@H@std@@2W4_Iostate@12@B DD 01H		; std::_Iosb<int>::eofbit
CONST	ENDS
;	COMDAT ?goodbit@?$_Iosb@H@std@@2W4_Iostate@12@B
CONST	SEGMENT
?goodbit@?$_Iosb@H@std@@2W4_Iostate@12@B DD 00H		; std::_Iosb<int>::goodbit
CONST	ENDS
;	COMDAT ?floatfield@?$_Iosb@H@std@@2W4_Fmtflags@12@B
CONST	SEGMENT
?floatfield@?$_Iosb@H@std@@2W4_Fmtflags@12@B DD 03000H	; std::_Iosb<int>::floatfield
CONST	ENDS
;	COMDAT ?basefield@?$_Iosb@H@std@@2W4_Fmtflags@12@B
CONST	SEGMENT
?basefield@?$_Iosb@H@std@@2W4_Fmtflags@12@B DD 0e00H	; std::_Iosb<int>::basefield
CONST	ENDS
;	COMDAT ?adjustfield@?$_Iosb@H@std@@2W4_Fmtflags@12@B
CONST	SEGMENT
?adjustfield@?$_Iosb@H@std@@2W4_Fmtflags@12@B DD 01c0H	; std::_Iosb<int>::adjustfield
CONST	ENDS
;	COMDAT ?_Stdio@?$_Iosb@H@std@@2W4_Fmtflags@12@B
CONST	SEGMENT
?_Stdio@?$_Iosb@H@std@@2W4_Fmtflags@12@B DD 08000H	; std::_Iosb<int>::_Stdio
CONST	ENDS
;	COMDAT ?boolalpha@?$_Iosb@H@std@@2W4_Fmtflags@12@B
CONST	SEGMENT
?boolalpha@?$_Iosb@H@std@@2W4_Fmtflags@12@B DD 04000H	; std::_Iosb<int>::boolalpha
CONST	ENDS
;	COMDAT ?hexfloat@?$_Iosb@H@std@@2W4_Fmtflags@12@B
CONST	SEGMENT
?hexfloat@?$_Iosb@H@std@@2W4_Fmtflags@12@B DD 03000H	; std::_Iosb<int>::hexfloat
CONST	ENDS
;	COMDAT ?fixed@?$_Iosb@H@std@@2W4_Fmtflags@12@B
CONST	SEGMENT
?fixed@?$_Iosb@H@std@@2W4_Fmtflags@12@B DD 02000H	; std::_Iosb<int>::fixed
CONST	ENDS
;	COMDAT ?scientific@?$_Iosb@H@std@@2W4_Fmtflags@12@B
CONST	SEGMENT
?scientific@?$_Iosb@H@std@@2W4_Fmtflags@12@B DD 01000H	; std::_Iosb<int>::scientific
CONST	ENDS
;	COMDAT ?hex@?$_Iosb@H@std@@2W4_Fmtflags@12@B
CONST	SEGMENT
?hex@?$_Iosb@H@std@@2W4_Fmtflags@12@B DD 0800H		; std::_Iosb<int>::hex
CONST	ENDS
;	COMDAT ?oct@?$_Iosb@H@std@@2W4_Fmtflags@12@B
CONST	SEGMENT
?oct@?$_Iosb@H@std@@2W4_Fmtflags@12@B DD 0400H		; std::_Iosb<int>::oct
CONST	ENDS
;	COMDAT ?dec@?$_Iosb@H@std@@2W4_Fmtflags@12@B
CONST	SEGMENT
?dec@?$_Iosb@H@std@@2W4_Fmtflags@12@B DD 0200H		; std::_Iosb<int>::dec
CONST	ENDS
;	COMDAT ?internal@?$_Iosb@H@std@@2W4_Fmtflags@12@B
CONST	SEGMENT
?internal@?$_Iosb@H@std@@2W4_Fmtflags@12@B DD 0100H	; std::_Iosb<int>::internal
CONST	ENDS
;	COMDAT ?right@?$_Iosb@H@std@@2W4_Fmtflags@12@B
CONST	SEGMENT
?right@?$_Iosb@H@std@@2W4_Fmtflags@12@B DD 080H		; std::_Iosb<int>::right
CONST	ENDS
;	COMDAT ?left@?$_Iosb@H@std@@2W4_Fmtflags@12@B
CONST	SEGMENT
?left@?$_Iosb@H@std@@2W4_Fmtflags@12@B DD 040H		; std::_Iosb<int>::left
CONST	ENDS
;	COMDAT ?showpos@?$_Iosb@H@std@@2W4_Fmtflags@12@B
CONST	SEGMENT
?showpos@?$_Iosb@H@std@@2W4_Fmtflags@12@B DD 020H	; std::_Iosb<int>::showpos
CONST	ENDS
;	COMDAT ?showpoint@?$_Iosb@H@std@@2W4_Fmtflags@12@B
CONST	SEGMENT
?showpoint@?$_Iosb@H@std@@2W4_Fmtflags@12@B DD 010H	; std::_Iosb<int>::showpoint
CONST	ENDS
;	COMDAT ?showbase@?$_Iosb@H@std@@2W4_Fmtflags@12@B
CONST	SEGMENT
?showbase@?$_Iosb@H@std@@2W4_Fmtflags@12@B DD 08H	; std::_Iosb<int>::showbase
CONST	ENDS
;	COMDAT ?uppercase@?$_Iosb@H@std@@2W4_Fmtflags@12@B
CONST	SEGMENT
?uppercase@?$_Iosb@H@std@@2W4_Fmtflags@12@B DD 04H	; std::_Iosb<int>::uppercase
CONST	ENDS
;	COMDAT ?unitbuf@?$_Iosb@H@std@@2W4_Fmtflags@12@B
CONST	SEGMENT
?unitbuf@?$_Iosb@H@std@@2W4_Fmtflags@12@B DD 02H	; std::_Iosb<int>::unitbuf
CONST	ENDS
;	COMDAT ?skipws@?$_Iosb@H@std@@2W4_Fmtflags@12@B
CONST	SEGMENT
?skipws@?$_Iosb@H@std@@2W4_Fmtflags@12@B DD 01H		; std::_Iosb<int>::skipws
CONST	ENDS
;	COMDAT ?none@?$_Locbase@H@std@@2HB
CONST	SEGMENT
?none@?$_Locbase@H@std@@2HB DD 00H			; std::_Locbase<int>::none
CONST	ENDS
;	COMDAT ?all@?$_Locbase@H@std@@2HB
CONST	SEGMENT
?all@?$_Locbase@H@std@@2HB DD 03fH			; std::_Locbase<int>::all
CONST	ENDS
;	COMDAT ?messages@?$_Locbase@H@std@@2HB
CONST	SEGMENT
?messages@?$_Locbase@H@std@@2HB DD 020H			; std::_Locbase<int>::messages
CONST	ENDS
;	COMDAT ?time@?$_Locbase@H@std@@2HB
CONST	SEGMENT
?time@?$_Locbase@H@std@@2HB DD 010H			; std::_Locbase<int>::time
CONST	ENDS
;	COMDAT ?numeric@?$_Locbase@H@std@@2HB
CONST	SEGMENT
?numeric@?$_Locbase@H@std@@2HB DD 08H			; std::_Locbase<int>::numeric
CONST	ENDS
;	COMDAT ?monetary@?$_Locbase@H@std@@2HB
CONST	SEGMENT
?monetary@?$_Locbase@H@std@@2HB DD 04H			; std::_Locbase<int>::monetary
CONST	ENDS
;	COMDAT ?ctype@?$_Locbase@H@std@@2HB
CONST	SEGMENT
?ctype@?$_Locbase@H@std@@2HB DD 02H			; std::_Locbase<int>::ctype
CONST	ENDS
;	COMDAT ?collate@?$_Locbase@H@std@@2HB
CONST	SEGMENT
?collate@?$_Locbase@H@std@@2HB DD 01H			; std::_Locbase<int>::collate
CONST	ENDS
;	COMDAT ?_Value@?$_Is_swap_move@U_Swap_move_tag@std@@@std@@2_NB
CONST	SEGMENT
?_Value@?$_Is_swap_move@U_Swap_move_tag@std@@@std@@2_NB DB 01H ; std::_Is_swap_move<std::_Swap_move_tag>::_Value
CONST	ENDS
_DATA	SEGMENT
__bad_alloc_Message DD FLAT:$SG5714
_DATA	ENDS
CONST	SEGMENT
$SG5714	DB	'bad allocation', 00H
$SG131390 DB	00H
$SG131298 DB	'.\OgreD3DRenderWindow.cpp', 00H
$SG131401 DB	00H
	ORG $+1
$SG131299 DB	'Failed to get proper setting', 00H
	ORG $+3
$SG131303 DB	'.\OgreD3DRenderWindow.cpp', 00H
	ORG $+2
$SG131304 DB	'Null RefDevice', 00H
	ORG $+1
$SG131307 DB	'.\OgreD3DRenderWindow.cpp', 00H
	ORG $+2
$SG131308 DB	'Failed to create d3d device', 00H
$SG131309 DB	'Error', 00H
	ORG $+2
$SG131310 DB	'Direct3D', 0c9H, 0e8H, 0b1H, 0b8H, 0b4H, 0b4H, 0bdH, 0a8H
	DB	0caH, 0a7H, 0b0H, 0dcH, 0a3H, 0acH, 0c8H, 0e7H, 0b9H, 0fbH, 0c4H
	DB	0faH, 0caH, 0c7H, 0d4H, 0daH, 0b6H, 0e0H, 0bfH, 0aaH, 0bfH, 0cdH
	DB	0bbH, 0a7H, 0b6H, 0cbH, 0a3H, 0acH, 0bfH, 0c9H, 0cdH, 0a8H, 0b9H
	DB	0fdH, 'Lunacher', 0bdH, 0b5H, 0b5H, 0cdH, 0c5H, 0e4H, 0d6H, 0c3H
	DB	0d4H, 0d9H, 0caH, 0d4H, 0a1H, 0a3H, 00H
	ORG $+3
$SG131330 DB	'.\OgreD3DRenderWindow.cpp', 00H
	ORG $+2
$SG131331 DB	'D3DRenderWindow::createDeviceObj--', 0bbH, 0f1H, 0c8H, 0a1H
	DB	0baH, 0f3H, 0ccH, 0a8H, 0bbH, 0baH, 0b4H, 0e6H, 0caH, 0a7H, 0b0H
	DB	0dcH, '--123', 00H
$SG131334 DB	'.\OgreD3DRenderWindow.cpp', 00H
	ORG $+2
$SG131335 DB	'D3DRenderWindow::createDeviceObj--', 0bbH, 0f1H, 0c8H, 0a1H
	DB	0c4H, 0a3H, 0b0H, 0e5H, 0c9H, 0eeH, 0b6H, 0c8H, 0bbH, 0baH, 0b4H
	DB	0e6H, 0caH, 0a7H, 0b0H, 0dcH, '--128', 00H
$SG131354 DB	'D3D_OK', 00H
	ORG $+1
$SG131361 DB	'D3DERR_DEVICELOST', 00H
	ORG $+2
$SG131368 DB	'D3DERR_DEVICEREMOVED', 00H
	ORG $+3
$SG131375 DB	'D3DERR_DRIVERINTERNALERROR', 00H
	ORG $+1
$SG131382 DB	'D3DERR_OUTOFVIDEOMEMORY ', 00H
	ORG $+3
$SG131389 DB	'D3DERR_INVALIDCALL ', 00H
$SG131402 DB	'.\OgreD3DRenderWindow.cpp', 00H
	ORG $+2
$SG131403 DB	'D3DRenderWindow::onResetDevice--', 0d6H, 0d8H, 0d6H, 0c3H
	DB	0c9H, 0e8H, 0b1H, 0b8H, 0caH, 0a7H, 0b0H, 0dcH, 0a3H, 0acH, 0b4H
	DB	0edH, 0ceH, 0f3H, 0c2H, 0ebH, '%s--171', 00H
$SG131406 DB	'.\OgreD3DRenderWindow.cpp', 00H
	ORG $+2
$SG131407 DB	'D3DRenderWindow::onResetDevice--', 0d6H, 0d8H, 0d6H, 0c3H
	DB	0c9H, 0e8H, 0b1H, 0b8H, 0caH, 0a7H, 0b0H, 0dcH, 0a3H, 0acH, 0b4H
	DB	0edH, 0ceH, 0f3H, 0c2H, 0ebH, '%d--171', 00H
$SG131411 DB	'.\OgreD3DRenderWindow.cpp', 00H
	ORG $+2
$SG131412 DB	'D3DRenderWindow::onResetDevice--', 0d6H, 0d8H, 0d6H, 0c3H
	DB	0bdH, 0bbH, 0bbH, 0bbH, 0c1H, 0b4H, 0caH, 0a7H, 0b0H, 0dcH, '-'
	DB	'-179', 00H
$SG131414 DB	'.\OgreD3DRenderWindow.cpp', 00H
	ORG $+2
$SG131415 DB	'D3DRenderWindow::onResetDevice--', 0b4H, 0b4H, 0bdH, 0a8H
	DB	0c9H, 0e8H, 0b1H, 0b8H, 0b6H, 0d4H, 0cfH, 0f3H, 0caH, 0a7H, 0b0H
	DB	0dcH, '--186', 00H
	ORG $+2
$SG131482 DB	'.\OgreD3DRenderWindow.cpp', 00H
	ORG $+2
$SG131483 DB	'failed to present D3DRenderWindow', 00H
	ORG $+2
$SG131490 DB	'.\OgreD3DRenderWindow.cpp', 00H
	ORG $+2
$SG131491 DB	'D3DRenderWindow::present--D3DERR_INVALIDCALL--383', 00H
CONST	ENDS
PUBLIC	??_7D3DRenderWindow@Ogre@@6B@			; Ogre::D3DRenderWindow::`vftable'
PUBLIC	??0D3DRenderWindow@Ogre@@QAE@PAVD3D9RenderSystem@1@ABUInitDesc@RenderSystem@1@_N@Z ; Ogre::D3DRenderWindow::D3DRenderWindow
PUBLIC	??_R4D3DRenderWindow@Ogre@@6B@			; Ogre::D3DRenderWindow::`RTTI Complete Object Locator'
PUBLIC	??_R0?AVD3DRenderWindow@Ogre@@@8		; Ogre::D3DRenderWindow `RTTI Type Descriptor'
PUBLIC	??_R3D3DRenderWindow@Ogre@@8			; Ogre::D3DRenderWindow::`RTTI Class Hierarchy Descriptor'
PUBLIC	??_R2D3DRenderWindow@Ogre@@8			; Ogre::D3DRenderWindow::`RTTI Base Class Array'
PUBLIC	??_R1A@?0A@EA@D3DRenderWindow@Ogre@@8		; Ogre::D3DRenderWindow::`RTTI Base Class Descriptor at (0,-1,0,64)'
PUBLIC	??_R1A@?0A@EA@RenderWindow@Ogre@@8		; Ogre::RenderWindow::`RTTI Base Class Descriptor at (0,-1,0,64)'
PUBLIC	??_R0?AVRenderWindow@Ogre@@@8			; Ogre::RenderWindow `RTTI Type Descriptor'
PUBLIC	??_R3RenderWindow@Ogre@@8			; Ogre::RenderWindow::`RTTI Class Hierarchy Descriptor'
PUBLIC	??_R2RenderWindow@Ogre@@8			; Ogre::RenderWindow::`RTTI Base Class Array'
PUBLIC	??_R1A@?0A@EA@RenderTarget@Ogre@@8		; Ogre::RenderTarget::`RTTI Base Class Descriptor at (0,-1,0,64)'
PUBLIC	??_R0?AVRenderTarget@Ogre@@@8			; Ogre::RenderTarget `RTTI Type Descriptor'
PUBLIC	??_R3RenderTarget@Ogre@@8			; Ogre::RenderTarget::`RTTI Class Hierarchy Descriptor'
PUBLIC	??_R2RenderTarget@Ogre@@8			; Ogre::RenderTarget::`RTTI Base Class Array'
PUBLIC	??_R1A@?0A@EA@BaseObject@Ogre@@8		; Ogre::BaseObject::`RTTI Base Class Descriptor at (0,-1,0,64)'
PUBLIC	??_R0?AVBaseObject@Ogre@@@8			; Ogre::BaseObject `RTTI Type Descriptor'
PUBLIC	??_R3BaseObject@Ogre@@8				; Ogre::BaseObject::`RTTI Class Hierarchy Descriptor'
PUBLIC	??_R2BaseObject@Ogre@@8				; Ogre::BaseObject::`RTTI Base Class Array'
PUBLIC	??_R13?0A@EA@MemoryDelegation@Ogre@@8		; Ogre::MemoryDelegation::`RTTI Base Class Descriptor at (4,-1,0,64)'
PUBLIC	??_R0?AVMemoryDelegation@Ogre@@@8		; Ogre::MemoryDelegation `RTTI Type Descriptor'
PUBLIC	??_R3MemoryDelegation@Ogre@@8			; Ogre::MemoryDelegation::`RTTI Class Hierarchy Descriptor'
PUBLIC	??_R2MemoryDelegation@Ogre@@8			; Ogre::MemoryDelegation::`RTTI Base Class Array'
PUBLIC	??_R1A@?0A@EA@MemoryDelegation@Ogre@@8		; Ogre::MemoryDelegation::`RTTI Base Class Descriptor at (0,-1,0,64)'
PUBLIC	?deleteThis@D3DRenderWindow@Ogre@@UAEXXZ	; Ogre::D3DRenderWindow::deleteThis
PUBLIC	?getSize@D3DRenderWindow@Ogre@@UAEXAAI0@Z	; Ogre::D3DRenderWindow::getSize
PUBLIC	?beginScene@D3DRenderWindow@Ogre@@UAE_NXZ	; Ogre::D3DRenderWindow::beginScene
PUBLIC	?endScene@D3DRenderWindow@Ogre@@UAEXXZ		; Ogre::D3DRenderWindow::endScene
PUBLIC	?present@D3DRenderWindow@Ogre@@UAEHXZ		; Ogre::D3DRenderWindow::present
PUBLIC	?getHWnd@D3DRenderWindow@Ogre@@UAEPAXXZ		; Ogre::D3DRenderWindow::getHWnd
PUBLIC	?onSizeOrMove@D3DRenderWindow@Ogre@@UAEXXZ	; Ogre::D3DRenderWindow::onSizeOrMove
PUBLIC	?forceReset@D3DRenderWindow@Ogre@@UAEXXZ	; Ogre::D3DRenderWindow::forceReset
PUBLIC	?setSyncRefresh@D3DRenderWindow@Ogre@@UAEX_N@Z	; Ogre::D3DRenderWindow::setSyncRefresh
PUBLIC	?setMultiSampleLevel@D3DRenderWindow@Ogre@@UAEXH@Z ; Ogre::D3DRenderWindow::setMultiSampleLevel
EXTRN	__imp_??1RenderWindow@Ogre@@UAE@XZ:PROC
EXTRN	__imp__GetClientRect@8:PROC
EXTRN	__imp__GetWindowRect@8:PROC
EXTRN	__imp__GetWindowLongA@8:PROC
EXTRN	__imp_??0RenderWindow@Ogre@@QAE@XZ:PROC
EXTRN	___security_cookie:DWORD
EXTRN	___CxxFrameHandler3:PROC
EXTRN	@__security_check_cookie@4:PROC
EXTRN	??_7type_info@@6B@:QWORD			; type_info::`vftable'
EXTRN	?getRTTI@RenderWindow@Ogre@@UBEPBVRuntimeClass@2@XZ:PROC ; Ogre::RenderWindow::getRTTI
EXTRN	?release@BaseObject@Ogre@@UAEXXZ:PROC		; Ogre::BaseObject::release
EXTRN	?addRef@BaseObject@Ogre@@UAEXXZ:PROC		; Ogre::BaseObject::addRef
EXTRN	?getRefCount@BaseObject@Ogre@@UAEHXZ:PROC	; Ogre::BaseObject::getRefCount
EXTRN	?_serialize@BaseObject@Ogre@@UAEXAAVArchive@2@H@Z:PROC ; Ogre::BaseObject::_serialize
EXTRN	??_ED3DRenderWindow@Ogre@@UAEPAXI@Z:PROC	; Ogre::D3DRenderWindow::`vector deleting destructor'
EXTRN	?isSuccessCreateRenderTarget@RenderTarget@Ogre@@UAE_NXZ:PROC ; Ogre::RenderTarget::isSuccessCreateRenderTarget
EXTRN	?isSuccessCreateDSBuffer@RenderTarget@Ogre@@UAE_NXZ:PROC ; Ogre::RenderTarget::isSuccessCreateDSBuffer
EXTRN	?setStretchRect@RenderTarget@Ogre@@UAEXHHHHHHHH@Z:PROC ; Ogre::RenderTarget::setStretchRect
;	COMDAT ??_R1A@?0A@EA@MemoryDelegation@Ogre@@8
; File i:\svnroot\client\plugins\rendersystem_d3d9\ogred3drenderwindow.cpp
rdata$r	SEGMENT
??_R1A@?0A@EA@MemoryDelegation@Ogre@@8 DD FLAT:??_R0?AVMemoryDelegation@Ogre@@@8 ; Ogre::MemoryDelegation::`RTTI Base Class Descriptor at (0,-1,0,64)'
	DD	00H
	DD	00H
	DD	0ffffffffH
	DD	00H
	DD	040H
	DD	FLAT:??_R3MemoryDelegation@Ogre@@8
rdata$r	ENDS
;	COMDAT ??_R2MemoryDelegation@Ogre@@8
rdata$r	SEGMENT
??_R2MemoryDelegation@Ogre@@8 DD FLAT:??_R1A@?0A@EA@MemoryDelegation@Ogre@@8 ; Ogre::MemoryDelegation::`RTTI Base Class Array'
rdata$r	ENDS
;	COMDAT ??_R3MemoryDelegation@Ogre@@8
rdata$r	SEGMENT
??_R3MemoryDelegation@Ogre@@8 DD 00H			; Ogre::MemoryDelegation::`RTTI Class Hierarchy Descriptor'
	DD	00H
	DD	01H
	DD	FLAT:??_R2MemoryDelegation@Ogre@@8
rdata$r	ENDS
;	COMDAT ??_R0?AVMemoryDelegation@Ogre@@@8
_DATA	SEGMENT
??_R0?AVMemoryDelegation@Ogre@@@8 DD FLAT:??_7type_info@@6B@ ; Ogre::MemoryDelegation `RTTI Type Descriptor'
	DD	00H
	DB	'.?AVMemoryDelegation@Ogre@@', 00H
_DATA	ENDS
;	COMDAT ??_R13?0A@EA@MemoryDelegation@Ogre@@8
rdata$r	SEGMENT
??_R13?0A@EA@MemoryDelegation@Ogre@@8 DD FLAT:??_R0?AVMemoryDelegation@Ogre@@@8 ; Ogre::MemoryDelegation::`RTTI Base Class Descriptor at (4,-1,0,64)'
	DD	00H
	DD	04H
	DD	0ffffffffH
	DD	00H
	DD	040H
	DD	FLAT:??_R3MemoryDelegation@Ogre@@8
rdata$r	ENDS
;	COMDAT ??_R2BaseObject@Ogre@@8
rdata$r	SEGMENT
??_R2BaseObject@Ogre@@8 DD FLAT:??_R1A@?0A@EA@BaseObject@Ogre@@8 ; Ogre::BaseObject::`RTTI Base Class Array'
	DD	FLAT:??_R13?0A@EA@MemoryDelegation@Ogre@@8
rdata$r	ENDS
;	COMDAT ??_R3BaseObject@Ogre@@8
rdata$r	SEGMENT
??_R3BaseObject@Ogre@@8 DD 00H				; Ogre::BaseObject::`RTTI Class Hierarchy Descriptor'
	DD	00H
	DD	02H
	DD	FLAT:??_R2BaseObject@Ogre@@8
rdata$r	ENDS
;	COMDAT ??_R0?AVBaseObject@Ogre@@@8
_DATA	SEGMENT
??_R0?AVBaseObject@Ogre@@@8 DD FLAT:??_7type_info@@6B@	; Ogre::BaseObject `RTTI Type Descriptor'
	DD	00H
	DB	'.?AVBaseObject@Ogre@@', 00H
_DATA	ENDS
;	COMDAT ??_R1A@?0A@EA@BaseObject@Ogre@@8
rdata$r	SEGMENT
??_R1A@?0A@EA@BaseObject@Ogre@@8 DD FLAT:??_R0?AVBaseObject@Ogre@@@8 ; Ogre::BaseObject::`RTTI Base Class Descriptor at (0,-1,0,64)'
	DD	01H
	DD	00H
	DD	0ffffffffH
	DD	00H
	DD	040H
	DD	FLAT:??_R3BaseObject@Ogre@@8
rdata$r	ENDS
;	COMDAT ??_R2RenderTarget@Ogre@@8
rdata$r	SEGMENT
??_R2RenderTarget@Ogre@@8 DD FLAT:??_R1A@?0A@EA@RenderTarget@Ogre@@8 ; Ogre::RenderTarget::`RTTI Base Class Array'
	DD	FLAT:??_R1A@?0A@EA@BaseObject@Ogre@@8
	DD	FLAT:??_R13?0A@EA@MemoryDelegation@Ogre@@8
rdata$r	ENDS
;	COMDAT ??_R3RenderTarget@Ogre@@8
rdata$r	SEGMENT
??_R3RenderTarget@Ogre@@8 DD 00H			; Ogre::RenderTarget::`RTTI Class Hierarchy Descriptor'
	DD	00H
	DD	03H
	DD	FLAT:??_R2RenderTarget@Ogre@@8
rdata$r	ENDS
;	COMDAT ??_R0?AVRenderTarget@Ogre@@@8
_DATA	SEGMENT
??_R0?AVRenderTarget@Ogre@@@8 DD FLAT:??_7type_info@@6B@ ; Ogre::RenderTarget `RTTI Type Descriptor'
	DD	00H
	DB	'.?AVRenderTarget@Ogre@@', 00H
_DATA	ENDS
;	COMDAT ??_R1A@?0A@EA@RenderTarget@Ogre@@8
rdata$r	SEGMENT
??_R1A@?0A@EA@RenderTarget@Ogre@@8 DD FLAT:??_R0?AVRenderTarget@Ogre@@@8 ; Ogre::RenderTarget::`RTTI Base Class Descriptor at (0,-1,0,64)'
	DD	02H
	DD	00H
	DD	0ffffffffH
	DD	00H
	DD	040H
	DD	FLAT:??_R3RenderTarget@Ogre@@8
rdata$r	ENDS
;	COMDAT ??_R2RenderWindow@Ogre@@8
rdata$r	SEGMENT
??_R2RenderWindow@Ogre@@8 DD FLAT:??_R1A@?0A@EA@RenderWindow@Ogre@@8 ; Ogre::RenderWindow::`RTTI Base Class Array'
	DD	FLAT:??_R1A@?0A@EA@RenderTarget@Ogre@@8
	DD	FLAT:??_R1A@?0A@EA@BaseObject@Ogre@@8
	DD	FLAT:??_R13?0A@EA@MemoryDelegation@Ogre@@8
rdata$r	ENDS
;	COMDAT ??_R3RenderWindow@Ogre@@8
rdata$r	SEGMENT
??_R3RenderWindow@Ogre@@8 DD 00H			; Ogre::RenderWindow::`RTTI Class Hierarchy Descriptor'
	DD	00H
	DD	04H
	DD	FLAT:??_R2RenderWindow@Ogre@@8
rdata$r	ENDS
;	COMDAT ??_R0?AVRenderWindow@Ogre@@@8
_DATA	SEGMENT
??_R0?AVRenderWindow@Ogre@@@8 DD FLAT:??_7type_info@@6B@ ; Ogre::RenderWindow `RTTI Type Descriptor'
	DD	00H
	DB	'.?AVRenderWindow@Ogre@@', 00H
_DATA	ENDS
;	COMDAT ??_R1A@?0A@EA@RenderWindow@Ogre@@8
rdata$r	SEGMENT
??_R1A@?0A@EA@RenderWindow@Ogre@@8 DD FLAT:??_R0?AVRenderWindow@Ogre@@@8 ; Ogre::RenderWindow::`RTTI Base Class Descriptor at (0,-1,0,64)'
	DD	03H
	DD	00H
	DD	0ffffffffH
	DD	00H
	DD	040H
	DD	FLAT:??_R3RenderWindow@Ogre@@8
rdata$r	ENDS
;	COMDAT ??_R1A@?0A@EA@D3DRenderWindow@Ogre@@8
rdata$r	SEGMENT
??_R1A@?0A@EA@D3DRenderWindow@Ogre@@8 DD FLAT:??_R0?AVD3DRenderWindow@Ogre@@@8 ; Ogre::D3DRenderWindow::`RTTI Base Class Descriptor at (0,-1,0,64)'
	DD	04H
	DD	00H
	DD	0ffffffffH
	DD	00H
	DD	040H
	DD	FLAT:??_R3D3DRenderWindow@Ogre@@8
rdata$r	ENDS
;	COMDAT ??_R2D3DRenderWindow@Ogre@@8
rdata$r	SEGMENT
??_R2D3DRenderWindow@Ogre@@8 DD FLAT:??_R1A@?0A@EA@D3DRenderWindow@Ogre@@8 ; Ogre::D3DRenderWindow::`RTTI Base Class Array'
	DD	FLAT:??_R1A@?0A@EA@RenderWindow@Ogre@@8
	DD	FLAT:??_R1A@?0A@EA@RenderTarget@Ogre@@8
	DD	FLAT:??_R1A@?0A@EA@BaseObject@Ogre@@8
	DD	FLAT:??_R13?0A@EA@MemoryDelegation@Ogre@@8
rdata$r	ENDS
;	COMDAT ??_R3D3DRenderWindow@Ogre@@8
rdata$r	SEGMENT
??_R3D3DRenderWindow@Ogre@@8 DD 00H			; Ogre::D3DRenderWindow::`RTTI Class Hierarchy Descriptor'
	DD	00H
	DD	05H
	DD	FLAT:??_R2D3DRenderWindow@Ogre@@8
rdata$r	ENDS
;	COMDAT ??_R0?AVD3DRenderWindow@Ogre@@@8
_DATA	SEGMENT
??_R0?AVD3DRenderWindow@Ogre@@@8 DD FLAT:??_7type_info@@6B@ ; Ogre::D3DRenderWindow `RTTI Type Descriptor'
	DD	00H
	DB	'.?AVD3DRenderWindow@Ogre@@', 00H
_DATA	ENDS
;	COMDAT ??_R4D3DRenderWindow@Ogre@@6B@
rdata$r	SEGMENT
??_R4D3DRenderWindow@Ogre@@6B@ DD 00H			; Ogre::D3DRenderWindow::`RTTI Complete Object Locator'
	DD	00H
	DD	00H
	DD	FLAT:??_R0?AVD3DRenderWindow@Ogre@@@8
	DD	FLAT:??_R3D3DRenderWindow@Ogre@@8
rdata$r	ENDS
;	COMDAT ??_7D3DRenderWindow@Ogre@@6B@
CONST	SEGMENT
??_7D3DRenderWindow@Ogre@@6B@ DD FLAT:??_R4D3DRenderWindow@Ogre@@6B@ ; Ogre::D3DRenderWindow::`vftable'
	DD	FLAT:?getRTTI@RenderWindow@Ogre@@UBEPBVRuntimeClass@2@XZ
	DD	FLAT:?release@BaseObject@Ogre@@UAEXXZ
	DD	FLAT:?addRef@BaseObject@Ogre@@UAEXXZ
	DD	FLAT:?getRefCount@BaseObject@Ogre@@UAEHXZ
	DD	FLAT:?_serialize@BaseObject@Ogre@@UAEXAAVArchive@2@H@Z
	DD	FLAT:??_ED3DRenderWindow@Ogre@@UAEPAXI@Z
	DD	FLAT:?deleteThis@D3DRenderWindow@Ogre@@UAEXXZ
	DD	FLAT:?getSize@D3DRenderWindow@Ogre@@UAEXAAI0@Z
	DD	FLAT:?beginScene@D3DRenderWindow@Ogre@@UAE_NXZ
	DD	FLAT:?endScene@D3DRenderWindow@Ogre@@UAEXXZ
	DD	FLAT:?isSuccessCreateRenderTarget@RenderTarget@Ogre@@UAE_NXZ
	DD	FLAT:?isSuccessCreateDSBuffer@RenderTarget@Ogre@@UAE_NXZ
	DD	FLAT:?setStretchRect@RenderTarget@Ogre@@UAEXHHHHHHHH@Z
	DD	FLAT:?present@D3DRenderWindow@Ogre@@UAEHXZ
	DD	FLAT:?getHWnd@D3DRenderWindow@Ogre@@UAEPAXXZ
	DD	FLAT:?onSizeOrMove@D3DRenderWindow@Ogre@@UAEXXZ
	DD	FLAT:?forceReset@D3DRenderWindow@Ogre@@UAEXXZ
	DD	FLAT:?setSyncRefresh@D3DRenderWindow@Ogre@@UAEX_N@Z
	DD	FLAT:?setMultiSampleLevel@D3DRenderWindow@Ogre@@UAEXH@Z
CONST	ENDS
xdata$x	SEGMENT
__unwindtable$??0D3DRenderWindow@Ogre@@QAE@PAVD3D9RenderSystem@1@ABUInitDesc@RenderSystem@1@_N@Z DD 0ffffffffH
	DD	FLAT:__unwindfunclet$??0D3DRenderWindow@Ogre@@QAE@PAVD3D9RenderSystem@1@ABUInitDesc@RenderSystem@1@_N@Z$0
__ehfuncinfo$??0D3DRenderWindow@Ogre@@QAE@PAVD3D9RenderSystem@1@ABUInitDesc@RenderSystem@1@_N@Z DD 019930522H
	DD	01H
	DD	FLAT:__unwindtable$??0D3DRenderWindow@Ogre@@QAE@PAVD3D9RenderSystem@1@ABUInitDesc@RenderSystem@1@_N@Z
	DD	2 DUP(00H)
	DD	2 DUP(00H)
	DD	00H
	DD	00H
; Function compile flags: /Odtp
xdata$x	ENDS
_TEXT	SEGMENT
_this$ = -16						; size = 4
__$EHRec$ = -12						; size = 12
_prs$ = 8						; size = 4
_desc$ = 12						; size = 4
_main_target$ = 16					; size = 1
??0D3DRenderWindow@Ogre@@QAE@PAVD3D9RenderSystem@1@ABUInitDesc@RenderSystem@1@_N@Z PROC ; Ogre::D3DRenderWindow::D3DRenderWindow
; _this$ = ecx

; 19   : 	{

	push	ebp
	mov	ebp, esp
	push	-1
	push	__ehhandler$??0D3DRenderWindow@Ogre@@QAE@PAVD3D9RenderSystem@1@ABUInitDesc@RenderSystem@1@_N@Z
	mov	eax, DWORD PTR fs:0
	push	eax
	push	ecx
	push	esi
	push	edi
	mov	eax, DWORD PTR ___security_cookie
	xor	eax, ebp
	push	eax
	lea	eax, DWORD PTR __$EHRec$[ebp]
	mov	DWORD PTR fs:0, eax
	mov	DWORD PTR _this$[ebp], ecx
	mov	ecx, DWORD PTR _this$[ebp]
	call	DWORD PTR __imp_??0RenderWindow@Ogre@@QAE@XZ
	mov	DWORD PTR __$EHRec$[ebp+8], 0
	mov	eax, DWORD PTR _this$[ebp]
	mov	DWORD PTR [eax], OFFSET ??_7D3DRenderWindow@Ogre@@6B@
	mov	ecx, DWORD PTR _this$[ebp]
	mov	BYTE PTR [ecx+12], 0
	mov	edx, DWORD PTR _this$[ebp]
	mov	eax, DWORD PTR _prs$[ebp]
	mov	DWORD PTR [edx+16], eax
	mov	ecx, DWORD PTR _this$[ebp]
	mov	DWORD PTR [ecx+20], 0
	mov	edx, DWORD PTR _this$[ebp]
	mov	DWORD PTR [edx+72], 0
	mov	eax, DWORD PTR _this$[ebp]
	mov	DWORD PTR [eax+76], 0
	mov	ecx, DWORD PTR _this$[ebp]
	mov	DWORD PTR [ecx+80], 0
	mov	edx, DWORD PTR _this$[ebp]
	mov	DWORD PTR [edx+84], 0
	mov	eax, DWORD PTR _this$[ebp]
	mov	cl, BYTE PTR _main_target$[ebp]
	mov	BYTE PTR [eax+124], cl

; 20   : 		assert(desc.hwnd != NULL);
; 21   : 		m_hWnd = (HWND)desc.hwnd;

	mov	edx, DWORD PTR _this$[ebp]
	mov	eax, DWORD PTR _desc$[ebp]
	mov	ecx, DWORD PTR [eax+40]
	mov	DWORD PTR [edx+24], ecx

; 22   : 
; 23   : 		// Save window properties
; 24   : 		m_dwWindowStyle = GetWindowLong( m_hWnd, GWL_STYLE );

	push	-16					; fffffff0H
	mov	edx, DWORD PTR _this$[ebp]
	mov	eax, DWORD PTR [edx+24]
	push	eax
	call	DWORD PTR __imp__GetWindowLongA@8
	mov	ecx, DWORD PTR _this$[ebp]
	mov	DWORD PTR [ecx+88], eax

; 25   : 		GetWindowRect( m_hWnd, &m_rcWindowBounds );

	mov	edx, DWORD PTR _this$[ebp]
	add	edx, 92					; 0000005cH
	push	edx
	mov	eax, DWORD PTR _this$[ebp]
	mov	ecx, DWORD PTR [eax+24]
	push	ecx
	call	DWORD PTR __imp__GetWindowRect@8

; 26   : 		GetClientRect( m_hWnd, &m_rcWindowClient );

	mov	edx, DWORD PTR _this$[ebp]
	add	edx, 108				; 0000006cH
	push	edx
	mov	eax, DWORD PTR _this$[ebp]
	mov	ecx, DWORD PTR [eax+24]
	push	ecx
	call	DWORD PTR __imp__GetClientRect@8

; 27   : 		m_bWindowed = !desc.bfullscreen;

	mov	edx, DWORD PTR _desc$[ebp]
	movzx	eax, BYTE PTR [edx+5]
	neg	eax
	sbb	eax, eax
	add	eax, 1
	mov	ecx, DWORD PTR _this$[ebp]
	mov	BYTE PTR [ecx+10], al

; 28   : 
; 29   : 		m_Desc = desc;

	mov	esi, DWORD PTR _desc$[ebp]
	mov	edi, DWORD PTR _this$[ebp]
	add	edi, 28					; 0000001cH
	mov	ecx, 11					; 0000000bH
	rep movsd

; 30   : 	}

	mov	DWORD PTR __$EHRec$[ebp+8], -1
	mov	eax, DWORD PTR _this$[ebp]
	mov	ecx, DWORD PTR __$EHRec$[ebp]
	mov	DWORD PTR fs:0, ecx
	pop	ecx
	pop	edi
	pop	esi
	mov	esp, ebp
	pop	ebp
	ret	12					; 0000000cH
_TEXT	ENDS
text$x	SEGMENT
__unwindfunclet$??0D3DRenderWindow@Ogre@@QAE@PAVD3D9RenderSystem@1@ABUInitDesc@RenderSystem@1@_N@Z$0:
	mov	ecx, DWORD PTR _this$[ebp]
	jmp	DWORD PTR __imp_??1RenderWindow@Ogre@@UAE@XZ
__ehhandler$??0D3DRenderWindow@Ogre@@QAE@PAVD3D9RenderSystem@1@ABUInitDesc@RenderSystem@1@_N@Z:
	mov	edx, DWORD PTR [esp+8]
	lea	eax, DWORD PTR [edx+12]
	mov	ecx, DWORD PTR [edx-16]
	xor	ecx, eax
	call	@__security_check_cookie@4
	mov	eax, OFFSET __ehfuncinfo$??0D3DRenderWindow@Ogre@@QAE@PAVD3D9RenderSystem@1@ABUInitDesc@RenderSystem@1@_N@Z
	jmp	___CxxFrameHandler3
text$x	ENDS
??0D3DRenderWindow@Ogre@@QAE@PAVD3D9RenderSystem@1@ABUInitDesc@RenderSystem@1@_N@Z ENDP ; Ogre::D3DRenderWindow::D3DRenderWindow
; Function compile flags: /Odtp
; File i:\svnroot\client\plugins\rendersystem_d3d9\ogred3drenderwindow.h
;	COMDAT ?getHWnd@D3DRenderWindow@Ogre@@UAEPAXXZ
_TEXT	SEGMENT
_this$ = -4						; size = 4
?getHWnd@D3DRenderWindow@Ogre@@UAEPAXXZ PROC		; Ogre::D3DRenderWindow::getHWnd, COMDAT
; _this$ = ecx

; 28   : 		{

	push	ebp
	mov	ebp, esp
	push	ecx
	mov	DWORD PTR _this$[ebp], ecx

; 29   : 			return m_hWnd;

	mov	eax, DWORD PTR _this$[ebp]
	mov	eax, DWORD PTR [eax+24]

; 30   : 		}

	mov	esp, ebp
	pop	ebp
	ret	0
?getHWnd@D3DRenderWindow@Ogre@@UAEPAXXZ ENDP		; Ogre::D3DRenderWindow::getHWnd
_TEXT	ENDS
PUBLIC	??1D3DRenderWindow@Ogre@@UAE@XZ			; Ogre::D3DRenderWindow::~D3DRenderWindow
EXTRN	__imp_??3MemoryDelegation@Ogre@@SAXPAXI@Z:PROC
; Function compile flags: /Odtp
;	COMDAT ??_GD3DRenderWindow@Ogre@@UAEPAXI@Z
_TEXT	SEGMENT
_this$ = -4						; size = 4
___flags$ = 8						; size = 4
??_GD3DRenderWindow@Ogre@@UAEPAXI@Z PROC		; Ogre::D3DRenderWindow::`scalar deleting destructor', COMDAT
; _this$ = ecx
	push	ebp
	mov	ebp, esp
	push	ecx
	mov	DWORD PTR _this$[ebp], ecx
	mov	ecx, DWORD PTR _this$[ebp]
	call	??1D3DRenderWindow@Ogre@@UAE@XZ		; Ogre::D3DRenderWindow::~D3DRenderWindow
	mov	eax, DWORD PTR ___flags$[ebp]
	and	eax, 1
	je	SHORT $LN1@scalar
	push	128					; 00000080H
	mov	ecx, DWORD PTR _this$[ebp]
	push	ecx
	call	DWORD PTR __imp_??3MemoryDelegation@Ogre@@SAXPAXI@Z
	add	esp, 8
$LN1@scalar:
	mov	eax, DWORD PTR _this$[ebp]
	mov	esp, ebp
	pop	ebp
	ret	4
??_GD3DRenderWindow@Ogre@@UAEPAXI@Z ENDP		; Ogre::D3DRenderWindow::`scalar deleting destructor'
_TEXT	ENDS
PUBLIC	?onShutdown@D3DRenderWindow@Ogre@@QAEXXZ	; Ogre::D3DRenderWindow::onShutdown
xdata$x	SEGMENT
__unwindtable$??1D3DRenderWindow@Ogre@@UAE@XZ DD 0ffffffffH
	DD	FLAT:__unwindfunclet$??1D3DRenderWindow@Ogre@@UAE@XZ$0
__ehfuncinfo$??1D3DRenderWindow@Ogre@@UAE@XZ DD 019930522H
	DD	01H
	DD	FLAT:__unwindtable$??1D3DRenderWindow@Ogre@@UAE@XZ
	DD	2 DUP(00H)
	DD	2 DUP(00H)
	DD	00H
	DD	00H
; Function compile flags: /Odtp
; File i:\svnroot\client\plugins\rendersystem_d3d9\ogred3drenderwindow.cpp
xdata$x	ENDS
_TEXT	SEGMENT
_this$ = -16						; size = 4
__$EHRec$ = -12						; size = 12
??1D3DRenderWindow@Ogre@@UAE@XZ PROC			; Ogre::D3DRenderWindow::~D3DRenderWindow
; _this$ = ecx

; 33   : 	{

	push	ebp
	mov	ebp, esp
	push	-1
	push	__ehhandler$??1D3DRenderWindow@Ogre@@UAE@XZ
	mov	eax, DWORD PTR fs:0
	push	eax
	push	ecx
	mov	eax, DWORD PTR ___security_cookie
	xor	eax, ebp
	push	eax
	lea	eax, DWORD PTR __$EHRec$[ebp]
	mov	DWORD PTR fs:0, eax
	mov	DWORD PTR _this$[ebp], ecx
	mov	eax, DWORD PTR _this$[ebp]
	mov	DWORD PTR [eax], OFFSET ??_7D3DRenderWindow@Ogre@@6B@
	mov	DWORD PTR __$EHRec$[ebp+8], 0

; 34   : 		onShutdown();

	mov	ecx, DWORD PTR _this$[ebp]
	call	?onShutdown@D3DRenderWindow@Ogre@@QAEXXZ ; Ogre::D3DRenderWindow::onShutdown

; 35   : 	}

	mov	DWORD PTR __$EHRec$[ebp+8], -1
	mov	ecx, DWORD PTR _this$[ebp]
	call	DWORD PTR __imp_??1RenderWindow@Ogre@@UAE@XZ
	mov	ecx, DWORD PTR __$EHRec$[ebp]
	mov	DWORD PTR fs:0, ecx
	pop	ecx
	mov	esp, ebp
	pop	ebp
	ret	0
_TEXT	ENDS
text$x	SEGMENT
__unwindfunclet$??1D3DRenderWindow@Ogre@@UAE@XZ$0:
	mov	ecx, DWORD PTR _this$[ebp]
	jmp	DWORD PTR __imp_??1RenderWindow@Ogre@@UAE@XZ
__ehhandler$??1D3DRenderWindow@Ogre@@UAE@XZ:
	mov	edx, DWORD PTR [esp+8]
	lea	eax, DWORD PTR [edx+12]
	mov	ecx, DWORD PTR [edx-8]
	xor	ecx, eax
	call	@__security_check_cookie@4
	mov	eax, OFFSET __ehfuncinfo$??1D3DRenderWindow@Ogre@@UAE@XZ
	jmp	___CxxFrameHandler3
text$x	ENDS
??1D3DRenderWindow@Ogre@@UAE@XZ ENDP			; Ogre::D3DRenderWindow::~D3DRenderWindow
PUBLIC	?createDeviceObj@D3DRenderWindow@Ogre@@AAE_NXZ	; Ogre::D3DRenderWindow::createDeviceObj
PUBLIC	?getD3DDevice@D3D9RenderSystem@Ogre@@QAEPAUIDirect3DDevice9@@XZ ; Ogre::D3D9RenderSystem::getD3DDevice
PUBLIC	?buildPresentParams@D3DRenderWindow@Ogre@@AAEXAAU_D3DPRESENT_PARAMETERS_@@ABUD3DSETTING_T@2@@Z ; Ogre::D3DRenderWindow::buildPresentParams
PUBLIC	?getD3DEnum@D3D9RenderSystem@Ogre@@QAEPAVD3DEnumeration@2@XZ ; Ogre::D3D9RenderSystem::getD3DEnum
PUBLIC	?onInitialise@D3DRenderWindow@Ogre@@QAE_NXZ	; Ogre::D3DRenderWindow::onInitialise
EXTRN	__imp__SetWindowPos@28:PROC
EXTRN	__imp__MessageBoxA@16:PROC
EXTRN	?createD3DDevice@D3D9RenderSystem@Ogre@@QAE_NPAUHWND__@@ABUD3DSETTING_T@2@AAU_D3DPRESENT_PARAMETERS_@@@Z:PROC ; Ogre::D3D9RenderSystem::createD3DDevice
EXTRN	__imp_?LogMessage@Ogre@@YAXPBDZZ:PROC
EXTRN	__imp_?LogSetCurParam@Ogre@@YAXPBDHI@Z:PROC
EXTRN	?ChooseD3DSettings@D3DEnumeration@Ogre@@QAEABUD3DSETTING_T@2@ABUInitDesc@RenderSystem@2@@Z:PROC ; Ogre::D3DEnumeration::ChooseD3DSettings
; Function compile flags: /Odtp
_TEXT	SEGMENT
_this$ = -68						; size = 4
_pswapchain$131314 = -64				; size = 4
_d3dpp$ = -60						; size = 56
_setting$ = -4						; size = 4
?onInitialise@D3DRenderWindow@Ogre@@QAE_NXZ PROC	; Ogre::D3DRenderWindow::onInitialise
; _this$ = ecx

; 38   : 	{

	push	ebp
	mov	ebp, esp
	sub	esp, 68					; 00000044H
	mov	DWORD PTR _this$[ebp], ecx

; 39   : 		const D3DSETTING_T &setting = m_pRS->getD3DEnum()->ChooseD3DSettings(m_Desc);

	mov	eax, DWORD PTR _this$[ebp]
	add	eax, 28					; 0000001cH
	push	eax
	mov	ecx, DWORD PTR _this$[ebp]
	mov	ecx, DWORD PTR [ecx+16]
	call	?getD3DEnum@D3D9RenderSystem@Ogre@@QAEPAVD3DEnumeration@2@XZ ; Ogre::D3D9RenderSystem::getD3DEnum
	mov	ecx, eax
	call	?ChooseD3DSettings@D3DEnumeration@Ogre@@QAEABUD3DSETTING_T@2@ABUInitDesc@RenderSystem@2@@Z ; Ogre::D3DEnumeration::ChooseD3DSettings
	mov	DWORD PTR _setting$[ebp], eax

; 40   : 		if( setting.pdevcombo == NULL )

	mov	edx, DWORD PTR _setting$[ebp]
	cmp	DWORD PTR [edx+8], 0
	jne	SHORT $LN9@onInitiali

; 41   : 		{
; 42   : 			LOG_SEVERE( "Failed to get proper setting" );

	push	8
	push	42					; 0000002aH
	push	OFFSET $SG131298
	call	DWORD PTR __imp_?LogSetCurParam@Ogre@@YAXPBDHI@Z
	add	esp, 12					; 0000000cH
	push	OFFSET $SG131299
	call	DWORD PTR __imp_?LogMessage@Ogre@@YAXPBDZZ
	add	esp, 4

; 43   : 			return false;

	xor	al, al
	jmp	$LN10@onInitiali
$LN9@onInitiali:

; 44   : 		}
; 45   : 
; 46   : 		D3DPRESENT_PARAMETERS d3dpp;
; 47   : 		buildPresentParams( d3dpp, setting );

	mov	eax, DWORD PTR _setting$[ebp]
	push	eax
	lea	ecx, DWORD PTR _d3dpp$[ebp]
	push	ecx
	mov	ecx, DWORD PTR _this$[ebp]
	call	?buildPresentParams@D3DRenderWindow@Ogre@@AAEXAAU_D3DPRESENT_PARAMETERS_@@ABUD3DSETTING_T@2@@Z ; Ogre::D3DRenderWindow::buildPresentParams

; 48   : 		if(m_Desc.backbuf_lockable)	d3dpp.Flags |= D3DPRESENTFLAG_LOCKABLE_BACKBUFFER; //!!!lockable

	mov	edx, DWORD PTR _this$[ebp]
	movzx	eax, BYTE PTR [edx+38]
	test	eax, eax
	je	SHORT $LN8@onInitiali
	mov	ecx, DWORD PTR _d3dpp$[ebp+44]
	or	ecx, 1
	mov	DWORD PTR _d3dpp$[ebp+44], ecx
$LN8@onInitiali:

; 49   : 
; 50   : 		if( setting.pdevice->caps.PrimitiveMiscCaps & D3DPMISCCAPS_NULLREFERENCE )

	mov	edx, DWORD PTR _setting$[ebp]
	mov	eax, DWORD PTR [edx+4]
	mov	ecx, DWORD PTR [eax+40]
	and	ecx, 4096				; 00001000H
	je	SHORT $LN7@onInitiali

; 51   : 		{
; 52   : 			LOG_WARNING( "Null RefDevice" );

	push	4
	push	52					; 00000034H
	push	OFFSET $SG131303
	call	DWORD PTR __imp_?LogSetCurParam@Ogre@@YAXPBDHI@Z
	add	esp, 12					; 0000000cH
	push	OFFSET $SG131304
	call	DWORD PTR __imp_?LogMessage@Ogre@@YAXPBDZZ
	add	esp, 4

; 53   : 			return FALSE;

	xor	al, al
	jmp	$LN10@onInitiali
$LN7@onInitiali:

; 54   : 		}
; 55   : 
; 56   : 		if(m_bMainTarget)

	mov	edx, DWORD PTR _this$[ebp]
	movzx	eax, BYTE PTR [edx+124]
	test	eax, eax
	je	$LN6@onInitiali

; 57   : 		{
; 58   : 			if(!m_pRS->createD3DDevice(m_hWnd, setting, d3dpp))

	lea	ecx, DWORD PTR _d3dpp$[ebp]
	push	ecx
	mov	edx, DWORD PTR _setting$[ebp]
	push	edx
	mov	eax, DWORD PTR _this$[ebp]
	mov	ecx, DWORD PTR [eax+24]
	push	ecx
	mov	edx, DWORD PTR _this$[ebp]
	mov	ecx, DWORD PTR [edx+16]
	call	?createD3DDevice@D3D9RenderSystem@Ogre@@QAE_NPAUHWND__@@ABUD3DSETTING_T@2@AAU_D3DPRESENT_PARAMETERS_@@@Z ; Ogre::D3D9RenderSystem::createD3DDevice
	movzx	eax, al
	test	eax, eax
	jne	SHORT $LN5@onInitiali

; 59   : 			{
; 60   : 				LOG_SEVERE("Failed to create d3d device");

	push	8
	push	60					; 0000003cH
	push	OFFSET $SG131307
	call	DWORD PTR __imp_?LogSetCurParam@Ogre@@YAXPBDHI@Z
	add	esp, 12					; 0000000cH
	push	OFFSET $SG131308
	call	DWORD PTR __imp_?LogMessage@Ogre@@YAXPBDZZ
	add	esp, 4

; 61   : 				::MessageBox(0, "Direct3D设备创建失败，如果您是在多开客户端，可通过Lunacher降低配置再试。",
; 62   : 					"Error", 0);

	push	0
	push	OFFSET $SG131309
	push	OFFSET $SG131310
	push	0
	call	DWORD PTR __imp__MessageBoxA@16

; 63   : 				return FALSE;

	xor	al, al
	jmp	$LN10@onInitiali
$LN5@onInitiali:

; 64   : 			}
; 65   : 			m_pd3dDevice = m_pRS->getD3DDevice();

	mov	ecx, DWORD PTR _this$[ebp]
	mov	ecx, DWORD PTR [ecx+16]
	call	?getD3DDevice@D3D9RenderSystem@Ogre@@QAEPAUIDirect3DDevice9@@XZ ; Ogre::D3D9RenderSystem::getD3DDevice
	mov	edx, DWORD PTR _this$[ebp]
	mov	DWORD PTR [edx+20], eax

; 66   : 
; 67   : 			// When moving from fullscreen to windowed mode, it is important to
; 68   : 			// adjust the window size after recreating the device rather than
; 69   : 			// beforehand to ensure that you get the window size you want.  For
; 70   : 			// example, when switching from 640x480 fullscreen to windowed with
; 71   : 			// a 1000x600 window on a 1024x768 desktop, it is impossible to set
; 72   : 			// the window size to 1000x600 until after the display mode has
; 73   : 			// changed to 1024x768, because windows cannot be larger than the
; 74   : 			// desktop.
; 75   : 			if( m_bWindowed )

	mov	eax, DWORD PTR _this$[ebp]
	movzx	ecx, BYTE PTR [eax+10]
	test	ecx, ecx
	je	SHORT $LN4@onInitiali

; 76   : 			{
; 77   : 				SetWindowPos( m_hWnd, HWND_NOTOPMOST,
; 78   : 				m_rcWindowBounds.left, m_rcWindowBounds.top,
; 79   : 				( m_rcWindowBounds.right - m_rcWindowBounds.left ),
; 80   : 				( m_rcWindowBounds.bottom - m_rcWindowBounds.top ),
; 81   : 				SWP_HIDEWINDOW );

	push	128					; 00000080H
	mov	edx, DWORD PTR _this$[ebp]
	mov	eax, DWORD PTR _this$[ebp]
	mov	ecx, DWORD PTR [edx+104]
	sub	ecx, DWORD PTR [eax+96]
	push	ecx
	mov	edx, DWORD PTR _this$[ebp]
	mov	eax, DWORD PTR _this$[ebp]
	mov	ecx, DWORD PTR [edx+100]
	sub	ecx, DWORD PTR [eax+92]
	push	ecx
	mov	edx, DWORD PTR _this$[ebp]
	mov	eax, DWORD PTR [edx+96]
	push	eax
	mov	ecx, DWORD PTR _this$[ebp]
	mov	edx, DWORD PTR [ecx+92]
	push	edx
	push	-2					; fffffffeH
	mov	eax, DWORD PTR _this$[ebp]
	mov	ecx, DWORD PTR [eax+24]
	push	ecx
	call	DWORD PTR __imp__SetWindowPos@28
$LN4@onInitiali:

; 82   : 			}
; 83   : 		}
; 84   : 		else

	jmp	SHORT $LN3@onInitiali
$LN6@onInitiali:

; 85   : 		{
; 86   : 			m_pd3dDevice = m_pRS->getD3DDevice();

	mov	edx, DWORD PTR _this$[ebp]
	mov	ecx, DWORD PTR [edx+16]
	call	?getD3DDevice@D3D9RenderSystem@Ogre@@QAEPAUIDirect3DDevice9@@XZ ; Ogre::D3D9RenderSystem::getD3DDevice
	mov	ecx, DWORD PTR _this$[ebp]
	mov	DWORD PTR [ecx+20], eax

; 87   : 
; 88   : 			IDirect3DSwapChain9 *pswapchain;
; 89   : 			if(FAILED(m_pd3dDevice->CreateAdditionalSwapChain(&d3dpp, &pswapchain)))

	lea	edx, DWORD PTR _pswapchain$131314[ebp]
	push	edx
	lea	eax, DWORD PTR _d3dpp$[ebp]
	push	eax
	mov	ecx, DWORD PTR _this$[ebp]
	mov	edx, DWORD PTR [ecx+20]
	mov	eax, DWORD PTR _this$[ebp]
	mov	ecx, DWORD PTR [eax+20]
	mov	edx, DWORD PTR [edx]
	push	ecx
	mov	eax, DWORD PTR [edx+52]
	call	eax
	test	eax, eax
	jge	SHORT $LN2@onInitiali

; 90   : 			{
; 91   : 				return false;

	xor	al, al
	jmp	SHORT $LN10@onInitiali
$LN2@onInitiali:

; 92   : 			}
; 93   : 
; 94   : 			m_pSwapChain = pswapchain;

	mov	ecx, DWORD PTR _this$[ebp]
	mov	edx, DWORD PTR _pswapchain$131314[ebp]
	mov	DWORD PTR [ecx+72], edx
$LN3@onInitiali:

; 95   : 		}
; 96   : 
; 97   : 		if(!createDeviceObj())

	mov	ecx, DWORD PTR _this$[ebp]
	call	?createDeviceObj@D3DRenderWindow@Ogre@@AAE_NXZ ; Ogre::D3DRenderWindow::createDeviceObj
	movzx	eax, al
	test	eax, eax
	jne	SHORT $LN1@onInitiali

; 98   : 		{
; 99   : 			return false;

	xor	al, al
	jmp	SHORT $LN10@onInitiali
$LN1@onInitiali:

; 100  : 		}
; 101  : 
; 102  : 		return true;

	mov	al, 1
$LN10@onInitiali:

; 103  : 	}

	mov	esp, ebp
	pop	ebp
	ret	0
?onInitialise@D3DRenderWindow@Ogre@@QAE_NXZ ENDP	; Ogre::D3DRenderWindow::onInitialise
; Function compile flags: /Odtp
; File i:\svnroot\client\plugins\rendersystem_d3d9\ogred3d9rendersystem.h
_TEXT	ENDS
;	COMDAT ?getD3DDevice@D3D9RenderSystem@Ogre@@QAEPAUIDirect3DDevice9@@XZ
_TEXT	SEGMENT
_this$ = -4						; size = 4
?getD3DDevice@D3D9RenderSystem@Ogre@@QAEPAUIDirect3DDevice9@@XZ PROC ; Ogre::D3D9RenderSystem::getD3DDevice, COMDAT
; _this$ = ecx

; 44   : 		{

	push	ebp
	mov	ebp, esp
	push	ecx
	mov	DWORD PTR _this$[ebp], ecx

; 45   : 			return m_pd3dDevice;

	mov	eax, DWORD PTR _this$[ebp]
	mov	eax, DWORD PTR [eax+104]

; 46   : 		}

	mov	esp, ebp
	pop	ebp
	ret	0
?getD3DDevice@D3D9RenderSystem@Ogre@@QAEPAUIDirect3DDevice9@@XZ ENDP ; Ogre::D3D9RenderSystem::getD3DDevice
; Function compile flags: /Odtp
_TEXT	ENDS
;	COMDAT ?getD3DEnum@D3D9RenderSystem@Ogre@@QAEPAVD3DEnumeration@2@XZ
_TEXT	SEGMENT
_this$ = -4						; size = 4
?getD3DEnum@D3D9RenderSystem@Ogre@@QAEPAVD3DEnumeration@2@XZ PROC ; Ogre::D3D9RenderSystem::getD3DEnum, COMDAT
; _this$ = ecx

; 49   : 		{

	push	ebp
	mov	ebp, esp
	push	ecx
	mov	DWORD PTR _this$[ebp], ecx

; 50   : 			return m_pD3DEnum;

	mov	eax, DWORD PTR _this$[ebp]
	mov	eax, DWORD PTR [eax+420]

; 51   : 		}

	mov	esp, ebp
	pop	ebp
	ret	0
?getD3DEnum@D3D9RenderSystem@Ogre@@QAEPAVD3DEnumeration@2@XZ ENDP ; Ogre::D3D9RenderSystem::getD3DEnum
_TEXT	ENDS
PUBLIC	?destroyDeviceObj@D3DRenderWindow@Ogre@@AAEXXZ	; Ogre::D3DRenderWindow::destroyDeviceObj
EXTRN	?destroyD3DDevice@D3D9RenderSystem@Ogre@@QAEXXZ:PROC ; Ogre::D3D9RenderSystem::destroyD3DDevice
; Function compile flags: /Odtp
; File i:\svnroot\client\plugins\rendersystem_d3d9\ogred3drenderwindow.cpp
_TEXT	SEGMENT
_this$ = -4						; size = 4
?onShutdown@D3DRenderWindow@Ogre@@QAEXXZ PROC		; Ogre::D3DRenderWindow::onShutdown
; _this$ = ecx

; 106  : 	{

	push	ebp
	mov	ebp, esp
	push	ecx
	mov	DWORD PTR _this$[ebp], ecx

; 107  : 		destroyDeviceObj();

	mov	ecx, DWORD PTR _this$[ebp]
	call	?destroyDeviceObj@D3DRenderWindow@Ogre@@AAEXXZ ; Ogre::D3DRenderWindow::destroyDeviceObj

; 108  : 		
; 109  : 		if(m_bMainTarget)

	mov	eax, DWORD PTR _this$[ebp]
	movzx	ecx, BYTE PTR [eax+124]
	test	ecx, ecx
	je	SHORT $LN3@onShutdown

; 110  : 		{
; 111  : 			m_pRS->destroyD3DDevice();

	mov	edx, DWORD PTR _this$[ebp]
	mov	ecx, DWORD PTR [edx+16]
	call	?destroyD3DDevice@D3D9RenderSystem@Ogre@@QAEXXZ ; Ogre::D3D9RenderSystem::destroyD3DDevice

; 112  : 		}
; 113  : 		else

	jmp	SHORT $LN4@onShutdown
$LN3@onShutdown:

; 114  : 		{
; 115  : 			SAFE_RELEASE(m_pSwapChain);

	mov	eax, DWORD PTR _this$[ebp]
	cmp	DWORD PTR [eax+72], 0
	je	SHORT $LN4@onShutdown
	mov	ecx, DWORD PTR _this$[ebp]
	mov	edx, DWORD PTR [ecx+72]
	mov	eax, DWORD PTR _this$[ebp]
	mov	ecx, DWORD PTR [eax+72]
	mov	edx, DWORD PTR [edx]
	push	ecx
	mov	eax, DWORD PTR [edx+8]
	call	eax
	mov	ecx, DWORD PTR _this$[ebp]
	mov	DWORD PTR [ecx+72], 0
$LN4@onShutdown:

; 116  : 		}
; 117  : 	}

	mov	esp, ebp
	pop	ebp
	ret	0
?onShutdown@D3DRenderWindow@Ogre@@QAEXXZ ENDP		; Ogre::D3DRenderWindow::onShutdown
; Function compile flags: /Odtp
_this$ = -4						; size = 4
?createDeviceObj@D3DRenderWindow@Ogre@@AAE_NXZ PROC	; Ogre::D3DRenderWindow::createDeviceObj
; _this$ = ecx

; 120  : 	{

	push	ebp
	mov	ebp, esp
	push	ecx
	mov	DWORD PTR _this$[ebp], ecx

; 121  : 		if(m_bMainTarget)

	mov	eax, DWORD PTR _this$[ebp]
	movzx	ecx, BYTE PTR [eax+124]
	test	ecx, ecx
	je	$LN5@createDevi

; 122  : 		{
; 123  : 			if(FAILED(m_pd3dDevice->GetBackBuffer(0, 0, D3DBACKBUFFER_TYPE_MONO, &m_pColorBuffer)))

	mov	edx, DWORD PTR _this$[ebp]
	add	edx, 76					; 0000004cH
	push	edx
	push	0
	push	0
	push	0
	mov	eax, DWORD PTR _this$[ebp]
	mov	ecx, DWORD PTR [eax+20]
	mov	edx, DWORD PTR _this$[ebp]
	mov	eax, DWORD PTR [edx+20]
	mov	ecx, DWORD PTR [ecx]
	push	eax
	mov	edx, DWORD PTR [ecx+72]
	call	edx
	test	eax, eax
	jge	SHORT $LN4@createDevi

; 124  : 			{
; 125  : 				LOG_PRIVATE( "D3DRenderWindow::createDeviceObj--获取后台缓存失败--123" );

	push	64					; 00000040H
	push	125					; 0000007dH
	push	OFFSET $SG131330
	call	DWORD PTR __imp_?LogSetCurParam@Ogre@@YAXPBDHI@Z
	add	esp, 12					; 0000000cH
	push	OFFSET $SG131331
	call	DWORD PTR __imp_?LogMessage@Ogre@@YAXPBDZZ
	add	esp, 4

; 126  : 				return false;

	xor	al, al
	jmp	SHORT $LN6@createDevi
$LN4@createDevi:

; 127  : 			}
; 128  : 			if(FAILED(m_pd3dDevice->GetDepthStencilSurface(&m_pDSBuffer)))

	mov	eax, DWORD PTR _this$[ebp]
	add	eax, 80					; 00000050H
	push	eax
	mov	ecx, DWORD PTR _this$[ebp]
	mov	edx, DWORD PTR [ecx+20]
	mov	eax, DWORD PTR _this$[ebp]
	mov	ecx, DWORD PTR [eax+20]
	mov	edx, DWORD PTR [edx]
	push	ecx
	mov	eax, DWORD PTR [edx+160]
	call	eax
	test	eax, eax
	jge	SHORT $LN3@createDevi

; 129  : 			{
; 130  : 				LOG_PRIVATE( "D3DRenderWindow::createDeviceObj--获取模板深度缓存失败--128" );

	push	64					; 00000040H
	push	130					; 00000082H
	push	OFFSET $SG131334
	call	DWORD PTR __imp_?LogSetCurParam@Ogre@@YAXPBDHI@Z
	add	esp, 12					; 0000000cH
	push	OFFSET $SG131335
	call	DWORD PTR __imp_?LogMessage@Ogre@@YAXPBDZZ
	add	esp, 4

; 131  : 				return false;

	xor	al, al
	jmp	SHORT $LN6@createDevi
$LN3@createDevi:

; 132  : 			}
; 133  : 		}
; 134  : 		else

	jmp	SHORT $LN2@createDevi
$LN5@createDevi:

; 135  : 		{
; 136  : 			if(FAILED(m_pSwapChain->GetBackBuffer(0, D3DBACKBUFFER_TYPE_MONO, &m_pColorBuffer)))

	mov	ecx, DWORD PTR _this$[ebp]
	add	ecx, 76					; 0000004cH
	push	ecx
	push	0
	push	0
	mov	edx, DWORD PTR _this$[ebp]
	mov	eax, DWORD PTR [edx+72]
	mov	ecx, DWORD PTR _this$[ebp]
	mov	edx, DWORD PTR [ecx+72]
	mov	eax, DWORD PTR [eax]
	push	edx
	mov	ecx, DWORD PTR [eax+20]
	call	ecx
	test	eax, eax
	jge	SHORT $LN2@createDevi

; 137  : 			{
; 138  : 				return false;

	xor	al, al
	jmp	SHORT $LN6@createDevi
$LN2@createDevi:

; 139  : 			}
; 140  : 		}
; 141  : 
; 142  : #ifdef PRESENT_FLUSH
; 143  : 		if(FAILED(m_pd3dDevice->CreateQuery(D3DQUERYTYPE_EVENT, &m_pEventQuery)))
; 144  : 		{
; 145  : 			return false;
; 146  : 		}
; 147  : #endif
; 148  : 
; 149  : 		return true;

	mov	al, 1
$LN6@createDevi:

; 150  : 	}

	mov	esp, ebp
	pop	ebp
	ret	0
?createDeviceObj@D3DRenderWindow@Ogre@@AAE_NXZ ENDP	; Ogre::D3DRenderWindow::createDeviceObj
; Function compile flags: /Odtp
_this$ = -4						; size = 4
?destroyDeviceObj@D3DRenderWindow@Ogre@@AAEXXZ PROC	; Ogre::D3DRenderWindow::destroyDeviceObj
; _this$ = ecx

; 153  : 	{

	push	ebp
	mov	ebp, esp
	push	ecx
	mov	DWORD PTR _this$[ebp], ecx

; 154  : 		SAFE_RELEASE(m_pEventQuery);

	mov	eax, DWORD PTR _this$[ebp]
	cmp	DWORD PTR [eax+84], 0
	je	SHORT $LN3@destroyDev
	mov	ecx, DWORD PTR _this$[ebp]
	mov	edx, DWORD PTR [ecx+84]
	mov	eax, DWORD PTR _this$[ebp]
	mov	ecx, DWORD PTR [eax+84]
	mov	edx, DWORD PTR [edx]
	push	ecx
	mov	eax, DWORD PTR [edx+8]
	call	eax
	mov	ecx, DWORD PTR _this$[ebp]
	mov	DWORD PTR [ecx+84], 0
$LN3@destroyDev:

; 155  : 		SAFE_RELEASE(m_pColorBuffer);

	mov	edx, DWORD PTR _this$[ebp]
	cmp	DWORD PTR [edx+76], 0
	je	SHORT $LN2@destroyDev
	mov	eax, DWORD PTR _this$[ebp]
	mov	ecx, DWORD PTR [eax+76]
	mov	edx, DWORD PTR _this$[ebp]
	mov	eax, DWORD PTR [edx+76]
	mov	ecx, DWORD PTR [ecx]
	push	eax
	mov	edx, DWORD PTR [ecx+8]
	call	edx
	mov	eax, DWORD PTR _this$[ebp]
	mov	DWORD PTR [eax+76], 0
$LN2@destroyDev:

; 156  : 		SAFE_RELEASE(m_pDSBuffer);

	mov	ecx, DWORD PTR _this$[ebp]
	cmp	DWORD PTR [ecx+80], 0
	je	SHORT $LN4@destroyDev
	mov	edx, DWORD PTR _this$[ebp]
	mov	eax, DWORD PTR [edx+80]
	mov	ecx, DWORD PTR _this$[ebp]
	mov	edx, DWORD PTR [ecx+80]
	mov	eax, DWORD PTR [eax]
	push	edx
	mov	ecx, DWORD PTR [eax+8]
	call	ecx
	mov	edx, DWORD PTR _this$[ebp]
	mov	DWORD PTR [edx+80], 0
$LN4@destroyDev:

; 157  : 	}

	mov	esp, ebp
	pop	ebp
	ret	0
?destroyDeviceObj@D3DRenderWindow@Ogre@@AAEXXZ ENDP	; Ogre::D3DRenderWindow::destroyDeviceObj
_TEXT	ENDS
PUBLIC	?onLostDevice@D3DRenderWindow@Ogre@@QAEXXZ	; Ogre::D3DRenderWindow::onLostDevice
; Function compile flags: /Odtp
_TEXT	SEGMENT
_this$ = -4						; size = 4
?onLostDevice@D3DRenderWindow@Ogre@@QAEXXZ PROC		; Ogre::D3DRenderWindow::onLostDevice
; _this$ = ecx

; 160  : 	{

	push	ebp
	mov	ebp, esp
	push	ecx
	mov	DWORD PTR _this$[ebp], ecx

; 161  : 		destroyDeviceObj();

	mov	ecx, DWORD PTR _this$[ebp]
	call	?destroyDeviceObj@D3DRenderWindow@Ogre@@AAEXXZ ; Ogre::D3DRenderWindow::destroyDeviceObj

; 162  : 
; 163  : 		SAFE_RELEASE(m_pSwapChain);

	mov	eax, DWORD PTR _this$[ebp]
	cmp	DWORD PTR [eax+72], 0
	je	SHORT $LN2@onLostDevi
	mov	ecx, DWORD PTR _this$[ebp]
	mov	edx, DWORD PTR [ecx+72]
	mov	eax, DWORD PTR _this$[ebp]
	mov	ecx, DWORD PTR [eax+72]
	mov	edx, DWORD PTR [edx]
	push	ecx
	mov	eax, DWORD PTR [edx+8]
	call	eax
	mov	ecx, DWORD PTR _this$[ebp]
	mov	DWORD PTR [ecx+72], 0
$LN2@onLostDevi:

; 164  : 	}

	mov	esp, ebp
	pop	ebp
	ret	0
?onLostDevice@D3DRenderWindow@Ogre@@QAEXXZ ENDP		; Ogre::D3DRenderWindow::onLostDevice
_TEXT	ENDS
PUBLIC	?getResetDeviceErrcode@Ogre@@YAPBDJ@Z		; Ogre::getResetDeviceErrcode
; Function compile flags: /Odtp
_TEXT	SEGMENT
_hrResult$ = 8						; size = 4
?getResetDeviceErrcode@Ogre@@YAPBDJ@Z PROC		; Ogre::getResetDeviceErrcode

; 167  : 	{

	push	ebp
	mov	ebp, esp

; 168  : 		if ( hrResult == D3D_OK )

	cmp	DWORD PTR _hrResult$[ebp], 0
	jne	SHORT $LN11@getResetDe

; 169  : 		{
; 170  : 			return "D3D_OK"; 

	mov	eax, OFFSET $SG131354
	jmp	SHORT $LN12@getResetDe
	jmp	SHORT $LN10@getResetDe
$LN11@getResetDe:

; 171  : 		}
; 172  : 		else if( hrResult == D3DERR_DEVICELOST )

	cmp	DWORD PTR _hrResult$[ebp], -2005530520	; 88760868H
	jne	SHORT $LN9@getResetDe

; 173  : 		{
; 174  : 			return "D3DERR_DEVICELOST";

	mov	eax, OFFSET $SG131361
	jmp	SHORT $LN12@getResetDe
	jmp	SHORT $LN10@getResetDe
$LN9@getResetDe:

; 175  : 		}
; 176  : 		else if ( hrResult == D3DERR_DEVICEREMOVED )

	cmp	DWORD PTR _hrResult$[ebp], -2005530512	; 88760870H
	jne	SHORT $LN7@getResetDe

; 177  : 		{
; 178  : 			return "D3DERR_DEVICEREMOVED"; 

	mov	eax, OFFSET $SG131368
	jmp	SHORT $LN12@getResetDe
	jmp	SHORT $LN10@getResetDe
$LN7@getResetDe:

; 179  : 		}
; 180  : 		else if ( hrResult == D3DERR_DRIVERINTERNALERROR )

	cmp	DWORD PTR _hrResult$[ebp], -2005530585	; 88760827H
	jne	SHORT $LN5@getResetDe

; 181  : 		{
; 182  : 			return "D3DERR_DRIVERINTERNALERROR";

	mov	eax, OFFSET $SG131375
	jmp	SHORT $LN12@getResetDe
	jmp	SHORT $LN10@getResetDe
$LN5@getResetDe:

; 183  : 		}
; 184  : 		else if ( hrResult == D3DERR_OUTOFVIDEOMEMORY  )

	cmp	DWORD PTR _hrResult$[ebp], -2005532292	; 8876017cH
	jne	SHORT $LN3@getResetDe

; 185  : 		{
; 186  : 			return "D3DERR_OUTOFVIDEOMEMORY ";

	mov	eax, OFFSET $SG131382
	jmp	SHORT $LN12@getResetDe
	jmp	SHORT $LN10@getResetDe
$LN3@getResetDe:

; 187  : 		}
; 188  : 		else if ( hrResult == D3DERR_INVALIDCALL  )

	cmp	DWORD PTR _hrResult$[ebp], -2005530516	; 8876086cH
	jne	SHORT $LN10@getResetDe

; 189  : 		{
; 190  : 			return "D3DERR_INVALIDCALL ";

	mov	eax, OFFSET $SG131389
	jmp	SHORT $LN12@getResetDe
$LN10@getResetDe:

; 191  : 		}
; 192  : 
; 193  : 		return "";

	mov	eax, OFFSET $SG131390
$LN12@getResetDe:

; 194  : 	}

	pop	ebp
	ret	0
?getResetDeviceErrcode@Ogre@@YAPBDJ@Z ENDP		; Ogre::getResetDeviceErrcode
_TEXT	ENDS
PUBLIC	?onResetDevice@D3DRenderWindow@Ogre@@QAE_NXZ	; Ogre::D3DRenderWindow::onResetDevice
EXTRN	_strcmp:PROC
; Function compile flags: /Odtp
_TEXT	SEGMENT
_this$ = -68						; size = 4
_pszErrDesc$131399 = -64				; size = 4
_hrResult$131396 = -60					; size = 4
_d3dpp$ = -56						; size = 56
?onResetDevice@D3DRenderWindow@Ogre@@QAE_NXZ PROC	; Ogre::D3DRenderWindow::onResetDevice
; _this$ = ecx

; 197  : 	{

	push	ebp
	mov	ebp, esp
	sub	esp, 68					; 00000044H
	mov	DWORD PTR _this$[ebp], ecx

; 198  : 		D3DPRESENT_PARAMETERS d3dpp;
; 199  : 		buildPresentParams( d3dpp, m_pRS->getD3DEnum()->ChooseD3DSettings(m_Desc) );

	mov	eax, DWORD PTR _this$[ebp]
	add	eax, 28					; 0000001cH
	push	eax
	mov	ecx, DWORD PTR _this$[ebp]
	mov	ecx, DWORD PTR [ecx+16]
	call	?getD3DEnum@D3D9RenderSystem@Ogre@@QAEPAVD3DEnumeration@2@XZ ; Ogre::D3D9RenderSystem::getD3DEnum
	mov	ecx, eax
	call	?ChooseD3DSettings@D3DEnumeration@Ogre@@QAEABUD3DSETTING_T@2@ABUInitDesc@RenderSystem@2@@Z ; Ogre::D3DEnumeration::ChooseD3DSettings
	push	eax
	lea	edx, DWORD PTR _d3dpp$[ebp]
	push	edx
	mov	ecx, DWORD PTR _this$[ebp]
	call	?buildPresentParams@D3DRenderWindow@Ogre@@AAEXAAU_D3DPRESENT_PARAMETERS_@@ABUD3DSETTING_T@2@@Z ; Ogre::D3DRenderWindow::buildPresentParams

; 200  : 		 
; 201  : 		if(m_bMainTarget)

	mov	eax, DWORD PTR _this$[ebp]
	movzx	ecx, BYTE PTR [eax+124]
	test	ecx, ecx
	je	$LN7@onResetDev

; 202  : 		{
; 203  : 			HRESULT hrResult = m_pd3dDevice->Reset(&d3dpp);

	lea	edx, DWORD PTR _d3dpp$[ebp]
	push	edx
	mov	eax, DWORD PTR _this$[ebp]
	mov	ecx, DWORD PTR [eax+20]
	mov	edx, DWORD PTR _this$[ebp]
	mov	eax, DWORD PTR [edx+20]
	mov	ecx, DWORD PTR [ecx]
	push	eax
	mov	edx, DWORD PTR [ecx+64]
	call	edx
	mov	DWORD PTR _hrResult$131396[ebp], eax

; 204  : 			if( FAILED( hrResult ) ) 

	cmp	DWORD PTR _hrResult$131396[ebp], 0
	jge	SHORT $LN6@onResetDev

; 205  : 			{
; 206  : 				const char* pszErrDesc = getResetDeviceErrcode( hrResult );

	mov	eax, DWORD PTR _hrResult$131396[ebp]
	push	eax
	call	?getResetDeviceErrcode@Ogre@@YAPBDJ@Z	; Ogre::getResetDeviceErrcode
	add	esp, 4
	mov	DWORD PTR _pszErrDesc$131399[ebp], eax

; 207  : 				if ( strcmp(pszErrDesc,"") !=0)

	push	OFFSET $SG131401
	mov	ecx, DWORD PTR _pszErrDesc$131399[ebp]
	push	ecx
	call	_strcmp
	add	esp, 8
	test	eax, eax
	je	SHORT $LN5@onResetDev

; 208  : 				{
; 209  : 					LOG_PRIVATE( "D3DRenderWindow::onResetDevice--重置设备失败，错误码%s--171", pszErrDesc );

	push	64					; 00000040H
	push	209					; 000000d1H
	push	OFFSET $SG131402
	call	DWORD PTR __imp_?LogSetCurParam@Ogre@@YAXPBDHI@Z
	add	esp, 12					; 0000000cH
	mov	edx, DWORD PTR _pszErrDesc$131399[ebp]
	push	edx
	push	OFFSET $SG131403
	call	DWORD PTR __imp_?LogMessage@Ogre@@YAXPBDZZ
	add	esp, 8

; 210  : 				}
; 211  : 				else

	jmp	SHORT $LN4@onResetDev
$LN5@onResetDev:

; 212  : 				{
; 213  : 					LOG_PRIVATE( "D3DRenderWindow::onResetDevice--重置设备失败，错误码%d--171", (int)hrResult );

	push	64					; 00000040H
	push	213					; 000000d5H
	push	OFFSET $SG131406
	call	DWORD PTR __imp_?LogSetCurParam@Ogre@@YAXPBDHI@Z
	add	esp, 12					; 0000000cH
	mov	eax, DWORD PTR _hrResult$131396[ebp]
	push	eax
	push	OFFSET $SG131407
	call	DWORD PTR __imp_?LogMessage@Ogre@@YAXPBDZZ
	add	esp, 8
$LN4@onResetDev:

; 214  : 				}
; 215  : 				return false;

	xor	al, al
	jmp	$LN8@onResetDev
$LN6@onResetDev:

; 216  : 			}
; 217  : 		}
; 218  : 		else

	jmp	SHORT $LN3@onResetDev
$LN7@onResetDev:

; 219  : 		{
; 220  : 			if(FAILED(m_pd3dDevice->CreateAdditionalSwapChain(&d3dpp, &m_pSwapChain))) 

	mov	ecx, DWORD PTR _this$[ebp]
	add	ecx, 72					; 00000048H
	push	ecx
	lea	edx, DWORD PTR _d3dpp$[ebp]
	push	edx
	mov	eax, DWORD PTR _this$[ebp]
	mov	ecx, DWORD PTR [eax+20]
	mov	edx, DWORD PTR _this$[ebp]
	mov	eax, DWORD PTR [edx+20]
	mov	ecx, DWORD PTR [ecx]
	push	eax
	mov	edx, DWORD PTR [ecx+52]
	call	edx
	test	eax, eax
	jge	SHORT $LN3@onResetDev

; 221  : 			{
; 222  : 				LOG_PRIVATE( "D3DRenderWindow::onResetDevice--重置交换链失败--179" );

	push	64					; 00000040H
	push	222					; 000000deH
	push	OFFSET $SG131411
	call	DWORD PTR __imp_?LogSetCurParam@Ogre@@YAXPBDHI@Z
	add	esp, 12					; 0000000cH
	push	OFFSET $SG131412
	call	DWORD PTR __imp_?LogMessage@Ogre@@YAXPBDZZ
	add	esp, 4

; 223  : 				return false;

	xor	al, al
	jmp	SHORT $LN8@onResetDev
$LN3@onResetDev:

; 224  : 			}
; 225  : 		}
; 226  : 
; 227  : 		if(!createDeviceObj())

	mov	ecx, DWORD PTR _this$[ebp]
	call	?createDeviceObj@D3DRenderWindow@Ogre@@AAE_NXZ ; Ogre::D3DRenderWindow::createDeviceObj
	movzx	eax, al
	test	eax, eax
	jne	SHORT $LN1@onResetDev

; 228  : 		{
; 229  : 			LOG_PRIVATE( "D3DRenderWindow::onResetDevice--创建设备对象失败--186" );

	push	64					; 00000040H
	push	229					; 000000e5H
	push	OFFSET $SG131414
	call	DWORD PTR __imp_?LogSetCurParam@Ogre@@YAXPBDHI@Z
	add	esp, 12					; 0000000cH
	push	OFFSET $SG131415
	call	DWORD PTR __imp_?LogMessage@Ogre@@YAXPBDZZ
	add	esp, 4

; 230  : 			return false;

	xor	al, al
	jmp	SHORT $LN8@onResetDev
$LN1@onResetDev:

; 231  : 		}
; 232  : 
; 233  : 		m_bNeedResetDevice = false;

	mov	ecx, DWORD PTR _this$[ebp]
	mov	BYTE PTR [ecx+12], 0

; 234  : 		return true;

	mov	al, 1
$LN8@onResetDev:

; 235  : 	}

	mov	esp, ebp
	pop	ebp
	ret	0
?onResetDevice@D3DRenderWindow@Ogre@@QAE_NXZ ENDP	; Ogre::D3DRenderWindow::onResetDevice
_TEXT	ENDS
EXTRN	?removeD3DRenderWindow@D3D9RenderSystem@Ogre@@QAEXPAVD3DRenderWindow@2@@Z:PROC ; Ogre::D3D9RenderSystem::removeD3DRenderWindow
; Function compile flags: /Odtp
_TEXT	SEGMENT
tv77 = -16						; size = 4
_this$ = -12						; size = 4
$T135978 = -8						; size = 4
$T135977 = -4						; size = 4
?deleteThis@D3DRenderWindow@Ogre@@UAEXXZ PROC		; Ogre::D3DRenderWindow::deleteThis
; _this$ = ecx

; 238  : 	{

	push	ebp
	mov	ebp, esp
	sub	esp, 16					; 00000010H
	mov	DWORD PTR _this$[ebp], ecx

; 239  : 		m_pRS->removeD3DRenderWindow(this);

	mov	eax, DWORD PTR _this$[ebp]
	push	eax
	mov	ecx, DWORD PTR _this$[ebp]
	mov	ecx, DWORD PTR [ecx+16]
	call	?removeD3DRenderWindow@D3D9RenderSystem@Ogre@@QAEXPAVD3DRenderWindow@2@@Z ; Ogre::D3D9RenderSystem::removeD3DRenderWindow

; 240  : 		delete this;

	mov	edx, DWORD PTR _this$[ebp]
	mov	DWORD PTR $T135978[ebp], edx
	mov	eax, DWORD PTR $T135978[ebp]
	mov	DWORD PTR $T135977[ebp], eax
	cmp	DWORD PTR $T135977[ebp], 0
	je	SHORT $LN3@deleteThis
	push	1
	mov	ecx, DWORD PTR $T135977[ebp]
	mov	edx, DWORD PTR [ecx]
	mov	ecx, DWORD PTR $T135977[ebp]
	mov	eax, DWORD PTR [edx+20]
	call	eax
	mov	DWORD PTR tv77[ebp], eax
	jmp	SHORT $LN1@deleteThis
$LN3@deleteThis:
	mov	DWORD PTR tv77[ebp], 0
$LN1@deleteThis:

; 241  : 	}

	mov	esp, ebp
	pop	ebp
	ret	0
?deleteThis@D3DRenderWindow@Ogre@@UAEXXZ ENDP		; Ogre::D3DRenderWindow::deleteThis
_TEXT	ENDS
EXTRN	__imp__IsIconic@4:PROC
; Function compile flags: /Odtp
_TEXT	SEGMENT
_this$ = -20						; size = 4
_oldwidth$ = -16					; size = 4
_width$ = -12						; size = 4
_height$ = -8						; size = 4
_oldheight$ = -4					; size = 4
?onSizeOrMove@D3DRenderWindow@Ogre@@UAEXXZ PROC		; Ogre::D3DRenderWindow::onSizeOrMove
; _this$ = ecx

; 244  : 	{

	push	ebp
	mov	ebp, esp
	sub	esp, 20					; 00000014H
	mov	DWORD PTR _this$[ebp], ecx

; 245  : 		if(m_hWnd==NULL || IsIconic(m_hWnd))

	mov	eax, DWORD PTR _this$[ebp]
	cmp	DWORD PTR [eax+24], 0
	je	SHORT $LN5@onSizeOrMo
	mov	ecx, DWORD PTR _this$[ebp]
	mov	edx, DWORD PTR [ecx+24]
	push	edx
	call	DWORD PTR __imp__IsIconic@4
	test	eax, eax
	je	SHORT $LN6@onSizeOrMo
$LN5@onSizeOrMo:

; 246  : 		{
; 247  : 			return;

	jmp	$LN7@onSizeOrMo
$LN6@onSizeOrMo:

; 248  : 		}
; 249  : 
; 250  : 		if( m_bWindowed && m_hWnd != NULL ) m_dwWindowStyle = GetWindowLong( m_hWnd, GWL_STYLE );

	mov	eax, DWORD PTR _this$[ebp]
	movzx	ecx, BYTE PTR [eax+10]
	test	ecx, ecx
	je	SHORT $LN4@onSizeOrMo
	mov	edx, DWORD PTR _this$[ebp]
	cmp	DWORD PTR [edx+24], 0
	je	SHORT $LN4@onSizeOrMo
	push	-16					; fffffff0H
	mov	eax, DWORD PTR _this$[ebp]
	mov	ecx, DWORD PTR [eax+24]
	push	ecx
	call	DWORD PTR __imp__GetWindowLongA@8
	mov	edx, DWORD PTR _this$[ebp]
	mov	DWORD PTR [edx+88], eax
$LN4@onSizeOrMo:

; 251  : 
; 252  : 		int oldwidth = m_rcWindowClient.right - m_rcWindowClient.left;

	mov	eax, DWORD PTR _this$[ebp]
	mov	ecx, DWORD PTR _this$[ebp]
	mov	edx, DWORD PTR [eax+116]
	sub	edx, DWORD PTR [ecx+108]
	mov	DWORD PTR _oldwidth$[ebp], edx

; 253  : 		int oldheight = m_rcWindowClient.bottom - m_rcWindowClient.top;

	mov	eax, DWORD PTR _this$[ebp]
	mov	ecx, DWORD PTR _this$[ebp]
	mov	edx, DWORD PTR [eax+120]
	sub	edx, DWORD PTR [ecx+112]
	mov	DWORD PTR _oldheight$[ebp], edx

; 254  : 
; 255  : 		GetWindowRect( m_hWnd, &m_rcWindowBounds );

	mov	eax, DWORD PTR _this$[ebp]
	add	eax, 92					; 0000005cH
	push	eax
	mov	ecx, DWORD PTR _this$[ebp]
	mov	edx, DWORD PTR [ecx+24]
	push	edx
	call	DWORD PTR __imp__GetWindowRect@8

; 256  : 		GetClientRect( m_hWnd, &m_rcWindowClient );

	mov	eax, DWORD PTR _this$[ebp]
	add	eax, 108				; 0000006cH
	push	eax
	mov	ecx, DWORD PTR _this$[ebp]
	mov	edx, DWORD PTR [ecx+24]
	push	edx
	call	DWORD PTR __imp__GetClientRect@8

; 257  : 
; 258  : 		int width = m_rcWindowClient.right - m_rcWindowClient.left;

	mov	eax, DWORD PTR _this$[ebp]
	mov	ecx, DWORD PTR _this$[ebp]
	mov	edx, DWORD PTR [eax+116]
	sub	edx, DWORD PTR [ecx+108]
	mov	DWORD PTR _width$[ebp], edx

; 259  : 		int height = m_rcWindowClient.bottom - m_rcWindowClient.top;

	mov	eax, DWORD PTR _this$[ebp]
	mov	ecx, DWORD PTR _this$[ebp]
	mov	edx, DWORD PTR [eax+120]
	sub	edx, DWORD PTR [ecx+112]
	mov	DWORD PTR _height$[ebp], edx

; 260  : 
; 261  : 		if(oldwidth==width && oldheight==height)

	mov	eax, DWORD PTR _oldwidth$[ebp]
	cmp	eax, DWORD PTR _width$[ebp]
	jne	SHORT $LN3@onSizeOrMo
	mov	ecx, DWORD PTR _oldheight$[ebp]
	cmp	ecx, DWORD PTR _height$[ebp]
	jne	SHORT $LN3@onSizeOrMo

; 262  : 		{
; 263  : 			return;

	jmp	SHORT $LN7@onSizeOrMo
$LN3@onSizeOrMo:

; 264  : 		}
; 265  : 
; 266  : 		m_Desc.width = width;

	mov	edx, DWORD PTR _this$[ebp]
	mov	eax, DWORD PTR _width$[ebp]
	mov	DWORD PTR [edx+40], eax

; 267  : 		m_Desc.height = height;

	mov	ecx, DWORD PTR _this$[ebp]
	mov	edx, DWORD PTR _height$[ebp]
	mov	DWORD PTR [ecx+44], edx

; 268  : 		if(m_bMainTarget)

	mov	eax, DWORD PTR _this$[ebp]
	movzx	ecx, BYTE PTR [eax+124]
	test	ecx, ecx
	je	SHORT $LN2@onSizeOrMo

; 269  : 		{
; 270  : 			m_bNeedResetDevice = true;

	mov	edx, DWORD PTR _this$[ebp]
	mov	BYTE PTR [edx+12], 1

; 271  : 		}
; 272  : 		else

	jmp	SHORT $LN7@onSizeOrMo
$LN2@onSizeOrMo:

; 273  : 		{
; 274  : 			onLostDevice();

	mov	ecx, DWORD PTR _this$[ebp]
	call	?onLostDevice@D3DRenderWindow@Ogre@@QAEXXZ ; Ogre::D3DRenderWindow::onLostDevice

; 275  : 			onResetDevice();

	mov	ecx, DWORD PTR _this$[ebp]
	call	?onResetDevice@D3DRenderWindow@Ogre@@QAE_NXZ ; Ogre::D3DRenderWindow::onResetDevice
$LN7@onSizeOrMo:

; 276  : 		}
; 277  : 	}

	mov	esp, ebp
	pop	ebp
	ret	0
?onSizeOrMove@D3DRenderWindow@Ogre@@UAEXXZ ENDP		; Ogre::D3DRenderWindow::onSizeOrMove
; Function compile flags: /Odtp
_this$ = -4						; size = 4
?forceReset@D3DRenderWindow@Ogre@@UAEXXZ PROC		; Ogre::D3DRenderWindow::forceReset
; _this$ = ecx

; 280  : 	{

	push	ebp
	mov	ebp, esp
	push	ecx
	mov	DWORD PTR _this$[ebp], ecx

; 281  : 		m_bNeedResetDevice = true;

	mov	eax, DWORD PTR _this$[ebp]
	mov	BYTE PTR [eax+12], 1

; 282  : 	}

	mov	esp, ebp
	pop	ebp
	ret	0
?forceReset@D3DRenderWindow@Ogre@@UAEXXZ ENDP		; Ogre::D3DRenderWindow::forceReset
; Function compile flags: /Odtp
_this$ = -4						; size = 4
_bSyncRefresh$ = 8					; size = 1
?setSyncRefresh@D3DRenderWindow@Ogre@@UAEX_N@Z PROC	; Ogre::D3DRenderWindow::setSyncRefresh
; _this$ = ecx

; 285  : 	{

	push	ebp
	mov	ebp, esp
	push	ecx
	mov	DWORD PTR _this$[ebp], ecx

; 286  : 		m_Desc.sync_refresh = bSyncRefresh;

	mov	eax, DWORD PTR _this$[ebp]
	mov	cl, BYTE PTR _bSyncRefresh$[ebp]
	mov	BYTE PTR [eax+39], cl

; 287  : 	}

	mov	esp, ebp
	pop	ebp
	ret	4
?setSyncRefresh@D3DRenderWindow@Ogre@@UAEX_N@Z ENDP	; Ogre::D3DRenderWindow::setSyncRefresh
; Function compile flags: /Odtp
_this$ = -4						; size = 4
_nSampleLevel$ = 8					; size = 4
?setMultiSampleLevel@D3DRenderWindow@Ogre@@UAEXH@Z PROC	; Ogre::D3DRenderWindow::setMultiSampleLevel
; _this$ = ecx

; 290  : 	{

	push	ebp
	mov	ebp, esp
	push	ecx
	mov	DWORD PTR _this$[ebp], ecx

; 291  : 		m_Desc.multisample = nSampleLevel;

	mov	eax, DWORD PTR _this$[ebp]
	mov	ecx, DWORD PTR _nSampleLevel$[ebp]
	mov	DWORD PTR [eax+64], ecx

; 292  : 	}

	mov	esp, ebp
	pop	ebp
	ret	4
?setMultiSampleLevel@D3DRenderWindow@Ogre@@UAEXH@Z ENDP	; Ogre::D3DRenderWindow::setMultiSampleLevel
; Function compile flags: /Odtp
_this$ = -4						; size = 4
_d3dpp$ = 8						; size = 4
_setting$ = 12						; size = 4
?buildPresentParams@D3DRenderWindow@Ogre@@AAEXAAU_D3DPRESENT_PARAMETERS_@@ABUD3DSETTING_T@2@@Z PROC ; Ogre::D3DRenderWindow::buildPresentParams
; _this$ = ecx

; 295  : 	{

	push	ebp
	mov	ebp, esp
	push	ecx
	mov	DWORD PTR _this$[ebp], ecx

; 296  : 		d3dpp.Windowed               = setting.pdevcombo->iswindowed;

	mov	eax, DWORD PTR _setting$[ebp]
	mov	ecx, DWORD PTR [eax+8]
	mov	edx, DWORD PTR _d3dpp$[ebp]
	mov	eax, DWORD PTR [ecx+16]
	mov	DWORD PTR [edx+32], eax

; 297  : 		d3dpp.BackBufferCount        = 1;

	mov	ecx, DWORD PTR _d3dpp$[ebp]
	mov	DWORD PTR [ecx+12], 1

; 298  : 		d3dpp.MultiSampleType        = setting.mstype;

	mov	edx, DWORD PTR _d3dpp$[ebp]
	mov	eax, DWORD PTR _setting$[ebp]
	mov	ecx, DWORD PTR [eax+16]
	mov	DWORD PTR [edx+16], ecx

; 299  : 		d3dpp.MultiSampleQuality     = setting.msquality;

	mov	edx, DWORD PTR _d3dpp$[ebp]
	mov	eax, DWORD PTR _setting$[ebp]
	mov	ecx, DWORD PTR [eax+20]
	mov	DWORD PTR [edx+20], ecx

; 300  : 		d3dpp.PresentationInterval   = setting.interval;

	mov	edx, DWORD PTR _d3dpp$[ebp]
	mov	eax, DWORD PTR _setting$[ebp]
	mov	ecx, DWORD PTR [eax+28]
	mov	DWORD PTR [edx+52], ecx

; 301  : 		d3dpp.SwapEffect             = D3DSWAPEFFECT_DISCARD;

	mov	edx, DWORD PTR _d3dpp$[ebp]
	mov	DWORD PTR [edx+24], 1

; 302  : 		d3dpp.EnableAutoDepthStencil = TRUE;

	mov	eax, DWORD PTR _d3dpp$[ebp]
	mov	DWORD PTR [eax+36], 1

; 303  : 		d3dpp.hDeviceWindow          = m_hWnd;

	mov	ecx, DWORD PTR _d3dpp$[ebp]
	mov	edx, DWORD PTR _this$[ebp]
	mov	eax, DWORD PTR [edx+24]
	mov	DWORD PTR [ecx+28], eax

; 304  : 
; 305  : 		d3dpp.Flags                  = D3DPRESENTFLAG_DISCARD_DEPTHSTENCIL;

	mov	ecx, DWORD PTR _d3dpp$[ebp]
	mov	DWORD PTR [ecx+44], 2

; 306  : 		d3dpp.AutoDepthStencilFormat = setting.dsformat;

	mov	edx, DWORD PTR _d3dpp$[ebp]
	mov	eax, DWORD PTR _setting$[ebp]
	mov	ecx, DWORD PTR [eax+12]
	mov	DWORD PTR [edx+40], ecx

; 307  : 
; 308  : 		if( d3dpp.Windowed )

	mov	edx, DWORD PTR _d3dpp$[ebp]
	cmp	DWORD PTR [edx+32], 0
	je	SHORT $LN2@buildPrese

; 309  : 		{
; 310  : 			d3dpp.BackBufferWidth  = m_rcWindowClient.right - m_rcWindowClient.left;

	mov	eax, DWORD PTR _this$[ebp]
	mov	ecx, DWORD PTR _this$[ebp]
	mov	edx, DWORD PTR [eax+116]
	sub	edx, DWORD PTR [ecx+108]
	mov	eax, DWORD PTR _d3dpp$[ebp]
	mov	DWORD PTR [eax], edx

; 311  : 			d3dpp.BackBufferHeight = m_rcWindowClient.bottom - m_rcWindowClient.top;

	mov	ecx, DWORD PTR _this$[ebp]
	mov	edx, DWORD PTR _this$[ebp]
	mov	eax, DWORD PTR [ecx+120]
	sub	eax, DWORD PTR [edx+112]
	mov	ecx, DWORD PTR _d3dpp$[ebp]
	mov	DWORD PTR [ecx+4], eax

; 312  : 			d3dpp.BackBufferFormat = setting.pdevcombo->backbuffmt;

	mov	edx, DWORD PTR _setting$[ebp]
	mov	eax, DWORD PTR [edx+8]
	mov	ecx, DWORD PTR _d3dpp$[ebp]
	mov	edx, DWORD PTR [eax+12]
	mov	DWORD PTR [ecx+8], edx

; 313  : 			d3dpp.FullScreen_RefreshRateInHz = 0;

	mov	eax, DWORD PTR _d3dpp$[ebp]
	mov	DWORD PTR [eax+48], 0

; 314  : 		}
; 315  : 		else

	jmp	SHORT $LN3@buildPrese
$LN2@buildPrese:

; 316  : 		{
; 317  : 			d3dpp.BackBufferWidth  = setting.dispmode.Width;

	mov	ecx, DWORD PTR _d3dpp$[ebp]
	mov	edx, DWORD PTR _setting$[ebp]
	mov	eax, DWORD PTR [edx+32]
	mov	DWORD PTR [ecx], eax

; 318  : 			d3dpp.BackBufferHeight = setting.dispmode.Height;

	mov	ecx, DWORD PTR _d3dpp$[ebp]
	mov	edx, DWORD PTR _setting$[ebp]
	mov	eax, DWORD PTR [edx+36]
	mov	DWORD PTR [ecx+4], eax

; 319  : 			d3dpp.BackBufferFormat = setting.pdevcombo->backbuffmt;

	mov	ecx, DWORD PTR _setting$[ebp]
	mov	edx, DWORD PTR [ecx+8]
	mov	eax, DWORD PTR _d3dpp$[ebp]
	mov	ecx, DWORD PTR [edx+12]
	mov	DWORD PTR [eax+8], ecx

; 320  : 			d3dpp.FullScreen_RefreshRateInHz = setting.dispmode.RefreshRate;

	mov	edx, DWORD PTR _d3dpp$[ebp]
	mov	eax, DWORD PTR _setting$[ebp]
	mov	ecx, DWORD PTR [eax+40]
	mov	DWORD PTR [edx+48], ecx
$LN3@buildPrese:

; 321  : 		}
; 322  : 	}

	mov	esp, ebp
	pop	ebp
	ret	8
?buildPresentParams@D3DRenderWindow@Ogre@@AAEXAAU_D3DPRESENT_PARAMETERS_@@ABUD3DSETTING_T@2@@Z ENDP ; Ogre::D3DRenderWindow::buildPresentParams
; Function compile flags: /Odtp
_this$ = -4						; size = 4
_width$ = 8						; size = 4
_height$ = 12						; size = 4
?getSize@D3DRenderWindow@Ogre@@UAEXAAI0@Z PROC		; Ogre::D3DRenderWindow::getSize
; _this$ = ecx

; 325  : 	{

	push	ebp
	mov	ebp, esp
	push	ecx
	mov	DWORD PTR _this$[ebp], ecx

; 326  : 		width = m_rcWindowClient.right - m_rcWindowClient.left;

	mov	eax, DWORD PTR _this$[ebp]
	mov	ecx, DWORD PTR _this$[ebp]
	mov	edx, DWORD PTR [eax+116]
	sub	edx, DWORD PTR [ecx+108]
	mov	eax, DWORD PTR _width$[ebp]
	mov	DWORD PTR [eax], edx

; 327  : 		height = m_rcWindowClient.bottom - m_rcWindowClient.top;

	mov	ecx, DWORD PTR _this$[ebp]
	mov	edx, DWORD PTR _this$[ebp]
	mov	eax, DWORD PTR [ecx+120]
	sub	eax, DWORD PTR [edx+112]
	mov	ecx, DWORD PTR _height$[ebp]
	mov	DWORD PTR [ecx], eax

; 328  : 	}

	mov	esp, ebp
	pop	ebp
	ret	8
?getSize@D3DRenderWindow@Ogre@@UAEXAAI0@Z ENDP		; Ogre::D3DRenderWindow::getSize
; Function compile flags: /Odtp
_this$ = -4						; size = 4
?beginScene@D3DRenderWindow@Ogre@@UAE_NXZ PROC		; Ogre::D3DRenderWindow::beginScene
; _this$ = ecx

; 331  : 	{

	push	ebp
	mov	ebp, esp
	push	ecx
	mov	DWORD PTR _this$[ebp], ecx

; 332  : 		m_pd3dDevice->SetRenderTarget( 0, m_pColorBuffer );

	mov	eax, DWORD PTR _this$[ebp]
	mov	ecx, DWORD PTR [eax+76]
	push	ecx
	push	0
	mov	edx, DWORD PTR _this$[ebp]
	mov	eax, DWORD PTR [edx+20]
	mov	ecx, DWORD PTR _this$[ebp]
	mov	edx, DWORD PTR [ecx+20]
	mov	eax, DWORD PTR [eax]
	push	edx
	mov	ecx, DWORD PTR [eax+148]
	call	ecx

; 333  : 		if ( m_pDSBuffer != NULL )

	mov	edx, DWORD PTR _this$[ebp]
	cmp	DWORD PTR [edx+80], 0
	je	SHORT $LN1@beginScene

; 334  : 		{
; 335  : 			m_pd3dDevice->SetDepthStencilSurface(m_pDSBuffer);

	mov	eax, DWORD PTR _this$[ebp]
	mov	ecx, DWORD PTR [eax+80]
	push	ecx
	mov	edx, DWORD PTR _this$[ebp]
	mov	eax, DWORD PTR [edx+20]
	mov	ecx, DWORD PTR _this$[ebp]
	mov	edx, DWORD PTR [ecx+20]
	mov	eax, DWORD PTR [eax]
	push	edx
	mov	ecx, DWORD PTR [eax+156]
	call	ecx
$LN1@beginScene:

; 336  : 		}
; 337  : 
; 338  : 		return true;

	mov	al, 1

; 339  : 	}

	mov	esp, ebp
	pop	ebp
	ret	0
?beginScene@D3DRenderWindow@Ogre@@UAE_NXZ ENDP		; Ogre::D3DRenderWindow::beginScene
; Function compile flags: /Odtp
_this$ = -4						; size = 4
?endScene@D3DRenderWindow@Ogre@@UAEXXZ PROC		; Ogre::D3DRenderWindow::endScene
; _this$ = ecx

; 342  : 	{

	push	ebp
	mov	ebp, esp
	push	ecx
	mov	DWORD PTR _this$[ebp], ecx

; 343  : 	}

	mov	esp, ebp
	pop	ebp
	ret	0
?endScene@D3DRenderWindow@Ogre@@UAEXXZ ENDP		; Ogre::D3DRenderWindow::endScene
; Function compile flags: /Odtp
_this$ = -8						; size = 4
_hr$ = -4						; size = 4
?present@D3DRenderWindow@Ogre@@UAEHXZ PROC		; Ogre::D3DRenderWindow::present
; _this$ = ecx

; 346  : 	{

	push	ebp
	mov	ebp, esp
	sub	esp, 8
	mov	DWORD PTR _this$[ebp], ecx

; 347  : 		if(m_bNeedResetDevice)

	mov	eax, DWORD PTR _this$[ebp]
	movzx	ecx, BYTE PTR [eax+12]
	test	ecx, ecx
	je	SHORT $LN8@present

; 348  : 		{
; 349  : 			return PRESENT_LOSTDEVICE;

	mov	eax, 1
	jmp	$LN9@present
$LN8@present:

; 350  : 		}
; 351  : 
; 352  : #ifdef PRESENT_FLUSH
; 353  : 		if( m_pEventQuery )
; 354  : 		{
; 355  : 			// Add an end marker to the command buffer queue.
; 356  : 			m_pEventQuery->Issue(D3DISSUE_END);
; 357  : 
; 358  : 			// Empty the command buffer and wait until the GPU is idle.
; 359  : 			while(S_FALSE == m_pEventQuery->GetData( NULL, 0, D3DGETDATA_FLUSH ))
; 360  : 			{
; 361  : 				Sleep(1);
; 362  : 			}
; 363  : 		}
; 364  : #endif
; 365  : 
; 366  : 		HRESULT hr;
; 367  : 		if(m_bMainTarget)

	mov	edx, DWORD PTR _this$[ebp]
	movzx	eax, BYTE PTR [edx+124]
	test	eax, eax
	je	SHORT $LN7@present

; 368  : 		{
; 369  : 			hr = m_pd3dDevice->Present(NULL, NULL, 0, NULL);

	push	0
	push	0
	push	0
	push	0
	mov	ecx, DWORD PTR _this$[ebp]
	mov	edx, DWORD PTR [ecx+20]
	mov	eax, DWORD PTR _this$[ebp]
	mov	ecx, DWORD PTR [eax+20]
	mov	edx, DWORD PTR [edx]
	push	ecx
	mov	eax, DWORD PTR [edx+68]
	call	eax
	mov	DWORD PTR _hr$[ebp], eax

; 370  : 		}
; 371  : 		else

	jmp	SHORT $LN6@present
$LN7@present:

; 372  : 		{
; 373  : 			hr = m_pSwapChain->Present(NULL, NULL, NULL, NULL, 0);

	push	0
	push	0
	push	0
	push	0
	push	0
	mov	ecx, DWORD PTR _this$[ebp]
	mov	edx, DWORD PTR [ecx+72]
	mov	eax, DWORD PTR _this$[ebp]
	mov	ecx, DWORD PTR [eax+72]
	mov	edx, DWORD PTR [edx]
	push	ecx
	mov	eax, DWORD PTR [edx+12]
	call	eax
	mov	DWORD PTR _hr$[ebp], eax
$LN6@present:

; 374  : 		}
; 375  : 
; 376  : 		if(D3DERR_DEVICELOST == hr) 

	cmp	DWORD PTR _hr$[ebp], -2005530520	; 88760868H
	jne	SHORT $LN5@present

; 377  : 		{
; 378  : 			return PRESENT_LOSTDEVICE;

	mov	eax, 1
	jmp	SHORT $LN9@present
	jmp	SHORT $LN4@present
$LN5@present:

; 379  : 		}
; 380  : 		else if(D3DERR_DRIVERINTERNALERROR == hr)

	cmp	DWORD PTR _hr$[ebp], -2005530585	; 88760827H
	jne	SHORT $LN3@present

; 381  : 		{
; 382  : 			LOG_SEVERE("failed to present D3DRenderWindow");

	push	8
	push	382					; 0000017eH
	push	OFFSET $SG131482
	call	DWORD PTR __imp_?LogSetCurParam@Ogre@@YAXPBDHI@Z
	add	esp, 12					; 0000000cH
	push	OFFSET $SG131483
	call	DWORD PTR __imp_?LogMessage@Ogre@@YAXPBDZZ
	add	esp, 4

; 383  : 			return PRESENT_ERROR;

	mov	eax, 3
	jmp	SHORT $LN9@present
	jmp	SHORT $LN4@present
$LN3@present:

; 384  : 		}
; 385  : 		else if(D3DERR_INVALIDCALL == hr)

	cmp	DWORD PTR _hr$[ebp], -2005530516	; 8876086cH
	jne	SHORT $LN4@present

; 386  : 		{
; 387  : 			LOG_PRIVATE("D3DRenderWindow::present--D3DERR_INVALIDCALL--383");

	push	64					; 00000040H
	push	387					; 00000183H
	push	OFFSET $SG131490
	call	DWORD PTR __imp_?LogSetCurParam@Ogre@@YAXPBDHI@Z
	add	esp, 12					; 0000000cH
	push	OFFSET $SG131491
	call	DWORD PTR __imp_?LogMessage@Ogre@@YAXPBDZZ
	add	esp, 4
$LN4@present:

; 388  : 		}
; 389  : 
; 390  : 		return PRESENT_OK;

	xor	eax, eax
$LN9@present:

; 391  : 	}

	mov	esp, ebp
	pop	ebp
	ret	0
?present@D3DRenderWindow@Ogre@@UAEHXZ ENDP		; Ogre::D3DRenderWindow::present
_TEXT	ENDS
PUBLIC	?getColorBuffer@D3DRenderWindow@Ogre@@QAEPAUIDirect3DSurface9@@XZ ; Ogre::D3DRenderWindow::getColorBuffer
; Function compile flags: /Odtp
_TEXT	SEGMENT
_this$ = -4						; size = 4
?getColorBuffer@D3DRenderWindow@Ogre@@QAEPAUIDirect3DSurface9@@XZ PROC ; Ogre::D3DRenderWindow::getColorBuffer
; _this$ = ecx

; 394  : 	{

	push	ebp
	mov	ebp, esp
	push	ecx
	mov	DWORD PTR _this$[ebp], ecx

; 395  : 		return m_pColorBuffer;

	mov	eax, DWORD PTR _this$[ebp]
	mov	eax, DWORD PTR [eax+76]

; 396  : 	}

	mov	esp, ebp
	pop	ebp
	ret	0
?getColorBuffer@D3DRenderWindow@Ogre@@QAEPAUIDirect3DSurface9@@XZ ENDP ; Ogre::D3DRenderWindow::getColorBuffer
_TEXT	ENDS
END
